
tests-2.0/part2-test1-no-leak.elf:     file format elf32-littlearm


Disassembly of section .text:

00008000 <__code_start__>:
    8000:	e3a00013 	mov	r0, #19, 0
    8004:	e3800080 	orr	r0, r0, #128, 0	; 0x80
    8008:	e129f000 	msr	CPSR_fc, r0
    800c:	e3a01000 	mov	r1, #0, 0
    8010:	ee071f95 	mcr	15, 0, r1, cr7, cr5, {4}
    8014:	e3a0d302 	mov	sp, #134217728	; 0x8000000
    8018:	e3a0b000 	mov	fp, #0, 0
    801c:	eb00056b 	bl	95d0 <_cstart>
    8020:	eb0005b4 	bl	96f8 <rpi_reboot>

00008024 <PUT32>:
    8024:	e5801000 	str	r1, [r0]
    8028:	e12fff1e 	bx	lr

0000802c <GET32>:
    802c:	e5900000 	ldr	r0, [r0]
    8030:	e12fff1e 	bx	lr

00008034 <BRANCHTO>:
    8034:	e12fff10 	bx	r0

00008038 <test1>:
    8038:	e92d4070 	push	{r4, r5, r6, lr}
    803c:	e24dd018 	sub	sp, sp, #24, 0
    8040:	e59f606c 	ldr	r6, [pc, #108]	; 80b4 <test1+0x7c>
    8044:	e58d6000 	str	r6, [sp]
    8048:	e59f5068 	ldr	r5, [pc, #104]	; 80b8 <test1+0x80>
    804c:	e58d5004 	str	r5, [sp, #4]
    8050:	e3a03009 	mov	r3, #9, 0
    8054:	e58d3008 	str	r3, [sp, #8]
    8058:	e1a0300d 	mov	r3, sp
    805c:	e893000e 	ldm	r3, {r1, r2, r3}
    8060:	e3a00004 	mov	r0, #4, 0
    8064:	eb0000ab 	bl	8318 <ckalloc>
    8068:	e1a04000 	mov	r4, r0
    806c:	e1a02000 	mov	r2, r0
    8070:	e510109c 	ldr	r1, [r0, #-156]	; 0xffffff64
    8074:	e59f0040 	ldr	r0, [pc, #64]	; 80bc <test1+0x84>
    8078:	eb0002b8 	bl	8b60 <printk>
    807c:	e3a02004 	mov	r2, #4, 0
    8080:	e3a01000 	mov	r1, #0, 0
    8084:	e1a00004 	mov	r0, r4
    8088:	eb000296 	bl	8ae8 <memset>
    808c:	e58d600c 	str	r6, [sp, #12]
    8090:	e58d5010 	str	r5, [sp, #16]
    8094:	e3a0300c 	mov	r3, #12, 0
    8098:	e58d3014 	str	r3, [sp, #20]
    809c:	e28d3018 	add	r3, sp, #24, 0
    80a0:	e913000e 	ldmdb	r3, {r1, r2, r3}
    80a4:	e1a00004 	mov	r0, r4
    80a8:	eb000047 	bl	81cc <ckfree>
    80ac:	e28dd018 	add	sp, sp, #24, 0
    80b0:	e8bd8070 	pop	{r4, r5, r6, pc}
    80b4:	0000a0c0 	andeq	sl, r0, r0, asr #1
    80b8:	0000a15c 	andeq	sl, r0, ip, asr r1
    80bc:	0000a0e0 	andeq	sl, r0, r0, ror #1

000080c0 <notmain>:
    80c0:	e92d4010 	push	{r4, lr}
    80c4:	e59f0038 	ldr	r0, [pc, #56]	; 8104 <notmain+0x44>
    80c8:	eb0002a4 	bl	8b60 <printk>
    80cc:	ebffffd9 	bl	8038 <test1>
    80d0:	e3a00001 	mov	r0, #1, 0
    80d4:	eb000212 	bl	8924 <ck_find_leaks>
    80d8:	e3500000 	cmp	r0, #0, 0
    80dc:	1a000002 	bne	80ec <notmain+0x2c>
    80e0:	e59f0020 	ldr	r0, [pc, #32]	; 8108 <notmain+0x48>
    80e4:	eb00029d 	bl	8b60 <printk>
    80e8:	e8bd8010 	pop	{r4, pc}
    80ec:	e3a0301f 	mov	r3, #31, 0
    80f0:	e59f2014 	ldr	r2, [pc, #20]	; 810c <notmain+0x4c>
    80f4:	e59f1014 	ldr	r1, [pc, #20]	; 8110 <notmain+0x50>
    80f8:	e59f0014 	ldr	r0, [pc, #20]	; 8114 <notmain+0x54>
    80fc:	eb000297 	bl	8b60 <printk>
    8100:	eb000527 	bl	95a4 <clean_reboot>
    8104:	0000a10c 	andeq	sl, r0, ip, lsl #2
    8108:	0000a140 	andeq	sl, r0, r0, asr #2
    810c:	0000a164 	andeq	sl, r0, r4, ror #2
    8110:	0000a0c0 	andeq	sl, r0, r0, asr #1
    8114:	0000a118 	andeq	sl, r0, r8, lsl r1

00008118 <ck_first_hdr>:
    8118:	e59f3004 	ldr	r3, [pc, #4]	; 8124 <ck_first_hdr+0xc>
    811c:	e5930000 	ldr	r0, [r3]
    8120:	e12fff1e 	bx	lr
    8124:	0000a978 	andeq	sl, r0, r8, ror r9

00008128 <ck_next_hdr>:
    8128:	e3500000 	cmp	r0, #0, 0
    812c:	15900000 	ldrne	r0, [r0]
    8130:	e12fff1e 	bx	lr

00008134 <ck_hdr_start>:
    8134:	e28000a8 	add	r0, r0, #168, 0	; 0xa8
    8138:	e12fff1e 	bx	lr

0000813c <ck_hdr_end>:
    813c:	e5903004 	ldr	r3, [r0, #4]
    8140:	e28330a8 	add	r3, r3, #168, 0	; 0xa8
    8144:	e0800003 	add	r0, r0, r3
    8148:	e12fff1e 	bx	lr

0000814c <ck_ptr_in_block>:
    814c:	e5902004 	ldr	r2, [r0, #4]
    8150:	e28220a8 	add	r2, r2, #168, 0	; 0xa8
    8154:	e0802002 	add	r2, r0, r2
    8158:	e28000a8 	add	r0, r0, #168, 0	; 0xa8
    815c:	e1500001 	cmp	r0, r1
    8160:	91510002 	cmpls	r1, r2
    8164:	33a00001 	movcc	r0, #1, 0
    8168:	23a00000 	movcs	r0, #0, 0
    816c:	e12fff1e 	bx	lr

00008170 <ck_ptr_is_alloced>:
    8170:	e92d4070 	push	{r4, r5, r6, lr}
    8174:	e1a05000 	mov	r5, r0
    8178:	e59f3044 	ldr	r3, [pc, #68]	; 81c4 <ck_ptr_is_alloced+0x54>
    817c:	e5934000 	ldr	r4, [r3]
    8180:	e3540000 	cmp	r4, #0, 0
    8184:	0a00000c 	beq	81bc <ck_ptr_is_alloced+0x4c>
    8188:	e1a01005 	mov	r1, r5
    818c:	e1a00004 	mov	r0, r4
    8190:	ebffffed 	bl	814c <ck_ptr_in_block>
    8194:	e3500000 	cmp	r0, #0, 0
    8198:	1a000003 	bne	81ac <ck_ptr_is_alloced+0x3c>
    819c:	e5944000 	ldr	r4, [r4]
    81a0:	e3540000 	cmp	r4, #0, 0
    81a4:	1afffff7 	bne	8188 <ck_ptr_is_alloced+0x18>
    81a8:	ea000003 	b	81bc <ck_ptr_is_alloced+0x4c>
    81ac:	e1a02004 	mov	r2, r4
    81b0:	e1a01005 	mov	r1, r5
    81b4:	e59f000c 	ldr	r0, [pc, #12]	; 81c8 <ck_ptr_is_alloced+0x58>
    81b8:	eb000268 	bl	8b60 <printk>
    81bc:	e1a00004 	mov	r0, r4
    81c0:	e8bd8070 	pop	{r4, r5, r6, pc}
    81c4:	0000a978 	andeq	sl, r0, r8, ror r9
    81c8:	0000a16c 	andeq	sl, r0, ip, ror #2

000081cc <ckfree>:
    81cc:	e92d41f0 	push	{r4, r5, r6, r7, r8, lr}
    81d0:	e24dd018 	sub	sp, sp, #24, 0
    81d4:	e1a04000 	mov	r4, r0
    81d8:	e28d0018 	add	r0, sp, #24, 0
    81dc:	e900000e 	stmdb	r0, {r1, r2, r3}
    81e0:	e59d500c 	ldr	r5, [sp, #12]
    81e4:	e59d6010 	ldr	r6, [sp, #16]
    81e8:	e59d7014 	ldr	r7, [sp, #20]
    81ec:	e1a03007 	mov	r3, r7
    81f0:	e1a02006 	mov	r2, r6
    81f4:	e1a01005 	mov	r1, r5
    81f8:	e59f00ec 	ldr	r0, [pc, #236]	; 82ec <ckfree+0x120>
    81fc:	eb000257 	bl	8b60 <printk>
    8200:	e1a01004 	mov	r1, r4
    8204:	e59f00e4 	ldr	r0, [pc, #228]	; 82f0 <ckfree+0x124>
    8208:	eb000254 	bl	8b60 <printk>
    820c:	e51430a0 	ldr	r3, [r4, #-160]	; 0xffffff60
    8210:	e353000b 	cmp	r3, #11, 0
    8214:	1a00000e 	bne	8254 <ckfree+0x88>
    8218:	e24480a8 	sub	r8, r4, #168, 0	; 0xa8
    821c:	e3a0300c 	mov	r3, #12, 0
    8220:	e50430a0 	str	r3, [r4, #-160]	; 0xffffff60
    8224:	e1a00004 	mov	r0, r4
    8228:	ebffffd0 	bl	8170 <ck_ptr_is_alloced>
    822c:	e3500000 	cmp	r0, #0, 0
    8230:	0a000010 	beq	8278 <ckfree+0xac>
    8234:	e59f30b8 	ldr	r3, [pc, #184]	; 82f4 <ckfree+0x128>
    8238:	e5933000 	ldr	r3, [r3]
    823c:	e1580003 	cmp	r8, r3
    8240:	1a000020 	bne	82c8 <ckfree+0xfc>
    8244:	e51420a8 	ldr	r2, [r4, #-168]	; 0xffffff58
    8248:	e59f30a4 	ldr	r3, [pc, #164]	; 82f4 <ckfree+0x128>
    824c:	e5832000 	str	r2, [r3]
    8250:	ea000012 	b	82a0 <ckfree+0xd4>
    8254:	e1a03007 	mov	r3, r7
    8258:	e1a02006 	mov	r2, r6
    825c:	e1a01005 	mov	r1, r5
    8260:	e59f0090 	ldr	r0, [pc, #144]	; 82f8 <ckfree+0x12c>
    8264:	eb00023d 	bl	8b60 <printk>
    8268:	e51410a0 	ldr	r1, [r4, #-160]	; 0xffffff60
    826c:	e59f0088 	ldr	r0, [pc, #136]	; 82fc <ckfree+0x130>
    8270:	eb00023a 	bl	8b60 <printk>
    8274:	eb0004ca 	bl	95a4 <clean_reboot>
    8278:	e59f3080 	ldr	r3, [pc, #128]	; 8300 <ckfree+0x134>
    827c:	e58d3000 	str	r3, [sp]
    8280:	e3a0305d 	mov	r3, #93, 0	; 0x5d
    8284:	e59f2078 	ldr	r2, [pc, #120]	; 8304 <ckfree+0x138>
    8288:	e59f1078 	ldr	r1, [pc, #120]	; 8308 <ckfree+0x13c>
    828c:	e59f0078 	ldr	r0, [pc, #120]	; 830c <ckfree+0x140>
    8290:	eb000232 	bl	8b60 <printk>
    8294:	eb0004c2 	bl	95a4 <clean_reboot>
    8298:	e5922000 	ldr	r2, [r2]
    829c:	e5832000 	str	r2, [r3]
    82a0:	e1a00008 	mov	r0, r8
    82a4:	eb000040 	bl	83ac <kr_free>
    82a8:	e28dd018 	add	sp, sp, #24, 0
    82ac:	e8bd81f0 	pop	{r4, r5, r6, r7, r8, pc}
    82b0:	e5932000 	ldr	r2, [r3]
    82b4:	e3520000 	cmp	r2, #0, 0
    82b8:	0a000004 	beq	82d0 <ckfree+0x104>
    82bc:	e1580002 	cmp	r8, r2
    82c0:	0afffff4 	beq	8298 <ckfree+0xcc>
    82c4:	e1a03002 	mov	r3, r2
    82c8:	e3530000 	cmp	r3, #0, 0
    82cc:	1afffff7 	bne	82b0 <ckfree+0xe4>
    82d0:	e58d8000 	str	r8, [sp]
    82d4:	e3a0304f 	mov	r3, #79, 0	; 0x4f
    82d8:	e59f2030 	ldr	r2, [pc, #48]	; 8310 <ckfree+0x144>
    82dc:	e59f1024 	ldr	r1, [pc, #36]	; 8308 <ckfree+0x13c>
    82e0:	e59f002c 	ldr	r0, [pc, #44]	; 8314 <ckfree+0x148>
    82e4:	eb00021d 	bl	8b60 <printk>
    82e8:	eb0004ad 	bl	95a4 <clean_reboot>
    82ec:	0000a17c 	andeq	sl, r0, ip, ror r1
    82f0:	0000a188 	andeq	sl, r0, r8, lsl #3
    82f4:	0000a978 	andeq	sl, r0, r8, ror r9
    82f8:	0000a198 	muleq	r0, r8, r1
    82fc:	0000a1b0 			; <UNDEFINED> instruction: 0x0000a1b0
    8300:	0000a1f8 	strdeq	sl, [r0], -r8
    8304:	0000a258 	andeq	sl, r0, r8, asr r2
    8308:	0000a1d8 	ldrdeq	sl, [r0], -r8
    830c:	0000a1e4 	andeq	sl, r0, r4, ror #3
    8310:	0000a260 	andeq	sl, r0, r0, ror #4
    8314:	0000a210 	andeq	sl, r0, r0, lsl r2

00008318 <ckalloc>:
    8318:	e92d4070 	push	{r4, r5, r6, lr}
    831c:	e24dd010 	sub	sp, sp, #16, 0
    8320:	e1a06000 	mov	r6, r0
    8324:	e28d5004 	add	r5, sp, #4, 0
    8328:	e885000e 	stm	r5, {r1, r2, r3}
    832c:	e28000a8 	add	r0, r0, #168, 0	; 0xa8
    8330:	eb000046 	bl	8450 <kr_malloc>
    8334:	e1a04000 	mov	r4, r0
    8338:	e3a020a8 	mov	r2, #168, 0	; 0xa8
    833c:	e3a01000 	mov	r1, #0, 0
    8340:	eb0001e8 	bl	8ae8 <memset>
    8344:	e5846004 	str	r6, [r4, #4]
    8348:	e3a0300b 	mov	r3, #11, 0
    834c:	e5843008 	str	r3, [r4, #8]
    8350:	e2843010 	add	r3, r4, #16, 0
    8354:	e8950007 	ldm	r5, {r0, r1, r2}
    8358:	e8830007 	stm	r3, {r0, r1, r2}
    835c:	e59d300c 	ldr	r3, [sp, #12]
    8360:	e59d2008 	ldr	r2, [sp, #8]
    8364:	e59d1004 	ldr	r1, [sp, #4]
    8368:	e59f0030 	ldr	r0, [pc, #48]	; 83a0 <ckalloc+0x88>
    836c:	eb0001fb 	bl	8b60 <printk>
    8370:	e28450a8 	add	r5, r4, #168, 0	; 0xa8
    8374:	e1a02006 	mov	r2, r6
    8378:	e1a01005 	mov	r1, r5
    837c:	e59f0020 	ldr	r0, [pc, #32]	; 83a4 <ckalloc+0x8c>
    8380:	eb0001f6 	bl	8b60 <printk>
    8384:	e59f301c 	ldr	r3, [pc, #28]	; 83a8 <ckalloc+0x90>
    8388:	e5932000 	ldr	r2, [r3]
    838c:	e5842000 	str	r2, [r4]
    8390:	e5834000 	str	r4, [r3]
    8394:	e1a00005 	mov	r0, r5
    8398:	e28dd010 	add	sp, sp, #16, 0
    839c:	e8bd8070 	pop	{r4, r5, r6, pc}
    83a0:	0000a17c 	andeq	sl, r0, ip, ror r1
    83a4:	0000a23c 	andeq	sl, r0, ip, lsr r2
    83a8:	0000a978 	andeq	sl, r0, r8, ror r9

000083ac <kr_free>:
    83ac:	e52de004 	push	{lr}		; (str lr, [sp, #-4]!)
    83b0:	e2401008 	sub	r1, r0, #8, 0
    83b4:	e59f3090 	ldr	r3, [pc, #144]	; 844c <kr_free+0xa0>
    83b8:	e5933000 	ldr	r3, [r3]
    83bc:	ea000005 	b	83d8 <kr_free+0x2c>
    83c0:	e5932000 	ldr	r2, [r3]
    83c4:	e1520003 	cmp	r2, r3
    83c8:	8a000001 	bhi	83d4 <kr_free+0x28>
    83cc:	e1520001 	cmp	r2, r1
    83d0:	8a000007 	bhi	83f4 <kr_free+0x48>
    83d4:	e1a03002 	mov	r3, r2
    83d8:	e1530001 	cmp	r3, r1
    83dc:	2afffff7 	bcs	83c0 <kr_free+0x14>
    83e0:	e5932000 	ldr	r2, [r3]
    83e4:	e1520001 	cmp	r2, r1
    83e8:	8a000001 	bhi	83f4 <kr_free+0x48>
    83ec:	e1520003 	cmp	r2, r3
    83f0:	8afffff7 	bhi	83d4 <kr_free+0x28>
    83f4:	e510c004 	ldr	ip, [r0, #-4]
    83f8:	e5932000 	ldr	r2, [r3]
    83fc:	e081e18c 	add	lr, r1, ip, lsl #3
    8400:	e152000e 	cmp	r2, lr
    8404:	05922004 	ldreq	r2, [r2, #4]
    8408:	0082c00c 	addeq	ip, r2, ip
    840c:	0500c004 	streq	ip, [r0, #-4]
    8410:	05932000 	ldreq	r2, [r3]
    8414:	05922000 	ldreq	r2, [r2]
    8418:	e5002008 	str	r2, [r0, #-8]
    841c:	e5932004 	ldr	r2, [r3, #4]
    8420:	e083c182 	add	ip, r3, r2, lsl #3
    8424:	e151000c 	cmp	r1, ip
    8428:	05101004 	ldreq	r1, [r0, #-4]
    842c:	00812002 	addeq	r2, r1, r2
    8430:	05832004 	streq	r2, [r3, #4]
    8434:	05102008 	ldreq	r2, [r0, #-8]
    8438:	05832000 	streq	r2, [r3]
    843c:	15831000 	strne	r1, [r3]
    8440:	e59f2004 	ldr	r2, [pc, #4]	; 844c <kr_free+0xa0>
    8444:	e5823000 	str	r3, [r2]
    8448:	e49df004 	pop	{pc}		; (ldr pc, [sp], #4)
    844c:	0000a980 	andeq	sl, r0, r0, lsl #19

00008450 <kr_malloc>:
    8450:	e92d41f0 	push	{r4, r5, r6, r7, r8, lr}
    8454:	e2804007 	add	r4, r0, #7, 0
    8458:	e1a041a4 	lsr	r4, r4, #3
    845c:	e2844001 	add	r4, r4, #1, 0
    8460:	e59f30cc 	ldr	r3, [pc, #204]	; 8534 <kr_malloc+0xe4>
    8464:	e5930000 	ldr	r0, [r3]
    8468:	e3500000 	cmp	r0, #0, 0
    846c:	0a000007 	beq	8490 <kr_malloc+0x40>
    8470:	e5903000 	ldr	r3, [r0]
    8474:	e5932004 	ldr	r2, [r3, #4]
    8478:	e1540002 	cmp	r4, r2
    847c:	9a00000a 	bls	84ac <kr_malloc+0x5c>
    8480:	e59f50ac 	ldr	r5, [pc, #172]	; 8534 <kr_malloc+0xe4>
    8484:	e59f70ac 	ldr	r7, [pc, #172]	; 8538 <kr_malloc+0xe8>
    8488:	e3a06902 	mov	r6, #32768	; 0x8000
    848c:	ea00001b 	b	8500 <kr_malloc+0xb0>
    8490:	e1a02003 	mov	r2, r3
    8494:	e2833008 	add	r3, r3, #8, 0
    8498:	e5823000 	str	r3, [r2]
    849c:	e5823008 	str	r3, [r2, #8]
    84a0:	e3a01000 	mov	r1, #0, 0
    84a4:	e582100c 	str	r1, [r2, #12]
    84a8:	eafffff4 	b	8480 <kr_malloc+0x30>
    84ac:	e1540002 	cmp	r4, r2
    84b0:	05932000 	ldreq	r2, [r3]
    84b4:	05802000 	streq	r2, [r0]
    84b8:	10422004 	subne	r2, r2, r4
    84bc:	15832004 	strne	r2, [r3, #4]
    84c0:	10833182 	addne	r3, r3, r2, lsl #3
    84c4:	15834004 	strne	r4, [r3, #4]
    84c8:	e59f2064 	ldr	r2, [pc, #100]	; 8534 <kr_malloc+0xe4>
    84cc:	e5820000 	str	r0, [r2]
    84d0:	e2830008 	add	r0, r3, #8, 0
    84d4:	e8bd81f0 	pop	{r4, r5, r6, r7, r8, pc}
    84d8:	e5806004 	str	r6, [r0, #4]
    84dc:	e2800008 	add	r0, r0, #8, 0
    84e0:	ebffffb1 	bl	83ac <kr_free>
    84e4:	e5950000 	ldr	r0, [r5]
    84e8:	e3500000 	cmp	r0, #0, 0
    84ec:	08bd81f0 	popeq	{r4, r5, r6, r7, r8, pc}
    84f0:	e5903000 	ldr	r3, [r0]
    84f4:	e5932004 	ldr	r2, [r3, #4]
    84f8:	e1520004 	cmp	r2, r4
    84fc:	2affffea 	bcs	84ac <kr_malloc+0x5c>
    8500:	e5952000 	ldr	r2, [r5]
    8504:	e1520003 	cmp	r2, r3
    8508:	11a00003 	movne	r0, r3
    850c:	1afffff7 	bne	84f0 <kr_malloc+0xa0>
    8510:	e1a01006 	mov	r1, r6
    8514:	e1a00007 	mov	r0, r7
    8518:	eb000190 	bl	8b60 <printk>
    851c:	e3a00701 	mov	r0, #262144	; 0x40000
    8520:	eb0000d6 	bl	8880 <sbrk>
    8524:	e3700001 	cmn	r0, #1, 0
    8528:	1affffea 	bne	84d8 <kr_malloc+0x88>
    852c:	e3a00000 	mov	r0, #0, 0
    8530:	e8bd81f0 	pop	{r4, r5, r6, r7, r8, pc}
    8534:	0000a980 	andeq	sl, r0, r0, lsl #19
    8538:	0000a26c 	andeq	sl, r0, ip, ror #4

0000853c <mark>:
    853c:	e92d4ff0 	push	{r4, r5, r6, r7, r8, r9, sl, fp, lr}
    8540:	e24dd00c 	sub	sp, sp, #12, 0
    8544:	e1500001 	cmp	r0, r1
    8548:	2a00000b 	bcs	857c <mark+0x40>
    854c:	e1a04000 	mov	r4, r0
    8550:	e3100003 	tst	r0, #3, 0
    8554:	1a000010 	bne	859c <mark+0x60>
    8558:	e3110003 	tst	r1, #3, 0
    855c:	1a000016 	bne	85bc <mark+0x80>
    8560:	e0416000 	sub	r6, r1, r0
    8564:	e3c66003 	bic	r6, r6, #3, 0
    8568:	e2800004 	add	r0, r0, #4, 0
    856c:	e0866000 	add	r6, r6, r0
    8570:	e59f8128 	ldr	r8, [pc, #296]	; 86a0 <mark+0x164>
    8574:	e59fb128 	ldr	fp, [pc, #296]	; 86a4 <mark+0x168>
    8578:	ea00001b 	b	85ec <mark+0xb0>
    857c:	e59f3124 	ldr	r3, [pc, #292]	; 86a8 <mark+0x16c>
    8580:	e58d3000 	str	r3, [sp]
    8584:	e3a03052 	mov	r3, #82, 0	; 0x52
    8588:	e59f211c 	ldr	r2, [pc, #284]	; 86ac <mark+0x170>
    858c:	e59f111c 	ldr	r1, [pc, #284]	; 86b0 <mark+0x174>
    8590:	e59f011c 	ldr	r0, [pc, #284]	; 86b4 <mark+0x178>
    8594:	eb000171 	bl	8b60 <printk>
    8598:	eb000401 	bl	95a4 <clean_reboot>
    859c:	e59f3114 	ldr	r3, [pc, #276]	; 86b8 <mark+0x17c>
    85a0:	e58d3000 	str	r3, [sp]
    85a4:	e3a03055 	mov	r3, #85, 0	; 0x55
    85a8:	e59f20fc 	ldr	r2, [pc, #252]	; 86ac <mark+0x170>
    85ac:	e59f10fc 	ldr	r1, [pc, #252]	; 86b0 <mark+0x174>
    85b0:	e59f00fc 	ldr	r0, [pc, #252]	; 86b4 <mark+0x178>
    85b4:	eb000169 	bl	8b60 <printk>
    85b8:	eb0003f9 	bl	95a4 <clean_reboot>
    85bc:	e59f30f8 	ldr	r3, [pc, #248]	; 86bc <mark+0x180>
    85c0:	e58d3000 	str	r3, [sp]
    85c4:	e3a03056 	mov	r3, #86, 0	; 0x56
    85c8:	e59f20dc 	ldr	r2, [pc, #220]	; 86ac <mark+0x170>
    85cc:	e59f10dc 	ldr	r1, [pc, #220]	; 86b0 <mark+0x174>
    85d0:	e59f00dc 	ldr	r0, [pc, #220]	; 86b4 <mark+0x178>
    85d4:	eb000161 	bl	8b60 <printk>
    85d8:	eb0003f1 	bl	95a4 <clean_reboot>
    85dc:	e59f00dc 	ldr	r0, [pc, #220]	; 86c0 <mark+0x184>
    85e0:	eb00015e 	bl	8b60 <printk>
    85e4:	e1540006 	cmp	r4, r6
    85e8:	0a00002a 	beq	8698 <mark+0x15c>
    85ec:	e1a07004 	mov	r7, r4
    85f0:	e2844004 	add	r4, r4, #4, 0
    85f4:	e5970000 	ldr	r0, [r7]
    85f8:	e5983000 	ldr	r3, [r8]
    85fc:	e1500003 	cmp	r0, r3
    8600:	3afffff7 	bcc	85e4 <mark+0xa8>
    8604:	e5983004 	ldr	r3, [r8, #4]
    8608:	e1500003 	cmp	r0, r3
    860c:	2afffff4 	bcs	85e4 <mark+0xa8>
    8610:	ebfffed6 	bl	8170 <ck_ptr_is_alloced>
    8614:	e2505000 	subs	r5, r0, #0, 0
    8618:	0afffff1 	beq	85e4 <mark+0xa8>
    861c:	e28590a8 	add	r9, r5, #168, 0	; 0xa8
    8620:	e1d5a2b4 	ldrh	sl, [r5, #36]	; 0x24
    8624:	e1a00005 	mov	r0, r5
    8628:	ebfffec1 	bl	8134 <ck_hdr_start>
    862c:	e1a01000 	mov	r1, r0
    8630:	e5143004 	ldr	r3, [r4, #-4]
    8634:	e58d9000 	str	r9, [sp]
    8638:	e1a02007 	mov	r2, r7
    863c:	e1a0000b 	mov	r0, fp
    8640:	eb000146 	bl	8b60 <printk>
    8644:	e35a0001 	cmp	sl, #1, 0
    8648:	8affffe3 	bhi	85dc <mark+0xa0>
    864c:	e5143004 	ldr	r3, [r4, #-4]
    8650:	e1530009 	cmp	r3, r9
    8654:	03a03002 	moveq	r3, #2, 0
    8658:	13a03001 	movne	r3, #1, 0
    865c:	e1c532b4 	strh	r3, [r5, #36]	; 0x24
    8660:	e5141004 	ldr	r1, [r4, #-4]
    8664:	e1510009 	cmp	r1, r9
    8668:	03a01002 	moveq	r1, #2, 0
    866c:	13a01001 	movne	r1, #1, 0
    8670:	e59f004c 	ldr	r0, [pc, #76]	; 86c4 <mark+0x188>
    8674:	eb000139 	bl	8b60 <printk>
    8678:	e35a0000 	cmp	sl, #0, 0
    867c:	1affffd8 	bne	85e4 <mark+0xa8>
    8680:	e5951004 	ldr	r1, [r5, #4]
    8684:	e28110a8 	add	r1, r1, #168, 0	; 0xa8
    8688:	e0851001 	add	r1, r5, r1
    868c:	e2850004 	add	r0, r5, #4, 0
    8690:	ebffffa9 	bl	853c <mark>
    8694:	eaffffd2 	b	85e4 <mark+0xa8>
    8698:	e28dd00c 	add	sp, sp, #12, 0
    869c:	e8bd8ff0 	pop	{r4, r5, r6, r7, r8, r9, sl, fp, pc}
    86a0:	0000a990 	muleq	r0, r0, r9
    86a4:	0000a2c0 	andeq	sl, r0, r0, asr #5
    86a8:	0000a298 	muleq	r0, r8, r2
    86ac:	0000a5a8 	andeq	sl, r0, r8, lsr #11
    86b0:	0000a290 	muleq	r0, r0, r2
    86b4:	0000a1e4 	andeq	sl, r0, r4, ror #3
    86b8:	0000a2a0 	andeq	sl, r0, r0, lsr #5
    86bc:	0000a2b0 			; <UNDEFINED> instruction: 0x0000a2b0
    86c0:	0000a2fc 	strdeq	sl, [r0], -ip
    86c4:	0000a2ec 	andeq	sl, r0, ip, ror #5

000086c8 <mark_all>:
    86c8:	e92d4010 	push	{r4, lr}
    86cc:	e24dd040 	sub	sp, sp, #64, 0	; 0x40
    86d0:	ebfffe90 	bl	8118 <ck_first_hdr>
    86d4:	e3500000 	cmp	r0, #0, 0
    86d8:	0a000006 	beq	86f8 <mark_all+0x30>
    86dc:	e3a04000 	mov	r4, #0, 0
    86e0:	e5804020 	str	r4, [r0, #32]
    86e4:	e580401c 	str	r4, [r0, #28]
    86e8:	e1c042b4 	strh	r4, [r0, #36]	; 0x24
    86ec:	ebfffe8d 	bl	8128 <ck_next_hdr>
    86f0:	e3500000 	cmp	r0, #0, 0
    86f4:	1afffff9 	bne	86e0 <mark_all+0x18>
    86f8:	e1a0000d 	mov	r0, sp
    86fc:	eb0000f7 	bl	8ae0 <dump_regs>
    8700:	e3a03000 	mov	r3, #0, 0
    8704:	e58d3000 	str	r3, [sp]
    8708:	e58d3004 	str	r3, [sp, #4]
    870c:	e58d3008 	str	r3, [sp, #8]
    8710:	e58d300c 	str	r3, [sp, #12]
    8714:	e28d1038 	add	r1, sp, #56, 0	; 0x38
    8718:	e1a0000d 	mov	r0, sp
    871c:	ebffff86 	bl	853c <mark>
    8720:	e3a02302 	mov	r2, #134217728	; 0x8000000
    8724:	e59d1034 	ldr	r1, [sp, #52]	; 0x34
    8728:	e59f002c 	ldr	r0, [pc, #44]	; 875c <mark_all+0x94>
    872c:	eb00010b 	bl	8b60 <printk>
    8730:	e3a01302 	mov	r1, #134217728	; 0x8000000
    8734:	e59d0034 	ldr	r0, [sp, #52]	; 0x34
    8738:	ebffff7f 	bl	853c <mark>
    873c:	e59f101c 	ldr	r1, [pc, #28]	; 8760 <mark_all+0x98>
    8740:	e59f001c 	ldr	r0, [pc, #28]	; 8764 <mark_all+0x9c>
    8744:	ebffff7c 	bl	853c <mark>
    8748:	e59f1018 	ldr	r1, [pc, #24]	; 8768 <mark_all+0xa0>
    874c:	e59f0018 	ldr	r0, [pc, #24]	; 876c <mark_all+0xa4>
    8750:	ebffff79 	bl	853c <mark>
    8754:	e28dd040 	add	sp, sp, #64, 0	; 0x40
    8758:	e8bd8010 	pop	{r4, pc}
    875c:	0000a30c 	andeq	sl, r0, ip, lsl #6
    8760:	0000ada0 	andeq	sl, r0, r0, lsr #27
    8764:	0000a978 	andeq	sl, r0, r8, ror r9
    8768:	0000a978 	andeq	sl, r0, r8, ror r9
    876c:	0000a964 	andeq	sl, r0, r4, ror #18

00008770 <sweep_leak>:
    8770:	e92d47f0 	push	{r4, r5, r6, r7, r8, r9, sl, lr}
    8774:	e1a08000 	mov	r8, r0
    8778:	e59f00e0 	ldr	r0, [pc, #224]	; 8860 <sweep_leak+0xf0>
    877c:	eb0000f7 	bl	8b60 <printk>
    8780:	e59f00dc 	ldr	r0, [pc, #220]	; 8864 <sweep_leak+0xf4>
    8784:	eb0000f5 	bl	8b60 <printk>
    8788:	ebffffce 	bl	86c8 <mark_all>
    878c:	ebfffe61 	bl	8118 <ck_first_hdr>
    8790:	e2504000 	subs	r4, r0, #0, 0
    8794:	0a000024 	beq	882c <sweep_leak+0xbc>
    8798:	e3a07000 	mov	r7, #0, 0
    879c:	e1a06007 	mov	r6, r7
    87a0:	e1a05007 	mov	r5, r7
    87a4:	e59fa0bc 	ldr	sl, [pc, #188]	; 8868 <sweep_leak+0xf8>
    87a8:	e59f90bc 	ldr	r9, [pc, #188]	; 886c <sweep_leak+0xfc>
    87ac:	ea000008 	b	87d4 <sweep_leak+0x64>
    87b0:	e2866001 	add	r6, r6, #1, 0
    87b4:	e1a02004 	mov	r2, r4
    87b8:	e1a01005 	mov	r1, r5
    87bc:	e1a00009 	mov	r0, r9
    87c0:	eb0000e6 	bl	8b60 <printk>
    87c4:	e1a00004 	mov	r0, r4
    87c8:	ebfffe56 	bl	8128 <ck_next_hdr>
    87cc:	e2504000 	subs	r4, r0, #0, 0
    87d0:	0a00000b 	beq	8804 <sweep_leak+0x94>
    87d4:	e2855001 	add	r5, r5, #1, 0
    87d8:	e1d432b4 	ldrh	r3, [r4, #36]	; 0x24
    87dc:	e3530000 	cmp	r3, #0, 0
    87e0:	0afffff2 	beq	87b0 <sweep_leak+0x40>
    87e4:	e3530001 	cmp	r3, #1, 0
    87e8:	1afffff5 	bne	87c4 <sweep_leak+0x54>
    87ec:	e2877001 	add	r7, r7, #1, 0
    87f0:	e1a02004 	mov	r2, r4
    87f4:	e1a01005 	mov	r1, r5
    87f8:	e1a0000a 	mov	r0, sl
    87fc:	eb0000d7 	bl	8b60 <printk>
    8800:	eaffffef 	b	87c4 <sweep_leak+0x54>
    8804:	e1a01005 	mov	r1, r5
    8808:	e59f0060 	ldr	r0, [pc, #96]	; 8870 <sweep_leak+0x100>
    880c:	eb0000d3 	bl	8b60 <printk>
    8810:	e1963007 	orrs	r3, r6, r7
    8814:	0a000009 	beq	8840 <sweep_leak+0xd0>
    8818:	e1a02007 	mov	r2, r7
    881c:	e1a01006 	mov	r1, r6
    8820:	e59f004c 	ldr	r0, [pc, #76]	; 8874 <sweep_leak+0x104>
    8824:	eb0000cd 	bl	8b60 <printk>
    8828:	ea000006 	b	8848 <sweep_leak+0xd8>
    882c:	e3a01000 	mov	r1, #0, 0
    8830:	e59f0038 	ldr	r0, [pc, #56]	; 8870 <sweep_leak+0x100>
    8834:	eb0000c9 	bl	8b60 <printk>
    8838:	e3a07000 	mov	r7, #0, 0
    883c:	e1a06007 	mov	r6, r7
    8840:	e59f0030 	ldr	r0, [pc, #48]	; 8878 <sweep_leak+0x108>
    8844:	eb0000c5 	bl	8b60 <printk>
    8848:	e59f002c 	ldr	r0, [pc, #44]	; 887c <sweep_leak+0x10c>
    884c:	eb0000c3 	bl	8b60 <printk>
    8850:	e3580000 	cmp	r8, #0, 0
    8854:	10866007 	addne	r6, r6, r7
    8858:	e1a00006 	mov	r0, r6
    885c:	e8bd87f0 	pop	{r4, r5, r6, r7, r8, r9, sl, pc}
    8860:	0000a328 	andeq	sl, r0, r8, lsr #6
    8864:	0000a364 	andeq	sl, r0, r4, ror #6
    8868:	0000a390 	muleq	r0, r0, r3
    886c:	0000a37c 	andeq	sl, r0, ip, ror r3
    8870:	0000a3a8 	andeq	sl, r0, r8, lsr #7
    8874:	0000a3f0 	strdeq	sl, [r0], -r0
    8878:	0000a3c8 	andeq	sl, r0, r8, asr #7
    887c:	0000a420 	andeq	sl, r0, r0, lsr #8

00008880 <sbrk>:
    8880:	e92d4030 	push	{r4, r5, lr}
    8884:	e24dd00c 	sub	sp, sp, #12, 0
    8888:	e2504000 	subs	r4, r0, #0, 0
    888c:	da000010 	ble	88d4 <sbrk+0x54>
    8890:	e59f3074 	ldr	r3, [pc, #116]	; 890c <sbrk+0x8c>
    8894:	e5933008 	ldr	r3, [r3, #8]
    8898:	e3530000 	cmp	r3, #0, 0
    889c:	1a000014 	bne	88f4 <sbrk+0x74>
    88a0:	e59f5064 	ldr	r5, [pc, #100]	; 890c <sbrk+0x8c>
    88a4:	e3a00601 	mov	r0, #1048576	; 0x100000
    88a8:	e5850000 	str	r0, [r5]
    88ac:	e3a03602 	mov	r3, #2097152	; 0x200000
    88b0:	e5853004 	str	r3, [r5, #4]
    88b4:	e1a01000 	mov	r1, r0
    88b8:	eb000475 	bl	9a94 <kmalloc_init_set_start>
    88bc:	e3a03001 	mov	r3, #1, 0
    88c0:	e5853008 	str	r3, [r5, #8]
    88c4:	e1a00004 	mov	r0, r4
    88c8:	eb0004d4 	bl	9c20 <kmalloc>
    88cc:	e28dd00c 	add	sp, sp, #12, 0
    88d0:	e8bd8030 	pop	{r4, r5, pc}
    88d4:	e59f3034 	ldr	r3, [pc, #52]	; 8910 <sbrk+0x90>
    88d8:	e58d3000 	str	r3, [sp]
    88dc:	e3a03017 	mov	r3, #23, 0
    88e0:	e59f202c 	ldr	r2, [pc, #44]	; 8914 <sbrk+0x94>
    88e4:	e59f102c 	ldr	r1, [pc, #44]	; 8918 <sbrk+0x98>
    88e8:	e59f002c 	ldr	r0, [pc, #44]	; 891c <sbrk+0x9c>
    88ec:	eb00009b 	bl	8b60 <printk>
    88f0:	eb00032b 	bl	95a4 <clean_reboot>
    88f4:	e3a03019 	mov	r3, #25, 0
    88f8:	e59f2014 	ldr	r2, [pc, #20]	; 8914 <sbrk+0x94>
    88fc:	e59f1014 	ldr	r1, [pc, #20]	; 8918 <sbrk+0x98>
    8900:	e59f0018 	ldr	r0, [pc, #24]	; 8920 <sbrk+0xa0>
    8904:	eb000095 	bl	8b60 <printk>
    8908:	eb000325 	bl	95a4 <clean_reboot>
    890c:	0000a990 	muleq	r0, r0, r9
    8910:	0000a45c 	andeq	sl, r0, ip, asr r4
    8914:	0000a5b0 			; <UNDEFINED> instruction: 0x0000a5b0
    8918:	0000a290 	muleq	r0, r0, r2
    891c:	0000a1e4 	andeq	sl, r0, r4, ror #3
    8920:	0000a46c 	andeq	sl, r0, ip, ror #8

00008924 <ck_find_leaks>:
    8924:	e92d4010 	push	{r4, lr}
    8928:	ebffff90 	bl	8770 <sweep_leak>
    892c:	e8bd8010 	pop	{r4, pc}

00008930 <check_no_leak>:
    8930:	e92d4010 	push	{r4, lr}
    8934:	e3a00001 	mov	r0, #1, 0
    8938:	ebffff8c 	bl	8770 <sweep_leak>
    893c:	e3500000 	cmp	r0, #0, 0
    8940:	1a000002 	bne	8950 <check_no_leak+0x20>
    8944:	e59f001c 	ldr	r0, [pc, #28]	; 8968 <check_no_leak+0x38>
    8948:	eb000084 	bl	8b60 <printk>
    894c:	e8bd8010 	pop	{r4, pc}
    8950:	e3a030dc 	mov	r3, #220, 0	; 0xdc
    8954:	e59f2010 	ldr	r2, [pc, #16]	; 896c <check_no_leak+0x3c>
    8958:	e59f1010 	ldr	r1, [pc, #16]	; 8970 <check_no_leak+0x40>
    895c:	e59f0010 	ldr	r0, [pc, #16]	; 8974 <check_no_leak+0x44>
    8960:	eb00007e 	bl	8b60 <printk>
    8964:	eb00030e 	bl	95a4 <clean_reboot>
    8968:	0000a4b8 			; <UNDEFINED> instruction: 0x0000a4b8
    896c:	0000a5b8 			; <UNDEFINED> instruction: 0x0000a5b8
    8970:	0000a290 	muleq	r0, r0, r2
    8974:	0000a48c 	andeq	sl, r0, ip, lsl #9

00008978 <check_should_leak>:
    8978:	e92d4010 	push	{r4, lr}
    897c:	e3a00001 	mov	r0, #1, 0
    8980:	ebffff7a 	bl	8770 <sweep_leak>
    8984:	e2504000 	subs	r4, r0, #0, 0
    8988:	0a000004 	beq	89a0 <check_should_leak+0x28>
    898c:	e1a01004 	mov	r1, r4
    8990:	e59f0020 	ldr	r0, [pc, #32]	; 89b8 <check_should_leak+0x40>
    8994:	eb000071 	bl	8b60 <printk>
    8998:	e1a00004 	mov	r0, r4
    899c:	e8bd8010 	pop	{r4, pc}
    89a0:	e3a030eb 	mov	r3, #235, 0	; 0xeb
    89a4:	e59f2010 	ldr	r2, [pc, #16]	; 89bc <check_should_leak+0x44>
    89a8:	e59f1010 	ldr	r1, [pc, #16]	; 89c0 <check_should_leak+0x48>
    89ac:	e59f0010 	ldr	r0, [pc, #16]	; 89c4 <check_should_leak+0x4c>
    89b0:	eb00006a 	bl	8b60 <printk>
    89b4:	eb0002fa 	bl	95a4 <clean_reboot>
    89b8:	0000a500 	andeq	sl, r0, r0, lsl #10
    89bc:	0000a5c8 	andeq	sl, r0, r8, asr #11
    89c0:	0000a290 	muleq	r0, r0, r2
    89c4:	0000a4d8 	ldrdeq	sl, [r0], -r8

000089c8 <ck_gc>:
    89c8:	e92d4ff0 	push	{r4, r5, r6, r7, r8, r9, sl, fp, lr}
    89cc:	e24dd014 	sub	sp, sp, #20, 0
    89d0:	ebffff3c 	bl	86c8 <mark_all>
    89d4:	e59f00bc 	ldr	r0, [pc, #188]	; 8a98 <ck_gc+0xd0>
    89d8:	eb000060 	bl	8b60 <printk>
    89dc:	e59f00b8 	ldr	r0, [pc, #184]	; 8a9c <ck_gc+0xd4>
    89e0:	eb00005e 	bl	8b60 <printk>
    89e4:	ebffff37 	bl	86c8 <mark_all>
    89e8:	ebfffdca 	bl	8118 <ck_first_hdr>
    89ec:	e2504000 	subs	r4, r0, #0, 0
    89f0:	0a00001d 	beq	8a6c <ck_gc+0xa4>
    89f4:	e3a05000 	mov	r5, #0, 0
    89f8:	e1a08005 	mov	r8, r5
    89fc:	e1a07005 	mov	r7, r5
    8a00:	e59fb098 	ldr	fp, [pc, #152]	; 8aa0 <ck_gc+0xd8>
    8a04:	e59fa098 	ldr	sl, [pc, #152]	; 8aa4 <ck_gc+0xdc>
    8a08:	e28d9004 	add	r9, sp, #4, 0
    8a0c:	ea000011 	b	8a58 <ck_gc+0x90>
    8a10:	e2888001 	add	r8, r8, #1, 0
    8a14:	e5943004 	ldr	r3, [r4, #4]
    8a18:	e0855003 	add	r5, r5, r3
    8a1c:	e28460a8 	add	r6, r4, #168, 0	; 0xa8
    8a20:	e58db004 	str	fp, [sp, #4]
    8a24:	e58da008 	str	sl, [sp, #8]
    8a28:	e59f3078 	ldr	r3, [pc, #120]	; 8aa8 <ck_gc+0xe0>
    8a2c:	e58d300c 	str	r3, [sp, #12]
    8a30:	e899000e 	ldm	r9, {r1, r2, r3}
    8a34:	e1a00006 	mov	r0, r6
    8a38:	ebfffde3 	bl	81cc <ckfree>
    8a3c:	e1a01006 	mov	r1, r6
    8a40:	e59f0064 	ldr	r0, [pc, #100]	; 8aac <ck_gc+0xe4>
    8a44:	eb000045 	bl	8b60 <printk>
    8a48:	e1a00004 	mov	r0, r4
    8a4c:	ebfffdb5 	bl	8128 <ck_next_hdr>
    8a50:	e2504000 	subs	r4, r0, #0, 0
    8a54:	0a000007 	beq	8a78 <ck_gc+0xb0>
    8a58:	e2877001 	add	r7, r7, #1, 0
    8a5c:	e1d432b4 	ldrh	r3, [r4, #36]	; 0x24
    8a60:	e3530000 	cmp	r3, #0, 0
    8a64:	1afffff7 	bne	8a48 <ck_gc+0x80>
    8a68:	eaffffe8 	b	8a10 <ck_gc+0x48>
    8a6c:	e3a05000 	mov	r5, #0, 0
    8a70:	e1a08005 	mov	r8, r5
    8a74:	e1a07005 	mov	r7, r5
    8a78:	e1a03005 	mov	r3, r5
    8a7c:	e1a02008 	mov	r2, r8
    8a80:	e1a01007 	mov	r1, r7
    8a84:	e59f0024 	ldr	r0, [pc, #36]	; 8ab0 <ck_gc+0xe8>
    8a88:	eb000034 	bl	8b60 <printk>
    8a8c:	e1a00005 	mov	r0, r5
    8a90:	e28dd014 	add	sp, sp, #20, 0
    8a94:	e8bd8ff0 	pop	{r4, r5, r6, r7, r8, r9, sl, fp, pc}
    8a98:	0000a328 	andeq	sl, r0, r8, lsr #6
    8a9c:	0000a524 	andeq	sl, r0, r4, lsr #10
    8aa0:	0000a290 	muleq	r0, r0, r2
    8aa4:	0000a5dc 	ldrdeq	sl, [r0], -ip
    8aa8:	00000101 	andeq	r0, r0, r1, lsl #2
    8aac:	0000a534 	andeq	sl, r0, r4, lsr r5
    8ab0:	0000a544 	andeq	sl, r0, r4, asr #10

00008ab4 <implement_this>:
    8ab4:	e92d4010 	push	{r4, lr}
    8ab8:	e59f3010 	ldr	r3, [pc, #16]	; 8ad0 <implement_this+0x1c>
    8abc:	e59f2010 	ldr	r2, [pc, #16]	; 8ad4 <implement_this+0x20>
    8ac0:	e59f1010 	ldr	r1, [pc, #16]	; 8ad8 <implement_this+0x24>
    8ac4:	e59f0010 	ldr	r0, [pc, #16]	; 8adc <implement_this+0x28>
    8ac8:	eb000024 	bl	8b60 <printk>
    8acc:	eb0002b4 	bl	95a4 <clean_reboot>
    8ad0:	00000117 	andeq	r0, r0, r7, lsl r1
    8ad4:	0000a5e8 	andeq	sl, r0, r8, ror #11
    8ad8:	0000a290 	muleq	r0, r0, r2
    8adc:	0000a578 	andeq	sl, r0, r8, ror r5

00008ae0 <dump_regs>:
    8ae0:	e8a0ffff 	stmia	r0!, {r0, r1, r2, r3, r4, r5, r6, r7, r8, r9, sl, fp, ip, sp, lr, pc}
    8ae4:	e12fff1e 	bx	lr

00008ae8 <memset>:
    8ae8:	e92d4010 	push	{r4, lr}
    8aec:	e0804002 	add	r4, r0, r2
    8af0:	e1500004 	cmp	r0, r4
    8af4:	28bd8010 	popcs	{r4, pc}
    8af8:	e2423001 	sub	r3, r2, #1, 0
    8afc:	e3530002 	cmp	r3, #2, 0
    8b00:	e6ef1071 	uxtb	r1, r1
    8b04:	e1a03000 	mov	r3, r0
    8b08:	9a00000b 	bls	8b3c <memset+0x54>
    8b0c:	e181e401 	orr	lr, r1, r1, lsl #8
    8b10:	e18ee801 	orr	lr, lr, r1, lsl #16
    8b14:	e3c2c003 	bic	ip, r2, #3, 0
    8b18:	e18eec01 	orr	lr, lr, r1, lsl #24
    8b1c:	e08cc000 	add	ip, ip, r0
    8b20:	e483e004 	str	lr, [r3], #4
    8b24:	e153000c 	cmp	r3, ip
    8b28:	1afffffc 	bne	8b20 <memset+0x38>
    8b2c:	e3c23003 	bic	r3, r2, #3, 0
    8b30:	e1520003 	cmp	r2, r3
    8b34:	e0803003 	add	r3, r0, r3
    8b38:	08bd8010 	popeq	{r4, pc}
    8b3c:	e1a02003 	mov	r2, r3
    8b40:	e4c21001 	strb	r1, [r2], #1
    8b44:	e1540002 	cmp	r4, r2
    8b48:	98bd8010 	popls	{r4, pc}
    8b4c:	e2832002 	add	r2, r3, #2, 0
    8b50:	e1540002 	cmp	r4, r2
    8b54:	e5c31001 	strb	r1, [r3, #1]
    8b58:	85c31002 	strbhi	r1, [r3, #2]
    8b5c:	e8bd8010 	pop	{r4, pc}

00008b60 <printk>:
    8b60:	e92d000f 	push	{r0, r1, r2, r3}
    8b64:	e92d4030 	push	{r4, r5, lr}
    8b68:	e59f5040 	ldr	r5, [pc, #64]	; 8bb0 <printk+0x50>
    8b6c:	e24dd00c 	sub	sp, sp, #12, 0
    8b70:	e28d301c 	add	r3, sp, #28, 0
    8b74:	e3a01b01 	mov	r1, #1024	; 0x400
    8b78:	e59d2018 	ldr	r2, [sp, #24]
    8b7c:	e1a00005 	mov	r0, r5
    8b80:	e58d3004 	str	r3, [sp, #4]
    8b84:	eb0000fb 	bl	8f78 <va_printk>
    8b88:	e1a04000 	mov	r4, r0
    8b8c:	e59f3020 	ldr	r3, [pc, #32]	; 8bb4 <printk+0x54>
    8b90:	e1a00005 	mov	r0, r5
    8b94:	e5933000 	ldr	r3, [r3]
    8b98:	e12fff33 	blx	r3
    8b9c:	e1a00004 	mov	r0, r4
    8ba0:	e28dd00c 	add	sp, sp, #12, 0
    8ba4:	e8bd4030 	pop	{r4, r5, lr}
    8ba8:	e28dd010 	add	sp, sp, #16, 0
    8bac:	e12fff1e 	bx	lr
    8bb0:	0000a99c 	muleq	r0, ip, r9
    8bb4:	0000a964 	andeq	sl, r0, r4, ror #18

00008bb8 <internal_putk>:
    8bb8:	e92d4070 	push	{r4, r5, r6, lr}
    8bbc:	e1a04000 	mov	r4, r0
    8bc0:	e5d00000 	ldrb	r0, [r0]
    8bc4:	e3500000 	cmp	r0, #0, 0
    8bc8:	0a000005 	beq	8be4 <internal_putk+0x2c>
    8bcc:	e59f5018 	ldr	r5, [pc, #24]	; 8bec <internal_putk+0x34>
    8bd0:	e5953000 	ldr	r3, [r5]
    8bd4:	e12fff33 	blx	r3
    8bd8:	e5f40001 	ldrb	r0, [r4, #1]!
    8bdc:	e3500000 	cmp	r0, #0, 0
    8be0:	1afffffa 	bne	8bd0 <internal_putk+0x18>
    8be4:	e3a00001 	mov	r0, #1, 0
    8be8:	e8bd8070 	pop	{r4, r5, r6, pc}
    8bec:	0000a974 	andeq	sl, r0, r4, ror r9

00008bf0 <emit.constprop.0>:
    8bf0:	e92d41f0 	push	{r4, r5, r6, r7, r8, lr}
    8bf4:	e3530080 	cmp	r3, #128, 0	; 0x80
    8bf8:	e1a0c000 	mov	ip, r0
    8bfc:	e24dd048 	sub	sp, sp, #72, 0	; 0x48
    8c00:	e1a00001 	mov	r0, r1
    8c04:	ca000069 	bgt	8db0 <emit.constprop.0+0x1c0>
    8c08:	e24c1002 	sub	r1, ip, #2, 0
    8c0c:	e1a0c002 	mov	ip, r2
    8c10:	e351000e 	cmp	r1, #14, 0
    8c14:	979ff101 	ldrls	pc, [pc, r1, lsl #2]
    8c18:	ea0000a7 	b	8ebc <emit.constprop.0+0x2cc>
    8c1c:	00008d88 	andeq	r8, r0, r8, lsl #27
    8c20:	00008ebc 			; <UNDEFINED> instruction: 0x00008ebc
    8c24:	00008ebc 			; <UNDEFINED> instruction: 0x00008ebc
    8c28:	00008ebc 			; <UNDEFINED> instruction: 0x00008ebc
    8c2c:	00008ebc 			; <UNDEFINED> instruction: 0x00008ebc
    8c30:	00008ebc 			; <UNDEFINED> instruction: 0x00008ebc
    8c34:	00008e64 	andeq	r8, r0, r4, ror #28
    8c38:	00008ebc 			; <UNDEFINED> instruction: 0x00008ebc
    8c3c:	00008e04 	andeq	r8, r0, r4, lsl #28
    8c40:	00008ebc 			; <UNDEFINED> instruction: 0x00008ebc
    8c44:	00008ebc 			; <UNDEFINED> instruction: 0x00008ebc
    8c48:	00008ebc 			; <UNDEFINED> instruction: 0x00008ebc
    8c4c:	00008ebc 			; <UNDEFINED> instruction: 0x00008ebc
    8c50:	00008ebc 			; <UNDEFINED> instruction: 0x00008ebc
    8c54:	00008c5c 	andeq	r8, r0, ip, asr ip
    8c58:	e3a0307f 	mov	r3, #127, 0	; 0x7f
    8c5c:	e28d2008 	add	r2, sp, #8, 0
    8c60:	e1a04002 	mov	r4, r2
    8c64:	e59f1288 	ldr	r1, [pc, #648]	; 8ef4 <emit.constprop.0+0x304>
    8c68:	e20ce00f 	and	lr, ip, #15, 0
    8c6c:	e7d1e00e 	ldrb	lr, [r1, lr]
    8c70:	e35c000f 	cmp	ip, #15, 0
    8c74:	e4c4e001 	strb	lr, [r4], #1
    8c78:	e1a0c22c 	lsr	ip, ip, #4
    8c7c:	8afffff9 	bhi	8c68 <emit.constprop.0+0x78>
    8c80:	e3a0c078 	mov	ip, #120, 0	; 0x78
    8c84:	e1a0e004 	mov	lr, r4
    8c88:	e3a01030 	mov	r1, #48, 0	; 0x30
    8c8c:	e4cec002 	strb	ip, [lr], #2
    8c90:	e5c41001 	strb	r1, [r4, #1]
    8c94:	e04e1002 	sub	r1, lr, r2
    8c98:	e1510003 	cmp	r1, r3
    8c9c:	aa000083 	bge	8eb0 <emit.constprop.0+0x2c0>
    8ca0:	e1510003 	cmp	r1, r3
    8ca4:	a3a0c001 	movge	ip, #1, 0
    8ca8:	b3a0c000 	movlt	ip, #0, 0
    8cac:	e2434001 	sub	r4, r3, #1, 0
    8cb0:	e0444001 	sub	r4, r4, r1
    8cb4:	b0436001 	sublt	r6, r3, r1
    8cb8:	a3a06001 	movge	r6, #1, 0
    8cbc:	e3540002 	cmp	r4, #2, 0
    8cc0:	938cc001 	orrls	ip, ip, #1, 0
    8cc4:	e35c0000 	cmp	ip, #0, 0
    8cc8:	1a000075 	bne	8ea4 <emit.constprop.0+0x2b4>
    8ccc:	e1a0c00e 	mov	ip, lr
    8cd0:	e3c65003 	bic	r5, r6, #3, 0
    8cd4:	e59f721c 	ldr	r7, [pc, #540]	; 8ef8 <emit.constprop.0+0x308>
    8cd8:	e085500e 	add	r5, r5, lr
    8cdc:	e48c7004 	str	r7, [ip], #4
    8ce0:	e15c0005 	cmp	ip, r5
    8ce4:	1afffffc 	bne	8cdc <emit.constprop.0+0xec>
    8ce8:	e3c6c003 	bic	ip, r6, #3, 0
    8cec:	e156000c 	cmp	r6, ip
    8cf0:	e08e500c 	add	r5, lr, ip
    8cf4:	e08cc001 	add	ip, ip, r1
    8cf8:	0a000008 	beq	8d20 <emit.constprop.0+0x130>
    8cfc:	e3a07020 	mov	r7, #32, 0
    8d00:	e28c8001 	add	r8, ip, #1, 0
    8d04:	e1580003 	cmp	r8, r3
    8d08:	e5c57000 	strb	r7, [r5]
    8d0c:	aa000003 	bge	8d20 <emit.constprop.0+0x130>
    8d10:	e28cc002 	add	ip, ip, #2, 0
    8d14:	e15c0003 	cmp	ip, r3
    8d18:	e5c57001 	strb	r7, [r5, #1]
    8d1c:	b5c57002 	strblt	r7, [r5, #2]
    8d20:	e1510003 	cmp	r1, r3
    8d24:	a3a04000 	movge	r4, #0, 0
    8d28:	e08e6006 	add	r6, lr, r6
    8d2c:	e0461002 	sub	r1, r6, r2
    8d30:	e08ee004 	add	lr, lr, r4
    8d34:	e3a03000 	mov	r3, #0, 0
    8d38:	e351007f 	cmp	r1, #127, 0	; 0x7f
    8d3c:	c241407f 	subgt	r4, r1, #127, 0	; 0x7f
    8d40:	c0822004 	addgt	r2, r2, r4
    8d44:	e152000e 	cmp	r2, lr
    8d48:	e5c63000 	strb	r3, [r6]
    8d4c:	8a00004f 	bhi	8e90 <emit.constprop.0+0x2a0>
    8d50:	e28ee001 	add	lr, lr, #1, 0
    8d54:	e1a0300e 	mov	r3, lr
    8d58:	e240c001 	sub	ip, r0, #1, 0
    8d5c:	e5734001 	ldrb	r4, [r3, #-1]!
    8d60:	e1530002 	cmp	r3, r2
    8d64:	e5ec4001 	strb	r4, [ip, #1]!
    8d68:	1afffffb 	bne	8d5c <emit.constprop.0+0x16c>
    8d6c:	e04ee003 	sub	lr, lr, r3
    8d70:	e3a03000 	mov	r3, #0, 0
    8d74:	e080e00e 	add	lr, r0, lr
    8d78:	e5ce3000 	strb	r3, [lr]
    8d7c:	e28dd048 	add	sp, sp, #72, 0	; 0x48
    8d80:	e8bd81f0 	pop	{r4, r5, r6, r7, r8, pc}
    8d84:	e3a0307f 	mov	r3, #127, 0	; 0x7f
    8d88:	e28d2008 	add	r2, sp, #8, 0
    8d8c:	e1a0e002 	mov	lr, r2
    8d90:	e59f1164 	ldr	r1, [pc, #356]	; 8efc <emit.constprop.0+0x30c>
    8d94:	e20c4001 	and	r4, ip, #1, 0
    8d98:	e7d14004 	ldrb	r4, [r1, r4]
    8d9c:	e35c0001 	cmp	ip, #1, 0
    8da0:	e4ce4001 	strb	r4, [lr], #1
    8da4:	e1a0c0ac 	lsr	ip, ip, #1
    8da8:	8afffff9 	bhi	8d94 <emit.constprop.0+0x1a4>
    8dac:	eaffffb8 	b	8c94 <emit.constprop.0+0xa4>
    8db0:	e24c3002 	sub	r3, ip, #2, 0
    8db4:	e1a0c002 	mov	ip, r2
    8db8:	e353000e 	cmp	r3, #14, 0
    8dbc:	979ff103 	ldrls	pc, [pc, r3, lsl #2]
    8dc0:	ea00003d 	b	8ebc <emit.constprop.0+0x2cc>
    8dc4:	00008d84 	andeq	r8, r0, r4, lsl #27
    8dc8:	00008ebc 			; <UNDEFINED> instruction: 0x00008ebc
    8dcc:	00008ebc 			; <UNDEFINED> instruction: 0x00008ebc
    8dd0:	00008ebc 			; <UNDEFINED> instruction: 0x00008ebc
    8dd4:	00008ebc 			; <UNDEFINED> instruction: 0x00008ebc
    8dd8:	00008ebc 			; <UNDEFINED> instruction: 0x00008ebc
    8ddc:	00008edc 	ldrdeq	r8, [r0], -ip
    8de0:	00008ebc 			; <UNDEFINED> instruction: 0x00008ebc
    8de4:	00008e00 	andeq	r8, r0, r0, lsl #28
    8de8:	00008ebc 			; <UNDEFINED> instruction: 0x00008ebc
    8dec:	00008ebc 			; <UNDEFINED> instruction: 0x00008ebc
    8df0:	00008ebc 			; <UNDEFINED> instruction: 0x00008ebc
    8df4:	00008ebc 			; <UNDEFINED> instruction: 0x00008ebc
    8df8:	00008ebc 			; <UNDEFINED> instruction: 0x00008ebc
    8dfc:	00008c58 	andeq	r8, r0, r8, asr ip
    8e00:	e3a0307f 	mov	r3, #127, 0	; 0x7f
    8e04:	e59d1060 	ldr	r1, [sp, #96]	; 0x60
    8e08:	e59f70f0 	ldr	r7, [pc, #240]	; 8f00 <emit.constprop.0+0x310>
    8e0c:	e0118fa2 	ands	r8, r1, r2, lsr #31
    8e10:	1262c000 	rsbne	ip, r2, #0, 0
    8e14:	e28d2008 	add	r2, sp, #8, 0
    8e18:	13a08001 	movne	r8, #1, 0
    8e1c:	e1a0e002 	mov	lr, r2
    8e20:	e59f60dc 	ldr	r6, [pc, #220]	; 8f04 <emit.constprop.0+0x314>
    8e24:	e1a0500c 	mov	r5, ip
    8e28:	e0814c96 	umull	r4, r1, r6, ip
    8e2c:	e1a011a1 	lsr	r1, r1, #3
    8e30:	e0814101 	add	r4, r1, r1, lsl #2
    8e34:	e04cc084 	sub	ip, ip, r4, lsl #1
    8e38:	e7d7400c 	ldrb	r4, [r7, ip]
    8e3c:	e3550009 	cmp	r5, #9, 0
    8e40:	e1a0c001 	mov	ip, r1
    8e44:	e1a0100e 	mov	r1, lr
    8e48:	e4ce4001 	strb	r4, [lr], #1
    8e4c:	8afffff4 	bhi	8e24 <emit.constprop.0+0x234>
    8e50:	e3580000 	cmp	r8, #0, 0
    8e54:	13a0c02d 	movne	ip, #45, 0	; 0x2d
    8e58:	15cec000 	strbne	ip, [lr]
    8e5c:	1281e002 	addne	lr, r1, #2, 0
    8e60:	eaffff8b 	b	8c94 <emit.constprop.0+0xa4>
    8e64:	e3530001 	cmp	r3, #1, 0
    8e68:	e5cd2008 	strb	r2, [sp, #8]
    8e6c:	c3a01001 	movgt	r1, #1, 0
    8e70:	c28de009 	addgt	lr, sp, #9, 0
    8e74:	c28d2008 	addgt	r2, sp, #8, 0
    8e78:	caffff88 	bgt	8ca0 <emit.constprop.0+0xb0>
    8e7c:	e3a03000 	mov	r3, #0, 0
    8e80:	e28de008 	add	lr, sp, #8, 0
    8e84:	e1a0200e 	mov	r2, lr
    8e88:	e5cd3009 	strb	r3, [sp, #9]
    8e8c:	eaffffaf 	b	8d50 <emit.constprop.0+0x160>
    8e90:	e1a0e000 	mov	lr, r0
    8e94:	e3a03000 	mov	r3, #0, 0
    8e98:	e5ce3000 	strb	r3, [lr]
    8e9c:	e28dd048 	add	sp, sp, #72, 0	; 0x48
    8ea0:	e8bd81f0 	pop	{r4, r5, r6, r7, r8, pc}
    8ea4:	e1a0c001 	mov	ip, r1
    8ea8:	e1a0500e 	mov	r5, lr
    8eac:	eaffff92 	b	8cfc <emit.constprop.0+0x10c>
    8eb0:	e1a0600e 	mov	r6, lr
    8eb4:	e24ee001 	sub	lr, lr, #1, 0
    8eb8:	eaffff9d 	b	8d34 <emit.constprop.0+0x144>
    8ebc:	e59f2044 	ldr	r2, [pc, #68]	; 8f08 <emit.constprop.0+0x318>
    8ec0:	e3a03079 	mov	r3, #121, 0	; 0x79
    8ec4:	e59f1040 	ldr	r1, [pc, #64]	; 8f0c <emit.constprop.0+0x31c>
    8ec8:	e58d2000 	str	r2, [sp]
    8ecc:	e59f003c 	ldr	r0, [pc, #60]	; 8f10 <emit.constprop.0+0x320>
    8ed0:	e59f203c 	ldr	r2, [pc, #60]	; 8f14 <emit.constprop.0+0x324>
    8ed4:	ebffff21 	bl	8b60 <printk>
    8ed8:	eb0001b1 	bl	95a4 <clean_reboot>
    8edc:	e5cd2008 	strb	r2, [sp, #8]
    8ee0:	e3a0307f 	mov	r3, #127, 0	; 0x7f
    8ee4:	e3a01001 	mov	r1, #1, 0
    8ee8:	e28de009 	add	lr, sp, #9, 0
    8eec:	e28d2008 	add	r2, sp, #8, 0
    8ef0:	eaffff6a 	b	8ca0 <emit.constprop.0+0xb0>
    8ef4:	0000a60c 	andeq	sl, r0, ip, lsl #12
    8ef8:	20202020 	eorcs	r2, r0, r0, lsr #32
    8efc:	0000a620 	andeq	sl, r0, r0, lsr #12
    8f00:	0000a624 	andeq	sl, r0, r4, lsr #12
    8f04:	cccccccd 	stclgt	12, cr12, [ip], {205}	; 0xcd
    8f08:	0000a468 	andeq	sl, r0, r8, ror #8
    8f0c:	0000a5f8 	strdeq	sl, [r0], -r8
    8f10:	0000a1e4 	andeq	sl, r0, r4, ror #3
    8f14:	0000a738 	andeq	sl, r0, r8, lsr r7

00008f18 <rpi_set_output>:
    8f18:	e3500000 	cmp	r0, #0, 0
    8f1c:	0a000005 	beq	8f38 <rpi_set_output+0x20>
    8f20:	e59f3038 	ldr	r3, [pc, #56]	; 8f60 <rpi_set_output+0x48>
    8f24:	e3510000 	cmp	r1, #0, 0
    8f28:	e5830000 	str	r0, [r3]
    8f2c:	159f3030 	ldrne	r3, [pc, #48]	; 8f64 <rpi_set_output+0x4c>
    8f30:	15831000 	strne	r1, [r3]
    8f34:	e12fff1e 	bx	lr
    8f38:	e52de004 	push	{lr}		; (str lr, [sp, #-4]!)
    8f3c:	e59f2024 	ldr	r2, [pc, #36]	; 8f68 <rpi_set_output+0x50>
    8f40:	e24dd00c 	sub	sp, sp, #12, 0
    8f44:	e3a03020 	mov	r3, #32, 0
    8f48:	e59f101c 	ldr	r1, [pc, #28]	; 8f6c <rpi_set_output+0x54>
    8f4c:	e58d2000 	str	r2, [sp]
    8f50:	e59f0018 	ldr	r0, [pc, #24]	; 8f70 <rpi_set_output+0x58>
    8f54:	e59f2018 	ldr	r2, [pc, #24]	; 8f74 <rpi_set_output+0x5c>
    8f58:	ebffff00 	bl	8b60 <printk>
    8f5c:	eb000190 	bl	95a4 <clean_reboot>
    8f60:	0000a974 	andeq	sl, r0, r4, ror r9
    8f64:	0000a964 	andeq	sl, r0, r4, ror #18
    8f68:	0000a630 	andeq	sl, r0, r0, lsr r6
    8f6c:	0000a5f8 	strdeq	sl, [r0], -r8
    8f70:	0000a1e4 	andeq	sl, r0, r4, ror #3
    8f74:	0000a740 	andeq	sl, r0, r0, asr #14

00008f78 <va_printk>:
    8f78:	e92d4ff0 	push	{r4, r5, r6, r7, r8, r9, sl, fp, lr}
    8f7c:	e1a0b000 	mov	fp, r0
    8f80:	e3a00000 	mov	r0, #0, 0
    8f84:	e5cb0000 	strb	r0, [fp]
    8f88:	e5d2c000 	ldrb	ip, [r2]
    8f8c:	e2417001 	sub	r7, r1, #1, 0
    8f90:	e08b7007 	add	r7, fp, r7
    8f94:	e15c0000 	cmp	ip, r0
    8f98:	115b0007 	cmpne	fp, r7
    8f9c:	e24ddf47 	sub	sp, sp, #284	; 0x11c
    8fa0:	e58d2010 	str	r2, [sp, #16]
    8fa4:	2a000159 	bcs	9510 <va_printk+0x598>
    8fa8:	e1a06002 	mov	r6, r2
    8fac:	e1a08003 	mov	r8, r3
    8fb0:	e1a0400b 	mov	r4, fp
    8fb4:	e59fa5a4 	ldr	sl, [pc, #1444]	; 9560 <va_printk+0x5e8>
    8fb8:	e58db00c 	str	fp, [sp, #12]
    8fbc:	ea000005 	b	8fd8 <va_printk+0x60>
    8fc0:	e4c4c001 	strb	ip, [r4], #1
    8fc4:	e2866001 	add	r6, r6, #1, 0
    8fc8:	e5d6c000 	ldrb	ip, [r6]
    8fcc:	e35c0000 	cmp	ip, #0, 0
    8fd0:	11570004 	cmpne	r7, r4
    8fd4:	9a00002f 	bls	9098 <va_printk+0x120>
    8fd8:	e35c0025 	cmp	ip, #37, 0	; 0x25
    8fdc:	1afffff7 	bne	8fc0 <va_printk+0x48>
    8fe0:	e5d62001 	ldrb	r2, [r6, #1]
    8fe4:	e3520025 	cmp	r2, #37, 0	; 0x25
    8fe8:	04c4c001 	strbeq	ip, [r4], #1
    8fec:	02866002 	addeq	r6, r6, #2, 0
    8ff0:	0afffff4 	beq	8fc8 <va_printk+0x50>
    8ff4:	e2423030 	sub	r3, r2, #48, 0	; 0x30
    8ff8:	e3530009 	cmp	r3, #9, 0
    8ffc:	e3a05000 	mov	r5, #0, 0
    9000:	e2866001 	add	r6, r6, #1, 0
    9004:	8a000008 	bhi	902c <va_printk+0xb4>
    9008:	e0855105 	add	r5, r5, r5, lsl #2
    900c:	e0825085 	add	r5, r2, r5, lsl #1
    9010:	e5f62001 	ldrb	r2, [r6, #1]!
    9014:	e2455030 	sub	r5, r5, #48, 0	; 0x30
    9018:	e2423030 	sub	r3, r2, #48, 0	; 0x30
    901c:	e3530009 	cmp	r3, #9, 0
    9020:	9afffff8 	bls	9008 <va_printk+0x90>
    9024:	e355001f 	cmp	r5, #31, 0
    9028:	8a00013a 	bhi	9518 <va_printk+0x5a0>
    902c:	e2423062 	sub	r3, r2, #98, 0	; 0x62
    9030:	e3530016 	cmp	r3, #22, 0
    9034:	979ff103 	ldrls	pc, [pc, r3, lsl #2]
    9038:	ea00011b 	b	94ac <va_printk+0x534>
    903c:	000092f0 	strdeq	r9, [r0], -r0
    9040:	000091ec 	andeq	r9, r0, ip, ror #3
    9044:	000091e4 	andeq	r9, r0, r4, ror #3
    9048:	000094ac 	andeq	r9, r0, ip, lsr #9
    904c:	000094e8 	andeq	r9, r0, r8, ror #9
    9050:	000094ac 	andeq	r9, r0, ip, lsr #9
    9054:	000094ac 	andeq	r9, r0, ip, lsr #9
    9058:	000094ac 	andeq	r9, r0, ip, lsr #9
    905c:	000094ac 	andeq	r9, r0, ip, lsr #9
    9060:	000094ac 	andeq	r9, r0, ip, lsr #9
    9064:	000090f4 	strdeq	r9, [r0], -r4
    9068:	000094ac 	andeq	r9, r0, ip, lsr #9
    906c:	000094ac 	andeq	r9, r0, ip, lsr #9
    9070:	000094ac 	andeq	r9, r0, ip, lsr #9
    9074:	000090b0 	strheq	r9, [r0], -r0
    9078:	000094ac 	andeq	r9, r0, ip, lsr #9
    907c:	000094ac 	andeq	r9, r0, ip, lsr #9
    9080:	000093e8 	andeq	r9, r0, r8, ror #7
    9084:	000094ac 	andeq	r9, r0, ip, lsr #9
    9088:	000091c0 	andeq	r9, r0, r0, asr #3
    908c:	000094ac 	andeq	r9, r0, ip, lsr #9
    9090:	000094ac 	andeq	r9, r0, ip, lsr #9
    9094:	000090b0 	strheq	r9, [r0], -r0
    9098:	e59db00c 	ldr	fp, [sp, #12]
    909c:	e3a03000 	mov	r3, #0, 0
    90a0:	e4c43001 	strb	r3, [r4], #1
    90a4:	e044000b 	sub	r0, r4, fp
    90a8:	e28ddf47 	add	sp, sp, #284	; 0x11c
    90ac:	e8bd8ff0 	pop	{r4, r5, r6, r7, r8, r9, sl, fp, pc}
    90b0:	e3a01000 	mov	r1, #0, 0
    90b4:	e1a03005 	mov	r3, r5
    90b8:	e4982004 	ldr	r2, [r8], #4
    90bc:	e3a00010 	mov	r0, #16, 0
    90c0:	e58d1000 	str	r1, [sp]
    90c4:	e28d1018 	add	r1, sp, #24, 0
    90c8:	ebfffec8 	bl	8bf0 <emit.constprop.0>
    90cc:	e1a05000 	mov	r5, r0
    90d0:	e2866001 	add	r6, r6, #1, 0
    90d4:	e2455001 	sub	r5, r5, #1, 0
    90d8:	e5f53001 	ldrb	r3, [r5, #1]!
    90dc:	e3530000 	cmp	r3, #0, 0
    90e0:	0affffb8 	beq	8fc8 <va_printk+0x50>
    90e4:	e4c43001 	strb	r3, [r4], #1
    90e8:	e1570004 	cmp	r7, r4
    90ec:	8afffff9 	bhi	90d8 <va_printk+0x160>
    90f0:	eaffffb4 	b	8fc8 <va_printk+0x50>
    90f4:	e3a02003 	mov	r2, #3, 0
    90f8:	e1a00006 	mov	r0, r6
    90fc:	e59f1460 	ldr	r1, [pc, #1120]	; 9564 <va_printk+0x5ec>
    9100:	eb0003da 	bl	a070 <strncmp>
    9104:	e3500000 	cmp	r0, #0, 0
    9108:	0a000005 	beq	9124 <va_printk+0x1ac>
    910c:	e3a02003 	mov	r2, #3, 0
    9110:	e1a00006 	mov	r0, r6
    9114:	e59f144c 	ldr	r1, [pc, #1100]	; 9568 <va_printk+0x5f0>
    9118:	eb0003d4 	bl	a070 <strncmp>
    911c:	e3500000 	cmp	r0, #0, 0
    9120:	1a00010b 	bne	9554 <va_printk+0x5dc>
    9124:	e2888007 	add	r8, r8, #7, 0
    9128:	e3c88007 	bic	r8, r8, #7, 0
    912c:	e598b004 	ldr	fp, [r8, #4]
    9130:	e4989008 	ldr	r9, [r8], #8
    9134:	e1a0100b 	mov	r1, fp
    9138:	e59f042c 	ldr	r0, [pc, #1068]	; 956c <va_printk+0x5f4>
    913c:	ebfffe87 	bl	8b60 <printk>
    9140:	e1a01009 	mov	r1, r9
    9144:	e59f0424 	ldr	r0, [pc, #1060]	; 9570 <va_printk+0x5f8>
    9148:	ebfffe84 	bl	8b60 <printk>
    914c:	e3a02003 	mov	r2, #3, 0
    9150:	e1a00006 	mov	r0, r6
    9154:	e59f1408 	ldr	r1, [pc, #1032]	; 9564 <va_printk+0x5ec>
    9158:	eb0003c4 	bl	a070 <strncmp>
    915c:	e2503000 	subs	r3, r0, #0, 0
    9160:	e1a02003 	mov	r2, r3
    9164:	e2863002 	add	r3, r6, #2, 0
    9168:	e58d3014 	str	r3, [sp, #20]
    916c:	1a00009f 	bne	93f0 <va_printk+0x478>
    9170:	e1a06002 	mov	r6, r2
    9174:	e1a03005 	mov	r3, r5
    9178:	e58d2000 	str	r2, [sp]
    917c:	e28d1018 	add	r1, sp, #24, 0
    9180:	e1a0200b 	mov	r2, fp
    9184:	e3a00010 	mov	r0, #16, 0
    9188:	ebfffe98 	bl	8bf0 <emit.constprop.0>
    918c:	e1a0c000 	mov	ip, r0
    9190:	e1a03005 	mov	r3, r5
    9194:	e58d6000 	str	r6, [sp]
    9198:	e28d1098 	add	r1, sp, #152, 0	; 0x98
    919c:	e1a02009 	mov	r2, r9
    91a0:	e3a00010 	mov	r0, #16, 0
    91a4:	e1a0500c 	mov	r5, ip
    91a8:	ebfffe90 	bl	8bf0 <emit.constprop.0>
    91ac:	e28d0018 	add	r0, sp, #24, 0
    91b0:	e28d109a 	add	r1, sp, #154, 0	; 0x9a
    91b4:	e59d6014 	ldr	r6, [sp, #20]
    91b8:	eb00038a 	bl	9fe8 <strcat>
    91bc:	eaffffc3 	b	90d0 <va_printk+0x158>
    91c0:	e3a01000 	mov	r1, #0, 0
    91c4:	e1a03005 	mov	r3, r5
    91c8:	e4982004 	ldr	r2, [r8], #4
    91cc:	e3a0000a 	mov	r0, #10, 0
    91d0:	e58d1000 	str	r1, [sp]
    91d4:	e28d1018 	add	r1, sp, #24, 0
    91d8:	ebfffe84 	bl	8bf0 <emit.constprop.0>
    91dc:	e1a05000 	mov	r5, r0
    91e0:	eaffffba 	b	90d0 <va_printk+0x158>
    91e4:	e3a01001 	mov	r1, #1, 0
    91e8:	eafffff5 	b	91c4 <va_printk+0x24c>
    91ec:	e4983004 	ldr	r3, [r8], #4
    91f0:	e3550001 	cmp	r5, #1, 0
    91f4:	e5cd3098 	strb	r3, [sp, #152]	; 0x98
    91f8:	9a0000a6 	bls	9498 <va_printk+0x520>
    91fc:	e2453002 	sub	r3, r5, #2, 0
    9200:	e3530002 	cmp	r3, #2, 0
    9204:	e2451001 	sub	r1, r5, #1, 0
    9208:	9a0000bc 	bls	9500 <va_printk+0x588>
    920c:	e59f0360 	ldr	r0, [pc, #864]	; 9574 <va_printk+0x5fc>
    9210:	e1a02121 	lsr	r2, r1, #2
    9214:	e3520001 	cmp	r2, #1, 0
    9218:	e58d0099 	str	r0, [sp, #153]	; 0x99
    921c:	0a00000e 	beq	925c <va_printk+0x2e4>
    9220:	e3520002 	cmp	r2, #2, 0
    9224:	e58d009d 	str	r0, [sp, #157]	; 0x9d
    9228:	0a00000b 	beq	925c <va_printk+0x2e4>
    922c:	e3520003 	cmp	r2, #3, 0
    9230:	e58d00a1 	str	r0, [sp, #161]	; 0xa1
    9234:	0a000008 	beq	925c <va_printk+0x2e4>
    9238:	e3520004 	cmp	r2, #4, 0
    923c:	e58d00a5 	str	r0, [sp, #165]	; 0xa5
    9240:	0a000005 	beq	925c <va_printk+0x2e4>
    9244:	e3520005 	cmp	r2, #5, 0
    9248:	e58d00a9 	str	r0, [sp, #169]	; 0xa9
    924c:	0a000002 	beq	925c <va_printk+0x2e4>
    9250:	e3520007 	cmp	r2, #7, 0
    9254:	e58d00ad 	str	r0, [sp, #173]	; 0xad
    9258:	058d00b1 	streq	r0, [sp, #177]	; 0xb1
    925c:	e3c12003 	bic	r2, r1, #3, 0
    9260:	e1510002 	cmp	r1, r2
    9264:	e28dc099 	add	ip, sp, #153, 0	; 0x99
    9268:	e08c0002 	add	r0, ip, r2
    926c:	e2822001 	add	r2, r2, #1, 0
    9270:	0a000008 	beq	9298 <va_printk+0x320>
    9274:	e3a0e020 	mov	lr, #32, 0
    9278:	e2829001 	add	r9, r2, #1, 0
    927c:	e1550009 	cmp	r5, r9
    9280:	e5c0e000 	strb	lr, [r0]
    9284:	da000003 	ble	9298 <va_printk+0x320>
    9288:	e2822002 	add	r2, r2, #2, 0
    928c:	e1550002 	cmp	r5, r2
    9290:	e5c0e001 	strb	lr, [r0, #1]
    9294:	c5c0e002 	strbgt	lr, [r0, #2]
    9298:	e3a0e000 	mov	lr, #0, 0
    929c:	e28d0098 	add	r0, sp, #152, 0	; 0x98
    92a0:	e08c2001 	add	r2, ip, r1
    92a4:	e0422000 	sub	r2, r2, r0
    92a8:	e352007f 	cmp	r2, #127, 0	; 0x7f
    92ac:	c242207f 	subgt	r2, r2, #127, 0	; 0x7f
    92b0:	e08c3003 	add	r3, ip, r3
    92b4:	c0800002 	addgt	r0, r0, r2
    92b8:	e1530000 	cmp	r3, r0
    92bc:	e7cce001 	strb	lr, [ip, r1]
    92c0:	3a00006c 	bcc	9478 <va_printk+0x500>
    92c4:	e283c001 	add	ip, r3, #1, 0
    92c8:	e1a0300c 	mov	r3, ip
    92cc:	e28d5018 	add	r5, sp, #24, 0
    92d0:	e2452001 	sub	r2, r5, #1, 0
    92d4:	e5731001 	ldrb	r1, [r3, #-1]!
    92d8:	e1500003 	cmp	r0, r3
    92dc:	e5e21001 	strb	r1, [r2, #1]!
    92e0:	1afffffb 	bne	92d4 <va_printk+0x35c>
    92e4:	e04c3000 	sub	r3, ip, r0
    92e8:	e0853003 	add	r3, r5, r3
    92ec:	ea00003a 	b	93dc <va_printk+0x464>
    92f0:	e28d1098 	add	r1, sp, #152, 0	; 0x98
    92f4:	e1a03001 	mov	r3, r1
    92f8:	e4980004 	ldr	r0, [r8], #4
    92fc:	e200c001 	and	ip, r0, #1, 0
    9300:	e7dac00c 	ldrb	ip, [sl, ip]
    9304:	e3500001 	cmp	r0, #1, 0
    9308:	e1a02003 	mov	r2, r3
    930c:	e1a000a0 	lsr	r0, r0, #1
    9310:	e4c3c001 	strb	ip, [r3], #1
    9314:	8afffff8 	bhi	92fc <va_printk+0x384>
    9318:	e0430001 	sub	r0, r3, r1
    931c:	e1550000 	cmp	r5, r0
    9320:	da000057 	ble	9484 <va_printk+0x50c>
    9324:	e045c000 	sub	ip, r5, r0
    9328:	e24ce001 	sub	lr, ip, #1, 0
    932c:	e35e0002 	cmp	lr, #2, 0
    9330:	e1a0e003 	mov	lr, r3
    9334:	9a00000a 	bls	9364 <va_printk+0x3ec>
    9338:	e3cc9003 	bic	r9, ip, #3, 0
    933c:	e0899003 	add	r9, r9, r3
    9340:	e59fb22c 	ldr	fp, [pc, #556]	; 9574 <va_printk+0x5fc>
    9344:	e48eb004 	str	fp, [lr], #4
    9348:	e15e0009 	cmp	lr, r9
    934c:	1afffffb 	bne	9340 <va_printk+0x3c8>
    9350:	e3cce003 	bic	lr, ip, #3, 0
    9354:	e15e000c 	cmp	lr, ip
    9358:	e080000e 	add	r0, r0, lr
    935c:	e083e00e 	add	lr, r3, lr
    9360:	0a000008 	beq	9388 <va_printk+0x410>
    9364:	e3a09020 	mov	r9, #32, 0
    9368:	e280b001 	add	fp, r0, #1, 0
    936c:	e155000b 	cmp	r5, fp
    9370:	e5ce9000 	strb	r9, [lr]
    9374:	da000003 	ble	9388 <va_printk+0x410>
    9378:	e2800002 	add	r0, r0, #2, 0
    937c:	e1550000 	cmp	r5, r0
    9380:	e5ce9001 	strb	r9, [lr, #1]
    9384:	c5ce9002 	strbgt	r9, [lr, #2]
    9388:	e3a0e000 	mov	lr, #0, 0
    938c:	e083000c 	add	r0, r3, ip
    9390:	e0400001 	sub	r0, r0, r1
    9394:	e350007f 	cmp	r0, #127, 0	; 0x7f
    9398:	e082200c 	add	r2, r2, ip
    939c:	e7c3e00c 	strb	lr, [r3, ip]
    93a0:	da000001 	ble	93ac <va_printk+0x434>
    93a4:	e240007f 	sub	r0, r0, #127, 0	; 0x7f
    93a8:	e0811000 	add	r1, r1, r0
    93ac:	e1510002 	cmp	r1, r2
    93b0:	8a000030 	bhi	9478 <va_printk+0x500>
    93b4:	e2822001 	add	r2, r2, #1, 0
    93b8:	e1a03002 	mov	r3, r2
    93bc:	e28d5018 	add	r5, sp, #24, 0
    93c0:	e245c001 	sub	ip, r5, #1, 0
    93c4:	e5730001 	ldrb	r0, [r3, #-1]!
    93c8:	e1530001 	cmp	r3, r1
    93cc:	e5ec0001 	strb	r0, [ip, #1]!
    93d0:	1afffffb 	bne	93c4 <va_printk+0x44c>
    93d4:	e0423003 	sub	r3, r2, r3
    93d8:	e0853003 	add	r3, r5, r3
    93dc:	e3a02000 	mov	r2, #0, 0
    93e0:	e5c32000 	strb	r2, [r3]
    93e4:	eaffff39 	b	90d0 <va_printk+0x158>
    93e8:	e4985004 	ldr	r5, [r8], #4
    93ec:	eaffff37 	b	90d0 <va_printk+0x158>
    93f0:	e3a02003 	mov	r2, #3, 0
    93f4:	e1a00006 	mov	r0, r6
    93f8:	e59f1168 	ldr	r1, [pc, #360]	; 9568 <va_printk+0x5f0>
    93fc:	eb00031b 	bl	a070 <strncmp>
    9400:	e2503000 	subs	r3, r0, #0, 0
    9404:	1a00004b 	bne	9538 <va_printk+0x5c0>
    9408:	e1a06003 	mov	r6, r3
    940c:	e1a0200b 	mov	r2, fp
    9410:	e58d3000 	str	r3, [sp]
    9414:	e28d1018 	add	r1, sp, #24, 0
    9418:	e1a03005 	mov	r3, r5
    941c:	e3a0000a 	mov	r0, #10, 0
    9420:	ebfffdf2 	bl	8bf0 <emit.constprop.0>
    9424:	e1a0c000 	mov	ip, r0
    9428:	e1a03005 	mov	r3, r5
    942c:	e1a02009 	mov	r2, r9
    9430:	e28d1098 	add	r1, sp, #152, 0	; 0x98
    9434:	e3a0000a 	mov	r0, #10, 0
    9438:	e58d6000 	str	r6, [sp]
    943c:	e1a0500c 	mov	r5, ip
    9440:	ebfffdea 	bl	8bf0 <emit.constprop.0>
    9444:	e59f112c 	ldr	r1, [pc, #300]	; 9578 <va_printk+0x600>
    9448:	e28d0018 	add	r0, sp, #24, 0
    944c:	eb0002f0 	bl	a014 <strcmp>
    9450:	e3500000 	cmp	r0, #0, 0
    9454:	e28d1098 	add	r1, sp, #152, 0	; 0x98
    9458:	e28d0018 	add	r0, sp, #24, 0
    945c:	1a000002 	bne	946c <va_printk+0x4f4>
    9460:	eb0002fc 	bl	a058 <strcpy>
    9464:	e59d6014 	ldr	r6, [sp, #20]
    9468:	eaffff18 	b	90d0 <va_printk+0x158>
    946c:	eb0002dd 	bl	9fe8 <strcat>
    9470:	e59d6014 	ldr	r6, [sp, #20]
    9474:	eaffff15 	b	90d0 <va_printk+0x158>
    9478:	e28d5018 	add	r5, sp, #24, 0
    947c:	e1a03005 	mov	r3, r5
    9480:	eaffffd5 	b	93dc <va_printk+0x464>
    9484:	e3a0c000 	mov	ip, #0, 0
    9488:	e350007f 	cmp	r0, #127, 0	; 0x7f
    948c:	e5c3c000 	strb	ip, [r3]
    9490:	caffffc3 	bgt	93a4 <va_printk+0x42c>
    9494:	eaffffc6 	b	93b4 <va_printk+0x43c>
    9498:	e3a02000 	mov	r2, #0, 0
    949c:	e28d3098 	add	r3, sp, #152, 0	; 0x98
    94a0:	e1a00003 	mov	r0, r3
    94a4:	e5cd2099 	strb	r2, [sp, #153]	; 0x99
    94a8:	eaffff85 	b	92c4 <va_printk+0x34c>
    94ac:	e3a03000 	mov	r3, #0, 0
    94b0:	e1a01002 	mov	r1, r2
    94b4:	e5c63001 	strb	r3, [r6, #1]
    94b8:	e59f00bc 	ldr	r0, [pc, #188]	; 957c <va_printk+0x604>
    94bc:	ebfffda7 	bl	8b60 <printk>
    94c0:	e59f30b8 	ldr	r3, [pc, #184]	; 9580 <va_printk+0x608>
    94c4:	e59d0010 	ldr	r0, [sp, #16]
    94c8:	e5933000 	ldr	r3, [r3]
    94cc:	e12fff33 	blx	r3
    94d0:	e3a030e2 	mov	r3, #226, 0	; 0xe2
    94d4:	e59f20a8 	ldr	r2, [pc, #168]	; 9584 <va_printk+0x60c>
    94d8:	e59f10a8 	ldr	r1, [pc, #168]	; 9588 <va_printk+0x610>
    94dc:	e59f00a8 	ldr	r0, [pc, #168]	; 958c <va_printk+0x614>
    94e0:	ebfffd9e 	bl	8b60 <printk>
    94e4:	eb00002e 	bl	95a4 <clean_reboot>
    94e8:	e3a030be 	mov	r3, #190, 0	; 0xbe
    94ec:	e59f2090 	ldr	r2, [pc, #144]	; 9584 <va_printk+0x60c>
    94f0:	e59f1090 	ldr	r1, [pc, #144]	; 9588 <va_printk+0x610>
    94f4:	e59f0094 	ldr	r0, [pc, #148]	; 9590 <va_printk+0x618>
    94f8:	ebfffd98 	bl	8b60 <printk>
    94fc:	eb000028 	bl	95a4 <clean_reboot>
    9500:	e28dc099 	add	ip, sp, #153, 0	; 0x99
    9504:	e1a0000c 	mov	r0, ip
    9508:	e3a02001 	mov	r2, #1, 0
    950c:	eaffff58 	b	9274 <va_printk+0x2fc>
    9510:	e1a0400b 	mov	r4, fp
    9514:	eafffee0 	b	909c <va_printk+0x124>
    9518:	e3a03098 	mov	r3, #152, 0	; 0x98
    951c:	e59f2070 	ldr	r2, [pc, #112]	; 9594 <va_printk+0x61c>
    9520:	e59f1060 	ldr	r1, [pc, #96]	; 9588 <va_printk+0x610>
    9524:	e58d2000 	str	r2, [sp]
    9528:	e59f0068 	ldr	r0, [pc, #104]	; 9598 <va_printk+0x620>
    952c:	e59f2050 	ldr	r2, [pc, #80]	; 9584 <va_printk+0x60c>
    9530:	ebfffd8a 	bl	8b60 <printk>
    9534:	eb00001a 	bl	95a4 <clean_reboot>
    9538:	e3a030b6 	mov	r3, #182, 0	; 0xb6
    953c:	e59f2040 	ldr	r2, [pc, #64]	; 9584 <va_printk+0x60c>
    9540:	e59f1040 	ldr	r1, [pc, #64]	; 9588 <va_printk+0x610>
    9544:	e59f0050 	ldr	r0, [pc, #80]	; 959c <va_printk+0x624>
    9548:	e58d6000 	str	r6, [sp]
    954c:	ebfffd83 	bl	8b60 <printk>
    9550:	eb000013 	bl	95a4 <clean_reboot>
    9554:	e3a0309f 	mov	r3, #159, 0	; 0x9f
    9558:	e59f2040 	ldr	r2, [pc, #64]	; 95a0 <va_printk+0x628>
    955c:	eaffffef 	b	9520 <va_printk+0x5a8>
    9560:	0000a620 	andeq	sl, r0, r0, lsr #12
    9564:	0000a644 	andeq	sl, r0, r4, asr #12
    9568:	0000a658 	andeq	sl, r0, r8, asr r6
    956c:	0000a648 	andeq	sl, r0, r8, asr #12
    9570:	0000a650 	andeq	sl, r0, r0, asr r6
    9574:	20202020 	eorcs	r2, r0, r0, lsr #32
    9578:	0000a468 	andeq	sl, r0, r8, ror #8
    957c:	0000a6e8 	andeq	sl, r0, r8, ror #13
    9580:	0000a964 	andeq	sl, r0, r4, ror #18
    9584:	0000a750 	andeq	sl, r0, r0, asr r7
    9588:	0000a5f8 	strdeq	sl, [r0], -r8
    958c:	0000a718 	andeq	sl, r0, r8, lsl r7
    9590:	0000a6c0 	andeq	sl, r0, r0, asr #13
    9594:	0000a638 	andeq	sl, r0, r8, lsr r6
    9598:	0000a1e4 	andeq	sl, r0, r4, ror #3
    959c:	0000a698 	muleq	r0, r8, r6
    95a0:	0000a65c 	andeq	sl, r0, ip, asr r6

000095a4 <clean_reboot>:
    95a4:	e59f301c 	ldr	r3, [pc, #28]	; 95c8 <clean_reboot+0x24>
    95a8:	e92d4010 	push	{r4, lr}
    95ac:	e5933000 	ldr	r3, [r3]
    95b0:	e59f0014 	ldr	r0, [pc, #20]	; 95cc <clean_reboot+0x28>
    95b4:	e12fff33 	blx	r3
    95b8:	eb00011b 	bl	9a2c <uart_flush_tx>
    95bc:	e3a0000a 	mov	r0, #10, 0
    95c0:	eb000082 	bl	97d0 <delay_ms>
    95c4:	eb00004b 	bl	96f8 <rpi_reboot>
    95c8:	0000a964 	andeq	sl, r0, r4, ror #18
    95cc:	0000a75c 	andeq	sl, r0, ip, asr r7

000095d0 <_cstart>:
    95d0:	e92d4070 	push	{r4, r5, r6, lr}
    95d4:	eb00003b 	bl	96c8 <custom_loader>
    95d8:	e59f20e0 	ldr	r2, [pc, #224]	; 96c0 <_cstart+0xf0>
    95dc:	e59fc0e0 	ldr	ip, [pc, #224]	; 96c4 <_cstart+0xf4>
    95e0:	e152000c 	cmp	r2, ip
    95e4:	2a00002e 	bcs	96a4 <_cstart+0xd4>
    95e8:	e24c1001 	sub	r1, ip, #1, 0
    95ec:	e0411002 	sub	r1, r1, r2
    95f0:	e3510017 	cmp	r1, #23, 0
    95f4:	e1a03122 	lsr	r3, r2, #2
    95f8:	e1a01121 	lsr	r1, r1, #2
    95fc:	e2811001 	add	r1, r1, #1, 0
    9600:	e2033001 	and	r3, r3, #1, 0
    9604:	9a00002b 	bls	96b8 <_cstart+0xe8>
    9608:	e3530000 	cmp	r3, #0, 0
    960c:	11a00002 	movne	r0, r2
    9610:	13a0e000 	movne	lr, #0, 0
    9614:	e3a04000 	mov	r4, #0, 0
    9618:	e3a05000 	mov	r5, #0, 0
    961c:	e0411003 	sub	r1, r1, r3
    9620:	01a00002 	moveq	r0, r2
    9624:	e0823103 	add	r3, r2, r3, lsl #2
    9628:	e1a020a1 	lsr	r2, r1, #1
    962c:	1480e004 	strne	lr, [r0], #4
    9630:	e0832182 	add	r2, r3, r2, lsl #3
    9634:	e0c340f8 	strd	r4, [r3], #8
    9638:	e1520003 	cmp	r2, r3
    963c:	1afffffc 	bne	9634 <_cstart+0x64>
    9640:	e3c13001 	bic	r3, r1, #1, 0
    9644:	e1510003 	cmp	r1, r3
    9648:	e0803103 	add	r3, r0, r3, lsl #2
    964c:	0a000014 	beq	96a4 <_cstart+0xd4>
    9650:	e1a01003 	mov	r1, r3
    9654:	e3a02000 	mov	r2, #0, 0
    9658:	e4812004 	str	r2, [r1], #4
    965c:	e151000c 	cmp	r1, ip
    9660:	2a00000f 	bcs	96a4 <_cstart+0xd4>
    9664:	e2831008 	add	r1, r3, #8, 0
    9668:	e151000c 	cmp	r1, ip
    966c:	e5832004 	str	r2, [r3, #4]
    9670:	2a00000b 	bcs	96a4 <_cstart+0xd4>
    9674:	e283100c 	add	r1, r3, #12, 0
    9678:	e151000c 	cmp	r1, ip
    967c:	e5832008 	str	r2, [r3, #8]
    9680:	2a000007 	bcs	96a4 <_cstart+0xd4>
    9684:	e2831010 	add	r1, r3, #16, 0
    9688:	e151000c 	cmp	r1, ip
    968c:	e583200c 	str	r2, [r3, #12]
    9690:	2a000003 	bcs	96a4 <_cstart+0xd4>
    9694:	e2831014 	add	r1, r3, #20, 0
    9698:	e151000c 	cmp	r1, ip
    969c:	e5832010 	str	r2, [r3, #16]
    96a0:	35832014 	strcc	r2, [r3, #20]
    96a4:	eb000082 	bl	98b4 <uart_init>
    96a8:	e3a03001 	mov	r3, #1, 0
    96ac:	ee0f3f1c 	mcr	15, 0, r3, cr15, cr12, {0}
    96b0:	ebfffa82 	bl	80c0 <notmain>
    96b4:	ebffffba 	bl	95a4 <clean_reboot>
    96b8:	e1a03002 	mov	r3, r2
    96bc:	eaffffe3 	b	9650 <_cstart+0x80>
    96c0:	0000a978 	andeq	sl, r0, r8, ror r9
    96c4:	0000ada0 	andeq	sl, r0, r0, lsr #27

000096c8 <custom_loader>:
    96c8:	e12fff1e 	bx	lr

000096cc <at_user_level>:
    96cc:	e10f0000 	mrs	r0, CPSR
    96d0:	e200001f 	and	r0, r0, #31, 0
    96d4:	e2400010 	sub	r0, r0, #16, 0
    96d8:	e16f0f10 	clz	r0, r0
    96dc:	e1a002a0 	lsr	r0, r0, #5
    96e0:	e12fff1e 	bx	lr

000096e4 <set_user_level>:
    96e4:	e10f3000 	mrs	r3, CPSR
    96e8:	e3c3301f 	bic	r3, r3, #31, 0
    96ec:	e3833010 	orr	r3, r3, #16, 0
    96f0:	e129f003 	msr	CPSR_fc, r3
    96f4:	e12fff1e 	bx	lr

000096f8 <rpi_reboot>:
    96f8:	e92d4010 	push	{r4, lr}
    96fc:	e10f3000 	mrs	r3, CPSR
    9700:	e203301f 	and	r3, r3, #31, 0
    9704:	e3530010 	cmp	r3, #16, 0
    9708:	1a000003 	bne	971c <rpi_reboot+0x24>
    970c:	e10f3000 	mrs	r3, CPSR
    9710:	e3c3301f 	bic	r3, r3, #31, 0
    9714:	e3833010 	orr	r3, r3, #16, 0
    9718:	e129f003 	msr	CPSR_fc, r3
    971c:	eb00025f 	bl	a0a0 <reboot_callout>
    9720:	eb0000c1 	bl	9a2c <uart_flush_tx>
    9724:	e3a0000a 	mov	r0, #10, 0
    9728:	eb000028 	bl	97d0 <delay_ms>
    972c:	e59f1014 	ldr	r1, [pc, #20]	; 9748 <rpi_reboot+0x50>
    9730:	e59f0014 	ldr	r0, [pc, #20]	; 974c <rpi_reboot+0x54>
    9734:	ebfffa3a 	bl	8024 <PUT32>
    9738:	e59f1010 	ldr	r1, [pc, #16]	; 9750 <rpi_reboot+0x58>
    973c:	e59f0010 	ldr	r0, [pc, #16]	; 9754 <rpi_reboot+0x5c>
    9740:	ebfffa37 	bl	8024 <PUT32>
    9744:	eafffffe 	b	9744 <rpi_reboot+0x4c>
    9748:	5a000001 	bpl	9754 <rpi_reboot+0x5c>
    974c:	20100024 	andscs	r0, r0, r4, lsr #32
    9750:	5a000020 	bpl	97d8 <delay_ms+0x8>
    9754:	2010001c 	andscs	r0, r0, ip, lsl r0

00009758 <timer_get_usec_raw>:
    9758:	e59f0000 	ldr	r0, [pc]	; 9760 <timer_get_usec_raw+0x8>
    975c:	eafffa32 	b	802c <GET32>
    9760:	20003004 	andcs	r3, r0, r4

00009764 <timer_get_usec>:
    9764:	e92d4010 	push	{r4, lr}
    9768:	eb00024d 	bl	a0a4 <dev_barrier>
    976c:	e59f0010 	ldr	r0, [pc, #16]	; 9784 <timer_get_usec+0x20>
    9770:	ebfffa2d 	bl	802c <GET32>
    9774:	e1a04000 	mov	r4, r0
    9778:	eb000249 	bl	a0a4 <dev_barrier>
    977c:	e1a00004 	mov	r0, r4
    9780:	e8bd8010 	pop	{r4, pc}
    9784:	20003004 	andcs	r3, r0, r4

00009788 <delay_us>:
    9788:	e92d41f0 	push	{r4, r5, r6, r7, r8, lr}
    978c:	e1a06000 	mov	r6, r0
    9790:	eb000243 	bl	a0a4 <dev_barrier>
    9794:	e59f0030 	ldr	r0, [pc, #48]	; 97cc <delay_us+0x44>
    9798:	ebfffa23 	bl	802c <GET32>
    979c:	e1a05000 	mov	r5, r0
    97a0:	eb00023f 	bl	a0a4 <dev_barrier>
    97a4:	e59f7020 	ldr	r7, [pc, #32]	; 97cc <delay_us+0x44>
    97a8:	eb00023d 	bl	a0a4 <dev_barrier>
    97ac:	e1a00007 	mov	r0, r7
    97b0:	ebfffa1d 	bl	802c <GET32>
    97b4:	e1a04000 	mov	r4, r0
    97b8:	e0444005 	sub	r4, r4, r5
    97bc:	eb000238 	bl	a0a4 <dev_barrier>
    97c0:	e1540006 	cmp	r4, r6
    97c4:	3afffff7 	bcc	97a8 <delay_us+0x20>
    97c8:	e8bd81f0 	pop	{r4, r5, r6, r7, r8, pc}
    97cc:	20003004 	andcs	r3, r0, r4

000097d0 <delay_ms>:
    97d0:	e92d41f0 	push	{r4, r5, r6, r7, r8, lr}
    97d4:	e0604280 	rsb	r4, r0, r0, lsl #5
    97d8:	e0800104 	add	r0, r0, r4, lsl #2
    97dc:	e1a04180 	lsl	r4, r0, #3
    97e0:	eb00022f 	bl	a0a4 <dev_barrier>
    97e4:	e59f0030 	ldr	r0, [pc, #48]	; 981c <delay_ms+0x4c>
    97e8:	ebfffa0f 	bl	802c <GET32>
    97ec:	e1a06000 	mov	r6, r0
    97f0:	eb00022b 	bl	a0a4 <dev_barrier>
    97f4:	e59f7020 	ldr	r7, [pc, #32]	; 981c <delay_ms+0x4c>
    97f8:	eb000229 	bl	a0a4 <dev_barrier>
    97fc:	e1a00007 	mov	r0, r7
    9800:	ebfffa09 	bl	802c <GET32>
    9804:	e1a05000 	mov	r5, r0
    9808:	e0455006 	sub	r5, r5, r6
    980c:	eb000224 	bl	a0a4 <dev_barrier>
    9810:	e1540005 	cmp	r4, r5
    9814:	8afffff7 	bhi	97f8 <delay_ms+0x28>
    9818:	e8bd81f0 	pop	{r4, r5, r6, r7, r8, pc}
    981c:	20003004 	andcs	r3, r0, r4

00009820 <delay_sec>:
    9820:	e92d41f0 	push	{r4, r5, r6, r7, r8, lr}
    9824:	e0604280 	rsb	r4, r0, r0, lsl #5
    9828:	e0644304 	rsb	r4, r4, r4, lsl #6
    982c:	e0800184 	add	r0, r0, r4, lsl #3
    9830:	e1a04300 	lsl	r4, r0, #6
    9834:	eb00021a 	bl	a0a4 <dev_barrier>
    9838:	e59f0030 	ldr	r0, [pc, #48]	; 9870 <delay_sec+0x50>
    983c:	ebfff9fa 	bl	802c <GET32>
    9840:	e1a06000 	mov	r6, r0
    9844:	eb000216 	bl	a0a4 <dev_barrier>
    9848:	e59f7020 	ldr	r7, [pc, #32]	; 9870 <delay_sec+0x50>
    984c:	eb000214 	bl	a0a4 <dev_barrier>
    9850:	e1a00007 	mov	r0, r7
    9854:	ebfff9f4 	bl	802c <GET32>
    9858:	e1a05000 	mov	r5, r0
    985c:	e0455006 	sub	r5, r5, r6
    9860:	eb00020f 	bl	a0a4 <dev_barrier>
    9864:	e1540005 	cmp	r4, r5
    9868:	8afffff7 	bhi	984c <delay_sec+0x2c>
    986c:	e8bd81f0 	pop	{r4, r5, r6, r7, r8, pc}
    9870:	20003004 	andcs	r3, r0, r4

00009874 <and_in32>:
    9874:	e92d4070 	push	{r4, r5, r6, lr}
    9878:	e1a04000 	mov	r4, r0
    987c:	e1a05001 	mov	r5, r1
    9880:	ebfff9e9 	bl	802c <GET32>
    9884:	e0001005 	and	r1, r0, r5
    9888:	e1a00004 	mov	r0, r4
    988c:	ebfff9e4 	bl	8024 <PUT32>
    9890:	e8bd8070 	pop	{r4, r5, r6, pc}

00009894 <or_in32>:
    9894:	e92d4070 	push	{r4, r5, r6, lr}
    9898:	e1a04000 	mov	r4, r0
    989c:	e1a05001 	mov	r5, r1
    98a0:	ebfff9e1 	bl	802c <GET32>
    98a4:	e1801005 	orr	r1, r0, r5
    98a8:	e1a00004 	mov	r0, r4
    98ac:	ebfff9dc 	bl	8024 <PUT32>
    98b0:	e8bd8070 	pop	{r4, r5, r6, pc}

000098b4 <uart_init>:
    98b4:	e92d4010 	push	{r4, lr}
    98b8:	e3a01002 	mov	r1, #2, 0
    98bc:	e3a0000e 	mov	r0, #14, 0
    98c0:	eb000153 	bl	9e14 <gpio_set_function>
    98c4:	e3a01002 	mov	r1, #2, 0
    98c8:	e3a0000f 	mov	r0, #15, 0
    98cc:	eb000150 	bl	9e14 <gpio_set_function>
    98d0:	eb0001f3 	bl	a0a4 <dev_barrier>
    98d4:	e3a01001 	mov	r1, #1, 0
    98d8:	e59f0064 	ldr	r0, [pc, #100]	; 9944 <uart_init+0x90>
    98dc:	ebffffec 	bl	9894 <or_in32>
    98e0:	eb0001ef 	bl	a0a4 <dev_barrier>
    98e4:	e59f405c 	ldr	r4, [pc, #92]	; 9948 <uart_init+0x94>
    98e8:	e3a01000 	mov	r1, #0, 0
    98ec:	e1a00004 	mov	r0, r4
    98f0:	ebfff9cb 	bl	8024 <PUT32>
    98f4:	e3a01000 	mov	r1, #0, 0
    98f8:	e59f004c 	ldr	r0, [pc, #76]	; 994c <uart_init+0x98>
    98fc:	ebfff9c8 	bl	8024 <PUT32>
    9900:	e3a01003 	mov	r1, #3, 0
    9904:	e59f0044 	ldr	r0, [pc, #68]	; 9950 <uart_init+0x9c>
    9908:	ebfff9c5 	bl	8024 <PUT32>
    990c:	e3a01000 	mov	r1, #0, 0
    9910:	e59f003c 	ldr	r0, [pc, #60]	; 9954 <uart_init+0xa0>
    9914:	ebfff9c2 	bl	8024 <PUT32>
    9918:	e3a010c7 	mov	r1, #199, 0	; 0xc7
    991c:	e59f0034 	ldr	r0, [pc, #52]	; 9958 <uart_init+0xa4>
    9920:	ebfff9bf 	bl	8024 <PUT32>
    9924:	e59f1030 	ldr	r1, [pc, #48]	; 995c <uart_init+0xa8>
    9928:	e59f0030 	ldr	r0, [pc, #48]	; 9960 <uart_init+0xac>
    992c:	ebfff9bc 	bl	8024 <PUT32>
    9930:	e3a01003 	mov	r1, #3, 0
    9934:	e1a00004 	mov	r0, r4
    9938:	ebfff9b9 	bl	8024 <PUT32>
    993c:	eb0001d8 	bl	a0a4 <dev_barrier>
    9940:	e8bd8010 	pop	{r4, pc}
    9944:	20215004 	eorcs	r5, r1, r4
    9948:	20215060 	eorcs	r5, r1, r0, rrx
    994c:	20215044 	eorcs	r5, r1, r4, asr #32
    9950:	2021504c 	eorcs	r5, r1, ip, asr #32
    9954:	20215050 	eorcs	r5, r1, r0, asr r0
    9958:	20215048 	eorcs	r5, r1, r8, asr #32
    995c:	0000010e 	andeq	r0, r0, lr, lsl #2
    9960:	20215068 	eorcs	r5, r1, r8, rrx

00009964 <uart_can_getc>:
    9964:	e92d4010 	push	{r4, lr}
    9968:	e59f0008 	ldr	r0, [pc, #8]	; 9978 <uart_can_getc+0x14>
    996c:	ebfff9ae 	bl	802c <GET32>
    9970:	e2000001 	and	r0, r0, #1, 0
    9974:	e8bd8010 	pop	{r4, pc}
    9978:	20215064 	eorcs	r5, r1, r4, rrx

0000997c <uart_can_putc>:
    997c:	e92d4010 	push	{r4, lr}
    9980:	e59f0010 	ldr	r0, [pc, #16]	; 9998 <uart_can_putc+0x1c>
    9984:	ebfff9a8 	bl	802c <GET32>
    9988:	e3100002 	tst	r0, #2, 0
    998c:	13a00001 	movne	r0, #1, 0
    9990:	03a00000 	moveq	r0, #0, 0
    9994:	e8bd8010 	pop	{r4, pc}
    9998:	20215064 	eorcs	r5, r1, r4, rrx

0000999c <uart_getc>:
    999c:	e92d4010 	push	{r4, lr}
    99a0:	eb0001bf 	bl	a0a4 <dev_barrier>
    99a4:	ebffffee 	bl	9964 <uart_can_getc>
    99a8:	e3500000 	cmp	r0, #0, 0
    99ac:	0afffffc 	beq	99a4 <uart_getc+0x8>
    99b0:	e59f0010 	ldr	r0, [pc, #16]	; 99c8 <uart_getc+0x2c>
    99b4:	ebfff99c 	bl	802c <GET32>
    99b8:	e6ef4070 	uxtb	r4, r0
    99bc:	eb0001b8 	bl	a0a4 <dev_barrier>
    99c0:	e1a00004 	mov	r0, r4
    99c4:	e8bd8010 	pop	{r4, pc}
    99c8:	20215040 	eorcs	r5, r1, r0, asr #32

000099cc <uart_putc>:
    99cc:	e92d4010 	push	{r4, lr}
    99d0:	e1a04000 	mov	r4, r0
    99d4:	eb0001b2 	bl	a0a4 <dev_barrier>
    99d8:	ebffffe7 	bl	997c <uart_can_putc>
    99dc:	e3500000 	cmp	r0, #0, 0
    99e0:	0afffffc 	beq	99d8 <uart_putc+0xc>
    99e4:	e6ef1074 	uxtb	r1, r4
    99e8:	e59f0008 	ldr	r0, [pc, #8]	; 99f8 <uart_putc+0x2c>
    99ec:	ebfff98c 	bl	8024 <PUT32>
    99f0:	eb0001ab 	bl	a0a4 <dev_barrier>
    99f4:	e8bd8010 	pop	{r4, pc}
    99f8:	20215040 	eorcs	r5, r1, r0, asr #32

000099fc <uart_has_data>:
    99fc:	e92d4010 	push	{r4, lr}
    9a00:	eb0001a7 	bl	a0a4 <dev_barrier>
    9a04:	ebffffd6 	bl	9964 <uart_can_getc>
    9a08:	e8bd8010 	pop	{r4, pc}

00009a0c <uart_tx_is_empty>:
    9a0c:	e92d4010 	push	{r4, lr}
    9a10:	eb0001a3 	bl	a0a4 <dev_barrier>
    9a14:	e59f000c 	ldr	r0, [pc, #12]	; 9a28 <uart_tx_is_empty+0x1c>
    9a18:	ebfff983 	bl	802c <GET32>
    9a1c:	e1a004a0 	lsr	r0, r0, #9
    9a20:	e2000001 	and	r0, r0, #1, 0
    9a24:	e8bd8010 	pop	{r4, pc}
    9a28:	20215064 	eorcs	r5, r1, r4, rrx

00009a2c <uart_flush_tx>:
    9a2c:	e92d4010 	push	{r4, lr}
    9a30:	ebfffff5 	bl	9a0c <uart_tx_is_empty>
    9a34:	e3500000 	cmp	r0, #0, 0
    9a38:	0afffffc 	beq	9a30 <uart_flush_tx+0x4>
    9a3c:	e8bd8010 	pop	{r4, pc}

00009a40 <uart_disable>:
    9a40:	e92d4010 	push	{r4, lr}
    9a44:	ebfffff8 	bl	9a2c <uart_flush_tx>
    9a48:	eb000195 	bl	a0a4 <dev_barrier>
    9a4c:	e3e01001 	mvn	r1, #1, 0
    9a50:	e59f0008 	ldr	r0, [pc, #8]	; 9a60 <uart_disable+0x20>
    9a54:	ebffff86 	bl	9874 <and_in32>
    9a58:	eb000191 	bl	a0a4 <dev_barrier>
    9a5c:	e8bd8010 	pop	{r4, pc}
    9a60:	20215004 	eorcs	r5, r1, r4

00009a64 <kmalloc_heap_end>:
    9a64:	e59f3004 	ldr	r3, [pc, #4]	; 9a70 <kmalloc_heap_end+0xc>
    9a68:	e5930000 	ldr	r0, [r3]
    9a6c:	e12fff1e 	bx	lr
    9a70:	0000a968 	andeq	sl, r0, r8, ror #18

00009a74 <kmalloc_heap_start>:
    9a74:	e59f3004 	ldr	r3, [pc, #4]	; 9a80 <kmalloc_heap_start+0xc>
    9a78:	e5930004 	ldr	r0, [r3, #4]
    9a7c:	e12fff1e 	bx	lr
    9a80:	0000a968 	andeq	sl, r0, r8, ror #18

00009a84 <kmalloc_heap_ptr>:
    9a84:	e59f3004 	ldr	r3, [pc, #4]	; 9a90 <kmalloc_heap_ptr+0xc>
    9a88:	e5930000 	ldr	r0, [r3]
    9a8c:	e12fff1e 	bx	lr
    9a90:	0000a968 	andeq	sl, r0, r8, ror #18

00009a94 <kmalloc_init_set_start>:
    9a94:	e52de004 	push	{lr}		; (str lr, [sp, #-4]!)
    9a98:	e24dd00c 	sub	sp, sp, #12, 0
    9a9c:	e3510000 	cmp	r1, #0, 0
    9aa0:	0a00000a 	beq	9ad0 <kmalloc_init_set_start+0x3c>
    9aa4:	e59f306c 	ldr	r3, [pc, #108]	; 9b18 <kmalloc_init_set_start+0x84>
    9aa8:	e5933000 	ldr	r3, [r3]
    9aac:	e1530000 	cmp	r3, r0
    9ab0:	8a00000e 	bhi	9af0 <kmalloc_init_set_start+0x5c>
    9ab4:	e59f305c 	ldr	r3, [pc, #92]	; 9b18 <kmalloc_init_set_start+0x84>
    9ab8:	e5830000 	str	r0, [r3]
    9abc:	e5830004 	str	r0, [r3, #4]
    9ac0:	e0800001 	add	r0, r0, r1
    9ac4:	e5830008 	str	r0, [r3, #8]
    9ac8:	e28dd00c 	add	sp, sp, #12, 0
    9acc:	e49df004 	pop	{pc}		; (ldr pc, [sp], #4)
    9ad0:	e59f3044 	ldr	r3, [pc, #68]	; 9b1c <kmalloc_init_set_start+0x88>
    9ad4:	e58d3000 	str	r3, [sp]
    9ad8:	e3a03030 	mov	r3, #48, 0	; 0x30
    9adc:	e59f203c 	ldr	r2, [pc, #60]	; 9b20 <kmalloc_init_set_start+0x8c>
    9ae0:	e59f103c 	ldr	r1, [pc, #60]	; 9b24 <kmalloc_init_set_start+0x90>
    9ae4:	e59f003c 	ldr	r0, [pc, #60]	; 9b28 <kmalloc_init_set_start+0x94>
    9ae8:	ebfffc1c 	bl	8b60 <printk>
    9aec:	ebfffeac 	bl	95a4 <clean_reboot>
    9af0:	e59f3020 	ldr	r3, [pc, #32]	; 9b18 <kmalloc_init_set_start+0x84>
    9af4:	e5933008 	ldr	r3, [r3, #8]
    9af8:	e58d3004 	str	r3, [sp, #4]
    9afc:	e58d0000 	str	r0, [sp]
    9b00:	e3a03034 	mov	r3, #52, 0	; 0x34
    9b04:	e59f2014 	ldr	r2, [pc, #20]	; 9b20 <kmalloc_init_set_start+0x8c>
    9b08:	e59f1014 	ldr	r1, [pc, #20]	; 9b24 <kmalloc_init_set_start+0x90>
    9b0c:	e59f0018 	ldr	r0, [pc, #24]	; 9b2c <kmalloc_init_set_start+0x98>
    9b10:	ebfffc12 	bl	8b60 <printk>
    9b14:	ebfffea2 	bl	95a4 <clean_reboot>
    9b18:	0000a968 	andeq	sl, r0, r8, ror #18
    9b1c:	0000a774 	andeq	sl, r0, r4, ror r7
    9b20:	0000a900 	andeq	sl, r0, r0, lsl #18
    9b24:	0000a768 	andeq	sl, r0, r8, ror #14
    9b28:	0000a1e4 	andeq	sl, r0, r4, ror #3
    9b2c:	0000a780 	andeq	sl, r0, r0, lsl #15

00009b30 <kmalloc_init>:
    9b30:	e92d4010 	push	{r4, lr}
    9b34:	e59f303c 	ldr	r3, [pc, #60]	; 9b78 <kmalloc_init+0x48>
    9b38:	e5933000 	ldr	r3, [r3]
    9b3c:	e3530000 	cmp	r3, #0, 0
    9b40:	1a000006 	bne	9b60 <kmalloc_init+0x30>
    9b44:	e59f302c 	ldr	r3, [pc, #44]	; 9b78 <kmalloc_init+0x48>
    9b48:	e3a02001 	mov	r2, #1, 0
    9b4c:	e5832000 	str	r2, [r3]
    9b50:	e3a01201 	mov	r1, #268435456	; 0x10000000
    9b54:	e3a00601 	mov	r0, #1048576	; 0x100000
    9b58:	ebffffcd 	bl	9a94 <kmalloc_init_set_start>
    9b5c:	e8bd8010 	pop	{r4, pc}
    9b60:	e3a03040 	mov	r3, #64, 0	; 0x40
    9b64:	e59f2010 	ldr	r2, [pc, #16]	; 9b7c <kmalloc_init+0x4c>
    9b68:	e59f1010 	ldr	r1, [pc, #16]	; 9b80 <kmalloc_init+0x50>
    9b6c:	e59f0010 	ldr	r0, [pc, #16]	; 9b84 <kmalloc_init+0x54>
    9b70:	ebfffbfa 	bl	8b60 <printk>
    9b74:	ebfffe8a 	bl	95a4 <clean_reboot>
    9b78:	0000ad9c 	muleq	r0, ip, sp
    9b7c:	0000a918 	andeq	sl, r0, r8, lsl r9
    9b80:	0000a768 	andeq	sl, r0, r8, ror #14
    9b84:	0000a7c4 	andeq	sl, r0, r4, asr #15

00009b88 <kmalloc_notzero>:
    9b88:	e52de004 	push	{lr}		; (str lr, [sp, #-4]!)
    9b8c:	e24dd00c 	sub	sp, sp, #12, 0
    9b90:	e3500000 	cmp	r0, #0, 0
    9b94:	0a00000a 	beq	9bc4 <kmalloc_notzero+0x3c>
    9b98:	e2800007 	add	r0, r0, #7, 0
    9b9c:	e3c03007 	bic	r3, r0, #7, 0
    9ba0:	e59f2060 	ldr	r2, [pc, #96]	; 9c08 <kmalloc_notzero+0x80>
    9ba4:	e5920000 	ldr	r0, [r2]
    9ba8:	e0801003 	add	r1, r0, r3
    9bac:	e5821000 	str	r1, [r2]
    9bb0:	e5922008 	ldr	r2, [r2, #8]
    9bb4:	e1510002 	cmp	r1, r2
    9bb8:	8a000009 	bhi	9be4 <kmalloc_notzero+0x5c>
    9bbc:	e28dd00c 	add	sp, sp, #12, 0
    9bc0:	e49df004 	pop	{pc}		; (ldr pc, [sp], #4)
    9bc4:	e59f3040 	ldr	r3, [pc, #64]	; 9c0c <kmalloc_notzero+0x84>
    9bc8:	e58d3000 	str	r3, [sp]
    9bcc:	e3a03048 	mov	r3, #72, 0	; 0x48
    9bd0:	e59f2038 	ldr	r2, [pc, #56]	; 9c10 <kmalloc_notzero+0x88>
    9bd4:	e59f1038 	ldr	r1, [pc, #56]	; 9c14 <kmalloc_notzero+0x8c>
    9bd8:	e59f0038 	ldr	r0, [pc, #56]	; 9c18 <kmalloc_notzero+0x90>
    9bdc:	ebfffbdf 	bl	8b60 <printk>
    9be0:	ebfffe6f 	bl	95a4 <clean_reboot>
    9be4:	e0422000 	sub	r2, r2, r0
    9be8:	e58d2004 	str	r2, [sp, #4]
    9bec:	e58d3000 	str	r3, [sp]
    9bf0:	e3a0304e 	mov	r3, #78, 0	; 0x4e
    9bf4:	e59f2014 	ldr	r2, [pc, #20]	; 9c10 <kmalloc_notzero+0x88>
    9bf8:	e59f1014 	ldr	r1, [pc, #20]	; 9c14 <kmalloc_notzero+0x8c>
    9bfc:	e59f0018 	ldr	r0, [pc, #24]	; 9c1c <kmalloc_notzero+0x94>
    9c00:	ebfffbd6 	bl	8b60 <printk>
    9c04:	ebfffe66 	bl	95a4 <clean_reboot>
    9c08:	0000a968 	andeq	sl, r0, r8, ror #18
    9c0c:	0000a778 	andeq	sl, r0, r8, ror r7
    9c10:	0000a928 	andeq	sl, r0, r8, lsr #18
    9c14:	0000a768 	andeq	sl, r0, r8, ror #14
    9c18:	0000a1e4 	andeq	sl, r0, r4, ror #3
    9c1c:	0000a7f4 	strdeq	sl, [r0], -r4

00009c20 <kmalloc>:
    9c20:	e92d4030 	push	{r4, r5, lr}
    9c24:	e24dd00c 	sub	sp, sp, #12, 0
    9c28:	e2504000 	subs	r4, r0, #0, 0
    9c2c:	0a000008 	beq	9c54 <kmalloc+0x34>
    9c30:	e1a00004 	mov	r0, r4
    9c34:	ebffffd3 	bl	9b88 <kmalloc_notzero>
    9c38:	e1a05000 	mov	r5, r0
    9c3c:	e1a02004 	mov	r2, r4
    9c40:	e3a01000 	mov	r1, #0, 0
    9c44:	ebfffba7 	bl	8ae8 <memset>
    9c48:	e1a00005 	mov	r0, r5
    9c4c:	e28dd00c 	add	sp, sp, #12, 0
    9c50:	e8bd8030 	pop	{r4, r5, pc}
    9c54:	e59f3018 	ldr	r3, [pc, #24]	; 9c74 <kmalloc+0x54>
    9c58:	e58d3000 	str	r3, [sp]
    9c5c:	e3a03054 	mov	r3, #84, 0	; 0x54
    9c60:	e59f2010 	ldr	r2, [pc, #16]	; 9c78 <kmalloc+0x58>
    9c64:	e59f1010 	ldr	r1, [pc, #16]	; 9c7c <kmalloc+0x5c>
    9c68:	e59f0010 	ldr	r0, [pc, #16]	; 9c80 <kmalloc+0x60>
    9c6c:	ebfffbbb 	bl	8b60 <printk>
    9c70:	ebfffe4b 	bl	95a4 <clean_reboot>
    9c74:	0000a778 	andeq	sl, r0, r8, ror r7
    9c78:	0000a938 	andeq	sl, r0, r8, lsr r9
    9c7c:	0000a768 	andeq	sl, r0, r8, ror #14
    9c80:	0000a1e4 	andeq	sl, r0, r4, ror #3

00009c84 <kmalloc_aligned>:
    9c84:	e52de004 	push	{lr}		; (str lr, [sp, #-4]!)
    9c88:	e24dd00c 	sub	sp, sp, #12, 0
    9c8c:	e3500000 	cmp	r0, #0, 0
    9c90:	0a000014 	beq	9ce8 <kmalloc_aligned+0x64>
    9c94:	e2613000 	rsb	r3, r1, #0, 0
    9c98:	e1d13003 	bics	r3, r1, r3
    9c9c:	1a000019 	bne	9d08 <kmalloc_aligned+0x84>
    9ca0:	e3510008 	cmp	r1, #8, 0
    9ca4:	33a01008 	movcc	r1, #8, 0
    9ca8:	e59f30c0 	ldr	r3, [pc, #192]	; 9d70 <kmalloc_aligned+0xec>
    9cac:	e5932000 	ldr	r2, [r3]
    9cb0:	e2613000 	rsb	r3, r1, #0, 0
    9cb4:	e1d1c003 	bics	ip, r1, r3
    9cb8:	1a00001b 	bne	9d2c <kmalloc_aligned+0xa8>
    9cbc:	e0822001 	add	r2, r2, r1
    9cc0:	e2422001 	sub	r2, r2, #1, 0
    9cc4:	e0033002 	and	r3, r3, r2
    9cc8:	e2411001 	sub	r1, r1, #1, 0
    9ccc:	e1110003 	tst	r1, r3
    9cd0:	1a00001d 	bne	9d4c <kmalloc_aligned+0xc8>
    9cd4:	e59f2094 	ldr	r2, [pc, #148]	; 9d70 <kmalloc_aligned+0xec>
    9cd8:	e5823000 	str	r3, [r2]
    9cdc:	ebffffcf 	bl	9c20 <kmalloc>
    9ce0:	e28dd00c 	add	sp, sp, #12, 0
    9ce4:	e49df004 	pop	{pc}		; (ldr pc, [sp], #4)
    9ce8:	e59f3084 	ldr	r3, [pc, #132]	; 9d74 <kmalloc_aligned+0xf0>
    9cec:	e58d3000 	str	r3, [sp]
    9cf0:	e3a0305f 	mov	r3, #95, 0	; 0x5f
    9cf4:	e59f207c 	ldr	r2, [pc, #124]	; 9d78 <kmalloc_aligned+0xf4>
    9cf8:	e59f107c 	ldr	r1, [pc, #124]	; 9d7c <kmalloc_aligned+0xf8>
    9cfc:	e59f007c 	ldr	r0, [pc, #124]	; 9d80 <kmalloc_aligned+0xfc>
    9d00:	ebfffb96 	bl	8b60 <printk>
    9d04:	ebfffe26 	bl	95a4 <clean_reboot>
    9d08:	eb0000ac 	bl	9fc0 <rpi_reset_putc>
    9d0c:	e59f3070 	ldr	r3, [pc, #112]	; 9d84 <kmalloc_aligned+0x100>
    9d10:	e58d3000 	str	r3, [sp]
    9d14:	e3a03060 	mov	r3, #96, 0	; 0x60
    9d18:	e59f2058 	ldr	r2, [pc, #88]	; 9d78 <kmalloc_aligned+0xf4>
    9d1c:	e59f1058 	ldr	r1, [pc, #88]	; 9d7c <kmalloc_aligned+0xf8>
    9d20:	e59f0060 	ldr	r0, [pc, #96]	; 9d88 <kmalloc_aligned+0x104>
    9d24:	ebfffb8d 	bl	8b60 <printk>
    9d28:	ebfffe1d 	bl	95a4 <clean_reboot>
    9d2c:	e59f3058 	ldr	r3, [pc, #88]	; 9d8c <kmalloc_aligned+0x108>
    9d30:	e58d3000 	str	r3, [sp]
    9d34:	e3a03011 	mov	r3, #17, 0
    9d38:	e59f2050 	ldr	r2, [pc, #80]	; 9d90 <kmalloc_aligned+0x10c>
    9d3c:	e59f1038 	ldr	r1, [pc, #56]	; 9d7c <kmalloc_aligned+0xf8>
    9d40:	e59f0038 	ldr	r0, [pc, #56]	; 9d80 <kmalloc_aligned+0xfc>
    9d44:	ebfffb85 	bl	8b60 <printk>
    9d48:	ebfffe15 	bl	95a4 <clean_reboot>
    9d4c:	eb00009b 	bl	9fc0 <rpi_reset_putc>
    9d50:	e59f303c 	ldr	r3, [pc, #60]	; 9d94 <kmalloc_aligned+0x110>
    9d54:	e58d3000 	str	r3, [sp]
    9d58:	e3a03068 	mov	r3, #104, 0	; 0x68
    9d5c:	e59f2014 	ldr	r2, [pc, #20]	; 9d78 <kmalloc_aligned+0xf4>
    9d60:	e59f1014 	ldr	r1, [pc, #20]	; 9d7c <kmalloc_aligned+0xf8>
    9d64:	e59f002c 	ldr	r0, [pc, #44]	; 9d98 <kmalloc_aligned+0x114>
    9d68:	ebfffb7c 	bl	8b60 <printk>
    9d6c:	ebfffe0c 	bl	95a4 <clean_reboot>
    9d70:	0000a968 	andeq	sl, r0, r8, ror #18
    9d74:	0000a778 	andeq	sl, r0, r8, ror r7
    9d78:	0000a940 	andeq	sl, r0, r0, asr #18
    9d7c:	0000a768 	andeq	sl, r0, r8, ror #14
    9d80:	0000a1e4 	andeq	sl, r0, r4, ror #3
    9d84:	0000a868 	andeq	sl, r0, r8, ror #16
    9d88:	0000a834 	andeq	sl, r0, r4, lsr r8
    9d8c:	0000a87c 	andeq	sl, r0, ip, ror r8
    9d90:	0000a950 	andeq	sl, r0, r0, asr r9
    9d94:	0000a8b4 			; <UNDEFINED> instruction: 0x0000a8b4
    9d98:	0000a888 	andeq	sl, r0, r8, lsl #17

00009d9c <kfree>:
    9d9c:	e12fff1e 	bx	lr

00009da0 <kfree_all>:
    9da0:	e59f3008 	ldr	r3, [pc, #8]	; 9db0 <kfree_all+0x10>
    9da4:	e5932004 	ldr	r2, [r3, #4]
    9da8:	e5832000 	str	r2, [r3]
    9dac:	e12fff1e 	bx	lr
    9db0:	0000a968 	andeq	sl, r0, r8, ror #18

00009db4 <kfree_pop>:
    9db4:	e59f3048 	ldr	r3, [pc, #72]	; 9e04 <kfree_pop+0x50>
    9db8:	e5933004 	ldr	r3, [r3, #4]
    9dbc:	e1530000 	cmp	r3, r0
    9dc0:	8a000006 	bhi	9de0 <kfree_pop+0x2c>
    9dc4:	e59f3038 	ldr	r3, [pc, #56]	; 9e04 <kfree_pop+0x50>
    9dc8:	e5933008 	ldr	r3, [r3, #8]
    9dcc:	e1530000 	cmp	r3, r0
    9dd0:	3a000002 	bcc	9de0 <kfree_pop+0x2c>
    9dd4:	e59f3028 	ldr	r3, [pc, #40]	; 9e04 <kfree_pop+0x50>
    9dd8:	e5830000 	str	r0, [r3]
    9ddc:	e12fff1e 	bx	lr
    9de0:	e52de004 	push	{lr}		; (str lr, [sp, #-4]!)
    9de4:	e24dd00c 	sub	sp, sp, #12, 0
    9de8:	e58d0000 	str	r0, [sp]
    9dec:	e3a03077 	mov	r3, #119, 0	; 0x77
    9df0:	e59f2010 	ldr	r2, [pc, #16]	; 9e08 <kfree_pop+0x54>
    9df4:	e59f1010 	ldr	r1, [pc, #16]	; 9e0c <kfree_pop+0x58>
    9df8:	e59f0010 	ldr	r0, [pc, #16]	; 9e10 <kfree_pop+0x5c>
    9dfc:	ebfffb57 	bl	8b60 <printk>
    9e00:	ebfffde7 	bl	95a4 <clean_reboot>
    9e04:	0000a968 	andeq	sl, r0, r8, ror #18
    9e08:	0000a958 	andeq	sl, r0, r8, asr r9
    9e0c:	0000a768 	andeq	sl, r0, r8, ror #14
    9e10:	0000a8d0 	ldrdeq	sl, [r0], -r0

00009e14 <gpio_set_function>:
    9e14:	e350001f 	cmp	r0, #31, 0
    9e18:	812fff1e 	bxhi	lr
    9e1c:	e3d13007 	bics	r3, r1, #7, 0
    9e20:	e92d4070 	push	{r4, r5, r6, lr}
    9e24:	e1a05001 	mov	r5, r1
    9e28:	18bd8070 	popne	{r4, r5, r6, pc}
    9e2c:	e59f403c 	ldr	r4, [pc, #60]	; 9e70 <gpio_set_function+0x5c>
    9e30:	e0843094 	umull	r3, r4, r4, r0
    9e34:	e1a041a4 	lsr	r4, r4, #3
    9e38:	e2843302 	add	r3, r4, #134217728	; 0x8000000
    9e3c:	e2833702 	add	r3, r3, #524288	; 0x80000
    9e40:	e1a06103 	lsl	r6, r3, #2
    9e44:	e0844104 	add	r4, r4, r4, lsl #2
    9e48:	e0404084 	sub	r4, r0, r4, lsl #1
    9e4c:	e1a00006 	mov	r0, r6
    9e50:	ebfff875 	bl	802c <GET32>
    9e54:	e3a01007 	mov	r1, #7, 0
    9e58:	e0844084 	add	r4, r4, r4, lsl #1
    9e5c:	e1c01411 	bic	r1, r0, r1, lsl r4
    9e60:	e1811415 	orr	r1, r1, r5, lsl r4
    9e64:	e1a00006 	mov	r0, r6
    9e68:	e8bd4070 	pop	{r4, r5, r6, lr}
    9e6c:	eafff86c 	b	8024 <PUT32>
    9e70:	cccccccd 	stclgt	12, cr12, [ip], {205}	; 0xcd

00009e74 <gpio_set_output>:
    9e74:	e350001f 	cmp	r0, #31, 0
    9e78:	812fff1e 	bxhi	lr
    9e7c:	e92d4070 	push	{r4, r5, r6, lr}
    9e80:	e59f4040 	ldr	r4, [pc, #64]	; 9ec8 <gpio_set_output+0x54>
    9e84:	e0843094 	umull	r3, r4, r4, r0
    9e88:	e1a041a4 	lsr	r4, r4, #3
    9e8c:	e2843302 	add	r3, r4, #134217728	; 0x8000000
    9e90:	e2833702 	add	r3, r3, #524288	; 0x80000
    9e94:	e1a05103 	lsl	r5, r3, #2
    9e98:	e0844104 	add	r4, r4, r4, lsl #2
    9e9c:	e0404084 	sub	r4, r0, r4, lsl #1
    9ea0:	e1a00005 	mov	r0, r5
    9ea4:	ebfff860 	bl	802c <GET32>
    9ea8:	e3a03007 	mov	r3, #7, 0
    9eac:	e3a01001 	mov	r1, #1, 0
    9eb0:	e0844084 	add	r4, r4, r4, lsl #1
    9eb4:	e1c03413 	bic	r3, r0, r3, lsl r4
    9eb8:	e1831411 	orr	r1, r3, r1, lsl r4
    9ebc:	e1a00005 	mov	r0, r5
    9ec0:	e8bd4070 	pop	{r4, r5, r6, lr}
    9ec4:	eafff856 	b	8024 <PUT32>
    9ec8:	cccccccd 	stclgt	12, cr12, [ip], {205}	; 0xcd

00009ecc <gpio_set_on>:
    9ecc:	e1a03000 	mov	r3, r0
    9ed0:	e3a01001 	mov	r1, #1, 0
    9ed4:	e59f0004 	ldr	r0, [pc, #4]	; 9ee0 <gpio_set_on+0x14>
    9ed8:	e1a01311 	lsl	r1, r1, r3
    9edc:	eafff850 	b	8024 <PUT32>
    9ee0:	2020001c 	eorcs	r0, r0, ip, lsl r0

00009ee4 <gpio_set_off>:
    9ee4:	e1a03000 	mov	r3, r0
    9ee8:	e3a01001 	mov	r1, #1, 0
    9eec:	e59f0004 	ldr	r0, [pc, #4]	; 9ef8 <gpio_set_off+0x14>
    9ef0:	e1a01311 	lsl	r1, r1, r3
    9ef4:	eafff84a 	b	8024 <PUT32>
    9ef8:	20200028 	eorcs	r0, r0, r8, lsr #32

00009efc <gpio_set_input>:
    9efc:	e350001f 	cmp	r0, #31, 0
    9f00:	812fff1e 	bxhi	lr
    9f04:	e92d4070 	push	{r4, r5, r6, lr}
    9f08:	e59f5040 	ldr	r5, [pc, #64]	; 9f50 <gpio_set_input+0x54>
    9f0c:	e1a04000 	mov	r4, r0
    9f10:	e0853095 	umull	r3, r5, r5, r0
    9f14:	e1a051a5 	lsr	r5, r5, #3
    9f18:	e2850302 	add	r0, r5, #134217728	; 0x8000000
    9f1c:	e2800702 	add	r0, r0, #524288	; 0x80000
    9f20:	e1a06100 	lsl	r6, r0, #2
    9f24:	e1a00006 	mov	r0, r6
    9f28:	ebfff83f 	bl	802c <GET32>
    9f2c:	e3a01007 	mov	r1, #7, 0
    9f30:	e1a03000 	mov	r3, r0
    9f34:	e0855105 	add	r5, r5, r5, lsl #2
    9f38:	e0444085 	sub	r4, r4, r5, lsl #1
    9f3c:	e0844084 	add	r4, r4, r4, lsl #1
    9f40:	e1a00006 	mov	r0, r6
    9f44:	e1c31411 	bic	r1, r3, r1, lsl r4
    9f48:	e8bd4070 	pop	{r4, r5, r6, lr}
    9f4c:	eafff834 	b	8024 <PUT32>
    9f50:	cccccccd 	stclgt	12, cr12, [ip], {205}	; 0xcd

00009f54 <gpio_write>:
    9f54:	e3510000 	cmp	r1, #0, 0
    9f58:	e3a03001 	mov	r3, #1, 0
    9f5c:	e1a01000 	mov	r1, r0
    9f60:	0a000002 	beq	9f70 <gpio_write+0x1c>
    9f64:	e59f0010 	ldr	r0, [pc, #16]	; 9f7c <gpio_write+0x28>
    9f68:	e1a01113 	lsl	r1, r3, r1
    9f6c:	eafff82c 	b	8024 <PUT32>
    9f70:	e59f0008 	ldr	r0, [pc, #8]	; 9f80 <gpio_write+0x2c>
    9f74:	e1a01113 	lsl	r1, r3, r1
    9f78:	eafff829 	b	8024 <PUT32>
    9f7c:	2020001c 	eorcs	r0, r0, ip, lsl r0
    9f80:	20200028 	eorcs	r0, r0, r8, lsr #32

00009f84 <gpio_read>:
    9f84:	e92d4010 	push	{r4, lr}
    9f88:	e1a04000 	mov	r4, r0
    9f8c:	e59f0014 	ldr	r0, [pc, #20]	; 9fa8 <gpio_read+0x24>
    9f90:	e08002a4 	add	r0, r0, r4, lsr #5
    9f94:	ebfff824 	bl	802c <GET32>
    9f98:	e204401f 	and	r4, r4, #31, 0
    9f9c:	e1a00430 	lsr	r0, r0, r4
    9fa0:	e2000001 	and	r0, r0, #1, 0
    9fa4:	e8bd8010 	pop	{r4, pc}
    9fa8:	20200034 	eorcs	r0, r0, r4, lsr r0

00009fac <internal_putchar>:
    9fac:	e92d4010 	push	{r4, lr}
    9fb0:	e1a04000 	mov	r4, r0
    9fb4:	ebfffe84 	bl	99cc <uart_putc>
    9fb8:	e1a00004 	mov	r0, r4
    9fbc:	e8bd8010 	pop	{r4, pc}

00009fc0 <rpi_reset_putc>:
    9fc0:	e59f3008 	ldr	r3, [pc, #8]	; 9fd0 <rpi_reset_putc+0x10>
    9fc4:	e59f2008 	ldr	r2, [pc, #8]	; 9fd4 <rpi_reset_putc+0x14>
    9fc8:	e5832000 	str	r2, [r3]
    9fcc:	e12fff1e 	bx	lr
    9fd0:	0000a974 	andeq	sl, r0, r4, ror r9
    9fd4:	00009fac 	andeq	r9, r0, ip, lsr #31

00009fd8 <rpi_set_putc>:
    9fd8:	e59f3004 	ldr	r3, [pc, #4]	; 9fe4 <rpi_set_putc+0xc>
    9fdc:	e5830000 	str	r0, [r3]
    9fe0:	e12fff1e 	bx	lr
    9fe4:	0000a974 	andeq	sl, r0, r4, ror r9

00009fe8 <strcat>:
    9fe8:	e1a02000 	mov	r2, r0
    9fec:	e1a03002 	mov	r3, r2
    9ff0:	e4d2c001 	ldrb	ip, [r2], #1
    9ff4:	e35c0000 	cmp	ip, #0, 0
    9ff8:	1afffffb 	bne	9fec <strcat+0x4>
    9ffc:	e2433001 	sub	r3, r3, #1, 0
    a000:	e4d12001 	ldrb	r2, [r1], #1
    a004:	e3520000 	cmp	r2, #0, 0
    a008:	e5e32001 	strb	r2, [r3, #1]!
    a00c:	1afffffb 	bne	a000 <strcat+0x18>
    a010:	e12fff1e 	bx	lr

0000a014 <strcmp>:
    a014:	e5d03000 	ldrb	r3, [r0]
    a018:	e3530000 	cmp	r3, #0, 0
    a01c:	05d12000 	ldrbeq	r2, [r1]
    a020:	1a000003 	bne	a034 <strcmp+0x20>
    a024:	ea000006 	b	a044 <strcmp+0x30>
    a028:	e5f03001 	ldrb	r3, [r0, #1]!
    a02c:	e3530000 	cmp	r3, #0, 0
    a030:	0a000005 	beq	a04c <strcmp+0x38>
    a034:	e1a0c001 	mov	ip, r1
    a038:	e4d12001 	ldrb	r2, [r1], #1
    a03c:	e1520003 	cmp	r2, r3
    a040:	0afffff8 	beq	a028 <strcmp+0x14>
    a044:	e0430002 	sub	r0, r3, r2
    a048:	e12fff1e 	bx	lr
    a04c:	e5dc2001 	ldrb	r2, [ip, #1]
    a050:	e0430002 	sub	r0, r3, r2
    a054:	e12fff1e 	bx	lr

0000a058 <strcpy>:
    a058:	e2402001 	sub	r2, r0, #1, 0
    a05c:	e4d13001 	ldrb	r3, [r1], #1
    a060:	e3530000 	cmp	r3, #0, 0
    a064:	e5e23001 	strb	r3, [r2, #1]!
    a068:	1afffffb 	bne	a05c <strcpy+0x4>
    a06c:	e12fff1e 	bx	lr

0000a070 <strncmp>:
    a070:	e0802002 	add	r2, r0, r2
    a074:	ea000003 	b	a088 <strncmp+0x18>
    a078:	e4d03001 	ldrb	r3, [r0], #1
    a07c:	e4d1c001 	ldrb	ip, [r1], #1
    a080:	e153000c 	cmp	r3, ip
    a084:	1a000003 	bne	a098 <strncmp+0x28>
    a088:	e1500002 	cmp	r0, r2
    a08c:	1afffff9 	bne	a078 <strncmp+0x8>
    a090:	e3a00000 	mov	r0, #0, 0
    a094:	e12fff1e 	bx	lr
    a098:	e043000c 	sub	r0, r3, ip
    a09c:	e12fff1e 	bx	lr

0000a0a0 <reboot_callout>:
    a0a0:	e12fff1e 	bx	lr

0000a0a4 <dev_barrier>:
    a0a4:	ea000002 	b	a0b4 <dsb>

0000a0a8 <dmb>:
    a0a8:	e3a00000 	mov	r0, #0, 0
    a0ac:	ee070fba 	mcr	15, 0, r0, cr7, cr10, {5}
    a0b0:	e12fff1e 	bx	lr

0000a0b4 <dsb>:
    a0b4:	ee070f9a 	mcr	15, 0, r0, cr7, cr10, {4}
    a0b8:	e12fff1e 	bx	lr

0000a0bc <__code_end__>:
    a0bc:	00000000 	andeq	r0, r0, r0

Disassembly of section .rodata:

0000a0c0 <__FUNCTION__.4024-0x9c>:
    a0c0:	74736574 	ldrbtvc	r6, [r3], #-1396	; 0xfffffa8c
    a0c4:	2e322d73 	mrccs	13, 1, r2, cr2, cr3, {3}
    a0c8:	61702f30 	cmnvs	r0, r0, lsr pc
    a0cc:	2d327472 	cfldrscs	mvf7, [r2, #-456]!	; 0xfffffe38
    a0d0:	74736574 	ldrbtvc	r6, [r3], #-1396	; 0xfffffa8c
    a0d4:	6f6e2d31 	svcvs	0x006e2d31
    a0d8:	61656c2d 	cmnvs	r5, sp, lsr #24
    a0dc:	00632e6b 	rsbeq	r2, r3, fp, ror #28
    a0e0:	43415254 	movtmi	r5, #4692	; 0x1254
    a0e4:	6c613a45 			; <UNDEFINED> instruction: 0x6c613a45
    a0e8:	20636f6c 	rsbcs	r6, r3, ip, ror #30
    a0ec:	75746572 	ldrbvc	r6, [r4, #-1394]!	; 0xfffffa8e
    a0f0:	64656e72 	strbtvs	r6, [r5], #-3698	; 0xfffff18e
    a0f4:	6f6c6220 	svcvs	0x006c6220
    a0f8:	69206b63 	stmdbvs	r0!, {r0, r1, r5, r6, r8, r9, fp, sp, lr}
    a0fc:	75253d64 	strvc	r3, [r5, #-3428]!	; 0xfffff29c
    a100:	64615b20 	strbtvs	r5, [r1], #-2848	; 0xfffff4e0
    a104:	253d7264 	ldrcs	r7, [sp, #-612]!	; 0xfffffd9c
    a108:	000a5d70 	andeq	r5, sl, r0, ror sp
    a10c:	74204347 	strtvc	r4, [r0], #-839	; 0xfffffcb9
    a110:	31747365 	cmncc	r4, r5, ror #6
    a114:	0000000a 	andeq	r0, r0, sl
    a118:	494e4150 	stmdbmi	lr, {r4, r6, r8, lr}^
    a11c:	73253a43 			; <UNDEFINED> instruction: 0x73253a43
    a120:	3a73253a 	bcc	1cd3610 <__bss_end__+0x1cc8870>
    a124:	733a6425 	teqvc	sl, #620756992	; 0x25000000
    a128:	6c756f68 	ldclvs	15, cr6, [r5], #-416	; 0xfffffe60
    a12c:	61682064 	cmnvs	r8, r4, rrx
    a130:	6e206576 	mcrvs	5, 1, r6, cr0, cr6, {3}
    a134:	656c206f 	strbvs	r2, [ip, #-111]!	; 0xffffff91
    a138:	21736b61 	cmncs	r3, r1, ror #22
    a13c:	00000a0a 	andeq	r0, r0, sl, lsl #20
    a140:	43415254 	movtmi	r5, #4692	; 0x1254
    a144:	55533a45 	ldrbpl	r3, [r3, #-2629]	; 0xfffff5bb
    a148:	53454343 	movtpl	r4, #21315	; 0x5343
    a14c:	6e203a53 			; <UNDEFINED> instruction: 0x6e203a53
    a150:	656c206f 	strbvs	r2, [ip, #-111]!	; 0xffffff91
    a154:	21736b61 	cmncs	r3, r1, ror #22
    a158:	0000000a 	andeq	r0, r0, sl

0000a15c <__FUNCTION__.4024>:
    a15c:	74736574 	ldrbtvc	r6, [r3], #-1396	; 0xfffffa8c
    a160:	00000031 	andeq	r0, r0, r1, lsr r0

0000a164 <__FUNCTION__.4028>:
    a164:	6d746f6e 	ldclvs	15, cr6, [r4, #-440]!	; 0xfffffe48
    a168:	006e6961 	rsbeq	r6, lr, r1, ror #18
    a16c:	6e756f66 	cdpvs	15, 7, cr6, cr5, cr6, {3}
    a170:	70252064 	eorvc	r2, r5, r4, rrx
    a174:	206e6920 	rsbcs	r6, lr, r0, lsr #18
    a178:	000a7025 	andeq	r7, sl, r5, lsr #32
    a17c:	253a7325 	ldrcs	r7, [sl, #-805]!	; 0xfffffcdb
    a180:	64253a73 	strtvs	r3, [r5], #-2675	; 0xfffff58d
    a184:	0000003a 	andeq	r0, r0, sl, lsr r0
    a188:	65657266 	strbvs	r7, [r5, #-614]!	; 0xfffffd9a
    a18c:	20676e69 	rsbcs	r6, r7, r9, ror #28
    a190:	0a702509 	beq	1c135bc <__bss_end__+0x1c0881c>
    a194:	00000000 	andeq	r0, r0, r0
    a198:	5f434f4c 	svcpl	0x00434f4c
    a19c:	494e4150 	stmdbmi	lr, {r4, r6, r8, lr}^
    a1a0:	25203a43 	strcs	r3, [r0, #-2627]!	; 0xfffff5bd
    a1a4:	73253a73 			; <UNDEFINED> instruction: 0x73253a73
    a1a8:	3a64253a 	bcc	1913698 <__bss_end__+0x19088f8>
    a1ac:	00000000 	andeq	r0, r0, r0
    a1b0:	65657266 	strbvs	r7, [r5, #-614]!	; 0xfffffd9a
    a1b4:	20676e69 	rsbcs	r6, r7, r9, ror #28
    a1b8:	6c616e75 	stclvs	14, cr6, [r1], #-468	; 0xfffffe2c
    a1bc:	61636f6c 	cmnvs	r3, ip, ror #30
    a1c0:	20646574 	rsbcs	r6, r4, r4, ror r5
    a1c4:	6f6d656d 	svcvs	0x006d656d
    a1c8:	203a7972 	eorscs	r7, sl, r2, ror r9
    a1cc:	74617473 	strbtvc	r7, [r1], #-1139	; 0xfffffb8d
    a1d0:	64253d65 	strtvs	r3, [r5], #-3429	; 0xfffff29b
    a1d4:	0000000a 	andeq	r0, r0, sl
    a1d8:	6c616b63 			; <UNDEFINED> instruction: 0x6c616b63
    a1dc:	2e636f6c 	cdpcs	15, 6, cr6, cr3, cr12, {3}
    a1e0:	00000063 	andeq	r0, r0, r3, rrx
    a1e4:	494e4150 	stmdbmi	lr, {r4, r6, r8, lr}^
    a1e8:	73253a43 			; <UNDEFINED> instruction: 0x73253a43
    a1ec:	3a73253a 	bcc	1cd36dc <__bss_end__+0x1cc893c>
    a1f0:	253a6425 	ldrcs	r6, [sl, #-1061]!	; 0xfffffbdb
    a1f4:	00000a73 	andeq	r0, r0, r3, ror sl
    a1f8:	705f6b63 	subsvc	r6, pc, r3, ror #22
    a1fc:	695f7274 	ldmdbvs	pc, {r2, r4, r5, r6, r9, ip, sp, lr}^	; <UNPREDICTABLE>
    a200:	6c615f73 	stclvs	15, cr5, [r1], #-460	; 0xfffffe34
    a204:	65636f6c 	strbvs	r6, [r3, #-3948]!	; 0xfffff094
    a208:	64612864 	strbtvs	r2, [r1], #-2148	; 0xfffff79c
    a20c:	00297264 	eoreq	r7, r9, r4, ror #4
    a210:	494e4150 	stmdbmi	lr, {r4, r6, r8, lr}^
    a214:	73253a43 			; <UNDEFINED> instruction: 0x73253a43
    a218:	3a73253a 	bcc	1cd3708 <__bss_end__+0x1cc8968>
    a21c:	643a6425 	ldrtvs	r6, [sl], #-1061	; 0xfffffbdb
    a220:	6e206469 	cdpvs	4, 2, cr6, cr0, cr9, {3}
    a224:	6620746f 	strtvs	r7, [r0], -pc, ror #8
    a228:	20646e69 	rsbcs	r6, r4, r9, ror #28
    a22c:	69207025 	stmdbvs	r0!, {r0, r2, r5, ip, sp, lr}
    a230:	696c206e 	stmdbvs	ip!, {r1, r2, r3, r5, r6, sp}^
    a234:	0a0a7473 	beq	2a7408 <__bss_end__+0x29c668>
    a238:	00000000 	andeq	r0, r0, r0
    a23c:	6f6c6c61 	svcvs	0x006c6c61
    a240:	69746163 	ldmdbvs	r4!, {r0, r1, r5, r6, r8, sp, lr}^
    a244:	2520676e 	strcs	r6, [r0, #-1902]!	; 0xfffff892
    a248:	25282070 	strcs	r2, [r8, #-112]!	; 0xffffff90
    a24c:	79622064 	stmdbvc	r2!, {r2, r5, r6, sp}^
    a250:	29736574 	ldmdbcs	r3!, {r2, r4, r5, r6, r8, sl, sp, lr}^
    a254:	0000000a 	andeq	r0, r0, sl

0000a258 <__FUNCTION__.4069>:
    a258:	72666b63 	rsbvc	r6, r6, #101376	; 0x18c00
    a25c:	00006565 	andeq	r6, r0, r5, ror #10

0000a260 <__FUNCTION__.4058>:
    a260:	7473696c 	ldrbtvc	r6, [r3], #-2412	; 0xfffff694
    a264:	6d65725f 	sfmvs	f7, 2, [r5, #-380]!	; 0xfffffe84
    a268:	0065766f 	rsbeq	r7, r5, pc, ror #12
    a26c:	75716552 	ldrbvc	r6, [r1, #-1362]!	; 0xfffffaae
    a270:	74737265 	ldrbtvc	r7, [r3], #-613	; 0xfffffd9b
    a274:	20676e69 	rsbcs	r6, r7, r9, ror #28
    a278:	65726f6d 	ldrbvs	r6, [r2, #-3949]!	; 0xfffff093
    a27c:	6d656d20 	stclvs	13, cr6, [r5, #-128]!	; 0xffffff80
    a280:	2079726f 	rsbscs	r7, r9, pc, ror #4
    a284:	29642528 	stmdbcs	r4!, {r3, r5, r8, sl, sp}^
    a288:	0a2e2e2e 	beq	b95b48 <__bss_end__+0xb8ada8>
    a28c:	00000000 	andeq	r0, r0, r0
    a290:	672d6b63 	strvs	r6, [sp, -r3, ror #22]!
    a294:	00632e63 	rsbeq	r2, r3, r3, ror #28
    a298:	203c2070 	eorscs	r2, ip, r0, ror r0
    a29c:	00000065 	andeq	r0, r0, r5, rrx
    a2a0:	67696c61 	strbvs	r6, [r9, -r1, ror #24]!
    a2a4:	2864656e 	stmdacs	r4!, {r1, r2, r3, r5, r6, r8, sl, sp, lr}^
    a2a8:	34202c70 	strtcc	r2, [r0], #-3184	; 0xfffff390
    a2ac:	00000029 	andeq	r0, r0, r9, lsr #32
    a2b0:	67696c61 	strbvs	r6, [r9, -r1, ror #24]!
    a2b4:	2864656e 	stmdacs	r4!, {r1, r2, r3, r5, r6, r8, sl, sp, lr}^
    a2b8:	34202c65 	strtcc	r2, [r0], #-3173	; 0xfffff39b
    a2bc:	00000029 	andeq	r0, r0, r9, lsr #32
    a2c0:	6e696f67 	cdpvs	15, 6, cr6, cr9, cr7, {3}
    a2c4:	6f742067 	svcvs	0x00742067
    a2c8:	72616d20 	rsbvc	r6, r1, #32, 26	; 0x800
    a2cc:	7025206b 	eorvc	r2, r5, fp, rrx
    a2d0:	20692820 	rsbcs	r2, r9, r0, lsr #16
    a2d4:	70252040 	eorvc	r2, r5, r0, asr #32
    a2d8:	25203d20 	strcs	r3, [r0, #-3360]!	; 0xfffff2e0
    a2dc:	202c2970 	eorcs	r2, ip, r0, ror r9
    a2e0:	20707865 	rsbscs	r7, r0, r5, ror #16
    a2e4:	7025203d 	eorvc	r2, r5, sp, lsr r0
    a2e8:	0000000a 	andeq	r0, r0, sl
    a2ec:	6b72616d 	blvs	1ca28a8 <__bss_end__+0x1c97b08>
    a2f0:	20676e69 	rsbcs	r6, r7, r9, ror #28
    a2f4:	25207361 	strcs	r7, [r0, #-865]!	; 0xfffffc9f
    a2f8:	00000a64 	andeq	r0, r0, r4, ror #20
    a2fc:	20746f6e 	rsbscs	r6, r4, lr, ror #30
    a300:	6b72616d 	blvs	1ca28bc <__bss_end__+0x1c97b1c>
    a304:	21676e69 	cmncs	r7, r9, ror #28
    a308:	0000000a 	andeq	r0, r0, sl
    a30c:	63656863 	cmnvs	r5, #6488064	; 0x630000
    a310:	676e696b 	strbvs	r6, [lr, -fp, ror #18]!
    a314:	61747320 	cmnvs	r4, r0, lsr #6
    a318:	203a6b63 	eorscs	r6, sl, r3, ror #22
    a31c:	74207025 	strtvc	r7, [r0], #-37	; 0xffffffdb
    a320:	7025206f 	eorvc	r2, r5, pc, rrx
    a324:	0000000a 	andeq	r0, r0, sl
    a328:	2d2d2d2d 	stccs	13, cr2, [sp, #-180]!	; 0xffffff4c
    a32c:	2d2d2d2d 	stccs	13, cr2, [sp, #-180]!	; 0xffffff4c
    a330:	2d2d2d2d 	stccs	13, cr2, [sp, #-180]!	; 0xffffff4c
    a334:	2d2d2d2d 	stccs	13, cr2, [sp, #-180]!	; 0xffffff4c
    a338:	2d2d2d2d 	stccs	13, cr2, [sp, #-180]!	; 0xffffff4c
    a33c:	2d2d2d2d 	stccs	13, cr2, [sp, #-180]!	; 0xffffff4c
    a340:	2d2d2d2d 	stccs	13, cr2, [sp, #-180]!	; 0xffffff4c
    a344:	2d2d2d2d 	stccs	13, cr2, [sp, #-180]!	; 0xffffff4c
    a348:	2d2d2d2d 	stccs	13, cr2, [sp, #-180]!	; 0xffffff4c
    a34c:	2d2d2d2d 	stccs	13, cr2, [sp, #-180]!	; 0xffffff4c
    a350:	2d2d2d2d 	stccs	13, cr2, [sp, #-180]!	; 0xffffff4c
    a354:	2d2d2d2d 	stccs	13, cr2, [sp, #-180]!	; 0xffffff4c
    a358:	2d2d2d2d 	stccs	13, cr2, [sp, #-180]!	; 0xffffff4c
    a35c:	2d2d2d2d 	stccs	13, cr2, [sp, #-180]!	; 0xffffff4c
    a360:	00000a2d 	andeq	r0, r0, sp, lsr #20
    a364:	63656863 	cmnvs	r5, #6488064	; 0x630000
    a368:	676e696b 	strbvs	r6, [lr, -fp, ror #18]!
    a36c:	726f6620 	rsbvc	r6, pc, #32, 12	; 0x2000000
    a370:	61656c20 	cmnvs	r5, r0, lsr #24
    a374:	0a3a736b 	beq	ea7128 <__bss_end__+0xe9c388>
    a378:	00000000 	andeq	r0, r0, r0
    a37c:	4c3a4347 	ldcmi	3, cr4, [sl], #-284	; 0xfffffee4
    a380:	2054534f 	subscs	r5, r4, pc, asr #6
    a384:	2d206425 	cfstrscs	mvf6, [r0, #-148]!	; 0xffffff6c
    a388:	7025203e 	eorvc	r2, r5, lr, lsr r0
    a38c:	0000000a 	andeq	r0, r0, sl
    a390:	4d3a4347 	ldcmi	3, cr4, [sl, #-284]!	; 0xfffffee4
    a394:	45425941 	strbmi	r5, [r2, #-2369]	; 0xfffff6bf
    a398:	534f4c20 	movtpl	r4, #64544	; 0xfc20
    a39c:	64252054 	strtvs	r2, [r5], #-84	; 0xffffffac
    a3a0:	203e2d20 	eorscs	r2, lr, r0, lsr #26
    a3a4:	000a7025 	andeq	r7, sl, r5, lsr #32
    a3a8:	43415254 	movtmi	r5, #4692	; 0x1254
    a3ac:	47093a45 	strmi	r3, [r9, -r5, asr #20]
    a3b0:	68433a43 	stmdavs	r3, {r0, r1, r6, r9, fp, ip, sp}^
    a3b4:	656b6365 	strbvs	r6, [fp, #-869]!	; 0xfffffc9b
    a3b8:	64252064 	strtvs	r2, [r5], #-100	; 0xffffff9c
    a3bc:	6f6c6220 	svcvs	0x006c6220
    a3c0:	2e736b63 	vsubcs.f64	d22, d3, d19
    a3c4:	0000000a 	andeq	r0, r0, sl
    a3c8:	43415254 	movtmi	r5, #4692	; 0x1254
    a3cc:	09093a45 	stmdbeq	r9, {r0, r2, r6, r9, fp, ip, sp}
    a3d0:	533a4347 	teqpl	sl, #469762049	; 0x1c000001
    a3d4:	45434355 	strbmi	r4, [r3, #-853]	; 0xfffffcab
    a3d8:	203a5353 	eorscs	r5, sl, r3, asr r3
    a3dc:	6c206f4e 	stcvs	15, cr6, [r0], #-312	; 0xfffffec8
    a3e0:	736b6165 	cmnvc	fp, #1073741849	; 0x40000019
    a3e4:	756f6620 	strbvc	r6, [pc, #-1568]!	; 9dcc <kfree_pop+0x18>
    a3e8:	0a21646e 	beq	8635a8 <__bss_end__+0x858808>
    a3ec:	00000000 	andeq	r0, r0, r0
    a3f0:	43415254 	movtmi	r5, #4692	; 0x1254
    a3f4:	09093a45 	stmdbeq	r9, {r0, r2, r6, r9, fp, ip, sp}
    a3f8:	453a4347 	ldrmi	r4, [sl, #-839]!	; 0xfffffcb9
    a3fc:	524f5252 	subpl	r5, pc, #536870917	; 0x20000005
    a400:	25203a53 	strcs	r3, [r0, #-2643]!	; 0xfffff5ad
    a404:	72652064 	rsbvc	r2, r5, #100, 0	; 0x64
    a408:	73726f72 	cmnvc	r2, #456	; 0x1c8
    a40c:	6425202c 	strtvs	r2, [r5], #-44	; 0xffffffd4
    a410:	79616d20 	stmdbvc	r1!, {r5, r8, sl, fp, sp, lr}^
    a414:	655f6562 	ldrbvs	r6, [pc, #-1378]	; 9eba <gpio_set_output+0x46>
    a418:	726f7272 	rsbvc	r7, pc, #536870919	; 0x20000007
    a41c:	00000a73 	andeq	r0, r0, r3, ror sl
    a420:	2d2d2d2d 	stccs	13, cr2, [sp, #-180]!	; 0xffffff4c
    a424:	2d2d2d2d 	stccs	13, cr2, [sp, #-180]!	; 0xffffff4c
    a428:	2d2d2d2d 	stccs	13, cr2, [sp, #-180]!	; 0xffffff4c
    a42c:	2d2d2d2d 	stccs	13, cr2, [sp, #-180]!	; 0xffffff4c
    a430:	2d2d2d2d 	stccs	13, cr2, [sp, #-180]!	; 0xffffff4c
    a434:	2d2d2d2d 	stccs	13, cr2, [sp, #-180]!	; 0xffffff4c
    a438:	2d2d2d2d 	stccs	13, cr2, [sp, #-180]!	; 0xffffff4c
    a43c:	2d2d2d2d 	stccs	13, cr2, [sp, #-180]!	; 0xffffff4c
    a440:	2d2d2d2d 	stccs	13, cr2, [sp, #-180]!	; 0xffffff4c
    a444:	2d2d2d2d 	stccs	13, cr2, [sp, #-180]!	; 0xffffff4c
    a448:	2d2d2d2d 	stccs	13, cr2, [sp, #-180]!	; 0xffffff4c
    a44c:	2d2d2d2d 	stccs	13, cr2, [sp, #-180]!	; 0xffffff4c
    a450:	2d2d2d2d 	stccs	13, cr2, [sp, #-180]!	; 0xffffff4c
    a454:	2d2d2d2d 	stccs	13, cr2, [sp, #-180]!	; 0xffffff4c
    a458:	000a2d2d 	andeq	r2, sl, sp, lsr #26
    a45c:	72636e69 	rsbvc	r6, r3, #1680	; 0x690
    a460:	6e656d65 	cdpvs	13, 6, cr6, cr5, cr5, {3}
    a464:	203e2074 	eorscs	r2, lr, r4, ror r0
    a468:	00000030 	andeq	r0, r0, r0, lsr r0
    a46c:	494e4150 	stmdbmi	lr, {r4, r6, r8, lr}^
    a470:	73253a43 			; <UNDEFINED> instruction: 0x73253a43
    a474:	3a73253a 	bcc	1cd3964 <__bss_end__+0x1cc8bc4>
    a478:	6e3a6425 	cdpvs	4, 3, cr6, cr10, cr5, {1}
    a47c:	6820746f 	stmdavs	r0!, {r0, r1, r2, r3, r5, r6, sl, ip, sp, lr}
    a480:	6c646e61 	stclvs	14, cr6, [r4], #-388	; 0xfffffe7c
    a484:	0a676e69 	beq	19e5e30 <__bss_end__+0x19db090>
    a488:	0000000a 	andeq	r0, r0, sl
    a48c:	494e4150 	stmdbmi	lr, {r4, r6, r8, lr}^
    a490:	73253a43 			; <UNDEFINED> instruction: 0x73253a43
    a494:	3a73253a 	bcc	1cd3984 <__bss_end__+0x1cc8be4>
    a498:	473a6425 	ldrmi	r6, [sl, -r5, lsr #8]!
    a49c:	73203a43 			; <UNDEFINED> instruction: 0x73203a43
    a4a0:	6c756f68 	ldclvs	15, cr6, [r5], #-416	; 0xfffffe60
    a4a4:	61682064 	cmnvs	r8, r4, rrx
    a4a8:	6e206576 	mcrvs	5, 1, r6, cr0, cr6, {3}
    a4ac:	656c206f 	strbvs	r2, [ip, #-111]!	; 0xffffff91
    a4b0:	21736b61 	cmncs	r3, r1, ror #22
    a4b4:	00000a0a 	andeq	r0, r0, sl, lsl #20
    a4b8:	43415254 	movtmi	r5, #4692	; 0x1254
    a4bc:	43473a45 	movtmi	r3, #31301	; 0x7a45
    a4c0:	5553203a 	ldrbpl	r2, [r3, #-58]	; 0xffffffc6
    a4c4:	53454343 	movtpl	r4, #21315	; 0x5343
    a4c8:	6e203a53 			; <UNDEFINED> instruction: 0x6e203a53
    a4cc:	656c206f 	strbvs	r2, [ip, #-111]!	; 0xffffff91
    a4d0:	21736b61 	cmncs	r3, r1, ror #22
    a4d4:	0000000a 	andeq	r0, r0, sl
    a4d8:	494e4150 	stmdbmi	lr, {r4, r6, r8, lr}^
    a4dc:	73253a43 			; <UNDEFINED> instruction: 0x73253a43
    a4e0:	3a73253a 	bcc	1cd39d0 <__bss_end__+0x1cc8c30>
    a4e4:	473a6425 	ldrmi	r6, [sl, -r5, lsr #8]!
    a4e8:	73203a43 			; <UNDEFINED> instruction: 0x73203a43
    a4ec:	6c756f68 	ldclvs	15, cr6, [r5], #-416	; 0xfffffe60
    a4f0:	61682064 	cmnvs	r8, r4, rrx
    a4f4:	6c206576 	cfstr32vs	mvfx6, [r0], #-472	; 0xfffffe28
    a4f8:	736b6165 	cmnvc	fp, #1073741849	; 0x40000019
    a4fc:	000a0a21 	andeq	r0, sl, r1, lsr #20
    a500:	43415254 	movtmi	r5, #4692	; 0x1254
    a504:	43473a45 	movtmi	r3, #31301	; 0x7a45
    a508:	5553203a 	ldrbpl	r2, [r3, #-58]	; 0xffffffc6
    a50c:	53454343 	movtpl	r4, #21315	; 0x5343
    a510:	66203a53 			; <UNDEFINED> instruction: 0x66203a53
    a514:	646e756f 	strbtvs	r7, [lr], #-1391	; 0xfffffa91
    a518:	20642520 	rsbcs	r2, r4, r0, lsr #10
    a51c:	6b61656c 	blvs	1863ad4 <__bss_end__+0x1858d34>
    a520:	000a2173 	andeq	r2, sl, r3, ror r1
    a524:	706d6f63 	rsbvc	r6, sp, r3, ror #30
    a528:	69746361 	ldmdbvs	r4!, {r0, r5, r6, r8, r9, sp, lr}^
    a52c:	0a3a676e 	beq	ea42ec <__bss_end__+0xe9954c>
    a530:	00000000 	andeq	r0, r0, r0
    a534:	463a4347 	ldrtmi	r4, [sl], -r7, asr #6
    a538:	44454552 	strbmi	r4, [r5], #-1362	; 0xfffffaae
    a53c:	0a702520 	beq	1c139c4 <__bss_end__+0x1c08c24>
    a540:	00000000 	andeq	r0, r0, r0
    a544:	43415254 	movtmi	r5, #4692	; 0x1254
    a548:	47093a45 	strmi	r3, [r9, -r5, asr #20]
    a54c:	68433a43 	stmdavs	r3, {r0, r1, r6, r9, fp, ip, sp}^
    a550:	656b6365 	strbvs	r6, [fp, #-869]!	; 0xfffffc9b
    a554:	64252064 	strtvs	r2, [r5], #-100	; 0xffffff9c
    a558:	6f6c6220 	svcvs	0x006c6220
    a55c:	2c736b63 			; <UNDEFINED> instruction: 0x2c736b63
    a560:	65726620 	ldrbvs	r6, [r2, #-1568]!	; 0xfffff9e0
    a564:	25206465 	strcs	r6, [r0, #-1125]!	; 0xfffffb9b
    a568:	25202c64 	strcs	r2, [r0, #-3172]!	; 0xfffff39c
    a56c:	79622064 	stmdbvc	r2!, {r2, r5, r6, sp}^
    a570:	0a736574 	beq	1ce3b48 <__bss_end__+0x1cd8da8>
    a574:	00000000 	andeq	r0, r0, r0
    a578:	494e4150 	stmdbmi	lr, {r4, r6, r8, lr}^
    a57c:	73253a43 			; <UNDEFINED> instruction: 0x73253a43
    a580:	3a73253a 	bcc	1cd3a70 <__bss_end__+0x1cc8cd0>
    a584:	643a6425 	ldrtvs	r6, [sl], #-1061	; 0xfffffbdb
    a588:	6e206469 	cdpvs	4, 2, cr6, cr0, cr9, {3}
    a58c:	6920746f 	stmdbvs	r0!, {r0, r1, r2, r3, r5, r6, sl, ip, sp, lr}
    a590:	656c706d 	strbvs	r7, [ip, #-109]!	; 0xffffff93
    a594:	746e656d 	strbtvc	r6, [lr], #-1389	; 0xfffffa93
    a598:	6d756420 	cfldrdvs	mvd6, [r5, #-128]!	; 0xffffff80
    a59c:	65725f70 	ldrbvs	r5, [r2, #-3952]!	; 0xfffff090
    a5a0:	0a217367 	beq	867344 <__bss_end__+0x85c5a4>
    a5a4:	0000000a 	andeq	r0, r0, sl

0000a5a8 <__FUNCTION__.4045>:
    a5a8:	6b72616d 	blvs	1ca2b64 <__bss_end__+0x1c97dc4>
    a5ac:	00000000 	andeq	r0, r0, r0

0000a5b0 <__FUNCTION__.4032>:
    a5b0:	6b726273 	blvs	1ca2f84 <__bss_end__+0x1c981e4>
    a5b4:	00000000 	andeq	r0, r0, r0

0000a5b8 <__FUNCTION__.4088>:
    a5b8:	63656863 	cmnvs	r5, #6488064	; 0x630000
    a5bc:	6f6e5f6b 	svcvs	0x006e5f6b
    a5c0:	61656c5f 	cmnvs	r5, pc, asr ip
    a5c4:	0000006b 	andeq	r0, r0, fp, rrx

0000a5c8 <__FUNCTION__.4093>:
    a5c8:	63656863 	cmnvs	r5, #6488064	; 0x630000
    a5cc:	68735f6b 	ldmdavs	r3!, {r0, r1, r3, r5, r6, r8, r9, sl, fp, ip, lr}^
    a5d0:	646c756f 	strbtvs	r7, [ip], #-1391	; 0xfffffa91
    a5d4:	61656c5f 	cmnvs	r5, pc, asr ip
    a5d8:	0000006b 	andeq	r0, r0, fp, rrx

0000a5dc <__FUNCTION__.4101>:
    a5dc:	65657773 	strbvs	r7, [r5, #-1907]!	; 0xfffff88d
    a5e0:	72665f70 	rsbvc	r5, r6, #112, 30	; 0x1c0
    a5e4:	00006565 	andeq	r6, r0, r5, ror #10

0000a5e8 <__FUNCTION__.4112>:
    a5e8:	6c706d69 	ldclvs	13, cr6, [r0], #-420	; 0xfffffe5c
    a5ec:	6e656d65 	cdpvs	13, 6, cr6, cr5, cr5, {3}
    a5f0:	68745f74 	ldmdavs	r4!, {r2, r4, r5, r6, r8, r9, sl, fp, ip, lr}^
    a5f4:	00007369 	andeq	r7, r0, r9, ror #6
    a5f8:	696c2f2e 	stmdbvs	ip!, {r1, r2, r3, r5, r8, r9, sl, fp, sp}^
    a5fc:	762f6362 	strtvc	r6, [pc], -r2, ror #6
    a600:	72702d61 	rsbsvc	r2, r0, #6208	; 0x1840
    a604:	6b746e69 	blvs	1d25fb0 <__bss_end__+0x1d1b210>
    a608:	0000632e 	andeq	r6, r0, lr, lsr #6
    a60c:	33323130 	teqcc	r2, #12
    a610:	37363534 			; <UNDEFINED> instruction: 0x37363534
    a614:	62613938 	rsbvs	r3, r1, #56, 18	; 0xe0000
    a618:	66656463 	strbtvs	r6, [r5], -r3, ror #8
    a61c:	00000000 	andeq	r0, r0, r0
    a620:	00003130 	andeq	r3, r0, r0, lsr r1
    a624:	33323130 	teqcc	r2, #12
    a628:	37363534 			; <UNDEFINED> instruction: 0x37363534
    a62c:	00003938 	andeq	r3, r0, r8, lsr r9
    a630:	63747570 	cmnvs	r4, #112, 10	; 0x1c000000
    a634:	0070665f 	rsbseq	r6, r0, pc, asr r6
    a638:	74646977 	strbtvc	r6, [r4], #-2423	; 0xfffff689
    a63c:	203c2068 	eorscs	r2, ip, r8, rrx
    a640:	00003233 	andeq	r3, r0, r3, lsr r2
    a644:	00786c6c 	rsbseq	r6, r8, ip, ror #24
    a648:	253d3078 	ldrcs	r3, [sp, #-120]!	; 0xffffff88
    a64c:	00000a78 	andeq	r0, r0, r8, ror sl
    a650:	253d3178 	ldrcs	r3, [sp, #-376]!	; 0xfffffe88
    a654:	00000a78 	andeq	r0, r0, r8, ror sl
    a658:	00646c6c 	rsbeq	r6, r4, ip, ror #24
    a65c:	6e727473 	mrcvs	4, 3, r7, cr2, cr3, {3}
    a660:	28706d63 	ldmdacs	r0!, {r0, r1, r5, r6, r8, sl, fp, sp, lr}^
    a664:	202c7974 	eorcs	r7, ip, r4, ror r9
    a668:	786c6c22 	stmdavc	ip!, {r1, r5, sl, fp, sp, lr}^
    a66c:	33202c22 			; <UNDEFINED> instruction: 0x33202c22
    a670:	3d3d2029 	ldccc	0, cr2, [sp, #-164]!	; 0xffffff5c
    a674:	7c203020 	stcvc	0, cr3, [r0], #-128	; 0xffffff80
    a678:	7473207c 	ldrbtvc	r2, [r3], #-124	; 0xffffff84
    a67c:	6d636e72 	stclvs	14, cr6, [r3, #-456]!	; 0xfffffe38
    a680:	79742870 	ldmdbvc	r4!, {r4, r5, r6, fp, sp}^
    a684:	6c22202c 	stcvs	0, cr2, [r2], #-176	; 0xffffff50
    a688:	2c22646c 	cfstrscs	mvf6, [r2], #-432	; 0xfffffe50
    a68c:	20293320 	eorcs	r3, r9, r0, lsr #6
    a690:	30203d3d 	eorcc	r3, r0, sp, lsr sp
    a694:	00000000 	andeq	r0, r0, r0
    a698:	494e4150 	stmdbmi	lr, {r4, r6, r8, lr}^
    a69c:	73253a43 			; <UNDEFINED> instruction: 0x73253a43
    a6a0:	3a73253a 	bcc	1cd3b90 <__bss_end__+0x1cc8df0>
    a6a4:	693a6425 	ldmdbvs	sl!, {r0, r2, r5, sl, sp, lr}
    a6a8:	736f706d 	cmnvc	pc, #109, 0	; 0x6d
    a6ac:	6c626973 			; <UNDEFINED> instruction: 0x6c626973
    a6b0:	66203a65 	strtvs	r3, [r0], -r5, ror #20
    a6b4:	3c3d746d 	cfldrscc	mvf7, [sp], #-436	; 0xfffffe4c
    a6b8:	0a3e7325 	beq	fa7354 <__bss_end__+0xf9c5b4>
    a6bc:	0000000a 	andeq	r0, r0, sl
    a6c0:	494e4150 	stmdbmi	lr, {r4, r6, r8, lr}^
    a6c4:	73253a43 			; <UNDEFINED> instruction: 0x73253a43
    a6c8:	3a73253a 	bcc	1cd3bb8 <__bss_end__+0x1cc8e18>
    a6cc:	663a6425 	ldrtvs	r6, [sl], -r5, lsr #8
    a6d0:	74616f6c 	strbtvc	r6, [r1], #-3948	; 0xfffff094
    a6d4:	746f6e20 	strbtvc	r6, [pc], #-3616	; a6dc <__FUNCTION__.4112+0xf4>
    a6d8:	616e6520 	cmnvs	lr, r0, lsr #10
    a6dc:	64656c62 	strbtvs	r6, [r5], #-3170	; 0xfffff39e
    a6e0:	0a212121 	beq	852b6c <__bss_end__+0x847dcc>
    a6e4:	00000000 	andeq	r0, r0, r0
    a6e8:	6e697270 	mcrvs	2, 3, r7, cr9, cr0, {3}
    a6ec:	203a6b74 	eorscs	r6, sl, r4, ror fp
    a6f0:	20746f6e 	rsbscs	r6, r4, lr, ror #30
    a6f4:	646e6168 	strbtvs	r6, [lr], #-360	; 0xfffffe98
    a6f8:	676e696c 	strbvs	r6, [lr, -ip, ror #18]!
    a6fc:	65707320 	ldrbvs	r7, [r0, #-800]!	; 0xfffffce0
    a700:	69666963 	stmdbvs	r6!, {r0, r1, r5, r6, r8, fp, sp, lr}^
    a704:	27207265 	strcs	r7, [r0, -r5, ror #4]!
    a708:	20276325 	eorcs	r6, r7, r5, lsr #6
    a70c:	63736128 	cmnvs	r3, #10
    a710:	253d6969 	ldrcs	r6, [sp, #-2409]!	; 0xfffff697
    a714:	000a2964 	andeq	r2, sl, r4, ror #18
    a718:	494e4150 	stmdbmi	lr, {r4, r6, r8, lr}^
    a71c:	73253a43 			; <UNDEFINED> instruction: 0x73253a43
    a720:	3a73253a 	bcc	1cd3c10 <__bss_end__+0x1cc8e70>
    a724:	703a6425 	eorsvc	r6, sl, r5, lsr #8
    a728:	746e6972 	strbtvc	r6, [lr], #-2418	; 0xfffff68e
    a72c:	7265206b 	rsbvc	r2, r5, #107, 0	; 0x6b
    a730:	0a726f72 	beq	1ca6500 <__bss_end__+0x1c9b760>
    a734:	0000000a 	andeq	r0, r0, sl

0000a738 <__FUNCTION__.4004>:
    a738:	74696d65 	strbtvc	r6, [r9], #-3429	; 0xfffff29b
    a73c:	00000000 	andeq	r0, r0, r0

0000a740 <__FUNCTION__.3952>:
    a740:	5f697072 	svcpl	0x00697072
    a744:	5f746573 	svcpl	0x00746573
    a748:	7074756f 	rsbsvc	r7, r4, pc, ror #10
    a74c:	00007475 	andeq	r7, r0, r5, ror r4

0000a750 <__FUNCTION__.4030>:
    a750:	705f6176 	subsvc	r6, pc, r6, ror r1	; <UNPREDICTABLE>
    a754:	746e6972 	strbtvc	r6, [lr], #-2418	; 0xfffff68e
    a758:	0000006b 	andeq	r0, r0, fp, rrx
    a75c:	454e4f44 	strbmi	r4, [lr, #-3908]	; 0xfffff0bc
    a760:	0a212121 	beq	852bec <__bss_end__+0x847e4c>
    a764:	00000000 	andeq	r0, r0, r0
    a768:	6c616d6b 	stclvs	13, cr6, [r1], #-428	; 0xfffffe54
    a76c:	2e636f6c 	cdpcs	15, 6, cr6, cr3, cr12, {3}
    a770:	00000063 	andeq	r0, r0, r3, rrx
    a774:	5f78616d 	svcpl	0x0078616d
    a778:	7479626e 	ldrbtvc	r6, [r9], #-622	; 0xfffffd92
    a77c:	00007365 	andeq	r7, r0, r5, ror #6
    a780:	494e4150 	stmdbmi	lr, {r4, r6, r8, lr}^
    a784:	73253a43 			; <UNDEFINED> instruction: 0x73253a43
    a788:	3a73253a 	bcc	1cd3c78 <__bss_end__+0x1cc8ed8>
    a78c:	733a6425 	teqvc	sl, #620756992	; 0x25000000
    a790:	69747465 	ldmdbvs	r4!, {r0, r2, r5, r6, sl, ip, sp, lr}^
    a794:	6820676e 	stmdavs	r0!, {r1, r2, r3, r5, r6, r8, r9, sl, sp, lr}
    a798:	20706165 	rsbscs	r6, r0, r5, ror #2
    a79c:	25206f74 	strcs	r6, [r0, #-3956]!	; 0xfffff08c
    a7a0:	77203a70 			; <UNDEFINED> instruction: 0x77203a70
    a7a4:	206c6c69 	rsbcs	r6, ip, r9, ror #24
    a7a8:	20746968 	rsbscs	r6, r4, r8, ror #18
    a7ac:	20656874 	rsbcs	r6, r5, r4, ror r8
    a7b0:	20646c6f 	rsbcs	r6, r4, pc, ror #24
    a7b4:	70616568 	rsbvc	r6, r1, r8, ror #10
    a7b8:	20746120 	rsbscs	r6, r4, r0, lsr #2
    a7bc:	0a0a7025 	beq	2a6858 <__bss_end__+0x29bab8>
    a7c0:	00000000 	andeq	r0, r0, r0
    a7c4:	494e4150 	stmdbmi	lr, {r4, r6, r8, lr}^
    a7c8:	73253a43 			; <UNDEFINED> instruction: 0x73253a43
    a7cc:	3a73253a 	bcc	1cd3cbc <__bss_end__+0x1cc8f1c>
    a7d0:	613a6425 	teqvs	sl, r5, lsr #8
    a7d4:	6165726c 	cmnvs	r5, ip, ror #4
    a7d8:	63207964 			; <UNDEFINED> instruction: 0x63207964
    a7dc:	656c6c61 	strbvs	r6, [ip, #-3169]!	; 0xfffff39f
    a7e0:	6d6b2064 	stclvs	0, cr2, [fp, #-400]!	; 0xfffffe70
    a7e4:	6f6c6c61 	svcvs	0x006c6c61
    a7e8:	6e695f63 	cdpvs	15, 6, cr5, cr9, cr3, {3}
    a7ec:	0a0a7469 	beq	2a7998 <__bss_end__+0x29cbf8>
    a7f0:	00000000 	andeq	r0, r0, r0
    a7f4:	494e4150 	stmdbmi	lr, {r4, r6, r8, lr}^
    a7f8:	73253a43 			; <UNDEFINED> instruction: 0x73253a43
    a7fc:	3a73253a 	bcc	1cd3cec <__bss_end__+0x1cc8f4c>
    a800:	253a6425 	ldrcs	r6, [sl, #-1061]!	; 0xfffffbdb
    a804:	626e2064 	rsbvs	r2, lr, #100, 0	; 0x64
    a808:	73657479 	cmnvc	r5, #2030043136	; 0x79000000
    a80c:	63786520 	cmnvs	r8, #32, 10	; 0x8000000
    a810:	65646565 	strbvs	r6, [r4, #-1381]!	; 0xfffffa9b
    a814:	69732064 	ldmdbvs	r3!, {r2, r5, r6, sp}^
    a818:	6f20657a 	svcvs	0x0020657a
    a81c:	65682066 	strbvs	r2, [r8, #-102]!	; 0xffffff9a
    a820:	62207061 	eorvs	r7, r0, #97, 0	; 0x61
    a824:	75252079 	strvc	r2, [r5, #-121]!	; 0xffffff87
    a828:	79626e20 	stmdbvc	r2!, {r5, r9, sl, fp, sp, lr}^
    a82c:	0a736574 	beq	1ce3e04 <__bss_end__+0x1cd9064>
    a830:	0000000a 	andeq	r0, r0, sl
    a834:	4f525245 	svcmi	0x00525245
    a838:	73253a52 			; <UNDEFINED> instruction: 0x73253a52
    a83c:	3a73253a 	bcc	1cd3d2c <__bss_end__+0x1cc8f8c>
    a840:	203a6425 	eorscs	r6, sl, r5, lsr #8
    a844:	534c4146 	movtpl	r4, #49478	; 0xc146
    a848:	253c2845 	ldrcs	r2, [ip, #-2117]!	; 0xfffff7bb
    a84c:	3a293e73 	bcc	a5a220 <__bss_end__+0xa4f480>
    a850:	73736120 	cmnvc	r3, #8
    a854:	6e696d75 	mcrvs	13, 3, r6, cr9, cr5, {3}
    a858:	6f702067 	svcvs	0x00702067
    a85c:	20726577 	rsbscs	r6, r2, r7, ror r5
    a860:	7420666f 	strtvc	r6, [r0], #-1647	; 0xfffff991
    a864:	000a6f77 	andeq	r6, sl, r7, ror pc
    a868:	705f7369 	subsvc	r7, pc, r9, ror #6
    a86c:	2832776f 	ldmdacs	r2!, {r0, r1, r2, r3, r5, r6, r8, r9, sl, ip, sp, lr}
    a870:	67696c61 	strbvs	r6, [r9, -r1, ror #24]!
    a874:	6e656d6e 	cdpvs	13, 6, cr6, cr5, cr14, {3}
    a878:	00002974 	andeq	r2, r0, r4, ror r9
    a87c:	705f7369 	subsvc	r7, pc, r9, ror #6
    a880:	2832776f 	ldmdacs	r2!, {r0, r1, r2, r3, r5, r6, r8, r9, sl, ip, sp, lr}
    a884:	0000296e 	andeq	r2, r0, lr, ror #18
    a888:	4f525245 	svcmi	0x00525245
    a88c:	73253a52 			; <UNDEFINED> instruction: 0x73253a52
    a890:	3a73253a 	bcc	1cd3d80 <__bss_end__+0x1cc8fe0>
    a894:	203a6425 	eorscs	r6, sl, r5, lsr #8
    a898:	534c4146 	movtpl	r4, #49478	; 0xc146
    a89c:	253c2845 	ldrcs	r2, [ip, #-2117]!	; 0xfffff7bb
    a8a0:	3a293e73 	bcc	a5a274 <__bss_end__+0xa4f4d4>
    a8a4:	706d6920 	rsbvc	r6, sp, r0, lsr #18
    a8a8:	6973736f 	ldmdbvs	r3!, {r0, r1, r2, r3, r5, r6, r8, r9, ip, sp, lr}^
    a8ac:	0a656c62 	beq	1965a3c <__bss_end__+0x195ac9c>
    a8b0:	00000000 	andeq	r0, r0, r0
    a8b4:	615f7369 	cmpvs	pc, r9, ror #6
    a8b8:	6e67696c 	vnmulvs.f16	s13, s14, s25	; <UNPREDICTABLE>
    a8bc:	68286465 	stmdavs	r8!, {r0, r2, r5, r6, sl, sp, lr}
    a8c0:	6c61202c 	stclvs	0, cr2, [r1], #-176	; 0xffffff50
    a8c4:	6d6e6769 	stclvs	7, cr6, [lr, #-420]!	; 0xfffffe5c
    a8c8:	29746e65 	ldmdbcs	r4!, {r0, r2, r5, r6, r9, sl, fp, sp, lr}^
    a8cc:	00000000 	andeq	r0, r0, r0
    a8d0:	494e4150 	stmdbmi	lr, {r4, r6, r8, lr}^
    a8d4:	73253a43 			; <UNDEFINED> instruction: 0x73253a43
    a8d8:	3a73253a 	bcc	1cd3dc8 <__bss_end__+0x1cc9028>
    a8dc:	703a6425 	eorsvc	r6, sl, r5, lsr #8
    a8e0:	746e696f 	strbtvc	r6, [lr], #-2415	; 0xfffff691
    a8e4:	25207265 	strcs	r7, [r0, #-613]!	; 0xfffffd9b
    a8e8:	61772070 	cmnvs	r7, r0, ror r0
    a8ec:	656e2073 	strbvs	r2, [lr, #-115]!	; 0xffffff8d
    a8f0:	20726576 	rsbscs	r6, r2, r6, ror r5
    a8f4:	6f6c6c61 	svcvs	0x006c6c61
    a8f8:	65746163 	ldrbvs	r6, [r4, #-355]!	; 0xfffffe9d
    a8fc:	000a0a64 	andeq	r0, sl, r4, ror #20

0000a900 <__FUNCTION__.7>:
    a900:	6c616d6b 	stclvs	13, cr6, [r1], #-428	; 0xfffffe54
    a904:	5f636f6c 	svcpl	0x00636f6c
    a908:	74696e69 	strbtvc	r6, [r9], #-3689	; 0xfffff197
    a90c:	7465735f 	strbtvc	r7, [r5], #-863	; 0xfffffca1
    a910:	6174735f 	cmnvs	r4, pc, asr r3
    a914:	00007472 	andeq	r7, r0, r2, ror r4

0000a918 <__FUNCTION__.5>:
    a918:	6c616d6b 	stclvs	13, cr6, [r1], #-428	; 0xfffffe54
    a91c:	5f636f6c 	svcpl	0x00636f6c
    a920:	74696e69 	strbtvc	r6, [r9], #-3689	; 0xfffff197
    a924:	00000000 	andeq	r0, r0, r0

0000a928 <__FUNCTION__.4>:
    a928:	6c616d6b 	stclvs	13, cr6, [r1], #-428	; 0xfffffe54
    a92c:	5f636f6c 	svcpl	0x00636f6c
    a930:	7a746f6e 	bvc	1d266f0 <__bss_end__+0x1d1b950>
    a934:	006f7265 	rsbeq	r7, pc, r5, ror #4

0000a938 <__FUNCTION__.2>:
    a938:	6c616d6b 	stclvs	13, cr6, [r1], #-428	; 0xfffffe54
    a93c:	00636f6c 	rsbeq	r6, r3, ip, ror #30

0000a940 <__FUNCTION__.1>:
    a940:	6c616d6b 	stclvs	13, cr6, [r1], #-428	; 0xfffffe54
    a944:	5f636f6c 	svcpl	0x00636f6c
    a948:	67696c61 	strbvs	r6, [r9, -r1, ror #24]!
    a94c:	0064656e 	rsbeq	r6, r4, lr, ror #10

0000a950 <__FUNCTION__.3>:
    a950:	6e756f72 	mrcvs	15, 3, r6, cr5, cr2, {3}
    a954:	00707564 	rsbseq	r7, r0, r4, ror #10

0000a958 <__FUNCTION__.0>:
    a958:	6572666b 	ldrbvs	r6, [r2, #-1643]!	; 0xfffff995
    a95c:	6f705f65 	svcvs	0x00705f65
    a960:	Address 0x000000000000a960 is out of bounds.


Disassembly of section .data:

0000a964 <putk>:
    a964:	00008bb8 			; <UNDEFINED> instruction: 0x00008bb8

0000a968 <heap>:
    a968:	0000ada0 	andeq	sl, r0, r0, lsr #27

0000a96c <heap_start>:
    a96c:	0000ada0 	andeq	sl, r0, r0, lsr #27

0000a970 <heap_end>:
    a970:	0020ada0 	eoreq	sl, r0, r0, lsr #27

0000a974 <rpi_putchar>:
    a974:	00009fac 	andeq	r9, r0, ip, lsr #31

Disassembly of section .bss:

0000a978 <__bss_start__>:
	...

0000a980 <freep>:
	...

0000a988 <base>:
	...

0000a990 <heap_start>:
    a990:	00000000 	andeq	r0, r0, r0

0000a994 <heap_end>:
    a994:	00000000 	andeq	r0, r0, r0

0000a998 <init_p.4031>:
    a998:	00000000 	andeq	r0, r0, r0

0000a99c <buf.3944>:
	...

0000ad9c <init_p.6>:
    ad9c:	00000000 	andeq	r0, r0, r0

Disassembly of section .ARM.attributes:

00000000 <.ARM.attributes>:
   0:	00002a41 	andeq	r2, r0, r1, asr #20
   4:	61656100 	cmnvs	r5, r0, lsl #2
   8:	01006962 	tsteq	r0, r2, ror #18
   c:	00000020 	andeq	r0, r0, r0, lsr #32
  10:	4b5a3605 	blmi	168d82c <__bss_end__+0x1682a8c>
  14:	08070600 	stmdaeq	r7, {r9, sl}
  18:	12010901 	andne	r0, r1, #16384	; 0x4000
  1c:	15011404 	strne	r1, [r1, #-1028]	; 0xfffffbfc
  20:	18031701 	stmdane	r3, {r0, r8, r9, sl, ip}
  24:	22011a01 	andcs	r1, r1, #4096	; 0x1000
  28:	Address 0x0000000000000028 is out of bounds.


Disassembly of section .comment:

00000000 <.comment>:
   0:	3a434347 	bcc	10d0d24 <__bss_end__+0x10c5f84>
   4:	4e472820 	cdpmi	8, 4, cr2, cr7, cr0, {1}
   8:	6f542055 	svcvs	0x00542055
   c:	20736c6f 	rsbscs	r6, r3, pc, ror #24
  10:	20726f66 	rsbscs	r6, r2, r6, ror #30
  14:	206d7241 	rsbcs	r7, sp, r1, asr #4
  18:	65626d45 	strbvs	r6, [r2, #-3397]!	; 0xfffff2bb
  1c:	64656464 	strbtvs	r6, [r5], #-1124	; 0xfffffb9c
  20:	6f725020 	svcvs	0x00725020
  24:	73736563 	cmnvc	r3, #415236096	; 0x18c00000
  28:	2073726f 	rsbscs	r7, r3, pc, ror #4
  2c:	30322d39 	eorscc	r2, r2, r9, lsr sp
  30:	712d3931 			; <UNDEFINED> instruction: 0x712d3931
  34:	616d2d34 	cmnvs	sp, r4, lsr sp
  38:	29726f6a 	ldmdbcs	r2!, {r1, r3, r5, r6, r8, r9, sl, fp, sp, lr}^
  3c:	322e3920 	eorcc	r3, lr, #32, 18	; 0x80000
  40:	3220312e 	eorcc	r3, r0, #-2147483637	; 0x8000000b
  44:	31393130 	teqcc	r9, r0, lsr r1
  48:	20353230 	eorscs	r3, r5, r0, lsr r2
  4c:	6c657228 	sfmvs	f7, 2, [r5], #-160	; 0xffffff60
  50:	65736165 	ldrbvs	r6, [r3, #-357]!	; 0xfffffe9b
  54:	415b2029 	cmpmi	fp, r9, lsr #32
  58:	612f4d52 			; <UNDEFINED> instruction: 0x612f4d52
  5c:	392d6d72 	pushcc	{r1, r4, r5, r6, r8, sl, fp, sp, lr}
  60:	6172622d 	cmnvs	r2, sp, lsr #4
  64:	2068636e 	rsbcs	r6, r8, lr, ror #6
  68:	69766572 	ldmdbvs	r6!, {r1, r4, r5, r6, r8, sl, sp, lr}^
  6c:	6e6f6973 			; <UNDEFINED> instruction: 0x6e6f6973
  70:	37373220 	ldrcc	r3, [r7, -r0, lsr #4]!
  74:	5d393935 			; <UNDEFINED> instruction: 0x5d393935
  78:	43434700 	movtmi	r4, #14080	; 0x3700
  7c:	4728203a 			; <UNDEFINED> instruction: 0x4728203a
  80:	4120554e 			; <UNDEFINED> instruction: 0x4120554e
  84:	45206d72 	strmi	r6, [r0, #-3442]!	; 0xfffff28e
  88:	6465626d 	strbtvs	r6, [r5], #-621	; 0xfffffd93
  8c:	20646564 	rsbcs	r6, r4, r4, ror #10
  90:	6c6f6f54 	stclvs	15, cr6, [pc], #-336	; ffffff48 <__bss_end__+0xffff51a8>
  94:	69616863 	stmdbvs	r1!, {r0, r1, r5, r6, fp, sp, lr}^
  98:	3031206e 	eorscc	r2, r1, lr, rrx
  9c:	322d332e 	eorcc	r3, sp, #-1207959552	; 0xb8000000
  a0:	2e313230 	mrccs	2, 1, r3, cr1, cr0, {1}
  a4:	20293031 	eorcs	r3, r9, r1, lsr r0
  a8:	332e3031 			; <UNDEFINED> instruction: 0x332e3031
  ac:	3220312e 	eorcc	r3, r0, #-2147483637	; 0x8000000b
  b0:	30313230 	eorscc	r3, r1, r0, lsr r2
  b4:	20343238 	eorscs	r3, r4, r8, lsr r2
  b8:	6c657228 	sfmvs	f7, 2, [r5], #-160	; 0xffffff60
  bc:	65736165 	ldrbvs	r6, [r3, #-357]!	; 0xfffffe9b
  c0:	Address 0x00000000000000c0 is out of bounds.


Disassembly of section .debug_info:

00000000 <.debug_info>:
       0:	000004a7 	andeq	r0, r0, r7, lsr #9
       4:	00000004 	andeq	r0, r0, r4
       8:	01040000 	mrseq	r0, (UNDEF: 4)
       c:	00000150 	andeq	r0, r0, r0, asr r1
      10:	0000c70c 	andeq	ip, r0, ip, lsl #14
      14:	00011e00 	andeq	r1, r1, r0, lsl #28
      18:	00803800 	addeq	r3, r0, r0, lsl #16
      1c:	0000e000 	andeq	lr, r0, r0
      20:	00000000 	andeq	r0, r0, r0
      24:	05040200 	streq	r0, [r4, #-512]	; 0xfffffe00
      28:	00746e69 	rsbseq	r6, r4, r9, ror #28
      2c:	f1070403 			; <UNDEFINED> instruction: 0xf1070403
      30:	03000000 	movweq	r0, #0
      34:	00570601 	subseq	r0, r7, r1, lsl #12
      38:	02030000 	andeq	r0, r3, #0, 0
      3c:	00020b05 	andeq	r0, r2, r5, lsl #22
      40:	05040300 	streq	r0, [r4, #-768]	; 0xfffffd00
      44:	00000115 	andeq	r0, r0, r5, lsl r1
      48:	10050803 	andne	r0, r5, r3, lsl #16
      4c:	04000001 	streq	r0, [r0], #-1
      50:	000000fe 	strdeq	r0, [r0], -lr
      54:	5b182e04 	blpl	60b86c <__bss_end__+0x600acc>
      58:	03000000 	movweq	r0, #0
      5c:	00550801 	subseq	r0, r5, r1, lsl #16
      60:	1f040000 	svcne	0x00040000
      64:	04000002 	streq	r0, [r0], #-2
      68:	006e1931 	rsbeq	r1, lr, r1, lsr r9
      6c:	02030000 	andeq	r0, r3, #0, 0
      70:	00007007 	andeq	r7, r0, r7
      74:	02280400 	eoreq	r0, r8, #0, 8
      78:	34040000 	strcc	r0, [r4], #-0
      7c:	00008119 	andeq	r8, r0, r9, lsl r1
      80:	07040300 	streq	r0, [r4, -r0, lsl #6]
      84:	000000ec 	andeq	r0, r0, ip, ror #1
      88:	e7070803 	str	r0, [r7, -r3, lsl #16]
      8c:	05000000 	streq	r0, [r0, #-0]
      90:	00000025 	andeq	r0, r0, r5, lsr #32
      94:	0000009e 	muleq	r0, lr, r0
      98:	00002506 	andeq	r2, r0, r6, lsl #10
      9c:	31070000 	mrscc	r0, (UNDEF: 7)
      a0:	05000002 	streq	r0, [r0, #-2]
      a4:	00aa0e1c 	adceq	r0, sl, ip, lsl lr
      a8:	04080000 	streq	r0, [r8], #-0
      ac:	0000008f 	andeq	r0, r0, pc, lsl #1
      b0:	00002505 	andeq	r2, r0, r5, lsl #10
      b4:	0000bf00 	andeq	fp, r0, r0, lsl #30
      b8:	00bf0600 	adcseq	r0, pc, r0, lsl #12
      bc:	08000000 	stmdaeq	r0, {}	; <UNPREDICTABLE>
      c0:	0000cc04 	andeq	ip, r0, r4, lsl #24
      c4:	08010300 	stmdaeq	r1, {r8, r9}
      c8:	0000005e 	andeq	r0, r0, lr, asr r0
      cc:	0000c509 	andeq	ip, r0, r9, lsl #10
      d0:	05d30700 	ldrbeq	r0, [r3, #1792]	; 0x700
      d4:	21050000 	mrscs	r0, (UNDEF: 5)
      d8:	0000dd0e 	andeq	sp, r0, lr, lsl #26
      dc:	b0040800 	andlt	r0, r4, r0, lsl #16
      e0:	0a000000 	beq	e8 <__code_start__-0x7f18>
      e4:	0904020c 	stmdbeq	r4, {r2, r3, r9}
      e8:	00000114 	andeq	r0, r0, r4, lsl r1
      ec:	0000500b 	andeq	r5, r0, fp
      f0:	11060200 	mrsne	r0, LR_usr
      f4:	000000bf 	strheq	r0, [r0], -pc	; <UNPREDICTABLE>
      f8:	00a60b00 	adceq	r0, r6, r0, lsl #22
      fc:	07020000 	streq	r0, [r2, -r0]
     100:	0000bf11 	andeq	fp, r0, r1, lsl pc
     104:	260b0400 	strcs	r0, [fp], -r0, lsl #8
     108:	02000000 	andeq	r0, r0, #0, 0
     10c:	002c0e08 	eoreq	r0, ip, r8, lsl #28
     110:	00080000 	andeq	r0, r8, r0
     114:	00021504 	andeq	r1, r2, r4, lsl #10
     118:	03090200 	movweq	r0, #37376	; 0x9200
     11c:	000000e3 	andeq	r0, r0, r3, ror #1
     120:	0000830c 	andeq	r8, r0, ip, lsl #6
     124:	0d03a800 	stceq	8, cr10, [r3, #-0]
     128:	0001a310 	andeq	sl, r1, r0, lsl r3
     12c:	00130b00 	andseq	r0, r3, r0, lsl #22
     130:	0e030000 	cdpeq	0, 0, cr0, cr3, cr0, {0}
     134:	0001a314 	andeq	sl, r1, r4, lsl r3
     138:	430b0000 	movwmi	r0, #45056	; 0xb000
     13c:	03000000 	movweq	r0, #0
     140:	00750e0f 	rsbseq	r0, r5, pc, lsl #28
     144:	0b040000 	bleq	10014c <__bss_end__+0xf53ac>
     148:	00000020 	andeq	r0, r0, r0, lsr #32
     14c:	750e1003 	strvc	r1, [lr, #-3]
     150:	08000000 	stmdaeq	r0, {}	; <UNPREDICTABLE>
     154:	0000be0b 	andeq	fp, r0, fp, lsl #28
     158:	0e140300 	cdpeq	3, 1, cr0, cr4, cr0, {0}
     15c:	00000075 	andeq	r0, r0, r5, ror r0
     160:	01060b0c 	tsteq	r6, ip, lsl #22
     164:	16030000 	strne	r0, [r3], -r0
     168:	0001140f 	andeq	r1, r1, pc, lsl #8
     16c:	3d0b1000 	stccc	0, cr1, [fp, #-0]
     170:	03000002 	movweq	r0, #2
     174:	00750e19 	rsbseq	r0, r5, r9, lsl lr
     178:	0b1c0000 	bleq	700180 <__bss_end__+0x6f53e0>
     17c:	00000248 	andeq	r0, r0, r8, asr #4
     180:	750e1a03 	strvc	r1, [lr, #-2563]	; 0xfffff5fd
     184:	20000000 	andcs	r0, r0, r0
     188:	0003b40b 	andeq	fp, r3, fp, lsl #8
     18c:	0e1c0300 	cdpeq	3, 1, cr0, cr12, cr0, {0}
     190:	00000062 	andeq	r0, r0, r2, rrx
     194:	7a720d24 	bvc	1c8362c <__bss_end__+0x1c7888c>
     198:	1e030031 	mcrne	0, 0, r0, cr3, cr1, {1}
     19c:	0001a90d 	andeq	sl, r1, sp, lsl #18
     1a0:	08002600 	stmdaeq	r0, {r9, sl, sp}
     1a4:	00012004 	andeq	r2, r1, r4
     1a8:	004f0e00 	subeq	r0, pc, r0, lsl #28
     1ac:	01b90000 			; <UNDEFINED> instruction: 0x01b90000
     1b0:	2c0f0000 	stccs	0, cr0, [pc], {-0}
     1b4:	7f000000 	svcvc	0x00000000
     1b8:	000d0400 	andeq	r0, sp, r0, lsl #8
     1bc:	1f030000 	svcne	0x00030000
     1c0:	00012003 	andeq	r2, r1, r3
     1c4:	07041000 	streq	r1, [r4, -r0]
     1c8:	00000000 	andeq	r0, r0, r0
     1cc:	2c11a503 	cfldr32cs	mvfx10, [r1], {3}
     1d0:	11000000 	mrsne	r0, (UNDEF: 0)
     1d4:	0000003b 	andeq	r0, r0, fp, lsr r0
     1d8:	c0060f01 	andgt	r0, r6, r1, lsl #30
     1dc:	58000080 	stmdapl	r0, {r7}
     1e0:	01000000 	mrseq	r0, (UNDEF: 0)
     1e4:	00027a9c 	muleq	r2, ip, sl
     1e8:	00ab1200 	adceq	r1, fp, r0, lsl #4
     1ec:	028a0000 	addeq	r0, sl, #0, 0
     1f0:	03050000 	movweq	r0, #20480	; 0x5000
     1f4:	0000a164 	andeq	sl, r0, r4, ror #2
     1f8:	0080cc13 	addeq	ip, r0, r3, lsl ip
     1fc:	00045800 	andeq	r5, r4, r0, lsl #16
     200:	00020f00 	andeq	r0, r2, r0, lsl #30
     204:	50011400 	andpl	r1, r1, r0, lsl #8
     208:	a10c0305 	tstge	ip, r5, lsl #6
     20c:	15000000 	strne	r0, [r0, #-0]
     210:	000080d0 	ldrdeq	r8, [r0], -r0
     214:	0000028f 	andeq	r0, r0, pc, lsl #5
     218:	0080d813 	addeq	sp, r0, r3, lsl r8
     21c:	00046400 	andeq	r6, r4, r0, lsl #8
     220:	00022b00 	andeq	r2, r2, r0, lsl #22
     224:	50011400 	andpl	r1, r1, r0, lsl #8
     228:	13003101 	movwne	r3, #257	; 0x101
     22c:	000080e8 	andeq	r8, r0, r8, ror #1
     230:	00000458 	andeq	r0, r0, r8, asr r4
     234:	00000242 	andeq	r0, r0, r2, asr #4
     238:	05500114 	ldrbeq	r0, [r0, #-276]	; 0xfffffeec
     23c:	00a14003 	adceq	r4, r1, r3
     240:	00130000 	andseq	r0, r3, r0
     244:	58000081 	stmdapl	r0, {r0, r7}
     248:	70000004 	andvc	r0, r0, r4
     24c:	14000002 	strne	r0, [r0], #-2
     250:	03055001 	movweq	r5, #20481	; 0x5001
     254:	0000a118 	andeq	sl, r0, r8, lsl r1
     258:	05510114 	ldrbeq	r0, [r1, #-276]	; 0xfffffeec
     25c:	00a0c003 	adceq	ip, r0, r3
     260:	52011400 	andpl	r1, r1, #0, 8
     264:	a1640305 	cmnge	r4, r5, lsl #6
     268:	01140000 	tsteq	r4, r0
     26c:	004f0153 	subeq	r0, pc, r3, asr r1	; <UNPREDICTABLE>
     270:	00810415 	addeq	r0, r1, r5, lsl r4
     274:	00047000 	andeq	r7, r4, r0
     278:	cc0e0000 	stcgt	0, cr0, [lr], {-0}
     27c:	8a000000 	bhi	284 <__code_start__-0x7d7c>
     280:	0f000002 	svceq	0x00000002
     284:	0000002c 	andeq	r0, r0, ip, lsr #32
     288:	7a090007 	bvc	2402ac <__bss_end__+0x23550c>
     28c:	11000002 	tstne	r0, r2
     290:	000000b8 	strheq	r0, [r0], -r8
     294:	38060801 	stmdacc	r6, {r0, fp}
     298:	88000080 	stmdahi	r0, {r7}
     29c:	01000000 	mrseq	r0, (UNDEF: 0)
     2a0:	0003db9c 	muleq	r3, ip, fp
     2a4:	00701600 	rsbseq	r1, r0, r0, lsl #12
     2a8:	db0b0901 	blle	2c26b4 <__bss_end__+0x2b7914>
     2ac:	06000003 	streq	r0, [r0], -r3
     2b0:	00000000 	andeq	r0, r0, r0
     2b4:	12000000 	andne	r0, r0, #0, 0
     2b8:	000000ab 	andeq	r0, r0, fp, lsr #1
     2bc:	000003f1 	strdeq	r0, [r0], -r1
     2c0:	a15c0305 	cmpge	ip, r5, lsl #6
     2c4:	22170000 	andscs	r0, r7, #0, 0
     2c8:	40000004 	andmi	r0, r0, r4
     2cc:	01000080 	smlabbeq	r0, r0, r0, r0
     2d0:	00008040 	andeq	r8, r0, r0, asr #32
     2d4:	00000018 	andeq	r0, r0, r8, lsl r0
     2d8:	070f0901 	streq	r0, [pc, -r1, lsl #18]
     2dc:	18000003 	stmdane	r0, {r0, r1}
     2e0:	0000044b 	andeq	r0, r0, fp, asr #8
     2e4:	00000031 	andeq	r0, r0, r1, lsr r0
     2e8:	0000002f 	andeq	r0, r0, pc, lsr #32
     2ec:	00043f18 	andeq	r3, r4, r8, lsl pc
     2f0:	00004700 	andeq	r4, r0, r0, lsl #14
     2f4:	00004500 	andeq	r4, r0, r0, lsl #10
     2f8:	04331800 	ldrteq	r1, [r3], #-2048	; 0xfffff800
     2fc:	00610000 	rsbeq	r0, r1, r0
     300:	005f0000 	subseq	r0, pc, r0
     304:	17000000 	strne	r0, [r0, -r0]
     308:	000003f6 	strdeq	r0, [r0], -r6
     30c:	0000806c 	andeq	r8, r0, ip, rrx
     310:	00806c02 	addeq	r6, r0, r2, lsl #24
     314:	00000000 	andeq	r0, r0, r0
     318:	050a0100 	streq	r0, [sl, #-256]	; 0xffffff00
     31c:	0000033b 	andeq	r0, r0, fp, lsr r3
     320:	00040718 	andeq	r0, r4, r8, lsl r7
     324:	00007b00 	andeq	r7, r0, r0, lsl #22
     328:	00007900 	andeq	r7, r0, r0, lsl #18
     32c:	04111900 	ldreq	r1, [r1], #-2304	; 0xfffff700
     330:	00940000 	addseq	r0, r4, r0
     334:	008e0000 	addeq	r0, lr, r0
     338:	17000000 	strne	r0, [r0, -r0]
     33c:	00000422 	andeq	r0, r0, r2, lsr #8
     340:	0000808c 	andeq	r8, r0, ip, lsl #1
     344:	00808c01 	addeq	r8, r0, r1, lsl #24
     348:	00001000 	andeq	r1, r0, r0
     34c:	050c0100 	streq	r0, [ip, #-256]	; 0xffffff00
     350:	0000037c 	andeq	r0, r0, ip, ror r3
     354:	00044b18 	andeq	r4, r4, r8, lsl fp
     358:	0000bf00 	andeq	fp, r0, r0, lsl #30
     35c:	0000bd00 	andeq	fp, r0, r0, lsl #26
     360:	043f1800 	ldrteq	r1, [pc], #-2048	; 368 <__code_start__-0x7c98>
     364:	00d50000 	sbcseq	r0, r5, r0
     368:	00d30000 	sbcseq	r0, r3, r0
     36c:	33180000 	tstcc	r8, #0, 0
     370:	ef000004 	svc	0x00000004
     374:	ed000000 	stc	0, cr0, [r0, #-0]
     378:	00000000 	andeq	r0, r0, r0
     37c:	00806813 	addeq	r6, r0, r3, lsl r8
     380:	00048600 	andeq	r8, r4, r0, lsl #12
     384:	00038f00 	andeq	r8, r3, r0, lsl #30
     388:	50011400 	andpl	r1, r1, r0, lsl #8
     38c:	13003401 	movwne	r3, #1025	; 0x401
     390:	0000807c 	andeq	r8, r0, ip, ror r0
     394:	00000458 	andeq	r0, r0, r8, asr r4
     398:	000003ac 	andeq	r0, r0, ip, lsr #7
     39c:	05500114 	ldrbeq	r0, [r0, #-276]	; 0xfffffeec
     3a0:	00a0e003 	adceq	lr, r0, r3
     3a4:	52011400 	andpl	r1, r1, #0, 8
     3a8:	00007402 	andeq	r7, r0, r2, lsl #8
     3ac:	00808c13 	addeq	r8, r0, r3, lsl ip
     3b0:	00049200 	andeq	r9, r4, r0, lsl #4
     3b4:	0003ca00 	andeq	ip, r3, r0, lsl #20
     3b8:	50011400 	andpl	r1, r1, r0, lsl #8
     3bc:	14007402 	strne	r7, [r0], #-1026	; 0xfffffbfe
     3c0:	30015101 	andcc	r5, r1, r1, lsl #2
     3c4:	01520114 	cmpeq	r2, r4, lsl r1
     3c8:	ac1a0034 	ldcge	0, cr0, [sl], {52}	; 0x34
     3cc:	9e000080 	cdpls	0, 0, cr0, cr0, cr0, {4}
     3d0:	14000004 	strne	r0, [r0], #-4
     3d4:	74025001 	strvc	r5, [r2], #-1
     3d8:	08000000 	stmdaeq	r0, {}	; <UNPREDICTABLE>
     3dc:	0000c504 	andeq	ip, r0, r4, lsl #10
     3e0:	00cc0e00 	sbceq	r0, ip, r0, lsl #28
     3e4:	03f10000 	mvnseq	r0, #0, 0
     3e8:	2c0f0000 	stccs	0, cr0, [pc], {-0}
     3ec:	05000000 	streq	r0, [r0, #-0]
     3f0:	03e10900 	mvneq	r0, #0, 18
     3f4:	9c1b0000 	ldcls	0, cr0, [fp], {-0}
     3f8:	03000000 	movweq	r0, #0
     3fc:	002c1122 	eoreq	r1, ip, r2, lsr #2
     400:	1c010000 	stcne	0, cr0, [r1], {-0}
     404:	1c000004 	stcne	0, cr0, [r0], {4}
     408:	22030070 	andcs	r0, r3, #112, 0	; 0x70
     40c:	0001c521 	andeq	ip, r1, r1, lsr #10
     410:	00681d00 	rsbeq	r1, r8, r0, lsl #26
     414:	1c0c2303 	stcne	3, cr2, [ip], {3}
     418:	00000004 	andeq	r0, r0, r4
     41c:	01b90408 			; <UNDEFINED> instruction: 0x01b90408
     420:	8a1b0000 	bhi	6c0428 <__bss_end__+0x6b5688>
     424:	02000000 	andeq	r0, r0, #0, 0
     428:	01140b0c 	tsteq	r4, ip, lsl #22
     42c:	58030000 	stmdapl	r3, {}	; <UNPREDICTABLE>
     430:	1e000004 	cdpne	0, 0, cr0, cr0, cr4, {0}
     434:	00000050 	andeq	r0, r0, r0, asr r0
     438:	bf220c02 	svclt	0x00220c02
     43c:	1e000000 	cdpne	0, 0, cr0, cr0, cr0, {0}
     440:	000000a6 	andeq	r0, r0, r6, lsr #1
     444:	bf340c02 	svclt	0x00340c02
     448:	1e000000 	cdpne	0, 0, cr0, cr0, cr0, {0}
     44c:	00000026 	andeq	r0, r0, r6, lsr #32
     450:	2c430c02 	mcrrcs	12, 0, r0, r3, cr2
     454:	00000000 	andeq	r0, r0, r0
     458:	0005951f 	andeq	r9, r5, pc, lsl r5
     45c:	00059500 	andeq	r9, r5, r0, lsl #10
     460:	06280500 	strteq	r0, [r8], -r0, lsl #10
     464:	00002d1f 	andeq	r2, r0, pc, lsl sp
     468:	00002d00 	andeq	r2, r0, r0, lsl #26
     46c:	0a5e0300 	beq	1781074 <__bss_end__+0x17762d4>
     470:	0000631f 	andeq	r6, r0, pc, lsl r3
     474:	00006300 	andeq	r6, r0, r0, lsl #6
     478:	066e0500 	strbteq	r0, [lr], -r0, lsl #10
     47c:	069e0820 	ldreq	r0, [lr], r0, lsr #16
     480:	74736574 	ldrbtvc	r6, [r3], #-1396	; 0xfffffa8c
     484:	181f0031 	ldmdane	pc, {r0, r4, r5}	; <UNPREDICTABLE>
     488:	18000000 	stmdane	r0, {}	; <UNPREDICTABLE>
     48c:	03000000 	movweq	r0, #0
     490:	951f0849 	ldrls	r0, [pc, #-2121]	; fffffc4f <__bss_end__+0xffff4eaf>
     494:	95000000 	strls	r0, [r0, #-0]
     498:	05000000 	streq	r0, [r0, #-0]
     49c:	041f07f2 	ldreq	r0, [pc], #-2034	; 4a4 <__code_start__-0x7b5c>
     4a0:	04000002 	streq	r0, [r0], #-2
     4a4:	03000002 	movweq	r0, #2
     4a8:	3d00074a 	stccc	7, cr0, [r0, #-296]	; 0xfffffed8
     4ac:	04000008 	streq	r0, [r0], #-8
     4b0:	0001c100 	andeq	ip, r1, r0, lsl #2
     4b4:	50010400 	andpl	r0, r1, r0, lsl #8
     4b8:	0c000001 	stceq	0, cr0, [r0], {1}
     4bc:	000002cf 	andeq	r0, r0, pc, asr #5
     4c0:	0000011e 	andeq	r0, r0, lr, lsl r1
     4c4:	00008118 	andeq	r8, r0, r8, lsl r1
     4c8:	00000294 	muleq	r0, r4, r2
     4cc:	00000178 	andeq	r0, r0, r8, ror r1
     4d0:	69050402 	stmdbvs	r5, {r1, sl}
     4d4:	0300746e 	movweq	r7, #1134	; 0x46e
     4d8:	00f10704 	rscseq	r0, r1, r4, lsl #14
     4dc:	01030000 	mrseq	r0, (UNDEF: 3)
     4e0:	00005706 	andeq	r5, r0, r6, lsl #14
     4e4:	05020300 	streq	r0, [r2, #-768]	; 0xfffffd00
     4e8:	0000020b 	andeq	r0, r0, fp, lsl #4
     4ec:	15050403 	strne	r0, [r5, #-1027]	; 0xfffffbfd
     4f0:	03000001 	movweq	r0, #1
     4f4:	01100508 	tsteq	r0, r8, lsl #10
     4f8:	fe040000 	cdp2	0, 0, cr0, cr4, cr0, {0}
     4fc:	03000000 	movweq	r0, #0
     500:	005b182e 	subseq	r1, fp, lr, lsr #16
     504:	01030000 	mrseq	r0, (UNDEF: 3)
     508:	00005508 	andeq	r5, r0, r8, lsl #10
     50c:	021f0400 	andseq	r0, pc, #0, 8
     510:	31030000 	mrscc	r0, (UNDEF: 3)
     514:	00006e19 	andeq	r6, r0, r9, lsl lr
     518:	07020300 	streq	r0, [r2, -r0, lsl #6]
     51c:	00000070 	andeq	r0, r0, r0, ror r0
     520:	00022804 	andeq	r2, r2, r4, lsl #16
     524:	19340300 	ldmdbne	r4!, {r8, r9}
     528:	00000081 	andeq	r0, r0, r1, lsl #1
     52c:	ec070403 	cfstrs	mvf0, [r7], {3}
     530:	03000000 	movweq	r0, #0
     534:	00e70708 	rsceq	r0, r7, r8, lsl #14
     538:	25050000 	strcs	r0, [r5, #-0]
     53c:	9e000000 	cdpls	0, 0, cr0, cr0, cr0, {0}
     540:	06000000 	streq	r0, [r0], -r0
     544:	00000025 	andeq	r0, r0, r5, lsr #32
     548:	02310700 	eorseq	r0, r1, #0, 14
     54c:	1c040000 	stcne	0, cr0, [r4], {-0}
     550:	0000aa0e 	andeq	sl, r0, lr, lsl #20
     554:	8f040800 	svchi	0x00040800
     558:	05000000 	streq	r0, [r0, #-0]
     55c:	00000025 	andeq	r0, r0, r5, lsr #32
     560:	000000bf 	strheq	r0, [r0], -pc	; <UNPREDICTABLE>
     564:	0000bf06 	andeq	fp, r0, r6, lsl #30
     568:	04080000 	streq	r0, [r8], #-0
     56c:	000000cc 	andeq	r0, r0, ip, asr #1
     570:	5e080103 	adfple	f0, f0, f3
     574:	09000000 	stmdbeq	r0, {}	; <UNPREDICTABLE>
     578:	000000c5 	andeq	r0, r0, r5, asr #1
     57c:	0005d307 	andeq	sp, r5, r7, lsl #6
     580:	0e210400 	cdpeq	4, 2, cr0, cr1, cr0, {0}
     584:	000000dd 	ldrdeq	r0, [r0], -sp
     588:	00b00408 	adcseq	r0, r0, r8, lsl #8
     58c:	0c0a0000 	stceq	0, cr0, [sl], {-0}
     590:	14090405 	strne	r0, [r9], #-1029	; 0xfffffbfb
     594:	0b000001 	bleq	5a0 <__code_start__-0x7a60>
     598:	00000050 	andeq	r0, r0, r0, asr r0
     59c:	bf110605 	svclt	0x00110605
     5a0:	00000000 	andeq	r0, r0, r0
     5a4:	0000a60b 	andeq	sl, r0, fp, lsl #12
     5a8:	11070500 	tstne	r7, r0, lsl #10
     5ac:	000000bf 	strheq	r0, [r0], -pc	; <UNPREDICTABLE>
     5b0:	00260b04 	eoreq	r0, r6, r4, lsl #22
     5b4:	08050000 	stmdaeq	r5, {}	; <UNPREDICTABLE>
     5b8:	00002c0e 	andeq	r2, r0, lr, lsl #24
     5bc:	04000800 	streq	r0, [r0], #-2048	; 0xfffff800
     5c0:	00000215 	andeq	r0, r0, r5, lsl r2
     5c4:	e3030905 	movw	r0, #14597	; 0x3905
     5c8:	0c000000 	stceq	0, cr0, [r0], {-0}
     5cc:	005b0107 	subseq	r0, fp, r7, lsl #2
     5d0:	09020000 	stmdbeq	r2, {}	; <UNPREDICTABLE>
     5d4:	00013b0e 	andeq	r3, r1, lr, lsl #22
     5d8:	02d90d00 	sbcseq	r0, r9, #0, 26
     5dc:	0d0b0000 	stceq	0, cr0, [fp, #-0]
     5e0:	00000264 	andeq	r0, r0, r4, ror #4
     5e4:	070c000c 	streq	r0, [ip, -ip]
     5e8:	00005b01 	andeq	r5, r0, r1, lsl #22
     5ec:	060a0200 	streq	r0, [sl], -r0, lsl #4
     5f0:	00000156 	andeq	r0, r0, r6, asr r1
     5f4:	00027e0d 	andeq	r7, r2, sp, lsl #28
     5f8:	6a0d8000 	bvs	360600 <__bss_end__+0x355860>
     5fc:	fe000002 	cdp2	0, 0, cr0, cr0, cr2, {0}
     600:	00830e00 	addeq	r0, r3, r0, lsl #28
     604:	02a80000 	adceq	r0, r8, #0, 0
     608:	01d9100d 	bicseq	r1, r9, sp
     60c:	130b0000 	movwne	r0, #45056	; 0xb000
     610:	02000000 	andeq	r0, r0, #0, 0
     614:	01d9140e 	bicseq	r1, r9, lr, lsl #8
     618:	0b000000 	bleq	620 <__code_start__-0x79e0>
     61c:	00000043 	andeq	r0, r0, r3, asr #32
     620:	750e0f02 	strvc	r0, [lr, #-3842]	; 0xfffff0fe
     624:	04000000 	streq	r0, [r0], #-0
     628:	0000200b 	andeq	r2, r0, fp
     62c:	0e100200 	cdpeq	2, 1, cr0, cr0, cr0, {0}
     630:	00000075 	andeq	r0, r0, r5, ror r0
     634:	00be0b08 	adcseq	r0, lr, r8, lsl #22
     638:	14020000 	strne	r0, [r2], #-0
     63c:	0000750e 	andeq	r7, r0, lr, lsl #10
     640:	060b0c00 	streq	r0, [fp], -r0, lsl #24
     644:	02000001 	andeq	r0, r0, #1, 0
     648:	01140f16 	tsteq	r4, r6, lsl pc
     64c:	0b100000 	bleq	400654 <__bss_end__+0x3f58b4>
     650:	0000023d 	andeq	r0, r0, sp, lsr r2
     654:	750e1902 	strvc	r1, [lr, #-2306]	; 0xfffff6fe
     658:	1c000000 	stcne	0, cr0, [r0], {-0}
     65c:	0002480b 	andeq	r4, r2, fp, lsl #16
     660:	0e1a0200 	cdpeq	2, 1, cr0, cr10, cr0, {0}
     664:	00000075 	andeq	r0, r0, r5, ror r0
     668:	03b40b20 			; <UNDEFINED> instruction: 0x03b40b20
     66c:	1c020000 	stcne	0, cr0, [r2], {-0}
     670:	0000620e 	andeq	r6, r0, lr, lsl #4
     674:	720f2400 	andvc	r2, pc, #0, 8
     678:	0200317a 	andeq	r3, r0, #-2147483618	; 0x8000001e
     67c:	01df0d1e 	bicseq	r0, pc, lr, lsl sp	; <UNPREDICTABLE>
     680:	00260000 	eoreq	r0, r6, r0
     684:	01560408 	cmpeq	r6, r8, lsl #8
     688:	4f100000 	svcmi	0x00100000
     68c:	ef000000 	svc	0x00000000
     690:	11000001 	tstne	r0, r1
     694:	0000002c 	andeq	r0, r0, ip, lsr #32
     698:	0d04007f 	stceq	0, cr0, [r4, #-508]	; 0xfffffe04
     69c:	02000000 	andeq	r0, r0, #0, 0
     6a0:	0156031f 	cmpeq	r6, pc, lsl r3
     6a4:	04120000 	ldreq	r0, [r2], #-0
     6a8:	00000007 	andeq	r0, r0, r7
     6ac:	11a50200 			; <UNDEFINED> instruction: 0x11a50200
     6b0:	0000002c 	andeq	r0, r0, ip, lsr #32
     6b4:	00029a13 	andeq	r9, r2, r3, lsl sl
     6b8:	0f080100 	svceq	0x00080100
     6bc:	0000021b 	andeq	r0, r0, fp, lsl r2
     6c0:	a9780305 	ldmdbge	r8!, {r0, r2, r8, r9}^
     6c4:	04080000 	streq	r0, [r8], #-0
     6c8:	000001ef 	andeq	r0, r0, pc, ror #3
     6cc:	00001814 	andeq	r1, r0, r4, lsl r8
     6d0:	08660100 	stmdaeq	r6!, {r8}^
     6d4:	000001fb 	strdeq	r0, [r0], -fp
     6d8:	00008318 	andeq	r8, r0, r8, lsl r3
     6dc:	00000094 	muleq	r0, r4, r0
     6e0:	02ee9c01 	rsceq	r9, lr, #256	; 0x100
     6e4:	01150000 	tsteq	r5, r0
     6e8:	01000003 	tsteq	r0, r3
     6ec:	00751a66 	rsbseq	r1, r5, r6, ror #20
     6f0:	010d0000 	mrseq	r0, (UNDEF: 13)
     6f4:	01070000 	mrseq	r0, (UNDEF: 7)
     6f8:	6c160000 	ldcvs	0, cr0, [r6], {-0}
     6fc:	2c660100 	stfcse	f0, [r6], #-0
     700:	00000114 	andeq	r0, r0, r4, lsl r1
     704:	17649102 	strbne	r9, [r4, -r2, lsl #2]!
     708:	68010068 	stmdavs	r1, {r3, r5, r6}
     70c:	00021b0c 	andeq	r1, r2, ip, lsl #22
     710:	00013f00 	andeq	r3, r1, r0, lsl #30
     714:	00013900 	andeq	r3, r1, r0, lsl #18
     718:	83341800 	teqhi	r4, #0, 16
     71c:	08040000 	stmdaeq	r4, {}	; <UNPREDICTABLE>
     720:	02830000 	addeq	r0, r3, #0, 0
     724:	01190000 	tsteq	r9, r0
     728:	a8760350 	ldmdage	r6!, {r4, r6, r8, r9}^
     72c:	44180001 	ldrmi	r0, [r8], #-1
     730:	10000083 	andne	r0, r0, r3, lsl #1
     734:	a2000008 	andge	r0, r0, #8, 0
     738:	19000002 	stmdbne	r0, {r1}
     73c:	74025001 	strvc	r5, [r2], #-1
     740:	51011900 	tstpl	r1, r0, lsl #18
     744:	01193001 	tsteq	r9, r1
     748:	a8080252 	stmdage	r8, {r1, r4, r6, r9}
     74c:	83701800 	cmnhi	r0, #0, 16
     750:	081c0000 	ldmdaeq	ip, {}	; <UNPREDICTABLE>
     754:	02ce0000 	sbceq	r0, lr, #0, 0
     758:	01190000 	tsteq	r9, r0
     75c:	7c030550 	cfstr32vc	mvfx0, [r3], {80}	; 0x50
     760:	190000a1 	stmdbne	r0, {r0, r5, r7}
     764:	75035101 	strvc	r5, [r3, #-257]	; 0xfffffeff
     768:	01190600 	tsteq	r9, r0, lsl #12
     76c:	60910352 	addsvs	r0, r1, r2, asr r3
     770:	53011906 	movwpl	r1, #6406	; 0x1906
     774:	06649103 	strbteq	r9, [r4], -r3, lsl #2
     778:	83841a00 	orrhi	r1, r4, #0, 20
     77c:	081c0000 	ldmdaeq	ip, {}	; <UNPREDICTABLE>
     780:	01190000 	tsteq	r9, r0
     784:	3c030550 	cfstr32cc	mvfx0, [r3], {80}	; 0x50
     788:	190000a2 	stmdbne	r0, {r1, r5, r7}
     78c:	75025101 	strvc	r5, [r2, #-257]	; 0xfffffeff
     790:	52011900 	andpl	r1, r1, #0, 18
     794:	00007602 	andeq	r7, r0, r2, lsl #12
     798:	02041b00 	andeq	r1, r4, #0, 22
     79c:	53010000 	movwpl	r0, #4096	; 0x1000
     7a0:	0081cc06 	addeq	ip, r1, r6, lsl #24
     7a4:	00014c00 	andeq	r4, r1, r0, lsl #24
     7a8:	f39c0100 	vaddw.u16	q0, q6, d0
     7ac:	15000004 	strne	r0, [r0, #-4]
     7b0:	00000a52 	andeq	r0, r0, r2, asr sl
     7b4:	fb145301 	blx	5153c2 <__bss_end__+0x50a622>
     7b8:	70000001 	andvc	r0, r0, r1
     7bc:	6c000001 	stcvs	0, cr0, [r0], {1}
     7c0:	1c000001 	stcne	0, cr0, [r0], {1}
     7c4:	5301006c 	movwpl	r0, #4204	; 0x106c
     7c8:	00011424 	andeq	r1, r1, r4, lsr #8
     7cc:	00019600 	andeq	r9, r1, r0, lsl #12
     7d0:	00018e00 	andeq	r8, r1, r0, lsl #28
     7d4:	00681700 	rsbeq	r1, r8, r0, lsl #14
     7d8:	1b0c5501 	blne	315be4 <__bss_end__+0x30ae44>
     7dc:	ef000002 	svc	0x00000002
     7e0:	e5000001 	str	r0, [r0, #-1]
     7e4:	1d000001 	stcne	0, cr0, [r0, #-4]
     7e8:	000000ab 	andeq	r0, r0, fp, lsr #1
     7ec:	00000503 	andeq	r0, r0, r3, lsl #10
     7f0:	a2580305 	subsge	r0, r8, #335544320	; 0x14000000
     7f4:	081e0000 	ldmdaeq	lr, {}	; <UNPREDICTABLE>
     7f8:	34000005 	strcc	r0, [r0], #-5
     7fc:	03000082 	movweq	r0, #130	; 0x82
     800:	00000038 	andeq	r0, r0, r8, lsr r0
     804:	fd055f01 	stc2	15, cr5, [r5, #-4]
     808:	1f000003 	svcne	0x00000003
     80c:	0000051f 	andeq	r0, r0, pc, lsl r5
     810:	0000023a 	andeq	r0, r0, sl, lsr r2
     814:	00000234 	andeq	r0, r0, r4, lsr r2
     818:	0005151f 	andeq	r1, r5, pc, lsl r5
     81c:	00026900 	andeq	r6, r2, r0, lsl #18
     820:	00026300 	andeq	r6, r2, r0, lsl #6
     824:	00382000 	eorseq	r2, r8, r0
     828:	38210000 	stmdacc	r1!, {}	; <UNPREDICTABLE>
     82c:	a9000005 	stmdbge	r0, {r0, r2}
     830:	a1000002 	tstge	r0, r2
     834:	21000002 	tstcs	r0, r2
     838:	00000544 	andeq	r0, r0, r4, asr #10
     83c:	000002e7 	andeq	r0, r0, r7, ror #5
     840:	000002e1 	andeq	r0, r0, r1, ror #5
     844:	00072a1e 	andeq	r2, r7, lr, lsl sl
     848:	0082c800 	addeq	ip, r2, r0, lsl #16
     84c:	00580200 	subseq	r0, r8, r0, lsl #4
     850:	46010000 	strmi	r0, [r1], -r0
     854:	0003bc11 	andeq	fp, r3, r1, lsl ip
     858:	073b1f00 	ldreq	r1, [fp, -r0, lsl #30]!
     85c:	03150000 	tsteq	r5, #0, 0
     860:	03110000 	tsteq	r1, #0, 0
     864:	18000000 	stmdane	r0, {}	; <UNPREDICTABLE>
     868:	000082e8 	andeq	r8, r0, r8, ror #5
     86c:	0000081c 	andeq	r0, r0, ip, lsl r8
     870:	000003f2 	strdeq	r0, [r0], -r2
     874:	05500119 	ldrbeq	r0, [r0, #-281]	; 0xfffffee7
     878:	00a21003 	adceq	r1, r2, r3
     87c:	51011900 	tstpl	r1, r0, lsl #18
     880:	a1d80305 	bicsge	r0, r8, r5, lsl #6
     884:	01190000 	tsteq	r9, r0
     888:	60030552 	andvs	r0, r3, r2, asr r5
     88c:	190000a2 	stmdbne	r0, {r1, r5, r7}
     890:	08025301 	stmdaeq	r2, {r0, r8, r9, ip, lr}
     894:	7d02194f 	vstrvc.16	s2, [r2, #-158]	; 0xffffff62	; <UNPREDICTABLE>
     898:	00780200 	rsbseq	r0, r8, r0, lsl #4
     89c:	82ec2200 	rschi	r2, ip, #0, 4
     8a0:	08280000 	stmdaeq	r8!, {}	; <UNPREDICTABLE>
     8a4:	00000000 	andeq	r0, r0, r0
     8a8:	00820018 	addeq	r0, r2, r8, lsl r0
     8ac:	00081c00 	andeq	r1, r8, r0, lsl #24
     8b0:	00042600 	andeq	r2, r4, r0, lsl #12
     8b4:	50011900 	andpl	r1, r1, r0, lsl #18
     8b8:	a17c0305 	cmnge	ip, r5, lsl #6
     8bc:	01190000 	tsteq	r9, r0
     8c0:	00750251 	rsbseq	r0, r5, r1, asr r2
     8c4:	02520119 	subseq	r0, r2, #1073741830	; 0x40000006
     8c8:	01190076 	tsteq	r9, r6, ror r0
     8cc:	00770253 	rsbseq	r0, r7, r3, asr r2
     8d0:	820c1800 	andhi	r1, ip, #0, 16
     8d4:	081c0000 	ldmdaeq	ip, {}	; <UNPREDICTABLE>
     8d8:	04430000 	strbeq	r0, [r3], #-0
     8dc:	01190000 	tsteq	r9, r0
     8e0:	88030550 	stmdahi	r3, {r4, r6, r8, sl}
     8e4:	190000a1 	stmdbne	r0, {r0, r5, r7}
     8e8:	74025101 	strvc	r5, [r2], #-257	; 0xfffffeff
     8ec:	2c180000 	ldccs	0, cr0, [r8], {-0}
     8f0:	6a000082 	bvs	b00 <__code_start__-0x7500>
     8f4:	57000005 	strpl	r0, [r0, -r5]
     8f8:	19000004 	stmdbne	r0, {r2}
     8fc:	74025001 	strvc	r5, [r2], #-1
     900:	68180000 	ldmdavs	r8, {}	; <UNPREDICTABLE>
     904:	1c000082 	stcne	0, cr0, [r0], {130}	; 0x82
     908:	80000008 	andhi	r0, r0, r8
     90c:	19000004 	stmdbne	r0, {r2}
     910:	03055001 	movweq	r5, #20481	; 0x5001
     914:	0000a198 	muleq	r0, r8, r1
     918:	02510119 	subseq	r0, r1, #1073741830	; 0x40000006
     91c:	01190075 	tsteq	r9, r5, ror r0
     920:	00760252 	rsbseq	r0, r6, r2, asr r2
     924:	02530119 	subseq	r0, r3, #1073741830	; 0x40000006
     928:	18000077 	stmdane	r0, {r0, r1, r2, r4, r5, r6}
     92c:	00008274 	andeq	r8, r0, r4, ror r2
     930:	0000081c 	andeq	r0, r0, ip, lsl r8
     934:	00000497 	muleq	r0, r7, r4
     938:	05500119 	ldrbeq	r0, [r0, #-281]	; 0xfffffee7
     93c:	00a1b003 	adceq	fp, r1, r3
     940:	78220000 	stmdavc	r2!, {}	; <UNPREDICTABLE>
     944:	28000082 	stmdacs	r0, {r1, r7}
     948:	18000008 	stmdane	r0, {r3}
     94c:	00008294 	muleq	r0, r4, r2
     950:	0000081c 	andeq	r0, r0, ip, lsl r8
     954:	000004d9 	ldrdeq	r0, [r0], -r9
     958:	05500119 	ldrbeq	r0, [r0, #-281]	; 0xfffffee7
     95c:	00a1e403 	adceq	lr, r1, r3, lsl #8
     960:	51011900 	tstpl	r1, r0, lsl #18
     964:	a1d80305 	bicsge	r0, r8, r5, lsl #6
     968:	01190000 	tsteq	r9, r0
     96c:	58030552 	stmdapl	r3, {r1, r4, r6, r8, sl}
     970:	190000a2 	stmdbne	r0, {r1, r5, r7}
     974:	08025301 	stmdaeq	r2, {r0, r8, r9, ip, lr}
     978:	7d02195d 	vstrvc.16	s2, [r2, #-186]	; 0xffffff46	; <UNPREDICTABLE>
     97c:	f8030500 			; <UNDEFINED> instruction: 0xf8030500
     980:	000000a1 	andeq	r0, r0, r1, lsr #1
     984:	00829822 	addeq	r9, r2, r2, lsr #16
     988:	00082800 	andeq	r2, r8, r0, lsl #16
     98c:	82a81a00 	adchi	r1, r8, #0, 20
     990:	08340000 	ldmdaeq	r4!, {}	; <UNPREDICTABLE>
     994:	01190000 	tsteq	r9, r0
     998:	00780250 	rsbseq	r0, r8, r0, asr r2
     99c:	cc100000 	ldcgt	0, cr0, [r0], {-0}
     9a0:	03000000 	movweq	r0, #0
     9a4:	11000005 	tstne	r0, r5
     9a8:	0000002c 	andeq	r0, r0, ip, lsr #32
     9ac:	f3090006 	vhadd.u8	d0, d9, d6
     9b0:	23000004 	movwcs	r0, #4
     9b4:	000002a5 	andeq	r0, r0, r5, lsr #5
     9b8:	010d3a01 	tsteq	sp, r1, lsl #20
     9bc:	0000054f 	andeq	r0, r0, pc, asr #10
     9c0:	01006c24 	tsteq	r0, r4, lsr #24
     9c4:	054f213a 	strbeq	r2, [pc, #-314]	; 892 <__code_start__-0x776e>
     9c8:	68240000 	stmdavs	r4!, {}	; <UNPREDICTABLE>
     9cc:	2b3a0100 	blcs	e80dd4 <__bss_end__+0xe76034>
     9d0:	0000021b 	andeq	r0, r0, fp, lsl r2
     9d4:	0000ab1d 	andeq	sl, r0, sp, lsl fp
     9d8:	00056500 	andeq	r6, r5, r0, lsl #10
     9dc:	60030500 	andvs	r0, r3, r0, lsl #10
     9e0:	250000a2 	strcs	r0, [r0, #-162]	; 0xffffff5e
     9e4:	000002f9 	strdeq	r0, [r0], -r9
     9e8:	1b0c3d01 	blne	30fdf4 <__bss_end__+0x305054>
     9ec:	26000002 	strcs	r0, [r0], -r2
     9f0:	45010070 	strmi	r0, [r1, #-112]	; 0xffffff90
     9f4:	00021b0c 	andeq	r1, r2, ip, lsl #22
     9f8:	04080000 	streq	r0, [r8], #-0
     9fc:	0000021b 	andeq	r0, r0, fp, lsl r2
     a00:	0000cc10 	andeq	ip, r0, r0, lsl ip
     a04:	00056500 	andeq	r6, r5, r0, lsl #10
     a08:	002c1100 	eoreq	r1, ip, r0, lsl #2
     a0c:	000b0000 	andeq	r0, fp, r0
     a10:	00055509 	andeq	r5, r5, r9, lsl #10
     a14:	02b11400 	adcseq	r1, r1, #0, 8
     a18:	2b010000 	blcs	40a20 <__bss_end__+0x35c80>
     a1c:	00021b08 	andeq	r1, r2, r8, lsl #22
     a20:	00817000 	addeq	r7, r1, r0
     a24:	00005c00 	andeq	r5, r0, r0, lsl #24
     a28:	2a9c0100 	bcs	fe700e30 <__bss_end__+0xfe6f6090>
     a2c:	1c000006 	stcne	0, cr0, [r0], {6}
     a30:	00727470 	rsbseq	r7, r2, r0, ror r4
     a34:	fb202b01 	blx	80b642 <__bss_end__+0x8008a2>
     a38:	37000001 	strcc	r0, [r0, -r1]
     a3c:	33000003 	movwcc	r0, #3
     a40:	27000003 	strcs	r0, [r0, -r3]
     a44:	00008178 	andeq	r8, r0, r8, ror r1
     a48:	00000044 	andeq	r0, r0, r4, asr #32
     a4c:	01006817 	tsteq	r0, r7, lsl r8
     a50:	021b112e 	andseq	r1, fp, #-2147483637	; 0x8000000b
     a54:	03570000 	cmpeq	r7, #0, 0
     a58:	03550000 	cmpeq	r5, #0, 0
     a5c:	46280000 	strtmi	r0, [r8], -r0
     a60:	78000007 	stmdavc	r0, {r0, r1, r2}
     a64:	02000081 	andeq	r0, r0, #129, 0	; 0x81
     a68:	00008178 	andeq	r8, r0, r8, ror r1
     a6c:	00000008 	andeq	r0, r0, r8
     a70:	29152e01 	ldmdbcs	r5, {r0, r9, sl, fp, sp}
     a74:	0000072a 	andeq	r0, r0, sl, lsr #14
     a78:	0000819c 	muleq	r0, ip, r1
     a7c:	00819c01 	addeq	r9, r1, r1, lsl #24
     a80:	00000400 	andeq	r0, r0, r0, lsl #8
     a84:	2c2e0100 	stfcss	f0, [lr], #-0
     a88:	000005ef 	andeq	r0, r0, pc, ror #11
     a8c:	00073b1f 	andeq	r3, r7, pc, lsl fp
     a90:	00036c00 	andeq	r6, r3, r0, lsl #24
     a94:	00036a00 	andeq	r6, r3, r0, lsl #20
     a98:	94180000 	ldrls	r0, [r8], #-0
     a9c:	2a000081 	bcs	ca8 <__code_start__-0x7358>
     aa0:	09000006 	stmdbeq	r0, {r1, r2}
     aa4:	19000006 	stmdbne	r0, {r1, r2}
     aa8:	74025001 	strvc	r5, [r2], #-1
     aac:	51011900 	tstpl	r1, r0, lsl #18
     ab0:	00007502 	andeq	r7, r0, r2, lsl #10
     ab4:	0081bc1a 	addeq	fp, r1, sl, lsl ip
     ab8:	00081c00 	andeq	r1, r8, r0, lsl #24
     abc:	50011900 	andpl	r1, r1, r0, lsl #18
     ac0:	a16c0305 	cmnge	ip, r5, lsl #6
     ac4:	01190000 	tsteq	r9, r0
     ac8:	00750251 	rsbseq	r0, r5, r1, asr r2
     acc:	02520119 	subseq	r0, r2, #1073741830	; 0x40000006
     ad0:	00000074 	andeq	r0, r0, r4, ror r0
     ad4:	02541400 	subseq	r1, r4, #0, 8
     ad8:	24010000 	strcs	r0, [r1], #-0
     adc:	00002c0a 	andeq	r2, r0, sl, lsl #24
     ae0:	00814c00 	addeq	r4, r1, r0, lsl #24
     ae4:	00002400 	andeq	r2, r0, r0, lsl #8
     ae8:	f29c0100 	vaddw.s16	q0, q6, d0
     aec:	1c000006 	stcne	0, cr0, [r0], {6}
     af0:	24010068 	strcs	r0, [r1], #-104	; 0xffffff98
     af4:	00021b21 	andeq	r1, r2, r1, lsr #22
     af8:	00038500 	andeq	r8, r3, r0, lsl #10
     afc:	00037f00 	andeq	r7, r3, r0, lsl #30
     b00:	74701600 	ldrbtvc	r1, [r0], #-1536	; 0xfffffa00
     b04:	24010072 	strcs	r0, [r1], #-114	; 0xffffff8e
     b08:	0001fb2a 	andeq	pc, r1, sl, lsr #22
     b0c:	17510100 	ldrbne	r0, [r1, -r0, lsl #2]
     b10:	006e696d 	rsbeq	r6, lr, sp, ror #18
     b14:	fb0b2601 	blx	2ca322 <__bss_end__+0x2bf582>
     b18:	ba000001 	blt	b24 <__code_start__-0x74dc>
     b1c:	b4000003 	strlt	r0, [r0], #-3
     b20:	17000003 	strne	r0, [r0, -r3]
     b24:	0078616d 	rsbseq	r6, r8, sp, ror #2
     b28:	fb0b2701 	blx	2ca736 <__bss_end__+0x2bf996>
     b2c:	f2000001 	vhadd.s8	d0, d0, d1
     b30:	ec000003 	stc	0, cr0, [r0], {3}
     b34:	1e000003 	cdpne	0, 0, cr0, cr0, cr3, {0}
     b38:	0000070e 	andeq	r0, r0, lr, lsl #14
     b3c:	0000814c 	andeq	r8, r0, ip, asr #2
     b40:	00000002 	andeq	r0, r0, r2
     b44:	11260100 			; <UNDEFINED> instruction: 0x11260100
     b48:	000006af 	andeq	r0, r0, pc, lsr #13
     b4c:	00071f1f 	andeq	r1, r7, pc, lsl pc
     b50:	00043a00 	andeq	r3, r4, r0, lsl #20
     b54:	00043800 	andeq	r3, r4, r0, lsl #16
     b58:	f22a0000 	vhadd.s32	d0, d10, d0
     b5c:	4c000006 	stcmi	0, cr0, [r0], {6}
     b60:	06000081 	streq	r0, [r0], -r1, lsl #1
     b64:	00000018 	andeq	r0, r0, r8, lsl r0
     b68:	1f112701 	svcne	0x00112701
     b6c:	00000703 	andeq	r0, r0, r3, lsl #14
     b70:	0000044f 	andeq	r0, r0, pc, asr #8
     b74:	0000044d 	andeq	r0, r0, sp, asr #8
     b78:	0007532b 	andeq	r5, r7, fp, lsr #6
     b7c:	00814c00 	addeq	r4, r1, r0, lsl #24
     b80:	814c0a00 	cmphi	ip, r0, lsl #20
     b84:	00000000 	andeq	r0, r0, r0
     b88:	20010000 	andcs	r0, r1, r0
     b8c:	07641f26 	strbeq	r1, [r4, -r6, lsr #30]!
     b90:	04640000 	strbteq	r0, [r4], #-0
     b94:	04620000 	strbteq	r0, [r2], #-0
     b98:	00000000 	andeq	r0, r0, r0
     b9c:	02ee2c00 	rsceq	r2, lr, #0, 24
     ba0:	1e010000 	cdpne	0, 0, cr0, cr1, cr0, {0}
     ba4:	0001fb07 	andeq	pc, r1, r7, lsl #22
     ba8:	070e0100 	streq	r0, [lr, -r0, lsl #2]
     bac:	68240000 	stmdavs	r4!, {}	; <UNPREDICTABLE>
     bb0:	191e0100 	ldmdbne	lr, {r8}
     bb4:	0000021b 	andeq	r0, r0, fp, lsl r2
     bb8:	02e12c00 	rsceq	r2, r1, #0, 24
     bbc:	18010000 	stmdane	r1, {}	; <UNPREDICTABLE>
     bc0:	0001fb07 	andeq	pc, r1, r7, lsl #22
     bc4:	072a0100 	streq	r0, [sl, -r0, lsl #2]!
     bc8:	68240000 	stmdavs	r4!, {}	; <UNPREDICTABLE>
     bcc:	1b180100 	blne	600fd4 <__bss_end__+0x5f6234>
     bd0:	0000021b 	andeq	r0, r0, fp, lsl r2
     bd4:	02c32c00 	sbceq	r2, r3, #0, 24
     bd8:	11010000 	mrsne	r0, (UNDEF: 1)
     bdc:	00021b08 	andeq	r1, r2, r8, lsl #22
     be0:	07460100 	strbeq	r0, [r6, -r0, lsl #2]
     be4:	70240000 	eorvc	r0, r4, r0
     be8:	1b110100 	blne	440ff0 <__bss_end__+0x436250>
     bec:	0000021b 	andeq	r0, r0, fp, lsl r2
     bf0:	028d2d00 	addeq	r2, sp, #0, 26
     bf4:	0b010000 	bleq	40bfc <__bss_end__+0x35e5c>
     bf8:	00021b08 	andeq	r1, r2, r8, lsl #22
     bfc:	fe2e0100 	cdp2	1, 2, cr0, cr14, cr0, {0}
     c00:	02000002 	andeq	r0, r0, #2, 0
     c04:	002c182e 	eoreq	r1, ip, lr, lsr #16
     c08:	6f030000 	svcvs	0x00030000
     c0c:	24000007 	strcs	r0, [r0], #-7
     c10:	2e020068 	cdpcs	0, 0, cr0, cr2, cr8, {3}
     c14:	00021b29 	andeq	r1, r2, r9, lsr #22
     c18:	462f0000 	strtmi	r0, [pc], -r0
     c1c:	18000007 	stmdane	r0, {r0, r1, r2}
     c20:	10000081 	andne	r0, r0, r1, lsl #1
     c24:	01000000 	mrseq	r0, (UNDEF: 0)
     c28:	072a309c 			; <UNDEFINED> instruction: 0x072a309c
     c2c:	81280000 			; <UNDEFINED> instruction: 0x81280000
     c30:	000c0000 	andeq	r0, ip, r0
     c34:	9c010000 	stcls	0, cr0, [r1], {-0}
     c38:	0000079f 	muleq	r0, pc, r7	; <UNPREDICTABLE>
     c3c:	00073b1f 	andeq	r3, r7, pc, lsl fp
     c40:	00047b00 	andeq	r7, r4, r0, lsl #22
     c44:	00047700 	andeq	r7, r4, r0, lsl #14
     c48:	0e300000 	cdpeq	0, 3, cr0, cr0, cr0, {0}
     c4c:	34000007 	strcc	r0, [r0], #-7
     c50:	08000081 	stmdaeq	r0, {r0, r7}
     c54:	01000000 	mrseq	r0, (UNDEF: 0)
     c58:	0007c09c 	muleq	r7, ip, r0
     c5c:	071f1f00 	ldreq	r1, [pc, -r0, lsl #30]
     c60:	04a00000 	strteq	r0, [r0], #0
     c64:	049c0000 	ldreq	r0, [ip], #0
     c68:	30000000 	andcc	r0, r0, r0
     c6c:	000006f2 	strdeq	r0, [r0], -r2
     c70:	0000813c 	andeq	r8, r0, ip, lsr r1
     c74:	00000010 	andeq	r0, r0, r0, lsl r0
     c78:	08049c01 	stmdaeq	r4, {r0, sl, fp, ip, pc}
     c7c:	031f0000 	tsteq	pc, #0, 0
     c80:	c5000007 	strgt	r0, [r0, #-7]
     c84:	c1000004 	tstgt	r0, r4
     c88:	2b000004 	blcs	ca0 <__code_start__-0x7360>
     c8c:	00000753 	andeq	r0, r0, r3, asr r7
     c90:	0000813c 	andeq	r8, r0, ip, lsr r1
     c94:	00813c03 	addeq	r3, r1, r3, lsl #24
     c98:	00000000 	andeq	r0, r0, r0
     c9c:	26200100 	strtcs	r0, [r0], -r0, lsl #2
     ca0:	0007641f 	andeq	r6, r7, pc, lsl r4
     ca4:	0004e800 	andeq	lr, r4, r0, lsl #16
     ca8:	0004e600 	andeq	lr, r4, r0, lsl #12
     cac:	31000000 	mrscc	r0, (UNDEF: 0)
     cb0:	00000308 	andeq	r0, r0, r8, lsl #6
     cb4:	00000308 	andeq	r0, r0, r8, lsl #6
     cb8:	31071e06 	tstcc	r7, r6, lsl #28
     cbc:	00000095 	muleq	r0, r5, r0
     cc0:	00000095 	muleq	r0, r5, r0
     cc4:	3107f204 	tstcc	r7, r4, lsl #4	; <UNPREDICTABLE>
     cc8:	00000595 	muleq	r0, r5, r5
     ccc:	00000595 	muleq	r0, r5, r5
     cd0:	31062804 	tstcc	r6, r4, lsl #16
     cd4:	00000063 	andeq	r0, r0, r3, rrx
     cd8:	00000063 	andeq	r0, r0, r3, rrx
     cdc:	31066e04 	tstcc	r6, r4, lsl #28
     ce0:	00000276 	andeq	r0, r0, r6, ror r2
     ce4:	00000276 	andeq	r0, r0, r6, ror r2
     ce8:	00061f06 	andeq	r1, r6, r6, lsl #30
     cec:	000002f1 	strdeq	r0, [r0], -r1
     cf0:	04c60004 	strbeq	r0, [r6], #4
     cf4:	01040000 	mrseq	r0, (UNDEF: 4)
     cf8:	00000150 	andeq	r0, r0, r0, asr r1
     cfc:	0003320c 	andeq	r3, r3, ip, lsl #4
     d00:	00011e00 	andeq	r1, r1, r0, lsl #28
     d04:	0083ac00 	addeq	sl, r3, r0, lsl #24
     d08:	00019000 	andeq	r9, r1, r0
     d0c:	00046300 	andeq	r6, r4, r0, lsl #6
     d10:	05040200 	streq	r0, [r4, #-512]	; 0xfffffe00
     d14:	00746e69 	rsbseq	r6, r4, r9, ror #28
     d18:	f1070403 			; <UNDEFINED> instruction: 0xf1070403
     d1c:	03000000 	movweq	r0, #0
     d20:	00570601 	subseq	r0, r7, r1, lsl #12
     d24:	02030000 	andeq	r0, r3, #0, 0
     d28:	00020b05 	andeq	r0, r2, r5, lsl #22
     d2c:	05040300 	streq	r0, [r4, #-768]	; 0xfffffd00
     d30:	00000115 	andeq	r0, r0, r5, lsl r1
     d34:	10050803 	andne	r0, r5, r3, lsl #16
     d38:	03000001 	movweq	r0, #1
     d3c:	00550801 	subseq	r0, r5, r1, lsl #16
     d40:	02030000 	andeq	r0, r3, #0, 0
     d44:	00007007 	andeq	r7, r0, r7
     d48:	07040300 	streq	r0, [r4, -r0, lsl #6]
     d4c:	000000ec 	andeq	r0, r0, ip, ror #1
     d50:	e7070803 	str	r0, [r7, -r3, lsl #16]
     d54:	04000000 	streq	r0, [r0], #-0
     d58:	00000025 	andeq	r0, r0, r5, lsr #32
     d5c:	0000007a 	andeq	r0, r0, sl, ror r0
     d60:	00002505 	andeq	r2, r0, r5, lsl #10
     d64:	31060000 	mrscc	r0, (UNDEF: 6)
     d68:	02000002 	andeq	r0, r0, #2, 0
     d6c:	00860e1c 	addeq	r0, r6, ip, lsl lr
     d70:	04070000 	streq	r0, [r7], #-0
     d74:	0000006b 	andeq	r0, r0, fp, rrx
     d78:	00002504 	andeq	r2, r0, r4, lsl #10
     d7c:	00009b00 	andeq	r9, r0, r0, lsl #22
     d80:	009b0500 	addseq	r0, fp, r0, lsl #10
     d84:	07000000 	streq	r0, [r0, -r0]
     d88:	0000a804 	andeq	sl, r0, r4, lsl #16
     d8c:	08010300 	stmdaeq	r1, {r8, r9}
     d90:	0000005e 	andeq	r0, r0, lr, asr r0
     d94:	0000a108 	andeq	sl, r0, r8, lsl #2
     d98:	05d30600 	ldrbeq	r0, [r3, #1536]	; 0x600
     d9c:	21020000 	mrscs	r0, (UNDEF: 2)
     da0:	0000b90e 	andeq	fp, r0, lr, lsl #18
     da4:	8c040700 	stchi	7, cr0, [r4], {-0}
     da8:	09000000 	stmdbeq	r0, {}	; <UNPREDICTABLE>
     dac:	0000031f 	andeq	r0, r0, pc, lsl r3
     db0:	07050108 	streq	r0, [r5, -r8, lsl #2]
     db4:	000000ec 	andeq	r0, r0, ip, ror #1
     db8:	0100640a 	tsteq	r0, sl, lsl #8
     dbc:	00ec0907 	rsceq	r0, ip, r7, lsl #18
     dc0:	700a0000 	andvc	r0, sl, r0
     dc4:	08080100 	stmdaeq	r8, {r8}
     dc8:	000000f3 	strdeq	r0, [r0], -r3
     dcc:	0070660a 	rsbseq	r6, r0, sl, lsl #12
     dd0:	f6090901 			; <UNDEFINED> instruction: 0xf6090901
     dd4:	00000000 	andeq	r0, r0, r0
     dd8:	3e040803 	cdpcc	8, 0, cr0, cr4, cr3, {0}
     ddc:	0b000003 	bleq	df0 <__code_start__-0x7210>
     de0:	04070c04 	streq	r0, [r7], #-3076	; 0xfffff3fc
     de4:	000000f5 	strdeq	r0, [r0], -r5
     de8:	0e01080d 	cdpeq	8, 0, cr0, cr1, cr13, {0}
     dec:	00012002 	andeq	r2, r1, r2
     df0:	74700e00 	ldrbtvc	r0, [r0], #-3584	; 0xfffff200
     df4:	10010072 	andne	r0, r1, r2, ror r0
     df8:	00014211 	andeq	r4, r1, r1, lsl r2
     dfc:	580f0000 	stmdapl	pc, {}	; <UNPREDICTABLE>
     e00:	01000003 	tsteq	r0, r3
     e04:	002c0c11 	eoreq	r0, ip, r1, lsl ip
     e08:	00040000 	andeq	r0, r4, r0
     e0c:	00031209 	andeq	r1, r3, r9, lsl #4
     e10:	0c010800 	stceq	8, cr0, [r1], {-0}
     e14:	0001420f 	andeq	r4, r1, pc, lsl #4
     e18:	00730a00 	rsbseq	r0, r3, r0, lsl #20
     e1c:	fc041201 	stc2	2, cr1, [r4], {1}
     e20:	0a000000 	beq	e28 <__code_start__-0x71d8>
     e24:	13010078 	movwne	r0, #4216	; 0x1078
     e28:	0000bf0e 	andeq	fp, r0, lr, lsl #30
     e2c:	04070000 	streq	r0, [r7], #-0
     e30:	00000120 	andeq	r0, r0, r0, lsr #2
     e34:	00035d10 	andeq	r5, r3, r0, lsl sp
     e38:	03140100 	tsteq	r4, #0
     e3c:	00000120 	andeq	r0, r0, r0, lsr #2
     e40:	00034511 	andeq	r4, r3, r1, lsl r5
     e44:	0f180100 	svceq	0x00180100
     e48:	00000148 	andeq	r0, r0, r8, asr #2
     e4c:	a9880305 	stmibge	r8, {r0, r2, r8, r9}
     e50:	25110000 	ldrcs	r0, [r1, #-0]
     e54:	01000003 	tsteq	r0, r3
     e58:	01781019 	cmneq	r8, r9, lsl r0
     e5c:	03050000 	movweq	r0, #20480	; 0x5000
     e60:	0000a980 	andeq	sl, r0, r0, lsl #19
     e64:	01480407 	cmpeq	r8, r7, lsl #8
     e68:	76120000 	ldrvc	r0, [r2], -r0
     e6c:	01000002 	tsteq	r0, r2
     e70:	83ac0653 			; <UNDEFINED> instruction: 0x83ac0653
     e74:	00a40000 	adceq	r0, r4, r0
     e78:	9c010000 	stcls	0, cr0, [r1], {-0}
     e7c:	000001c7 	andeq	r0, r0, r7, asr #3
     e80:	00706113 	rsbseq	r6, r0, r3, lsl r1
     e84:	f3145301 	vcgt.u16	d5, d4, d1
     e88:	01000000 	mrseq	r0, (UNDEF: 0)
     e8c:	70621450 	rsbvc	r1, r2, r0, asr r4
     e90:	0a550100 	beq	1541298 <__bss_end__+0x15364f8>
     e94:	00000178 	andeq	r0, r0, r8, ror r1
     e98:	000004ff 	strdeq	r0, [r0], -pc	; <UNPREDICTABLE>
     e9c:	000004fb 	strdeq	r0, [r0], -fp
     ea0:	01007014 	tsteq	r0, r4, lsl r0
     ea4:	01780f55 	cmneq	r8, r5, asr pc
     ea8:	05210000 	streq	r0, [r1, #-0]!
     eac:	051f0000 	ldreq	r0, [pc, #-0]	; eb4 <__code_start__-0x714c>
     eb0:	15000000 	strne	r0, [r0, #-0]
     eb4:	00000308 	andeq	r0, r0, r8, lsl #6
     eb8:	f3072b01 	vqrdmulh.s<illegal width 8>	d2, d7, d1
     ebc:	50000000 	andpl	r0, r0, r0
     ec0:	ec000084 	stc	0, cr0, [r0], {132}	; 0x84
     ec4:	01000000 	mrseq	r0, (UNDEF: 0)
     ec8:	0002a39c 	muleq	r2, ip, r3
     ecc:	03011600 	movweq	r1, #5632	; 0x1600
     ed0:	2b010000 	blcs	40ed8 <__bss_end__+0x36138>
     ed4:	00002c1a 	andeq	r2, r0, sl, lsl ip
     ed8:	00053800 	andeq	r3, r5, r0, lsl #16
     edc:	00053400 	andeq	r3, r5, r0, lsl #8
     ee0:	00701400 	rsbseq	r1, r0, r0, lsl #8
     ee4:	780a2d01 	stmdavc	sl, {r0, r8, sl, fp, sp}
     ee8:	65000001 	strvs	r0, [r0, #-1]
     eec:	59000005 	stmdbpl	r0, {r0, r2}
     ef0:	17000005 	strne	r0, [r0, -r5]
     ef4:	00000319 	andeq	r0, r0, r9, lsl r3
     ef8:	780e2d01 	stmdavc	lr, {r0, r8, sl, fp, sp}
     efc:	c3000001 	movwgt	r0, #1
     f00:	bb000005 	bllt	f1c <__code_start__-0x70e4>
     f04:	17000005 	strne	r0, [r0, -r5]
     f08:	0000032b 	andeq	r0, r0, fp, lsr #6
     f0c:	2c0b2e01 	stccs	14, cr2, [fp], {1}
     f10:	fe000000 	cdp2	0, 0, cr0, cr0, cr0, {0}
     f14:	fc000005 	stc2	0, cr0, [r0], {5}
     f18:	18000005 	stmdane	r0, {r0, r2}
     f1c:	000002a3 	andeq	r0, r0, r3, lsr #5
     f20:	00008510 	andeq	r8, r0, r0, lsl r5
     f24:	00007801 	andeq	r7, r0, r1, lsl #16
     f28:	0d4a0100 	stfeqe	f0, [sl, #-0]
     f2c:	0002b419 	andeq	fp, r2, r9, lsl r4
     f30:	00061500 	andeq	r1, r6, r0, lsl #10
     f34:	00061100 	andeq	r1, r6, r0, lsl #2
     f38:	00781a00 	rsbseq	r1, r8, r0, lsl #20
     f3c:	bf1b0000 	svclt	0x001b0000
     f40:	3f000002 	svccc	0x00000002
     f44:	39000006 	stmdbcc	r0, {r1, r2}
     f48:	1b000006 	blne	f68 <__code_start__-0x7098>
     f4c:	000002ca 	andeq	r0, r0, sl, asr #5
     f50:	0000066e 	andeq	r0, r0, lr, ror #12
     f54:	0000066a 	andeq	r0, r0, sl, ror #12
     f58:	0084e41c 	addeq	lr, r4, ip, lsl r4
     f5c:	00017e00 	andeq	r7, r1, r0, lsl #28
     f60:	851c1d00 	ldrhi	r1, [ip, #-3328]	; 0xfffff300
     f64:	02dc0000 	sbcseq	r0, ip, #0, 0
     f68:	028f0000 	addeq	r0, pc, #0, 0
     f6c:	011e0000 	tsteq	lr, r0
     f70:	00770250 	rsbseq	r0, r7, r0, asr r2
     f74:	0251011e 	subseq	r0, r1, #-2147483641	; 0x80000007
     f78:	1f000076 	svcne	0x00000076
     f7c:	00008524 	andeq	r8, r0, r4, lsr #10
     f80:	000002e8 	andeq	r0, r0, r8, ror #5
     f84:	0350011e 	cmpeq	r0, #-2147483641	; 0x80000007
     f88:	00243e40 	eoreq	r3, r4, r0, asr #28
     f8c:	20000000 	andcs	r0, r0, r0
     f90:	0000034f 	andeq	r0, r0, pc, asr #6
     f94:	78101c01 	ldmdavc	r0, {r0, sl, fp, ip}
     f98:	01000001 	tsteq	r0, r1
     f9c:	000002d6 	ldrdeq	r0, [r0], -r6
     fa0:	00756e21 	rsbseq	r6, r5, r1, lsr #28
     fa4:	2c221c01 	stccs	12, cr1, [r2], #-4
     fa8:	22000000 	andcs	r0, r0, #0, 0
     fac:	01007063 	tsteq	r0, r3, rrx
     fb0:	02d60821 	sbcseq	r0, r6, #2162688	; 0x210000
     fb4:	75220000 	strvc	r0, [r2, #-0]!
     fb8:	24010070 	strcs	r0, [r1], #-112	; 0xffffff90
     fbc:	0001780a 	andeq	r7, r1, sl, lsl #16
     fc0:	04070000 	streq	r0, [r7], #-0
     fc4:	000000a1 	andeq	r0, r0, r1, lsr #1
     fc8:	00059523 	andeq	r9, r5, r3, lsr #10
     fcc:	00059500 	andeq	r9, r5, r0, lsl #10
     fd0:	06280200 	strteq	r0, [r8], -r0, lsl #4
     fd4:	00034a23 	andeq	r4, r3, r3, lsr #20
     fd8:	00034a00 	andeq	r4, r3, r0, lsl #20
     fdc:	0b1a0300 	bleq	681be4 <__bss_end__+0x676e44>
     fe0:	000d8b00 	andeq	r8, sp, r0, lsl #22
     fe4:	d3000400 	movwle	r0, #1024	; 0x400
     fe8:	04000006 	streq	r0, [r0], #-6
     fec:	00015001 	andeq	r5, r1, r1
     ff0:	041e0c00 	ldreq	r0, [lr], #-3072	; 0xfffff400
     ff4:	011e0000 	tsteq	lr, r0
     ff8:	853c0000 	ldrhi	r0, [ip, #-0]!
     ffc:	05a40000 	streq	r0, [r4, #0]!
    1000:	068d0000 	streq	r0, [sp], r0
    1004:	04020000 	streq	r0, [r2], #-0
    1008:	746e6905 	strbtvc	r6, [lr], #-2309	; 0xfffff6fb
    100c:	07040300 	streq	r0, [r4, -r0, lsl #6]
    1010:	000000f1 	strdeq	r0, [r0], -r1
    1014:	57060103 	strpl	r0, [r6, -r3, lsl #2]
    1018:	03000000 	movweq	r0, #0
    101c:	020b0502 	andeq	r0, fp, #8388608	; 0x800000
    1020:	04030000 	streq	r0, [r3], #-0
    1024:	00011505 	andeq	r1, r1, r5, lsl #10
    1028:	05080300 	streq	r0, [r8, #-768]	; 0xfffffd00
    102c:	00000110 	andeq	r0, r0, r0, lsl r1
    1030:	0000fe04 	andeq	pc, r0, r4, lsl #28
    1034:	182e0300 	stmdane	lr!, {r8, r9}
    1038:	0000005b 	andeq	r0, r0, fp, asr r0
    103c:	55080103 	strpl	r0, [r8, #-259]	; 0xfffffefd
    1040:	04000000 	streq	r0, [r0], #-0
    1044:	0000021f 	andeq	r0, r0, pc, lsl r2
    1048:	6e193103 	mufvse	f3, f1, f3
    104c:	03000000 	movweq	r0, #0
    1050:	00700702 	rsbseq	r0, r0, r2, lsl #14
    1054:	28040000 	stmdacs	r4, {}	; <UNPREDICTABLE>
    1058:	03000002 	movweq	r0, #2
    105c:	00811934 	addeq	r1, r1, r4, lsr r9
    1060:	04030000 	streq	r0, [r3], #-0
    1064:	0000ec07 	andeq	lr, r0, r7, lsl #24
    1068:	07080300 	streq	r0, [r8, -r0, lsl #6]
    106c:	000000e7 	andeq	r0, r0, r7, ror #1
    1070:	00002505 	andeq	r2, r0, r5, lsl #10
    1074:	00009e00 	andeq	r9, r0, r0, lsl #28
    1078:	00250600 	eoreq	r0, r5, r0, lsl #12
    107c:	07000000 	streq	r0, [r0, -r0]
    1080:	00000231 	andeq	r0, r0, r1, lsr r2
    1084:	aa0e1c04 	bge	38809c <__bss_end__+0x37d2fc>
    1088:	08000000 	stmdaeq	r0, {}	; <UNPREDICTABLE>
    108c:	00008f04 	andeq	r8, r0, r4, lsl #30
    1090:	00250500 	eoreq	r0, r5, r0, lsl #10
    1094:	00bf0000 	adcseq	r0, pc, r0
    1098:	bf060000 	svclt	0x00060000
    109c:	00000000 	andeq	r0, r0, r0
    10a0:	00cc0408 	sbceq	r0, ip, r8, lsl #8
    10a4:	01030000 	mrseq	r0, (UNDEF: 3)
    10a8:	00005e08 	andeq	r5, r0, r8, lsl #28
    10ac:	00c50900 	sbceq	r0, r5, r0, lsl #18
    10b0:	d3070000 	movwle	r0, #28672	; 0x7000
    10b4:	04000005 	streq	r0, [r0], #-5
    10b8:	00dd0e21 	sbcseq	r0, sp, r1, lsr #28
    10bc:	04080000 	streq	r0, [r8], #-0
    10c0:	000000b0 	strheq	r0, [r0], -r0	; <UNPREDICTABLE>
    10c4:	04020c0a 	streq	r0, [r2], #-3082	; 0xfffff3f6
    10c8:	00011409 	andeq	r1, r1, r9, lsl #8
    10cc:	00500b00 	subseq	r0, r0, r0, lsl #22
    10d0:	06020000 	streq	r0, [r2], -r0
    10d4:	0000bf11 	andeq	fp, r0, r1, lsl pc
    10d8:	a60b0000 	strge	r0, [fp], -r0
    10dc:	02000000 	andeq	r0, r0, #0, 0
    10e0:	00bf1107 	adcseq	r1, pc, r7, lsl #2
    10e4:	0b040000 	bleq	1010ec <__bss_end__+0xf634c>
    10e8:	00000026 	andeq	r0, r0, r6, lsr #32
    10ec:	2c0e0802 	stccs	8, cr0, [lr], {2}
    10f0:	08000000 	stmdaeq	r0, {}	; <UNPREDICTABLE>
    10f4:	02150400 	andseq	r0, r5, #0, 8
    10f8:	09020000 	stmdbeq	r2, {}	; <UNPREDICTABLE>
    10fc:	0000e303 	andeq	lr, r0, r3, lsl #6
    1100:	01070c00 	tsteq	r7, r0, lsl #24
    1104:	0000005b 	andeq	r0, r0, fp, asr r0
    1108:	3b060a05 	blcc	183924 <__bss_end__+0x178b84>
    110c:	0d000001 	stceq	0, cr0, [r0, #-4]
    1110:	0000027e 	andeq	r0, r0, lr, ror r2
    1114:	026a0d80 	rsbeq	r0, sl, #128, 26	; 0x2000
    1118:	00fe0000 	rscseq	r0, lr, r0
    111c:	0000830e 	andeq	r8, r0, lr, lsl #6
    1120:	0d05a800 	stceq	8, cr10, [r5, #-0]
    1124:	0001be10 	andeq	fp, r1, r0, lsl lr
    1128:	00130b00 	andseq	r0, r3, r0, lsl #22
    112c:	0e050000 	cdpeq	0, 0, cr0, cr5, cr0, {0}
    1130:	0001be14 	andeq	fp, r1, r4, lsl lr
    1134:	430b0000 	movwmi	r0, #45056	; 0xb000
    1138:	05000000 	streq	r0, [r0, #-0]
    113c:	00750e0f 	rsbseq	r0, r5, pc, lsl #28
    1140:	0b040000 	bleq	101148 <__bss_end__+0xf63a8>
    1144:	00000020 	andeq	r0, r0, r0, lsr #32
    1148:	750e1005 	strvc	r1, [lr, #-5]
    114c:	08000000 	stmdaeq	r0, {}	; <UNPREDICTABLE>
    1150:	0000be0b 	andeq	fp, r0, fp, lsl #28
    1154:	0e140500 	cfmul32eq	mvfx0, mvfx4, mvfx0
    1158:	00000075 	andeq	r0, r0, r5, ror r0
    115c:	01060b0c 	tsteq	r6, ip, lsl #22
    1160:	16050000 	strne	r0, [r5], -r0
    1164:	0001140f 	andeq	r1, r1, pc, lsl #8
    1168:	3d0b1000 	stccc	0, cr1, [fp, #-0]
    116c:	05000002 	streq	r0, [r0, #-2]
    1170:	00750e19 	rsbseq	r0, r5, r9, lsl lr
    1174:	0b1c0000 	bleq	70117c <__bss_end__+0x6f63dc>
    1178:	00000248 	andeq	r0, r0, r8, asr #4
    117c:	750e1a05 	strvc	r1, [lr, #-2565]	; 0xfffff5fb
    1180:	20000000 	andcs	r0, r0, r0
    1184:	0003b40b 	andeq	fp, r3, fp, lsl #8
    1188:	0e1c0500 	cfmul32eq	mvfx0, mvfx12, mvfx0
    118c:	00000062 	andeq	r0, r0, r2, rrx
    1190:	7a720f24 	bvc	1c84e28 <__bss_end__+0x1c7a088>
    1194:	1e050031 	mcrne	0, 0, r0, cr5, cr1, {1}
    1198:	0001c40d 	andeq	ip, r1, sp, lsl #8
    119c:	08002600 	stmdaeq	r0, {r9, sl, sp}
    11a0:	00013b04 	andeq	r3, r1, r4, lsl #22
    11a4:	004f1000 	subeq	r1, pc, r0
    11a8:	01d40000 	bicseq	r0, r4, r0
    11ac:	2c110000 	ldccs	0, cr0, [r1], {-0}
    11b0:	7f000000 	svcvc	0x00000000
    11b4:	000d0400 	andeq	r0, sp, r0, lsl #8
    11b8:	1f050000 	svcne	0x00050000
    11bc:	00013b03 	andeq	r3, r1, r3, lsl #22
    11c0:	07041200 	streq	r1, [r4, -r0, lsl #4]
    11c4:	00000000 	andeq	r0, r0, r0
    11c8:	2c11a505 	cfldr32cs	mvfx10, [r1], {5}
    11cc:	13000000 	movwne	r0, #0
    11d0:	00000a3b 	andeq	r0, r0, fp, lsr sl
    11d4:	e00e1001 	and	r1, lr, r1
    11d8:	05000001 	streq	r0, [r0, #-1]
    11dc:	00a99003 	adceq	r9, r9, r3
    11e0:	0a9c1300 	beq	fe705de8 <__bss_end__+0xfe6fb048>
    11e4:	11010000 	mrsne	r0, (UNDEF: 1)
    11e8:	0001e00e 	andeq	lr, r1, lr
    11ec:	94030500 	strls	r0, [r3], #-1280	; 0xfffffb00
    11f0:	140000a9 	strne	r0, [r0], #-169	; 0xffffff57
    11f4:	00000377 	andeq	r0, r0, r7, ror r3
    11f8:	06011501 	streq	r1, [r1], -r1, lsl #10
    11fc:	00008ab4 			; <UNDEFINED> instruction: 0x00008ab4
    1200:	0000002c 	andeq	r0, r0, ip, lsr #32
    1204:	02729c01 	rsbseq	r9, r2, #256	; 0x100
    1208:	ab150000 	blge	541210 <__bss_end__+0x536470>
    120c:	82000000 	andhi	r0, r0, #0, 0
    1210:	05000002 	streq	r0, [r0, #-2]
    1214:	00a5e803 	adceq	lr, r5, r3, lsl #16
    1218:	8acc1600 	bhi	ff306a20 <__bss_end__+0xff2fbc80>
    121c:	0d070000 	stceq	0, cr0, [r7, #-0]
    1220:	02680000 	rsbeq	r0, r8, #0, 0
    1224:	01170000 	tsteq	r7, r0
    1228:	78030550 	stmdavc	r3, {r4, r6, r8, sl}
    122c:	170000a5 	strne	r0, [r0, -r5, lsr #1]
    1230:	03055101 	movweq	r5, #20737	; 0x5101
    1234:	0000a290 	muleq	r0, r0, r2
    1238:	05520117 	ldrbeq	r0, [r2, #-279]	; 0xfffffee9
    123c:	00a5e803 	adceq	lr, r5, r3, lsl #16
    1240:	53011700 	movwpl	r1, #5888	; 0x1700
    1244:	01170a03 	tsteq	r7, r3, lsl #20
    1248:	8ad01800 	bhi	ff407250 <__bss_end__+0xff3fc4b0>
    124c:	0d130000 	ldceq	0, cr0, [r3, #-0]
    1250:	10000000 	andne	r0, r0, r0
    1254:	000000cc 	andeq	r0, r0, ip, asr #1
    1258:	00000282 	andeq	r0, r0, r2, lsl #5
    125c:	00002c11 	andeq	r2, r0, r1, lsl ip
    1260:	09000e00 	stmdbeq	r0, {r9, sl, fp}
    1264:	00000272 	andeq	r0, r0, r2, ror r2
    1268:	0003c619 	andeq	ip, r3, r9, lsl r6
    126c:	010b0100 	mrseq	r0, (UNDEF: 27)
    1270:	00002c0a 	andeq	r2, r0, sl, lsl #24
    1274:	0089c800 	addeq	ip, r9, r0, lsl #16
    1278:	0000ec00 	andeq	lr, r0, r0, lsl #24
    127c:	029c0100 	addseq	r0, ip, #0
    1280:	1a000004 	bne	1298 <__code_start__-0x6d68>
    1284:	00000301 	andeq	r0, r0, r1, lsl #6
    1288:	0e010e01 	cdpeq	14, 0, cr0, cr1, cr1, {0}
    128c:	0000002c 	andeq	r0, r0, ip, lsr #32
    1290:	00000692 	muleq	r0, r2, r6
    1294:	0000068e 	andeq	r0, r0, lr, lsl #13
    1298:	0004021b 	andeq	r0, r4, fp, lsl r2
    129c:	0089d400 	addeq	sp, r9, r0, lsl #8
    12a0:	89d40100 	ldmibhi	r4, {r8}^
    12a4:	00b80000 	adcseq	r0, r8, r0
    12a8:	0e010000 	cdpeq	0, 0, cr0, cr1, cr0, {0}
    12ac:	03f81701 	mvnseq	r1, #262144	; 0x40000
    12b0:	131c0000 	tstne	ip, #0, 0
    12b4:	b6000004 	strlt	r0, [r0], -r4
    12b8:	b0000006 	andlt	r0, r0, r6
    12bc:	1c000006 	stcne	0, cr0, [r0], {6}
    12c0:	0000041f 	andeq	r0, r0, pc, lsl r4
    12c4:	000006e7 	andeq	r0, r0, r7, ror #13
    12c8:	000006e1 	andeq	r0, r0, r1, ror #13
    12cc:	00042b1c 	andeq	r2, r4, ip, lsl fp
    12d0:	00071800 	andeq	r1, r7, r0, lsl #16
    12d4:	00071200 	andeq	r1, r7, r0, lsl #4
    12d8:	04461d00 	strbeq	r1, [r6], #-3328	; 0xfffff300
    12dc:	01380000 	teqeq	r8, r0
    12e0:	039b0000 	orrseq	r0, fp, #0, 0
    12e4:	471c0000 	ldrmi	r0, [ip, -r0]
    12e8:	4b000004 	blmi	1300 <__code_start__-0x6d00>
    12ec:	43000007 	movwmi	r0, #7
    12f0:	1e000007 	cdpne	0, 0, cr0, cr0, cr7, {0}
    12f4:	00000c9f 	muleq	r0, pc, ip	; <UNPREDICTABLE>
    12f8:	00008a20 	andeq	r8, r0, r0, lsr #20
    12fc:	00015000 	andeq	r5, r1, r0
    1300:	01010100 	mrseq	r0, (UNDEF: 17)
    1304:	0003500d 	andeq	r5, r3, sp
    1308:	0cc81f00 	stcleq	15, cr1, [r8], {0}
    130c:	07810000 	streq	r0, [r1, r0]
    1310:	077f0000 	ldrbeq	r0, [pc, -r0]!
    1314:	bc1f0000 	ldclt	0, cr0, [pc], {-0}
    1318:	9900000c 	stmdbls	r0, {r2, r3}
    131c:	97000007 	strls	r0, [r0, -r7]
    1320:	1f000007 	svcne	0x00000007
    1324:	00000cb0 			; <UNDEFINED> instruction: 0x00000cb0
    1328:	000007b3 			; <UNDEFINED> instruction: 0x000007b3
    132c:	000007b1 			; <UNDEFINED> instruction: 0x000007b1
    1330:	89ec1800 	stmibhi	ip!, {fp, ip}^
    1334:	0d2e0000 	stceq	0, cr0, [lr, #-0]
    1338:	3c160000 	ldccc	0, cr0, [r6], {-0}
    133c:	3a00008a 	bcc	156c <__code_start__-0x6a94>
    1340:	6d00000d 	stcvs	0, cr0, [r0, #-52]	; 0xffffffcc
    1344:	17000003 	strne	r0, [r0, -r3]
    1348:	76025001 	strvc	r5, [r2], -r1
    134c:	48160000 	ldmdami	r6, {}	; <UNPREDICTABLE>
    1350:	0700008a 	streq	r0, [r0, -sl, lsl #1]
    1354:	8a00000d 	bhi	1390 <__code_start__-0x6c70>
    1358:	17000003 	strne	r0, [r0, -r3]
    135c:	03055001 	movweq	r5, #20481	; 0x5001
    1360:	0000a534 	andeq	sl, r0, r4, lsr r5
    1364:	02510117 	subseq	r0, r1, #-1073741819	; 0xc0000005
    1368:	20000076 	andcs	r0, r0, r6, ror r0
    136c:	00008a50 	andeq	r8, r0, r0, asr sl
    1370:	00000d46 	andeq	r0, r0, r6, asr #26
    1374:	02500117 	subseq	r0, r0, #-1073741819	; 0xc0000005
    1378:	00000074 	andeq	r0, r0, r4, ror r0
    137c:	0089dc16 	addeq	sp, r9, r6, lsl ip
    1380:	000d0700 	andeq	r0, sp, r0, lsl #14
    1384:	0003b200 	andeq	fp, r3, r0, lsl #4
    1388:	50011700 	andpl	r1, r1, r0, lsl #14
    138c:	a3280305 			; <UNDEFINED> instruction: 0xa3280305
    1390:	16000000 	strne	r0, [r0], -r0
    1394:	000089e4 	andeq	r8, r0, r4, ror #19
    1398:	00000d07 	andeq	r0, r0, r7, lsl #26
    139c:	000003c9 	andeq	r0, r0, r9, asr #7
    13a0:	05500117 	ldrbeq	r0, [r0, #-279]	; 0xfffffee9
    13a4:	00a52403 	adceq	r2, r5, r3, lsl #8
    13a8:	e8180000 	ldmda	r8, {}	; <UNPREDICTABLE>
    13ac:	c7000089 	strgt	r0, [r0, -r9, lsl #1]
    13b0:	20000007 	andcs	r0, r0, r7
    13b4:	00008a8c 	andeq	r8, r0, ip, lsl #21
    13b8:	00000d07 	andeq	r0, r0, r7, lsl #26
    13bc:	05500117 	ldrbeq	r0, [r0, #-279]	; 0xfffffee9
    13c0:	00a54403 	adceq	r4, r5, r3, lsl #8
    13c4:	51011700 	tstpl	r1, r0, lsl #14
    13c8:	17007702 	strne	r7, [r0, -r2, lsl #14]
    13cc:	78025201 	stmdavc	r2, {r0, r9, ip, lr}
    13d0:	53011700 	movwpl	r1, #5888	; 0x1700
    13d4:	00007502 	andeq	r7, r0, r2, lsl #10
    13d8:	89d41800 	ldmibhi	r4, {fp, ip}^
    13dc:	07c70000 	strbeq	r0, [r7, r0]
    13e0:	21000000 	mrscs	r0, (UNDEF: 0)
    13e4:	0000047d 	andeq	r0, r0, sp, ror r4
    13e8:	2c11f301 	ldccs	3, cr15, [r1], {1}
    13ec:	01000000 	mrseq	r0, (UNDEF: 0)
    13f0:	00000453 	andeq	r0, r0, r3, asr r4
    13f4:	00039422 	andeq	r9, r3, r2, lsr #8
    13f8:	0ef50100 	cdpeq	1, 15, cr0, cr5, cr0, {0}
    13fc:	0000002c 	andeq	r0, r0, ip, lsr #32
    1400:	00040922 	andeq	r0, r4, r2, lsr #18
    1404:	1bf50100 	blne	ffd4180c <__bss_end__+0xffd36a6c>
    1408:	0000002c 	andeq	r0, r0, ip, lsr #32
    140c:	0003a322 	andeq	sl, r3, r2, lsr #6
    1410:	27f50100 	ldrbcs	r0, [r5, r0, lsl #2]!
    1414:	0000002c 	andeq	r0, r0, ip, lsr #32
    1418:	0000ab15 	andeq	sl, r0, r5, lsl fp
    141c:	00046300 	andeq	r6, r4, r0, lsl #6
    1420:	dc030500 	cfstr32le	mvfx0, [r3], {-0}
    1424:	230000a5 	movwcs	r0, #165	; 0xa5
    1428:	01006824 	tsteq	r0, r4, lsr #16
    142c:	046811fa 	strbteq	r1, [r8], #-506	; 0xfffffe06
    1430:	00000000 	andeq	r0, r0, r0
    1434:	0000cc10 	andeq	ip, r0, r0, lsl ip
    1438:	00046300 	andeq	r6, r4, r0, lsl #6
    143c:	002c1100 	eoreq	r1, ip, r0, lsl #2
    1440:	000a0000 	andeq	r0, sl, r0
    1444:	00045309 	andeq	r5, r4, r9, lsl #6
    1448:	d4040800 	strle	r0, [r4], #-2048	; 0xfffff800
    144c:	25000001 	strcs	r0, [r0, #-1]
    1450:	00000426 	andeq	r0, r0, r6, lsr #8
    1454:	2c0ae301 	stccs	3, cr14, [sl], {1}
    1458:	78000000 	stmdavc	r0, {}	; <UNPREDICTABLE>
    145c:	50000089 	andpl	r0, r0, r9, lsl #1
    1460:	01000000 	mrseq	r0, (UNDEF: 0)
    1464:	0005379c 	muleq	r5, ip, r7
    1468:	03d62600 	bicseq	r2, r6, #0, 12
    146c:	e9010000 	stmdb	r1, {}	; <UNPREDICTABLE>
    1470:	00002c0e 	andeq	r2, r0, lr, lsl #24
    1474:	0007d100 	andeq	sp, r7, r0, lsl #2
    1478:	0007cb00 	andeq	ip, r7, r0, lsl #22
    147c:	00ab1500 	adceq	r1, fp, r0, lsl #10
    1480:	05470000 	strbeq	r0, [r7, #-0]
    1484:	03050000 	movweq	r0, #20480	; 0x5000
    1488:	0000a5c8 	andeq	sl, r0, r8, asr #11
    148c:	00060c27 	andeq	r0, r6, r7, lsr #24
    1490:	00897c00 	addeq	r7, r9, r0, lsl #24
    1494:	897c0200 	ldmdbhi	ip!, {r9}^
    1498:	00080000 	andeq	r0, r8, r0
    149c:	e9010000 	stmdb	r1, {}	; <UNPREDICTABLE>
    14a0:	0004e117 	andeq	lr, r4, r7, lsl r1
    14a4:	061d1f00 	ldreq	r1, [sp], -r0, lsl #30
    14a8:	07fc0000 	ldrbeq	r0, [ip, r0]!
    14ac:	07fa0000 	ldrbeq	r0, [sl, r0]!
    14b0:	84200000 	strthi	r0, [r0], #-0
    14b4:	2a000089 	bcs	16e0 <__code_start__-0x6920>
    14b8:	17000006 	strne	r0, [r0, -r6]
    14bc:	31015001 	tstcc	r1, r1
    14c0:	98160000 	ldmdals	r6, {}	; <UNPREDICTABLE>
    14c4:	07000089 	streq	r0, [r0, -r9, lsl #1]
    14c8:	fe00000d 	cdp2	0, 0, cr0, cr0, cr13, {0}
    14cc:	17000004 	strne	r0, [r0, -r4]
    14d0:	03055001 	movweq	r5, #20481	; 0x5001
    14d4:	0000a500 	andeq	sl, r0, r0, lsl #10
    14d8:	02510117 	subseq	r0, r1, #-1073741819	; 0xc0000005
    14dc:	16000074 			; <UNDEFINED> instruction: 0x16000074
    14e0:	000089b4 			; <UNDEFINED> instruction: 0x000089b4
    14e4:	00000d07 	andeq	r0, r0, r7, lsl #26
    14e8:	0000052d 	andeq	r0, r0, sp, lsr #10
    14ec:	05500117 	ldrbeq	r0, [r0, #-279]	; 0xfffffee9
    14f0:	00a4d803 	adceq	sp, r4, r3, lsl #16
    14f4:	51011700 	tstpl	r1, r0, lsl #14
    14f8:	a2900305 	addsge	r0, r0, #335544320	; 0x14000000
    14fc:	01170000 	tsteq	r7, r0
    1500:	c8030552 	stmdagt	r3, {r1, r4, r6, r8, sl}
    1504:	170000a5 	strne	r0, [r0, -r5, lsr #1]
    1508:	08025301 	stmdaeq	r2, {r0, r8, r9, ip, lr}
    150c:	b81800eb 	ldmdalt	r8, {r0, r1, r3, r5, r6, r7}
    1510:	13000089 	movwne	r0, #137	; 0x89
    1514:	0000000d 	andeq	r0, r0, sp
    1518:	0000cc10 	andeq	ip, r0, r0, lsl ip
    151c:	00054700 	andeq	r4, r5, r0, lsl #14
    1520:	002c1100 	eoreq	r1, ip, r0, lsl #2
    1524:	00110000 	andseq	r0, r1, r0
    1528:	00053709 	andeq	r3, r5, r9, lsl #14
    152c:	03fb2800 	mvnseq	r2, #0, 16
    1530:	d5010000 	strle	r0, [r1, #-0]
    1534:	00893006 	addeq	r3, r9, r6
    1538:	00004800 	andeq	r4, r0, r0, lsl #16
    153c:	f79c0100 			; <UNDEFINED> instruction: 0xf79c0100
    1540:	15000005 	strne	r0, [r0, #-5]
    1544:	000000ab 	andeq	r0, r0, fp, lsr #1
    1548:	00000607 	andeq	r0, r0, r7, lsl #12
    154c:	a5b80305 	ldrge	r0, [r8, #773]!	; 0x305
    1550:	0c270000 	stceq	0, cr0, [r7], #-0
    1554:	34000006 	strcc	r0, [r0], #-6
    1558:	02000089 	andeq	r0, r0, #137, 0	; 0x89
    155c:	00008934 	andeq	r8, r0, r4, lsr r9
    1560:	00000008 	andeq	r0, r0, r8
    1564:	a709db01 	strge	sp, [r9, -r1, lsl #22]
    1568:	1f000005 	svcne	0x00000005
    156c:	0000061d 	andeq	r0, r0, sp, lsl r6
    1570:	00000812 	andeq	r0, r0, r2, lsl r8
    1574:	00000810 	andeq	r0, r0, r0, lsl r8
    1578:	00893c20 	addeq	r3, r9, r0, lsr #24
    157c:	00062a00 	andeq	r2, r6, r0, lsl #20
    1580:	50011700 	andpl	r1, r1, r0, lsl #14
    1584:	00003101 	andeq	r3, r0, r1, lsl #2
    1588:	00894c16 	addeq	r4, r9, r6, lsl ip
    158c:	000d0700 	andeq	r0, sp, r0, lsl #14
    1590:	0005be00 	andeq	fp, r5, r0, lsl #28
    1594:	50011700 	andpl	r1, r1, r0, lsl #14
    1598:	a4b80305 	ldrtge	r0, [r8], #773	; 0x305
    159c:	16000000 	strne	r0, [r0], -r0
    15a0:	00008964 	andeq	r8, r0, r4, ror #18
    15a4:	00000d07 	andeq	r0, r0, r7, lsl #26
    15a8:	000005ed 	andeq	r0, r0, sp, ror #11
    15ac:	05500117 	ldrbeq	r0, [r0, #-279]	; 0xfffffee9
    15b0:	00a48c03 	adceq	r8, r4, r3, lsl #24
    15b4:	51011700 	tstpl	r1, r0, lsl #14
    15b8:	a2900305 	addsge	r0, r0, #335544320	; 0x14000000
    15bc:	01170000 	tsteq	r7, r0
    15c0:	b8030552 	stmdalt	r3, {r1, r4, r6, r8, sl}
    15c4:	170000a5 	strne	r0, [r0, -r5, lsr #1]
    15c8:	08025301 	stmdaeq	r2, {r0, r8, r9, ip, lr}
    15cc:	681800dc 	ldmdavs	r8, {r2, r3, r4, r6, r7}
    15d0:	13000089 	movwne	r0, #137	; 0x89
    15d4:	0000000d 	andeq	r0, r0, sp
    15d8:	0000cc10 	andeq	ip, r0, r0, lsl ip
    15dc:	00060700 	andeq	r0, r6, r0, lsl #14
    15e0:	002c1100 	eoreq	r1, ip, r0, lsl #2
    15e4:	000d0000 	andeq	r0, sp, r0
    15e8:	0005f709 	andeq	pc, r5, r9, lsl #14
    15ec:	002d2900 	eoreq	r2, sp, r0, lsl #18
    15f0:	ce010000 	cdpgt	0, 0, cr0, cr1, cr0, {0}
    15f4:	00002c0a 	andeq	r2, r0, sl, lsl #24
    15f8:	062a0100 	strteq	r0, [sl], -r0, lsl #2
    15fc:	882a0000 	stmdahi	sl!, {}	; <UNPREDICTABLE>
    1600:	01000004 	tsteq	r0, r4
    1604:	00251cce 	eoreq	r1, r5, lr, asr #25
    1608:	2b000000 	blcs	1610 <__code_start__-0x69f0>
    160c:	00000463 	andeq	r0, r0, r3, ror #8
    1610:	2c11a501 	cfldr32cs	mvfx10, [r1], {1}
    1614:	70000000 	andvc	r0, r0, r0
    1618:	10000087 	andne	r0, r0, r7, lsl #1
    161c:	01000001 	tsteq	r0, r1
    1620:	0007c79c 	muleq	r7, ip, r7
    1624:	04882c00 	streq	r2, [r8], #3072	; 0xc00
    1628:	a5010000 	strge	r0, [r1, #-0]
    162c:	00002520 	andeq	r2, r0, r0, lsr #10
    1630:	00082a00 	andeq	r2, r8, r0, lsl #20
    1634:	00082600 	andeq	r2, r8, r0, lsl #12
    1638:	03942600 	orrseq	r2, r4, #0, 12
    163c:	a7010000 	strge	r0, [r1, -r0]
    1640:	00002c0e 	andeq	r2, r0, lr, lsl #24
    1644:	00084e00 	andeq	r4, r8, r0, lsl #28
    1648:	00084800 	andeq	r4, r8, r0, lsl #16
    164c:	03bf2600 			; <UNDEFINED> instruction: 0x03bf2600
    1650:	a7010000 	strge	r0, [r1, -r0]
    1654:	00002c1b 	andeq	r2, r0, fp, lsl ip
    1658:	00087f00 	andeq	r7, r8, r0, lsl #30
    165c:	00087900 	andeq	r7, r8, r0, lsl #18
    1660:	03b92600 			; <UNDEFINED> instruction: 0x03b92600
    1664:	a7010000 	strge	r0, [r1, -r0]
    1668:	00002c27 	andeq	r2, r0, r7, lsr #24
    166c:	0008b000 	andeq	fp, r8, r0
    1670:	0008aa00 	andeq	sl, r8, r0, lsl #20
    1674:	01202d00 			; <UNDEFINED> instruction: 0x01202d00
    1678:	07090000 	streq	r0, [r9, -r0]
    167c:	682e0000 	stmdavs	lr!, {}	; <UNPREDICTABLE>
    1680:	11ac0100 			; <UNDEFINED> instruction: 0x11ac0100
    1684:	00000468 	andeq	r0, r0, r8, ror #8
    1688:	000008ed 	andeq	r0, r0, sp, ror #17
    168c:	000008db 	ldrdeq	r0, [r0], -fp
    1690:	00879018 	addeq	r9, r7, r8, lsl r0
    1694:	000d2e00 	andeq	r2, sp, r0, lsl #28
    1698:	87c41600 	strbhi	r1, [r4, r0, lsl #12]
    169c:	0d070000 	stceq	0, cr0, [r7, #-0]
    16a0:	06d80000 	ldrbeq	r0, [r8], r0
    16a4:	01170000 	tsteq	r7, r0
    16a8:	00790250 	rsbseq	r0, r9, r0, asr r2
    16ac:	02510117 	subseq	r0, r1, #-1073741819	; 0xc0000005
    16b0:	01170075 	tsteq	r7, r5, ror r0
    16b4:	00740252 	rsbseq	r0, r4, r2, asr r2
    16b8:	87cc1600 	strbhi	r1, [ip, r0, lsl #12]
    16bc:	0d460000 	stcleq	0, cr0, [r6, #-0]
    16c0:	06ec0000 	strbteq	r0, [ip], r0
    16c4:	01170000 	tsteq	r7, r0
    16c8:	00740250 	rsbseq	r0, r4, r0, asr r2
    16cc:	88002000 	stmdahi	r0, {sp}
    16d0:	0d070000 	stceq	0, cr0, [r7, #-0]
    16d4:	01170000 	tsteq	r7, r0
    16d8:	007a0250 	rsbseq	r0, sl, r0, asr r2
    16dc:	02510117 	subseq	r0, r1, #-1073741819	; 0xc0000005
    16e0:	01170075 	tsteq	r7, r5, ror r0
    16e4:	00740252 	rsbseq	r0, r4, r2, asr r2
    16e8:	80160000 	andshi	r0, r6, r0
    16ec:	07000087 	streq	r0, [r0, -r7, lsl #1]
    16f0:	2000000d 	andcs	r0, r0, sp
    16f4:	17000007 	strne	r0, [r0, -r7]
    16f8:	03055001 	movweq	r5, #20481	; 0x5001
    16fc:	0000a328 	andeq	sl, r0, r8, lsr #6
    1700:	87881600 	strhi	r1, [r8, r0, lsl #12]
    1704:	0d070000 	stceq	0, cr0, [r7, #-0]
    1708:	07370000 	ldreq	r0, [r7, -r0]!
    170c:	01170000 	tsteq	r7, r0
    1710:	64030550 	strvs	r0, [r3], #-1360	; 0xfffffab0
    1714:	000000a3 	andeq	r0, r0, r3, lsr #1
    1718:	00878c18 	addeq	r8, r7, r8, lsl ip
    171c:	0007c700 	andeq	ip, r7, r0, lsl #14
    1720:	88101600 	ldmdahi	r0, {r9, sl, ip}
    1724:	0d070000 	stceq	0, cr0, [r7, #-0]
    1728:	075d0000 	ldrbeq	r0, [sp, -r0]
    172c:	01170000 	tsteq	r7, r0
    1730:	a8030550 	stmdage	r3, {r4, r6, r8, sl}
    1734:	170000a3 	strne	r0, [r0, -r3, lsr #1]
    1738:	75025101 	strvc	r5, [r2, #-257]	; 0xfffffeff
    173c:	28160000 	ldmdacs	r6, {}	; <UNPREDICTABLE>
    1740:	07000088 	streq	r0, [r0, -r8, lsl #1]
    1744:	8000000d 	andhi	r0, r0, sp
    1748:	17000007 	strne	r0, [r0, -r7]
    174c:	03055001 	movweq	r5, #20481	; 0x5001
    1750:	0000a3f0 	strdeq	sl, [r0], -r0
    1754:	02510117 	subseq	r0, r1, #-1073741819	; 0xc0000005
    1758:	01170076 	tsteq	r7, r6, ror r0
    175c:	00770252 	rsbseq	r0, r7, r2, asr r2
    1760:	88381600 	ldmdahi	r8!, {r9, sl, ip}
    1764:	0d070000 	stceq	0, cr0, [r7, #-0]
    1768:	079c0000 	ldreq	r0, [ip, r0]
    176c:	01170000 	tsteq	r7, r0
    1770:	a8030550 	stmdage	r3, {r4, r6, r8, sl}
    1774:	170000a3 	strne	r0, [r0, -r3, lsr #1]
    1778:	30015101 	andcc	r5, r1, r1, lsl #2
    177c:	88481600 	stmdahi	r8, {r9, sl, ip}^
    1780:	0d070000 	stceq	0, cr0, [r7, #-0]
    1784:	07b30000 	ldreq	r0, [r3, r0]!
    1788:	01170000 	tsteq	r7, r0
    178c:	c8030550 	stmdagt	r3, {r4, r6, r8, sl}
    1790:	000000a3 	andeq	r0, r0, r3, lsr #1
    1794:	00885020 	addeq	r5, r8, r0, lsr #32
    1798:	000d0700 	andeq	r0, sp, r0, lsl #14
    179c:	50011700 	andpl	r1, r1, r0, lsl #14
    17a0:	a4200305 	strtge	r0, [r0], #-773	; 0xfffffcfb
    17a4:	00000000 	andeq	r0, r0, r0
    17a8:	00036e2f 	andeq	r6, r3, pc, lsr #28
    17ac:	0d790100 	ldfeqe	f0, [r9, #-0]
    17b0:	000086c8 	andeq	r8, r0, r8, asr #13
    17b4:	000000a8 	andeq	r0, r0, r8, lsr #1
    17b8:	08d39c01 	ldmeq	r3, {r0, sl, fp, ip, pc}^
    17bc:	d1130000 	tstle	r3, r0
    17c0:	01000003 	tsteq	r0, r3
    17c4:	08d30e85 	ldmeq	r3, {r0, r2, r7, r9, sl, fp}^
    17c8:	91030000 	mrsls	r0, (UNDEF: 3)
    17cc:	64307fb8 	ldrtvs	r7, [r0], #-4024	; 0xfffff048
    17d0:	01000003 	tsteq	r0, r3
    17d4:	08e30f96 	stmiaeq	r3!, {r1, r2, r4, r7, r8, r9, sl, fp}^
    17d8:	00000000 	andeq	r0, r0, r0
    17dc:	86070800 	strhi	r0, [r7], -r0, lsl #16
    17e0:	01000003 	tsteq	r0, r3
    17e4:	0075159b 			; <UNDEFINED> instruction: 0x0075159b
    17e8:	38070000 	stmdacc	r7, {}	; <UNPREDICTABLE>
    17ec:	01000004 	tsteq	r0, r4
    17f0:	0075249b 			; <UNDEFINED> instruction: 0x0075249b
    17f4:	6e070000 	cdpvs	0, 0, cr0, cr7, cr0, {0}
    17f8:	01000004 	tsteq	r0, r4
    17fc:	0075159e 			; <UNDEFINED> instruction: 0x0075159e
    1800:	e7070000 	str	r0, [r7, -r0]
    1804:	01000003 	tsteq	r0, r3
    1808:	0075259e 			; <UNDEFINED> instruction: 0x0075259e
    180c:	d0310000 	eorsle	r0, r1, r0
    1810:	28000086 	stmdacs	r0, {r1, r2, r7}
    1814:	5f000000 	svcpl	0x00000000
    1818:	2e000008 	cdpcs	0, 0, cr0, cr0, cr8, {0}
    181c:	7e010068 	cdpvc	0, 0, cr0, cr1, cr8, {3}
    1820:	00046811 	andeq	r6, r4, r1, lsl r8
    1824:	00095c00 	andeq	r5, r9, r0, lsl #24
    1828:	00095800 	andeq	r5, r9, r0, lsl #16
    182c:	86d41800 	ldrbhi	r1, [r4], r0, lsl #16
    1830:	0d2e0000 	stceq	0, cr0, [lr, #-0]
    1834:	f0180000 			; <UNDEFINED> instruction: 0xf0180000
    1838:	46000086 	strmi	r0, [r0], -r6, lsl #1
    183c:	0000000d 	andeq	r0, r0, sp
    1840:	00870016 	addeq	r0, r7, r6, lsl r0
    1844:	000d5200 	andeq	r5, sp, r0, lsl #4
    1848:	00087300 	andeq	r7, r8, r0, lsl #6
    184c:	50011700 	andpl	r1, r1, r0, lsl #14
    1850:	00007d02 	andeq	r7, r0, r2, lsl #26
    1854:	00872016 	addeq	r2, r7, r6, lsl r0
    1858:	0008e900 	andeq	lr, r8, r0, lsl #18
    185c:	00088d00 	andeq	r8, r8, r0, lsl #26
    1860:	50011700 	andpl	r1, r1, r0, lsl #14
    1864:	17007d02 	strne	r7, [r0, -r2, lsl #26]
    1868:	91025101 	tstls	r2, r1, lsl #2
    186c:	30160068 	andscc	r0, r6, r8, rrx
    1870:	07000087 	streq	r0, [r0, -r7, lsl #1]
    1874:	ab00000d 	blge	18b0 <__code_start__-0x6750>
    1878:	17000008 	strne	r0, [r0, -r8]
    187c:	03055001 	movweq	r5, #20481	; 0x5001
    1880:	0000a30c 	andeq	sl, r0, ip, lsl #6
    1884:	03520117 	cmpeq	r2, #-1073741819	; 0xc0000005
    1888:	00244740 	eoreq	r4, r4, r0, asr #14
    188c:	00873c16 	addeq	r3, r7, r6, lsl ip
    1890:	0008e900 	andeq	lr, r8, r0, lsl #18
    1894:	0008c000 	andeq	ip, r8, r0
    1898:	51011700 	tstpl	r1, r0, lsl #14
    189c:	24474003 	strbcs	r4, [r7], #-3
    18a0:	87481800 	strbhi	r1, [r8, -r0, lsl #16]
    18a4:	08e90000 	stmiaeq	r9!, {}^	; <UNPREDICTABLE>
    18a8:	54180000 	ldrpl	r0, [r8], #-0
    18ac:	e9000087 	stmdb	r0, {r0, r1, r2, r7}
    18b0:	00000008 	andeq	r0, r0, r8
    18b4:	00007510 	andeq	r7, r0, r0, lsl r5
    18b8:	0008e300 	andeq	lr, r8, r0, lsl #6
    18bc:	002c1100 	eoreq	r1, ip, r0, lsl #2
    18c0:	000f0000 	andeq	r0, pc, r0
    18c4:	00750408 	rsbseq	r0, r5, r8, lsl #8
    18c8:	b42f0000 	strtlt	r0, [pc], #-0	; 18d0 <__code_start__-0x6730>
    18cc:	01000003 	tsteq	r0, r3
    18d0:	853c0d50 	ldrhi	r0, [ip, #-3408]!	; 0xfffff2b0
    18d4:	018c0000 	orreq	r0, ip, r0
    18d8:	9c010000 	stcls	0, cr0, [r1], {-0}
    18dc:	00000b30 	andeq	r0, r0, r0, lsr fp
    18e0:	01007032 	tsteq	r0, r2, lsr r0
    18e4:	08e31c50 	stmiaeq	r3!, {r4, r6, sl, fp, ip}^
    18e8:	098c0000 	stmibeq	ip, {}	; <UNPREDICTABLE>
    18ec:	097a0000 	ldmdbeq	sl!, {}^	; <UNPREDICTABLE>
    18f0:	65320000 	ldrvs	r0, [r2, #-0]!
    18f4:	29500100 	ldmdbcs	r0, {r8}^
    18f8:	000008e3 	andeq	r0, r0, r3, ror #17
    18fc:	00000a09 	andeq	r0, r0, r9, lsl #20
    1900:	000009fd 	strdeq	r0, [r0], -sp
    1904:	0000ab15 	andeq	sl, r0, r5, lsl fp
    1908:	000b4000 	andeq	r4, fp, r0
    190c:	a8030500 	stmdage	r3, {r8, sl}
    1910:	2d0000a5 	stccs	0, cr0, [r0, #-660]	; 0xfffffd6c
    1914:	00000098 	muleq	r0, r8, r0
    1918:	00000a69 	andeq	r0, r0, r9, ror #20
    191c:	0100692e 	tsteq	r0, lr, lsr #18
    1920:	08e31458 	stmiaeq	r3!, {r3, r4, r6, sl, ip}^
    1924:	0a660000 	beq	198192c <__bss_end__+0x1976b8c>
    1928:	0a5c0000 	beq	1701930 <__bss_end__+0x16f6b90>
    192c:	b0330000 	eorslt	r0, r3, r0
    1930:	2e000000 	cdpcs	0, 0, cr0, cr0, cr0, {0}
    1934:	5a010062 	bpl	41ac4 <__bss_end__+0x36d24>
    1938:	00046810 	andeq	r6, r4, r0, lsl r8
    193c:	000aab00 	andeq	sl, sl, r0, lsl #22
    1940:	000aa500 	andeq	sl, sl, r0, lsl #10
    1944:	01002d00 	tsteq	r0, r0, lsl #26
    1948:	0a090000 	beq	241950 <__bss_end__+0x236bb0>
    194c:	652e0000 	strvs	r0, [lr, #-0]!
    1950:	01007078 	tsteq	r0, r8, ror r0
    1954:	0075165d 	rsbseq	r1, r5, sp, asr r6
    1958:	0ad80000 	beq	ff601960 <__bss_end__+0xff5f6bc0>
    195c:	0ad40000 	beq	ff501964 <__bss_end__+0xff4f6bc4>
    1960:	b0260000 	eorlt	r0, r6, r0
    1964:	01000003 	tsteq	r0, r3
    1968:	0062165e 	rsbeq	r1, r2, lr, asr r6
    196c:	0afa0000 	beq	ffe81974 <__bss_end__+0xffe76bd4>
    1970:	0af60000 	beq	ffd81978 <__bss_end__+0xffd76bd8>
    1974:	e4160000 	ldr	r0, [r6], #-0
    1978:	07000085 	streq	r0, [r0, -r5, lsl #1]
    197c:	ac00000d 	stcge	0, cr0, [r0], {13}
    1980:	17000009 	strne	r0, [r0, -r9]
    1984:	03055001 	movweq	r5, #20481	; 0x5001
    1988:	0000a2fc 	strdeq	sl, [r0], -ip
    198c:	862c1600 	strthi	r1, [ip], -r0, lsl #12
    1990:	0d5e0000 	ldcleq	0, cr0, [lr, #-0]
    1994:	09c00000 	stmibeq	r0, {}^	; <UNPREDICTABLE>
    1998:	01170000 	tsteq	r7, r0
    199c:	00750250 	rsbseq	r0, r5, r0, asr r2
    19a0:	86441600 	strbhi	r1, [r4], -r0, lsl #12
    19a4:	0d070000 	stceq	0, cr0, [r7, #-0]
    19a8:	09e10000 	stmibeq	r1!, {}^	; <UNPREDICTABLE>
    19ac:	01170000 	tsteq	r7, r0
    19b0:	007b0250 	rsbseq	r0, fp, r0, asr r2
    19b4:	02520117 	subseq	r0, r2, #-1073741819	; 0xc0000005
    19b8:	02170077 	andseq	r0, r7, #119, 0	; 0x77
    19bc:	7902007d 	stmdbvc	r2, {r0, r2, r3, r4, r5, r6}
    19c0:	78160000 	ldmdavc	r6, {}	; <UNPREDICTABLE>
    19c4:	07000086 	streq	r0, [r0, -r6, lsl #1]
    19c8:	f800000d 			; <UNDEFINED> instruction: 0xf800000d
    19cc:	17000009 	strne	r0, [r0, -r9]
    19d0:	03055001 	movweq	r5, #20481	; 0x5001
    19d4:	0000a2ec 	andeq	sl, r0, ip, ror #5
    19d8:	86942000 	ldrhi	r2, [r4], r0
    19dc:	08e90000 	stmiaeq	r9!, {}^	; <UNPREDICTABLE>
    19e0:	01170000 	tsteq	r7, r0
    19e4:	04750250 	ldrbteq	r0, [r5], #-592	; 0xfffffdb0
    19e8:	45340000 	ldrmi	r0, [r4, #-0]!
    19ec:	f400000b 	vst4.8	{d0-d3}, [r0], fp
    19f0:	00000085 	andeq	r0, r0, r5, lsl #1
    19f4:	000000d0 	ldrdeq	r0, [r0], -r0	; <UNPREDICTABLE>
    19f8:	1f145a01 	svcne	0x00145a01
    19fc:	00000b56 	andeq	r0, r0, r6, asr fp
    1a00:	00000b1a 	andeq	r0, r0, sl, lsl fp
    1a04:	00000b18 	andeq	r0, r0, r8, lsl fp
    1a08:	0000d033 	andeq	sp, r0, r3, lsr r0
    1a0c:	0b621c00 	bleq	1888a14 <__bss_end__+0x187dc74>
    1a10:	0b300000 	bleq	c01a18 <__bss_end__+0xbf6c78>
    1a14:	0b2e0000 	bleq	b81a1c <__bss_end__+0xb76c7c>
    1a18:	6d350000 	ldcvs	0, cr0, [r5, #-0]
    1a1c:	f800000b 			; <UNDEFINED> instruction: 0xf800000b
    1a20:	01000085 	smlabbeq	r0, r5, r0, r0
    1a24:	000000e8 	andeq	r0, r0, r8, ror #1
    1a28:	5c0a4001 	stcpl	0, cr4, [sl], {1}
    1a2c:	1f00000a 	svcne	0x0000000a
    1a30:	00000b7e 	andeq	r0, r0, lr, ror fp
    1a34:	00000b46 	andeq	r0, r0, r6, asr #22
    1a38:	00000b44 	andeq	r0, r0, r4, asr #22
    1a3c:	86141800 	ldrhi	r1, [r4], -r0, lsl #16
    1a40:	0d6a0000 	stcleq	0, cr0, [sl, #-0]
    1a44:	00000000 	andeq	r0, r0, r0
    1a48:	98160000 	ldmdals	r6, {}	; <UNPREDICTABLE>
    1a4c:	07000085 	streq	r0, [r0, -r5, lsl #1]
    1a50:	a200000d 	andge	r0, r0, #13, 0
    1a54:	1700000a 	strne	r0, [r0, -sl]
    1a58:	03055001 	movweq	r5, #20481	; 0x5001
    1a5c:	0000a1e4 	andeq	sl, r0, r4, ror #3
    1a60:	05510117 	ldrbeq	r0, [r1, #-279]	; 0xfffffee9
    1a64:	00a29003 	adceq	r9, r2, r3
    1a68:	52011700 	andpl	r1, r1, #0, 14
    1a6c:	a5a80305 	strge	r0, [r8, #773]!	; 0x305
    1a70:	01170000 	tsteq	r7, r0
    1a74:	52080253 	andpl	r0, r8, #805306373	; 0x30000005
    1a78:	007d0217 	rsbseq	r0, sp, r7, lsl r2
    1a7c:	a2980305 	addsge	r0, r8, #335544320	; 0x14000000
    1a80:	18000000 	stmdane	r0, {}	; <UNPREDICTABLE>
    1a84:	0000859c 	muleq	r0, ip, r5
    1a88:	00000d13 	andeq	r0, r0, r3, lsl sp
    1a8c:	0085b816 	addeq	fp, r5, r6, lsl r8
    1a90:	000d0700 	andeq	r0, sp, r0, lsl #14
    1a94:	000ae400 	andeq	lr, sl, r0, lsl #8
    1a98:	50011700 	andpl	r1, r1, r0, lsl #14
    1a9c:	a1e40305 	mvnge	r0, r5, lsl #6
    1aa0:	01170000 	tsteq	r7, r0
    1aa4:	90030551 	andls	r0, r3, r1, asr r5
    1aa8:	170000a2 	strne	r0, [r0, -r2, lsr #1]
    1aac:	03055201 	movweq	r5, #20993	; 0x5201
    1ab0:	0000a5a8 	andeq	sl, r0, r8, lsr #11
    1ab4:	02530117 	subseq	r0, r3, #-1073741819	; 0xc0000005
    1ab8:	02175508 	andseq	r5, r7, #8, 10	; 0x2000000
    1abc:	0305007d 	movweq	r0, #20605	; 0x507d
    1ac0:	0000a2a0 	andeq	sl, r0, r0, lsr #5
    1ac4:	85bc1800 	ldrhi	r1, [ip, #2048]!	; 0x800
    1ac8:	0d130000 	ldceq	0, cr0, [r3, #-0]
    1acc:	d8160000 	ldmdale	r6, {}	; <UNPREDICTABLE>
    1ad0:	07000085 	streq	r0, [r0, -r5, lsl #1]
    1ad4:	2600000d 	strcs	r0, [r0], -sp
    1ad8:	1700000b 	strne	r0, [r0, -fp]
    1adc:	03055001 	movweq	r5, #20481	; 0x5001
    1ae0:	0000a1e4 	andeq	sl, r0, r4, ror #3
    1ae4:	05510117 	ldrbeq	r0, [r1, #-279]	; 0xfffffee9
    1ae8:	00a29003 	adceq	r9, r2, r3
    1aec:	52011700 	andpl	r1, r1, #0, 14
    1af0:	a5a80305 	strge	r0, [r8, #773]!	; 0x305
    1af4:	01170000 	tsteq	r7, r0
    1af8:	56080253 			; <UNDEFINED> instruction: 0x56080253
    1afc:	007d0217 	rsbseq	r0, sp, r7, lsl r2
    1b00:	a2b00305 	adcsge	r0, r0, #335544320	; 0x14000000
    1b04:	18000000 	stmdane	r0, {}	; <UNPREDICTABLE>
    1b08:	000085dc 	ldrdeq	r8, [r0], -ip
    1b0c:	00000d13 	andeq	r0, r0, r3, lsl sp
    1b10:	00cc1000 	sbceq	r1, ip, r0
    1b14:	0b400000 	bleq	1001b1c <__bss_end__+0xff6d7c>
    1b18:	2c110000 	ldccs	0, cr0, [r1], {-0}
    1b1c:	04000000 	streq	r0, [r0], #-0
    1b20:	0b300900 	bleq	c03f28 <__bss_end__+0xbf9188>
    1b24:	f4210000 	vld4.8	{d0-d3}, [r1], r0
    1b28:	01000003 	tsteq	r0, r3
    1b2c:	04680f3c 	strbteq	r0, [r8], #-3900	; 0xfffff0c4
    1b30:	6d010000 	stcvs	0, cr0, [r1, #-0]
    1b34:	2a00000b 	bcs	1b68 <__code_start__-0x6498>
    1b38:	00000a52 	andeq	r0, r0, r2, asr sl
    1b3c:	751f3c01 	ldrvc	r3, [pc, #-3073]	; f43 <__code_start__-0x70bd>
    1b40:	24000000 	strcs	r0, [r0], #-0
    1b44:	3e010070 	mcrcc	0, 0, r0, cr1, cr0, {3}
    1b48:	0001e00b 	andeq	lr, r1, fp
    1b4c:	10210000 	eorne	r0, r1, r0
    1b50:	01000004 	tsteq	r0, r4
    1b54:	00250c2b 	eoreq	r0, r5, fp, lsr #24
    1b58:	89010000 	stmdbhi	r1, {}	; <UNPREDICTABLE>
    1b5c:	3600000b 	strcc	r0, [r0], -fp
    1b60:	2b010070 	blcs	41d28 <__bss_end__+0x36f88>
    1b64:	0001e01a 	andeq	lr, r1, sl, lsl r0
    1b68:	4a250000 	bmi	941b70 <__bss_end__+0x936dd0>
    1b6c:	01000003 	tsteq	r0, r3
    1b70:	01e00713 	mvneq	r0, r3, lsl r7
    1b74:	88800000 	stmhi	r0, {}	; <UNPREDICTABLE>
    1b78:	00a40000 	adceq	r0, r4, r0
    1b7c:	9c010000 	stcls	0, cr0, [r1], {-0}
    1b80:	00000c9f 	muleq	r0, pc, ip	; <UNPREDICTABLE>
    1b84:	0003dd2c 	andeq	sp, r3, ip, lsr #26
    1b88:	11130100 	tstne	r3, r0, lsl #2
    1b8c:	00000041 	andeq	r0, r0, r1, asr #32
    1b90:	00000b66 	andeq	r0, r0, r6, ror #22
    1b94:	00000b5a 	andeq	r0, r0, sl, asr fp
    1b98:	00039c13 	andeq	r9, r3, r3, lsl ip
    1b9c:	10150100 	andsne	r0, r5, r0, lsl #2
    1ba0:	00000025 	andeq	r0, r0, r5, lsr #32
    1ba4:	a9980305 	ldmibge	r8, {r0, r2, r8, r9}
    1ba8:	ab150000 	blge	541bb0 <__bss_end__+0x536e10>
    1bac:	40000000 	andmi	r0, r0, r0
    1bb0:	0500000b 	streq	r0, [r0, #-11]
    1bb4:	00a5b003 	adceq	fp, r5, r3
    1bb8:	88a03100 	stmiahi	r0!, {r8, ip, sp}
    1bbc:	00240000 	eoreq	r0, r4, r0
    1bc0:	0c120000 	ldceq	0, cr0, [r2], {-0}
    1bc4:	18260000 	stmdane	r6!, {}	; <UNPREDICTABLE>
    1bc8:	01000004 	tsteq	r0, r4
    1bcc:	002c121c 	eoreq	r1, ip, ip, lsl r2
    1bd0:	0bb20000 	bleq	fec81bd8 <__bss_end__+0xfec76e38>
    1bd4:	0bb00000 	bleq	fec01bdc <__bss_end__+0xfebf6e3c>
    1bd8:	bc200000 	stclt	0, cr0, [r0], #-0
    1bdc:	76000088 	strvc	r0, [r0], -r8, lsl #1
    1be0:	1700000d 	strne	r0, [r0, -sp]
    1be4:	40035001 	andmi	r5, r3, r1
    1be8:	01172440 	tsteq	r7, r0, asr #8
    1bec:	40400351 	submi	r0, r0, r1, asr r3
    1bf0:	16000024 	strne	r0, [r0], -r4, lsr #32
    1bf4:	000088cc 	andeq	r8, r0, ip, asr #17
    1bf8:	00000d82 	andeq	r0, r0, r2, lsl #27
    1bfc:	00000c26 	andeq	r0, r0, r6, lsr #24
    1c00:	02500117 	subseq	r0, r0, #-1073741819	; 0xc0000005
    1c04:	16000074 			; <UNDEFINED> instruction: 0x16000074
    1c08:	000088f0 	strdeq	r8, [r0], -r0
    1c0c:	00000d07 	andeq	r0, r0, r7, lsl #26
    1c10:	00000c5e 	andeq	r0, r0, lr, asr ip
    1c14:	05500117 	ldrbeq	r0, [r0, #-279]	; 0xfffffee9
    1c18:	00a1e403 	adceq	lr, r1, r3, lsl #8
    1c1c:	51011700 	tstpl	r1, r0, lsl #14
    1c20:	a2900305 	addsge	r0, r0, #335544320	; 0x14000000
    1c24:	01170000 	tsteq	r7, r0
    1c28:	b0030552 	andlt	r0, r3, r2, asr r5
    1c2c:	170000a5 	strne	r0, [r0, -r5, lsr #1]
    1c30:	47015301 	strmi	r5, [r1, -r1, lsl #6]
    1c34:	007d0217 	rsbseq	r0, sp, r7, lsl r2
    1c38:	a45c0305 	ldrbge	r0, [ip], #-773	; 0xfffffcfb
    1c3c:	18000000 	stmdane	r0, {}	; <UNPREDICTABLE>
    1c40:	000088f4 	strdeq	r8, [r0], -r4
    1c44:	00000d13 	andeq	r0, r0, r3, lsl sp
    1c48:	00890816 	addeq	r0, r9, r6, lsl r8
    1c4c:	000d0700 	andeq	r0, sp, r0, lsl #14
    1c50:	000c9500 	andeq	r9, ip, r0, lsl #10
    1c54:	50011700 	andpl	r1, r1, r0, lsl #14
    1c58:	a46c0305 	strbtge	r0, [ip], #-773	; 0xfffffcfb
    1c5c:	01170000 	tsteq	r7, r0
    1c60:	90030551 	andls	r0, r3, r1, asr r5
    1c64:	170000a2 	strne	r0, [r0, -r2, lsr #1]
    1c68:	03055201 	movweq	r5, #20993	; 0x5201
    1c6c:	0000a5b0 			; <UNDEFINED> instruction: 0x0000a5b0
    1c70:	01530117 	cmpeq	r3, r7, lsl r1
    1c74:	0c180049 	ldceq	0, cr0, [r8], {73}	; 0x49
    1c78:	13000089 	movwne	r0, #137	; 0x89
    1c7c:	0000000d 	andeq	r0, r0, sp
    1c80:	00008a21 	andeq	r8, r0, r1, lsr #20
    1c84:	0b0c0200 	bleq	30248c <__bss_end__+0x2f76ec>
    1c88:	00000114 	andeq	r0, r0, r4, lsl r1
    1c8c:	000cd503 	andeq	sp, ip, r3, lsl #10
    1c90:	00502a00 	subseq	r2, r0, r0, lsl #20
    1c94:	0c020000 	stceq	0, cr0, [r2], {-0}
    1c98:	0000bf22 	andeq	fp, r0, r2, lsr #30
    1c9c:	00a62a00 	adceq	r2, r6, r0, lsl #20
    1ca0:	0c020000 	stceq	0, cr0, [r2], {-0}
    1ca4:	0000bf34 	andeq	fp, r0, r4, lsr pc
    1ca8:	00262a00 	eoreq	r2, r6, r0, lsl #20
    1cac:	0c020000 	stceq	0, cr0, [r2], {-0}
    1cb0:	00002c43 	andeq	r2, r0, r3, asr #24
    1cb4:	0c370000 	ldceq	0, cr0, [r7], #-0
    1cb8:	24000006 	strcs	r0, [r0], #-6
    1cbc:	0c000089 	stceq	0, cr0, [r0], {137}	; 0x89
    1cc0:	01000000 	mrseq	r0, (UNDEF: 0)
    1cc4:	000d079c 	muleq	sp, ip, r7
    1cc8:	061d1f00 	ldreq	r1, [sp], -r0, lsl #30
    1ccc:	0bcc0000 	bleq	ff301cd4 <__bss_end__+0xff2f6f34>
    1cd0:	0bc80000 	bleq	ff201cd8 <__bss_end__+0xff1f6f38>
    1cd4:	2c200000 	stccs	0, cr0, [r0], #-0
    1cd8:	2a000089 	bcs	1f04 <__code_start__-0x60fc>
    1cdc:	17000006 	strne	r0, [r0, -r6]
    1ce0:	f3035001 	vhadd.u8	d5, d3, d1
    1ce4:	00005001 	andeq	r5, r0, r1
    1ce8:	00059538 	andeq	r9, r5, r8, lsr r5
    1cec:	00059500 	andeq	r9, r5, r0, lsl #10
    1cf0:	06280400 	strteq	r0, [r8], -r0, lsl #8
    1cf4:	00006338 	andeq	r6, r0, r8, lsr r3
    1cf8:	00006300 	andeq	r6, r0, r0, lsl #6
    1cfc:	066e0400 	strbteq	r0, [lr], -r0, lsl #8
    1d00:	0b9e0d39 	bleq	fe7851ec <__bss_end__+0xfe77a44c>
    1d04:	65657773 	strbvs	r7, [r5, #-1907]!	; 0xfffff88d
    1d08:	72665f70 	rsbvc	r5, r6, #112, 30	; 0x1c0
    1d0c:	38006565 	stmdacc	r0, {r0, r2, r5, r6, r8, sl, sp, lr}
    1d10:	0000028d 	andeq	r0, r0, sp, lsl #5
    1d14:	0000028d 	andeq	r0, r0, sp, lsl #5
    1d18:	38082805 	stmdacc	r8, {r0, r2, fp, sp}
    1d1c:	00000204 	andeq	r0, r0, r4, lsl #4
    1d20:	00000204 	andeq	r0, r0, r4, lsl #4
    1d24:	38074a05 	stmdacc	r7, {r0, r2, r9, fp, lr}
    1d28:	000002c3 	andeq	r0, r0, r3, asr #5
    1d2c:	000002c3 	andeq	r0, r0, r3, asr #5
    1d30:	38082b05 	stmdacc	r8, {r0, r2, r8, r9, fp, sp}
    1d34:	000003cc 	andeq	r0, r0, ip, asr #7
    1d38:	000003cc 	andeq	r0, r0, ip, asr #7
    1d3c:	38067601 	stmdacc	r6, {r0, r9, sl, ip, sp, lr}
    1d40:	000002e1 	andeq	r0, r0, r1, ror #5
    1d44:	000002e1 	andeq	r0, r0, r1, ror #5
    1d48:	38073205 	stmdacc	r7, {r0, r2, r9, ip, sp}
    1d4c:	000002b1 			; <UNDEFINED> instruction: 0x000002b1
    1d50:	000002b1 			; <UNDEFINED> instruction: 0x000002b1
    1d54:	38084505 	stmdacc	r8, {r0, r2, r8, sl, lr}
    1d58:	0000044c 	andeq	r0, r0, ip, asr #8
    1d5c:	0000044c 	andeq	r0, r0, ip, asr #8
    1d60:	38068204 	stmdacc	r6, {r2, r9, pc}
    1d64:	00000444 	andeq	r0, r0, r4, asr #8
    1d68:	00000444 	andeq	r0, r0, r4, asr #8
    1d6c:	00077b04 	andeq	r7, r7, r4, lsl #22
    1d70:	00000140 	andeq	r0, r0, r0, asr #2
    1d74:	0a6b0004 	beq	1ac1d8c <__bss_end__+0x1ab6fec>
    1d78:	01040000 	mrseq	r0, (UNDEF: 4)
    1d7c:	000004b3 			; <UNDEFINED> instruction: 0x000004b3
    1d80:	0004a30c 	andeq	sl, r4, ip, lsl #6
    1d84:	00056b00 	andeq	r6, r5, r0, lsl #22
    1d88:	008ae800 	addeq	lr, sl, r0, lsl #16
    1d8c:	00007800 	andeq	r7, r0, r0, lsl #16
    1d90:	000bc800 	andeq	ip, fp, r0, lsl #16
    1d94:	05040200 	streq	r0, [r4, #-512]	; 0xfffffe00
    1d98:	00746e69 	rsbseq	r6, r4, r9, ror #28
    1d9c:	00049c03 	andeq	r9, r4, r3, lsl #24
    1da0:	17d10300 	ldrbne	r0, [r1, r0, lsl #6]
    1da4:	00000038 	andeq	r0, r0, r8, lsr r0
    1da8:	f1070404 			; <UNDEFINED> instruction: 0xf1070404
    1dac:	04000000 	streq	r0, [r0], #-0
    1db0:	00570601 	subseq	r0, r7, r1, lsl #12
    1db4:	02040000 	andeq	r0, r4, #0, 0
    1db8:	00020b05 	andeq	r0, r2, r5, lsl #22
    1dbc:	05040400 	streq	r0, [r4, #-1024]	; 0xfffffc00
    1dc0:	00000115 	andeq	r0, r0, r5, lsl r1
    1dc4:	10050804 	andne	r0, r5, r4, lsl #16
    1dc8:	04000001 	streq	r0, [r0], #-1
    1dcc:	00550801 	subseq	r0, r5, r1, lsl #16
    1dd0:	02040000 	andeq	r0, r4, #0, 0
    1dd4:	00007007 	andeq	r7, r0, r7
    1dd8:	07040400 	streq	r0, [r4, -r0, lsl #8]
    1ddc:	000000ec 	andeq	r0, r0, ip, ror #1
    1de0:	e7070804 	str	r0, [r7, -r4, lsl #16]
    1de4:	05000000 	streq	r0, [r0, #-0]
    1de8:	00000025 	andeq	r0, r0, r5, lsr #32
    1dec:	00000086 	andeq	r0, r0, r6, lsl #1
    1df0:	00002506 	andeq	r2, r0, r6, lsl #10
    1df4:	31070000 	mrscc	r0, (UNDEF: 7)
    1df8:	02000002 	andeq	r0, r0, #2, 0
    1dfc:	00920e1c 	addseq	r0, r2, ip, lsl lr
    1e00:	04080000 	streq	r0, [r8], #-0
    1e04:	00000077 	andeq	r0, r0, r7, ror r0
    1e08:	00002505 	andeq	r2, r0, r5, lsl #10
    1e0c:	0000a700 	andeq	sl, r0, r0, lsl #14
    1e10:	00a70600 	adceq	r0, r7, r0, lsl #12
    1e14:	08000000 	stmdaeq	r0, {}	; <UNPREDICTABLE>
    1e18:	0000b404 	andeq	fp, r0, r4, lsl #8
    1e1c:	08010400 	stmdaeq	r1, {sl}
    1e20:	0000005e 	andeq	r0, r0, lr, asr r0
    1e24:	0000ad09 	andeq	sl, r0, r9, lsl #26
    1e28:	05d30700 	ldrbeq	r0, [r3, #1792]	; 0x700
    1e2c:	21020000 	mrscs	r0, (UNDEF: 2)
    1e30:	0000c50e 	andeq	ip, r0, lr, lsl #10
    1e34:	98040800 	stmdals	r4, {fp}
    1e38:	0a000000 	beq	1e40 <__code_start__-0x61c0>
    1e3c:	00000095 	muleq	r0, r5, r0
    1e40:	3b070401 	blcc	1c2e4c <__bss_end__+0x1b80ac>
    1e44:	e8000001 	stmda	r0, {r0}
    1e48:	7800008a 	stmdavc	r0, {r1, r3, r7}
    1e4c:	01000000 	mrseq	r0, (UNDEF: 0)
    1e50:	00013b9c 	muleq	r1, ip, fp
    1e54:	705f0b00 	subsvc	r0, pc, r0, lsl #22
    1e58:	14040100 	strne	r0, [r4], #-256	; 0xffffff00
    1e5c:	0000013b 	andeq	r0, r0, fp, lsr r1
    1e60:	630c5001 	movwvs	r5, #49153	; 0xc001
    1e64:	1c040100 	stfnes	f0, [r4], {-0}
    1e68:	00000025 	andeq	r0, r0, r5, lsr #32
    1e6c:	00000bf1 	strdeq	r0, [r0], -r1
    1e70:	00000bed 	andeq	r0, r0, sp, ror #23
    1e74:	01006e0c 	tsteq	r0, ip, lsl #28
    1e78:	002c2604 	eoreq	r2, ip, r4, lsl #12
    1e7c:	0c160000 	ldceq	0, cr0, [r6], {-0}
    1e80:	0c120000 	ldceq	0, cr0, [r2], {-0}
    1e84:	700d0000 	andvc	r0, sp, r0
    1e88:	0b050100 	bleq	142290 <__bss_end__+0x1374f0>
    1e8c:	0000013d 	andeq	r0, r0, sp, lsr r1
    1e90:	00000c45 	andeq	r0, r0, r5, asr #24
    1e94:	00000c37 	andeq	r0, r0, r7, lsr ip
    1e98:	0100650d 	tsteq	r0, sp, lsl #10
    1e9c:	013d1405 	teqeq	sp, r5, lsl #8
    1ea0:	0ca20000 	stceq	0, cr0, [r2]
    1ea4:	0ca00000 	stceq	0, cr0, [r0]
    1ea8:	0e000000 	cdpeq	0, 0, cr0, cr0, cr0, {0}
    1eac:	ad040804 	stcge	8, cr0, [r4, #-16]
    1eb0:	00000000 	andeq	r0, r0, r0
    1eb4:	0000019d 	muleq	r0, sp, r1
    1eb8:	0b370004 	bleq	dc1ed0 <__bss_end__+0xdb7130>
    1ebc:	01040000 	mrseq	r0, (UNDEF: 4)
    1ec0:	000004b3 			; <UNDEFINED> instruction: 0x000004b3
    1ec4:	0005b00c 	andeq	fp, r5, ip
    1ec8:	00056b00 	andeq	r6, r5, r0, lsl #22
    1ecc:	008b6000 	addeq	r6, fp, r0
    1ed0:	00005800 	andeq	r5, r0, r0, lsl #16
    1ed4:	000ced00 	andeq	lr, ip, r0, lsl #26
    1ed8:	059c0200 	ldreq	r0, [ip, #512]	; 0x200
    1edc:	28020000 	stmdacs	r2, {}	; <UNPREDICTABLE>
    1ee0:	0000311b 	andeq	r3, r0, fp, lsl r1
    1ee4:	05c00300 	strbeq	r0, [r0, #768]	; 0x300
    1ee8:	04040000 	streq	r0, [r4], #-0
    1eec:	00004800 	andeq	r4, r0, r0, lsl #16
    1ef0:	05ab0400 	streq	r0, [fp, #1024]!	; 0x400
    1ef4:	00480000 	subeq	r0, r8, r0
    1ef8:	00000000 	andeq	r0, r0, r0
    1efc:	c2020405 	andgt	r0, r2, #83886080	; 0x5000000
    1f00:	02000005 	andeq	r0, r0, #5, 0
    1f04:	00251863 	eoreq	r1, r5, r3, ror #16
    1f08:	04060000 	streq	r0, [r6], #-0
    1f0c:	746e6905 	strbtvc	r6, [lr], #-2309	; 0xfffff6fb
    1f10:	07040700 	streq	r0, [r4, -r0, lsl #14]
    1f14:	000000f1 	strdeq	r0, [r0], -r1
    1f18:	57060107 	strpl	r0, [r6, -r7, lsl #2]
    1f1c:	07000000 	streq	r0, [r0, -r0]
    1f20:	020b0502 	andeq	r0, fp, #8388608	; 0x800000
    1f24:	04070000 	streq	r0, [r7], #-0
    1f28:	00011505 	andeq	r1, r1, r5, lsl #10
    1f2c:	05080700 	streq	r0, [r8, #-1792]	; 0xfffff900
    1f30:	00000110 	andeq	r0, r0, r0, lsl r1
    1f34:	55080107 	strpl	r0, [r8, #-263]	; 0xfffffef9
    1f38:	07000000 	streq	r0, [r0, -r0]
    1f3c:	00700702 	rsbseq	r0, r0, r2, lsl #14
    1f40:	04070000 	streq	r0, [r7], #-0
    1f44:	0000ec07 	andeq	lr, r0, r7, lsl #24
    1f48:	07080700 	streq	r0, [r8, -r0, lsl #14]
    1f4c:	000000e7 	andeq	r0, r0, r7, ror #1
    1f50:	00005608 	andeq	r5, r0, r8, lsl #12
    1f54:	0000ab00 	andeq	sl, r0, r0, lsl #22
    1f58:	00560900 	subseq	r0, r6, r0, lsl #18
    1f5c:	0a000000 	beq	1f64 <__code_start__-0x609c>
    1f60:	00000231 	andeq	r0, r0, r1, lsr r2
    1f64:	b70e1c03 	strlt	r1, [lr, -r3, lsl #24]
    1f68:	0b000000 	bleq	1f70 <__code_start__-0x6090>
    1f6c:	00009c04 	andeq	r9, r0, r4, lsl #24
    1f70:	00560800 	subseq	r0, r6, r0, lsl #16
    1f74:	00cc0000 	sbceq	r0, ip, r0
    1f78:	cc090000 	stcgt	0, cr0, [r9], {-0}
    1f7c:	00000000 	andeq	r0, r0, r0
    1f80:	00d9040b 	sbcseq	r0, r9, fp, lsl #8
    1f84:	01070000 	mrseq	r0, (UNDEF: 7)
    1f88:	00005e08 	andeq	r5, r0, r8, lsl #28
    1f8c:	00d20c00 	sbcseq	r0, r2, r0, lsl #24
    1f90:	d30a0000 	movwle	r0, #40960	; 0xa000
    1f94:	03000005 	movweq	r0, #5
    1f98:	00ea0e21 	rsceq	r0, sl, r1, lsr #28
    1f9c:	040b0000 	streq	r0, [fp], #-0
    1fa0:	000000bd 	strheq	r0, [r0], -sp
    1fa4:	0005950d 	andeq	r9, r5, sp, lsl #10
    1fa8:	05060100 	streq	r0, [r6, #-256]	; 0xffffff00
    1fac:	00000056 	andeq	r0, r0, r6, asr r0
    1fb0:	00008b60 	andeq	r8, r0, r0, ror #22
    1fb4:	00000058 	andeq	r0, r0, r8, asr r0
    1fb8:	01839c01 	orreq	r9, r3, r1, lsl #24
    1fbc:	660e0000 	strvs	r0, [lr], -r0
    1fc0:	0100746d 	tsteq	r0, sp, ror #8
    1fc4:	00cc1806 	sbceq	r1, ip, r6, lsl #16
    1fc8:	91020000 	mrsls	r0, (UNDEF: 2)
    1fcc:	62100f70 	andsvs	r0, r0, #112, 30	; 0x1c0
    1fd0:	01006675 	tsteq	r0, r5, ror r6
    1fd4:	01831108 	orreq	r1, r3, r8, lsl #2
    1fd8:	03050000 	movweq	r0, #20480	; 0x5000
    1fdc:	0000a99c 	muleq	r0, ip, r9
    1fe0:	00058d11 	andeq	r8, r5, r1, lsl sp
    1fe4:	0d090100 	stfeqs	f0, [r9, #-0]
    1fe8:	0000004a 	andeq	r0, r0, sl, asr #32
    1fec:	125c9102 	subsne	r9, ip, #-2147483648	; 0x80000000
    1ff0:	01007a73 	tsteq	r0, r3, ror sl
    1ff4:	00560d0c 	subseq	r0, r6, ip, lsl #26
    1ff8:	0cbb0000 	ldceq	0, cr0, [fp]
    1ffc:	0cb50000 	ldceq	0, cr0, [r5]
    2000:	88130000 	ldmdahi	r3, {}	; <UNPREDICTABLE>
    2004:	9400008b 	strls	r0, [r0], #-139	; 0xffffff75
    2008:	76000001 	strvc	r0, [r0], -r1
    200c:	14000001 	strne	r0, [r0], #-1
    2010:	75025001 	strvc	r5, [r2, #-1]
    2014:	51011400 	tstpl	r1, r0, lsl #8
    2018:	04000a03 	streq	r0, [r0], #-2563	; 0xfffff5fd
    201c:	03520114 	cmpeq	r2, #5
    2020:	14064891 	strne	r4, [r6], #-2193	; 0xfffff76f
    2024:	91025301 	tstls	r2, r1, lsl #6
    2028:	9c15004c 	ldcls	0, cr0, [r5], {76}	; 0x4c
    202c:	1400008b 	strne	r0, [r0], #-139	; 0xffffff75
    2030:	75025001 	strvc	r5, [r2, #-1]
    2034:	16000000 	strne	r0, [r0], -r0
    2038:	000000d2 	ldrdeq	r0, [r0], -r2
    203c:	00000194 	muleq	r0, r4, r1
    2040:	00005d17 	andeq	r5, r0, r7, lsl sp
    2044:	0003ff00 	andeq	pc, r3, r0, lsl #30
    2048:	00059218 	andeq	r9, r5, r8, lsl r2
    204c:	00059200 	andeq	r9, r5, r0, lsl #4
    2050:	05020500 	streq	r0, [r2, #-1280]	; 0xfffffb00
    2054:	0000f300 	andeq	pc, r0, r0, lsl #6
    2058:	79000400 	stmdbvc	r0, {sl}
    205c:	0400000c 	streq	r0, [r0], #-12
    2060:	0004b301 	andeq	fp, r4, r1, lsl #6
    2064:	05d80c00 	ldrbeq	r0, [r8, #3072]	; 0xc00
    2068:	056b0000 	strbeq	r0, [fp, #-0]!
    206c:	8bb80000 	blhi	fee02074 <__bss_end__+0xfedf72d4>
    2070:	00380000 	eorseq	r0, r8, r0
    2074:	0e110000 	cdpeq	0, 1, cr0, cr1, cr0, {0}
    2078:	04020000 	streq	r0, [r2], #-0
    207c:	746e6905 	strbtvc	r6, [lr], #-2309	; 0xfffff6fb
    2080:	07040300 	streq	r0, [r4, -r0, lsl #6]
    2084:	000000f1 	strdeq	r0, [r0], -r1
    2088:	57060103 	strpl	r0, [r6, -r3, lsl #2]
    208c:	03000000 	movweq	r0, #0
    2090:	020b0502 	andeq	r0, fp, #8388608	; 0x800000
    2094:	04030000 	streq	r0, [r3], #-0
    2098:	00011505 	andeq	r1, r1, r5, lsl #10
    209c:	05080300 	streq	r0, [r8, #-768]	; 0xfffffd00
    20a0:	00000110 	andeq	r0, r0, r0, lsl r1
    20a4:	55080103 	strpl	r0, [r8, #-259]	; 0xfffffefd
    20a8:	03000000 	movweq	r0, #0
    20ac:	00700702 	rsbseq	r0, r0, r2, lsl #14
    20b0:	04030000 	streq	r0, [r3], #-0
    20b4:	0000ec07 	andeq	lr, r0, r7, lsl #24
    20b8:	07080300 	streq	r0, [r8, -r0, lsl #6]
    20bc:	000000e7 	andeq	r0, r0, r7, ror #1
    20c0:	00002504 	andeq	r2, r0, r4, lsl #10
    20c4:	00007a00 	andeq	r7, r0, r0, lsl #20
    20c8:	00250500 	eoreq	r0, r5, r0, lsl #10
    20cc:	06000000 	streq	r0, [r0], -r0
    20d0:	00000231 	andeq	r0, r0, r1, lsr r2
    20d4:	860e1c02 	strhi	r1, [lr], -r2, lsl #24
    20d8:	07000000 	streq	r0, [r0, -r0]
    20dc:	00006b04 	andeq	r6, r0, r4, lsl #22
    20e0:	00250400 	eoreq	r0, r5, r0, lsl #8
    20e4:	009b0000 	addseq	r0, fp, r0
    20e8:	9b050000 	blls	1420f0 <__bss_end__+0x137350>
    20ec:	00000000 	andeq	r0, r0, r0
    20f0:	00a80407 	adceq	r0, r8, r7, lsl #8
    20f4:	01030000 	mrseq	r0, (UNDEF: 3)
    20f8:	00005e08 	andeq	r5, r0, r8, lsl #28
    20fc:	00a10800 	adceq	r0, r1, r0, lsl #16
    2100:	d3060000 	movwle	r0, #24576	; 0x6000
    2104:	02000005 	andeq	r0, r0, #5, 0
    2108:	00b90e21 	adcseq	r0, r9, r1, lsr #28
    210c:	04070000 	streq	r0, [r7], #-0
    2110:	0000008c 	andeq	r0, r0, ip, lsl #1
    2114:	0000ad09 	andeq	sl, r0, r9, lsl #26
    2118:	070c0100 	streq	r0, [ip, -r0, lsl #2]
    211c:	a9640305 	stmdbge	r4!, {r0, r2, r8, r9}^
    2120:	ca0a0000 	bgt	282128 <__bss_end__+0x277388>
    2124:	01000005 	tsteq	r0, r5
    2128:	00250504 	eoreq	r0, r5, r4, lsl #10
    212c:	8bb80000 	blhi	fee02134 <__bss_end__+0xfedf7394>
    2130:	00380000 	eorseq	r0, r8, r0
    2134:	9c010000 	stcls	0, cr0, [r1], {-0}
    2138:	0100700b 	tsteq	r0, fp
    213c:	009b1f04 	addseq	r1, fp, r4, lsl #30
    2140:	0cec0000 	stcleq	0, cr0, [ip]
    2144:	0ce40000 	stcleq	0, cr0, [r4]
    2148:	00000000 	andeq	r0, r0, r0
    214c:	00000c7f 	andeq	r0, r0, pc, ror ip
    2150:	0d170004 	ldceq	0, cr0, [r7, #-16]
    2154:	01040000 	mrseq	r0, (UNDEF: 4)
    2158:	000004b3 			; <UNDEFINED> instruction: 0x000004b3
    215c:	0005f70c 	andeq	pc, r5, ip, lsl #14
    2160:	00056b00 	andeq	r6, r5, r0, lsl #22
    2164:	008bf000 	addeq	pc, fp, r0
    2168:	0009b400 	andeq	fp, r9, r0, lsl #8
    216c:	000eb500 	andeq	fp, lr, r0, lsl #10
    2170:	07080200 	streq	r0, [r8, -r0, lsl #4]
    2174:	000000e7 	andeq	r0, r0, r7, ror #1
    2178:	f1070402 			; <UNDEFINED> instruction: 0xf1070402
    217c:	03000000 	movweq	r0, #0
    2180:	6e690504 	cdpvs	5, 6, cr0, cr9, cr4, {0}
    2184:	01020074 	tsteq	r2, r4, ror r0
    2188:	00005706 	andeq	r5, r0, r6, lsl #14
    218c:	05020200 	streq	r0, [r2, #-512]	; 0xfffffe00
    2190:	0000020b 	andeq	r0, r0, fp, lsl #4
    2194:	15050402 	strne	r0, [r5, #-1026]	; 0xfffffbfe
    2198:	02000001 	andeq	r0, r0, #1, 0
    219c:	01100508 	tsteq	r0, r8, lsl #10
    21a0:	01020000 	mrseq	r0, (UNDEF: 2)
    21a4:	00005508 	andeq	r5, r0, r8, lsl #10
    21a8:	07020200 	streq	r0, [r2, -r0, lsl #4]
    21ac:	00000070 	andeq	r0, r0, r0, ror r0
    21b0:	00022804 	andeq	r2, r2, r4, lsl #16
    21b4:	19340200 	ldmdbne	r4!, {r9}
    21b8:	00000070 	andeq	r0, r0, r0, ror r0
    21bc:	ec070402 	cfstrs	mvf0, [r7], {2}
    21c0:	04000000 	streq	r0, [r0], #-0
    21c4:	000005ee 	andeq	r0, r0, lr, ror #11
    21c8:	25193702 	ldrcs	r3, [r9, #-1794]	; 0xfffff8fe
    21cc:	05000000 	streq	r0, [r0, #-0]
    21d0:	00000033 	andeq	r0, r0, r3, lsr r0
    21d4:	00000092 	muleq	r0, r2, r0
    21d8:	00003306 	andeq	r3, r0, r6, lsl #6
    21dc:	31070000 	mrscc	r0, (UNDEF: 7)
    21e0:	03000002 	movweq	r0, #2
    21e4:	009e0e1c 	addseq	r0, lr, ip, lsl lr
    21e8:	04080000 	streq	r0, [r8], #-0
    21ec:	00000083 	andeq	r0, r0, r3, lsl #1
    21f0:	00003305 	andeq	r3, r0, r5, lsl #6
    21f4:	0000b300 	andeq	fp, r0, r0, lsl #6
    21f8:	00b30600 	adcseq	r0, r3, r0, lsl #12
    21fc:	08000000 	stmdaeq	r0, {}	; <UNPREDICTABLE>
    2200:	0000c004 	andeq	ip, r0, r4
    2204:	08010200 	stmdaeq	r1, {r9}
    2208:	0000005e 	andeq	r0, r0, lr, asr r0
    220c:	0000b909 	andeq	fp, r0, r9, lsl #18
    2210:	05d30700 	ldrbeq	r0, [r3, #1792]	; 0x700
    2214:	21030000 	mrscs	r0, (UNDEF: 3)
    2218:	0000d10e 	andeq	sp, r0, lr, lsl #2
    221c:	a4040800 	strge	r0, [r4], #-2048	; 0xfffff800
    2220:	07000000 	streq	r0, [r0, -r0]
    2224:	0000060a 	andeq	r0, r0, sl, lsl #12
    2228:	b90d0b04 	stmdblt	sp, {r2, r8, r9, fp}
    222c:	07000000 	streq	r0, [r0, -r0]
    2230:	00000663 	andeq	r0, r0, r3, ror #12
    2234:	b90d0c04 	stmdblt	sp, {r2, sl, fp}
    2238:	07000000 	streq	r0, [r0, -r0]
    223c:	00000386 	andeq	r0, r0, r6, lsl #7
    2240:	b90d0d04 	stmdblt	sp, {r2, r8, sl, fp}
    2244:	07000000 	streq	r0, [r0, -r0]
    2248:	00000438 	andeq	r0, r0, r8, lsr r4
    224c:	b90d0e04 	stmdblt	sp, {r2, r9, sl, fp}
    2250:	07000000 	streq	r0, [r0, -r0]
    2254:	0000046e 	andeq	r0, r0, lr, ror #8
    2258:	b90d0f04 	stmdblt	sp, {r2, r8, r9, sl, fp}
    225c:	07000000 	streq	r0, [r0, -r0]
    2260:	000003e7 	andeq	r0, r0, r7, ror #7
    2264:	b90d1004 	stmdblt	sp, {r2, ip}
    2268:	07000000 	streq	r0, [r0, -r0]
    226c:	0000068c 	andeq	r0, r0, ip, lsl #13
    2270:	b90d1104 	stmdblt	sp, {r2, r8, ip}
    2274:	07000000 	streq	r0, [r0, -r0]
    2278:	00000627 	andeq	r0, r0, r7, lsr #12
    227c:	b90d1204 	stmdblt	sp, {r2, r9, ip}
    2280:	04000000 	streq	r0, [r0], #-0
    2284:	0000059c 	muleq	r0, ip, r5
    2288:	431b2805 	tstmi	fp, #327680	; 0x50000
    228c:	0a000001 	beq	2298 <__code_start__-0x5d68>
    2290:	000005c0 	andeq	r0, r0, r0, asr #11
    2294:	5a000604 	bpl	3aac <__code_start__-0x4554>
    2298:	0b000001 	bleq	22a4 <__code_start__-0x5d5c>
    229c:	000005ab 	andeq	r0, r0, fp, lsr #11
    22a0:	0000015a 	andeq	r0, r0, sl, asr r1
    22a4:	040c0000 	streq	r0, [ip], #-0
    22a8:	0005c204 	andeq	ip, r5, r4, lsl #4
    22ac:	18630500 	stmdane	r3!, {r8, sl}^
    22b0:	00000137 	andeq	r0, r0, r7, lsr r1
    22b4:	0005920d 	andeq	r9, r5, sp, lsl #4
    22b8:	05810100 	streq	r0, [r1, #256]	; 0x100
    22bc:	00000033 	andeq	r0, r0, r3, lsr r0
    22c0:	00008f78 	andeq	r8, r0, r8, ror pc
    22c4:	0000062c 	andeq	r0, r0, ip, lsr #12
    22c8:	086a9c01 	stmdaeq	sl!, {r0, sl, fp, ip, pc}^
    22cc:	620e0000 	andvs	r0, lr, #0, 0
    22d0:	01006675 	tsteq	r0, r5, ror r6
    22d4:	086a1581 	stmdaeq	sl!, {r0, r7, r8, sl, ip}^
    22d8:	0d2c0000 	stceq	0, cr0, [ip, #-0]
    22dc:	0d220000 	stceq	0, cr0, [r2, #-0]
    22e0:	6e0e0000 	cdpvs	0, 0, cr0, cr14, cr0, {0}
    22e4:	1e810100 	rmfnes	f0, f1, f0
    22e8:	00000033 	andeq	r0, r0, r3, lsr r0
    22ec:	00000d79 	andeq	r0, r0, r9, ror sp
    22f0:	00000d71 	andeq	r0, r0, r1, ror sp
    22f4:	746d660e 	strbtvc	r6, [sp], #-1550	; 0xfffff9f2
    22f8:	2d810100 	stfcss	f0, [r1]
    22fc:	000000b3 	strheq	r0, [r0], -r3
    2300:	00000dcb 	andeq	r0, r0, fp, asr #27
    2304:	00000db3 			; <UNDEFINED> instruction: 0x00000db3
    2308:	00058d0f 	andeq	r8, r5, pc, lsl #26
    230c:	3a810100 	bcc	fe042714 <__bss_end__+0xfe037974>
    2310:	0000015c 	andeq	r0, r0, ip, asr r1
    2314:	00000e8d 	andeq	r0, r0, sp, lsl #29
    2318:	00000e5f 	andeq	r0, r0, pc, asr lr
    231c:	01007010 	tsteq	r0, r0, lsl r0
    2320:	086a0882 	stmdaeq	sl!, {r1, r7, fp}^
    2324:	0fe00000 	svceq	0x00e00000
    2328:	0fca0000 	svceq	0x00ca0000
    232c:	65100000 	ldrvs	r0, [r0, #-0]
    2330:	12820100 	addne	r0, r2, #0
    2334:	0000086a 	andeq	r0, r0, sl, ror #16
    2338:	00001069 	andeq	r1, r0, r9, rrx
    233c:	00001067 	andeq	r1, r0, r7, rrx
    2340:	00307810 	eorseq	r7, r0, r0, lsl r8
    2344:	640e8301 	strvs	r8, [lr], #-769	; 0xfffffcff
    2348:	82000000 	andhi	r0, r0, #0, 0
    234c:	7c000010 	stcvc	0, cr0, [r0], {16}
    2350:	10000010 	andne	r0, r0, r0, lsl r0
    2354:	01003178 	tsteq	r0, r8, ror r1
    2358:	00641183 	rsbeq	r1, r4, r3, lsl #3
    235c:	10b10000 	adcsne	r0, r1, r0
    2360:	10ab0000 	adcne	r0, fp, r0
    2364:	45110000 	ldrmi	r0, [r1, #-0]
    2368:	01000006 	tsteq	r0, r6
    236c:	00b31186 	adcseq	r1, r3, r6, lsl #3
    2370:	10e20000 	rscne	r0, r2, r0
    2374:	10da0000 	sbcsne	r0, sl, r0
    2378:	ab120000 	blge	482380 <__bss_end__+0x4775e0>
    237c:	80000000 	andhi	r0, r0, r0
    2380:	05000008 	streq	r0, [r0, #-8]
    2384:	00a75003 	adceq	r5, r7, r3
    2388:	01d01300 	bicseq	r1, r0, r0, lsl #6
    238c:	73100000 	tstvc	r0, #0, 0
    2390:	0a910100 	beq	fe442798 <__bss_end__+0xfe4379f8>
    2394:	0000086a 	andeq	r0, r0, sl, ror #16
    2398:	00001128 	andeq	r1, r0, r8, lsr #2
    239c:	0000111c 	andeq	r1, r0, ip, lsl r1
    23a0:	6d756e14 	ldclvs	14, cr6, [r5, #-80]!	; 0xffffffb0
    23a4:	0d910100 	ldfeqs	f0, [r1]
    23a8:	00000885 	andeq	r0, r0, r5, lsl #17
    23ac:	7dd89103 	ldfvcp	f1, [r8, #12]
    23b0:	00069915 	andeq	r9, r6, r5, lsl r9
    23b4:	17910100 	ldrne	r0, [r1, r0, lsl #2]
    23b8:	00000885 	andeq	r0, r0, r5, lsl #17
    23bc:	7ed89103 	atnvce	f1, f3
    23c0:	00061911 	andeq	r1, r6, r1, lsl r9
    23c4:	0d920100 	ldfeqs	f0, [r2]
    23c8:	0000002c 	andeq	r0, r0, ip, lsr #32
    23cc:	0000117a 	andeq	r1, r0, sl, ror r1
    23d0:	00001172 	andeq	r1, r0, r2, ror r1
    23d4:	0001f816 	andeq	pc, r1, r6, lsl r8	; <UNPREDICTABLE>
    23d8:	0004f100 	andeq	pc, r4, r0, lsl #2
    23dc:	79741000 	ldmdbvc	r4!, {ip}^
    23e0:	1d9e0100 	ldfnes	f0, [lr]
    23e4:	000000b3 	strheq	r0, [r0], -r3
    23e8:	000011bb 			; <UNDEFINED> instruction: 0x000011bb
    23ec:	000011af 	andeq	r1, r0, pc, lsr #3
    23f0:	00787814 	rsbseq	r7, r8, r4, lsl r8
    23f4:	771aa201 	ldrvc	sl, [sl, -r1, lsl #4]
    23f8:	06000000 	streq	r0, [r0], -r0
    23fc:	5b049359 	blpl	127168 <__bss_end__+0x11c3c8>
    2400:	04170493 	ldreq	r0, [r7], #-1171	; 0xfffffb6d
    2404:	3a000091 	bcc	2650 <__code_start__-0x59b0>
    2408:	d800000c 	stmdale	r0, {r2, r3}
    240c:	18000002 	stmdane	r0, {r1}
    2410:	76025001 	strvc	r5, [r2], -r1
    2414:	51011800 	tstpl	r1, r0, lsl #16
    2418:	a6440305 	strbge	r0, [r4], -r5, lsl #6
    241c:	01180000 	tsteq	r8, r0
    2420:	00330152 	eorseq	r0, r3, r2, asr r1
    2424:	00911c17 	addseq	r1, r1, r7, lsl ip
    2428:	000c3a00 	andeq	r3, ip, r0, lsl #20
    242c:	0002fa00 	andeq	pc, r2, r0, lsl #20
    2430:	50011800 	andpl	r1, r1, r0, lsl #16
    2434:	18007602 	stmdane	r0, {r1, r9, sl, ip, sp, lr}
    2438:	03055101 	movweq	r5, #20737	; 0x5101
    243c:	0000a658 	andeq	sl, r0, r8, asr r6
    2440:	01520118 	cmpeq	r2, r8, lsl r1
    2444:	40170033 	andsmi	r0, r7, r3, lsr r0
    2448:	46000091 			; <UNDEFINED> instruction: 0x46000091
    244c:	1700000c 	strne	r0, [r0, -ip]
    2450:	18000003 	stmdane	r0, {r0, r1}
    2454:	03055001 	movweq	r5, #20481	; 0x5001
    2458:	0000a648 	andeq	sl, r0, r8, asr #12
    245c:	02510118 	subseq	r0, r1, #6
    2460:	1700007b 	smlsdxne	r0, fp, r0, r0
    2464:	0000914c 	andeq	r9, r0, ip, asr #2
    2468:	00000c46 	andeq	r0, r0, r6, asr #24
    246c:	00000334 	andeq	r0, r0, r4, lsr r3
    2470:	05500118 	ldrbeq	r0, [r0, #-280]	; 0xfffffee8
    2474:	00a65003 	adceq	r5, r6, r3
    2478:	51011800 	tstpl	r1, r0, lsl #16
    247c:	00007902 	andeq	r7, r0, r2, lsl #18
    2480:	00915c17 	addseq	r5, r1, r7, lsl ip
    2484:	000c3a00 	andeq	r3, ip, r0, lsl #20
    2488:	00035600 	andeq	r5, r3, r0, lsl #12
    248c:	50011800 	andpl	r1, r1, r0, lsl #16
    2490:	18007602 	stmdane	r0, {r1, r9, sl, ip, sp, lr}
    2494:	03055101 	movweq	r5, #20737	; 0x5101
    2498:	0000a644 	andeq	sl, r0, r4, asr #12
    249c:	01520118 	cmpeq	r2, r8, lsl r1
    24a0:	8c170033 	ldchi	0, cr0, [r7], {51}	; 0x33
    24a4:	a4000091 	strge	r0, [r0], #-145	; 0xffffff6f
    24a8:	8300000a 	movwhi	r0, #10
    24ac:	18000003 	stmdane	r0, {r0, r1}
    24b0:	40015001 	andmi	r5, r1, r1
    24b4:	03510118 	cmpeq	r1, #6
    24b8:	187dd091 	ldmdane	sp!, {r0, r4, r7, ip, lr, pc}^
    24bc:	7b025201 	blvc	96cc8 <__bss_end__+0x8bf28>
    24c0:	53011800 	movwpl	r1, #6144	; 0x1800
    24c4:	18007502 	stmdane	r0, {r1, r8, sl, ip, sp, lr}
    24c8:	02007d02 	andeq	r7, r0, #128	; 0x80
    24cc:	17000076 	smlsdxne	r0, r6, r0, r0
    24d0:	000091ac 	andeq	r9, r0, ip, lsr #3
    24d4:	00000aa4 	andeq	r0, r0, r4, lsr #21
    24d8:	000003aa 	andeq	r0, r0, sl, lsr #7
    24dc:	01500118 	cmpeq	r0, r8, lsl r1
    24e0:	51011840 	tstpl	r1, r0, asr #16
    24e4:	7ed09103 	atnvcs	f1, f3
    24e8:	02520118 	subseq	r0, r2, #6
    24ec:	02180079 	andseq	r0, r8, #121, 0	; 0x79
    24f0:	7602007d 			; <UNDEFINED> instruction: 0x7602007d
    24f4:	bc170000 	ldclt	0, cr0, [r7], {-0}
    24f8:	52000091 	andpl	r0, r0, #145, 0	; 0x91
    24fc:	c600000c 	strgt	r0, [r0], -ip
    2500:	18000003 	stmdane	r0, {r0, r1}
    2504:	91035001 	tstls	r3, r1
    2508:	01187dd0 			; <UNDEFINED> instruction: 0x01187dd0
    250c:	d2910351 	addsle	r0, r1, #1140850689	; 0x44000001
    2510:	0017007e 	andseq	r0, r7, lr, ror r0
    2514:	3a000094 	bcc	276c <__code_start__-0x5894>
    2518:	e800000c 	stmda	r0, {r2, r3}
    251c:	18000003 	stmdane	r0, {r0, r1}
    2520:	76025001 	strvc	r5, [r2], -r1
    2524:	51011800 	tstpl	r1, r0, lsl #16
    2528:	a6580305 	ldrbge	r0, [r8], -r5, lsl #6
    252c:	01180000 	tsteq	r8, r0
    2530:	00330152 	eorseq	r0, r3, r2, asr r1
    2534:	00942417 	addseq	r2, r4, r7, lsl r4
    2538:	000aa400 	andeq	sl, sl, r0, lsl #8
    253c:	00041500 	andeq	r1, r4, r0, lsl #10
    2540:	50011800 	andpl	r1, r1, r0, lsl #16
    2544:	01183a01 	tsteq	r8, r1, lsl #20
    2548:	d0910351 	addsle	r0, r1, r1, asr r3
    254c:	5201187d 	andpl	r1, r1, #8192000	; 0x7d0000
    2550:	18007b02 	stmdane	r0, {r1, r8, r9, fp, ip, sp, lr}
    2554:	75025301 	strvc	r5, [r2, #-769]	; 0xfffffcff
    2558:	7d021800 	stcvc	8, cr1, [r2, #-0]
    255c:	00760200 	rsbseq	r0, r6, r0, lsl #4
    2560:	94441700 	strbls	r1, [r4], #-1792	; 0xfffff900
    2564:	0aa40000 	beq	fe90256c <__bss_end__+0xfe8f77cc>
    2568:	043c0000 	ldrteq	r0, [ip], #-0
    256c:	01180000 	tsteq	r8, r0
    2570:	183a0150 	ldmdane	sl!, {r4, r6, r8}
    2574:	91035101 	tstls	r3, r1, lsl #2
    2578:	01187ed0 			; <UNDEFINED> instruction: 0x01187ed0
    257c:	00790252 	rsbseq	r0, r9, r2, asr r2
    2580:	007d0218 	rsbseq	r0, sp, r8, lsl r2
    2584:	00007602 	andeq	r7, r0, r2, lsl #12
    2588:	00945017 	addseq	r5, r4, r7, lsl r0
    258c:	000c5e00 	andeq	r5, ip, r0, lsl #28
    2590:	00045a00 	andeq	r5, r4, r0, lsl #20
    2594:	50011800 	andpl	r1, r1, r0, lsl #16
    2598:	7dd09103 	ldfvcp	f1, [r0, #12]
    259c:	05510118 	ldrbeq	r0, [r1, #-280]	; 0xfffffee8
    25a0:	00a46803 	adceq	r6, r4, r3, lsl #16
    25a4:	64170000 	ldrvs	r0, [r7], #-0
    25a8:	6a000094 	bvs	2800 <__code_start__-0x5800>
    25ac:	7600000c 	strvc	r0, [r0], -ip
    25b0:	18000004 	stmdane	r0, {r2}
    25b4:	91035001 	tstls	r3, r1
    25b8:	01187dd0 			; <UNDEFINED> instruction: 0x01187dd0
    25bc:	d0910351 	addsle	r0, r1, r1, asr r3
    25c0:	7019007e 	andsvc	r0, r9, lr, ror r0
    25c4:	52000094 	andpl	r0, r0, #148, 0	; 0x94
    25c8:	1700000c 	strne	r0, [r0, -ip]
    25cc:	00009534 	andeq	r9, r0, r4, lsr r5
    25d0:	00000c46 	andeq	r0, r0, r6, asr #24
    25d4:	000004a8 	andeq	r0, r0, r8, lsr #9
    25d8:	05500118 	ldrbeq	r0, [r0, #-280]	; 0xfffffee8
    25dc:	00a1e403 	adceq	lr, r1, r3, lsl #8
    25e0:	51011800 	tstpl	r1, r0, lsl #16
    25e4:	a5f80305 	ldrbge	r0, [r8, #773]!	; 0x305
    25e8:	01180000 	tsteq	r8, r0
    25ec:	50030552 	andpl	r0, r3, r2, asr r5
    25f0:	000000a7 	andeq	r0, r0, r7, lsr #1
    25f4:	00953819 	addseq	r3, r5, r9, lsl r8
    25f8:	000c7600 	andeq	r7, ip, r0, lsl #12
    25fc:	95501700 	ldrbls	r1, [r0, #-1792]	; 0xfffff900
    2600:	0c460000 	mareq	acc0, r0, r6
    2604:	04e70000 	strbteq	r0, [r7], #0
    2608:	01180000 	tsteq	r8, r0
    260c:	98030550 	stmdals	r3, {r4, r6, r8, sl}
    2610:	180000a6 	stmdane	r0, {r1, r2, r5, r7}
    2614:	03055101 	movweq	r5, #20737	; 0x5101
    2618:	0000a5f8 	strdeq	sl, [r0], -r8
    261c:	05520118 	ldrbeq	r0, [r2, #-280]	; 0xfffffee8
    2620:	00a75003 	adceq	r5, r7, r3
    2624:	53011800 	movwpl	r1, #6144	; 0x1800
    2628:	18b60802 	ldmne	r6!, {r1, fp}
    262c:	02007d02 	andeq	r7, r0, #128	; 0x80
    2630:	19000076 	stmdbne	r0, {r1, r2, r4, r5, r6}
    2634:	00009554 	andeq	r9, r0, r4, asr r5
    2638:	00000c76 	andeq	r0, r0, r6, ror ip
    263c:	09e31a00 	stmibeq	r3!, {r9, fp, ip}^
    2640:	90040000 	andls	r0, r4, r0
    2644:	00040000 	andeq	r0, r4, r0
    2648:	00000220 	andeq	r0, r0, r0, lsr #4
    264c:	150a9401 	strne	r9, [sl, #-1025]	; 0xfffffbff
    2650:	1b000005 	blne	266c <__code_start__-0x5994>
    2654:	000009f4 	strdeq	r0, [r0], -r4
    2658:	00001217 	andeq	r1, r0, r7, lsl r2
    265c:	00001213 	andeq	r1, r0, r3, lsl r2
    2660:	08951a00 	ldmeq	r5, {r9, fp, ip}
    2664:	91ec0000 	mvnls	r0, r0
    2668:	00010000 	andeq	r0, r1, r0
    266c:	00000240 	andeq	r0, r0, r0, asr #4
    2670:	4b09dc01 	blmi	27967c <__bss_end__+0x26e8dc>
    2674:	1b000006 	blne	2694 <__code_start__-0x596c>
    2678:	000008be 			; <UNDEFINED> instruction: 0x000008be
    267c:	00001245 	andeq	r1, r0, r5, asr #4
    2680:	0000123f 	andeq	r1, r0, pc, lsr r2
    2684:	0008e01b 	andeq	lr, r8, fp, lsl r0
    2688:	00127a00 	andseq	r7, r2, r0, lsl #20
    268c:	00127400 	andseq	r7, r2, r0, lsl #8
    2690:	08d41b00 	ldmeq	r4, {r8, r9, fp, ip}^
    2694:	12ac0000 	adcne	r0, ip, #0, 0
    2698:	12a60000 	adcne	r0, r6, #0, 0
    269c:	c81c0000 	ldmdagt	ip, {}	; <UNPREDICTABLE>
    26a0:	1b000008 	blne	26c8 <__code_start__-0x5938>
    26a4:	000008b2 			; <UNDEFINED> instruction: 0x000008b2
    26a8:	000012dd 	ldrdeq	r1, [r0], -sp
    26ac:	000012d5 	ldrdeq	r1, [r0], -r5
    26b0:	0008a61b 	andeq	sl, r8, fp, lsl r6
    26b4:	00132000 	andseq	r2, r3, r0
    26b8:	00131a00 	andseq	r1, r3, r0, lsl #20
    26bc:	02401300 	subeq	r1, r0, #0, 6
    26c0:	ec1d0000 	ldc	0, cr0, [sp], {-0}
    26c4:	03000008 	movweq	r0, #8
    26c8:	1e7ed891 	mrcne	8, 3, sp, cr14, cr1, {4}
    26cc:	000008f8 	strdeq	r0, [r0], -r8
    26d0:	0000135a 	andeq	r1, r0, sl, asr r3
    26d4:	0000134c 	andeq	r1, r0, ip, asr #6
    26d8:	0009021f 	andeq	r0, r9, pc, lsl r2
    26dc:	09a31a00 	stmibeq	r3!, {r9, fp, ip}
    26e0:	91f80000 	mvnsls	r0, r0
    26e4:	00040000 	andeq	r0, r4, r0
    26e8:	00000270 	andeq	r0, r0, r0, ror r2
    26ec:	e2097c01 	and	r7, r9, #256	; 0x100
    26f0:	1b000005 	blne	270c <__code_start__-0x58f4>
    26f4:	000009ca 	andeq	r0, r0, sl, asr #19
    26f8:	000013c4 	andeq	r1, r0, r4, asr #7
    26fc:	000013be 			; <UNDEFINED> instruction: 0x000013be
    2700:	0009be1b 	andeq	fp, r9, fp, lsl lr
    2704:	0013f900 	andseq	pc, r3, r0, lsl #18
    2708:	0013ed00 	andseq	lr, r3, r0, lsl #26
    270c:	09b41b00 	ldmibeq	r4!, {r8, r9, fp, ip}
    2710:	145f0000 	ldrbne	r0, [pc], #-0	; 2718 <__code_start__-0x58e8>
    2714:	144f0000 	strbne	r0, [pc], #-0	; 271c <__code_start__-0x58e4>
    2718:	70130000 	andsvc	r0, r3, r0
    271c:	1e000002 	cdpne	0, 0, cr0, cr0, cr2, {0}
    2720:	000009d6 	ldrdeq	r0, [r0], -r6
    2724:	000014dc 	ldrdeq	r1, [r0], -ip
    2728:	000014ce 	andeq	r1, r0, lr, asr #9
    272c:	4f200000 	svcmi	0x00200000
    2730:	c0000009 	andgt	r0, r0, r9
    2734:	02000092 	andeq	r0, r0, #146, 0	; 0x92
    2738:	0002a000 	andeq	sl, r2, r0
    273c:	097c0100 	ldmdbeq	ip!, {r8}^
    2740:	0009801b 	andeq	r8, r9, fp, lsl r0
    2744:	00153c00 	andseq	r3, r5, r0, lsl #24
    2748:	00153600 	andseq	r3, r5, r0, lsl #12
    274c:	09761b00 	ldmdbeq	r6!, {r8, r9, fp, ip}^
    2750:	15720000 	ldrbne	r0, [r2, #-0]!
    2754:	15680000 	strbne	r0, [r8, #-0]!
    2758:	6c1b0000 	ldcvs	0, cr0, [fp], {-0}
    275c:	c1000009 	tstgt	r0, r9
    2760:	bd000015 	stclt	0, cr0, [r0, #-84]	; 0xffffffac
    2764:	1b000015 	blne	27c0 <__code_start__-0x5840>
    2768:	00000960 	andeq	r0, r0, r0, ror #18
    276c:	000015f1 	strdeq	r1, [r0], -r1	; <UNPREDICTABLE>
    2770:	000015e3 	andeq	r1, r0, r3, ror #11
    2774:	0002a013 	andeq	sl, r2, r3, lsl r0
    2778:	098c1e00 	stmibeq	ip, {r9, sl, fp, ip}
    277c:	16560000 	ldrbne	r0, [r6], -r0
    2780:	16540000 	ldrbne	r0, [r4], -r0
    2784:	981e0000 	ldmdals	lr, {}	; <UNPREDICTABLE>
    2788:	70000009 	andvc	r0, r0, r9
    278c:	6a000016 	bvs	27ec <__code_start__-0x5814>
    2790:	00000016 	andeq	r0, r0, r6, lsl r0
    2794:	1a000000 	bne	279c <__code_start__-0x5864>
    2798:	00000895 	muleq	r0, r5, r8
    279c:	000092fc 	strdeq	r9, [r0], -ip
    27a0:	02d00000 	sbcseq	r0, r0, #0, 0
    27a4:	d6010000 	strle	r0, [r1], -r0
    27a8:	00078909 	andeq	r8, r7, r9, lsl #18
    27ac:	08be1b00 	ldmeq	lr!, {r8, r9, fp, ip}
    27b0:	16a30000 	strtne	r0, [r3], r0
    27b4:	169f0000 	ldrne	r0, [pc], r0
    27b8:	e01b0000 	ands	r0, fp, r0
    27bc:	c9000008 	stmdbgt	r0, {r3}
    27c0:	c5000016 	strgt	r0, [r0, #-22]	; 0xffffffea
    27c4:	1b000016 	blne	2824 <__code_start__-0x57dc>
    27c8:	000008d4 	ldrdeq	r0, [r0], -r4
    27cc:	000016ed 	andeq	r1, r0, sp, ror #13
    27d0:	000016e9 	andeq	r1, r0, r9, ror #13
    27d4:	0008c81c 	andeq	ip, r8, ip, lsl r8
    27d8:	08b21b00 	ldmeq	r2!, {r8, r9, fp, ip}
    27dc:	17110000 	ldrne	r0, [r1, -r0]
    27e0:	170b0000 	strne	r0, [fp, -r0]
    27e4:	a61b0000 	ldrge	r0, [fp], -r0
    27e8:	44000008 	strmi	r0, [r0], #-8
    27ec:	40000017 	andmi	r0, r0, r7, lsl r0
    27f0:	13000017 	movwne	r0, #23
    27f4:	000002d0 	ldrdeq	r0, [r0], -r0	; <UNPREDICTABLE>
    27f8:	0008ec1d 	andeq	lr, r8, sp, lsl ip
    27fc:	d8910300 	ldmle	r1, {r8, r9}
    2800:	08f81e7e 	ldmeq	r8!, {r1, r2, r3, r4, r5, r6, r9, sl, fp, ip}^
    2804:	176e0000 	strbne	r0, [lr, -r0]!
    2808:	17640000 	strbne	r0, [r4, -r0]!
    280c:	021e0000 	andseq	r0, lr, #0, 0
    2810:	b3000009 	movwlt	r0, #9
    2814:	af000017 	svcge	0x00000017
    2818:	1a000017 	bne	287c <__code_start__-0x5784>
    281c:	000009a3 	andeq	r0, r0, r3, lsr #19
    2820:	00009318 	andeq	r9, r0, r8, lsl r3
    2824:	02f00003 	rscseq	r0, r0, #3, 0
    2828:	7c010000 	stcvc	0, cr0, [r1], {-0}
    282c:	00072009 	andeq	r2, r7, r9
    2830:	09ca1b00 	stmibeq	sl, {r8, r9, fp, ip}^
    2834:	17d50000 	ldrbne	r0, [r5, r0]
    2838:	17d10000 	ldrbne	r0, [r1, r0]
    283c:	be1b0000 	cdplt	0, 1, cr0, cr11, cr0, {0}
    2840:	f7000009 			; <UNDEFINED> instruction: 0xf7000009
    2844:	f3000017 	vqadd.u8	d0, d0, d7
    2848:	1b000017 	blne	28ac <__code_start__-0x5754>
    284c:	000009b4 			; <UNDEFINED> instruction: 0x000009b4
    2850:	00001821 	andeq	r1, r0, r1, lsr #16
    2854:	00001815 	andeq	r1, r0, r5, lsl r8
    2858:	0002f013 	andeq	pc, r2, r3, lsl r0	; <UNPREDICTABLE>
    285c:	09d61e00 	ldmibeq	r6, {r9, sl, fp, ip}^
    2860:	187d0000 	ldmdane	sp!, {}^	; <UNPREDICTABLE>
    2864:	18710000 	ldmdane	r1!, {}^	; <UNPREDICTABLE>
    2868:	00000000 	andeq	r0, r0, r0
    286c:	00094f20 	andeq	r4, r9, r0, lsr #30
    2870:	0093a000 	addseq	sl, r3, r0
    2874:	18000200 	stmdane	r0, {r9}
    2878:	01000003 	tsteq	r0, r3
    287c:	801b097c 	andshi	r0, fp, ip, ror r9
    2880:	cd000009 	stcgt	0, cr0, [r0, #-36]	; 0xffffffdc
    2884:	c9000018 	stmdbgt	r0, {r3, r4}
    2888:	1b000018 	blne	28f0 <__code_start__-0x5710>
    288c:	00000976 	andeq	r0, r0, r6, ror r9
    2890:	000018f5 	strdeq	r1, [r0], -r5
    2894:	000018eb 	andeq	r1, r0, fp, ror #17
    2898:	00096c1b 	andeq	r6, r9, fp, lsl ip
    289c:	00194100 	andseq	r4, r9, r0, lsl #2
    28a0:	00193d00 	andseq	r3, r9, r0, lsl #26
    28a4:	09601b00 	stmdbeq	r0!, {r8, r9, fp, ip}^
    28a8:	196f0000 	stmdbne	pc!, {}^	; <UNPREDICTABLE>
    28ac:	19630000 	stmdbne	r3!, {}^	; <UNPREDICTABLE>
    28b0:	18130000 	ldmdane	r3, {}	; <UNPREDICTABLE>
    28b4:	1e000003 	cdpne	0, 0, cr0, cr0, cr3, {0}
    28b8:	0000098c 	andeq	r0, r0, ip, lsl #19
    28bc:	000019c9 	andeq	r1, r0, r9, asr #19
    28c0:	000019c5 	andeq	r1, r0, r5, asr #19
    28c4:	0009981e 	andeq	r9, r9, lr, lsl r8
    28c8:	0019ef00 	andseq	lr, r9, r0, lsl #30
    28cc:	0019eb00 	andseq	lr, r9, r0, lsl #22
    28d0:	00000000 	andeq	r0, r0, r0
    28d4:	90cc1700 	sbcls	r1, ip, r0, lsl #14
    28d8:	0aa40000 	beq	fe9028e0 <__bss_end__+0xfe8f7b40>
    28dc:	07af0000 	streq	r0, [pc, r0]!
    28e0:	01180000 	tsteq	r8, r0
    28e4:	18400150 	stmdane	r0, {r4, r6, r8}^
    28e8:	91035101 	tstls	r3, r1, lsl #2
    28ec:	01187dd0 			; <UNDEFINED> instruction: 0x01187dd0
    28f0:	00750253 	rsbseq	r0, r5, r3, asr r2
    28f4:	007d0218 	rsbseq	r0, sp, r8, lsl r2
    28f8:	17003001 	strne	r3, [r0, -r1]
    28fc:	000091dc 	ldrdeq	r9, [r0], -ip
    2900:	00000aa4 	andeq	r0, r0, r4, lsr #21
    2904:	000007cf 	andeq	r0, r0, pc, asr #15
    2908:	01500118 	cmpeq	r0, r8, lsl r1
    290c:	5101183a 	tstpl	r1, sl, lsr r8
    2910:	7dd09103 	ldfvcp	f1, [r0, #12]
    2914:	02530118 	subseq	r0, r3, #6
    2918:	17000075 	smlsdxne	r0, r5, r0, r0
    291c:	000094c0 	andeq	r9, r0, r0, asr #9
    2920:	00000c46 	andeq	r0, r0, r6, asr #24
    2924:	000007e6 	andeq	r0, r0, r6, ror #15
    2928:	05500118 	ldrbeq	r0, [r0, #-280]	; 0xfffffee8
    292c:	00a6e803 	adceq	lr, r6, r3, lsl #16
    2930:	d0210000 	eorle	r0, r1, r0
    2934:	f8000094 			; <UNDEFINED> instruction: 0xf8000094
    2938:	18000007 	stmdane	r0, {r0, r1, r2}
    293c:	91045001 	tstls	r4, r1
    2940:	00067dc8 	andeq	r7, r6, r8, asr #27
    2944:	0094e417 	addseq	lr, r4, r7, lsl r4
    2948:	000c4600 	andeq	r4, ip, r0, lsl #12
    294c:	00082700 	andeq	r2, r8, r0, lsl #14
    2950:	50011800 	andpl	r1, r1, r0, lsl #16
    2954:	a7180305 	ldrge	r0, [r8, -r5, lsl #6]
    2958:	01180000 	tsteq	r8, r0
    295c:	f8030551 			; <UNDEFINED> instruction: 0xf8030551
    2960:	180000a5 	stmdane	r0, {r0, r2, r5, r7}
    2964:	03055201 	movweq	r5, #20993	; 0x5201
    2968:	0000a750 	andeq	sl, r0, r0, asr r7
    296c:	02530118 	subseq	r0, r3, #6
    2970:	1900e208 	stmdbne	r0, {r3, r9, sp, lr, pc}
    2974:	000094e8 	andeq	r9, r0, r8, ror #9
    2978:	00000c76 	andeq	r0, r0, r6, ror ip
    297c:	0094fc17 	addseq	pc, r4, r7, lsl ip	; <UNPREDICTABLE>
    2980:	000c4600 	andeq	r4, ip, r0, lsl #12
    2984:	00085f00 	andeq	r5, r8, r0, lsl #30
    2988:	50011800 	andpl	r1, r1, r0, lsl #16
    298c:	a6c00305 	strbge	r0, [r0], r5, lsl #6
    2990:	01180000 	tsteq	r8, r0
    2994:	f8030551 			; <UNDEFINED> instruction: 0xf8030551
    2998:	180000a5 	stmdane	r0, {r0, r2, r5, r7}
    299c:	03055201 	movweq	r5, #20993	; 0x5201
    29a0:	0000a750 	andeq	sl, r0, r0, asr r7
    29a4:	02530118 	subseq	r0, r3, #6
    29a8:	1900be08 	stmdbne	r0, {r3, r9, sl, fp, ip, sp, pc}
    29ac:	00009500 	andeq	r9, r0, r0, lsl #10
    29b0:	00000c76 	andeq	r0, r0, r6, ror ip
    29b4:	04080000 	streq	r0, [r8], #-0
    29b8:	000000b9 	strheq	r0, [r0], -r9
    29bc:	0000c022 	andeq	ip, r0, r2, lsr #32
    29c0:	00088000 	andeq	r8, r8, r0
    29c4:	002c2300 	eoreq	r2, ip, r0, lsl #6
    29c8:	00090000 	andeq	r0, r9, r0
    29cc:	00087009 	andeq	r7, r8, r9
    29d0:	00b92200 	adcseq	r2, r9, r0, lsl #4
    29d4:	08950000 	ldmeq	r5, {}	; <UNPREDICTABLE>
    29d8:	2c230000 	stccs	0, cr0, [r3], #-0
    29dc:	7f000000 	svcvc	0x00000000
    29e0:	06702400 	ldrbteq	r2, [r0], -r0, lsl #8
    29e4:	49010000 	stmdbmi	r1, {}	; <UNPREDICTABLE>
    29e8:	00086a01 	andeq	r6, r8, r1, lsl #20
    29ec:	092a0100 	stmdbeq	sl!, {r8}
    29f0:	45250000 	strmi	r0, [r5, #-0]!
    29f4:	01000003 	tsteq	r0, r3
    29f8:	002c0f49 	eoreq	r0, ip, r9, asr #30
    29fc:	64260000 	strtvs	r0, [r6], #-0
    2a00:	01007473 	tsteq	r0, r3, ror r4
    2a04:	086a1b49 	stmdaeq	sl!, {r0, r3, r6, r8, r9, fp, ip}^
    2a08:	6e260000 	cdpvs	0, 2, cr0, cr6, cr0, {0}
    2a0c:	24490100 	strbcs	r0, [r9], #-256	; 0xffffff00
    2a10:	00000033 	andeq	r0, r0, r3, lsr r0
    2a14:	6c617626 	stclvs	6, cr7, [r1], #-152	; 0xffffff68
    2a18:	2b490100 	blcs	1242e20 <__bss_end__+0x1238080>
    2a1c:	00000033 	andeq	r0, r0, r3, lsr r0
    2a20:	00061925 	andeq	r1, r6, r5, lsr #18
    2a24:	34490100 	strbcc	r0, [r9], #-256	; 0xffffff00
    2a28:	00000033 	andeq	r0, r0, r3, lsr r0
    2a2c:	0006a625 	andeq	sl, r6, r5, lsr #12
    2a30:	3f490100 	svccc	0x00490100
    2a34:	00000033 	andeq	r0, r0, r3, lsr r0
    2a38:	66756227 	ldrbtvs	r6, [r5], -r7, lsr #4
    2a3c:	074e0100 	strbeq	r0, [lr, -r0, lsl #2]
    2a40:	0000092a 	andeq	r0, r0, sl, lsr #18
    2a44:	01007027 	tsteq	r0, r7, lsr #32
    2a48:	086a114e 	stmdaeq	sl!, {r1, r2, r3, r6, r8, ip}^
    2a4c:	75270000 	strvc	r0, [r7, #-0]!
    2a50:	0b4f0100 	bleq	13c2e58 <__bss_end__+0x13b80b8>
    2a54:	0000002c 	andeq	r0, r0, ip, lsr #32
    2a58:	0000ab12 	andeq	sl, r0, r2, lsl fp
    2a5c:	00094a00 	andeq	r4, r9, r0, lsl #20
    2a60:	38030500 	stmdacc	r3, {r8, sl}
    2a64:	280000a7 	stmdacs	r0, {r0, r1, r2, r5, r7}
    2a68:	00065d29 	andeq	r5, r6, r9, lsr #26
    2a6c:	0d540100 	ldfeqe	f0, [r4, #-0]
    2a70:	0000002c 	andeq	r0, r0, ip, lsr #32
    2a74:	b9220000 	stmdblt	r2!, {}	; <UNPREDICTABLE>
    2a78:	3a000000 	bcc	2a80 <__code_start__-0x5580>
    2a7c:	23000009 	movwcs	r0, #9
    2a80:	0000002c 	andeq	r0, r0, ip, lsr #32
    2a84:	c022003f 	eorgt	r0, r2, pc, lsr r0
    2a88:	4a000000 	bmi	2a90 <__code_start__-0x5570>
    2a8c:	23000009 	movwcs	r0, #9
    2a90:	0000002c 	andeq	r0, r0, ip, lsr #32
    2a94:	3a090004 	bcc	242aac <__bss_end__+0x237d0c>
    2a98:	24000009 	strcs	r0, [r0], #-9
    2a9c:	00000675 	andeq	r0, r0, r5, ror r6
    2aa0:	6a0e3801 	bvs	390aac <__bss_end__+0x385d0c>
    2aa4:	01000008 	tsteq	r0, r8
    2aa8:	000009a3 	andeq	r0, r0, r3, lsr #19
    2aac:	74736426 	ldrbtvc	r6, [r3], #-1062	; 0xfffffbda
    2ab0:	1c380100 	ldfnes	f0, [r8], #-0
    2ab4:	0000086a 	andeq	r0, r0, sl, ror #16
    2ab8:	01006e26 	tsteq	r0, r6, lsr #28
    2abc:	00332538 	eorseq	r2, r3, r8, lsr r5
    2ac0:	70260000 	eorvc	r0, r6, r0
    2ac4:	2e380100 	rsfcse	f0, f0, f0
    2ac8:	0000086a 	andeq	r0, r0, sl, ror #16
    2acc:	000a4025 	andeq	r4, sl, r5, lsr #32
    2ad0:	37380100 	ldrcc	r0, [r8, -r0, lsl #2]!
    2ad4:	0000086a 	andeq	r0, r0, sl, ror #16
    2ad8:	6e656c27 	cdpvs	12, 6, cr6, cr5, cr7, {1}
    2adc:	063a0100 	ldrteq	r0, [sl], -r0, lsl #2
    2ae0:	00000033 	andeq	r0, r0, r3, lsr r0
    2ae4:	01007327 	tsteq	r0, r7, lsr #6
    2ae8:	086a083e 	stmdaeq	sl!, {r1, r2, r3, r4, r5, fp}^
    2aec:	2a000000 	bcs	2af4 <__code_start__-0x550c>
    2af0:	00646170 	rsbeq	r6, r4, r0, ror r1
    2af4:	6a0e2e01 	bvs	38e300 <__bss_end__+0x383560>
    2af8:	01000008 	tsteq	r0, r8
    2afc:	000009e3 	andeq	r0, r0, r3, ror #19
    2b00:	01007026 	tsteq	r0, r6, lsr #32
    2b04:	086a182e 	stmdaeq	sl!, {r1, r2, r3, r5, fp, ip}^
    2b08:	45250000 	strmi	r0, [r5, #-0]!
    2b0c:	01000003 	tsteq	r0, r3
    2b10:	086a222e 	stmdaeq	sl!, {r1, r2, r3, r5, r9, sp}^
    2b14:	19250000 	stmdbne	r5!, {}	; <UNPREDICTABLE>
    2b18:	01000006 	tsteq	r0, r6
    2b1c:	00332c2e 	eorseq	r2, r3, lr, lsr #24
    2b20:	6c270000 	stcvs	0, cr0, [r7], #-0
    2b24:	01006e65 	tsteq	r0, r5, ror #28
    2b28:	0033062f 	eorseq	r0, r3, pc, lsr #12
    2b2c:	24000000 	strcs	r0, [r0], #-0
    2b30:	000005e6 	andeq	r0, r0, r6, ror #11
    2b34:	330c2701 	movwcc	r2, #50945	; 0xc701
    2b38:	01000000 	mrseq	r0, (UNDEF: 0)
    2b3c:	000009ff 	strdeq	r0, [r0], -pc	; <UNPREDICTABLE>
    2b40:	01006326 	tsteq	r0, r6, lsr #6
    2b44:	00331827 	eorseq	r1, r3, r7, lsr #16
    2b48:	2b000000 	blcs	2b50 <__code_start__-0x54b0>
    2b4c:	00000636 	andeq	r0, r0, r6, lsr r6
    2b50:	18061f01 	stmdane	r6, {r0, r8, r9, sl, fp, ip}
    2b54:	6000008f 	andvs	r0, r0, pc, lsl #1
    2b58:	01000000 	mrseq	r0, (UNDEF: 0)
    2b5c:	000a8f9c 	muleq	sl, ip, pc	; <UNPREDICTABLE>
    2b60:	061f0f00 	ldreq	r0, [pc], -r0, lsl #30
    2b64:	1f010000 	svcne	0x00010000
    2b68:	00009e1b 	andeq	r9, r0, fp, lsl lr
    2b6c:	001a1400 	andseq	r1, sl, r0, lsl #8
    2b70:	001a1000 	andseq	r1, sl, r0
    2b74:	06840f00 	streq	r0, [r4], r0, lsl #30
    2b78:	1f010000 	svcne	0x00010000
    2b7c:	0000d130 	andeq	sp, r0, r0, lsr r1
    2b80:	001a3900 	andseq	r3, sl, r0, lsl #18
    2b84:	001a3500 	andseq	r3, sl, r0, lsl #10
    2b88:	00ab1200 	adceq	r1, fp, r0, lsl #4
    2b8c:	0a9f0000 	beq	fe7c2b94 <__bss_end__+0xfe7b7df4>
    2b90:	03050000 	movweq	r0, #20480	; 0x5000
    2b94:	0000a740 	andeq	sl, r0, r0, asr #14
    2b98:	008f5c17 	addeq	r5, pc, r7, lsl ip	; <UNPREDICTABLE>
    2b9c:	000c4600 	andeq	r4, ip, r0, lsl #12
    2ba0:	000a8500 	andeq	r8, sl, r0, lsl #10
    2ba4:	50011800 	andpl	r1, r1, r0, lsl #16
    2ba8:	a1e40305 	mvnge	r0, r5, lsl #6
    2bac:	01180000 	tsteq	r8, r0
    2bb0:	f8030551 			; <UNDEFINED> instruction: 0xf8030551
    2bb4:	180000a5 	stmdane	r0, {r0, r2, r5, r7}
    2bb8:	03055201 	movweq	r5, #20993	; 0x5201
    2bbc:	0000a740 	andeq	sl, r0, r0, asr #14
    2bc0:	02530118 	subseq	r0, r3, #6
    2bc4:	02182008 	andseq	r2, r8, #8, 0
    2bc8:	0305007d 	movweq	r0, #20605	; 0x507d
    2bcc:	0000a630 	andeq	sl, r0, r0, lsr r6
    2bd0:	8f601900 	svchi	0x00601900
    2bd4:	0c760000 	ldcleq	0, cr0, [r6], #-0
    2bd8:	22000000 	andcs	r0, r0, #0, 0
    2bdc:	000000c0 	andeq	r0, r0, r0, asr #1
    2be0:	00000a9f 	muleq	r0, pc, sl	; <UNPREDICTABLE>
    2be4:	00002c23 	andeq	r2, r0, r3, lsr #24
    2be8:	09000e00 	stmdbeq	r0, {r9, sl, fp}
    2bec:	00000a8f 	andeq	r0, r0, pc, lsl #21
    2bf0:	0008952c 	andeq	r9, r8, ip, lsr #10
    2bf4:	008bf000 	addeq	pc, fp, r0
    2bf8:	00032800 	andeq	r2, r3, r0, lsl #16
    2bfc:	3a9c0100 	bcc	fe703004 <__bss_end__+0xfe6f8264>
    2c00:	1b00000c 	blne	2c38 <__code_start__-0x53c8>
    2c04:	000008a6 	andeq	r0, r0, r6, lsr #17
    2c08:	00001a72 	andeq	r1, r0, r2, ror sl
    2c0c:	00001a5a 	andeq	r1, r0, sl, asr sl
    2c10:	0008b21b 	andeq	fp, r8, fp, lsl r2
    2c14:	001b1c00 	andseq	r1, fp, r0, lsl #24
    2c18:	001b1400 	andseq	r1, fp, r0, lsl #8
    2c1c:	08c81b00 	stmiaeq	r8, {r8, r9, fp, ip}^
    2c20:	1b730000 	blne	1cc2c28 <__bss_end__+0x1cb7e88>
    2c24:	1b530000 	blne	14c2c2c <__bss_end__+0x14b7e8c>
    2c28:	d41b0000 	ldrle	r0, [fp], #-0
    2c2c:	49000008 	stmdbmi	r0, {r3}
    2c30:	3b00001c 	blcc	2ca8 <__code_start__-0x5358>
    2c34:	2d00001c 	stccs	0, cr0, [r0, #-112]	; 0xffffff90
    2c38:	000008e0 	andeq	r0, r0, r0, ror #17
    2c3c:	1d009102 	stfned	f1, [r0, #-8]
    2c40:	000008ec 	andeq	r0, r0, ip, ror #17
    2c44:	7fa89103 	svcvc	0x00a89103
    2c48:	0008f81e 	andeq	pc, r8, lr, lsl r8	; <UNPREDICTABLE>
    2c4c:	001cdd00 	andseq	sp, ip, r0, lsl #26
    2c50:	001ca900 	andseq	sl, ip, r0, lsl #18
    2c54:	09021e00 	stmdbeq	r2, {r9, sl, fp, ip}
    2c58:	1e440000 	cdpne	0, 4, cr0, cr4, cr0, {0}
    2c5c:	1e220000 	cdpne	0, 2, cr0, cr2, cr0, {0}
    2c60:	be2e0000 	cdplt	0, 2, cr0, cr14, cr0, {0}
    2c64:	80000008 	andhi	r0, r0, r8
    2c68:	0009a31a 	andeq	sl, r9, sl, lsl r3
    2c6c:	008c9400 	addeq	r9, ip, r0, lsl #8
    2c70:	68000400 	stmdavs	r0, {sl}
    2c74:	01000001 	tsteq	r0, r1
    2c78:	0b6d097c 	bleq	1b45270 <__bss_end__+0x1b3a4d0>
    2c7c:	ca1b0000 	bgt	6c2c84 <__bss_end__+0x6b7ee4>
    2c80:	2c000009 	stccs	0, cr0, [r0], {9}
    2c84:	2200001f 	andcs	r0, r0, #31, 0
    2c88:	1b00001f 	blne	2d0c <__code_start__-0x52f4>
    2c8c:	000009be 			; <UNDEFINED> instruction: 0x000009be
    2c90:	00001f80 	andeq	r1, r0, r0, lsl #31
    2c94:	00001f70 	andeq	r1, r0, r0, ror pc
    2c98:	0009b41b 	andeq	fp, r9, fp, lsl r4
    2c9c:	00200000 	eoreq	r0, r0, r0
    2ca0:	001fec00 	andseq	lr, pc, r0, lsl #24
    2ca4:	01681300 	cmneq	r8, r0, lsl #6
    2ca8:	d61e0000 	ldrle	r0, [lr], -r0
    2cac:	92000009 	andls	r0, r0, #9, 0
    2cb0:	82000020 	andhi	r0, r0, #32, 0
    2cb4:	00000020 	andeq	r0, r0, r0, lsr #32
    2cb8:	094f1a00 	stmdbeq	pc, {r9, fp, ip}^	; <UNPREDICTABLE>
    2cbc:	8d4c0000 	stclhi	0, cr0, [ip, #-0]
    2cc0:	00020000 	andeq	r0, r2, r0
    2cc4:	000001b0 			; <UNDEFINED> instruction: 0x000001b0
    2cc8:	d8097c01 	stmdale	r9, {r0, sl, fp, ip, sp, lr}
    2ccc:	1b00000b 	blne	2d00 <__code_start__-0x5300>
    2cd0:	00000980 	andeq	r0, r0, r0, lsl #19
    2cd4:	000020fe 	strdeq	r2, [r0], -lr
    2cd8:	000020f6 	strdeq	r2, [r0], -r6
    2cdc:	0009761b 	andeq	r7, r9, fp, lsl r6
    2ce0:	00213d00 	eoreq	r3, r1, r0, lsl #26
    2ce4:	00213500 	eoreq	r3, r1, r0, lsl #10
    2ce8:	096c1b00 	stmdbeq	ip!, {r8, r9, fp, ip}^
    2cec:	217c0000 	cmncs	ip, r0
    2cf0:	21780000 	cmncs	r8, r0
    2cf4:	601b0000 	andsvs	r0, fp, r0
    2cf8:	ac000009 	stcge	0, cr0, [r0], {9}
    2cfc:	9e000021 	cdpls	0, 0, cr0, cr0, cr1, {1}
    2d00:	13000021 	movwne	r0, #33	; 0x21
    2d04:	000001b0 			; <UNDEFINED> instruction: 0x000001b0
    2d08:	00098c1e 	andeq	r8, r9, lr, lsl ip
    2d0c:	00221100 	eoreq	r1, r2, r0, lsl #2
    2d10:	00220b00 	eoreq	r0, r2, r0, lsl #22
    2d14:	09981e00 	ldmibeq	r8, {r9, sl, fp, ip}
    2d18:	22430000 	subcs	r0, r3, #0, 0
    2d1c:	223f0000 	eorscs	r0, pc, #0, 0
    2d20:	00000000 	andeq	r0, r0, r0
    2d24:	00091b2f 	andeq	r1, r9, pc, lsr #22
    2d28:	008e0400 	addeq	r0, lr, r0, lsl #8
    2d2c:	00006000 	andeq	r6, r0, r0
    2d30:	000bf700 	andeq	pc, fp, r0, lsl #14
    2d34:	091c1e00 	ldmdbeq	ip, {r9, sl, fp, ip}
    2d38:	22650000 	rsbcs	r0, r5, #0, 0
    2d3c:	22610000 	rsbcs	r0, r1, #0, 0
    2d40:	17000000 	strne	r0, [r0, -r0]
    2d44:	00008ed8 	ldrdeq	r8, [r0], -r8	; <UNPREDICTABLE>
    2d48:	00000c46 	andeq	r0, r0, r6, asr #24
    2d4c:	00000c30 	andeq	r0, r0, r0, lsr ip
    2d50:	05500118 	ldrbeq	r0, [r0, #-280]	; 0xfffffee8
    2d54:	00a1e403 	adceq	lr, r1, r3, lsl #8
    2d58:	51011800 	tstpl	r1, r0, lsl #16
    2d5c:	a5f80305 	ldrbge	r0, [r8, #773]!	; 0x305
    2d60:	01180000 	tsteq	r8, r0
    2d64:	38030552 	stmdacc	r3, {r1, r4, r6, r8, sl}
    2d68:	180000a7 	stmdane	r0, {r0, r1, r2, r5, r7}
    2d6c:	08025301 	stmdaeq	r2, {r0, r8, r9, ip, lr}
    2d70:	7d021879 	stcvc	8, cr1, [r2, #-484]	; 0xfffffe1c
    2d74:	68030500 	stmdavs	r3, {r8, sl}
    2d78:	000000a4 	andeq	r0, r0, r4, lsr #1
    2d7c:	008edc19 	addeq	sp, lr, r9, lsl ip
    2d80:	000c7600 	andeq	r7, ip, r0, lsl #12
    2d84:	9e300000 	cdpls	0, 3, cr0, cr0, cr0, {0}
    2d88:	9e000006 	cdpls	0, 0, cr0, cr0, cr6, {0}
    2d8c:	03000006 	movweq	r0, #6
    2d90:	953005eb 	ldrls	r0, [r0, #-1515]!	; 0xfffffa15
    2d94:	95000005 	strls	r0, [r0, #-5]
    2d98:	03000005 	movweq	r0, #5
    2d9c:	4f300628 	svcmi	0x00300628
    2da0:	4f000006 	svcmi	0x00000006
    2da4:	03000006 	movweq	r0, #6
    2da8:	7d3007ee 	ldcvc	7, cr0, [r0, #-952]!	; 0xfffffc48
    2dac:	7d000006 	stcvc	0, cr0, [r0, #-24]	; 0xffffffe8
    2db0:	03000006 	movweq	r0, #6
    2db4:	563005ea 	ldrtpl	r0, [r0], -sl, ror #11
    2db8:	56000006 	strpl	r0, [r0], -r6
    2dbc:	03000006 	movweq	r0, #6
    2dc0:	633007ed 	teqvs	r0, #62128128	; 0x3b40000
    2dc4:	63000000 	movwvs	r0, #0
    2dc8:	03000000 	movweq	r0, #0
    2dcc:	2f00066e 	svccs	0x0000066e
    2dd0:	04000001 	streq	r0, [r0], #-1
    2dd4:	000fba00 	andeq	fp, pc, r0, lsl #20
    2dd8:	b3010400 	movwlt	r0, #5120	; 0x1400
    2ddc:	0c000004 	stceq	0, cr0, [r0], {4}
    2de0:	000006c3 	andeq	r0, r0, r3, asr #13
    2de4:	0000056b 	andeq	r0, r0, fp, ror #10
    2de8:	000095a4 	andeq	r9, r0, r4, lsr #11
    2dec:	0000002c 	andeq	r0, r0, ip, lsr #32
    2df0:	000017b3 			; <UNDEFINED> instruction: 0x000017b3
    2df4:	69050402 	stmdbvs	r5, {r1, sl}
    2df8:	0300746e 	movweq	r7, #1134	; 0x46e
    2dfc:	00f10704 	rscseq	r0, r1, r4, lsl #14
    2e00:	01030000 	mrseq	r0, (UNDEF: 3)
    2e04:	00005706 	andeq	r5, r0, r6, lsl #14
    2e08:	05020300 	streq	r0, [r2, #-768]	; 0xfffffd00
    2e0c:	0000020b 	andeq	r0, r0, fp, lsl #4
    2e10:	15050403 	strne	r0, [r5, #-1027]	; 0xfffffbfd
    2e14:	03000001 	movweq	r0, #1
    2e18:	01100508 	tsteq	r0, r8, lsl #10
    2e1c:	01030000 	mrseq	r0, (UNDEF: 3)
    2e20:	00005508 	andeq	r5, r0, r8, lsl #10
    2e24:	07020300 	streq	r0, [r2, -r0, lsl #6]
    2e28:	00000070 	andeq	r0, r0, r0, ror r0
    2e2c:	ec070403 	cfstrs	mvf0, [r7], {3}
    2e30:	03000000 	movweq	r0, #0
    2e34:	00e70708 	rsceq	r0, r7, r8, lsl #14
    2e38:	25040000 	strcs	r0, [r4, #-0]
    2e3c:	7a000000 	bvc	2e44 <__code_start__-0x51bc>
    2e40:	05000000 	streq	r0, [r0, #-0]
    2e44:	00000025 	andeq	r0, r0, r5, lsr #32
    2e48:	02310600 	eorseq	r0, r1, #0, 12
    2e4c:	1c020000 	stcne	0, cr0, [r2], {-0}
    2e50:	0000860e 	andeq	r8, r0, lr, lsl #12
    2e54:	6b040700 	blvs	104a5c <__bss_end__+0xf9cbc>
    2e58:	04000000 	streq	r0, [r0], #-0
    2e5c:	00000025 	andeq	r0, r0, r5, lsr #32
    2e60:	0000009b 	muleq	r0, fp, r0
    2e64:	00009b05 	andeq	r9, r0, r5, lsl #22
    2e68:	04070000 	streq	r0, [r7], #-0
    2e6c:	000000a8 	andeq	r0, r0, r8, lsr #1
    2e70:	5e080103 	adfple	f0, f0, f3
    2e74:	08000000 	stmdaeq	r0, {}	; <UNPREDICTABLE>
    2e78:	000000a1 	andeq	r0, r0, r1, lsr #1
    2e7c:	0005d306 	andeq	sp, r5, r6, lsl #6
    2e80:	0e210200 	cdpeq	2, 2, cr0, cr1, cr0, {0}
    2e84:	000000b9 	strheq	r0, [r0], -r9
    2e88:	008c0407 	addeq	r0, ip, r7, lsl #8
    2e8c:	63090000 	movwvs	r0, #36864	; 0x9000
    2e90:	01000000 	mrseq	r0, (UNDEF: 0)
    2e94:	95a40604 	strls	r0, [r4, #1540]!	; 0x604
    2e98:	002c0000 	eoreq	r0, ip, r0
    2e9c:	9c010000 	stcls	0, cr0, [r1], {-0}
    2ea0:	0000010e 	andeq	r0, r0, lr, lsl #2
    2ea4:	0095b80a 	addseq	fp, r5, sl, lsl #16
    2ea8:	0000e800 	andeq	lr, r0, r0, lsl #16
    2eac:	50010b00 	andpl	r0, r1, r0, lsl #22
    2eb0:	a75c0305 	ldrbge	r0, [ip, -r5, lsl #6]
    2eb4:	0c000000 	stceq	0, cr0, [r0], {-0}
    2eb8:	000095bc 			; <UNDEFINED> instruction: 0x000095bc
    2ebc:	0000010e 	andeq	r0, r0, lr, lsl #2
    2ec0:	0095c40d 	addseq	ip, r5, sp, lsl #8
    2ec4:	00011a00 	andeq	r1, r1, r0, lsl #20
    2ec8:	00010400 	andeq	r0, r1, r0, lsl #8
    2ecc:	50010b00 	andpl	r0, r1, r0, lsl #22
    2ed0:	0c003a01 			; <UNDEFINED> instruction: 0x0c003a01
    2ed4:	000095c8 	andeq	r9, r0, r8, asr #11
    2ed8:	00000126 	andeq	r0, r0, r6, lsr #2
    2edc:	06de0e00 	ldrbeq	r0, [lr], r0, lsl #28
    2ee0:	06de0000 	ldrbeq	r0, [lr], r0
    2ee4:	4d020000 	stcmi	0, cr0, [r2, #-0]
    2ee8:	06ba0e06 	ldrteq	r0, [sl], r6, lsl #28
    2eec:	06ba0000 	ldrteq	r0, [sl], r0
    2ef0:	58020000 	stmdapl	r2, {}	; <UNPREDICTABLE>
    2ef4:	06af0e06 	strteq	r0, [pc], r6, lsl #28
    2ef8:	06af0000 	strteq	r0, [pc], r0
    2efc:	6b020000 	blvs	82f04 <__bss_end__+0x78164>
    2f00:	01900006 	orrseq	r0, r0, r6
    2f04:	00040000 	andeq	r0, r4, r0
    2f08:	0000107a 	andeq	r1, r0, sl, ror r0
    2f0c:	04b30104 	ldrteq	r0, [r3], #260	; 0x104
    2f10:	140c0000 	strne	r0, [ip], #-0
    2f14:	6b000007 	blvs	2f38 <__code_start__-0x50c8>
    2f18:	d0000005 	andle	r0, r0, r5
    2f1c:	f8000095 			; <UNDEFINED> instruction: 0xf8000095
    2f20:	3e000000 	cdpcc	0, 0, cr0, cr0, cr0, {0}
    2f24:	02000018 	andeq	r0, r0, #24, 0
    2f28:	6e690504 	cdpvs	5, 6, cr0, cr9, cr4, {0}
    2f2c:	04030074 	streq	r0, [r3], #-116	; 0xffffff8c
    2f30:	0000f107 	andeq	pc, r0, r7, lsl #2
    2f34:	06010300 	streq	r0, [r1], -r0, lsl #6
    2f38:	00000057 	andeq	r0, r0, r7, asr r0
    2f3c:	0b050203 	bleq	143750 <__bss_end__+0x1389b0>
    2f40:	03000002 	movweq	r0, #2
    2f44:	01150504 	tsteq	r5, r4, lsl #10
    2f48:	08030000 	stmdaeq	r3, {}	; <UNPREDICTABLE>
    2f4c:	00011005 	andeq	r1, r1, r5
    2f50:	08010300 	stmdaeq	r1, {r8, r9}
    2f54:	00000055 	andeq	r0, r0, r5, asr r0
    2f58:	70070203 	andvc	r0, r7, r3, lsl #4
    2f5c:	03000000 	movweq	r0, #0
    2f60:	00ec0704 	rsceq	r0, ip, r4, lsl #14
    2f64:	08030000 	stmdaeq	r3, {}	; <UNPREDICTABLE>
    2f68:	0000e707 	andeq	lr, r0, r7, lsl #14
    2f6c:	00250400 	eoreq	r0, r5, r0, lsl #8
    2f70:	007a0000 	rsbseq	r0, sl, r0
    2f74:	25050000 	strcs	r0, [r5, #-0]
    2f78:	00000000 	andeq	r0, r0, r0
    2f7c:	00023106 	andeq	r3, r2, r6, lsl #2
    2f80:	0e1c0200 	cdpeq	2, 1, cr0, cr12, cr0, {0}
    2f84:	00000086 	andeq	r0, r0, r6, lsl #1
    2f88:	006b0407 	rsbeq	r0, fp, r7, lsl #8
    2f8c:	25040000 	strcs	r0, [r4, #-0]
    2f90:	9b000000 	blls	2f98 <__code_start__-0x5068>
    2f94:	05000000 	streq	r0, [r0, #-0]
    2f98:	0000009b 	muleq	r0, fp, r0
    2f9c:	a8040700 	stmdage	r4, {r8, r9, sl}
    2fa0:	03000000 	movweq	r0, #0
    2fa4:	005e0801 	subseq	r0, lr, r1, lsl #16
    2fa8:	a1080000 	mrsge	r0, (UNDEF: 8)
    2fac:	06000000 	streq	r0, [r0], -r0
    2fb0:	000005d3 	ldrdeq	r0, [r0], -r3
    2fb4:	b90e2102 	stmdblt	lr, {r1, r8, sp}
    2fb8:	07000000 	streq	r0, [r0, -r0]
    2fbc:	00008c04 	andeq	r8, r0, r4, lsl #24
    2fc0:	06ec0900 	strbteq	r0, [ip], r0, lsl #18
    2fc4:	04010000 	streq	r0, [r1], #-0
    2fc8:	0095d006 	addseq	sp, r5, r6
    2fcc:	0000f800 	andeq	pc, r0, r0, lsl #16
    2fd0:	5b9c0100 	blpl	fe7033d8 <__bss_end__+0xfe6f8638>
    2fd4:	06000001 	streq	r0, [r0], -r1
    2fd8:	00000386 	andeq	r0, r0, r6, lsl #7
    2fdc:	25100501 	ldrcs	r0, [r0, #-1281]	; 0xfffffaff
    2fe0:	06000000 	streq	r0, [r0], -r0
    2fe4:	00000438 	andeq	r0, r0, r8, lsr r4
    2fe8:	251f0501 	ldrcs	r0, [pc, #-1281]	; 2aef <__code_start__-0x5511>
    2fec:	0a000000 	beq	2ff4 <__code_start__-0x500c>
    2ff0:	0000003b 	andeq	r0, r0, fp, lsr r0
    2ff4:	0b070601 	bleq	1c4800 <__bss_end__+0x1b9a60>
    2ff8:	00737362 	rsbseq	r7, r3, r2, ror #6
    2ffc:	5b0a0a01 	blpl	285808 <__bss_end__+0x27aa68>
    3000:	9d000001 	stcls	0, cr0, [r0, #-4]
    3004:	85000022 	strhi	r0, [r0, #-34]	; 0xffffffde
    3008:	0c000022 	stceq	0, cr0, [r0], {34}	; 0x22
    300c:	000006f4 	strdeq	r0, [r0], -r4
    3010:	5b0a0b01 	blpl	285c1c <__bss_end__+0x27ae7c>
    3014:	0d000001 	stceq	0, cr0, [r0, #-4]
    3018:	000096a8 	andeq	r9, r0, r8, lsr #13
    301c:	00000008 	andeq	r0, r0, r8
    3020:	00000136 	andeq	r0, r0, r6, lsr r1
    3024:	006e690b 	rsbeq	r6, lr, fp, lsl #18
    3028:	2c051401 	cfstrscs	mvf1, [r5], {1}
    302c:	37000000 	strcc	r0, [r0, -r0]
    3030:	35000023 	strcc	r0, [r0, #-35]	; 0xffffffdd
    3034:	00000023 	andeq	r0, r0, r3, lsr #32
    3038:	0095d80e 	addseq	sp, r5, lr, lsl #16
    303c:	00016100 	andeq	r6, r1, r0, lsl #2
    3040:	96a80e00 	strtls	r0, [r8], r0, lsl #28
    3044:	016e0000 	cmneq	lr, r0
    3048:	b40e0000 	strlt	r0, [lr], #-0
    304c:	7a000096 	bvc	32ac <__code_start__-0x4d54>
    3050:	0e000001 	cdpeq	0, 0, cr0, cr0, cr1, {0}
    3054:	000096b8 			; <UNDEFINED> instruction: 0x000096b8
    3058:	00000187 	andeq	r0, r0, r7, lsl #3
    305c:	25040700 	strcs	r0, [r4, #-1792]	; 0xfffff900
    3060:	0f000000 	svceq	0x00000000
    3064:	00000706 	andeq	r0, r0, r6, lsl #14
    3068:	00000706 	andeq	r0, r0, r6, lsl #14
    306c:	06013102 	streq	r3, [r1], -r2, lsl #2
    3070:	0006fc10 	andeq	pc, r6, r0, lsl ip	; <UNPREDICTABLE>
    3074:	0006fc00 	andeq	pc, r6, r0, lsl #24
    3078:	063b0200 	ldrteq	r0, [fp], -r0, lsl #4
    307c:	00003b0f 	andeq	r3, r0, pc, lsl #22
    3080:	00003b00 	andeq	r3, r0, r0, lsl #22
    3084:	01050200 	mrseq	r0, SP_usr
    3088:	00631006 	rsbeq	r1, r3, r6
    308c:	00630000 	rsbeq	r0, r3, r0
    3090:	6e020000 	cdpvs	0, 0, cr0, cr2, cr0, {0}
    3094:	00ce0006 	sbceq	r0, lr, r6
    3098:	00040000 	andeq	r0, r4, r0
    309c:	00001165 	andeq	r1, r0, r5, ror #2
    30a0:	04b30104 	ldrteq	r0, [r3], #260	; 0x104
    30a4:	290c0000 	stmdbcs	ip, {}	; <UNPREDICTABLE>
    30a8:	6b000007 	blvs	30cc <__code_start__-0x4f34>
    30ac:	c8000005 	stmdagt	r0, {r0, r2}
    30b0:	04000096 	streq	r0, [r0], #-150	; 0xffffff6a
    30b4:	54000000 	strpl	r0, [r0], #-0
    30b8:	02000019 	andeq	r0, r0, #25, 0
    30bc:	6e690504 	cdpvs	5, 6, cr0, cr9, cr4, {0}
    30c0:	04030074 	streq	r0, [r3], #-116	; 0xffffff8c
    30c4:	0000f107 	andeq	pc, r0, r7, lsl #2
    30c8:	06010300 	streq	r0, [r1], -r0, lsl #6
    30cc:	00000057 	andeq	r0, r0, r7, asr r0
    30d0:	0b050203 	bleq	1438e4 <__bss_end__+0x138b44>
    30d4:	03000002 	movweq	r0, #2
    30d8:	01150504 	tsteq	r5, r4, lsl #10
    30dc:	08030000 	stmdaeq	r3, {}	; <UNPREDICTABLE>
    30e0:	00011005 	andeq	r1, r1, r5
    30e4:	08010300 	stmdaeq	r1, {r8, r9}
    30e8:	00000055 	andeq	r0, r0, r5, asr r0
    30ec:	70070203 	andvc	r0, r7, r3, lsl #4
    30f0:	03000000 	movweq	r0, #0
    30f4:	00ec0704 	rsceq	r0, ip, r4, lsl #14
    30f8:	08030000 	stmdaeq	r3, {}	; <UNPREDICTABLE>
    30fc:	0000e707 	andeq	lr, r0, r7, lsl #14
    3100:	00250400 	eoreq	r0, r5, r0, lsl #8
    3104:	007a0000 	rsbseq	r0, sl, r0
    3108:	25050000 	strcs	r0, [r5, #-0]
    310c:	00000000 	andeq	r0, r0, r0
    3110:	00023106 	andeq	r3, r2, r6, lsl #2
    3114:	0e1c0200 	cdpeq	2, 1, cr0, cr12, cr0, {0}
    3118:	00000086 	andeq	r0, r0, r6, lsl #1
    311c:	006b0407 	rsbeq	r0, fp, r7, lsl #8
    3120:	25040000 	strcs	r0, [r4, #-0]
    3124:	9b000000 	blls	312c <__code_start__-0x4ed4>
    3128:	05000000 	streq	r0, [r0, #-0]
    312c:	0000009b 	muleq	r0, fp, r0
    3130:	a8040700 	stmdage	r4, {r8, r9, sl}
    3134:	03000000 	movweq	r0, #0
    3138:	005e0801 	subseq	r0, lr, r1, lsl #16
    313c:	a1080000 	mrsge	r0, (UNDEF: 8)
    3140:	06000000 	streq	r0, [r0], -r0
    3144:	000005d3 	ldrdeq	r0, [r0], -r3
    3148:	b90e2102 	stmdblt	lr, {r1, r8, sp}
    314c:	07000000 	streq	r0, [r0, -r0]
    3150:	00008c04 	andeq	r8, r0, r4, lsl #24
    3154:	07060900 	streq	r0, [r6, -r0, lsl #18]
    3158:	04010000 	streq	r0, [r1], #-0
    315c:	0096c806 	addseq	ip, r6, r6, lsl #16
    3160:	00000400 	andeq	r0, r0, r0, lsl #8
    3164:	009c0100 	addseq	r0, ip, r0, lsl #2
    3168:	0000027d 	andeq	r0, r0, sp, ror r2
    316c:	11de0004 	bicsne	r0, lr, r4
    3170:	01040000 	mrseq	r0, (UNDEF: 4)
    3174:	000004b3 			; <UNDEFINED> instruction: 0x000004b3
    3178:	0007710c 	andeq	r7, r7, ip, lsl #2
    317c:	00056b00 	andeq	r6, r5, r0, lsl #22
    3180:	00035800 	andeq	r5, r3, r0, lsl #16
    3184:	00000000 	andeq	r0, r0, r0
    3188:	0019d500 	andseq	sp, r9, r0, lsl #10
    318c:	05040200 	streq	r0, [r4, #-512]	; 0xfffffe00
    3190:	00746e69 	rsbseq	r6, r4, r9, ror #28
    3194:	00002503 	andeq	r2, r0, r3, lsl #10
    3198:	07040400 	streq	r0, [r4, -r0, lsl #8]
    319c:	000000f1 	strdeq	r0, [r0], -r1
    31a0:	57060104 	strpl	r0, [r6, -r4, lsl #2]
    31a4:	04000000 	streq	r0, [r0], #-0
    31a8:	020b0502 	andeq	r0, fp, #8388608	; 0x800000
    31ac:	04040000 	streq	r0, [r4], #-0
    31b0:	00011505 	andeq	r1, r1, r5, lsl #10
    31b4:	05080400 	streq	r0, [r8, #-1024]	; 0xfffffc00
    31b8:	00000110 	andeq	r0, r0, r0, lsl r1
    31bc:	55080104 	strpl	r0, [r8, #-260]	; 0xfffffefc
    31c0:	04000000 	streq	r0, [r0], #-0
    31c4:	00700702 	rsbseq	r0, r0, r2, lsl #14
    31c8:	04040000 	streq	r0, [r4], #-0
    31cc:	0000ec07 	andeq	lr, r0, r7, lsl #24
    31d0:	07080400 	streq	r0, [r8, -r0, lsl #8]
    31d4:	000000e7 	andeq	r0, r0, r7, ror #1
    31d8:	00002505 	andeq	r2, r0, r5, lsl #10
    31dc:	00007f00 	andeq	r7, r0, r0, lsl #30
    31e0:	00250600 	eoreq	r0, r5, r0, lsl #12
    31e4:	07000000 	streq	r0, [r0, -r0]
    31e8:	00000231 	andeq	r0, r0, r1, lsr r2
    31ec:	8b0e1c02 	blhi	38a1fc <__bss_end__+0x37f45c>
    31f0:	08000000 	stmdaeq	r0, {}	; <UNPREDICTABLE>
    31f4:	00007004 	andeq	r7, r0, r4
    31f8:	00250500 	eoreq	r0, r5, r0, lsl #10
    31fc:	00a00000 	adceq	r0, r0, r0
    3200:	a0060000 	andge	r0, r6, r0
    3204:	00000000 	andeq	r0, r0, r0
    3208:	00ad0408 	adceq	r0, sp, r8, lsl #8
    320c:	01040000 	mrseq	r0, (UNDEF: 4)
    3210:	00005e08 	andeq	r5, r0, r8, lsl #28
    3214:	00a60300 	adceq	r0, r6, r0, lsl #6
    3218:	d3070000 	movwle	r0, #28672	; 0x7000
    321c:	02000005 	andeq	r0, r0, #5, 0
    3220:	00be0e21 	adcseq	r0, lr, r1, lsr #28
    3224:	04080000 	streq	r0, [r8], #-0
    3228:	00000091 	muleq	r0, r1, r0
    322c:	00079509 	andeq	r9, r7, r9, lsl #10
    3230:	110d0100 	mrsne	r0, (UNDEF: 29)
    3234:	00000031 	andeq	r0, r0, r1, lsr r0
    3238:	0006af0a 	andeq	sl, r6, sl, lsl #30
    323c:	061f0100 	ldreq	r0, [pc], -r0, lsl #2
    3240:	000096f8 	strdeq	r9, [r0], -r8
    3244:	00000060 	andeq	r0, r0, r0, rrx
    3248:	01d59c01 	bicseq	r9, r5, r1, lsl #24
    324c:	b90b0000 	stmdblt	fp, {}	; <UNPREDICTABLE>
    3250:	01000007 	tsteq	r0, r7
    3254:	002c0f2c 	eoreq	r0, ip, ip, lsr #30
    3258:	001c0000 	andseq	r0, ip, r0
    325c:	540b2010 	strpl	r2, [fp], #-16
    3260:	01000007 	tsteq	r0, r7
    3264:	002c0f2d 	eoreq	r0, ip, sp, lsr #30
    3268:	00240000 	eoreq	r0, r4, r0
    326c:	860b2010 			; <UNDEFINED> instruction: 0x860b2010
    3270:	01000007 	tsteq	r0, r7
    3274:	002c0f2e 	eoreq	r0, ip, lr, lsr #30
    3278:	00000000 	andeq	r0, r0, r0
    327c:	a00c5a00 	andge	r5, ip, r0, lsl #20
    3280:	01000007 	tsteq	r0, r7
    3284:	002c0f2f 	eoreq	r0, ip, pc, lsr #30
    3288:	0d200000 	stceq	0, cr0, [r0, #-0]
    328c:	000001ef 	andeq	r0, r0, pc, ror #3
    3290:	000096f8 	strdeq	r9, [r0], -r8
    3294:	00034002 	andeq	r4, r3, r2
    3298:	08200100 	stmdaeq	r0!, {r8}
    329c:	0000014c 	andeq	r0, r0, ip, asr #2
    32a0:	0003400e 	andeq	r4, r3, lr
    32a4:	02000f00 	andeq	r0, r0, #0, 30
    32a8:	234f0000 	movtcs	r0, #61440	; 0xf000
    32ac:	234b0000 	movtcs	r0, #45056	; 0xb000
    32b0:	00000000 	andeq	r0, r0, r0
    32b4:	0001d510 	andeq	sp, r1, r0, lsl r5
    32b8:	00970c00 	addseq	r0, r7, r0, lsl #24
    32bc:	970c0100 	strls	r0, [ip, -r0, lsl #2]
    32c0:	00100000 	andseq	r0, r0, r0
    32c4:	21010000 	mrscs	r0, (UNDEF: 1)
    32c8:	00017309 	andeq	r7, r1, r9, lsl #6
    32cc:	01e20f00 	mvneq	r0, r0, lsl #30
    32d0:	23760000 	cmncs	r6, #0, 0
    32d4:	236e0000 	cmncs	lr, #0, 0
    32d8:	11000000 	mrsne	r0, (UNDEF: 0)
    32dc:	00009720 	andeq	r9, r0, r0, lsr #14
    32e0:	0000024f 	andeq	r0, r0, pc, asr #4
    32e4:	00972411 	addseq	r2, r7, r1, lsl r4
    32e8:	00025c00 	andeq	r5, r2, r0, lsl #24
    32ec:	972c1200 	strls	r1, [ip, -r0, lsl #4]!
    32f0:	02680000 	rsbeq	r0, r8, #0, 0
    32f4:	01980000 	orrseq	r0, r8, r0
    32f8:	01130000 	tsteq	r3, r0
    32fc:	003a0150 	eorseq	r0, sl, r0, asr r1
    3300:	00973812 	addseq	r3, r7, r2, lsl r8
    3304:	00027400 	andeq	r7, r2, r0, lsl #8
    3308:	0001b800 	andeq	fp, r1, r0, lsl #16
    330c:	50011300 	andpl	r1, r1, r0, lsl #6
    3310:	00240c05 	eoreq	r0, r4, r5, lsl #24
    3314:	01132010 	tsteq	r3, r0, lsl r0
    3318:	010c0551 	tsteq	ip, r1, asr r5
    331c:	005a0000 	subseq	r0, sl, r0
    3320:	00974414 	addseq	r4, r7, r4, lsl r4
    3324:	00027400 	andeq	r7, r2, r0, lsl #8
    3328:	50011300 	andpl	r1, r1, r0, lsl #6
    332c:	001c0c05 	andseq	r0, ip, r5, lsl #24
    3330:	01132010 	tsteq	r3, r0, lsl r0
    3334:	200c0551 	andcs	r0, ip, r1, asr r5
    3338:	005a0000 	subseq	r0, sl, r0
    333c:	07621500 	strbeq	r1, [r2, -r0, lsl #10]!
    3340:	17010000 	strne	r0, [r1, -r0]
    3344:	01ef0106 	mvneq	r0, r6, lsl #2
    3348:	c1090000 	mrsgt	r0, (UNDEF: 9)
    334c:	01000007 	tsteq	r0, r7
    3350:	00310e18 	eorseq	r0, r1, r8, lsl lr
    3354:	16000000 	strne	r0, [r0], -r0
    3358:	00000792 	muleq	r0, r2, r7
    335c:	25050e01 	strcs	r0, [r5, #-3585]	; 0xfffff1ff
    3360:	01000000 	mrseq	r0, (UNDEF: 0)
    3364:	0000020d 	andeq	r0, r0, sp, lsl #4
    3368:	0007c109 	andeq	ip, r7, r9, lsl #2
    336c:	0e0f0100 	adfeqe	f0, f7, f0
    3370:	00000031 	andeq	r0, r0, r1, lsr r0
    3374:	01ef1700 	mvneq	r1, r0, lsl #14
    3378:	96cc0000 	strbls	r0, [ip], r0
    337c:	00180000 	andseq	r0, r8, r0
    3380:	9c010000 	stcls	0, cr0, [r1], {-0}
    3384:	0000022e 	andeq	r0, r0, lr, lsr #4
    3388:	0002000f 	andeq	r0, r2, pc
    338c:	0023b300 	eoreq	fp, r3, r0, lsl #6
    3390:	0023af00 	eoreq	sl, r3, r0, lsl #30
    3394:	d5170000 	ldrle	r0, [r7, #-0]
    3398:	e4000001 	str	r0, [r0], #-1
    339c:	14000096 	strne	r0, [r0], #-150	; 0xffffff6a
    33a0:	01000000 	mrseq	r0, (UNDEF: 0)
    33a4:	00024f9c 	muleq	r2, ip, pc	; <UNPREDICTABLE>
    33a8:	01e20f00 	mvneq	r0, r0, lsl #30
    33ac:	23da0000 	bicscs	r0, sl, #0, 0
    33b0:	23d20000 	bicscs	r0, r2, #0, 0
    33b4:	18000000 	stmdane	r0, {}	; <UNPREDICTABLE>
    33b8:	00000745 	andeq	r0, r0, r5, asr #14
    33bc:	00000745 	andeq	r0, r0, r5, asr #14
    33c0:	06013602 	streq	r3, [r1], -r2, lsl #12
    33c4:	0006de19 	andeq	sp, r6, r9, lsl lr
    33c8:	0006de00 	andeq	sp, r6, r0, lsl #28
    33cc:	064d0200 	strbeq	r0, [sp], -r0, lsl #4
    33d0:	0006ba19 	andeq	fp, r6, r9, lsl sl
    33d4:	0006ba00 	andeq	fp, r6, r0, lsl #20
    33d8:	06580200 	ldrbeq	r0, [r8], -r0, lsl #4
    33dc:	00075c19 	andeq	r5, r7, r9, lsl ip
    33e0:	00075c00 	andeq	r5, r7, r0, lsl #24
    33e4:	06ad0200 	strteq	r0, [sp], r0, lsl #4
    33e8:	00053f00 	andeq	r3, r5, r0, lsl #30
    33ec:	61000400 	tstvs	r0, r0, lsl #8
    33f0:	04000013 	streq	r0, [r0], #-19	; 0xffffffed
    33f4:	0004b301 	andeq	fp, r4, r1, lsl #6
    33f8:	07dc0c00 	ldrbeq	r0, [ip, r0, lsl #24]
    33fc:	056b0000 	strbeq	r0, [fp, #-0]!
    3400:	97580000 	ldrbls	r0, [r8, -r0]
    3404:	011c0000 	tsteq	ip, r0
    3408:	1aed0000 	bne	ffb43410 <__bss_end__+0xffb38670>
    340c:	04020000 	streq	r0, [r2], #-0
    3410:	746e6905 	strbtvc	r6, [lr], #-2309	; 0xfffff6fb
    3414:	07040300 	streq	r0, [r4, -r0, lsl #6]
    3418:	000000f1 	strdeq	r0, [r0], -r1
    341c:	57060103 	strpl	r0, [r6, -r3, lsl #2]
    3420:	03000000 	movweq	r0, #0
    3424:	020b0502 	andeq	r0, fp, #8388608	; 0x800000
    3428:	04030000 	streq	r0, [r3], #-0
    342c:	00011505 	andeq	r1, r1, r5, lsl #10
    3430:	05080300 	streq	r0, [r8, #-768]	; 0xfffffd00
    3434:	00000110 	andeq	r0, r0, r0, lsl r1
    3438:	55080103 	strpl	r0, [r8, #-259]	; 0xfffffefd
    343c:	03000000 	movweq	r0, #0
    3440:	00700702 	rsbseq	r0, r0, r2, lsl #14
    3444:	04030000 	streq	r0, [r3], #-0
    3448:	0000ec07 	andeq	lr, r0, r7, lsl #24
    344c:	07080300 	streq	r0, [r8, -r0, lsl #6]
    3450:	000000e7 	andeq	r0, r0, r7, ror #1
    3454:	00002504 	andeq	r2, r0, r4, lsl #10
    3458:	00007a00 	andeq	r7, r0, r0, lsl #20
    345c:	00250500 	eoreq	r0, r5, r0, lsl #10
    3460:	06000000 	streq	r0, [r0], -r0
    3464:	00000231 	andeq	r0, r0, r1, lsr r2
    3468:	860e1c02 	strhi	r1, [lr], -r2, lsl #24
    346c:	07000000 	streq	r0, [r0, -r0]
    3470:	00006b04 	andeq	r6, r0, r4, lsl #22
    3474:	00250400 	eoreq	r0, r5, r0, lsl #8
    3478:	009b0000 	addseq	r0, fp, r0
    347c:	9b050000 	blls	143484 <__bss_end__+0x1386e4>
    3480:	00000000 	andeq	r0, r0, r0
    3484:	00a80407 	adceq	r0, r8, r7, lsl #8
    3488:	01030000 	mrseq	r0, (UNDEF: 3)
    348c:	00005e08 	andeq	r5, r0, r8, lsl #28
    3490:	00a10800 	adceq	r0, r1, r0, lsl #16
    3494:	d3060000 	movwle	r0, #24576	; 0x6000
    3498:	02000005 	andeq	r0, r0, #5, 0
    349c:	00b90e21 	adcseq	r0, r9, r1, lsr #28
    34a0:	04070000 	streq	r0, [r7], #-0
    34a4:	0000008c 	andeq	r0, r0, ip, lsl #1
    34a8:	0007d209 	andeq	sp, r7, r9, lsl #4
    34ac:	061e0100 	ldreq	r0, [lr], -r0, lsl #2
    34b0:	00009820 	andeq	r9, r0, r0, lsr #16
    34b4:	00000054 	andeq	r0, r0, r4, asr r0
    34b8:	020b9c01 	andeq	r9, fp, #256	; 0x100
    34bc:	730a0000 	movwvc	r0, #40960	; 0xa000
    34c0:	01006365 	tsteq	r0, r5, ror #6
    34c4:	002c191e 	eoreq	r1, ip, lr, lsl r9
    34c8:	24170000 	ldrcs	r0, [r7], #-0
    34cc:	24130000 	ldrcs	r0, [r3], #-0
    34d0:	0b0b0000 	bleq	2c34d8 <__bss_end__+0x2b8738>
    34d4:	20000002 	andcs	r0, r0, r2
    34d8:	02000098 	andeq	r0, r0, #152, 0	; 0x98
    34dc:	00000420 	andeq	r0, r0, r0, lsr #8
    34e0:	0c051f01 	stceq	15, cr1, [r5], {1}
    34e4:	00000218 	andeq	r0, r0, r8, lsl r2
    34e8:	0000243c 	andeq	r2, r0, ip, lsr r4
    34ec:	00002438 	andeq	r2, r0, r8, lsr r4
    34f0:	0002240d 	andeq	r2, r2, sp, lsl #8
    34f4:	00983400 	addseq	r3, r8, r0, lsl #8
    34f8:	98340000 	ldmdals	r4!, {}	; <UNPREDICTABLE>
    34fc:	00400000 	subeq	r0, r0, r0
    3500:	1c010000 	stcne	0, cr0, [r1], {-0}
    3504:	02310c05 	eorseq	r0, r1, #1280	; 0x500
    3508:	24690000 	strbtcs	r0, [r9], #-0
    350c:	24670000 	strbtcs	r0, [r7], #-0
    3510:	3c0e0000 	stccc	0, cr0, [lr], {-0}
    3514:	7e000002 	cdpvc	0, 0, cr0, cr0, cr2, {0}
    3518:	7c000024 	stcvc	0, cr0, [r0], {36}	; 0x24
    351c:	0f000024 	svceq	0x00000024
    3520:	00000255 	andeq	r0, r0, r5, asr r2
    3524:	00009834 	andeq	r9, r0, r4, lsr r8
    3528:	00983402 	addseq	r3, r8, r2, lsl #8
    352c:	00001400 	andeq	r1, r0, r0, lsl #8
    3530:	13130100 	tstne	r3, #0
    3534:	0000019c 	muleq	r0, ip, r1
    3538:	0002660e 	andeq	r6, r2, lr, lsl #12
    353c:	00249500 	eoreq	r9, r4, r0, lsl #10
    3540:	00249100 	eoreq	r9, r4, r0, lsl #2
    3544:	02710f00 	rsbseq	r0, r1, #0, 30
    3548:	98380000 	ldmdals	r8!, {}	; <UNPREDICTABLE>
    354c:	38010000 	stmdacc	r1, {}	; <UNPREDICTABLE>
    3550:	0c000098 	stceq	0, cr0, [r0], {152}	; 0x98
    3554:	01000000 	mrseq	r0, (UNDEF: 0)
    3558:	0189120d 	orreq	r1, r9, sp, lsl #4
    355c:	40100000 	andsmi	r0, r0, r0
    3560:	2a000098 	bcs	37c8 <__code_start__-0x4838>
    3564:	11000005 	tstne	r0, r5
    3568:	0c055001 	stceq	0, cr5, [r5], {1}
    356c:	20003004 	andcs	r3, r0, r4
    3570:	38120000 	ldmdacc	r2, {}	; <UNPREDICTABLE>
    3574:	36000098 			; <UNDEFINED> instruction: 0x36000098
    3578:	12000005 	andne	r0, r0, #5, 0
    357c:	00009848 	andeq	r9, r0, r8, asr #16
    3580:	00000536 	andeq	r0, r0, r6, lsr r5
    3584:	02471300 	subeq	r1, r7, #0, 6
    3588:	04380000 	ldrteq	r0, [r8], #-0
    358c:	48140000 	ldmdami	r4, {}	; <UNPREDICTABLE>
    3590:	0b000002 	bleq	35a0 <__code_start__-0x4a60>
    3594:	00000255 	andeq	r0, r0, r5, asr r2
    3598:	0000984c 	andeq	r9, r0, ip, asr #16
    359c:	00045002 	andeq	r5, r4, r2
    35a0:	17150100 	ldrne	r0, [r5, -r0, lsl #2]
    35a4:	00045015 	andeq	r5, r4, r5, lsl r0
    35a8:	02660e00 	rsbeq	r0, r6, #0, 28
    35ac:	24b50000 	ldrtcs	r0, [r5], #0
    35b0:	24b30000 	ldrtcs	r0, [r3], #0
    35b4:	71160000 	tstvc	r6, r0
    35b8:	50000002 	andpl	r0, r0, r2
    35bc:	01000098 	swpeq	r0, r8, [r0]	; <UNPREDICTABLE>
    35c0:	00000470 	andeq	r0, r0, r0, ror r4
    35c4:	f3120d01 	vpadd.f16	d0, d2, d1
    35c8:	10000001 	andne	r0, r0, r1
    35cc:	00009858 	andeq	r9, r0, r8, asr r8
    35d0:	0000052a 	andeq	r0, r0, sl, lsr #10
    35d4:	02500111 	subseq	r0, r0, #1073741828	; 0x40000004
    35d8:	00000077 	andeq	r0, r0, r7, ror r0
    35dc:	00985012 	addseq	r5, r8, r2, lsl r0
    35e0:	00053600 	andeq	r3, r5, r0, lsl #12
    35e4:	98641200 	stmdals	r4!, {r9, ip}^
    35e8:	05360000 	ldreq	r0, [r6, #-0]!
	...
    35f4:	0006ba17 	andeq	fp, r6, r7, lsl sl
    35f8:	061b0100 	ldreq	r0, [fp], -r0, lsl #2
    35fc:	00022401 	andeq	r2, r2, r1, lsl #8
    3600:	736d1800 	cmnvc	sp, #0, 16
    3604:	181b0100 	ldmdane	fp, {r8}
    3608:	0000002c 	andeq	r0, r0, ip, lsr #32
    360c:	08051700 	stmdaeq	r5, {r8, r9, sl, ip}
    3610:	12010000 	andne	r0, r1, #0, 0
    3614:	02550106 	subseq	r0, r5, #-2147483647	; 0x80000001
    3618:	75180000 	ldrvc	r0, [r8, #-0]
    361c:	12010073 	andne	r0, r1, #115, 0	; 0x73
    3620:	00002c18 	andeq	r2, r0, r8, lsl ip
    3624:	62721900 	rsbsvs	r1, r2, #0, 18
    3628:	0e130100 	mufeqs	f0, f3, f0
    362c:	0000002c 	andeq	r0, r0, ip, lsr #32
    3630:	6172191a 	cmnvs	r2, sl, lsl r9
    3634:	12150100 	andsne	r0, r5, #0
    3638:	0000002c 	andeq	r0, r0, ip, lsr #32
    363c:	f61b0000 			; <UNDEFINED> instruction: 0xf61b0000
    3640:	01000007 	tsteq	r0, r7
    3644:	002c0a09 	eoreq	r0, ip, r9, lsl #20
    3648:	71010000 	mrsvc	r0, (UNDEF: 1)
    364c:	19000002 	stmdbne	r0, {r1}
    3650:	0d010075 	stceq	0, cr0, [r1, #-468]	; 0xfffffe2c
    3654:	00002c0e 	andeq	r2, r0, lr, lsl #24
    3658:	0e1c0000 	cdpeq	0, 1, cr0, cr12, cr0, {0}
    365c:	01000008 	tsteq	r0, r8
    3660:	002c0a04 	eoreq	r0, ip, r4, lsl #20
    3664:	1d010000 	stcne	0, cr0, [r1, #-0]
    3668:	00000271 	andeq	r0, r0, r1, ror r2
    366c:	00009758 	andeq	r9, r0, r8, asr r7
    3670:	0000000c 	andeq	r0, r0, ip
    3674:	02a59c01 	adceq	r9, r5, #256	; 0x100
    3678:	601e0000 	andsvs	r0, lr, r0
    367c:	2a000097 	bcs	38e0 <__code_start__-0x4720>
    3680:	11000005 	tstne	r0, r5
    3684:	0c055001 	stceq	0, cr5, [r5], {1}
    3688:	20003004 	andcs	r3, r0, r4
    368c:	551d0000 	ldrpl	r0, [sp, #-0]
    3690:	64000002 	strvs	r0, [r0], #-2
    3694:	24000097 	strcs	r0, [r0], #-151	; 0xffffff69
    3698:	01000000 	mrseq	r0, (UNDEF: 0)
    369c:	0003059c 	muleq	r3, ip, r5
    36a0:	02660e00 	rsbeq	r0, r6, #0, 28
    36a4:	24cc0000 	strbcs	r0, [ip], #0
    36a8:	24c80000 	strbcs	r0, [r8], #0
    36ac:	710f0000 	mrsvc	r0, CPSR
    36b0:	6c000002 	stcvs	0, cr0, [r0], {2}
    36b4:	01000097 	swpeq	r0, r7, [r0]	; <UNPREDICTABLE>
    36b8:	0000976c 	andeq	r9, r0, ip, ror #14
    36bc:	0000000c 	andeq	r0, r0, ip
    36c0:	f2120d01 	vadd.f16	d0, d2, d1
    36c4:	10000002 	andne	r0, r0, r2
    36c8:	00009774 	andeq	r9, r0, r4, ror r7
    36cc:	0000052a 	andeq	r0, r0, sl, lsr #10
    36d0:	05500111 	ldrbeq	r0, [r0, #-273]	; 0xfffffeef
    36d4:	0030040c 	eorseq	r0, r0, ip, lsl #8
    36d8:	12000020 	andne	r0, r0, #32, 0
    36dc:	0000976c 	andeq	r9, r0, ip, ror #14
    36e0:	00000536 	andeq	r0, r0, r6, lsr r5
    36e4:	00977c12 	addseq	r7, r7, r2, lsl ip
    36e8:	00053600 	andeq	r3, r5, r0, lsl #12
    36ec:	241d0000 	ldrcs	r0, [sp], #-0
    36f0:	88000002 	stmdahi	r0, {r1}
    36f4:	48000097 	stmdami	r0, {r0, r1, r2, r4, r7}
    36f8:	01000000 	mrseq	r0, (UNDEF: 0)
    36fc:	0004079c 	muleq	r4, ip, r7
    3700:	02310c00 	eorseq	r0, r1, #0, 24
    3704:	24ee0000 	strbtcs	r0, [lr], #0
    3708:	24ea0000 	strbtcs	r0, [sl], #0
    370c:	3c0e0000 	stccc	0, cr0, [lr], {-0}
    3710:	0e000002 	cdpeq	0, 0, cr0, cr0, cr2, {0}
    3714:	0c000025 	stceq	0, cr0, [r0], {37}	; 0x25
    3718:	16000025 	strne	r0, [r0], -r5, lsr #32
    371c:	00000255 	andeq	r0, r0, r5, asr r2
    3720:	00009788 	andeq	r9, r0, r8, lsl #15
    3724:	00036802 	andeq	r6, r3, r2, lsl #16
    3728:	13130100 	tstne	r3, #0
    372c:	0000039a 	muleq	r0, sl, r3
    3730:	00036815 	andeq	r6, r3, r5, lsl r8
    3734:	02660e00 	rsbeq	r0, r6, #0, 28
    3738:	25250000 	strcs	r0, [r5, #-0]!
    373c:	25210000 	strcs	r0, [r1, #-0]!
    3740:	710f0000 	mrsvc	r0, CPSR
    3744:	94000002 	strls	r0, [r0], #-2
    3748:	01000097 	swpeq	r0, r7, [r0]	; <UNPREDICTABLE>
    374c:	00009794 	muleq	r0, r4, r7
    3750:	0000000c 	andeq	r0, r0, ip
    3754:	86120d01 	ldrhi	r0, [r2], -r1, lsl #26
    3758:	10000003 	andne	r0, r0, r3
    375c:	0000979c 	muleq	r0, ip, r7
    3760:	0000052a 	andeq	r0, r0, sl, lsr #10
    3764:	05500111 	ldrbeq	r0, [r0, #-273]	; 0xfffffeef
    3768:	0030040c 	eorseq	r0, r0, ip, lsl #8
    376c:	12000020 	andne	r0, r0, #32, 0
    3770:	00009794 	muleq	r0, r4, r7
    3774:	00000536 	andeq	r0, r0, r6, lsr r5
    3778:	0097a412 	addseq	sl, r7, r2, lsl r4
    377c:	00053600 	andeq	r3, r5, r0, lsl #12
    3780:	13000000 	movwne	r0, #0
    3784:	00000247 	andeq	r0, r0, r7, asr #4
    3788:	00000380 	andeq	r0, r0, r0, lsl #7
    378c:	00024814 	andeq	r4, r2, r4, lsl r8
    3790:	02550b00 	subseq	r0, r5, #0, 22
    3794:	97a80000 	strls	r0, [r8, r0]!
    3798:	98020000 	stmdals	r2, {}	; <UNPREDICTABLE>
    379c:	01000003 	tsteq	r0, r3
    37a0:	98151715 	ldmdals	r5, {r0, r2, r4, r8, r9, sl, ip}
    37a4:	0e000003 	cdpeq	0, 0, cr0, cr0, cr3, {0}
    37a8:	00000266 	andeq	r0, r0, r6, ror #4
    37ac:	00002545 	andeq	r2, r0, r5, asr #10
    37b0:	00002543 	andeq	r2, r0, r3, asr #10
    37b4:	00027116 	andeq	r7, r2, r6, lsl r1
    37b8:	0097ac00 	addseq	sl, r7, r0, lsl #24
    37bc:	03b80100 			; <UNDEFINED> instruction: 0x03b80100
    37c0:	0d010000 	stceq	0, cr0, [r1, #-0]
    37c4:	0003f112 	andeq	pc, r3, r2, lsl r1	; <UNPREDICTABLE>
    37c8:	97b41000 	ldrls	r1, [r4, r0]!
    37cc:	052a0000 	streq	r0, [sl, #-0]!
    37d0:	01110000 	tsteq	r1, r0
    37d4:	00770250 	rsbseq	r0, r7, r0, asr r2
    37d8:	ac120000 	ldcge	0, cr0, [r2], {-0}
    37dc:	36000097 			; <UNDEFINED> instruction: 0x36000097
    37e0:	12000005 	andne	r0, r0, #5, 0
    37e4:	000097c0 	andeq	r9, r0, r0, asr #15
    37e8:	00000536 	andeq	r0, r0, r6, lsr r5
    37ec:	00000000 	andeq	r0, r0, r0
    37f0:	00020b1d 	andeq	r0, r2, sp, lsl fp
    37f4:	0097d000 	addseq	sp, r7, r0
    37f8:	00005000 	andeq	r5, r0, r0
    37fc:	2a9c0100 	bcs	fe703c04 <__bss_end__+0xfe6f8e64>
    3800:	0c000005 	stceq	0, cr0, [r0], {5}
    3804:	00000218 	andeq	r0, r0, r8, lsl r2
    3808:	0000255c 	andeq	r2, r0, ip, asr r5
    380c:	00002558 	andeq	r2, r0, r8, asr r5
    3810:	0002240d 	andeq	r2, r2, sp, lsl #8
    3814:	0097e000 	addseq	lr, r7, r0
    3818:	97e00000 	strbls	r0, [r0, r0]!
    381c:	00400000 	subeq	r0, r0, r0
    3820:	1c010000 	stcne	0, cr0, [r1], {-0}
    3824:	02310c05 	eorseq	r0, r1, #1280	; 0x500
    3828:	257f0000 	ldrbcs	r0, [pc, #-0]!	; 3830 <__code_start__-0x47d0>
    382c:	257d0000 	ldrbcs	r0, [sp, #-0]!
    3830:	3c0e0000 	stccc	0, cr0, [lr], {-0}
    3834:	94000002 	strls	r0, [r0], #-2
    3838:	92000025 	andls	r0, r0, #37, 0	; 0x25
    383c:	0f000025 	svceq	0x00000025
    3840:	00000255 	andeq	r0, r0, r5, asr r2
    3844:	000097e0 	andeq	r9, r0, r0, ror #15
    3848:	0097e002 	addseq	lr, r7, r2
    384c:	00001400 	andeq	r1, r0, r0, lsl #8
    3850:	13130100 	tstne	r3, #0
    3854:	000004bc 			; <UNDEFINED> instruction: 0x000004bc
    3858:	0002660e 	andeq	r6, r2, lr, lsl #12
    385c:	0025ab00 	eoreq	sl, r5, r0, lsl #22
    3860:	0025a700 	eoreq	sl, r5, r0, lsl #14
    3864:	02710f00 	rsbseq	r0, r1, #0, 30
    3868:	97e40000 	strbls	r0, [r4, r0]!
    386c:	e4010000 	str	r0, [r1], #-0
    3870:	0c000097 	stceq	0, cr0, [r0], {151}	; 0x97
    3874:	01000000 	mrseq	r0, (UNDEF: 0)
    3878:	04a9120d 	strteq	r1, [r9], #525	; 0x20d
    387c:	ec100000 	ldc	0, cr0, [r0], {-0}
    3880:	2a000097 	bcs	3ae4 <__code_start__-0x451c>
    3884:	11000005 	tstne	r0, r5
    3888:	0c055001 	stceq	0, cr5, [r5], {1}
    388c:	20003004 	andcs	r3, r0, r4
    3890:	e4120000 	ldr	r0, [r2], #-0
    3894:	36000097 			; <UNDEFINED> instruction: 0x36000097
    3898:	12000005 	andne	r0, r0, #5, 0
    389c:	000097f4 	strdeq	r9, [r0], -r4
    38a0:	00000536 	andeq	r0, r0, r6, lsr r5
    38a4:	02471300 	subeq	r1, r7, #0, 6
    38a8:	03d00000 	bicseq	r0, r0, #0, 0
    38ac:	48140000 	ldmdami	r4, {}	; <UNPREDICTABLE>
    38b0:	0b000002 	bleq	38c0 <__code_start__-0x4740>
    38b4:	00000255 	andeq	r0, r0, r5, asr r2
    38b8:	000097f8 	strdeq	r9, [r0], -r8
    38bc:	0003e802 	andeq	lr, r3, r2, lsl #16
    38c0:	17150100 	ldrne	r0, [r5, -r0, lsl #2]
    38c4:	0003e815 	andeq	lr, r3, r5, lsl r8
    38c8:	02660e00 	rsbeq	r0, r6, #0, 28
    38cc:	25cb0000 	strbcs	r0, [fp]
    38d0:	25c90000 	strbcs	r0, [r9]
    38d4:	71160000 	tstvc	r6, r0
    38d8:	fc000002 	stc2	0, cr0, [r0], {2}
    38dc:	01000097 	swpeq	r0, r7, [r0]	; <UNPREDICTABLE>
    38e0:	00000408 	andeq	r0, r0, r8, lsl #8
    38e4:	13120d01 	tstne	r2, #64	; 0x40
    38e8:	10000005 	andne	r0, r0, r5
    38ec:	00009804 	andeq	r9, r0, r4, lsl #16
    38f0:	0000052a 	andeq	r0, r0, sl, lsr #10
    38f4:	02500111 	subseq	r0, r0, #1073741828	; 0x40000004
    38f8:	00000077 	andeq	r0, r0, r7, ror r0
    38fc:	0097fc12 	addseq	pc, r7, r2, lsl ip	; <UNPREDICTABLE>
    3900:	00053600 	andeq	r3, r5, r0, lsl #12
    3904:	98101200 	ldmdals	r0, {r9, ip}
    3908:	05360000 	ldreq	r0, [r6, #-0]!
    390c:	00000000 	andeq	r0, r0, r0
    3910:	1f000000 	svcne	0x00000000
    3914:	000007f0 	strdeq	r0, [r0], -r0	; <UNPREDICTABLE>
    3918:	000007f0 	strdeq	r0, [r0], -r0	; <UNPREDICTABLE>
    391c:	1f0ac202 	svcne	0x000ac202
    3920:	000007c6 	andeq	r0, r0, r6, asr #15
    3924:	000007c6 	andeq	r0, r0, r6, asr #15
    3928:	00069c02 	andeq	r9, r6, r2, lsl #24
    392c:	000005cd 	andeq	r0, r0, sp, asr #11
    3930:	15300004 	ldrne	r0, [r0, #-4]!
    3934:	01040000 	mrseq	r0, (UNDEF: 4)
    3938:	00000921 	andeq	r0, r0, r1, lsr #18
    393c:	0008600c 	andeq	r6, r8, ip
    3940:	0008d100 	andeq	sp, r8, r0, lsl #2
    3944:	00987400 	addseq	r7, r8, r0, lsl #8
    3948:	0001f000 	andeq	pc, r1, r0
    394c:	001ceb00 	andseq	lr, ip, r0, lsl #22
    3950:	05040200 	streq	r0, [r4, #-512]	; 0xfffffe00
    3954:	00746e69 	rsbseq	r6, r4, r9, ror #28
    3958:	f1070403 			; <UNDEFINED> instruction: 0xf1070403
    395c:	04000000 	streq	r0, [r0], #-0
    3960:	0000002c 	andeq	r0, r0, ip, lsr #32
    3964:	57060103 	strpl	r0, [r6, -r3, lsl #2]
    3968:	03000000 	movweq	r0, #0
    396c:	020b0502 	andeq	r0, fp, #8388608	; 0x800000
    3970:	04030000 	streq	r0, [r3], #-0
    3974:	00011505 	andeq	r1, r1, r5, lsl #10
    3978:	05080300 	streq	r0, [r8, #-768]	; 0xfffffd00
    397c:	00000110 	andeq	r0, r0, r0, lsl r1
    3980:	55080103 	strpl	r0, [r8, #-259]	; 0xfffffefd
    3984:	03000000 	movweq	r0, #0
    3988:	00700702 	rsbseq	r0, r0, r2, lsl #14
    398c:	28050000 	stmdacs	r5, {}	; <UNPREDICTABLE>
    3990:	05000002 	streq	r0, [r0, #-2]
    3994:	006e1934 	rsbeq	r1, lr, r4, lsr r9
    3998:	04030000 	streq	r0, [r3], #-0
    399c:	0000ec07 	andeq	lr, r0, r7, lsl #24
    39a0:	07080300 	streq	r0, [r8, -r0, lsl #6]
    39a4:	000000e7 	andeq	r0, r0, r7, ror #1
    39a8:	5e080103 	adfple	f0, f0, f3
    39ac:	06000000 	streq	r0, [r0], -r0
    39b0:	00540107 	subseq	r0, r4, r7, lsl #2
    39b4:	0c040000 	stceq	0, cr0, [r4], {-0}
    39b8:	0000c20e 	andeq	ip, r0, lr, lsl #4
    39bc:	0a0b0700 	beq	2c55c4 <__bss_end__+0x2ba824>
    39c0:	07000000 	streq	r0, [r0, -r0]
    39c4:	00000843 	andeq	r0, r0, r3, asr #16
    39c8:	08860701 	stmeq	r6, {r0, r8, r9, sl}
    39cc:	07040000 	streq	r0, [r4, -r0]
    39d0:	00000895 	muleq	r0, r5, r8
    39d4:	08a40705 	stmiaeq	r4!, {r0, r2, r8, r9, sl}
    39d8:	07060000 	streq	r0, [r6, -r0]
    39dc:	000008b3 			; <UNDEFINED> instruction: 0x000008b3
    39e0:	09d40707 	ldmibeq	r4, {r0, r1, r2, r8, r9, sl}^
    39e4:	07030000 	streq	r0, [r3, -r0]
    39e8:	000008c2 	andeq	r0, r0, r2, asr #17
    39ec:	54080002 	strpl	r0, [r8], #-2
    39f0:	2c000008 	stccs	0, cr0, [r0], {8}
    39f4:	5e080602 	cfmadd32pl	mvax0, mvfx0, mvfx8, mvfx2
    39f8:	09000001 	stmdbeq	r0, {r0}
    39fc:	02006f69 	andeq	r6, r0, #420	; 0x1a4
    3a00:	00330909 	eorseq	r0, r3, r9, lsl #18
    3a04:	09000000 	stmdbeq	r0, {}	; <UNPREDICTABLE>
    3a08:	00726569 	rsbseq	r6, r2, r9, ror #10
    3a0c:	33090a02 	movwcc	r0, #39426	; 0x9a02
    3a10:	04000000 	streq	r0, [r0], #-0
    3a14:	72696909 	rsbvc	r6, r9, #147456	; 0x24000
    3a18:	09110200 	ldmdbeq	r1, {r9}
    3a1c:	00000033 	andeq	r0, r0, r3, lsr r0
    3a20:	636c0908 	cmnvs	ip, #8, 18	; 0x20000
    3a24:	13020072 	movwne	r0, #8306	; 0x2072
    3a28:	00003309 	andeq	r3, r0, r9, lsl #6
    3a2c:	6d090c00 	stcvs	12, cr0, [r9, #-0]
    3a30:	02007263 	andeq	r7, r0, #805306374	; 0x30000006
    3a34:	00330914 	eorseq	r0, r3, r4, lsl r9
    3a38:	09100000 	ldmdbeq	r0, {}	; <UNPREDICTABLE>
    3a3c:	0072736c 	rsbseq	r7, r2, ip, ror #6
    3a40:	33091502 	movwcc	r1, #38146	; 0x9502
    3a44:	14000000 	strne	r0, [r0], #-0
    3a48:	72736d09 	rsbsvc	r6, r3, #576	; 0x240
    3a4c:	09160200 	ldmdbeq	r6, {r9}
    3a50:	00000033 	andeq	r0, r0, r3, lsr r0
    3a54:	09eb0a18 	stmibeq	fp!, {r3, r4, r9, fp}^
    3a58:	17020000 	strne	r0, [r2, -r0]
    3a5c:	00003309 	andeq	r3, r0, r9, lsl #6
    3a60:	b40a1c00 	strlt	r1, [sl], #-3072	; 0xfffff400
    3a64:	02000009 	andeq	r0, r0, #9, 0
    3a68:	0033091b 	eorseq	r0, r3, fp, lsl r9
    3a6c:	0a200000 	beq	803a74 <__bss_end__+0x7f8cd4>
    3a70:	00000830 	andeq	r0, r0, r0, lsr r8
    3a74:	33091d02 	movwcc	r1, #40194	; 0x9d02
    3a78:	24000000 	strcs	r0, [r0], #-0
    3a7c:	0009060a 	andeq	r0, r9, sl, lsl #12
    3a80:	091e0200 	ldmdbeq	lr, {r9}
    3a84:	00000033 	andeq	r0, r0, r3, lsr r0
    3a88:	0b0b0028 	bleq	2c3b30 <__bss_end__+0x2b8d90>
    3a8c:	01000009 	tsteq	r0, r9
    3a90:	01740908 	cmneq	r4, r8, lsl #18
    3a94:	50040000 	andpl	r0, r4, r0
    3a98:	040c2021 	streq	r2, [ip], #-33	; 0xffffffdf
    3a9c:	00000033 	andeq	r0, r0, r3, lsr r0
    3aa0:	00016e0d 	andeq	r6, r1, sp, lsl #28
    3aa4:	09f30b00 	ldmibeq	r3!, {r8, r9, fp}^
    3aa8:	29010000 	stmdbcs	r1, {}	; <UNPREDICTABLE>
    3aac:	00018f23 	andeq	r8, r1, r3, lsr #30
    3ab0:	21504000 	cmpcs	r0, r0
    3ab4:	c2040c20 	andgt	r0, r4, #32, 24	; 0x2000
    3ab8:	0d000000 	stceq	0, cr0, [r0, #-0]
    3abc:	00000189 	andeq	r0, r0, r9, lsl #3
    3ac0:	0006de0e 	andeq	sp, r6, lr, lsl #28
    3ac4:	06cc0100 	strbeq	r0, [ip], r0, lsl #2
    3ac8:	00009a2c 	andeq	r9, r0, ip, lsr #20
    3acc:	00000014 	andeq	r0, r0, r4, lsl r0
    3ad0:	01b49c01 			; <UNDEFINED> instruction: 0x01b49c01
    3ad4:	340f0000 	strcc	r0, [pc], #-0	; 3adc <__code_start__-0x4524>
    3ad8:	b400009a 	strlt	r0, [r0], #-154	; 0xffffff66
    3adc:	00000001 	andeq	r0, r0, r1
    3ae0:	00087510 	andeq	r7, r8, r0, lsl r5
    3ae4:	05b60100 	ldreq	r0, [r6, #256]!	; 0x100
    3ae8:	00000025 	andeq	r0, r0, r5, lsr #32
    3aec:	00009a0c 	andeq	r9, r0, ip, lsl #20
    3af0:	00000020 	andeq	r0, r0, r0, lsr #32
    3af4:	01eb9c01 	mvneq	r9, r1, lsl #24
    3af8:	140f0000 	strne	r0, [pc], #-0	; 3b00 <__code_start__-0x4500>
    3afc:	a000009a 	mulge	r0, sl, r0
    3b00:	11000005 	tstne	r0, r5
    3b04:	00009a1c 	andeq	r9, r0, ip, lsl sl
    3b08:	000005ac 	andeq	r0, r0, ip, lsr #11
    3b0c:	05500112 	ldrbeq	r0, [r0, #-274]	; 0xfffffeee
    3b10:	2150640c 	cmpcs	r0, ip, lsl #8
    3b14:	10000020 	andne	r0, r0, r0, lsr #32
    3b18:	000009c6 	andeq	r0, r0, r6, asr #19
    3b1c:	2505b301 	strcs	fp, [r5, #-769]	; 0xfffffcff
    3b20:	fc000000 	stc2	0, cr0, [r0], {-0}
    3b24:	10000099 	mulne	r0, r9, r0
    3b28:	01000000 	mrseq	r0, (UNDEF: 0)
    3b2c:	0002189c 	muleq	r2, ip, r8
    3b30:	9a040f00 	bls	107738 <__bss_end__+0xfc998>
    3b34:	05a00000 	streq	r0, [r0, #0]!
    3b38:	080f0000 	stmdaeq	pc, {}	; <UNPREDICTABLE>
    3b3c:	0900009a 	stmdbeq	r0, {r1, r3, r4, r7}
    3b40:	00000003 	andeq	r0, r0, r3
    3b44:	000a010e 	andeq	r0, sl, lr, lsl #2
    3b48:	06ab0100 	strteq	r0, [fp], r0, lsl #2
    3b4c:	000099cc 	andeq	r9, r0, ip, asr #19
    3b50:	00000030 	andeq	r0, r0, r0, lsr r0
    3b54:	027c9c01 	rsbseq	r9, ip, #256	; 0x100
    3b58:	63130000 	tstvs	r3, #0, 0
    3b5c:	19ab0100 	stmibne	fp!, {r8}
    3b60:	0000002c 	andeq	r0, r0, ip, lsr #32
    3b64:	000025e2 	andeq	r2, r0, r2, ror #11
    3b68:	000025de 	ldrdeq	r2, [r0], -lr
    3b6c:	0099d80f 	addseq	sp, r9, pc, lsl #16
    3b70:	0005a000 	andeq	sl, r5, r0
    3b74:	99dc0f00 	ldmibls	ip, {r8, r9, sl, fp}^
    3b78:	02db0000 	sbcseq	r0, fp, #0, 0
    3b7c:	f0140000 			; <UNDEFINED> instruction: 0xf0140000
    3b80:	b8000099 	stmdalt	r0, {r0, r3, r4, r7}
    3b84:	72000005 	andvc	r0, r0, #5, 0
    3b88:	12000002 	andne	r0, r0, #2, 0
    3b8c:	0c055001 	stceq	0, cr5, [r5], {1}
    3b90:	20215040 	eorcs	r5, r1, r0, asr #32
    3b94:	05510112 	ldrbeq	r0, [r1, #-274]	; 0xfffffeee
    3b98:	ff080074 			; <UNDEFINED> instruction: 0xff080074
    3b9c:	f40f001a 	vst4.8	{d0-d3}, [pc :64], sl
    3ba0:	a0000099 	mulge	r0, r9, r0
    3ba4:	00000005 	andeq	r0, r0, r5
    3ba8:	00091710 	andeq	r1, r9, r0, lsl r7
    3bac:	05a30100 	streq	r0, [r3, #256]!	; 0x100
    3bb0:	00000025 	andeq	r0, r0, r5, lsr #32
    3bb4:	0000999c 	muleq	r0, ip, r9
    3bb8:	00000030 	andeq	r0, r0, r0, lsr r0
    3bbc:	02db9c01 	sbcseq	r9, fp, #256	; 0x100
    3bc0:	63150000 	tstvs	r5, #0, 0
    3bc4:	09a70100 	stmibeq	r7!, {r8}
    3bc8:	00000025 	andeq	r0, r0, r5, lsr #32
    3bcc:	00002602 	andeq	r2, r0, r2, lsl #12
    3bd0:	00002600 	andeq	r2, r0, r0, lsl #12
    3bd4:	0099a40f 	addseq	sl, r9, pc, lsl #8
    3bd8:	0005a000 	andeq	sl, r5, r0
    3bdc:	99a80f00 	stmibls	r8!, {r8, r9, sl, fp}
    3be0:	03090000 	movweq	r0, #36864	; 0x9000
    3be4:	b8140000 	ldmdalt	r4, {}	; <UNPREDICTABLE>
    3be8:	ac000099 	stcge	0, cr0, [r0], {153}	; 0x99
    3bec:	d1000005 	tstle	r0, r5
    3bf0:	12000002 	andne	r0, r0, #2, 0
    3bf4:	0c055001 	stceq	0, cr5, [r5], {1}
    3bf8:	20215040 	eorcs	r5, r1, r0, asr #32
    3bfc:	99c00f00 	stmibls	r0, {r8, r9, sl, fp}^
    3c00:	05a00000 	streq	r0, [r0, #0]!
    3c04:	10000000 	andne	r0, r0, r0
    3c08:	00000867 	andeq	r0, r0, r7, ror #16
    3c0c:	25059401 	strcs	r9, [r5, #-1025]	; 0xfffffbff
    3c10:	7c000000 	stcvc	0, cr0, [r0], {-0}
    3c14:	20000099 	mulcs	r0, r9, r0
    3c18:	01000000 	mrseq	r0, (UNDEF: 0)
    3c1c:	0003099c 	muleq	r3, ip, r9
    3c20:	99881100 	stmibls	r8, {r8, ip}
    3c24:	05ac0000 	streq	r0, [ip, #0]!
    3c28:	01120000 	tsteq	r2, r0
    3c2c:	640c0550 	strvs	r0, [ip], #-1360	; 0xfffffab0
    3c30:	00202150 	eoreq	r2, r0, r0, asr r1
    3c34:	08351000 	ldmdaeq	r5!, {ip}
    3c38:	8b010000 	blhi	43c40 <__bss_end__+0x38ea0>
    3c3c:	00002505 	andeq	r2, r0, r5, lsl #10
    3c40:	00996400 	addseq	r6, r9, r0, lsl #8
    3c44:	00001800 	andeq	r1, r0, r0, lsl #16
    3c48:	379c0100 	ldrcc	r0, [ip, r0, lsl #2]
    3c4c:	11000003 	tstne	r0, r3
    3c50:	00009970 	andeq	r9, r0, r0, ror r9
    3c54:	000005ac 	andeq	r0, r0, ip, lsr #11
    3c58:	05500112 	ldrbeq	r0, [r0, #-274]	; 0xfffffeee
    3c5c:	2150640c 	cmpcs	r0, ip, lsl #8
    3c60:	0e000020 	cdpeq	0, 0, cr0, cr0, cr0, {1}
    3c64:	000006fc 	strdeq	r0, [r0], -ip
    3c68:	b4064501 	strlt	r4, [r6], #-1281	; 0xfffffaff
    3c6c:	b0000098 	mullt	r0, r8, r0
    3c70:	01000000 	mrseq	r0, (UNDEF: 0)
    3c74:	0004849c 	muleq	r4, ip, r4
    3c78:	08271600 	stmdaeq	r7!, {r9, sl, ip}
    3c7c:	7e010000 	cdpvc	0, 0, cr0, cr1, cr0, {0}
    3c80:	0000620e 	andeq	r6, r0, lr, lsl #4
    3c84:	14010e00 	strne	r0, [r1], #-3584	; 0xfffff200
    3c88:	000098c4 	andeq	r9, r0, r4, asr #17
    3c8c:	000005c4 	andeq	r0, r0, r4, asr #11
    3c90:	00000373 	andeq	r0, r0, r3, ror r3
    3c94:	01500112 	cmpeq	r0, r2, lsl r1
    3c98:	5101123e 	tstpl	r1, lr, lsr r2
    3c9c:	14003201 	strne	r3, [r0], #-513	; 0xfffffdff
    3ca0:	000098d0 	ldrdeq	r9, [r0], -r0
    3ca4:	000005c4 	andeq	r0, r0, r4, asr #11
    3ca8:	0000038b 	andeq	r0, r0, fp, lsl #7
    3cac:	01500112 	cmpeq	r0, r2, lsl r1
    3cb0:	5101123f 	tstpl	r1, pc, lsr r2
    3cb4:	0f003201 	svceq	0x00003201
    3cb8:	000098d4 	ldrdeq	r9, [r0], -r4
    3cbc:	000005a0 	andeq	r0, r0, r0, lsr #11
    3cc0:	0098e014 	addseq	lr, r8, r4, lsl r0
    3cc4:	00053d00 	andeq	r3, r5, r0, lsl #26
    3cc8:	0003b000 	andeq	fp, r3, r0
    3ccc:	50011200 	andpl	r1, r1, r0, lsl #4
    3cd0:	50040c05 	andpl	r0, r4, r5, lsl #24
    3cd4:	01122021 	tsteq	r2, r1, lsr #32
    3cd8:	00310151 	eorseq	r0, r1, r1, asr r1
    3cdc:	0098e40f 	addseq	lr, r8, pc, lsl #8
    3ce0:	0005a000 	andeq	sl, r5, r0
    3ce4:	98f41400 	ldmls	r4!, {sl, ip}^
    3ce8:	05b80000 	ldreq	r0, [r8, #0]!
    3cec:	03d20000 	bicseq	r0, r2, #0, 0
    3cf0:	01120000 	tsteq	r2, r0
    3cf4:	00740250 	rsbseq	r0, r4, r0, asr r2
    3cf8:	01510112 	cmpeq	r1, r2, lsl r1
    3cfc:	00140030 	andseq	r0, r4, r0, lsr r0
    3d00:	b8000099 	stmdalt	r0, {r0, r3, r4, r7}
    3d04:	ee000005 	cdp	0, 0, cr0, cr0, cr5, {0}
    3d08:	12000003 	andne	r0, r0, #3, 0
    3d0c:	0c055001 	stceq	0, cr5, [r5], {1}
    3d10:	20215044 	eorcs	r5, r1, r4, asr #32
    3d14:	01510112 	cmpeq	r1, r2, lsl r1
    3d18:	0c140030 	ldceq	0, cr0, [r4], {48}	; 0x30
    3d1c:	b8000099 	stmdalt	r0, {r0, r3, r4, r7}
    3d20:	0a000005 	beq	3d3c <__code_start__-0x42c4>
    3d24:	12000004 	andne	r0, r0, #4, 0
    3d28:	0c055001 	stceq	0, cr5, [r5], {1}
    3d2c:	2021504c 	eorcs	r5, r1, ip, asr #32
    3d30:	01510112 	cmpeq	r1, r2, lsl r1
    3d34:	18140033 	ldmdane	r4, {r0, r1, r4, r5}
    3d38:	b8000099 	stmdalt	r0, {r0, r3, r4, r7}
    3d3c:	26000005 	strcs	r0, [r0], -r5
    3d40:	12000004 	andne	r0, r0, #4, 0
    3d44:	0c055001 	stceq	0, cr5, [r5], {1}
    3d48:	20215050 	eorcs	r5, r1, r0, asr r0
    3d4c:	01510112 	cmpeq	r1, r2, lsl r1
    3d50:	24140030 	ldrcs	r0, [r4], #-48	; 0xffffffd0
    3d54:	b8000099 	stmdalt	r0, {r0, r3, r4, r7}
    3d58:	43000005 	movwmi	r0, #5
    3d5c:	12000004 	andne	r0, r0, #4, 0
    3d60:	0c055001 	stceq	0, cr5, [r5], {1}
    3d64:	20215048 	eorcs	r5, r1, r8, asr #32
    3d68:	02510112 	subseq	r0, r1, #-2147483644	; 0x80000004
    3d6c:	1400c708 	strne	ip, [r0], #-1800	; 0xfffff8f8
    3d70:	00009930 	andeq	r9, r0, r0, lsr r9
    3d74:	000005b8 			; <UNDEFINED> instruction: 0x000005b8
    3d78:	00000461 	andeq	r0, r0, r1, ror #8
    3d7c:	05500112 	ldrbeq	r0, [r0, #-274]	; 0xfffffeee
    3d80:	2150680c 	cmpcs	r0, ip, lsl #16
    3d84:	51011220 	tstpl	r1, r0, lsr #4
    3d88:	010e0a03 	tsteq	lr, r3, lsl #20
    3d8c:	993c1400 	ldmdbls	ip!, {sl, ip}
    3d90:	05b80000 	ldreq	r0, [r8, #0]!
    3d94:	047a0000 	ldrbteq	r0, [sl], #-0
    3d98:	01120000 	tsteq	r2, r0
    3d9c:	00740250 	rsbseq	r0, r4, r0, asr r2
    3da0:	01510112 	cmpeq	r1, r2, lsl r1
    3da4:	400f0033 	andmi	r0, pc, r3, lsr r0	; <UNPREDICTABLE>
    3da8:	a0000099 	mulge	r0, r9, r0
    3dac:	00000005 	andeq	r0, r0, r5
    3db0:	0009b90e 	andeq	fp, r9, lr, lsl #18
    3db4:	06350100 	ldrteq	r0, [r5], -r0, lsl #2
    3db8:	00009a40 	andeq	r9, r0, r0, asr #20
    3dbc:	00000024 	andeq	r0, r0, r4, lsr #32
    3dc0:	04d39c01 	ldrbeq	r9, [r3], #3073	; 0xc01
    3dc4:	480f0000 	stmdami	pc, {}	; <UNPREDICTABLE>
    3dc8:	9400009a 	strls	r0, [r0], #-154	; 0xffffff66
    3dcc:	0f000001 	svceq	0x00000001
    3dd0:	00009a4c 	andeq	r9, r0, ip, asr #20
    3dd4:	000005a0 	andeq	r0, r0, r0, lsr #11
    3dd8:	009a5814 	addseq	r5, sl, r4, lsl r8
    3ddc:	0004d300 	andeq	sp, r4, r0, lsl #6
    3de0:	0004c900 	andeq	ip, r4, r0, lsl #18
    3de4:	50011200 	andpl	r1, r1, r0, lsl #4
    3de8:	50040c05 	andpl	r0, r4, r5, lsl #24
    3dec:	01122021 	tsteq	r2, r1, lsr #32
    3df0:	fe090251 	mcr2	2, 0, r0, cr9, cr1, {2}
    3df4:	9a5c0f00 	bls	17079fc <__bss_end__+0x16fcc5c>
    3df8:	05a00000 	streq	r0, [r0, #0]!
    3dfc:	17000000 	strne	r0, [r0, -r0]
    3e00:	000009f8 	strdeq	r0, [r0], -r8
    3e04:	740d3101 	strvc	r3, [sp], #-257	; 0xfffffeff
    3e08:	20000098 	mulcs	r0, r8, r0
    3e0c:	01000000 	mrseq	r0, (UNDEF: 0)
    3e10:	0005369c 	muleq	r5, ip, r6
    3e14:	0a521800 	beq	1489e1c <__bss_end__+0x147f07c>
    3e18:	31010000 	mrscc	r0, (UNDEF: 1)
    3e1c:	00053625 	andeq	r3, r5, r5, lsr #12
    3e20:	00261900 	eoreq	r1, r6, r0, lsl #18
    3e24:	00261500 	eoreq	r1, r6, r0, lsl #10
    3e28:	61761300 	cmnvs	r6, r0, lsl #6
    3e2c:	3101006c 	tstcc	r1, ip, rrx
    3e30:	00002c34 	andeq	r2, r0, r4, lsr ip
    3e34:	00263b00 	eoreq	r3, r6, r0, lsl #22
    3e38:	00263700 	eoreq	r3, r6, r0, lsl #14
    3e3c:	98841400 	stmls	r4, {sl, ip}
    3e40:	05ac0000 	streq	r0, [ip, #0]!
    3e44:	05250000 	streq	r0, [r5, #-0]!
    3e48:	01120000 	tsteq	r2, r0
    3e4c:	00740250 	rsbseq	r0, r4, r0, asr r2
    3e50:	98901100 	ldmls	r0, {r8, ip}
    3e54:	05b80000 	ldreq	r0, [r8, #0]!
    3e58:	01120000 	tsteq	r2, r0
    3e5c:	00740250 	rsbseq	r0, r4, r0, asr r2
    3e60:	040c0000 	streq	r0, [ip], #-0
    3e64:	0000053c 	andeq	r0, r0, ip, lsr r5
    3e68:	09e31719 	stmibeq	r3!, {r0, r3, r4, r8, r9, sl, ip}^
    3e6c:	2e010000 	cdpcs	0, 0, cr0, cr1, cr0, {0}
    3e70:	0098940d 	addseq	r9, r8, sp, lsl #8
    3e74:	00002000 	andeq	r2, r0, r0
    3e78:	a09c0100 	addsge	r0, ip, r0, lsl #2
    3e7c:	18000005 	stmdane	r0, {r0, r2}
    3e80:	00000a52 	andeq	r0, r0, r2, asr sl
    3e84:	36242e01 	strtcc	r2, [r4], -r1, lsl #28
    3e88:	5d000005 	stcpl	0, cr0, [r0, #-20]	; 0xffffffec
    3e8c:	59000026 	stmdbpl	r0, {r1, r2, r5}
    3e90:	13000026 	movwne	r0, #38	; 0x26
    3e94:	006c6176 	rsbeq	r6, ip, r6, ror r1
    3e98:	2c332e01 	ldccs	14, cr2, [r3], #-4
    3e9c:	7f000000 	svcvc	0x00000000
    3ea0:	7b000026 	blvc	3f40 <__code_start__-0x40c0>
    3ea4:	14000026 	strne	r0, [r0], #-38	; 0xffffffda
    3ea8:	000098a4 	andeq	r9, r0, r4, lsr #17
    3eac:	000005ac 	andeq	r0, r0, ip, lsr #11
    3eb0:	0000058f 	andeq	r0, r0, pc, lsl #11
    3eb4:	02500112 	subseq	r0, r0, #-2147483644	; 0x80000004
    3eb8:	11000074 	tstne	r0, r4, ror r0
    3ebc:	000098b0 			; <UNDEFINED> instruction: 0x000098b0
    3ec0:	000005b8 			; <UNDEFINED> instruction: 0x000005b8
    3ec4:	02500112 	subseq	r0, r0, #-2147483644	; 0x80000004
    3ec8:	00000074 	andeq	r0, r0, r4, ror r0
    3ecc:	0007c61a 	andeq	ip, r7, sl, lsl r6
    3ed0:	0007c600 	andeq	ip, r7, r0, lsl #12
    3ed4:	069c0300 	ldreq	r0, [ip], r0, lsl #6
    3ed8:	000a2d1a 	andeq	r2, sl, sl, lsl sp
    3edc:	000a2d00 	andeq	r2, sl, r0, lsl #26
    3ee0:	0bc30300 	bleq	ff0c4ae8 <__bss_end__+0xff0b9d48>
    3ee4:	0008211a 	andeq	r2, r8, sl, lsl r1
    3ee8:	00082100 	andeq	r2, r8, r0, lsl #2
    3eec:	06ae0300 	strteq	r0, [lr], r0, lsl #6
    3ef0:	000a1b1a 	andeq	r1, sl, sl, lsl fp
    3ef4:	000a1b00 	andeq	r1, sl, r0, lsl #22
    3ef8:	06190400 	ldreq	r0, [r9], -r0, lsl #8
    3efc:	0008e900 	andeq	lr, r8, r0, lsl #18
    3f00:	c8000400 	stmdagt	r0, {sl}
    3f04:	04000016 	streq	r0, [r0], #-22	; 0xffffffea
    3f08:	00092101 	andeq	r2, r9, r1, lsl #2
    3f0c:	0abd0c00 	beq	fef46f14 <__bss_end__+0xfef3c174>
    3f10:	08d10000 	ldmeq	r1, {}^	; <UNPREDICTABLE>
    3f14:	9a640000 	bls	1903f1c <__bss_end__+0x18f917c>
    3f18:	03b00000 	movseq	r0, #0, 0
    3f1c:	1ef30000 	cdpne	0, 15, cr0, cr3, cr0, {0}
    3f20:	04020000 	streq	r0, [r2], #-0
    3f24:	746e6905 	strbtvc	r6, [lr], #-2309	; 0xfffff6fb
    3f28:	07040300 	streq	r0, [r4, -r0, lsl #6]
    3f2c:	000000f1 	strdeq	r0, [r0], -r1
    3f30:	57060103 	strpl	r0, [r6, -r3, lsl #2]
    3f34:	03000000 	movweq	r0, #0
    3f38:	020b0502 	andeq	r0, fp, #8388608	; 0x800000
    3f3c:	04030000 	streq	r0, [r3], #-0
    3f40:	00011505 	andeq	r1, r1, r5, lsl #10
    3f44:	05080300 	streq	r0, [r8, #-768]	; 0xfffffd00
    3f48:	00000110 	andeq	r0, r0, r0, lsl r1
    3f4c:	55080103 	strpl	r0, [r8, #-259]	; 0xfffffefd
    3f50:	03000000 	movweq	r0, #0
    3f54:	00700702 	rsbseq	r0, r0, r2, lsl #14
    3f58:	28040000 	stmdacs	r4, {}	; <UNPREDICTABLE>
    3f5c:	03000002 	movweq	r0, #2
    3f60:	00691934 	rsbeq	r1, r9, r4, lsr r9
    3f64:	04030000 	streq	r0, [r3], #-0
    3f68:	0000ec07 	andeq	lr, r0, r7, lsl #24
    3f6c:	07080300 	streq	r0, [r8, -r0, lsl #6]
    3f70:	000000e7 	andeq	r0, r0, r7, ror #1
    3f74:	5e080103 	adfple	f0, f0, f3
    3f78:	05000000 	streq	r0, [r0, #-0]
    3f7c:	00000077 	andeq	r0, r0, r7, ror r0
    3f80:	3e040803 	cdpcc	8, 0, cr0, cr4, cr3, {0}
    3f84:	06000003 	streq	r0, [r0], -r3
    3f88:	04070704 	streq	r0, [r7], #-1796	; 0xfffff8fc
    3f8c:	0000002c 	andeq	r0, r0, ip, lsr #32
    3f90:	a4061f01 	strge	r1, [r6], #-3841	; 0xfffff0ff
    3f94:	08000000 	stmdaeq	r0, {}	; <UNPREDICTABLE>
    3f98:	00000a57 	andeq	r0, r0, r7, asr sl
    3f9c:	00200000 	eoreq	r0, r0, r0
    3fa0:	06270900 	strteq	r0, [r7], -r0, lsl #18
    3fa4:	22010000 	andcs	r0, r1, #0, 0
    3fa8:	0000770d 	andeq	r7, r0, sp, lsl #14
    3fac:	04130a00 	ldreq	r0, [r3], #-2560	; 0xfffff600
    3fb0:	23010000 	movwcs	r0, #4096	; 0x1000
    3fb4:	0000c20e 	andeq	ip, r0, lr, lsl #4
    3fb8:	68030500 	stmdavs	r3, {r8, sl}
    3fbc:	0b0000a9 	bleq	4268 <__code_start__-0x3d98>
    3fc0:	00007704 	andeq	r7, r0, r4, lsl #14
    3fc4:	0a3b0a00 	beq	ec67cc <__bss_end__+0xebba2c>
    3fc8:	24010000 	strcs	r0, [r1], #-0
    3fcc:	0000c20e 	andeq	ip, r0, lr, lsl #4
    3fd0:	6c030500 	cfstr32vs	mvfx0, [r3], {-0}
    3fd4:	0a0000a9 	beq	4280 <__code_start__-0x3d80>
    3fd8:	00000a9c 	muleq	r0, ip, sl
    3fdc:	c20e2501 	andgt	r2, lr, #4194304	; 0x400000
    3fe0:	05000000 	streq	r0, [r0, #-0]
    3fe4:	00a97003 	adceq	r7, r9, r3
    3fe8:	0a720c00 	beq	1c86ff0 <__bss_end__+0x1c7c250>
    3fec:	75010000 	strvc	r0, [r1, #-0]
    3ff0:	009db406 	addseq	fp, sp, r6, lsl #8
    3ff4:	00006000 	andeq	r6, r0, r0
    3ff8:	649c0100 	ldrvs	r0, [ip], #256	; 0x100
    3ffc:	0d000001 	stceq	0, cr0, [r0, #-4]
    4000:	75010070 	strvc	r0, [r1, #-112]	; 0xffffff90
    4004:	00008a16 	andeq	r8, r0, r6, lsl sl
    4008:	0026a300 	eoreq	sl, r6, r0, lsl #6
    400c:	00269d00 	eoreq	r9, r6, r0, lsl #26
    4010:	00ab0e00 	adceq	r0, fp, r0, lsl #28
    4014:	01740000 	cmneq	r4, r0
    4018:	03050000 	movweq	r0, #20480	; 0x5000
    401c:	0000a958 	andeq	sl, r0, r8, asr r9
    4020:	009e000f 	addseq	r0, lr, pc
    4024:	0008bc00 	andeq	fp, r8, r0, lsl #24
    4028:	00015a00 	andeq	r5, r1, r0, lsl #20
    402c:	50011000 	andpl	r1, r1, r0
    4030:	a8d00305 	ldmge	r0, {r0, r2, r8, r9}^
    4034:	01100000 	tsteq	r0, r0
    4038:	68030551 	stmdavs	r3, {r0, r4, r6, r8, sl}
    403c:	100000a7 	andne	r0, r0, r7, lsr #1
    4040:	03055201 	movweq	r5, #20993	; 0x5201
    4044:	0000a958 	andeq	sl, r0, r8, asr r9
    4048:	02530110 	subseq	r0, r3, #4
    404c:	02107708 	andseq	r7, r0, #8, 14	; 0x200000
    4050:	f303007d 	vqadd.u8	q0, <illegal reg q1.5>, <illegal reg q14.5>
    4054:	11005001 	tstne	r0, r1
    4058:	00009e04 	andeq	r9, r0, r4, lsl #28
    405c:	000008c8 	andeq	r0, r0, r8, asr #17
    4060:	007e1200 	rsbseq	r1, lr, r0, lsl #4
    4064:	01740000 	cmneq	r4, r0
    4068:	2c130000 	ldccs	0, cr0, [r3], {-0}
    406c:	09000000 	stmdbeq	r0, {}	; <UNPREDICTABLE>
    4070:	01640500 	cmneq	r4, r0, lsl #10
    4074:	60140000 	andsvs	r0, r4, r0
    4078:	0100000a 	tsteq	r0, sl
    407c:	9da00672 	stcls	6, cr0, [r0, #456]!	; 0x1c8
    4080:	00140000 	andseq	r0, r4, r0
    4084:	9c010000 	stcls	0, cr0, [r1], {-0}
    4088:	0002050c 	andeq	r0, r2, ip, lsl #10
    408c:	066f0100 	strbteq	r0, [pc], -r0, lsl #2
    4090:	00009d9c 	muleq	r0, ip, sp
    4094:	00000004 	andeq	r0, r0, r4
    4098:	01ae9c01 			; <UNDEFINED> instruction: 0x01ae9c01
    409c:	70150000 	andsvc	r0, r5, r0
    40a0:	126f0100 	rsbne	r0, pc, #0
    40a4:	0000008a 	andeq	r0, r0, sl, lsl #1
    40a8:	16005001 	strne	r5, [r0], -r1
    40ac:	00000aff 	strdeq	r0, [r0], -pc	; <UNPREDICTABLE>
    40b0:	8a075e01 	bhi	1db8bc <__bss_end__+0x1d0b1c>
    40b4:	84000000 	strhi	r0, [r0], #-0
    40b8:	1800009c 	stmdane	r0, {r2, r3, r4, r7}
    40bc:	01000001 	tsteq	r0, r1
    40c0:	00042c9c 	muleq	r4, ip, ip
    40c4:	03011700 	movweq	r1, #5888	; 0x1700
    40c8:	5e010000 	cdppl	0, 0, cr0, cr1, cr0, {0}
    40cc:	00002c20 	andeq	r2, r0, r0, lsr #24
    40d0:	0026e400 	eoreq	lr, r6, r0, lsl #8
    40d4:	0026d000 	eoreq	sp, r6, r0
    40d8:	0a7c1700 	beq	1f09ce0 <__bss_end__+0x1efef40>
    40dc:	5e010000 	cdppl	0, 0, cr0, cr1, cr0, {0}
    40e0:	00002c31 	andeq	r2, r0, r1, lsr ip
    40e4:	00277d00 	eoreq	r7, r7, r0, lsl #26
    40e8:	00276900 	eoreq	r6, r7, r0, lsl #18
    40ec:	00ab0e00 	adceq	r0, fp, r0, lsl #28
    40f0:	043c0000 	ldrteq	r0, [ip], #-0
    40f4:	03050000 	movweq	r0, #20480	; 0x5000
    40f8:	0000a940 	andeq	sl, r0, r0, asr #18
    40fc:	01006818 	tsteq	r0, r8, lsl r8
    4100:	002c0e66 	eoreq	r0, ip, r6, ror #28
    4104:	28330000 	ldmdacs	r3!, {}	; <UNPREDICTABLE>
    4108:	28270000 	stmdacs	r7!, {}	; <UNPREDICTABLE>
    410c:	54190000 	ldrpl	r0, [r9], #-0
    4110:	94000008 	strls	r0, [r0], #-8
    4114:	0400009c 	streq	r0, [r0], #-156	; 0xffffff64
    4118:	00009c94 	muleq	r0, r4, ip
    411c:	00000004 	andeq	r0, r0, r4
    4120:	38056001 	stmdacc	r5, {r0, sp, lr}
    4124:	1a000002 	bne	4134 <__code_start__-0x3ecc>
    4128:	00000865 	andeq	r0, r0, r5, ror #16
    412c:	00002887 	andeq	r2, r0, r7, lsl #17
    4130:	00002885 	andeq	r2, r0, r5, lsl #17
    4134:	08961900 	ldmeq	r6, {r8, fp, ip}
    4138:	9ca00000 	stcls	0, cr0, [r0]
    413c:	a0020000 	andge	r0, r2, r0
    4140:	0800009c 	stmdaeq	r0, {r2, r3, r4, r7}
    4144:	01000000 	mrseq	r0, (UNDEF: 0)
    4148:	026c1161 	rsbeq	r1, ip, #1073741848	; 0x40000018
    414c:	b11a0000 	tstlt	sl, r0
    4150:	9c000008 	stcls	0, cr0, [r0], {8}
    4154:	9a000028 	bls	41fc <__code_start__-0x3e04>
    4158:	1a000028 	bne	4200 <__code_start__-0x3e00>
    415c:	000008a7 	andeq	r0, r0, r7, lsr #17
    4160:	000028b2 			; <UNDEFINED> instruction: 0x000028b2
    4164:	000028b0 			; <UNDEFINED> instruction: 0x000028b0
    4168:	081f1b00 	ldmdaeq	pc, {r8, r9, fp, ip}	; <UNPREDICTABLE>
    416c:	9cb00000 	ldcls	0, cr0, [r0]
    4170:	a0010000 	andge	r0, r1, r0
    4174:	01000004 	tsteq	r0, r4
    4178:	030a0967 	movweq	r0, #43367	; 0xa967
    417c:	3a1a0000 	bcc	684184 <__bss_end__+0x6793e4>
    4180:	cb000008 	blgt	41a8 <__code_start__-0x3e58>
    4184:	c5000028 	strgt	r0, [r0, #-40]	; 0xffffffd8
    4188:	1a000028 	bne	4230 <__code_start__-0x3dd0>
    418c:	00000830 	andeq	r0, r0, r0, lsr r8
    4190:	00002912 	andeq	r2, r0, r2, lsl r9
    4194:	0000290a 	andeq	r2, r0, sl, lsl #18
    4198:	0004a01c 	andeq	sl, r4, ip, lsl r0
    419c:	08541900 	ldmdaeq	r4, {r8, fp, ip}^
    41a0:	9cb00000 	ldcls	0, cr0, [r0]
    41a4:	b0040000 	andlt	r0, r4, r0
    41a8:	0400009c 	streq	r0, [r0], #-156	; 0xffffff64
    41ac:	01000000 	mrseq	r0, (UNDEF: 0)
    41b0:	02c70511 	sbceq	r0, r7, #71303168	; 0x4400000
    41b4:	651a0000 	ldrvs	r0, [sl, #-0]
    41b8:	50000008 	andpl	r0, r0, r8
    41bc:	4e000029 	cdpmi	0, 0, cr0, cr0, cr9, {1}
    41c0:	00000029 	andeq	r0, r0, r9, lsr #32
    41c4:	009d480f 	addseq	r4, sp, pc, lsl #16
    41c8:	0008bc00 	andeq	fp, r8, r0, lsl #24
    41cc:	0002ff00 	andeq	pc, r2, r0, lsl #30
    41d0:	50011000 	andpl	r1, r1, r0
    41d4:	a1e40305 	mvnge	r0, r5, lsl #6
    41d8:	01100000 	tsteq	r0, r0
    41dc:	68030551 	stmdavs	r3, {r0, r4, r6, r8, sl}
    41e0:	100000a7 	andne	r0, r0, r7, lsr #1
    41e4:	03055201 	movweq	r5, #20993	; 0x5201
    41e8:	0000a950 	andeq	sl, r0, r0, asr r9
    41ec:	01530110 	cmpeq	r3, r0, lsl r1
    41f0:	7d021041 	stcvc	0, cr1, [r2, #-260]	; 0xfffffefc
    41f4:	7c030500 	cfstr32vc	mvfx0, [r3], {-0}
    41f8:	000000a8 	andeq	r0, r0, r8, lsr #1
    41fc:	009d4c11 	addseq	r4, sp, r1, lsl ip
    4200:	0008c800 	andeq	ip, r8, r0, lsl #16
    4204:	19000000 	stmdbne	r0, {}	; <UNPREDICTABLE>
    4208:	00000870 	andeq	r0, r0, r0, ror r8
    420c:	00009cc8 	andeq	r9, r0, r8, asr #25
    4210:	009cc803 	addseq	ip, ip, r3, lsl #16
    4214:	00000400 	andeq	r0, r0, r0, lsl #8
    4218:	05680100 	strbeq	r0, [r8, #-256]!	; 0xffffff00
    421c:	0000033e 	andeq	r0, r0, lr, lsr r3
    4220:	00088b1a 	andeq	r8, r8, sl, lsl fp
    4224:	00296500 	eoreq	r6, r9, r0, lsl #10
    4228:	00296300 	eoreq	r6, r9, r0, lsl #6
    422c:	08811a00 	stmeq	r1, {r9, fp, ip}
    4230:	297a0000 	ldmdbcs	sl!, {}^	; <UNPREDICTABLE>
    4234:	29780000 	ldmdbcs	r8!, {}^	; <UNPREDICTABLE>
    4238:	0f000000 	svceq	0x00000000
    423c:	00009ce0 	andeq	r9, r0, r0, ror #25
    4240:	00000441 	andeq	r0, r0, r1, asr #8
    4244:	00000353 	andeq	r0, r0, r3, asr r3
    4248:	03500110 	cmpeq	r0, #4
    424c:	005001f3 	ldrsheq	r0, [r0], #-19	; 0xffffffed
    4250:	009d040f 	addseq	r0, sp, pc, lsl #8
    4254:	0008bc00 	andeq	fp, r8, r0, lsl #24
    4258:	00038c00 	andeq	r8, r3, r0, lsl #24
    425c:	50011000 	andpl	r1, r1, r0
    4260:	a1e40305 	mvnge	r0, r5, lsl #6
    4264:	01100000 	tsteq	r0, r0
    4268:	68030551 	stmdavs	r3, {r0, r4, r6, r8, sl}
    426c:	100000a7 	andne	r0, r0, r7, lsr #1
    4270:	03055201 	movweq	r5, #20993	; 0x5201
    4274:	0000a940 	andeq	sl, r0, r0, asr #18
    4278:	02530110 	subseq	r0, r3, #4
    427c:	02105f08 	andseq	r5, r0, #8, 30
    4280:	0305007d 	movweq	r0, #20605	; 0x507d
    4284:	0000a778 	andeq	sl, r0, r8, ror r7
    4288:	9d081100 	stflss	f1, [r8, #-0]
    428c:	08c80000 	stmiaeq	r8, {}^	; <UNPREDICTABLE>
    4290:	0c110000 	ldceq	0, cr0, [r1], {-0}
    4294:	d400009d 	strle	r0, [r0], #-157	; 0xffffff63
    4298:	0f000008 	svceq	0x00000008
    429c:	00009d28 	andeq	r9, r0, r8, lsr #26
    42a0:	000008bc 			; <UNDEFINED> instruction: 0x000008bc
    42a4:	000003d7 	ldrdeq	r0, [r0], -r7
    42a8:	05500110 	ldrbeq	r0, [r0, #-272]	; 0xfffffef0
    42ac:	00a83403 	adceq	r3, r8, r3, lsl #8
    42b0:	51011000 	mrspl	r1, (UNDEF: 1)
    42b4:	a7680305 	strbge	r0, [r8, -r5, lsl #6]!
    42b8:	01100000 	tsteq	r0, r0
    42bc:	40030552 	andmi	r0, r3, r2, asr r5
    42c0:	100000a9 	andne	r0, r0, r9, lsr #1
    42c4:	08025301 	stmdaeq	r2, {r0, r8, r9, ip, lr}
    42c8:	7d021060 	stcvc	0, cr1, [r2, #-384]	; 0xfffffe80
    42cc:	68030500 	stmdavs	r3, {r8, sl}
    42d0:	000000a8 	andeq	r0, r0, r8, lsr #1
    42d4:	009d2c11 	addseq	r2, sp, r1, lsl ip
    42d8:	0008c800 	andeq	ip, r8, r0, lsl #16
    42dc:	9d501100 	ldflse	f1, [r0, #-0]
    42e0:	08d40000 	ldmeq	r4, {}^	; <UNPREDICTABLE>
    42e4:	6c0f0000 	stcvs	0, cr0, [pc], {-0}
    42e8:	bc00009d 	stclt	0, cr0, [r0], {157}	; 0x9d
    42ec:	22000008 	andcs	r0, r0, #8, 0
    42f0:	10000004 	andne	r0, r0, r4
    42f4:	03055001 	movweq	r5, #20481	; 0x5001
    42f8:	0000a888 	andeq	sl, r0, r8, lsl #17
    42fc:	05510110 	ldrbeq	r0, [r1, #-272]	; 0xfffffef0
    4300:	00a76803 	adceq	r6, r7, r3, lsl #16
    4304:	52011000 	andpl	r1, r1, #0, 0
    4308:	a9400305 	stmdbge	r0, {r0, r2, r8, r9}^
    430c:	01100000 	tsteq	r0, r0
    4310:	68080253 	stmdavs	r8, {r0, r1, r4, r6, r9}
    4314:	007d0210 	rsbseq	r0, sp, r0, lsl r2
    4318:	a8b40305 	ldmge	r4!, {r0, r2, r8, r9}
    431c:	11000000 	mrsne	r0, (UNDEF: 0)
    4320:	00009d70 	andeq	r9, r0, r0, ror sp
    4324:	000008c8 	andeq	r0, r0, r8, asr #17
    4328:	007e1200 	rsbseq	r1, lr, r0, lsl #4
    432c:	043c0000 	ldrteq	r0, [ip], #-0
    4330:	2c130000 	ldccs	0, cr0, [r3], {-0}
    4334:	0f000000 	svceq	0x00000000
    4338:	042c0500 	strteq	r0, [ip], #-1280	; 0xfffffb00
    433c:	44160000 	ldrmi	r0, [r6], #-0
    4340:	01000004 	tsteq	r0, r4
    4344:	008a0753 	addeq	r0, sl, r3, asr r7
    4348:	9c200000 	stcls	0, cr0, [r0], #-0
    434c:	00640000 	rsbeq	r0, r4, r0
    4350:	9c010000 	stcls	0, cr0, [r1], {-0}
    4354:	00000508 	andeq	r0, r0, r8, lsl #10
    4358:	00030117 	andeq	r0, r3, r7, lsl r1
    435c:	18530100 	ldmdane	r3, {r8}^
    4360:	0000002c 	andeq	r0, r0, ip, lsr #32
    4364:	00002995 	muleq	r0, r5, r9
    4368:	0000298d 	andeq	r2, r0, sp, lsl #19
    436c:	0000ab0e 	andeq	sl, r0, lr, lsl #22
    4370:	00051800 	andeq	r1, r5, r0, lsl #16
    4374:	38030500 	stmdacc	r3, {r8, sl}
    4378:	1d0000a9 	stcne	0, cr0, [r0, #-676]	; 0xfffffd5c
    437c:	00000a52 	andeq	r0, r0, r2, asr sl
    4380:	8a0b5501 	bhi	2d978c <__bss_end__+0x2ce9ec>
    4384:	cd000000 	stcgt	0, cr0, [r0, #-0]
    4388:	c9000029 	stmdbgt	r0, {r0, r3, r5}
    438c:	0f000029 	svceq	0x00000029
    4390:	00009c38 	andeq	r9, r0, r8, lsr ip
    4394:	0000051d 	andeq	r0, r0, sp, lsl r5
    4398:	000004a6 	andeq	r0, r0, r6, lsr #9
    439c:	02500110 	subseq	r0, r0, #4
    43a0:	0f000074 	svceq	0x00000074
    43a4:	00009c48 	andeq	r9, r0, r8, asr #24
    43a8:	000008e0 	andeq	r0, r0, r0, ror #17
    43ac:	000004c5 	andeq	r0, r0, r5, asr #9
    43b0:	02500110 	subseq	r0, r0, #4
    43b4:	01100075 	tsteq	r0, r5, ror r0
    43b8:	10300151 	eorsne	r0, r0, r1, asr r1
    43bc:	74025201 	strvc	r5, [r2], #-513	; 0xfffffdff
    43c0:	700f0000 	andvc	r0, pc, r0
    43c4:	bc00009c 	stclt	0, cr0, [r0], {156}	; 0x9c
    43c8:	fe000008 	cdp2	0, 0, cr0, cr0, cr8, {0}
    43cc:	10000004 	andne	r0, r0, r4
    43d0:	03055001 	movweq	r5, #20481	; 0x5001
    43d4:	0000a1e4 	andeq	sl, r0, r4, ror #3
    43d8:	05510110 	ldrbeq	r0, [r1, #-272]	; 0xfffffef0
    43dc:	00a76803 	adceq	r6, r7, r3, lsl #16
    43e0:	52011000 	andpl	r1, r1, #0, 0
    43e4:	a9380305 	ldmdbge	r8!, {r0, r2, r8, r9}
    43e8:	01100000 	tsteq	r0, r0
    43ec:	54080253 	strpl	r0, [r8], #-595	; 0xfffffdad
    43f0:	007d0210 	rsbseq	r0, sp, r0, lsl r2
    43f4:	a7780305 	ldrbge	r0, [r8, -r5, lsl #6]!
    43f8:	11000000 	mrsne	r0, (UNDEF: 0)
    43fc:	00009c74 	andeq	r9, r0, r4, ror ip
    4400:	000008c8 	andeq	r0, r0, r8, asr #17
    4404:	007e1200 	rsbseq	r1, lr, r0, lsl #4
    4408:	05180000 	ldreq	r0, [r8, #-0]
    440c:	2c130000 	ldccs	0, cr0, [r3], {-0}
    4410:	07000000 	streq	r0, [r0, -r0]
    4414:	05080500 	streq	r0, [r8, #-1280]	; 0xfffffb00
    4418:	a5160000 	ldrge	r0, [r6, #-0]
    441c:	0100000a 	tsteq	r0, sl
    4420:	008a0747 	addeq	r0, sl, r7, asr #14
    4424:	9b880000 	blls	fe20442c <__bss_end__+0xfe1f968c>
    4428:	00980000 	addseq	r0, r8, r0
    442c:	9c010000 	stcls	0, cr0, [r1], {-0}
    4430:	0000062b 	andeq	r0, r0, fp, lsr #12
    4434:	00030117 	andeq	r0, r3, r7, lsl r1
    4438:	20470100 	subcs	r0, r7, r0, lsl #2
    443c:	0000002c 	andeq	r0, r0, ip, lsr #32
    4440:	000029fb 	strdeq	r2, [r0], -fp
    4444:	000029eb 	andeq	r2, r0, fp, ror #19
    4448:	0000ab0e 	andeq	sl, r0, lr, lsl #22
    444c:	00043c00 	andeq	r3, r4, r0, lsl #24
    4450:	28030500 	stmdacs	r3, {r8, sl}
    4454:	1d0000a9 	stcne	0, cr0, [r0, #-676]	; 0xfffffd5c
    4458:	00000a52 	andeq	r0, r0, r2, asr sl
    445c:	8a0b4b01 	bhi	2d7068 <__bss_end__+0x2cc2c8>
    4460:	6d000000 	stcvs	0, cr0, [r0, #-0]
    4464:	6900002a 	stmdbvs	r0, {r1, r3, r5}
    4468:	1b00002a 	blne	4518 <__code_start__-0x3ae8>
    446c:	0000081f 	andeq	r0, r0, pc, lsl r8
    4470:	00009b98 	muleq	r0, r8, fp
    4474:	00048803 	andeq	r8, r4, r3, lsl #16
    4478:	0e490100 	dvfeqe	f0, f1, f0
    447c:	000005a3 	andeq	r0, r0, r3, lsr #11
    4480:	00083a1a 	andeq	r3, r8, sl, lsl sl
    4484:	002a8d00 	eoreq	r8, sl, r0, lsl #26
    4488:	002a8b00 	eoreq	r8, sl, r0, lsl #22
    448c:	08301a00 	ldmdaeq	r0!, {r9, fp, ip}
    4490:	2aa50000 	bcs	fe944498 <__bss_end__+0xfe9396f8>
    4494:	2aa10000 	bcs	fe84449c <__bss_end__+0xfe8396fc>
    4498:	881e0000 	ldmdahi	lr, {}	; <UNPREDICTABLE>
    449c:	00000004 	andeq	r0, r0, r4
    44a0:	009be00f 	addseq	lr, fp, pc
    44a4:	0008bc00 	andeq	fp, r8, r0, lsl #24
    44a8:	0005dc00 	andeq	sp, r5, r0, lsl #24
    44ac:	50011000 	andpl	r1, r1, r0
    44b0:	a1e40305 	mvnge	r0, r5, lsl #6
    44b4:	01100000 	tsteq	r0, r0
    44b8:	68030551 	stmdavs	r3, {r0, r4, r6, r8, sl}
    44bc:	100000a7 	andne	r0, r0, r7, lsr #1
    44c0:	03055201 	movweq	r5, #20993	; 0x5201
    44c4:	0000a928 	andeq	sl, r0, r8, lsr #18
    44c8:	02530110 	subseq	r0, r3, #4
    44cc:	02104808 	andseq	r4, r0, #8, 16	; 0x80000
    44d0:	0305007d 	movweq	r0, #20605	; 0x507d
    44d4:	0000a778 	andeq	sl, r0, r8, ror r7
    44d8:	9be41100 	blls	ff9088e0 <__bss_end__+0xff8fdb40>
    44dc:	08c80000 	stmiaeq	r8, {}^	; <UNPREDICTABLE>
    44e0:	040f0000 	streq	r0, [pc], #-0	; 44e8 <__code_start__-0x3b18>
    44e4:	bc00009c 	stclt	0, cr0, [r0], {156}	; 0x9c
    44e8:	21000008 	tstcs	r0, r8
    44ec:	10000006 	andne	r0, r0, r6
    44f0:	03055001 	movweq	r5, #20481	; 0x5001
    44f4:	0000a7f4 	strdeq	sl, [r0], -r4
    44f8:	05510110 	ldrbeq	r0, [r1, #-272]	; 0xfffffef0
    44fc:	00a76803 	adceq	r6, r7, r3, lsl #16
    4500:	52011000 	andpl	r1, r1, #0, 0
    4504:	a9280305 	stmdbge	r8!, {r0, r2, r8, r9}
    4508:	01100000 	tsteq	r0, r0
    450c:	4e080253 	mcrmi	2, 0, r0, cr8, cr3, {2}
    4510:	007d0210 	rsbseq	r0, sp, r0, lsl r2
    4514:	5001f308 	andpl	pc, r1, r8, lsl #6
    4518:	f8090723 			; <UNDEFINED> instruction: 0xf8090723
    451c:	0811001a 	ldmdaeq	r1, {r1, r3, r4}
    4520:	c800009c 	stmdagt	r0, {r2, r3, r4, r7}
    4524:	00000008 	andeq	r0, r0, r8
    4528:	000ac70c 	andeq	ip, sl, ip, lsl #14
    452c:	063c0100 	ldrteq	r0, [ip], -r0, lsl #2
    4530:	00009b30 	andeq	r9, r0, r0, lsr fp
    4534:	00000058 	andeq	r0, r0, r8, asr r0
    4538:	06cf9c01 	strbeq	r9, [pc], r1, lsl #24
    453c:	9c0a0000 	stcls	0, cr0, [sl], {-0}
    4540:	01000003 	tsteq	r0, r3
    4544:	0025103d 	eoreq	r1, r5, sp, lsr r0
    4548:	03050000 	movweq	r0, #20480	; 0x5000
    454c:	0000ad9c 	muleq	r0, ip, sp
    4550:	0000ab0e 	andeq	sl, r0, lr, lsl #22
    4554:	0006df00 	andeq	sp, r6, r0, lsl #30
    4558:	18030500 	stmdane	r3, {r8, sl}
    455c:	070000a9 	streq	r0, [r0, -r9, lsr #1]
    4560:	002c0407 	eoreq	r0, ip, r7, lsl #8
    4564:	42010000 	andmi	r0, r1, #0, 0
    4568:	00067a0a 	andeq	r7, r6, sl, lsl #20
    456c:	0a8e0800 	beq	fe386574 <__bss_end__+0xfe37b7d4>
    4570:	00000000 	andeq	r0, r0, r0
    4574:	0f000010 	svceq	0x00000010
    4578:	00009b5c 	andeq	r9, r0, ip, asr fp
    457c:	000006e4 	andeq	r0, r0, r4, ror #13
    4580:	00000696 	muleq	r0, r6, r6
    4584:	03500110 	cmpeq	r0, #4
    4588:	10244040 	eorne	r4, r4, r0, asr #32
    458c:	40035101 	andmi	r5, r3, r1, lsl #2
    4590:	0f002448 	svceq	0x00002448
    4594:	00009b74 	andeq	r9, r0, r4, ror fp
    4598:	000008bc 			; <UNDEFINED> instruction: 0x000008bc
    459c:	000006c5 	andeq	r0, r0, r5, asr #13
    45a0:	05500110 	ldrbeq	r0, [r0, #-272]	; 0xfffffef0
    45a4:	00a7c403 	adceq	ip, r7, r3, lsl #8
    45a8:	51011000 	mrspl	r1, (UNDEF: 1)
    45ac:	a7680305 	strbge	r0, [r8, -r5, lsl #6]!
    45b0:	01100000 	tsteq	r0, r0
    45b4:	18030552 	stmdane	r3, {r1, r4, r6, r8, sl}
    45b8:	100000a9 	andne	r0, r0, r9, lsr #1
    45bc:	08025301 	stmdaeq	r2, {r0, r8, r9, ip, lr}
    45c0:	78110040 	ldmdavc	r1, {r6}
    45c4:	c800009b 	stmdagt	r0, {r0, r1, r3, r4, r7}
    45c8:	00000008 	andeq	r0, r0, r8
    45cc:	00007e12 	andeq	r7, r0, r2, lsl lr
    45d0:	0006df00 	andeq	sp, r6, r0, lsl #30
    45d4:	002c1300 	eoreq	r1, ip, r0, lsl #6
    45d8:	000c0000 	andeq	r0, ip, r0
    45dc:	0006cf05 	andeq	ip, r6, r5, lsl #30
    45e0:	044c0c00 	strbeq	r0, [ip], #-3072	; 0xfffff400
    45e4:	2d010000 	stccs	0, cr0, [r1, #-0]
    45e8:	009a9406 	addseq	r9, sl, r6, lsl #8
    45ec:	00009c00 	andeq	r9, r0, r0, lsl #24
    45f0:	c89c0100 	ldmgt	ip, {r8}
    45f4:	17000007 	strne	r0, [r0, -r7]
    45f8:	00000a51 	andeq	r0, r0, r1, asr sl
    45fc:	2c262d01 	stccs	13, cr2, [r6], #-4
    4600:	d3000000 	movwle	r0, #0
    4604:	c500002a 	strgt	r0, [r0, #-42]	; 0xffffffd6
    4608:	1700002a 	strne	r0, [r0, -sl, lsr #32]
    460c:	00000a46 	andeq	r0, r0, r6, asr #20
    4610:	2c362d01 	ldccs	13, cr2, [r6], #-4
    4614:	3b000000 	blcc	461c <__code_start__-0x39e4>
    4618:	3300002b 	movwcc	r0, #43	; 0x2b
    461c:	1d00002b 	stcne	0, cr0, [r0, #-172]	; 0xffffff54
    4620:	00000a52 	andeq	r0, r0, r2, asr sl
    4624:	c20b2e01 	andgt	r2, fp, #1, 28
    4628:	83000000 	movwhi	r0, #0
    462c:	7500002b 	strvc	r0, [r0, #-43]	; 0xffffffd5
    4630:	0e00002b 	cdpeq	0, 0, cr0, cr0, cr11, {1}
    4634:	000000ab 	andeq	r0, r0, fp, lsr #1
    4638:	000007d8 	ldrdeq	r0, [r0], -r8
    463c:	a9000305 	stmdbge	r0, {r0, r2, r8, r9}
    4640:	ec0f0000 	stc	0, cr0, [pc], {-0}
    4644:	bc00009a 	stclt	0, cr0, [r0], {154}	; 0x9a
    4648:	7e000008 	cdpvc	0, 0, cr0, cr0, cr8, {0}
    464c:	10000007 	andne	r0, r0, r7
    4650:	03055001 	movweq	r5, #20481	; 0x5001
    4654:	0000a1e4 	andeq	sl, r0, r4, ror #3
    4658:	05510110 	ldrbeq	r0, [r1, #-272]	; 0xfffffef0
    465c:	00a76803 	adceq	r6, r7, r3, lsl #16
    4660:	52011000 	andpl	r1, r1, #0, 0
    4664:	a9000305 	stmdbge	r0, {r0, r2, r8, r9}
    4668:	01100000 	tsteq	r0, r0
    466c:	30080253 	andcc	r0, r8, r3, asr r2
    4670:	007d0210 	rsbseq	r0, sp, r0, lsl r2
    4674:	a7740305 	ldrbge	r0, [r4, -r5, lsl #6]!
    4678:	11000000 	mrsne	r0, (UNDEF: 0)
    467c:	00009af0 	strdeq	r9, [r0], -r0
    4680:	000008c8 	andeq	r0, r0, r8, asr #17
    4684:	009b140f 	addseq	r1, fp, pc, lsl #8
    4688:	0008bc00 	andeq	fp, r8, r0, lsl #24
    468c:	0007be00 	andeq	fp, r7, r0, lsl #28
    4690:	50011000 	andpl	r1, r1, r0
    4694:	a7800305 	strge	r0, [r0, r5, lsl #6]
    4698:	01100000 	tsteq	r0, r0
    469c:	68030551 	stmdavs	r3, {r0, r4, r6, r8, sl}
    46a0:	100000a7 	andne	r0, r0, r7, lsr #1
    46a4:	03055201 	movweq	r5, #20993	; 0x5201
    46a8:	0000a900 	andeq	sl, r0, r0, lsl #18
    46ac:	02530110 	subseq	r0, r3, #4
    46b0:	02103408 	andseq	r3, r0, #8, 8	; 0x8000000
    46b4:	f303007d 	vqadd.u8	q0, <illegal reg q1.5>, <illegal reg q14.5>
    46b8:	11005001 	tstne	r0, r1
    46bc:	00009b18 	andeq	r9, r0, r8, lsl fp
    46c0:	000008c8 	andeq	r0, r0, r8, asr #17
    46c4:	007e1200 	rsbseq	r1, lr, r0, lsl #4
    46c8:	07d80000 	ldrbeq	r0, [r8, r0]
    46cc:	2c130000 	ldccs	0, cr0, [r3], {-0}
    46d0:	16000000 	strne	r0, [r0], -r0
    46d4:	07c80500 	strbeq	r0, [r8, r0, lsl #10]
    46d8:	df1f0000 	svcle	0x001f0000
    46dc:	0100000a 	tsteq	r0, sl
    46e0:	008a072a 	addeq	r0, sl, sl, lsr #14
    46e4:	9a840000 	bls	fe1046ec <__bss_end__+0xfe0f994c>
    46e8:	00100000 	andseq	r0, r0, r0
    46ec:	9c010000 	stcls	0, cr0, [r1], {-0}
    46f0:	000a331f 	andeq	r3, sl, pc, lsl r3
    46f4:	07290100 	streq	r0, [r9, -r0, lsl #2]!
    46f8:	0000008a 	andeq	r0, r0, sl, lsl #1
    46fc:	00009a74 	andeq	r9, r0, r4, ror sl
    4700:	00000010 	andeq	r0, r0, r0, lsl r0
    4704:	941f9c01 	ldrls	r9, [pc], #-3073	; 470c <__code_start__-0x38f4>
    4708:	0100000a 	tsteq	r0, sl
    470c:	008a0728 	addeq	r0, sl, r8, lsr #14
    4710:	9a640000 	bls	1904718 <__bss_end__+0x18f9978>
    4714:	00100000 	andseq	r0, r0, r0
    4718:	9c010000 	stcls	0, cr0, [r1], {-0}
    471c:	000a6a20 	andeq	r6, sl, r0, lsr #20
    4720:	18100100 	ldmdane	r0, {r8}
    4724:	0000002c 	andeq	r0, r0, ip, lsr #32
    4728:	00085403 	andeq	r5, r8, r3, lsl #8
    472c:	00782100 	rsbseq	r2, r8, r0, lsl #2
    4730:	2c291001 	stccs	0, cr1, [r9], #-4
    4734:	21000000 	mrscs	r0, (UNDEF: 0)
    4738:	1001006e 	andne	r0, r1, lr, rrx
    473c:	00002c35 	andeq	r2, r0, r5, lsr ip
    4740:	00ab0e00 	adceq	r0, fp, r0, lsl #28
    4744:	05180000 	ldreq	r0, [r8, #-0]
    4748:	03050000 	movweq	r0, #20480	; 0x5000
    474c:	0000a950 	andeq	sl, r0, r0, asr r9
    4750:	0ab52000 	beq	fed4c758 <__bss_end__+0xfed419b8>
    4754:	0d010000 	stceq	0, cr0, [r1, #-0]
    4758:	00002c18 	andeq	r2, r0, r8, lsl ip
    475c:	08700300 	ldmdaeq	r0!, {r8, r9}^
    4760:	78210000 	stmdavc	r1!, {}	; <UNPREDICTABLE>
    4764:	290d0100 	stmdbcs	sp, {r8}
    4768:	0000002c 	andeq	r0, r0, ip, lsr #32
    476c:	0ad42000 	beq	ff50c774 <__bss_end__+0xff5019d4>
    4770:	07010000 	streq	r0, [r1, -r0]
    4774:	00002c18 	andeq	r2, r0, r8, lsl ip
    4778:	08960300 	ldmeq	r6, {r8, r9}
    477c:	78210000 	stmdavc	r1!, {}	; <UNPREDICTABLE>
    4780:	2c070100 	stfcss	f0, [r7], {-0}
    4784:	0000002c 	andeq	r0, r0, ip, lsr #32
    4788:	01006e21 	tsteq	r0, r1, lsr #28
    478c:	002c3807 	eoreq	r3, ip, r7, lsl #16
    4790:	20000000 	andcs	r0, r0, r0
    4794:	00000a86 	andeq	r0, r0, r6, lsl #21
    4798:	5d180401 	cfldrspl	mvf0, [r8, #-4]
    479c:	03000000 	movweq	r0, #0
    47a0:	000008bc 			; <UNDEFINED> instruction: 0x000008bc
    47a4:	01007821 	tsteq	r0, r1, lsr #16
    47a8:	005d2904 	subseq	r2, sp, r4, lsl #18
    47ac:	79210000 	stmdbvc	r1!, {}	; <UNPREDICTABLE>
    47b0:	35040100 	strcc	r0, [r4, #-256]	; 0xffffff00
    47b4:	0000005d 	andeq	r0, r0, sp, asr r0
    47b8:	05952200 	ldreq	r2, [r5, #512]	; 0x200
    47bc:	05950000 	ldreq	r0, [r5]
    47c0:	28020000 	stmdacs	r2, {}	; <UNPREDICTABLE>
    47c4:	00632206 	rsbeq	r2, r3, r6, lsl #4
    47c8:	00630000 	rsbeq	r0, r3, r0
    47cc:	6e020000 	cdpvs	0, 0, cr0, cr2, cr0, {0}
    47d0:	0af02206 	beq	ffc0cff0 <__bss_end__+0xffc02250>
    47d4:	0af00000 	beq	ffc047dc <__bss_end__+0xffbf9a3c>
    47d8:	1d020000 	stcne	0, cr0, [r2, #-0]
    47dc:	00952206 	addseq	r2, r5, r6, lsl #4
    47e0:	00950000 	addseq	r0, r5, r0
    47e4:	f2020000 	vhadd.s8	d0, d2, d0
    47e8:	06730007 	ldrbteq	r0, [r3], -r7
    47ec:	00040000 	andeq	r0, r4, r0
    47f0:	000018eb 	andeq	r1, r0, fp, ror #17
    47f4:	04b30104 	ldrteq	r0, [r3], #260	; 0x104
    47f8:	420c0000 	andmi	r0, ip, #0, 0
    47fc:	6b00000b 	blvs	4830 <__code_start__-0x37d0>
    4800:	14000005 	strne	r0, [r0], #-5
    4804:	9800009e 	stmdals	r0, {r1, r2, r3, r4, r7}
    4808:	89000001 	stmdbhi	r0, {r0}
    480c:	02000022 	andeq	r0, r0, #34, 0	; 0x22
    4810:	00e70708 	rsceq	r0, r7, r8, lsl #14
    4814:	04020000 	streq	r0, [r2], #-0
    4818:	0000f107 	andeq	pc, r0, r7, lsl #2
    481c:	05040300 	streq	r0, [r4, #-768]	; 0xfffffd00
    4820:	00746e69 	rsbseq	r6, r4, r9, ror #28
    4824:	00002c04 	andeq	r2, r0, r4, lsl #24
    4828:	06010200 	streq	r0, [r1], -r0, lsl #4
    482c:	00000057 	andeq	r0, r0, r7, asr r0
    4830:	0b050202 	bleq	145040 <__bss_end__+0x13a2a0>
    4834:	02000002 	andeq	r0, r0, #2, 0
    4838:	01150504 	tsteq	r5, r4, lsl #10
    483c:	08020000 	stmdaeq	r2, {}	; <UNPREDICTABLE>
    4840:	00011005 	andeq	r1, r1, r5
    4844:	08010200 	stmdaeq	r1, {r9}
    4848:	00000055 	andeq	r0, r0, r5, asr r0
    484c:	70070202 	andvc	r0, r7, r2, lsl #4
    4850:	05000000 	streq	r0, [r0, #-0]
    4854:	00000228 	andeq	r0, r0, r8, lsr #4
    4858:	75193403 	ldrvc	r3, [r9, #-1027]	; 0xfffffbfd
    485c:	02000000 	andeq	r0, r0, #0, 0
    4860:	00ec0704 	rsceq	r0, ip, r4, lsl #14
    4864:	33060000 	movwcc	r0, #24576	; 0x6000
    4868:	8b000000 	blhi	4870 <__code_start__-0x3790>
    486c:	07000000 	streq	r0, [r0, -r0]
    4870:	00000033 	andeq	r0, r0, r3, lsr r0
    4874:	02310800 	eorseq	r0, r1, #0, 16
    4878:	1c020000 	stcne	0, cr0, [r2], {-0}
    487c:	0000970e 	andeq	r9, r0, lr, lsl #14
    4880:	7c040900 			; <UNDEFINED> instruction: 0x7c040900
    4884:	06000000 	streq	r0, [r0], -r0
    4888:	00000033 	andeq	r0, r0, r3, lsr r0
    488c:	000000ac 	andeq	r0, r0, ip, lsr #1
    4890:	0000ac07 	andeq	sl, r0, r7, lsl #24
    4894:	04090000 	streq	r0, [r9], #-0
    4898:	000000b9 	strheq	r0, [r0], -r9
    489c:	5e080102 	adfple	f0, f0, f2
    48a0:	04000000 	streq	r0, [r0], #-0
    48a4:	000000b2 	strheq	r0, [r0], -r2
    48a8:	0005d308 	andeq	sp, r5, r8, lsl #6
    48ac:	0e210200 	cdpeq	2, 2, cr0, cr1, cr0, {0}
    48b0:	000000ca 	andeq	r0, r0, sl, asr #1
    48b4:	009d0409 	addseq	r0, sp, r9, lsl #8
    48b8:	070a0000 	streq	r0, [sl, -r0]
    48bc:	00005b01 	andeq	r5, r0, r1, lsl #22
    48c0:	0e0c0400 	cfcpyseq	mvf0, mvf12
    48c4:	0000010f 	andeq	r0, r0, pc, lsl #2
    48c8:	000a0b0b 	andeq	r0, sl, fp, lsl #22
    48cc:	430b0000 	movwmi	r0, #45056	; 0xb000
    48d0:	01000008 	tsteq	r0, r8
    48d4:	0008860b 	andeq	r8, r8, fp, lsl #12
    48d8:	950b0400 	strls	r0, [fp, #-1024]	; 0xfffffc00
    48dc:	05000008 	streq	r0, [r0, #-8]
    48e0:	0008a40b 	andeq	sl, r8, fp, lsl #8
    48e4:	b30b0600 	movwlt	r0, #46592	; 0xb600
    48e8:	07000008 	streq	r0, [r0, -r8]
    48ec:	0009d40b 	andeq	sp, r9, fp, lsl #8
    48f0:	c20b0300 	andgt	r0, fp, #0, 6
    48f4:	02000008 	andeq	r0, r0, #8, 0
    48f8:	0b7b0500 	bleq	1ec5d00 <__bss_end__+0x1ebaf60>
    48fc:	15040000 	strne	r0, [r4, #-0]
    4900:	0000d003 	andeq	sp, r0, r3
    4904:	0b190c00 	bleq	64790c <__bss_end__+0x63cb6c>
    4908:	1d010000 	stcne	0, cr0, [r1, #-0]
    490c:	00003a17 	andeq	r3, r0, r7, lsl sl
    4910:	20001c00 	andcs	r1, r0, r0, lsl #24
    4914:	0b0f0c20 	bleq	3c799c <__bss_end__+0x3bcbfc>
    4918:	1e010000 	cdpne	0, 0, cr0, cr1, cr0, {0}
    491c:	00003a17 	andeq	r3, r0, r7, lsl sl
    4920:	20002800 	andcs	r2, r0, r0, lsl #16
    4924:	0b870c20 	bleq	fe1c79ac <__bss_end__+0xfe1bcc0c>
    4928:	1f010000 	svcne	0x00010000
    492c:	00003a17 	andeq	r3, r0, r7, lsl sl
    4930:	20003400 	andcs	r3, r0, r0, lsl #8
    4934:	0b380d20 	bleq	e07dbc <__bss_end__+0xdfd01c>
    4938:	51010000 	mrspl	r0, (UNDEF: 1)
    493c:	00003305 	andeq	r3, r0, r5, lsl #6
    4940:	009f8400 	addseq	r8, pc, r0, lsl #8
    4944:	00002800 	andeq	r2, r0, r0, lsl #16
    4948:	ba9c0100 	blt	fe704d50 <__bss_end__+0xfe6f9fb0>
    494c:	0e000001 	cdpeq	0, 0, cr0, cr0, cr1, {0}
    4950:	006e6970 	rsbeq	r6, lr, r0, ror r9
    4954:	2c185101 	ldfcss	f5, [r8], {1}
    4958:	e9000000 	stmdb	r0, {}	; <UNPREDICTABLE>
    495c:	e300002b 	movw	r0, #43	; 0x2b
    4960:	0f00002b 	svceq	0x0000002b
    4964:	00000b91 	muleq	r0, r1, fp
    4968:	2c0e5201 	sfmcs	f5, 4, [lr], {1}
    496c:	1f000000 	svcne	0x00000000
    4970:	1500002c 	strne	r0, [r0, #-44]	; 0xffffffd4
    4974:	1000002c 	andne	r0, r0, ip, lsr #32
    4978:	0066666f 	rsbeq	r6, r6, pc, ror #12
    497c:	2c0e5301 	stccs	3, cr5, [lr], {1}
    4980:	8d000000 	stchi	0, cr0, [r0, #-0]
    4984:	8700002c 	strhi	r0, [r0, -ip, lsr #32]
    4988:	1100002c 	tstne	r0, ip, lsr #32
    498c:	00009f98 	muleq	r0, r8, pc	; <UNPREDICTABLE>
    4990:	0000065e 	andeq	r0, r0, lr, asr r6
    4994:	0a500112 	beq	1404de4 <__bss_end__+0x13fa044>
    4998:	25350074 	ldrcs	r0, [r5, #-116]!	; 0xffffff8c
    499c:	8080b423 	addhi	fp, r0, r3, lsr #8
    49a0:	00000281 	andeq	r0, r0, r1, lsl #5
    49a4:	000b2313 	andeq	r2, fp, r3, lsl r3
    49a8:	064a0100 	strbeq	r0, [sl], -r0, lsl #2
    49ac:	00009f54 	andeq	r9, r0, r4, asr pc
    49b0:	00000030 	andeq	r0, r0, r0, lsr r0
    49b4:	02759c01 	rsbseq	r9, r5, #256	; 0x100
    49b8:	700e0000 	andvc	r0, lr, r0
    49bc:	01006e69 	tsteq	r0, r9, ror #28
    49c0:	002c1a4a 	eoreq	r1, ip, sl, asr #20
    49c4:	2cca0000 	stclcs	0, cr0, [sl], {0}
    49c8:	2cbe0000 	ldccs	0, cr0, [lr]
    49cc:	760e0000 	strvc	r0, [lr], -r0
    49d0:	284a0100 	stmdacs	sl, {r8}^
    49d4:	0000002c 	andeq	r0, r0, ip, lsr #32
    49d8:	00002d1e 	andeq	r2, r0, lr, lsl sp
    49dc:	00002d1a 	andeq	r2, r0, sl, lsl sp
    49e0:	00038d14 	andeq	r8, r3, r4, lsl sp
    49e4:	009f6400 	addseq	r6, pc, r0, lsl #8
    49e8:	05580100 	ldrbeq	r0, [r8, #-256]	; 0xffffff00
    49ec:	4c010000 	stcmi	0, cr0, [r1], {-0}
    49f0:	00023509 	andeq	r3, r2, r9, lsl #10
    49f4:	039a1500 	orrseq	r1, sl, #0, 10
    49f8:	2d450000 	stclcs	0, cr0, [r5, #-0]
    49fc:	2d3f0000 	ldccs	0, cr0, [pc, #-0]	; 4a04 <__code_start__-0x35fc>
    4a00:	70160000 	andsvc	r0, r6, r0
    4a04:	6a00009f 	bvs	4c88 <__code_start__-0x3378>
    4a08:	12000006 	andne	r0, r0, #6, 0
    4a0c:	0c055001 	stceq	0, cr5, [r5], {1}
    4a10:	2020001c 	eorcs	r0, r0, ip, lsl r0
    4a14:	05510112 	ldrbeq	r0, [r1, #-274]	; 0xfffffeee
    4a18:	5001f331 	andpl	pc, r1, r1, lsr r3	; <UNPREDICTABLE>
    4a1c:	17000024 	strne	r0, [r0, -r4, lsr #32]
    4a20:	00000373 	andeq	r0, r0, r3, ror r3
    4a24:	00009f70 	andeq	r9, r0, r0, ror pc
    4a28:	009f7002 	addseq	r7, pc, r2
    4a2c:	00001400 	andeq	r1, r0, r0, lsl #8
    4a30:	094e0100 	stmdbeq	lr, {r8}^
    4a34:	00038015 	andeq	r8, r3, r5, lsl r0
    4a38:	002d7700 	eoreq	r7, sp, r0, lsl #14
    4a3c:	002d7100 	eoreq	r7, sp, r0, lsl #2
    4a40:	9f7c1600 	svcls	0x007c1600
    4a44:	066a0000 	strbteq	r0, [sl], -r0
    4a48:	01120000 	tsteq	r2, r0
    4a4c:	280c0550 	stmdacs	ip, {r4, r6, r8, sl}
    4a50:	12202000 	eorne	r2, r0, #0, 0
    4a54:	31055101 	tstcc	r5, r1, lsl #2
    4a58:	245001f3 	ldrbcs	r0, [r0], #-499	; 0xfffffe0d
    4a5c:	13000000 	movwne	r0, #0
    4a60:	00000b4f 	andeq	r0, r0, pc, asr #22
    4a64:	fc064501 	stc2	5, cr4, [r6], {1}
    4a68:	5800009e 	stmdapl	r0, {r1, r2, r3, r4, r7}
    4a6c:	01000000 	mrseq	r0, (UNDEF: 0)
    4a70:	0003739c 	muleq	r3, ip, r3
    4a74:	69700e00 	ldmdbvs	r0!, {r9, sl, fp}^
    4a78:	4501006e 	strmi	r0, [r1, #-110]	; 0xffffff92
    4a7c:	00002c1e 	andeq	r2, r0, lr, lsl ip
    4a80:	002da900 	eoreq	sl, sp, r0, lsl #18
    4a84:	002da300 	eoreq	sl, sp, r0, lsl #6
    4a88:	04a51800 	strteq	r1, [r5], #2048	; 0x800
    4a8c:	9efc0000 	cdpls	0, 15, cr0, cr12, cr0, {0}
    4a90:	18020000 	stmdane	r2, {}	; <UNPREDICTABLE>
    4a94:	01000005 	tsteq	r0, r5
    4a98:	be190546 	cfmac32lt	mvfx0, mvfx9, mvfx6
    4a9c:	00000004 	andeq	r0, r0, r4
    4aa0:	0004b215 	andeq	fp, r4, r5, lsl r2
    4aa4:	002ddb00 	eoreq	sp, sp, r0, lsl #22
    4aa8:	002dd500 	eoreq	sp, sp, r0, lsl #10
    4aac:	05181a00 	ldreq	r1, [r8, #-2560]	; 0xfffff600
    4ab0:	ca1b0000 	bgt	6c4ab8 <__bss_end__+0x6b9d18>
    4ab4:	1b000004 	blne	4acc <__code_start__-0x3534>
    4ab8:	000004d6 	ldrdeq	r0, [r0], -r6
    4abc:	0004e01b 	andeq	lr, r4, fp, lsl r0
    4ac0:	04a51800 	strteq	r1, [r5], #2048	; 0x800
    4ac4:	9f040000 	svcls	0x00040000
    4ac8:	38000000 	stmdacc	r0, {}	; <UNPREDICTABLE>
    4acc:	01000005 	tsteq	r0, r5
    4ad0:	be190628 	cfmsub32lt	mvax1, mvfx0, mvfx9, mvfx8
    4ad4:	00000004 	andeq	r0, r0, r4
    4ad8:	0004b215 	andeq	fp, r4, r5, lsl r2
    4adc:	002e0d00 	eoreq	r0, lr, r0, lsl #26
    4ae0:	002e0700 	eoreq	r0, lr, r0, lsl #14
    4ae4:	05381a00 	ldreq	r1, [r8, #-2560]!	; 0xfffff600
    4ae8:	ca1c0000 	bgt	704af0 <__bss_end__+0x6f9d50>
    4aec:	3f000004 	svccc	0x00000004
    4af0:	3900002e 	stmdbcc	r0, {r1, r2, r3, r5}
    4af4:	1c00002e 	stcne	0, cr0, [r0], {46}	; 0x2e
    4af8:	000004d6 	ldrdeq	r0, [r0], -r6
    4afc:	00002e81 	andeq	r2, r0, r1, lsl #29
    4b00:	00002e7b 	andeq	r2, r0, fp, ror lr
    4b04:	0004e01c 	andeq	lr, r4, ip, lsl r0
    4b08:	002ed700 	eoreq	sp, lr, r0, lsl #14
    4b0c:	002ecf00 	eoreq	ip, lr, r0, lsl #30
    4b10:	9f2c1d00 	svcls	0x002c1d00
    4b14:	065e0000 	ldrbeq	r0, [lr], -r0
    4b18:	033b0000 	teqeq	fp, #0, 0
    4b1c:	01120000 	tsteq	r2, r0
    4b20:	00760250 	rsbseq	r0, r6, r0, asr r2
    4b24:	9f501600 	svcls	0x00501600
    4b28:	066a0000 	strbteq	r0, [sl], -r0
    4b2c:	01120000 	tsteq	r2, r0
    4b30:	01f32550 	mvnseq	r2, r0, asr r5
    4b34:	f72cf750 			; <UNDEFINED> instruction: 0xf72cf750
    4b38:	0825f425 	stmdaeq	r5!, {r0, r2, r5, sl, ip, sp, lr, pc}
    4b3c:	cccccccd 	stclgt	12, cr12, [ip], {205}	; 0xcd
    4b40:	00000000 	andeq	r0, r0, r0
    4b44:	f720081e 			; <UNDEFINED> instruction: 0xf720081e
    4b48:	2cf72525 	cfldr64cs	mvdx2, [r7], #148	; 0x94
    4b4c:	253300f7 	ldrcs	r0, [r3, #-247]!	; 0xffffff09
    4b50:	a0808023 	addge	r8, r0, r3, lsr #32
    4b54:	00243240 	eoreq	r3, r4, r0, asr #4
    4b58:	00000000 	andeq	r0, r0, r0
    4b5c:	0b5e1e00 	bleq	178c364 <__bss_end__+0x17815c4>
    4b60:	40010000 	andmi	r0, r1, r0
    4b64:	038d030d 	orreq	r0, sp, #872415232	; 0x34000000
    4b68:	701f0000 	andsvc	r0, pc, r0
    4b6c:	01006e69 	tsteq	r0, r9, ror #28
    4b70:	002c2340 	eoreq	r2, ip, r0, asr #6
    4b74:	1e000000 	cdpne	0, 0, cr0, cr0, cr0, {0}
    4b78:	00000b96 	muleq	r0, r6, fp
    4b7c:	030d3b01 	movweq	r3, #56065	; 0xdb01
    4b80:	000003a7 	andeq	r0, r0, r7, lsr #7
    4b84:	6e69701f 	mcrvs	0, 3, r7, cr9, cr15, {0}
    4b88:	223b0100 	eorscs	r0, fp, #0
    4b8c:	0000002c 	andeq	r0, r0, ip, lsr #32
    4b90:	0b6b1300 	bleq	1ac9798 <__bss_end__+0x1abe9f8>
    4b94:	36010000 	strcc	r0, [r1], -r0
    4b98:	009e7406 	addseq	r7, lr, r6, lsl #8
    4b9c:	00005800 	andeq	r5, r0, r0, lsl #16
    4ba0:	a59c0100 	ldrge	r0, [ip, #256]	; 0x100
    4ba4:	0e000004 	cdpeq	0, 0, cr0, cr0, cr4, {0}
    4ba8:	006e6970 	rsbeq	r6, lr, r0, ror r9
    4bac:	2c1f3601 	ldccs	6, cr3, [pc], {1}
    4bb0:	35000000 	strcc	r0, [r0, #-0]
    4bb4:	3100002f 	tstcc	r0, pc, lsr #32
    4bb8:	1800002f 	stmdane	r0, {r0, r1, r2, r3, r5}
    4bbc:	000004a5 	andeq	r0, r0, r5, lsr #9
    4bc0:	00009e74 	andeq	r9, r0, r4, ror lr
    4bc4:	0004d802 	andeq	sp, r4, r2, lsl #16
    4bc8:	05370100 	ldreq	r0, [r7, #-256]!	; 0xffffff00
    4bcc:	0004be19 	andeq	fp, r4, r9, lsl lr
    4bd0:	b2150100 	andslt	r0, r5, #0
    4bd4:	5a000004 	bpl	4bec <__code_start__-0x3414>
    4bd8:	5600002f 	strpl	r0, [r0], -pc, lsr #32
    4bdc:	1a00002f 	bne	4ca0 <__code_start__-0x3360>
    4be0:	000004d8 	ldrdeq	r0, [r0], -r8
    4be4:	0004ca1b 	andeq	ip, r4, fp, lsl sl
    4be8:	04d61b00 	ldrbeq	r1, [r6], #2816	; 0xb00
    4bec:	e01b0000 	ands	r0, fp, r0
    4bf0:	18000004 	stmdane	r0, {r2}
    4bf4:	000004a5 	andeq	r0, r0, r5, lsr #9
    4bf8:	00009e7c 	andeq	r9, r0, ip, ror lr
    4bfc:	0004f800 	andeq	pc, r4, r0, lsl #16
    4c00:	06280100 	strteq	r0, [r8], -r0, lsl #2
    4c04:	0004be19 	andeq	fp, r4, r9, lsl lr
    4c08:	b2150100 	andslt	r0, r5, #0
    4c0c:	7f000004 	svcvc	0x00000004
    4c10:	7b00002f 	blvc	4cd4 <__code_start__-0x332c>
    4c14:	1a00002f 	bne	4cd8 <__code_start__-0x3328>
    4c18:	000004f8 	strdeq	r0, [r0], -r8
    4c1c:	0004ca1c 	andeq	ip, r4, ip, lsl sl
    4c20:	002fa400 	eoreq	sl, pc, r0, lsl #8
    4c24:	002fa000 	eoreq	sl, pc, r0
    4c28:	04d61c00 	ldrbeq	r1, [r6], #3072	; 0xc00
    4c2c:	2ff00000 	svccs	0x00f00000	; IMB
    4c30:	2fea0000 	svccs	0x00ea0000
    4c34:	e01c0000 	ands	r0, ip, r0
    4c38:	46000004 	strmi	r0, [r0], -r4
    4c3c:	3e000030 	mcrcc	0, 0, r0, cr0, cr0, {1}
    4c40:	1d000030 	stcne	0, cr0, [r0, #-192]	; 0xffffff40
    4c44:	00009ea8 	andeq	r9, r0, r8, lsr #29
    4c48:	0000065e 	andeq	r0, r0, lr, asr r6
    4c4c:	0000046d 	andeq	r0, r0, sp, ror #8
    4c50:	02500112 	subseq	r0, r0, #-2147483644	; 0x80000004
    4c54:	16000075 			; <UNDEFINED> instruction: 0x16000075
    4c58:	00009ec8 	andeq	r9, r0, r8, asr #29
    4c5c:	0000066a 	andeq	r0, r0, sl, ror #12
    4c60:	25500112 	ldrbcs	r0, [r0, #-274]	; 0xfffffeee
    4c64:	f75001f3 			; <UNDEFINED> instruction: 0xf75001f3
    4c68:	f425f72c 	vld1.8	{d15}, [r5 :128], ip
    4c6c:	cccd0825 	stclgt	8, cr0, [sp], {37}	; 0x25
    4c70:	0000cccc 	andeq	ip, r0, ip, asr #25
    4c74:	081e0000 	ldmdaeq	lr, {}	; <UNPREDICTABLE>
    4c78:	2525f720 	strcs	pc, [r5, #-1824]!	; 0xfffff8e0
    4c7c:	00f72cf7 	ldrshteq	r2, [r7], #199	; 0xc7
    4c80:	80232533 	eorhi	r2, r3, r3, lsr r5
    4c84:	3240a080 	subcc	sl, r0, #128, 0	; 0x80
    4c88:	00000024 	andeq	r0, r0, r4, lsr #32
    4c8c:	1e000000 	cdpne	0, 0, cr0, cr0, cr0, {0}
    4c90:	00000a1b 	andeq	r0, r0, fp, lsl sl
    4c94:	01062801 	tsteq	r6, r1, lsl #16
    4c98:	000004eb 	andeq	r0, r0, fp, ror #9
    4c9c:	6e69701f 	mcrvs	0, 3, r7, cr9, cr15, {0}
    4ca0:	21280100 			; <UNDEFINED> instruction: 0x21280100
    4ca4:	0000002c 	andeq	r0, r0, ip, lsr #32
    4ca8:	0000a620 	andeq	sl, r0, r0, lsr #12
    4cac:	32280100 	eorcc	r0, r8, #0
    4cb0:	0000010f 	andeq	r0, r0, pc, lsl #2
    4cb4:	66666f21 	strbtvs	r6, [r6], -r1, lsr #30
    4cb8:	0e2d0100 	sufeqe	f0, f5, f0
    4cbc:	0000002c 	andeq	r0, r0, ip, lsr #32
    4cc0:	01006721 	tsteq	r0, r1, lsr #14
    4cc4:	002c0e2e 	eoreq	r0, ip, lr, lsr #28
    4cc8:	76210000 	strtvc	r0, [r1], -r0
    4ccc:	0e300100 	rsfeqs	f0, f0, f0
    4cd0:	0000002c 	andeq	r0, r0, ip, lsr #32
    4cd4:	0b2e2200 	bleq	b8d4dc <__bss_end__+0xb8273c>
    4cd8:	b1020000 	mrslt	r0, (UNDEF: 2)
    4cdc:	00006918 	andeq	r6, r0, r8, lsl r9
    4ce0:	05070300 	streq	r0, [r7, #-768]	; 0xfffffd00
    4ce4:	781f0000 	ldmdavc	pc, {}	; <UNPREDICTABLE>
    4ce8:	2bb10200 	blcs	fec454f0 <__bss_end__+0xfec3a750>
    4cec:	00000069 	andeq	r0, r0, r9, rrx
    4cf0:	04a52300 	strteq	r2, [r5], #768	; 0x300
    4cf4:	9e140000 	cdpls	0, 1, cr0, cr4, cr0, {0}
    4cf8:	00600000 	rsbeq	r0, r0, r0
    4cfc:	9c010000 	stcls	0, cr0, [r1], {-0}
    4d00:	000005e4 	andeq	r0, r0, r4, ror #11
    4d04:	0004b215 	andeq	fp, r4, r5, lsl r2
    4d08:	00308500 	eorseq	r8, r0, r0, lsl #10
    4d0c:	00308100 	eorseq	r8, r0, r0, lsl #2
    4d10:	04be1500 	ldrteq	r1, [lr], #1280	; 0x500
    4d14:	30aa0000 	adccc	r0, sl, r0
    4d18:	30a60000 	adccc	r0, r6, r0
    4d1c:	ca1b0000 	bgt	6c4d24 <__bss_end__+0x6b9f84>
    4d20:	1b000004 	blne	4d38 <__code_start__-0x32c8>
    4d24:	000004d6 	ldrdeq	r0, [r0], -r6
    4d28:	0004e01b 	andeq	lr, r4, fp, lsl r0
    4d2c:	04a51800 	strteq	r1, [r5], #2048	; 0x800
    4d30:	9e1c0000 	cdpls	0, 1, cr0, cr12, cr0, {0}
    4d34:	b8000000 	stmdalt	r0, {}	; <UNPREDICTABLE>
    4d38:	01000004 	tsteq	r0, r4
    4d3c:	be150628 	cfmsub32lt	mvax1, mvfx0, mvfx5, mvfx8
    4d40:	cf000004 	svcgt	0x00000004
    4d44:	cb000030 	blgt	4e0c <__code_start__-0x31f4>
    4d48:	15000030 	strne	r0, [r0, #-48]	; 0xffffffd0
    4d4c:	000004b2 			; <UNDEFINED> instruction: 0x000004b2
    4d50:	000030f4 	strdeq	r3, [r0], -r4
    4d54:	000030f0 	strdeq	r3, [r0], -r0
    4d58:	0004b81a 	andeq	fp, r4, sl, lsl r8
    4d5c:	04ca1c00 	strbeq	r1, [sl], #3072	; 0xc00
    4d60:	31190000 	tstcc	r9, r0
    4d64:	31150000 	tstcc	r5, r0
    4d68:	d61c0000 	ldrle	r0, [ip], -r0
    4d6c:	65000004 	strvs	r0, [r0, #-4]
    4d70:	5f000031 	svcpl	0x00000031
    4d74:	1c000031 	stcne	0, cr0, [r0], {49}	; 0x31
    4d78:	000004e0 	andeq	r0, r0, r0, ror #9
    4d7c:	000031bb 			; <UNDEFINED> instruction: 0x000031bb
    4d80:	000031b3 			; <UNDEFINED> instruction: 0x000031b3
    4d84:	009e541d 	addseq	r5, lr, sp, lsl r4
    4d88:	00065e00 	andeq	r5, r6, r0, lsl #28
    4d8c:	0005ae00 	andeq	sl, r5, r0, lsl #28
    4d90:	50011200 	andpl	r1, r1, r0, lsl #4
    4d94:	00007602 	andeq	r7, r0, r2, lsl #12
    4d98:	009e7016 	addseq	r7, lr, r6, lsl r0
    4d9c:	00066a00 	andeq	r6, r6, r0, lsl #20
    4da0:	50011200 	andpl	r1, r1, r0, lsl #4
    4da4:	5001f325 	andpl	pc, r1, r5, lsr #6
    4da8:	25f72cf7 	ldrbcs	r2, [r7, #3319]!	; 0xcf7
    4dac:	cd0825f4 	cfstr32gt	mvfx2, [r8, #-976]	; 0xfffffc30
    4db0:	00cccccc 	sbceq	ip, ip, ip, asr #25
    4db4:	1e000000 	cdpne	0, 0, cr0, cr0, cr0, {0}
    4db8:	25f72008 	ldrbcs	r2, [r7, #8]!
    4dbc:	f72cf725 			; <UNDEFINED> instruction: 0xf72cf725
    4dc0:	23253300 			; <UNDEFINED> instruction: 0x23253300
    4dc4:	40a08080 	adcmi	r8, r0, r0, lsl #1
    4dc8:	00002432 	andeq	r2, r0, r2, lsr r4
    4dcc:	8d230000 	stchi	0, cr0, [r3, #-0]
    4dd0:	cc000003 	stcgt	0, cr0, [r0], {3}
    4dd4:	1800009e 	stmdane	r0, {r1, r2, r3, r4, r7}
    4dd8:	01000000 	mrseq	r0, (UNDEF: 0)
    4ddc:	0006219c 	muleq	r6, ip, r1
    4de0:	039a1500 	orrseq	r1, sl, #0, 10
    4de4:	32110000 	andscc	r0, r1, #0, 0
    4de8:	320b0000 	andcc	r0, fp, #0, 0
    4dec:	e0160000 	ands	r0, r6, r0
    4df0:	6a00009e 	bvs	5070 <__code_start__-0x2f90>
    4df4:	12000006 	andne	r0, r0, #6, 0
    4df8:	0c055001 	stceq	0, cr5, [r5], {1}
    4dfc:	2020001c 	eorcs	r0, r0, ip, lsl r0
    4e00:	05510112 	ldrbeq	r0, [r1, #-274]	; 0xfffffeee
    4e04:	5001f331 	andpl	pc, r1, r1, lsr r3	; <UNPREDICTABLE>
    4e08:	23000024 	movwcs	r0, #36	; 0x24
    4e0c:	00000373 	andeq	r0, r0, r3, ror r3
    4e10:	00009ee4 	andeq	r9, r0, r4, ror #29
    4e14:	00000018 	andeq	r0, r0, r8, lsl r0
    4e18:	065e9c01 	ldrbeq	r9, [lr], -r1, lsl #24
    4e1c:	80150000 	andshi	r0, r5, r0
    4e20:	43000003 	movwmi	r0, #3
    4e24:	3d000032 	stccc	0, cr0, [r0, #-200]	; 0xffffff38
    4e28:	16000032 			; <UNDEFINED> instruction: 0x16000032
    4e2c:	00009ef8 	strdeq	r9, [r0], -r8
    4e30:	0000066a 	andeq	r0, r0, sl, ror #12
    4e34:	05500112 	ldrbeq	r0, [r0, #-274]	; 0xfffffeee
    4e38:	2000280c 	andcs	r2, r0, ip, lsl #16
    4e3c:	51011220 	tstpl	r1, r0, lsr #4
    4e40:	01f33105 	mvnseq	r3, r5, lsl #2
    4e44:	00002450 	andeq	r2, r0, r0, asr r4
    4e48:	0007f024 	andeq	pc, r7, r4, lsr #32
    4e4c:	0007f000 	andeq	pc, r7, r0
    4e50:	0ac20200 	beq	ff085658 <__bss_end__+0xff07a8b8>
    4e54:	00075c24 	andeq	r5, r7, r4, lsr #24
    4e58:	00075c00 	andeq	r5, r7, r0, lsl #24
    4e5c:	06ad0200 	strteq	r0, [sp], r0, lsl #4
    4e60:	00014900 	andeq	r4, r1, r0, lsl #18
    4e64:	19000400 	stmdbne	r0, {sl}
    4e68:	0400001b 	streq	r0, [r0], #-27	; 0xffffffe5
    4e6c:	0004b301 	andeq	fp, r4, r1, lsl #6
    4e70:	0bc00c00 	bleq	ff007e78 <__bss_end__+0xfeffd0d8>
    4e74:	056b0000 	strbeq	r0, [fp, #-0]!
    4e78:	9fac0000 	svcls	0x00ac0000
    4e7c:	003c0000 	eorseq	r0, ip, r0
    4e80:	25160000 	ldrcs	r0, [r6, #-0]
    4e84:	04020000 	streq	r0, [r2], #-0
    4e88:	746e6905 	strbtvc	r6, [lr], #-2309	; 0xfffff6fb
    4e8c:	07040300 	streq	r0, [r4, -r0, lsl #6]
    4e90:	000000f1 	strdeq	r0, [r0], -r1
    4e94:	57060103 	strpl	r0, [r6, -r3, lsl #2]
    4e98:	03000000 	movweq	r0, #0
    4e9c:	020b0502 	andeq	r0, fp, #8388608	; 0x800000
    4ea0:	04030000 	streq	r0, [r3], #-0
    4ea4:	00011505 	andeq	r1, r1, r5, lsl #10
    4ea8:	05080300 	streq	r0, [r8, #-768]	; 0xfffffd00
    4eac:	00000110 	andeq	r0, r0, r0, lsl r1
    4eb0:	55080103 	strpl	r0, [r8, #-259]	; 0xfffffefd
    4eb4:	03000000 	movweq	r0, #0
    4eb8:	00700702 	rsbseq	r0, r0, r2, lsl #14
    4ebc:	04030000 	streq	r0, [r3], #-0
    4ec0:	0000ec07 	andeq	lr, r0, r7, lsl #24
    4ec4:	07080300 	streq	r0, [r8, -r0, lsl #6]
    4ec8:	000000e7 	andeq	r0, r0, r7, ror #1
    4ecc:	00002504 	andeq	r2, r0, r4, lsl #10
    4ed0:	00007a00 	andeq	r7, r0, r0, lsl #20
    4ed4:	00250500 	eoreq	r0, r5, r0, lsl #10
    4ed8:	06000000 	streq	r0, [r0], -r0
    4edc:	00000231 	andeq	r0, r0, r1, lsr r2
    4ee0:	860e1c02 	strhi	r1, [lr], -r2, lsl #24
    4ee4:	07000000 	streq	r0, [r0, -r0]
    4ee8:	00006b04 	andeq	r6, r0, r4, lsl #22
    4eec:	00250400 	eoreq	r0, r5, r0, lsl #8
    4ef0:	009b0000 	addseq	r0, fp, r0
    4ef4:	9b050000 	blls	144efc <__bss_end__+0x13a15c>
    4ef8:	00000000 	andeq	r0, r0, r0
    4efc:	00a80407 	adceq	r0, r8, r7, lsl #8
    4f00:	01030000 	mrseq	r0, (UNDEF: 3)
    4f04:	00005e08 	andeq	r5, r0, r8, lsl #28
    4f08:	00a10800 	adceq	r0, r1, r0, lsl #16
    4f0c:	d3060000 	movwle	r0, #24576	; 0x6000
    4f10:	02000005 	andeq	r0, r0, #5, 0
    4f14:	00b90e21 	adcseq	r0, r9, r1, lsr #28
    4f18:	04070000 	streq	r0, [r7], #-0
    4f1c:	0000008c 	andeq	r0, r0, ip, lsl #1
    4f20:	00007a09 	andeq	r7, r0, r9, lsl #20
    4f24:	07060100 	streq	r0, [r6, -r0, lsl #2]
    4f28:	a9740305 	ldmdbge	r4!, {r0, r2, r8, r9}^
    4f2c:	b30a0000 	movwlt	r0, #40960	; 0xa000
    4f30:	0100000b 	tsteq	r0, fp
    4f34:	9fd8060b 	svcls	0x00d8060b
    4f38:	00100000 	andseq	r0, r0, r0
    4f3c:	9c010000 	stcls	0, cr0, [r1], {-0}
    4f40:	000000f1 	strdeq	r0, [r0], -r1
    4f44:	0070660b 	rsbseq	r6, r0, fp, lsl #12
    4f48:	86190b01 	ldrhi	r0, [r9], -r1, lsl #22
    4f4c:	01000000 	mrseq	r0, (UNDEF: 0)
    4f50:	f00c0050 			; <UNDEFINED> instruction: 0xf00c0050
    4f54:	0100000a 	tsteq	r0, sl
    4f58:	9fc00608 	svcls	0x00c00608
    4f5c:	00180000 	andseq	r0, r8, r0
    4f60:	9c010000 	stcls	0, cr0, [r1], {-0}
    4f64:	000ba20d 	andeq	sl, fp, sp, lsl #4
    4f68:	0c030100 	stfeqs	f0, [r3], {-0}
    4f6c:	00000025 	andeq	r0, r0, r5, lsr #32
    4f70:	00009fac 	andeq	r9, r0, ip, lsr #31
    4f74:	00000014 	andeq	r0, r0, r4, lsl r0
    4f78:	01409c01 	cmpeq	r0, r1, lsl #24
    4f7c:	630e0000 	movwvs	r0, #57344	; 0xe000
    4f80:	21030100 	mrscs	r0, (UNDEF: 19)
    4f84:	00000025 	andeq	r0, r0, r5, lsr #32
    4f88:	00003273 	andeq	r3, r0, r3, ror r2
    4f8c:	0000326f 	andeq	r3, r0, pc, ror #4
    4f90:	009fb80f 	addseq	fp, pc, pc, lsl #16
    4f94:	00014000 	andeq	r4, r1, r0
    4f98:	50011000 	andpl	r1, r1, r0
    4f9c:	00007402 	andeq	r7, r0, r2, lsl #8
    4fa0:	0a011100 	beq	493a8 <__bss_end__+0x3e608>
    4fa4:	0a010000 	beq	44fac <__bss_end__+0x3a20c>
    4fa8:	42020000 	andmi	r0, r2, #0, 0
    4fac:	01370006 	teqeq	r7, r6
    4fb0:	00040000 	andeq	r0, r4, r0
    4fb4:	00001c28 	andeq	r1, r0, r8, lsr #24
    4fb8:	04b30104 	ldrteq	r0, [r3], #260	; 0x104
    4fbc:	d10c0000 	mrsle	r0, (UNDEF: 12)
    4fc0:	6b00000b 	blvs	4ff4 <__code_start__-0x300c>
    4fc4:	e8000005 	stmda	r0, {r0, r2}
    4fc8:	2c00009f 	stccs	0, cr0, [r0], {159}	; 0x9f
    4fcc:	b8000000 	stmdalt	r0, {}	; <UNPREDICTABLE>
    4fd0:	02000025 	andeq	r0, r0, #37, 0	; 0x25
    4fd4:	6e690504 	cdpvs	5, 6, cr0, cr9, cr4, {0}
    4fd8:	04030074 	streq	r0, [r3], #-116	; 0xffffff8c
    4fdc:	0000f107 	andeq	pc, r0, r7, lsl #2
    4fe0:	06010300 	streq	r0, [r1], -r0, lsl #6
    4fe4:	00000057 	andeq	r0, r0, r7, asr r0
    4fe8:	0b050203 	bleq	1457fc <__bss_end__+0x13aa5c>
    4fec:	03000002 	movweq	r0, #2
    4ff0:	01150504 	tsteq	r5, r4, lsl #10
    4ff4:	08030000 	stmdaeq	r3, {}	; <UNPREDICTABLE>
    4ff8:	00011005 	andeq	r1, r1, r5
    4ffc:	08010300 	stmdaeq	r1, {r8, r9}
    5000:	00000055 	andeq	r0, r0, r5, asr r0
    5004:	70070203 	andvc	r0, r7, r3, lsl #4
    5008:	03000000 	movweq	r0, #0
    500c:	00ec0704 	rsceq	r0, ip, r4, lsl #14
    5010:	08030000 	stmdaeq	r3, {}	; <UNPREDICTABLE>
    5014:	0000e707 	andeq	lr, r0, r7, lsl #14
    5018:	00250400 	eoreq	r0, r5, r0, lsl #8
    501c:	007a0000 	rsbseq	r0, sl, r0
    5020:	25050000 	strcs	r0, [r5, #-0]
    5024:	00000000 	andeq	r0, r0, r0
    5028:	00023106 	andeq	r3, r2, r6, lsl #2
    502c:	0e1c0200 	cdpeq	2, 1, cr0, cr12, cr0, {0}
    5030:	00000086 	andeq	r0, r0, r6, lsl #1
    5034:	006b0407 	rsbeq	r0, fp, r7, lsl #8
    5038:	25040000 	strcs	r0, [r4, #-0]
    503c:	9b000000 	blls	5044 <__code_start__-0x2fbc>
    5040:	05000000 	streq	r0, [r0, #-0]
    5044:	0000009b 	muleq	r0, fp, r0
    5048:	a8040700 	stmdage	r4, {r8, r9, sl}
    504c:	03000000 	movweq	r0, #0
    5050:	005e0801 	subseq	r0, lr, r1, lsl #16
    5054:	a1080000 	mrsge	r0, (UNDEF: 8)
    5058:	06000000 	streq	r0, [r0], -r0
    505c:	000005d3 	ldrdeq	r0, [r0], -r3
    5060:	b90e2102 	stmdblt	lr, {r1, r8, sp}
    5064:	07000000 	streq	r0, [r0, -r0]
    5068:	00008c04 	andeq	r8, r0, r4, lsl #24
    506c:	064f0900 	strbeq	r0, [pc], -r0, lsl #18
    5070:	04010000 	streq	r0, [r1], #-0
    5074:	00013407 	andeq	r3, r1, r7, lsl #8
    5078:	009fe800 	addseq	lr, pc, r0, lsl #16
    507c:	00002c00 	andeq	r2, r0, r0, lsl #24
    5080:	349c0100 	ldrcc	r0, [ip], #256	; 0x100
    5084:	0a000001 	beq	5090 <__code_start__-0x2f70>
    5088:	00000be1 	andeq	r0, r0, r1, ror #23
    508c:	34150401 	ldrcc	r0, [r5], #-1025	; 0xfffffbff
    5090:	01000001 	tsteq	r0, r1
    5094:	72730b50 	rsbsvc	r0, r3, #80, 22	; 0x14000
    5098:	04010063 	streq	r0, [r1], #-99	; 0xffffff9d
    509c:	00009b27 	andeq	r9, r0, r7, lsr #22
    50a0:	00329500 	eorseq	r9, r2, r0, lsl #10
    50a4:	00329100 	eorseq	r9, r2, r0, lsl #2
    50a8:	31730c00 	cmncc	r3, r0, lsl #24
    50ac:	0b050100 	bleq	1454b4 <__bss_end__+0x13a714>
    50b0:	00000134 	andeq	r0, r0, r4, lsr r1
    50b4:	000032c4 	andeq	r3, r0, r4, asr #5
    50b8:	000032b6 			; <UNDEFINED> instruction: 0x000032b6
    50bc:	0032730c 	eorseq	r7, r2, ip, lsl #6
    50c0:	9b110601 	blls	4468cc <__bss_end__+0x43bb2c>
    50c4:	23000000 	movwcs	r0, #0
    50c8:	1d000033 	stcne	0, cr0, [r0, #-204]	; 0xffffff34
    50cc:	0c000033 	stceq	0, cr0, [r0], {51}	; 0x33
    50d0:	07010063 	streq	r0, [r1, -r3, rrx]
    50d4:	0000a10a 	andeq	sl, r0, sl, lsl #2
    50d8:	00335400 	eorseq	r5, r3, r0, lsl #8
    50dc:	00334e00 	eorseq	r4, r3, r0, lsl #28
    50e0:	04070000 	streq	r0, [r7], #-0
    50e4:	000000a1 	andeq	r0, r0, r1, lsr #1
    50e8:	0000f700 	andeq	pc, r0, r0, lsl #14
    50ec:	de000400 	cfcpysle	mvf0, mvf0
    50f0:	0400001c 	streq	r0, [r0], #-28	; 0xffffffe4
    50f4:	0004b301 	andeq	fp, r4, r1, lsl #6
    50f8:	0be60c00 	bleq	ff988100 <__bss_end__+0xff97d360>
    50fc:	056b0000 	strbeq	r0, [fp, #-0]!
    5100:	a0140000 	andsge	r0, r4, r0
    5104:	00440000 	subeq	r0, r4, r0
    5108:	269e0000 	ldrcs	r0, [lr], r0
    510c:	04020000 	streq	r0, [r2], #-0
    5110:	746e6905 	strbtvc	r6, [lr], #-2309	; 0xfffff6fb
    5114:	07040300 	streq	r0, [r4, -r0, lsl #6]
    5118:	000000f1 	strdeq	r0, [r0], -r1
    511c:	57060103 	strpl	r0, [r6, -r3, lsl #2]
    5120:	03000000 	movweq	r0, #0
    5124:	020b0502 	andeq	r0, fp, #8388608	; 0x800000
    5128:	04030000 	streq	r0, [r3], #-0
    512c:	00011505 	andeq	r1, r1, r5, lsl #10
    5130:	05080300 	streq	r0, [r8, #-768]	; 0xfffffd00
    5134:	00000110 	andeq	r0, r0, r0, lsl r1
    5138:	55080103 	strpl	r0, [r8, #-259]	; 0xfffffefd
    513c:	03000000 	movweq	r0, #0
    5140:	00700702 	rsbseq	r0, r0, r2, lsl #14
    5144:	04030000 	streq	r0, [r3], #-0
    5148:	0000ec07 	andeq	lr, r0, r7, lsl #24
    514c:	07080300 	streq	r0, [r8, -r0, lsl #6]
    5150:	000000e7 	andeq	r0, r0, r7, ror #1
    5154:	00002504 	andeq	r2, r0, r4, lsl #10
    5158:	00007a00 	andeq	r7, r0, r0, lsl #20
    515c:	00250500 	eoreq	r0, r5, r0, lsl #10
    5160:	06000000 	streq	r0, [r0], -r0
    5164:	00000231 	andeq	r0, r0, r1, lsr r2
    5168:	860e1c02 	strhi	r1, [lr], -r2, lsl #24
    516c:	07000000 	streq	r0, [r0, -r0]
    5170:	00006b04 	andeq	r6, r0, r4, lsl #22
    5174:	00250400 	eoreq	r0, r5, r0, lsl #8
    5178:	009b0000 	addseq	r0, fp, r0
    517c:	9b050000 	blls	145184 <__bss_end__+0x13a3e4>
    5180:	00000000 	andeq	r0, r0, r0
    5184:	00a80407 	adceq	r0, r8, r7, lsl #8
    5188:	01030000 	mrseq	r0, (UNDEF: 3)
    518c:	00005e08 	andeq	r5, r0, r8, lsl #28
    5190:	00a10800 	adceq	r0, r1, r0, lsl #16
    5194:	d3060000 	movwle	r0, #24576	; 0x6000
    5198:	02000005 	andeq	r0, r0, #5, 0
    519c:	00b90e21 	adcseq	r0, r9, r1, lsr #28
    51a0:	04070000 	streq	r0, [r7], #-0
    51a4:	0000008c 	andeq	r0, r0, ip, lsl #1
    51a8:	00067d09 	andeq	r7, r6, r9, lsl #26
    51ac:	05030100 	streq	r0, [r3, #-256]	; 0xffffff00
    51b0:	00000025 	andeq	r0, r0, r5, lsr #32
    51b4:	0000a014 	andeq	sl, r0, r4, lsl r0
    51b8:	00000044 	andeq	r0, r0, r4, asr #32
    51bc:	610a9c01 	tstvs	sl, r1, lsl #24
    51c0:	18030100 	stmdane	r3, {r8}
    51c4:	0000009b 	muleq	r0, fp, r0
    51c8:	0000338b 	andeq	r3, r0, fp, lsl #7
    51cc:	0000337f 	andeq	r3, r0, pc, ror r3
    51d0:	0100620a 	tsteq	r0, sl, lsl #4
    51d4:	009b2703 	addseq	r2, fp, r3, lsl #14
    51d8:	33df0000 	bicscc	r0, pc, #0, 0
    51dc:	33d90000 	bicscc	r0, r9, #0, 0
    51e0:	00000000 	andeq	r0, r0, r0
    51e4:	0000010f 	andeq	r0, r0, pc, lsl #2
    51e8:	1d6d0004 	stclne	0, cr0, [sp, #-16]!
    51ec:	01040000 	mrseq	r0, (UNDEF: 4)
    51f0:	000004b3 			; <UNDEFINED> instruction: 0x000004b3
    51f4:	000bf60c 	andeq	pc, fp, ip, lsl #12
    51f8:	00056b00 	andeq	r6, r5, r0, lsl #22
    51fc:	00a05800 	adceq	r5, r0, r0, lsl #16
    5200:	00001800 	andeq	r1, r0, r0, lsl #16
    5204:	00275400 	eoreq	r5, r7, r0, lsl #8
    5208:	05040200 	streq	r0, [r4, #-512]	; 0xfffffe00
    520c:	00746e69 	rsbseq	r6, r4, r9, ror #28
    5210:	f1070403 			; <UNDEFINED> instruction: 0xf1070403
    5214:	03000000 	movweq	r0, #0
    5218:	00570601 	subseq	r0, r7, r1, lsl #12
    521c:	02030000 	andeq	r0, r3, #0, 0
    5220:	00020b05 	andeq	r0, r2, r5, lsl #22
    5224:	05040300 	streq	r0, [r4, #-768]	; 0xfffffd00
    5228:	00000115 	andeq	r0, r0, r5, lsl r1
    522c:	10050803 	andne	r0, r5, r3, lsl #16
    5230:	03000001 	movweq	r0, #1
    5234:	00550801 	subseq	r0, r5, r1, lsl #16
    5238:	02030000 	andeq	r0, r3, #0, 0
    523c:	00007007 	andeq	r7, r0, r7
    5240:	07040300 	streq	r0, [r4, -r0, lsl #6]
    5244:	000000ec 	andeq	r0, r0, ip, ror #1
    5248:	e7070803 	str	r0, [r7, -r3, lsl #16]
    524c:	04000000 	streq	r0, [r0], #-0
    5250:	00000025 	andeq	r0, r0, r5, lsr #32
    5254:	0000007a 	andeq	r0, r0, sl, ror r0
    5258:	00002505 	andeq	r2, r0, r5, lsl #10
    525c:	31060000 	mrscc	r0, (UNDEF: 6)
    5260:	02000002 	andeq	r0, r0, #2, 0
    5264:	00860e1c 	addeq	r0, r6, ip, lsl lr
    5268:	04070000 	streq	r0, [r7], #-0
    526c:	0000006b 	andeq	r0, r0, fp, rrx
    5270:	00002504 	andeq	r2, r0, r4, lsl #10
    5274:	00009b00 	andeq	r9, r0, r0, lsl #22
    5278:	009b0500 	addseq	r0, fp, r0, lsl #10
    527c:	07000000 	streq	r0, [r0, -r0]
    5280:	0000a804 	andeq	sl, r0, r4, lsl #16
    5284:	08010300 	stmdaeq	r1, {r8, r9}
    5288:	0000005e 	andeq	r0, r0, lr, asr r0
    528c:	0000a108 	andeq	sl, r0, r8, lsl #2
    5290:	05d30600 	ldrbeq	r0, [r3, #1536]	; 0x600
    5294:	21020000 	mrscs	r0, (UNDEF: 2)
    5298:	0000b90e 	andeq	fp, r0, lr, lsl #18
    529c:	8c040700 	stchi	7, cr0, [r4], {-0}
    52a0:	09000000 	stmdbeq	r0, {}	; <UNPREDICTABLE>
    52a4:	00000656 	andeq	r0, r0, r6, asr r6
    52a8:	0c070301 	stceq	3, cr0, [r7], {1}
    52ac:	58000001 	stmdapl	r0, {r0}
    52b0:	180000a0 	stmdane	r0, {r5, r7}
    52b4:	01000000 	mrseq	r0, (UNDEF: 0)
    52b8:	00010c9c 	muleq	r1, ip, ip
    52bc:	31730a00 	cmncc	r3, r0, lsl #20
    52c0:	15030100 	strne	r0, [r3, #-256]	; 0xffffff00
    52c4:	0000010c 	andeq	r0, r0, ip, lsl #2
    52c8:	730b5001 	movwvc	r5, #45057	; 0xb001
    52cc:	03010032 	movweq	r0, #4146	; 0x1032
    52d0:	00009b26 	andeq	r9, r0, r6, lsr #22
    52d4:	00340e00 	eorseq	r0, r4, r0, lsl #28
    52d8:	00340800 	eorseq	r0, r4, r0, lsl #16
    52dc:	00730c00 	rsbseq	r0, r3, r0, lsl #24
    52e0:	0c140401 	cfldrseq	mvf0, [r4], {1}
    52e4:	3b000001 	blcc	52f0 <__code_start__-0x2d10>
    52e8:	39000034 	stmdbcc	r0, {r2, r4, r5}
    52ec:	00000034 	andeq	r0, r0, r4, lsr r0
    52f0:	00a10407 	adceq	r0, r1, r7, lsl #8
    52f4:	4e000000 	cdpmi	0, 0, cr0, cr0, cr0, {0}
    52f8:	04000001 	streq	r0, [r0], #-1
    52fc:	001e2300 	andseq	r2, lr, r0, lsl #6
    5300:	b3010400 	movwlt	r0, #5120	; 0x1400
    5304:	0c000004 	stceq	0, cr0, [r0], {4}
    5308:	00000c06 	andeq	r0, r0, r6, lsl #24
    530c:	0000056b 	andeq	r0, r0, fp, ror #10
    5310:	0000a070 	andeq	sl, r0, r0, ror r0
    5314:	00000030 	andeq	r0, r0, r0, lsr r0
    5318:	000027f5 	strdeq	r2, [r0], -r5
    531c:	69050402 	stmdbvs	r5, {r1, sl}
    5320:	0300746e 	movweq	r7, #1134	; 0x46e
    5324:	0000049c 	muleq	r0, ip, r4
    5328:	3817d103 	ldmdacc	r7, {r0, r1, r8, ip, lr, pc}
    532c:	04000000 	streq	r0, [r0], #-0
    5330:	00f10704 	rscseq	r0, r1, r4, lsl #14
    5334:	01040000 	mrseq	r0, (UNDEF: 4)
    5338:	00005706 	andeq	r5, r0, r6, lsl #14
    533c:	05020400 	streq	r0, [r2, #-1024]	; 0xfffffc00
    5340:	0000020b 	andeq	r0, r0, fp, lsl #4
    5344:	15050404 	strne	r0, [r5, #-1028]	; 0xfffffbfc
    5348:	04000001 	streq	r0, [r0], #-1
    534c:	01100508 	tsteq	r0, r8, lsl #10
    5350:	01040000 	mrseq	r0, (UNDEF: 4)
    5354:	00005508 	andeq	r5, r0, r8, lsl #10
    5358:	005b0500 	subseq	r0, fp, r0, lsl #10
    535c:	02040000 	andeq	r0, r4, #0, 0
    5360:	00007007 	andeq	r7, r0, r7
    5364:	07040400 	streq	r0, [r4, -r0, lsl #8]
    5368:	000000ec 	andeq	r0, r0, ip, ror #1
    536c:	e7070804 	str	r0, [r7, -r4, lsl #16]
    5370:	06000000 	streq	r0, [r0], -r0
    5374:	00000025 	andeq	r0, r0, r5, lsr #32
    5378:	0000008b 	andeq	r0, r0, fp, lsl #1
    537c:	00002507 	andeq	r2, r0, r7, lsl #10
    5380:	31080000 	mrscc	r0, (UNDEF: 8)
    5384:	02000002 	andeq	r0, r0, #2, 0
    5388:	00970e1c 	addseq	r0, r7, ip, lsl lr
    538c:	04090000 	streq	r0, [r9], #-0
    5390:	0000007c 	andeq	r0, r0, ip, ror r0
    5394:	00002506 	andeq	r2, r0, r6, lsl #10
    5398:	0000ac00 	andeq	sl, r0, r0, lsl #24
    539c:	00ac0700 	adceq	r0, ip, r0, lsl #14
    53a0:	09000000 	stmdbeq	r0, {}	; <UNPREDICTABLE>
    53a4:	0000b904 	andeq	fp, r0, r4, lsl #18
    53a8:	08010400 	stmdaeq	r1, {sl}
    53ac:	0000005e 	andeq	r0, r0, lr, asr r0
    53b0:	0000b205 	andeq	fp, r0, r5, lsl #4
    53b4:	05d30800 	ldrbeq	r0, [r3, #2048]	; 0x800
    53b8:	21020000 	mrscs	r0, (UNDEF: 2)
    53bc:	0000ca0e 	andeq	ip, r0, lr, lsl #20
    53c0:	9d040900 	vstrls.16	s0, [r4, #-0]	; <UNPREDICTABLE>
    53c4:	0a000000 	beq	53cc <__code_start__-0x2c34>
    53c8:	0000069e 	muleq	r0, lr, r6
    53cc:	25050401 	strcs	r0, [r5, #-1025]	; 0xfffffbff
    53d0:	70000000 	andvc	r0, r0, r0
    53d4:	300000a0 	andcc	r0, r0, r0, lsr #1
    53d8:	01000000 	mrseq	r0, (UNDEF: 0)
    53dc:	00014b9c 	muleq	r1, ip, fp
    53e0:	735f0b00 	cmpvc	pc, #0, 22
    53e4:	04010031 	streq	r0, [r1], #-49	; 0xffffffcf
    53e8:	0000ac19 	andeq	sl, r0, r9, lsl ip
    53ec:	00345200 	eorseq	r5, r4, r0, lsl #4
    53f0:	00344e00 	eorseq	r4, r4, r0, lsl #28
    53f4:	735f0b00 	cmpvc	pc, #0, 22
    53f8:	04010032 	streq	r0, [r1], #-50	; 0xffffffce
    53fc:	0000ac2a 	andeq	sl, r0, sl, lsr #24
    5400:	00347700 	eorseq	r7, r4, r0, lsl #14
    5404:	00347300 	eorseq	r7, r4, r0, lsl #6
    5408:	006e0b00 	rsbeq	r0, lr, r0, lsl #22
    540c:	2c360401 	cfldrscs	mvf0, [r6], #-4
    5410:	a2000000 	andge	r0, r0, #0, 0
    5414:	98000034 	stmdals	r0, {r2, r4, r5}
    5418:	0c000034 	stceq	0, cr0, [r0], {52}	; 0x34
    541c:	01003173 	tsteq	r0, r3, ror r1
    5420:	014b1a05 	cmpeq	fp, r5, lsl #20
    5424:	34f90000 	ldrbtcc	r0, [r9], #0
    5428:	34f10000 	ldrbtcc	r0, [r1], #0
    542c:	730c0000 	movwvc	r0, #49152	; 0xc000
    5430:	05010032 	streq	r0, [r1, #-50]	; 0xffffffce
    5434:	00014b2c 	andeq	r4, r1, ip, lsr #22
    5438:	00353700 	eorseq	r3, r5, r0, lsl #14
    543c:	00353100 	eorseq	r3, r5, r0, lsl #2
    5440:	04090000 	streq	r0, [r9], #-0
    5444:	00000062 	andeq	r0, r0, r2, rrx
    5448:	0000ce00 	andeq	ip, r0, r0, lsl #28
    544c:	d7000400 	strle	r0, [r0, -r0, lsl #8]
    5450:	0400001e 	streq	r0, [r0], #-30	; 0xffffffe2
    5454:	0004b301 	andeq	fp, r4, r1, lsl #6
    5458:	0c170c00 	ldceq	12, cr0, [r7], {-0}
    545c:	056b0000 	strbeq	r0, [fp, #-0]!
    5460:	a0a00000 	adcge	r0, r0, r0
    5464:	00040000 	andeq	r0, r4, r0
    5468:	28f60000 	ldmcs	r6!, {}^	; <UNPREDICTABLE>
    546c:	04020000 	streq	r0, [r2], #-0
    5470:	746e6905 	strbtvc	r6, [lr], #-2309	; 0xfffff6fb
    5474:	07040300 	streq	r0, [r4, -r0, lsl #6]
    5478:	000000f1 	strdeq	r0, [r0], -r1
    547c:	57060103 	strpl	r0, [r6, -r3, lsl #2]
    5480:	03000000 	movweq	r0, #0
    5484:	020b0502 	andeq	r0, fp, #8388608	; 0x800000
    5488:	04030000 	streq	r0, [r3], #-0
    548c:	00011505 	andeq	r1, r1, r5, lsl #10
    5490:	05080300 	streq	r0, [r8, #-768]	; 0xfffffd00
    5494:	00000110 	andeq	r0, r0, r0, lsl r1
    5498:	55080103 	strpl	r0, [r8, #-259]	; 0xfffffefd
    549c:	03000000 	movweq	r0, #0
    54a0:	00700702 	rsbseq	r0, r0, r2, lsl #14
    54a4:	04030000 	streq	r0, [r3], #-0
    54a8:	0000ec07 	andeq	lr, r0, r7, lsl #24
    54ac:	07080300 	streq	r0, [r8, -r0, lsl #6]
    54b0:	000000e7 	andeq	r0, r0, r7, ror #1
    54b4:	00002504 	andeq	r2, r0, r4, lsl #10
    54b8:	00007a00 	andeq	r7, r0, r0, lsl #20
    54bc:	00250500 	eoreq	r0, r5, r0, lsl #10
    54c0:	06000000 	streq	r0, [r0], -r0
    54c4:	00000231 	andeq	r0, r0, r1, lsr r2
    54c8:	860e1c02 	strhi	r1, [lr], -r2, lsl #24
    54cc:	07000000 	streq	r0, [r0, -r0]
    54d0:	00006b04 	andeq	r6, r0, r4, lsl #22
    54d4:	00250400 	eoreq	r0, r5, r0, lsl #8
    54d8:	009b0000 	addseq	r0, fp, r0
    54dc:	9b050000 	blls	1454e4 <__bss_end__+0x13a744>
    54e0:	00000000 	andeq	r0, r0, r0
    54e4:	00a80407 	adceq	r0, r8, r7, lsl #8
    54e8:	01030000 	mrseq	r0, (UNDEF: 3)
    54ec:	00005e08 	andeq	r5, r0, r8, lsl #28
    54f0:	00a10800 	adceq	r0, r1, r0, lsl #16
    54f4:	d3060000 	movwle	r0, #24576	; 0x6000
    54f8:	02000005 	andeq	r0, r0, #5, 0
    54fc:	00b90e21 	adcseq	r0, r9, r1, lsr #28
    5500:	04070000 	streq	r0, [r7], #-0
    5504:	0000008c 	andeq	r0, r0, ip, lsl #1
    5508:	00074509 	andeq	r4, r7, r9, lsl #10
    550c:	06030100 	streq	r0, [r3], -r0, lsl #2
    5510:	0000a0a0 	andeq	sl, r0, r0, lsr #1
    5514:	00000004 	andeq	r0, r0, r4
    5518:	Address 0x0000000000005518 is out of bounds.


Disassembly of section .debug_abbrev:

00000000 <.debug_abbrev>:
       0:	25011101 	strcs	r1, [r1, #-257]	; 0xfffffeff
       4:	030b130e 	movweq	r1, #45838	; 0xb30e
       8:	110e1b0e 	tstne	lr, lr, lsl #22
       c:	10061201 	andne	r1, r6, r1, lsl #4
      10:	02000017 	andeq	r0, r0, #23, 0
      14:	0b0b0024 	bleq	2c00ac <__bss_end__+0x2b530c>
      18:	08030b3e 	stmdaeq	r3, {r1, r2, r3, r4, r5, r8, r9, fp}
      1c:	24030000 	strcs	r0, [r3], #-0
      20:	3e0b0b00 	vmlacc.f64	d0, d11, d0
      24:	000e030b 	andeq	r0, lr, fp, lsl #6
      28:	00160400 	andseq	r0, r6, r0, lsl #8
      2c:	0b3a0e03 	bleq	e83840 <__bss_end__+0xe78aa0>
      30:	0b390b3b 	bleq	e42d24 <__bss_end__+0xe37f84>
      34:	00001349 	andeq	r1, r0, r9, asr #6
      38:	27011505 	strcs	r1, [r1, -r5, lsl #10]
      3c:	01134919 	tsteq	r3, r9, lsl r9
      40:	06000013 			; <UNDEFINED> instruction: 0x06000013
      44:	13490005 	movtne	r0, #36869	; 0x9005
      48:	34070000 	strcc	r0, [r7], #-0
      4c:	3a0e0300 	bcc	380c54 <__bss_end__+0x375eb4>
      50:	390b3b0b 	stmdbcc	fp, {r0, r1, r3, r8, r9, fp, ip, sp}
      54:	3f13490b 	svccc	0x0013490b
      58:	00193c19 	andseq	r3, r9, r9, lsl ip
      5c:	000f0800 	andeq	r0, pc, r0, lsl #16
      60:	13490b0b 	movtne	r0, #39691	; 0x9b0b
      64:	26090000 	strcs	r0, [r9], -r0
      68:	00134900 	andseq	r4, r3, r0, lsl #18
      6c:	01130a00 	tsteq	r3, r0, lsl #20
      70:	0b3a0b0b 	bleq	e82ca4 <__bss_end__+0xe77f04>
      74:	0b390b3b 	bleq	e42d68 <__bss_end__+0xe37fc8>
      78:	00001301 	andeq	r1, r0, r1, lsl #6
      7c:	03000d0b 	movweq	r0, #3339	; 0xd0b
      80:	3b0b3a0e 	blcc	2ce8c0 <__bss_end__+0x2c3b20>
      84:	490b390b 	stmdbmi	fp, {r0, r1, r3, r8, fp, ip, sp}
      88:	000b3813 	andeq	r3, fp, r3, lsl r8
      8c:	01130c00 	tsteq	r3, r0, lsl #24
      90:	0b0b0e03 	bleq	2c38a4 <__bss_end__+0x2b8b04>
      94:	0b3b0b3a 	bleq	ec2d84 <__bss_end__+0xeb7fe4>
      98:	13010b39 	movwne	r0, #6969	; 0x1b39
      9c:	0d0d0000 	stceq	0, cr0, [sp, #-0]
      a0:	3a080300 	bcc	200ca8 <__bss_end__+0x1f5f08>
      a4:	390b3b0b 	stmdbcc	fp, {r0, r1, r3, r8, r9, fp, ip, sp}
      a8:	3813490b 	ldmdacc	r3, {r0, r1, r3, r8, fp, lr}
      ac:	0e00000b 	cdpeq	0, 0, cr0, cr0, cr11, {0}
      b0:	13490101 	movtne	r0, #37121	; 0x9101
      b4:	00001301 	andeq	r1, r0, r1, lsl #6
      b8:	4900210f 	stmdbmi	r0, {r0, r1, r2, r3, r8, sp}
      bc:	000b2f13 	andeq	r2, fp, r3, lsl pc
      c0:	000f1000 	andeq	r1, pc, r0
      c4:	00000b0b 	andeq	r0, r0, fp, lsl #22
      c8:	3f012e11 	svccc	0x00012e11
      cc:	3a0e0319 	bcc	380d38 <__bss_end__+0x375f98>
      d0:	390b3b0b 	stmdbcc	fp, {r0, r1, r3, r8, r9, fp, ip, sp}
      d4:	1119270b 	tstne	r9, fp, lsl #14
      d8:	40061201 	andmi	r1, r6, r1, lsl #4
      dc:	19429718 	stmdbne	r2, {r3, r4, r8, r9, sl, ip, pc}^
      e0:	00001301 	andeq	r1, r0, r1, lsl #6
      e4:	03003412 	movweq	r3, #1042	; 0x412
      e8:	3413490e 	ldrcc	r4, [r3], #-2318	; 0xfffff6f2
      ec:	00180219 	andseq	r0, r8, r9, lsl r2
      f0:	82891300 	addhi	r1, r9, #0, 6
      f4:	01110101 	tsteq	r1, r1, lsl #2
      f8:	13011331 	movwne	r1, #4913	; 0x1331
      fc:	8a140000 	bhi	500104 <__bss_end__+0x4f5364>
     100:	02000182 	andeq	r0, r0, #-2147483616	; 0x80000020
     104:	18429118 	stmdane	r2, {r3, r4, r8, ip, pc}^
     108:	89150000 	ldmdbhi	r5, {}	; <UNPREDICTABLE>
     10c:	11000182 	smlabbne	r0, r2, r1, r0
     110:	00133101 	andseq	r3, r3, r1, lsl #2
     114:	00341600 	eorseq	r1, r4, r0, lsl #12
     118:	0b3a0803 	bleq	e8212c <__bss_end__+0xe7738c>
     11c:	0b390b3b 	bleq	e42e10 <__bss_end__+0xe38070>
     120:	17021349 	strne	r1, [r2, -r9, asr #6]
     124:	001742b7 			; <UNDEFINED> instruction: 0x001742b7
     128:	011d1700 	tsteq	sp, r0, lsl #14
     12c:	01521331 	cmpeq	r2, r1, lsr r3
     130:	110b42b8 			; <UNDEFINED> instruction: 0x110b42b8
     134:	58061201 	stmdapl	r6, {r0, r9, ip}
     138:	570b590b 	strpl	r5, [fp, -fp, lsl #18]
     13c:	0013010b 	andseq	r0, r3, fp, lsl #2
     140:	00051800 	andeq	r1, r5, r0, lsl #16
     144:	17021331 	smladxne	r2, r1, r3, r1
     148:	001742b7 			; <UNDEFINED> instruction: 0x001742b7
     14c:	00341900 	eorseq	r1, r4, r0, lsl #18
     150:	17021331 	smladxne	r2, r1, r3, r1
     154:	001742b7 			; <UNDEFINED> instruction: 0x001742b7
     158:	82891a00 	addhi	r1, r9, #0, 20
     15c:	01110101 	tsteq	r1, r1, lsl #2
     160:	00001331 	andeq	r1, r0, r1, lsr r3
     164:	03012e1b 	movweq	r2, #7707	; 0x1e1b
     168:	3b0b3a0e 	blcc	2ce9a8 <__bss_end__+0x2c3c08>
     16c:	270b390b 	strcs	r3, [fp, -fp, lsl #18]
     170:	20134919 	andscs	r4, r3, r9, lsl r9
     174:	0013010b 	andseq	r0, r3, fp, lsl #2
     178:	00051c00 	andeq	r1, r5, r0, lsl #24
     17c:	0b3a0803 	bleq	e82190 <__bss_end__+0xe773f0>
     180:	0b390b3b 	bleq	e42e74 <__bss_end__+0xe380d4>
     184:	00001349 	andeq	r1, r0, r9, asr #6
     188:	0300341d 	movweq	r3, #1053	; 0x41d
     18c:	3b0b3a08 	blcc	2ce9b4 <__bss_end__+0x2c3c14>
     190:	490b390b 	stmdbmi	fp, {r0, r1, r3, r8, fp, ip, sp}
     194:	1e000013 	mcrne	0, 0, r0, cr0, cr3, {0}
     198:	0e030005 	cdpeq	0, 0, cr0, cr3, cr5, {0}
     19c:	0b3b0b3a 	bleq	ec2e8c <__bss_end__+0xeb80ec>
     1a0:	13490b39 	movtne	r0, #39737	; 0x9b39
     1a4:	2e1f0000 	cdpcs	0, 1, cr0, cr15, cr0, {0}
     1a8:	3c193f00 	ldccc	15, cr3, [r9], {-0}
     1ac:	030e6e19 	movweq	r6, #60953	; 0xee19
     1b0:	3b0b3a0e 	blcc	2ce9f0 <__bss_end__+0x2c3c50>
     1b4:	000b390b 	andeq	r3, fp, fp, lsl #18
     1b8:	00362000 	eorseq	r2, r6, r0
     1bc:	00001802 	andeq	r1, r0, r2, lsl #16
     1c0:	01110100 	tsteq	r1, r0, lsl #2
     1c4:	0b130e25 	bleq	4c3a60 <__bss_end__+0x4b8cc0>
     1c8:	0e1b0e03 	cdpeq	14, 1, cr0, cr11, cr3, {0}
     1cc:	06120111 			; <UNDEFINED> instruction: 0x06120111
     1d0:	00001710 	andeq	r1, r0, r0, lsl r7
     1d4:	0b002402 	bleq	91e4 <va_printk+0x26c>
     1d8:	030b3e0b 	movweq	r3, #48651	; 0xbe0b
     1dc:	03000008 	movweq	r0, #8
     1e0:	0b0b0024 	bleq	2c0278 <__bss_end__+0x2b54d8>
     1e4:	0e030b3e 	vmoveq.16	d3[0], r0
     1e8:	16040000 	strne	r0, [r4], -r0
     1ec:	3a0e0300 	bcc	380df4 <__bss_end__+0x376054>
     1f0:	390b3b0b 	stmdbcc	fp, {r0, r1, r3, r8, r9, fp, ip, sp}
     1f4:	0013490b 	andseq	r4, r3, fp, lsl #18
     1f8:	01150500 	tsteq	r5, r0, lsl #10
     1fc:	13491927 	movtne	r1, #39207	; 0x9927
     200:	00001301 	andeq	r1, r0, r1, lsl #6
     204:	49000506 	stmdbmi	r0, {r1, r2, r8, sl}
     208:	07000013 	smladeq	r0, r3, r0, r0
     20c:	0e030034 	mcreq	0, 0, r0, cr3, cr4, {1}
     210:	0b3b0b3a 	bleq	ec2f00 <__bss_end__+0xeb8160>
     214:	13490b39 	movtne	r0, #39737	; 0x9b39
     218:	193c193f 	ldmdbne	ip!, {r0, r1, r2, r3, r4, r5, r8, fp, ip}
     21c:	0f080000 	svceq	0x00080000
     220:	490b0b00 	stmdbmi	fp, {r8, r9, fp}
     224:	09000013 	stmdbeq	r0, {r0, r1, r4}
     228:	13490026 	movtne	r0, #36902	; 0x9026
     22c:	130a0000 	movwne	r0, #40960	; 0xa000
     230:	3a0b0b01 	bcc	2c2e3c <__bss_end__+0x2b809c>
     234:	390b3b0b 	stmdbcc	fp, {r0, r1, r3, r8, r9, fp, ip, sp}
     238:	0013010b 	andseq	r0, r3, fp, lsl #2
     23c:	000d0b00 	andeq	r0, sp, r0, lsl #22
     240:	0b3a0e03 	bleq	e83a54 <__bss_end__+0xe78cb4>
     244:	0b390b3b 	bleq	e42f38 <__bss_end__+0xe38198>
     248:	0b381349 	bleq	e04f74 <__bss_end__+0xdfa1d4>
     24c:	040c0000 	streq	r0, [ip], #-0
     250:	0b0b3e01 	bleq	2cfa5c <__bss_end__+0x2c4cbc>
     254:	3a13490b 	bcc	4d2688 <__bss_end__+0x4c78e8>
     258:	390b3b0b 	stmdbcc	fp, {r0, r1, r3, r8, r9, fp, ip, sp}
     25c:	0013010b 	andseq	r0, r3, fp, lsl #2
     260:	00280d00 	eoreq	r0, r8, r0, lsl #26
     264:	0b1c0e03 	bleq	703a78 <__bss_end__+0x6f8cd8>
     268:	130e0000 	movwne	r0, #57344	; 0xe000
     26c:	0b0e0301 	bleq	380e78 <__bss_end__+0x3760d8>
     270:	3b0b3a0b 	blcc	2ceaa4 <__bss_end__+0x2c3d04>
     274:	010b390b 	tsteq	fp, fp, lsl #18
     278:	0f000013 	svceq	0x00000013
     27c:	0803000d 	stmdaeq	r3, {r0, r2, r3}
     280:	0b3b0b3a 	bleq	ec2f70 <__bss_end__+0xeb81d0>
     284:	13490b39 	movtne	r0, #39737	; 0x9b39
     288:	00000b38 	andeq	r0, r0, r8, lsr fp
     28c:	49010110 	stmdbmi	r1, {r4, r8}
     290:	00130113 	andseq	r0, r3, r3, lsl r1
     294:	00211100 	eoreq	r1, r1, r0, lsl #2
     298:	0b2f1349 	bleq	bc4fc4 <__bss_end__+0xbba224>
     29c:	0f120000 	svceq	0x00120000
     2a0:	000b0b00 	andeq	r0, fp, r0, lsl #22
     2a4:	00341300 	eorseq	r1, r4, r0, lsl #6
     2a8:	0b3a0e03 	bleq	e83abc <__bss_end__+0xe78d1c>
     2ac:	0b390b3b 	bleq	e42fa0 <__bss_end__+0xe38200>
     2b0:	18021349 	stmdane	r2, {r0, r3, r6, r8, r9, ip}
     2b4:	2e140000 	cdpcs	0, 1, cr0, cr4, cr0, {0}
     2b8:	03193f01 	tsteq	r9, #1, 30
     2bc:	3b0b3a0e 	blcc	2ceafc <__bss_end__+0x2c3d5c>
     2c0:	270b390b 	strcs	r3, [fp, -fp, lsl #18]
     2c4:	11134919 	tstne	r3, r9, lsl r9
     2c8:	40061201 	andmi	r1, r6, r1, lsl #4
     2cc:	19429718 	stmdbne	r2, {r3, r4, r8, r9, sl, ip, pc}^
     2d0:	00001301 	andeq	r1, r0, r1, lsl #6
     2d4:	03000515 	movweq	r0, #1301	; 0x515
     2d8:	3b0b3a0e 	blcc	2ceb18 <__bss_end__+0x2c3d78>
     2dc:	490b390b 	stmdbmi	fp, {r0, r1, r3, r8, fp, ip, sp}
     2e0:	b7170213 			; <UNDEFINED> instruction: 0xb7170213
     2e4:	00001742 	andeq	r1, r0, r2, asr #14
     2e8:	03000516 	movweq	r0, #1302	; 0x516
     2ec:	3b0b3a08 	blcc	2ceb14 <__bss_end__+0x2c3d74>
     2f0:	490b390b 	stmdbmi	fp, {r0, r1, r3, r8, fp, ip, sp}
     2f4:	00180213 	andseq	r0, r8, r3, lsl r2
     2f8:	00341700 	eorseq	r1, r4, r0, lsl #14
     2fc:	0b3a0803 	bleq	e82310 <__bss_end__+0xe77570>
     300:	0b390b3b 	bleq	e42ff4 <__bss_end__+0xe38254>
     304:	17021349 	strne	r1, [r2, -r9, asr #6]
     308:	001742b7 			; <UNDEFINED> instruction: 0x001742b7
     30c:	82891800 	addhi	r1, r9, #0, 16
     310:	01110101 	tsteq	r1, r1, lsl #2
     314:	13011331 	movwne	r1, #4913	; 0x1331
     318:	8a190000 	bhi	640320 <__bss_end__+0x635580>
     31c:	02000182 	andeq	r0, r0, #-2147483616	; 0x80000020
     320:	18429118 	stmdane	r2, {r3, r4, r8, ip, pc}^
     324:	891a0000 	ldmdbhi	sl, {}	; <UNPREDICTABLE>
     328:	11010182 	smlabbne	r1, r2, r1, r0
     32c:	00133101 	andseq	r3, r3, r1, lsl #2
     330:	012e1b00 			; <UNDEFINED> instruction: 0x012e1b00
     334:	0e03193f 			; <UNDEFINED> instruction: 0x0e03193f
     338:	0b3b0b3a 	bleq	ec3028 <__bss_end__+0xeb8288>
     33c:	19270b39 	stmdbne	r7!, {r0, r3, r4, r5, r8, r9, fp}
     340:	06120111 			; <UNDEFINED> instruction: 0x06120111
     344:	42971840 	addsmi	r1, r7, #64, 16	; 0x400000
     348:	00130119 	andseq	r0, r3, r9, lsl r1
     34c:	00051c00 	andeq	r1, r5, r0, lsl #24
     350:	0b3a0803 	bleq	e82364 <__bss_end__+0xe775c4>
     354:	0b390b3b 	bleq	e43048 <__bss_end__+0xe382a8>
     358:	17021349 	strne	r1, [r2, -r9, asr #6]
     35c:	001742b7 			; <UNDEFINED> instruction: 0x001742b7
     360:	00341d00 	eorseq	r1, r4, r0, lsl #26
     364:	13490e03 	movtne	r0, #40451	; 0x9e03
     368:	18021934 	stmdane	r2, {r2, r4, r5, r8, fp, ip}
     36c:	1d1e0000 	ldcne	0, cr0, [lr, #-0]
     370:	52133101 	andspl	r3, r3, #1073741824	; 0x40000000
     374:	0b42b801 	bleq	10ae380 <__bss_end__+0x10a35e0>
     378:	0b581755 	bleq	16060d4 <__bss_end__+0x15fb334>
     37c:	0b570b59 	bleq	15c30e8 <__bss_end__+0x15b8348>
     380:	00001301 	andeq	r1, r0, r1, lsl #6
     384:	3100051f 	tstcc	r0, pc, lsl r5
     388:	b7170213 			; <UNDEFINED> instruction: 0xb7170213
     38c:	00001742 	andeq	r1, r0, r2, asr #14
     390:	55010b20 	strpl	r0, [r1, #-2848]	; 0xfffff4e0
     394:	21000017 	tstcs	r0, r7, lsl r0
     398:	13310034 	teqne	r1, #52, 0	; 0x34
     39c:	42b71702 	adcsmi	r1, r7, #524288	; 0x80000
     3a0:	22000017 	andcs	r0, r0, #23, 0
     3a4:	00018289 	andeq	r8, r1, r9, lsl #5
     3a8:	13310111 	teqne	r1, #1073741828	; 0x40000004
     3ac:	2e230000 	cdpcs	0, 2, cr0, cr3, cr0, {0}
     3b0:	3a0e0301 	bcc	380fbc <__bss_end__+0x37621c>
     3b4:	390b3b0b 	stmdbcc	fp, {r0, r1, r3, r8, r9, fp, ip, sp}
     3b8:	2019270b 	andscs	r2, r9, fp, lsl #14
     3bc:	0013010b 	andseq	r0, r3, fp, lsl #2
     3c0:	00052400 	andeq	r2, r5, r0, lsl #8
     3c4:	0b3a0803 	bleq	e823d8 <__bss_end__+0xe77638>
     3c8:	0b390b3b 	bleq	e430bc <__bss_end__+0xe3831c>
     3cc:	00001349 	andeq	r1, r0, r9, asr #6
     3d0:	03003425 	movweq	r3, #1061	; 0x425
     3d4:	3b0b3a0e 	blcc	2cec14 <__bss_end__+0x2c3e74>
     3d8:	490b390b 	stmdbmi	fp, {r0, r1, r3, r8, fp, ip, sp}
     3dc:	26000013 			; <UNDEFINED> instruction: 0x26000013
     3e0:	08030034 	stmdaeq	r3, {r2, r4, r5}
     3e4:	0b3b0b3a 	bleq	ec30d4 <__bss_end__+0xeb8334>
     3e8:	13490b39 	movtne	r0, #39737	; 0x9b39
     3ec:	0b270000 	bleq	9c03f4 <__bss_end__+0x9b5654>
     3f0:	12011101 	andne	r1, r1, #1073741824	; 0x40000000
     3f4:	28000006 	stmdacs	r0, {r1, r2}
     3f8:	1331001d 	teqne	r1, #29, 0
     3fc:	42b80152 	adcsmi	r0, r8, #-2147483628	; 0x80000014
     400:	1201110b 	andne	r1, r1, #-1073741822	; 0xc0000002
     404:	590b5806 	stmdbpl	fp, {r1, r2, fp, ip, lr}
     408:	000b570b 	andeq	r5, fp, fp, lsl #14
     40c:	011d2900 	tsteq	sp, r0, lsl #18
     410:	01521331 	cmpeq	r2, r1, lsr r3
     414:	110b42b8 			; <UNDEFINED> instruction: 0x110b42b8
     418:	58061201 	stmdapl	r6, {r0, r9, ip}
     41c:	570b590b 	strpl	r5, [fp, -fp, lsl #18]
     420:	0013010b 	andseq	r0, r3, fp, lsl #2
     424:	011d2a00 	tsteq	sp, r0, lsl #20
     428:	01521331 	cmpeq	r2, r1, lsr r3
     42c:	550b42b8 	strpl	r4, [fp, #-696]	; 0xfffffd48
     430:	590b5817 	stmdbpl	fp, {r0, r1, r2, r4, fp, ip, lr}
     434:	000b570b 	andeq	r5, fp, fp, lsl #14
     438:	011d2b00 	tsteq	sp, r0, lsl #22
     43c:	01521331 	cmpeq	r2, r1, lsr r3
     440:	110b42b8 			; <UNDEFINED> instruction: 0x110b42b8
     444:	58061201 	stmdapl	r6, {r0, r9, ip}
     448:	570b590b 	strpl	r5, [fp, -fp, lsl #18]
     44c:	2c00000b 	stccs	0, cr0, [r0], {11}
     450:	193f012e 	ldmdbne	pc!, {r1, r2, r3, r5, r8}	; <UNPREDICTABLE>
     454:	0b3a0e03 	bleq	e83c68 <__bss_end__+0xe78ec8>
     458:	0b390b3b 	bleq	e4314c <__bss_end__+0xe383ac>
     45c:	13491927 	movtne	r1, #39207	; 0x9927
     460:	13010b20 	movwne	r0, #6944	; 0x1b20
     464:	2e2d0000 	cdpcs	0, 2, cr0, cr13, cr0, {0}
     468:	03193f00 	tsteq	r9, #0, 30
     46c:	3b0b3a0e 	blcc	2cecac <__bss_end__+0x2c3f0c>
     470:	270b390b 	strcs	r3, [fp, -fp, lsl #18]
     474:	20134919 	andscs	r4, r3, r9, lsl r9
     478:	2e00000b 	cdpcs	0, 0, cr0, cr0, cr11, {0}
     47c:	0e03012e 	adfeqsp	f0, f3, #0.5
     480:	0b3b0b3a 	bleq	ec3170 <__bss_end__+0xeb83d0>
     484:	19270b39 	stmdbne	r7!, {r0, r3, r4, r5, r8, r9, fp}
     488:	0b201349 	bleq	8051b4 <__bss_end__+0x7fa414>
     48c:	00001301 	andeq	r1, r0, r1, lsl #6
     490:	31002e2f 	tstcc	r0, pc, lsr #28
     494:	12011113 	andne	r1, r1, #-1073741820	; 0xc0000004
     498:	97184006 	ldrls	r4, [r8, -r6]
     49c:	00001942 	andeq	r1, r0, r2, asr #18
     4a0:	31012e30 	tstcc	r1, r0, lsr lr
     4a4:	12011113 	andne	r1, r1, #-1073741820	; 0xc0000004
     4a8:	97184006 	ldrls	r4, [r8, -r6]
     4ac:	13011942 	movwne	r1, #6466	; 0x1942
     4b0:	2e310000 	cdpcs	0, 3, cr0, cr1, cr0, {0}
     4b4:	3c193f00 	ldccc	15, cr3, [r9], {-0}
     4b8:	030e6e19 	movweq	r6, #60953	; 0xee19
     4bc:	3b0b3a0e 	blcc	2cecfc <__bss_end__+0x2c3f5c>
     4c0:	000b390b 	andeq	r3, fp, fp, lsl #18
     4c4:	11010000 	mrsne	r0, (UNDEF: 1)
     4c8:	130e2501 	movwne	r2, #58625	; 0xe501
     4cc:	1b0e030b 	blne	381100 <__bss_end__+0x376360>
     4d0:	1201110e 	andne	r1, r1, #-2147483645	; 0x80000003
     4d4:	00171006 	andseq	r1, r7, r6
     4d8:	00240200 	eoreq	r0, r4, r0, lsl #4
     4dc:	0b3e0b0b 	bleq	f83110 <__bss_end__+0xf78370>
     4e0:	00000803 	andeq	r0, r0, r3, lsl #16
     4e4:	0b002403 	bleq	94f8 <va_printk+0x580>
     4e8:	030b3e0b 	movweq	r3, #48651	; 0xbe0b
     4ec:	0400000e 	streq	r0, [r0], #-14
     4f0:	19270115 	stmdbne	r7!, {r0, r2, r4, r8}
     4f4:	13011349 	movwne	r1, #4937	; 0x1349
     4f8:	05050000 	streq	r0, [r5, #-0]
     4fc:	00134900 	andseq	r4, r3, r0, lsl #18
     500:	00340600 	eorseq	r0, r4, r0, lsl #12
     504:	0b3a0e03 	bleq	e83d18 <__bss_end__+0xe78f78>
     508:	0b390b3b 	bleq	e431fc <__bss_end__+0xe3845c>
     50c:	193f1349 	ldmdbne	pc!, {r0, r3, r6, r8, r9, ip}	; <UNPREDICTABLE>
     510:	0000193c 	andeq	r1, r0, ip, lsr r9
     514:	0b000f07 	bleq	4138 <__code_start__-0x3ec8>
     518:	0013490b 	andseq	r4, r3, fp, lsl #18
     51c:	00260800 	eoreq	r0, r6, r0, lsl #16
     520:	00001349 	andeq	r1, r0, r9, asr #6
     524:	03011709 	movweq	r1, #5897	; 0x1709
     528:	3a0b0b0e 	bcc	2c3168 <__bss_end__+0x2b83c8>
     52c:	390b3b0b 	stmdbcc	fp, {r0, r1, r3, r8, r9, fp, ip, sp}
     530:	0013010b 	andseq	r0, r3, fp, lsl #2
     534:	000d0a00 	andeq	r0, sp, r0, lsl #20
     538:	0b3a0803 	bleq	e8254c <__bss_end__+0xe777ac>
     53c:	0b390b3b 	bleq	e43230 <__bss_end__+0xe38490>
     540:	00001349 	andeq	r1, r0, r9, asr #6
     544:	0b000f0b 	bleq	4178 <__code_start__-0x3e88>
     548:	0c00000b 	stceq	0, cr0, [r0], {11}
     54c:	19270015 	stmdbne	r7!, {r0, r2, r4}
     550:	130d0000 	movwne	r0, #53248	; 0xd000
     554:	3a0b0b01 	bcc	2c3160 <__bss_end__+0x2b83c0>
     558:	390b3b0b 	stmdbcc	fp, {r0, r1, r3, r8, r9, fp, ip, sp}
     55c:	0013010b 	andseq	r0, r3, fp, lsl #2
     560:	000d0e00 	andeq	r0, sp, r0, lsl #28
     564:	0b3a0803 	bleq	e82578 <__bss_end__+0xe777d8>
     568:	0b390b3b 	bleq	e4325c <__bss_end__+0xe384bc>
     56c:	0b381349 	bleq	e05298 <__bss_end__+0xdfa4f8>
     570:	0d0f0000 	stceq	0, cr0, [pc, #-0]	; 578 <__code_start__-0x7a88>
     574:	3a0e0300 	bcc	38117c <__bss_end__+0x3763dc>
     578:	390b3b0b 	stmdbcc	fp, {r0, r1, r3, r8, r9, fp, ip, sp}
     57c:	3813490b 	ldmdacc	r3, {r0, r1, r3, r8, fp, lr}
     580:	1000000b 	andne	r0, r0, fp
     584:	0e030016 	mcreq	0, 0, r0, cr3, cr6, {0}
     588:	0b3b0b3a 	bleq	ec3278 <__bss_end__+0xeb84d8>
     58c:	13490b39 	movtne	r0, #39737	; 0x9b39
     590:	34110000 	ldrcc	r0, [r1], #-0
     594:	3a0e0300 	bcc	38119c <__bss_end__+0x3763fc>
     598:	390b3b0b 	stmdbcc	fp, {r0, r1, r3, r8, r9, fp, ip, sp}
     59c:	0213490b 	andseq	r4, r3, #180224	; 0x2c000
     5a0:	12000018 	andne	r0, r0, #24, 0
     5a4:	193f012e 	ldmdbne	pc!, {r1, r2, r3, r5, r8}	; <UNPREDICTABLE>
     5a8:	0b3a0e03 	bleq	e83dbc <__bss_end__+0xe7901c>
     5ac:	0b390b3b 	bleq	e432a0 <__bss_end__+0xe38500>
     5b0:	01111927 	tsteq	r1, r7, lsr #18
     5b4:	18400612 	stmdane	r0, {r1, r4, r9, sl}^
     5b8:	01194297 			; <UNDEFINED> instruction: 0x01194297
     5bc:	13000013 	movwne	r0, #19
     5c0:	08030005 	stmdaeq	r3, {r0, r2}
     5c4:	0b3b0b3a 	bleq	ec32b4 <__bss_end__+0xeb8514>
     5c8:	13490b39 	movtne	r0, #39737	; 0x9b39
     5cc:	00001802 	andeq	r1, r0, r2, lsl #16
     5d0:	03003414 	movweq	r3, #1044	; 0x414
     5d4:	3b0b3a08 	blcc	2cedfc <__bss_end__+0x2c405c>
     5d8:	490b390b 	stmdbmi	fp, {r0, r1, r3, r8, fp, ip, sp}
     5dc:	b7170213 			; <UNDEFINED> instruction: 0xb7170213
     5e0:	00001742 	andeq	r1, r0, r2, asr #14
     5e4:	3f012e15 	svccc	0x00012e15
     5e8:	3a0e0319 	bcc	381254 <__bss_end__+0x3764b4>
     5ec:	390b3b0b 	stmdbcc	fp, {r0, r1, r3, r8, r9, fp, ip, sp}
     5f0:	4919270b 	ldmdbmi	r9, {r0, r1, r3, r8, r9, sl, sp}
     5f4:	12011113 	andne	r1, r1, #-1073741820	; 0xc0000004
     5f8:	97184006 	ldrls	r4, [r8, -r6]
     5fc:	13011942 	movwne	r1, #6466	; 0x1942
     600:	05160000 	ldreq	r0, [r6, #-0]
     604:	3a0e0300 	bcc	38120c <__bss_end__+0x37646c>
     608:	390b3b0b 	stmdbcc	fp, {r0, r1, r3, r8, r9, fp, ip, sp}
     60c:	0213490b 	andseq	r4, r3, #180224	; 0x2c000
     610:	1742b717 	smlaldne	fp, r2, r7, r7
     614:	34170000 	ldrcc	r0, [r7], #-0
     618:	3a0e0300 	bcc	381220 <__bss_end__+0x376480>
     61c:	390b3b0b 	stmdbcc	fp, {r0, r1, r3, r8, r9, fp, ip, sp}
     620:	0213490b 	andseq	r4, r3, #180224	; 0x2c000
     624:	1742b717 	smlaldne	fp, r2, r7, r7
     628:	1d180000 	ldcne	0, cr0, [r8, #-0]
     62c:	52133101 	andspl	r3, r3, #1073741824	; 0x40000000
     630:	0b42b801 	bleq	10ae63c <__bss_end__+0x10a389c>
     634:	0b581755 	bleq	1606390 <__bss_end__+0x15fb5f0>
     638:	0b570b59 	bleq	15c33a4 <__bss_end__+0x15b8604>
     63c:	05190000 	ldreq	r0, [r9, #-0]
     640:	02133100 	andseq	r3, r3, #0
     644:	1742b717 	smlaldne	fp, r2, r7, r7
     648:	0b1a0000 	bleq	680650 <__bss_end__+0x6758b0>
     64c:	00175501 	andseq	r5, r7, r1, lsl #10
     650:	00341b00 	eorseq	r1, r4, r0, lsl #22
     654:	17021331 	smladxne	r2, r1, r3, r1
     658:	001742b7 			; <UNDEFINED> instruction: 0x001742b7
     65c:	82891c00 	addhi	r1, r9, #0, 24
     660:	01110001 	tsteq	r1, r1
     664:	00001331 	andeq	r1, r0, r1, lsr r3
     668:	0182891d 	orreq	r8, r2, sp, lsl r9
     66c:	31011101 	tstcc	r1, r1, lsl #2
     670:	00130113 	andseq	r0, r3, r3, lsl r1
     674:	828a1e00 	addhi	r1, sl, #0, 28
     678:	18020001 	stmdane	r2, {r0}
     67c:	00184291 	mulseq	r8, r1, r2
     680:	82891f00 	addhi	r1, r9, #0, 30
     684:	01110101 	tsteq	r1, r1, lsl #2
     688:	00001331 	andeq	r1, r0, r1, lsr r3
     68c:	03012e20 	movweq	r2, #7712	; 0x1e20
     690:	3b0b3a0e 	blcc	2ceed0 <__bss_end__+0x2c4130>
     694:	270b390b 	strcs	r3, [fp, -fp, lsl #18]
     698:	20134919 	andscs	r4, r3, r9, lsl r9
     69c:	0013010b 	andseq	r0, r3, fp, lsl #2
     6a0:	00052100 	andeq	r2, r5, r0, lsl #2
     6a4:	0b3a0803 	bleq	e826b8 <__bss_end__+0xe77918>
     6a8:	0b390b3b 	bleq	e4339c <__bss_end__+0xe385fc>
     6ac:	00001349 	andeq	r1, r0, r9, asr #6
     6b0:	03003422 	movweq	r3, #1058	; 0x422
     6b4:	3b0b3a08 	blcc	2ceedc <__bss_end__+0x2c413c>
     6b8:	490b390b 	stmdbmi	fp, {r0, r1, r3, r8, fp, ip, sp}
     6bc:	23000013 	movwcs	r0, #19
     6c0:	193f002e 	ldmdbne	pc!, {r1, r2, r3, r5}	; <UNPREDICTABLE>
     6c4:	0e6e193c 			; <UNDEFINED> instruction: 0x0e6e193c
     6c8:	0b3a0e03 	bleq	e83edc <__bss_end__+0xe7913c>
     6cc:	0b390b3b 	bleq	e433c0 <__bss_end__+0xe38620>
     6d0:	01000000 	mrseq	r0, (UNDEF: 0)
     6d4:	0e250111 	mcreq	1, 1, r0, cr5, cr1, {0}
     6d8:	0e030b13 	vmoveq.32	d3[0], r0
     6dc:	01110e1b 	tsteq	r1, fp, lsl lr
     6e0:	17100612 			; <UNDEFINED> instruction: 0x17100612
     6e4:	24020000 	strcs	r0, [r2], #-0
     6e8:	3e0b0b00 	vmlacc.f64	d0, d11, d0
     6ec:	0008030b 	andeq	r0, r8, fp, lsl #6
     6f0:	00240300 	eoreq	r0, r4, r0, lsl #6
     6f4:	0b3e0b0b 	bleq	f83328 <__bss_end__+0xf78588>
     6f8:	00000e03 	andeq	r0, r0, r3, lsl #28
     6fc:	03001604 	movweq	r1, #1540	; 0x604
     700:	3b0b3a0e 	blcc	2cef40 <__bss_end__+0x2c41a0>
     704:	490b390b 	stmdbmi	fp, {r0, r1, r3, r8, fp, ip, sp}
     708:	05000013 	streq	r0, [r0, #-19]	; 0xffffffed
     70c:	19270115 	stmdbne	r7!, {r0, r2, r4, r8}
     710:	13011349 	movwne	r1, #4937	; 0x1349
     714:	05060000 	streq	r0, [r6, #-0]
     718:	00134900 	andseq	r4, r3, r0, lsl #18
     71c:	00340700 	eorseq	r0, r4, r0, lsl #14
     720:	0b3a0e03 	bleq	e83f34 <__bss_end__+0xe79194>
     724:	0b390b3b 	bleq	e43418 <__bss_end__+0xe38678>
     728:	193f1349 	ldmdbne	pc!, {r0, r3, r6, r8, r9, ip}	; <UNPREDICTABLE>
     72c:	0000193c 	andeq	r1, r0, ip, lsr r9
     730:	0b000f08 	bleq	4358 <__code_start__-0x3ca8>
     734:	0013490b 	andseq	r4, r3, fp, lsl #18
     738:	00260900 	eoreq	r0, r6, r0, lsl #18
     73c:	00001349 	andeq	r1, r0, r9, asr #6
     740:	0b01130a 	bleq	45370 <__bss_end__+0x3a5d0>
     744:	3b0b3a0b 	blcc	2cef78 <__bss_end__+0x2c41d8>
     748:	010b390b 	tsteq	fp, fp, lsl #18
     74c:	0b000013 	bleq	7a0 <__code_start__-0x7860>
     750:	0e03000d 	cdpeq	0, 0, cr0, cr3, cr13, {0}
     754:	0b3b0b3a 	bleq	ec3444 <__bss_end__+0xeb86a4>
     758:	13490b39 	movtne	r0, #39737	; 0x9b39
     75c:	00000b38 	andeq	r0, r0, r8, lsr fp
     760:	3e01040c 	cdpcc	4, 0, cr0, cr1, cr12, {0}
     764:	490b0b0b 	stmdbmi	fp, {r0, r1, r3, r8, r9, fp}
     768:	3b0b3a13 	blcc	2cefbc <__bss_end__+0x2c421c>
     76c:	010b390b 	tsteq	fp, fp, lsl #18
     770:	0d000013 	stceq	0, cr0, [r0, #-76]	; 0xffffffb4
     774:	0e030028 	cdpeq	0, 0, cr0, cr3, cr8, {1}
     778:	00000b1c 	andeq	r0, r0, ip, lsl fp
     77c:	0301130e 	movweq	r1, #4878	; 0x130e
     780:	3a0b0b0e 	bcc	2c33c0 <__bss_end__+0x2b8620>
     784:	390b3b0b 	stmdbcc	fp, {r0, r1, r3, r8, r9, fp, ip, sp}
     788:	0013010b 	andseq	r0, r3, fp, lsl #2
     78c:	000d0f00 	andeq	r0, sp, r0, lsl #30
     790:	0b3a0803 	bleq	e827a4 <__bss_end__+0xe77a04>
     794:	0b390b3b 	bleq	e43488 <__bss_end__+0xe386e8>
     798:	0b381349 	bleq	e054c4 <__bss_end__+0xdfa724>
     79c:	01100000 	tsteq	r0, r0
     7a0:	01134901 	tsteq	r3, r1, lsl #18
     7a4:	11000013 	tstne	r0, r3, lsl r0
     7a8:	13490021 	movtne	r0, #36897	; 0x9021
     7ac:	00000b2f 	andeq	r0, r0, pc, lsr #22
     7b0:	0b000f12 	bleq	4400 <__code_start__-0x3c00>
     7b4:	1300000b 	movwne	r0, #11
     7b8:	0e030034 	mcreq	0, 0, r0, cr3, cr4, {1}
     7bc:	0b3b0b3a 	bleq	ec34ac <__bss_end__+0xeb870c>
     7c0:	13490b39 	movtne	r0, #39737	; 0x9b39
     7c4:	00001802 	andeq	r1, r0, r2, lsl #16
     7c8:	3f012e14 	svccc	0x00012e14
     7cc:	3a0e0319 	bcc	381438 <__bss_end__+0x376698>
     7d0:	39053b0b 	stmdbcc	r5, {r0, r1, r3, r8, r9, fp, ip, sp}
     7d4:	1119270b 	tstne	r9, fp, lsl #14
     7d8:	40061201 	andmi	r1, r6, r1, lsl #4
     7dc:	19429718 	stmdbne	r2, {r3, r4, r8, r9, sl, ip, pc}^
     7e0:	00001301 	andeq	r1, r0, r1, lsl #6
     7e4:	03003415 	movweq	r3, #1045	; 0x415
     7e8:	3413490e 	ldrcc	r4, [r3], #-2318	; 0xfffff6f2
     7ec:	00180219 	andseq	r0, r8, r9, lsl r2
     7f0:	82891600 	addhi	r1, r9, #0, 12
     7f4:	01110101 	tsteq	r1, r1, lsl #2
     7f8:	13011331 	movwne	r1, #4913	; 0x1331
     7fc:	8a170000 	bhi	5c0804 <__bss_end__+0x5b5a64>
     800:	02000182 	andeq	r0, r0, #-2147483616	; 0x80000020
     804:	18429118 	stmdane	r2, {r3, r4, r8, ip, pc}^
     808:	89180000 	ldmdbhi	r8, {}	; <UNPREDICTABLE>
     80c:	11000182 	smlabbne	r0, r2, r1, r0
     810:	00133101 	andseq	r3, r3, r1, lsl #2
     814:	012e1900 			; <UNDEFINED> instruction: 0x012e1900
     818:	0e03193f 			; <UNDEFINED> instruction: 0x0e03193f
     81c:	053b0b3a 	ldreq	r0, [fp, #-2874]!	; 0xfffff4c6
     820:	19270b39 	stmdbne	r7!, {r0, r3, r4, r5, r8, r9, fp}
     824:	01111349 	tsteq	r1, r9, asr #6
     828:	18400612 	stmdane	r0, {r1, r4, r9, sl}^
     82c:	01194297 			; <UNDEFINED> instruction: 0x01194297
     830:	1a000013 	bne	884 <__code_start__-0x777c>
     834:	0e030034 	mcreq	0, 0, r0, cr3, cr4, {1}
     838:	053b0b3a 	ldreq	r0, [fp, #-2874]!	; 0xfffff4c6
     83c:	13490b39 	movtne	r0, #39737	; 0x9b39
     840:	42b71702 	adcsmi	r1, r7, #524288	; 0x80000
     844:	1b000017 	blne	8a8 <__code_start__-0x7758>
     848:	1331011d 	teqne	r1, #1073741831	; 0x40000007
     84c:	42b80152 	adcsmi	r0, r8, #-2147483628	; 0x80000014
     850:	1201110b 	andne	r1, r1, #-1073741822	; 0xc0000002
     854:	590b5806 	stmdbpl	fp, {r1, r2, fp, ip, lr}
     858:	010b5705 	tsteq	fp, r5, lsl #14
     85c:	1c000013 	stcne	0, cr0, [r0], {19}
     860:	13310034 	teqne	r1, #52, 0	; 0x34
     864:	42b71702 	adcsmi	r1, r7, #524288	; 0x80000
     868:	1d000017 	stcne	0, cr0, [r0, #-92]	; 0xffffffa4
     86c:	1331010b 	teqne	r1, #-1073741822	; 0xc0000002
     870:	13011755 	movwne	r1, #5973	; 0x1755
     874:	1d1e0000 	ldcne	0, cr0, [lr, #-0]
     878:	52133101 	andspl	r3, r3, #1073741824	; 0x40000000
     87c:	0b42b801 	bleq	10ae888 <__bss_end__+0x10a3ae8>
     880:	0b581755 	bleq	16065dc <__bss_end__+0x15fb83c>
     884:	0b570559 	bleq	15c1df0 <__bss_end__+0x15b7050>
     888:	00001301 	andeq	r1, r0, r1, lsl #6
     88c:	3100051f 	tstcc	r0, pc, lsl r5
     890:	b7170213 			; <UNDEFINED> instruction: 0xb7170213
     894:	00001742 	andeq	r1, r0, r2, asr #14
     898:	01828920 	orreq	r8, r2, r0, lsr #18
     89c:	31011101 	tstcc	r1, r1, lsl #2
     8a0:	21000013 	tstcs	r0, r3, lsl r0
     8a4:	0e03012e 	adfeqsp	f0, f3, #0.5
     8a8:	0b3b0b3a 	bleq	ec3598 <__bss_end__+0xeb87f8>
     8ac:	19270b39 	stmdbne	r7!, {r0, r3, r4, r5, r8, r9, fp}
     8b0:	0b201349 	bleq	8055dc <__bss_end__+0x7fa83c>
     8b4:	00001301 	andeq	r1, r0, r1, lsl #6
     8b8:	03003422 	movweq	r3, #1058	; 0x422
     8bc:	3b0b3a0e 	blcc	2cf0fc <__bss_end__+0x2c435c>
     8c0:	490b390b 	stmdbmi	fp, {r0, r1, r3, r8, fp, ip, sp}
     8c4:	23000013 	movwcs	r0, #19
     8c8:	0000010b 	andeq	r0, r0, fp, lsl #2
     8cc:	03003424 	movweq	r3, #1060	; 0x424
     8d0:	3b0b3a08 	blcc	2cf0f8 <__bss_end__+0x2c4358>
     8d4:	490b390b 	stmdbmi	fp, {r0, r1, r3, r8, fp, ip, sp}
     8d8:	25000013 	strcs	r0, [r0, #-19]	; 0xffffffed
     8dc:	193f012e 	ldmdbne	pc!, {r1, r2, r3, r5, r8}	; <UNPREDICTABLE>
     8e0:	0b3a0e03 	bleq	e840f4 <__bss_end__+0xe79354>
     8e4:	0b390b3b 	bleq	e435d8 <__bss_end__+0xe38838>
     8e8:	13491927 	movtne	r1, #39207	; 0x9927
     8ec:	06120111 			; <UNDEFINED> instruction: 0x06120111
     8f0:	42971840 	addsmi	r1, r7, #64, 16	; 0x400000
     8f4:	00130119 	andseq	r0, r3, r9, lsl r1
     8f8:	00342600 	eorseq	r2, r4, r0, lsl #12
     8fc:	0b3a0e03 	bleq	e84110 <__bss_end__+0xe79370>
     900:	0b390b3b 	bleq	e435f4 <__bss_end__+0xe38854>
     904:	17021349 	strne	r1, [r2, -r9, asr #6]
     908:	001742b7 			; <UNDEFINED> instruction: 0x001742b7
     90c:	011d2700 	tsteq	sp, r0, lsl #14
     910:	01521331 	cmpeq	r2, r1, lsr r3
     914:	110b42b8 			; <UNDEFINED> instruction: 0x110b42b8
     918:	58061201 	stmdapl	r6, {r0, r9, ip}
     91c:	570b590b 	strpl	r5, [fp, -fp, lsl #18]
     920:	0013010b 	andseq	r0, r3, fp, lsl #2
     924:	012e2800 			; <UNDEFINED> instruction: 0x012e2800
     928:	0e03193f 			; <UNDEFINED> instruction: 0x0e03193f
     92c:	0b3b0b3a 	bleq	ec361c <__bss_end__+0xeb887c>
     930:	19270b39 	stmdbne	r7!, {r0, r3, r4, r5, r8, r9, fp}
     934:	06120111 			; <UNDEFINED> instruction: 0x06120111
     938:	42971840 	addsmi	r1, r7, #64, 16	; 0x400000
     93c:	00130119 	andseq	r0, r3, r9, lsl r1
     940:	012e2900 			; <UNDEFINED> instruction: 0x012e2900
     944:	0e03193f 			; <UNDEFINED> instruction: 0x0e03193f
     948:	0b3b0b3a 	bleq	ec3638 <__bss_end__+0xeb8898>
     94c:	19270b39 	stmdbne	r7!, {r0, r3, r4, r5, r8, r9, fp}
     950:	0b201349 	bleq	80567c <__bss_end__+0x7fa8dc>
     954:	00001301 	andeq	r1, r0, r1, lsl #6
     958:	0300052a 	movweq	r0, #1322	; 0x52a
     95c:	3b0b3a0e 	blcc	2cf19c <__bss_end__+0x2c43fc>
     960:	490b390b 	stmdbmi	fp, {r0, r1, r3, r8, fp, ip, sp}
     964:	2b000013 	blcs	9b8 <__code_start__-0x7648>
     968:	0e03012e 	adfeqsp	f0, f3, #0.5
     96c:	0b3b0b3a 	bleq	ec365c <__bss_end__+0xeb88bc>
     970:	19270b39 	stmdbne	r7!, {r0, r3, r4, r5, r8, r9, fp}
     974:	01111349 	tsteq	r1, r9, asr #6
     978:	18400612 	stmdane	r0, {r1, r4, r9, sl}^
     97c:	01194297 			; <UNDEFINED> instruction: 0x01194297
     980:	2c000013 	stccs	0, cr0, [r0], {19}
     984:	0e030005 	cdpeq	0, 0, cr0, cr3, cr5, {0}
     988:	0b3b0b3a 	bleq	ec3678 <__bss_end__+0xeb88d8>
     98c:	13490b39 	movtne	r0, #39737	; 0x9b39
     990:	42b71702 	adcsmi	r1, r7, #524288	; 0x80000
     994:	2d000017 	stccs	0, cr0, [r0, #-92]	; 0xffffffa4
     998:	1755010b 	ldrbne	r0, [r5, -fp, lsl #2]
     99c:	00001301 	andeq	r1, r0, r1, lsl #6
     9a0:	0300342e 	movweq	r3, #1070	; 0x42e
     9a4:	3b0b3a08 	blcc	2cf1cc <__bss_end__+0x2c442c>
     9a8:	490b390b 	stmdbmi	fp, {r0, r1, r3, r8, fp, ip, sp}
     9ac:	b7170213 			; <UNDEFINED> instruction: 0xb7170213
     9b0:	00001742 	andeq	r1, r0, r2, asr #14
     9b4:	03012e2f 	movweq	r2, #7727	; 0x1e2f
     9b8:	3b0b3a0e 	blcc	2cf1f8 <__bss_end__+0x2c4458>
     9bc:	270b390b 	strcs	r3, [fp, -fp, lsl #18]
     9c0:	12011119 	andne	r1, r1, #1073741830	; 0x40000006
     9c4:	97184006 	ldrls	r4, [r8, -r6]
     9c8:	13011942 	movwne	r1, #6466	; 0x1942
     9cc:	34300000 	ldrtcc	r0, [r0], #-0
     9d0:	3a0e0300 	bcc	3815d8 <__bss_end__+0x376838>
     9d4:	390b3b0b 	stmdbcc	fp, {r0, r1, r3, r8, r9, fp, ip, sp}
     9d8:	1c13490b 			; <UNDEFINED> instruction: 0x1c13490b
     9dc:	31000006 	tstcc	r0, r6
     9e0:	0111010b 	tsteq	r1, fp, lsl #2
     9e4:	13010612 	movwne	r0, #5650	; 0x1612
     9e8:	05320000 	ldreq	r0, [r2, #-0]!
     9ec:	3a080300 	bcc	2015f4 <__bss_end__+0x1f6854>
     9f0:	390b3b0b 	stmdbcc	fp, {r0, r1, r3, r8, r9, fp, ip, sp}
     9f4:	0213490b 	andseq	r4, r3, #180224	; 0x2c000
     9f8:	1742b717 	smlaldne	fp, r2, r7, r7
     9fc:	0b330000 	bleq	cc0a04 <__bss_end__+0xcb5c64>
     a00:	00175501 	andseq	r5, r7, r1, lsl #10
     a04:	011d3400 	tsteq	sp, r0, lsl #8
     a08:	01521331 	cmpeq	r2, r1, lsr r3
     a0c:	550b42b8 	strpl	r4, [fp, #-696]	; 0xfffffd48
     a10:	590b5817 	stmdbpl	fp, {r0, r1, r2, r4, fp, ip, lr}
     a14:	000b570b 	andeq	r5, fp, fp, lsl #14
     a18:	011d3500 	tsteq	sp, r0, lsl #10
     a1c:	01521331 	cmpeq	r2, r1, lsr r3
     a20:	550b42b8 	strpl	r4, [fp, #-696]	; 0xfffffd48
     a24:	590b5817 	stmdbpl	fp, {r0, r1, r2, r4, fp, ip, lr}
     a28:	010b570b 	tsteq	fp, fp, lsl #14
     a2c:	36000013 			; <UNDEFINED> instruction: 0x36000013
     a30:	08030005 	stmdaeq	r3, {r0, r2}
     a34:	0b3b0b3a 	bleq	ec3724 <__bss_end__+0xeb8984>
     a38:	13490b39 	movtne	r0, #39737	; 0x9b39
     a3c:	2e370000 	cdpcs	0, 3, cr0, cr7, cr0, {0}
     a40:	11133101 	tstne	r3, r1, lsl #2
     a44:	40061201 	andmi	r1, r6, r1, lsl #4
     a48:	19429718 	stmdbne	r2, {r3, r4, r8, r9, sl, ip, pc}^
     a4c:	00001301 	andeq	r1, r0, r1, lsl #6
     a50:	3f002e38 	svccc	0x00002e38
     a54:	6e193c19 	mrcvs	12, 0, r3, cr9, cr9, {0}
     a58:	3a0e030e 	bcc	381698 <__bss_end__+0x3768f8>
     a5c:	390b3b0b 	stmdbcc	fp, {r0, r1, r3, r8, r9, fp, ip, sp}
     a60:	3900000b 	stmdbcc	r0, {r0, r1, r3}
     a64:	18020036 	stmdane	r2, {r1, r2, r4, r5}
     a68:	01000000 	mrseq	r0, (UNDEF: 0)
     a6c:	0e250111 	mcreq	1, 1, r0, cr5, cr1, {0}
     a70:	0e030b13 	vmoveq.32	d3[0], r0
     a74:	01110e1b 	tsteq	r1, fp, lsl lr
     a78:	17100612 			; <UNDEFINED> instruction: 0x17100612
     a7c:	24020000 	strcs	r0, [r2], #-0
     a80:	3e0b0b00 	vmlacc.f64	d0, d11, d0
     a84:	0008030b 	andeq	r0, r8, fp, lsl #6
     a88:	00160300 	andseq	r0, r6, r0, lsl #6
     a8c:	0b3a0e03 	bleq	e842a0 <__bss_end__+0xe79500>
     a90:	0b390b3b 	bleq	e43784 <__bss_end__+0xe389e4>
     a94:	00001349 	andeq	r1, r0, r9, asr #6
     a98:	0b002404 	bleq	9ab0 <kmalloc_init_set_start+0x1c>
     a9c:	030b3e0b 	movweq	r3, #48651	; 0xbe0b
     aa0:	0500000e 	streq	r0, [r0, #-14]
     aa4:	19270115 	stmdbne	r7!, {r0, r2, r4, r8}
     aa8:	13011349 	movwne	r1, #4937	; 0x1349
     aac:	05060000 	streq	r0, [r6, #-0]
     ab0:	00134900 	andseq	r4, r3, r0, lsl #18
     ab4:	00340700 	eorseq	r0, r4, r0, lsl #14
     ab8:	0b3a0e03 	bleq	e842cc <__bss_end__+0xe7952c>
     abc:	0b390b3b 	bleq	e437b0 <__bss_end__+0xe38a10>
     ac0:	193f1349 	ldmdbne	pc!, {r0, r3, r6, r8, r9, ip}	; <UNPREDICTABLE>
     ac4:	0000193c 	andeq	r1, r0, ip, lsr r9
     ac8:	0b000f08 	bleq	46f0 <__code_start__-0x3910>
     acc:	0013490b 	andseq	r4, r3, fp, lsl #18
     ad0:	00260900 	eoreq	r0, r6, r0, lsl #18
     ad4:	00001349 	andeq	r1, r0, r9, asr #6
     ad8:	3f012e0a 	svccc	0x00012e0a
     adc:	3a0e0319 	bcc	381748 <__bss_end__+0x3769a8>
     ae0:	390b3b0b 	stmdbcc	fp, {r0, r1, r3, r8, r9, fp, ip, sp}
     ae4:	4919270b 	ldmdbmi	r9, {r0, r1, r3, r8, r9, sl, sp}
     ae8:	12011113 	andne	r1, r1, #-1073741820	; 0xc0000004
     aec:	97184006 	ldrls	r4, [r8, -r6]
     af0:	13011942 	movwne	r1, #6466	; 0x1942
     af4:	050b0000 	streq	r0, [fp, #-0]
     af8:	3a080300 	bcc	201700 <__bss_end__+0x1f6960>
     afc:	390b3b0b 	stmdbcc	fp, {r0, r1, r3, r8, r9, fp, ip, sp}
     b00:	0213490b 	andseq	r4, r3, #180224	; 0x2c000
     b04:	0c000018 	stceq	0, cr0, [r0], {24}
     b08:	08030005 	stmdaeq	r3, {r0, r2}
     b0c:	0b3b0b3a 	bleq	ec37fc <__bss_end__+0xeb8a5c>
     b10:	13490b39 	movtne	r0, #39737	; 0x9b39
     b14:	42b71702 	adcsmi	r1, r7, #524288	; 0x80000
     b18:	0d000017 	stceq	0, cr0, [r0, #-92]	; 0xffffffa4
     b1c:	08030034 	stmdaeq	r3, {r2, r4, r5}
     b20:	0b3b0b3a 	bleq	ec3810 <__bss_end__+0xeb8a70>
     b24:	13490b39 	movtne	r0, #39737	; 0x9b39
     b28:	42b71702 	adcsmi	r1, r7, #524288	; 0x80000
     b2c:	0e000017 	mcreq	0, 0, r0, cr0, cr7, {0}
     b30:	0b0b000f 	bleq	2c0b74 <__bss_end__+0x2b5dd4>
     b34:	01000000 	mrseq	r0, (UNDEF: 0)
     b38:	0e250111 	mcreq	1, 1, r0, cr5, cr1, {0}
     b3c:	0e030b13 	vmoveq.32	d3[0], r0
     b40:	01110e1b 	tsteq	r1, fp, lsl lr
     b44:	17100612 			; <UNDEFINED> instruction: 0x17100612
     b48:	16020000 	strne	r0, [r2], -r0
     b4c:	3a0e0300 	bcc	381754 <__bss_end__+0x3769b4>
     b50:	390b3b0b 	stmdbcc	fp, {r0, r1, r3, r8, r9, fp, ip, sp}
     b54:	0013490b 	andseq	r4, r3, fp, lsl #18
     b58:	01130300 	tsteq	r3, r0, lsl #6
     b5c:	0b0b0e03 	bleq	2c4370 <__bss_end__+0x2b95d0>
     b60:	0b3b0b3a 	bleq	ec3850 <__bss_end__+0xeb8ab0>
     b64:	00001301 	andeq	r1, r0, r1, lsl #6
     b68:	03000d04 	movweq	r0, #3332	; 0xd04
     b6c:	3813490e 	ldmdacc	r3, {r1, r2, r3, r8, fp, lr}
     b70:	0019340b 	andseq	r3, r9, fp, lsl #8
     b74:	000f0500 	andeq	r0, pc, r0, lsl #10
     b78:	00000b0b 	andeq	r0, r0, fp, lsl #22
     b7c:	0b002406 	bleq	9b9c <kmalloc_notzero+0x14>
     b80:	030b3e0b 	movweq	r3, #48651	; 0xbe0b
     b84:	07000008 	streq	r0, [r0, -r8]
     b88:	0b0b0024 	bleq	2c0c20 <__bss_end__+0x2b5e80>
     b8c:	0e030b3e 	vmoveq.16	d3[0], r0
     b90:	15080000 	strne	r0, [r8, #-0]
     b94:	49192701 	ldmdbmi	r9, {r0, r8, r9, sl, sp}
     b98:	00130113 	andseq	r0, r3, r3, lsl r1
     b9c:	00050900 	andeq	r0, r5, r0, lsl #18
     ba0:	00001349 	andeq	r1, r0, r9, asr #6
     ba4:	0300340a 	movweq	r3, #1034	; 0x40a
     ba8:	3b0b3a0e 	blcc	2cf3e8 <__bss_end__+0x2c4648>
     bac:	490b390b 	stmdbmi	fp, {r0, r1, r3, r8, fp, ip, sp}
     bb0:	3c193f13 	ldccc	15, cr3, [r9], {19}
     bb4:	0b000019 	bleq	c20 <__code_start__-0x73e0>
     bb8:	0b0b000f 	bleq	2c0bfc <__bss_end__+0x2b5e5c>
     bbc:	00001349 	andeq	r1, r0, r9, asr #6
     bc0:	4900260c 	stmdbmi	r0, {r2, r3, r9, sl, sp}
     bc4:	0d000013 	stceq	0, cr0, [r0, #-76]	; 0xffffffb4
     bc8:	193f012e 	ldmdbne	pc!, {r1, r2, r3, r5, r8}	; <UNPREDICTABLE>
     bcc:	0b3a0e03 	bleq	e843e0 <__bss_end__+0xe79640>
     bd0:	0b390b3b 	bleq	e438c4 <__bss_end__+0xe38b24>
     bd4:	13491927 	movtne	r1, #39207	; 0x9927
     bd8:	06120111 			; <UNDEFINED> instruction: 0x06120111
     bdc:	42971840 	addsmi	r1, r7, #64, 16	; 0x400000
     be0:	00130119 	andseq	r0, r3, r9, lsl r1
     be4:	00050e00 	andeq	r0, r5, r0, lsl #28
     be8:	0b3a0803 	bleq	e82bfc <__bss_end__+0xe77e5c>
     bec:	0b390b3b 	bleq	e438e0 <__bss_end__+0xe38b40>
     bf0:	18021349 	stmdane	r2, {r0, r3, r6, r8, r9, ip}
     bf4:	180f0000 	stmdane	pc, {}	; <UNPREDICTABLE>
     bf8:	10000000 	andne	r0, r0, r0
     bfc:	08030034 	stmdaeq	r3, {r2, r4, r5}
     c00:	0b3b0b3a 	bleq	ec38f0 <__bss_end__+0xeb8b50>
     c04:	13490b39 	movtne	r0, #39737	; 0x9b39
     c08:	00001802 	andeq	r1, r0, r2, lsl #16
     c0c:	03003411 	movweq	r3, #1041	; 0x411
     c10:	3b0b3a0e 	blcc	2cf450 <__bss_end__+0x2c46b0>
     c14:	490b390b 	stmdbmi	fp, {r0, r1, r3, r8, fp, ip, sp}
     c18:	00180213 	andseq	r0, r8, r3, lsl r2
     c1c:	00341200 	eorseq	r1, r4, r0, lsl #4
     c20:	0b3a0803 	bleq	e82c34 <__bss_end__+0xe77e94>
     c24:	0b390b3b 	bleq	e43918 <__bss_end__+0xe38b78>
     c28:	17021349 	strne	r1, [r2, -r9, asr #6]
     c2c:	001742b7 			; <UNDEFINED> instruction: 0x001742b7
     c30:	82891300 	addhi	r1, r9, #0, 6
     c34:	01110101 	tsteq	r1, r1, lsl #2
     c38:	13011331 	movwne	r1, #4913	; 0x1331
     c3c:	8a140000 	bhi	500c44 <__bss_end__+0x4f5ea4>
     c40:	02000182 	andeq	r0, r0, #-2147483616	; 0x80000020
     c44:	18429118 	stmdane	r2, {r3, r4, r8, ip, pc}^
     c48:	89150000 	ldmdbhi	r5, {}	; <UNPREDICTABLE>
     c4c:	11010182 	smlabbne	r1, r2, r1, r0
     c50:	16000001 	strne	r0, [r0], -r1
     c54:	13490101 	movtne	r0, #37121	; 0x9101
     c58:	00001301 	andeq	r1, r0, r1, lsl #6
     c5c:	49002117 	stmdbmi	r0, {r0, r1, r2, r4, r8, sp}
     c60:	00052f13 	andeq	r2, r5, r3, lsl pc
     c64:	002e1800 	eoreq	r1, lr, r0, lsl #16
     c68:	193c193f 	ldmdbne	ip!, {r0, r1, r2, r3, r4, r5, r8, fp, ip}
     c6c:	0e030e6e 	cdpeq	14, 0, cr0, cr3, cr14, {3}
     c70:	0b3b0b3a 	bleq	ec3960 <__bss_end__+0xeb8bc0>
     c74:	00000b39 	andeq	r0, r0, r9, lsr fp
     c78:	01110100 	tsteq	r1, r0, lsl #2
     c7c:	0b130e25 	bleq	4c4518 <__bss_end__+0x4b9778>
     c80:	0e1b0e03 	cdpeq	14, 1, cr0, cr11, cr3, {0}
     c84:	06120111 			; <UNDEFINED> instruction: 0x06120111
     c88:	00001710 	andeq	r1, r0, r0, lsl r7
     c8c:	0b002402 	bleq	9c9c <kmalloc_aligned+0x18>
     c90:	030b3e0b 	movweq	r3, #48651	; 0xbe0b
     c94:	03000008 	movweq	r0, #8
     c98:	0b0b0024 	bleq	2c0d30 <__bss_end__+0x2b5f90>
     c9c:	0e030b3e 	vmoveq.16	d3[0], r0
     ca0:	15040000 	strne	r0, [r4, #-0]
     ca4:	49192701 	ldmdbmi	r9, {r0, r8, r9, sl, sp}
     ca8:	00130113 	andseq	r0, r3, r3, lsl r1
     cac:	00050500 	andeq	r0, r5, r0, lsl #10
     cb0:	00001349 	andeq	r1, r0, r9, asr #6
     cb4:	03003406 	movweq	r3, #1030	; 0x406
     cb8:	3b0b3a0e 	blcc	2cf4f8 <__bss_end__+0x2c4758>
     cbc:	490b390b 	stmdbmi	fp, {r0, r1, r3, r8, fp, ip, sp}
     cc0:	3c193f13 	ldccc	15, cr3, [r9], {19}
     cc4:	07000019 	smladeq	r0, r9, r0, r0
     cc8:	0b0b000f 	bleq	2c0d0c <__bss_end__+0x2b5f6c>
     ccc:	00001349 	andeq	r1, r0, r9, asr #6
     cd0:	49002608 	stmdbmi	r0, {r3, r9, sl, sp}
     cd4:	09000013 	stmdbeq	r0, {r0, r1, r4}
     cd8:	13470034 	movtne	r0, #28724	; 0x7034
     cdc:	0b3b0b3a 	bleq	ec39cc <__bss_end__+0xeb8c2c>
     ce0:	18020b39 	stmdane	r2, {r0, r3, r4, r5, r8, r9, fp}
     ce4:	2e0a0000 	cdpcs	0, 0, cr0, cr10, cr0, {0}
     ce8:	03193f01 	tsteq	r9, #1, 30
     cec:	3b0b3a0e 	blcc	2cf52c <__bss_end__+0x2c478c>
     cf0:	270b390b 	strcs	r3, [fp, -fp, lsl #18]
     cf4:	11134919 	tstne	r3, r9, lsl r9
     cf8:	40061201 	andmi	r1, r6, r1, lsl #4
     cfc:	19429618 	stmdbne	r2, {r3, r4, r9, sl, ip, pc}^
     d00:	050b0000 	streq	r0, [fp, #-0]
     d04:	3a080300 	bcc	20190c <__bss_end__+0x1f6b6c>
     d08:	390b3b0b 	stmdbcc	fp, {r0, r1, r3, r8, r9, fp, ip, sp}
     d0c:	0213490b 	andseq	r4, r3, #180224	; 0x2c000
     d10:	1742b717 	smlaldne	fp, r2, r7, r7
     d14:	01000000 	mrseq	r0, (UNDEF: 0)
     d18:	0e250111 	mcreq	1, 1, r0, cr5, cr1, {0}
     d1c:	0e030b13 	vmoveq.32	d3[0], r0
     d20:	01110e1b 	tsteq	r1, fp, lsl lr
     d24:	17100612 			; <UNDEFINED> instruction: 0x17100612
     d28:	24020000 	strcs	r0, [r2], #-0
     d2c:	3e0b0b00 	vmlacc.f64	d0, d11, d0
     d30:	000e030b 	andeq	r0, lr, fp, lsl #6
     d34:	00240300 	eoreq	r0, r4, r0, lsl #6
     d38:	0b3e0b0b 	bleq	f8396c <__bss_end__+0xf78bcc>
     d3c:	00000803 	andeq	r0, r0, r3, lsl #16
     d40:	03001604 	movweq	r1, #1540	; 0x604
     d44:	3b0b3a0e 	blcc	2cf584 <__bss_end__+0x2c47e4>
     d48:	490b390b 	stmdbmi	fp, {r0, r1, r3, r8, fp, ip, sp}
     d4c:	05000013 	streq	r0, [r0, #-19]	; 0xffffffed
     d50:	19270115 	stmdbne	r7!, {r0, r2, r4, r8}
     d54:	13011349 	movwne	r1, #4937	; 0x1349
     d58:	05060000 	streq	r0, [r6, #-0]
     d5c:	00134900 	andseq	r4, r3, r0, lsl #18
     d60:	00340700 	eorseq	r0, r4, r0, lsl #14
     d64:	0b3a0e03 	bleq	e84578 <__bss_end__+0xe797d8>
     d68:	0b390b3b 	bleq	e43a5c <__bss_end__+0xe38cbc>
     d6c:	193f1349 	ldmdbne	pc!, {r0, r3, r6, r8, r9, ip}	; <UNPREDICTABLE>
     d70:	0000193c 	andeq	r1, r0, ip, lsr r9
     d74:	0b000f08 	bleq	499c <__code_start__-0x3664>
     d78:	0013490b 	andseq	r4, r3, fp, lsl #18
     d7c:	00260900 	eoreq	r0, r6, r0, lsl #18
     d80:	00001349 	andeq	r1, r0, r9, asr #6
     d84:	0301130a 	movweq	r1, #4874	; 0x130a
     d88:	3a0b0b0e 	bcc	2c39c8 <__bss_end__+0x2b8c28>
     d8c:	010b3b0b 	tsteq	fp, fp, lsl #22
     d90:	0b000013 	bleq	de4 <__code_start__-0x721c>
     d94:	0e03000d 	cdpeq	0, 0, cr0, cr3, cr13, {0}
     d98:	0b381349 	bleq	e05ac4 <__bss_end__+0xdfad24>
     d9c:	00001934 	andeq	r1, r0, r4, lsr r9
     da0:	0b000f0c 	bleq	49d8 <__code_start__-0x3628>
     da4:	0d00000b 	stceq	0, cr0, [r0, #-44]	; 0xffffffd4
     da8:	193f012e 	ldmdbne	pc!, {r1, r2, r3, r5, r8}	; <UNPREDICTABLE>
     dac:	0b3a0e03 	bleq	e845c0 <__bss_end__+0xe79820>
     db0:	0b390b3b 	bleq	e43aa4 <__bss_end__+0xe38d04>
     db4:	13491927 	movtne	r1, #39207	; 0x9927
     db8:	06120111 			; <UNDEFINED> instruction: 0x06120111
     dbc:	42971840 	addsmi	r1, r7, #64, 16	; 0x400000
     dc0:	00130119 	andseq	r0, r3, r9, lsl r1
     dc4:	00050e00 	andeq	r0, r5, r0, lsl #28
     dc8:	0b3a0803 	bleq	e82ddc <__bss_end__+0xe7803c>
     dcc:	0b390b3b 	bleq	e43ac0 <__bss_end__+0xe38d20>
     dd0:	17021349 	strne	r1, [r2, -r9, asr #6]
     dd4:	001742b7 			; <UNDEFINED> instruction: 0x001742b7
     dd8:	00050f00 	andeq	r0, r5, r0, lsl #30
     ddc:	0b3a0e03 	bleq	e845f0 <__bss_end__+0xe79850>
     de0:	0b390b3b 	bleq	e43ad4 <__bss_end__+0xe38d34>
     de4:	17021349 	strne	r1, [r2, -r9, asr #6]
     de8:	001742b7 			; <UNDEFINED> instruction: 0x001742b7
     dec:	00341000 	eorseq	r1, r4, r0
     df0:	0b3a0803 	bleq	e82e04 <__bss_end__+0xe78064>
     df4:	0b390b3b 	bleq	e43ae8 <__bss_end__+0xe38d48>
     df8:	17021349 	strne	r1, [r2, -r9, asr #6]
     dfc:	001742b7 			; <UNDEFINED> instruction: 0x001742b7
     e00:	00341100 	eorseq	r1, r4, r0, lsl #2
     e04:	0b3a0e03 	bleq	e84618 <__bss_end__+0xe79878>
     e08:	0b390b3b 	bleq	e43afc <__bss_end__+0xe38d5c>
     e0c:	17021349 	strne	r1, [r2, -r9, asr #6]
     e10:	001742b7 			; <UNDEFINED> instruction: 0x001742b7
     e14:	00341200 	eorseq	r1, r4, r0, lsl #4
     e18:	13490e03 	movtne	r0, #40451	; 0x9e03
     e1c:	18021934 	stmdane	r2, {r2, r4, r5, r8, fp, ip}
     e20:	0b130000 	bleq	4c0e28 <__bss_end__+0x4b6088>
     e24:	00175501 	andseq	r5, r7, r1, lsl #10
     e28:	00341400 	eorseq	r1, r4, r0, lsl #8
     e2c:	0b3a0803 	bleq	e82e40 <__bss_end__+0xe780a0>
     e30:	0b390b3b 	bleq	e43b24 <__bss_end__+0xe38d84>
     e34:	18021349 	stmdane	r2, {r0, r3, r6, r8, r9, ip}
     e38:	34150000 	ldrcc	r0, [r5], #-0
     e3c:	3a0e0300 	bcc	381a44 <__bss_end__+0x376ca4>
     e40:	390b3b0b 	stmdbcc	fp, {r0, r1, r3, r8, r9, fp, ip, sp}
     e44:	0213490b 	andseq	r4, r3, #180224	; 0x2c000
     e48:	16000018 			; <UNDEFINED> instruction: 0x16000018
     e4c:	1755010b 	ldrbne	r0, [r5, -fp, lsl #2]
     e50:	00001301 	andeq	r1, r0, r1, lsl #6
     e54:	01828917 	orreq	r8, r2, r7, lsl r9
     e58:	31011101 	tstcc	r1, r1, lsl #2
     e5c:	00130113 	andseq	r0, r3, r3, lsl r1
     e60:	828a1800 	addhi	r1, sl, #0, 16
     e64:	18020001 	stmdane	r2, {r0}
     e68:	00184291 	mulseq	r8, r1, r2
     e6c:	82891900 	addhi	r1, r9, #0, 18
     e70:	01110001 	tsteq	r1, r1
     e74:	00001331 	andeq	r1, r0, r1, lsr r3
     e78:	31011d1a 	tstcc	r1, sl, lsl sp
     e7c:	b8015213 	stmdalt	r1, {r0, r1, r4, r9, ip, lr}
     e80:	17550542 	ldrbne	r0, [r5, -r2, asr #10]
     e84:	0b590b58 	bleq	1643bec <__bss_end__+0x1638e4c>
     e88:	13010b57 	movwne	r0, #6999	; 0x1b57
     e8c:	051b0000 	ldreq	r0, [fp, #-0]
     e90:	02133100 	andseq	r3, r3, #0
     e94:	1742b717 	smlaldne	fp, r2, r7, r7
     e98:	051c0000 	ldreq	r0, [ip, #-0]
     e9c:	00133100 	andseq	r3, r3, r0, lsl #2
     ea0:	00341d00 	eorseq	r1, r4, r0, lsl #26
     ea4:	18021331 	stmdane	r2, {r0, r4, r5, r8, r9, ip}
     ea8:	341e0000 	ldrcc	r0, [lr], #-0
     eac:	02133100 	andseq	r3, r3, #0
     eb0:	1742b717 	smlaldne	fp, r2, r7, r7
     eb4:	341f0000 	ldrcc	r0, [pc], #-0	; ebc <__code_start__-0x7144>
     eb8:	00133100 	andseq	r3, r3, r0, lsl #2
     ebc:	011d2000 	tsteq	sp, r0
     ec0:	01521331 	cmpeq	r2, r1, lsr r3
     ec4:	550542b8 	strpl	r4, [r5, #-696]	; 0xfffffd48
     ec8:	590b5817 	stmdbpl	fp, {r0, r1, r2, r4, fp, ip, lr}
     ecc:	000b570b 	andeq	r5, fp, fp, lsl #14
     ed0:	82892100 	addhi	r2, r9, #0
     ed4:	01110101 	tsteq	r1, r1, lsl #2
     ed8:	00001301 	andeq	r1, r0, r1, lsl #6
     edc:	49010122 	stmdbmi	r1, {r1, r5, r8}
     ee0:	00130113 	andseq	r0, r3, r3, lsl r1
     ee4:	00212300 	eoreq	r2, r1, r0, lsl #6
     ee8:	0b2f1349 	bleq	bc5c14 <__bss_end__+0xbbae74>
     eec:	2e240000 	cdpcs	0, 2, cr0, cr4, cr0, {0}
     ef0:	3a0e0301 	bcc	381afc <__bss_end__+0x376d5c>
     ef4:	390b3b0b 	stmdbcc	fp, {r0, r1, r3, r8, r9, fp, ip, sp}
     ef8:	4919270b 	ldmdbmi	r9, {r0, r1, r3, r8, r9, sl, sp}
     efc:	010b2013 	tsteq	fp, r3, lsl r0
     f00:	25000013 	strcs	r0, [r0, #-19]	; 0xffffffed
     f04:	0e030005 	cdpeq	0, 0, cr0, cr3, cr5, {0}
     f08:	0b3b0b3a 	bleq	ec3bf8 <__bss_end__+0xeb8e58>
     f0c:	13490b39 	movtne	r0, #39737	; 0x9b39
     f10:	05260000 	streq	r0, [r6, #-0]!
     f14:	3a080300 	bcc	201b1c <__bss_end__+0x1f6d7c>
     f18:	390b3b0b 	stmdbcc	fp, {r0, r1, r3, r8, r9, fp, ip, sp}
     f1c:	0013490b 	andseq	r4, r3, fp, lsl #18
     f20:	00342700 	eorseq	r2, r4, r0, lsl #14
     f24:	0b3a0803 	bleq	e82f38 <__bss_end__+0xe78198>
     f28:	0b390b3b 	bleq	e43c1c <__bss_end__+0xe38e7c>
     f2c:	00001349 	andeq	r1, r0, r9, asr #6
     f30:	00010b28 	andeq	r0, r1, r8, lsr #22
     f34:	00342900 	eorseq	r2, r4, r0, lsl #18
     f38:	0b3a0e03 	bleq	e8474c <__bss_end__+0xe799ac>
     f3c:	0b390b3b 	bleq	e43c30 <__bss_end__+0xe38e90>
     f40:	00001349 	andeq	r1, r0, r9, asr #6
     f44:	03012e2a 	movweq	r2, #7722	; 0x1e2a
     f48:	3b0b3a08 	blcc	2cf770 <__bss_end__+0x2c49d0>
     f4c:	270b390b 	strcs	r3, [fp, -fp, lsl #18]
     f50:	20134919 	andscs	r4, r3, r9, lsl r9
     f54:	0013010b 	andseq	r0, r3, fp, lsl #2
     f58:	012e2b00 			; <UNDEFINED> instruction: 0x012e2b00
     f5c:	0e03193f 			; <UNDEFINED> instruction: 0x0e03193f
     f60:	0b3b0b3a 	bleq	ec3c50 <__bss_end__+0xeb8eb0>
     f64:	19270b39 	stmdbne	r7!, {r0, r3, r4, r5, r8, r9, fp}
     f68:	06120111 			; <UNDEFINED> instruction: 0x06120111
     f6c:	42971840 	addsmi	r1, r7, #64, 16	; 0x400000
     f70:	00130119 	andseq	r0, r3, r9, lsl r1
     f74:	012e2c00 			; <UNDEFINED> instruction: 0x012e2c00
     f78:	01111331 	tsteq	r1, r1, lsr r3
     f7c:	18400612 	stmdane	r0, {r1, r4, r9, sl}^
     f80:	01194297 			; <UNDEFINED> instruction: 0x01194297
     f84:	2d000013 	stccs	0, cr0, [r0, #-76]	; 0xffffffb4
     f88:	13310005 	teqne	r1, #5, 0
     f8c:	00001802 	andeq	r1, r0, r2, lsl #16
     f90:	3100052e 	tstcc	r0, lr, lsr #10
     f94:	000b1c13 	andeq	r1, fp, r3, lsl ip
     f98:	010b2f00 	tsteq	fp, r0, lsl #30
     f9c:	01111331 	tsteq	r1, r1, lsr r3
     fa0:	13010612 	movwne	r0, #5650	; 0x1612
     fa4:	2e300000 	cdpcs	0, 3, cr0, cr0, cr0, {0}
     fa8:	3c193f00 	ldccc	15, cr3, [r9], {-0}
     fac:	030e6e19 	movweq	r6, #60953	; 0xee19
     fb0:	3b0b3a0e 	blcc	2cf7f0 <__bss_end__+0x2c4a50>
     fb4:	000b390b 	andeq	r3, fp, fp, lsl #18
     fb8:	11010000 	mrsne	r0, (UNDEF: 1)
     fbc:	130e2501 	movwne	r2, #58625	; 0xe501
     fc0:	1b0e030b 	blne	381bf4 <__bss_end__+0x376e54>
     fc4:	1201110e 	andne	r1, r1, #-2147483645	; 0x80000003
     fc8:	00171006 	andseq	r1, r7, r6
     fcc:	00240200 	eoreq	r0, r4, r0, lsl #4
     fd0:	0b3e0b0b 	bleq	f83c04 <__bss_end__+0xf78e64>
     fd4:	00000803 	andeq	r0, r0, r3, lsl #16
     fd8:	0b002403 	bleq	9fec <strcat+0x4>
     fdc:	030b3e0b 	movweq	r3, #48651	; 0xbe0b
     fe0:	0400000e 	streq	r0, [r0], #-14
     fe4:	19270115 	stmdbne	r7!, {r0, r2, r4, r8}
     fe8:	13011349 	movwne	r1, #4937	; 0x1349
     fec:	05050000 	streq	r0, [r5, #-0]
     ff0:	00134900 	andseq	r4, r3, r0, lsl #18
     ff4:	00340600 	eorseq	r0, r4, r0, lsl #12
     ff8:	0b3a0e03 	bleq	e8480c <__bss_end__+0xe79a6c>
     ffc:	0b390b3b 	bleq	e43cf0 <__bss_end__+0xe38f50>
    1000:	193f1349 	ldmdbne	pc!, {r0, r3, r6, r8, r9, ip}	; <UNPREDICTABLE>
    1004:	0000193c 	andeq	r1, r0, ip, lsr r9
    1008:	0b000f07 	bleq	4c2c <__code_start__-0x33d4>
    100c:	0013490b 	andseq	r4, r3, fp, lsl #18
    1010:	00260800 	eoreq	r0, r6, r0, lsl #16
    1014:	00001349 	andeq	r1, r0, r9, asr #6
    1018:	3f012e09 	svccc	0x00012e09
    101c:	3a0e0319 	bcc	381c88 <__bss_end__+0x376ee8>
    1020:	390b3b0b 	stmdbcc	fp, {r0, r1, r3, r8, r9, fp, ip, sp}
    1024:	8719270b 	ldrhi	r2, [r9, -fp, lsl #14]
    1028:	01111901 	tsteq	r1, r1, lsl #18
    102c:	18400612 	stmdane	r0, {r1, r4, r9, sl}^
    1030:	01194297 			; <UNDEFINED> instruction: 0x01194297
    1034:	0a000013 	beq	1088 <__code_start__-0x6f78>
    1038:	01018289 	smlabbeq	r1, r9, r2, r8
    103c:	13010111 	movwne	r0, #4369	; 0x1111
    1040:	8a0b0000 	bhi	2c1048 <__bss_end__+0x2b62a8>
    1044:	02000182 	andeq	r0, r0, #-2147483616	; 0x80000020
    1048:	18429118 	stmdane	r2, {r3, r4, r8, ip, pc}^
    104c:	890c0000 	stmdbhi	ip, {}	; <UNPREDICTABLE>
    1050:	11000182 	smlabbne	r0, r2, r1, r0
    1054:	00133101 	andseq	r3, r3, r1, lsl #2
    1058:	82890d00 	addhi	r0, r9, #0, 26
    105c:	01110101 	tsteq	r1, r1, lsl #2
    1060:	13011331 	movwne	r1, #4913	; 0x1331
    1064:	2e0e0000 	cdpcs	0, 0, cr0, cr14, cr0, {0}
    1068:	3c193f00 	ldccc	15, cr3, [r9], {-0}
    106c:	030e6e19 	movweq	r6, #60953	; 0xee19
    1070:	3b0b3a0e 	blcc	2cf8b0 <__bss_end__+0x2c4b10>
    1074:	000b390b 	andeq	r3, fp, fp, lsl #18
    1078:	11010000 	mrsne	r0, (UNDEF: 1)
    107c:	130e2501 	movwne	r2, #58625	; 0xe501
    1080:	1b0e030b 	blne	381cb4 <__bss_end__+0x376f14>
    1084:	1201110e 	andne	r1, r1, #-2147483645	; 0x80000003
    1088:	00171006 	andseq	r1, r7, r6
    108c:	00240200 	eoreq	r0, r4, r0, lsl #4
    1090:	0b3e0b0b 	bleq	f83cc4 <__bss_end__+0xf78f24>
    1094:	00000803 	andeq	r0, r0, r3, lsl #16
    1098:	0b002403 	bleq	a0ac <dmb+0x4>
    109c:	030b3e0b 	movweq	r3, #48651	; 0xbe0b
    10a0:	0400000e 	streq	r0, [r0], #-14
    10a4:	19270115 	stmdbne	r7!, {r0, r2, r4, r8}
    10a8:	13011349 	movwne	r1, #4937	; 0x1349
    10ac:	05050000 	streq	r0, [r5, #-0]
    10b0:	00134900 	andseq	r4, r3, r0, lsl #18
    10b4:	00340600 	eorseq	r0, r4, r0, lsl #12
    10b8:	0b3a0e03 	bleq	e848cc <__bss_end__+0xe79b2c>
    10bc:	0b390b3b 	bleq	e43db0 <__bss_end__+0xe39010>
    10c0:	193f1349 	ldmdbne	pc!, {r0, r3, r6, r8, r9, ip}	; <UNPREDICTABLE>
    10c4:	0000193c 	andeq	r1, r0, ip, lsr r9
    10c8:	0b000f07 	bleq	4cec <__code_start__-0x3314>
    10cc:	0013490b 	andseq	r4, r3, fp, lsl #18
    10d0:	00260800 	eoreq	r0, r6, r0, lsl #16
    10d4:	00001349 	andeq	r1, r0, r9, asr #6
    10d8:	3f012e09 	svccc	0x00012e09
    10dc:	3a0e0319 	bcc	381d48 <__bss_end__+0x376fa8>
    10e0:	390b3b0b 	stmdbcc	fp, {r0, r1, r3, r8, r9, fp, ip, sp}
    10e4:	1201110b 	andne	r1, r1, #-1073741822	; 0xc0000002
    10e8:	97184006 	ldrls	r4, [r8, -r6]
    10ec:	13011942 	movwne	r1, #6466	; 0x1942
    10f0:	2e0a0000 	cdpcs	0, 0, cr0, cr10, cr0, {0}
    10f4:	03193f00 	tsteq	r9, #0, 30
    10f8:	3b0b3a0e 	blcc	2cf938 <__bss_end__+0x2c4b98>
    10fc:	270b390b 	strcs	r3, [fp, -fp, lsl #18]
    1100:	00193c19 	andseq	r3, r9, r9, lsl ip
    1104:	00340b00 	eorseq	r0, r4, r0, lsl #22
    1108:	0b3a0803 	bleq	e8311c <__bss_end__+0xe7837c>
    110c:	0b390b3b 	bleq	e43e00 <__bss_end__+0xe39060>
    1110:	17021349 	strne	r1, [r2, -r9, asr #6]
    1114:	001742b7 			; <UNDEFINED> instruction: 0x001742b7
    1118:	00340c00 	eorseq	r0, r4, r0, lsl #24
    111c:	0b3a0e03 	bleq	e84930 <__bss_end__+0xe79b90>
    1120:	0b390b3b 	bleq	e43e14 <__bss_end__+0xe39074>
    1124:	00001349 	andeq	r1, r0, r9, asr #6
    1128:	11010b0d 	tstne	r1, sp, lsl #22
    112c:	01061201 	tsteq	r6, r1, lsl #4
    1130:	0e000013 	mcreq	0, 0, r0, cr0, cr3, {0}
    1134:	00018289 	andeq	r8, r1, r9, lsl #5
    1138:	13310111 	teqne	r1, #1073741828	; 0x40000004
    113c:	2e0f0000 	cdpcs	0, 0, cr0, cr15, cr0, {0}
    1140:	3c193f00 	ldccc	15, cr3, [r9], {-0}
    1144:	030e6e19 	movweq	r6, #60953	; 0xee19
    1148:	3b0b3a0e 	blcc	2cf988 <__bss_end__+0x2c4be8>
    114c:	000b3905 	andeq	r3, fp, r5, lsl #18
    1150:	002e1000 	eoreq	r1, lr, r0
    1154:	193c193f 	ldmdbne	ip!, {r0, r1, r2, r3, r4, r5, r8, fp, ip}
    1158:	0e030e6e 	cdpeq	14, 0, cr0, cr3, cr14, {3}
    115c:	0b3b0b3a 	bleq	ec3e4c <__bss_end__+0xeb90ac>
    1160:	00000b39 	andeq	r0, r0, r9, lsr fp
    1164:	01110100 	tsteq	r1, r0, lsl #2
    1168:	0b130e25 	bleq	4c4a04 <__bss_end__+0x4b9c64>
    116c:	0e1b0e03 	cdpeq	14, 1, cr0, cr11, cr3, {0}
    1170:	06120111 			; <UNDEFINED> instruction: 0x06120111
    1174:	00001710 	andeq	r1, r0, r0, lsl r7
    1178:	0b002402 	bleq	a188 <__FUNCTION__.4028+0x24>
    117c:	030b3e0b 	movweq	r3, #48651	; 0xbe0b
    1180:	03000008 	movweq	r0, #8
    1184:	0b0b0024 	bleq	2c121c <__bss_end__+0x2b647c>
    1188:	0e030b3e 	vmoveq.16	d3[0], r0
    118c:	15040000 	strne	r0, [r4, #-0]
    1190:	49192701 	ldmdbmi	r9, {r0, r8, r9, sl, sp}
    1194:	00130113 	andseq	r0, r3, r3, lsl r1
    1198:	00050500 	andeq	r0, r5, r0, lsl #10
    119c:	00001349 	andeq	r1, r0, r9, asr #6
    11a0:	03003406 	movweq	r3, #1030	; 0x406
    11a4:	3b0b3a0e 	blcc	2cf9e4 <__bss_end__+0x2c4c44>
    11a8:	490b390b 	stmdbmi	fp, {r0, r1, r3, r8, fp, ip, sp}
    11ac:	3c193f13 	ldccc	15, cr3, [r9], {19}
    11b0:	07000019 	smladeq	r0, r9, r0, r0
    11b4:	0b0b000f 	bleq	2c11f8 <__bss_end__+0x2b6458>
    11b8:	00001349 	andeq	r1, r0, r9, asr #6
    11bc:	49002608 	stmdbmi	r0, {r3, r9, sl, sp}
    11c0:	09000013 	stmdbeq	r0, {r0, r1, r4}
    11c4:	193f002e 	ldmdbne	pc!, {r1, r2, r3, r5}	; <UNPREDICTABLE>
    11c8:	0b3a0e03 	bleq	e849dc <__bss_end__+0xe79c3c>
    11cc:	0b390b3b 	bleq	e43ec0 <__bss_end__+0xe39120>
    11d0:	01111927 	tsteq	r1, r7, lsr #18
    11d4:	18400612 	stmdane	r0, {r1, r4, r9, sl}^
    11d8:	00194297 	mulseq	r9, r7, r2
    11dc:	11010000 	mrsne	r0, (UNDEF: 1)
    11e0:	130e2501 	movwne	r2, #58625	; 0xe501
    11e4:	1b0e030b 	blne	381e18 <__bss_end__+0x377078>
    11e8:	1117550e 	tstne	r7, lr, lsl #10
    11ec:	00171001 	andseq	r1, r7, r1
    11f0:	00240200 	eoreq	r0, r4, r0, lsl #4
    11f4:	0b3e0b0b 	bleq	f83e28 <__bss_end__+0xf79088>
    11f8:	00000803 	andeq	r0, r0, r3, lsl #16
    11fc:	49002603 	stmdbmi	r0, {r0, r1, r9, sl, sp}
    1200:	04000013 	streq	r0, [r0], #-19	; 0xffffffed
    1204:	0b0b0024 	bleq	2c129c <__bss_end__+0x2b64fc>
    1208:	0e030b3e 	vmoveq.16	d3[0], r0
    120c:	15050000 	strne	r0, [r5, #-0]
    1210:	49192701 	ldmdbmi	r9, {r0, r8, r9, sl, sp}
    1214:	00130113 	andseq	r0, r3, r3, lsl r1
    1218:	00050600 	andeq	r0, r5, r0, lsl #12
    121c:	00001349 	andeq	r1, r0, r9, asr #6
    1220:	03003407 	movweq	r3, #1031	; 0x407
    1224:	3b0b3a0e 	blcc	2cfa64 <__bss_end__+0x2c4cc4>
    1228:	490b390b 	stmdbmi	fp, {r0, r1, r3, r8, fp, ip, sp}
    122c:	3c193f13 	ldccc	15, cr3, [r9], {19}
    1230:	08000019 	stmdaeq	r0, {r0, r3, r4}
    1234:	0b0b000f 	bleq	2c1278 <__bss_end__+0x2b64d8>
    1238:	00001349 	andeq	r1, r0, r9, asr #6
    123c:	03003409 	movweq	r3, #1033	; 0x409
    1240:	3b0b3a0e 	blcc	2cfa80 <__bss_end__+0x2c4ce0>
    1244:	490b390b 	stmdbmi	fp, {r0, r1, r3, r8, fp, ip, sp}
    1248:	0a000013 	beq	129c <__code_start__-0x6d64>
    124c:	193f012e 	ldmdbne	pc!, {r1, r2, r3, r5, r8}	; <UNPREDICTABLE>
    1250:	0b3a0e03 	bleq	e84a64 <__bss_end__+0xe79cc4>
    1254:	0b390b3b 	bleq	e43f48 <__bss_end__+0xe391a8>
    1258:	01871927 	orreq	r1, r7, r7, lsr #18
    125c:	12011119 	andne	r1, r1, #1073741830	; 0x40000006
    1260:	97184006 	ldrls	r4, [r8, -r6]
    1264:	13011942 	movwne	r1, #6466	; 0x1942
    1268:	340b0000 	strcc	r0, [fp], #-0
    126c:	3a0e0300 	bcc	381e74 <__bss_end__+0x3770d4>
    1270:	390b3b0b 	stmdbcc	fp, {r0, r1, r3, r8, r9, fp, ip, sp}
    1274:	1c13490b 			; <UNDEFINED> instruction: 0x1c13490b
    1278:	0c000006 	stceq	0, cr0, [r0], {6}
    127c:	0e030034 	mcreq	0, 0, r0, cr3, cr4, {1}
    1280:	0b3b0b3a 	bleq	ec3f70 <__bss_end__+0xeb91d0>
    1284:	13490b39 	movtne	r0, #39737	; 0x9b39
    1288:	00000b1c 	andeq	r0, r0, ip, lsl fp
    128c:	31011d0d 	tstcc	r1, sp, lsl #26
    1290:	b8015213 	stmdalt	r1, {r0, r1, r4, r9, ip, lr}
    1294:	17550b42 	ldrbne	r0, [r5, -r2, asr #22]
    1298:	0b590b58 	bleq	1644000 <__bss_end__+0x1639260>
    129c:	13010b57 	movwne	r0, #6999	; 0x1b57
    12a0:	0b0e0000 	bleq	3812a8 <__bss_end__+0x376508>
    12a4:	00175501 	andseq	r5, r7, r1, lsl #10
    12a8:	00340f00 	eorseq	r0, r4, r0, lsl #30
    12ac:	17021331 	smladxne	r2, r1, r3, r1
    12b0:	001742b7 			; <UNDEFINED> instruction: 0x001742b7
    12b4:	011d1000 	tsteq	sp, r0
    12b8:	01521331 	cmpeq	r2, r1, lsr r3
    12bc:	110b42b8 			; <UNDEFINED> instruction: 0x110b42b8
    12c0:	58061201 	stmdapl	r6, {r0, r9, ip}
    12c4:	570b590b 	strpl	r5, [fp, -fp, lsl #18]
    12c8:	0013010b 	andseq	r0, r3, fp, lsl #2
    12cc:	82891100 	addhi	r1, r9, #0
    12d0:	01110001 	tsteq	r1, r1
    12d4:	00001331 	andeq	r1, r0, r1, lsr r3
    12d8:	01828912 	orreq	r8, r2, r2, lsl r9
    12dc:	31011101 	tstcc	r1, r1, lsl #2
    12e0:	00130113 	andseq	r0, r3, r3, lsl r1
    12e4:	828a1300 	addhi	r1, sl, #0, 6
    12e8:	18020001 	stmdane	r2, {r0}
    12ec:	00184291 	mulseq	r8, r1, r2
    12f0:	82891400 	addhi	r1, r9, #0, 8
    12f4:	01110101 	tsteq	r1, r1, lsl #2
    12f8:	00001331 	andeq	r1, r0, r1, lsr r3
    12fc:	3f012e15 	svccc	0x00012e15
    1300:	3a0e0319 	bcc	381f6c <__bss_end__+0x3771cc>
    1304:	390b3b0b 	stmdbcc	fp, {r0, r1, r3, r8, r9, fp, ip, sp}
    1308:	2019270b 	andscs	r2, r9, fp, lsl #14
    130c:	0013010b 	andseq	r0, r3, fp, lsl #2
    1310:	012e1600 			; <UNDEFINED> instruction: 0x012e1600
    1314:	0e03193f 			; <UNDEFINED> instruction: 0x0e03193f
    1318:	0b3b0b3a 	bleq	ec4008 <__bss_end__+0xeb9268>
    131c:	19270b39 	stmdbne	r7!, {r0, r3, r4, r5, r8, r9, fp}
    1320:	0b201349 	bleq	80604c <__bss_end__+0x7fb2ac>
    1324:	00001301 	andeq	r1, r0, r1, lsl #6
    1328:	31012e17 	tstcc	r1, r7, lsl lr
    132c:	12011113 	andne	r1, r1, #-1073741820	; 0xc0000004
    1330:	97184006 	ldrls	r4, [r8, -r6]
    1334:	13011942 	movwne	r1, #6466	; 0x1942
    1338:	2e180000 	cdpcs	0, 1, cr0, cr8, cr0, {0}
    133c:	3c193f00 	ldccc	15, cr3, [r9], {-0}
    1340:	030e6e19 	movweq	r6, #60953	; 0xee19
    1344:	3b0b3a0e 	blcc	2cfb84 <__bss_end__+0x2c4de4>
    1348:	000b3905 	andeq	r3, fp, r5, lsl #18
    134c:	002e1900 	eoreq	r1, lr, r0, lsl #18
    1350:	193c193f 	ldmdbne	ip!, {r0, r1, r2, r3, r4, r5, r8, fp, ip}
    1354:	0e030e6e 	cdpeq	14, 0, cr0, cr3, cr14, {3}
    1358:	0b3b0b3a 	bleq	ec4048 <__bss_end__+0xeb92a8>
    135c:	00000b39 	andeq	r0, r0, r9, lsr fp
    1360:	01110100 	tsteq	r1, r0, lsl #2
    1364:	0b130e25 	bleq	4c4c00 <__bss_end__+0x4b9e60>
    1368:	0e1b0e03 	cdpeq	14, 1, cr0, cr11, cr3, {0}
    136c:	06120111 			; <UNDEFINED> instruction: 0x06120111
    1370:	00001710 	andeq	r1, r0, r0, lsl r7
    1374:	0b002402 	bleq	a384 <__FUNCTION__.4058+0x124>
    1378:	030b3e0b 	movweq	r3, #48651	; 0xbe0b
    137c:	03000008 	movweq	r0, #8
    1380:	0b0b0024 	bleq	2c1418 <__bss_end__+0x2b6678>
    1384:	0e030b3e 	vmoveq.16	d3[0], r0
    1388:	15040000 	strne	r0, [r4, #-0]
    138c:	49192701 	ldmdbmi	r9, {r0, r8, r9, sl, sp}
    1390:	00130113 	andseq	r0, r3, r3, lsl r1
    1394:	00050500 	andeq	r0, r5, r0, lsl #10
    1398:	00001349 	andeq	r1, r0, r9, asr #6
    139c:	03003406 	movweq	r3, #1030	; 0x406
    13a0:	3b0b3a0e 	blcc	2cfbe0 <__bss_end__+0x2c4e40>
    13a4:	490b390b 	stmdbmi	fp, {r0, r1, r3, r8, fp, ip, sp}
    13a8:	3c193f13 	ldccc	15, cr3, [r9], {19}
    13ac:	07000019 	smladeq	r0, r9, r0, r0
    13b0:	0b0b000f 	bleq	2c13f4 <__bss_end__+0x2b6654>
    13b4:	00001349 	andeq	r1, r0, r9, asr #6
    13b8:	49002608 	stmdbmi	r0, {r3, r9, sl, sp}
    13bc:	09000013 	stmdbeq	r0, {r0, r1, r4}
    13c0:	193f012e 	ldmdbne	pc!, {r1, r2, r3, r5, r8}	; <UNPREDICTABLE>
    13c4:	0b3a0e03 	bleq	e84bd8 <__bss_end__+0xe79e38>
    13c8:	0b390b3b 	bleq	e440bc <__bss_end__+0xe3931c>
    13cc:	01111927 	tsteq	r1, r7, lsr #18
    13d0:	18400612 	stmdane	r0, {r1, r4, r9, sl}^
    13d4:	01194297 			; <UNDEFINED> instruction: 0x01194297
    13d8:	0a000013 	beq	142c <__code_start__-0x6bd4>
    13dc:	08030005 	stmdaeq	r3, {r0, r2}
    13e0:	0b3b0b3a 	bleq	ec40d0 <__bss_end__+0xeb9330>
    13e4:	13490b39 	movtne	r0, #39737	; 0x9b39
    13e8:	42b71702 	adcsmi	r1, r7, #524288	; 0x80000
    13ec:	0b000017 	bleq	1450 <__code_start__-0x6bb0>
    13f0:	1331011d 	teqne	r1, #1073741831	; 0x40000007
    13f4:	42b80152 	adcsmi	r0, r8, #-2147483628	; 0x80000014
    13f8:	5817550b 	ldmdapl	r7, {r0, r1, r3, r8, sl, ip, lr}
    13fc:	570b590b 	strpl	r5, [fp, -fp, lsl #18]
    1400:	0c00000b 	stceq	0, cr0, [r0], {11}
    1404:	13310005 	teqne	r1, #5, 0
    1408:	42b71702 	adcsmi	r1, r7, #524288	; 0x80000
    140c:	0d000017 	stceq	0, cr0, [r0, #-92]	; 0xffffffa4
    1410:	1331011d 	teqne	r1, #1073741831	; 0x40000007
    1414:	42b80152 	adcsmi	r0, r8, #-2147483628	; 0x80000014
    1418:	1201110b 	andne	r1, r1, #-1073741822	; 0xc0000002
    141c:	590b5806 	stmdbpl	fp, {r1, r2, fp, ip, lr}
    1420:	000b570b 	andeq	r5, fp, fp, lsl #14
    1424:	00340e00 	eorseq	r0, r4, r0, lsl #28
    1428:	17021331 	smladxne	r2, r1, r3, r1
    142c:	001742b7 			; <UNDEFINED> instruction: 0x001742b7
    1430:	011d0f00 	tsteq	sp, r0, lsl #30
    1434:	01521331 	cmpeq	r2, r1, lsr r3
    1438:	110b42b8 			; <UNDEFINED> instruction: 0x110b42b8
    143c:	58061201 	stmdapl	r6, {r0, r9, ip}
    1440:	570b590b 	strpl	r5, [fp, -fp, lsl #18]
    1444:	0013010b 	andseq	r0, r3, fp, lsl #2
    1448:	82891000 	addhi	r1, r9, #0, 0
    144c:	01110101 	tsteq	r1, r1, lsl #2
    1450:	00001331 	andeq	r1, r0, r1, lsr r3
    1454:	01828a11 	orreq	r8, r2, r1, lsl sl
    1458:	91180200 	tstls	r8, r0, lsl #4
    145c:	00001842 	andeq	r1, r0, r2, asr #16
    1460:	01828912 	orreq	r8, r2, r2, lsl r9
    1464:	31011100 	mrscc	r1, (UNDEF: 17)
    1468:	13000013 	movwne	r0, #19
    146c:	1331010b 	teqne	r1, #-1073741822	; 0xc0000002
    1470:	00001755 	andeq	r1, r0, r5, asr r7
    1474:	31003414 	tstcc	r0, r4, lsl r4
    1478:	15000013 	strne	r0, [r0, #-19]	; 0xffffffed
    147c:	1755010b 	ldrbne	r0, [r5, -fp, lsl #2]
    1480:	1d160000 	ldcne	0, cr0, [r6, #-0]
    1484:	52133101 	andspl	r3, r3, #1073741824	; 0x40000000
    1488:	0b42b801 	bleq	10af494 <__bss_end__+0x10a46f4>
    148c:	0b581755 	bleq	16071e8 <__bss_end__+0x15fc448>
    1490:	0b570b59 	bleq	15c41fc <__bss_end__+0x15b945c>
    1494:	00001301 	andeq	r1, r0, r1, lsl #6
    1498:	3f012e17 	svccc	0x00012e17
    149c:	3a0e0319 	bcc	382108 <__bss_end__+0x377368>
    14a0:	390b3b0b 	stmdbcc	fp, {r0, r1, r3, r8, r9, fp, ip, sp}
    14a4:	2019270b 	andscs	r2, r9, fp, lsl #14
    14a8:	0013010b 	andseq	r0, r3, fp, lsl #2
    14ac:	00051800 	andeq	r1, r5, r0, lsl #16
    14b0:	0b3a0803 	bleq	e834c4 <__bss_end__+0xe78724>
    14b4:	0b390b3b 	bleq	e441a8 <__bss_end__+0xe39408>
    14b8:	00001349 	andeq	r1, r0, r9, asr #6
    14bc:	03003419 	movweq	r3, #1049	; 0x419
    14c0:	3b0b3a08 	blcc	2cfce8 <__bss_end__+0x2c4f48>
    14c4:	490b390b 	stmdbmi	fp, {r0, r1, r3, r8, fp, ip, sp}
    14c8:	1a000013 	bne	151c <__code_start__-0x6ae4>
    14cc:	0000010b 	andeq	r0, r0, fp, lsl #2
    14d0:	3f012e1b 	svccc	0x00012e1b
    14d4:	3a0e0319 	bcc	382140 <__bss_end__+0x3773a0>
    14d8:	390b3b0b 	stmdbcc	fp, {r0, r1, r3, r8, r9, fp, ip, sp}
    14dc:	4919270b 	ldmdbmi	r9, {r0, r1, r3, r8, r9, sl, sp}
    14e0:	010b2013 	tsteq	fp, r3, lsl r0
    14e4:	1c000013 	stcne	0, cr0, [r0], {19}
    14e8:	193f002e 	ldmdbne	pc!, {r1, r2, r3, r5}	; <UNPREDICTABLE>
    14ec:	0b3a0e03 	bleq	e84d00 <__bss_end__+0xe79f60>
    14f0:	0b390b3b 	bleq	e441e4 <__bss_end__+0xe39444>
    14f4:	13491927 	movtne	r1, #39207	; 0x9927
    14f8:	00000b20 	andeq	r0, r0, r0, lsr #22
    14fc:	31012e1d 	tstcc	r1, sp, lsl lr
    1500:	12011113 	andne	r1, r1, #-1073741820	; 0xc0000004
    1504:	97184006 	ldrls	r4, [r8, -r6]
    1508:	13011942 	movwne	r1, #6466	; 0x1942
    150c:	891e0000 	ldmdbhi	lr, {}	; <UNPREDICTABLE>
    1510:	11010182 	smlabbne	r1, r2, r1, r0
    1514:	19429501 	stmdbne	r2, {r0, r8, sl, ip, pc}^
    1518:	00001331 	andeq	r1, r0, r1, lsr r3
    151c:	3f002e1f 	svccc	0x00002e1f
    1520:	6e193c19 	mrcvs	12, 0, r3, cr9, cr9, {0}
    1524:	3a0e030e 	bcc	382164 <__bss_end__+0x3773c4>
    1528:	390b3b0b 	stmdbcc	fp, {r0, r1, r3, r8, r9, fp, ip, sp}
    152c:	0000000b 	andeq	r0, r0, fp
    1530:	25011101 	strcs	r1, [r1, #-257]	; 0xfffffeff
    1534:	030b130e 	movweq	r1, #45838	; 0xb30e
    1538:	110e1b0e 	tstne	lr, lr, lsl #22
    153c:	10061201 	andne	r1, r6, r1, lsl #4
    1540:	02000017 	andeq	r0, r0, #23, 0
    1544:	0b0b0024 	bleq	2c15dc <__bss_end__+0x2b683c>
    1548:	08030b3e 	stmdaeq	r3, {r1, r2, r3, r4, r5, r8, r9, fp}
    154c:	24030000 	strcs	r0, [r3], #-0
    1550:	3e0b0b00 	vmlacc.f64	d0, d11, d0
    1554:	000e030b 	andeq	r0, lr, fp, lsl #6
    1558:	00350400 	eorseq	r0, r5, r0, lsl #8
    155c:	00001349 	andeq	r1, r0, r9, asr #6
    1560:	03001605 	movweq	r1, #1541	; 0x605
    1564:	3b0b3a0e 	blcc	2cfda4 <__bss_end__+0x2c5004>
    1568:	490b390b 	stmdbmi	fp, {r0, r1, r3, r8, fp, ip, sp}
    156c:	06000013 			; <UNDEFINED> instruction: 0x06000013
    1570:	0b3e0104 	bleq	f81988 <__bss_end__+0xf76be8>
    1574:	13490b0b 	movtne	r0, #39691	; 0x9b0b
    1578:	0b3b0b3a 	bleq	ec4268 <__bss_end__+0xeb94c8>
    157c:	13010b39 	movwne	r0, #6969	; 0x1b39
    1580:	28070000 	stmdacs	r7, {}	; <UNPREDICTABLE>
    1584:	1c0e0300 	stcne	3, cr0, [lr], {-0}
    1588:	0800000b 	stmdaeq	r0, {r0, r1, r3}
    158c:	0e030113 	mcreq	1, 0, r0, cr3, cr3, {0}
    1590:	0b3a0b0b 	bleq	e841c4 <__bss_end__+0xe79424>
    1594:	0b390b3b 	bleq	e44288 <__bss_end__+0xe394e8>
    1598:	00001301 	andeq	r1, r0, r1, lsl #6
    159c:	03000d09 	movweq	r0, #3337	; 0xd09
    15a0:	3b0b3a08 	blcc	2cfdc8 <__bss_end__+0x2c5028>
    15a4:	490b390b 	stmdbmi	fp, {r0, r1, r3, r8, fp, ip, sp}
    15a8:	000b3813 	andeq	r3, fp, r3, lsl r8
    15ac:	000d0a00 	andeq	r0, sp, r0, lsl #20
    15b0:	0b3a0e03 	bleq	e84dc4 <__bss_end__+0xe7a024>
    15b4:	0b390b3b 	bleq	e442a8 <__bss_end__+0xe39508>
    15b8:	0b381349 	bleq	e062e4 <__bss_end__+0xdfb544>
    15bc:	340b0000 	strcc	r0, [fp], #-0
    15c0:	3a0e0300 	bcc	3821c8 <__bss_end__+0x377428>
    15c4:	390b3b0b 	stmdbcc	fp, {r0, r1, r3, r8, r9, fp, ip, sp}
    15c8:	1c13490b 			; <UNDEFINED> instruction: 0x1c13490b
    15cc:	0c000006 	stceq	0, cr0, [r0], {6}
    15d0:	0b0b000f 	bleq	2c1614 <__bss_end__+0x2b6874>
    15d4:	00001349 	andeq	r1, r0, r9, asr #6
    15d8:	4900260d 	stmdbmi	r0, {r0, r2, r3, r9, sl, sp}
    15dc:	0e000013 	mcreq	0, 0, r0, cr0, cr3, {0}
    15e0:	193f012e 	ldmdbne	pc!, {r1, r2, r3, r5, r8}	; <UNPREDICTABLE>
    15e4:	0b3a0e03 	bleq	e84df8 <__bss_end__+0xe7a058>
    15e8:	0b390b3b 	bleq	e442dc <__bss_end__+0xe3953c>
    15ec:	01111927 	tsteq	r1, r7, lsr #18
    15f0:	18400612 	stmdane	r0, {r1, r4, r9, sl}^
    15f4:	01194297 			; <UNDEFINED> instruction: 0x01194297
    15f8:	0f000013 	svceq	0x00000013
    15fc:	00018289 	andeq	r8, r1, r9, lsl #5
    1600:	13310111 	teqne	r1, #1073741828	; 0x40000004
    1604:	2e100000 	cdpcs	0, 1, cr0, cr0, cr0, {0}
    1608:	03193f01 	tsteq	r9, #1, 30
    160c:	3b0b3a0e 	blcc	2cfe4c <__bss_end__+0x2c50ac>
    1610:	270b390b 	strcs	r3, [fp, -fp, lsl #18]
    1614:	11134919 	tstne	r3, r9, lsl r9
    1618:	40061201 	andmi	r1, r6, r1, lsl #4
    161c:	19429718 	stmdbne	r2, {r3, r4, r8, r9, sl, ip, pc}^
    1620:	00001301 	andeq	r1, r0, r1, lsl #6
    1624:	01828911 	orreq	r8, r2, r1, lsl r9
    1628:	31011101 	tstcc	r1, r1, lsl #2
    162c:	12000013 	andne	r0, r0, #19, 0
    1630:	0001828a 	andeq	r8, r1, sl, lsl #5
    1634:	42911802 	addsmi	r1, r1, #131072	; 0x20000
    1638:	13000018 	movwne	r0, #24
    163c:	08030005 	stmdaeq	r3, {r0, r2}
    1640:	0b3b0b3a 	bleq	ec4330 <__bss_end__+0xeb9590>
    1644:	13490b39 	movtne	r0, #39737	; 0x9b39
    1648:	42b71702 	adcsmi	r1, r7, #524288	; 0x80000
    164c:	14000017 	strne	r0, [r0], #-23	; 0xffffffe9
    1650:	01018289 	smlabbeq	r1, r9, r2, r8
    1654:	13310111 	teqne	r1, #1073741828	; 0x40000004
    1658:	00001301 	andeq	r1, r0, r1, lsl #6
    165c:	03003415 	movweq	r3, #1045	; 0x415
    1660:	3b0b3a08 	blcc	2cfe88 <__bss_end__+0x2c50e8>
    1664:	490b390b 	stmdbmi	fp, {r0, r1, r3, r8, fp, ip, sp}
    1668:	b7170213 			; <UNDEFINED> instruction: 0xb7170213
    166c:	00001742 	andeq	r1, r0, r2, asr #14
    1670:	03003416 	movweq	r3, #1046	; 0x416
    1674:	3b0b3a0e 	blcc	2cfeb4 <__bss_end__+0x2c5114>
    1678:	490b390b 	stmdbmi	fp, {r0, r1, r3, r8, fp, ip, sp}
    167c:	00051c13 	andeq	r1, r5, r3, lsl ip
    1680:	012e1700 			; <UNDEFINED> instruction: 0x012e1700
    1684:	0b3a0e03 	bleq	e84e98 <__bss_end__+0xe7a0f8>
    1688:	0b390b3b 	bleq	e4437c <__bss_end__+0xe395dc>
    168c:	01111927 	tsteq	r1, r7, lsr #18
    1690:	18400612 	stmdane	r0, {r1, r4, r9, sl}^
    1694:	01194297 			; <UNDEFINED> instruction: 0x01194297
    1698:	18000013 	stmdane	r0, {r0, r1, r4}
    169c:	0e030005 	cdpeq	0, 0, cr0, cr3, cr5, {0}
    16a0:	0b3b0b3a 	bleq	ec4390 <__bss_end__+0xeb95f0>
    16a4:	13490b39 	movtne	r0, #39737	; 0x9b39
    16a8:	42b71702 	adcsmi	r1, r7, #524288	; 0x80000
    16ac:	19000017 	stmdbne	r0, {r0, r1, r2, r4}
    16b0:	00000035 	andeq	r0, r0, r5, lsr r0
    16b4:	3f002e1a 	svccc	0x00002e1a
    16b8:	6e193c19 	mrcvs	12, 0, r3, cr9, cr9, {0}
    16bc:	3a0e030e 	bcc	3822fc <__bss_end__+0x37755c>
    16c0:	390b3b0b 	stmdbcc	fp, {r0, r1, r3, r8, r9, fp, ip, sp}
    16c4:	0000000b 	andeq	r0, r0, fp
    16c8:	25011101 	strcs	r1, [r1, #-257]	; 0xfffffeff
    16cc:	030b130e 	movweq	r1, #45838	; 0xb30e
    16d0:	110e1b0e 	tstne	lr, lr, lsl #22
    16d4:	10061201 	andne	r1, r6, r1, lsl #4
    16d8:	02000017 	andeq	r0, r0, #23, 0
    16dc:	0b0b0024 	bleq	2c1774 <__bss_end__+0x2b69d4>
    16e0:	08030b3e 	stmdaeq	r3, {r1, r2, r3, r4, r5, r8, r9, fp}
    16e4:	24030000 	strcs	r0, [r3], #-0
    16e8:	3e0b0b00 	vmlacc.f64	d0, d11, d0
    16ec:	000e030b 	andeq	r0, lr, fp, lsl #6
    16f0:	00160400 	andseq	r0, r6, r0, lsl #8
    16f4:	0b3a0e03 	bleq	e84f08 <__bss_end__+0xe7a168>
    16f8:	0b390b3b 	bleq	e443ec <__bss_end__+0xe3964c>
    16fc:	00001349 	andeq	r1, r0, r9, asr #6
    1700:	49002605 	stmdbmi	r0, {r0, r2, r9, sl, sp}
    1704:	06000013 			; <UNDEFINED> instruction: 0x06000013
    1708:	0b0b000f 	bleq	2c174c <__bss_end__+0x2b69ac>
    170c:	04070000 	streq	r0, [r7], #-0
    1710:	0b0b3e01 	bleq	2d0f1c <__bss_end__+0x2c617c>
    1714:	3a13490b 	bcc	4d3b48 <__bss_end__+0x4c8da8>
    1718:	390b3b0b 	stmdbcc	fp, {r0, r1, r3, r8, r9, fp, ip, sp}
    171c:	0013010b 	andseq	r0, r3, fp, lsl #2
    1720:	00280800 	eoreq	r0, r8, r0, lsl #16
    1724:	061c0e03 	ldreq	r0, [ip], -r3, lsl #28
    1728:	34090000 	strcc	r0, [r9], #-0
    172c:	3a0e0300 	bcc	382334 <__bss_end__+0x377594>
    1730:	390b3b0b 	stmdbcc	fp, {r0, r1, r3, r8, r9, fp, ip, sp}
    1734:	3f13490b 	svccc	0x0013490b
    1738:	00193c19 	andseq	r3, r9, r9, lsl ip
    173c:	00340a00 	eorseq	r0, r4, r0, lsl #20
    1740:	0b3a0e03 	bleq	e84f54 <__bss_end__+0xe7a1b4>
    1744:	0b390b3b 	bleq	e44438 <__bss_end__+0xe39698>
    1748:	18021349 	stmdane	r2, {r0, r3, r6, r8, r9, ip}
    174c:	0f0b0000 	svceq	0x000b0000
    1750:	490b0b00 	stmdbmi	fp, {r8, r9, fp}
    1754:	0c000013 	stceq	0, cr0, [r0], {19}
    1758:	193f012e 	ldmdbne	pc!, {r1, r2, r3, r5, r8}	; <UNPREDICTABLE>
    175c:	0b3a0e03 	bleq	e84f70 <__bss_end__+0xe7a1d0>
    1760:	0b390b3b 	bleq	e44454 <__bss_end__+0xe396b4>
    1764:	01111927 	tsteq	r1, r7, lsr #18
    1768:	18400612 	stmdane	r0, {r1, r4, r9, sl}^
    176c:	01194297 			; <UNDEFINED> instruction: 0x01194297
    1770:	0d000013 	stceq	0, cr0, [r0, #-76]	; 0xffffffb4
    1774:	08030005 	stmdaeq	r3, {r0, r2}
    1778:	0b3b0b3a 	bleq	ec4468 <__bss_end__+0xeb96c8>
    177c:	13490b39 	movtne	r0, #39737	; 0x9b39
    1780:	42b71702 	adcsmi	r1, r7, #524288	; 0x80000
    1784:	0e000017 	mcreq	0, 0, r0, cr0, cr7, {0}
    1788:	0e030034 	mcreq	0, 0, r0, cr3, cr4, {1}
    178c:	19341349 	ldmdbne	r4!, {r0, r3, r6, r8, r9, ip}
    1790:	00001802 	andeq	r1, r0, r2, lsl #16
    1794:	0182890f 	orreq	r8, r2, pc, lsl #18
    1798:	31011101 	tstcc	r1, r1, lsl #2
    179c:	00130113 	andseq	r0, r3, r3, lsl r1
    17a0:	828a1000 	addhi	r1, sl, #0, 0
    17a4:	18020001 	stmdane	r2, {r0}
    17a8:	00184291 	mulseq	r8, r1, r2
    17ac:	82891100 	addhi	r1, r9, #0
    17b0:	01110001 	tsteq	r1, r1
    17b4:	00001331 	andeq	r1, r0, r1, lsr r3
    17b8:	49010112 	stmdbmi	r1, {r1, r4, r8}
    17bc:	00130113 	andseq	r0, r3, r3, lsl r1
    17c0:	00211300 	eoreq	r1, r1, r0, lsl #6
    17c4:	0b2f1349 	bleq	bc64f0 <__bss_end__+0xbbb750>
    17c8:	2e140000 	cdpcs	0, 1, cr0, cr4, cr0, {0}
    17cc:	03193f00 	tsteq	r9, #0, 30
    17d0:	3b0b3a0e 	blcc	2d0010 <__bss_end__+0x2c5270>
    17d4:	270b390b 	strcs	r3, [fp, -fp, lsl #18]
    17d8:	12011119 	andne	r1, r1, #1073741830	; 0x40000006
    17dc:	97184006 	ldrls	r4, [r8, -r6]
    17e0:	00001942 	andeq	r1, r0, r2, asr #18
    17e4:	03000515 	movweq	r0, #1301	; 0x515
    17e8:	3b0b3a08 	blcc	2d0010 <__bss_end__+0x2c5270>
    17ec:	490b390b 	stmdbmi	fp, {r0, r1, r3, r8, fp, ip, sp}
    17f0:	00180213 	andseq	r0, r8, r3, lsl r2
    17f4:	012e1600 			; <UNDEFINED> instruction: 0x012e1600
    17f8:	0e03193f 			; <UNDEFINED> instruction: 0x0e03193f
    17fc:	0b3b0b3a 	bleq	ec44ec <__bss_end__+0xeb974c>
    1800:	19270b39 	stmdbne	r7!, {r0, r3, r4, r5, r8, r9, fp}
    1804:	01111349 	tsteq	r1, r9, asr #6
    1808:	18400612 	stmdane	r0, {r1, r4, r9, sl}^
    180c:	01194297 			; <UNDEFINED> instruction: 0x01194297
    1810:	17000013 	smladne	r0, r3, r0, r0
    1814:	0e030005 	cdpeq	0, 0, cr0, cr3, cr5, {0}
    1818:	0b3b0b3a 	bleq	ec4508 <__bss_end__+0xeb9768>
    181c:	13490b39 	movtne	r0, #39737	; 0x9b39
    1820:	42b71702 	adcsmi	r1, r7, #524288	; 0x80000
    1824:	18000017 	stmdane	r0, {r0, r1, r2, r4}
    1828:	08030034 	stmdaeq	r3, {r2, r4, r5}
    182c:	0b3b0b3a 	bleq	ec451c <__bss_end__+0xeb977c>
    1830:	13490b39 	movtne	r0, #39737	; 0x9b39
    1834:	42b71702 	adcsmi	r1, r7, #524288	; 0x80000
    1838:	19000017 	stmdbne	r0, {r0, r1, r2, r4}
    183c:	1331011d 	teqne	r1, #1073741831	; 0x40000007
    1840:	42b80152 	adcsmi	r0, r8, #-2147483628	; 0x80000014
    1844:	1201110b 	andne	r1, r1, #-1073741822	; 0xc0000002
    1848:	590b5806 	stmdbpl	fp, {r1, r2, fp, ip, lr}
    184c:	010b570b 	tsteq	fp, fp, lsl #14
    1850:	1a000013 	bne	18a4 <__code_start__-0x675c>
    1854:	13310005 	teqne	r1, #5, 0
    1858:	42b71702 	adcsmi	r1, r7, #524288	; 0x80000
    185c:	1b000017 	blne	18c0 <__code_start__-0x6740>
    1860:	1331011d 	teqne	r1, #1073741831	; 0x40000007
    1864:	42b80152 	adcsmi	r0, r8, #-2147483628	; 0x80000014
    1868:	5817550b 	ldmdapl	r7, {r0, r1, r3, r8, sl, ip, lr}
    186c:	570b590b 	strpl	r5, [fp, -fp, lsl #18]
    1870:	0013010b 	andseq	r0, r3, fp, lsl #2
    1874:	010b1c00 	tsteq	fp, r0, lsl #24
    1878:	00001755 	andeq	r1, r0, r5, asr r7
    187c:	0300341d 	movweq	r3, #1053	; 0x41d
    1880:	3b0b3a0e 	blcc	2d00c0 <__bss_end__+0x2c5320>
    1884:	490b390b 	stmdbmi	fp, {r0, r1, r3, r8, fp, ip, sp}
    1888:	b7170213 			; <UNDEFINED> instruction: 0xb7170213
    188c:	00001742 	andeq	r1, r0, r2, asr #14
    1890:	55000b1e 	strpl	r0, [r0, #-2846]	; 0xfffff4e2
    1894:	1f000017 	svcne	0x00000017
    1898:	193f002e 	ldmdbne	pc!, {r1, r2, r3, r5}	; <UNPREDICTABLE>
    189c:	0b3a0e03 	bleq	e850b0 <__bss_end__+0xe7a310>
    18a0:	0b390b3b 	bleq	e44594 <__bss_end__+0xe397f4>
    18a4:	13491927 	movtne	r1, #39207	; 0x9927
    18a8:	06120111 			; <UNDEFINED> instruction: 0x06120111
    18ac:	42971840 	addsmi	r1, r7, #64, 16	; 0x400000
    18b0:	20000019 	andcs	r0, r0, r9, lsl r0
    18b4:	0e03012e 	adfeqsp	f0, f3, #0.5
    18b8:	0b3b0b3a 	bleq	ec45a8 <__bss_end__+0xeb9808>
    18bc:	19270b39 	stmdbne	r7!, {r0, r3, r4, r5, r8, r9, fp}
    18c0:	0b201349 	bleq	8065ec <__bss_end__+0x7fb84c>
    18c4:	00001301 	andeq	r1, r0, r1, lsl #6
    18c8:	03000521 	movweq	r0, #1313	; 0x521
    18cc:	3b0b3a08 	blcc	2d00f4 <__bss_end__+0x2c5354>
    18d0:	490b390b 	stmdbmi	fp, {r0, r1, r3, r8, fp, ip, sp}
    18d4:	22000013 	andcs	r0, r0, #19, 0
    18d8:	193f002e 	ldmdbne	pc!, {r1, r2, r3, r5}	; <UNPREDICTABLE>
    18dc:	0e6e193c 			; <UNDEFINED> instruction: 0x0e6e193c
    18e0:	0b3a0e03 	bleq	e850f4 <__bss_end__+0xe7a354>
    18e4:	0b390b3b 	bleq	e445d8 <__bss_end__+0xe39838>
    18e8:	01000000 	mrseq	r0, (UNDEF: 0)
    18ec:	0e250111 	mcreq	1, 1, r0, cr5, cr1, {0}
    18f0:	0e030b13 	vmoveq.32	d3[0], r0
    18f4:	01110e1b 	tsteq	r1, fp, lsl lr
    18f8:	17100612 			; <UNDEFINED> instruction: 0x17100612
    18fc:	24020000 	strcs	r0, [r2], #-0
    1900:	3e0b0b00 	vmlacc.f64	d0, d11, d0
    1904:	000e030b 	andeq	r0, lr, fp, lsl #6
    1908:	00240300 	eoreq	r0, r4, r0, lsl #6
    190c:	0b3e0b0b 	bleq	f84540 <__bss_end__+0xf797a0>
    1910:	00000803 	andeq	r0, r0, r3, lsl #16
    1914:	49002604 	stmdbmi	r0, {r2, r9, sl, sp}
    1918:	05000013 	streq	r0, [r0, #-19]	; 0xffffffed
    191c:	0e030016 	mcreq	0, 0, r0, cr3, cr6, {0}
    1920:	0b3b0b3a 	bleq	ec4610 <__bss_end__+0xeb9870>
    1924:	13490b39 	movtne	r0, #39737	; 0x9b39
    1928:	15060000 	strne	r0, [r6, #-0]
    192c:	49192701 	ldmdbmi	r9, {r0, r8, r9, sl, sp}
    1930:	00130113 	andseq	r0, r3, r3, lsl r1
    1934:	00050700 	andeq	r0, r5, r0, lsl #14
    1938:	00001349 	andeq	r1, r0, r9, asr #6
    193c:	03003408 	movweq	r3, #1032	; 0x408
    1940:	3b0b3a0e 	blcc	2d0180 <__bss_end__+0x2c53e0>
    1944:	490b390b 	stmdbmi	fp, {r0, r1, r3, r8, fp, ip, sp}
    1948:	3c193f13 	ldccc	15, cr3, [r9], {19}
    194c:	09000019 	stmdbeq	r0, {r0, r3, r4}
    1950:	0b0b000f 	bleq	2c1994 <__bss_end__+0x2b6bf4>
    1954:	00001349 	andeq	r1, r0, r9, asr #6
    1958:	3e01040a 	cdpcc	4, 0, cr0, cr1, cr10, {0}
    195c:	490b0b0b 	stmdbmi	fp, {r0, r1, r3, r8, r9, fp}
    1960:	3b0b3a13 	blcc	2d01b4 <__bss_end__+0x2c5414>
    1964:	010b390b 	tsteq	fp, fp, lsl #18
    1968:	0b000013 	bleq	19bc <__code_start__-0x6644>
    196c:	0e030028 	cdpeq	0, 0, cr0, cr3, cr8, {1}
    1970:	00000b1c 	andeq	r0, r0, ip, lsl fp
    1974:	0300340c 	movweq	r3, #1036	; 0x40c
    1978:	3b0b3a0e 	blcc	2d01b8 <__bss_end__+0x2c5418>
    197c:	490b390b 	stmdbmi	fp, {r0, r1, r3, r8, fp, ip, sp}
    1980:	00061c13 	andeq	r1, r6, r3, lsl ip
    1984:	012e0d00 			; <UNDEFINED> instruction: 0x012e0d00
    1988:	0e03193f 			; <UNDEFINED> instruction: 0x0e03193f
    198c:	0b3b0b3a 	bleq	ec467c <__bss_end__+0xeb98dc>
    1990:	19270b39 	stmdbne	r7!, {r0, r3, r4, r5, r8, r9, fp}
    1994:	01111349 	tsteq	r1, r9, asr #6
    1998:	18400612 	stmdane	r0, {r1, r4, r9, sl}^
    199c:	01194297 			; <UNDEFINED> instruction: 0x01194297
    19a0:	0e000013 	mcreq	0, 0, r0, cr0, cr3, {0}
    19a4:	08030005 	stmdaeq	r3, {r0, r2}
    19a8:	0b3b0b3a 	bleq	ec4698 <__bss_end__+0xeb98f8>
    19ac:	13490b39 	movtne	r0, #39737	; 0x9b39
    19b0:	42b71702 	adcsmi	r1, r7, #524288	; 0x80000
    19b4:	0f000017 	svceq	0x00000017
    19b8:	0e030034 	mcreq	0, 0, r0, cr3, cr4, {1}
    19bc:	0b3b0b3a 	bleq	ec46ac <__bss_end__+0xeb990c>
    19c0:	13490b39 	movtne	r0, #39737	; 0x9b39
    19c4:	42b71702 	adcsmi	r1, r7, #524288	; 0x80000
    19c8:	10000017 	andne	r0, r0, r7, lsl r0
    19cc:	08030034 	stmdaeq	r3, {r2, r4, r5}
    19d0:	0b3b0b3a 	bleq	ec46c0 <__bss_end__+0xeb9920>
    19d4:	13490b39 	movtne	r0, #39737	; 0x9b39
    19d8:	42b71702 	adcsmi	r1, r7, #524288	; 0x80000
    19dc:	11000017 	tstne	r0, r7, lsl r0
    19e0:	01018289 	smlabbeq	r1, r9, r2, r8
    19e4:	13310111 	teqne	r1, #1073741828	; 0x40000004
    19e8:	8a120000 	bhi	4819f0 <__bss_end__+0x476c50>
    19ec:	02000182 	andeq	r0, r0, #-2147483616	; 0x80000020
    19f0:	18429118 	stmdane	r2, {r3, r4, r8, ip, pc}^
    19f4:	2e130000 	cdpcs	0, 1, cr0, cr3, cr0, {0}
    19f8:	03193f01 	tsteq	r9, #1, 30
    19fc:	3b0b3a0e 	blcc	2d023c <__bss_end__+0x2c549c>
    1a00:	270b390b 	strcs	r3, [fp, -fp, lsl #18]
    1a04:	12011119 	andne	r1, r1, #1073741830	; 0x40000006
    1a08:	97184006 	ldrls	r4, [r8, -r6]
    1a0c:	13011942 	movwne	r1, #6466	; 0x1942
    1a10:	1d140000 	ldcne	0, cr0, [r4, #-0]
    1a14:	52133101 	andspl	r3, r3, #1073741824	; 0x40000000
    1a18:	0b42b801 	bleq	10afa24 <__bss_end__+0x10a4c84>
    1a1c:	0b581755 	bleq	1607778 <__bss_end__+0x15fc9d8>
    1a20:	0b570b59 	bleq	15c478c <__bss_end__+0x15b99ec>
    1a24:	00001301 	andeq	r1, r0, r1, lsl #6
    1a28:	31000515 	tstcc	r0, r5, lsl r5
    1a2c:	b7170213 			; <UNDEFINED> instruction: 0xb7170213
    1a30:	00001742 	andeq	r1, r0, r2, asr #14
    1a34:	01828916 	orreq	r8, r2, r6, lsl r9
    1a38:	95011101 	strls	r1, [r1, #-257]	; 0xfffffeff
    1a3c:	13311942 	teqne	r1, #1081344	; 0x108000
    1a40:	1d170000 	ldcne	0, cr0, [r7, #-0]
    1a44:	52133101 	andspl	r3, r3, #1073741824	; 0x40000000
    1a48:	0b42b801 	bleq	10afa54 <__bss_end__+0x10a4cb4>
    1a4c:	06120111 			; <UNDEFINED> instruction: 0x06120111
    1a50:	0b590b58 	bleq	16447b8 <__bss_end__+0x1639a18>
    1a54:	00000b57 	andeq	r0, r0, r7, asr fp
    1a58:	31011d18 	tstcc	r1, r8, lsl sp
    1a5c:	b8015213 	stmdalt	r1, {r0, r1, r4, r9, ip, lr}
    1a60:	17550b42 	ldrbne	r0, [r5, -r2, asr #22]
    1a64:	0b590b58 	bleq	16447cc <__bss_end__+0x1639a2c>
    1a68:	00000b57 	andeq	r0, r0, r7, asr fp
    1a6c:	31000519 	tstcc	r0, r9, lsl r5
    1a70:	000b1c13 	andeq	r1, fp, r3, lsl ip
    1a74:	010b1a00 	tsteq	fp, r0, lsl #20
    1a78:	00001755 	andeq	r1, r0, r5, asr r7
    1a7c:	3100341b 	tstcc	r0, fp, lsl r4
    1a80:	1c000013 	stcne	0, cr0, [r0], {19}
    1a84:	13310034 	teqne	r1, #52, 0	; 0x34
    1a88:	42b71702 	adcsmi	r1, r7, #524288	; 0x80000
    1a8c:	1d000017 	stcne	0, cr0, [r0, #-92]	; 0xffffffa4
    1a90:	01018289 	smlabbeq	r1, r9, r2, r8
    1a94:	13310111 	teqne	r1, #1073741828	; 0x40000004
    1a98:	00001301 	andeq	r1, r0, r1, lsl #6
    1a9c:	3f012e1e 	svccc	0x00012e1e
    1aa0:	3a0e0319 	bcc	38270c <__bss_end__+0x37796c>
    1aa4:	390b3b0b 	stmdbcc	fp, {r0, r1, r3, r8, r9, fp, ip, sp}
    1aa8:	2019270b 	andscs	r2, r9, fp, lsl #14
    1aac:	0013010b 	andseq	r0, r3, fp, lsl #2
    1ab0:	00051f00 	andeq	r1, r5, r0, lsl #30
    1ab4:	0b3a0803 	bleq	e83ac8 <__bss_end__+0xe78d28>
    1ab8:	0b390b3b 	bleq	e447ac <__bss_end__+0xe39a0c>
    1abc:	00001349 	andeq	r1, r0, r9, asr #6
    1ac0:	03000520 	movweq	r0, #1312	; 0x520
    1ac4:	3b0b3a0e 	blcc	2d0304 <__bss_end__+0x2c5564>
    1ac8:	490b390b 	stmdbmi	fp, {r0, r1, r3, r8, fp, ip, sp}
    1acc:	21000013 	tstcs	r0, r3, lsl r0
    1ad0:	08030034 	stmdaeq	r3, {r2, r4, r5}
    1ad4:	0b3b0b3a 	bleq	ec47c4 <__bss_end__+0xeb9a24>
    1ad8:	13490b39 	movtne	r0, #39737	; 0x9b39
    1adc:	2e220000 	cdpcs	0, 2, cr0, cr2, cr0, {0}
    1ae0:	3a0e0301 	bcc	3826ec <__bss_end__+0x37794c>
    1ae4:	390b3b0b 	stmdbcc	fp, {r0, r1, r3, r8, r9, fp, ip, sp}
    1ae8:	4919270b 	ldmdbmi	r9, {r0, r1, r3, r8, r9, sl, sp}
    1aec:	010b2013 	tsteq	fp, r3, lsl r0
    1af0:	23000013 	movwcs	r0, #19
    1af4:	1331012e 	teqne	r1, #-2147483637	; 0x8000000b
    1af8:	06120111 			; <UNDEFINED> instruction: 0x06120111
    1afc:	42971840 	addsmi	r1, r7, #64, 16	; 0x400000
    1b00:	00130119 	andseq	r0, r3, r9, lsl r1
    1b04:	002e2400 	eoreq	r2, lr, r0, lsl #8
    1b08:	193c193f 	ldmdbne	ip!, {r0, r1, r2, r3, r4, r5, r8, fp, ip}
    1b0c:	0e030e6e 	cdpeq	14, 0, cr0, cr3, cr14, {3}
    1b10:	0b3b0b3a 	bleq	ec4800 <__bss_end__+0xeb9a60>
    1b14:	00000b39 	andeq	r0, r0, r9, lsr fp
    1b18:	01110100 	tsteq	r1, r0, lsl #2
    1b1c:	0b130e25 	bleq	4c53b8 <__bss_end__+0x4ba618>
    1b20:	0e1b0e03 	cdpeq	14, 1, cr0, cr11, cr3, {0}
    1b24:	06120111 			; <UNDEFINED> instruction: 0x06120111
    1b28:	00001710 	andeq	r1, r0, r0, lsl r7
    1b2c:	0b002402 	bleq	ab3c <buf.3944+0x1a0>
    1b30:	030b3e0b 	movweq	r3, #48651	; 0xbe0b
    1b34:	03000008 	movweq	r0, #8
    1b38:	0b0b0024 	bleq	2c1bd0 <__bss_end__+0x2b6e30>
    1b3c:	0e030b3e 	vmoveq.16	d3[0], r0
    1b40:	15040000 	strne	r0, [r4, #-0]
    1b44:	49192701 	ldmdbmi	r9, {r0, r8, r9, sl, sp}
    1b48:	00130113 	andseq	r0, r3, r3, lsl r1
    1b4c:	00050500 	andeq	r0, r5, r0, lsl #10
    1b50:	00001349 	andeq	r1, r0, r9, asr #6
    1b54:	03003406 	movweq	r3, #1030	; 0x406
    1b58:	3b0b3a0e 	blcc	2d0398 <__bss_end__+0x2c55f8>
    1b5c:	490b390b 	stmdbmi	fp, {r0, r1, r3, r8, fp, ip, sp}
    1b60:	3c193f13 	ldccc	15, cr3, [r9], {19}
    1b64:	07000019 	smladeq	r0, r9, r0, r0
    1b68:	0b0b000f 	bleq	2c1bac <__bss_end__+0x2b6e0c>
    1b6c:	00001349 	andeq	r1, r0, r9, asr #6
    1b70:	49002608 	stmdbmi	r0, {r3, r9, sl, sp}
    1b74:	09000013 	stmdbeq	r0, {r0, r1, r4}
    1b78:	13470034 	movtne	r0, #28724	; 0x7034
    1b7c:	0b3b0b3a 	bleq	ec486c <__bss_end__+0xeb9acc>
    1b80:	18020b39 	stmdane	r2, {r0, r3, r4, r5, r8, r9, fp}
    1b84:	2e0a0000 	cdpcs	0, 0, cr0, cr10, cr0, {0}
    1b88:	03193f01 	tsteq	r9, #1, 30
    1b8c:	3b0b3a0e 	blcc	2d03cc <__bss_end__+0x2c562c>
    1b90:	270b390b 	strcs	r3, [fp, -fp, lsl #18]
    1b94:	12011119 	andne	r1, r1, #1073741830	; 0x40000006
    1b98:	97184006 	ldrls	r4, [r8, -r6]
    1b9c:	13011942 	movwne	r1, #6466	; 0x1942
    1ba0:	050b0000 	streq	r0, [fp, #-0]
    1ba4:	3a080300 	bcc	2027ac <__bss_end__+0x1f7a0c>
    1ba8:	390b3b0b 	stmdbcc	fp, {r0, r1, r3, r8, r9, fp, ip, sp}
    1bac:	0213490b 	andseq	r4, r3, #180224	; 0x2c000
    1bb0:	0c000018 	stceq	0, cr0, [r0], {24}
    1bb4:	193f002e 	ldmdbne	pc!, {r1, r2, r3, r5}	; <UNPREDICTABLE>
    1bb8:	0b3a0e03 	bleq	e853cc <__bss_end__+0xe7a62c>
    1bbc:	0b390b3b 	bleq	e448b0 <__bss_end__+0xe39b10>
    1bc0:	01111927 	tsteq	r1, r7, lsr #18
    1bc4:	18400612 	stmdane	r0, {r1, r4, r9, sl}^
    1bc8:	00194297 	mulseq	r9, r7, r2
    1bcc:	012e0d00 			; <UNDEFINED> instruction: 0x012e0d00
    1bd0:	0b3a0e03 	bleq	e853e4 <__bss_end__+0xe7a644>
    1bd4:	0b390b3b 	bleq	e448c8 <__bss_end__+0xe39b28>
    1bd8:	13491927 	movtne	r1, #39207	; 0x9927
    1bdc:	06120111 			; <UNDEFINED> instruction: 0x06120111
    1be0:	42971840 	addsmi	r1, r7, #64, 16	; 0x400000
    1be4:	00130119 	andseq	r0, r3, r9, lsl r1
    1be8:	00050e00 	andeq	r0, r5, r0, lsl #28
    1bec:	0b3a0803 	bleq	e83c00 <__bss_end__+0xe78e60>
    1bf0:	0b390b3b 	bleq	e448e4 <__bss_end__+0xe39b44>
    1bf4:	17021349 	strne	r1, [r2, -r9, asr #6]
    1bf8:	001742b7 			; <UNDEFINED> instruction: 0x001742b7
    1bfc:	82890f00 	addhi	r0, r9, #0, 30
    1c00:	01110101 	tsteq	r1, r1, lsl #2
    1c04:	00001331 	andeq	r1, r0, r1, lsr r3
    1c08:	01828a10 	orreq	r8, r2, r0, lsl sl
    1c0c:	91180200 	tstls	r8, r0, lsl #4
    1c10:	00001842 	andeq	r1, r0, r2, asr #16
    1c14:	3f002e11 	svccc	0x00002e11
    1c18:	6e193c19 	mrcvs	12, 0, r3, cr9, cr9, {0}
    1c1c:	3a0e030e 	bcc	38285c <__bss_end__+0x377abc>
    1c20:	390b3b0b 	stmdbcc	fp, {r0, r1, r3, r8, r9, fp, ip, sp}
    1c24:	0000000b 	andeq	r0, r0, fp
    1c28:	25011101 	strcs	r1, [r1, #-257]	; 0xfffffeff
    1c2c:	030b130e 	movweq	r1, #45838	; 0xb30e
    1c30:	110e1b0e 	tstne	lr, lr, lsl #22
    1c34:	10061201 	andne	r1, r6, r1, lsl #4
    1c38:	02000017 	andeq	r0, r0, #23, 0
    1c3c:	0b0b0024 	bleq	2c1cd4 <__bss_end__+0x2b6f34>
    1c40:	08030b3e 	stmdaeq	r3, {r1, r2, r3, r4, r5, r8, r9, fp}
    1c44:	24030000 	strcs	r0, [r3], #-0
    1c48:	3e0b0b00 	vmlacc.f64	d0, d11, d0
    1c4c:	000e030b 	andeq	r0, lr, fp, lsl #6
    1c50:	01150400 	tsteq	r5, r0, lsl #8
    1c54:	13491927 	movtne	r1, #39207	; 0x9927
    1c58:	00001301 	andeq	r1, r0, r1, lsl #6
    1c5c:	49000505 	stmdbmi	r0, {r0, r2, r8, sl}
    1c60:	06000013 			; <UNDEFINED> instruction: 0x06000013
    1c64:	0e030034 	mcreq	0, 0, r0, cr3, cr4, {1}
    1c68:	0b3b0b3a 	bleq	ec4958 <__bss_end__+0xeb9bb8>
    1c6c:	13490b39 	movtne	r0, #39737	; 0x9b39
    1c70:	193c193f 	ldmdbne	ip!, {r0, r1, r2, r3, r4, r5, r8, fp, ip}
    1c74:	0f070000 	svceq	0x00070000
    1c78:	490b0b00 	stmdbmi	fp, {r8, r9, fp}
    1c7c:	08000013 	stmdaeq	r0, {r0, r1, r4}
    1c80:	13490026 	movtne	r0, #36902	; 0x9026
    1c84:	2e090000 	cdpcs	0, 0, cr0, cr9, cr0, {0}
    1c88:	03193f01 	tsteq	r9, #1, 30
    1c8c:	3b0b3a0e 	blcc	2d04cc <__bss_end__+0x2c572c>
    1c90:	270b390b 	strcs	r3, [fp, -fp, lsl #18]
    1c94:	11134919 	tstne	r3, r9, lsl r9
    1c98:	40061201 	andmi	r1, r6, r1, lsl #4
    1c9c:	19429718 	stmdbne	r2, {r3, r4, r8, r9, sl, ip, pc}^
    1ca0:	00001301 	andeq	r1, r0, r1, lsl #6
    1ca4:	0300050a 	movweq	r0, #1290	; 0x50a
    1ca8:	3b0b3a0e 	blcc	2d04e8 <__bss_end__+0x2c5748>
    1cac:	490b390b 	stmdbmi	fp, {r0, r1, r3, r8, fp, ip, sp}
    1cb0:	00180213 	andseq	r0, r8, r3, lsl r2
    1cb4:	00050b00 	andeq	r0, r5, r0, lsl #22
    1cb8:	0b3a0803 	bleq	e83ccc <__bss_end__+0xe78f2c>
    1cbc:	0b390b3b 	bleq	e449b0 <__bss_end__+0xe39c10>
    1cc0:	17021349 	strne	r1, [r2, -r9, asr #6]
    1cc4:	001742b7 			; <UNDEFINED> instruction: 0x001742b7
    1cc8:	00340c00 	eorseq	r0, r4, r0, lsl #24
    1ccc:	0b3a0803 	bleq	e83ce0 <__bss_end__+0xe78f40>
    1cd0:	0b390b3b 	bleq	e449c4 <__bss_end__+0xe39c24>
    1cd4:	17021349 	strne	r1, [r2, -r9, asr #6]
    1cd8:	001742b7 			; <UNDEFINED> instruction: 0x001742b7
    1cdc:	11010000 	mrsne	r0, (UNDEF: 1)
    1ce0:	130e2501 	movwne	r2, #58625	; 0xe501
    1ce4:	1b0e030b 	blne	382918 <__bss_end__+0x377b78>
    1ce8:	1201110e 	andne	r1, r1, #-2147483645	; 0x80000003
    1cec:	00171006 	andseq	r1, r7, r6
    1cf0:	00240200 	eoreq	r0, r4, r0, lsl #4
    1cf4:	0b3e0b0b 	bleq	f84928 <__bss_end__+0xf79b88>
    1cf8:	00000803 	andeq	r0, r0, r3, lsl #16
    1cfc:	0b002403 	bleq	ad10 <buf.3944+0x374>
    1d00:	030b3e0b 	movweq	r3, #48651	; 0xbe0b
    1d04:	0400000e 	streq	r0, [r0], #-14
    1d08:	19270115 	stmdbne	r7!, {r0, r2, r4, r8}
    1d0c:	13011349 	movwne	r1, #4937	; 0x1349
    1d10:	05050000 	streq	r0, [r5, #-0]
    1d14:	00134900 	andseq	r4, r3, r0, lsl #18
    1d18:	00340600 	eorseq	r0, r4, r0, lsl #12
    1d1c:	0b3a0e03 	bleq	e85530 <__bss_end__+0xe7a790>
    1d20:	0b390b3b 	bleq	e44a14 <__bss_end__+0xe39c74>
    1d24:	193f1349 	ldmdbne	pc!, {r0, r3, r6, r8, r9, ip}	; <UNPREDICTABLE>
    1d28:	0000193c 	andeq	r1, r0, ip, lsr r9
    1d2c:	0b000f07 	bleq	5950 <__code_start__-0x26b0>
    1d30:	0013490b 	andseq	r4, r3, fp, lsl #18
    1d34:	00260800 	eoreq	r0, r6, r0, lsl #16
    1d38:	00001349 	andeq	r1, r0, r9, asr #6
    1d3c:	3f012e09 	svccc	0x00012e09
    1d40:	3a0e0319 	bcc	3829ac <__bss_end__+0x377c0c>
    1d44:	390b3b0b 	stmdbcc	fp, {r0, r1, r3, r8, r9, fp, ip, sp}
    1d48:	4919270b 	ldmdbmi	r9, {r0, r1, r3, r8, r9, sl, sp}
    1d4c:	12011113 	andne	r1, r1, #-1073741820	; 0xc0000004
    1d50:	97184006 	ldrls	r4, [r8, -r6]
    1d54:	00001942 	andeq	r1, r0, r2, asr #18
    1d58:	0300050a 	movweq	r0, #1290	; 0x50a
    1d5c:	3b0b3a08 	blcc	2d0584 <__bss_end__+0x2c57e4>
    1d60:	490b390b 	stmdbmi	fp, {r0, r1, r3, r8, fp, ip, sp}
    1d64:	b7170213 			; <UNDEFINED> instruction: 0xb7170213
    1d68:	00001742 	andeq	r1, r0, r2, asr #14
    1d6c:	01110100 	tsteq	r1, r0, lsl #2
    1d70:	0b130e25 	bleq	4c560c <__bss_end__+0x4ba86c>
    1d74:	0e1b0e03 	cdpeq	14, 1, cr0, cr11, cr3, {0}
    1d78:	06120111 			; <UNDEFINED> instruction: 0x06120111
    1d7c:	00001710 	andeq	r1, r0, r0, lsl r7
    1d80:	0b002402 	bleq	ad90 <buf.3944+0x3f4>
    1d84:	030b3e0b 	movweq	r3, #48651	; 0xbe0b
    1d88:	03000008 	movweq	r0, #8
    1d8c:	0b0b0024 	bleq	2c1e24 <__bss_end__+0x2b7084>
    1d90:	0e030b3e 	vmoveq.16	d3[0], r0
    1d94:	15040000 	strne	r0, [r4, #-0]
    1d98:	49192701 	ldmdbmi	r9, {r0, r8, r9, sl, sp}
    1d9c:	00130113 	andseq	r0, r3, r3, lsl r1
    1da0:	00050500 	andeq	r0, r5, r0, lsl #10
    1da4:	00001349 	andeq	r1, r0, r9, asr #6
    1da8:	03003406 	movweq	r3, #1030	; 0x406
    1dac:	3b0b3a0e 	blcc	2d05ec <__bss_end__+0x2c584c>
    1db0:	490b390b 	stmdbmi	fp, {r0, r1, r3, r8, fp, ip, sp}
    1db4:	3c193f13 	ldccc	15, cr3, [r9], {19}
    1db8:	07000019 	smladeq	r0, r9, r0, r0
    1dbc:	0b0b000f 	bleq	2c1e00 <__bss_end__+0x2b7060>
    1dc0:	00001349 	andeq	r1, r0, r9, asr #6
    1dc4:	49002608 	stmdbmi	r0, {r3, r9, sl, sp}
    1dc8:	09000013 	stmdbeq	r0, {r0, r1, r4}
    1dcc:	193f012e 	ldmdbne	pc!, {r1, r2, r3, r5, r8}	; <UNPREDICTABLE>
    1dd0:	0b3a0e03 	bleq	e855e4 <__bss_end__+0xe7a844>
    1dd4:	0b390b3b 	bleq	e44ac8 <__bss_end__+0xe39d28>
    1dd8:	13491927 	movtne	r1, #39207	; 0x9927
    1ddc:	06120111 			; <UNDEFINED> instruction: 0x06120111
    1de0:	42971840 	addsmi	r1, r7, #64, 16	; 0x400000
    1de4:	00130119 	andseq	r0, r3, r9, lsl r1
    1de8:	00050a00 	andeq	r0, r5, r0, lsl #20
    1dec:	0b3a0803 	bleq	e83e00 <__bss_end__+0xe79060>
    1df0:	0b390b3b 	bleq	e44ae4 <__bss_end__+0xe39d44>
    1df4:	18021349 	stmdane	r2, {r0, r3, r6, r8, r9, ip}
    1df8:	050b0000 	streq	r0, [fp, #-0]
    1dfc:	3a080300 	bcc	202a04 <__bss_end__+0x1f7c64>
    1e00:	390b3b0b 	stmdbcc	fp, {r0, r1, r3, r8, r9, fp, ip, sp}
    1e04:	0213490b 	andseq	r4, r3, #180224	; 0x2c000
    1e08:	1742b717 	smlaldne	fp, r2, r7, r7
    1e0c:	340c0000 	strcc	r0, [ip], #-0
    1e10:	3a080300 	bcc	202a18 <__bss_end__+0x1f7c78>
    1e14:	390b3b0b 	stmdbcc	fp, {r0, r1, r3, r8, r9, fp, ip, sp}
    1e18:	0213490b 	andseq	r4, r3, #180224	; 0x2c000
    1e1c:	1742b717 	smlaldne	fp, r2, r7, r7
    1e20:	01000000 	mrseq	r0, (UNDEF: 0)
    1e24:	0e250111 	mcreq	1, 1, r0, cr5, cr1, {0}
    1e28:	0e030b13 	vmoveq.32	d3[0], r0
    1e2c:	01110e1b 	tsteq	r1, fp, lsl lr
    1e30:	17100612 			; <UNDEFINED> instruction: 0x17100612
    1e34:	24020000 	strcs	r0, [r2], #-0
    1e38:	3e0b0b00 	vmlacc.f64	d0, d11, d0
    1e3c:	0008030b 	andeq	r0, r8, fp, lsl #6
    1e40:	00160300 	andseq	r0, r6, r0, lsl #6
    1e44:	0b3a0e03 	bleq	e85658 <__bss_end__+0xe7a8b8>
    1e48:	0b390b3b 	bleq	e44b3c <__bss_end__+0xe39d9c>
    1e4c:	00001349 	andeq	r1, r0, r9, asr #6
    1e50:	0b002404 	bleq	ae68 <__bss_end__+0xc8>
    1e54:	030b3e0b 	movweq	r3, #48651	; 0xbe0b
    1e58:	0500000e 	streq	r0, [r0, #-14]
    1e5c:	13490026 	movtne	r0, #36902	; 0x9026
    1e60:	15060000 	strne	r0, [r6, #-0]
    1e64:	49192701 	ldmdbmi	r9, {r0, r8, r9, sl, sp}
    1e68:	00130113 	andseq	r0, r3, r3, lsl r1
    1e6c:	00050700 	andeq	r0, r5, r0, lsl #14
    1e70:	00001349 	andeq	r1, r0, r9, asr #6
    1e74:	03003408 	movweq	r3, #1032	; 0x408
    1e78:	3b0b3a0e 	blcc	2d06b8 <__bss_end__+0x2c5918>
    1e7c:	490b390b 	stmdbmi	fp, {r0, r1, r3, r8, fp, ip, sp}
    1e80:	3c193f13 	ldccc	15, cr3, [r9], {19}
    1e84:	09000019 	stmdbeq	r0, {r0, r3, r4}
    1e88:	0b0b000f 	bleq	2c1ecc <__bss_end__+0x2b712c>
    1e8c:	00001349 	andeq	r1, r0, r9, asr #6
    1e90:	3f012e0a 	svccc	0x00012e0a
    1e94:	3a0e0319 	bcc	382b00 <__bss_end__+0x377d60>
    1e98:	390b3b0b 	stmdbcc	fp, {r0, r1, r3, r8, r9, fp, ip, sp}
    1e9c:	4919270b 	ldmdbmi	r9, {r0, r1, r3, r8, r9, sl, sp}
    1ea0:	12011113 	andne	r1, r1, #-1073741820	; 0xc0000004
    1ea4:	97184006 	ldrls	r4, [r8, -r6]
    1ea8:	13011942 	movwne	r1, #6466	; 0x1942
    1eac:	050b0000 	streq	r0, [fp, #-0]
    1eb0:	3a080300 	bcc	202ab8 <__bss_end__+0x1f7d18>
    1eb4:	390b3b0b 	stmdbcc	fp, {r0, r1, r3, r8, r9, fp, ip, sp}
    1eb8:	0213490b 	andseq	r4, r3, #180224	; 0x2c000
    1ebc:	1742b717 	smlaldne	fp, r2, r7, r7
    1ec0:	340c0000 	strcc	r0, [ip], #-0
    1ec4:	3a080300 	bcc	202acc <__bss_end__+0x1f7d2c>
    1ec8:	390b3b0b 	stmdbcc	fp, {r0, r1, r3, r8, r9, fp, ip, sp}
    1ecc:	0213490b 	andseq	r4, r3, #180224	; 0x2c000
    1ed0:	1742b717 	smlaldne	fp, r2, r7, r7
    1ed4:	01000000 	mrseq	r0, (UNDEF: 0)
    1ed8:	0e250111 	mcreq	1, 1, r0, cr5, cr1, {0}
    1edc:	0e030b13 	vmoveq.32	d3[0], r0
    1ee0:	01110e1b 	tsteq	r1, fp, lsl lr
    1ee4:	17100612 			; <UNDEFINED> instruction: 0x17100612
    1ee8:	24020000 	strcs	r0, [r2], #-0
    1eec:	3e0b0b00 	vmlacc.f64	d0, d11, d0
    1ef0:	0008030b 	andeq	r0, r8, fp, lsl #6
    1ef4:	00240300 	eoreq	r0, r4, r0, lsl #6
    1ef8:	0b3e0b0b 	bleq	f84b2c <__bss_end__+0xf79d8c>
    1efc:	00000e03 	andeq	r0, r0, r3, lsl #28
    1f00:	27011504 	strcs	r1, [r1, -r4, lsl #10]
    1f04:	01134919 	tsteq	r3, r9, lsl r9
    1f08:	05000013 	streq	r0, [r0, #-19]	; 0xffffffed
    1f0c:	13490005 	movtne	r0, #36869	; 0x9005
    1f10:	34060000 	strcc	r0, [r6], #-0
    1f14:	3a0e0300 	bcc	382b1c <__bss_end__+0x377d7c>
    1f18:	390b3b0b 	stmdbcc	fp, {r0, r1, r3, r8, r9, fp, ip, sp}
    1f1c:	3f13490b 	svccc	0x0013490b
    1f20:	00193c19 	andseq	r3, r9, r9, lsl ip
    1f24:	000f0700 	andeq	r0, pc, r0, lsl #14
    1f28:	13490b0b 	movtne	r0, #39691	; 0x9b0b
    1f2c:	26080000 	strcs	r0, [r8], -r0
    1f30:	00134900 	andseq	r4, r3, r0, lsl #18
    1f34:	002e0900 	eoreq	r0, lr, r0, lsl #18
    1f38:	0e03193f 			; <UNDEFINED> instruction: 0x0e03193f
    1f3c:	0b3b0b3a 	bleq	ec4c2c <__bss_end__+0xeb9e8c>
    1f40:	19270b39 	stmdbne	r7!, {r0, r3, r4, r5, r8, r9, fp}
    1f44:	06120111 			; <UNDEFINED> instruction: 0x06120111
    1f48:	42971840 	addsmi	r1, r7, #64, 16	; 0x400000
    1f4c:	00000019 	andeq	r0, r0, r9, lsl r0

Disassembly of section .debug_loc:

00000000 <.debug_loc>:
       0:	00000000 	andeq	r0, r0, r0
       4:	00340000 	eorseq	r0, r4, r0
       8:	00400000 	subeq	r0, r0, r0
       c:	00010000 	andeq	r0, r1, r0
      10:	00004050 	andeq	r4, r0, r0, asr r0
      14:	00004300 	andeq	r4, r0, r0, lsl #6
      18:	52000100 	andpl	r0, r0, #0
      1c:	00000043 	andeq	r0, r0, r3, asr #32
      20:	0000007c 	andeq	r0, r0, ip, ror r0
      24:	00540001 	subseq	r0, r4, r1
      28:	00000000 	andeq	r0, r0, r0
      2c:	01000000 	mrseq	r0, (UNDEF: 0)
      30:	00000800 	andeq	r0, r0, r0, lsl #16
      34:	00002000 	andeq	r2, r0, r0
      38:	39000200 	stmdbcc	r0, {r9}
      3c:	0000009f 	muleq	r0, pc, r0	; <UNPREDICTABLE>
      40:	00000000 	andeq	r0, r0, r0
      44:	08000100 	stmdaeq	r0, {r8}
      48:	20000000 	andcs	r0, r0, r0
      4c:	06000000 	streq	r0, [r0], -r0
      50:	047cf200 	ldrbteq	pc, [ip], #-512	; 0xfffffe00	; <UNPREDICTABLE>
	...
      5c:	01000000 	mrseq	r0, (UNDEF: 0)
      60:	00000800 	andeq	r0, r0, r0, lsl #16
      64:	00002000 	andeq	r2, r0, r0
      68:	03000600 	movweq	r0, #1536	; 0x600
      6c:	0000a0c0 	andeq	sl, r0, r0, asr #1
      70:	0000009f 	muleq	r0, pc, r0	; <UNPREDICTABLE>
      74:	00000000 	andeq	r0, r0, r0
      78:	34050200 	strcc	r0, [r5], #-512	; 0xfffffe00
      7c:	34000000 	strcc	r0, [r0], #-0
      80:	01000000 	mrseq	r0, (UNDEF: 0)
      84:	00005000 	andeq	r5, r0, r0
      88:	00000000 	andeq	r0, r0, r0
      8c:	00040000 	andeq	r0, r4, r0
      90:	00000000 	andeq	r0, r0, r0
      94:	00000034 	andeq	r0, r0, r4, lsr r0
      98:	00000040 	andeq	r0, r0, r0, asr #32
      9c:	40500001 	subsmi	r0, r0, r1
      a0:	43000000 	movwmi	r0, #0
      a4:	01000000 	mrseq	r0, (UNDEF: 0)
      a8:	00435200 	subeq	r5, r3, r0, lsl #4
      ac:	007c0000 	rsbseq	r0, ip, r0
      b0:	00010000 	andeq	r0, r1, r0
      b4:	00000054 	andeq	r0, r0, r4, asr r0
      b8:	00000000 	andeq	r0, r0, r0
      bc:	54000100 	strpl	r0, [r0], #-256	; 0xffffff00
      c0:	64000000 	strvs	r0, [r0], #-0
      c4:	02000000 	andeq	r0, r0, #0, 0
      c8:	009f3c00 	addseq	r3, pc, r0, lsl #24
      cc:	00000000 	andeq	r0, r0, r0
      d0:	01000000 	mrseq	r0, (UNDEF: 0)
      d4:	00005400 	andeq	r5, r0, r0, lsl #8
      d8:	00006400 	andeq	r6, r0, r0, lsl #8
      dc:	f2000600 	vmax.s8	d0, d0, d0
      e0:	0000047c 	andeq	r0, r0, ip, ror r4
	...
      ec:	54000100 	strpl	r0, [r0], #-256	; 0xffffff00
      f0:	64000000 	strvs	r0, [r0], #-0
      f4:	06000000 	streq	r0, [r0], -r0
      f8:	a0c00300 	sbcge	r0, r0, r0, lsl #6
      fc:	009f0000 	addseq	r0, pc, r0
	...
     10c:	00020000 	andeq	r0, r2, r0
     110:	00021800 	andeq	r1, r2, r0, lsl #16
     114:	50000100 	andpl	r0, r0, r0, lsl #2
     118:	00000218 	andeq	r0, r0, r8, lsl r2
     11c:	00000288 	andeq	r0, r0, r8, lsl #5
     120:	88560001 	ldmdahi	r6, {r0}^
     124:	94000002 	strls	r0, [r0], #-2
     128:	04000002 	streq	r0, [r0], #-2
     12c:	5001f300 	andpl	pc, r1, r0, lsl #6
     130:	0000009f 	muleq	r0, pc, r0	; <UNPREDICTABLE>
	...
     13c:	20000000 	andcs	r0, r0, r0
     140:	2b000002 	blcs	150 <__code_start__-0x7eb0>
     144:	01000002 	tsteq	r0, r2
     148:	022b5000 	eoreq	r5, fp, #0, 0
     14c:	02880000 	addeq	r0, r8, #0, 0
     150:	00010000 	andeq	r0, r1, r0
     154:	00028854 	andeq	r8, r2, r4, asr r8
     158:	00029400 	andeq	r9, r2, r0, lsl #8
     15c:	03000500 	movweq	r0, #1280	; 0x500
     160:	0000a978 	andeq	sl, r0, r8, ror r9
	...
     170:	000000b4 	strheq	r0, [r0], -r4
     174:	000000c4 	andeq	r0, r0, r4, asr #1
     178:	c4500001 	ldrbgt	r0, [r0], #-1
     17c:	00000000 	andeq	r0, r0, r0
     180:	01000002 	tsteq	r0, r2
     184:	00005400 	andeq	r5, r0, r0, lsl #8
	...
     194:	00cc0000 	sbceq	r0, ip, r0
     198:	00d00000 	sbcseq	r0, r0, r0
     19c:	00050000 	andeq	r0, r5, r0
     1a0:	93049355 	movwls	r9, #17237	; 0x4355
     1a4:	0000d008 	andeq	sp, r0, r8
     1a8:	0000d400 	andeq	sp, r0, r0, lsl #8
     1ac:	55000800 	strpl	r0, [r0, #-2048]	; 0xfffff800
     1b0:	93560493 	cmpls	r6, #-1828716544	; 0x93000000
     1b4:	d4049304 	strle	r9, [r4], #-772	; 0xfffffcfc
     1b8:	98000000 	stmdals	r0, {}	; <UNPREDICTABLE>
     1bc:	09000001 	stmdbeq	r0, {r0}
     1c0:	04935500 	ldreq	r5, [r3], #1280	; 0x500
     1c4:	57049356 	smlsdpl	r4, r6, r3, r9
     1c8:	01980493 			; <UNDEFINED> instruction: 0x01980493
     1cc:	02000000 	andeq	r0, r0, #0, 0
     1d0:	00090000 	andeq	r0, r9, r0
     1d4:	56049355 			; <UNDEFINED> instruction: 0x56049355
     1d8:	93570493 	cmpls	r7, #-1828716544	; 0x93000000
     1dc:	00000004 	andeq	r0, r0, r4
     1e0:	00000000 	andeq	r0, r0, r0
     1e4:	02020100 	andeq	r0, r2, #0
     1e8:	00000000 	andeq	r0, r0, r0
     1ec:	d4000000 	strle	r0, [r0], #-0
     1f0:	d4000000 	strle	r0, [r0], #-0
     1f4:	01000000 	mrseq	r0, (UNDEF: 0)
     1f8:	00d45400 	sbcseq	r5, r4, r0, lsl #8
     1fc:	01040000 	mrseq	r0, (UNDEF: 4)
     200:	00040000 	andeq	r0, r4, r0
     204:	9f7ed874 	svcls	0x007ed874
     208:	00000104 	andeq	r0, r0, r4, lsl #2
     20c:	0000013c 	andeq	r0, r0, ip, lsr r1
     210:	3c580001 	mrrccc	0, 0, r0, r8, cr1
     214:	60000001 	andvs	r0, r0, r1
     218:	04000001 	streq	r0, [r0], #-1
     21c:	7ed87400 	cdpvc	4, 13, cr7, cr8, cr0, {0}
     220:	0001609f 	muleq	r1, pc, r0	; <UNPREDICTABLE>
     224:	00020000 	andeq	r0, r2, r0
     228:	58000100 	stmdapl	r0, {r8}
	...
     234:	02000003 	andeq	r0, r0, #3, 0
     238:	011c0000 	tsteq	ip, r0
     23c:	013c0000 	teqeq	ip, r0
     240:	00010000 	andeq	r0, r1, r0
     244:	00018058 	andeq	r8, r1, r8, asr r0
     248:	00018800 	andeq	r8, r1, r0, lsl #16
     24c:	58000100 	stmdapl	r0, {r8}
     250:	00000198 	muleq	r0, r8, r1
     254:	00000200 	andeq	r0, r0, r0, lsl #4
     258:	00580001 	subseq	r0, r8, r1
     25c:	00000000 	andeq	r0, r0, r0
     260:	03000000 	movweq	r0, #0
     264:	00020000 	andeq	r0, r2, r0
     268:	00011c00 	andeq	r1, r1, r0, lsl #24
     26c:	00013c00 	andeq	r3, r1, r0, lsl #24
     270:	03000600 	movweq	r0, #1536	; 0x600
     274:	0000a978 	andeq	sl, r0, r8, ror r9
     278:	0001809f 	muleq	r1, pc, r0	; <UNPREDICTABLE>
     27c:	00018800 	andeq	r8, r1, r0, lsl #16
     280:	03000600 	movweq	r0, #1536	; 0x600
     284:	0000a978 	andeq	sl, r0, r8, ror r9
     288:	0001989f 	muleq	r1, pc, r8	; <UNPREDICTABLE>
     28c:	00020000 	andeq	r0, r2, r0
     290:	03000600 	movweq	r0, #1536	; 0x600
     294:	0000a978 	andeq	sl, r0, r8, ror r9
     298:	0000009f 	muleq	r0, pc, r0	; <UNPREDICTABLE>
	...
     2a4:	00010000 	andeq	r0, r1, r0
     2a8:	00012400 	andeq	r2, r1, r0, lsl #8
     2ac:	00013400 	andeq	r3, r1, r0, lsl #8
     2b0:	53000100 	movwpl	r0, #256	; 0x100
     2b4:	00000134 	andeq	r0, r0, r4, lsr r1
     2b8:	00000138 	andeq	r0, r0, r8, lsr r1
     2bc:	78030005 	stmdavc	r3, {r0, r2}
     2c0:	800000a9 	andhi	r0, r0, r9, lsr #1
     2c4:	88000001 	stmdahi	r0, {r0}
     2c8:	01000001 	tsteq	r0, r1
     2cc:	01985300 	orrseq	r5, r8, r0, lsl #6
     2d0:	01c00000 	biceq	r0, r0, r0
     2d4:	00010000 	andeq	r0, r1, r0
     2d8:	00000053 	andeq	r0, r0, r3, asr r0
	...
     2e4:	80000000 	andhi	r0, r0, r0
     2e8:	84000001 	strhi	r0, [r0], #-1
     2ec:	01000001 	tsteq	r0, r1
     2f0:	01845200 	orreq	r5, r4, r0, lsl #4
     2f4:	01880000 	orreq	r0, r8, r0
     2f8:	00020000 	andeq	r0, r2, r0
     2fc:	019c0073 	orrseq	r0, ip, r3, ror r0
     300:	01b00000 	movseq	r0, r0
     304:	00010000 	andeq	r0, r1, r0
     308:	00000052 	andeq	r0, r0, r2, asr r0
     30c:	00000000 	andeq	r0, r0, r0
     310:	02000000 	andeq	r0, r0, #0, 0
     314:	00019800 	andeq	r9, r1, r0, lsl #16
     318:	00019c00 	andeq	r9, r1, r0, lsl #24
     31c:	53000100 	movwpl	r0, #256	; 0x100
     320:	000001b0 			; <UNDEFINED> instruction: 0x000001b0
     324:	000001b8 			; <UNDEFINED> instruction: 0x000001b8
     328:	00530001 	subseq	r0, r3, r1
	...
     334:	58000000 	stmdapl	r0, {}	; <UNPREDICTABLE>
     338:	70000000 	andvc	r0, r0, r0
     33c:	01000000 	mrseq	r0, (UNDEF: 0)
     340:	00705000 	rsbseq	r5, r0, r0
     344:	00b40000 	adcseq	r0, r4, r0
     348:	00010000 	andeq	r0, r1, r0
     34c:	00000055 	andeq	r0, r0, r5, asr r0
     350:	00000000 	andeq	r0, r0, r0
     354:	68000000 	stmdavs	r0, {}	; <UNPREDICTABLE>
     358:	b4000000 	strlt	r0, [r0], #-0
     35c:	01000000 	mrseq	r0, (UNDEF: 0)
     360:	00005400 	andeq	r5, r0, r0, lsl #8
     364:	00000000 	andeq	r0, r0, r0
     368:	00010000 	andeq	r0, r1, r0
     36c:	00000084 	andeq	r0, r0, r4, lsl #1
     370:	00000088 	andeq	r0, r0, r8, lsl #1
     374:	00540001 	subseq	r0, r4, r1
	...
     384:	00003400 	andeq	r3, r0, r0, lsl #8
     388:	00004400 	andeq	r4, r0, r0, lsl #8
     38c:	50000100 	andpl	r0, r0, r0, lsl #2
     390:	00000044 	andeq	r0, r0, r4, asr #32
     394:	00000050 	andeq	r0, r0, r0, asr r0
     398:	d8700004 	ldmdale	r0!, {r2}^
     39c:	00509f7e 	subseq	r9, r0, lr, ror pc
     3a0:	00580000 	subseq	r0, r8, r0
     3a4:	00040000 	andeq	r0, r4, r0
     3a8:	9f5001f3 	svcls	0x005001f3
	...
     3b4:	00000004 	andeq	r0, r0, r4
     3b8:	00340000 	eorseq	r0, r4, r0
     3bc:	00440000 	subeq	r0, r4, r0
     3c0:	00040000 	andeq	r0, r4, r0
     3c4:	9f01a870 	svcls	0x0001a870
     3c8:	00000044 	andeq	r0, r0, r4, asr #32
     3cc:	00000050 	andeq	r0, r0, r0, asr r0
     3d0:	50500001 	subspl	r0, r0, r1
     3d4:	58000000 	stmdapl	r0, {}	; <UNPREDICTABLE>
     3d8:	07000000 	streq	r0, [r0, -r0]
     3dc:	5001f300 	andpl	pc, r1, r0, lsl #6
     3e0:	9f01a823 	svcls	0x0001a823
	...
     3ec:	0000000c 	andeq	r0, r0, ip
     3f0:	00340000 	eorseq	r0, r4, r0
     3f4:	00440000 	subeq	r0, r4, r0
     3f8:	000a0000 	andeq	r0, sl, r0
     3fc:	04700070 	ldrbteq	r0, [r0], #-112	; 0xffffff90
     400:	a8232206 	stmdage	r3!, {r1, r2, r9, sp}
     404:	00449f01 	subeq	r9, r4, r1, lsl #30
     408:	00500000 	subseq	r0, r0, r0
     40c:	00080000 	andeq	r0, r8, r0
     410:	dc700070 	ldclle	0, cr0, [r0], #-448	; 0xfffffe40
     414:	9f22067e 	svcls	0x0022067e
     418:	00000050 	andeq	r0, r0, r0, asr r0
     41c:	00000058 	andeq	r0, r0, r8, asr r0
     420:	01f3000e 	mvnseq	r0, lr
     424:	5001f350 	andpl	pc, r1, r0, asr r3	; <UNPREDICTABLE>
     428:	22060423 	andcs	r0, r6, #587202560	; 0x23000000
     42c:	9f01a823 	svcls	0x0001a823
	...
     438:	00340402 	eorseq	r0, r4, r2, lsl #8
     43c:	00340000 	eorseq	r0, r4, r0
     440:	00010000 	andeq	r0, r1, r0
     444:	00000050 	andeq	r0, r0, r0, asr r0
     448:	00000000 	andeq	r0, r0, r0
     44c:	340c0600 	strcc	r0, [ip], #-1536	; 0xfffffa00
     450:	34000000 	strcc	r0, [r0], #-0
     454:	01000000 	mrseq	r0, (UNDEF: 0)
     458:	00005000 	andeq	r5, r0, r0
     45c:	00000000 	andeq	r0, r0, r0
     460:	0c0a0000 	stceq	0, cr0, [sl], {-0}
     464:	00000034 	andeq	r0, r0, r4, lsr r0
     468:	00000034 	andeq	r0, r0, r4, lsr r0
     46c:	00500001 	subseq	r0, r0, r1
	...
     478:	10000000 	andne	r0, r0, r0
     47c:	18000000 	stmdane	r0, {}	; <UNPREDICTABLE>
     480:	01000000 	mrseq	r0, (UNDEF: 0)
     484:	00185000 	andseq	r5, r8, r0
     488:	001c0000 	andseq	r0, ip, r0
     48c:	00040000 	andeq	r0, r4, r0
     490:	9f5001f3 	svcls	0x005001f3
	...
     4a0:	0000001c 	andeq	r0, r0, ip, lsl r0
     4a4:	00000020 	andeq	r0, r0, r0, lsr #32
     4a8:	20500001 	subscs	r0, r0, r1
     4ac:	24000000 	strcs	r0, [r0], #-0
     4b0:	04000000 	streq	r0, [r0], #-0
     4b4:	7ed87000 	cdpvc	0, 13, cr7, cr8, cr0, {0}
     4b8:	0000009f 	muleq	r0, pc, r0	; <UNPREDICTABLE>
	...
     4c4:	00002400 	andeq	r2, r0, r0, lsl #8
     4c8:	00003000 	andeq	r3, r0, r0
     4cc:	50000100 	andpl	r0, r0, r0, lsl #2
     4d0:	00000030 	andeq	r0, r0, r0, lsr r0
     4d4:	00000034 	andeq	r0, r0, r4, lsr r0
     4d8:	01f30004 	mvnseq	r0, r4
     4dc:	00009f50 	andeq	r9, r0, r0, asr pc
     4e0:	00000000 	andeq	r0, r0, r0
     4e4:	05030000 	streq	r0, [r3, #-0]
     4e8:	00000024 	andeq	r0, r0, r4, lsr #32
     4ec:	00000024 	andeq	r0, r0, r4, lsr #32
     4f0:	00500001 	subseq	r0, r0, r1
	...
     4fc:	08000000 	stmdaeq	r0, {}	; <UNPREDICTABLE>
     500:	80000000 	andhi	r0, r0, r0
     504:	01000000 	mrseq	r0, (UNDEF: 0)
     508:	00805100 	addeq	r5, r0, r0, lsl #2
     50c:	00a40000 	adceq	r0, r4, r0
     510:	00030000 	andeq	r0, r3, r0
     514:	009f7870 	addseq	r7, pc, r0, ror r8	; <UNPREDICTABLE>
	...
     520:	00001000 	andeq	r1, r0, r0
     524:	0000a400 	andeq	sl, r0, r0, lsl #8
     528:	53000100 	movwpl	r0, #256	; 0x100
	...
     538:	000000a4 	andeq	r0, r0, r4, lsr #1
     53c:	000000bc 	strheq	r0, [r0], -ip
     540:	bc500001 	mrrclt	0, 0, r0, r0, cr1	; <UNPREDICTABLE>
     544:	90000000 	andls	r0, r0, r0
     548:	04000001 	streq	r0, [r0], #-1
     54c:	5001f300 	andpl	pc, r1, r0, lsl #6
     550:	0000009f 	muleq	r0, pc, r0	; <UNPREDICTABLE>
     554:	00000000 	andeq	r0, r0, r0
     558:	01000000 	mrseq	r0, (UNDEF: 0)
     55c:	01010000 	mrseq	r0, (UNDEF: 1)
     560:	00000000 	andeq	r0, r0, r0
     564:	0000c800 	andeq	ip, r0, r0, lsl #16
     568:	0000d400 	andeq	sp, r0, r0, lsl #8
     56c:	53000100 	movwpl	r0, #256	; 0x100
     570:	000000fc 	strdeq	r0, [r0], -ip
     574:	00000100 	andeq	r0, r0, r0, lsl #2
     578:	88030006 	stmdahi	r3, {r1, r2}
     57c:	9f0000a9 	svcls	0x000000a9
     580:	00000100 	andeq	r0, r0, r0, lsl #2
     584:	00000114 	andeq	r0, r0, r4, lsl r1
     588:	14530001 	ldrbne	r0, [r3], #-1
     58c:	18000001 	stmdane	r0, {r0}
     590:	08000001 	stmdaeq	r0, {r0}
     594:	33007200 	movwcc	r7, #512	; 0x200
     598:	22007324 	andcs	r7, r0, #36, 6	; 0x90000000
     59c:	00013c9f 	muleq	r1, pc, ip	; <UNPREDICTABLE>
     5a0:	00014800 	andeq	r4, r1, r0, lsl #16
     5a4:	50000100 	andpl	r0, r0, r0, lsl #2
     5a8:	00000148 	andeq	r0, r0, r8, asr #2
     5ac:	00000154 	andeq	r0, r0, r4, asr r1
     5b0:	00530001 	subseq	r0, r3, r1
	...
     5bc:	02020000 	andeq	r0, r2, #0, 0
     5c0:	bc000100 	stflts	f0, [r0], {-0}
     5c4:	d4000000 	strle	r0, [r0], #-0
     5c8:	01000000 	mrseq	r0, (UNDEF: 0)
     5cc:	00e45000 	rsceq	r5, r4, r0
     5d0:	00e40000 	rsceq	r0, r4, r0
     5d4:	00010000 	andeq	r0, r1, r0
     5d8:	0000e450 	andeq	lr, r0, r0, asr r4
     5dc:	00010000 	andeq	r0, r1, r0
     5e0:	03000600 	movweq	r0, #1536	; 0x600
     5e4:	0000a988 	andeq	sl, r0, r8, lsl #19
     5e8:	0001449f 	muleq	r1, pc, r4	; <UNPREDICTABLE>
     5ec:	00015400 	andeq	r5, r1, r0, lsl #8
     5f0:	50000100 	andpl	r0, r0, r0, lsl #2
	...
     5fc:	00b40000 	adcseq	r0, r4, r0
     600:	01900000 	orrseq	r0, r0, r0
     604:	00010000 	andeq	r0, r1, r0
     608:	00000054 	andeq	r0, r0, r4, asr r0
     60c:	00000000 	andeq	r0, r0, r0
     610:	01000000 	mrseq	r0, (UNDEF: 0)
     614:	00012c00 	andeq	r2, r1, r0, lsl #24
     618:	00013c00 	andeq	r3, r1, r0, lsl #24
     61c:	0a000400 	beq	1624 <__code_start__-0x69dc>
     620:	649f8000 	ldrvs	r8, [pc], #0	; 628 <__code_start__-0x79d8>
     624:	84000001 	strhi	r0, [r0], #-1
     628:	04000001 	streq	r0, [r0], #-1
     62c:	80000a00 	andhi	r0, r0, r0, lsl #20
     630:	0000009f 	muleq	r0, pc, r0	; <UNPREDICTABLE>
	...
     63c:	2c000000 	stccs	0, cr0, [r0], {-0}
     640:	34000001 	strcc	r0, [r0], #-1
     644:	01000001 	tsteq	r0, r1
     648:	01345000 	teqeq	r4, r0
     64c:	01370000 	teqeq	r7, r0
     650:	00030000 	andeq	r0, r3, r0
     654:	789f7870 	ldmvc	pc, {r4, r5, r6, fp, ip, sp, lr}	; <UNPREDICTABLE>
     658:	84000001 	strhi	r0, [r0], #-1
     65c:	01000001 	tsteq	r0, r1
     660:	00005000 	andeq	r5, r0, r0
     664:	00000000 	andeq	r0, r0, r0
     668:	00010000 	andeq	r0, r1, r0
     66c:	012c0000 			; <UNDEFINED> instruction: 0x012c0000
     670:	01340000 	teqeq	r4, r0
     674:	00010000 	andeq	r0, r1, r0
     678:	00013450 	andeq	r3, r1, r0, asr r4
     67c:	00013700 	andeq	r3, r1, r0, lsl #14
     680:	70000300 	andvc	r0, r0, r0, lsl #6
     684:	00009f78 	andeq	r9, r0, r8, ror pc
     688:	00000000 	andeq	r0, r0, r0
     68c:	00020000 	andeq	r0, r2, r0
     690:	05500000 	ldrbeq	r0, [r0, #-0]
     694:	055c0000 	ldrbeq	r0, [ip, #-0]
     698:	00010000 	andeq	r0, r1, r0
     69c:	00055c55 	andeq	r5, r5, r5, asr ip
     6a0:	00057800 	andeq	r7, r5, r0, lsl #16
     6a4:	50000100 	andpl	r0, r0, r0, lsl #2
	...
     6b0:	00000003 	andeq	r0, r0, r3
     6b4:	04980000 	ldreq	r0, [r8], #0
     6b8:	04d40000 	ldrbeq	r0, [r4], #0
     6bc:	00020000 	andeq	r0, r2, r0
     6c0:	04d49f30 	ldrbeq	r9, [r4], #3888	; 0xf30
     6c4:	05300000 	ldreq	r0, [r0, #-0]!
     6c8:	00010000 	andeq	r0, r1, r0
     6cc:	00053057 	andeq	r3, r5, r7, asr r0
     6d0:	00053c00 	andeq	r3, r5, r0, lsl #24
     6d4:	30000200 	andcc	r0, r0, r0, lsl #4
     6d8:	0000009f 	muleq	r0, pc, r0	; <UNPREDICTABLE>
     6dc:	00000000 	andeq	r0, r0, r0
     6e0:	00000300 	andeq	r0, r0, r0, lsl #6
     6e4:	98000000 	stmdals	r0, {}	; <UNPREDICTABLE>
     6e8:	d4000004 	strle	r0, [r0], #-4
     6ec:	02000004 	andeq	r0, r0, #4, 0
     6f0:	d49f3000 	ldrle	r3, [pc], #0	; 6f8 <__code_start__-0x7908>
     6f4:	30000004 	andcc	r0, r0, r4
     6f8:	01000005 	tsteq	r0, r5
     6fc:	05305800 	ldreq	r5, [r0, #-2048]!	; 0xfffff800
     700:	053c0000 	ldreq	r0, [ip, #-0]!
     704:	00020000 	andeq	r0, r2, r0
     708:	00009f30 	andeq	r9, r0, r0, lsr pc
     70c:	00000000 	andeq	r0, r0, r0
     710:	00030000 	andeq	r0, r3, r0
     714:	00000000 	andeq	r0, r0, r0
     718:	00000498 	muleq	r0, r8, r4
     71c:	000004d4 	ldrdeq	r0, [r0], -r4
     720:	9f300002 	svcls	0x00300002
     724:	000004d4 	ldrdeq	r0, [r0], -r4
     728:	00000530 	andeq	r0, r0, r0, lsr r5
     72c:	30550001 	subscc	r0, r5, r1
     730:	3c000005 	stccc	0, cr0, [r0], {5}
     734:	02000005 	andeq	r0, r0, #5, 0
     738:	009f3000 	addseq	r3, pc, r0
	...
     748:	b0020000 	andlt	r0, r2, r0
     74c:	fc000004 	stc2	0, cr0, [r0], {4}
     750:	01000004 	tsteq	r0, r4
     754:	04fc5000 	ldrbteq	r5, [ip], #0
     758:	05140000 	ldreq	r0, [r4, #-0]
     75c:	00010000 	andeq	r0, r1, r0
     760:	00051454 	andeq	r1, r5, r4, asr r4
     764:	00054c00 	andeq	r4, r5, r0, lsl #24
     768:	50000100 	andpl	r0, r0, r0, lsl #2
     76c:	0000054c 	andeq	r0, r0, ip, asr #10
     770:	00000550 	andeq	r0, r0, r0, asr r5
     774:	00540001 	subseq	r0, r4, r1
	...
     780:	0004e400 	andeq	lr, r4, r0, lsl #8
     784:	0004f400 	andeq	pc, r4, r0, lsl #8
     788:	0a000400 	beq	1790 <__code_start__-0x6870>
     78c:	009f0101 	addseq	r0, pc, r1, lsl #2
	...
     798:	0004e400 	andeq	lr, r4, r0, lsl #8
     79c:	0004f400 	andeq	pc, r4, r0, lsl #8
     7a0:	f2000600 	vmax.s8	d0, d0, d0
     7a4:	00001d00 	andeq	r1, r0, r0, lsl #26
	...
     7b0:	e4000000 	str	r0, [r0], #-0
     7b4:	f4000004 	vst4.8	{d0-d3}, [r0], r4
     7b8:	06000004 	streq	r0, [r0], -r4
     7bc:	a2900300 	addsge	r0, r0, #0, 6
     7c0:	009f0000 	addseq	r0, pc, r0
	...
     7d0:	00044800 	andeq	r4, r4, r0, lsl #16
     7d4:	00045800 	andeq	r5, r4, r0, lsl #16
     7d8:	50000100 	andpl	r0, r0, r0, lsl #2
     7dc:	00000458 	andeq	r0, r0, r8, asr r4
     7e0:	0000045b 	andeq	r0, r0, fp, asr r4
     7e4:	5b510001 	blpl	14407f0 <__bss_end__+0x1435a50>
     7e8:	8c000004 	stchi	0, cr0, [r0], {4}
     7ec:	01000004 	tsteq	r0, r4
     7f0:	00005400 	andeq	r5, r0, r0, lsl #8
     7f4:	00000000 	andeq	r0, r0, r0
     7f8:	00020000 	andeq	r0, r2, r0
     7fc:	00000440 	andeq	r0, r0, r0, asr #8
     800:	00000448 	andeq	r0, r0, r8, asr #8
     804:	9f310002 	svcls	0x00310002
	...
     810:	03f80002 	mvnseq	r0, #2, 0
     814:	04000000 	streq	r0, [r0], #-0
     818:	00020000 	andeq	r0, r2, r0
     81c:	00009f31 	andeq	r9, r0, r1, lsr pc
	...
     828:	02340000 	eorseq	r0, r4, #0, 0
     82c:	02400000 	subeq	r0, r0, #0, 0
     830:	00010000 	andeq	r0, r1, r0
     834:	00024050 	andeq	r4, r2, r0, asr r0
     838:	00034400 	andeq	r4, r3, r0, lsl #8
     83c:	58000100 	stmdapl	r0, {r8}
	...
     848:	00000001 	andeq	r0, r0, r1
     84c:	023c0000 	eorseq	r0, ip, #0, 0
     850:	02740000 	rsbseq	r0, r4, #0, 0
     854:	00020000 	andeq	r0, r2, r0
     858:	02749f30 	rsbseq	r9, r4, #48, 30	; 0xc0
     85c:	02f00000 	rscseq	r0, r0, #0, 0
     860:	00010000 	andeq	r0, r1, r0
     864:	0002f055 	andeq	pc, r2, r5, asr r0	; <UNPREDICTABLE>
     868:	00030400 	andeq	r0, r3, r0, lsl #8
     86c:	30000200 	andcc	r0, r0, r0, lsl #4
     870:	0000009f 	muleq	r0, pc, r0	; <UNPREDICTABLE>
     874:	00000000 	andeq	r0, r0, r0
     878:	00000100 	andeq	r0, r0, r0, lsl #2
     87c:	3c000000 	stccc	0, cr0, [r0], {-0}
     880:	74000002 	strvc	r0, [r0], #-2
     884:	02000002 	andeq	r0, r0, #2, 0
     888:	749f3000 	ldrvc	r3, [pc], #0	; 890 <__code_start__-0x7770>
     88c:	f0000002 			; <UNDEFINED> instruction: 0xf0000002
     890:	01000002 	tsteq	r0, r2
     894:	02f05600 	rscseq	r5, r0, #0, 12
     898:	03040000 	movweq	r0, #16384	; 0x4000
     89c:	00020000 	andeq	r0, r2, r0
     8a0:	00009f30 	andeq	r9, r0, r0, lsr pc
     8a4:	00000000 	andeq	r0, r0, r0
     8a8:	00010000 	andeq	r0, r1, r0
     8ac:	00000000 	andeq	r0, r0, r0
     8b0:	0000023c 	andeq	r0, r0, ip, lsr r2
     8b4:	00000274 	andeq	r0, r0, r4, ror r2
     8b8:	9f300002 	svcls	0x00300002
     8bc:	00000274 	andeq	r0, r0, r4, ror r2
     8c0:	000002f0 	strdeq	r0, [r0], -r0	; <UNPREDICTABLE>
     8c4:	f0570001 			; <UNDEFINED> instruction: 0xf0570001
     8c8:	04000002 	streq	r0, [r0], #-2
     8cc:	02000003 	andeq	r0, r0, #3, 0
     8d0:	009f3000 	addseq	r3, pc, r0
	...
     8ec:	00025400 	andeq	r5, r2, r0, lsl #8
     8f0:	00028400 	andeq	r8, r2, r0, lsl #8
     8f4:	50000100 	andpl	r0, r0, r0, lsl #2
     8f8:	00000284 	andeq	r0, r0, r4, lsl #5
     8fc:	00000290 	muleq	r0, r0, r2
     900:	90540001 	subsls	r0, r4, r1
     904:	c0000002 	andgt	r0, r0, r2
     908:	01000002 	tsteq	r0, r2
     90c:	02c05000 	sbceq	r5, r0, #0, 0
     910:	02c30000 	sbceq	r0, r3, #0, 0
     914:	00010000 	andeq	r0, r1, r0
     918:	0002c352 	andeq	ip, r2, r2, asr r3
     91c:	0002c800 	andeq	ip, r2, r0, lsl #16
     920:	54000100 	strpl	r0, [r0], #-256	; 0xffffff00
     924:	000002c8 	andeq	r0, r0, r8, asr #5
     928:	000002d0 	ldrdeq	r0, [r0], -r0	; <UNPREDICTABLE>
     92c:	d0500001 	subsle	r0, r0, r1
     930:	f0000002 			; <UNDEFINED> instruction: 0xf0000002
     934:	01000002 	tsteq	r0, r2
     938:	02f05400 	rscseq	r5, r0, #0, 8
     93c:	02f80000 	rscseq	r0, r8, #0, 0
     940:	00010000 	andeq	r0, r1, r0
     944:	0002f850 	andeq	pc, r2, r0, asr r8	; <UNPREDICTABLE>
     948:	00034400 	andeq	r4, r3, r0, lsl #8
     94c:	54000100 	strpl	r0, [r0], #-256	; 0xffffff00
	...
     95c:	00000198 	muleq	r0, r8, r1
     960:	000001b3 			; <UNDEFINED> instruction: 0x000001b3
     964:	b4500001 	ldrblt	r0, [r0], #-1
     968:	c0000001 	andgt	r0, r0, r1
     96c:	01000001 	tsteq	r0, r1
     970:	00005000 	andeq	r5, r0, r0
	...
     990:	00000030 	andeq	r0, r0, r0, lsr r0
     994:	30500001 	subscc	r0, r0, r1
     998:	40000000 	andmi	r0, r0, r0
     99c:	01000000 	mrseq	r0, (UNDEF: 0)
     9a0:	00405400 	subeq	r5, r0, r0, lsl #8
     9a4:	00580000 	subseq	r0, r8, r0
     9a8:	00010000 	andeq	r0, r1, r0
     9ac:	00005850 	andeq	r5, r0, r0, asr r8
     9b0:	00006000 	andeq	r6, r0, r0
     9b4:	f3000400 	vshl.u8	d0, d0, d0
     9b8:	609f5001 	addsvs	r5, pc, r1
     9bc:	78000000 	stmdavc	r0, {}	; <UNPREDICTABLE>
     9c0:	01000000 	mrseq	r0, (UNDEF: 0)
     9c4:	00785000 	rsbseq	r5, r8, r0
     9c8:	00800000 	addeq	r0, r0, r0
     9cc:	00010000 	andeq	r0, r1, r0
     9d0:	00008054 	andeq	r8, r0, r4, asr r0
     9d4:	00009800 	andeq	r9, r0, r0, lsl #16
     9d8:	50000100 	andpl	r0, r0, r0, lsl #2
     9dc:	00000098 	muleq	r0, r8, r0
     9e0:	000000a0 	andeq	r0, r0, r0, lsr #1
     9e4:	a0540001 	subsge	r0, r4, r1
     9e8:	8c000000 	stchi	0, cr0, [r0], {-0}
     9ec:	04000001 	streq	r0, [r0], #-1
     9f0:	5001f300 	andpl	pc, r1, r0, lsl #6
     9f4:	0000009f 	muleq	r0, pc, r0	; <UNPREDICTABLE>
	...
     a0c:	00005400 	andeq	r5, r0, r0, lsl #8
     a10:	51000100 	mrspl	r0, (UNDEF: 16)
     a14:	00000054 	andeq	r0, r0, r4, asr r0
     a18:	00000060 	andeq	r0, r0, r0, rrx
     a1c:	01f30004 	mvnseq	r0, r4
     a20:	00609f51 	rsbeq	r9, r0, r1, asr pc
     a24:	00740000 	rsbseq	r0, r4, r0
     a28:	00010000 	andeq	r0, r1, r0
     a2c:	00007451 	andeq	r7, r0, r1, asr r4
     a30:	00008000 	andeq	r8, r0, r0
     a34:	f3000400 	vshl.u8	d0, d0, d0
     a38:	809f5101 	addshi	r5, pc, r1, lsl #2
     a3c:	94000000 	strls	r0, [r0], #-0
     a40:	01000000 	mrseq	r0, (UNDEF: 0)
     a44:	00945100 	addseq	r5, r4, r0, lsl #2
     a48:	018c0000 	orreq	r0, ip, r0
     a4c:	00040000 	andeq	r0, r4, r0
     a50:	9f5101f3 	svcls	0x005101f3
	...
     a5c:	00020200 	andeq	r0, r2, r0, lsl #4
     a60:	00000000 	andeq	r0, r0, r0
     a64:	00a00000 	adceq	r0, r0, r0
     a68:	00a80000 	adceq	r0, r8, r0
     a6c:	00010000 	andeq	r0, r1, r0
     a70:	0000a857 	andeq	sl, r0, r7, asr r8
     a74:	0000b000 	andeq	fp, r0, r0
     a78:	54000100 	strpl	r0, [r0], #-256	; 0xffffff00
     a7c:	000000b4 	strheq	r0, [r0], -r4
     a80:	000000b8 	strheq	r0, [r0], -r8
     a84:	b8540001 	ldmdalt	r4, {r0}^
     a88:	5c000000 	stcpl	0, cr0, [r0], {-0}
     a8c:	01000001 	tsteq	r0, r1
     a90:	015c5700 	cmpeq	ip, r0, lsl #14
     a94:	01640000 	cmneq	r4, r0
     a98:	00010000 	andeq	r0, r1, r0
     a9c:	00000054 	andeq	r0, r0, r4, asr r0
	...
     aa8:	a0000000 	andge	r0, r0, r0
     aac:	a8000000 	stmdage	r0, {}	; <UNPREDICTABLE>
     ab0:	01000000 	mrseq	r0, (UNDEF: 0)
     ab4:	00d85500 	sbcseq	r5, r8, r0, lsl #10
     ab8:	00ef0000 	rsceq	r0, pc, r0
     abc:	00010000 	andeq	r0, r1, r0
     ac0:	0000ef50 	andeq	lr, r0, r0, asr pc
     ac4:	00015c00 	andeq	r5, r1, r0, lsl #24
     ac8:	55000100 	strpl	r0, [r0, #-256]	; 0xffffff00
	...
     ad8:	000000a0 	andeq	r0, r0, r0, lsr #1
     adc:	000000a8 	andeq	r0, r0, r8, lsr #1
     ae0:	e4590001 	ldrb	r0, [r9], #-1
     ae4:	5c000000 	stcpl	0, cr0, [r0], {-0}
     ae8:	01000001 	tsteq	r0, r1
     aec:	00005900 	andeq	r5, r0, r0, lsl #18
	...
     af8:	00a00000 	adceq	r0, r0, r0
     afc:	00a80000 	adceq	r0, r8, r0
     b00:	00010000 	andeq	r0, r1, r0
     b04:	0000e85a 	andeq	lr, r0, sl, asr r8
     b08:	00015c00 	andeq	r5, r1, r0, lsl #24
     b0c:	5a000100 	bpl	f14 <__code_start__-0x70ec>
	...
     b18:	00b80000 	adcseq	r0, r8, r0
     b1c:	00d70000 	sbcseq	r0, r7, r0
     b20:	00020000 	andeq	r0, r2, r0
     b24:	00000077 	andeq	r0, r0, r7, ror r0
	...
     b30:	000000bc 	strheq	r0, [r0], -ip
     b34:	000000d7 	ldrdeq	r0, [r0], -r7
     b38:	00770002 	rsbseq	r0, r7, r2
	...
     b44:	00bc0001 	adcseq	r0, ip, r1
     b48:	00d40000 	sbcseq	r0, r4, r0
     b4c:	00020000 	andeq	r0, r2, r0
     b50:	00000077 	andeq	r0, r0, r7, ror r0
	...
     b64:	03440000 	movteq	r0, #16384	; 0x4000
     b68:	036c0000 	cmneq	ip, #0, 0
     b6c:	00010000 	andeq	r0, r1, r0
     b70:	00036c50 	andeq	r6, r3, r0, asr ip
     b74:	00039800 	andeq	r9, r3, r0, lsl #16
     b78:	54000100 	strpl	r0, [r0], #-256	; 0xffffff00
     b7c:	00000398 	muleq	r0, r8, r3
     b80:	000003b0 			; <UNDEFINED> instruction: 0x000003b0
     b84:	b0500001 	subslt	r0, r0, r1
     b88:	b8000003 	stmdalt	r0, {r0, r1}
     b8c:	01000003 	tsteq	r0, r3
     b90:	03b85400 			; <UNDEFINED> instruction: 0x03b85400
     b94:	03c80000 	biceq	r0, r8, #0, 0
     b98:	00010000 	andeq	r0, r1, r0
     b9c:	0003c850 	andeq	ip, r3, r0, asr r8
     ba0:	0003e800 	andeq	lr, r3, r0, lsl #16
     ba4:	54000100 	strpl	r0, [r0], #-256	; 0xffffff00
	...
     bb0:	03640002 	cmneq	r4, #2, 0
     bb4:	03980000 	orrseq	r0, r8, #0, 0
     bb8:	00040000 	andeq	r0, r4, r0
     bbc:	9f244040 	svcls	0x00244040
	...
     bcc:	000003e8 	andeq	r0, r0, r8, ror #7
     bd0:	000003ef 	andeq	r0, r0, pc, ror #7
     bd4:	ef500001 	svc	0x00500001
     bd8:	f4000003 	vst4.8	{d0-d3}, [r0], r3
     bdc:	04000003 	streq	r0, [r0], #-3
     be0:	5001f300 	andpl	pc, r1, r0, lsl #6
     be4:	0000009f 	muleq	r0, pc, r0	; <UNPREDICTABLE>
	...
     bf4:	00001c00 	andeq	r1, r0, r0, lsl #24
     bf8:	51000100 	mrspl	r0, (UNDEF: 16)
     bfc:	0000001c 	andeq	r0, r0, ip, lsl r0
     c00:	00000078 	andeq	r0, r0, r8, ror r0
     c04:	01f30004 	mvnseq	r0, r4
     c08:	00009f51 	andeq	r9, r0, r1, asr pc
	...
     c18:	00580000 	subseq	r0, r8, r0
     c1c:	00010000 	andeq	r0, r1, r0
     c20:	00005852 	andeq	r5, r0, r2, asr r8
     c24:	00007800 	andeq	r7, r0, r0, lsl #16
     c28:	f3000400 	vshl.u8	d0, d0, d0
     c2c:	009f5201 	addseq	r5, pc, r1, lsl #4
     c30:	00000000 	andeq	r0, r0, r0
     c34:	02000000 	andeq	r0, r0, #0, 0
     c38:	01010000 	mrseq	r0, (UNDEF: 1)
     c3c:	01010000 	mrseq	r0, (UNDEF: 1)
     c40:	01010000 	mrseq	r0, (UNDEF: 1)
     c44:	00000000 	andeq	r0, r0, r0
     c48:	00003800 	andeq	r3, r0, r0, lsl #16
     c4c:	50000100 	andpl	r0, r0, r0, lsl #2
     c50:	00000054 	andeq	r0, r0, r4, asr r0
     c54:	00000054 	andeq	r0, r0, r4, asr r0
     c58:	54530001 	ldrbpl	r0, [r3], #-1
     c5c:	5c000000 	stcpl	0, cr0, [r0], {-0}
     c60:	03000000 	movweq	r0, #0
     c64:	9f017300 	svcls	0x00017300
     c68:	0000005c 	andeq	r0, r0, ip, asr r0
     c6c:	00000064 	andeq	r0, r0, r4, rrx
     c70:	64520001 	ldrbvs	r0, [r2], #-1
     c74:	68000000 	stmdavs	r0, {}	; <UNPREDICTABLE>
     c78:	03000000 	movweq	r0, #0
     c7c:	9f027300 	svcls	0x00027300
     c80:	00000068 	andeq	r0, r0, r8, rrx
     c84:	00000074 	andeq	r0, r0, r4, ror r0
     c88:	74520001 	ldrbvc	r0, [r2], #-1
     c8c:	78000000 	stmdavc	r0, {}	; <UNPREDICTABLE>
     c90:	03000000 	movweq	r0, #0
     c94:	9f017200 	svcls	0x00017200
	...
     ca0:	00080000 	andeq	r0, r8, r0
     ca4:	00780000 	rsbseq	r0, r8, r0
     ca8:	00010000 	andeq	r0, r1, r0
     cac:	00000054 	andeq	r0, r0, r4, asr r0
	...
     cb8:	2c000000 	stccs	0, cr0, [r0], {-0}
     cbc:	34000000 	strcc	r0, [r0], #-0
     cc0:	01000000 	mrseq	r0, (UNDEF: 0)
     cc4:	00345000 	eorseq	r5, r4, r0
     cc8:	00480000 	subeq	r0, r8, r0
     ccc:	00010000 	andeq	r0, r1, r0
     cd0:	00004854 	andeq	r4, r0, r4, asr r8
     cd4:	00005800 	andeq	r5, r0, r0, lsl #16
     cd8:	50000100 	andpl	r0, r0, r0, lsl #2
	...
     ce4:	01000000 	mrseq	r0, (UNDEF: 0)
     ce8:	00000001 	andeq	r0, r0, r1
     cec:	00000000 	andeq	r0, r0, r0
     cf0:	0000000c 	andeq	r0, r0, ip
     cf4:	0c500001 	mrrceq	0, 0, r0, r0, cr1	; <UNPREDICTABLE>
     cf8:	20000000 	andcs	r0, r0, r0
     cfc:	01000000 	mrseq	r0, (UNDEF: 0)
     d00:	00205400 	eoreq	r5, r0, r0, lsl #8
     d04:	00240000 	eoreq	r0, r4, r0
     d08:	00030000 	andeq	r0, r3, r0
     d0c:	249f0174 	ldrcs	r0, [pc], #372	; d14 <__code_start__-0x72ec>
     d10:	38000000 	stmdacc	r0, {}	; <UNPREDICTABLE>
     d14:	01000000 	mrseq	r0, (UNDEF: 0)
     d18:	00005400 	andeq	r5, r0, r0, lsl #8
	...
     d2c:	00000388 	andeq	r0, r0, r8, lsl #7
     d30:	00000394 	muleq	r0, r4, r3
     d34:	94500001 	ldrbls	r0, [r0], #-1
     d38:	d0000003 	andle	r0, r0, r3
     d3c:	01000003 	tsteq	r0, r3
     d40:	03d05b00 	bicseq	r5, r0, #0, 22
     d44:	09200000 	stmdbeq	r0!, {}	; <UNPREDICTABLE>
     d48:	00040000 	andeq	r0, r4, r0
     d4c:	9f5001f3 	svcls	0x005001f3
     d50:	00000920 	andeq	r0, r0, r0, lsr #18
     d54:	00000928 	andeq	r0, r0, r8, lsr #18
     d58:	285b0001 	ldmdacs	fp, {r0}^
     d5c:	b4000009 	strlt	r0, [r0], #-9
     d60:	04000009 	streq	r0, [r0], #-9
     d64:	5001f300 	andpl	pc, r1, r0, lsl #6
     d68:	0000009f 	muleq	r0, pc, r0	; <UNPREDICTABLE>
	...
     d78:	00038800 	andeq	r8, r3, r0, lsl #16
     d7c:	0003d000 	andeq	sp, r3, r0
     d80:	51000100 	mrspl	r0, (UNDEF: 16)
     d84:	000003d0 	ldrdeq	r0, [r0], -r0	; <UNPREDICTABLE>
     d88:	00000920 	andeq	r0, r0, r0, lsr #18
     d8c:	01f30004 	mvnseq	r0, r4
     d90:	09209f51 	stmdbeq	r0!, {r0, r4, r6, r8, r9, sl, fp, ip, pc}
     d94:	09280000 	stmdbeq	r8!, {}	; <UNPREDICTABLE>
     d98:	00010000 	andeq	r0, r1, r0
     d9c:	00092851 	andeq	r2, r9, r1, asr r8
     da0:	0009b400 	andeq	fp, r9, r0, lsl #8
     da4:	f3000400 	vshl.u8	d0, d0, d0
     da8:	009f5101 	addseq	r5, pc, r1, lsl #2
	...
     db8:	00010000 	andeq	r0, r1, r0
     dbc:	00000100 	andeq	r0, r0, r0, lsl #2
	...
     dc8:	88000000 	stmdahi	r0, {}	; <UNPREDICTABLE>
     dcc:	d0000003 	andle	r0, r0, r3
     dd0:	01000003 	tsteq	r0, r3
     dd4:	03d05200 	bicseq	r5, r0, #0, 4
     dd8:	04000000 	streq	r0, [r0], #-0
     ddc:	00010000 	andeq	r0, r1, r0
     de0:	00041456 	andeq	r1, r4, r6, asr r4
     de4:	00042400 	andeq	r2, r4, r0, lsl #8
     de8:	56000100 	strpl	r0, [r0], -r0, lsl #2
     dec:	00000424 	andeq	r0, r0, r4, lsr #8
     df0:	00000428 	andeq	r0, r0, r8, lsr #8
     df4:	7f760003 	svcvc	0x00760003
     df8:	0004a89f 	muleq	r4, pc, r8	; <UNPREDICTABLE>
     dfc:	0004ac00 	andeq	sl, r4, r0, lsl #24
     e00:	56000100 	strpl	r0, [r0], -r0, lsl #2
     e04:	000004e0 	andeq	r0, r0, r0, ror #9
     e08:	00000504 	andeq	r0, r0, r4, lsl #10
     e0c:	7c560001 	mrrcvc	0, 0, r0, r6, cr1
     e10:	88000005 	stmdahi	r0, {r0, r2}
     e14:	01000005 	tsteq	r0, r5
     e18:	05885300 	streq	r5, [r8, #768]	; 0x300
     e1c:	05d00000 	ldrbeq	r0, [r0]
     e20:	00030000 	andeq	r0, r3, r0
     e24:	007dcc91 			; <UNDEFINED> instruction: 0x007dcc91
     e28:	0f000008 	svceq	0x00000008
     e2c:	01000008 	tsteq	r0, r8
     e30:	080f5300 	stmdaeq	pc, {r8, r9, ip, lr}	; <UNPREDICTABLE>
     e34:	08880000 	stmeq	r8, {}	; <UNPREDICTABLE>
     e38:	00030000 	andeq	r0, r3, r0
     e3c:	207dcc91 			; <UNDEFINED> instruction: 0x207dcc91
     e40:	28000009 	stmdacs	r0, {r0, r3}
     e44:	01000009 	tsteq	r0, r9
     e48:	09485200 	stmdbeq	r8, {r9, ip, lr}^
     e4c:	09640000 	stmdbeq	r4!, {}^	; <UNPREDICTABLE>
     e50:	00030000 	andeq	r0, r3, r0
     e54:	007dcc91 			; <UNDEFINED> instruction: 0x007dcc91
	...
     e68:	00000101 	andeq	r0, r0, r1, lsl #2
     e6c:	00000101 	andeq	r0, r0, r1, lsl #2
     e70:	02020000 	andeq	r0, r2, #0, 0
     e74:	02020000 	andeq	r0, r2, #0, 0
     e78:	01010000 	mrseq	r0, (UNDEF: 1)
     e7c:	02020000 	andeq	r0, r2, #0, 0
     e80:	01010000 	mrseq	r0, (UNDEF: 1)
	...
     e8c:	00038800 	andeq	r8, r3, r0, lsl #16
     e90:	0003ac00 	andeq	sl, r3, r0, lsl #24
     e94:	53000100 	movwpl	r0, #256	; 0x100
     e98:	000003ac 	andeq	r0, r0, ip, lsr #7
     e9c:	000003c0 	andeq	r0, r0, r0, asr #7
     ea0:	93530003 	cmpls	r3, #3, 0
     ea4:	0003d004 	andeq	sp, r3, r4
     ea8:	0003e800 	andeq	lr, r3, r0, lsl #16
     eac:	58000300 	stmdapl	r0, {r8, r9}
     eb0:	03e80493 	mvneq	r0, #-1828716544	; 0x93000000
     eb4:	04ac0000 	strteq	r0, [ip], #0
     eb8:	00030000 	andeq	r0, r3, r0
     ebc:	c0049358 	andgt	r9, r4, r8, asr r3
     ec0:	c0000004 	andgt	r0, r0, r4
     ec4:	03000004 	movweq	r0, #4
     ec8:	04935800 	ldreq	r5, [r3], #2048	; 0x800
     ecc:	000004c0 	andeq	r0, r0, r0, asr #9
     ed0:	000004cc 	andeq	r0, r0, ip, asr #9
     ed4:	04780005 	ldrbteq	r0, [r8], #-5
     ed8:	cc04939f 	stcgt	3, cr9, [r4], {159}	; 0x9f
     edc:	e0000004 	and	r0, r0, r4
     ee0:	03000004 	movweq	r0, #4
     ee4:	04935800 	ldreq	r5, [r3], #2048	; 0x800
     ee8:	000004e0 	andeq	r0, r0, r0, ror #9
     eec:	00000538 	andeq	r0, r0, r8, lsr r5
     ef0:	93580003 	cmpls	r8, #3, 0
     ef4:	00053804 	andeq	r3, r5, r4, lsl #16
     ef8:	00053c00 	andeq	r3, r5, r0, lsl #24
     efc:	78000500 	stmdavc	r0, {r8, sl}
     f00:	04939f79 	ldreq	r9, [r3], #3961	; 0xf79
     f04:	000005d0 	ldrdeq	r0, [r0], -r0	; <UNPREDICTABLE>
     f08:	000005d0 	ldrdeq	r0, [r0], -r0	; <UNPREDICTABLE>
     f0c:	93580003 	cmpls	r8, #3, 0
     f10:	0005d004 	andeq	sp, r5, r4
     f14:	0005d400 	andeq	sp, r5, r0, lsl #8
     f18:	78000500 	stmdavc	r0, {r8, sl}
     f1c:	04939f04 	ldreq	r9, [r3], #3844	; 0xf04
     f20:	000005f4 	strdeq	r0, [r0], -r4
     f24:	000005f4 	strdeq	r0, [r0], -r4
     f28:	93580003 	cmpls	r8, #3, 0
     f2c:	0005f404 	andeq	pc, r5, r4, lsl #8
     f30:	0005fc00 	andeq	pc, r5, r0, lsl #24
     f34:	78000500 	stmdavc	r0, {r8, sl}
     f38:	04939f04 	ldreq	r9, [r3], #3844	; 0xf04
     f3c:	000005fc 	strdeq	r0, [r0], -ip
     f40:	000005fc 	strdeq	r0, [r0], -ip
     f44:	93580003 	cmpls	r8, #3, 0
     f48:	0005fc04 	andeq	pc, r5, r4, lsl #24
     f4c:	00060000 	andeq	r0, r6, r0
     f50:	78000500 	stmdavc	r0, {r8, sl}
     f54:	04939f04 	ldreq	r9, [r3], #3844	; 0xf04
     f58:	00000600 	andeq	r0, r0, r0, lsl #12
     f5c:	00000700 	andeq	r0, r0, r0, lsl #14
     f60:	93580003 	cmpls	r8, #3, 0
     f64:	00070004 	andeq	r0, r7, r4
     f68:	00070c00 	andeq	r0, r7, r0, lsl #24
     f6c:	78000500 	stmdavc	r0, {r8, sl}
     f70:	04939f04 	ldreq	r9, [r3], #3844	; 0xf04
     f74:	0000070c 	andeq	r0, r0, ip, lsl #14
     f78:	000007f8 	strdeq	r0, [r0], -r8
     f7c:	93580003 	cmpls	r8, #3, 0
     f80:	0007f804 	andeq	pc, r7, r4, lsl #16
     f84:	0007fc00 	andeq	pc, r7, r0, lsl #24
     f88:	78000500 	stmdavc	r0, {r8, sl}
     f8c:	04939f04 	ldreq	r9, [r3], #3844	; 0xf04
     f90:	000007fc 	strdeq	r0, [r0], -ip
     f94:	00000800 	andeq	r0, r0, r0, lsl #16
     f98:	93580003 	cmpls	r8, #3, 0
     f9c:	00088804 	andeq	r8, r8, r4, lsl #16
     fa0:	00092000 	andeq	r2, r9, r0
     fa4:	58000300 	stmdapl	r0, {r8, r9}
     fa8:	09200493 	stmdbeq	r0!, {r0, r1, r4, r7, sl}
     fac:	09280000 	stmdbeq	r8!, {}	; <UNPREDICTABLE>
     fb0:	00010000 	andeq	r0, r1, r0
     fb4:	00096453 	andeq	r6, r9, r3, asr r4
     fb8:	0009b400 	andeq	fp, r9, r0, lsl #8
     fbc:	58000300 	stmdapl	r0, {r8, r9}
     fc0:	00000493 	muleq	r0, r3, r4
     fc4:	00000000 	andeq	r0, r0, r0
     fc8:	00010000 	andeq	r0, r1, r0
     fcc:	00000000 	andeq	r0, r0, r0
     fd0:	02000000 	andeq	r0, r0, #0, 0
     fd4:	00000002 	andeq	r0, r0, r2
     fd8:	00010101 	andeq	r0, r1, r1, lsl #2
     fdc:	00000000 	andeq	r0, r0, r0
     fe0:	000003ac 	andeq	r0, r0, ip, lsr #7
     fe4:	000003d0 	ldrdeq	r0, [r0], -r0	; <UNPREDICTABLE>
     fe8:	d05b0001 	subsle	r0, fp, r1
     fec:	d4000003 	strle	r0, [r0], #-3
     ff0:	01000003 	tsteq	r0, r3
     ff4:	03d45400 	bicseq	r5, r4, #0, 8
     ff8:	03d80000 	bicseq	r0, r8, #0, 0
     ffc:	00030000 	andeq	r0, r3, r0
    1000:	d89f7f74 	ldmle	pc, {r2, r4, r5, r6, r8, r9, sl, fp, ip, sp, lr}	; <UNPREDICTABLE>
    1004:	fc000003 	stc2	0, cr0, [r0], {3}
    1008:	01000003 	tsteq	r0, r3
    100c:	04a85400 	strteq	r5, [r8], #1024	; 0x400
    1010:	04ac0000 	strteq	r0, [ip], #0
    1014:	00010000 	andeq	r0, r1, r0
    1018:	0004ac54 	andeq	sl, r4, r4, asr ip
    101c:	0004b400 	andeq	fp, r4, r0, lsl #8
    1020:	74000300 	strvc	r0, [r0], #-768	; 0xfffffd00
    1024:	04b49f01 	ldrteq	r9, [r4], #3841	; 0xf01
    1028:	04c00000 	strbeq	r0, [r0], #0
    102c:	00010000 	andeq	r0, r1, r0
    1030:	0004e454 	andeq	lr, r4, r4, asr r4
    1034:	0004f400 	andeq	pc, r4, r0, lsl #8
    1038:	54000100 	strpl	r0, [r0], #-256	; 0xffffff00
    103c:	000004f4 	strdeq	r0, [r0], -r4
    1040:	000004f8 	strdeq	r0, [r0], -r8
    1044:	01740003 	cmneq	r4, r3
    1048:	0004f89f 	muleq	r4, pc, r8	; <UNPREDICTABLE>
    104c:	00050400 	andeq	r0, r5, r0, lsl #8
    1050:	54000100 	strpl	r0, [r0], #-256	; 0xffffff00
    1054:	00000920 	andeq	r0, r0, r0, lsr #18
    1058:	00000928 	andeq	r0, r0, r8, lsr #18
    105c:	005b0001 	subseq	r0, fp, r1
    1060:	00000000 	andeq	r0, r0, r0
    1064:	01000000 	mrseq	r0, (UNDEF: 0)
    1068:	0003ac00 	andeq	sl, r3, r0, lsl #24
    106c:	0009b400 	andeq	fp, r9, r0, lsl #8
    1070:	57000100 	strpl	r0, [r0, -r0, lsl #2]
	...
    107c:	00000002 	andeq	r0, r0, r2
    1080:	057c0000 	ldrbeq	r0, [ip, #-0]!
    1084:	05d00000 	ldrbeq	r0, [r0]
    1088:	00010000 	andeq	r0, r1, r0
    108c:	0008005b 	andeq	r0, r8, fp, asr r0
    1090:	00088800 	andeq	r8, r8, r0, lsl #16
    1094:	5b000100 	blpl	149c <__code_start__-0x6b64>
    1098:	00000948 	andeq	r0, r0, r8, asr #18
    109c:	00000964 	andeq	r0, r0, r4, ror #18
    10a0:	005b0001 	subseq	r0, fp, r1
    10a4:	00000000 	andeq	r0, r0, r0
    10a8:	03000000 	movweq	r0, #0
    10ac:	00000000 	andeq	r0, r0, r0
    10b0:	00057c00 	andeq	r7, r5, r0, lsl #24
    10b4:	0005d000 	andeq	sp, r5, r0
    10b8:	59000100 	stmdbpl	r0, {r8}
    10bc:	00000800 	andeq	r0, r0, r0, lsl #16
    10c0:	00000888 	andeq	r0, r0, r8, lsl #17
    10c4:	48590001 	ldmdami	r9, {r0}^
    10c8:	64000009 	strvs	r0, [r0], #-9
    10cc:	01000009 	tsteq	r0, r9
    10d0:	00005900 	andeq	r5, r0, r0, lsl #18
    10d4:	00000000 	andeq	r0, r0, r0
    10d8:	00040000 	andeq	r0, r4, r0
    10dc:	00000000 	andeq	r0, r0, r0
    10e0:	03ac0000 			; <UNDEFINED> instruction: 0x03ac0000
    10e4:	03d00000 	bicseq	r0, r0, #0, 0
    10e8:	00010000 	andeq	r0, r1, r0
    10ec:	0003d052 	andeq	sp, r3, r2, asr r0
    10f0:	00092000 	andeq	r2, r9, r0
    10f4:	f3000400 	vshl.u8	d0, d0, d0
    10f8:	209f5201 	addscs	r5, pc, r1, lsl #4
    10fc:	28000009 	stmdacs	r0, {r0, r3}
    1100:	01000009 	tsteq	r0, r9
    1104:	09285200 	stmdbeq	r8!, {r9, ip, lr}
    1108:	09b40000 	ldmibeq	r4!, {}	; <UNPREDICTABLE>
    110c:	00040000 	andeq	r0, r4, r0
    1110:	9f5201f3 	svcls	0x005201f3
	...
    111c:	00010100 	andeq	r0, r1, r0, lsl #2
    1120:	00000000 	andeq	r0, r0, r0
    1124:	00000001 	andeq	r0, r0, r1
    1128:	000004e0 	andeq	r0, r0, r0, ror #9
    112c:	000004e0 	andeq	r0, r0, r0, ror #9
    1130:	e0500001 	subs	r0, r0, r1
    1134:	e8000004 	stmda	r0, {r2}
    1138:	01000004 	tsteq	r0, r4
    113c:	05b85500 	ldreq	r5, [r8, #1280]!	; 0x500
    1140:	05d00000 	ldrbeq	r0, [r0]
    1144:	00010000 	andeq	r0, r1, r0
    1148:	0005f055 	andeq	pc, r5, r5, asr r0	; <UNPREDICTABLE>
    114c:	0005f400 	andeq	pc, r5, r0, lsl #8
    1150:	50000100 	andpl	r0, r0, r0, lsl #2
    1154:	000007f4 	strdeq	r0, [r0], -r4
    1158:	000007f8 	strdeq	r0, [r0], -r8
    115c:	50550001 	subspl	r0, r5, r1
    1160:	88000008 	stmdahi	r0, {r3}
    1164:	01000008 	tsteq	r0, r8
    1168:	00005500 	andeq	r5, r0, r0, lsl #10
    116c:	00000000 	andeq	r0, r0, r0
    1170:	00020000 	andeq	r0, r2, r0
    1174:	00000000 	andeq	r0, r0, r0
    1178:	04140000 	ldreq	r0, [r4], #-0
    117c:	04180000 	ldreq	r0, [r8], #-0
    1180:	00020000 	andeq	r0, r2, r0
    1184:	04189f30 	ldreq	r9, [r8], #-3888	; 0xfffff0d0
    1188:	041c0000 	ldreq	r0, [ip], #-0
    118c:	00010000 	andeq	r0, r1, r0
    1190:	00042855 	andeq	r2, r4, r5, asr r8
    1194:	00043c00 	andeq	r3, r4, r0, lsl #24
    1198:	55000100 	strpl	r0, [r0, #-256]	; 0xffffff00
    119c:	00000928 	andeq	r0, r0, r8, lsr #18
    11a0:	00000930 	andeq	r0, r0, r0, lsr r9
    11a4:	00550001 	subseq	r0, r5, r1
    11a8:	00000000 	andeq	r0, r0, r0
    11ac:	01000000 	mrseq	r0, (UNDEF: 0)
	...
    11b8:	04000000 	streq	r0, [r0], #-0
    11bc:	84000005 	strhi	r0, [r0], #-5
    11c0:	01000005 	tsteq	r0, r5
    11c4:	05845600 	streq	r5, [r4, #1536]	; 0x600
    11c8:	05880000 	streq	r0, [r8]
    11cc:	00030000 	andeq	r0, r3, r0
    11d0:	889f7e73 	ldmhi	pc, {r0, r1, r4, r5, r6, r9, sl, fp, ip, sp, lr}	; <UNPREDICTABLE>
    11d4:	d0000005 	andle	r0, r0, r5
    11d8:	07000005 	streq	r0, [r0, -r5]
    11dc:	7dcc9100 	stfvcp	f1, [ip]
    11e0:	9f1c3206 	svcls	0x001c3206
    11e4:	00000800 	andeq	r0, r0, r0, lsl #16
    11e8:	0000081c 	andeq	r0, r0, ip, lsl r8
    11ec:	1c560001 	mrrcne	0, 0, r0, r6, cr1
    11f0:	88000008 	stmdahi	r0, {r3}
    11f4:	07000008 	streq	r0, [r0, -r8]
    11f8:	7dcc9100 	stfvcp	f1, [ip]
    11fc:	9f1c3206 	svcls	0x001c3206
    1200:	00000948 	andeq	r0, r0, r8, asr #18
    1204:	000009b4 			; <UNDEFINED> instruction: 0x000009b4
    1208:	00560001 	subseq	r0, r6, r1
    120c:	00000000 	andeq	r0, r0, r0
    1210:	04000000 	streq	r0, [r0], #-0
    1214:	14040206 	strne	r0, [r4], #-518	; 0xfffffdfa
    1218:	14000004 	strne	r0, [r0], #-4
    121c:	06000004 	streq	r0, [r0], -r4
    1220:	08007200 	stmdaeq	r0, {r9, ip, sp, lr}
    1224:	289f1aff 	ldmcs	pc, {r0, r1, r2, r3, r4, r5, r6, r7, r9, fp, ip}	; <UNPREDICTABLE>
    1228:	28000004 	stmdacs	r0, {r2}
    122c:	06000004 	streq	r0, [r0], -r4
    1230:	08007200 	stmdaeq	r0, {r9, ip, sp, lr}
    1234:	009f1aff 			; <UNDEFINED> instruction: 0x009f1aff
    1238:	00000000 	andeq	r0, r0, r0
    123c:	02000000 	andeq	r0, r0, #0, 0
    1240:	00000000 	andeq	r0, r0, r0
    1244:	0005fc00 	andeq	pc, r5, r0, lsl #24
    1248:	00070000 	andeq	r0, r7, r0
    124c:	08000300 	stmdaeq	r0, {r8, r9}
    1250:	08a89f80 	stmiaeq	r8!, {r7, r8, r9, sl, fp, ip, pc}
    1254:	08bc0000 	ldmeq	ip!, {}	; <UNPREDICTABLE>
    1258:	00030000 	andeq	r0, r3, r0
    125c:	109f8008 	addsne	r8, pc, r8
    1260:	20000009 	andcs	r0, r0, r9
    1264:	03000009 	movweq	r0, #9
    1268:	9f800800 	svcls	0x00800800
	...
    1274:	00000001 	andeq	r0, r0, r1
    1278:	05fc0000 	ldrbeq	r0, [ip, #0]!
    127c:	07000000 	streq	r0, [r0, -r0]
    1280:	00020000 	andeq	r0, r2, r0
    1284:	08a89f30 	stmiaeq	r8!, {r4, r5, r8, r9, sl, fp, ip, pc}
    1288:	08bc0000 	ldmeq	ip!, {}	; <UNPREDICTABLE>
    128c:	00020000 	andeq	r0, r2, r0
    1290:	09109f30 	ldmdbeq	r0, {r4, r5, r8, r9, sl, fp, ip, pc}
    1294:	09200000 	stmdbeq	r0!, {}	; <UNPREDICTABLE>
    1298:	00020000 	andeq	r0, r2, r0
    129c:	00009f30 	andeq	r9, r0, r0, lsr pc
    12a0:	00000000 	andeq	r0, r0, r0
    12a4:	00010000 	andeq	r0, r1, r0
    12a8:	00000000 	andeq	r0, r0, r0
    12ac:	000005fc 	strdeq	r0, [r0], -ip
    12b0:	000006e0 	andeq	r0, r0, r0, ror #13
    12b4:	a8550001 	ldmdage	r5, {r0}^
    12b8:	bc000008 	stclt	0, cr0, [r0], {8}
    12bc:	01000008 	tsteq	r0, r8
    12c0:	09105500 	ldmdbeq	r0, {r8, sl, ip, lr}
    12c4:	09200000 	stmdbeq	r0!, {}	; <UNPREDICTABLE>
    12c8:	00010000 	andeq	r0, r1, r0
    12cc:	00000055 	andeq	r0, r0, r5, asr r0
    12d0:	00000000 	andeq	r0, r0, r0
    12d4:	00000100 	andeq	r0, r0, r0, lsl #2
    12d8:	00000000 	andeq	r0, r0, r0
    12dc:	0005fc00 	andeq	pc, r5, r0, lsl #24
    12e0:	0006e000 	andeq	lr, r6, r0
    12e4:	91000400 	tstls	r0, r0, lsl #8
    12e8:	e09f7dd0 			; <UNDEFINED> instruction: 0xe09f7dd0
    12ec:	00000006 	andeq	r0, r0, r6
    12f0:	01000007 	tsteq	r0, r7
    12f4:	08a85500 	stmiaeq	r8!, {r8, sl, ip, lr}
    12f8:	08bc0000 	ldmeq	ip!, {}	; <UNPREDICTABLE>
    12fc:	00040000 	andeq	r0, r4, r0
    1300:	9f7dd091 	svcls	0x007dd091
    1304:	00000910 	andeq	r0, r0, r0, lsl r9
    1308:	00000920 	andeq	r0, r0, r0, lsr #18
    130c:	d0910004 	addsle	r0, r1, r4
    1310:	00009f7d 	andeq	r9, r0, sp, ror pc
    1314:	00000000 	andeq	r0, r0, r0
    1318:	00010000 	andeq	r0, r1, r0
    131c:	00000000 	andeq	r0, r0, r0
    1320:	000005fc 	strdeq	r0, [r0], -ip
    1324:	00000700 	andeq	r0, r0, r0, lsl #14
    1328:	9f380002 	svcls	0x00380002
    132c:	000008a8 	andeq	r0, r0, r8, lsr #17
    1330:	000008bc 			; <UNDEFINED> instruction: 0x000008bc
    1334:	9f380002 	svcls	0x00380002
    1338:	00000910 	andeq	r0, r0, r0, lsl r9
    133c:	00000920 	andeq	r0, r0, r0, lsr #18
    1340:	9f380002 	svcls	0x00380002
	...
    134c:	00070704 	andeq	r0, r7, r4, lsl #14
	...
    1358:	05fc0000 	ldrbeq	r0, [ip, #0]!
    135c:	05fc0000 	ldrbeq	r0, [ip, #0]!
    1360:	00040000 	andeq	r0, r4, r0
    1364:	9f7ed091 	svcls	0x007ed091
    1368:	000005fc 	strdeq	r0, [r0], -ip
    136c:	00000678 	andeq	r0, r0, r8, ror r6
    1370:	d1910004 	orrsle	r0, r1, r4
    1374:	06789f7e 	uhsub16eq	r9, r8, lr
    1378:	06d40000 	ldrbeq	r0, [r4], r0
    137c:	00010000 	andeq	r0, r1, r0
    1380:	0006d45c 	andeq	sp, r6, ip, asr r4
    1384:	00070000 	andeq	r0, r7, r0
    1388:	91000400 	tstls	r0, r0, lsl #8
    138c:	a89f7ed1 	ldmge	pc, {r0, r4, r6, r7, r9, sl, fp, ip, sp, lr}	; <UNPREDICTABLE>
    1390:	bc000008 	stclt	0, cr0, [r0], {8}
    1394:	04000008 	streq	r0, [r0], #-8
    1398:	7ed19100 	atnvcs	f1, f0
    139c:	0009109f 	muleq	r9, pc, r0	; <UNPREDICTABLE>
    13a0:	00091400 	andeq	r1, r9, r0, lsl #8
    13a4:	91000400 	tstls	r0, r0, lsl #8
    13a8:	149f7ed1 	ldrne	r7, [pc], #3793	; 13b0 <__code_start__-0x6c50>
    13ac:	20000009 	andcs	r0, r0, r9
    13b0:	01000009 	tsteq	r0, r9
    13b4:	00005c00 	andeq	r5, r0, r0, lsl #24
    13b8:	00000000 	andeq	r0, r0, r0
    13bc:	01040000 	mrseq	r0, (UNDEF: 4)
    13c0:	00000100 	andeq	r0, r0, r0, lsl #2
    13c4:	00000608 	andeq	r0, r0, r8, lsl #12
    13c8:	000006d0 	ldrdeq	r0, [r0], -r0	; <UNPREDICTABLE>
    13cc:	a8550001 	ldmdage	r5, {r0}^
    13d0:	b8000008 	stmdalt	r0, {r3}
    13d4:	01000008 	tsteq	r0, r8
    13d8:	09105500 	ldmdbeq	r0, {r8, sl, ip, lr}
    13dc:	09200000 	stmdbeq	r0!, {}	; <UNPREDICTABLE>
    13e0:	00010000 	andeq	r0, r1, r0
    13e4:	00000055 	andeq	r0, r0, r5, asr r0
    13e8:	00000000 	andeq	r0, r0, r0
    13ec:	00000400 	andeq	r0, r0, r0, lsl #8
    13f0:	00010000 	andeq	r0, r1, r0
    13f4:	00010000 	andeq	r0, r1, r0
    13f8:	00060800 	andeq	r0, r6, r0, lsl #16
    13fc:	0006b000 	andeq	fp, r6, r0
    1400:	91000400 	tstls	r0, r0, lsl #8
    1404:	b09f7ed0 			; <UNDEFINED> instruction: 0xb09f7ed0
    1408:	c8000006 	stmdagt	r0, {r1, r2}
    140c:	01000006 	tsteq	r0, r6
    1410:	06c85000 	strbeq	r5, [r8], r0
    1414:	06d00000 	ldrbeq	r0, [r0], r0
    1418:	00040000 	andeq	r0, r4, r0
    141c:	9f7ed091 	svcls	0x007ed091
    1420:	000008a8 	andeq	r0, r0, r8, lsr #17
    1424:	000008b0 			; <UNDEFINED> instruction: 0x000008b0
    1428:	d0910004 	addsle	r0, r1, r4
    142c:	08b09f7e 	ldmeq	r0!, {r1, r2, r3, r4, r5, r6, r8, r9, sl, fp, ip, pc}
    1430:	08b80000 	ldmeq	r8!, {}	; <UNPREDICTABLE>
    1434:	00010000 	andeq	r0, r1, r0
    1438:	00091053 	andeq	r1, r9, r3, asr r0
    143c:	00092000 	andeq	r2, r9, r0
    1440:	91000400 	tstls	r0, r0, lsl #8
    1444:	009f7ed0 			; <UNDEFINED> instruction: 0x009f7ed0
    1448:	00000000 	andeq	r0, r0, r0
    144c:	04000000 	streq	r0, [r0], #-0
    1450:	01010000 	mrseq	r0, (UNDEF: 1)
    1454:	03030101 	movweq	r0, #12545	; 0x3101
    1458:	00010002 	andeq	r0, r1, r2
    145c:	08000000 	stmdaeq	r0, {}	; <UNPREDICTABLE>
    1460:	24000006 	strcs	r0, [r0], #-6
    1464:	04000006 	streq	r0, [r0], #-6
    1468:	7ed19100 	atnvcs	f1, f0
    146c:	0006849f 	muleq	r6, pc, r4	; <UNPREDICTABLE>
    1470:	00068400 	andeq	r8, r6, r0, lsl #8
    1474:	50000100 	andpl	r0, r0, r0, lsl #2
    1478:	00000684 	andeq	r0, r0, r4, lsl #13
    147c:	00000698 	muleq	r0, r8, r6
    1480:	01700003 	cmneq	r0, r3
    1484:	0006989f 	muleq	r6, pc, r8	; <UNPREDICTABLE>
    1488:	0006a400 	andeq	sl, r6, r0, lsl #8
    148c:	70000300 	andvc	r0, r0, r0, lsl #6
    1490:	06a49f02 	strteq	r9, [r4], r2, lsl #30
    1494:	06a80000 	strteq	r0, [r8], r0
    1498:	00030000 	andeq	r0, r3, r0
    149c:	a89f0370 	ldmge	pc, {r4, r5, r6, r8, r9}	; <UNPREDICTABLE>
    14a0:	b8000008 	stmdalt	r0, {r3}
    14a4:	04000008 	streq	r0, [r0], #-8
    14a8:	7ed19100 	atnvcs	f1, f0
    14ac:	0009109f 	muleq	r9, pc, r0	; <UNPREDICTABLE>
    14b0:	00091400 	andeq	r1, r9, r0, lsl #8
    14b4:	91000400 	tstls	r0, r0, lsl #8
    14b8:	149f7ed1 	ldrne	r7, [pc], #3793	; 14c0 <__code_start__-0x6b40>
    14bc:	20000009 	andcs	r0, r0, r9
    14c0:	01000009 	tsteq	r0, r9
    14c4:	00005c00 	andeq	r5, r0, r0, lsl #24
    14c8:	00000000 	andeq	r0, r0, r0
    14cc:	00060000 	andeq	r0, r6, r0
    14d0:	01010100 	mrseq	r0, (UNDEF: 17)
    14d4:	02010101 	andeq	r0, r1, #1073741824	; 0x40000000
    14d8:	00000100 	andeq	r0, r0, r0, lsl #2
    14dc:	00000608 	andeq	r0, r0, r8, lsl #12
    14e0:	00000624 	andeq	r0, r0, r4, lsr #12
    14e4:	9f310002 	svcls	0x00310002
    14e8:	00000684 	andeq	r0, r0, r4, lsl #13
    14ec:	00000694 	muleq	r0, r4, r6
    14f0:	94520001 	ldrbls	r0, [r2], #-1
    14f4:	a4000006 	strge	r0, [r0], #-6
    14f8:	01000006 	tsteq	r0, r6
    14fc:	06a45900 	strteq	r5, [r4], r0, lsl #18
    1500:	06a80000 	strteq	r0, [r8], r0
    1504:	00010000 	andeq	r0, r1, r0
    1508:	0006a852 	andeq	sl, r6, r2, asr r8
    150c:	0006a800 	andeq	sl, r6, r0, lsl #16
    1510:	72000300 	andvc	r0, r0, #0, 6
    1514:	08a89f01 	stmiaeq	r8!, {r0, r8, r9, sl, fp, ip, pc}
    1518:	08b80000 	ldmeq	r8!, {}	; <UNPREDICTABLE>
    151c:	00020000 	andeq	r0, r2, r0
    1520:	09109f31 	ldmdbeq	r0, {r0, r4, r5, r8, r9, sl, fp, ip, pc}
    1524:	09200000 	stmdbeq	r0!, {}	; <UNPREDICTABLE>
    1528:	00020000 	andeq	r0, r2, r0
    152c:	00009f31 	andeq	r9, r0, r1, lsr pc
    1530:	00000000 	andeq	r0, r0, r0
    1534:	06010000 	streq	r0, [r1], -r0
    1538:	00010006 	andeq	r0, r1, r6
    153c:	000006d0 	ldrdeq	r0, [r0], -r0	; <UNPREDICTABLE>
    1540:	000006d0 	ldrdeq	r0, [r0], -r0	; <UNPREDICTABLE>
    1544:	d0910004 	addsle	r0, r1, r4
    1548:	06d09f7e 			; <UNDEFINED> instruction: 0x06d09f7e
    154c:	07000000 	streq	r0, [r0, -r0]
    1550:	00010000 	andeq	r0, r1, r0
    1554:	0008b850 	andeq	fp, r8, r0, asr r8
    1558:	0008bc00 	andeq	fp, r8, r0, lsl #24
    155c:	53000100 	movwpl	r0, #256	; 0x100
	...
    1568:	00000801 	andeq	r0, r0, r1, lsl #16
    156c:	00010100 	andeq	r0, r1, r0, lsl #2
    1570:	06d00701 	ldrbeq	r0, [r0], r1, lsl #14
    1574:	06d00000 	ldrbeq	r0, [r0], r0
    1578:	00060000 	andeq	r0, r6, r0
    157c:	0071007c 	rsbseq	r0, r1, ip, ror r0
    1580:	06e49f22 	strbteq	r9, [r4], r2, lsr #30
    1584:	06e80000 	strbteq	r0, [r8], r0
    1588:	00030000 	andeq	r0, r3, r0
    158c:	e89f7f73 	ldm	pc, {r0, r1, r4, r5, r6, r8, r9, sl, fp, ip, sp, lr}	; <UNPREDICTABLE>
    1590:	f0000006 			; <UNDEFINED> instruction: 0xf0000006
    1594:	01000006 	tsteq	r0, r6
    1598:	06f05300 	ldrbteq	r5, [r0], r0, lsl #6
    159c:	06f80000 	ldrbteq	r0, [r8], r0
    15a0:	00030000 	andeq	r0, r3, r0
    15a4:	b89f7f73 	ldmlt	pc, {r0, r1, r4, r5, r6, r8, r9, sl, fp, ip, sp, lr}	; <UNPREDICTABLE>
    15a8:	b8000008 	stmdalt	r0, {r3}
    15ac:	04000008 	streq	r0, [r0], #-8
    15b0:	7ed19100 	atnvcs	f1, f0
    15b4:	0000009f 	muleq	r0, pc, r0	; <UNPREDICTABLE>
    15b8:	00000000 	andeq	r0, r0, r0
    15bc:	01000100 	mrseq	r0, (UNDEF: 16)
    15c0:	0006d000 	andeq	sp, r6, r0
    15c4:	00070000 	andeq	r0, r7, r0
    15c8:	08000300 	stmdaeq	r0, {r8, r9}
    15cc:	08b89f80 	ldmeq	r8!, {r7, r8, r9, sl, fp, ip, pc}
    15d0:	08bc0000 	ldmeq	ip!, {}	; <UNPREDICTABLE>
    15d4:	00030000 	andeq	r0, r3, r0
    15d8:	009f8008 	addseq	r8, pc, r8
    15dc:	00000000 	andeq	r0, r0, r0
    15e0:	01000000 	mrseq	r0, (UNDEF: 0)
    15e4:	00000000 	andeq	r0, r0, r0
    15e8:	00000101 	andeq	r0, r0, r1, lsl #2
    15ec:	01010200 	mrseq	r0, R9_usr
    15f0:	0006d000 	andeq	sp, r6, r0
    15f4:	0006e000 	andeq	lr, r6, r0
    15f8:	91000400 	tstls	r0, r0, lsl #8
    15fc:	e09f7dd0 			; <UNDEFINED> instruction: 0xe09f7dd0
    1600:	e4000006 	str	r0, [r0], #-6
    1604:	01000006 	tsteq	r0, r6
    1608:	06e45500 	strbteq	r5, [r4], r0, lsl #10
    160c:	06e40000 	strbteq	r0, [r4], r0
    1610:	00030000 	andeq	r0, r3, r0
    1614:	e49f0172 	ldr	r0, [pc], #370	; 161c <__code_start__-0x69e4>
    1618:	f0000006 			; <UNDEFINED> instruction: 0xf0000006
    161c:	03000006 	movweq	r0, #6
    1620:	9f027200 	svcls	0x00027200
    1624:	000006f0 	strdeq	r0, [r0], -r0	; <UNPREDICTABLE>
    1628:	00000700 	andeq	r0, r0, r0, lsl #14
    162c:	01720003 	cmneq	r2, r3
    1630:	0007ec9f 	muleq	r7, pc, ip	; <UNPREDICTABLE>
    1634:	0007f400 	andeq	pc, r7, r0, lsl #8
    1638:	73000300 	movwvc	r0, #768	; 0x300
    163c:	08b89f01 	ldmeq	r8!, {r0, r8, r9, sl, fp, ip, pc}
    1640:	08bc0000 	ldmeq	ip!, {}	; <UNPREDICTABLE>
    1644:	00040000 	andeq	r0, r4, r0
    1648:	9f7dd091 	svcls	0x007dd091
	...
    1654:	08b80004 	ldmeq	r8!, {r2}
    1658:	08bc0000 	ldmeq	ip!, {}	; <UNPREDICTABLE>
    165c:	00020000 	andeq	r0, r2, r0
    1660:	00009f32 	andeq	r9, r0, r2, lsr pc
    1664:	00000000 	andeq	r0, r0, r0
    1668:	00070000 	andeq	r0, r7, r0
    166c:	00060000 	andeq	r0, r6, r0
    1670:	000006d0 	ldrdeq	r0, [r0], -r0	; <UNPREDICTABLE>
    1674:	000006e0 	andeq	r0, r0, r0, ror #13
    1678:	d0910004 	addsle	r0, r1, r4
    167c:	06e09f7d 			; <UNDEFINED> instruction: 0x06e09f7d
    1680:	07000000 	streq	r0, [r0, -r0]
    1684:	00010000 	andeq	r0, r1, r0
    1688:	0008b855 	andeq	fp, r8, r5, asr r8
    168c:	0008bc00 	andeq	fp, r8, r0, lsl #24
    1690:	91000400 	tstls	r0, r0, lsl #8
    1694:	009f7dd0 			; <UNDEFINED> instruction: 0x009f7dd0
    1698:	00000000 	andeq	r0, r0, r0
    169c:	01000000 	mrseq	r0, (UNDEF: 0)
    16a0:	0c000000 	stceq	0, cr0, [r0], {-0}
    16a4:	ec000007 	stc	0, cr0, [r0], {7}
    16a8:	03000007 	movweq	r0, #7
    16ac:	9f800800 	svcls	0x00800800
    16b0:	00000894 	muleq	r0, r4, r8
    16b4:	000008a8 	andeq	r0, r0, r8, lsr #17
    16b8:	80080003 	andhi	r0, r8, r3
    16bc:	0000009f 	muleq	r0, pc, r0	; <UNPREDICTABLE>
	...
    16c8:	00070c00 	andeq	r0, r7, r0, lsl #24
    16cc:	0007ec00 	andeq	lr, r7, r0, lsl #24
    16d0:	30000200 	andcc	r0, r0, r0, lsl #4
    16d4:	0008949f 	muleq	r8, pc, r4	; <UNPREDICTABLE>
    16d8:	0008a800 	andeq	sl, r8, r0, lsl #16
    16dc:	30000200 	andcc	r0, r0, r0, lsl #4
    16e0:	0000009f 	muleq	r0, pc, r0	; <UNPREDICTABLE>
	...
    16ec:	00070c00 	andeq	r0, r7, r0, lsl #24
    16f0:	0007d000 	andeq	sp, r7, r0
    16f4:	55000100 	strpl	r0, [r0, #-256]	; 0xffffff00
    16f8:	00000894 	muleq	r0, r4, r8
    16fc:	000008a8 	andeq	r0, r0, r8, lsr #17
    1700:	00550001 	subseq	r0, r5, r1
	...
    1710:	00070c00 	andeq	r0, r7, r0, lsl #24
    1714:	0007d000 	andeq	sp, r7, r0
    1718:	91000400 	tstls	r0, r0, lsl #8
    171c:	d09f7dd0 			; <UNDEFINED> instruction: 0xd09f7dd0
    1720:	ec000007 	stc	0, cr0, [r0], {7}
    1724:	01000007 	tsteq	r0, r7
    1728:	08945500 	ldmeq	r4, {r8, sl, ip, lr}
    172c:	08a80000 	stmiaeq	r8!, {}	; <UNPREDICTABLE>
    1730:	00040000 	andeq	r0, r4, r0
    1734:	9f7dd091 	svcls	0x007dd091
	...
    1744:	0000070c 	andeq	r0, r0, ip, lsl #14
    1748:	000007ec 	andeq	r0, r0, ip, ror #15
    174c:	9f320002 	svcls	0x00320002
    1750:	00000894 	muleq	r0, r4, r8
    1754:	000008a8 	andeq	r0, r0, r8, lsr #17
    1758:	9f320002 	svcls	0x00320002
	...
    1764:	00050503 	andeq	r0, r5, r3, lsl #10
    1768:	00000000 	andeq	r0, r0, r0
    176c:	070c0000 	streq	r0, [ip, -r0]
    1770:	070c0000 	streq	r0, [ip, -r0]
    1774:	00010000 	andeq	r0, r1, r0
    1778:	00070c51 	andeq	r0, r7, r1, asr ip
    177c:	00071c00 	andeq	r1, r7, r0, lsl #24
    1780:	53000100 	movwpl	r0, #256	; 0x100
    1784:	0000071c 	andeq	r0, r0, ip, lsl r7
    1788:	00000724 	andeq	r0, r0, r4, lsr #14
    178c:	01720003 	cmneq	r2, r3
    1790:	0007249f 	muleq	r7, pc, r4	; <UNPREDICTABLE>
    1794:	0007cc00 	andeq	ip, r7, r0, lsl #24
    1798:	53000100 	movwpl	r0, #256	; 0x100
    179c:	00000894 	muleq	r0, r4, r8
    17a0:	000008a8 	andeq	r0, r0, r8, lsr #17
    17a4:	00530001 	subseq	r0, r3, r1
    17a8:	00000000 	andeq	r0, r0, r0
    17ac:	05000000 	streq	r0, [r0, #-0]
    17b0:	0c000100 	stfeqs	f0, [r0], {-0}
    17b4:	20000007 	andcs	r0, r0, r7
    17b8:	01000007 	tsteq	r0, r7
    17bc:	07245000 	streq	r5, [r4, -r0]!
    17c0:	072c0000 	streq	r0, [ip, -r0]!
    17c4:	00010000 	andeq	r0, r1, r0
    17c8:	00000050 	andeq	r0, r0, r0, asr r0
    17cc:	00000000 	andeq	r0, r0, r0
    17d0:	00010300 	andeq	r0, r1, r0, lsl #6
    17d4:	00072801 	andeq	r2, r7, r1, lsl #16
    17d8:	0007b000 	andeq	fp, r7, r0
    17dc:	55000100 	strpl	r0, [r0, #-256]	; 0xffffff00
    17e0:	00000894 	muleq	r0, r4, r8
    17e4:	000008a0 	andeq	r0, r0, r0, lsr #17
    17e8:	00550001 	subseq	r0, r5, r1
    17ec:	00000000 	andeq	r0, r0, r0
    17f0:	03000000 	movweq	r0, #0
    17f4:	28010001 	stmdacs	r1, {r0}
    17f8:	b0000007 	andlt	r0, r0, r7
    17fc:	01000007 	tsteq	r0, r7
    1800:	08945100 	ldmeq	r4, {r8, ip, lr}
    1804:	08a00000 	stmiaeq	r0!, {}	; <UNPREDICTABLE>
    1808:	00010000 	andeq	r0, r1, r0
    180c:	00000051 	andeq	r0, r0, r1, asr r0
    1810:	00000000 	andeq	r0, r0, r0
    1814:	00000300 	andeq	r0, r0, r0, lsl #6
    1818:	01010101 	tsteq	r1, r1, lsl #2
    181c:	00020303 	andeq	r0, r2, r3, lsl #6
    1820:	00072801 	andeq	r2, r7, r1, lsl #16
    1824:	00075000 	andeq	r5, r7, r0
    1828:	53000100 	movwpl	r0, #256	; 0x100
    182c:	00000774 	andeq	r0, r0, r4, ror r7
    1830:	00000774 	andeq	r0, r0, r4, ror r7
    1834:	745e0001 	ldrbvc	r0, [lr], #-1
    1838:	88000007 	stmdahi	r0, {r0, r1, r2}
    183c:	03000007 	movweq	r0, #7
    1840:	9f017e00 	svcls	0x00017e00
    1844:	00000788 	andeq	r0, r0, r8, lsl #15
    1848:	00000794 	muleq	r0, r4, r7
    184c:	027e0003 	rsbseq	r0, lr, #3, 0
    1850:	0007949f 	muleq	r7, pc, r4	; <UNPREDICTABLE>
    1854:	00079800 	andeq	r9, r7, r0, lsl #16
    1858:	7e000300 	cdpvc	3, 0, cr0, cr0, cr0, {0}
    185c:	08949f03 	ldmeq	r4, {r0, r1, r8, r9, sl, fp, ip, pc}
    1860:	08a00000 	stmiaeq	r0!, {}	; <UNPREDICTABLE>
    1864:	00010000 	andeq	r0, r1, r0
    1868:	00000053 	andeq	r0, r0, r3, asr r0
	...
    1874:	01010101 	tsteq	r1, r1, lsl #2
    1878:	00020101 	andeq	r0, r2, r1, lsl #2
    187c:	00072c01 	andeq	r2, r7, r1, lsl #24
    1880:	00075000 	andeq	r5, r7, r0
    1884:	50000100 	andpl	r0, r0, r0, lsl #2
    1888:	00000774 	andeq	r0, r0, r4, ror r7
    188c:	00000784 	andeq	r0, r0, r4, lsl #15
    1890:	84500001 	ldrbhi	r0, [r0], #-1
    1894:	94000007 	strls	r0, [r0], #-7
    1898:	01000007 	tsteq	r0, r7
    189c:	07945b00 	ldreq	r5, [r4, r0, lsl #22]
    18a0:	07980000 	ldreq	r0, [r8, r0]
    18a4:	00010000 	andeq	r0, r1, r0
    18a8:	00079850 	andeq	r9, r7, r0, asr r8
    18ac:	00079800 	andeq	r9, r7, r0, lsl #16
    18b0:	70000300 	andvc	r0, r0, r0, lsl #6
    18b4:	08949f01 	ldmeq	r4, {r0, r8, r9, sl, fp, ip, pc}
    18b8:	08a00000 	stmiaeq	r0!, {}	; <UNPREDICTABLE>
    18bc:	00010000 	andeq	r0, r1, r0
    18c0:	00000050 	andeq	r0, r0, r0, asr r0
    18c4:	00000000 	andeq	r0, r0, r0
    18c8:	01000100 	mrseq	r0, (UNDEF: 16)
    18cc:	0007b000 	andeq	fp, r7, r0
    18d0:	0007ec00 	andeq	lr, r7, r0, lsl #24
    18d4:	51000100 	mrspl	r0, (UNDEF: 16)
    18d8:	000008a0 	andeq	r0, r0, r0, lsr #17
    18dc:	000008a8 	andeq	r0, r0, r8, lsr #17
    18e0:	00510001 	subseq	r0, r1, r1
    18e4:	00000000 	andeq	r0, r0, r0
    18e8:	01000000 	mrseq	r0, (UNDEF: 0)
    18ec:	00000000 	andeq	r0, r0, r0
    18f0:	01000101 	tsteq	r0, r1, lsl #2
    18f4:	0007b000 	andeq	fp, r7, r0
    18f8:	0007b400 	andeq	fp, r7, r0, lsl #8
    18fc:	73000600 	movwvc	r0, #1536	; 0x600
    1900:	22007c00 	andcs	r7, r0, #0, 24
    1904:	0007d49f 	muleq	r7, pc, r4	; <UNPREDICTABLE>
    1908:	0007d800 	andeq	sp, r7, r0, lsl #16
    190c:	73000300 	movwvc	r0, #768	; 0x300
    1910:	07d89f7f 			; <UNDEFINED> instruction: 0x07d89f7f
    1914:	07e00000 	strbeq	r0, [r0, r0]!
    1918:	00010000 	andeq	r0, r1, r0
    191c:	0007e053 	andeq	lr, r7, r3, asr r0
    1920:	0007e800 	andeq	lr, r7, r0, lsl #16
    1924:	73000300 	movwvc	r0, #768	; 0x300
    1928:	08a09f7f 	stmiaeq	r0!, {r0, r1, r2, r3, r4, r5, r6, r8, r9, sl, fp, ip, pc}
    192c:	08a80000 	stmiaeq	r8!, {}	; <UNPREDICTABLE>
    1930:	00010000 	andeq	r0, r1, r0
    1934:	00000053 	andeq	r0, r0, r3, asr r0
    1938:	00000000 	andeq	r0, r0, r0
    193c:	01000100 	mrseq	r0, (UNDEF: 16)
    1940:	0007b000 	andeq	fp, r7, r0
    1944:	0007ec00 	andeq	lr, r7, r0, lsl #24
    1948:	08000300 	stmdaeq	r0, {r8, r9}
    194c:	08a09f80 	stmiaeq	r0!, {r7, r8, r9, sl, fp, ip, pc}
    1950:	08a80000 	stmiaeq	r8!, {}	; <UNPREDICTABLE>
    1954:	00030000 	andeq	r0, r3, r0
    1958:	009f8008 	addseq	r8, pc, r8
    195c:	00000000 	andeq	r0, r0, r0
    1960:	01000000 	mrseq	r0, (UNDEF: 0)
    1964:	00000000 	andeq	r0, r0, r0
    1968:	00000101 	andeq	r0, r0, r1, lsl #2
    196c:	b0000100 	andlt	r0, r0, r0, lsl #2
    1970:	d0000007 	andle	r0, r0, r7
    1974:	04000007 	streq	r0, [r0], #-7
    1978:	7dd09100 	ldfvcp	f1, [r0]
    197c:	0007d09f 	muleq	r7, pc, r0	; <UNPREDICTABLE>
    1980:	0007d400 	andeq	sp, r7, r0, lsl #8
    1984:	55000100 	strpl	r0, [r0, #-256]	; 0xffffff00
    1988:	000007d4 	ldrdeq	r0, [r0], -r4
    198c:	000007d4 	ldrdeq	r0, [r0], -r4
    1990:	017c0003 	cmneq	ip, r3
    1994:	0007d49f 	muleq	r7, pc, r4	; <UNPREDICTABLE>
    1998:	0007e000 	andeq	lr, r7, r0
    199c:	7c000300 	stcvc	3, cr0, [r0], {-0}
    19a0:	07e09f02 	strbeq	r9, [r0, r2, lsl #30]!
    19a4:	07ec0000 	strbeq	r0, [ip, r0]!
    19a8:	00030000 	andeq	r0, r3, r0
    19ac:	a09f017c 	addsge	r0, pc, ip, ror r1	; <UNPREDICTABLE>
    19b0:	a8000008 	stmdage	r0, {r3}
    19b4:	04000008 	streq	r0, [r0], #-8
    19b8:	7dd09100 	ldfvcp	f1, [r0]
    19bc:	0000009f 	muleq	r0, pc, r0	; <UNPREDICTABLE>
    19c0:	00000000 	andeq	r0, r0, r0
    19c4:	04000400 	streq	r0, [r0], #-1024	; 0xfffffc00
    19c8:	0007b000 	andeq	fp, r7, r0
    19cc:	0007b400 	andeq	fp, r7, r0, lsl #8
    19d0:	70000300 	andvc	r0, r0, r0, lsl #6
    19d4:	08a09f01 	stmiaeq	r0!, {r0, r8, r9, sl, fp, ip, pc}
    19d8:	08a80000 	stmiaeq	r8!, {}	; <UNPREDICTABLE>
    19dc:	00030000 	andeq	r0, r3, r0
    19e0:	009f0170 	addseq	r0, pc, r0, ror r1	; <UNPREDICTABLE>
    19e4:	00000000 	andeq	r0, r0, r0
    19e8:	01000000 	mrseq	r0, (UNDEF: 0)
    19ec:	bc000000 	stclt	0, cr0, [r0], {-0}
    19f0:	d0000007 	andle	r0, r0, r7
    19f4:	04000007 	streq	r0, [r0], #-7
    19f8:	7dd09100 	ldfvcp	f1, [r0]
    19fc:	0007d09f 	muleq	r7, pc, r0	; <UNPREDICTABLE>
    1a00:	0007ec00 	andeq	lr, r7, r0, lsl #24
    1a04:	55000100 	strpl	r0, [r0, #-256]	; 0xffffff00
	...
    1a14:	00000328 	andeq	r0, r0, r8, lsr #6
    1a18:	00000364 	andeq	r0, r0, r4, ror #6
    1a1c:	64500001 	ldrbvs	r0, [r0], #-1
    1a20:	88000003 	stmdahi	r0, {r0, r1}
    1a24:	04000003 	streq	r0, [r0], #-3
    1a28:	5001f300 	andpl	pc, r1, r0, lsl #6
    1a2c:	0000009f 	muleq	r0, pc, r0	; <UNPREDICTABLE>
	...
    1a38:	00032800 	andeq	r2, r3, r0, lsl #16
    1a3c:	00035c00 	andeq	r5, r3, r0, lsl #24
    1a40:	51000100 	mrspl	r0, (UNDEF: 16)
    1a44:	0000035c 	andeq	r0, r0, ip, asr r3
    1a48:	00000388 	andeq	r0, r0, r8, lsl #7
    1a4c:	01f30004 	mvnseq	r0, r4
    1a50:	00009f51 	andeq	r9, r0, r1, asr pc
	...
    1a74:	00140000 	andseq	r0, r4, r0
    1a78:	00010000 	andeq	r0, r1, r0
    1a7c:	00001450 	andeq	r1, r0, r0, asr r4
    1a80:	00002000 	andeq	r2, r0, r0
    1a84:	5c000100 	stfpls	f0, [r0], {-0}
    1a88:	00000020 	andeq	r0, r0, r0, lsr #32
    1a8c:	00000068 	andeq	r0, r0, r8, rrx
    1a90:	02710003 	rsbseq	r0, r1, #3, 0
    1a94:	0000689f 	muleq	r0, pc, r8	; <UNPREDICTABLE>
    1a98:	00006c00 	andeq	r6, r0, r0, lsl #24
    1a9c:	73000300 	movwvc	r0, #768	; 0x300
    1aa0:	006c9f02 	rsbeq	r9, ip, r2, lsl #30
    1aa4:	01940000 	orrseq	r0, r4, r0
    1aa8:	00040000 	andeq	r0, r4, r0
    1aac:	9f5001f3 	svcls	0x005001f3
    1ab0:	00000194 	muleq	r0, r4, r1
    1ab4:	00000198 	muleq	r0, r8, r1
    1ab8:	02730003 	rsbseq	r0, r3, #3, 0
    1abc:	0001989f 	muleq	r1, pc, r8	; <UNPREDICTABLE>
    1ac0:	0001c000 	andeq	ip, r1, r0
    1ac4:	f3000400 	vshl.u8	d0, d0, d0
    1ac8:	c09f5001 	addsgt	r5, pc, r1
    1acc:	c8000001 	stmdagt	r0, {r0}
    1ad0:	01000001 	tsteq	r0, r1
    1ad4:	01c85c00 	biceq	r5, r8, r0, lsl #24
    1ad8:	02140000 	andseq	r0, r4, #0, 0
    1adc:	00030000 	andeq	r0, r3, r0
    1ae0:	149f0273 	ldrne	r0, [pc], #627	; 1ae8 <__code_start__-0x6518>
    1ae4:	ec000002 	stc	0, cr0, [r0], {2}
    1ae8:	04000002 	streq	r0, [r0], #-2
    1aec:	5001f300 	andpl	pc, r1, r0, lsl #6
    1af0:	0002ec9f 	muleq	r2, pc, ip	; <UNPREDICTABLE>
    1af4:	0002f400 	andeq	pc, r2, r0, lsl #8
    1af8:	73000300 	movwvc	r0, #768	; 0x300
    1afc:	02f49f02 	rscseq	r9, r4, #2, 30
    1b00:	03280000 			; <UNDEFINED> instruction: 0x03280000
    1b04:	00040000 	andeq	r0, r4, r0
    1b08:	9f5001f3 	svcls	0x005001f3
	...
    1b20:	0000001c 	andeq	r0, r0, ip, lsl r0
    1b24:	1c510001 	mrrcne	0, 0, r0, r1, cr1
    1b28:	e0000000 	and	r0, r0, r0
    1b2c:	01000002 	tsteq	r0, r2
    1b30:	02e05000 	rsceq	r5, r0, #0, 0
    1b34:	02ec0000 	rsceq	r0, ip, #0, 0
    1b38:	00040000 	andeq	r0, r4, r0
    1b3c:	9f5101f3 	svcls	0x005101f3
    1b40:	000002ec 	andeq	r0, r0, ip, ror #5
    1b44:	00000328 	andeq	r0, r0, r8, lsr #6
    1b48:	00500001 	subseq	r0, r0, r1
	...
    1b58:	00000001 	andeq	r0, r0, r1
    1b5c:	00000000 	andeq	r0, r0, r0
    1b60:	00000202 	andeq	r0, r0, r2, lsl #4
	...
    1b74:	70000000 	andvc	r0, r0, r0
    1b78:	01000000 	mrseq	r0, (UNDEF: 0)
    1b7c:	00705200 	rsbseq	r5, r0, r0, lsl #4
    1b80:	00780000 	rsbseq	r0, r8, r0
    1b84:	00010000 	andeq	r0, r1, r0
    1b88:	0000785c 	andeq	r7, r0, ip, asr r8
    1b8c:	0000a400 	andeq	sl, r0, r0, lsl #8
    1b90:	f3000400 	vshl.u8	d0, d0, d0
    1b94:	949f5201 	ldrls	r5, [pc], #513	; 1b9c <__code_start__-0x6464>
    1b98:	9c000001 	stcls	0, cr0, [r0], {1}
    1b9c:	01000001 	tsteq	r0, r1
    1ba0:	019c5200 	orrseq	r5, ip, r0, lsl #4
    1ba4:	01a40000 			; <UNDEFINED> instruction: 0x01a40000
    1ba8:	00010000 	andeq	r0, r1, r0
    1bac:	0001a45c 	andeq	sl, r1, ip, asr r4
    1bb0:	0001c000 	andeq	ip, r1, r0
    1bb4:	f3000400 	vshl.u8	d0, d0, d0
    1bb8:	c09f5201 	addsgt	r5, pc, r1, lsl #4
    1bbc:	20000001 	andcs	r0, r0, r1
    1bc0:	01000002 	tsteq	r0, r2
    1bc4:	02205200 	eoreq	r5, r0, #0, 4
    1bc8:	02280000 	eoreq	r0, r8, #0, 0
    1bcc:	00040000 	andeq	r0, r4, r0
    1bd0:	9f1f0072 	svcls	0x001f0072
    1bd4:	00000228 	andeq	r0, r0, r8, lsr #4
    1bd8:	00000274 	andeq	r0, r0, r4, ror r2
    1bdc:	01f30005 	mvnseq	r0, r5
    1be0:	749f1f52 	ldrvc	r1, [pc], #3922	; 1be8 <__code_start__-0x6418>
    1be4:	88000002 	stmdahi	r0, {r1}
    1be8:	01000002 	tsteq	r0, r2
    1bec:	02885200 	addeq	r5, r8, #0, 4
    1bf0:	02a00000 	adceq	r0, r0, #0, 0
    1bf4:	00010000 	andeq	r0, r1, r0
    1bf8:	0002cc5c 	andeq	ip, r2, ip, asr ip
    1bfc:	0002d000 	andeq	sp, r2, r0
    1c00:	52000100 	andpl	r0, r0, #0
    1c04:	000002d0 	ldrdeq	r0, [r0], -r0	; <UNPREDICTABLE>
    1c08:	000002e7 	andeq	r0, r0, r7, ror #5
    1c0c:	e75c0001 	ldrb	r0, [ip, -r1]
    1c10:	ec000002 	stc	0, cr0, [r0], {2}
    1c14:	04000002 	streq	r0, [r0], #-2
    1c18:	5201f300 	andpl	pc, r1, #0, 6
    1c1c:	0002ec9f 	muleq	r2, pc, ip	; <UNPREDICTABLE>
    1c20:	00030000 	andeq	r0, r3, r0
    1c24:	52000100 	andpl	r0, r0, #0
    1c28:	00000300 	andeq	r0, r0, r0, lsl #6
    1c2c:	00000328 	andeq	r0, r0, r8, lsr #6
    1c30:	005c0001 	subseq	r0, ip, r1
	...
    1c4c:	00006800 	andeq	r6, r0, r0, lsl #16
    1c50:	53000100 	movwpl	r0, #256	; 0x100
    1c54:	00000068 	andeq	r0, r0, r8, rrx
    1c58:	0000006c 	andeq	r0, r0, ip, rrx
    1c5c:	7f080003 	svcvc	0x00080003
    1c60:	0001949f 	muleq	r1, pc, r4	; <UNPREDICTABLE>
    1c64:	00019800 	andeq	r9, r1, r0, lsl #16
    1c68:	08000300 	stmdaeq	r0, {r8, r9}
    1c6c:	01c09f7f 	biceq	r9, r0, pc, ror pc
    1c70:	02140000 	andseq	r0, r4, #0, 0
    1c74:	00030000 	andeq	r0, r3, r0
    1c78:	749f7f08 	ldrvc	r7, [pc], #3848	; 1c80 <__code_start__-0x6380>
    1c7c:	90000002 	andls	r0, r0, r2
    1c80:	01000002 	tsteq	r0, r2
    1c84:	02905300 	addseq	r5, r0, #0, 6
    1c88:	02a00000 	adceq	r0, r0, #0, 0
    1c8c:	00040000 	andeq	r0, r4, r0
    1c90:	9f5301f3 	svcls	0x005301f3
    1c94:	000002ec 	andeq	r0, r0, ip, ror #5
    1c98:	00000328 	andeq	r0, r0, r8, lsr #6
    1c9c:	7f080003 	svcvc	0x00080003
    1ca0:	0000009f 	muleq	r0, pc, r0	; <UNPREDICTABLE>
    1ca4:	00000000 	andeq	r0, r0, r0
    1ca8:	00000100 	andeq	r0, r0, r0, lsl #2
    1cac:	02020000 	andeq	r0, r2, #0, 0
    1cb0:	01010000 	mrseq	r0, (UNDEF: 1)
	...
    1cbc:	00000202 	andeq	r0, r0, r2, lsl #4
    1cc0:	00000100 	andeq	r0, r0, r0, lsl #2
    1cc4:	00000000 	andeq	r0, r0, r0
    1cc8:	01010000 	mrseq	r0, (UNDEF: 1)
    1ccc:	00000000 	andeq	r0, r0, r0
    1cd0:	00000202 	andeq	r0, r0, r2, lsl #4
    1cd4:	00000000 	andeq	r0, r0, r0
    1cd8:	00000101 	andeq	r0, r0, r1, lsl #2
    1cdc:	00001800 	andeq	r1, r0, r0, lsl #16
    1ce0:	00007000 	andeq	r7, r0, r0
    1ce4:	91000400 	tstls	r0, r0, lsl #8
    1ce8:	709f7fa0 	addsvc	r7, pc, r0, lsr #31
    1cec:	78000000 	stmdavc	r0, {}	; <UNPREDICTABLE>
    1cf0:	01000000 	mrseq	r0, (UNDEF: 0)
    1cf4:	00785200 	rsbseq	r5, r8, r0, lsl #4
    1cf8:	00780000 	rsbseq	r0, r8, r0
    1cfc:	00010000 	andeq	r0, r1, r0
    1d00:	00007854 	andeq	r7, r0, r4, asr r8
    1d04:	00008800 	andeq	r8, r0, r0, lsl #16
    1d08:	74000300 	strvc	r0, [r0], #-768	; 0xfffffd00
    1d0c:	00889f01 	addeq	r9, r8, r1, lsl #30
    1d10:	00900000 	addseq	r0, r0, r0
    1d14:	00010000 	andeq	r0, r1, r0
    1d18:	00009054 	andeq	r9, r0, r4, asr r0
    1d1c:	0000a000 	andeq	sl, r0, r0
    1d20:	74000300 	strvc	r0, [r0], #-768	; 0xfffffd00
    1d24:	00a09f02 	adceq	r9, r0, r2, lsl #30
    1d28:	00b00000 	adcseq	r0, r0, r0
    1d2c:	00010000 	andeq	r0, r1, r0
    1d30:	0001945e 	andeq	r9, r1, lr, asr r4
    1d34:	00019c00 	andeq	r9, r1, r0, lsl #24
    1d38:	91000400 	tstls	r0, r0, lsl #8
    1d3c:	9c9f7fa0 	ldcls	15, cr7, [pc], {160}	; 0xa0
    1d40:	a4000001 	strge	r0, [r0], #-1
    1d44:	01000001 	tsteq	r0, r1
    1d48:	01a45200 			; <UNDEFINED> instruction: 0x01a45200
    1d4c:	01a40000 			; <UNDEFINED> instruction: 0x01a40000
    1d50:	00010000 	andeq	r0, r1, r0
    1d54:	0001a45e 	andeq	sl, r1, lr, asr r4
    1d58:	0001b400 	andeq	fp, r1, r0, lsl #8
    1d5c:	7e000300 	cdpvc	3, 0, cr0, cr0, cr0, {0}
    1d60:	01b49f01 			; <UNDEFINED> instruction: 0x01b49f01
    1d64:	01c00000 	biceq	r0, r0, r0
    1d68:	00010000 	andeq	r0, r1, r0
    1d6c:	0001c05e 	andeq	ip, r1, lr, asr r0
    1d70:	00022800 	andeq	r2, r2, r0, lsl #16
    1d74:	91000400 	tstls	r0, r0, lsl #8
    1d78:	289f7fa0 	ldmcs	pc, {r5, r7, r8, r9, sl, fp, ip, sp, lr}	; <UNPREDICTABLE>
    1d7c:	34000002 	strcc	r0, [r0], #-2
    1d80:	01000002 	tsteq	r0, r2
    1d84:	02345200 	eorseq	r5, r4, #0, 4
    1d88:	02580000 	subseq	r0, r8, #0, 0
    1d8c:	00010000 	andeq	r0, r1, r0
    1d90:	0002585e 	andeq	r5, r2, lr, asr r8
    1d94:	00025c00 	andeq	r5, r2, r0, lsl #24
    1d98:	7e000300 	cdpvc	3, 0, cr0, cr0, cr0, {0}
    1d9c:	025c9f01 	subseq	r9, ip, #1, 30
    1da0:	02640000 	rsbeq	r0, r4, #0, 0
    1da4:	00010000 	andeq	r0, r1, r0
    1da8:	0002645e 	andeq	r6, r2, lr, asr r4
    1dac:	00027000 	andeq	r7, r2, r0
    1db0:	71000300 	mrsvc	r0, LR_irq
    1db4:	02709f02 	rsbseq	r9, r0, #2, 30
    1db8:	02740000 	rsbseq	r0, r4, #0, 0
    1dbc:	00010000 	andeq	r0, r1, r0
    1dc0:	0002745e 	andeq	r7, r2, lr, asr r4
    1dc4:	00027400 	andeq	r7, r2, r0, lsl #8
    1dc8:	91000400 	tstls	r0, r0, lsl #8
    1dcc:	749f7fa0 	ldrvc	r7, [pc], #4000	; 1dd4 <__code_start__-0x622c>
    1dd0:	a0000002 	andge	r0, r0, r2
    1dd4:	04000002 	streq	r0, [r0], #-2
    1dd8:	7fa19100 	svcvc	0x00a19100
    1ddc:	0002c09f 	muleq	r2, pc, r0	; <UNPREDICTABLE>
    1de0:	0002c800 	andeq	ip, r2, r0, lsl #16
    1de4:	5e000100 	adfpls	f0, f0, f0
    1de8:	000002c8 	andeq	r0, r0, r8, asr #5
    1dec:	000002cc 	andeq	r0, r0, ip, asr #5
    1df0:	cc560001 	mrrcgt	0, 0, r0, r6, cr1
    1df4:	ec000002 	stc	0, cr0, [r0], {2}
    1df8:	04000002 	streq	r0, [r0], #-2
    1dfc:	7fa09100 	svcvc	0x00a09100
    1e00:	0002ec9f 	muleq	r2, pc, ip	; <UNPREDICTABLE>
    1e04:	0002fc00 	andeq	pc, r2, r0, lsl #24
    1e08:	91000400 	tstls	r0, r0, lsl #8
    1e0c:	fc9f7fa1 	ldc2	15, cr7, [pc], {161}	; 0xa1
    1e10:	28000002 	stmdacs	r0, {r1}
    1e14:	01000003 	tsteq	r0, r3
    1e18:	00005e00 	andeq	r5, r0, r0, lsl #28
	...
    1e30:	00010100 	andeq	r0, r1, r0, lsl #2
	...
    1e44:	00000020 	andeq	r0, r0, r0, lsr #32
    1e48:	00000070 	andeq	r0, r0, r0, ror r0
    1e4c:	70520001 	subsvc	r0, r2, r1
    1e50:	94000000 	strls	r0, [r0], #-0
    1e54:	01000000 	mrseq	r0, (UNDEF: 0)
    1e58:	01945c00 	orrseq	r5, r4, r0, lsl #24
    1e5c:	019c0000 	orrseq	r0, ip, r0
    1e60:	00010000 	andeq	r0, r1, r0
    1e64:	00019c52 	andeq	r9, r1, r2, asr ip
    1e68:	0001c000 	andeq	ip, r1, r0
    1e6c:	5c000100 	stfpls	f0, [r0], {-0}
    1e70:	000001c8 	andeq	r0, r0, r8, asr #3
    1e74:	00000210 	andeq	r0, r0, r0, lsl r2
    1e78:	105c0001 	subsne	r0, ip, r1
    1e7c:	24000002 	strcs	r0, [r0], #-2
    1e80:	01000002 	tsteq	r0, r2
    1e84:	02245200 	eoreq	r5, r4, #0, 4
    1e88:	02480000 	subeq	r0, r8, #0, 0
    1e8c:	00010000 	andeq	r0, r1, r0
    1e90:	0002485c 	andeq	r4, r2, ip, asr r8
    1e94:	00025c00 	andeq	r5, r2, r0, lsl #24
    1e98:	55000100 	strpl	r0, [r0, #-256]	; 0xffffff00
    1e9c:	0000025c 	andeq	r0, r0, ip, asr r2
    1ea0:	00000268 	andeq	r0, r0, r8, ror #4
    1ea4:	685c0001 	ldmdavs	ip, {r0}^
    1ea8:	74000002 	strvc	r0, [r0], #-2
    1eac:	19000002 	stmdbne	r0, {r1}
    1eb0:	f7007500 			; <UNDEFINED> instruction: 0xf7007500
    1eb4:	7625f72c 	strtvc	pc, [r5], -ip, lsr #14
    1eb8:	f72cf700 			; <UNDEFINED> instruction: 0xf72cf700
    1ebc:	20081e25 	andcs	r1, r8, r5, lsr #28
    1ec0:	f72525f7 			; <UNDEFINED> instruction: 0xf72525f7
    1ec4:	3300f72c 	movwcc	pc, #1836	; 0x72c	; <UNPREDICTABLE>
    1ec8:	02749f25 	rsbseq	r9, r4, #148	; 0x94
    1ecc:	02880000 	addeq	r0, r8, #0, 0
    1ed0:	00010000 	andeq	r0, r1, r0
    1ed4:	00028852 	andeq	r8, r2, r2, asr r8
    1ed8:	0002a000 	andeq	sl, r2, r0
    1edc:	5c000100 	stfpls	f0, [r0], {-0}
    1ee0:	000002cc 	andeq	r0, r0, ip, asr #5
    1ee4:	000002d0 	ldrdeq	r0, [r0], -r0	; <UNPREDICTABLE>
    1ee8:	d0520001 	subsle	r0, r2, r1
    1eec:	e7000002 	str	r0, [r0, -r2]
    1ef0:	01000002 	tsteq	r0, r2
    1ef4:	02e75c00 	rsceq	r5, r7, #0, 24
    1ef8:	02ec0000 	rsceq	r0, ip, #0, 0
    1efc:	00040000 	andeq	r0, r4, r0
    1f00:	9f5201f3 	svcls	0x005201f3
    1f04:	000002ec 	andeq	r0, r0, ip, ror #5
    1f08:	00000300 	andeq	r0, r0, r0, lsl #6
    1f0c:	00520001 	subseq	r0, r2, r1
    1f10:	28000003 	stmdacs	r0, {r0, r1}
    1f14:	01000003 	tsteq	r0, r3
    1f18:	00005c00 	andeq	r5, r0, r0, lsl #24
    1f1c:	00000000 	andeq	r0, r0, r0
    1f20:	00040000 	andeq	r0, r4, r0
    1f24:	01000004 	tsteq	r0, r4
    1f28:	00040000 	andeq	r0, r4, r0
    1f2c:	000000a4 	andeq	r0, r0, r4, lsr #1
    1f30:	000000b0 	strheq	r0, [r0], -r0	; <UNPREDICTABLE>
    1f34:	7c530001 	mrrcvc	0, 0, r0, r3, cr1
    1f38:	90000002 	andls	r0, r0, r2
    1f3c:	01000002 	tsteq	r0, r2
    1f40:	02905300 	addseq	r5, r0, #0, 6
    1f44:	029c0000 	addseq	r0, ip, #0, 0
    1f48:	00040000 	andeq	r0, r4, r0
    1f4c:	9f5301f3 	svcls	0x005301f3
    1f50:	000002c0 	andeq	r0, r0, r0, asr #5
    1f54:	000002cc 	andeq	r0, r0, ip, asr #5
    1f58:	f0530001 			; <UNDEFINED> instruction: 0xf0530001
    1f5c:	28000002 	stmdacs	r0, {r1}
    1f60:	03000003 	movweq	r0, #3
    1f64:	9f7f0800 	svcls	0x007f0800
	...
    1f70:	01000004 	tsteq	r0, r4
    1f74:	01000004 	tsteq	r0, r4
    1f78:	00000000 	andeq	r0, r0, r0
    1f7c:	00000004 	andeq	r0, r0, r4
    1f80:	000000a4 	andeq	r0, r0, r4, lsr #1
    1f84:	000000b0 	strheq	r0, [r0], -r0	; <UNPREDICTABLE>
    1f88:	b0520001 	subslt	r0, r2, r1
    1f8c:	5c000000 	stcpl	0, cr0, [r0], {-0}
    1f90:	04000001 	streq	r0, [r0], #-1
    1f94:	7fa09100 	svcvc	0x00a09100
    1f98:	00027c9f 	muleq	r2, pc, ip	; <UNPREDICTABLE>
    1f9c:	00029400 	andeq	r9, r2, r0, lsl #8
    1fa0:	91000400 	tstls	r0, r0, lsl #8
    1fa4:	949f7fa0 	ldrls	r7, [pc], #4000	; 1fac <__code_start__-0x6054>
    1fa8:	9c000002 	stcls	0, cr0, [r0], {2}
    1fac:	01000002 	tsteq	r0, r2
    1fb0:	02b45e00 	adcseq	r5, r4, #0, 28
    1fb4:	02c00000 	sbceq	r0, r0, #0, 0
    1fb8:	00040000 	andeq	r0, r4, r0
    1fbc:	9f7fa091 	svcls	0x007fa091
    1fc0:	000002c0 	andeq	r0, r0, r0, asr #5
    1fc4:	000002cc 	andeq	r0, r0, ip, asr #5
    1fc8:	f0520001 			; <UNDEFINED> instruction: 0xf0520001
    1fcc:	00000002 	andeq	r0, r0, r2
    1fd0:	04000003 	streq	r0, [r0], #-3
    1fd4:	7fa09100 	svcvc	0x00a09100
    1fd8:	0003009f 	muleq	r3, pc, r0	; <UNPREDICTABLE>
    1fdc:	00032800 	andeq	r2, r3, r0, lsl #16
    1fe0:	52000100 	andpl	r0, r0, #0
	...
    1fec:	01000004 	tsteq	r0, r4
    1ff0:	03010101 	movweq	r0, #4353	; 0x1101
    1ff4:	01040203 	tsteq	r4, r3, lsl #4
    1ff8:	00000000 	andeq	r0, r0, r0
    1ffc:	00000004 	andeq	r0, r0, r4
    2000:	000000a4 	andeq	r0, r0, r4, lsr #1
    2004:	000000b0 	strheq	r0, [r0], -r0	; <UNPREDICTABLE>
    2008:	0c5e0001 	mrrceq	0, 0, r0, lr, cr1
    200c:	0c000001 	stceq	0, cr0, [r0], {1}
    2010:	01000001 	tsteq	r0, r1
    2014:	010c5500 	tsteq	ip, r0, lsl #10
    2018:	01200000 			; <UNDEFINED> instruction: 0x01200000
    201c:	00030000 	andeq	r0, r3, r0
    2020:	209f0175 	addscs	r0, pc, r5, ror r1	; <UNPREDICTABLE>
    2024:	2c000001 	stccs	0, cr0, [r0], {1}
    2028:	03000001 	movweq	r0, #1
    202c:	9f027500 	svcls	0x00027500
    2030:	0000012c 	andeq	r0, r0, ip, lsr #2
    2034:	00000130 	andeq	r0, r0, r0, lsr r1
    2038:	03750003 	cmneq	r5, #3, 0
    203c:	00027c9f 	muleq	r2, pc, ip	; <UNPREDICTABLE>
    2040:	00029c00 	andeq	r9, r2, r0, lsl #24
    2044:	91000400 	tstls	r0, r0, lsl #8
    2048:	c09f7fa1 	addsgt	r7, pc, r1, lsr #31
    204c:	c8000002 	stmdagt	r0, {r1}
    2050:	01000002 	tsteq	r0, r2
    2054:	02c85e00 	sbceq	r5, r8, #0, 28
    2058:	02cc0000 	sbceq	r0, ip, #0, 0
    205c:	00010000 	andeq	r0, r1, r0
    2060:	0002f056 	andeq	pc, r2, r6, asr r0	; <UNPREDICTABLE>
    2064:	0002fc00 	andeq	pc, r2, r0, lsl #24
    2068:	91000400 	tstls	r0, r0, lsl #8
    206c:	fc9f7fa1 	ldc2	15, cr7, [pc], {161}	; 0xa1
    2070:	28000002 	stmdacs	r0, {r1}
    2074:	01000003 	tsteq	r0, r3
    2078:	00005e00 	andeq	r5, r0, r0, lsl #28
	...
    2084:	01010100 	mrseq	r0, (UNDEF: 17)
    2088:	02010101 	andeq	r0, r1, #1073741824	; 0x40000000
    208c:	00000106 	andeq	r0, r0, r6, lsl #2
    2090:	00a80006 	adceq	r0, r8, r6
    2094:	00b00000 	adcseq	r0, r0, r0
    2098:	00010000 	andeq	r0, r1, r0
    209c:	00010c51 	andeq	r0, r1, r1, asr ip
    20a0:	00011c00 	andeq	r1, r1, r0, lsl #24
    20a4:	5c000100 	stfpls	f0, [r0], {-0}
    20a8:	0000011c 	andeq	r0, r0, ip, lsl r1
    20ac:	0000012c 	andeq	r0, r0, ip, lsr #2
    20b0:	2c580001 	mrrccs	0, 0, r0, r8, cr1
    20b4:	30000001 	andcc	r0, r0, r1
    20b8:	01000001 	tsteq	r0, r1
    20bc:	01305c00 	teqeq	r0, r0, lsl #24
    20c0:	01300000 	teqeq	r0, r0
    20c4:	00030000 	andeq	r0, r3, r0
    20c8:	7c9f017c 	ldfvcs	f0, [pc], {124}	; 0x7c
    20cc:	9c000002 	stcls	0, cr0, [r0], {2}
    20d0:	02000002 	andeq	r0, r0, #2, 0
    20d4:	c09f3100 	addsgt	r3, pc, r0, lsl #2
    20d8:	cc000002 	stcgt	0, cr0, [r0], {2}
    20dc:	01000002 	tsteq	r0, r2
    20e0:	02f05100 	rscseq	r5, r0, #0
    20e4:	03280000 			; <UNDEFINED> instruction: 0x03280000
    20e8:	00020000 	andeq	r0, r2, r0
    20ec:	00009f31 	andeq	r9, r0, r1, lsr pc
    20f0:	00000000 	andeq	r0, r0, r0
    20f4:	06010000 	streq	r0, [r1], -r0
    20f8:	00010106 	andeq	r0, r1, r6, lsl #2
    20fc:	015c0100 	cmpeq	ip, r0, lsl #2
    2100:	015c0000 	cmpeq	ip, r0
    2104:	00040000 	andeq	r0, r4, r0
    2108:	9f7fa091 	svcls	0x007fa091
    210c:	0000015c 	andeq	r0, r0, ip, asr r1
    2110:	0000018c 	andeq	r0, r0, ip, lsl #3
    2114:	9c520001 	mrrcls	0, 0, r0, r2, cr1
    2118:	a0000002 	andge	r0, r0, r2
    211c:	01000002 	tsteq	r0, r2
    2120:	02a05e00 	adceq	r5, r0, #0, 28
    2124:	02ac0000 	adceq	r0, ip, #0, 0
    2128:	00010000 	andeq	r0, r1, r0
    212c:	00000052 	andeq	r0, r0, r2, asr r0
	...
    2138:	01000101 	tsteq	r0, r1, lsl #2
    213c:	00016c07 	andeq	r6, r1, r7, lsl #24
    2140:	00017000 	andeq	r7, r1, r0
    2144:	73000300 	movwvc	r0, #768	; 0x300
    2148:	01709f7f 	cmneq	r0, pc, ror pc
    214c:	01780000 	cmneq	r8, r0
    2150:	00010000 	andeq	r0, r1, r0
    2154:	00017853 	andeq	r7, r1, r3, asr r8
    2158:	00018400 	andeq	r8, r1, r0, lsl #8
    215c:	73000300 	movwvc	r0, #768	; 0x300
    2160:	029c9f7f 	addseq	r9, ip, #508	; 0x1fc
    2164:	029c0000 	addseq	r0, ip, #0, 0
    2168:	00040000 	andeq	r0, r4, r0
    216c:	9f7fa191 	svcls	0x007fa191
	...
    2178:	01010101 	tsteq	r1, r1, lsl #2
    217c:	0000015c 	andeq	r0, r0, ip, asr r1
    2180:	0000018c 	andeq	r0, r0, ip, lsl #3
    2184:	80080003 	andhi	r0, r8, r3
    2188:	00029c9f 	muleq	r2, pc, ip	; <UNPREDICTABLE>
    218c:	0002ac00 	andeq	sl, r2, r0, lsl #24
    2190:	08000300 	stmdaeq	r0, {r8, r9}
    2194:	00009f80 	andeq	r9, r0, r0, lsl #31
    2198:	00000000 	andeq	r0, r0, r0
    219c:	00010000 	andeq	r0, r1, r0
    21a0:	00010100 	andeq	r0, r1, r0, lsl #2
    21a4:	01010100 	mrseq	r0, (UNDEF: 17)
    21a8:	01010101 	tsteq	r1, r1, lsl #2
    21ac:	0000015c 	andeq	r0, r0, ip, asr r1
    21b0:	0000016c 	andeq	r0, r0, ip, ror #2
    21b4:	6c500001 	mrrcvs	0, 0, r0, r0, cr1	; <UNPREDICTABLE>
    21b8:	6c000001 	stcvs	0, cr0, [r0], {1}
    21bc:	03000001 	movweq	r0, #1
    21c0:	9f017c00 	svcls	0x00017c00
    21c4:	0000016c 	andeq	r0, r0, ip, ror #2
    21c8:	00000178 	andeq	r0, r0, r8, ror r1
    21cc:	027c0003 	rsbseq	r0, ip, #3, 0
    21d0:	0001789f 	muleq	r1, pc, r8	; <UNPREDICTABLE>
    21d4:	00018800 	andeq	r8, r1, r0, lsl #16
    21d8:	7c000300 	stcvc	3, cr0, [r0], {-0}
    21dc:	01889f01 	orreq	r9, r8, r1, lsl #30
    21e0:	018c0000 	orreq	r0, ip, r0
    21e4:	00030000 	andeq	r0, r3, r0
    21e8:	9c9f017e 	ldflss	f0, [pc], {126}	; 0x7e
    21ec:	a4000002 	strge	r0, [r0], #-2
    21f0:	01000002 	tsteq	r0, r2
    21f4:	02a45000 	adceq	r5, r4, #0, 0
    21f8:	02ac0000 	adceq	r0, ip, #0, 0
    21fc:	00030000 	andeq	r0, r3, r0
    2200:	009f017e 	addseq	r0, pc, lr, ror r1	; <UNPREDICTABLE>
    2204:	00000000 	andeq	r0, r0, r0
    2208:	04000000 	streq	r0, [r0], #-0
    220c:	00000400 	andeq	r0, r0, r0, lsl #8
    2210:	00015c01 	andeq	r5, r1, r1, lsl #24
    2214:	00016000 	andeq	r6, r1, r0
    2218:	71000300 	mrsvc	r0, LR_irq
    221c:	029c9f01 	addseq	r9, ip, #1, 30
    2220:	02a00000 	adceq	r0, r0, #0, 0
    2224:	00020000 	andeq	r0, r2, r0
    2228:	02a09f32 	adceq	r9, r0, #200	; 0xc8
    222c:	02ac0000 	adceq	r0, ip, #0, 0
    2230:	00030000 	andeq	r0, r3, r0
    2234:	009f0171 	addseq	r0, pc, r1, ror r1	; <UNPREDICTABLE>
    2238:	00000000 	andeq	r0, r0, r0
    223c:	07000000 	streq	r0, [r0, -r0]
    2240:	5c000600 	stcpl	6, cr0, [r0], {-0}
    2244:	94000001 	strls	r0, [r0], #-1
    2248:	01000001 	tsteq	r0, r1
    224c:	029c5000 	addseq	r5, ip, #0, 0
    2250:	02b40000 	adcseq	r0, r4, #0, 0
    2254:	00010000 	andeq	r0, r1, r0
    2258:	00000050 	andeq	r0, r0, r0, asr r0
    225c:	00000000 	andeq	r0, r0, r0
    2260:	01010100 	mrseq	r0, (UNDEF: 17)
    2264:	00021400 	andeq	r1, r2, r0, lsl #8
    2268:	00022000 	andeq	r2, r2, r0
    226c:	30000200 	andcc	r0, r0, r0, lsl #4
    2270:	0002209f 	muleq	r2, pc, r0	; <UNPREDICTABLE>
    2274:	00023400 	andeq	r3, r2, r0, lsl #8
    2278:	31000200 	mrscc	r0, R8_usr
    227c:	0000009f 	muleq	r0, pc, r0	; <UNPREDICTABLE>
    2280:	00000000 	andeq	r0, r0, r0
    2284:	01010000 	mrseq	r0, (UNDEF: 1)
    2288:	01010000 	mrseq	r0, (UNDEF: 1)
    228c:	01010000 	mrseq	r0, (UNDEF: 1)
    2290:	01010000 	mrseq	r0, (UNDEF: 1)
    2294:	01010000 	mrseq	r0, (UNDEF: 1)
    2298:	02020000 	andeq	r0, r2, #0, 0
    229c:	00008001 	andeq	r8, r0, r1
    22a0:	00008000 	andeq	r8, r0, r0
    22a4:	53000100 	movwpl	r0, #256	; 0x100
    22a8:	00000080 	andeq	r0, r0, r0, lsl #1
    22ac:	0000008c 	andeq	r0, r0, ip, lsl #1
    22b0:	04730003 	ldrbteq	r0, [r3], #-3
    22b4:	00008c9f 	muleq	r0, pc, ip	; <UNPREDICTABLE>
    22b8:	00009400 	andeq	r9, r0, r0, lsl #8
    22bc:	51000100 	mrspl	r0, (UNDEF: 16)
    22c0:	00000094 	muleq	r0, r4, r0
    22c4:	00000098 	muleq	r0, r8, r0
    22c8:	08730003 	ldmdaeq	r3!, {r0, r1}^
    22cc:	0000989f 	muleq	r0, pc, r8	; <UNPREDICTABLE>
    22d0:	0000a400 	andeq	sl, r0, r0, lsl #8
    22d4:	51000100 	mrspl	r0, (UNDEF: 16)
    22d8:	000000a4 	andeq	r0, r0, r4, lsr #1
    22dc:	000000a8 	andeq	r0, r0, r8, lsr #1
    22e0:	0c730003 	ldcleq	0, cr0, [r3], #-12
    22e4:	0000a89f 	muleq	r0, pc, r8	; <UNPREDICTABLE>
    22e8:	0000b400 	andeq	fp, r0, r0, lsl #8
    22ec:	51000100 	mrspl	r0, (UNDEF: 16)
    22f0:	000000b4 	strheq	r0, [r0], -r4
    22f4:	000000b8 	strheq	r0, [r0], -r8
    22f8:	10730003 	rsbsne	r0, r3, r3
    22fc:	0000b89f 	muleq	r0, pc, r8	; <UNPREDICTABLE>
    2300:	0000c400 	andeq	ip, r0, r0, lsl #8
    2304:	51000100 	mrspl	r0, (UNDEF: 16)
    2308:	000000c4 	andeq	r0, r0, r4, asr #1
    230c:	000000c8 	andeq	r0, r0, r8, asr #1
    2310:	14730003 	ldrbtne	r0, [r3], #-3
    2314:	0000c89f 	muleq	r0, pc, r8	; <UNPREDICTABLE>
    2318:	0000d000 	andeq	sp, r0, r0
    231c:	51000100 	mrspl	r0, (UNDEF: 16)
    2320:	000000d0 	ldrdeq	r0, [r0], -r0	; <UNPREDICTABLE>
    2324:	000000d4 	ldrdeq	r0, [r0], -r4
    2328:	04710003 	ldrbteq	r0, [r1], #-3
    232c:	0000009f 	muleq	r0, pc, r0	; <UNPREDICTABLE>
    2330:	00000000 	andeq	r0, r0, r0
    2334:	d8000200 	stmdale	r0, {r9}
    2338:	e8000000 	stmda	r0, {}	; <UNPREDICTABLE>
    233c:	02000000 	andeq	r0, r0, #0, 0
    2340:	009f3100 	addseq	r3, pc, r0, lsl #2
    2344:	00000000 	andeq	r0, r0, r0
    2348:	04000000 	streq	r0, [r0], #-0
    234c:	f8010000 			; <UNDEFINED> instruction: 0xf8010000
    2350:	00000096 	muleq	r0, r6, r0
    2354:	02000097 	andeq	r0, r0, #151, 0	; 0x97
    2358:	009f3000 	addseq	r3, pc, r0
    235c:	00000097 	muleq	r0, r7, r0
    2360:	01000097 	swpeq	r0, r7, [r0]	; <UNPREDICTABLE>
    2364:	00005300 	andeq	r5, r0, r0, lsl #6
    2368:	00000000 	andeq	r0, r0, r0
    236c:	00030000 	andeq	r0, r3, r0
    2370:	00000000 	andeq	r0, r0, r0
    2374:	970c0000 	strls	r0, [ip, -r0]
    2378:	97100000 	ldrls	r0, [r0, -r0]
    237c:	00020000 	andeq	r0, r2, r0
    2380:	97109f30 			; <UNDEFINED> instruction: 0x97109f30
    2384:	97140000 	ldrls	r0, [r4, -r0]
    2388:	00010000 	andeq	r0, r1, r0
    238c:	00971453 	addseq	r1, r7, r3, asr r4
    2390:	00971800 	addseq	r1, r7, r0, lsl #16
    2394:	73000500 	movwvc	r0, #1280	; 0x500
    2398:	9f214000 	svcls	0x00214000
    239c:	00009718 	andeq	r9, r0, r8, lsl r7
    23a0:	0000971c 	andeq	r9, r0, ip, lsl r7
    23a4:	00530001 	subseq	r0, r3, r1
    23a8:	00000000 	andeq	r0, r0, r0
    23ac:	02000000 	andeq	r0, r0, #0, 0
    23b0:	cc000000 	stcgt	0, cr0, [r0], {-0}
    23b4:	d0000096 	mulle	r0, r6, r0
    23b8:	02000096 	andeq	r0, r0, #150, 0	; 0x96
    23bc:	d09f3000 	addsle	r3, pc, r0
    23c0:	d4000096 	strle	r0, [r0], #-150	; 0xffffff6a
    23c4:	01000096 	swpeq	r0, r6, [r0]	; <UNPREDICTABLE>
    23c8:	00005000 	andeq	r5, r0, r0
    23cc:	00000000 	andeq	r0, r0, r0
    23d0:	00020000 	andeq	r0, r2, r0
    23d4:	00000000 	andeq	r0, r0, r0
    23d8:	96e40000 	strbtls	r0, [r4], r0
    23dc:	96e80000 	strbtls	r0, [r8], r0
    23e0:	00020000 	andeq	r0, r2, r0
    23e4:	96e89f30 	usat16ls	r9, #8, r0
    23e8:	96ec0000 	strbtls	r0, [ip], r0
    23ec:	00010000 	andeq	r0, r1, r0
    23f0:	0096ec53 	addseq	lr, r6, r3, asr ip
    23f4:	0096f000 	addseq	pc, r6, r0
    23f8:	73000500 	movwvc	r0, #1280	; 0x500
    23fc:	9f214000 	svcls	0x00214000
    2400:	000096f0 	strdeq	r9, [r0], -r0
    2404:	000096f8 	strdeq	r9, [r0], -r8
    2408:	00530001 	subseq	r0, r3, r1
	...
    2414:	c8000000 	stmdagt	r0, {}	; <UNPREDICTABLE>
    2418:	d8000000 	stmdale	r0, {}	; <UNPREDICTABLE>
    241c:	01000000 	mrseq	r0, (UNDEF: 0)
    2420:	00d85000 	sbcseq	r5, r8, r0
    2424:	011c0000 	tsteq	ip, r0
    2428:	00040000 	andeq	r0, r4, r0
    242c:	9f5001f3 	svcls	0x005001f3
	...
    2438:	00000002 	andeq	r0, r0, r2
    243c:	000000c8 	andeq	r0, r0, r8, asr #1
    2440:	000000d8 	ldrdeq	r0, [r0], -r8
    2444:	00700007 	rsbseq	r0, r0, r7
    2448:	1e03e80a 	cdpne	8, 0, cr14, cr3, cr10, {0}
    244c:	0000d89f 	muleq	r0, pc, r8	; <UNPREDICTABLE>
    2450:	00011c00 	andeq	r1, r1, r0, lsl #24
    2454:	f3000800 	vsub.i8	d0, d0, d0
    2458:	e80a5001 	stmda	sl, {r0, ip, lr}
    245c:	009f1e03 	addseq	r1, pc, r3, lsl #28
	...
    2468:	0000dc00 	andeq	sp, r0, r0, lsl #24
    246c:	00011c00 	andeq	r1, r1, r0, lsl #24
    2470:	54000100 	strpl	r0, [r0], #-256	; 0xffffff00
	...
    247c:	00f00001 	rscseq	r0, r0, r1
    2480:	011c0000 	tsteq	ip, r0
    2484:	00010000 	andeq	r0, r1, r0
    2488:	00000056 	andeq	r0, r0, r6, asr r0
	...
    2494:	0000ec00 	andeq	lr, r0, r0, lsl #24
    2498:	0000ef00 	andeq	lr, r0, r0, lsl #30
    249c:	50000100 	andpl	r0, r0, r0, lsl #2
    24a0:	000000ef 	andeq	r0, r0, pc, ror #1
    24a4:	0000011c 	andeq	r0, r0, ip, lsl r1
    24a8:	00560001 	subseq	r0, r6, r1
	...
    24b4:	00010400 	andeq	r0, r1, r0, lsl #8
    24b8:	00010b00 	andeq	r0, r1, r0, lsl #22
    24bc:	50000100 	andpl	r0, r0, r0, lsl #2
	...
    24cc:	00000020 	andeq	r0, r0, r0, lsr #32
    24d0:	00000023 	andeq	r0, r0, r3, lsr #32
    24d4:	23500001 	cmpcs	r0, #1, 0
    24d8:	30000000 	andcc	r0, r0, r0
    24dc:	01000000 	mrseq	r0, (UNDEF: 0)
    24e0:	00005400 	andeq	r5, r0, r0, lsl #8
	...
    24ec:	00300000 	eorseq	r0, r0, r0
    24f0:	003b0000 	eorseq	r0, fp, r0
    24f4:	00010000 	andeq	r0, r1, r0
    24f8:	00003b50 	andeq	r3, r0, r0, asr fp
    24fc:	00007800 	andeq	r7, r0, r0, lsl #16
    2500:	56000100 	strpl	r0, [r0], -r0, lsl #2
	...
    250c:	004c0001 	subeq	r0, ip, r1
    2510:	00780000 	rsbseq	r0, r8, r0
    2514:	00010000 	andeq	r0, r1, r0
    2518:	00000055 	andeq	r0, r0, r5, asr r0
	...
    2524:	00004800 	andeq	r4, r0, r0, lsl #16
    2528:	00004b00 	andeq	r4, r0, r0, lsl #22
    252c:	50000100 	andpl	r0, r0, r0, lsl #2
    2530:	0000004b 	andeq	r0, r0, fp, asr #32
    2534:	00000078 	andeq	r0, r0, r8, ror r0
    2538:	00550001 	subseq	r0, r5, r1
	...
    2544:	00006000 	andeq	r6, r0, r0
    2548:	00006700 	andeq	r6, r0, r0, lsl #14
    254c:	50000100 	andpl	r0, r0, r0, lsl #2
	...
    255c:	00000078 	andeq	r0, r0, r8, ror r0
    2560:	00000084 	andeq	r0, r0, r4, lsl #1
    2564:	84500001 	ldrbhi	r0, [r0], #-1
    2568:	c8000000 	stmdagt	r0, {}	; <UNPREDICTABLE>
    256c:	04000000 	streq	r0, [r0], #-0
    2570:	5001f300 	andpl	pc, r1, r0, lsl #6
    2574:	0000009f 	muleq	r0, pc, r0	; <UNPREDICTABLE>
    2578:	00000000 	andeq	r0, r0, r0
    257c:	88000000 	stmdahi	r0, {}	; <UNPREDICTABLE>
    2580:	c8000000 	stmdagt	r0, {}	; <UNPREDICTABLE>
    2584:	01000000 	mrseq	r0, (UNDEF: 0)
    2588:	00005400 	andeq	r5, r0, r0, lsl #8
    258c:	00000000 	andeq	r0, r0, r0
    2590:	00010000 	andeq	r0, r1, r0
    2594:	0000009c 	muleq	r0, ip, r0
    2598:	000000c8 	andeq	r0, r0, r8, asr #1
    259c:	00560001 	subseq	r0, r6, r1
	...
    25a8:	98000000 	stmdals	r0, {}	; <UNPREDICTABLE>
    25ac:	9b000000 	blls	25b4 <__code_start__-0x5a4c>
    25b0:	01000000 	mrseq	r0, (UNDEF: 0)
    25b4:	009b5000 	addseq	r5, fp, r0
    25b8:	00c80000 	sbceq	r0, r8, r0
    25bc:	00010000 	andeq	r0, r1, r0
    25c0:	00000056 	andeq	r0, r0, r6, asr r0
    25c4:	00000000 	andeq	r0, r0, r0
    25c8:	b0000000 	andlt	r0, r0, r0
    25cc:	b7000000 	strlt	r0, [r0, -r0]
    25d0:	01000000 	mrseq	r0, (UNDEF: 0)
    25d4:	00005000 	andeq	r5, r0, r0
	...
    25e0:	01580000 	cmpeq	r8, r0
    25e4:	01630000 	cmneq	r3, r0
    25e8:	00010000 	andeq	r0, r1, r0
    25ec:	00016350 	andeq	r6, r1, r0, asr r3
    25f0:	00018800 	andeq	r8, r1, r0, lsl #16
    25f4:	54000100 	strpl	r0, [r0], #-256	; 0xffffff00
	...
    2600:	01480000 	mrseq	r0, (UNDEF: 72)
    2604:	01580000 	cmpeq	r8, r0
    2608:	00010000 	andeq	r0, r1, r0
    260c:	00000054 	andeq	r0, r0, r4, asr r0
	...
    261c:	00000f00 	andeq	r0, r0, r0, lsl #30
    2620:	50000100 	andpl	r0, r0, r0, lsl #2
    2624:	0000000f 	andeq	r0, r0, pc
    2628:	00000020 	andeq	r0, r0, r0, lsr #32
    262c:	00540001 	subseq	r0, r4, r1
	...
    263c:	0f000000 	svceq	0x00000000
    2640:	01000000 	mrseq	r0, (UNDEF: 0)
    2644:	000f5100 	andeq	r5, pc, r0, lsl #2
    2648:	00200000 	eoreq	r0, r0, r0
    264c:	00010000 	andeq	r0, r1, r0
    2650:	00000055 	andeq	r0, r0, r5, asr r0
	...
    265c:	00002000 	andeq	r2, r0, r0
    2660:	00002f00 	andeq	r2, r0, r0, lsl #30
    2664:	50000100 	andpl	r0, r0, r0, lsl #2
    2668:	0000002f 	andeq	r0, r0, pc, lsr #32
    266c:	00000040 	andeq	r0, r0, r0, asr #32
    2670:	00540001 	subseq	r0, r4, r1
	...
    267c:	20000000 	andcs	r0, r0, r0
    2680:	2f000000 	svccs	0x00000000
    2684:	01000000 	mrseq	r0, (UNDEF: 0)
    2688:	002f5100 	eoreq	r5, pc, r0, lsl #2
    268c:	00400000 	subeq	r0, r0, r0
    2690:	00010000 	andeq	r0, r1, r0
    2694:	00000055 	andeq	r0, r0, r5, asr r0
	...
    26a0:	50000000 	andpl	r0, r0, r0
    26a4:	98000003 	stmdals	r0, {r0, r1}
    26a8:	01000003 	tsteq	r0, r3
    26ac:	03985000 	orrseq	r5, r8, #0, 0
    26b0:	039b0000 	orrseq	r0, fp, #0, 0
    26b4:	00020000 	andeq	r0, r2, r0
    26b8:	039b6891 	orrseq	r6, fp, #9502720	; 0x910000
    26bc:	03b00000 	movseq	r0, #0, 0
    26c0:	00040000 	andeq	r0, r4, r0
    26c4:	9f5001f3 	svcls	0x005001f3
	...
    26e4:	00000220 	andeq	r0, r0, r0, lsr #4
    26e8:	0000027b 	andeq	r0, r0, fp, ror r2
    26ec:	7b500001 	blvc	14026f8 <__bss_end__+0x13f7958>
    26f0:	84000002 	strhi	r0, [r0], #-2
    26f4:	04000002 	streq	r0, [r0], #-2
    26f8:	5001f300 	andpl	pc, r1, r0, lsl #6
    26fc:	0002849f 	muleq	r2, pc, r4	; <UNPREDICTABLE>
    2700:	00029c00 	andeq	r9, r2, r0, lsl #24
    2704:	50000100 	andpl	r0, r0, r0, lsl #2
    2708:	0000029c 	muleq	r0, ip, r2
    270c:	000002a4 	andeq	r0, r0, r4, lsr #5
    2710:	01f30004 	mvnseq	r0, r4
    2714:	02a49f50 	adceq	r9, r4, #80, 30	; 0x140
    2718:	02a70000 	adceq	r0, r7, #0, 0
    271c:	00010000 	andeq	r0, r1, r0
    2720:	0002a750 	andeq	sl, r2, r0, asr r7
    2724:	0002c800 	andeq	ip, r2, r0, lsl #16
    2728:	f3000400 	vshl.u8	d0, d0, d0
    272c:	c89f5001 	ldmgt	pc, {r0, ip, lr}	; <UNPREDICTABLE>
    2730:	e0000002 	and	r0, r0, r2
    2734:	01000002 	tsteq	r0, r2
    2738:	02e05000 	rsceq	r5, r0, #0, 0
    273c:	02e80000 	rsceq	r0, r8, #0, 0
    2740:	00040000 	andeq	r0, r4, r0
    2744:	9f5001f3 	svcls	0x005001f3
    2748:	000002e8 	andeq	r0, r0, r8, ror #5
    274c:	000002eb 	andeq	r0, r0, fp, ror #5
    2750:	eb500001 	bl	140275c <__bss_end__+0x13f79bc>
    2754:	38000002 	stmdacc	r0, {r1}
    2758:	04000003 	streq	r0, [r0], #-3
    275c:	5001f300 	andpl	pc, r1, r0, lsl #6
    2760:	0000009f 	muleq	r0, pc, r0	; <UNPREDICTABLE>
	...
    277c:	00022000 	andeq	r2, r2, r0
    2780:	00024400 	andeq	r4, r2, r0, lsl #8
    2784:	51000100 	mrspl	r0, (UNDEF: 16)
    2788:	00000244 	andeq	r0, r0, r4, asr #4
    278c:	00000268 	andeq	r0, r0, r8, ror #4
    2790:	68510001 	ldmdavs	r1, {r0}^
    2794:	7b000002 	blvc	27a4 <__code_start__-0x585c>
    2798:	03000002 	movweq	r0, #2
    279c:	9f017100 	svcls	0x00017100
    27a0:	0000027b 	andeq	r0, r0, fp, ror r2
    27a4:	00000284 	andeq	r0, r0, r4, lsl #5
    27a8:	f3380017 	vqadd.u64	d0, d8, d7
    27ac:	01f35101 	mvnseq	r5, r1, lsl #2
    27b0:	244b4051 	strbcs	r4, [fp], #-81	; 0xffffffaf
    27b4:	00080c22 	andeq	r0, r8, r2, lsr #24
    27b8:	282d8000 	stmdacs	sp!, {pc}
    27bc:	13160001 	tstne	r6, #1, 0
    27c0:	0002849f 	muleq	r2, pc, r4	; <UNPREDICTABLE>
    27c4:	00029800 	andeq	r9, r2, r0, lsl #16
    27c8:	51000100 	mrspl	r0, (UNDEF: 16)
    27cc:	00000298 	muleq	r0, r8, r2
    27d0:	000002a4 	andeq	r0, r0, r4, lsr #5
    27d4:	01f30004 	mvnseq	r0, r4
    27d8:	02a49f51 	adceq	r9, r4, #324	; 0x144
    27dc:	02a70000 	adceq	r0, r7, #0, 0
    27e0:	00010000 	andeq	r0, r1, r0
    27e4:	0002a751 	andeq	sl, r2, r1, asr r7
    27e8:	0002c800 	andeq	ip, r2, r0, lsl #16
    27ec:	f3000400 	vshl.u8	d0, d0, d0
    27f0:	c89f5101 	ldmgt	pc, {r0, r8, ip, lr}	; <UNPREDICTABLE>
    27f4:	dc000002 	stcle	0, cr0, [r0], {2}
    27f8:	01000002 	tsteq	r0, r2
    27fc:	02dc5100 	sbcseq	r5, ip, #0
    2800:	03380000 	teqeq	r8, #0, 0
    2804:	00170000 	andseq	r0, r7, r0
    2808:	5101f338 	tstpl	r1, r8, lsr r3	; <UNPREDICTABLE>
    280c:	405101f3 	ldrshmi	r0, [r1], #-19	; 0xffffffed
    2810:	0c22244b 	cfstrseq	mvf2, [r2], #-300	; 0xfffffed4
    2814:	80000008 	andhi	r0, r0, r8
    2818:	0001282d 	andeq	r2, r1, sp, lsr #16
    281c:	009f1316 	addseq	r1, pc, r6, lsl r3	; <UNPREDICTABLE>
	...
    2830:	4c000000 	stcmi	0, cr0, [r0], {-0}
    2834:	5c000002 	stcpl	0, cr0, [r0], {2}
    2838:	01000002 	tsteq	r0, r2
    283c:	025c5200 	subseq	r5, ip, #0, 4
    2840:	02640000 	rsbeq	r0, r4, #0, 0
    2844:	00050000 	andeq	r0, r5, r0
    2848:	00a96803 	adceq	r6, r9, r3, lsl #16
    284c:	00026400 	andeq	r6, r2, r0, lsl #8
    2850:	00027b00 	andeq	r7, r2, r0, lsl #22
    2854:	53000100 	movwpl	r0, #256	; 0x100
    2858:	000002c8 	andeq	r0, r0, r8, asr #5
    285c:	000002d8 	ldrdeq	r0, [r0], -r8
    2860:	d8520001 	ldmdale	r2, {r0}^
    2864:	e3000002 	movw	r0, #2
    2868:	05000002 	streq	r0, [r0, #-2]
    286c:	a9680300 	stmdbge	r8!, {r8, r9}^
    2870:	02e80000 	rsceq	r0, r8, #0, 0
    2874:	02eb0000 	rsceq	r0, fp, #0, 0
    2878:	00010000 	andeq	r0, r1, r0
    287c:	00000053 	andeq	r0, r0, r3, asr r0
    2880:	00000000 	andeq	r0, r0, r0
    2884:	30000400 	andcc	r0, r0, r0, lsl #8
    2888:	34000002 	strcc	r0, [r0], #-2
    288c:	01000002 	tsteq	r0, r2
    2890:	00005100 	andeq	r5, r0, r0, lsl #2
    2894:	00000000 	andeq	r0, r0, r0
    2898:	00020000 	andeq	r0, r2, r0
    289c:	0000023c 	andeq	r0, r0, ip, lsr r2
    28a0:	00000244 	andeq	r0, r0, r4, asr #4
    28a4:	9f380002 	svcls	0x00380002
	...
    28b0:	023c0002 	eorseq	r0, ip, #2, 0
    28b4:	02440000 	subeq	r0, r4, #0, 0
    28b8:	00010000 	andeq	r0, r1, r0
    28bc:	00000051 	andeq	r0, r0, r1, asr r0
    28c0:	00000000 	andeq	r0, r0, r0
    28c4:	00000100 	andeq	r0, r0, r0, lsl #2
    28c8:	4c000000 	stcmi	0, cr0, [r0], {-0}
    28cc:	64000002 	strvs	r0, [r0], #-2
    28d0:	01000002 	tsteq	r0, r2
    28d4:	02c85100 	sbceq	r5, r8, #0
    28d8:	02dc0000 	sbcseq	r0, ip, #0, 0
    28dc:	00010000 	andeq	r0, r1, r0
    28e0:	0002dc51 	andeq	sp, r2, r1, asr ip
    28e4:	0002e800 	andeq	lr, r2, r0, lsl #16
    28e8:	38001700 	stmdacc	r0, {r8, r9, sl, ip}
    28ec:	f35101f3 	vbsl	q8, <illegal reg q8.5>, <illegal reg q9.5>
    28f0:	4b405101 	blmi	1016cfc <__bss_end__+0x100bf5c>
    28f4:	080c2224 	stmdaeq	ip, {r2, r5, r9, sp}
    28f8:	2d800000 	stccs	0, cr0, [r0]
    28fc:	16000128 	strne	r0, [r0], -r8, lsr #2
    2900:	00009f13 	andeq	r9, r0, r3, lsl pc
    2904:	00000000 	andeq	r0, r0, r0
    2908:	00010000 	andeq	r0, r1, r0
    290c:	00000000 	andeq	r0, r0, r0
    2910:	024c0000 	subeq	r0, ip, #0, 0
    2914:	025c0000 	subseq	r0, ip, #0, 0
    2918:	00010000 	andeq	r0, r1, r0
    291c:	00025c52 	andeq	r5, r2, r2, asr ip
    2920:	00026400 	andeq	r6, r2, r0, lsl #8
    2924:	03000500 	movweq	r0, #1280	; 0x500
    2928:	0000a968 	andeq	sl, r0, r8, ror #18
    292c:	000002c8 	andeq	r0, r0, r8, asr #5
    2930:	000002d8 	ldrdeq	r0, [r0], -r8
    2934:	d8520001 	ldmdale	r2, {r0}^
    2938:	e3000002 	movw	r0, #2
    293c:	05000002 	streq	r0, [r0, #-2]
    2940:	a9680300 	stmdbge	r8!, {r8, r9}^
	...
    294c:	00040000 	andeq	r0, r4, r0
    2950:	0000024c 	andeq	r0, r0, ip, asr #4
    2954:	00000250 	andeq	r0, r0, r0, asr r2
    2958:	00510001 	subseq	r0, r1, r1
    295c:	00000000 	andeq	r0, r0, r0
    2960:	03000000 	movweq	r0, #0
    2964:	00026400 	andeq	r6, r2, r0, lsl #8
    2968:	00026800 	andeq	r6, r2, r0, lsl #16
    296c:	51000100 	mrspl	r0, (UNDEF: 16)
	...
    2978:	02640003 	rsbeq	r0, r4, #3, 0
    297c:	02680000 	rsbeq	r0, r8, #0, 0
    2980:	00010000 	andeq	r0, r1, r0
    2984:	00000053 	andeq	r0, r0, r3, asr r0
	...
    2994:	0001bc00 	andeq	fp, r1, r0, lsl #24
    2998:	0001d300 	andeq	sp, r1, r0, lsl #6
    299c:	50000100 	andpl	r0, r0, r0, lsl #2
    29a0:	000001d3 	ldrdeq	r0, [r0], -r3
    29a4:	000001f0 	strdeq	r0, [r0], -r0	; <UNPREDICTABLE>
    29a8:	f0540001 			; <UNDEFINED> instruction: 0xf0540001
    29ac:	08000001 	stmdaeq	r0, {r0}
    29b0:	01000002 	tsteq	r0, r2
    29b4:	02085000 	andeq	r5, r8, #0, 0
    29b8:	02200000 	eoreq	r0, r0, #0, 0
    29bc:	00010000 	andeq	r0, r1, r0
    29c0:	00000054 	andeq	r0, r0, r4, asr r0
	...
    29cc:	0001d800 	andeq	sp, r1, r0, lsl #16
    29d0:	0001e300 	andeq	lr, r1, r0, lsl #6
    29d4:	50000100 	andpl	r0, r0, r0, lsl #2
    29d8:	000001e3 	andeq	r0, r0, r3, ror #3
    29dc:	000001f0 	strdeq	r0, [r0], -r0	; <UNPREDICTABLE>
    29e0:	00550001 	subseq	r0, r5, r1
	...
    29f8:	24000000 	strcs	r0, [r0], #-0
    29fc:	38000001 	stmdacc	r0, {r0}
    2a00:	01000001 	tsteq	r0, r1
    2a04:	01385000 	teqeq	r8, r0
    2a08:	013c0000 	teqeq	ip, r0
    2a0c:	00030000 	andeq	r0, r3, r0
    2a10:	3c9f7970 			; <UNDEFINED> instruction: 0x3c9f7970
    2a14:	60000001 	andvs	r0, r0, r1
    2a18:	01000001 	tsteq	r0, r1
    2a1c:	01605300 	cmneq	r0, r0, lsl #6
    2a20:	01780000 	cmneq	r8, r0
    2a24:	00010000 	andeq	r0, r1, r0
    2a28:	00017850 	andeq	r7, r1, r0, asr r8
    2a2c:	00018000 	andeq	r8, r1, r0
    2a30:	f3000400 	vshl.u8	d0, d0, d0
    2a34:	809f5001 	addshi	r5, pc, r1
    2a38:	90000001 	andls	r0, r0, r1
    2a3c:	01000001 	tsteq	r0, r1
    2a40:	01905300 	orrseq	r5, r0, r0, lsl #6
    2a44:	019f0000 	orrseq	r0, pc, r0
    2a48:	00020000 	andeq	r0, r2, r0
    2a4c:	019f6891 			; <UNDEFINED> instruction: 0x019f6891
    2a50:	01bc0000 			; <UNDEFINED> instruction: 0x01bc0000
    2a54:	00090000 	andeq	r0, r9, r0
    2a58:	235001f3 	cmpcs	r0, #-1073741764	; 0xc000003c
    2a5c:	1af80907 	bne	ffe04e80 <__bss_end__+0xffdfa0e0>
    2a60:	0000009f 	muleq	r0, pc, r0	; <UNPREDICTABLE>
	...
    2a6c:	00014400 	andeq	r4, r1, r0, lsl #8
    2a70:	00016000 	andeq	r6, r1, r0
    2a74:	50000100 	andpl	r0, r0, r0, lsl #2
    2a78:	00000180 	andeq	r0, r0, r0, lsl #3
    2a7c:	0000019c 	muleq	r0, ip, r1
    2a80:	00500001 	subseq	r0, r0, r1
    2a84:	00000000 	andeq	r0, r0, r0
    2a88:	03000000 	movweq	r0, #0
    2a8c:	00013400 	andeq	r3, r1, r0, lsl #8
    2a90:	00013c00 	andeq	r3, r1, r0, lsl #24
    2a94:	38000200 	stmdacc	r0, {r9}
    2a98:	0000009f 	muleq	r0, pc, r0	; <UNPREDICTABLE>
    2a9c:	00000000 	andeq	r0, r0, r0
    2aa0:	00000300 	andeq	r0, r0, r0, lsl #6
    2aa4:	00013400 	andeq	r3, r1, r0, lsl #8
    2aa8:	00013800 	andeq	r3, r1, r0, lsl #16
    2aac:	50000100 	andpl	r0, r0, r0, lsl #2
    2ab0:	00000138 	andeq	r0, r0, r8, lsr r1
    2ab4:	0000013c 	andeq	r0, r0, ip, lsr r1
    2ab8:	79700003 	ldmdbvc	r0!, {r0, r1}^
    2abc:	0000009f 	muleq	r0, pc, r0	; <UNPREDICTABLE>
	...
    2ad0:	30000000 	andcc	r0, r0, r0
    2ad4:	60000000 	andvs	r0, r0, r0
    2ad8:	01000000 	mrseq	r0, (UNDEF: 0)
    2adc:	00605000 	rsbeq	r5, r0, r0
    2ae0:	006c0000 	rsbeq	r0, ip, r0
    2ae4:	00050000 	andeq	r0, r5, r0
    2ae8:	00a96803 	adceq	r6, r9, r3, lsl #16
    2aec:	00006c00 	andeq	r6, r0, r0, lsl #24
    2af0:	00008400 	andeq	r8, r0, r0, lsl #8
    2af4:	50000100 	andpl	r0, r0, r0, lsl #2
    2af8:	00000084 	andeq	r0, r0, r4, lsl #1
    2afc:	0000008c 	andeq	r0, r0, ip, lsl #1
    2b00:	01f30004 	mvnseq	r0, r4
    2b04:	008c9f50 	addeq	r9, ip, r0, asr pc
    2b08:	00ac0000 	adceq	r0, ip, r0
    2b0c:	00010000 	andeq	r0, r1, r0
    2b10:	0000ac50 	andeq	sl, r0, r0, asr ip
    2b14:	0000af00 	andeq	sl, r0, r0, lsl #30
    2b18:	91000200 	mrsls	r0, R8_usr
    2b1c:	0000af68 	andeq	sl, r0, r8, ror #30
    2b20:	0000cc00 	andeq	ip, r0, r0, lsl #24
    2b24:	f3000400 	vshl.u8	d0, d0, d0
    2b28:	009f5001 	addseq	r5, pc, r1
	...
    2b38:	30000000 	andcc	r0, r0, r0
    2b3c:	80000000 	andhi	r0, r0, r0
    2b40:	01000000 	mrseq	r0, (UNDEF: 0)
    2b44:	00805100 	addeq	r5, r0, r0, lsl #2
    2b48:	008c0000 	addeq	r0, ip, r0
    2b4c:	00040000 	andeq	r0, r4, r0
    2b50:	9f5101f3 	svcls	0x005101f3
    2b54:	0000008c 	andeq	r0, r0, ip, lsl #1
    2b58:	000000a8 	andeq	r0, r0, r8, lsr #1
    2b5c:	a8510001 	ldmdage	r1, {r0}^
    2b60:	cc000000 	stcgt	0, cr0, [r0], {-0}
    2b64:	04000000 	streq	r0, [r0], #-0
    2b68:	5101f300 	mrspl	pc, SP_irq	; <UNPREDICTABLE>
    2b6c:	0000009f 	muleq	r0, pc, r0	; <UNPREDICTABLE>
    2b70:	00000000 	andeq	r0, r0, r0
    2b74:	00000100 	andeq	r0, r0, r0, lsl #2
	...
    2b80:	38000000 	stmdacc	r0, {}	; <UNPREDICTABLE>
    2b84:	60000000 	andvs	r0, r0, r0
    2b88:	01000000 	mrseq	r0, (UNDEF: 0)
    2b8c:	00605000 	rsbeq	r5, r0, r0
    2b90:	006c0000 	rsbeq	r0, ip, r0
    2b94:	00050000 	andeq	r0, r5, r0
    2b98:	00a96803 	adceq	r6, r9, r3, lsl #16
    2b9c:	00006c00 	andeq	r6, r0, r0, lsl #24
    2ba0:	00008400 	andeq	r8, r0, r0, lsl #8
    2ba4:	50000100 	andpl	r0, r0, r0, lsl #2
    2ba8:	00000084 	andeq	r0, r0, r4, lsl #1
    2bac:	0000008c 	andeq	r0, r0, ip, lsl #1
    2bb0:	01f30004 	mvnseq	r0, r4
    2bb4:	008c9f50 	addeq	r9, ip, r0, asr pc
    2bb8:	00ac0000 	adceq	r0, ip, r0
    2bbc:	00010000 	andeq	r0, r1, r0
    2bc0:	0000ac50 	andeq	sl, r0, r0, asr ip
    2bc4:	0000af00 	andeq	sl, r0, r0, lsl #30
    2bc8:	91000200 	mrsls	r0, R8_usr
    2bcc:	0000af68 	andeq	sl, r0, r8, ror #30
    2bd0:	0000cc00 	andeq	ip, r0, r0, lsl #24
    2bd4:	f3000400 	vshl.u8	d0, d0, d0
    2bd8:	009f5001 	addseq	r5, pc, r1
	...
    2be8:	00017000 	andeq	r7, r1, r0
    2bec:	00017c00 	andeq	r7, r1, r0, lsl #24
    2bf0:	50000100 	andpl	r0, r0, r0, lsl #2
    2bf4:	0000017c 	andeq	r0, r0, ip, ror r1
    2bf8:	00000188 	andeq	r0, r0, r8, lsl #3
    2bfc:	88540001 	ldmdahi	r4, {r0}^
    2c00:	98000001 	stmdals	r0, {r0}
    2c04:	04000001 	streq	r0, [r0], #-1
    2c08:	5001f300 	andpl	pc, r1, r0, lsl #6
    2c0c:	0000009f 	muleq	r0, pc, r0	; <UNPREDICTABLE>
	...
    2c1c:	78000000 	stmdavc	r0, {}	; <UNPREDICTABLE>
    2c20:	7c000001 	stcvc	0, cr0, [r0], {1}
    2c24:	0b000001 	bleq	2c30 <__code_start__-0x53d0>
    2c28:	35007000 	strcc	r7, [r0, #-0]
    2c2c:	80b42325 	adcshi	r2, r4, r5, lsr #6
    2c30:	9f028180 	svcls	0x00028180
    2c34:	0000017c 	andeq	r0, r0, ip, ror r1
    2c38:	00000180 	andeq	r0, r0, r0, lsl #3
    2c3c:	0074000b 	rsbseq	r0, r4, fp
    2c40:	b4232535 	strtlt	r2, [r3], #-1333	; 0xfffffacb
    2c44:	02818080 	addeq	r8, r1, #128, 0	; 0x80
    2c48:	0001809f 	muleq	r1, pc, r0	; <UNPREDICTABLE>
    2c4c:	00018300 	andeq	r8, r1, r0, lsl #6
    2c50:	50000100 	andpl	r0, r0, r0, lsl #2
    2c54:	00000183 	andeq	r0, r0, r3, lsl #3
    2c58:	00000188 	andeq	r0, r0, r8, lsl #3
    2c5c:	0074000b 	rsbseq	r0, r4, fp
    2c60:	b4232535 	strtlt	r2, [r3], #-1333	; 0xfffffacb
    2c64:	02818080 	addeq	r8, r1, #128, 0	; 0x80
    2c68:	0001889f 	muleq	r1, pc, r8	; <UNPREDICTABLE>
    2c6c:	00019800 	andeq	r9, r1, r0, lsl #16
    2c70:	f3000c00 			; <UNDEFINED> instruction: 0xf3000c00
    2c74:	25355001 	ldrcs	r5, [r5, #-1]!
    2c78:	8080b423 	addhi	fp, r0, r3, lsr #8
    2c7c:	009f0281 	addseq	r0, pc, r1, lsl #5
    2c80:	00000000 	andeq	r0, r0, r0
    2c84:	01000000 	mrseq	r0, (UNDEF: 0)
    2c88:	00000000 	andeq	r0, r0, r0
    2c8c:	00017800 	andeq	r7, r1, r0, lsl #16
    2c90:	00017c00 	andeq	r7, r1, r0, lsl #24
    2c94:	70000500 	andvc	r0, r0, r0, lsl #10
    2c98:	9f1a4f00 	svcls	0x001a4f00
    2c9c:	0000017c 	andeq	r0, r0, ip, ror r1
    2ca0:	00000188 	andeq	r0, r0, r8, lsl #3
    2ca4:	00740005 	rsbseq	r0, r4, r5
    2ca8:	889f1a4f 	ldmhi	pc, {r0, r1, r2, r3, r6, r9, fp, ip}	; <UNPREDICTABLE>
    2cac:	98000001 	stmdals	r0, {r0}
    2cb0:	01000001 	tsteq	r0, r1
    2cb4:	00005400 	andeq	r5, r0, r0, lsl #8
	...
    2cc8:	01400000 	mrseq	r0, (UNDEF: 64)
    2ccc:	01540000 	cmpeq	r4, r0
    2cd0:	00010000 	andeq	r0, r1, r0
    2cd4:	00015450 	andeq	r5, r1, r0, asr r4
    2cd8:	00015800 	andeq	r5, r1, r0, lsl #16
    2cdc:	51000100 	mrspl	r0, (UNDEF: 16)
    2ce0:	00000158 	andeq	r0, r0, r8, asr r1
    2ce4:	0000015c 	andeq	r0, r0, ip, asr r1
    2ce8:	01f30004 	mvnseq	r0, r4
    2cec:	015c9f50 	cmpeq	ip, r0, asr pc
    2cf0:	01600000 	cmneq	r0, r0
    2cf4:	00010000 	andeq	r0, r1, r0
    2cf8:	00016050 	andeq	r6, r1, r0, asr r0
    2cfc:	00016400 	andeq	r6, r1, r0, lsl #8
    2d00:	51000100 	mrspl	r0, (UNDEF: 16)
    2d04:	00000164 	andeq	r0, r0, r4, ror #2
    2d08:	00000170 	andeq	r0, r0, r0, ror r1
    2d0c:	01f30004 	mvnseq	r0, r4
    2d10:	00009f50 	andeq	r9, r0, r0, asr pc
	...
    2d1c:	01400000 	mrseq	r0, (UNDEF: 64)
    2d20:	014c0000 	mrseq	r0, (UNDEF: 76)
    2d24:	00010000 	andeq	r0, r1, r0
    2d28:	00014c51 	andeq	r4, r1, r1, asr ip
    2d2c:	00017000 	andeq	r7, r1, r0
    2d30:	f3000400 	vshl.u8	d0, d0, d0
    2d34:	009f5101 	addseq	r5, pc, r1, lsl #2
    2d38:	00000000 	andeq	r0, r0, r0
    2d3c:	01000000 	mrseq	r0, (UNDEF: 0)
    2d40:	00000000 	andeq	r0, r0, r0
    2d44:	00015000 	andeq	r5, r1, r0
    2d48:	00015400 	andeq	r5, r1, r0, lsl #8
    2d4c:	50000100 	andpl	r0, r0, r0, lsl #2
    2d50:	00000154 	andeq	r0, r0, r4, asr r1
    2d54:	00000158 	andeq	r0, r0, r8, asr r1
    2d58:	58510001 	ldmdapl	r1, {r0}^
    2d5c:	5c000001 	stcpl	0, cr0, [r0], {1}
    2d60:	04000001 	streq	r0, [r0], #-1
    2d64:	5001f300 	andpl	pc, r1, r0, lsl #6
    2d68:	0000009f 	muleq	r0, pc, r0	; <UNPREDICTABLE>
    2d6c:	00000000 	andeq	r0, r0, r0
    2d70:	00000200 	andeq	r0, r0, r0, lsl #4
    2d74:	5c000000 	stcpl	0, cr0, [r0], {-0}
    2d78:	60000001 	andvs	r0, r0, r1
    2d7c:	01000001 	tsteq	r0, r1
    2d80:	01605000 	cmneq	r0, r0
    2d84:	01640000 	cmneq	r4, r0
    2d88:	00010000 	andeq	r0, r1, r0
    2d8c:	00016451 	andeq	r6, r1, r1, asr r4
    2d90:	00017000 	andeq	r7, r1, r0
    2d94:	f3000400 	vshl.u8	d0, d0, d0
    2d98:	009f5001 	addseq	r5, pc, r1
	...
    2da8:	0000e800 	andeq	lr, r0, r0, lsl #16
    2dac:	00010800 	andeq	r0, r1, r0, lsl #16
    2db0:	50000100 	andpl	r0, r0, r0, lsl #2
    2db4:	00000108 	andeq	r0, r0, r8, lsl #2
    2db8:	00000128 	andeq	r0, r0, r8, lsr #2
    2dbc:	28540001 	ldmdacs	r4, {r0}^
    2dc0:	40000001 	andmi	r0, r0, r1
    2dc4:	04000001 	streq	r0, [r0], #-1
    2dc8:	5001f300 	andpl	pc, r1, r0, lsl #6
    2dcc:	0000009f 	muleq	r0, pc, r0	; <UNPREDICTABLE>
    2dd0:	00000000 	andeq	r0, r0, r0
    2dd4:	00000200 	andeq	r0, r0, r0, lsl #4
    2dd8:	e8000000 	stmda	r0, {}	; <UNPREDICTABLE>
    2ddc:	08000000 	stmdaeq	r0, {}	; <UNPREDICTABLE>
    2de0:	01000001 	tsteq	r0, r1
    2de4:	01085000 	mrseq	r5, (UNDEF: 8)
    2de8:	01280000 			; <UNDEFINED> instruction: 0x01280000
    2dec:	00010000 	andeq	r0, r1, r0
    2df0:	00012854 	andeq	r2, r1, r4, asr r8
    2df4:	00014000 	andeq	r4, r1, r0
    2df8:	f3000400 	vshl.u8	d0, d0, d0
    2dfc:	009f5001 	addseq	r5, pc, r1
	...
    2e0c:	0000f000 	andeq	pc, r0, r0
    2e10:	00010800 	andeq	r0, r1, r0, lsl #16
    2e14:	50000100 	andpl	r0, r0, r0, lsl #2
    2e18:	00000108 	andeq	r0, r0, r8, lsl #2
    2e1c:	00000128 	andeq	r0, r0, r8, lsr #2
    2e20:	28540001 	ldmdacs	r4, {r0}^
    2e24:	40000001 	andmi	r0, r0, r1
    2e28:	04000001 	streq	r0, [r0], #-1
    2e2c:	5001f300 	andpl	pc, r1, r0, lsl #6
    2e30:	0000009f 	muleq	r0, pc, r0	; <UNPREDICTABLE>
    2e34:	00000000 	andeq	r0, r0, r0
    2e38:	00000300 	andeq	r0, r0, r0, lsl #6
    2e3c:	f0000000 			; <UNDEFINED> instruction: 0xf0000000
    2e40:	08000000 	stmdaeq	r0, {}	; <UNPREDICTABLE>
    2e44:	07000001 	streq	r0, [r0, -r1]
    2e48:	3a007000 	bcc	1ee50 <__bss_end__+0x140b0>
    2e4c:	9f1e331d 	svcls	0x001e331d
    2e50:	00000108 	andeq	r0, r0, r8, lsl #2
    2e54:	00000128 	andeq	r0, r0, r8, lsr #2
    2e58:	00740007 	rsbseq	r0, r4, r7
    2e5c:	1e331d3a 	mrcne	13, 1, r1, cr3, cr10, {1}
    2e60:	0001289f 	muleq	r1, pc, r8	; <UNPREDICTABLE>
    2e64:	00014000 	andeq	r4, r1, r0
    2e68:	f3000800 	vsub.i8	d0, d0, d0
    2e6c:	1d3a5001 	ldcne	0, cr5, [sl, #-4]!
    2e70:	009f1e33 	addseq	r1, pc, r3, lsr lr	; <UNPREDICTABLE>
	...
    2e80:	00011000 	andeq	r1, r1, r0
    2e84:	00013800 	andeq	r3, r1, r0, lsl #16
    2e88:	56000100 	strpl	r0, [r0], -r0, lsl #2
    2e8c:	00000138 	andeq	r0, r0, r8, lsr r1
    2e90:	0000013b 	andeq	r0, r0, fp, lsr r1
    2e94:	3b500001 	blcc	1402ea0 <__bss_end__+0x13f8100>
    2e98:	40000001 	andmi	r0, r0, r1
    2e9c:	26000001 	strcs	r0, [r0], -r1
    2ea0:	5001f300 	andpl	pc, r1, r0, lsl #6
    2ea4:	25f72cf7 	ldrbcs	r2, [r7, #3319]!	; 0xcf7
    2ea8:	cd0825f4 	cfstr32gt	mvfx2, [r8, #-976]	; 0xfffffc30
    2eac:	00cccccc 	sbceq	ip, ip, ip, asr #25
    2eb0:	1e000000 	cdpne	0, 0, cr0, cr0, cr0, {0}
    2eb4:	25f72008 	ldrbcs	r2, [r7, #8]!
    2eb8:	f72cf725 			; <UNDEFINED> instruction: 0xf72cf725
    2ebc:	23253300 			; <UNDEFINED> instruction: 0x23253300
    2ec0:	40a08080 	adcmi	r8, r0, r0, lsl #1
    2ec4:	009f2432 	addseq	r2, pc, r2, lsr r4	; <UNPREDICTABLE>
	...
    2ed0:	00000101 	andeq	r0, r0, r1, lsl #2
    2ed4:	20000000 	andcs	r0, r0, r0
    2ed8:	20000001 	andcs	r0, r0, r1
    2edc:	01000001 	tsteq	r0, r1
    2ee0:	01205000 			; <UNDEFINED> instruction: 0x01205000
    2ee4:	01280000 			; <UNDEFINED> instruction: 0x01280000
    2ee8:	000d0000 	andeq	r0, sp, r0
    2eec:	3a007437 	bcc	1ffd0 <__bss_end__+0x15230>
    2ef0:	241e331d 	ldrcs	r3, [lr], #-797	; 0xfffffce3
    2ef4:	1a007020 	bne	1ef7c <__bss_end__+0x141dc>
    2ef8:	0001289f 	muleq	r1, pc, r8	; <UNPREDICTABLE>
    2efc:	00013000 	andeq	r3, r1, r0
    2f00:	37000e00 	strcc	r0, [r0, -r0, lsl #28]
    2f04:	3a5001f3 	bcc	14036d8 <__bss_end__+0x13f8938>
    2f08:	241e331d 	ldrcs	r3, [lr], #-797	; 0xfffffce3
    2f0c:	1a007020 	bne	1ef94 <__bss_end__+0x141f4>
    2f10:	0001309f 	muleq	r1, pc, r0	; <UNPREDICTABLE>
    2f14:	00013b00 	andeq	r3, r1, r0, lsl #22
    2f18:	37000e00 	strcc	r0, [r0, -r0, lsl #28]
    2f1c:	3a5001f3 	bcc	14036f0 <__bss_end__+0x13f8950>
    2f20:	241e331d 	ldrcs	r3, [lr], #-797	; 0xfffffce3
    2f24:	1a007320 	bne	1fbac <__bss_end__+0x14e0c>
    2f28:	0000009f 	muleq	r0, pc, r0	; <UNPREDICTABLE>
	...
    2f34:	00006000 	andeq	r6, r0, r0
    2f38:	00009000 	andeq	r9, r0, r0
    2f3c:	50000100 	andpl	r0, r0, r0, lsl #2
    2f40:	00000090 	muleq	r0, r0, r0
    2f44:	000000b8 	strheq	r0, [r0], -r8
    2f48:	01f30004 	mvnseq	r0, r4
    2f4c:	00009f50 	andeq	r9, r0, r0, asr pc
    2f50:	00000000 	andeq	r0, r0, r0
    2f54:	00020000 	andeq	r0, r2, r0
    2f58:	00600000 	rsbeq	r0, r0, r0
    2f5c:	00900000 	addseq	r0, r0, r0
    2f60:	00010000 	andeq	r0, r1, r0
    2f64:	00009050 	andeq	r9, r0, r0, asr r0
    2f68:	0000b800 	andeq	fp, r0, r0, lsl #16
    2f6c:	f3000400 	vshl.u8	d0, d0, d0
    2f70:	009f5001 	addseq	r5, pc, r1
	...
    2f7c:	68000000 	stmdavs	r0, {}	; <UNPREDICTABLE>
    2f80:	90000000 	andls	r0, r0, r0
    2f84:	01000000 	mrseq	r0, (UNDEF: 0)
    2f88:	00905000 	addseq	r5, r0, r0
    2f8c:	00b80000 	adcseq	r0, r8, r0
    2f90:	00040000 	andeq	r0, r4, r0
    2f94:	9f5001f3 	svcls	0x005001f3
	...
    2fa4:	000000a0 	andeq	r0, r0, r0, lsr #1
    2fa8:	000000b0 	strheq	r0, [r0], -r0	; <UNPREDICTABLE>
    2fac:	b0540001 	subslt	r0, r4, r1
    2fb0:	b8000000 	stmdalt	r0, {}	; <UNPREDICTABLE>
    2fb4:	29000000 	stmdbcs	r0, {}	; <UNPREDICTABLE>
    2fb8:	5001f300 	andpl	pc, r1, r0, lsl #6
    2fbc:	f75001f3 			; <UNDEFINED> instruction: 0xf75001f3
    2fc0:	f425f72c 	vld1.8	{d15}, [r5 :128], ip
    2fc4:	cccd0825 	stclgt	8, cr0, [sp], {37}	; 0x25
    2fc8:	0000cccc 	andeq	ip, r0, ip, asr #25
    2fcc:	081e0000 	ldmdaeq	lr, {}	; <UNPREDICTABLE>
    2fd0:	2525f720 	strcs	pc, [r5, #-1824]!	; 0xfffff8e0
    2fd4:	00f72cf7 	ldrshteq	r2, [r7], #199	; 0xc7
    2fd8:	1e352533 	mrcne	5, 1, r2, cr5, cr3, {1}
    2fdc:	331c2431 	tstcc	ip, #822083584	; 0x31000000
    2fe0:	00009f1e 	andeq	r9, r0, lr, lsl pc
    2fe4:	00000000 	andeq	r0, r0, r0
    2fe8:	00010000 	andeq	r0, r1, r0
    2fec:	00000000 	andeq	r0, r0, r0
    2ff0:	000000a0 	andeq	r0, r0, r0, lsr #1
    2ff4:	000000b0 	strheq	r0, [r0], -r0	; <UNPREDICTABLE>
    2ff8:	b0550001 	subslt	r0, r5, r1
    2ffc:	b3000000 	movwlt	r0, #0
    3000:	01000000 	mrseq	r0, (UNDEF: 0)
    3004:	00b35000 	adcseq	r5, r3, r0
    3008:	00b80000 	adcseq	r0, r8, r0
    300c:	00260000 	eoreq	r0, r6, r0
    3010:	f75001f3 			; <UNDEFINED> instruction: 0xf75001f3
    3014:	f425f72c 	vld1.8	{d15}, [r5 :128], ip
    3018:	cccd0825 	stclgt	8, cr0, [sp], {37}	; 0x25
    301c:	0000cccc 	andeq	ip, r0, ip, asr #25
    3020:	081e0000 	ldmdaeq	lr, {}	; <UNPREDICTABLE>
    3024:	2525f720 	strcs	pc, [r5, #-1824]!	; 0xfffff8e0
    3028:	00f72cf7 	ldrshteq	r2, [r7], #199	; 0xc7
    302c:	80232533 	eorhi	r2, r3, r3, lsr r5
    3030:	3240a080 	subcc	sl, r0, #128, 0	; 0x80
    3034:	00009f24 	andeq	r9, r0, r4, lsr #30
    3038:	00000000 	andeq	r0, r0, r0
    303c:	00020000 	andeq	r0, r2, r0
    3040:	00010100 	andeq	r0, r1, r0, lsl #2
    3044:	00a00000 	adceq	r0, r0, r0
    3048:	00a40000 	adceq	r0, r4, r0
    304c:	00010000 	andeq	r0, r1, r0
    3050:	0000a450 	andeq	sl, r0, r0, asr r4
    3054:	0000a400 	andeq	sl, r0, r0, lsl #8
    3058:	53000100 	movwpl	r0, #256	; 0x100
    305c:	000000a4 	andeq	r0, r0, r4, lsr #1
    3060:	000000a8 	andeq	r0, r0, r8, lsr #1
    3064:	74310008 	ldrtvc	r0, [r1], #-8
    3068:	00732400 	rsbseq	r2, r3, r0, lsl #8
    306c:	00a89f21 	adceq	r9, r8, r1, lsr #30
    3070:	00b30000 	adcseq	r0, r3, r0
    3074:	00010000 	andeq	r0, r1, r0
    3078:	00000051 	andeq	r0, r0, r1, asr r0
	...
    3088:	00003c00 	andeq	r3, r0, r0, lsl #24
    308c:	50000100 	andpl	r0, r0, r0, lsl #2
    3090:	0000003c 	andeq	r0, r0, ip, lsr r0
    3094:	00000060 	andeq	r0, r0, r0, rrx
    3098:	01f30004 	mvnseq	r0, r4
    309c:	00009f50 	andeq	r9, r0, r0, asr pc
	...
    30ac:	003f0000 	eorseq	r0, pc, r0
    30b0:	00010000 	andeq	r0, r1, r0
    30b4:	00003f51 	andeq	r3, r0, r1, asr pc
    30b8:	00006000 	andeq	r6, r0, r0
    30bc:	f3000400 	vshl.u8	d0, d0, d0
    30c0:	009f5101 	addseq	r5, pc, r1, lsl #2
	...
    30cc:	08000000 	stmdaeq	r0, {}	; <UNPREDICTABLE>
    30d0:	3f000000 	svccc	0x00000000
    30d4:	01000000 	mrseq	r0, (UNDEF: 0)
    30d8:	003f5100 	eorseq	r5, pc, r0, lsl #2
    30dc:	00600000 	rsbeq	r0, r0, r0
    30e0:	00040000 	andeq	r0, r4, r0
    30e4:	9f5101f3 	svcls	0x005101f3
	...
    30f4:	00000008 	andeq	r0, r0, r8
    30f8:	0000003c 	andeq	r0, r0, ip, lsr r0
    30fc:	3c500001 	mrrccc	0, 0, r0, r0, cr1	; <UNPREDICTABLE>
    3100:	60000000 	andvs	r0, r0, r0
    3104:	04000000 	streq	r0, [r0], #-0
    3108:	5001f300 	andpl	pc, r1, r0, lsl #6
    310c:	0000009f 	muleq	r0, pc, r0	; <UNPREDICTABLE>
	...
    3118:	00004800 	andeq	r4, r0, r0, lsl #16
    311c:	00005800 	andeq	r5, r0, r0, lsl #16
    3120:	54000100 	strpl	r0, [r0], #-256	; 0xffffff00
    3124:	00000058 	andeq	r0, r0, r8, asr r0
    3128:	00000060 	andeq	r0, r0, r0, rrx
    312c:	01f30029 	mvnseq	r0, r9, lsr #32
    3130:	5001f350 	andpl	pc, r1, r0, asr r3	; <UNPREDICTABLE>
    3134:	25f72cf7 	ldrbcs	r2, [r7, #3319]!	; 0xcf7
    3138:	cd0825f4 	cfstr32gt	mvfx2, [r8, #-976]	; 0xfffffc30
    313c:	00cccccc 	sbceq	ip, ip, ip, asr #25
    3140:	1e000000 	cdpne	0, 0, cr0, cr0, cr0, {0}
    3144:	25f72008 	ldrbcs	r2, [r7, #8]!
    3148:	f72cf725 			; <UNDEFINED> instruction: 0xf72cf725
    314c:	35253300 	strcc	r3, [r5, #-768]!	; 0xfffffd00
    3150:	1c24311e 	stfnes	f3, [r4], #-120	; 0xffffff88
    3154:	009f1e33 	addseq	r1, pc, r3, lsr lr	; <UNPREDICTABLE>
    3158:	00000000 	andeq	r0, r0, r0
    315c:	01000000 	mrseq	r0, (UNDEF: 0)
    3160:	00000000 	andeq	r0, r0, r0
    3164:	00004800 	andeq	r4, r0, r0, lsl #16
    3168:	00005800 	andeq	r5, r0, r0, lsl #16
    316c:	56000100 	strpl	r0, [r0], -r0, lsl #2
    3170:	00000058 	andeq	r0, r0, r8, asr r0
    3174:	0000005b 	andeq	r0, r0, fp, asr r0
    3178:	5b500001 	blpl	1403184 <__bss_end__+0x13f83e4>
    317c:	60000000 	andvs	r0, r0, r0
    3180:	26000000 	strcs	r0, [r0], -r0
    3184:	5001f300 	andpl	pc, r1, r0, lsl #6
    3188:	25f72cf7 	ldrbcs	r2, [r7, #3319]!	; 0xcf7
    318c:	cd0825f4 	cfstr32gt	mvfx2, [r8, #-976]	; 0xfffffc30
    3190:	00cccccc 	sbceq	ip, ip, ip, asr #25
    3194:	1e000000 	cdpne	0, 0, cr0, cr0, cr0, {0}
    3198:	25f72008 	ldrbcs	r2, [r7, #8]!
    319c:	f72cf725 			; <UNDEFINED> instruction: 0xf72cf725
    31a0:	23253300 			; <UNDEFINED> instruction: 0x23253300
    31a4:	40a08080 	adcmi	r8, r0, r0, lsl #1
    31a8:	009f2432 	addseq	r2, pc, r2, lsr r4	; <UNPREDICTABLE>
    31ac:	00000000 	andeq	r0, r0, r0
    31b0:	02000000 	andeq	r0, r0, #0, 0
    31b4:	01010000 	mrseq	r0, (UNDEF: 1)
    31b8:	48000000 	stmdami	r0, {}	; <UNPREDICTABLE>
    31bc:	4c000000 	stcmi	0, cr0, [r0], {-0}
    31c0:	01000000 	mrseq	r0, (UNDEF: 0)
    31c4:	004c5000 	subeq	r5, ip, r0
    31c8:	004c0000 	subeq	r0, ip, r0
    31cc:	00010000 	andeq	r0, r1, r0
    31d0:	00004c51 	andeq	r4, r0, r1, asr ip
    31d4:	00005000 	andeq	r5, r0, r0
    31d8:	75000c00 	strvc	r0, [r0, #-3072]	; 0xfffff400
    31dc:	1aff0800 	bne	fffc51e4 <__bss_end__+0xfffba444>
    31e0:	71240074 			; <UNDEFINED> instruction: 0x71240074
    31e4:	509f2100 	addspl	r2, pc, r0, lsl #2
    31e8:	54000000 	strpl	r0, [r0], #-0
    31ec:	12000000 	andne	r0, r0, #0, 0
    31f0:	00743700 	rsbseq	r3, r4, r0, lsl #14
    31f4:	00702024 	rsbseq	r2, r0, r4, lsr #32
    31f8:	0800751a 	stmdaeq	r0, {r1, r3, r4, r8, sl, ip, sp, lr}
    31fc:	00741aff 	ldrshteq	r1, [r4], #-175	; 0xffffff51
    3200:	009f2124 	addseq	r2, pc, r4, lsr #2
	...
    3210:	0000b800 	andeq	fp, r0, r0, lsl #16
    3214:	0000c400 	andeq	ip, r0, r0, lsl #8
    3218:	50000100 	andpl	r0, r0, r0, lsl #2
    321c:	000000c4 	andeq	r0, r0, r4, asr #1
    3220:	000000cb 	andeq	r0, r0, fp, asr #1
    3224:	cb530001 	blgt	14c3230 <__bss_end__+0x14b8490>
    3228:	d0000000 	andle	r0, r0, r0
    322c:	04000000 	streq	r0, [r0], #-0
    3230:	5001f300 	andpl	pc, r1, r0, lsl #6
    3234:	0000009f 	muleq	r0, pc, r0	; <UNPREDICTABLE>
	...
    3240:	d0000000 	andle	r0, r0, r0
    3244:	dc000000 	stcle	0, cr0, [r0], {-0}
    3248:	01000000 	mrseq	r0, (UNDEF: 0)
    324c:	00dc5000 	sbcseq	r5, ip, r0
    3250:	00e30000 	rsceq	r0, r3, r0
    3254:	00010000 	andeq	r0, r1, r0
    3258:	0000e353 	andeq	lr, r0, r3, asr r3
    325c:	0000e800 	andeq	lr, r0, r0, lsl #16
    3260:	f3000400 	vshl.u8	d0, d0, d0
    3264:	009f5001 	addseq	r5, pc, r1
	...
    3274:	0b000000 	bleq	327c <__code_start__-0x4d84>
    3278:	01000000 	mrseq	r0, (UNDEF: 0)
    327c:	000b5000 	andeq	r5, fp, r0
    3280:	00140000 	andseq	r0, r4, r0
    3284:	00010000 	andeq	r0, r1, r0
    3288:	00000054 	andeq	r0, r0, r4, asr r0
	...
    3298:	00001800 	andeq	r1, r0, r0, lsl #16
    329c:	51000100 	mrspl	r0, (UNDEF: 16)
    32a0:	00000018 	andeq	r0, r0, r8, lsl r0
    32a4:	0000002c 	andeq	r0, r0, ip, lsr #32
    32a8:	01f30004 	mvnseq	r0, r4
    32ac:	00009f51 	andeq	r9, r0, r1, asr pc
    32b0:	00000000 	andeq	r0, r0, r0
    32b4:	00020000 	andeq	r0, r2, r0
    32b8:	00000000 	andeq	r0, r0, r0
    32bc:	01000000 	mrseq	r0, (UNDEF: 0)
    32c0:	00000001 	andeq	r0, r0, r1
    32c4:	00000000 	andeq	r0, r0, r0
    32c8:	00000004 	andeq	r0, r0, r4
    32cc:	04500001 	ldrbeq	r0, [r0], #-1
    32d0:	08000000 	stmdaeq	r0, {}	; <UNPREDICTABLE>
    32d4:	01000000 	mrseq	r0, (UNDEF: 0)
    32d8:	00085200 	andeq	r5, r8, r0, lsl #4
    32dc:	000c0000 	andeq	r0, ip, r0
    32e0:	00030000 	andeq	r0, r3, r0
    32e4:	0c9f0172 	ldfeqs	f0, [pc], {114}	; 0x72
    32e8:	18000000 	stmdane	r0, {}	; <UNPREDICTABLE>
    32ec:	01000000 	mrseq	r0, (UNDEF: 0)
    32f0:	00185200 	andseq	r5, r8, r0, lsl #4
    32f4:	001c0000 	andseq	r0, ip, r0
    32f8:	00010000 	andeq	r0, r1, r0
    32fc:	00001c53 	andeq	r1, r0, r3, asr ip
    3300:	00002400 	andeq	r2, r0, r0, lsl #8
    3304:	73000300 	movwvc	r0, #768	; 0x300
    3308:	00249f01 	eoreq	r9, r4, r1, lsl #30
    330c:	002c0000 	eoreq	r0, ip, r0
    3310:	00010000 	andeq	r0, r1, r0
    3314:	00000053 	andeq	r0, r0, r3, asr r0
    3318:	00000000 	andeq	r0, r0, r0
    331c:	02020300 	andeq	r0, r2, #0, 6
    3320:	00000000 	andeq	r0, r0, r0
    3324:	18000000 	stmdane	r0, {}	; <UNPREDICTABLE>
    3328:	01000000 	mrseq	r0, (UNDEF: 0)
    332c:	00185100 	andseq	r5, r8, r0, lsl #2
    3330:	001c0000 	andseq	r0, ip, r0
    3334:	00030000 	andeq	r0, r3, r0
    3338:	1c9f0171 	ldfnes	f0, [pc], {113}	; 0x71
    333c:	2c000000 	stccs	0, cr0, [r0], {-0}
    3340:	01000000 	mrseq	r0, (UNDEF: 0)
    3344:	00005100 	andeq	r5, r0, r0, lsl #2
	...
    3354:	00000008 	andeq	r0, r0, r8
    3358:	0000000c 	andeq	r0, r0, ip
    335c:	00720002 	rsbseq	r0, r2, r2
    3360:	0000000c 	andeq	r0, r0, ip
    3364:	00000018 	andeq	r0, r0, r8, lsl r0
    3368:	00730002 	rsbseq	r0, r3, r2
    336c:	0000001c 	andeq	r0, r0, ip, lsl r0
    3370:	0000002c 	andeq	r0, r0, ip, lsr #32
    3374:	00520001 	subseq	r0, r2, r1
	...
    338c:	14000000 	strne	r0, [r0], #-0
    3390:	01000000 	mrseq	r0, (UNDEF: 0)
    3394:	00145000 	andseq	r5, r4, r0
    3398:	00180000 	andseq	r0, r8, r0
    339c:	00030000 	andeq	r0, r3, r0
    33a0:	189f0170 	ldmne	pc, {r4, r5, r6, r8}	; <UNPREDICTABLE>
    33a4:	20000000 	andcs	r0, r0, r0
    33a8:	01000000 	mrseq	r0, (UNDEF: 0)
    33ac:	00245000 	eoreq	r5, r4, r0
    33b0:	00280000 	eoreq	r0, r8, r0
    33b4:	00010000 	andeq	r0, r1, r0
    33b8:	00002850 	andeq	r2, r0, r0, asr r8
    33bc:	00003000 	andeq	r3, r0, r0
    33c0:	70000300 	andvc	r0, r0, r0, lsl #6
    33c4:	00389f01 	eorseq	r9, r8, r1, lsl #30
    33c8:	00400000 	subeq	r0, r0, r0
    33cc:	00010000 	andeq	r0, r1, r0
    33d0:	00000050 	andeq	r0, r0, r0, asr r0
	...
    33e0:	24000000 	strcs	r0, [r0], #-0
    33e4:	01000000 	mrseq	r0, (UNDEF: 0)
    33e8:	00245100 	eoreq	r5, r4, r0, lsl #2
    33ec:	00280000 	eoreq	r0, r8, r0
    33f0:	00010000 	andeq	r0, r1, r0
    33f4:	0000285c 	andeq	r2, r0, ip, asr r8
    33f8:	00004400 	andeq	r4, r0, r0, lsl #8
    33fc:	51000100 	mrspl	r0, (UNDEF: 16)
	...
    3408:	00020200 	andeq	r0, r2, r0, lsl #4
    340c:	00000000 	andeq	r0, r0, r0
    3410:	00040000 	andeq	r0, r4, r0
    3414:	00010000 	andeq	r0, r1, r0
    3418:	00000451 	andeq	r0, r0, r1, asr r4
    341c:	00000800 	andeq	r0, r0, r0, lsl #16
    3420:	71000300 	mrsvc	r0, LR_irq
    3424:	00089f01 	andeq	r9, r8, r1, lsl #30
    3428:	00180000 	andseq	r0, r8, r0
    342c:	00010000 	andeq	r0, r1, r0
    3430:	00000051 	andeq	r0, r0, r1, asr r0
    3434:	00000000 	andeq	r0, r0, r0
    3438:	00000200 	andeq	r0, r0, r0, lsl #4
    343c:	04000000 	streq	r0, [r0], #-0
    3440:	01000000 	mrseq	r0, (UNDEF: 0)
    3444:	00005000 	andeq	r5, r0, r0
	...
    3454:	00080000 	andeq	r0, r8, r0
    3458:	00010000 	andeq	r0, r1, r0
    345c:	00000850 	andeq	r0, r0, r0, asr r8
    3460:	00003000 	andeq	r3, r0, r0
    3464:	f3000400 	vshl.u8	d0, d0, d0
    3468:	009f5001 	addseq	r5, pc, r1
	...
    3478:	08000000 	stmdaeq	r0, {}	; <UNPREDICTABLE>
    347c:	01000000 	mrseq	r0, (UNDEF: 0)
    3480:	00085100 	andeq	r5, r8, r0, lsl #2
    3484:	00300000 	eorseq	r0, r0, r0
    3488:	00040000 	andeq	r0, r4, r0
    348c:	9f5101f3 	svcls	0x005101f3
	...
    349c:	02010000 	andeq	r0, r1, #0, 0
    34a0:	00000002 	andeq	r0, r0, r2
    34a4:	00040000 	andeq	r0, r4, r0
    34a8:	00010000 	andeq	r0, r1, r0
    34ac:	00000452 	andeq	r0, r0, r2, asr r4
    34b0:	00000800 	andeq	r0, r0, r0, lsl #16
    34b4:	f3000400 	vshl.u8	d0, d0, d0
    34b8:	089f5201 	ldmeq	pc, {r0, r9, ip, lr}	; <UNPREDICTABLE>
    34bc:	18000000 	stmdane	r0, {}	; <UNPREDICTABLE>
    34c0:	06000000 	streq	r0, [r0], -r0
    34c4:	5201f300 	andpl	pc, r1, #0, 6
    34c8:	189f1c31 	ldmne	pc, {r0, r4, r5, sl, fp, ip}	; <UNPREDICTABLE>
    34cc:	18000000 	stmdane	r0, {}	; <UNPREDICTABLE>
    34d0:	04000000 	streq	r0, [r0], #-0
    34d4:	5201f300 	andpl	pc, r1, #0, 6
    34d8:	0000189f 	muleq	r0, pc, r8	; <UNPREDICTABLE>
    34dc:	00003000 	andeq	r3, r0, r0
    34e0:	f3000600 	vmax.u8	d0, d0, d0
    34e4:	1c315201 	lfmne	f5, 4, [r1], #-4
    34e8:	0000009f 	muleq	r0, pc, r0	; <UNPREDICTABLE>
    34ec:	00000000 	andeq	r0, r0, r0
    34f0:	00000200 	andeq	r0, r0, r0, lsl #4
    34f4:	00000100 	andeq	r0, r0, r0, lsl #2
    34f8:	00000000 	andeq	r0, r0, r0
    34fc:	00000c00 	andeq	r0, r0, r0, lsl #24
    3500:	50000100 	andpl	r0, r0, r0, lsl #2
    3504:	0000000c 	andeq	r0, r0, ip
    3508:	00000018 	andeq	r0, r0, r8, lsl r0
    350c:	7f700003 	svcvc	0x00700003
    3510:	0000189f 	muleq	r0, pc, r8	; <UNPREDICTABLE>
    3514:	00002400 	andeq	r2, r0, r0, lsl #8
    3518:	50000100 	andpl	r0, r0, r0, lsl #2
    351c:	00000028 	andeq	r0, r0, r8, lsr #32
    3520:	0000002c 	andeq	r0, r0, ip, lsr #32
    3524:	7f700003 	svcvc	0x00700003
    3528:	0000009f 	muleq	r0, pc, r0	; <UNPREDICTABLE>
    352c:	00000000 	andeq	r0, r0, r0
    3530:	00000200 	andeq	r0, r0, r0, lsl #4
    3534:	00000000 	andeq	r0, r0, r0
    3538:	0c000000 	stceq	0, cr0, [r0], {-0}
    353c:	01000000 	mrseq	r0, (UNDEF: 0)
    3540:	000c5100 	andeq	r5, ip, r0, lsl #2
    3544:	00100000 	andseq	r0, r0, r0
    3548:	00030000 	andeq	r0, r3, r0
    354c:	109f0171 	addsne	r0, pc, r1, ror r1	; <UNPREDICTABLE>
    3550:	30000000 	andcc	r0, r0, r0
    3554:	01000000 	mrseq	r0, (UNDEF: 0)
    3558:	00005100 	andeq	r5, r0, r0, lsl #2
    355c:	00000000 	andeq	r0, r0, r0
	...

Disassembly of section .debug_aranges:

00000000 <.debug_aranges>:
   0:	0000001c 	andeq	r0, r0, ip, lsl r0
   4:	00000002 	andeq	r0, r0, r2
   8:	00040000 	andeq	r0, r4, r0
   c:	00000000 	andeq	r0, r0, r0
  10:	00008038 	andeq	r8, r0, r8, lsr r0
  14:	000000e0 	andeq	r0, r0, r0, ror #1
	...
  20:	0000001c 	andeq	r0, r0, ip, lsl r0
  24:	04ab0002 	strteq	r0, [fp], #2
  28:	00040000 	andeq	r0, r4, r0
  2c:	00000000 	andeq	r0, r0, r0
  30:	00008118 	andeq	r8, r0, r8, lsl r1
  34:	00000294 	muleq	r0, r4, r2
	...
  40:	0000001c 	andeq	r0, r0, ip, lsl r0
  44:	0cec0002 	stcleq	0, cr0, [ip], #8
  48:	00040000 	andeq	r0, r4, r0
  4c:	00000000 	andeq	r0, r0, r0
  50:	000083ac 	andeq	r8, r0, ip, lsr #7
  54:	00000190 	muleq	r0, r0, r1
	...
  60:	0000001c 	andeq	r0, r0, ip, lsl r0
  64:	0fe10002 	svceq	0x00e10002
  68:	00040000 	andeq	r0, r4, r0
  6c:	00000000 	andeq	r0, r0, r0
  70:	0000853c 	andeq	r8, r0, ip, lsr r5
  74:	000005a4 	andeq	r0, r0, r4, lsr #11
	...
  80:	0000001c 	andeq	r0, r0, ip, lsl r0
  84:	1d700002 	ldclne	0, cr0, [r0, #-8]!
  88:	00040000 	andeq	r0, r4, r0
  8c:	00000000 	andeq	r0, r0, r0
  90:	00008ae8 	andeq	r8, r0, r8, ror #21
  94:	00000078 	andeq	r0, r0, r8, ror r0
	...
  a0:	0000001c 	andeq	r0, r0, ip, lsl r0
  a4:	1eb40002 	cdpne	0, 11, cr0, cr4, cr2, {0}
  a8:	00040000 	andeq	r0, r4, r0
  ac:	00000000 	andeq	r0, r0, r0
  b0:	00008b60 	andeq	r8, r0, r0, ror #22
  b4:	00000058 	andeq	r0, r0, r8, asr r0
	...
  c0:	0000001c 	andeq	r0, r0, ip, lsl r0
  c4:	20550002 	subscs	r0, r5, r2
  c8:	00040000 	andeq	r0, r4, r0
  cc:	00000000 	andeq	r0, r0, r0
  d0:	00008bb8 			; <UNDEFINED> instruction: 0x00008bb8
  d4:	00000038 	andeq	r0, r0, r8, lsr r0
	...
  e0:	0000001c 	andeq	r0, r0, ip, lsl r0
  e4:	214c0002 	cmpcs	ip, r2
  e8:	00040000 	andeq	r0, r4, r0
  ec:	00000000 	andeq	r0, r0, r0
  f0:	00008bf0 	strdeq	r8, [r0], -r0
  f4:	000009b4 			; <UNDEFINED> instruction: 0x000009b4
	...
 100:	0000001c 	andeq	r0, r0, ip, lsl r0
 104:	2dcf0002 	stclcs	0, cr0, [pc, #8]	; 114 <__code_start__-0x7eec>
 108:	00040000 	andeq	r0, r4, r0
 10c:	00000000 	andeq	r0, r0, r0
 110:	000095a4 	andeq	r9, r0, r4, lsr #11
 114:	0000002c 	andeq	r0, r0, ip, lsr #32
	...
 120:	0000001c 	andeq	r0, r0, ip, lsl r0
 124:	2f020002 	svccs	0x00020002
 128:	00040000 	andeq	r0, r4, r0
 12c:	00000000 	andeq	r0, r0, r0
 130:	000095d0 	ldrdeq	r9, [r0], -r0
 134:	000000f8 	strdeq	r0, [r0], -r8
	...
 140:	0000001c 	andeq	r0, r0, ip, lsl r0
 144:	30960002 	addscc	r0, r6, r2
 148:	00040000 	andeq	r0, r4, r0
 14c:	00000000 	andeq	r0, r0, r0
 150:	000096c8 	andeq	r9, r0, r8, asr #13
 154:	00000004 	andeq	r0, r0, r4
	...
 160:	0000001c 	andeq	r0, r0, ip, lsl r0
 164:	31680002 	cmncc	r8, r2
 168:	00040000 	andeq	r0, r4, r0
 16c:	00000000 	andeq	r0, r0, r0
 170:	000096cc 	andeq	r9, r0, ip, asr #13
 174:	0000008c 	andeq	r0, r0, ip, lsl #1
	...
 180:	0000001c 	andeq	r0, r0, ip, lsl r0
 184:	33e90002 	mvncc	r0, #2, 0
 188:	00040000 	andeq	r0, r4, r0
 18c:	00000000 	andeq	r0, r0, r0
 190:	00009758 	andeq	r9, r0, r8, asr r7
 194:	0000011c 	andeq	r0, r0, ip, lsl r1
	...
 1a0:	0000001c 	andeq	r0, r0, ip, lsl r0
 1a4:	392c0002 	stmdbcc	ip!, {r1}
 1a8:	00040000 	andeq	r0, r4, r0
 1ac:	00000000 	andeq	r0, r0, r0
 1b0:	00009874 	andeq	r9, r0, r4, ror r8
 1b4:	000001f0 	strdeq	r0, [r0], -r0	; <UNPREDICTABLE>
	...
 1c0:	0000001c 	andeq	r0, r0, ip, lsl r0
 1c4:	3efd0002 	cdpcc	0, 15, cr0, cr13, cr2, {0}
 1c8:	00040000 	andeq	r0, r4, r0
 1cc:	00000000 	andeq	r0, r0, r0
 1d0:	00009a64 	andeq	r9, r0, r4, ror #20
 1d4:	000003b0 			; <UNDEFINED> instruction: 0x000003b0
	...
 1e0:	0000001c 	andeq	r0, r0, ip, lsl r0
 1e4:	47ea0002 	strbmi	r0, [sl, r2]!
 1e8:	00040000 	andeq	r0, r4, r0
 1ec:	00000000 	andeq	r0, r0, r0
 1f0:	00009e14 	andeq	r9, r0, r4, lsl lr
 1f4:	00000198 	muleq	r0, r8, r1
	...
 200:	0000001c 	andeq	r0, r0, ip, lsl r0
 204:	4e610002 	cdpmi	0, 6, cr0, cr1, cr2, {0}
 208:	00040000 	andeq	r0, r4, r0
 20c:	00000000 	andeq	r0, r0, r0
 210:	00009fac 	andeq	r9, r0, ip, lsr #31
 214:	0000003c 	andeq	r0, r0, ip, lsr r0
	...
 220:	0000001c 	andeq	r0, r0, ip, lsl r0
 224:	4fae0002 	svcmi	0x00ae0002
 228:	00040000 	andeq	r0, r4, r0
 22c:	00000000 	andeq	r0, r0, r0
 230:	00009fe8 	andeq	r9, r0, r8, ror #31
 234:	0000002c 	andeq	r0, r0, ip, lsr #32
	...
 240:	0000001c 	andeq	r0, r0, ip, lsl r0
 244:	50e90002 	rscpl	r0, r9, r2
 248:	00040000 	andeq	r0, r4, r0
 24c:	00000000 	andeq	r0, r0, r0
 250:	0000a014 	andeq	sl, r0, r4, lsl r0
 254:	00000044 	andeq	r0, r0, r4, asr #32
	...
 260:	0000001c 	andeq	r0, r0, ip, lsl r0
 264:	51e40002 	mvnpl	r0, r2
 268:	00040000 	andeq	r0, r4, r0
 26c:	00000000 	andeq	r0, r0, r0
 270:	0000a058 	andeq	sl, r0, r8, asr r0
 274:	00000018 	andeq	r0, r0, r8, lsl r0
	...
 280:	0000001c 	andeq	r0, r0, ip, lsl r0
 284:	52f70002 	rscspl	r0, r7, #2, 0
 288:	00040000 	andeq	r0, r4, r0
 28c:	00000000 	andeq	r0, r0, r0
 290:	0000a070 	andeq	sl, r0, r0, ror r0
 294:	00000030 	andeq	r0, r0, r0, lsr r0
	...
 2a0:	0000001c 	andeq	r0, r0, ip, lsl r0
 2a4:	54490002 	strbpl	r0, [r9], #-2
 2a8:	00040000 	andeq	r0, r4, r0
 2ac:	00000000 	andeq	r0, r0, r0
 2b0:	0000a0a0 	andeq	sl, r0, r0, lsr #1
 2b4:	00000004 	andeq	r0, r0, r4
	...

Disassembly of section .debug_line:

00000000 <.debug_line>:
       0:	00000174 	andeq	r0, r0, r4, ror r1
       4:	00ee0003 	rsceq	r0, lr, r3
       8:	01020000 	mrseq	r0, (UNDEF: 2)
       c:	000d0efb 	strdeq	r0, [sp], -fp
      10:	01010101 	tsteq	r1, r1, lsl #2
      14:	01000000 	mrseq	r0, (UNDEF: 0)
      18:	74010000 	strvc	r0, [r1], #-0
      1c:	73747365 	cmnvc	r4, #-1811939327	; 0x94000001
      20:	302e322d 	eorcc	r3, lr, sp, lsr #4
      24:	2f002e00 	svccs	0x00002e00
      28:	2f74706f 	svccs	0x0074706f
      2c:	656d6f68 	strbvs	r6, [sp, #-3944]!	; 0xfffff098
      30:	77657262 	strbvc	r7, [r5, -r2, ror #4]!
      34:	6c65432f 	stclvs	3, cr4, [r5], #-188	; 0xffffff44
      38:	2f72616c 	svccs	0x0072616c
      3c:	2d6d7261 	sfmcs	f7, 2, [sp, #-388]!	; 0xfffffe7c
      40:	656e6f6e 	strbvs	r6, [lr, #-3950]!	; 0xfffff092
      44:	6261652d 	rsbvs	r6, r1, #188743680	; 0xb400000
      48:	2f392d69 	svccs	0x00392d69
      4c:	30322d39 	eorscc	r2, r2, r9, lsr sp
      50:	34713931 	ldrbtcc	r3, [r1], #-2353	; 0xfffff6cf
      54:	3173632d 	cmncc	r3, sp, lsr #6
      58:	2f653730 	svccs	0x00653730
      5c:	2f62696c 	svccs	0x0062696c
      60:	2f636367 	svccs	0x00636367
      64:	2d6d7261 	sfmcs	f7, 2, [sp, #-388]!	; 0xfffffe7c
      68:	656e6f6e 	strbvs	r6, [lr, #-3950]!	; 0xfffff092
      6c:	6261652d 	rsbvs	r6, r1, #188743680	; 0xb400000
      70:	2e392f69 	cdpcs	15, 3, cr2, cr9, cr9, {3}
      74:	2f312e32 	svccs	0x00312e32
      78:	6c636e69 	stclvs	14, cr6, [r3], #-420	; 0xfffffe5c
      7c:	00656475 	rsbeq	r6, r5, r5, ror r4
      80:	6573552f 	ldrbvs	r5, [r3, #-1327]!	; 0xfffffad1
      84:	6d2f7372 	stcvs	3, cr7, [pc, #-456]!	; fffffec4 <__bss_end__+0xffff5124>
      88:	73656c69 	cmnvc	r5, #26880	; 0x6900
      8c:	756f532f 	strbvc	r5, [pc, #-815]!	; fffffd65 <__bss_end__+0xffff4fc5>
      90:	2f656372 	svccs	0x00656372
      94:	34327363 	ldrtcc	r7, [r2], #-867	; 0xfffffc9d
      98:	2f786c30 	svccs	0x00786c30
      9c:	7062696c 	rsbvc	r6, r2, ip, ror #18
      a0:	6e692f69 	cdpvs	15, 6, cr2, cr9, cr9, {3}
      a4:	64756c63 	ldrbtvs	r6, [r5], #-3171	; 0xfffff39d
      a8:	70000065 	andvc	r0, r0, r5, rrx
      ac:	32747261 	rsbscc	r7, r4, #268435462	; 0x10000006
      b0:	7365742d 	cmnvc	r5, #754974720	; 0x2d000000
      b4:	6e2d3174 	mcrvs	1, 1, r3, cr13, cr4, {3}
      b8:	656c2d6f 	strbvs	r2, [ip, #-3439]!	; 0xfffff291
      bc:	632e6b61 			; <UNDEFINED> instruction: 0x632e6b61
      c0:	00000100 	andeq	r0, r0, r0, lsl #2
      c4:	2d637273 	sfmcs	f7, 2, [r3, #-460]!	; 0xfffffe34
      c8:	2e636f6c 	cdpcs	15, 6, cr6, cr3, cr12, {3}
      cc:	00020068 	andeq	r0, r2, r8, rrx
      d0:	616b6300 	cmnvs	fp, r0, lsl #6
      d4:	636f6c6c 	cmnvs	pc, #108, 24	; 0x6c00
      d8:	0200682e 	andeq	r6, r0, #3014656	; 0x2e0000
      dc:	74730000 	ldrbtvc	r0, [r3], #-0
      e0:	746e6964 	strbtvc	r6, [lr], #-2404	; 0xfffff69c
      e4:	6363672d 	cmnvs	r3, #11796480	; 0xb40000
      e8:	0300682e 	movweq	r6, #2094	; 0x82e
      ec:	70720000 	rsbsvc	r0, r2, r0
      f0:	00682e69 	rsbeq	r2, r8, r9, ror #28
      f4:	00000004 	andeq	r0, r0, r4
      f8:	05001205 	streq	r1, [r0, #-517]	; 0xfffffdfb
      fc:	00803802 	addeq	r3, r0, r2, lsl #16
     100:	05051900 	streq	r1, [r5, #-2304]	; 0xfffff700
     104:	0502044b 	streq	r0, [r2, #-1099]	; 0xfffffbb5
     108:	0505150b 	streq	r1, [r5, #-1291]	; 0xfffffaf5
     10c:	060c0513 			; <UNDEFINED> instruction: 0x060c0513
     110:	0104ba01 	tsteq	r4, r1, lsl #20
     114:	050e0f05 	streq	r0, [lr, #-3845]	; 0xfffff0fb
     118:	019f0605 	orrseq	r0, pc, r5, lsl #12
     11c:	11050304 	tstne	r5, r4, lsl #6
     120:	05011803 	streq	r1, [r1, #-2051]	; 0xfffff7fd
     124:	06131305 	ldreq	r1, [r3], -r5, lsl #6
     128:	03010401 	movweq	r0, #5121	; 0x1401
     12c:	06660166 	strbteq	r0, [r6], -r6, ror #2
     130:	0483132e 	streq	r1, [r3], #814	; 0x32e
     134:	010b0502 	tsteq	fp, r2, lsl #10
     138:	05130505 	ldreq	r0, [r3, #-1285]	; 0xfffffafb
     13c:	8201060c 	andhi	r0, r1, #12, 12	; 0xc00000
     140:	05050104 	streq	r0, [r5, #-260]	; 0xfffffefc
     144:	83010511 	movwhi	r0, #5393	; 0x1511
     148:	0614054a 	ldreq	r0, [r4], -sl, asr #10
     14c:	c0020500 	andgt	r0, r2, r0, lsl #10
     150:	14000080 	strne	r0, [r0], #-128	; 0xffffff80
     154:	4f2f0505 	svcmi	0x002f0505
     158:	052e0903 	streq	r0, [lr, #-2307]!	; 0xfffff6fd
     15c:	05010608 	streq	r0, [r1, #-1544]	; 0xfffff9f8
     160:	09054a07 	stmdbeq	r5, {r0, r1, r2, r9, fp, lr}
     164:	01144b06 	tsteq	r4, r6, lsl #22
     168:	0601054a 	streq	r0, [r1], -sl, asr #10
     16c:	06090513 			; <UNDEFINED> instruction: 0x06090513
     170:	029e012b 	addseq	r0, lr, #-1073741814	; 0xc000000a
     174:	0101000c 	tsteq	r1, ip
     178:	000002e7 	andeq	r0, r0, r7, ror #5
     17c:	00e50003 	rsceq	r0, r5, r3
     180:	01020000 	mrseq	r0, (UNDEF: 2)
     184:	000d0efb 	strdeq	r0, [sp], -fp
     188:	01010101 	tsteq	r1, r1, lsl #2
     18c:	01000000 	mrseq	r0, (UNDEF: 0)
     190:	2f010000 	svccs	0x00010000
     194:	2f74706f 	svccs	0x0074706f
     198:	656d6f68 	strbvs	r6, [sp, #-3944]!	; 0xfffff098
     19c:	77657262 	strbvc	r7, [r5, -r2, ror #4]!
     1a0:	6c65432f 	stclvs	3, cr4, [r5], #-188	; 0xffffff44
     1a4:	2f72616c 	svccs	0x0072616c
     1a8:	2d6d7261 	sfmcs	f7, 2, [sp, #-388]!	; 0xfffffe7c
     1ac:	656e6f6e 	strbvs	r6, [lr, #-3950]!	; 0xfffff092
     1b0:	6261652d 	rsbvs	r6, r1, #188743680	; 0xb400000
     1b4:	2f392d69 	svccs	0x00392d69
     1b8:	30322d39 	eorscc	r2, r2, r9, lsr sp
     1bc:	34713931 	ldrbtcc	r3, [r1], #-2353	; 0xfffff6cf
     1c0:	3173632d 	cmncc	r3, sp, lsr #6
     1c4:	2f653730 	svccs	0x00653730
     1c8:	2f62696c 	svccs	0x0062696c
     1cc:	2f636367 	svccs	0x00636367
     1d0:	2d6d7261 	sfmcs	f7, 2, [sp, #-388]!	; 0xfffffe7c
     1d4:	656e6f6e 	strbvs	r6, [lr, #-3950]!	; 0xfffff092
     1d8:	6261652d 	rsbvs	r6, r1, #188743680	; 0xb400000
     1dc:	2e392f69 	cdpcs	15, 3, cr2, cr9, cr9, {3}
     1e0:	2f312e32 	svccs	0x00312e32
     1e4:	6c636e69 	stclvs	14, cr6, [r3], #-420	; 0xfffffe5c
     1e8:	00656475 	rsbeq	r6, r5, r5, ror r4
     1ec:	6573552f 	ldrbvs	r5, [r3, #-1327]!	; 0xfffffad1
     1f0:	6d2f7372 	stcvs	3, cr7, [pc, #-456]!	; 30 <__code_start__-0x7fd0>
     1f4:	73656c69 	cmnvc	r5, #26880	; 0x6900
     1f8:	756f532f 	strbvc	r5, [pc, #-815]!	; fffffed1 <__bss_end__+0xffff5131>
     1fc:	2f656372 	svccs	0x00656372
     200:	34327363 	ldrtcc	r7, [r2], #-867	; 0xfffffc9d
     204:	2f786c30 	svccs	0x00786c30
     208:	7062696c 	rsbvc	r6, r2, ip, ror #18
     20c:	6e692f69 	cdpvs	15, 6, cr2, cr9, cr9, {3}
     210:	64756c63 	ldrbtvs	r6, [r5], #-3171	; 0xfffff39d
     214:	63000065 	movwvs	r0, #101	; 0x65
     218:	6c6c616b 	stfvse	f6, [ip], #-428	; 0xfffffe54
     21c:	632e636f 			; <UNDEFINED> instruction: 0x632e636f
     220:	00000000 	andeq	r0, r0, r0
     224:	6c616b63 			; <UNDEFINED> instruction: 0x6c616b63
     228:	2e636f6c 	cdpcs	15, 6, cr6, cr3, cr12, {3}
     22c:	00000068 	andeq	r0, r0, r8, rrx
     230:	64747300 	ldrbtvs	r7, [r4], #-768	; 0xfffffd00
     234:	2d746e69 	ldclcs	14, cr6, [r4, #-420]!	; 0xfffffe5c
     238:	2e636367 	cdpcs	3, 6, cr6, cr3, cr7, {3}
     23c:	00010068 	andeq	r0, r1, r8, rrx
     240:	69707200 	ldmdbvs	r0!, {r9, ip, sp, lr}^
     244:	0200682e 	andeq	r6, r0, #3014656	; 0x2e0000
     248:	72730000 	rsbsvc	r0, r3, #0, 0
     24c:	6f6c2d63 	svcvs	0x006c2d63
     250:	00682e63 	rsbeq	r2, r8, r3, ror #28
     254:	6b000000 	blvs	25c <__code_start__-0x7da4>
     258:	616d2d72 	smcvs	53970	; 0xd2d2
     25c:	636f6c6c 	cmnvs	pc, #108, 24	; 0x6c00
     260:	0000682e 	andeq	r6, r0, lr, lsr #16
     264:	05000000 	streq	r0, [r0, #-0]
     268:	02050001 	andeq	r0, r5, #1, 0
     26c:	00008118 	andeq	r8, r0, r8, lsl r1
     270:	05010b03 	streq	r0, [r1, #-2819]	; 0xfffff4fd
     274:	01051305 	tsteq	r5, r5, lsl #6
     278:	86061306 	strhi	r1, [r6], -r6, lsl #6
     27c:	05130505 	ldreq	r0, [r3, #-1285]	; 0xfffffafb
     280:	05010608 	streq	r0, [r1, #-1544]	; 0xfffff9f8
     284:	052f0609 	streq	r0, [pc, #-1545]!	; fffffc83 <__bss_end__+0xffff4ee3>
     288:	05010611 	streq	r0, [r1, #-1553]	; 0xfffff9ef
     28c:	31063001 	tstcc	r6, r1
     290:	05130505 	ldreq	r0, [r3, #-1285]	; 0xfffffafb
     294:	2e130601 	cfmsub32cs	mvax0, mvfx0, mvfx3, mvfx1
     298:	05053206 	streq	r3, [r5, #-518]	; 0xfffffdfa
     29c:	017a0313 	cmneq	sl, r3, lsl r3
     2a0:	18050204 	stmdane	r5, {r2, r9}
     2a4:	05011403 	streq	r1, [r1, #-1027]	; 0xfffffbfd
     2a8:	01061305 	tsteq	r6, r5, lsl #6
     2ac:	24050104 	strcs	r0, [r5], #-260	; 0xfffffefc
     2b0:	05017103 	streq	r7, [r1, #-259]	; 0xfffffefd
     2b4:	062e4b01 	strteq	r4, [lr], -r1, lsl #22
     2b8:	13050532 	movwne	r0, #21810	; 0x5532
     2bc:	72030705 	andvc	r0, r3, #1310720	; 0x140000
     2c0:	14050501 	strne	r0, [r5], #-1281	; 0xfffffaff
     2c4:	03060106 	movweq	r0, #24838	; 0x6106
     2c8:	0705010d 	streq	r0, [r5, -sp, lsl #2]
     2cc:	05017703 	streq	r7, [r1, #-1795]	; 0xfffff8fd
     2d0:	01061405 	tsteq	r6, r5, lsl #8
     2d4:	017a0306 	cmneq	sl, r6, lsl #6
     2d8:	18050204 	stmdane	r5, {r2, r9}
     2dc:	05011403 	streq	r1, [r1, #-1027]	; 0xfffffbfd
     2e0:	01061305 	tsteq	r6, r5, lsl #6
     2e4:	03060104 	movweq	r0, #24836	; 0x6104
     2e8:	24050179 	strcs	r0, [r5], #-377	; 0xfffffe87
     2ec:	01780306 	cmneq	r8, r6, lsl #6
     2f0:	7a030c05 	bvc	c330c <__bss_end__+0xb856c>
     2f4:	01052e66 	tsteq	r5, r6, ror #28
     2f8:	66010f03 	strvs	r0, [r1], -r3, lsl #30
     2fc:	01064d06 	tsteq	r6, r6, lsl #26
     300:	4c060505 	cfstr32mi	mvfx0, [r6], {5}
     304:	05010a05 	streq	r0, [r1, #-2565]	; 0xfffff5fb
     308:	015d0308 	cmpeq	sp, r8, lsl #6
     30c:	05140505 	ldreq	r0, [r4, #-1285]	; 0xfffffafb
     310:	4a01060c 	bmi	41b48 <__bss_end__+0x36da8>
     314:	03062505 	movweq	r2, #25861	; 0x6505
     318:	05050121 	streq	r0, [r5, #-289]	; 0xfffffedf
     31c:	09050106 	stmdbeq	r5, {r1, r2, r8}
     320:	0d054d06 	stceq	13, cr4, [r5, #-24]	; 0xffffffe8
     324:	0c050106 	stfeqs	f0, [r5], {6}
     328:	06280566 	strteq	r0, [r8], -r6, ror #10
     32c:	03080547 	movweq	r0, #34119	; 0x8547
     330:	05050163 	streq	r0, [r5, #-355]	; 0xfffffe9d
     334:	13090514 	movwne	r0, #38164	; 0x9514
     338:	01061105 	tsteq	r6, r5, lsl #2
     33c:	0625052e 	strteq	r0, [r5], -lr, lsr #10
     340:	05011a03 	streq	r1, [r1, #-2563]	; 0xfffff5fd
     344:	05010605 	streq	r0, [r1, #-1541]	; 0xfffff9fb
     348:	836b060d 	cmnhi	fp, #13631488	; 0xd00000
     34c:	01050106 	tsteq	r5, r6, lsl #2
     350:	1c030616 	stcne	6, cr0, [r3], {22}
     354:	82010682 	andhi	r0, r1, #136314880	; 0x8200000
     358:	05052e4a 	streq	r2, [r5, #-3658]	; 0xfffff1b6
     35c:	14132f06 	ldrne	r2, [r3], #-3846	; 0xfffff0fa
     360:	13669e01 	cmnne	r6, #1, 28
     364:	01060805 	tsteq	r6, r5, lsl #16
     368:	83060905 	movwhi	r0, #26885	; 0x6905
     36c:	05140505 	ldreq	r0, [r4, #-1285]	; 0xfffffafb
     370:	0501060e 	streq	r0, [r1, #-1550]	; 0xfffff9f2
     374:	014b0605 	cmpeq	fp, r5, lsl #12
     378:	05140182 	ldreq	r0, [r4, #-386]	; 0xfffffe7e
     37c:	015b030d 	cmpeq	fp, sp, lsl #6
     380:	01140505 	tsteq	r4, r5, lsl #10
     384:	05130101 	ldreq	r0, [r3, #-257]	; 0xfffffeff
     388:	0501060c 	streq	r0, [r1, #-1548]	; 0xfffff9f4
     38c:	054c0605 	strbeq	r0, [ip, #-1541]	; 0xfffff9fb
     390:	05010608 	streq	r0, [r1, #-1544]	; 0xfffff9f8
     394:	054c0609 	strbeq	r0, [ip, #-1545]	; 0xfffff9f7
     398:	0501060f 	streq	r0, [r1, #-1551]	; 0xfffff9f1
     39c:	052e2e0c 	streq	r2, [lr, #-3596]!	; 0xfffff1f4
     3a0:	062f0609 	strteq	r0, [pc], -r9, lsl #12
     3a4:	1803062e 	stmdane	r3, {r1, r2, r3, r5, r9, sl}
     3a8:	669e0101 	ldrvs	r0, [lr], r1, lsl #2
     3ac:	02000505 	andeq	r0, r0, #20971520	; 0x1400000
     3b0:	00310104 	eorseq	r0, r1, r4, lsl #2
     3b4:	01010402 	tsteq	r1, r2, lsl #8
     3b8:	01040200 	mrseq	r0, R12_usr
     3bc:	030d05d6 	movweq	r0, #54742	; 0xd5d6
     3c0:	1b052e6d 	blne	14bd7c <__bss_end__+0x140fdc>
     3c4:	18050106 	stmdane	r5, {r1, r2, r8}
     3c8:	060d052e 	streq	r0, [sp], -lr, lsr #10
     3cc:	1605052f 	strne	r0, [r5], -pc, lsr #10
     3d0:	03060106 	movweq	r0, #24838	; 0x6106
     3d4:	01050111 	tsteq	r5, r1, lsl r1
     3d8:	09054b06 	stmdbeq	r5, {r1, r2, r8, r9, fp, lr}
     3dc:	7fb30306 	svcvc	0x00b30306
     3e0:	0611054a 	ldreq	r0, [r1], -sl, asr #10
     3e4:	0b052e01 	bleq	14bbf0 <__bss_end__+0x140e50>
     3e8:	05013203 	streq	r3, [r1, #-515]	; 0xfffffdfd
     3ec:	054c0609 	strbeq	r0, [ip, #-1545]	; 0xfffff9f7
     3f0:	0501060c 	streq	r0, [r1, #-1548]	; 0xfffff9f4
     3f4:	4a4c0311 	bmi	1301040 <__bss_end__+0x12f62a0>
     3f8:	060b052e 	streq	r0, [fp], -lr, lsr #10
     3fc:	05013203 	streq	r3, [r1, #-515]	; 0xfffffdfd
     400:	014b0308 	cmpeq	fp, r8, lsl #6
     404:	05140505 	ldreq	r0, [r4, #-1285]	; 0xfffffafb
     408:	4a010608 	bmi	41c30 <__bss_end__+0x36e90>
     40c:	03060505 	movweq	r0, #25861	; 0x6505
     410:	0601013c 			; <UNDEFINED> instruction: 0x0601013c
     414:	0582064a 	streq	r0, [r2, #1610]	; 0x64a
     418:	08180301 	ldmdaeq	r8, {r0, r8, r9}
     41c:	05010674 	streq	r0, [r1, #-1652]	; 0xfffff98c
     420:	059f0605 	ldreq	r0, [pc, #1541]	; a2d <__code_start__-0x75d3>
     424:	2e010610 	mcrcs	6, 0, r0, cr1, cr0, {0}
     428:	4b060505 	blmi	181844 <__bss_end__+0x176aa4>
     42c:	06150568 	ldreq	r0, [r5], -r8, ror #10
     430:	06050501 	streq	r0, [r5], -r1, lsl #10
     434:	060e052f 	streq	r0, [lr], -pc, lsr #10
     438:	06050501 	streq	r0, [r5], -r1, lsl #10
     43c:	0612054b 	ldreq	r0, [r2], -fp, asr #10
     440:	06050501 	streq	r0, [r5], -r1, lsl #10
     444:	9e9e0168 	fmllsez	f0, f6, #0.0
     448:	060d0514 			; <UNDEFINED> instruction: 0x060d0514
     44c:	06050501 	streq	r0, [r5], -r1, lsl #10
     450:	06100567 	ldreq	r0, [r0], -r7, ror #10
     454:	06050501 	streq	r0, [r5], -r1, lsl #10
     458:	06010530 			; <UNDEFINED> instruction: 0x06010530
     45c:	06026613 			; <UNDEFINED> instruction: 0x06026613
     460:	26010100 	strcs	r0, [r1], -r0, lsl #2
     464:	03000002 	movweq	r0, #2
     468:	00006400 	andeq	r6, r0, r0, lsl #8
     46c:	fb010200 	blx	40c76 <__bss_end__+0x35ed6>
     470:	01000d0e 	tsteq	r0, lr, lsl #26
     474:	00010101 	andeq	r0, r1, r1, lsl #2
     478:	00010000 	andeq	r0, r1, r0
     47c:	552f0100 	strpl	r0, [pc, #-256]!	; 384 <__code_start__-0x7c7c>
     480:	73726573 	cmnvc	r2, #482344960	; 0x1cc00000
     484:	6c696d2f 	stclvs	13, cr6, [r9], #-188	; 0xffffff44
     488:	532f7365 			; <UNDEFINED> instruction: 0x532f7365
     48c:	6372756f 	cmnvs	r2, #465567744	; 0x1bc00000
     490:	73632f65 	cmnvc	r3, #404	; 0x194
     494:	6c303432 	cfldrsvs	mvf3, [r0], #-200	; 0xffffff38
     498:	696c2f78 	stmdbvs	ip!, {r3, r4, r5, r6, r8, r9, sl, fp, sp}^
     49c:	2f697062 	svccs	0x00697062
     4a0:	6c636e69 	stclvs	14, cr6, [r3], #-420	; 0xfffffe5c
     4a4:	00656475 	rsbeq	r6, r5, r5, ror r4
     4a8:	2d726b00 	vldmdbcs	r2!, {d22-d21}
     4ac:	6c6c616d 	stfvse	f6, [ip], #-436	; 0xfffffe4c
     4b0:	632e636f 			; <UNDEFINED> instruction: 0x632e636f
     4b4:	00000000 	andeq	r0, r0, r0
     4b8:	2e697072 	mcrcs	0, 3, r7, cr9, cr2, {3}
     4bc:	00010068 	andeq	r0, r1, r8, rrx
     4c0:	2d726b00 	vldmdbcs	r2!, {d22-d21}
     4c4:	6c6c616d 	stfvse	f6, [ip], #-436	; 0xfffffe4c
     4c8:	682e636f 	stmdavs	lr!, {r0, r1, r2, r3, r5, r6, r8, r9, sp, lr}
     4cc:	00000000 	andeq	r0, r0, r0
     4d0:	00010500 	andeq	r0, r1, r0, lsl #10
     4d4:	83ac0205 			; <UNDEFINED> instruction: 0x83ac0205
     4d8:	d3030000 	movwle	r0, #12288	; 0x3000
     4dc:	01060100 	mrseq	r0, (UNDEF: 22)
     4e0:	2f060205 	svccs	0x00060205
     4e4:	06050513 			; <UNDEFINED> instruction: 0x06050513
     4e8:	06020501 	streq	r0, [r2], -r1, lsl #10
     4ec:	0609052f 	streq	r0, [r9], -pc, lsr #10
     4f0:	4a020501 	bmi	818fc <__bss_end__+0x76b5c>
     4f4:	2f060305 	svccs	0x00060305
     4f8:	01061005 	tsteq	r6, r5
     4fc:	052e0605 	streq	r0, [lr, #-1541]!	; 0xfffff9fb
     500:	04020020 	streq	r0, [r2], #-32	; 0xffffffe0
     504:	01054a02 	tsteq	r5, r2, lsl #20
     508:	01040200 	mrseq	r0, R12_usr
     50c:	00120546 	andseq	r0, r2, r6, asr #10
     510:	06010402 	streq	r0, [r1], -r2, lsl #8
     514:	00020531 	andeq	r0, r2, r1, lsr r5
     518:	06010402 	streq	r0, [r1], -r2, lsl #8
     51c:	00270501 	eoreq	r0, r7, r1, lsl #10
     520:	4a030402 	bmi	c1530 <__bss_end__+0xb6790>
     524:	02001205 	andeq	r1, r0, #1342177280	; 0x50000000
     528:	052e0304 	streq	r0, [lr, #-772]!	; 0xfffffcfc
     52c:	054b0603 	strbeq	r0, [fp, #-1539]	; 0xfffff9fd
     530:	05010606 	streq	r0, [r1, #-1542]	; 0xfffff9fa
     534:	054c0602 	strbeq	r0, [ip, #-1538]	; 0xfffff9fe
     538:	05010610 	streq	r0, [r1, #-1552]	; 0xfffff9f0
     53c:	09052e1d 	stmdbeq	r5, {r0, r2, r3, r4, r9, sl, fp, sp}
     540:	2e05052e 	cfsh32cs	mvfx0, mvfx5, #30
     544:	30060305 	andcc	r0, r6, r5, lsl #6
     548:	01060e05 	tsteq	r6, r5, lsl #28
     54c:	67060305 	strvs	r0, [r6, -r5, lsl #6]
     550:	01061a05 	tsteq	r6, r5, lsl #20
     554:	4d060305 	stcmi	3, cr0, [r6, #-20]	; 0xffffffec
     558:	01060d05 	tsteq	r6, r5, lsl #26
     55c:	2f060205 	svccs	0x00060205
     560:	01060e05 	tsteq	r6, r5, lsl #28
     564:	052e0805 	streq	r0, [lr, #-2053]!	; 0xfffff7fb
     568:	03052e05 	movweq	r2, #24069	; 0x5e05
     56c:	0d053006 	stceq	0, cr3, [r5, #-24]	; 0xffffffe8
     570:	052e0106 	streq	r0, [lr, #-262]!	; 0xfffffefa
     574:	054b0603 	strbeq	r0, [fp, #-1539]	; 0xfffff9fd
     578:	05010613 	streq	r0, [r1, #-1555]	; 0xfffff9ed
     57c:	03052e0c 	movweq	r2, #24076	; 0x5e0c
     580:	0c053106 	stfeqs	f3, [r5], {6}
     584:	02050106 	andeq	r0, r5, #-2147483647	; 0x80000001
     588:	08052f06 	stmdaeq	r5, {r1, r2, r8, r9, sl, fp, sp}
     58c:	01050106 	tsteq	r5, r6, lsl #2
     590:	4303064b 	movwmi	r0, #13899	; 0x364b
     594:	0501064a 	streq	r0, [r1, #-1610]	; 0xfffff9b6
     598:	132f0602 			; <UNDEFINED> instruction: 0x132f0602
     59c:	06240514 			; <UNDEFINED> instruction: 0x06240514
     5a0:	2e290501 	cfsh64cs	mvdx0, mvdx9, #1
     5a4:	052e0905 	streq	r0, [lr, #-2309]!	; 0xfffff6fb
     5a8:	052f0602 	streq	r0, [pc, #-1538]!	; ffffffae <__bss_end__+0xffff520e>
     5ac:	0501060d 	streq	r0, [r1, #-1549]	; 0xfffff9f3
     5b0:	02054a05 	andeq	r4, r5, #20480	; 0x5000
     5b4:	09055006 	stmdbeq	r5, {r1, r2, ip, lr}
     5b8:	03050106 	movweq	r0, #20742	; 0x5106
     5bc:	0b053006 	bleq	14c5dc <__bss_end__+0x14183c>
     5c0:	06050106 	streq	r0, [r5], -r6, lsl #2
     5c4:	0309052e 	movweq	r0, #38190	; 0x952e
     5c8:	02054a0f 	andeq	r4, r5, #61440	; 0xf000
     5cc:	662e5803 	strtvs	r5, [lr], -r3, lsl #16
     5d0:	03060305 	movweq	r0, #25349	; 0x6305
     5d4:	16050113 			; <UNDEFINED> instruction: 0x16050113
     5d8:	0e050106 	adfeqs	f0, f5, f6
     5dc:	06030566 	streq	r0, [r3], -r6, ror #10
     5e0:	060f052f 	streq	r0, [pc], -pc, lsr #10
     5e4:	06020501 	streq	r0, [r2], -r1, lsl #10
     5e8:	1403054d 	strne	r0, [r3], #-1357	; 0xfffffab3
     5ec:	05300405 	ldreq	r0, [r0, #-1029]!	; 0xfffffbfb
     5f0:	05010607 	streq	r0, [r1, #-1543]	; 0xfffff9f9
     5f4:	05300605 	ldreq	r0, [r0, #-1541]!	; 0xfffff9fb
     5f8:	05010618 	streq	r0, [r1, #-1560]	; 0xfffff9e8
     5fc:	05052e12 	streq	r2, [r5, #-3602]	; 0xfffff1ee
     600:	0f053206 	svceq	0x00053206
     604:	05050106 	streq	r0, [r5, #-262]	; 0xfffffefa
     608:	07054b06 	streq	r4, [r5, -r6, lsl #22]
     60c:	05050106 	streq	r0, [r5, #-262]	; 0xfffffefa
     610:	0f052f06 	svceq	0x00052f06
     614:	04050106 	streq	r0, [r5], #-262	; 0xfffffefa
     618:	0a053006 	beq	14c638 <__bss_end__+0x141898>
     61c:	052e0106 	streq	r0, [lr, #-262]!	; 0xfffffefa
     620:	052f0604 	streq	r0, [pc, #-1540]!	; 24 <__code_start__-0x7fdc>
     624:	0501060b 	streq	r0, [r1, #-1547]	; 0xfffff9f5
     628:	5e030602 	cfmadd32pl	mvax0, mvfx0, mvfx3, mvfx2
     62c:	0d05134a 	stceq	3, cr1, [r5, #-296]	; 0xfffffed8
     630:	02050106 	andeq	r0, r5, #-2147483647	; 0x80000001
     634:	2e062f06 	cdpcs	15, 0, cr2, cr6, cr6, {0}
     638:	09052f06 	stmdbeq	r5, {r1, r2, r8, r9, sl, fp, sp}
     63c:	052e0106 	streq	r0, [lr, #-262]!	; 0xfffffefa
     640:	01230307 			; <UNDEFINED> instruction: 0x01230307
     644:	03061a05 	movweq	r1, #27141	; 0x6a05
     648:	27054a6d 	strcs	r4, [r5, -sp, ror #20]
     64c:	18050106 	stmdane	r5, {r1, r2, r8}
     650:	03052e06 	movweq	r2, #24070	; 0x5e06
     654:	060b0514 			; <UNDEFINED> instruction: 0x060b0514
     658:	2e060501 	cfsh32cs	mvfx0, mvfx6, #1
     65c:	03060305 	movweq	r0, #25349	; 0x6305
     660:	06054a0f 	streq	r4, [r5], -pc, lsl #20
     664:	04050106 	streq	r0, [r5], #-262	; 0xfffffefa
     668:	10058406 	andne	r8, r5, r6, lsl #8
     66c:	05015203 	streq	r5, [r1, #-515]	; 0xfffffdfd
     670:	67141402 	ldrvs	r1, [r4, -r2, lsl #8]
     674:	01060d05 	tsteq	r6, r5, lsl #26
     678:	4b060205 	blmi	180e94 <__bss_end__+0x1760f4>
     67c:	01060505 	tsteq	r6, r5, lsl #10
     680:	2a030c05 	bcs	c369c <__bss_end__+0xb88fc>
     684:	3201054a 	andcc	r0, r1, #310378496	; 0x12800000
     688:	01000602 	tsteq	r0, r2, lsl #12
     68c:	00053701 	andeq	r3, r5, r1, lsl #14
     690:	d4000300 	strle	r0, [r0], #-768	; 0xfffffd00
     694:	02000000 	andeq	r0, r0, #0, 0
     698:	0d0efb01 	vstreq	d15, [lr, #-4]
     69c:	01010100 	mrseq	r0, (UNDEF: 17)
     6a0:	00000001 	andeq	r0, r0, r1
     6a4:	01000001 	tsteq	r0, r1
     6a8:	74706f2f 	ldrbtvc	r6, [r0], #-3887	; 0xfffff0d1
     6ac:	6d6f682f 	stclvs	8, cr6, [pc, #-188]!	; 5f8 <__code_start__-0x7a08>
     6b0:	65726265 	ldrbvs	r6, [r2, #-613]!	; 0xfffffd9b
     6b4:	65432f77 	strbvs	r2, [r3, #-3959]	; 0xfffff089
     6b8:	72616c6c 	rsbvc	r6, r1, #108, 24	; 0x6c00
     6bc:	6d72612f 	ldfvse	f6, [r2, #-188]!	; 0xffffff44
     6c0:	6e6f6e2d 	cdpvs	14, 6, cr6, cr15, cr13, {1}
     6c4:	61652d65 	cmnvs	r5, r5, ror #26
     6c8:	392d6962 	pushcc	{r1, r5, r6, r8, fp, sp, lr}
     6cc:	322d392f 	eorcc	r3, sp, #770048	; 0xbc000
     6d0:	71393130 	teqvc	r9, r0, lsr r1
     6d4:	73632d34 	cmnvc	r3, #52, 26	; 0xd00
     6d8:	65373031 	ldrvs	r3, [r7, #-49]!	; 0xffffffcf
     6dc:	62696c2f 	rsbvs	r6, r9, #12032	; 0x2f00
     6e0:	6363672f 	cmnvs	r3, #12320768	; 0xbc0000
     6e4:	6d72612f 	ldfvse	f6, [r2, #-188]!	; 0xffffff44
     6e8:	6e6f6e2d 	cdpvs	14, 6, cr6, cr15, cr13, {1}
     6ec:	61652d65 	cmnvs	r5, r5, ror #26
     6f0:	392f6962 	stmdbcc	pc!, {r1, r5, r6, r8, fp, sp, lr}	; <UNPREDICTABLE>
     6f4:	312e322e 			; <UNDEFINED> instruction: 0x312e322e
     6f8:	636e692f 	cmnvs	lr, #770048	; 0xbc000
     6fc:	6564756c 	strbvs	r7, [r4, #-1388]!	; 0xfffffa94
     700:	73552f00 	cmpvc	r5, #0, 30
     704:	2f737265 	svccs	0x00737265
     708:	656c696d 	strbvs	r6, [ip, #-2413]!	; 0xfffff693
     70c:	6f532f73 	svcvs	0x00532f73
     710:	65637275 	strbvs	r7, [r3, #-629]!	; 0xfffffd8b
     714:	3273632f 	rsbscc	r6, r3, #-1140850688	; 0xbc000000
     718:	786c3034 	stmdavc	ip!, {r2, r4, r5, ip, sp}^
     71c:	62696c2f 	rsbvs	r6, r9, #12032	; 0x2f00
     720:	692f6970 	stmdbvs	pc!, {r4, r5, r6, r8, fp, sp, lr}	; <UNPREDICTABLE>
     724:	756c636e 	strbvc	r6, [ip, #-878]!	; 0xfffffc92
     728:	00006564 	andeq	r6, r0, r4, ror #10
     72c:	672d6b63 	strvs	r6, [sp, -r3, ror #22]!
     730:	00632e63 	rsbeq	r2, r3, r3, ror #28
     734:	73000000 	movwvc	r0, #0
     738:	6c2d6372 	stcvs	3, cr6, [sp], #-456	; 0xfffffe38
     73c:	682e636f 	stmdavs	lr!, {r0, r1, r2, r3, r5, r6, r8, r9, sp, lr}
     740:	00000000 	andeq	r0, r0, r0
     744:	69647473 	stmdbvs	r4!, {r0, r1, r4, r5, r6, sl, ip, sp, lr}^
     748:	672d746e 	strvs	r7, [sp, -lr, ror #8]!
     74c:	682e6363 	stmdavs	lr!, {r0, r1, r5, r6, r8, r9, sp, lr}
     750:	00000100 	andeq	r0, r0, r0, lsl #2
     754:	2e697072 	mcrcs	0, 3, r7, cr9, cr2, {3}
     758:	00020068 	andeq	r0, r2, r8, rrx
     75c:	616b6300 	cmnvs	fp, r0, lsl #6
     760:	636f6c6c 	cmnvs	pc, #108, 24	; 0x6c00
     764:	0000682e 	andeq	r6, r0, lr, lsr #16
     768:	05000000 	streq	r0, [r0, #-0]
     76c:	02050001 	andeq	r0, r5, #1, 0
     770:	0000853c 	andeq	r8, r0, ip, lsr r5
     774:	0100d003 	tsteq	r0, r3
     778:	05050106 	streq	r0, [r5, #-262]	; 0xfffffefa
     77c:	00014b06 	andeq	r4, r1, r6, lsl #22
     780:	4a020402 	bmi	81790 <__bss_end__+0x769f0>
     784:	02040200 	andeq	r0, r4, #0, 4
     788:	04020001 	streq	r0, [r2], #-1
     78c:	02001502 	andeq	r1, r0, #8388608	; 0x800000
     790:	00010204 	andeq	r0, r1, r4, lsl #4
     794:	66020402 	strvs	r0, [r2], -r2, lsl #8
     798:	02040200 	andeq	r0, r4, #0, 4
     79c:	04020001 	streq	r0, [r2], #-1
     7a0:	02001302 	andeq	r1, r0, #134217728	; 0x8000000
     7a4:	00010204 	andeq	r0, r1, r4, lsl #4
     7a8:	06020402 	streq	r0, [r2], -r2, lsl #8
     7ac:	030b059e 	movweq	r0, #46494	; 0xb59e
     7b0:	0d052e58 	stceq	14, cr2, [r5, #-352]	; 0xfffffea0
     7b4:	4a2e3103 	bmi	b8cbc8 <__bss_end__+0xb81e28>
     7b8:	02000505 	andeq	r0, r0, #20971520	; 0x1400000
     7bc:	03060104 	movweq	r0, #24836	; 0x6104
     7c0:	02000173 	andeq	r0, r0, #-1073741796	; 0xc000001c
     7c4:	00010104 	andeq	r0, r1, r4, lsl #2
     7c8:	06010402 	streq	r0, [r1], -r2, lsl #8
     7cc:	0402009e 	streq	r0, [r2], #-158	; 0xffffff62
     7d0:	02002e01 	andeq	r2, r0, #1, 28
     7d4:	2e060104 	adfcss	f0, f6, f4
     7d8:	01040200 	mrseq	r0, R12_usr
     7dc:	04020031 	streq	r0, [r2], #-49	; 0xffffffcf
     7e0:	02000101 	andeq	r0, r0, #1073741824	; 0x40000000
     7e4:	9e060104 	adflss	f0, f6, f4
     7e8:	01040200 	mrseq	r0, R12_usr
     7ec:	0402002e 	streq	r0, [r2], #-46	; 0xffffffd2
     7f0:	002e0601 	eoreq	r0, lr, r1, lsl #12
     7f4:	2f010402 	svccs	0x00010402
     7f8:	01040200 	mrseq	r0, R12_usr
     7fc:	04020001 	streq	r0, [r2], #-1
     800:	009e0601 	addseq	r0, lr, r1, lsl #12
     804:	2e010402 	cdpcs	4, 0, cr0, cr1, cr2, {0}
     808:	01040200 	mrseq	r0, R12_usr
     80c:	11052e06 	tstne	r5, r6, lsl #28
     810:	062e1703 	strteq	r1, [lr], -r3, lsl #14
     814:	0023054a 	eoreq	r0, r3, sl, asr #10
     818:	06020402 	streq	r0, [r2], -r2, lsl #8
     81c:	05016b03 	streq	r6, [r1, #-2819]	; 0xfffff4fd
     820:	0402001b 	streq	r0, [r2], #-27	; 0xffffffe5
     824:	05050102 	streq	r0, [r5, #-258]	; 0xfffffefe
     828:	02040200 	andeq	r0, r4, #0, 4
     82c:	02000106 	andeq	r0, r0, #-2147483647	; 0x80000001
     830:	054a0204 	strbeq	r0, [sl, #-516]	; 0xfffffdfc
     834:	05300609 	ldreq	r0, [r0, #-1545]!	; 0xfffff9f7
     838:	2e62030f 	cdpcs	3, 6, cr0, cr2, cr15, {0}
     83c:	05140505 	ldreq	r0, [r4, #-1285]	; 0xfffffafb
     840:	0501060b 	streq	r0, [r1, #-1547]	; 0xfffff9f5
     844:	05300605 	ldreq	r0, [r0, #-1541]!	; 0xfffff9fb
     848:	016b030c 	cmneq	fp, ip, lsl #6
     84c:	05150505 	ldreq	r0, [r5, #-1285]	; 0xfffffafb
     850:	05010608 	streq	r0, [r1, #-1544]	; 0xfffff9f8
     854:	05666618 	strbeq	r6, [r6, #-1560]!	; 0xfffff9e8
     858:	14030605 	strne	r0, [r3], #-1541	; 0xfffff9fb
     85c:	060c0501 	streq	r0, [ip], -r1, lsl #10
     860:	09052e01 	stmdbeq	r5, {r0, r9, sl, fp, sp}
     864:	01190306 	tsteq	r9, r6, lsl #6
     868:	01060c05 	tsteq	r6, r5, lsl #24
     86c:	4c060d05 	stcmi	13, cr0, [r6], {5}
     870:	01062905 	tsteq	r6, r5, lsl #18
     874:	2f060d05 	svccs	0x00060d05
     878:	01061605 	tsteq	r6, r5, lsl #12
     87c:	2f060d05 	svccs	0x00060d05
     880:	062e2e06 	strteq	r2, [lr], -r6, lsl #28
     884:	061005bb 			; <UNDEFINED> instruction: 0x061005bb
     888:	06110501 	ldreq	r0, [r1], -r1, lsl #10
     88c:	0619054c 	ldreq	r0, [r9], -ip, asr #10
     890:	06110501 	ldreq	r0, [r1], -r1, lsl #10
     894:	1405bd9f 	strne	fp, [r5], #-3487	; 0xfffff261
     898:	15050106 	strne	r0, [r5, #-262]	; 0xfffffefa
     89c:	ba064c06 	blt	1938bc <__bss_end__+0x188b1c>
     8a0:	09030105 	stmdbeq	r3, {r0, r2, r8}
     8a4:	00064a01 	andeq	r4, r6, r1, lsl #20
     8a8:	86c80205 	strbhi	r0, [r8], r5, lsl #4
     8ac:	09030000 	stmdbeq	r3, {}	; <UNPREDICTABLE>
     8b0:	4e050501 	cfsh32mi	mvfx0, mvfx5, #1
     8b4:	05010a05 	streq	r0, [r1, #-2565]	; 0xfffff5fb
     8b8:	05010615 	streq	r0, [r1, #-1557]	; 0xfffff9eb
     8bc:	052e0625 	streq	r0, [lr, #-1573]!	; 0xfffff9db
     8c0:	2e010605 	cfmadd32cs	mvax0, mvfx0, mvfx1, mvfx5
     8c4:	05303205 	ldreq	r3, [r0, #-517]!	; 0xfffffdfb
     8c8:	04020009 	streq	r0, [r2], #-9
     8cc:	052e0603 	streq	r0, [lr, #-1539]!	; 0xfffff9fd
     8d0:	04020032 	streq	r0, [r2], #-50	; 0xffffffce
     8d4:	05010603 	streq	r0, [r1, #-1539]	; 0xfffff9fd
     8d8:	04020021 	streq	r0, [r2], #-33	; 0xffffffdf
     8dc:	11052e03 	tstne	r5, r3, lsl #28
     8e0:	03040200 	movweq	r0, #16896	; 0x4200
     8e4:	0028052e 	eoreq	r0, r8, lr, lsr #10
     8e8:	06030402 	streq	r0, [r3], -r2, lsl #8
     8ec:	002c052c 	eoreq	r0, ip, ip, lsr #10
     8f0:	06030402 	streq	r0, [r3], -r2, lsl #8
     8f4:	00250501 	eoreq	r0, r5, r1, lsl #10
     8f8:	06030402 	streq	r0, [r3], -r2, lsl #8
     8fc:	0005052e 	andeq	r0, r5, lr, lsr #10
     900:	06030402 	streq	r0, [r3], -r2, lsl #8
     904:	04020001 	streq	r0, [r2], #-1
     908:	02002e03 	andeq	r2, r0, #3, 28	; 0x30
     90c:	062e0304 	strteq	r0, [lr], -r4, lsl #6
     910:	2e061319 	mcrcs	3, 0, r1, cr6, cr9, {0}
     914:	0d053006 	stceq	0, cr3, [r5, #-24]	; 0xffffffe8
     918:	05050106 	streq	r0, [r5, #-262]	; 0xfffffefa
     91c:	0d054b06 	vstreq	d4, [r5, #-24]	; 0xffffffe8
     920:	05050106 	streq	r0, [r5, #-262]	; 0xfffffefa
     924:	0d052f06 	stceq	15, cr2, [r5, #-24]	; 0xffffffe8
     928:	05050106 	streq	r0, [r5, #-262]	; 0xfffffefa
     92c:	0d052f06 	stceq	15, cr2, [r5, #-24]	; 0xffffffe8
     930:	05050106 	streq	r0, [r5, #-262]	; 0xfffffefa
     934:	136a3506 	cmnne	sl, #25165824	; 0x1800000
     938:	68136983 	ldmdavs	r3, {r0, r1, r7, r8, fp, sp, lr}
     93c:	06010513 			; <UNDEFINED> instruction: 0x06010513
     940:	06dc0667 	ldrbeq	r0, [ip], r7, ror #12
     944:	06050501 	streq	r0, [r5], -r1, lsl #10
     948:	2e06134b 	cdpcs	3, 0, cr1, cr6, cr11, {2}
     94c:	2f4c2f06 	svccs	0x004c2f06
     950:	05010a05 	streq	r0, [r1, #-2565]	; 0xfffff5fb
     954:	05010615 	streq	r0, [r1, #-1557]	; 0xfffff9eb
     958:	052e0625 	streq	r0, [lr, #-1573]!	; 0xfffff9db
     95c:	05010605 	streq	r0, [r1, #-1541]	; 0xfffff9fb
     960:	1b054527 	blne	151e04 <__bss_end__+0x147064>
     964:	2e0e052e 	cfsh32cs	mvfx0, mvfx14, #30
     968:	10030d05 	andne	r0, r3, r5, lsl #26
     96c:	4906292e 	stmdbmi	r6, {r1, r2, r3, r5, r8, fp, sp}
     970:	01061305 	tsteq	r6, r5, lsl #6
     974:	2f060d05 	svccs	0x00060d05
     978:	28056606 	stmdacs	r5, {r1, r2, r9, sl, sp, lr}
     97c:	02040200 	andeq	r0, r4, #0, 4
     980:	2e7a0306 	cdpcs	3, 7, cr0, cr10, cr6, {0}
     984:	02002c05 	andeq	r2, r0, #1280	; 0x500
     988:	01060204 	tsteq	r6, r4, lsl #4
     98c:	02002505 	andeq	r2, r0, #20971520	; 0x1400000
     990:	4a060204 	bmi	1811a8 <__bss_end__+0x176408>
     994:	02000505 	andeq	r0, r0, #20971520	; 0x1400000
     998:	01060204 	tsteq	r6, r4, lsl #4
     99c:	4c060905 			; <UNDEFINED> instruction: 0x4c060905
     9a0:	01061005 	tsteq	r6, r5
     9a4:	2f060905 	svccs	0x00060905
     9a8:	01060e05 	tsteq	r6, r5, lsl #28
     9ac:	052e0c05 	streq	r0, [lr, #-3077]!	; 0xfffff3fb
     9b0:	054f060e 	strbeq	r0, [pc, #-1550]	; 3aa <__code_start__-0x7c56>
     9b4:	05010611 	streq	r0, [r1, #-1553]	; 0xfffff9ef
     9b8:	054c060d 	strbeq	r0, [ip, #-1549]	; 0xfffff9f3
     9bc:	05010619 	streq	r0, [r1, #-1561]	; 0xfffff9e7
     9c0:	062f060d 	strteq	r0, [pc], -sp, lsl #12
     9c4:	052e2e66 	streq	r2, [lr, #-3686]!	; 0xfffff19a
     9c8:	01160605 	tsteq	r6, r5, lsl #12
     9cc:	2e064a06 	vmlacs.f32	s8, s12, s12
     9d0:	06080513 			; <UNDEFINED> instruction: 0x06080513
     9d4:	06090501 	streq	r0, [r9], -r1, lsl #10
     9d8:	0505014d 	streq	r0, [r5, #-333]	; 0xfffffeb3
     9dc:	4a06019a 	bmi	18104c <__bss_end__+0x1762ac>
     9e0:	05132e06 	ldreq	r2, [r3, #-3590]	; 0xfffff1fa
     9e4:	6b030627 	blvs	c2288 <__bss_end__+0xb74e8>
     9e8:	2e1b0501 	cfmul32cs	mvfx0, mvfx11, mvfx1
     9ec:	03060905 	movweq	r0, #26885	; 0x6905
     9f0:	4a012e16 	bmi	4c250 <__bss_end__+0x414b0>
     9f4:	01040200 	mrseq	r0, R12_usr
     9f8:	00050514 	andeq	r0, r5, r4, lsl r5
     9fc:	14010402 	strne	r0, [r1], #-1026	; 0xfffffbfe
     a00:	01040200 	mrseq	r0, R12_usr
     a04:	0008054b 	andeq	r0, r8, fp, asr #10
     a08:	06010402 	streq	r0, [r1], -r2, lsl #8
     a0c:	00170501 	andseq	r0, r7, r1, lsl #10
     a10:	30010402 	andcc	r0, r1, r2, lsl #8
     a14:	02000105 	andeq	r0, r0, #1073741825	; 0x40000001
     a18:	06340104 	ldrteq	r0, [r4], -r4, lsl #2
     a1c:	087eca03 	ldmdaeq	lr!, {r0, r1, r9, fp, lr, pc}^
     a20:	0501063c 	streq	r0, [r1, #-1596]	; 0xfffff9c4
     a24:	144b0605 	strbne	r0, [fp], #-1541	; 0xfffff9fb
     a28:	04020001 	streq	r0, [r2], #-1
     a2c:	02004a02 	andeq	r4, r0, #8192	; 0x2000
     a30:	00010204 	andeq	r0, r1, r4, lsl #4
     a34:	13020402 	movwne	r0, #9218	; 0x2402
     a38:	02000905 	andeq	r0, r0, #81920	; 0x14000
     a3c:	01060204 	tsteq	r6, r4, lsl #4
     a40:	02000805 	andeq	r0, r0, #327680	; 0x50000
     a44:	052e0204 	streq	r0, [lr, #-516]!	; 0xfffffdfc
     a48:	15670609 	strbne	r0, [r7, #-1545]!	; 0xfffff9f7
     a4c:	06140513 			; <UNDEFINED> instruction: 0x06140513
     a50:	09054a01 	stmdbeq	r5, {r0, r9, fp, lr}
     a54:	12052f06 	andne	r2, r5, #6, 30
     a58:	09050106 	stmdbeq	r5, {r1, r2, r8}
     a5c:	054b4b06 	strbeq	r4, [fp, #-2822]	; 0xfffff4fa
     a60:	05010610 	streq	r0, [r1, #-1552]	; 0xfffff9f0
     a64:	054c0605 	strbeq	r0, [ip, #-1541]	; 0xfffff9fb
     a68:	0501060c 	streq	r0, [r1, #-1548]	; 0xfffff9f4
     a6c:	05054b01 	streq	r4, [r5, #-2817]	; 0xfffff4ff
     a70:	01040200 	mrseq	r0, R12_usr
     a74:	4a740306 	bmi	1d01694 <__bss_end__+0x1cf68f4>
     a78:	01040200 	mrseq	r0, R12_usr
     a7c:	04020001 	streq	r0, [r2], #-1
     a80:	00ba0601 	adcseq	r0, sl, r1, lsl #12
     a84:	06010402 	streq	r0, [r1], -r2, lsl #8
     a88:	3009052e 	andcc	r0, r9, lr, lsr #10
     a8c:	06820601 	streq	r0, [r2], r1, lsl #12
     a90:	0301052e 	movweq	r0, #5422	; 0x152e
     a94:	06d601b6 			; <UNDEFINED> instruction: 0x06d601b6
     a98:	06050501 	streq	r0, [r5], -r1, lsl #10
     a9c:	060c0530 			; <UNDEFINED> instruction: 0x060c0530
     aa0:	2f010501 	svccs	0x00010501
     aa4:	05053206 	streq	r3, [r5, #-518]	; 0xfffffdfa
     aa8:	0a051332 	beq	145778 <__bss_end__+0x13a9d8>
     aac:	05017303 	streq	r7, [r1, #-771]	; 0xfffffcfd
     ab0:	0c051505 	cfstr32eq	mvfx1, [r5], {5}
     ab4:	054a0106 	strbeq	r0, [sl, #-262]	; 0xfffffefa
     ab8:	010a0308 	tsteq	sl, r8, lsl #6
     abc:	4b060905 	blmi	182ed8 <__bss_end__+0x178138>
     ac0:	054a0114 	strbeq	r0, [sl, #-276]	; 0xfffffeec
     ac4:	01051305 	tsteq	r5, r5, lsl #6
     ac8:	09051306 	stmdbeq	r5, {r1, r2, r8, r9, ip}
     acc:	9e012a06 	vmlals.f32	s4, s2, s12
     ad0:	05a60105 	streq	r0, [r6, #261]!	; 0x105
     ad4:	05133205 	ldreq	r3, [r3, #-517]	; 0xfffffdfb
     ad8:	0165030a 	cmneq	r5, sl, lsl #6
     adc:	05150505 	ldreq	r0, [r5, #-1285]	; 0xfffffafb
     ae0:	4a01060c 	bmi	42318 <__bss_end__+0x37578>
     ae4:	03060505 	movweq	r0, #25861	; 0x6505
     ae8:	08050119 	stmdaeq	r5, {r0, r3, r4, r8}
     aec:	09050106 	stmdbeq	r5, {r1, r2, r8}
     af0:	01144b06 	tsteq	r4, r6, lsl #22
     af4:	2e064a06 	vmlacs.f32	s8, s12, s12
     af8:	13130505 	tstne	r3, #20971520	; 0x1400000
     afc:	13060105 	movwne	r0, #24837	; 0x6105
     b00:	45060905 	strmi	r0, [r6, #-2309]	; 0xfffff6fb
     b04:	01059e01 	tsteq	r5, r1, lsl #28
     b08:	059e2103 	ldreq	r2, [lr, #259]	; 0x103
     b0c:	052f4b05 	streq	r4, [pc, #-2821]!	; f <__code_start__-0x7ff1>
     b10:	01650311 	cmneq	r5, r1, lsl r3
     b14:	13140505 	tstne	r4, #20971520	; 0x1400000
     b18:	052f4c4b 	streq	r4, [pc, #-3147]!	; fffffed5 <__bss_end__+0xffff5135>
     b1c:	1505010a 	strne	r0, [r5, #-266]	; 0xfffffef6
     b20:	25050106 	strcs	r0, [r5, #-262]	; 0xfffffefa
     b24:	05052e06 	streq	r2, [r5, #-3590]	; 0xfffff1fa
     b28:	27050106 	strcs	r0, [r5, -r6, lsl #2]
     b2c:	2e1b0545 	cfmac32cs	mvfx0, mvfx11, mvfx5
     b30:	042e0e05 	strteq	r0, [lr], #-3589	; 0xfffff1fb
     b34:	030c0502 	movweq	r0, #50434	; 0xc502
     b38:	042e7e98 	strteq	r7, [lr], #-3736	; 0xfffff168
     b3c:	030d0501 	movweq	r0, #54529	; 0xd501
     b40:	064a01f4 			; <UNDEFINED> instruction: 0x064a01f4
     b44:	06130548 	ldreq	r0, [r3], -r8, asr #10
     b48:	060d0501 	streq	r0, [sp], -r1, lsl #10
     b4c:	061a052f 	ldreq	r0, [sl], -pc, lsr #10
     b50:	060d0501 	streq	r0, [sp], -r1, lsl #10
     b54:	0502044b 	streq	r0, [r2, #-1099]	; 0xfffffbb5
     b58:	7e8b030b 	cdpvc	3, 8, cr0, cr11, cr11, {0}
     b5c:	1305052e 	movwne	r0, #21806	; 0x552e
     b60:	01060c05 	tsteq	r6, r5, lsl #24
     b64:	05010482 	streq	r0, [r1, #-1154]	; 0xfffffb7e
     b68:	01f4030d 	mvnseq	r0, sp, lsl #6
     b6c:	2f064a01 	svccs	0x00064a01
     b70:	78032805 	stmdavc	r3, {r0, r2, fp, sp}
     b74:	062c0566 	strteq	r0, [ip], -r6, ror #10
     b78:	06250501 	strteq	r0, [r5], -r1, lsl #10
     b7c:	0605054a 	streq	r0, [r5], -sl, asr #10
     b80:	06090501 	streq	r0, [r9], -r1, lsl #10
     b84:	0610054c 	ldreq	r0, [r0], -ip, asr #10
     b88:	06090501 	streq	r0, [r9], -r1, lsl #10
     b8c:	060c052f 	streq	r0, [ip], -pc, lsr #10
     b90:	052e6601 	streq	r6, [lr, #-1537]!	; 0xfffff9ff
     b94:	01780327 	cmneq	r8, r7, lsr #6
     b98:	052e1b05 	streq	r1, [lr, #-2821]!	; 0xfffff4fb
     b9c:	05052e0e 	streq	r2, [r5, #-3598]	; 0xfffff1f2
     ba0:	2e110306 	cdpcs	3, 1, cr0, cr1, cr6, {0}
     ba4:	06820601 	streq	r0, [r2], r1, lsl #12
     ba8:	0106142e 	tsteq	r6, lr, lsr #8
     bac:	010a0306 	tsteq	sl, r6, lsl #6
     bb0:	13060105 	movwne	r0, #24837	; 0x6105
     bb4:	05000666 	streq	r0, [r0, #-1638]	; 0xfffff99a
     bb8:	008ab402 	addeq	fp, sl, r2, lsl #8
     bbc:	05051500 	streq	r1, [r5, #-1280]	; 0xfffffb00
     bc0:	029e012f 	addseq	r0, lr, #-1073741813	; 0xc000000b
     bc4:	0101000a 	tsteq	r1, sl
     bc8:	00000121 	andeq	r0, r0, r1, lsr #2
     bcc:	00be0003 	adcseq	r0, lr, r3
     bd0:	01020000 	mrseq	r0, (UNDEF: 2)
     bd4:	000d0efb 	strdeq	r0, [sp], -fp
     bd8:	01010101 	tsteq	r1, r1, lsl #2
     bdc:	01000000 	mrseq	r0, (UNDEF: 0)
     be0:	2e010000 	cdpcs	0, 0, cr0, cr1, cr0, {0}
     be4:	62696c2f 	rsbvs	r6, r9, #12032	; 0x2f00
     be8:	552f0063 	strpl	r0, [pc, #-99]!	; b8d <__code_start__-0x7473>
     bec:	73726573 	cmnvc	r2, #482344960	; 0x1cc00000
     bf0:	6c696d2f 	stclvs	13, cr6, [r9], #-188	; 0xffffff44
     bf4:	532f7365 			; <UNDEFINED> instruction: 0x532f7365
     bf8:	6372756f 	cmnvs	r2, #465567744	; 0x1bc00000
     bfc:	73632f65 	cmnvc	r3, #404	; 0x194
     c00:	6c303432 	cfldrsvs	mvf3, [r0], #-200	; 0xffffff38
     c04:	696c2f78 	stmdbvs	ip!, {r3, r4, r5, r6, r8, r9, sl, fp, sp}^
     c08:	2f697062 	svccs	0x00697062
     c0c:	6c636e69 	stclvs	14, cr6, [r3], #-420	; 0xfffffe5c
     c10:	00656475 	rsbeq	r6, r5, r5, ror r4
     c14:	74706f2f 	ldrbtvc	r6, [r0], #-3887	; 0xfffff0d1
     c18:	6d6f682f 	stclvs	8, cr6, [pc, #-188]!	; b64 <__code_start__-0x749c>
     c1c:	65726265 	ldrbvs	r6, [r2, #-613]!	; 0xfffffd9b
     c20:	65432f77 	strbvs	r2, [r3, #-3959]	; 0xfffff089
     c24:	72616c6c 	rsbvc	r6, r1, #108, 24	; 0x6c00
     c28:	6d72612f 	ldfvse	f6, [r2, #-188]!	; 0xffffff44
     c2c:	6e6f6e2d 	cdpvs	14, 6, cr6, cr15, cr13, {1}
     c30:	61652d65 	cmnvs	r5, r5, ror #26
     c34:	392d6962 	pushcc	{r1, r5, r6, r8, fp, sp, lr}
     c38:	322d392f 	eorcc	r3, sp, #770048	; 0xbc000
     c3c:	71393130 	teqvc	r9, r0, lsr r1
     c40:	73632d34 	cmnvc	r3, #52, 26	; 0xd00
     c44:	65373031 	ldrvs	r3, [r7, #-49]!	; 0xffffffcf
     c48:	62696c2f 	rsbvs	r6, r9, #12032	; 0x2f00
     c4c:	6363672f 	cmnvs	r3, #12320768	; 0xbc0000
     c50:	6d72612f 	ldfvse	f6, [r2, #-188]!	; 0xffffff44
     c54:	6e6f6e2d 	cdpvs	14, 6, cr6, cr15, cr13, {1}
     c58:	61652d65 	cmnvs	r5, r5, ror #26
     c5c:	392f6962 	stmdbcc	pc!, {r1, r5, r6, r8, fp, sp, lr}	; <UNPREDICTABLE>
     c60:	312e322e 			; <UNDEFINED> instruction: 0x312e322e
     c64:	636e692f 	cmnvs	lr, #770048	; 0xbc000
     c68:	6564756c 	strbvs	r7, [r4, #-1388]!	; 0xfffffa94
     c6c:	656d0000 	strbvs	r0, [sp, #-0]!
     c70:	7465736d 	strbtvc	r7, [r5], #-877	; 0xfffffc93
     c74:	0100632e 	tsteq	r0, lr, lsr #6
     c78:	70720000 	rsbsvc	r0, r2, r0
     c7c:	00682e69 	rsbeq	r2, r8, r9, ror #28
     c80:	73000002 	movwvc	r0, #2
     c84:	65646474 	strbvs	r6, [r4, #-1140]!	; 0xfffffb8c
     c88:	00682e66 	rsbeq	r2, r8, r6, ror #28
     c8c:	00000003 	andeq	r0, r0, r3
     c90:	05002905 	streq	r2, [r0, #-2309]	; 0xfffff6fb
     c94:	008ae802 	addeq	lr, sl, r2, lsl #16
     c98:	05051500 	streq	r1, [r5, #-1280]	; 0xfffffb00
     c9c:	06290513 			; <UNDEFINED> instruction: 0x06290513
     ca0:	2f140511 	svccs	0x00140511
     ca4:	30060505 	andcc	r0, r6, r5, lsl #10
     ca8:	06010a05 	streq	r0, [r1], -r5, lsl #20
     cac:	0609059e 			; <UNDEFINED> instruction: 0x0609059e
     cb0:	060e05d7 			; <UNDEFINED> instruction: 0x060e05d7
     cb4:	060a0501 	streq	r0, [sl], -r1, lsl #10
     cb8:	bb09052d 	bllt	242174 <__bss_end__+0x2373d4>
     cbc:	01060e05 	tsteq	r6, r5, lsl #28
     cc0:	060a052e 	streq	r0, [sl], -lr, lsr #10
     cc4:	4b09052d 	blmi	242180 <__bss_end__+0x2373e0>
     cc8:	01060b05 	tsteq	r6, r5, lsl #22
     ccc:	052d0a05 	streq	r0, [sp, #-2565]!	; 0xfffff5fb
     cd0:	0a052f0e 	beq	14c910 <__bss_end__+0x141b70>
     cd4:	0e052d06 	cdpeq	13, 0, cr2, cr5, cr6, {0}
     cd8:	09051306 	stmdbeq	r5, {r1, r2, r8, r9, ip}
     cdc:	0a052e06 	beq	14c4fc <__bss_end__+0x14175c>
     ce0:	14050511 	strne	r0, [r5], #-1297	; 0xfffffaef
     ce4:	13060105 	movwne	r0, #24837	; 0x6105
     ce8:	01000202 	tsteq	r0, r2, lsl #4
     cec:	00012001 	andeq	r2, r1, r1
     cf0:	db000300 	blle	18f8 <__code_start__-0x6708>
     cf4:	02000000 	andeq	r0, r0, #0, 0
     cf8:	0d0efb01 	vstreq	d15, [lr, #-4]
     cfc:	01010100 	mrseq	r0, (UNDEF: 17)
     d00:	00000001 	andeq	r0, r0, r1
     d04:	01000001 	tsteq	r0, r1
     d08:	696c2f2e 	stmdbvs	ip!, {r1, r2, r3, r5, r8, r9, sl, fp, sp}^
     d0c:	2f006362 	svccs	0x00006362
     d10:	2f74706f 	svccs	0x0074706f
     d14:	656d6f68 	strbvs	r6, [sp, #-3944]!	; 0xfffff098
     d18:	77657262 	strbvc	r7, [r5, -r2, ror #4]!
     d1c:	6c65432f 	stclvs	3, cr4, [r5], #-188	; 0xffffff44
     d20:	2f72616c 	svccs	0x0072616c
     d24:	2d6d7261 	sfmcs	f7, 2, [sp, #-388]!	; 0xfffffe7c
     d28:	656e6f6e 	strbvs	r6, [lr, #-3950]!	; 0xfffff092
     d2c:	6261652d 	rsbvs	r6, r1, #188743680	; 0xb400000
     d30:	2f392d69 	svccs	0x00392d69
     d34:	30322d39 	eorscc	r2, r2, r9, lsr sp
     d38:	34713931 	ldrbtcc	r3, [r1], #-2353	; 0xfffff6cf
     d3c:	3173632d 	cmncc	r3, sp, lsr #6
     d40:	2f653730 	svccs	0x00653730
     d44:	2f62696c 	svccs	0x0062696c
     d48:	2f636367 	svccs	0x00636367
     d4c:	2d6d7261 	sfmcs	f7, 2, [sp, #-388]!	; 0xfffffe7c
     d50:	656e6f6e 	strbvs	r6, [lr, #-3950]!	; 0xfffff092
     d54:	6261652d 	rsbvs	r6, r1, #188743680	; 0xb400000
     d58:	2e392f69 	cdpcs	15, 3, cr2, cr9, cr9, {3}
     d5c:	2f312e32 	svccs	0x00312e32
     d60:	6c636e69 	stclvs	14, cr6, [r3], #-420	; 0xfffffe5c
     d64:	00656475 	rsbeq	r6, r5, r5, ror r4
     d68:	6573552f 	ldrbvs	r5, [r3, #-1327]!	; 0xfffffad1
     d6c:	6d2f7372 	stcvs	3, cr7, [pc, #-456]!	; bac <__code_start__-0x7454>
     d70:	73656c69 	cmnvc	r5, #26880	; 0x6900
     d74:	756f532f 	strbvc	r5, [pc, #-815]!	; a4d <__code_start__-0x75b3>
     d78:	2f656372 	svccs	0x00656372
     d7c:	34327363 	ldrtcc	r7, [r2], #-867	; 0xfffffc9d
     d80:	2f786c30 	svccs	0x00786c30
     d84:	7062696c 	rsbvc	r6, r2, ip, ror #18
     d88:	6e692f69 	cdpvs	15, 6, cr2, cr9, cr9, {3}
     d8c:	64756c63 	ldrbtvs	r6, [r5], #-3171	; 0xfffff39d
     d90:	70000065 	andvc	r0, r0, r5, rrx
     d94:	746e6972 	strbtvc	r6, [lr], #-2418	; 0xfffff68e
     d98:	00632e6b 	rsbeq	r2, r3, fp, ror #28
     d9c:	73000001 	movwvc	r0, #1
     da0:	72616474 	rsbvc	r6, r1, #116, 8	; 0x74000000
     da4:	00682e67 	rsbeq	r2, r8, r7, ror #28
     da8:	72000002 	andvc	r0, r0, #2, 0
     dac:	682e6970 	stmdavs	lr!, {r4, r5, r6, r8, fp, sp, lr}
     db0:	00000300 	andeq	r0, r0, r0, lsl #6
     db4:	6975623c 	ldmdbvs	r5!, {r2, r3, r4, r5, r9, sp, lr}^
     db8:	692d746c 	pushvs	{r2, r3, r5, r6, sl, ip, sp, lr}
     dbc:	00003e6e 	andeq	r3, r0, lr, ror #28
     dc0:	61760000 	cmnvs	r6, r0
     dc4:	6972702d 	ldmdbvs	r2!, {r0, r2, r3, r5, ip, sp, lr}^
     dc8:	2e6b746e 	cdpcs	4, 6, cr7, cr11, cr14, {3}
     dcc:	00010068 	andeq	r0, r1, r8, rrx
     dd0:	22050000 	andcs	r0, r5, #0, 0
     dd4:	60020500 	andvs	r0, r2, r0, lsl #10
     dd8:	1700008b 	strne	r0, [r0, -fp, lsl #1]
     ddc:	13140505 	tstne	r4, #20971520	; 0x1400000
     de0:	06220514 			; <UNDEFINED> instruction: 0x06220514
     de4:	5012050d 	andspl	r0, r2, sp, lsl #10
     de8:	7a032205 	bvc	c9604 <__bss_end__+0xbe864>
     dec:	3305052e 	movwcc	r0, #21806	; 0x552e
     df0:	052f1205 	streq	r1, [pc, #-517]!	; bf3 <__code_start__-0x740d>
     df4:	09056505 	stmdbeq	r5, {r0, r2, r8, sl, sp, lr}
     df8:	12052f06 	andne	r2, r5, #6, 30
     dfc:	05050106 	streq	r0, [r5, #-262]	; 0xfffffefa
     e00:	06164b06 	ldreq	r4, [r6], -r6, lsl #22
     e04:	0550064a 	ldrbeq	r0, [r0, #-1610]	; 0xfffff9b6
     e08:	66130601 	ldrvs	r0, [r3], -r1, lsl #12
     e0c:	01000802 	tsteq	r0, r2, lsl #16
     e10:	0000a001 	andeq	sl, r0, r1
     e14:	57000300 	strpl	r0, [r0, -r0, lsl #6]
     e18:	02000000 	andeq	r0, r0, #0, 0
     e1c:	0d0efb01 	vstreq	d15, [lr, #-4]
     e20:	01010100 	mrseq	r0, (UNDEF: 17)
     e24:	00000001 	andeq	r0, r0, r1
     e28:	01000001 	tsteq	r0, r1
     e2c:	696c2f2e 	stmdbvs	ip!, {r1, r2, r3, r5, r8, r9, sl, fp, sp}^
     e30:	2f006362 	svccs	0x00006362
     e34:	72657355 	rsbvc	r7, r5, #1409286145	; 0x54000001
     e38:	696d2f73 	stmdbvs	sp!, {r0, r1, r4, r5, r6, r8, r9, sl, fp, sp}^
     e3c:	2f73656c 	svccs	0x0073656c
     e40:	72756f53 	rsbsvc	r6, r5, #332	; 0x14c
     e44:	632f6563 			; <UNDEFINED> instruction: 0x632f6563
     e48:	30343273 	eorscc	r3, r4, r3, ror r2
     e4c:	6c2f786c 	stcvs	8, cr7, [pc], #-432	; ca4 <__code_start__-0x735c>
     e50:	69706269 	ldmdbvs	r0!, {r0, r3, r5, r6, r9, sp, lr}^
     e54:	636e692f 	cmnvs	lr, #770048	; 0xbc000
     e58:	6564756c 	strbvs	r7, [r4, #-1388]!	; 0xfffffa94
     e5c:	75700000 	ldrbvc	r0, [r0, #-0]!
     e60:	632e6b74 			; <UNDEFINED> instruction: 0x632e6b74
     e64:	00000100 	andeq	r0, r0, r0, lsl #2
     e68:	2e697072 	mcrcs	0, 3, r7, cr9, cr2, {3}
     e6c:	00020068 	andeq	r0, r2, r8, rrx
     e70:	22050000 	andcs	r0, r5, #0, 0
     e74:	b8020500 	stmdalt	r2, {r8, sl}
     e78:	1500008b 	strne	r0, [r0, #-139]	; 0xffffff75
     e7c:	05130505 	ldreq	r0, [r3, #-1285]	; 0xfffffafb
     e80:	2e110622 	cfmsub32cs	mvax1, mvfx0, mvfx1, mvfx2
     e84:	2f060b05 	svccs	0x00060b05
     e88:	2e060505 	cfsh32cs	mvfx0, mvfx6, #5
     e8c:	02000905 	andeq	r0, r0, #81920	; 0x14000
     e90:	67060204 	strvs	r0, [r6, -r4, lsl #4]
     e94:	02000f05 	andeq	r0, r0, #5, 30
     e98:	05490204 	strbeq	r0, [r9, #-516]	; 0xfffffdfc
     e9c:	0402000b 	streq	r0, [r2], #-11
     ea0:	05050102 	streq	r0, [r5, #-258]	; 0xfffffefe
     ea4:	02040200 	andeq	r0, r4, #0, 4
     ea8:	4e062e06 	cdpmi	14, 0, cr2, cr6, cr6, {0}
     eac:	13060105 	movwne	r0, #24837	; 0x6105
     eb0:	01000602 	tsteq	r0, r2, lsl #12
     eb4:	0008fa01 	andeq	pc, r8, r1, lsl #20
     eb8:	f1000300 			; <UNDEFINED> instruction: 0xf1000300
     ebc:	02000000 	andeq	r0, r0, #0, 0
     ec0:	0d0efb01 	vstreq	d15, [lr, #-4]
     ec4:	01010100 	mrseq	r0, (UNDEF: 17)
     ec8:	00000001 	andeq	r0, r0, r1
     ecc:	01000001 	tsteq	r0, r1
     ed0:	696c2f2e 	stmdbvs	ip!, {r1, r2, r3, r5, r8, r9, sl, fp, sp}^
     ed4:	2f006362 	svccs	0x00006362
     ed8:	2f74706f 	svccs	0x0074706f
     edc:	656d6f68 	strbvs	r6, [sp, #-3944]!	; 0xfffff098
     ee0:	77657262 	strbvc	r7, [r5, -r2, ror #4]!
     ee4:	6c65432f 	stclvs	3, cr4, [r5], #-188	; 0xffffff44
     ee8:	2f72616c 	svccs	0x0072616c
     eec:	2d6d7261 	sfmcs	f7, 2, [sp, #-388]!	; 0xfffffe7c
     ef0:	656e6f6e 	strbvs	r6, [lr, #-3950]!	; 0xfffff092
     ef4:	6261652d 	rsbvs	r6, r1, #188743680	; 0xb400000
     ef8:	2f392d69 	svccs	0x00392d69
     efc:	30322d39 	eorscc	r2, r2, r9, lsr sp
     f00:	34713931 	ldrbtcc	r3, [r1], #-2353	; 0xfffff6cf
     f04:	3173632d 	cmncc	r3, sp, lsr #6
     f08:	2f653730 	svccs	0x00653730
     f0c:	2f62696c 	svccs	0x0062696c
     f10:	2f636367 	svccs	0x00636367
     f14:	2d6d7261 	sfmcs	f7, 2, [sp, #-388]!	; 0xfffffe7c
     f18:	656e6f6e 	strbvs	r6, [lr, #-3950]!	; 0xfffff092
     f1c:	6261652d 	rsbvs	r6, r1, #188743680	; 0xb400000
     f20:	2e392f69 	cdpcs	15, 3, cr2, cr9, cr9, {3}
     f24:	2f312e32 	svccs	0x00312e32
     f28:	6c636e69 	stclvs	14, cr6, [r3], #-420	; 0xfffffe5c
     f2c:	00656475 	rsbeq	r6, r5, r5, ror r4
     f30:	6573552f 	ldrbvs	r5, [r3, #-1327]!	; 0xfffffad1
     f34:	6d2f7372 	stcvs	3, cr7, [pc, #-456]!	; d74 <__code_start__-0x728c>
     f38:	73656c69 	cmnvc	r5, #26880	; 0x6900
     f3c:	756f532f 	strbvc	r5, [pc, #-815]!	; c15 <__code_start__-0x73eb>
     f40:	2f656372 	svccs	0x00656372
     f44:	34327363 	ldrtcc	r7, [r2], #-867	; 0xfffffc9d
     f48:	2f786c30 	svccs	0x00786c30
     f4c:	7062696c 	rsbvc	r6, r2, ip, ror #18
     f50:	6e692f69 	cdpvs	15, 6, cr2, cr9, cr9, {3}
     f54:	64756c63 	ldrbtvs	r6, [r5], #-3171	; 0xfffff39d
     f58:	76000065 	strvc	r0, [r0], -r5, rrx
     f5c:	72702d61 	rsbsvc	r2, r0, #6208	; 0x1840
     f60:	6b746e69 	blvs	1d1c90c <__bss_end__+0x1d11b6c>
     f64:	0100632e 	tsteq	r0, lr, lsr #6
     f68:	74730000 	ldrbtvc	r0, [r3], #-0
     f6c:	746e6964 	strbtvc	r6, [lr], #-2404	; 0xfffff69c
     f70:	6363672d 	cmnvs	r3, #11796480	; 0xb40000
     f74:	0200682e 	andeq	r6, r0, #3014656	; 0x2e0000
     f78:	70720000 	rsbsvc	r0, r2, r0
     f7c:	00682e69 	rsbeq	r2, r8, r9, ror #28
     f80:	72000003 	andvc	r0, r0, #3, 0
     f84:	692d6970 	pushvs	{r4, r5, r6, r8, fp, sp, lr}
     f88:	7265746e 	rsbvc	r7, r5, #1845493760	; 0x6e000000
     f8c:	2e6c616e 	powcsez	f6, f4, #0.5
     f90:	00030068 	andeq	r0, r3, r8, rrx
     f94:	64747300 	ldrbtvs	r7, [r4], #-768	; 0xfffffd00
     f98:	2e677261 	cdpcs	2, 6, cr7, cr7, cr1, {3}
     f9c:	00020068 	andeq	r0, r2, r8, rrx
     fa0:	75623c00 	strbvc	r3, [r2, #-3072]!	; 0xfffff400
     fa4:	2d746c69 	ldclcs	12, cr6, [r4, #-420]!	; 0xfffffe5c
     fa8:	003e6e69 	eorseq	r6, lr, r9, ror #28
     fac:	00000000 	andeq	r0, r0, r0
     fb0:	05000105 	streq	r0, [r0, #-261]	; 0xfffffefb
     fb4:	008bf002 	addeq	pc, fp, r2
     fb8:	00c80300 	sbceq	r0, r8, r0, lsl #6
     fbc:	14020501 	strne	r0, [r2], #-1281	; 0xfffffaff
     fc0:	10060105 	andne	r0, r6, r5, lsl #2
     fc4:	05300405 	ldreq	r0, [r0, #-1029]!	; 0xfffffbfb
     fc8:	054a2c01 	strbeq	r2, [sl, #-3073]	; 0xfffff3ff
     fcc:	02053004 	andeq	r3, r5, #4, 0
     fd0:	05133106 	ldreq	r3, [r3, #-262]	; 0xfffffefa
     fd4:	052e060b 	streq	r0, [lr, #-1547]!	; 0xfffff9f5
     fd8:	05300602 	ldreq	r0, [r0, #-1538]!	; 0xfffff9fe
     fdc:	24020609 	strcs	r0, [r2], #-1545	; 0xfffff9f7
     fe0:	052e2e0d 	streq	r2, [lr, #-3597]!	; 0xfffff1f3
     fe4:	1703060d 	strne	r0, [r3, -sp, lsl #12]
     fe8:	1311054a 	tstne	r1, #310378496	; 0x12800000
     fec:	01062d05 	tsteq	r6, r5, lsl #26
     ff0:	052e1605 	streq	r1, [lr, #-1541]!	; 0xfffff9fb
     ff4:	16052f0d 	strne	r2, [r5], -sp, lsl #30
     ff8:	0614052d 	ldreq	r0, [r4], -sp, lsr #10
     ffc:	0617052f 	ldreq	r0, [r7], -pc, lsr #10
    1000:	2e0d0501 	cfsh32cs	mvfx0, mvfx13, #1
    1004:	12052f06 	andne	r2, r5, #6, 30
    1008:	2f2e0106 	svccs	0x002e0106
    100c:	060d052d 	streq	r0, [sp], -sp, lsr #10
    1010:	0612052f 	ldreq	r0, [r2], -pc, lsr #10
    1014:	06190501 	ldreq	r0, [r9], -r1, lsl #10
    1018:	0304052f 	movweq	r0, #17711	; 0x452f
    101c:	05010111 	streq	r0, [r1, #-273]	; 0xfffffeef
    1020:	0e051502 	cfsh32eq	mvfx1, mvfx5, #2
    1024:	017fb203 	cmneq	pc, r3, lsl #4
    1028:	05130205 	ldreq	r0, [r3, #-517]	; 0xfffffdfb
    102c:	05010606 	streq	r0, [r1, #-1542]	; 0xfffff9fa
    1030:	05300602 	ldreq	r0, [r0, #-1538]!	; 0xfffff9fe
    1034:	02050108 	andeq	r0, r5, #2
    1038:	054a0106 	strbeq	r0, [sl, #-262]	; 0xfffffefa
    103c:	05910808 	ldreq	r0, [r1, #2056]	; 0x808
    1040:	054a0603 	strbeq	r0, [sl, #-1539]	; 0xfffff9fd
    1044:	05010608 	streq	r0, [r1, #-1544]	; 0xfffff9f8
    1048:	052d0615 	streq	r0, [sp, #-1557]!	; 0xfffff9eb
    104c:	03050108 	movweq	r0, #20744	; 0x5108
    1050:	060805d7 			; <UNDEFINED> instruction: 0x060805d7
    1054:	2d180501 	cfldr32cs	mvfx0, [r8, #-4]
    1058:	052e0205 	streq	r0, [lr, #-517]!	; 0xfffffdfb
    105c:	15052f08 	strne	r2, [r5, #-3848]	; 0xfffff0f8
    1060:	08052d06 	stmdaeq	r5, {r1, r2, r8, sl, fp, sp}
    1064:	06020501 	streq	r0, [r2], -r1, lsl #10
    1068:	06030501 	streq	r0, [r3], -r1, lsl #10
    106c:	0618052f 	ldreq	r0, [r8], -pc, lsr #10
    1070:	2e020511 	mcrcs	5, 0, r0, cr2, cr1, {0}
    1074:	052f0805 	streq	r0, [pc, #-2053]!	; 877 <__code_start__-0x7789>
    1078:	052d0615 	streq	r0, [sp, #-1557]!	; 0xfffff9eb
    107c:	03050108 	movweq	r0, #20744	; 0x5108
    1080:	06080513 			; <UNDEFINED> instruction: 0x06080513
    1084:	06150501 	ldreq	r0, [r5], -r1, lsl #10
    1088:	0108052d 	tsteq	r8, sp, lsr #10
    108c:	02050106 	andeq	r0, r5, #-2147483647	; 0x80000001
    1090:	0505a006 	streq	sl, [r5, #-6]
    1094:	04050106 	streq	r0, [r5], #-262	; 0xfffffefa
    1098:	2f110536 	svccs	0x00110536
    109c:	052e0905 	streq	r0, [lr, #-2309]!	; 0xfffff6fb
    10a0:	05053302 	streq	r3, [r5, #-770]	; 0xfffffcfe
    10a4:	052e7203 	streq	r7, [lr, #-515]!	; 0xfffffdfd
    10a8:	062f0602 	strteq	r0, [pc], -r2, lsl #12
    10ac:	060e0501 	streq	r0, [lr], -r1, lsl #10
    10b0:	14020516 	strne	r0, [r2], #-1302	; 0xfffffaea
    10b4:	13030513 	movwne	r0, #13587	; 0x3513
    10b8:	15140205 	ldrne	r0, [r4, #-517]	; 0xfffffdfb
    10bc:	05010b05 	streq	r0, [r1, #-2821]	; 0xfffff4fb
    10c0:	2e010602 	cfmadd32cs	mvax0, mvfx0, mvfx1, mvfx2
    10c4:	67060305 	strvs	r0, [r6, -r5, lsl #6]
    10c8:	01060a05 	tsteq	r6, r5, lsl #20
    10cc:	052d0205 	streq	r0, [sp, #-517]!	; 0xfffffdfb
    10d0:	17052f0a 	strne	r2, [r5, -sl, lsl #30]
    10d4:	0b052d06 	bleq	14c4f4 <__bss_end__+0x141754>
    10d8:	06020501 	streq	r0, [r2], -r1, lsl #10
    10dc:	4c090501 	cfstr32mi	mvfx0, [r9], {1}
    10e0:	0602052e 	streq	r0, [r2], -lr, lsr #10
    10e4:	0609052e 	streq	r0, [r9], -lr, lsr #10
    10e8:	06020501 	streq	r0, [r2], -r1, lsl #10
    10ec:	05010630 	streq	r0, [r1, #-1584]	; 0xfffff9d0
    10f0:	01380301 	teqeq	r8, r1, lsl #6
    10f4:	4f030905 	svcmi	0x00030905
    10f8:	052e2e4a 	streq	r2, [lr, #-3658]!	; 0xfffff1b6
    10fc:	27030619 	smladcs	r3, r9, r6, r0
    1100:	131a054a 	tstne	sl, #310378496	; 0x12800000
    1104:	01062805 	tsteq	r6, r5, lsl #16
    1108:	052e1f05 	streq	r1, [lr, #-3845]!	; 0xfffff0fb
    110c:	1f052f04 	svcne	0x00052f04
    1110:	060b052d 	streq	r0, [fp], -sp, lsr #10
    1114:	060e052f 	streq	r0, [lr], -pc, lsr #10
    1118:	2e040501 	cfsh32cs	mvfx0, mvfx4, #1
    111c:	03060205 	movweq	r0, #25093	; 0x6205
    1120:	05134a59 	ldreq	r4, [r3, #-2649]	; 0xfffff5a7
    1124:	052e060b 	streq	r0, [lr, #-1547]!	; 0xfffff9f5
    1128:	05300602 	ldreq	r0, [r0, #-1538]!	; 0xfffff9fe
    112c:	24020609 	strcs	r0, [r2], #-1545	; 0xfffff9f7
    1130:	0604050d 	streq	r0, [r4], -sp, lsl #10
    1134:	06051336 			; <UNDEFINED> instruction: 0x06051336
    1138:	05050106 	streq	r0, [r5, #-262]	; 0xfffffefa
    113c:	13136706 	tstne	r3, #1572864	; 0x180000
    1140:	11060905 	tstne	r6, r5, lsl #18
    1144:	052b0d05 	streq	r0, [fp, #-3333]!	; 0xfffff2fb
    1148:	0d05300b 	stceq	0, cr3, [r5, #-44]	; 0xffffffd4
    114c:	351b052c 	ldrcc	r0, [fp, #-1324]	; 0xfffffad4
    1150:	2d060405 	cfstrscs	mvf0, [r6, #-20]	; 0xffffffec
    1154:	05130505 	ldreq	r0, [r3, #-1285]	; 0xfffffafb
    1158:	052e061b 	streq	r0, [lr, #-1563]!	; 0xfffff9e5
    115c:	0405820a 	streq	r8, [r5], #-522	; 0xfffffdf6
    1160:	2e0e052f 	cfsh32cs	mvfx0, mvfx14, #31
    1164:	05490a05 	strbeq	r0, [r9, #-2565]	; 0xfffff5fb
    1168:	052f060b 	streq	r0, [pc, #-1547]!	; b65 <__code_start__-0x749b>
    116c:	06010604 	streq	r0, [r1], -r4, lsl #12
    1170:	0606052f 	streq	r0, [r6], -pc, lsr #10
    1174:	06050501 	streq	r0, [r5], -r1, lsl #10
    1178:	060a052f 	streq	r0, [sl], -pc, lsr #10
    117c:	07052e01 	streq	r2, [r5, -r1, lsl #28]
    1180:	052e2e2e 	streq	r2, [lr, #-3630]!	; 0xfffff1d2
    1184:	0d030604 	stceq	6, cr0, [r3, #-16]
    1188:	06020501 	streq	r0, [r2], -r1, lsl #10
    118c:	05014603 	streq	r4, [r1, #-1539]	; 0xfffff9fd
    1190:	2e3a0309 	cdpcs	3, 3, cr0, cr10, cr9, {0}
    1194:	2f060405 	svccs	0x00060405
    1198:	01010d03 	tsteq	r1, r3, lsl #26
    119c:	05150205 	ldreq	r0, [r5, #-517]	; 0xfffffdfb
    11a0:	7fb2030e 	svcvc	0x00b2030e
    11a4:	13020501 	movwne	r0, #9473	; 0x2501
    11a8:	01080514 	tsteq	r8, r4, lsl r5
    11ac:	10060605 	andne	r0, r6, r5, lsl #12
    11b0:	052e3c03 	streq	r3, [lr, #-3075]!	; 0xfffff3fd
    11b4:	4a460302 	bmi	1181dc4 <__bss_end__+0x1177024>
    11b8:	05053006 	streq	r3, [r5, #-6]
    11bc:	2e2e0106 	sufcse	f0, f6, f6
    11c0:	4b060205 	blmi	1819dc <__bss_end__+0x176c3c>
    11c4:	0e050106 	adfeqs	f0, f5, f6
    11c8:	02051606 	andeq	r1, r5, #6291456	; 0x600000
    11cc:	15151314 	ldrne	r1, [r5, #-788]	; 0xfffffcec
    11d0:	05010b05 	streq	r0, [r1, #-2821]	; 0xfffff4fb
    11d4:	062e0602 	strteq	r0, [lr], -r2, lsl #12
    11d8:	06090530 			; <UNDEFINED> instruction: 0x06090530
    11dc:	06020501 	streq	r0, [r2], -r1, lsl #10
    11e0:	0501064c 	streq	r0, [r1, #-1612]	; 0xfffff9b4
    11e4:	01380301 	teqeq	r8, r1, lsl #6
    11e8:	6e030605 	cfmadd32vs	mvax0, mvfx0, mvfx3, mvfx5
    11ec:	0302054a 	movweq	r0, #9546	; 0x254a
    11f0:	2e4a6646 	cdpcs	6, 4, cr6, cr10, cr6, {2}
    11f4:	03060405 	movweq	r0, #25605	; 0x6405
    11f8:	010100c8 	smlabteq	r1, r8, r0, r0
    11fc:	2e060101 	adfcss	f0, f6, f1
    1200:	034a0682 	movteq	r0, #42626	; 0xa682
    1204:	09052e72 	stmdbeq	r5, {r1, r4, r5, r6, r9, sl, fp, sp}
    1208:	04050106 	streq	r0, [r5], #-262	; 0xfffffefa
    120c:	0d032f06 	stceq	15, cr2, [r3, #-24]	; 0xffffffe8
    1210:	02050101 	andeq	r0, r5, #1073741824	; 0x40000000
    1214:	030e0515 	movweq	r0, #58645	; 0xe515
    1218:	05017fb2 	streq	r7, [r1, #-4018]	; 0xfffff04e
    121c:	05141302 	ldreq	r1, [r4, #-770]	; 0xfffffcfe
    1220:	09050108 	stmdbeq	r5, {r3, r8}
    1224:	011b0306 	tsteq	fp, r6, lsl #6
    1228:	63030605 	movwvs	r0, #13829	; 0x3605
    122c:	2e3c032e 	cdpcs	3, 3, cr0, cr12, cr14, {1}
    1230:	48052e2e 	stmdami	r5, {r1, r2, r3, r5, r9, sl, fp, sp}
    1234:	7fb40306 	svcvc	0x00b40306
    1238:	05053c08 	streq	r3, [r5, #-3080]	; 0xfffff3f8
    123c:	2e060113 	mcrcs	1, 0, r0, cr6, cr3, {0}
    1240:	02040200 	andeq	r0, r4, #0, 4
    1244:	02002e06 	andeq	r2, r0, #96	; 0x60
    1248:	00010204 	andeq	r0, r1, r4, lsl #4
    124c:	13020402 	movwne	r0, #9218	; 0x2402
    1250:	02001105 	andeq	r1, r0, #1073741825	; 0x40000001
    1254:	01060204 	tsteq	r6, r4, lsl #4
    1258:	02000705 	andeq	r0, r0, #1310720	; 0x140000
    125c:	052f0204 	streq	r0, [pc, #-516]!	; 1060 <__code_start__-0x6fa0>
    1260:	04020011 	streq	r0, [r2], #-17	; 0xffffffef
    1264:	05052d02 	streq	r2, [r5, #-3330]	; 0xfffff2fe
    1268:	02040200 	andeq	r0, r4, #0, 4
    126c:	09052f06 	stmdbeq	r5, {r1, r2, r8, r9, sl, fp, sp}
    1270:	02040200 	andeq	r0, r4, #0, 4
    1274:	000e0513 	andeq	r0, lr, r3, lsl r5
    1278:	06020402 	streq	r0, [r2], -r2, lsl #8
    127c:	00050501 	andeq	r0, r5, r1, lsl #10
    1280:	06010402 	streq	r0, [r1], -r2, lsl #8
    1284:	04020063 	streq	r0, [r2], #-99	; 0xffffff9d
    1288:	48050101 	stmdami	r5, {r0, r8}
    128c:	01040200 	mrseq	r0, R12_usr
    1290:	05051106 	streq	r1, [r5, #-262]	; 0xfffffefa
    1294:	01040200 	mrseq	r0, R12_usr
    1298:	0048052f 	subeq	r0, r8, pc, lsr #10
    129c:	2d010402 	cfstrscs	mvf0, [r1, #-8]
    12a0:	02000505 	andeq	r0, r0, #20971520	; 0x1400000
    12a4:	002f0104 	eoreq	r0, pc, r4, lsl #2
    12a8:	4a010402 	bmi	422b8 <__bss_end__+0x37518>
    12ac:	01040200 	mrseq	r0, R12_usr
    12b0:	0402004a 	streq	r0, [r2], #-74	; 0xffffffb6
    12b4:	054a0601 	strbeq	r0, [sl, #-1537]	; 0xfffff9ff
    12b8:	00e10340 	rsceq	r0, r1, r0, asr #6
    12bc:	050106d6 	streq	r0, [r1, #-1750]	; 0xfffff92a
    12c0:	052e4e09 	streq	r4, [lr, #-3593]!	; 0xfffff1f7
    12c4:	1e053008 	cdpne	0, 0, cr3, cr5, cr8, {0}
    12c8:	2e120529 	cfmul64cs	mvdx0, mvdx2, mvdx9
    12cc:	05330d05 	ldreq	r0, [r3, #-3333]!	; 0xfffff2fb
    12d0:	05450602 	strbeq	r0, [r5, #-1538]	; 0xfffff9fe
    12d4:	02051305 	andeq	r1, r5, #335544320	; 0x14000000
    12d8:	13050514 	movwne	r0, #21780	; 0x5514
    12dc:	05130205 	ldreq	r0, [r3, #-517]	; 0xfffffdfb
    12e0:	40050108 	andmi	r0, r5, r8, lsl #2
    12e4:	017a0306 	cmneq	sl, r6, lsl #6
    12e8:	340d052e 	strcc	r0, [sp], #-1326	; 0xfffffad2
    12ec:	03110566 	tsteq	r1, #427819008	; 0x19800000
    12f0:	054a4a20 	strbeq	r4, [sl, #-2592]	; 0xfffff5e0
    12f4:	62030604 	andvs	r0, r3, #4, 12	; 0x400000
    12f8:	06090501 	streq	r0, [r9], -r1, lsl #10
    12fc:	2e0f0501 	cfsh32cs	mvfx0, mvfx15, #1
    1300:	2c060805 	stccs	8, cr0, [r6], {5}
    1304:	2e060d05 	cdpcs	13, 0, cr0, cr6, cr5, {0}
    1308:	67060305 	strvs	r0, [r6, -r5, lsl #6]
    130c:	01060505 	tsteq	r6, r5, lsl #10
    1310:	4d060805 	stcmi	8, cr0, [r6, #-20]	; 0xffffffec
    1314:	01060e05 	tsteq	r6, r5, lsl #28
    1318:	052e0a05 	streq	r0, [lr, #-2565]!	; 0xfffff5fb
    131c:	04052f09 	streq	r2, [r5], #-3849	; 0xfffff0f7
    1320:	07052f06 	streq	r2, [r5, -r6, lsl #30]
    1324:	0a050106 	beq	141744 <__bss_end__+0x1369a4>
    1328:	0604052c 	streq	r0, [r4], -ip, lsr #10
    132c:	062d0532 			; <UNDEFINED> instruction: 0x062d0532
    1330:	017f9803 	cmneq	pc, r3, lsl #16
    1334:	ed030905 	vstr.16	s0, [r3, #-10]
    1338:	0d052e00 	stceq	14, cr2, [r5, #-0]
    133c:	2b07052c 	blcs	1c27f4 <__bss_end__+0x1b7a54>
    1340:	30060405 	andcc	r0, r6, r5, lsl #8
    1344:	09051413 	stmdbeq	r5, {r0, r1, r4, sl, ip}
    1348:	030c0501 	movweq	r0, #50433	; 0xc501
    134c:	05017f93 	streq	r7, [r1, #-3987]	; 0xfffff06d
    1350:	0106011d 	tsteq	r6, sp, lsl r1
    1354:	ed030905 	vstr.16	s0, [r3, #-10]
    1358:	05050100 	streq	r0, [r5, #-256]	; 0xffffff00
    135c:	12052f06 	andne	r2, r5, #6, 30
    1360:	2d2e0106 	stfcss	f0, [lr, #-24]!	; 0xffffffe8
    1364:	052f0b05 	streq	r0, [pc, #-2821]!	; 867 <__code_start__-0x7799>
    1368:	052f0605 	streq	r0, [pc, #-1541]!	; d6b <__code_start__-0x7295>
    136c:	0c051009 	stceq	0, cr1, [r5], {9}
    1370:	017f9303 	cmneq	pc, r3, lsl #6
    1374:	05011d05 	streq	r1, [r1, #-3333]	; 0xfffff2fb
    1378:	0501062d 	streq	r0, [r1, #-1581]	; 0xfffff9d3
    137c:	00ed0309 	rsceq	r0, sp, r9, lsl #6
    1380:	0604052e 	streq	r0, [r4], -lr, lsr #10
    1384:	0200014e 	andeq	r0, r0, #-2147483629	; 0x80000013
    1388:	004a0204 	subeq	r0, sl, r4, lsl #4
    138c:	01020402 	tsteq	r2, r2, lsl #8
    1390:	02040200 	andeq	r0, r4, #0, 4
    1394:	04020015 	streq	r0, [r2], #-21	; 0xffffffeb
    1398:	36020602 	strcc	r0, [r2], -r2, lsl #12
    139c:	04020012 	streq	r0, [r2], #-18	; 0xffffffee
    13a0:	02052e02 	andeq	r2, r5, #2, 28
    13a4:	00d10306 	sbcseq	r0, r1, r6, lsl #6
    13a8:	06070501 	streq	r0, [r7], -r1, lsl #10
    13ac:	02052e01 	andeq	r2, r5, #1, 28
    13b0:	0b052f06 	bleq	14cfd0 <__bss_end__+0x142230>
    13b4:	01050106 	tsteq	r5, r6, lsl #2
    13b8:	0605052f 	streq	r0, [r5], -pc, lsr #10
    13bc:	054a6503 	strbeq	r6, [sl, #-1283]	; 0xfffffafd
    13c0:	66010609 	strvs	r0, [r1], -r9, lsl #12
    13c4:	9f060505 	svcls	0x00060505
    13c8:	11030405 	tstne	r3, r5, lsl #8
    13cc:	06070501 	streq	r0, [r7], -r1, lsl #10
    13d0:	06040501 	streq	r0, [r4], -r1, lsl #10
    13d4:	010a0531 	tsteq	sl, r1, lsr r5
    13d8:	02001305 	andeq	r1, r0, #335544320	; 0x14000000
    13dc:	2e060104 	adfcss	f0, f6, f4
    13e0:	02001005 	andeq	r1, r0, #5, 0
    13e4:	052e0104 	streq	r0, [lr, #-260]!	; 0xfffffefc
    13e8:	054b0605 	strbeq	r0, [fp, #-1541]	; 0xfffff9fb
    13ec:	0601060a 	streq	r0, [r1], -sl, lsl #12
    13f0:	0604052d 	streq	r0, [r4], -sp, lsr #10
    13f4:	06110501 	ldreq	r0, [r1], -r1, lsl #10
    13f8:	667fb603 	ldrbtvs	fp, [pc], -r3, lsl #12
    13fc:	02000113 	andeq	r0, r0, #-1073741820	; 0xc0000004
    1400:	ba060204 	blt	181c18 <__bss_end__+0x176e78>
    1404:	1401ba06 	strne	fp, [r1], #-2566	; 0xfffff5fa
    1408:	13061a05 	movwne	r1, #27141	; 0x6a05
    140c:	11052e2e 	tstne	r5, lr, lsr #28
    1410:	1405674e 	strne	r6, [r5], #-1870	; 0xfffff8b2
    1414:	82130568 	andshi	r0, r3, #104, 10	; 0x1a000000
    1418:	78031505 	stmdavc	r3, {r0, r2, r8, sl, ip}
    141c:	0611054a 	ldreq	r0, [r1], -sl, asr #10
    1420:	1413134b 	ldrne	r1, [r3], #-843	; 0xfffffcb5
    1424:	13051413 	movwne	r1, #21523	; 0x5413
    1428:	09050106 	stmdbeq	r5, {r1, r2, r8}
    142c:	0d052f06 	stceq	15, cr2, [r5, #-24]	; 0xffffffe8
    1430:	2e2e0106 	sufcse	f0, f6, f6
    1434:	05bb0905 	ldreq	r0, [fp, #2309]!	; 0x905
    1438:	09059d0d 	stmdbeq	r5, {r0, r2, r3, r8, sl, fp, ip, pc}
    143c:	15052f06 	strne	r2, [r5, #-3846]	; 0xfffff0fa
    1440:	7503062f 	strvc	r0, [r3, #-1583]	; 0xfffff9d1
    1444:	2e0b034a 	cdpcs	3, 0, cr0, cr11, cr10, {2}
    1448:	0605054a 	streq	r0, [r5], -sl, asr #10
    144c:	05012303 	streq	r2, [r1, #-771]	; 0xfffffcfd
    1450:	2e010609 	cfmadd32cs	mvax0, mvfx0, mvfx1, mvfx9
    1454:	d7060505 	strle	r0, [r6, -r5, lsl #10]
    1458:	032e6e03 			; <UNDEFINED> instruction: 0x032e6e03
    145c:	0905010e 	stmdbeq	r5, {r1, r2, r3, r8}
    1460:	05050106 	streq	r0, [r5, #-262]	; 0xfffffefa
    1464:	4a100306 	bmi	402084 <__bss_end__+0x3f72e4>
    1468:	ed030105 	stfs	f0, [r3, #-20]	; 0xffffffec
    146c:	0205017e 	andeq	r0, r5, #-2147483617	; 0x8000001f
    1470:	14131514 	ldrne	r1, [r3], #-1300	; 0xfffffaec
    1474:	1a030405 	bne	c2490 <__bss_end__+0xb76f0>
    1478:	06090501 	streq	r0, [r9], -r1, lsl #10
    147c:	03020501 	movweq	r0, #9473	; 0x2501
    1480:	09052e46 	stmdbeq	r5, {r1, r2, r6, r9, sl, fp, sp}
    1484:	052e3a03 	streq	r3, [lr, #-2563]!	; 0xfffff5fd
    1488:	032f0604 			; <UNDEFINED> instruction: 0x032f0604
    148c:	0501010d 	streq	r0, [r1, #-269]	; 0xfffffef3
    1490:	0e051502 	cfsh32eq	mvfx1, mvfx5, #2
    1494:	017fb203 	cmneq	pc, r3, lsl #4
    1498:	14130205 	ldrne	r0, [r3], #-517	; 0xfffffdfb
    149c:	05010805 	streq	r0, [r1, #-2053]	; 0xfffff7fb
    14a0:	05010602 	streq	r0, [r1, #-1538]	; 0xfffff9fe
    14a4:	03059f08 	movweq	r9, #24328	; 0x5f08
    14a8:	01064a06 	tsteq	r6, r6, lsl #20
    14ac:	052e0805 	streq	r0, [lr, #-2053]!	; 0xfffff7fb
    14b0:	052d0615 	streq	r0, [sp, #-1557]!	; 0xfffff9eb
    14b4:	03050108 	movweq	r0, #20744	; 0x5108
    14b8:	0501062f 	streq	r0, [r1, #-1583]	; 0xfffff9d1
    14bc:	15052e08 	strne	r2, [r5, #-3592]	; 0xfffff1f8
    14c0:	08052d06 	stmdaeq	r5, {r1, r2, r8, sl, fp, sp}
    14c4:	2f030501 	svccs	0x00030501
    14c8:	08050106 	stmdaeq	r5, {r1, r2, r8}
    14cc:	0615052e 	ldreq	r0, [r5], -lr, lsr #10
    14d0:	0108052d 	tsteq	r8, sp, lsr #10
    14d4:	062f0305 	strteq	r0, [pc], -r5, lsl #6
    14d8:	2e080501 	cfsh32cs	mvfx0, mvfx8, #1
    14dc:	2d061505 	cfstr32cs	mvfx1, [r6, #-20]	; 0xffffffec
    14e0:	05010805 	streq	r0, [r1, #-2053]	; 0xfffff7fb
    14e4:	01062f03 	tsteq	r6, r3, lsl #30
    14e8:	052e0805 	streq	r0, [lr, #-2053]!	; 0xfffff7fb
    14ec:	052d0615 	streq	r0, [sp, #-1557]!	; 0xfffff9eb
    14f0:	03050108 	movweq	r0, #20744	; 0x5108
    14f4:	0501062f 	streq	r0, [r1, #-1583]	; 0xfffff9d1
    14f8:	15052e08 	strne	r2, [r5, #-3592]	; 0xfffff1f8
    14fc:	08052d06 	stmdaeq	r5, {r1, r2, r8, sl, fp, sp}
    1500:	13030501 	movwne	r0, #13569	; 0x3501
    1504:	01060805 	tsteq	r6, r5, lsl #16
    1508:	2d061505 	cfstr32cs	mvfx1, [r6, #-20]	; 0xffffffec
    150c:	06010805 	streq	r0, [r1], -r5, lsl #16
    1510:	06030566 	streq	r0, [r3], -r6, ror #10
    1514:	06080567 	streq	r0, [r8], -r7, ror #10
    1518:	2d180501 	cfldr32cs	mvfx0, [r8, #-4]
    151c:	052e0205 	streq	r0, [lr, #-517]!	; 0xfffffdfb
    1520:	15052f08 	strne	r2, [r5, #-3848]	; 0xfffff0f8
    1524:	08052d06 	stmdaeq	r5, {r1, r2, r8, sl, fp, sp}
    1528:	06020501 	streq	r0, [r2], -r1, lsl #10
    152c:	06030501 	streq	r0, [r3], -r1, lsl #10
    1530:	0618052f 	ldreq	r0, [r8], -pc, lsr #10
    1534:	2e020511 	mcrcs	5, 0, r0, cr2, cr1, {0}
    1538:	052f0805 	streq	r0, [pc, #-2053]!	; d3b <__code_start__-0x72c5>
    153c:	052d0615 	streq	r0, [sp, #-1557]!	; 0xfffff9eb
    1540:	03050108 	movweq	r0, #20744	; 0x5108
    1544:	06080513 			; <UNDEFINED> instruction: 0x06080513
    1548:	06150501 	ldreq	r0, [r5], -r1, lsl #10
    154c:	0108052d 	tsteq	r8, sp, lsr #10
    1550:	14060505 	strne	r0, [r6], #-1285	; 0xfffffafb
    1554:	0602054a 	streq	r0, [r2], -sl, asr #10
    1558:	060e052e 	streq	r0, [lr], -lr, lsr #10
    155c:	2f040519 	svccs	0x00040519
    1560:	052f1105 	streq	r1, [pc, #-261]!	; 1463 <__code_start__-0x6b9d>
    1564:	02054a09 	andeq	r4, r5, #36864	; 0x9000
    1568:	03050533 	movweq	r0, #21811	; 0x5533
    156c:	02052e72 	andeq	r2, r5, #1824	; 0x720
    1570:	01062f06 	tsteq	r6, r6, lsl #30
    1574:	16060e05 	strne	r0, [r6], -r5, lsl #28
    1578:	13140205 	tstne	r4, #1342177280	; 0x50000000
    157c:	05130305 	ldreq	r0, [r3, #-773]	; 0xfffffcfb
    1580:	05151402 	ldreq	r1, [r5, #-1026]	; 0xfffffbfe
    1584:	0205010b 	andeq	r0, r5, #-1073741822	; 0xc0000002
    1588:	662e0106 	strtvs	r0, [lr], -r6, lsl #2
    158c:	2f060305 	svccs	0x00060305
    1590:	01060a05 	tsteq	r6, r5, lsl #20
    1594:	052d0205 	streq	r0, [sp, #-517]!	; 0xfffffdfb
    1598:	17052f0a 	strne	r2, [r5, -sl, lsl #30]
    159c:	0b052d06 	bleq	14c9bc <__bss_end__+0x141c1c>
    15a0:	06020501 	streq	r0, [r2], -r1, lsl #10
    15a4:	054a4a01 	strbeq	r4, [sl, #-2561]	; 0xfffff5ff
    15a8:	95030605 	strls	r0, [r3, #-1541]	; 0xfffff9fb
    15ac:	11050101 	tstne	r5, r1, lsl #2
    15b0:	7ef80306 	cdpvc	3, 15, cr0, cr8, cr6, {0}
    15b4:	031b0501 	tsteq	fp, #4194304	; 0x400000
    15b8:	054a0188 	strbeq	r0, [sl, #-392]	; 0xfffffe78
    15bc:	f3030601 	vmax.u8	d0, d3, d1
    15c0:	02052e7e 	andeq	r2, r5, #2016	; 0x7e0
    15c4:	14131514 	ldrne	r1, [r3], #-1300	; 0xfffffaec
    15c8:	22031905 	andcs	r1, r3, #81920	; 0x14000
    15cc:	131a0501 	tstne	sl, #4194304	; 0x400000
    15d0:	01062805 	tsteq	r6, r5, lsl #16
    15d4:	052e1f05 	streq	r1, [lr, #-3845]!	; 0xfffff0fb
    15d8:	0e052f04 	cdpeq	15, 0, cr2, cr5, cr4, {0}
    15dc:	2d1f054a 	cfldr32cs	mvfx0, [pc, #-296]	; 14bc <__code_start__-0x6b44>
    15e0:	2f060b05 	svccs	0x00060b05
    15e4:	01060405 	tsteq	r6, r5, lsl #8
    15e8:	05013206 	streq	r3, [r1, #-518]	; 0xfffffdfa
    15ec:	0e051502 	cfsh32eq	mvfx1, mvfx5, #2
    15f0:	017fb203 	cmneq	pc, r3, lsl #4
    15f4:	05130205 	ldreq	r0, [r3, #-517]	; 0xfffffdfb
    15f8:	05010606 	streq	r0, [r1, #-1542]	; 0xfffff9fa
    15fc:	05300602 	ldreq	r0, [r0, #-1538]!	; 0xfffff9fe
    1600:	02050108 	andeq	r0, r5, #2
    1604:	03050106 	movweq	r0, #20742	; 0x5106
    1608:	05210806 	streq	r0, [r1, #-2054]!	; 0xfffff7fa
    160c:	05010608 	streq	r0, [r1, #-1544]	; 0xfffff9f8
    1610:	05490615 	strbeq	r0, [r9, #-1557]	; 0xfffff9eb
    1614:	03050108 	movweq	r0, #20744	; 0x5108
    1618:	060805d7 			; <UNDEFINED> instruction: 0x060805d7
    161c:	2d180501 	cfldr32cs	mvfx0, [r8, #-4]
    1620:	052e0205 	streq	r0, [lr, #-517]!	; 0xfffffdfb
    1624:	15052f08 	strne	r2, [r5, #-3848]	; 0xfffff0f8
    1628:	08052d06 	stmdaeq	r5, {r1, r2, r8, sl, fp, sp}
    162c:	06020501 	streq	r0, [r2], -r1, lsl #10
    1630:	06030501 	streq	r0, [r3], -r1, lsl #10
    1634:	0618052f 	ldreq	r0, [r8], -pc, lsr #10
    1638:	2e020511 	mcrcs	5, 0, r0, cr2, cr1, {0}
    163c:	052f0805 	streq	r0, [pc, #-2053]!	; e3f <__code_start__-0x71c1>
    1640:	052d0615 	streq	r0, [sp, #-1557]!	; 0xfffff9eb
    1644:	03050108 	movweq	r0, #20744	; 0x5108
    1648:	06080513 			; <UNDEFINED> instruction: 0x06080513
    164c:	06150501 	ldreq	r0, [r5], -r1, lsl #10
    1650:	0108052d 	tsteq	r8, sp, lsr #10
    1654:	14060505 	strne	r0, [r6], #-1285	; 0xfffffafb
    1658:	66060205 	strvs	r0, [r6], -r5, lsl #4
    165c:	1a060405 	bne	182678 <__bss_end__+0x1778d8>
    1660:	78030505 	stmdavc	r3, {r0, r2, r8, sl}
    1664:	0602054a 	streq	r0, [r2], -sl, asr #10
    1668:	0501062f 	streq	r0, [r1, #-1583]	; 0xfffff9d1
    166c:	0516060e 	ldreq	r0, [r6, #-1550]	; 0xfffff9f2
    1670:	05131402 	ldreq	r1, [r3, #-1026]	; 0xfffffbfe
    1674:	05010604 	streq	r0, [r1, #-1540]	; 0xfffff9fc
    1678:	052f0603 	streq	r0, [pc, #-1539]!	; 107d <__code_start__-0x6f83>
    167c:	05010611 	streq	r0, [r1, #-1553]	; 0xfffff9ef
    1680:	02052e09 	andeq	r2, r5, #144	; 0x90
    1684:	05153006 	ldreq	r3, [r5, #-6]
    1688:	0205010b 	andeq	r0, r5, #-1073741822	; 0xc0000002
    168c:	4a4a0106 	bmi	1281aac <__bss_end__+0x1276d0c>
    1690:	0603052e 	streq	r0, [r3], -lr, lsr #10
    1694:	060a052f 	streq	r0, [sl], -pc, lsr #10
    1698:	2d020501 	cfstr32cs	mvfx0, [r2, #-4]
    169c:	052f0a05 	streq	r0, [pc, #-2565]!	; c9f <__code_start__-0x7361>
    16a0:	052d0617 	streq	r0, [sp, #-1559]!	; 0xfffff9e9
    16a4:	0205010b 	andeq	r0, r5, #-1073741822	; 0xc0000002
    16a8:	2e4a0106 	dvfcse	f0, f2, f6
    16ac:	09051406 	stmdbeq	r5, {r1, r2, sl, ip}
    16b0:	02050106 	andeq	r0, r5, #-2147483647	; 0x80000001
    16b4:	01064c06 	tsteq	r6, r6, lsl #24
    16b8:	03060505 	movweq	r0, #25861	; 0x6505
    16bc:	2a010198 	bcs	41d24 <__bss_end__+0x36f84>
    16c0:	01060705 	tsteq	r6, r5, lsl #14
    16c4:	2f060505 	svccs	0x00060505
    16c8:	53031805 	movwpl	r1, #14341	; 0x3805
    16cc:	061b052e 	ldreq	r0, [fp], -lr, lsr #10
    16d0:	821a0501 	andshi	r0, sl, #4194304	; 0x400000
    16d4:	4b060905 	blmi	183af0 <__bss_end__+0x178d50>
    16d8:	01060d05 	tsteq	r6, r5, lsl #26
    16dc:	d709052e 	strle	r0, [r9, -lr, lsr #10]
    16e0:	059d0d05 	ldreq	r0, [sp, #3333]	; 0xd05
    16e4:	052f0609 	streq	r0, [pc, #-1545]!	; 10e3 <__code_start__-0x6f1d>
    16e8:	18053015 	stmdane	r5, {r0, r2, r4, ip, sp}
    16ec:	17050106 	strne	r0, [r5, -r6, lsl #2]
    16f0:	2f190566 	svccs	0x00190566
    16f4:	05491705 	strbeq	r1, [r9, #-1797]	; 0xfffff8fb
    16f8:	052f0619 	streq	r0, [pc, #-1561]!	; 10e7 <__code_start__-0x6f19>
    16fc:	6f030615 	svcvs	0x00030615
    1700:	0619052e 	ldreq	r0, [r9], -lr, lsr #10
    1704:	054a1303 	strbeq	r1, [sl, #-771]	; 0xfffffcfd
    1708:	6d030615 	stcvs	6, cr0, [r3, #-84]	; 0xffffffac
    170c:	02054a2e 	andeq	r4, r5, #188416	; 0x2e000
    1710:	017fa003 	cmneq	pc, r3
    1714:	72030666 	andvc	r0, r3, #106954752	; 0x6600000
    1718:	06050501 	streq	r0, [r5], -r1, lsl #10
    171c:	36040501 	strcc	r0, [r4], -r1, lsl #10
    1720:	78030505 	stmdavc	r3, {r0, r2, r8, sl}
    1724:	0602052e 	streq	r0, [r2], -lr, lsr #10
    1728:	0501062f 	streq	r0, [r1, #-1583]	; 0xfffff9d1
    172c:	0516060e 	ldreq	r0, [r6, #-1550]	; 0xfffff9f2
    1730:	05131402 	ldreq	r1, [r3, #-1026]	; 0xfffffbfe
    1734:	4a010604 	bmi	42f4c <__bss_end__+0x381ac>
    1738:	03060205 	movweq	r0, #25093	; 0x6205
    173c:	05050178 	streq	r0, [r5, #-376]	; 0xfffffe88
    1740:	054a0106 	strbeq	r0, [sl, #-262]	; 0xfffffefa
    1744:	064b0602 	strbeq	r0, [fp], -r2, lsl #12
    1748:	060e0501 	streq	r0, [lr], -r1, lsl #10
    174c:	14020516 	strne	r0, [r2], #-1302	; 0xfffffaea
    1750:	05151513 	ldreq	r1, [r5, #-1299]	; 0xfffffaed
    1754:	2e06010b 	adfcss	f0, f6, #3.0
    1758:	03061105 	movweq	r1, #24837	; 0x6105
    175c:	0501019e 	streq	r0, [r1, #-414]	; 0xfffffe62
    1760:	05010622 	streq	r0, [r1, #-1570]	; 0xfffff9de
    1764:	22052f05 	andcs	r2, r5, #5, 30
    1768:	0605052d 	streq	r0, [r5], -sp, lsr #10
    176c:	4b11052f 	blmi	442c30 <__bss_end__+0x437e90>
    1770:	01830505 	orreq	r0, r3, r5, lsl #10
    1774:	2e5c039e 	mrccs	3, 2, r0, cr12, cr14, {4}
    1778:	02059e01 	andeq	r9, r5, #1, 28
    177c:	7ef30306 	cdpvc	3, 15, cr0, cr3, cr6, {0}
    1780:	06052e2e 	streq	r2, [r5], -lr, lsr #28
    1784:	0d054a2c 	vstreq	s8, [r5, #-176]	; 0xffffff50
    1788:	0100d803 	tsteq	r0, r3, lsl #16
    178c:	02000405 	andeq	r0, r0, #83886080	; 0x5000000
    1790:	03060104 	movweq	r0, #24836	; 0x6104
    1794:	02004a11 	andeq	r4, r0, #69632	; 0x11000
    1798:	05010104 	streq	r0, [r1, #-260]	; 0xfffffefc
    179c:	06510611 			; <UNDEFINED> instruction: 0x06510611
    17a0:	0315059e 	tsteq	r5, #662700032	; 0x27800000
    17a4:	ba012e17 	blt	4d008 <__bss_end__+0x42268>
    17a8:	69031105 	stmdbvs	r3, {r0, r2, r8, ip}
    17ac:	2802012e 	stmdacs	r2, {r1, r2, r3, r5, r8}
    17b0:	87010100 	strhi	r0, [r1, -r0, lsl #2]
    17b4:	03000000 	movweq	r0, #0
    17b8:	00006400 	andeq	r6, r0, r0, lsl #8
    17bc:	fb010200 	blx	41fc6 <__bss_end__+0x37226>
    17c0:	01000d0e 	tsteq	r0, lr, lsl #26
    17c4:	00010101 	andeq	r0, r1, r1, lsl #2
    17c8:	00010000 	andeq	r0, r1, r0
    17cc:	2f2e0100 	svccs	0x002e0100
    17d0:	66617473 			; <UNDEFINED> instruction: 0x66617473
    17d4:	72732d66 	rsbsvc	r2, r3, #6528	; 0x1980
    17d8:	552f0063 	strpl	r0, [pc, #-99]!	; 177d <__code_start__-0x6883>
    17dc:	73726573 	cmnvc	r2, #482344960	; 0x1cc00000
    17e0:	6c696d2f 	stclvs	13, cr6, [r9], #-188	; 0xffffff44
    17e4:	532f7365 			; <UNDEFINED> instruction: 0x532f7365
    17e8:	6372756f 	cmnvs	r2, #465567744	; 0x1bc00000
    17ec:	73632f65 	cmnvc	r3, #404	; 0x194
    17f0:	6c303432 	cfldrsvs	mvf3, [r0], #-200	; 0xffffff38
    17f4:	696c2f78 	stmdbvs	ip!, {r3, r4, r5, r6, r8, r9, sl, fp, sp}^
    17f8:	2f697062 	svccs	0x00697062
    17fc:	6c636e69 	stclvs	14, cr6, [r3], #-420	; 0xfffffe5c
    1800:	00656475 	rsbeq	r6, r5, r5, ror r4
    1804:	656c6300 	strbvs	r6, [ip, #-768]!	; 0xfffffd00
    1808:	722d6e61 	eorvc	r6, sp, #1552	; 0x610
    180c:	6f6f6265 	svcvs	0x006f6265
    1810:	00632e74 	rsbeq	r2, r3, r4, ror lr
    1814:	72000001 	andvc	r0, r0, #1, 0
    1818:	682e6970 	stmdavs	lr!, {r4, r5, r6, r8, fp, sp, lr}
    181c:	00000200 	andeq	r0, r0, r0, lsl #4
    1820:	00190500 	andseq	r0, r9, r0, lsl #10
    1824:	95a40205 	strls	r0, [r4, #517]!	; 0x205
    1828:	05150000 	ldreq	r0, [r5, #-0]
    182c:	19051305 	stmdbne	r5, {r0, r2, r8, r9, ip}
    1830:	05052d06 	streq	r2, [r5, #-3334]	; 0xfffff2fa
    1834:	2f67062f 	svccs	0x0067062f
    1838:	0006024b 	andeq	r0, r6, fp, asr #4
    183c:	01120101 	tsteq	r2, r1, lsl #2
    1840:	00030000 	andeq	r0, r3, r0
    1844:	0000005e 	andeq	r0, r0, lr, asr r0
    1848:	0efb0102 	cdpeq	1, 15, cr0, cr11, cr2, {0}
    184c:	0101000d 	tsteq	r1, sp
    1850:	00000101 	andeq	r0, r0, r1, lsl #2
    1854:	00000100 	andeq	r0, r0, r0, lsl #2
    1858:	732f2e01 			; <UNDEFINED> instruction: 0x732f2e01
    185c:	66666174 			; <UNDEFINED> instruction: 0x66666174
    1860:	6372732d 	cmnvs	r2, #-1275068416	; 0xb4000000
    1864:	73552f00 	cmpvc	r5, #0, 30
    1868:	2f737265 	svccs	0x00737265
    186c:	656c696d 	strbvs	r6, [ip, #-2413]!	; 0xfffff693
    1870:	6f532f73 	svcvs	0x00532f73
    1874:	65637275 	strbvs	r7, [r3, #-629]!	; 0xfffffd8b
    1878:	3273632f 	rsbscc	r6, r3, #-1140850688	; 0xbc000000
    187c:	786c3034 	stmdavc	ip!, {r2, r4, r5, ip, sp}^
    1880:	62696c2f 	rsbvs	r6, r9, #12032	; 0x2f00
    1884:	692f6970 	stmdbvs	pc!, {r4, r5, r6, r8, fp, sp, lr}	; <UNPREDICTABLE>
    1888:	756c636e 	strbvc	r6, [ip, #-878]!	; 0xfffffc92
    188c:	00006564 	andeq	r6, r0, r4, ror #10
    1890:	61747363 	cmnvs	r4, r3, ror #6
    1894:	632e7472 			; <UNDEFINED> instruction: 0x632e7472
    1898:	00000100 	andeq	r0, r0, r0, lsl #2
    189c:	2e697072 	mcrcs	0, 3, r7, cr9, cr2, {3}
    18a0:	00020068 	andeq	r0, r2, r8, rrx
    18a4:	10050000 	andne	r0, r5, r0
    18a8:	d0020500 	andle	r0, r2, r0, lsl #10
    18ac:	15000095 	strne	r0, [r0, #-149]	; 0xffffff6b
    18b0:	05130505 	ldreq	r0, [r3, #-1285]	; 0xfffffafb
    18b4:	05051302 	streq	r1, [r5, #-770]	; 0xfffffcfe
    18b8:	06100514 			; <UNDEFINED> instruction: 0x06100514
    18bc:	3205050e 	andcc	r0, r5, #58720256	; 0x3800000
    18c0:	14133006 	ldrne	r3, [r3], #-6
    18c4:	05010a05 	streq	r0, [r1, #-2565]	; 0xfffff5fb
    18c8:	05910809 	ldreq	r0, [r1, #2057]	; 0x809
    18cc:	05010610 	streq	r0, [r1, #-1552]	; 0xfffff9f0
    18d0:	10059a0a 	andne	r9, r5, sl, lsl #20
    18d4:	060a056a 	streq	r0, [sl], -sl, ror #10
    18d8:	2f09052d 	svccs	0x0009052d
    18dc:	01061005 	tsteq	r6, r5
    18e0:	2d060a05 	vstrcs	s0, [r6, #-20]	; 0xffffffec
    18e4:	05bb0905 	ldreq	r0, [fp, #2309]!	; 0x905
    18e8:	05010610 	streq	r0, [r1, #-1552]	; 0xfffff9f0
    18ec:	0565060a 	strbeq	r0, [r5, #-1546]!	; 0xfffff9f6
    18f0:	0d054b09 	vstreq	d4, [r5, #-36]	; 0xffffffdc
    18f4:	0a050106 	beq	141d14 <__bss_end__+0x136f74>
    18f8:	2f10052d 	svccs	0x0010052d
    18fc:	2d060a05 	vstrcs	s0, [r6, #-20]	; 0xffffffec
    1900:	052f0905 	streq	r0, [pc, #-2309]!	; 1003 <__code_start__-0x6ffd>
    1904:	0501060d 	streq	r0, [r1, #-1549]	; 0xfffff9f3
    1908:	10052d0a 	andne	r2, r5, sl, lsl #26
    190c:	060a052f 	streq	r0, [sl], -pc, lsr #10
    1910:	2f09052d 	svccs	0x0009052d
    1914:	01060d05 	tsteq	r6, r5, lsl #26
    1918:	052d0a05 	streq	r0, [sp, #-2565]!	; 0xfffff5fb
    191c:	0a052f10 	beq	14d564 <__bss_end__+0x1427c4>
    1920:	09052d06 	stmdbeq	r5, {r1, r2, r8, sl, fp, sp}
    1924:	060d052f 	streq	r0, [sp], -pc, lsr #10
    1928:	2d0a0501 	cfstr32cs	mvfx0, [sl, #-4]
    192c:	052f1005 	streq	r1, [pc, #-5]!	; 192f <__code_start__-0x66d1>
    1930:	052d060a 	streq	r0, [sp, #-1546]!	; 0xfffff9f6
    1934:	10051309 	andne	r1, r5, r9, lsl #6
    1938:	0a050106 	beq	141d58 <__bss_end__+0x136fb8>
    193c:	05052d06 	streq	r2, [r5, #-3334]	; 0xfffff2fa
    1940:	01013215 	tsteq	r1, r5, lsl r2
    1944:	0205144a 	andeq	r1, r5, #1241513984	; 0x4a000000
    1948:	060a052f 	streq	r0, [sl], -pc, lsr #10
    194c:	022e7303 	eoreq	r7, lr, #201326592	; 0xc000000
    1950:	01010008 	tsteq	r1, r8
    1954:	0000007d 	andeq	r0, r0, sp, ror r0
    1958:	00650003 	rsbeq	r0, r5, r3
    195c:	01020000 	mrseq	r0, (UNDEF: 2)
    1960:	000d0efb 	strdeq	r0, [sp], -fp
    1964:	01010101 	tsteq	r1, r1, lsl #2
    1968:	01000000 	mrseq	r0, (UNDEF: 0)
    196c:	2e010000 	cdpcs	0, 0, cr0, cr1, cr0, {0}
    1970:	6174732f 	cmnvs	r4, pc, lsr #6
    1974:	732d6666 			; <UNDEFINED> instruction: 0x732d6666
    1978:	2f006372 	svccs	0x00006372
    197c:	72657355 	rsbvc	r7, r5, #1409286145	; 0x54000001
    1980:	696d2f73 	stmdbvs	sp!, {r0, r1, r4, r5, r6, r8, r9, sl, fp, sp}^
    1984:	2f73656c 	svccs	0x0073656c
    1988:	72756f53 	rsbsvc	r6, r5, #332	; 0x14c
    198c:	632f6563 			; <UNDEFINED> instruction: 0x632f6563
    1990:	30343273 	eorscc	r3, r4, r3, ror r2
    1994:	6c2f786c 	stcvs	8, cr7, [pc], #-432	; 17ec <__code_start__-0x6814>
    1998:	69706269 	ldmdbvs	r0!, {r0, r3, r5, r6, r9, sp, lr}^
    199c:	636e692f 	cmnvs	lr, #770048	; 0xbc000
    19a0:	6564756c 	strbvs	r7, [r4, #-1388]!	; 0xfffffa94
    19a4:	75630000 	strbvc	r0, [r3, #-0]!
    19a8:	6d6f7473 	cfstrdvs	mvd7, [pc, #-460]!	; 17e4 <__code_start__-0x681c>
    19ac:	616f6c2d 	cmnvs	pc, sp, lsr #24
    19b0:	2e726564 	cdpcs	5, 7, cr6, cr2, cr4, {3}
    19b4:	00010063 	andeq	r0, r1, r3, rrx
    19b8:	69707200 	ldmdbvs	r0!, {r9, ip, sp, lr}^
    19bc:	0200682e 	andeq	r6, r0, #3014656	; 0x2e0000
    19c0:	05000000 	streq	r0, [r0, #-0]
    19c4:	0205001a 	andeq	r0, r5, #26, 0
    19c8:	000096c8 	andeq	r9, r0, r8, asr #13
    19cc:	14010515 	strne	r0, [r1], #-1301	; 0xfffffaeb
    19d0:	01000202 	tsteq	r0, r2, lsl #4
    19d4:	00011401 	andeq	r1, r1, r1, lsl #8
    19d8:	5e000300 	cdppl	3, 0, cr0, cr0, cr0, {0}
    19dc:	02000000 	andeq	r0, r0, #0, 0
    19e0:	0d0efb01 	vstreq	d15, [lr, #-4]
    19e4:	01010100 	mrseq	r0, (UNDEF: 17)
    19e8:	00000001 	andeq	r0, r0, r1
    19ec:	01000001 	tsteq	r0, r1
    19f0:	74732f2e 	ldrbtvc	r2, [r3], #-3886	; 0xfffff0d2
    19f4:	2d666661 	stclcs	6, cr6, [r6, #-388]!	; 0xfffffe7c
    19f8:	00637273 	rsbeq	r7, r3, r3, ror r2
    19fc:	6573552f 	ldrbvs	r5, [r3, #-1327]!	; 0xfffffad1
    1a00:	6d2f7372 	stcvs	3, cr7, [pc, #-456]!	; 1840 <__code_start__-0x67c0>
    1a04:	73656c69 	cmnvc	r5, #26880	; 0x6900
    1a08:	756f532f 	strbvc	r5, [pc, #-815]!	; 16e1 <__code_start__-0x691f>
    1a0c:	2f656372 	svccs	0x00656372
    1a10:	34327363 	ldrtcc	r7, [r2], #-867	; 0xfffffc9d
    1a14:	2f786c30 	svccs	0x00786c30
    1a18:	7062696c 	rsbvc	r6, r2, ip, ror #18
    1a1c:	6e692f69 	cdpvs	15, 6, cr2, cr9, cr9, {3}
    1a20:	64756c63 	ldrbtvs	r6, [r5], #-3171	; 0xfffff39d
    1a24:	72000065 	andvc	r0, r0, #101, 0	; 0x65
    1a28:	6f6f6265 	svcvs	0x006f6265
    1a2c:	00632e74 	rsbeq	r2, r3, r4, ror lr
    1a30:	72000001 	andvc	r0, r0, #1, 0
    1a34:	682e6970 	stmdavs	lr!, {r4, r5, r6, r8, fp, sp, lr}
    1a38:	00000200 	andeq	r0, r0, r0, lsl #4
    1a3c:	00190500 	andseq	r0, r9, r0, lsl #10
    1a40:	96cc0205 	strbls	r0, [ip], r5, lsl #4
    1a44:	0d030000 	stceq	0, cr0, [r3, #-0]
    1a48:	13050501 	movwne	r0, #21761	; 0x5501
    1a4c:	13053113 	movwne	r3, #20755	; 0x5113
    1a50:	01050106 	tsteq	r5, r6, lsl #2
    1a54:	061b052f 	ldreq	r0, [fp], -pc, lsr #10
    1a58:	13050585 	movwne	r0, #21893	; 0x5585
    1a5c:	2f090514 	svccs	0x00090514
    1a60:	01061605 	tsteq	r6, r5, lsl #12
    1a64:	2f060505 	svccs	0x00060505
    1a68:	11060e05 	tstne	r6, r5, lsl #28
    1a6c:	052f0505 	streq	r0, [pc, #-1285]!	; 156f <__code_start__-0x6a91>
    1a70:	17052f01 	strne	r2, [r5, -r1, lsl #30]
    1a74:	05053006 	streq	r3, [r5, #-6]
    1a78:	016e0313 	cmneq	lr, r3, lsl r3
    1a7c:	17051313 	smladne	r5, r3, r3, r1
    1a80:	010f0306 	tsteq	pc, r6, lsl #6
    1a84:	71030505 	tstvc	r3, r5, lsl #10
    1a88:	0531062e 	ldreq	r0, [r1, #-1582]!	; 0xfffff9d2
    1a8c:	05010613 	streq	r0, [r1, #-1555]	; 0xfffff9ed
    1a90:	2e0d0307 	cdpcs	3, 0, cr0, cr13, cr7, {0}
    1a94:	4b060905 	blmi	183eb0 <__bss_end__+0x179110>
    1a98:	76030605 	strvc	r0, [r3], -r5, lsl #12
    1a9c:	13050501 	movwne	r0, #21761	; 0x5501
    1aa0:	2f090514 	svccs	0x00090514
    1aa4:	01061605 	tsteq	r6, r5, lsl #12
    1aa8:	2f060505 	svccs	0x00060505
    1aac:	11060e05 	tstne	r6, r5, lsl #28
    1ab0:	2e2f0505 	cfsh64cs	mvdx0, mvdx15, #5
    1ab4:	010a0306 	tsteq	sl, r6, lsl #6
    1ab8:	134d2f30 	movtne	r2, #57136	; 0xdf30
    1abc:	67151313 			; <UNDEFINED> instruction: 0x67151313
    1ac0:	01040200 	mrseq	r0, R12_usr
    1ac4:	000d0567 	andeq	r0, sp, r7, ror #10
    1ac8:	01010402 	tsteq	r1, r2, lsl #8
    1acc:	02000a05 	andeq	r0, r0, #20480	; 0x5000
    1ad0:	05010104 	streq	r0, [r1, #-260]	; 0xfffffefc
    1ad4:	04020005 	streq	r0, [r2], #-5
    1ad8:	0d050101 	stfeqs	f0, [r5, #-4]
    1adc:	01040200 	mrseq	r0, R12_usr
    1ae0:	000a0501 	andeq	r0, sl, r1, lsl #10
    1ae4:	01010402 	tsteq	r1, r2, lsl #8
    1ae8:	01000a02 	tsteq	r0, r2, lsl #20
    1aec:	0001fa01 	andeq	pc, r1, r1, lsl #20
    1af0:	5d000300 	stcpl	3, cr0, [r0, #-0]
    1af4:	02000000 	andeq	r0, r0, #0, 0
    1af8:	0d0efb01 	vstreq	d15, [lr, #-4]
    1afc:	01010100 	mrseq	r0, (UNDEF: 17)
    1b00:	00000001 	andeq	r0, r0, r1
    1b04:	01000001 	tsteq	r0, r1
    1b08:	74732f2e 	ldrbtvc	r2, [r3], #-3886	; 0xfffff0d2
    1b0c:	2d666661 	stclcs	6, cr6, [r6, #-388]!	; 0xfffffe7c
    1b10:	00637273 	rsbeq	r7, r3, r3, ror r2
    1b14:	6573552f 	ldrbvs	r5, [r3, #-1327]!	; 0xfffffad1
    1b18:	6d2f7372 	stcvs	3, cr7, [pc, #-456]!	; 1958 <__code_start__-0x66a8>
    1b1c:	73656c69 	cmnvc	r5, #26880	; 0x6900
    1b20:	756f532f 	strbvc	r5, [pc, #-815]!	; 17f9 <__code_start__-0x6807>
    1b24:	2f656372 	svccs	0x00656372
    1b28:	34327363 	ldrtcc	r7, [r2], #-867	; 0xfffffc9d
    1b2c:	2f786c30 	svccs	0x00786c30
    1b30:	7062696c 	rsbvc	r6, r2, ip, ror #18
    1b34:	6e692f69 	cdpvs	15, 6, cr2, cr9, cr9, {3}
    1b38:	64756c63 	ldrbtvs	r6, [r5], #-3171	; 0xfffff39d
    1b3c:	74000065 	strvc	r0, [r0], #-101	; 0xffffff9b
    1b40:	72656d69 	rsbvc	r6, r5, #6720	; 0x1a40
    1b44:	0100632e 	tsteq	r0, lr, lsr #6
    1b48:	70720000 	rsbsvc	r0, r2, r0
    1b4c:	00682e69 	rsbeq	r2, r8, r9, ror #28
    1b50:	00000002 	andeq	r0, r0, r2
    1b54:	05002305 	streq	r2, [r0, #-773]	; 0xfffffcfb
    1b58:	00975802 	addseq	r5, r7, r2, lsl #16
    1b5c:	05051500 	streq	r1, [r5, #-1280]	; 0xfffffb00
    1b60:	060c0513 			; <UNDEFINED> instruction: 0x060c0513
    1b64:	061f0501 	ldreq	r0, [pc], -r1, lsl #10
    1b68:	1505056a 	strne	r0, [r5, #-1386]	; 0xfffffa96
    1b6c:	0f061f05 	svceq	0x00061f05
    1b70:	06310505 	ldrteq	r0, [r1], -r5, lsl #10
    1b74:	030a052f 	movweq	r0, #42287	; 0xa52f
    1b78:	05050177 	streq	r0, [r5, #-375]	; 0xfffffe89
    1b7c:	060c0513 			; <UNDEFINED> instruction: 0x060c0513
    1b80:	05056601 	streq	r6, [r5, #-1537]	; 0xfffff9ff
    1b84:	01090306 	tsteq	r9, r6, lsl #6
    1b88:	0601052f 	streq	r0, [r1], -pc, lsr #10
    1b8c:	061c0513 			; <UNDEFINED> instruction: 0x061c0513
    1b90:	13050568 	movwne	r0, #21864	; 0x5568
    1b94:	76030a05 	strvc	r0, [r3], -r5, lsl #20
    1b98:	15050501 	strne	r0, [r5, #-1281]	; 0xfffffaff
    1b9c:	18061c05 	stmdane	r6, {r0, r2, sl, fp, ip}
    1ba0:	0305052e 	movweq	r0, #21806	; 0x552e
    1ba4:	2f062e7a 	svccs	0x00062e7a
    1ba8:	77030a05 	strvc	r0, [r3, -r5, lsl #20]
    1bac:	13050501 	movwne	r0, #21761	; 0x5501
    1bb0:	01060c05 	tsteq	r6, r5, lsl #24
    1bb4:	06050566 	streq	r0, [r5], -r6, ror #10
    1bb8:	2f010903 	svccs	0x00010903
    1bbc:	0c050106 	stfeqs	f0, [r5], {6}
    1bc0:	05017603 	streq	r7, [r1, #-1539]	; 0xfffff9fd
    1bc4:	0f030605 	svceq	0x00030605
    1bc8:	1309052e 	movwne	r0, #38190	; 0x952e
    1bcc:	74030a05 	strvc	r0, [r3], #-2565	; 0xfffff5fb
    1bd0:	15050501 	strne	r0, [r5, #-1281]	; 0xfffffaff
    1bd4:	030a052f 	movweq	r0, #42287	; 0xa52f
    1bd8:	05050177 	streq	r0, [r5, #-375]	; 0xfffffe89
    1bdc:	060c0513 			; <UNDEFINED> instruction: 0x060c0513
    1be0:	05056601 	streq	r6, [r5, #-1537]	; 0xfffff9ff
    1be4:	01090306 	tsteq	r9, r6, lsl #6
    1be8:	1a061105 	bne	186004 <__bss_end__+0x17b264>
    1bec:	78030505 	stmdavc	r3, {r0, r2, r8, sl}
    1bf0:	052f062e 	streq	r0, [pc, #-1582]!	; 15ca <__code_start__-0x6a36>
    1bf4:	0c051909 			; <UNDEFINED> instruction: 0x0c051909
    1bf8:	1c050106 	stfnes	f0, [r5], {6}
    1bfc:	05058706 	streq	r8, [r5, #-1798]	; 0xfffff8fa
    1c00:	061c0513 			; <UNDEFINED> instruction: 0x061c0513
    1c04:	2f050511 	svccs	0x00050511
    1c08:	0606054a 	streq	r0, [r6], -sl, asr #10
    1c0c:	052e7603 	streq	r7, [lr, #-1539]!	; 0xfffff9fd
    1c10:	0a051305 	beq	14682c <__bss_end__+0x13ba8c>
    1c14:	05017603 	streq	r7, [r1, #-1539]	; 0xfffff9fd
    1c18:	052f1505 	streq	r1, [pc, #-1285]!	; 171b <__code_start__-0x68e5>
    1c1c:	0177030a 	cmneq	r7, sl, lsl #6
    1c20:	05130505 	ldreq	r0, [r3, #-1285]	; 0xfffffafb
    1c24:	6601060c 	strvs	r0, [r1], -ip, lsl #12
    1c28:	03060505 	movweq	r0, #25861	; 0x6505
    1c2c:	062f0109 	strteq	r0, [pc], -r9, lsl #2
    1c30:	030c0501 	movweq	r0, #50433	; 0xc501
    1c34:	05050176 	streq	r0, [r5, #-374]	; 0xfffffe8a
    1c38:	2e0f0306 	cdpcs	3, 0, cr0, cr15, cr6, {0}
    1c3c:	05130905 	ldreq	r0, [r3, #-2309]	; 0xfffff6fb
    1c40:	0174030a 	cmneq	r4, sl, lsl #6
    1c44:	2f150505 	svccs	0x00150505
    1c48:	77030a05 	strvc	r0, [r3, -r5, lsl #20]
    1c4c:	13050501 	movwne	r0, #21761	; 0x5501
    1c50:	01060c05 	tsteq	r6, r5, lsl #24
    1c54:	06050566 	streq	r0, [r5], -r6, ror #10
    1c58:	05010903 	streq	r0, [r1, #-2307]	; 0xfffff6fd
    1c5c:	051a0611 	ldreq	r0, [sl, #-1553]	; 0xfffff9ef
    1c60:	2e780305 	cdpcs	3, 7, cr0, cr8, cr5, {0}
    1c64:	09052f06 	stmdbeq	r5, {r1, r2, r8, r9, sl, fp, sp}
    1c68:	060c0519 			; <UNDEFINED> instruction: 0x060c0519
    1c6c:	061e0501 	ldreq	r0, [lr], -r1, lsl #10
    1c70:	1305058a 	movwne	r0, #21898	; 0x558a
    1c74:	050e0605 	streq	r0, [lr, #-1541]	; 0xfffff9fb
    1c78:	1e051305 	cdpne	3, 0, cr1, cr5, cr5, {0}
    1c7c:	05051406 	streq	r1, [r5, #-1030]	; 0xfffffbfa
    1c80:	0605662c 	streq	r6, [r5], -ip, lsr #12
    1c84:	2e760306 	cdpcs	3, 7, cr0, cr6, cr6, {0}
    1c88:	05130505 	ldreq	r0, [r3, #-1285]	; 0xfffffafb
    1c8c:	0176030a 	cmneq	r6, sl, lsl #6
    1c90:	2f150505 	svccs	0x00150505
    1c94:	77030a05 	strvc	r0, [r3, -r5, lsl #20]
    1c98:	13050501 	movwne	r0, #21761	; 0x5501
    1c9c:	01060c05 	tsteq	r6, r5, lsl #24
    1ca0:	06050566 	streq	r0, [r5], -r6, ror #10
    1ca4:	2f010903 	svccs	0x00010903
    1ca8:	0c050106 	stfeqs	f0, [r5], {6}
    1cac:	05017603 	streq	r7, [r1, #-1539]	; 0xfffff9fd
    1cb0:	0f030605 	svceq	0x00030605
    1cb4:	1309052e 	movwne	r0, #38190	; 0x952e
    1cb8:	74030a05 	strvc	r0, [r3], #-2565	; 0xfffff5fb
    1cbc:	15050501 	strne	r0, [r5, #-1281]	; 0xfffffaff
    1cc0:	030a052f 	movweq	r0, #42287	; 0xa52f
    1cc4:	05050177 	streq	r0, [r5, #-375]	; 0xfffffe89
    1cc8:	060c0513 			; <UNDEFINED> instruction: 0x060c0513
    1ccc:	05056601 	streq	r6, [r5, #-1537]	; 0xfffff9ff
    1cd0:	01090306 	tsteq	r9, r6, lsl #6
    1cd4:	1a061105 	bne	1860f0 <__bss_end__+0x17b350>
    1cd8:	78030505 	stmdavc	r3, {r0, r2, r8, sl}
    1cdc:	052f062e 	streq	r0, [pc, #-1582]!	; 16b6 <__code_start__-0x694a>
    1ce0:	0c051909 			; <UNDEFINED> instruction: 0x0c051909
    1ce4:	08020106 	stmdaeq	r2, {r1, r2, r8}
    1ce8:	04010100 	streq	r0, [r1], #-256	; 0xffffff00
    1cec:	03000002 	movweq	r0, #2
    1cf0:	0000c800 	andeq	ip, r0, r0, lsl #16
    1cf4:	fb010200 	blx	424fe <__bss_end__+0x3775e>
    1cf8:	01000d0e 	tsteq	r0, lr, lsl #26
    1cfc:	00010101 	andeq	r0, r1, r1, lsl #2
    1d00:	00010000 	andeq	r0, r1, r0
    1d04:	682f0100 	stmdavs	pc!, {r8}	; <UNPREDICTABLE>
    1d08:	2f656d6f 	svccs	0x00656d6f
    1d0c:	6c676e65 	stclvs	14, cr6, [r7], #-404	; 0xfffffe6c
    1d10:	632f7265 			; <UNDEFINED> instruction: 0x632f7265
    1d14:	7373616c 	cmnvc	r3, #27
    1d18:	3173632f 	cmncc	r3, pc, lsr #6
    1d1c:	2d653034 	stclcs	0, cr3, [r5, #-208]!	; 0xffffff30
    1d20:	69773232 	ldmdbvs	r7!, {r1, r4, r5, r9, ip, sp}^
    1d24:	6c2f2f6e 	stcvs	15, cr2, [pc], #-440	; 1b74 <__code_start__-0x648c>
    1d28:	69706269 	ldmdbvs	r0!, {r0, r3, r5, r6, r9, sp, lr}^
    1d2c:	636e692f 	cmnvs	lr, #770048	; 0xbc000
    1d30:	6564756c 	strbvs	r7, [r4, #-1388]!	; 0xfffffa94
    1d34:	73752f00 	cmnvc	r5, #0, 30
    1d38:	68732f72 	ldmdavs	r3!, {r1, r4, r5, r6, r8, r9, sl, fp, sp}^
    1d3c:	2f657261 	svccs	0x00657261
    1d40:	2d636367 	stclcs	3, cr6, [r3, #-412]!	; 0xfffffe64
    1d44:	2d6d7261 	sfmcs	f7, 2, [sp, #-388]!	; 0xfffffe7c
    1d48:	656e6f6e 	strbvs	r6, [lr, #-3950]!	; 0xfffff092
    1d4c:	6261652d 	rsbvs	r6, r1, #188743680	; 0xb400000
    1d50:	30312d69 	eorscc	r2, r1, r9, ror #26
    1d54:	322d332e 	eorcc	r3, sp, #-1207959552	; 0xb8000000
    1d58:	2e313230 	mrccs	2, 1, r3, cr1, cr0, {1}
    1d5c:	6c2f3031 	stcvs	0, cr3, [pc], #-196	; 1ca0 <__code_start__-0x6360>
    1d60:	672f6269 	strvs	r6, [pc, -r9, ror #4]!
    1d64:	612f6363 			; <UNDEFINED> instruction: 0x612f6363
    1d68:	6e2d6d72 	mcrvs	13, 1, r6, cr13, cr2, {3}
    1d6c:	2d656e6f 	stclcs	14, cr6, [r5, #-444]!	; 0xfffffe44
    1d70:	69626165 	stmdbvs	r2!, {r0, r2, r5, r6, r8, sp, lr}^
    1d74:	2e30312f 	rsfcssp	f3, f0, #10.0
    1d78:	2f312e33 	svccs	0x00312e33
    1d7c:	6c636e69 	stclvs	14, cr6, [r3], #-420	; 0xfffffe5c
    1d80:	00656475 	rsbeq	r6, r5, r5, ror r4
    1d84:	72617500 	rsbvc	r7, r1, #0, 10
    1d88:	00632e74 	rsbeq	r2, r3, r4, ror lr
    1d8c:	75000000 	strvc	r0, [r0, #-0]
    1d90:	2e747261 	cdpcs	2, 7, cr7, cr4, cr1, {3}
    1d94:	00010068 	andeq	r0, r1, r8, rrx
    1d98:	69707200 	ldmdbvs	r0!, {r9, ip, sp, lr}^
    1d9c:	0100682e 	tsteq	r0, lr, lsr #16
    1da0:	70670000 	rsbvc	r0, r7, r0
    1da4:	682e6f69 	stmdavs	lr!, {r0, r3, r5, r6, r8, r9, sl, fp, sp, lr}
    1da8:	00000100 	andeq	r0, r0, r0, lsl #2
    1dac:	69647473 	stmdbvs	r4!, {r0, r1, r4, r5, r6, sl, ip, sp, lr}^
    1db0:	672d746e 	strvs	r7, [sp, -lr, ror #8]!
    1db4:	682e6363 	stmdavs	lr!, {r0, r1, r5, r6, r8, r9, sp, lr}
    1db8:	00000200 	andeq	r0, r0, r0, lsl #4
    1dbc:	00390500 	eorseq	r0, r9, r0, lsl #10
    1dc0:	98740205 	ldmdals	r4!, {r0, r2, r9}^
    1dc4:	30030000 	andcc	r0, r3, r0
    1dc8:	05010601 	streq	r0, [r1, #-1537]	; 0xfffff9ff
    1dcc:	05670605 	strbeq	r0, [r7, #-1541]!	; 0xfffff9fb
    1dd0:	05010611 	streq	r0, [r1, #-1553]	; 0xfffff9ef
    1dd4:	01052e05 	tsteq	r5, r5, lsl #28
    1dd8:	06380567 	ldrteq	r0, [r8], -r7, ror #10
    1ddc:	05010629 	streq	r0, [r1, #-1577]	; 0xfffff9d7
    1de0:	05670605 	strbeq	r0, [r7, #-1541]!	; 0xfffff9fb
    1de4:	05010611 	streq	r0, [r1, #-1553]	; 0xfffff9ef
    1de8:	01052e05 	tsteq	r5, r5, lsl #28
    1dec:	06160567 	ldreq	r0, [r6], -r7, ror #10
    1df0:	052e1503 	streq	r1, [lr, #-1283]!	; 0xfffffafd
    1df4:	68673505 	stmdavs	r7!, {r0, r2, r8, sl, ip, sp}^
    1df8:	0c036835 	stceq	8, cr6, [r3], {53}	; 0x35
    1dfc:	696b852e 	stmdbvs	fp!, {r1, r2, r3, r5, r8, sl, pc}^
    1e00:	660c0369 	strvs	r0, [ip], -r9, ror #6
    1e04:	05676b13 	strbeq	r6, [r7, #-2835]!	; 0xfffff4ed
    1e08:	052f0601 	streq	r0, [pc, #-1537]!	; 180f <__code_start__-0x67f1>
    1e0c:	25080619 	strcs	r0, [r8, #-1561]	; 0xfffff9e7
    1e10:	05340505 	ldreq	r0, [r4, #-1285]!	; 0xfffffafb
    1e14:	0501060d 	streq	r0, [r1, #-1549]	; 0xfffff9f3
    1e18:	19054c01 	stmdbne	r5, {r0, sl, fp, lr}
    1e1c:	05056706 	streq	r6, [r5, #-1798]	; 0xfffff8fa
    1e20:	060d0536 			; <UNDEFINED> instruction: 0x060d0536
    1e24:	4a280501 	bmi	a03230 <__bss_end__+0x9f8490>
    1e28:	05300105 	ldreq	r0, [r0, #-261]!	; 0xfffffefb
    1e2c:	05870615 	streq	r0, [r7, #1557]	; 0x615
    1e30:	052f2f05 	streq	r2, [pc, #-3845]!	; f33 <__code_start__-0x70cd>
    1e34:	04020009 	streq	r0, [r2], #-9
    1e38:	0a051301 	beq	146a44 <__bss_end__+0x13bca4>
    1e3c:	01040200 	mrseq	r0, R12_usr
    1e40:	000c0511 	andeq	r0, ip, r1, lsl r5
    1e44:	06010402 	streq	r0, [r1], -r2, lsl #8
    1e48:	000a0501 	andeq	r0, sl, r1, lsl #10
    1e4c:	2e010402 	cdpcs	4, 0, cr0, cr1, cr2, {0}
    1e50:	4c060505 	cfstr32mi	mvfx0, [r6], {5}
    1e54:	01060e05 	tsteq	r6, r5, lsl #28
    1e58:	054a0905 	strbeq	r0, [sl, #-2309]	; 0xfffff6fb
    1e5c:	2f2f0605 	svccs	0x002f0605
    1e60:	13060105 	movwne	r0, #24837	; 0x6105
    1e64:	67061c05 	strvs	r1, [r6, -r5, lsl #24]
    1e68:	05050106 	streq	r0, [r5, #-262]	; 0xfffffefa
    1e6c:	052f4b06 	streq	r4, [pc, #-2822]!	; 136e <__code_start__-0x6c92>
    1e70:	04020009 	streq	r0, [r2], #-9
    1e74:	0a051301 	beq	146a80 <__bss_end__+0x13bce0>
    1e78:	01040200 	mrseq	r0, R12_usr
    1e7c:	000c0511 	andeq	r0, ip, r1, lsl r5
    1e80:	06010402 	streq	r0, [r1], -r2, lsl #8
    1e84:	000a0501 	andeq	r0, sl, r1, lsl #10
    1e88:	2e010402 	cdpcs	4, 0, cr0, cr1, cr2, {0}
    1e8c:	4c060505 	cfstr32mi	mvfx0, [r6], {5}
    1e90:	06010567 	streq	r0, [r1], -r7, ror #10
    1e94:	0619052f 	ldreq	r0, [r9], -pc, lsr #10
    1e98:	2e1b054c 	cfmac32cs	mvfx0, mvfx11, mvfx12
    1e9c:	052e2a05 	streq	r2, [lr, #-2565]!	; 0xfffff5fb
    1ea0:	05010631 	streq	r0, [r1, #-1585]	; 0xfffff9cf
    1ea4:	1c052e42 	stcne	14, cr2, [r5], {66}	; 0x42
    1ea8:	05053106 	streq	r3, [r5, #-262]	; 0xfffffefa
    1eac:	2e09032f 	cdpcs	3, 0, cr0, cr9, cr15, {1}
    1eb0:	01060e05 	tsteq	r6, r5, lsl #28
    1eb4:	054a2105 	strbeq	r2, [sl, #-261]	; 0xfffffefb
    1eb8:	2e0a0301 	cdpcs	3, 0, cr0, cr10, cr1, {0}
    1ebc:	68061a05 	stmdavs	r6, {r0, r2, r9, fp, ip}
    1ec0:	02000905 	andeq	r0, r0, #81920	; 0x14000
    1ec4:	05300104 	ldreq	r0, [r0, #-260]!	; 0xfffffefc
    1ec8:	0402000a 	streq	r0, [r2], #-10
    1ecc:	0c051101 	stfeqs	f1, [r5], {1}
    1ed0:	01040200 	mrseq	r0, R12_usr
    1ed4:	0a050106 	beq	1422f4 <__bss_end__+0x137554>
    1ed8:	01040200 	mrseq	r0, R12_usr
    1edc:	0619052e 	ldreq	r0, [r9], -lr, lsr #10
    1ee0:	667ee803 	ldrbtvs	lr, [lr], -r3, lsl #16
    1ee4:	2f2f0505 	svccs	0x002f0505
    1ee8:	0105672f 	tsteq	r5, pc, lsr #14
    1eec:	04022f06 	streq	r2, [r2], #-3846	; 0xfffff0fa
    1ef0:	92010100 	andls	r0, r1, #0
    1ef4:	03000003 	movweq	r0, #3
    1ef8:	0000b700 	andeq	fp, r0, r0, lsl #14
    1efc:	fb010200 	blx	42706 <__bss_end__+0x37966>
    1f00:	01000d0e 	tsteq	r0, lr, lsl #26
    1f04:	00010101 	andeq	r0, r1, r1, lsl #2
    1f08:	00010000 	andeq	r0, r1, r0
    1f0c:	682f0100 	stmdavs	pc!, {r8}	; <UNPREDICTABLE>
    1f10:	2f656d6f 	svccs	0x00656d6f
    1f14:	6c676e65 	stclvs	14, cr6, [r7], #-404	; 0xfffffe6c
    1f18:	632f7265 			; <UNDEFINED> instruction: 0x632f7265
    1f1c:	7373616c 	cmnvc	r3, #27
    1f20:	3173632f 	cmncc	r3, pc, lsr #6
    1f24:	2d653034 	stclcs	0, cr3, [r5, #-208]!	; 0xffffff30
    1f28:	69773232 	ldmdbvs	r7!, {r1, r4, r5, r9, ip, sp}^
    1f2c:	6c2f2f6e 	stcvs	15, cr2, [pc], #-440	; 1d7c <__code_start__-0x6284>
    1f30:	69706269 	ldmdbvs	r0!, {r0, r3, r5, r6, r9, sp, lr}^
    1f34:	636e692f 	cmnvs	lr, #770048	; 0xbc000
    1f38:	6564756c 	strbvs	r7, [r4, #-1388]!	; 0xfffffa94
    1f3c:	73752f00 	cmnvc	r5, #0, 30
    1f40:	68732f72 	ldmdavs	r3!, {r1, r4, r5, r6, r8, r9, sl, fp, sp}^
    1f44:	2f657261 	svccs	0x00657261
    1f48:	2d636367 	stclcs	3, cr6, [r3, #-412]!	; 0xfffffe64
    1f4c:	2d6d7261 	sfmcs	f7, 2, [sp, #-388]!	; 0xfffffe7c
    1f50:	656e6f6e 	strbvs	r6, [lr, #-3950]!	; 0xfffff092
    1f54:	6261652d 	rsbvs	r6, r1, #188743680	; 0xb400000
    1f58:	30312d69 	eorscc	r2, r1, r9, ror #26
    1f5c:	322d332e 	eorcc	r3, sp, #-1207959552	; 0xb8000000
    1f60:	2e313230 	mrccs	2, 1, r3, cr1, cr0, {1}
    1f64:	6c2f3031 	stcvs	0, cr3, [pc], #-196	; 1ea8 <__code_start__-0x6158>
    1f68:	672f6269 	strvs	r6, [pc, -r9, ror #4]!
    1f6c:	612f6363 			; <UNDEFINED> instruction: 0x612f6363
    1f70:	6e2d6d72 	mcrvs	13, 1, r6, cr13, cr2, {3}
    1f74:	2d656e6f 	stclcs	14, cr6, [r5, #-444]!	; 0xfffffe44
    1f78:	69626165 	stmdbvs	r2!, {r0, r2, r5, r6, r8, sp, lr}^
    1f7c:	2e30312f 	rsfcssp	f3, f0, #10.0
    1f80:	2f312e33 	svccs	0x00312e33
    1f84:	6c636e69 	stclvs	14, cr6, [r3], #-420	; 0xfffffe5c
    1f88:	00656475 	rsbeq	r6, r5, r5, ror r4
    1f8c:	616d6b00 	cmnvs	sp, r0, lsl #22
    1f90:	636f6c6c 	cmnvs	pc, #108, 24	; 0x6c00
    1f94:	0000632e 	andeq	r6, r0, lr, lsr #6
    1f98:	70720000 	rsbsvc	r0, r2, r0
    1f9c:	00682e69 	rsbeq	r2, r8, r9, ror #28
    1fa0:	73000001 	movwvc	r0, #1
    1fa4:	6e696474 	mcrvs	4, 3, r6, cr9, cr4, {3}
    1fa8:	63672d74 	cmnvs	r7, #116, 26	; 0x1d00
    1fac:	00682e63 	rsbeq	r2, r8, r3, ror #28
    1fb0:	00000002 	andeq	r0, r0, r2
    1fb4:	05001e05 	streq	r1, [r0, #-3589]	; 0xfffff1fb
    1fb8:	009a6402 	addseq	r6, sl, r2, lsl #8
    1fbc:	01270300 			; <UNDEFINED> instruction: 0x01270300
    1fc0:	05012005 	streq	r2, [r1, #-5]
    1fc4:	0501062d 	streq	r0, [r1, #-1581]	; 0xfffff9d3
    1fc8:	05830620 	streq	r0, [r3, #1568]	; 0x620
    1fcc:	35050122 	strcc	r0, [r5, #-290]	; 0xfffffede
    1fd0:	1e050106 	adfnes	f0, f5, f6
    1fd4:	20058306 	andcs	r8, r5, r6, lsl #6
    1fd8:	062d0501 	strteq	r0, [sp], -r1, lsl #10
    1fdc:	06420501 	strbeq	r0, [r2], -r1, lsl #10
    1fe0:	05010685 	streq	r0, [r1, #-1669]	; 0xfffff97b
    1fe4:	144b0605 	strbne	r0, [fp], #-1541	; 0xfffff9fb
    1fe8:	002e0601 	eoreq	r0, lr, r1, lsl #12
    1fec:	06020402 	streq	r0, [r2], -r2, lsl #8
    1ff0:	0402002e 	streq	r0, [r2], #-46	; 0xffffffd2
    1ff4:	02000102 	andeq	r0, r0, #-2147483648	; 0x80000000
    1ff8:	05150204 	ldreq	r0, [r5, #-516]	; 0xfffffdfc
    1ffc:	0402000d 	streq	r0, [r2], #-13
    2000:	05010602 	streq	r0, [r1, #-1538]	; 0xfffff9fe
    2004:	04020007 	streq	r0, [r2], #-7
    2008:	09054a02 	stmdbeq	r5, {r1, r9, fp, lr}
    200c:	05054b06 	streq	r4, [r5, #-2822]	; 0xfffff4fa
    2010:	06170515 			; <UNDEFINED> instruction: 0x06170515
    2014:	4a100501 	bmi	403420 <__bss_end__+0x3f8680>
    2018:	2f060505 	svccs	0x00060505
    201c:	01061b05 	tsteq	r6, r5, lsl #22
    2020:	052e0e05 	streq	r0, [lr, #-3589]!	; 0xfffff1fb
    2024:	05052f01 	streq	r2, [r5, #-3841]	; 0xfffff0ff
    2028:	01040200 	mrseq	r0, R12_usr
    202c:	4a770306 	bmi	1dc2c4c <__bss_end__+0x1db7eac>
    2030:	01040200 	mrseq	r0, R12_usr
    2034:	04020001 	streq	r0, [r2], #-1
    2038:	009e0601 	addseq	r0, lr, r1, lsl #12
    203c:	2e010402 	cdpcs	4, 0, cr0, cr1, cr2, {0}
    2040:	01040200 	mrseq	r0, R12_usr
    2044:	09052e06 	stmdbeq	r5, {r1, r2, r9, sl, fp, sp}
    2048:	d6060132 			; <UNDEFINED> instruction: 0xd6060132
    204c:	052e062e 	streq	r0, [lr, #-1582]!	; 0xfffff9d2
    2050:	0505de19 	streq	sp, [r5, #-3609]	; 0xfffff1e7
    2054:	0805142f 	stmdaeq	r5, {r0, r1, r2, r3, r5, sl, ip}
    2058:	07050106 	streq	r0, [r5, -r6, lsl #2]
    205c:	0609054a 	streq	r0, [r9], -sl, asr #10
    2060:	1305054b 	movwne	r0, #21835	; 0x554b
    2064:	01060c05 	tsteq	r6, r5, lsl #24
    2068:	67060505 	strvs	r0, [r6, -r5, lsl #10]
    206c:	06010513 			; <UNDEFINED> instruction: 0x06010513
    2070:	06090567 	streq	r0, [r9], -r7, ror #10
    2074:	059e012a 	ldreq	r0, [lr, #298]	; 0x12a
    2078:	0106a528 	tsteq	r6, r8, lsr #10
    207c:	4b060505 	blmi	183498 <__bss_end__+0x1786f8>
    2080:	062e0601 	strteq	r0, [lr], -r1, lsl #12
    2084:	0513012e 	ldreq	r0, [r3, #-302]	; 0xfffffed2
    2088:	01470318 	cmpeq	r7, r8, lsl r3
    208c:	01130505 	tsteq	r3, r5, lsl #10
    2090:	0f060106 	svceq	0x00060106
    2094:	05130115 	ldreq	r0, [r3, #-277]	; 0xfffffeeb
    2098:	0501060e 	streq	r0, [r1, #-1550]	; 0xfffff9f2
    209c:	052e2e16 	streq	r2, [lr, #-3606]!	; 0xfffff1ea
    20a0:	39030605 	stmdbcc	r3, {r0, r2, r9, sl}
    20a4:	060b0501 	streq	r0, [fp], -r1, lsl #10
    20a8:	06050501 	streq	r0, [r5], -r1, lsl #10
    20ac:	060a054b 	streq	r0, [sl], -fp, asr #10
    20b0:	06050501 	streq	r0, [r5], -r1, lsl #10
    20b4:	060d054b 	streq	r0, [sp], -fp, asr #10
    20b8:	2e070501 	cfsh32cs	mvfx0, mvfx7, #1
    20bc:	054d0105 	strbeq	r0, [sp, #-261]	; 0xfffffefb
    20c0:	04020005 	streq	r0, [r2], #-5
    20c4:	78030601 	stmdavc	r3, {r0, r9, sl}
    20c8:	0402004a 	streq	r0, [r2], #-74	; 0xffffffb6
    20cc:	02000101 	andeq	r0, r0, #1073741824	; 0x40000000
    20d0:	ba060104 	blt	1824e8 <__bss_end__+0x177748>
    20d4:	01040200 	mrseq	r0, R12_usr
    20d8:	09052e06 	stmdbeq	r5, {r1, r2, r9, sl, fp, sp}
    20dc:	82060134 	andhi	r0, r6, #13
    20e0:	052e0666 	streq	r0, [lr, #-1638]!	; 0xfffff99a
    20e4:	0106db20 	tsteq	r6, r0, lsr #22
    20e8:	4b060505 	blmi	183504 <__bss_end__+0x178764>
    20ec:	04020001 	streq	r0, [r2], #-1
    20f0:	02004a02 	andeq	r4, r0, #8192	; 0x2000
    20f4:	00010204 	andeq	r0, r1, r4, lsl #4
    20f8:	13020402 	movwne	r0, #9218	; 0x2402
    20fc:	02001205 	andeq	r1, r0, #1342177280	; 0x50000000
    2100:	01060204 	tsteq	r6, r4, lsl #4
    2104:	02040200 	andeq	r0, r4, #0, 4
    2108:	0402002e 	streq	r0, [r2], #-46	; 0xffffffd2
    210c:	05052e02 	streq	r2, [r5, #-3586]	; 0xfffff1fe
    2110:	02040200 	andeq	r0, r4, #0, 4
    2114:	02002f06 	andeq	r2, r0, #6, 30
    2118:	05670204 	strbeq	r0, [r7, #-516]!	; 0xfffffdfc
    211c:	04020001 	streq	r0, [r2], #-1
    2120:	05130602 	ldreq	r0, [r3, #-1538]	; 0xfffff9fe
    2124:	04020005 	streq	r0, [r2], #-5
    2128:	00620601 	rsbeq	r0, r2, r1, lsl #12
    212c:	01010402 	tsteq	r1, r2, lsl #8
    2130:	01040200 	mrseq	r0, R12_usr
    2134:	0200ba06 	andeq	fp, r0, #24576	; 0x6000
    2138:	2e060104 	adfcss	f0, f6, f4
    213c:	0a033c05 	beq	d1158 <__bss_end__+0xc63b8>
    2140:	0501069e 	streq	r0, [r1, #-1694]	; 0xfffff962
    2144:	014b0605 	cmpeq	fp, r5, lsl #12
    2148:	2e062e06 	cdpcs	14, 0, cr2, cr6, cr6, {0}
    214c:	05011301 	streq	r1, [r1, #-769]	; 0xfffffcff
    2150:	7fad0318 	svcvc	0x00ad0318
    2154:	13050501 	movwne	r0, #21761	; 0x5501
    2158:	01061105 	tsteq	r6, r5, lsl #2
    215c:	0305052e 	movweq	r0, #21806	; 0x552e
    2160:	060100d2 			; <UNDEFINED> instruction: 0x060100d2
    2164:	1805134a 	stmdane	r5, {r1, r3, r6, r8, r9, ip}
    2168:	017fa303 	cmneq	pc, r3, lsl #6
    216c:	05130505 	ldreq	r0, [r3, #-1285]	; 0xfffffafb
    2170:	4a010616 	bmi	439d0 <__bss_end__+0x38c30>
    2174:	03060505 	movweq	r0, #25861	; 0x6505
    2178:	050100e1 	streq	r0, [r1, #-225]	; 0xffffff1f
    217c:	05010612 	streq	r0, [r1, #-1554]	; 0xfffff9ee
    2180:	054b0605 	strbeq	r0, [fp, #-1541]	; 0xfffff9fb
    2184:	7fa90318 	svcvc	0x00a90318
    2188:	13050501 	movwne	r0, #21761	; 0x5501
    218c:	0e180501 	cfmul32eq	mvfx0, mvfx8, mvfx1
    2190:	05130505 	ldreq	r0, [r3, #-1285]	; 0xfffffafb
    2194:	2e010611 	mcrcs	6, 0, r0, cr1, cr1, {0}
    2198:	06150505 	ldreq	r0, [r5], -r5, lsl #10
    219c:	0513014a 	ldreq	r0, [r3, #-330]	; 0xfffffeb6
    21a0:	2e01060e 	cfmadd32cs	mvax0, mvfx0, mvfx1, mvfx14
    21a4:	2e2e1605 	cfmadda32cs	mvax0, mvax1, mvfx14, mvfx5
    21a8:	03060505 	movweq	r0, #25861	; 0x6505
    21ac:	010100d6 	ldrdeq	r0, [r1, -r6]
    21b0:	9f031805 	svcls	0x00031805
    21b4:	0505017f 	streq	r0, [r5, #-383]	; 0xfffffe81
    21b8:	06190513 			; <UNDEFINED> instruction: 0x06190513
    21bc:	05052e01 	streq	r2, [r5, #-3585]	; 0xfffff1ff
    21c0:	0100e003 	tsteq	r0, r3
    21c4:	02040200 	andeq	r0, r4, #0, 4
    21c8:	02004a06 	andeq	r4, r0, #24576	; 0x6000
    21cc:	05140204 	ldreq	r0, [r4, #-516]	; 0xfffffdfc
    21d0:	0402000a 	streq	r0, [r2], #-10
    21d4:	05010602 	streq	r0, [r1, #-1538]	; 0xfffff9fe
    21d8:	04020005 	streq	r0, [r2], #-5
    21dc:	054b0602 	strbeq	r0, [fp, #-1538]	; 0xfffff9fe
    21e0:	0402000c 	streq	r0, [r2], #-12
    21e4:	05010602 	streq	r0, [r1, #-1538]	; 0xfffff9fe
    21e8:	04020001 	streq	r0, [r2], #-1
    21ec:	05052f02 	streq	r2, [r5, #-3842]	; 0xfffff0fe
    21f0:	01040200 	mrseq	r0, R12_usr
    21f4:	4a730306 	bmi	1cc2e14 <__bss_end__+0x1cb8074>
    21f8:	01040200 	mrseq	r0, R12_usr
    21fc:	04020001 	streq	r0, [r2], #-1
    2200:	009e0601 	addseq	r0, lr, r1, lsl #12
    2204:	2e010402 	cdpcs	4, 0, cr0, cr1, cr2, {0}
    2208:	01040200 	mrseq	r0, R12_usr
    220c:	02002e06 	andeq	r2, r0, #96	; 0x60
    2210:	002f0104 	eoreq	r0, pc, r4, lsl #2
    2214:	2e010402 	cdpcs	4, 0, cr0, cr1, cr2, {0}
    2218:	01040200 	mrseq	r0, R12_usr
    221c:	7fb103d6 	svcvc	0x00b103d6
    2220:	8206012e 	andhi	r0, r6, #-2147483637	; 0x8000000b
    2224:	2e062e2e 	cdpcs	14, 0, cr2, cr6, cr14, {1}
    2228:	02002e06 	andeq	r2, r0, #96	; 0x60
    222c:	03060104 	movweq	r0, #24836	; 0x6104
    2230:	000100d7 	ldrdeq	r0, [r1], -r7
    2234:	2e010402 	cdpcs	4, 0, cr0, cr1, cr2, {0}
    2238:	01040200 	mrseq	r0, R12_usr
    223c:	081505d6 	ldmdaeq	r5, {r1, r2, r4, r6, r7, r8, sl}
    2240:	0117057b 	tsteq	r7, fp, ror r5
    2244:	05311605 	ldreq	r1, [r1, #-1541]!	; 0xfffff9fb
    2248:	1d050118 	stfnes	f0, [r5, #-96]	; 0xffffffa0
    224c:	2b050106 	blcs	14266c <__bss_end__+0x1378cc>
    2250:	06190566 	ldreq	r0, [r9], -r6, ror #10
    2254:	1305054d 	movwne	r0, #21837	; 0x554d
    2258:	01060c05 	tsteq	r6, r5, lsl #24
    225c:	054a0705 	strbeq	r0, [sl, #-1797]	; 0xfffff8fb
    2260:	04020025 	streq	r0, [r2], #-37	; 0xffffffdb
    2264:	1e054a01 	vmlane.f32	s8, s10, s2
    2268:	01040200 	mrseq	r0, R12_usr
    226c:	0609054a 	streq	r0, [r9], -sl, asr #10
    2270:	1305054b 	movwne	r0, #21835	; 0x554b
    2274:	01060a05 	tsteq	r6, r5, lsl #20
    2278:	05631905 	strbeq	r1, [r3, #-2309]!	; 0xfffff6fb
    227c:	014c0609 	cmpeq	ip, r9, lsl #12
    2280:	2e069e06 	cdpcs	14, 0, cr9, cr6, cr6, {0}
    2284:	01000a02 	tsteq	r0, r2, lsl #20
    2288:	00028901 	andeq	r8, r2, r1, lsl #18
    228c:	c9000300 	stmdbgt	r0, {r8, r9}
    2290:	02000000 	andeq	r0, r0, #0, 0
    2294:	0d0efb01 	vstreq	d15, [lr, #-4]
    2298:	01010100 	mrseq	r0, (UNDEF: 17)
    229c:	00000001 	andeq	r0, r0, r1
    22a0:	01000001 	tsteq	r0, r1
    22a4:	72732f2e 	rsbsvc	r2, r3, #184	; 0xb8
    22a8:	552f0063 	strpl	r0, [pc, #-99]!	; 224d <__code_start__-0x5db3>
    22ac:	73726573 	cmnvc	r2, #482344960	; 0x1cc00000
    22b0:	6c696d2f 	stclvs	13, cr6, [r9], #-188	; 0xffffff44
    22b4:	532f7365 			; <UNDEFINED> instruction: 0x532f7365
    22b8:	6372756f 	cmnvs	r2, #465567744	; 0x1bc00000
    22bc:	73632f65 	cmnvc	r3, #404	; 0x194
    22c0:	6c303432 	cfldrsvs	mvf3, [r0], #-200	; 0xffffff38
    22c4:	696c2f78 	stmdbvs	ip!, {r3, r4, r5, r6, r8, r9, sl, fp, sp}^
    22c8:	2f697062 	svccs	0x00697062
    22cc:	6c636e69 	stclvs	14, cr6, [r3], #-420	; 0xfffffe5c
    22d0:	00656475 	rsbeq	r6, r5, r5, ror r4
    22d4:	74706f2f 	ldrbtvc	r6, [r0], #-3887	; 0xfffff0d1
    22d8:	6d6f682f 	stclvs	8, cr6, [pc, #-188]!	; 2224 <__code_start__-0x5ddc>
    22dc:	65726265 	ldrbvs	r6, [r2, #-613]!	; 0xfffffd9b
    22e0:	65432f77 	strbvs	r2, [r3, #-3959]	; 0xfffff089
    22e4:	72616c6c 	rsbvc	r6, r1, #108, 24	; 0x6c00
    22e8:	6d72612f 	ldfvse	f6, [r2, #-188]!	; 0xffffff44
    22ec:	6e6f6e2d 	cdpvs	14, 6, cr6, cr15, cr13, {1}
    22f0:	61652d65 	cmnvs	r5, r5, ror #26
    22f4:	392d6962 	pushcc	{r1, r5, r6, r8, fp, sp, lr}
    22f8:	322d392f 	eorcc	r3, sp, #770048	; 0xbc000
    22fc:	71393130 	teqvc	r9, r0, lsr r1
    2300:	73632d34 	cmnvc	r3, #52, 26	; 0xd00
    2304:	65373031 	ldrvs	r3, [r7, #-49]!	; 0xffffffcf
    2308:	62696c2f 	rsbvs	r6, r9, #12032	; 0x2f00
    230c:	6363672f 	cmnvs	r3, #12320768	; 0xbc0000
    2310:	6d72612f 	ldfvse	f6, [r2, #-188]!	; 0xffffff44
    2314:	6e6f6e2d 	cdpvs	14, 6, cr6, cr15, cr13, {1}
    2318:	61652d65 	cmnvs	r5, r5, ror #26
    231c:	392f6962 	stmdbcc	pc!, {r1, r5, r6, r8, fp, sp, lr}	; <UNPREDICTABLE>
    2320:	312e322e 			; <UNDEFINED> instruction: 0x312e322e
    2324:	636e692f 	cmnvs	lr, #770048	; 0xbc000
    2328:	6564756c 	strbvs	r7, [r4, #-1388]!	; 0xfffffa94
    232c:	70670000 	rsbvc	r0, r7, r0
    2330:	632e6f69 			; <UNDEFINED> instruction: 0x632e6f69
    2334:	00000100 	andeq	r0, r0, r0, lsl #2
    2338:	2e697072 	mcrcs	0, 3, r7, cr9, cr2, {3}
    233c:	00020068 	andeq	r0, r2, r8, rrx
    2340:	64747300 	ldrbtvs	r7, [r4], #-768	; 0xfffffd00
    2344:	2d746e69 	ldclcs	14, cr6, [r4, #-420]!	; 0xfffffe5c
    2348:	2e636367 	cdpcs	3, 6, cr6, cr3, cr7, {3}
    234c:	00030068 	andeq	r0, r3, r8, rrx
    2350:	69706700 	ldmdbvs	r0!, {r8, r9, sl, sp, lr}^
    2354:	00682e6f 	rsbeq	r2, r8, pc, ror #28
    2358:	00000002 	andeq	r0, r0, r2
    235c:	05003805 	streq	r3, [r0, #-2053]	; 0xfffff7fb
    2360:	009e1402 	addseq	r1, lr, r2, lsl #8
    2364:	01270300 			; <UNDEFINED> instruction: 0x01270300
    2368:	05130505 	ldreq	r0, [r3, #-1285]	; 0xfffffafb
    236c:	05010607 	streq	r0, [r1, #-1543]	; 0xfffff9f9
    2370:	05490606 	strbeq	r0, [r9, #-1542]	; 0xfffff9fa
    2374:	07051505 	streq	r1, [r5, -r5, lsl #10]
    2378:	38050106 	stmdacc	r5, {r1, r2, r8}
    237c:	4d07052b 	cfstr32mi	mvfx0, [r7, #-172]	; 0xffffff54
    2380:	30060505 	andcc	r0, r6, r5, lsl #10
    2384:	01061805 	tsteq	r6, r5, lsl #16
    2388:	05671c05 	strbeq	r1, [r7, #-3077]!	; 0xfffff3fb
    238c:	18054a0e 	stmdane	r5, {r1, r2, r3, r9, fp, lr}
    2390:	4d12052d 	cfldr32mi	mvfx0, [r2, #-180]	; 0xffffff4c
    2394:	0e052f2e 	cdpeq	15, 0, cr2, cr5, cr14, {1}
    2398:	0605052a 	streq	r0, [r5], -sl, lsr #10
    239c:	0513142f 	ldreq	r1, [r3, #-1071]	; 0xfffffbd1
    23a0:	05010607 	streq	r0, [r1, #-1543]	; 0xfffff9f9
    23a4:	132f0605 			; <UNDEFINED> instruction: 0x132f0605
    23a8:	052e2e06 	streq	r2, [lr, #-3590]!	; 0xfffff1fa
    23ac:	05051301 	streq	r1, [r5, #-769]	; 0xfffffcff
    23b0:	24052e2d 	strcs	r2, [r5], #-3629	; 0xfffff1d3
    23b4:	02050006 	andeq	r0, r5, #6, 0
    23b8:	00009e74 	andeq	r9, r0, r4, ror lr
    23bc:	13050515 	movwne	r0, #21781	; 0x5515
    23c0:	71030605 	tstvc	r3, r5, lsl #12
    23c4:	13050501 	movwne	r0, #21761	; 0x5501
    23c8:	01060705 	tsteq	r6, r5, lsl #14
    23cc:	49060605 	stmdbmi	r6, {r0, r2, r9, sl}
    23d0:	14150505 	ldrne	r0, [r5], #-1285	; 0xfffffafb
    23d4:	03062405 	movweq	r2, #25605	; 0x6405
    23d8:	18050109 	stmdane	r5, {r0, r3, r8}
    23dc:	052e7703 	streq	r7, [lr, #-1795]!	; 0xfffff8fd
    23e0:	0e05671c 	mcreq	7, 0, r6, cr5, cr12, {0}
    23e4:	2d18054a 	cfldr32cs	mvfx0, [r8, #-296]	; 0xfffffed8
    23e8:	2e4d1205 	cdpcs	2, 4, cr1, cr13, cr5, {0}
    23ec:	2f0f052f 	svccs	0x000f052f
    23f0:	05290e05 	streq	r0, [r9, #-3589]!	; 0xfffff1fb
    23f4:	142f0605 	strtne	r0, [pc], #-1541	; 23fc <__code_start__-0x5c04>
    23f8:	06070513 			; <UNDEFINED> instruction: 0x06070513
    23fc:	06050501 	streq	r0, [r5], -r1, lsl #10
    2400:	2e06132f 	cdpcs	3, 0, cr1, cr6, cr15, {1}
    2404:	05330105 	ldreq	r0, [r3, #-261]!	; 0xfffffefb
    2408:	052e2905 	streq	r2, [lr, #-2309]!	; 0xfffff6fb
    240c:	05000627 	streq	r0, [r0, #-1575]	; 0xfffff9d9
    2410:	009ecc02 	addseq	ip, lr, r2, lsl #24
    2414:	05051a00 	streq	r1, [r5, #-2560]	; 0xfffff600
    2418:	06270513 			; <UNDEFINED> instruction: 0x06270513
    241c:	2f180511 	svccs	0x00180511
    2420:	2e2e0505 	cfsh64cs	mvdx0, mvdx14, #5
    2424:	0628054a 	strteq	r0, [r8], -sl, asr #10
    2428:	e4020500 	str	r0, [r2], #-1280	; 0xfffffb00
    242c:	1600009e 			; <UNDEFINED> instruction: 0x1600009e
    2430:	05130505 	ldreq	r0, [r3, #-1285]	; 0xfffffafb
    2434:	05110628 	ldreq	r0, [r1, #-1576]	; 0xfffff9d8
    2438:	05052f18 	streq	r2, [r5, #-3864]	; 0xfffff0e8
    243c:	054a2e2e 	strbeq	r2, [sl, #-3630]	; 0xfffff1d2
    2440:	05000623 	streq	r0, [r0, #-1571]	; 0xfffff9dd
    2444:	009efc02 	addseq	pc, lr, r2, lsl #24
    2448:	05051600 	streq	r1, [r5, #-1536]	; 0xfffffa00
    244c:	03060513 	movweq	r0, #25875	; 0x6513
    2450:	05050162 	streq	r0, [r5, #-354]	; 0xfffffe9e
    2454:	06070513 			; <UNDEFINED> instruction: 0x06070513
    2458:	06060501 	streq	r0, [r6], -r1, lsl #10
    245c:	15050549 	strne	r0, [r5, #-1353]	; 0xfffffab7
    2460:	23051314 	movwcs	r1, #21268	; 0x5314
    2464:	01170306 	tsteq	r7, r6, lsl #6
    2468:	69032205 	stmdbvs	r3, {r0, r2, r9, sp}
    246c:	821c052e 	andshi	r0, ip, #192937984	; 0xb800000
    2470:	2e0e052e 	cfsh32cs	mvfx0, mvfx14, #30
    2474:	30060505 	andcc	r0, r6, r5, lsl #10
    2478:	01061205 	tsteq	r6, r5, lsl #4
    247c:	05052d4b 	streq	r2, [r5, #-3403]	; 0xfffff2b5
    2480:	13132f06 	tstne	r3, #6, 30
    2484:	03061805 	movweq	r1, #26629	; 0x6805
    2488:	0e05017a 	mcreq	1, 0, r0, cr5, cr10, {3}
    248c:	3405054a 	strcc	r0, [r5], #-1354	; 0xfffffab6
    2490:	0301052e 	movweq	r0, #5422	; 0x152e
    2494:	05052e14 	streq	r2, [r5, #-3604]	; 0xfffff1ec
    2498:	2e2e6c03 	cdpcs	12, 2, cr6, cr14, cr3, {0}
    249c:	00062b05 	andeq	r2, r6, r5, lsl #22
    24a0:	9f540205 	svcls	0x00540205
    24a4:	17030000 	strne	r0, [r3, -r0]
    24a8:	13050501 	movwne	r0, #21761	; 0x5501
    24ac:	01060705 	tsteq	r6, r5, lsl #14
    24b0:	71031805 	tstvc	r3, r5, lsl #16
    24b4:	032b052e 			; <UNDEFINED> instruction: 0x032b052e
    24b8:	07052e0e 	streq	r2, [r5, -lr, lsl #28]
    24bc:	0609052f 	streq	r0, [r9], -pc, lsr #10
    24c0:	030d052f 	movweq	r0, #54575	; 0xd52f
    24c4:	0505016f 	streq	r0, [r5, #-367]	; 0xfffffe91
    24c8:	2e2e0613 	mcrcs	6, 1, r0, cr14, cr3, {0}
    24cc:	0609052e 	streq	r0, [r9], -lr, lsr #10
    24d0:	05011203 	streq	r1, [r1, #-515]	; 0xfffffdfd
    24d4:	0172030d 	cmneq	r2, sp, lsl #6
    24d8:	06130505 	ldreq	r0, [r3], -r5, lsl #10
    24dc:	1d052e2e 	stcne	14, cr2, [r5, #-184]	; 0xffffff48
    24e0:	66100306 	ldrvs	r0, [r0], -r6, lsl #6
    24e4:	05130505 	ldreq	r0, [r3, #-1285]	; 0xfffffafb
    24e8:	2e11061d 	mrccs	6, 0, r0, cr1, cr13, {0}
    24ec:	30060505 	andcc	r0, r6, r5, lsl #10
    24f0:	060e0513 			; <UNDEFINED> instruction: 0x060e0513
    24f4:	30170510 	andscc	r0, r7, r0, lsl r5
    24f8:	0502042e 	streq	r0, [r2, #-1070]	; 0xfffffbd2
    24fc:	dd030630 	stcle	6, cr0, [r3, #-192]	; 0xffffff40
    2500:	01042e00 	tsteq	r4, r0, lsl #28
    2504:	03060e05 	movweq	r0, #28165	; 0x6e05
    2508:	05017fa2 	streq	r7, [r1, #-4002]	; 0xfffff05e
    250c:	01052f23 	tsteq	r5, r3, lsr #30
    2510:	0006022f 	andeq	r0, r6, pc, lsr #4
    2514:	009e0101 	addseq	r0, lr, r1, lsl #2
    2518:	00030000 	andeq	r0, r3, r0
    251c:	0000005a 	andeq	r0, r0, sl, asr r0
    2520:	0efb0102 	cdpeq	1, 15, cr0, cr11, cr2, {0}
    2524:	0101000d 	tsteq	r1, sp
    2528:	00000101 	andeq	r0, r0, r1, lsl #2
    252c:	00000100 	andeq	r0, r0, r0, lsl #2
    2530:	6c2f2e01 	stcvs	14, cr2, [pc], #-4	; 2534 <__code_start__-0x5acc>
    2534:	00636269 	rsbeq	r6, r3, r9, ror #4
    2538:	6573552f 	ldrbvs	r5, [r3, #-1327]!	; 0xfffffad1
    253c:	6d2f7372 	stcvs	3, cr7, [pc, #-456]!	; 237c <__code_start__-0x5c84>
    2540:	73656c69 	cmnvc	r5, #26880	; 0x6900
    2544:	756f532f 	strbvc	r5, [pc, #-815]!	; 221d <__code_start__-0x5de3>
    2548:	2f656372 	svccs	0x00656372
    254c:	34327363 	ldrtcc	r7, [r2], #-867	; 0xfffffc9d
    2550:	2f786c30 	svccs	0x00786c30
    2554:	7062696c 	rsbvc	r6, r2, ip, ror #18
    2558:	6e692f69 	cdpvs	15, 6, cr2, cr9, cr9, {3}
    255c:	64756c63 	ldrbtvs	r6, [r5], #-3171	; 0xfffff39d
    2560:	70000065 	andvc	r0, r0, r5, rrx
    2564:	68637475 	stmdavs	r3!, {r0, r2, r4, r5, r6, sl, ip, sp, lr}^
    2568:	632e7261 			; <UNDEFINED> instruction: 0x632e7261
    256c:	00000100 	andeq	r0, r0, r0, lsl #2
    2570:	2e697072 	mcrcs	0, 3, r7, cr9, cr2, {3}
    2574:	00020068 	andeq	r0, r2, r8, rrx
    2578:	24050000 	strcs	r0, [r5], #-0
    257c:	ac020500 	cfstr32ge	mvfx0, [r2], {-0}
    2580:	1400009f 	strne	r0, [r0], #-159	; 0xffffff61
    2584:	05012605 	streq	r2, [r1, #-1541]	; 0xfffff9fb
    2588:	2e010624 	cfmadd32cs	mvax1, mvfx0, mvfx1, mvfx4
    258c:	052e2605 	streq	r2, [lr, #-1541]!	; 0xfffff9fb
    2590:	052e0634 	streq	r0, [lr, #-1588]!	; 0xfffff9cc
    2594:	05010601 	streq	r0, [r1, #-1537]	; 0xfffff9ff
    2598:	054f061b 	strbeq	r0, [pc, #-1563]	; 1f85 <__code_start__-0x607b>
    259c:	11051305 	tstne	r5, r5, lsl #6
    25a0:	01050106 	tsteq	r5, r6, lsl #2
    25a4:	06230567 	strteq	r0, [r3], -r7, ror #10
    25a8:	13050567 	movwne	r0, #21863	; 0x5567
    25ac:	01061105 	tsteq	r6, r5, lsl #2
    25b0:	024b0105 	subeq	r0, fp, #1073741825	; 0x40000001
    25b4:	01010004 	tsteq	r1, r4
    25b8:	000000e2 	andeq	r0, r0, r2, ror #1
    25bc:	00590003 	subseq	r0, r9, r3
    25c0:	01020000 	mrseq	r0, (UNDEF: 2)
    25c4:	000d0efb 	strdeq	r0, [sp], -fp
    25c8:	01010101 	tsteq	r1, r1, lsl #2
    25cc:	01000000 	mrseq	r0, (UNDEF: 0)
    25d0:	2e010000 	cdpcs	0, 0, cr0, cr1, cr0, {0}
    25d4:	62696c2f 	rsbvs	r6, r9, #12032	; 0x2f00
    25d8:	552f0063 	strpl	r0, [pc, #-99]!	; 257d <__code_start__-0x5a83>
    25dc:	73726573 	cmnvc	r2, #482344960	; 0x1cc00000
    25e0:	6c696d2f 	stclvs	13, cr6, [r9], #-188	; 0xffffff44
    25e4:	532f7365 			; <UNDEFINED> instruction: 0x532f7365
    25e8:	6372756f 	cmnvs	r2, #465567744	; 0x1bc00000
    25ec:	73632f65 	cmnvc	r3, #404	; 0x194
    25f0:	6c303432 	cfldrsvs	mvf3, [r0], #-200	; 0xffffff38
    25f4:	696c2f78 	stmdbvs	ip!, {r3, r4, r5, r6, r8, r9, sl, fp, sp}^
    25f8:	2f697062 	svccs	0x00697062
    25fc:	6c636e69 	stclvs	14, cr6, [r3], #-420	; 0xfffffe5c
    2600:	00656475 	rsbeq	r6, r5, r5, ror r4
    2604:	72747300 	rsbsvc	r7, r4, #0, 6
    2608:	2e746163 	rpwcssz	f6, f4, f3
    260c:	00010063 	andeq	r0, r1, r3, rrx
    2610:	69707200 	ldmdbvs	r0!, {r9, ip, sp, lr}^
    2614:	0200682e 	andeq	r6, r0, #3014656	; 0x2e0000
    2618:	05000000 	streq	r0, [r0, #-0]
    261c:	0205002c 	andeq	r0, r5, #44, 0	; 0x2c
    2620:	00009fe8 	andeq	r9, r0, r8, ror #31
    2624:	13050515 	movwne	r0, #21781	; 0x5515
    2628:	060b0513 			; <UNDEFINED> instruction: 0x060b0513
    262c:	00050511 	andeq	r0, r5, r1, lsl r5
    2630:	06010402 	streq	r0, [r1], -r2, lsl #8
    2634:	04020030 	streq	r0, [r2], #-48	; 0xffffffd0
    2638:	09051501 	stmdbeq	r5, {r0, r8, sl, ip}
    263c:	01040200 	mrseq	r0, R12_usr
    2640:	000b0513 	andeq	r0, fp, r3, lsl r5
    2644:	2f010402 	svccs	0x00010402
    2648:	02000505 	andeq	r0, r0, #20971520	; 0x1400000
    264c:	01060104 	tsteq	r6, r4, lsl #2
    2650:	01040200 	mrseq	r0, R12_usr
    2654:	054e062e 	strbeq	r0, [lr, #-1582]	; 0xfffff9d2
    2658:	05010608 	streq	r0, [r1, #-1544]	; 0xfffff9f8
    265c:	04020005 	streq	r0, [r2], #-5
    2660:	052f0601 	streq	r0, [pc, #-1537]!	; 2067 <__code_start__-0x5f99>
    2664:	04020009 	streq	r0, [r2], #-9
    2668:	0b051301 	bleq	147274 <__bss_end__+0x13c4d4>
    266c:	01040200 	mrseq	r0, R12_usr
    2670:	09050106 	stmdbeq	r5, {r1, r2, r8}
    2674:	01040200 	mrseq	r0, R12_usr
    2678:	05052f06 	streq	r2, [r5, #-3846]	; 0xfffff0fa
    267c:	01040200 	mrseq	r0, R12_usr
    2680:	0f051306 	svceq	0x00051306
    2684:	01040200 	mrseq	r0, R12_usr
    2688:	000d052d 	andeq	r0, sp, sp, lsr #10
    268c:	06010402 	streq	r0, [r1], -r2, lsl #8
    2690:	0005052f 	andeq	r0, r5, pc, lsr #10
    2694:	06010402 	streq	r0, [r1], -r2, lsl #8
    2698:	00040201 	andeq	r0, r4, r1, lsl #4
    269c:	00b20101 	adcseq	r0, r2, r1, lsl #2
    26a0:	00030000 	andeq	r0, r3, r0
    26a4:	00000059 	andeq	r0, r0, r9, asr r0
    26a8:	0efb0102 	cdpeq	1, 15, cr0, cr11, cr2, {0}
    26ac:	0101000d 	tsteq	r1, sp
    26b0:	00000101 	andeq	r0, r0, r1, lsl #2
    26b4:	00000100 	andeq	r0, r0, r0, lsl #2
    26b8:	6c2f2e01 	stcvs	14, cr2, [pc], #-4	; 26bc <__code_start__-0x5944>
    26bc:	00636269 	rsbeq	r6, r3, r9, ror #4
    26c0:	6573552f 	ldrbvs	r5, [r3, #-1327]!	; 0xfffffad1
    26c4:	6d2f7372 	stcvs	3, cr7, [pc, #-456]!	; 2504 <__code_start__-0x5afc>
    26c8:	73656c69 	cmnvc	r5, #26880	; 0x6900
    26cc:	756f532f 	strbvc	r5, [pc, #-815]!	; 23a5 <__code_start__-0x5c5b>
    26d0:	2f656372 	svccs	0x00656372
    26d4:	34327363 	ldrtcc	r7, [r2], #-867	; 0xfffffc9d
    26d8:	2f786c30 	svccs	0x00786c30
    26dc:	7062696c 	rsbvc	r6, r2, ip, ror #18
    26e0:	6e692f69 	cdpvs	15, 6, cr2, cr9, cr9, {3}
    26e4:	64756c63 	ldrbtvs	r6, [r5], #-3171	; 0xfffff39d
    26e8:	73000065 	movwvc	r0, #101	; 0x65
    26ec:	6d637274 	sfmvs	f7, 2, [r3, #-464]!	; 0xfffffe30
    26f0:	00632e70 	rsbeq	r2, r3, r0, ror lr
    26f4:	72000001 	andvc	r0, r0, #1, 0
    26f8:	682e6970 	stmdavs	lr!, {r4, r5, r6, r8, fp, sp, lr}
    26fc:	00000200 	andeq	r0, r0, r0, lsl #4
    2700:	002a0500 	eoreq	r0, sl, r0, lsl #10
    2704:	a0140205 	andsge	r0, r4, r5, lsl #4
    2708:	05140000 	ldreq	r0, [r4, #-0]
    270c:	10051309 	andne	r1, r5, r9, lsl #6
    2710:	0f050106 	svceq	0x00050106
    2714:	10052e06 	andne	r2, r5, r6, lsl #28
    2718:	0f058206 	svceq	0x00058206
    271c:	0011052e 	andseq	r0, r1, lr, lsr #10
    2720:	06010402 	streq	r0, [r1], -r2, lsl #8
    2724:	001c054b 	andseq	r0, ip, fp, asr #10
    2728:	06010402 	streq	r0, [r1], -r2, lsl #8
    272c:	000f052d 	andeq	r0, pc, sp, lsr #10
    2730:	06010402 	streq	r0, [r1], -r2, lsl #8
    2734:	0013052e 	andseq	r0, r3, lr, lsr #10
    2738:	06010402 	streq	r0, [r1], -r2, lsl #8
    273c:	06090501 	streq	r0, [r9], -r1, lsl #10
    2740:	0601054c 	streq	r0, [r1], -ip, asr #10
    2744:	09054a13 	stmdbeq	r5, {r0, r1, r4, r9, fp, lr}
    2748:	01052d06 	tsteq	r5, r6, lsl #26
    274c:	022e1306 	eoreq	r1, lr, #402653184	; 0x18000000
    2750:	01010002 	tsteq	r1, r2
    2754:	0000009d 	muleq	r0, sp, r0
    2758:	00590003 	subseq	r0, r9, r3
    275c:	01020000 	mrseq	r0, (UNDEF: 2)
    2760:	000d0efb 	strdeq	r0, [sp], -fp
    2764:	01010101 	tsteq	r1, r1, lsl #2
    2768:	01000000 	mrseq	r0, (UNDEF: 0)
    276c:	2e010000 	cdpcs	0, 0, cr0, cr1, cr0, {0}
    2770:	62696c2f 	rsbvs	r6, r9, #12032	; 0x2f00
    2774:	552f0063 	strpl	r0, [pc, #-99]!	; 2719 <__code_start__-0x58e7>
    2778:	73726573 	cmnvc	r2, #482344960	; 0x1cc00000
    277c:	6c696d2f 	stclvs	13, cr6, [r9], #-188	; 0xffffff44
    2780:	532f7365 			; <UNDEFINED> instruction: 0x532f7365
    2784:	6372756f 	cmnvs	r2, #465567744	; 0x1bc00000
    2788:	73632f65 	cmnvc	r3, #404	; 0x194
    278c:	6c303432 	cfldrsvs	mvf3, [r0], #-200	; 0xffffff38
    2790:	696c2f78 	stmdbvs	ip!, {r3, r4, r5, r6, r8, r9, sl, fp, sp}^
    2794:	2f697062 	svccs	0x00697062
    2798:	6c636e69 	stclvs	14, cr6, [r3], #-420	; 0xfffffe5c
    279c:	00656475 	rsbeq	r6, r5, r5, ror r4
    27a0:	72747300 	rsbsvc	r7, r4, #0, 6
    27a4:	2e797063 	cdpcs	0, 7, cr7, cr9, cr3, {3}
    27a8:	00010063 	andeq	r0, r1, r3, rrx
    27ac:	69707200 	ldmdbvs	r0!, {r9, ip, sp, lr}^
    27b0:	0200682e 	andeq	r6, r0, #3014656	; 0x2e0000
    27b4:	05000000 	streq	r0, [r0, #-0]
    27b8:	0205002a 	andeq	r0, r5, #42, 0	; 0x2a
    27bc:	0000a058 	andeq	sl, r0, r8, asr r0
    27c0:	13050514 	movwne	r0, #21780	; 0x5514
    27c4:	00220513 	eoreq	r0, r2, r3, lsl r5
    27c8:	2e010402 	cdpcs	4, 0, cr0, cr1, cr2, {0}
    27cc:	02000b05 	andeq	r0, r0, #5120	; 0x1400
    27d0:	05010104 	streq	r0, [r1, #-260]	; 0xfffffefc
    27d4:	04020015 	streq	r0, [r2], #-21	; 0xffffffeb
    27d8:	05010601 	streq	r0, [r1, #-1537]	; 0xfffff9ff
    27dc:	0402000b 	streq	r0, [r2], #-11
    27e0:	13052e01 	movwne	r2, #24065	; 0x5e01
    27e4:	01040200 	mrseq	r0, R12_usr
    27e8:	000b052e 	andeq	r0, fp, lr, lsr #10
    27ec:	2e010402 	cdpcs	4, 0, cr0, cr1, cr2, {0}
    27f0:	01000402 	tsteq	r0, r2, lsl #8
    27f4:	0000fd01 	andeq	pc, r0, r1, lsl #26
    27f8:	bf000300 	svclt	0x00000300
    27fc:	02000000 	andeq	r0, r0, #0, 0
    2800:	0d0efb01 	vstreq	d15, [lr, #-4]
    2804:	01010100 	mrseq	r0, (UNDEF: 17)
    2808:	00000001 	andeq	r0, r0, r1
    280c:	01000001 	tsteq	r0, r1
    2810:	696c2f2e 	stmdbvs	ip!, {r1, r2, r3, r5, r8, r9, sl, fp, sp}^
    2814:	2f006362 	svccs	0x00006362
    2818:	72657355 	rsbvc	r7, r5, #1409286145	; 0x54000001
    281c:	696d2f73 	stmdbvs	sp!, {r0, r1, r4, r5, r6, r8, r9, sl, fp, sp}^
    2820:	2f73656c 	svccs	0x0073656c
    2824:	72756f53 	rsbsvc	r6, r5, #332	; 0x14c
    2828:	632f6563 			; <UNDEFINED> instruction: 0x632f6563
    282c:	30343273 	eorscc	r3, r4, r3, ror r2
    2830:	6c2f786c 	stcvs	8, cr7, [pc], #-432	; 2688 <__code_start__-0x5978>
    2834:	69706269 	ldmdbvs	r0!, {r0, r3, r5, r6, r9, sp, lr}^
    2838:	636e692f 	cmnvs	lr, #770048	; 0xbc000
    283c:	6564756c 	strbvs	r7, [r4, #-1388]!	; 0xfffffa94
    2840:	706f2f00 	rsbvc	r2, pc, r0, lsl #30
    2844:	6f682f74 	svcvs	0x00682f74
    2848:	7262656d 	rsbvc	r6, r2, #457179136	; 0x1b400000
    284c:	432f7765 			; <UNDEFINED> instruction: 0x432f7765
    2850:	616c6c65 	cmnvs	ip, r5, ror #24
    2854:	72612f72 	rsbvc	r2, r1, #456	; 0x1c8
    2858:	6f6e2d6d 	svcvs	0x006e2d6d
    285c:	652d656e 	strvs	r6, [sp, #-1390]!	; 0xfffffa92
    2860:	2d696261 	sfmcs	f6, 2, [r9, #-388]!	; 0xfffffe7c
    2864:	2d392f39 	ldccs	15, cr2, [r9, #-228]!	; 0xffffff1c
    2868:	39313032 	ldmdbcc	r1!, {r1, r4, r5, ip, sp}
    286c:	632d3471 			; <UNDEFINED> instruction: 0x632d3471
    2870:	37303173 			; <UNDEFINED> instruction: 0x37303173
    2874:	696c2f65 	stmdbvs	ip!, {r0, r2, r5, r6, r8, r9, sl, fp, sp}^
    2878:	63672f62 	cmnvs	r7, #392	; 0x188
    287c:	72612f63 	rsbvc	r2, r1, #396	; 0x18c
    2880:	6f6e2d6d 	svcvs	0x006e2d6d
    2884:	652d656e 	strvs	r6, [sp, #-1390]!	; 0xfffffa92
    2888:	2f696261 	svccs	0x00696261
    288c:	2e322e39 	mrccs	14, 1, r2, cr2, cr9, {1}
    2890:	6e692f31 	mcrvs	15, 3, r2, cr9, cr1, {1}
    2894:	64756c63 	ldrbtvs	r6, [r5], #-3171	; 0xfffff39d
    2898:	73000065 	movwvc	r0, #101	; 0x65
    289c:	636e7274 	cmnvs	lr, #116, 4	; 0x40000007
    28a0:	632e706d 			; <UNDEFINED> instruction: 0x632e706d
    28a4:	00000100 	andeq	r0, r0, r0, lsl #2
    28a8:	2e697072 	mcrcs	0, 3, r7, cr9, cr2, {3}
    28ac:	00020068 	andeq	r0, r2, r8, rrx
    28b0:	64747300 	ldrbtvs	r7, [r4], #-768	; 0xfffffd00
    28b4:	2e666564 	cdpcs	5, 6, cr6, cr6, cr4, {3}
    28b8:	00030068 	andeq	r0, r3, r8, rrx
    28bc:	39050000 	stmdbcc	r5, {}	; <UNPREDICTABLE>
    28c0:	70020500 	andvc	r0, r2, r0, lsl #10
    28c4:	150000a0 	strne	r0, [r0, #-160]	; 0xffffff60
    28c8:	13130505 	tstne	r3, #20971520	; 0x1400000
    28cc:	2e060a05 	vmlacs.f32	s0, s12, s10
    28d0:	052f0c05 	streq	r0, [pc, #-3077]!	; 1cd3 <__code_start__-0x632d>
    28d4:	0b052e13 	bleq	14e128 <__bss_end__+0x143388>
    28d8:	0609052e 	streq	r0, [r9], -lr, lsr #10
    28dc:	110a054a 	tstne	sl, sl, asr #10
    28e0:	0c050106 	stfeqs	f0, [r5], {6}
    28e4:	2f01054e 	svccs	0x0001054e
    28e8:	2b060d05 	blcs	185d04 <__bss_end__+0x17af64>
    28ec:	01061b05 	tsteq	r6, r5, lsl #22
    28f0:	0002022e 	andeq	r0, r2, lr, lsr #4
    28f4:	008a0101 	addeq	r0, sl, r1, lsl #2
    28f8:	00030000 	andeq	r0, r3, r0
    28fc:	0000006e 	andeq	r0, r0, lr, rrx
    2900:	0efb0102 	cdpeq	1, 15, cr0, cr11, cr2, {0}
    2904:	0101000d 	tsteq	r1, sp
    2908:	00000101 	andeq	r0, r0, r1, lsl #2
    290c:	00000100 	andeq	r0, r0, r0, lsl #2
    2910:	732f2e01 			; <UNDEFINED> instruction: 0x732f2e01
    2914:	66666174 			; <UNDEFINED> instruction: 0x66666174
    2918:	6372732d 	cmnvs	r2, #-1275068416	; 0xb4000000
    291c:	73552f00 	cmpvc	r5, #0, 30
    2920:	2f737265 	svccs	0x00737265
    2924:	656c696d 	strbvs	r6, [ip, #-2413]!	; 0xfffff693
    2928:	6f532f73 	svcvs	0x00532f73
    292c:	65637275 	strbvs	r7, [r3, #-629]!	; 0xfffffd8b
    2930:	3273632f 	rsbscc	r6, r3, #-1140850688	; 0xbc000000
    2934:	786c3034 	stmdavc	ip!, {r2, r4, r5, ip, sp}^
    2938:	62696c2f 	rsbvs	r6, r9, #12032	; 0x2f00
    293c:	692f6970 	stmdbvs	pc!, {r4, r5, r6, r8, fp, sp, lr}	; <UNPREDICTABLE>
    2940:	756c636e 	strbvc	r6, [ip, #-878]!	; 0xfffffc92
    2944:	00006564 	andeq	r6, r0, r4, ror #10
    2948:	61666564 	cmnvs	r6, r4, ror #10
    294c:	2d746c75 	ldclcs	12, cr6, [r4, #-468]!	; 0xfffffe2c
    2950:	6f626572 	svcvs	0x00626572
    2954:	632d746f 			; <UNDEFINED> instruction: 0x632d746f
    2958:	6f6c6c61 	svcvs	0x006c6c61
    295c:	632e7475 			; <UNDEFINED> instruction: 0x632e7475
    2960:	00000100 	andeq	r0, r0, r0, lsl #2
    2964:	2e697072 	mcrcs	0, 3, r7, cr9, cr2, {3}
    2968:	00020068 	andeq	r0, r2, r8, rrx
    296c:	1b050000 	blne	142974 <__bss_end__+0x137bd4>
    2970:	a0020500 	andge	r0, r2, r0, lsl #10
    2974:	140000a0 	strne	r0, [r0], #-160	; 0xffffff60
    2978:	05011c05 	streq	r1, [r1, #-3077]	; 0xfffff3fb
    297c:	02010601 	andeq	r0, r1, #1048576	; 0x100000
    2980:	01010002 	tsteq	r1, r2

Disassembly of section .debug_str:

00000000 <.debug_str>:
   0:	765f6b63 	ldrbvc	r6, [pc], -r3, ror #22
   4:	6f627265 	svcvs	0x00627265
   8:	705f6573 	subsvc	r6, pc, r3, ror r5	; <UNPREDICTABLE>
   c:	72646800 	rsbvc	r6, r4, #0, 16
  10:	6e00745f 	cfmvsrvs	mvf0, r7
  14:	00747865 	rsbseq	r7, r4, r5, ror #16
  18:	6c616b63 			; <UNDEFINED> instruction: 0x6c616b63
  1c:	00636f6c 	rsbeq	r6, r3, ip, ror #30
  20:	74617473 	strbtvc	r7, [r1], #-1139	; 0xfffffb8d
  24:	696c0065 	stmdbvs	ip!, {r0, r2, r5, r6}^
  28:	6f6e656e 	svcvs	0x006e656e
  2c:	5f6b6300 	svcpl	0x006b6300
  30:	646e6966 	strbtvs	r6, [lr], #-2406	; 0xfffff69a
  34:	61656c5f 	cmnvs	r5, pc, asr ip
  38:	6e00736b 	cdpvs	3, 0, cr7, cr0, cr11, {3}
  3c:	616d746f 	cmnvs	sp, pc, ror #8
  40:	6e006e69 	cdpvs	14, 0, cr6, cr0, cr9, {3}
  44:	65747962 	ldrbvs	r7, [r4, #-2402]!	; 0xfffff69e
  48:	6c615f73 	stclvs	15, cr5, [r1], #-460	; 0xfffffe34
  4c:	00636f6c 	rsbeq	r6, r3, ip, ror #30
  50:	656c6966 	strbvs	r6, [ip, #-2406]!	; 0xfffff69a
  54:	736e7500 	cmnvc	lr, #0, 10
  58:	656e6769 	strbvs	r6, [lr, #-1897]!	; 0xfffff897
  5c:	68632064 	stmdavs	r3!, {r2, r5, r6, sp}^
  60:	63007261 	movwvs	r7, #609	; 0x261
  64:	6e61656c 	cdpvs	5, 6, cr6, cr1, cr12, {3}
  68:	6265725f 	rsbvs	r7, r5, #-268435451	; 0xf0000005
  6c:	00746f6f 	rsbseq	r6, r4, pc, ror #30
  70:	726f6873 	rsbvc	r6, pc, #7536640	; 0x730000
  74:	6e752074 	mrcvs	0, 3, r2, cr5, cr4, {3}
  78:	6e676973 			; <UNDEFINED> instruction: 0x6e676973
  7c:	69206465 	stmdbvs	r0!, {r0, r2, r5, r6, sl, sp, lr}
  80:	6300746e 	movwvs	r7, #1134	; 0x46e
  84:	64685f6b 	strbtvs	r5, [r8], #-3947	; 0xfffff095
  88:	72730072 	rsbsvc	r0, r3, #114, 0	; 0x72
  8c:	6f6c5f63 	svcvs	0x006c5f63
  90:	6b6d5f63 	blvs	1b57e24 <__bss_end__+0x1b4d084>
  94:	6d656d00 	stclvs	13, cr6, [r5, #-0]
  98:	00746573 	rsbseq	r6, r4, r3, ror r5
  9c:	625f6b63 	subsvs	r6, pc, #101376	; 0x18c00
  a0:	695f6b6c 	ldmdbvs	pc, {r2, r3, r5, r6, r8, r9, fp, sp, lr}^	; <UNPREDICTABLE>
  a4:	75660064 	strbvc	r0, [r6, #-100]!	; 0xffffff9c
  a8:	5f00636e 	svcpl	0x0000636e
  ac:	4e55465f 	mrcmi	6, 2, r4, cr5, cr15, {2}
  b0:	4f495443 	svcmi	0x00495443
  b4:	005f5f4e 	subseq	r5, pc, lr, asr #30
  b8:	74736574 	ldrbtvc	r6, [r3], #-1396	; 0xfffffa8c
  bc:	6c620031 	stclvs	0, cr0, [r2], #-196	; 0xffffff3c
  c0:	5f6b636f 	svcpl	0x006b636f
  c4:	74006469 	strvc	r6, [r0], #-1129	; 0xfffffb97
  c8:	73747365 	cmnvc	r4, #-1811939327	; 0x94000001
  cc:	302e322d 	eorcc	r3, lr, sp, lsr #4
  d0:	7261702f 	rsbvc	r7, r1, #47, 0	; 0x2f
  d4:	742d3274 	strtvc	r3, [sp], #-628	; 0xfffffd8c
  d8:	31747365 	cmncc	r4, r5, ror #6
  dc:	2d6f6e2d 	stclcs	14, cr6, [pc, #-180]!	; 30 <__code_start__-0x7fd0>
  e0:	6b61656c 	blvs	1859698 <__bss_end__+0x184e8f8>
  e4:	6c00632e 	stcvs	3, cr6, [r0], {46}	; 0x2e
  e8:	20676e6f 	rsbcs	r6, r7, pc, ror #28
  ec:	676e6f6c 	strbvs	r6, [lr, -ip, ror #30]!
  f0:	736e7520 	cmnvc	lr, #32, 10	; 0x8000000
  f4:	656e6769 	strbvs	r6, [lr, #-1897]!	; 0xfffff897
  f8:	6e692064 	cdpvs	0, 6, cr2, cr9, cr4, {3}
  fc:	69750074 	ldmdbvs	r5!, {r2, r4, r5, r6}^
 100:	5f38746e 	svcpl	0x0038746e
 104:	6c610074 	stclvs	0, cr0, [r1], #-464	; 0xfffffe30
 108:	5f636f6c 	svcpl	0x00636f6c
 10c:	00636f6c 	rsbeq	r6, r3, ip, ror #30
 110:	676e6f6c 	strbvs	r6, [lr, -ip, ror #30]!
 114:	6e6f6c20 	cdpvs	12, 6, cr6, cr15, cr0, {1}
 118:	6e692067 	cdpvs	0, 6, cr2, cr9, cr7, {3}
 11c:	552f0074 	strpl	r0, [pc, #-116]!	; b0 <__code_start__-0x7f50>
 120:	73726573 	cmnvc	r2, #482344960	; 0x1cc00000
 124:	6c696d2f 	stclvs	13, cr6, [r9], #-188	; 0xffffff44
 128:	532f7365 			; <UNDEFINED> instruction: 0x532f7365
 12c:	6372756f 	cmnvs	r2, #465567744	; 0x1bc00000
 130:	73632f65 	cmnvc	r3, #404	; 0x194
 134:	6c303432 	cfldrsvs	mvf3, [r0], #-200	; 0xffffff38
 138:	616c2f78 	smcvs	49912	; 0xc2f8
 13c:	352f7362 	strcc	r7, [pc, #-866]!	; fffffde2 <__bss_end__+0xffff5042>
 140:	6c616d2d 	stclvs	13, cr6, [r1], #-180	; 0xffffff4c
 144:	2b636f6c 	blcs	18dbefc <__bss_end__+0x18d115c>
 148:	632f6367 			; <UNDEFINED> instruction: 0x632f6367
 14c:	0065646f 	rsbeq	r6, r5, pc, ror #8
 150:	20554e47 	subscs	r4, r5, r7, asr #28
 154:	20393943 	eorscs	r3, r9, r3, asr #18
 158:	2e322e39 	mrccs	14, 1, r2, cr2, cr9, {1}
 15c:	30322031 	eorscc	r2, r2, r1, lsr r0
 160:	30313931 	eorscc	r3, r1, r1, lsr r9
 164:	28203532 	stmdacs	r0!, {r1, r4, r5, r8, sl, ip, sp}
 168:	656c6572 	strbvs	r6, [ip, #-1394]!	; 0xfffffa8e
 16c:	29657361 	stmdbcs	r5!, {r0, r5, r6, r8, r9, ip, sp, lr}^
 170:	52415b20 	subpl	r5, r1, #32, 22	; 0x8000
 174:	72612f4d 	rsbvc	r2, r1, #308	; 0x134
 178:	2d392d6d 	ldccs	13, cr2, [r9, #-436]!	; 0xfffffe4c
 17c:	6e617262 	cdpvs	2, 6, cr7, cr1, cr2, {3}
 180:	72206863 	eorvc	r6, r0, #6488064	; 0x630000
 184:	73697665 	cmnvc	r9, #105906176	; 0x6500000
 188:	206e6f69 	rsbcs	r6, lr, r9, ror #30
 18c:	35373732 	ldrcc	r3, [r7, #-1842]!	; 0xfffff8ce
 190:	205d3939 	subscs	r3, sp, r9, lsr r9
 194:	70636d2d 	rsbvc	r6, r3, sp, lsr #26
 198:	72613d75 	rsbvc	r3, r1, #7488	; 0x1d40
 19c:	3731316d 	ldrcc	r3, [r1, -sp, ror #2]!
 1a0:	667a6a36 			; <UNDEFINED> instruction: 0x667a6a36
 1a4:	2d20732d 	stccs	3, cr7, [r0, #-180]!	; 0xffffff4c
 1a8:	6e75746d 	cdpvs	4, 7, cr7, cr5, cr13, {3}
 1ac:	72613d65 	rsbvc	r3, r1, #6464	; 0x1940
 1b0:	3731316d 	ldrcc	r3, [r1, -sp, ror #2]!
 1b4:	667a6a36 			; <UNDEFINED> instruction: 0x667a6a36
 1b8:	2d20732d 	stccs	3, cr7, [r0, #-180]!	; 0xffffff4c
 1bc:	6f6c666d 	svcvs	0x006c666d
 1c0:	612d7461 			; <UNDEFINED> instruction: 0x612d7461
 1c4:	733d6962 	teqvc	sp, #1605632	; 0x188000
 1c8:	2074666f 	rsbscs	r6, r4, pc, ror #12
 1cc:	72616d2d 	rsbvc	r6, r1, #2880	; 0xb40
 1d0:	6d2d206d 	stcvs	0, cr2, [sp, #-436]!	; 0xfffffe4c
 1d4:	68637261 	stmdavs	r3!, {r0, r5, r6, r9, ip, sp, lr}^
 1d8:	6d72613d 	ldfvse	f6, [r2, #-244]!	; 0xffffff0c
 1dc:	7a6b3676 	bvc	1acdbbc <__bss_end__+0x1ac2e1c>
 1e0:	67672d20 	strbvs	r2, [r7, -r0, lsr #26]!
 1e4:	2d206264 	sfmcs	f6, 4, [r0, #-400]!	; 0xfffffe70
 1e8:	732d204f 			; <UNDEFINED> instruction: 0x732d204f
 1ec:	673d6474 			; <UNDEFINED> instruction: 0x673d6474
 1f0:	3939756e 	ldmdbcc	r9!, {r1, r2, r3, r5, r6, r8, sl, ip, sp, lr}
 1f4:	66662d20 	strbtvs	r2, [r6], -r0, lsr #26
 1f8:	73656572 	cmnvc	r5, #478150656	; 0x1c800000
 1fc:	646e6174 	strbtvs	r6, [lr], #-372	; 0xfffffe8c
 200:	00676e69 	rsbeq	r6, r7, r9, ror #28
 204:	72666b63 	rsbvc	r6, r6, #101376	; 0x18c00
 208:	73006565 	movwvc	r6, #1381	; 0x565
 20c:	74726f68 	ldrbtvc	r6, [r2], #-3944	; 0xfffff098
 210:	746e6920 	strbtvc	r6, [lr], #-2336	; 0xfffff6e0
 214:	63727300 	cmnvs	r2, #0, 6
 218:	636f6c5f 	cmnvs	pc, #24320	; 0x5f00
 21c:	7500745f 	strvc	r7, [r0, #-1119]	; 0xfffffba1
 220:	31746e69 	cmncc	r4, r9, ror #28
 224:	00745f36 	rsbseq	r5, r4, r6, lsr pc
 228:	746e6975 	strbtvc	r6, [lr], #-2421	; 0xfffff68b
 22c:	745f3233 	ldrbvc	r3, [pc], #-563	; 234 <__code_start__-0x7dcc>
 230:	69707200 	ldmdbvs	r0!, {r9, ip, sp, lr}^
 234:	7475705f 	ldrbtvc	r7, [r5], #-95	; 0xffffffa1
 238:	72616863 	rsbvc	r6, r1, #6488064	; 0x630000
 23c:	66657200 	strbtvs	r7, [r5], -r0, lsl #4
 240:	74735f73 	ldrbtvc	r5, [r3], #-3955	; 0xfffff08d
 244:	00747261 	rsbseq	r7, r4, r1, ror #4
 248:	73666572 	cmnvc	r6, #478150656	; 0x1c800000
 24c:	64696d5f 	strbtvs	r6, [r9], #-3423	; 0xfffff2a1
 250:	00656c64 	rsbeq	r6, r5, r4, ror #24
 254:	705f6b63 	subsvc	r6, pc, r3, ror #22
 258:	695f7274 	ldmdbvs	pc, {r2, r4, r5, r6, r9, ip, sp, lr}^	; <UNPREDICTABLE>
 25c:	6c625f6e 	stclvs	15, cr5, [r2], #-440	; 0xfffffe48
 260:	006b636f 	rsbeq	r6, fp, pc, ror #6
 264:	45455246 	strbmi	r5, [r5, #-582]	; 0xfffffdba
 268:	45520044 	ldrbmi	r0, [r2, #-68]	; 0xffffffbc
 26c:	4e4f5a44 	vmlsmi.f32	s11, s30, s8
 270:	41565f45 	cmpmi	r6, r5, asr #30
 274:	726b004c 	rsbvc	r0, fp, #76, 0	; 0x4c
 278:	6572665f 	ldrbvs	r6, [r2, #-1631]!	; 0xfffff9a1
 27c:	45520065 	ldrbmi	r0, [r2, #-101]	; 0xffffff9b
 280:	4e4f5a44 	vmlsmi.f32	s11, s30, s8
 284:	424e5f45 	submi	r5, lr, #276	; 0x114
 288:	53455459 	movtpl	r5, #21593	; 0x5459
 28c:	5f6b6300 	svcpl	0x006b6300
 290:	73726966 	cmnvc	r2, #1671168	; 0x198000
 294:	64685f74 	strbtvs	r5, [r8], #-3956	; 0xfffff08c
 298:	6c610072 	stclvs	0, cr0, [r1], #-456	; 0xfffffe38
 29c:	5f636f6c 	svcpl	0x00636f6c
 2a0:	7473696c 	ldrbtvc	r6, [r3], #-2412	; 0xfffff694
 2a4:	73696c00 	cmnvc	r9, #0, 24
 2a8:	65725f74 	ldrbvs	r5, [r2, #-3956]!	; 0xfffff08c
 2ac:	65766f6d 	ldrbvs	r6, [r6, #-3949]!	; 0xfffff093
 2b0:	5f6b6300 	svcpl	0x006b6300
 2b4:	5f727470 	svcpl	0x00727470
 2b8:	615f7369 	cmpvs	pc, r9, ror #6
 2bc:	636f6c6c 	cmnvs	pc, #108, 24	; 0x6c00
 2c0:	63006465 	movwvs	r6, #1125	; 0x465
 2c4:	656e5f6b 	strbvs	r5, [lr, #-3947]!	; 0xfffff095
 2c8:	685f7478 	ldmdavs	pc, {r3, r4, r5, r6, sl, ip, sp, lr}^	; <UNPREDICTABLE>
 2cc:	63007264 	movwvs	r7, #612	; 0x264
 2d0:	6c6c616b 	stfvse	f6, [ip], #-428	; 0xfffffe54
 2d4:	632e636f 			; <UNDEFINED> instruction: 0x632e636f
 2d8:	4c4c4100 	stfmie	f4, [ip], {-0}
 2dc:	4445434f 	strbmi	r4, [r5], #-847	; 0xfffffcb1
 2e0:	5f6b6300 	svcpl	0x006b6300
 2e4:	5f726468 	svcpl	0x00726468
 2e8:	72617473 	rsbvc	r7, r1, #1929379840	; 0x73000000
 2ec:	6b630074 	blvs	18c04c4 <__bss_end__+0x18b5724>
 2f0:	7264685f 	rsbvc	r6, r4, #6225920	; 0x5f0000
 2f4:	646e655f 	strbtvs	r6, [lr], #-1375	; 0xfffffaa1
 2f8:	65727000 	ldrbvs	r7, [r2, #-0]!
 2fc:	6b630076 	blvs	18c04dc <__bss_end__+0x18b573c>
 300:	79626e5f 	stmdbvc	r2!, {r0, r1, r2, r3, r4, r6, r9, sl, fp, sp, lr}^
 304:	00736574 	rsbseq	r6, r3, r4, ror r5
 308:	6d5f726b 	lfmvs	f7, 2, [pc, #-428]	; 164 <__code_start__-0x7e9c>
 30c:	6f6c6c61 	svcvs	0x006c6c61
 310:	65680063 	strbvs	r0, [r8, #-99]!	; 0xffffff9d
 314:	72656461 	rsbvc	r6, r5, #1627389952	; 0x61000000
 318:	65727000 	ldrbvs	r7, [r2, #-0]!
 31c:	61007076 	tstvs	r0, r6, ror r0
 320:	6e67696c 	vnmulvs.f16	s13, s14, s25	; <UNPREDICTABLE>
 324:	65726600 	ldrbvs	r6, [r2, #-1536]!	; 0xfffffa00
 328:	6e007065 	cdpvs	0, 0, cr7, cr0, cr5, {3}
 32c:	74696e75 	strbtvc	r6, [r9], #-3701	; 0xfffff18b
 330:	726b0073 	rsbvc	r0, fp, #115, 0	; 0x73
 334:	6c616d2d 	stclvs	13, cr6, [r1], #-180	; 0xffffff4c
 338:	2e636f6c 	cdpcs	15, 6, cr6, cr3, cr12, {3}
 33c:	6f640063 	svcvs	0x00640063
 340:	656c6275 	strbvs	r6, [ip, #-629]!	; 0xfffffd8b
 344:	73616200 	cmnvc	r1, #0, 4
 348:	62730065 	rsbsvs	r0, r3, #101, 0	; 0x65
 34c:	6d006b72 	vstrvs	d6, [r0, #-456]	; 0xfffffe38
 350:	6365726f 	cmnvs	r5, #-268435450	; 0xf0000006
 354:	0065726f 	rsbeq	r7, r5, pc, ror #4
 358:	657a6973 	ldrbvs	r6, [sl, #-2419]!	; 0xfffff68d
 35c:	61654800 	cmnvs	r5, r0, lsl #16
 360:	00726564 	rsbseq	r6, r2, r4, ror #10
 364:	63617473 	cmnvs	r1, #1929379840	; 0x73000000
 368:	6f745f6b 	svcvs	0x00745f6b
 36c:	616d0070 	smcvs	53248	; 0xd000
 370:	615f6b72 	cmpvs	pc, r2, ror fp	; <UNPREDICTABLE>
 374:	69006c6c 	stmdbvs	r0, {r2, r3, r5, r6, sl, fp, sp, lr}
 378:	656c706d 	strbvs	r7, [ip, #-109]!	; 0xffffff93
 37c:	746e656d 	strbtvc	r6, [lr], #-1389	; 0xfffffa93
 380:	6968745f 	stmdbvs	r8!, {r0, r1, r2, r3, r4, r6, sl, ip, sp, lr}^
 384:	5f5f0073 	svcpl	0x005f0073
 388:	5f737362 	svcpl	0x00737362
 38c:	72617473 	rsbvc	r7, r1, #1929379840	; 0x73000000
 390:	005f5f74 	subseq	r5, pc, r4, ror pc	; <UNPREDICTABLE>
 394:	6f6c626e 	svcvs	0x006c626e
 398:	00736b63 	rsbseq	r6, r3, r3, ror #22
 39c:	74696e69 	strbtvc	r6, [r9], #-3689	; 0xfffff197
 3a0:	6e00705f 	mcrvs	0, 0, r7, cr0, cr15, {2}
 3a4:	65747962 	ldrbvs	r7, [r4, #-2402]!	; 0xfffff69e
 3a8:	72665f73 	rsbvc	r5, r6, #460	; 0x1cc
 3ac:	00646565 	rsbeq	r6, r4, r5, ror #10
 3b0:	5f646c6f 	svcpl	0x00646c6f
 3b4:	6b72616d 	blvs	1c98970 <__bss_end__+0x1c8dbd0>
 3b8:	79616d00 	stmdbvc	r1!, {r8, sl, fp, sp, lr}^
 3bc:	655f6562 	ldrbvs	r6, [pc, #-1378]	; fffffe62 <__bss_end__+0xffff50c2>
 3c0:	726f7272 	rsbvc	r7, pc, #536870919	; 0x20000007
 3c4:	6b630073 	blvs	18c0598 <__bss_end__+0x18b57f8>
 3c8:	0063675f 	rsbeq	r6, r3, pc, asr r7
 3cc:	706d7564 	rsbvc	r7, sp, r4, ror #10
 3d0:	6765725f 			; <UNDEFINED> instruction: 0x6765725f
 3d4:	6c6e0073 	stclvs	0, cr0, [lr], #-460	; 0xfffffe34
 3d8:	736b6165 	cmnvc	fp, #1073741849	; 0x40000019
 3dc:	636e6900 	cmnvs	lr, #0, 18
 3e0:	656d6572 	strbvs	r6, [sp, #-1394]!	; 0xfffffa8e
 3e4:	5f00746e 	svcpl	0x0000746e
 3e8:	7461645f 	strbtvc	r6, [r1], #-1119	; 0xfffffba1
 3ec:	6e655f61 	cdpvs	15, 6, cr5, cr5, cr1, {3}
 3f0:	005f5f64 	subseq	r5, pc, r4, ror #30
 3f4:	705f7369 	subsvc	r7, pc, r9, ror #6
 3f8:	63007274 	movwvs	r7, #628	; 0x274
 3fc:	6b636568 	blvs	18d99a4 <__bss_end__+0x18cec04>
 400:	5f6f6e5f 	svcpl	0x006f6e5f
 404:	6b61656c 	blvs	18599bc <__bss_end__+0x184ec1c>
 408:	72666e00 	rsbvc	r6, r6, #0, 28
 40c:	00646565 	rsbeq	r6, r4, r5, ror #10
 410:	685f6e69 	ldmdavs	pc, {r0, r3, r5, r6, r9, sl, fp, sp, lr}^	; <UNPREDICTABLE>
 414:	00706165 	rsbseq	r6, r0, r5, ror #2
 418:	6d656e6f 	stclvs	14, cr6, [r5, #-444]!	; 0xfffffe44
 41c:	6b630062 	blvs	18c05ac <__bss_end__+0x18b580c>
 420:	2e63672d 	cdpcs	7, 6, cr6, cr3, cr13, {1}
 424:	68630063 	stmdavs	r3!, {r0, r1, r5, r6}^
 428:	5f6b6365 	svcpl	0x006b6365
 42c:	756f6873 	strbvc	r6, [pc, #-2163]!	; fffffbc1 <__bss_end__+0xffff4e21>
 430:	6c5f646c 	cfldrdvs	mvd6, [pc], {108}	; 0x6c
 434:	006b6165 	rsbeq	r6, fp, r5, ror #2
 438:	73625f5f 	cmnvc	r2, #380	; 0x17c
 43c:	6e655f73 	mcrvs	15, 3, r5, cr5, cr3, {3}
 440:	005f5f64 	subseq	r5, pc, r4, ror #30
 444:	6c616d6b 	stclvs	13, cr6, [r1], #-428	; 0xfffffe54
 448:	00636f6c 	rsbeq	r6, r3, ip, ror #30
 44c:	6c616d6b 	stclvs	13, cr6, [r1], #-428	; 0xfffffe54
 450:	5f636f6c 	svcpl	0x00636f6c
 454:	74696e69 	strbtvc	r6, [r9], #-3689	; 0xfffff197
 458:	7465735f 	strbtvc	r7, [r5], #-863	; 0xfffffca1
 45c:	6174735f 	cmnvs	r4, pc, asr r3
 460:	73007472 	movwvc	r7, #1138	; 0x472
 464:	70656577 	rsbvc	r6, r5, r7, ror r5
 468:	61656c5f 	cmnvs	r5, pc, asr ip
 46c:	5f5f006b 	svcpl	0x005f006b
 470:	61746164 	cmnvs	r4, r4, ror #2
 474:	6174735f 	cmnvs	r4, pc, asr r3
 478:	5f5f7472 	svcpl	0x005f7472
 47c:	65777300 	ldrbvs	r7, [r7, #-768]!	; 0xfffffd00
 480:	665f7065 	ldrbvs	r7, [pc], -r5, rrx
 484:	00656572 	rsbeq	r6, r5, r2, ror r5
 488:	6e726177 	mrcvs	1, 3, r6, cr2, cr7, {3}
 48c:	5f6f6e5f 	svcpl	0x006f6e5f
 490:	72617473 	rsbvc	r7, r1, #1929379840	; 0x73000000
 494:	65725f74 	ldrbvs	r5, [r2, #-3956]!	; 0xfffff08c
 498:	00705f66 	rsbseq	r5, r0, r6, ror #30
 49c:	657a6973 	ldrbvs	r6, [sl, #-2419]!	; 0xfffff68d
 4a0:	2e00745f 	cfmvsrcs	mvf0, r7
 4a4:	62696c2f 	rsbvs	r6, r9, #12032	; 0x2f00
 4a8:	656d2f63 	strbvs	r2, [sp, #-3939]!	; 0xfffff09d
 4ac:	7465736d 	strbtvc	r7, [r5], #-877	; 0xfffffc93
 4b0:	4700632e 	strmi	r6, [r0, -lr, lsr #6]
 4b4:	4320554e 			; <UNDEFINED> instruction: 0x4320554e
 4b8:	39203939 	stmdbcc	r0!, {r0, r3, r4, r5, r8, fp, ip, sp}
 4bc:	312e322e 			; <UNDEFINED> instruction: 0x312e322e
 4c0:	31303220 	teqcc	r0, r0, lsr #4
 4c4:	32303139 	eorscc	r3, r0, #1073741838	; 0x4000000e
 4c8:	72282035 	eorvc	r2, r8, #53, 0	; 0x35
 4cc:	61656c65 	cmnvs	r5, r5, ror #24
 4d0:	20296573 	eorcs	r6, r9, r3, ror r5
 4d4:	4d52415b 	ldfmie	f4, [r2, #-364]	; 0xfffffe94
 4d8:	6d72612f 	ldfvse	f6, [r2, #-188]!	; 0xffffff44
 4dc:	622d392d 	eorvs	r3, sp, #737280	; 0xb4000
 4e0:	636e6172 	cmnvs	lr, #-2147483620	; 0x8000001c
 4e4:	65722068 	ldrbvs	r2, [r2, #-104]!	; 0xffffff98
 4e8:	69736976 	ldmdbvs	r3!, {r1, r2, r4, r5, r6, r8, fp, sp, lr}^
 4ec:	32206e6f 	eorcc	r6, r0, #1776	; 0x6f0
 4f0:	39353737 	ldmdbcc	r5!, {r0, r1, r2, r4, r5, r8, r9, sl, ip, sp}
 4f4:	2d205d39 	stccs	13, cr5, [r0, #-228]!	; 0xffffff1c
 4f8:	7570636d 	ldrbvc	r6, [r0, #-877]!	; 0xfffffc93
 4fc:	6d72613d 	ldfvse	f6, [r2, #-244]!	; 0xffffff0c
 500:	36373131 			; <UNDEFINED> instruction: 0x36373131
 504:	2d667a6a 	vstmdbcs	r6!, {s15-s120}
 508:	6d2d2073 	stcvs	0, cr2, [sp, #-460]!	; 0xfffffe34
 50c:	656e7574 	strbvs	r7, [lr, #-1396]!	; 0xfffffa8c
 510:	6d72613d 	ldfvse	f6, [r2, #-244]!	; 0xffffff0c
 514:	36373131 			; <UNDEFINED> instruction: 0x36373131
 518:	2d667a6a 	vstmdbcs	r6!, {s15-s120}
 51c:	6d2d2073 	stcvs	0, cr2, [sp, #-460]!	; 0xfffffe34
 520:	616f6c66 	cmnvs	pc, r6, ror #24
 524:	62612d74 	rsbvs	r2, r1, #116, 26	; 0x1d00
 528:	6f733d69 	svcvs	0x00733d69
 52c:	2d207466 	cfstrscs	mvf7, [r0, #-408]!	; 0xfffffe68
 530:	6d72616d 	ldfvse	f6, [r2, #-436]!	; 0xfffffe4c
 534:	616d2d20 	cmnvs	sp, r0, lsr #26
 538:	3d686372 	stclcc	3, cr6, [r8, #-456]!	; 0xfffffe38
 53c:	766d7261 	strbtvc	r7, [sp], -r1, ror #4
 540:	207a6b36 	rsbscs	r6, sl, r6, lsr fp
 544:	6467672d 	strbtvs	r6, [r7], #-1837	; 0xfffff8d3
 548:	4f2d2062 	svcmi	0x002d2062
 54c:	74736166 	ldrbtvc	r6, [r3], #-358	; 0xfffffe9a
 550:	74732d20 	ldrbtvc	r2, [r3], #-3360	; 0xfffff2e0
 554:	6e673d64 	cdpvs	13, 6, cr3, cr7, cr4, {3}
 558:	20393975 	eorscs	r3, r9, r5, ror r9
 55c:	7266662d 	rsbvc	r6, r6, #47185920	; 0x2d00000
 560:	74736565 	ldrbtvc	r6, [r3], #-1381	; 0xfffffa9b
 564:	69646e61 	stmdbvs	r4!, {r0, r5, r6, r9, sl, fp, sp, lr}^
 568:	2f00676e 	svccs	0x0000676e
 56c:	72657355 	rsbvc	r7, r5, #1409286145	; 0x54000001
 570:	696d2f73 	stmdbvs	sp!, {r0, r1, r4, r5, r6, r8, r9, sl, fp, sp}^
 574:	2f73656c 	svccs	0x0073656c
 578:	72756f53 	rsbsvc	r6, r5, #332	; 0x14c
 57c:	632f6563 			; <UNDEFINED> instruction: 0x632f6563
 580:	30343273 	eorscc	r3, r4, r3, ror r2
 584:	6c2f786c 	stcvs	8, cr7, [pc], #-432	; 3dc <__code_start__-0x7c24>
 588:	69706269 	ldmdbvs	r0!, {r0, r3, r5, r6, r9, sp, lr}^
 58c:	67726100 	ldrbvs	r6, [r2, -r0, lsl #2]!
 590:	61760073 	cmnvs	r6, r3, ror r0
 594:	6972705f 	ldmdbvs	r2!, {r0, r1, r2, r3, r4, r6, ip, sp, lr}^
 598:	006b746e 	rsbeq	r7, fp, lr, ror #8
 59c:	6e675f5f 	mcrvs	15, 3, r5, cr7, cr15, {2}
 5a0:	765f6375 			; <UNDEFINED> instruction: 0x765f6375
 5a4:	696c5f61 	stmdbvs	ip!, {r0, r5, r6, r8, r9, sl, fp, ip, lr}^
 5a8:	5f007473 	svcpl	0x00007473
 5ac:	0070615f 	rsbseq	r6, r0, pc, asr r1
 5b0:	696c2f2e 	stmdbvs	ip!, {r1, r2, r3, r5, r8, r9, sl, fp, sp}^
 5b4:	702f6362 	eorvc	r6, pc, r2, ror #6
 5b8:	746e6972 	strbtvc	r6, [lr], #-2418	; 0xfffff68e
 5bc:	00632e6b 	rsbeq	r2, r3, fp, ror #28
 5c0:	61765f5f 	cmnvs	r6, pc, asr pc
 5c4:	73696c5f 	cmnvc	r9, #24320	; 0x5f00
 5c8:	6e690074 	mcrvs	0, 3, r0, cr9, cr4, {3}
 5cc:	6e726574 	mrcvs	5, 3, r6, cr2, cr4, {3}
 5d0:	705f6c61 	subsvc	r6, pc, r1, ror #24
 5d4:	006b7475 	rsbeq	r7, fp, r5, ror r4
 5d8:	696c2f2e 	stmdbvs	ip!, {r1, r2, r3, r5, r8, r9, sl, fp, sp}^
 5dc:	702f6362 	eorvc	r6, pc, r2, ror #6
 5e0:	2e6b7475 	mcrcs	4, 3, r7, cr11, cr5, {3}
 5e4:	73690063 	cmnvc	r9, #99, 0	; 0x63
 5e8:	69676964 	stmdbvs	r7!, {r2, r5, r6, r8, fp, sp, lr}^
 5ec:	69750074 	ldmdbvs	r5!, {r2, r4, r5, r6}^
 5f0:	3436746e 	ldrtcc	r7, [r6], #-1134	; 0xfffffb92
 5f4:	2e00745f 	cfmvsrcs	mvf0, r7
 5f8:	62696c2f 	rsbvs	r6, r9, #12032	; 0x2f00
 5fc:	61762f63 	cmnvs	r6, r3, ror #30
 600:	6972702d 	ldmdbvs	r2!, {r0, r2, r3, r5, ip, sp, lr}^
 604:	2e6b746e 	cdpcs	4, 6, cr7, cr11, cr14, {3}
 608:	5f5f0063 	svcpl	0x005f0063
 60c:	65646f63 	strbvs	r6, [r4, #-3939]!	; 0xfffff09d
 610:	6174735f 	cmnvs	r4, pc, asr r3
 614:	5f5f7472 	svcpl	0x005f7472
 618:	64697700 	strbtvs	r7, [r9], #-1792	; 0xfffff900
 61c:	70006874 	andvc	r6, r0, r4, ror r8
 620:	5f637475 	svcpl	0x00637475
 624:	5f007066 	svcpl	0x00007066
 628:	6165685f 	cmnvs	r5, pc, asr r8
 62c:	74735f70 	ldrbtvc	r5, [r3], #-3952	; 0xfffff090
 630:	5f747261 	svcpl	0x00747261
 634:	7072005f 	rsbsvc	r0, r2, pc, asr r0
 638:	65735f69 	ldrbvs	r5, [r3, #-3945]!	; 0xfffff097
 63c:	756f5f74 	strbvc	r5, [pc, #-3956]!	; fffff6d0 <__bss_end__+0xffff4930>
 640:	74757074 	ldrbtvc	r7, [r5], #-116	; 0xffffff8c
 644:	746d6600 	strbtvc	r6, [sp], #-1536	; 0xfffffa00
 648:	6174735f 	cmnvs	r4, pc, asr r3
 64c:	73007472 	movwvc	r7, #1138	; 0x472
 650:	61637274 	smcvs	14116	; 0x3724
 654:	74730074 	ldrbtvc	r0, [r3], #-116	; 0xffffff8c
 658:	79706372 	ldmdbvc	r0!, {r1, r4, r5, r6, r8, r9, sp, lr}^
 65c:	67656e00 	strbvs	r6, [r5, -r0, lsl #28]!
 660:	5f00705f 	svcpl	0x0000705f
 664:	646f635f 	strbtvs	r6, [pc], #-863	; 66c <__code_start__-0x7994>
 668:	6e655f65 	cdpvs	15, 6, cr5, cr5, cr5, {3}
 66c:	005f5f64 	subseq	r5, pc, r4, ror #30
 670:	74696d65 	strbtvc	r6, [r9], #-3429	; 0xfffff29b
 674:	76657200 	strbtvc	r7, [r5], -r0, lsl #4
 678:	65737265 	ldrbvs	r7, [r3, #-613]!	; 0xfffffd9b
 67c:	72747300 	rsbsvc	r7, r4, #0, 6
 680:	00706d63 	rsbseq	r6, r0, r3, ror #26
 684:	73747570 	cmnvc	r4, #112, 10	; 0x1c000000
 688:	0070665f 	rsbseq	r6, r0, pc, asr r6
 68c:	72705f5f 	rsbsvc	r5, r0, #380	; 0x17c
 690:	655f676f 	ldrbvs	r6, [pc, #-1903]	; ffffff29 <__bss_end__+0xffff5189>
 694:	5f5f646e 	svcpl	0x005f646e
 698:	6d756e00 	ldclvs	14, cr6, [r5, #-0]
 69c:	74730031 	ldrbtvc	r0, [r3], #-49	; 0xffffffcf
 6a0:	6d636e72 	stclvs	14, cr6, [r3, #-456]!	; 0xfffffe38
 6a4:	69730070 	ldmdbvs	r3!, {r4, r5, r6}^
 6a8:	64656e67 	strbtvs	r6, [r5], #-3687	; 0xfffff199
 6ac:	7200705f 	andvc	r7, r0, #95, 0	; 0x5f
 6b0:	725f6970 	subsvc	r6, pc, #112, 18	; 0x1c0000
 6b4:	6f6f6265 	svcvs	0x006f6265
 6b8:	65640074 	strbvs	r0, [r4, #-116]!	; 0xffffff8c
 6bc:	5f79616c 	svcpl	0x0079616c
 6c0:	2e00736d 	cdpcs	3, 0, cr7, cr0, cr13, {3}
 6c4:	6174732f 	cmnvs	r4, pc, lsr #6
 6c8:	732d6666 			; <UNDEFINED> instruction: 0x732d6666
 6cc:	632f6372 			; <UNDEFINED> instruction: 0x632f6372
 6d0:	6e61656c 	cdpvs	5, 6, cr6, cr1, cr12, {3}
 6d4:	6265722d 	rsbvs	r7, r5, #-805306366	; 0xd0000002
 6d8:	2e746f6f 	cdpcs	15, 7, cr6, cr4, cr15, {3}
 6dc:	61750063 	cmnvs	r5, r3, rrx
 6e0:	665f7472 			; <UNDEFINED> instruction: 0x665f7472
 6e4:	6873756c 	ldmdavs	r3!, {r2, r3, r5, r6, r8, sl, ip, sp, lr}^
 6e8:	0078745f 	rsbseq	r7, r8, pc, asr r4
 6ec:	7473635f 	ldrbtvc	r6, [r3], #-863	; 0xfffffca1
 6f0:	00747261 	rsbseq	r7, r4, r1, ror #4
 6f4:	5f737362 	svcpl	0x00737362
 6f8:	00646e65 	rsbeq	r6, r4, r5, ror #28
 6fc:	74726175 	ldrbtvc	r6, [r2], #-373	; 0xfffffe8b
 700:	696e695f 	stmdbvs	lr!, {r0, r1, r2, r3, r4, r6, r8, fp, sp, lr}^
 704:	75630074 	strbvc	r0, [r3, #-116]!	; 0xffffff8c
 708:	6d6f7473 	cfstrdvs	mvd7, [pc, #-460]!	; 544 <__code_start__-0x7abc>
 70c:	616f6c5f 	cmnvs	pc, pc, asr ip	; <UNPREDICTABLE>
 710:	00726564 	rsbseq	r6, r2, r4, ror #10
 714:	74732f2e 	ldrbtvc	r2, [r3], #-3886	; 0xfffff0d2
 718:	2d666661 	stclcs	6, cr6, [r6, #-388]!	; 0xfffffe7c
 71c:	2f637273 	svccs	0x00637273
 720:	61747363 	cmnvs	r4, r3, ror #6
 724:	632e7472 			; <UNDEFINED> instruction: 0x632e7472
 728:	732f2e00 			; <UNDEFINED> instruction: 0x732f2e00
 72c:	66666174 			; <UNDEFINED> instruction: 0x66666174
 730:	6372732d 	cmnvs	r2, #-1275068416	; 0xb4000000
 734:	7375632f 	cmnvc	r5, #-1140850688	; 0xbc000000
 738:	2d6d6f74 	stclcs	15, cr6, [sp, #-464]!	; 0xfffffe30
 73c:	64616f6c 	strbtvs	r6, [r1], #-3948	; 0xfffff094
 740:	632e7265 			; <UNDEFINED> instruction: 0x632e7265
 744:	62657200 	rsbvs	r7, r5, #0, 4
 748:	5f746f6f 	svcpl	0x00746f6f
 74c:	6c6c6163 	stfvse	f6, [ip], #-396	; 0xfffffe74
 750:	0074756f 	rsbseq	r7, r4, pc, ror #10
 754:	575f4d50 			; <UNDEFINED> instruction: 0x575f4d50
 758:	00474f44 	subeq	r4, r7, r4, asr #30
 75c:	33545550 	cmpcc	r4, #80, 10	; 0x14000000
 760:	65730032 	ldrbvs	r0, [r3, #-50]!	; 0xffffffce
 764:	73755f74 	cmnvc	r5, #116, 30	; 0x1d0
 768:	6c5f7265 	lfmvs	f7, 2, [pc], {101}	; 0x65
 76c:	6c657665 	stclvs	6, cr7, [r5], #-404	; 0xfffffe6c
 770:	732f2e00 			; <UNDEFINED> instruction: 0x732f2e00
 774:	66666174 			; <UNDEFINED> instruction: 0x66666174
 778:	6372732d 	cmnvs	r2, #-1275068416	; 0xb4000000
 77c:	6265722f 	rsbvs	r7, r5, #-268435454	; 0xf0000002
 780:	2e746f6f 	cdpcs	15, 7, cr6, cr4, cr15, {3}
 784:	4d500063 	ldclmi	0, cr0, [r0, #-396]	; 0xfffffe74
 788:	5341505f 	movtpl	r5, #4191	; 0x105f
 78c:	524f5753 	subpl	r5, pc, #21757952	; 0x14c0000
 790:	74610044 	strbtvc	r0, [r1], #-68	; 0xffffffbc
 794:	6573755f 	ldrbvs	r7, [r3, #-1375]!	; 0xfffffaa1
 798:	656c5f72 	strbvs	r5, [ip, #-3954]!	; 0xfffff08e
 79c:	006c6576 	rsbeq	r6, ip, r6, ror r5
 7a0:	525f4d50 	subspl	r4, pc, #80, 26	; 0x1400
 7a4:	5f435453 	svcpl	0x00435453
 7a8:	46435257 			; <UNDEFINED> instruction: 0x46435257
 7ac:	55465f47 	strbpl	r5, [r6, #-3911]	; 0xfffff0b9
 7b0:	525f4c4c 	subspl	r4, pc, #76, 24	; 0x4c00
 7b4:	54455345 	strbpl	r5, [r5], #-837	; 0xfffffcbb
 7b8:	5f4d5000 	svcpl	0x004d5000
 7bc:	43545352 	cmpmi	r4, #1207959553	; 0x48000001
 7c0:	73706300 	cmnvc	r0, #0, 6
 7c4:	65640072 	strbvs	r0, [r4, #-114]!	; 0xffffff8e
 7c8:	61625f76 	smcvs	9718	; 0x25f6
 7cc:	65697272 	strbvs	r7, [r9, #-626]!	; 0xfffffd8e
 7d0:	65640072 	strbvs	r0, [r4, #-114]!	; 0xffffff8e
 7d4:	5f79616c 	svcpl	0x0079616c
 7d8:	00636573 	rsbeq	r6, r3, r3, ror r5
 7dc:	74732f2e 	ldrbtvc	r2, [r3], #-3886	; 0xfffff0d2
 7e0:	2d666661 	stclcs	6, cr6, [r6, #-388]!	; 0xfffffe7c
 7e4:	2f637273 	svccs	0x00637273
 7e8:	656d6974 	strbvs	r6, [sp, #-2420]!	; 0xfffff68c
 7ec:	00632e72 	rsbeq	r2, r3, r2, ror lr
 7f0:	33544547 	cmpcc	r4, #297795584	; 0x11c00000
 7f4:	69740032 	ldmdbvs	r4!, {r1, r4, r5}^
 7f8:	5f72656d 	svcpl	0x0072656d
 7fc:	5f746567 	svcpl	0x00746567
 800:	63657375 	cmnvs	r5, #-738197503	; 0xd4000001
 804:	6c656400 	cfstrdvs	mvd6, [r5], #-0
 808:	755f7961 	ldrbvc	r7, [pc, #-2401]	; fffffeaf <__bss_end__+0xffff510f>
 80c:	69740073 	ldmdbvs	r4!, {r0, r1, r4, r5, r6}^
 810:	5f72656d 	svcpl	0x0072656d
 814:	5f746567 	svcpl	0x00746567
 818:	63657375 	cmnvs	r5, #-738197503	; 0xd4000001
 81c:	7761725f 			; <UNDEFINED> instruction: 0x7761725f
 820:	74757000 	ldrbtvc	r7, [r5], #-0
 824:	62003233 	andvs	r3, r0, #805306371	; 0x30000003
 828:	5f647561 	svcpl	0x00647561
 82c:	006c6176 	rsbeq	r6, ip, r6, ror r1
 830:	74617473 	strbtvc	r7, [r1], #-1139	; 0xfffffb8d
 834:	72617500 	rsbvc	r7, r1, #0, 10
 838:	61635f74 	smcvs	13812	; 0x35f4
 83c:	65675f6e 	strbvs	r5, [r7, #-3950]!	; 0xfffff092
 840:	47006374 	smlsdxmi	r0, r4, r3, r6
 844:	5f4f4950 	svcpl	0x004f4950
 848:	434e5546 	movtmi	r5, #58694	; 0xe546
 84c:	54554f5f 	ldrbpl	r4, [r5], #-3935	; 0xfffff0a1
 850:	00545550 	subseq	r5, r4, r0, asr r5
 854:	5f787561 	svcpl	0x00787561
 858:	69726570 	ldmdbvs	r2!, {r4, r5, r6, r8, sl, sp, lr}^
 85c:	00736870 	rsbseq	r6, r3, r0, ror r8
 860:	74726175 	ldrbtvc	r6, [r2], #-373	; 0xfffffe8b
 864:	7500632e 	strvc	r6, [r0, #-814]	; 0xfffffcd2
 868:	5f747261 	svcpl	0x00747261
 86c:	5f6e6163 	svcpl	0x006e6163
 870:	63747570 	cmnvs	r4, #112, 10	; 0x1c000000
 874:	72617500 	rsbvc	r7, r1, #0, 10
 878:	78745f74 	ldmdavc	r4!, {r2, r4, r5, r6, r8, r9, sl, fp, ip, lr}^
 87c:	5f73695f 	svcpl	0x0073695f
 880:	74706d65 	ldrbtvc	r6, [r0], #-3429	; 0xfffff29b
 884:	50470079 	subpl	r0, r7, r9, ror r0
 888:	465f4f49 	ldrbmi	r4, [pc], -r9, asr #30
 88c:	5f434e55 	svcpl	0x00434e55
 890:	30544c41 	subscc	r4, r4, r1, asr #24
 894:	49504700 	ldmdbmi	r0, {r8, r9, sl, lr}^
 898:	55465f4f 	strbpl	r5, [r6, #-3919]	; 0xfffff0b1
 89c:	415f434e 	cmpmi	pc, lr, asr #6
 8a0:	0031544c 	eorseq	r5, r1, ip, asr #8
 8a4:	4f495047 	svcmi	0x00495047
 8a8:	4e55465f 	mrcmi	6, 2, r4, cr5, cr15, {2}
 8ac:	4c415f43 	mcrrmi	15, 4, r5, r1, cr3
 8b0:	47003254 	smlsdmi	r0, r4, r2, r3
 8b4:	5f4f4950 	svcpl	0x004f4950
 8b8:	434e5546 	movtmi	r5, #58694	; 0xe546
 8bc:	544c415f 	strbpl	r4, [ip], #-351	; 0xfffffea1
 8c0:	50470033 	subpl	r0, r7, r3, lsr r0
 8c4:	465f4f49 	ldrbmi	r4, [pc], -r9, asr #30
 8c8:	5f434e55 	svcpl	0x00434e55
 8cc:	35544c41 	ldrbcc	r4, [r4, #-3137]	; 0xfffff3bf
 8d0:	6f682f00 	svcvs	0x00682f00
 8d4:	652f656d 	strvs	r6, [pc, #-1389]!	; 36f <__code_start__-0x7c91>
 8d8:	656c676e 	strbvs	r6, [ip, #-1902]!	; 0xfffff892
 8dc:	6c632f72 	stclvs	15, cr2, [r3], #-456	; 0xfffffe38
 8e0:	2f737361 	svccs	0x00737361
 8e4:	34327363 	ldrtcc	r7, [r2], #-867	; 0xfffffc9d
 8e8:	2d786c30 	ldclcs	12, cr6, [r8, #-192]!	; 0xffffff40
 8ec:	70733232 	rsbsvc	r3, r3, r2, lsr r2
 8f0:	696c2f72 	stmdbvs	ip!, {r1, r4, r5, r6, r8, r9, sl, fp, sp}^
 8f4:	2f697062 	svccs	0x00697062
 8f8:	66617473 			; <UNDEFINED> instruction: 0x66617473
 8fc:	72702d66 	rsbsvc	r2, r0, #6528	; 0x1980
 900:	74617669 	strbtvc	r7, [r1], #-1641	; 0xfffff997
 904:	61620065 	cmnvs	r2, r5, rrx
 908:	61006475 	tstvs	r0, r5, ror r4
 90c:	655f7875 	ldrbvs	r7, [pc, #-2165]	; 9f <__code_start__-0x7f61>
 910:	6c62616e 	stfvse	f6, [r2], #-440	; 0xfffffe48
 914:	75007365 	strvc	r7, [r0, #-869]	; 0xfffffc9b
 918:	5f747261 	svcpl	0x00747261
 91c:	63746567 	cmnvs	r4, #432013312	; 0x19c00000
 920:	554e4700 	strbpl	r4, [lr, #-1792]	; 0xfffff900
 924:	39394320 	ldmdbcc	r9!, {r5, r8, r9, lr}
 928:	2e303120 	rsfcssp	f3, f0, f0
 92c:	20312e33 	eorscs	r2, r1, r3, lsr lr
 930:	31323032 	teqcc	r2, r2, lsr r0
 934:	34323830 	ldrtcc	r3, [r2], #-2096	; 0xfffff7d0
 938:	65722820 	ldrbvs	r2, [r2, #-2080]!	; 0xfffff7e0
 93c:	7361656c 	cmnvc	r1, #108, 10	; 0x1b000000
 940:	2d202965 			; <UNDEFINED> instruction: 0x2d202965
 944:	7570636d 	ldrbvc	r6, [r0, #-877]!	; 0xfffffc93
 948:	6d72613d 	ldfvse	f6, [r2, #-244]!	; 0xffffff0c
 94c:	36373131 			; <UNDEFINED> instruction: 0x36373131
 950:	2d667a6a 	vstmdbcs	r6!, {s15-s120}
 954:	6d2d2073 	stcvs	0, cr2, [sp, #-460]!	; 0xfffffe34
 958:	656e7574 	strbvs	r7, [lr, #-1396]!	; 0xfffffa8c
 95c:	6d72613d 	ldfvse	f6, [r2, #-244]!	; 0xffffff0c
 960:	36373131 			; <UNDEFINED> instruction: 0x36373131
 964:	2d667a6a 	vstmdbcs	r6!, {s15-s120}
 968:	6d2d2073 	stcvs	0, cr2, [sp, #-460]!	; 0xfffffe34
 96c:	616f6c66 	cmnvs	pc, r6, ror #24
 970:	62612d74 	rsbvs	r2, r1, #116, 26	; 0x1d00
 974:	6f733d69 	svcvs	0x00733d69
 978:	2d207466 	cfstrscs	mvf7, [r0, #-408]!	; 0xfffffe68
 97c:	6d72616d 	ldfvse	f6, [r2, #-436]!	; 0xfffffe4c
 980:	616d2d20 	cmnvs	sp, r0, lsr #26
 984:	3d686372 	stclcc	3, cr6, [r8, #-456]!	; 0xfffffe38
 988:	766d7261 	strbtvc	r7, [sp], -r1, ror #4
 98c:	207a6b36 	rsbscs	r6, sl, r6, lsr fp
 990:	6467672d 	strbtvs	r6, [r7], #-1837	; 0xfffff8d3
 994:	4f2d2062 	svcmi	0x002d2062
 998:	732d2067 			; <UNDEFINED> instruction: 0x732d2067
 99c:	673d6474 			; <UNDEFINED> instruction: 0x673d6474
 9a0:	3939756e 	ldmdbcc	r9!, {r1, r2, r3, r5, r6, r8, sl, ip, sp, lr}
 9a4:	66662d20 	strbtvs	r2, [r6], -r0, lsr #26
 9a8:	73656572 	cmnvc	r5, #478150656	; 0x1c800000
 9ac:	646e6174 	strbtvs	r6, [lr], #-372	; 0xfffffe8c
 9b0:	00676e69 	rsbeq	r6, r7, r9, ror #28
 9b4:	6c746e63 	ldclvs	14, cr6, [r4], #-396	; 0xfffffe74
 9b8:	72617500 	rsbvc	r7, r1, #0, 10
 9bc:	69645f74 	stmdbvs	r4!, {r2, r4, r5, r6, r8, r9, sl, fp, ip, lr}^
 9c0:	6c626173 	stfvse	f6, [r2], #-460	; 0xfffffe34
 9c4:	61750065 	cmnvs	r5, r5, rrx
 9c8:	685f7472 	ldmdavs	pc, {r1, r4, r5, r6, sl, ip, sp, lr}^	; <UNPREDICTABLE>
 9cc:	645f7361 	ldrbvs	r7, [pc], #-865	; 9d4 <__code_start__-0x762c>
 9d0:	00617461 	rsbeq	r7, r1, r1, ror #8
 9d4:	4f495047 	svcmi	0x00495047
 9d8:	4e55465f 	mrcmi	6, 2, r4, cr5, cr15, {2}
 9dc:	4c415f43 	mcrrmi	15, 4, r5, r1, cr3
 9e0:	6f003454 	svcvs	0x00003454
 9e4:	6e695f72 	mcrvs	15, 3, r5, cr9, cr2, {3}
 9e8:	73003233 	movwvc	r3, #563	; 0x233
 9ec:	74617263 	strbtvc	r7, [r1], #-611	; 0xfffffd9d
 9f0:	75006863 	strvc	r6, [r0, #-2147]	; 0xfffff79d
 9f4:	00747261 	rsbseq	r7, r4, r1, ror #4
 9f8:	5f646e61 	svcpl	0x00646e61
 9fc:	32336e69 	eorscc	r6, r3, #1680	; 0x690
 a00:	72617500 	rsbvc	r7, r1, #0, 10
 a04:	75705f74 	ldrbvc	r5, [r0, #-3956]!	; 0xfffff08c
 a08:	47006374 	smlsdxmi	r0, r4, r3, r6
 a0c:	5f4f4950 	svcpl	0x004f4950
 a10:	434e5546 	movtmi	r5, #58694	; 0xe546
 a14:	504e495f 	subpl	r4, lr, pc, asr r9
 a18:	67005455 	smlsdvs	r0, r5, r4, r5
 a1c:	5f6f6970 	svcpl	0x006f6970
 a20:	5f746573 	svcpl	0x00746573
 a24:	636e7566 	cmnvs	lr, #427819008	; 0x19800000
 a28:	6e6f6974 			; <UNDEFINED> instruction: 0x6e6f6974
 a2c:	74656700 	strbtvc	r6, [r5], #-1792	; 0xfffff900
 a30:	6b003233 	blvs	d304 <__bss_end__+0x2564>
 a34:	6c6c616d 	stfvse	f6, [ip], #-436	; 0xfffffe4c
 a38:	685f636f 	ldmdavs	pc, {r0, r1, r2, r3, r5, r6, r8, r9, sp, lr}^	; <UNPREDICTABLE>
 a3c:	5f706165 	svcpl	0x00706165
 a40:	72617473 	rsbvc	r7, r1, #1929379840	; 0x73000000
 a44:	616d0074 	smcvs	53252	; 0xd004
 a48:	626e5f78 	rsbvs	r5, lr, #120, 30	; 0x1e0
 a4c:	73657479 	cmnvc	r5, #2030043136	; 0x79000000
 a50:	64615f00 	strbtvs	r5, [r1], #-3840	; 0xfffff100
 a54:	68007264 	stmdavs	r0, {r2, r5, r6, r9, ip, sp, lr}
 a58:	5f706165 	svcpl	0x00706165
 a5c:	0078616d 	rsbseq	r6, r8, sp, ror #2
 a60:	6572666b 	ldrbvs	r6, [r2, #-1643]!	; 0xfffff995
 a64:	6c615f65 	stclvs	15, cr5, [r1], #-404	; 0xfffffe6c
 a68:	6f72006c 	svcvs	0x0072006c
 a6c:	75646e75 	strbvc	r6, [r4, #-3701]!	; 0xfffff18b
 a70:	666b0070 			; <UNDEFINED> instruction: 0x666b0070
 a74:	5f656572 	svcpl	0x00656572
 a78:	00706f70 	rsbseq	r6, r0, r0, ror pc
 a7c:	67696c61 	strbvs	r6, [r9, -r1, ror #24]!
 a80:	6e656d6e 	cdpvs	13, 6, cr6, cr5, cr14, {3}
 a84:	616d0074 	smcvs	53252	; 0xd004
 a88:	33755f78 	cmncc	r5, #120, 30	; 0x1e0
 a8c:	6e4f0032 	mcrvs	0, 2, r0, cr15, cr2, {1}
 a90:	00424d65 	subeq	r4, r2, r5, ror #26
 a94:	6c616d6b 	stclvs	13, cr6, [r1], #-428	; 0xfffffe54
 a98:	5f636f6c 	svcpl	0x00636f6c
 a9c:	70616568 	rsbvc	r6, r1, r8, ror #10
 aa0:	646e655f 	strbtvs	r6, [lr], #-1375	; 0xfffffaa1
 aa4:	616d6b00 	cmnvs	sp, r0, lsl #22
 aa8:	636f6c6c 	cmnvs	pc, #108, 24	; 0x6c00
 aac:	746f6e5f 	strbtvc	r6, [pc], #-3679	; ab4 <__code_start__-0x754c>
 ab0:	6f72657a 	svcvs	0x0072657a
 ab4:	5f736900 	svcpl	0x00736900
 ab8:	32776f70 	rsbscc	r6, r7, #112, 30	; 0x1c0
 abc:	616d6b00 	cmnvs	sp, r0, lsl #22
 ac0:	636f6c6c 	cmnvs	pc, #108, 24	; 0x6c00
 ac4:	6b00632e 	blvs	19784 <__bss_end__+0xe9e4>
 ac8:	6c6c616d 	stfvse	f6, [ip], #-436	; 0xfffffe4c
 acc:	695f636f 	ldmdbvs	pc, {r0, r1, r2, r3, r5, r6, r8, r9, sp, lr}^	; <UNPREDICTABLE>
 ad0:	0074696e 	rsbseq	r6, r4, lr, ror #18
 ad4:	615f7369 	cmpvs	pc, r9, ror #6
 ad8:	6e67696c 	vnmulvs.f16	s13, s14, s25	; <UNPREDICTABLE>
 adc:	6b006465 	blvs	19c78 <__bss_end__+0xeed8>
 ae0:	6c6c616d 	stfvse	f6, [ip], #-436	; 0xfffffe4c
 ae4:	685f636f 	ldmdavs	pc, {r0, r1, r2, r3, r5, r6, r8, r9, sp, lr}^	; <UNPREDICTABLE>
 ae8:	5f706165 	svcpl	0x00706165
 aec:	00727470 	rsbseq	r7, r2, r0, ror r4
 af0:	5f697072 	svcpl	0x00697072
 af4:	65736572 	ldrbvs	r6, [r3, #-1394]!	; 0xfffffa8e
 af8:	75705f74 	ldrbvc	r5, [r0, #-3956]!	; 0xfffff08c
 afc:	6b006374 	blvs	198d4 <__bss_end__+0xeb34>
 b00:	6c6c616d 	stfvse	f6, [ip], #-436	; 0xfffffe4c
 b04:	615f636f 	cmpvs	pc, pc, ror #6
 b08:	6e67696c 	vnmulvs.f16	s13, s14, s25	; <UNPREDICTABLE>
 b0c:	67006465 	strvs	r6, [r0, -r5, ror #8]
 b10:	5f6f6970 	svcpl	0x006f6970
 b14:	30726c63 	rsbscc	r6, r2, r3, ror #24
 b18:	69706700 	ldmdbvs	r0!, {r8, r9, sl, sp, lr}^
 b1c:	65735f6f 	ldrbvs	r5, [r3, #-3951]!	; 0xfffff091
 b20:	67003074 	smlsdxvs	r0, r4, r0, r3
 b24:	5f6f6970 	svcpl	0x006f6970
 b28:	74697277 	strbtvc	r7, [r9], #-631	; 0xfffffd89
 b2c:	45440065 	strbmi	r0, [r4, #-101]	; 0xffffff9b
 b30:	41565f56 	cmpmi	r6, r6, asr pc
 b34:	0032334c 	eorseq	r3, r2, ip, asr #6
 b38:	6f697067 	svcvs	0x00697067
 b3c:	6165725f 	cmnvs	r5, pc, asr r2
 b40:	2f2e0064 	svccs	0x002e0064
 b44:	2f637273 	svccs	0x00637273
 b48:	6f697067 	svcvs	0x00697067
 b4c:	6700632e 	strvs	r6, [r0, -lr, lsr #6]
 b50:	5f6f6970 	svcpl	0x006f6970
 b54:	5f746573 	svcpl	0x00746573
 b58:	75706e69 	ldrbvc	r6, [r0, #-3689]!	; 0xfffff197
 b5c:	70670074 	rsbvc	r0, r7, r4, ror r0
 b60:	735f6f69 	cmpvc	pc, #420	; 0x1a4
 b64:	6f5f7465 	svcvs	0x005f7465
 b68:	67006666 	strvs	r6, [r0, -r6, ror #12]
 b6c:	5f6f6970 	svcpl	0x006f6970
 b70:	5f746573 	svcpl	0x00746573
 b74:	7074756f 	rsbsvc	r7, r4, pc, ror #10
 b78:	67007475 	smlsdxvs	r0, r5, r4, r7
 b7c:	5f6f6970 	svcpl	0x006f6970
 b80:	636e7566 	cmnvs	lr, #427819008	; 0x19800000
 b84:	6700745f 	smlsdvs	r0, pc, r4, r7	; <UNPREDICTABLE>
 b88:	5f6f6970 	svcpl	0x006f6970
 b8c:	3076656c 	rsbscc	r6, r6, ip, ror #10
 b90:	6e616200 	cdpvs	2, 6, cr6, cr1, cr0, {0}
 b94:	7067006b 	rsbvc	r0, r7, fp, rrx
 b98:	735f6f69 	cmpvc	pc, #420	; 0x1a4
 b9c:	6f5f7465 	svcvs	0x005f7465
 ba0:	6e69006e 	cdpvs	0, 6, cr0, cr9, cr14, {3}
 ba4:	6e726574 	mrcvs	5, 3, r6, cr2, cr4, {3}
 ba8:	705f6c61 	subsvc	r6, pc, r1, ror #24
 bac:	68637475 	stmdavs	r3!, {r0, r2, r4, r5, r6, sl, ip, sp, lr}^
 bb0:	72007261 	andvc	r7, r0, #268435462	; 0x10000006
 bb4:	735f6970 	cmpvc	pc, #112, 18	; 0x1c0000
 bb8:	705f7465 	subsvc	r7, pc, r5, ror #8
 bbc:	00637475 	rsbeq	r7, r3, r5, ror r4
 bc0:	696c2f2e 	stmdbvs	ip!, {r1, r2, r3, r5, r8, r9, sl, fp, sp}^
 bc4:	702f6362 	eorvc	r6, pc, r2, ror #6
 bc8:	68637475 	stmdavs	r3!, {r0, r2, r4, r5, r6, sl, ip, sp, lr}^
 bcc:	632e7261 			; <UNDEFINED> instruction: 0x632e7261
 bd0:	6c2f2e00 	stcvs	14, cr2, [pc], #-0	; bd8 <__code_start__-0x7428>
 bd4:	2f636269 	svccs	0x00636269
 bd8:	63727473 	cmnvs	r2, #1929379840	; 0x73000000
 bdc:	632e7461 			; <UNDEFINED> instruction: 0x632e7461
 be0:	73656400 	cmnvc	r5, #0, 8
 be4:	2f2e0074 	svccs	0x002e0074
 be8:	6362696c 	cmnvs	r2, #108, 18	; 0x1b0000
 bec:	7274732f 	rsbsvc	r7, r4, #-1140850688	; 0xbc000000
 bf0:	2e706d63 	cdpcs	13, 7, cr6, cr0, cr3, {3}
 bf4:	2f2e0063 	svccs	0x002e0063
 bf8:	6362696c 	cmnvs	r2, #108, 18	; 0x1b0000
 bfc:	7274732f 	rsbsvc	r7, r4, #-1140850688	; 0xbc000000
 c00:	2e797063 	cdpcs	0, 7, cr7, cr9, cr3, {3}
 c04:	2f2e0063 	svccs	0x002e0063
 c08:	6362696c 	cmnvs	r2, #108, 18	; 0x1b0000
 c0c:	7274732f 	rsbsvc	r7, r4, #-1140850688	; 0xbc000000
 c10:	706d636e 	rsbvc	r6, sp, lr, ror #6
 c14:	2e00632e 	cdpcs	3, 0, cr6, cr0, cr14, {1}
 c18:	6174732f 	cmnvs	r4, pc, lsr #6
 c1c:	732d6666 			; <UNDEFINED> instruction: 0x732d6666
 c20:	642f6372 	strtvs	r6, [pc], #-882	; c28 <__code_start__-0x73d8>
 c24:	75616665 	strbvc	r6, [r1, #-1637]!	; 0xfffff99b
 c28:	722d746c 	eorvc	r7, sp, #108, 8	; 0x6c000000
 c2c:	6f6f6265 	svcvs	0x006f6265
 c30:	61632d74 	smcvs	13012	; 0x32d4
 c34:	756f6c6c 	strbvc	r6, [pc, #-3180]!	; ffffffd0 <__bss_end__+0xffff5230>
 c38:	00632e74 	rsbeq	r2, r3, r4, ror lr

Disassembly of section .debug_frame:

00000000 <.debug_frame>:
   0:	0000000c 	andeq	r0, r0, ip
   4:	ffffffff 			; <UNDEFINED> instruction: 0xffffffff
   8:	7c020001 	stcvc	0, cr0, [r2], {1}
   c:	000d0c0e 	andeq	r0, sp, lr, lsl #24
  10:	00000020 	andeq	r0, r0, r0, lsr #32
  14:	00000000 	andeq	r0, r0, r0
  18:	00008038 	andeq	r8, r0, r8, lsr r0
  1c:	00000088 	andeq	r0, r0, r8, lsl #1
  20:	84100e42 	ldrhi	r0, [r0], #-3650	; 0xfffff1be
  24:	86038504 	strhi	r8, [r3], -r4, lsl #10
  28:	42018e02 	andmi	r8, r1, #2, 28
  2c:	0e78280e 	cdpeq	8, 7, cr2, cr8, cr14, {0}
  30:	00000010 	andeq	r0, r0, r0, lsl r0
  34:	00000014 	andeq	r0, r0, r4, lsl r0
  38:	00000000 	andeq	r0, r0, r0
  3c:	000080c0 	andeq	r8, r0, r0, asr #1
  40:	00000058 	andeq	r0, r0, r8, asr r0
  44:	84080e42 	strhi	r0, [r8], #-3650	; 0xfffff1be
  48:	00018e02 	andeq	r8, r1, r2, lsl #28
  4c:	0000000c 	andeq	r0, r0, ip
  50:	ffffffff 			; <UNDEFINED> instruction: 0xffffffff
  54:	7c020001 	stcvc	0, cr0, [r2], {1}
  58:	000d0c0e 	andeq	r0, sp, lr, lsl #24
  5c:	0000000c 	andeq	r0, r0, ip
  60:	0000004c 	andeq	r0, r0, ip, asr #32
  64:	00008118 	andeq	r8, r0, r8, lsl r1
  68:	00000010 	andeq	r0, r0, r0, lsl r0
  6c:	0000000c 	andeq	r0, r0, ip
  70:	0000004c 	andeq	r0, r0, ip, asr #32
  74:	00008128 	andeq	r8, r0, r8, lsr #2
  78:	0000000c 	andeq	r0, r0, ip
  7c:	0000000c 	andeq	r0, r0, ip
  80:	0000004c 	andeq	r0, r0, ip, asr #32
  84:	00008134 	andeq	r8, r0, r4, lsr r1
  88:	00000008 	andeq	r0, r0, r8
  8c:	0000000c 	andeq	r0, r0, ip
  90:	0000004c 	andeq	r0, r0, ip, asr #32
  94:	0000813c 	andeq	r8, r0, ip, lsr r1
  98:	00000010 	andeq	r0, r0, r0, lsl r0
  9c:	0000000c 	andeq	r0, r0, ip
  a0:	0000004c 	andeq	r0, r0, ip, asr #32
  a4:	0000814c 	andeq	r8, r0, ip, asr #2
  a8:	00000024 	andeq	r0, r0, r4, lsr #32
  ac:	00000018 	andeq	r0, r0, r8, lsl r0
  b0:	0000004c 	andeq	r0, r0, ip, asr #32
  b4:	00008170 	andeq	r8, r0, r0, ror r1
  b8:	0000005c 	andeq	r0, r0, ip, asr r0
  bc:	84100e42 	ldrhi	r0, [r0], #-3650	; 0xfffff1be
  c0:	86038504 	strhi	r8, [r3], -r4, lsl #10
  c4:	00018e02 	andeq	r8, r1, r2, lsl #28
  c8:	00000028 	andeq	r0, r0, r8, lsr #32
  cc:	0000004c 	andeq	r0, r0, ip, asr #32
  d0:	000081cc 	andeq	r8, r0, ip, asr #3
  d4:	0000014c 	andeq	r0, r0, ip, asr #2
  d8:	84180e42 	ldrhi	r0, [r8], #-3650	; 0xfffff1be
  dc:	86058506 	strhi	r8, [r5], -r6, lsl #10
  e0:	88038704 	stmdahi	r3, {r2, r8, r9, sl, pc}
  e4:	42018e02 	andmi	r8, r1, #2, 28
  e8:	6c02300e 	stcvs	0, cr3, [r2], {14}
  ec:	42180e0a 	andsmi	r0, r8, #160	; 0xa0
  f0:	0000000b 	andeq	r0, r0, fp
  f4:	00000020 	andeq	r0, r0, r0, lsr #32
  f8:	0000004c 	andeq	r0, r0, ip, asr #32
  fc:	00008318 	andeq	r8, r0, r8, lsl r3
 100:	00000094 	muleq	r0, r4, r0
 104:	84100e42 	ldrhi	r0, [r0], #-3650	; 0xfffff1be
 108:	86038504 	strhi	r8, [r3], -r4, lsl #10
 10c:	42018e02 	andmi	r8, r1, #2, 28
 110:	0e7e200e 	cdpeq	0, 7, cr2, cr14, cr14, {0}
 114:	00000010 	andeq	r0, r0, r0, lsl r0
 118:	0000000c 	andeq	r0, r0, ip
 11c:	ffffffff 			; <UNDEFINED> instruction: 0xffffffff
 120:	7c020001 	stcvc	0, cr0, [r2], {1}
 124:	000d0c0e 	andeq	r0, sp, lr, lsl #24
 128:	00000014 	andeq	r0, r0, r4, lsl r0
 12c:	00000118 	andeq	r0, r0, r8, lsl r1
 130:	000083ac 	andeq	r8, r0, ip, lsr #7
 134:	000000a4 	andeq	r0, r0, r4, lsr #1
 138:	8e040e42 	cdphi	14, 0, cr0, cr4, cr2, {2}
 13c:	00000001 	andeq	r0, r0, r1
 140:	0000001c 	andeq	r0, r0, ip, lsl r0
 144:	00000118 	andeq	r0, r0, r8, lsl r1
 148:	00008450 	andeq	r8, r0, r0, asr r4
 14c:	000000ec 	andeq	r0, r0, ip, ror #1
 150:	84180e42 	ldrhi	r0, [r8], #-3650	; 0xfffff1be
 154:	86058506 	strhi	r8, [r5], -r6, lsl #10
 158:	88038704 	stmdahi	r3, {r2, r8, r9, sl, pc}
 15c:	00018e02 	andeq	r8, r1, r2, lsl #28
 160:	0000000c 	andeq	r0, r0, ip
 164:	ffffffff 			; <UNDEFINED> instruction: 0xffffffff
 168:	7c020001 	stcvc	0, cr0, [r2], {1}
 16c:	000d0c0e 	andeq	r0, sp, lr, lsl #24
 170:	00000028 	andeq	r0, r0, r8, lsr #32
 174:	00000160 	andeq	r0, r0, r0, ror #2
 178:	0000853c 	andeq	r8, r0, ip, lsr r5
 17c:	0000018c 	andeq	r0, r0, ip, lsl #3
 180:	84240e42 	strthi	r0, [r4], #-3650	; 0xfffff1be
 184:	86088509 	strhi	r8, [r8], -r9, lsl #10
 188:	88068707 	stmdahi	r6, {r0, r1, r2, r8, r9, sl, pc}
 18c:	8a048905 	bhi	1225a8 <__bss_end__+0x117808>
 190:	8e028b03 	vmlahi.f64	d8, d2, d3
 194:	300e4201 	andcc	r4, lr, r1, lsl #4
 198:	240eac02 	strcs	sl, [lr], #-3074	; 0xfffff3fe
 19c:	0000001c 	andeq	r0, r0, ip, lsl r0
 1a0:	00000160 	andeq	r0, r0, r0, ror #2
 1a4:	000086c8 	andeq	r8, r0, r8, asr #13
 1a8:	000000a8 	andeq	r0, r0, r8, lsr #1
 1ac:	84080e42 	strhi	r0, [r8], #-3650	; 0xfffff1be
 1b0:	42018e02 	andmi	r8, r1, #2, 28
 1b4:	4402480e 	strmi	r4, [r2], #-2062	; 0xfffff7f2
 1b8:	0000080e 	andeq	r0, r0, lr, lsl #16
 1bc:	00000020 	andeq	r0, r0, r0, lsr #32
 1c0:	00000160 	andeq	r0, r0, r0, ror #2
 1c4:	00008770 	andeq	r8, r0, r0, ror r7
 1c8:	00000110 	andeq	r0, r0, r0, lsl r1
 1cc:	84200e42 	strthi	r0, [r0], #-3650	; 0xfffff1be
 1d0:	86078508 	strhi	r8, [r7], -r8, lsl #10
 1d4:	88058706 	stmdahi	r5, {r1, r2, r8, r9, sl, pc}
 1d8:	8a038904 	bhi	e25f0 <__bss_end__+0xd7850>
 1dc:	00018e02 	andeq	r8, r1, r2, lsl #28
 1e0:	00000020 	andeq	r0, r0, r0, lsr #32
 1e4:	00000160 	andeq	r0, r0, r0, ror #2
 1e8:	00008880 	andeq	r8, r0, r0, lsl #17
 1ec:	000000a4 	andeq	r0, r0, r4, lsr #1
 1f0:	840c0e42 	strhi	r0, [ip], #-3650	; 0xfffff1be
 1f4:	8e028503 	cfsh32hi	mvfx8, mvfx2, #3
 1f8:	180e4201 	stmdane	lr, {r0, r9, lr}
 1fc:	0c0e0a64 			; <UNDEFINED> instruction: 0x0c0e0a64
 200:	00000b42 	andeq	r0, r0, r2, asr #22
 204:	00000014 	andeq	r0, r0, r4, lsl r0
 208:	00000160 	andeq	r0, r0, r0, ror #2
 20c:	00008924 	andeq	r8, r0, r4, lsr #18
 210:	0000000c 	andeq	r0, r0, ip
 214:	84080e42 	strhi	r0, [r8], #-3650	; 0xfffff1be
 218:	00018e02 	andeq	r8, r1, r2, lsl #28
 21c:	00000014 	andeq	r0, r0, r4, lsl r0
 220:	00000160 	andeq	r0, r0, r0, ror #2
 224:	00008930 	andeq	r8, r0, r0, lsr r9
 228:	00000048 	andeq	r0, r0, r8, asr #32
 22c:	84080e42 	strhi	r0, [r8], #-3650	; 0xfffff1be
 230:	00018e02 	andeq	r8, r1, r2, lsl #28
 234:	00000014 	andeq	r0, r0, r4, lsl r0
 238:	00000160 	andeq	r0, r0, r0, ror #2
 23c:	00008978 	andeq	r8, r0, r8, ror r9
 240:	00000050 	andeq	r0, r0, r0, asr r0
 244:	84080e42 	strhi	r0, [r8], #-3650	; 0xfffff1be
 248:	00018e02 	andeq	r8, r1, r2, lsl #28
 24c:	00000028 	andeq	r0, r0, r8, lsr #32
 250:	00000160 	andeq	r0, r0, r0, ror #2
 254:	000089c8 	andeq	r8, r0, r8, asr #19
 258:	000000ec 	andeq	r0, r0, ip, ror #1
 25c:	84240e42 	strthi	r0, [r4], #-3650	; 0xfffff1be
 260:	86088509 	strhi	r8, [r8], -r9, lsl #10
 264:	88068707 	stmdahi	r6, {r0, r1, r2, r8, r9, sl, pc}
 268:	8a048905 	bhi	122684 <__bss_end__+0x1178e4>
 26c:	8e028b03 	vmlahi.f64	d8, d2, d3
 270:	380e4201 	stmdacc	lr, {r0, r9, lr}
 274:	240e6202 	strcs	r6, [lr], #-514	; 0xfffffdfe
 278:	00000014 	andeq	r0, r0, r4, lsl r0
 27c:	00000160 	andeq	r0, r0, r0, ror #2
 280:	00008ab4 			; <UNDEFINED> instruction: 0x00008ab4
 284:	0000002c 	andeq	r0, r0, ip, lsr #32
 288:	84080e42 	strhi	r0, [r8], #-3650	; 0xfffff1be
 28c:	00018e02 	andeq	r8, r1, r2, lsl #28
 290:	0000000c 	andeq	r0, r0, ip
 294:	ffffffff 			; <UNDEFINED> instruction: 0xffffffff
 298:	7c020001 	stcvc	0, cr0, [r2], {1}
 29c:	000d0c0e 	andeq	r0, sp, lr, lsl #24
 2a0:	00000014 	andeq	r0, r0, r4, lsl r0
 2a4:	00000290 	muleq	r0, r0, r2
 2a8:	00008ae8 	andeq	r8, r0, r8, ror #21
 2ac:	00000078 	andeq	r0, r0, r8, ror r0
 2b0:	84080e42 	strhi	r0, [r8], #-3650	; 0xfffff1be
 2b4:	00018e02 	andeq	r8, r1, r2, lsl #28
 2b8:	0000000c 	andeq	r0, r0, ip
 2bc:	ffffffff 			; <UNDEFINED> instruction: 0xffffffff
 2c0:	7c020001 	stcvc	0, cr0, [r2], {1}
 2c4:	000d0c0e 	andeq	r0, sp, lr, lsl #24
 2c8:	00000034 	andeq	r0, r0, r4, lsr r0
 2cc:	000002b8 			; <UNDEFINED> instruction: 0x000002b8
 2d0:	00008b60 	andeq	r8, r0, r0, ror #22
 2d4:	00000058 	andeq	r0, r0, r8, asr r0
 2d8:	80100e42 	andshi	r0, r0, r2, asr #28
 2dc:	82038104 	andhi	r8, r3, #1
 2e0:	42018302 	andmi	r8, r1, #134217728	; 0x8000000
 2e4:	07841c0e 	streq	r1, [r4, lr, lsl #24]
 2e8:	058e0685 	streq	r0, [lr, #1669]	; 0x685
 2ec:	5a280e44 	bpl	a03c04 <__bss_end__+0x9f8e64>
 2f0:	ce421c0e 	cdpgt	12, 4, cr1, cr2, cr14, {0}
 2f4:	100ec4c5 	andne	ip, lr, r5, asr #9
 2f8:	c1c2c342 	bicgt	ip, r2, r2, asr #6
 2fc:	00000ec0 	andeq	r0, r0, r0, asr #29
 300:	0000000c 	andeq	r0, r0, ip
 304:	ffffffff 			; <UNDEFINED> instruction: 0xffffffff
 308:	7c020001 	stcvc	0, cr0, [r2], {1}
 30c:	000d0c0e 	andeq	r0, sp, lr, lsl #24
 310:	00000018 	andeq	r0, r0, r8, lsl r0
 314:	00000300 	andeq	r0, r0, r0, lsl #6
 318:	00008bb8 			; <UNDEFINED> instruction: 0x00008bb8
 31c:	00000038 	andeq	r0, r0, r8, lsr r0
 320:	84100e42 	ldrhi	r0, [r0], #-3650	; 0xfffff1be
 324:	86038504 	strhi	r8, [r3], -r4, lsl #10
 328:	00018e02 	andeq	r8, r1, r2, lsl #28
 32c:	0000000c 	andeq	r0, r0, ip
 330:	ffffffff 			; <UNDEFINED> instruction: 0xffffffff
 334:	7c020001 	stcvc	0, cr0, [r2], {1}
 338:	000d0c0e 	andeq	r0, sp, lr, lsl #24
 33c:	0000002c 	andeq	r0, r0, ip, lsr #32
 340:	0000032c 	andeq	r0, r0, ip, lsr #6
 344:	00008bf0 	strdeq	r8, [r0], -r0
 348:	00000328 	andeq	r0, r0, r8, lsr #6
 34c:	84180e42 	ldrhi	r0, [r8], #-3650	; 0xfffff1be
 350:	86058506 	strhi	r8, [r5], -r6, lsl #10
 354:	88038704 	stmdahi	r3, {r2, r8, r9, sl, pc}
 358:	46018e02 	strmi	r8, [r1], -r2, lsl #28
 35c:	c002600e 	andgt	r6, r2, lr
 360:	42180e0a 	andsmi	r0, r8, #160	; 0xa0
 364:	0a8e020b 	beq	fe380b98 <__bss_end__+0xfe375df8>
 368:	0b42180e 	bleq	10863a8 <__bss_end__+0x107b608>
 36c:	00000014 	andeq	r0, r0, r4, lsl r0
 370:	0000032c 	andeq	r0, r0, ip, lsr #6
 374:	00008f18 	andeq	r8, r0, r8, lsl pc
 378:	00000060 	andeq	r0, r0, r0, rrx
 37c:	8e040e52 	mcrhi	14, 0, r0, cr4, cr2, {2}
 380:	100e4401 	andne	r4, lr, r1, lsl #8
 384:	0000002c 	andeq	r0, r0, ip, lsr #32
 388:	0000032c 	andeq	r0, r0, ip, lsr #6
 38c:	00008f78 	andeq	r8, r0, r8, ror pc
 390:	0000062c 	andeq	r0, r0, ip, lsr #12
 394:	84240e42 	strthi	r0, [r4], #-3650	; 0xfffff1be
 398:	86088509 	strhi	r8, [r8], -r9, lsl #10
 39c:	88068707 	stmdahi	r6, {r0, r1, r2, r8, r9, sl, pc}
 3a0:	8a048905 	bhi	1227bc <__bss_end__+0x117a1c>
 3a4:	8e028b03 	vmlahi.f64	d8, d2, d3
 3a8:	c00e5201 	andgt	r5, lr, r1, lsl #4
 3ac:	0a860202 	beq	fe180bbc <__bss_end__+0xfe175e1c>
 3b0:	0b42240e 	bleq	10893f0 <__bss_end__+0x107e650>
 3b4:	0000000c 	andeq	r0, r0, ip
 3b8:	ffffffff 			; <UNDEFINED> instruction: 0xffffffff
 3bc:	7c020001 	stcvc	0, cr0, [r2], {1}
 3c0:	000d0c0e 	andeq	r0, sp, lr, lsl #24
 3c4:	00000014 	andeq	r0, r0, r4, lsl r0
 3c8:	000003b4 			; <UNDEFINED> instruction: 0x000003b4
 3cc:	000095a4 	andeq	r9, r0, r4, lsr #11
 3d0:	0000002c 	andeq	r0, r0, ip, lsr #32
 3d4:	84080e44 	strhi	r0, [r8], #-3652	; 0xfffff1bc
 3d8:	00018e02 	andeq	r8, r1, r2, lsl #28
 3dc:	0000000c 	andeq	r0, r0, ip
 3e0:	ffffffff 			; <UNDEFINED> instruction: 0xffffffff
 3e4:	7c020001 	stcvc	0, cr0, [r2], {1}
 3e8:	000d0c0e 	andeq	r0, sp, lr, lsl #24
 3ec:	00000018 	andeq	r0, r0, r8, lsl r0
 3f0:	000003dc 	ldrdeq	r0, [r0], -ip
 3f4:	000095d0 	ldrdeq	r9, [r0], -r0
 3f8:	000000f8 	strdeq	r0, [r0], -r8
 3fc:	84100e42 	ldrhi	r0, [r0], #-3650	; 0xfffff1be
 400:	86038504 	strhi	r8, [r3], -r4, lsl #10
 404:	00018e02 	andeq	r8, r1, r2, lsl #28
 408:	0000000c 	andeq	r0, r0, ip
 40c:	ffffffff 			; <UNDEFINED> instruction: 0xffffffff
 410:	7c020001 	stcvc	0, cr0, [r2], {1}
 414:	000d0c0e 	andeq	r0, sp, lr, lsl #24
 418:	0000000c 	andeq	r0, r0, ip
 41c:	00000408 	andeq	r0, r0, r8, lsl #8
 420:	000096c8 	andeq	r9, r0, r8, asr #13
 424:	00000004 	andeq	r0, r0, r4
 428:	0000000c 	andeq	r0, r0, ip
 42c:	ffffffff 			; <UNDEFINED> instruction: 0xffffffff
 430:	7c020001 	stcvc	0, cr0, [r2], {1}
 434:	000d0c0e 	andeq	r0, sp, lr, lsl #24
 438:	0000000c 	andeq	r0, r0, ip
 43c:	00000428 	andeq	r0, r0, r8, lsr #8
 440:	000096cc 	andeq	r9, r0, ip, asr #13
 444:	00000018 	andeq	r0, r0, r8, lsl r0
 448:	0000000c 	andeq	r0, r0, ip
 44c:	00000428 	andeq	r0, r0, r8, lsr #8
 450:	000096e4 	andeq	r9, r0, r4, ror #13
 454:	00000014 	andeq	r0, r0, r4, lsl r0
 458:	00000014 	andeq	r0, r0, r4, lsl r0
 45c:	00000428 	andeq	r0, r0, r8, lsr #8
 460:	000096f8 	strdeq	r9, [r0], -r8
 464:	00000060 	andeq	r0, r0, r0, rrx
 468:	84080e42 	strhi	r0, [r8], #-3650	; 0xfffff1be
 46c:	00018e02 	andeq	r8, r1, r2, lsl #28
 470:	0000000c 	andeq	r0, r0, ip
 474:	ffffffff 			; <UNDEFINED> instruction: 0xffffffff
 478:	7c020001 	stcvc	0, cr0, [r2], {1}
 47c:	000d0c0e 	andeq	r0, sp, lr, lsl #24
 480:	0000000c 	andeq	r0, r0, ip
 484:	00000470 	andeq	r0, r0, r0, ror r4
 488:	00009758 	andeq	r9, r0, r8, asr r7
 48c:	0000000c 	andeq	r0, r0, ip
 490:	00000014 	andeq	r0, r0, r4, lsl r0
 494:	00000470 	andeq	r0, r0, r0, ror r4
 498:	00009764 	andeq	r9, r0, r4, ror #14
 49c:	00000024 	andeq	r0, r0, r4, lsr #32
 4a0:	84080e42 	strhi	r0, [r8], #-3650	; 0xfffff1be
 4a4:	00018e02 	andeq	r8, r1, r2, lsl #28
 4a8:	0000001c 	andeq	r0, r0, ip, lsl r0
 4ac:	00000470 	andeq	r0, r0, r0, ror r4
 4b0:	00009788 	andeq	r9, r0, r8, lsl #15
 4b4:	00000048 	andeq	r0, r0, r8, asr #32
 4b8:	84180e42 	ldrhi	r0, [r8], #-3650	; 0xfffff1be
 4bc:	86058506 	strhi	r8, [r5], -r6, lsl #10
 4c0:	88038704 	stmdahi	r3, {r2, r8, r9, sl, pc}
 4c4:	00018e02 	andeq	r8, r1, r2, lsl #28
 4c8:	0000001c 	andeq	r0, r0, ip, lsl r0
 4cc:	00000470 	andeq	r0, r0, r0, ror r4
 4d0:	000097d0 	ldrdeq	r9, [r0], -r0
 4d4:	00000050 	andeq	r0, r0, r0, asr r0
 4d8:	84180e42 	ldrhi	r0, [r8], #-3650	; 0xfffff1be
 4dc:	86058506 	strhi	r8, [r5], -r6, lsl #10
 4e0:	88038704 	stmdahi	r3, {r2, r8, r9, sl, pc}
 4e4:	00018e02 	andeq	r8, r1, r2, lsl #28
 4e8:	0000001c 	andeq	r0, r0, ip, lsl r0
 4ec:	00000470 	andeq	r0, r0, r0, ror r4
 4f0:	00009820 	andeq	r9, r0, r0, lsr #16
 4f4:	00000054 	andeq	r0, r0, r4, asr r0
 4f8:	84180e42 	ldrhi	r0, [r8], #-3650	; 0xfffff1be
 4fc:	86058506 	strhi	r8, [r5], -r6, lsl #10
 500:	88038704 	stmdahi	r3, {r2, r8, r9, sl, pc}
 504:	00018e02 	andeq	r8, r1, r2, lsl #28
 508:	0000000c 	andeq	r0, r0, ip
 50c:	ffffffff 			; <UNDEFINED> instruction: 0xffffffff
 510:	7c020001 	stcvc	0, cr0, [r2], {1}
 514:	000d0c0e 	andeq	r0, sp, lr, lsl #24
 518:	00000018 	andeq	r0, r0, r8, lsl r0
 51c:	00000508 	andeq	r0, r0, r8, lsl #10
 520:	00009874 	andeq	r9, r0, r4, ror r8
 524:	00000020 	andeq	r0, r0, r0, lsr #32
 528:	84100e42 	ldrhi	r0, [r0], #-3650	; 0xfffff1be
 52c:	86038504 	strhi	r8, [r3], -r4, lsl #10
 530:	00018e02 	andeq	r8, r1, r2, lsl #28
 534:	00000018 	andeq	r0, r0, r8, lsl r0
 538:	00000508 	andeq	r0, r0, r8, lsl #10
 53c:	00009894 	muleq	r0, r4, r8
 540:	00000020 	andeq	r0, r0, r0, lsr #32
 544:	84100e42 	ldrhi	r0, [r0], #-3650	; 0xfffff1be
 548:	86038504 	strhi	r8, [r3], -r4, lsl #10
 54c:	00018e02 	andeq	r8, r1, r2, lsl #28
 550:	00000014 	andeq	r0, r0, r4, lsl r0
 554:	00000508 	andeq	r0, r0, r8, lsl #10
 558:	000098b4 			; <UNDEFINED> instruction: 0x000098b4
 55c:	000000b0 	strheq	r0, [r0], -r0	; <UNPREDICTABLE>
 560:	84080e42 	strhi	r0, [r8], #-3650	; 0xfffff1be
 564:	00018e02 	andeq	r8, r1, r2, lsl #28
 568:	00000014 	andeq	r0, r0, r4, lsl r0
 56c:	00000508 	andeq	r0, r0, r8, lsl #10
 570:	00009964 	andeq	r9, r0, r4, ror #18
 574:	00000018 	andeq	r0, r0, r8, lsl r0
 578:	84080e42 	strhi	r0, [r8], #-3650	; 0xfffff1be
 57c:	00018e02 	andeq	r8, r1, r2, lsl #28
 580:	00000014 	andeq	r0, r0, r4, lsl r0
 584:	00000508 	andeq	r0, r0, r8, lsl #10
 588:	0000997c 	andeq	r9, r0, ip, ror r9
 58c:	00000020 	andeq	r0, r0, r0, lsr #32
 590:	84080e42 	strhi	r0, [r8], #-3650	; 0xfffff1be
 594:	00018e02 	andeq	r8, r1, r2, lsl #28
 598:	00000014 	andeq	r0, r0, r4, lsl r0
 59c:	00000508 	andeq	r0, r0, r8, lsl #10
 5a0:	0000999c 	muleq	r0, ip, r9
 5a4:	00000030 	andeq	r0, r0, r0, lsr r0
 5a8:	84080e42 	strhi	r0, [r8], #-3650	; 0xfffff1be
 5ac:	00018e02 	andeq	r8, r1, r2, lsl #28
 5b0:	00000014 	andeq	r0, r0, r4, lsl r0
 5b4:	00000508 	andeq	r0, r0, r8, lsl #10
 5b8:	000099cc 	andeq	r9, r0, ip, asr #19
 5bc:	00000030 	andeq	r0, r0, r0, lsr r0
 5c0:	84080e42 	strhi	r0, [r8], #-3650	; 0xfffff1be
 5c4:	00018e02 	andeq	r8, r1, r2, lsl #28
 5c8:	00000014 	andeq	r0, r0, r4, lsl r0
 5cc:	00000508 	andeq	r0, r0, r8, lsl #10
 5d0:	000099fc 	strdeq	r9, [r0], -ip
 5d4:	00000010 	andeq	r0, r0, r0, lsl r0
 5d8:	84080e42 	strhi	r0, [r8], #-3650	; 0xfffff1be
 5dc:	00018e02 	andeq	r8, r1, r2, lsl #28
 5e0:	00000014 	andeq	r0, r0, r4, lsl r0
 5e4:	00000508 	andeq	r0, r0, r8, lsl #10
 5e8:	00009a0c 	andeq	r9, r0, ip, lsl #20
 5ec:	00000020 	andeq	r0, r0, r0, lsr #32
 5f0:	84080e42 	strhi	r0, [r8], #-3650	; 0xfffff1be
 5f4:	00018e02 	andeq	r8, r1, r2, lsl #28
 5f8:	00000014 	andeq	r0, r0, r4, lsl r0
 5fc:	00000508 	andeq	r0, r0, r8, lsl #10
 600:	00009a2c 	andeq	r9, r0, ip, lsr #20
 604:	00000014 	andeq	r0, r0, r4, lsl r0
 608:	84080e42 	strhi	r0, [r8], #-3650	; 0xfffff1be
 60c:	00018e02 	andeq	r8, r1, r2, lsl #28
 610:	00000014 	andeq	r0, r0, r4, lsl r0
 614:	00000508 	andeq	r0, r0, r8, lsl #10
 618:	00009a40 	andeq	r9, r0, r0, asr #20
 61c:	00000024 	andeq	r0, r0, r4, lsr #32
 620:	84080e42 	strhi	r0, [r8], #-3650	; 0xfffff1be
 624:	00018e02 	andeq	r8, r1, r2, lsl #28
 628:	0000000c 	andeq	r0, r0, ip
 62c:	ffffffff 			; <UNDEFINED> instruction: 0xffffffff
 630:	7c020001 	stcvc	0, cr0, [r2], {1}
 634:	000d0c0e 	andeq	r0, sp, lr, lsl #24
 638:	0000000c 	andeq	r0, r0, ip
 63c:	00000628 	andeq	r0, r0, r8, lsr #12
 640:	00009a64 	andeq	r9, r0, r4, ror #20
 644:	00000010 	andeq	r0, r0, r0, lsl r0
 648:	0000000c 	andeq	r0, r0, ip
 64c:	00000628 	andeq	r0, r0, r8, lsr #12
 650:	00009a74 	andeq	r9, r0, r4, ror sl
 654:	00000010 	andeq	r0, r0, r0, lsl r0
 658:	0000000c 	andeq	r0, r0, ip
 65c:	00000628 	andeq	r0, r0, r8, lsr #12
 660:	00009a84 	andeq	r9, r0, r4, lsl #21
 664:	00000010 	andeq	r0, r0, r0, lsl r0
 668:	0000001c 	andeq	r0, r0, ip, lsl r0
 66c:	00000628 	andeq	r0, r0, r8, lsr #12
 670:	00009a94 	muleq	r0, r4, sl
 674:	0000009c 	muleq	r0, ip, r0
 678:	8e040e42 	cdphi	14, 0, cr0, cr4, cr2, {2}
 67c:	100e4201 	andne	r4, lr, r1, lsl #4
 680:	040e0a58 	streq	r0, [lr], #-2648	; 0xfffff5a8
 684:	00000b42 	andeq	r0, r0, r2, asr #22
 688:	00000014 	andeq	r0, r0, r4, lsl r0
 68c:	00000628 	andeq	r0, r0, r8, lsr #12
 690:	00009b30 	andeq	r9, r0, r0, lsr fp
 694:	00000058 	andeq	r0, r0, r8, asr r0
 698:	84080e42 	strhi	r0, [r8], #-3650	; 0xfffff1be
 69c:	00018e02 	andeq	r8, r1, r2, lsl #28
 6a0:	0000001c 	andeq	r0, r0, ip, lsl r0
 6a4:	00000628 	andeq	r0, r0, r8, lsr #12
 6a8:	00009b88 	andeq	r9, r0, r8, lsl #23
 6ac:	00000098 	muleq	r0, r8, r0
 6b0:	8e040e42 	cdphi	14, 0, cr0, cr4, cr2, {2}
 6b4:	100e4201 	andne	r4, lr, r1, lsl #4
 6b8:	040e0a58 	streq	r0, [lr], #-2648	; 0xfffff5a8
 6bc:	00000b42 	andeq	r0, r0, r2, asr #22
 6c0:	00000020 	andeq	r0, r0, r0, lsr #32
 6c4:	00000628 	andeq	r0, r0, r8, lsr #12
 6c8:	00009c20 	andeq	r9, r0, r0, lsr #24
 6cc:	00000064 	andeq	r0, r0, r4, rrx
 6d0:	840c0e42 	strhi	r0, [ip], #-3650	; 0xfffff1be
 6d4:	8e028503 	cfsh32hi	mvfx8, mvfx2, #3
 6d8:	180e4201 	stmdane	lr, {r0, r9, lr}
 6dc:	0c0e0a54 			; <UNDEFINED> instruction: 0x0c0e0a54
 6e0:	00000b42 	andeq	r0, r0, r2, asr #22
 6e4:	0000001c 	andeq	r0, r0, ip, lsl r0
 6e8:	00000628 	andeq	r0, r0, r8, lsr #12
 6ec:	00009c84 	andeq	r9, r0, r4, lsl #25
 6f0:	00000118 	andeq	r0, r0, r8, lsl r1
 6f4:	8e040e42 	cdphi	14, 0, cr0, cr4, cr2, {2}
 6f8:	100e4201 	andne	r4, lr, r1, lsl #4
 6fc:	040e0a6c 	streq	r0, [lr], #-2668	; 0xfffff594
 700:	00000b42 	andeq	r0, r0, r2, asr #22
 704:	0000000c 	andeq	r0, r0, ip
 708:	00000628 	andeq	r0, r0, r8, lsr #12
 70c:	00009d9c 	muleq	r0, ip, sp
 710:	00000004 	andeq	r0, r0, r4
 714:	0000000c 	andeq	r0, r0, ip
 718:	00000628 	andeq	r0, r0, r8, lsr #12
 71c:	00009da0 	andeq	r9, r0, r0, lsr #27
 720:	00000014 	andeq	r0, r0, r4, lsl r0
 724:	00000014 	andeq	r0, r0, r4, lsl r0
 728:	00000628 	andeq	r0, r0, r8, lsr #12
 72c:	00009db4 			; <UNDEFINED> instruction: 0x00009db4
 730:	00000060 	andeq	r0, r0, r0, rrx
 734:	8e040e58 	mcrhi	14, 0, r0, cr4, cr8, {2}
 738:	100e4201 	andne	r4, lr, r1, lsl #4
 73c:	0000000c 	andeq	r0, r0, ip
 740:	ffffffff 			; <UNDEFINED> instruction: 0xffffffff
 744:	7c020001 	stcvc	0, cr0, [r2], {1}
 748:	000d0c0e 	andeq	r0, sp, lr, lsl #24
 74c:	00000020 	andeq	r0, r0, r0, lsr #32
 750:	0000073c 	andeq	r0, r0, ip, lsr r7
 754:	00009e14 	andeq	r9, r0, r4, lsl lr
 758:	00000060 	andeq	r0, r0, r0, rrx
 75c:	84100e48 	ldrhi	r0, [r0], #-3656	; 0xfffff1b8
 760:	86038504 	strhi	r8, [r3], -r4, lsl #10
 764:	64018e02 	strvs	r8, [r1], #-3586	; 0xfffff1fe
 768:	c4c5c6ce 	strbgt	ip, [r5], #1742	; 0x6ce
 76c:	0000000e 	andeq	r0, r0, lr
 770:	00000020 	andeq	r0, r0, r0, lsr #32
 774:	0000073c 	andeq	r0, r0, ip, lsr r7
 778:	00009e74 	andeq	r9, r0, r4, ror lr
 77c:	00000058 	andeq	r0, r0, r8, asr r0
 780:	84100e46 	ldrhi	r0, [r0], #-3654	; 0xfffff1ba
 784:	86038504 	strhi	r8, [r3], -r4, lsl #10
 788:	62018e02 	andvs	r8, r1, #2, 28
 78c:	c4c5c6ce 	strbgt	ip, [r5], #1742	; 0x6ce
 790:	0000000e 	andeq	r0, r0, lr
 794:	0000000c 	andeq	r0, r0, ip
 798:	0000073c 	andeq	r0, r0, ip, lsr r7
 79c:	00009ecc 	andeq	r9, r0, ip, asr #29
 7a0:	00000018 	andeq	r0, r0, r8, lsl r0
 7a4:	0000000c 	andeq	r0, r0, ip
 7a8:	0000073c 	andeq	r0, r0, ip, lsr r7
 7ac:	00009ee4 	andeq	r9, r0, r4, ror #29
 7b0:	00000018 	andeq	r0, r0, r8, lsl r0
 7b4:	00000020 	andeq	r0, r0, r0, lsr #32
 7b8:	0000073c 	andeq	r0, r0, ip, lsr r7
 7bc:	00009efc 	strdeq	r9, [r0], -ip
 7c0:	00000058 	andeq	r0, r0, r8, asr r0
 7c4:	84100e46 	ldrhi	r0, [r0], #-3654	; 0xfffff1ba
 7c8:	86038504 	strhi	r8, [r3], -r4, lsl #10
 7cc:	62018e02 	andvs	r8, r1, #2, 28
 7d0:	c4c5c6ce 	strbgt	ip, [r5], #1742	; 0x6ce
 7d4:	0000000e 	andeq	r0, r0, lr
 7d8:	0000000c 	andeq	r0, r0, ip
 7dc:	0000073c 	andeq	r0, r0, ip, lsr r7
 7e0:	00009f54 	andeq	r9, r0, r4, asr pc
 7e4:	00000030 	andeq	r0, r0, r0, lsr r0
 7e8:	00000014 	andeq	r0, r0, r4, lsl r0
 7ec:	0000073c 	andeq	r0, r0, ip, lsr r7
 7f0:	00009f84 	andeq	r9, r0, r4, lsl #31
 7f4:	00000028 	andeq	r0, r0, r8, lsr #32
 7f8:	84080e42 	strhi	r0, [r8], #-3650	; 0xfffff1be
 7fc:	00018e02 	andeq	r8, r1, r2, lsl #28
 800:	0000000c 	andeq	r0, r0, ip
 804:	ffffffff 			; <UNDEFINED> instruction: 0xffffffff
 808:	7c020001 	stcvc	0, cr0, [r2], {1}
 80c:	000d0c0e 	andeq	r0, sp, lr, lsl #24
 810:	00000014 	andeq	r0, r0, r4, lsl r0
 814:	00000800 	andeq	r0, r0, r0, lsl #16
 818:	00009fac 	andeq	r9, r0, ip, lsr #31
 81c:	00000014 	andeq	r0, r0, r4, lsl r0
 820:	84080e42 	strhi	r0, [r8], #-3650	; 0xfffff1be
 824:	00018e02 	andeq	r8, r1, r2, lsl #28
 828:	0000000c 	andeq	r0, r0, ip
 82c:	00000800 	andeq	r0, r0, r0, lsl #16
 830:	00009fc0 	andeq	r9, r0, r0, asr #31
 834:	00000018 	andeq	r0, r0, r8, lsl r0
 838:	0000000c 	andeq	r0, r0, ip
 83c:	00000800 	andeq	r0, r0, r0, lsl #16
 840:	00009fd8 	ldrdeq	r9, [r0], -r8
 844:	00000010 	andeq	r0, r0, r0, lsl r0
 848:	0000000c 	andeq	r0, r0, ip
 84c:	ffffffff 			; <UNDEFINED> instruction: 0xffffffff
 850:	7c020001 	stcvc	0, cr0, [r2], {1}
 854:	000d0c0e 	andeq	r0, sp, lr, lsl #24
 858:	0000000c 	andeq	r0, r0, ip
 85c:	00000848 	andeq	r0, r0, r8, asr #16
 860:	00009fe8 	andeq	r9, r0, r8, ror #31
 864:	0000002c 	andeq	r0, r0, ip, lsr #32
 868:	0000000c 	andeq	r0, r0, ip
 86c:	ffffffff 			; <UNDEFINED> instruction: 0xffffffff
 870:	7c020001 	stcvc	0, cr0, [r2], {1}
 874:	000d0c0e 	andeq	r0, sp, lr, lsl #24
 878:	0000000c 	andeq	r0, r0, ip
 87c:	00000868 	andeq	r0, r0, r8, ror #16
 880:	0000a014 	andeq	sl, r0, r4, lsl r0
 884:	00000044 	andeq	r0, r0, r4, asr #32
 888:	0000000c 	andeq	r0, r0, ip
 88c:	ffffffff 			; <UNDEFINED> instruction: 0xffffffff
 890:	7c020001 	stcvc	0, cr0, [r2], {1}
 894:	000d0c0e 	andeq	r0, sp, lr, lsl #24
 898:	0000000c 	andeq	r0, r0, ip
 89c:	00000888 	andeq	r0, r0, r8, lsl #17
 8a0:	0000a058 	andeq	sl, r0, r8, asr r0
 8a4:	00000018 	andeq	r0, r0, r8, lsl r0
 8a8:	0000000c 	andeq	r0, r0, ip
 8ac:	ffffffff 			; <UNDEFINED> instruction: 0xffffffff
 8b0:	7c020001 	stcvc	0, cr0, [r2], {1}
 8b4:	000d0c0e 	andeq	r0, sp, lr, lsl #24
 8b8:	0000000c 	andeq	r0, r0, ip
 8bc:	000008a8 	andeq	r0, r0, r8, lsr #17
 8c0:	0000a070 	andeq	sl, r0, r0, ror r0
 8c4:	00000030 	andeq	r0, r0, r0, lsr r0
 8c8:	0000000c 	andeq	r0, r0, ip
 8cc:	ffffffff 			; <UNDEFINED> instruction: 0xffffffff
 8d0:	7c020001 	stcvc	0, cr0, [r2], {1}
 8d4:	000d0c0e 	andeq	r0, sp, lr, lsl #24
 8d8:	0000000c 	andeq	r0, r0, ip
 8dc:	000008c8 	andeq	r0, r0, r8, asr #17
 8e0:	0000a0a0 	andeq	sl, r0, r0, lsr #1
 8e4:	00000004 	andeq	r0, r0, r4

Disassembly of section .debug_ranges:

00000000 <.debug_ranges>:
   0:	00000034 	andeq	r0, r0, r4, lsr r0
   4:	00000034 	andeq	r0, r0, r4, lsr r0
   8:	00000040 	andeq	r0, r0, r0, asr #32
   c:	00000044 	andeq	r0, r0, r4, asr #32
	...
  18:	00000034 	andeq	r0, r0, r4, lsr r0
  1c:	00000034 	andeq	r0, r0, r4, lsr r0
  20:	00000034 	andeq	r0, r0, r4, lsr r0
  24:	00000034 	andeq	r0, r0, r4, lsr r0
  28:	00000034 	andeq	r0, r0, r4, lsr r0
  2c:	00000040 	andeq	r0, r0, r0, asr #32
	...
  38:	0000011c 	andeq	r0, r0, ip, lsl r1
  3c:	0000013c 	andeq	r0, r0, ip, lsr r1
  40:	00000180 	andeq	r0, r0, r0, lsl #3
  44:	00000188 	andeq	r0, r0, r8, lsl #3
  48:	00000198 	muleq	r0, r8, r1
  4c:	00000200 	andeq	r0, r0, r0, lsl #4
	...
  58:	00000198 	muleq	r0, r8, r1
  5c:	0000019c 	muleq	r0, ip, r1
  60:	000001ac 	andeq	r0, r0, ip, lsr #3
  64:	000001b0 			; <UNDEFINED> instruction: 0x000001b0
  68:	000001b0 			; <UNDEFINED> instruction: 0x000001b0
  6c:	000001b8 			; <UNDEFINED> instruction: 0x000001b8
	...
  78:	000000d8 	ldrdeq	r0, [r0], -r8
  7c:	000000e4 	andeq	r0, r0, r4, ror #1
  80:	0000012c 	andeq	r0, r0, ip, lsr #2
  84:	0000013c 	andeq	r0, r0, ip, lsr r1
  88:	00000164 	andeq	r0, r0, r4, ror #2
  8c:	00000180 	andeq	r0, r0, r0, lsl #3
	...
  98:	00000034 	andeq	r0, r0, r4, lsr r0
  9c:	00000040 	andeq	r0, r0, r0, asr #32
  a0:	000000a0 	andeq	r0, r0, r0, lsr #1
  a4:	0000015c 	andeq	r0, r0, ip, asr r1
	...
  b0:	00000034 	andeq	r0, r0, r4, lsr r0
  b4:	00000040 	andeq	r0, r0, r0, asr #32
  b8:	000000a0 	andeq	r0, r0, r0, lsr #1
  bc:	000000a8 	andeq	r0, r0, r8, lsr #1
  c0:	000000b4 	strheq	r0, [r0], -r4
  c4:	0000015c 	andeq	r0, r0, ip, asr r1
	...
  d0:	00000034 	andeq	r0, r0, r4, lsr r0
  d4:	00000038 	andeq	r0, r0, r8, lsr r0
  d8:	000000b8 	strheq	r0, [r0], -r8
  dc:	000000d8 	ldrdeq	r0, [r0], -r8
	...
  e8:	00000034 	andeq	r0, r0, r4, lsr r0
  ec:	00000038 	andeq	r0, r0, r8, lsr r0
  f0:	000000bc 	strheq	r0, [r0], -ip
  f4:	000000d4 	ldrdeq	r0, [r0], -r4
	...
 100:	00000038 	andeq	r0, r0, r8, lsr r0
 104:	00000040 	andeq	r0, r0, r0, asr #32
 108:	000000a0 	andeq	r0, r0, r0, lsr #1
 10c:	000000a8 	andeq	r0, r0, r8, lsr #1
 110:	000000e0 	andeq	r0, r0, r0, ror #1
 114:	0000015c 	andeq	r0, r0, ip, asr r1
	...
 120:	00000250 	andeq	r0, r0, r0, asr r2
 124:	0000025c 	andeq	r0, r0, ip, asr r2
 128:	00000268 	andeq	r0, r0, r8, ror #4
 12c:	000002c8 	andeq	r0, r0, r8, asr #5
	...
 138:	000004ac 	andeq	r0, r0, ip, lsr #9
 13c:	000004b8 			; <UNDEFINED> instruction: 0x000004b8
 140:	000004c4 	andeq	r0, r0, r4, asr #9
 144:	00000530 	andeq	r0, r0, r0, lsr r5
	...
 150:	000004c4 	andeq	r0, r0, r4, asr #9
 154:	000004cc 	andeq	r0, r0, ip, asr #9
 158:	000004e4 	andeq	r0, r0, r4, ror #9
 15c:	000004f4 	strdeq	r0, [r0], -r4
	...
 168:	000000a4 	andeq	r0, r0, r4, lsr #1
 16c:	00000148 	andeq	r0, r0, r8, asr #2
 170:	00000158 	andeq	r0, r0, r8, asr r1
 174:	0000015c 	andeq	r0, r0, ip, asr r1
 178:	00000274 	andeq	r0, r0, r4, ror r2
 17c:	00000278 	andeq	r0, r0, r8, ror r2
 180:	0000027c 	andeq	r0, r0, ip, ror r2
 184:	00000280 	andeq	r0, r0, r0, lsl #5
 188:	00000288 	andeq	r0, r0, r8, lsl #5
 18c:	0000029c 	muleq	r0, ip, r2
 190:	000002c0 	andeq	r0, r0, r0, asr #5
 194:	000002cc 	andeq	r0, r0, ip, asr #5
 198:	000002f0 	strdeq	r0, [r0], -r0	; <UNPREDICTABLE>
 19c:	000002f0 	strdeq	r0, [r0], -r0	; <UNPREDICTABLE>
 1a0:	000002f4 	strdeq	r0, [r0], -r4
 1a4:	000002f8 	strdeq	r0, [r0], -r8
	...
 1b0:	00000148 	andeq	r0, r0, r8, asr #2
 1b4:	00000158 	andeq	r0, r0, r8, asr r1
 1b8:	0000015c 	andeq	r0, r0, ip, asr r1
 1bc:	0000018c 	andeq	r0, r0, ip, lsl #3
 1c0:	0000029c 	muleq	r0, ip, r2
 1c4:	000002ac 	andeq	r0, r0, ip, lsr #5
	...
 1d0:	000003c8 	andeq	r0, r0, r8, asr #7
 1d4:	000003d0 	ldrdeq	r0, [r0], -r0	; <UNPREDICTABLE>
 1d8:	00000404 	andeq	r0, r0, r4, lsl #8
 1dc:	000004ac 	andeq	r0, r0, ip, lsr #9
 1e0:	000004c0 	andeq	r0, r0, r0, asr #9
 1e4:	00000920 	andeq	r0, r0, r0, lsr #18
 1e8:	00000928 	andeq	r0, r0, r8, lsr #18
 1ec:	000009b4 			; <UNDEFINED> instruction: 0x000009b4
	...
 1f8:	000003c8 	andeq	r0, r0, r8, asr #7
 1fc:	000003d0 	ldrdeq	r0, [r0], -r0	; <UNPREDICTABLE>
 200:	00000504 	andeq	r0, r0, r4, lsl #10
 204:	000005d0 	ldrdeq	r0, [r0], -r0	; <UNPREDICTABLE>
 208:	00000800 	andeq	r0, r0, r0, lsl #16
 20c:	00000888 	andeq	r0, r0, r8, lsl #17
 210:	00000930 	andeq	r0, r0, r0, lsr r9
 214:	000009b4 			; <UNDEFINED> instruction: 0x000009b4
	...
 220:	00000404 	andeq	r0, r0, r4, lsl #8
 224:	00000408 	andeq	r0, r0, r8, lsl #8
 228:	00000414 	andeq	r0, r0, r4, lsl r4
 22c:	00000414 	andeq	r0, r0, r4, lsl r4
 230:	00000428 	andeq	r0, r0, r8, lsr #8
 234:	0000042c 	andeq	r0, r0, ip, lsr #8
	...
 240:	000005fc 	strdeq	r0, [r0], -ip
 244:	00000700 	andeq	r0, r0, r0, lsl #14
 248:	000007ec 	andeq	r0, r0, ip, ror #15
 24c:	000007f4 	strdeq	r0, [r0], -r4
 250:	00000888 	andeq	r0, r0, r8, lsl #17
 254:	00000894 	muleq	r0, r4, r8
 258:	000008a8 	andeq	r0, r0, r8, lsr #17
 25c:	000008bc 			; <UNDEFINED> instruction: 0x000008bc
 260:	00000910 	andeq	r0, r0, r0, lsl r9
 264:	00000920 	andeq	r0, r0, r0, lsr #18
	...
 270:	00000600 	andeq	r0, r0, r0, lsl #12
 274:	00000604 	andeq	r0, r0, r4, lsl #12
 278:	00000608 	andeq	r0, r0, r8, lsl #12
 27c:	000006b4 			; <UNDEFINED> instruction: 0x000006b4
 280:	000006cc 	andeq	r0, r0, ip, asr #13
 284:	000006d0 	ldrdeq	r0, [r0], -r0	; <UNPREDICTABLE>
 288:	000008a8 	andeq	r0, r0, r8, lsr #17
 28c:	000008b8 			; <UNDEFINED> instruction: 0x000008b8
 290:	00000910 	andeq	r0, r0, r0, lsl r9
 294:	00000920 	andeq	r0, r0, r0, lsr #18
	...
 2a0:	000006b4 			; <UNDEFINED> instruction: 0x000006b4
 2a4:	000006cc 	andeq	r0, r0, ip, asr #13
 2a8:	000006d0 	ldrdeq	r0, [r0], -r0	; <UNPREDICTABLE>
 2ac:	00000700 	andeq	r0, r0, r0, lsl #14
 2b0:	000007ec 	andeq	r0, r0, ip, ror #15
 2b4:	000007f4 	strdeq	r0, [r0], -r4
 2b8:	00000888 	andeq	r0, r0, r8, lsl #17
 2bc:	00000894 	muleq	r0, r4, r8
 2c0:	000008b8 			; <UNDEFINED> instruction: 0x000008b8
 2c4:	000008bc 			; <UNDEFINED> instruction: 0x000008bc
	...
 2d0:	00000700 	andeq	r0, r0, r0, lsl #14
 2d4:	00000708 	andeq	r0, r0, r8, lsl #14
 2d8:	0000070c 	andeq	r0, r0, ip, lsl #14
 2dc:	000007ec 	andeq	r0, r0, ip, ror #15
 2e0:	00000894 	muleq	r0, r4, r8
 2e4:	000008a8 	andeq	r0, r0, r8, lsr #17
	...
 2f0:	00000728 	andeq	r0, r0, r8, lsr #14
 2f4:	000007a4 	andeq	r0, r0, r4, lsr #15
 2f8:	000007ac 	andeq	r0, r0, ip, lsr #15
 2fc:	000007b0 			; <UNDEFINED> instruction: 0x000007b0
 300:	00000894 	muleq	r0, r4, r8
 304:	00000898 	muleq	r0, r8, r8
 308:	0000089c 	muleq	r0, ip, r8
 30c:	000008a0 	andeq	r0, r0, r0, lsr #17
	...
 318:	000007a4 	andeq	r0, r0, r4, lsr #15
 31c:	000007ac 	andeq	r0, r0, ip, lsr #15
 320:	000007b0 			; <UNDEFINED> instruction: 0x000007b0
 324:	000007ec 	andeq	r0, r0, ip, ror #15
 328:	00000898 	muleq	r0, r8, r8
 32c:	0000089c 	muleq	r0, ip, r8
 330:	000008a0 	andeq	r0, r0, r0, lsr #17
 334:	000008a8 	andeq	r0, r0, r8, lsr #17
	...
 340:	000096f8 	strdeq	r9, [r0], -r8
 344:	000096f8 	strdeq	r9, [r0], -r8
 348:	000096fc 	strdeq	r9, [r0], -ip
 34c:	00009704 	andeq	r9, r0, r4, lsl #14
	...
 358:	000096cc 	andeq	r9, r0, ip, asr #13
 35c:	00009758 	andeq	r9, r0, r8, asr r7
	...
 368:	00000030 	andeq	r0, r0, r0, lsr r0
 36c:	00000030 	andeq	r0, r0, r0, lsr r0
 370:	00000038 	andeq	r0, r0, r8, lsr r0
 374:	0000004c 	andeq	r0, r0, ip, asr #32
	...
 380:	0000004c 	andeq	r0, r0, ip, asr #32
 384:	00000050 	andeq	r0, r0, r0, asr r0
 388:	00000050 	andeq	r0, r0, r0, asr r0
 38c:	00000078 	andeq	r0, r0, r8, ror r0
	...
 398:	0000004c 	andeq	r0, r0, ip, asr #32
 39c:	00000050 	andeq	r0, r0, r0, asr r0
 3a0:	00000050 	andeq	r0, r0, r0, asr r0
 3a4:	00000060 	andeq	r0, r0, r0, rrx
 3a8:	00000064 	andeq	r0, r0, r4, rrx
 3ac:	00000068 	andeq	r0, r0, r8, rrx
	...
 3b8:	0000004c 	andeq	r0, r0, ip, asr #32
 3bc:	00000050 	andeq	r0, r0, r0, asr r0
 3c0:	00000054 	andeq	r0, r0, r4, asr r0
 3c4:	00000060 	andeq	r0, r0, r0, rrx
	...
 3d0:	0000009c 	muleq	r0, ip, r0
 3d4:	000000a0 	andeq	r0, r0, r0, lsr #1
 3d8:	000000a0 	andeq	r0, r0, r0, lsr #1
 3dc:	000000c8 	andeq	r0, r0, r8, asr #1
	...
 3e8:	0000009c 	muleq	r0, ip, r0
 3ec:	000000a0 	andeq	r0, r0, r0, lsr #1
 3f0:	000000a0 	andeq	r0, r0, r0, lsr #1
 3f4:	000000b0 	strheq	r0, [r0], -r0	; <UNPREDICTABLE>
 3f8:	000000b4 	strheq	r0, [r0], -r4
 3fc:	000000b8 	strheq	r0, [r0], -r8
	...
 408:	0000009c 	muleq	r0, ip, r0
 40c:	000000a0 	andeq	r0, r0, r0, lsr #1
 410:	000000a4 	andeq	r0, r0, r4, lsr #1
 414:	000000b0 	strheq	r0, [r0], -r0	; <UNPREDICTABLE>
	...
 420:	000000c8 	andeq	r0, r0, r8, asr #1
 424:	000000c8 	andeq	r0, r0, r8, asr #1
 428:	000000cc 	andeq	r0, r0, ip, asr #1
 42c:	0000011c 	andeq	r0, r0, ip, lsl r1
	...
 438:	000000f0 	strdeq	r0, [r0], -r0	; <UNPREDICTABLE>
 43c:	000000f4 	strdeq	r0, [r0], -r4
 440:	000000f4 	strdeq	r0, [r0], -r4
 444:	0000011c 	andeq	r0, r0, ip, lsl r1
	...
 450:	000000f0 	strdeq	r0, [r0], -r0	; <UNPREDICTABLE>
 454:	000000f4 	strdeq	r0, [r0], -r4
 458:	000000f4 	strdeq	r0, [r0], -r4
 45c:	00000104 	andeq	r0, r0, r4, lsl #2
 460:	00000108 	andeq	r0, r0, r8, lsl #2
 464:	0000010c 	andeq	r0, r0, ip, lsl #2
	...
 470:	000000f0 	strdeq	r0, [r0], -r0	; <UNPREDICTABLE>
 474:	000000f4 	strdeq	r0, [r0], -r4
 478:	000000f8 	strdeq	r0, [r0], -r8
 47c:	00000104 	andeq	r0, r0, r4, lsl #2
	...
 488:	00000134 	andeq	r0, r0, r4, lsr r1
 48c:	00000134 	andeq	r0, r0, r4, lsr r1
 490:	00000134 	andeq	r0, r0, r4, lsr r1
 494:	0000013c 	andeq	r0, r0, ip, lsr r1
	...
 4a0:	0000024c 	andeq	r0, r0, ip, asr #4
 4a4:	00000264 	andeq	r0, r0, r4, ror #4
 4a8:	000002c8 	andeq	r0, r0, r8, asr #5
 4ac:	000002e8 	andeq	r0, r0, r8, ror #5
	...
 4b8:	00000008 	andeq	r0, r0, r8
 4bc:	0000000c 	andeq	r0, r0, ip
 4c0:	00000014 	andeq	r0, r0, r4, lsl r0
 4c4:	00000054 	andeq	r0, r0, r4, asr r0
 4c8:	00000058 	andeq	r0, r0, r8, asr r0
 4cc:	00000060 	andeq	r0, r0, r0, rrx
	...
 4d8:	00000060 	andeq	r0, r0, r0, rrx
 4dc:	00000068 	andeq	r0, r0, r8, rrx
 4e0:	0000006c 	andeq	r0, r0, ip, rrx
 4e4:	000000ac 	andeq	r0, r0, ip, lsr #1
 4e8:	000000b0 	strheq	r0, [r0], -r0	; <UNPREDICTABLE>
 4ec:	000000b8 	strheq	r0, [r0], -r8
	...
 4f8:	00000068 	andeq	r0, r0, r8, rrx
 4fc:	00000068 	andeq	r0, r0, r8, rrx
 500:	0000006c 	andeq	r0, r0, ip, rrx
 504:	000000ac 	andeq	r0, r0, ip, lsr #1
 508:	000000b0 	strheq	r0, [r0], -r0	; <UNPREDICTABLE>
 50c:	000000b8 	strheq	r0, [r0], -r8
	...
 518:	000000e8 	andeq	r0, r0, r8, ror #1
 51c:	000000f0 	strdeq	r0, [r0], -r0	; <UNPREDICTABLE>
 520:	000000f4 	strdeq	r0, [r0], -r4
 524:	00000134 	andeq	r0, r0, r4, lsr r1
 528:	00000138 	andeq	r0, r0, r8, lsr r1
 52c:	00000140 	andeq	r0, r0, r0, asr #2
	...
 538:	000000f0 	strdeq	r0, [r0], -r0	; <UNPREDICTABLE>
 53c:	000000f0 	strdeq	r0, [r0], -r0	; <UNPREDICTABLE>
 540:	000000f4 	strdeq	r0, [r0], -r4
 544:	00000134 	andeq	r0, r0, r4, lsr r1
 548:	00000138 	andeq	r0, r0, r8, lsr r1
 54c:	00000140 	andeq	r0, r0, r0, asr #2
	...
 558:	00000144 	andeq	r0, r0, r4, asr #2
 55c:	00000148 	andeq	r0, r0, r8, asr #2
 560:	00000150 	andeq	r0, r0, r0, asr r1
 564:	0000015c 	andeq	r0, r0, ip, asr r1
	...
