
tests-2.0/part2-test2-no-leak.elf:     file format elf32-littlearm


Disassembly of section .text:

00008000 <__code_start__>:
    8000:	e3a00013 	mov	r0, #19, 0
    8004:	e3800080 	orr	r0, r0, #128, 0	; 0x80
    8008:	e129f000 	msr	CPSR_fc, r0
    800c:	e3a01000 	mov	r1, #0, 0
    8010:	ee071f95 	mcr	15, 0, r1, cr7, cr5, {4}
    8014:	e3a0d302 	mov	sp, #134217728	; 0x8000000
    8018:	e3a0b000 	mov	fp, #0, 0
    801c:	eb000587 	bl	9640 <_cstart>
    8020:	eb0005d0 	bl	9768 <rpi_reboot>

00008024 <PUT32>:
    8024:	e5801000 	str	r1, [r0]
    8028:	e12fff1e 	bx	lr

0000802c <GET32>:
    802c:	e5900000 	ldr	r0, [r0]
    8030:	e12fff1e 	bx	lr

00008034 <BRANCHTO>:
    8034:	e12fff10 	bx	r0

00008038 <test>:
    8038:	e92d4070 	push	{r4, r5, r6, lr}
    803c:	e59f50c0 	ldr	r5, [pc, #192]	; 8104 <test+0xcc>
    8040:	e59f40c0 	ldr	r4, [pc, #192]	; 8108 <test+0xd0>
    8044:	e59f60c0 	ldr	r6, [pc, #192]	; 810c <test+0xd4>
    8048:	e1a02005 	mov	r2, r5
    804c:	e1a03006 	mov	r3, r6
    8050:	e1a01004 	mov	r1, r4
    8054:	e59f00b4 	ldr	r0, [pc, #180]	; 8110 <test+0xd8>
    8058:	e24dd020 	sub	sp, sp, #32, 0
    805c:	eb0002db 	bl	8bd0 <printk>
    8060:	e1540005 	cmp	r4, r5
    8064:	33a0301f 	movcc	r3, #31, 0
    8068:	359f20a4 	ldrcc	r2, [pc, #164]	; 8114 <test+0xdc>
    806c:	3a00001e 	bcc	80ec <test+0xb4>
    8070:	e1540006 	cmp	r4, r6
    8074:	2a00001a 	bcs	80e4 <test+0xac>
    8078:	e3a03022 	mov	r3, #34, 0	; 0x22
    807c:	e59f6094 	ldr	r6, [pc, #148]	; 8118 <test+0xe0>
    8080:	e59f5094 	ldr	r5, [pc, #148]	; 811c <test+0xe4>
    8084:	e58d3010 	str	r3, [sp, #16]
    8088:	e58d6008 	str	r6, [sp, #8]
    808c:	e58d500c 	str	r5, [sp, #12]
    8090:	e28d3008 	add	r3, sp, #8, 0
    8094:	e893000e 	ldm	r3, {r1, r2, r3}
    8098:	e3a00004 	mov	r0, #4, 0
    809c:	eb0000c5 	bl	83b8 <ckalloc>
    80a0:	e3a02004 	mov	r2, #4, 0
    80a4:	e3a01000 	mov	r1, #0, 0
    80a8:	e5840000 	str	r0, [r4]
    80ac:	eb0002a9 	bl	8b58 <memset>
    80b0:	e3a03025 	mov	r3, #37, 0	; 0x25
    80b4:	e58d6014 	str	r6, [sp, #20]
    80b8:	e58d301c 	str	r3, [sp, #28]
    80bc:	e58d5018 	str	r5, [sp, #24]
    80c0:	e28d3020 	add	r3, sp, #32, 0
    80c4:	e913000e 	ldmdb	r3, {r1, r2, r3}
    80c8:	e3a00004 	mov	r0, #4, 0
    80cc:	eb0000b9 	bl	83b8 <ckalloc>
    80d0:	e1a04000 	mov	r4, r0
    80d4:	eb00022c 	bl	898c <check_no_leak>
    80d8:	e1a00004 	mov	r0, r4
    80dc:	e28dd020 	add	sp, sp, #32, 0
    80e0:	e8bd8070 	pop	{r4, r5, r6, pc}
    80e4:	e3a03020 	mov	r3, #32, 0
    80e8:	e59f2030 	ldr	r2, [pc, #48]	; 8120 <test+0xe8>
    80ec:	e59f1024 	ldr	r1, [pc, #36]	; 8118 <test+0xe0>
    80f0:	e58d2000 	str	r2, [sp]
    80f4:	e59f0028 	ldr	r0, [pc, #40]	; 8124 <test+0xec>
    80f8:	e59f201c 	ldr	r2, [pc, #28]	; 811c <test+0xe4>
    80fc:	eb0002b3 	bl	8bd0 <printk>
    8100:	eb000543 	bl	9614 <clean_reboot>
    8104:	0000aa50 	andeq	sl, r0, r0, asr sl
    8108:	0000ae78 	andeq	sl, r0, r8, ror lr
    810c:	0000ae80 	andeq	sl, r0, r0, lsl #29
    8110:	0000a130 	andeq	sl, r0, r0, lsr r1
    8114:	0000a18c 	andeq	sl, r0, ip, lsl #3
    8118:	0000a158 	andeq	sl, r0, r8, asr r1
    811c:	0000a250 	andeq	sl, r0, r0, asr r2
    8120:	0000a1b8 			; <UNDEFINED> instruction: 0x0000a1b8
    8124:	0000a178 	andeq	sl, r0, r8, ror r1

00008128 <notmain>:
    8128:	e92d4010 	push	{r4, lr}
    812c:	e59f0018 	ldr	r0, [pc, #24]	; 814c <notmain+0x24>
    8130:	eb0002a6 	bl	8bd0 <printk>
    8134:	ebffffbf 	bl	8038 <test>
    8138:	e8bd4010 	pop	{r4, lr}
    813c:	e1a02000 	mov	r2, r0
    8140:	e59f0008 	ldr	r0, [pc, #8]	; 8150 <notmain+0x28>
    8144:	e512109c 	ldr	r1, [r2, #-156]	; 0xffffff64
    8148:	ea0002a0 	b	8bd0 <printk>
    814c:	0000a1e0 	andeq	sl, r0, r0, ror #3
    8150:	0000a228 	andeq	sl, r0, r8, lsr #4

00008154 <ck_first_hdr>:
    8154:	e59f3004 	ldr	r3, [pc, #4]	; 8160 <ck_first_hdr+0xc>
    8158:	e5930000 	ldr	r0, [r3]
    815c:	e12fff1e 	bx	lr
    8160:	0000aa50 	andeq	sl, r0, r0, asr sl

00008164 <ck_next_hdr>:
    8164:	e3500000 	cmp	r0, #0, 0
    8168:	15900000 	ldrne	r0, [r0]
    816c:	e12fff1e 	bx	lr

00008170 <ck_hdr_start>:
    8170:	e28000a8 	add	r0, r0, #168, 0	; 0xa8
    8174:	e12fff1e 	bx	lr

00008178 <ck_hdr_end>:
    8178:	e5903004 	ldr	r3, [r0, #4]
    817c:	e28330a8 	add	r3, r3, #168, 0	; 0xa8
    8180:	e0800003 	add	r0, r0, r3
    8184:	e12fff1e 	bx	lr

00008188 <ck_ptr_in_block>:
    8188:	e5903004 	ldr	r3, [r0, #4]
    818c:	e28020a8 	add	r2, r0, #168, 0	; 0xa8
    8190:	e28330a8 	add	r3, r3, #168, 0	; 0xa8
    8194:	e0800003 	add	r0, r0, r3
    8198:	e1520001 	cmp	r2, r1
    819c:	91510000 	cmpls	r1, r0
    81a0:	33a00001 	movcc	r0, #1, 0
    81a4:	23a00000 	movcs	r0, #0, 0
    81a8:	e12fff1e 	bx	lr

000081ac <ck_ptr_is_alloced>:
    81ac:	e59f3068 	ldr	r3, [pc, #104]	; 821c <ck_ptr_is_alloced+0x70>
    81b0:	e92d4010 	push	{r4, lr}
    81b4:	e5934000 	ldr	r4, [r3]
    81b8:	e3540000 	cmp	r4, #0, 0
    81bc:	0a000014 	beq	8214 <ck_ptr_is_alloced+0x68>
    81c0:	e5943004 	ldr	r3, [r4, #4]
    81c4:	e28420a8 	add	r2, r4, #168, 0	; 0xa8
    81c8:	ea000004 	b	81e0 <ck_ptr_is_alloced+0x34>
    81cc:	e5944000 	ldr	r4, [r4]
    81d0:	e3540000 	cmp	r4, #0, 0
    81d4:	e28420a8 	add	r2, r4, #168, 0	; 0xa8
    81d8:	0a00000d 	beq	8214 <ck_ptr_is_alloced+0x68>
    81dc:	e5943004 	ldr	r3, [r4, #4]
    81e0:	e28330a8 	add	r3, r3, #168, 0	; 0xa8
    81e4:	e0843003 	add	r3, r4, r3
    81e8:	e1500003 	cmp	r0, r3
    81ec:	33a03001 	movcc	r3, #1, 0
    81f0:	23a03000 	movcs	r3, #0, 0
    81f4:	e1500002 	cmp	r0, r2
    81f8:	33a03000 	movcc	r3, #0, 0
    81fc:	e3530000 	cmp	r3, #0, 0
    8200:	0afffff1 	beq	81cc <ck_ptr_is_alloced+0x20>
    8204:	e1a01000 	mov	r1, r0
    8208:	e1a02004 	mov	r2, r4
    820c:	e59f000c 	ldr	r0, [pc, #12]	; 8220 <ck_ptr_is_alloced+0x74>
    8210:	eb00026e 	bl	8bd0 <printk>
    8214:	e1a00004 	mov	r0, r4
    8218:	e8bd8010 	pop	{r4, pc}
    821c:	0000aa50 	andeq	sl, r0, r0, asr sl
    8220:	0000a258 	andeq	sl, r0, r8, asr r2

00008224 <ckfree>:
    8224:	e92d41f0 	push	{r4, r5, r6, r7, r8, lr}
    8228:	e1a04000 	mov	r4, r0
    822c:	e24dd018 	sub	sp, sp, #24, 0
    8230:	e28d0018 	add	r0, sp, #24, 0
    8234:	e900000e 	stmdb	r0, {r1, r2, r3}
    8238:	e59d8014 	ldr	r8, [sp, #20]
    823c:	e1cd60dc 	ldrd	r6, [sp, #12]
    8240:	e1a03008 	mov	r3, r8
    8244:	e1a01006 	mov	r1, r6
    8248:	e1a02007 	mov	r2, r7
    824c:	e59f0134 	ldr	r0, [pc, #308]	; 8388 <ckfree+0x164>
    8250:	eb00025e 	bl	8bd0 <printk>
    8254:	e1a01004 	mov	r1, r4
    8258:	e59f012c 	ldr	r0, [pc, #300]	; 838c <ckfree+0x168>
    825c:	eb00025b 	bl	8bd0 <printk>
    8260:	e51430a0 	ldr	r3, [r4, #-160]	; 0xffffff60
    8264:	e353000b 	cmp	r3, #11, 0
    8268:	1a000035 	bne	8344 <ckfree+0x120>
    826c:	e3a0300c 	mov	r3, #12, 0
    8270:	e59f6118 	ldr	r6, [pc, #280]	; 8390 <ckfree+0x16c>
    8274:	e50430a0 	str	r3, [r4, #-160]	; 0xffffff60
    8278:	e5962000 	ldr	r2, [r6]
    827c:	e3520000 	cmp	r2, #0, 0
    8280:	0a000038 	beq	8368 <ckfree+0x144>
    8284:	e24450a8 	sub	r5, r4, #168, 0	; 0xa8
    8288:	ea000002 	b	8298 <ckfree+0x74>
    828c:	e5922000 	ldr	r2, [r2]
    8290:	e3520000 	cmp	r2, #0, 0
    8294:	0a000033 	beq	8368 <ckfree+0x144>
    8298:	e5923004 	ldr	r3, [r2, #4]
    829c:	e28210a8 	add	r1, r2, #168, 0	; 0xa8
    82a0:	e28330a8 	add	r3, r3, #168, 0	; 0xa8
    82a4:	e0823003 	add	r3, r2, r3
    82a8:	e1540003 	cmp	r4, r3
    82ac:	33a03001 	movcc	r3, #1, 0
    82b0:	23a03000 	movcs	r3, #0, 0
    82b4:	e1540001 	cmp	r4, r1
    82b8:	33a03000 	movcc	r3, #0, 0
    82bc:	e3530000 	cmp	r3, #0, 0
    82c0:	0afffff1 	beq	828c <ckfree+0x68>
    82c4:	e1a01004 	mov	r1, r4
    82c8:	e59f00c4 	ldr	r0, [pc, #196]	; 8394 <ckfree+0x170>
    82cc:	eb00023f 	bl	8bd0 <printk>
    82d0:	e5963000 	ldr	r3, [r6]
    82d4:	e1550003 	cmp	r5, r3
    82d8:	0a000010 	beq	8320 <ckfree+0xfc>
    82dc:	e3530000 	cmp	r3, #0, 0
    82e0:	0a000007 	beq	8304 <ckfree+0xe0>
    82e4:	e5932000 	ldr	r2, [r3]
    82e8:	e3520000 	cmp	r2, #0, 0
    82ec:	0a000004 	beq	8304 <ckfree+0xe0>
    82f0:	e1550002 	cmp	r5, r2
    82f4:	0a00000f 	beq	8338 <ckfree+0x114>
    82f8:	e1a03002 	mov	r3, r2
    82fc:	e3530000 	cmp	r3, #0, 0
    8300:	1afffff7 	bne	82e4 <ckfree+0xc0>
    8304:	e3a0304f 	mov	r3, #79, 0	; 0x4f
    8308:	e59f2088 	ldr	r2, [pc, #136]	; 8398 <ckfree+0x174>
    830c:	e59f1088 	ldr	r1, [pc, #136]	; 839c <ckfree+0x178>
    8310:	e59f0088 	ldr	r0, [pc, #136]	; 83a0 <ckfree+0x17c>
    8314:	e58d5000 	str	r5, [sp]
    8318:	eb00022c 	bl	8bd0 <printk>
    831c:	eb0004bc 	bl	9614 <clean_reboot>
    8320:	e51430a8 	ldr	r3, [r4, #-168]	; 0xffffff58
    8324:	e5863000 	str	r3, [r6]
    8328:	e1a00005 	mov	r0, r5
    832c:	e28dd018 	add	sp, sp, #24, 0
    8330:	e8bd41f0 	pop	{r4, r5, r6, r7, r8, lr}
    8334:	ea000042 	b	8444 <kr_free>
    8338:	e51420a8 	ldr	r2, [r4, #-168]	; 0xffffff58
    833c:	e5832000 	str	r2, [r3]
    8340:	eafffff8 	b	8328 <ckfree+0x104>
    8344:	e1a03008 	mov	r3, r8
    8348:	e1a02007 	mov	r2, r7
    834c:	e1a01006 	mov	r1, r6
    8350:	e59f004c 	ldr	r0, [pc, #76]	; 83a4 <ckfree+0x180>
    8354:	eb00021d 	bl	8bd0 <printk>
    8358:	e51410a0 	ldr	r1, [r4, #-160]	; 0xffffff60
    835c:	e59f0044 	ldr	r0, [pc, #68]	; 83a8 <ckfree+0x184>
    8360:	eb00021a 	bl	8bd0 <printk>
    8364:	eb0004aa 	bl	9614 <clean_reboot>
    8368:	e59f203c 	ldr	r2, [pc, #60]	; 83ac <ckfree+0x188>
    836c:	e3a0305d 	mov	r3, #93, 0	; 0x5d
    8370:	e59f1024 	ldr	r1, [pc, #36]	; 839c <ckfree+0x178>
    8374:	e58d2000 	str	r2, [sp]
    8378:	e59f0030 	ldr	r0, [pc, #48]	; 83b0 <ckfree+0x18c>
    837c:	e59f2030 	ldr	r2, [pc, #48]	; 83b4 <ckfree+0x190>
    8380:	eb000212 	bl	8bd0 <printk>
    8384:	eb0004a2 	bl	9614 <clean_reboot>
    8388:	0000a268 	andeq	sl, r0, r8, ror #4
    838c:	0000a274 	andeq	sl, r0, r4, ror r2
    8390:	0000aa50 	andeq	sl, r0, r0, asr sl
    8394:	0000a258 	andeq	sl, r0, r8, asr r2
    8398:	0000a330 	andeq	sl, r0, r0, lsr r3
    839c:	0000a2c4 	andeq	sl, r0, r4, asr #5
    83a0:	0000a2d0 	ldrdeq	sl, [r0], -r0
    83a4:	0000a284 	andeq	sl, r0, r4, lsl #5
    83a8:	0000a29c 	muleq	r0, ip, r2
    83ac:	0000a2fc 	strdeq	sl, [r0], -ip
    83b0:	0000a178 	andeq	sl, r0, r8, ror r1
    83b4:	0000a33c 	andeq	sl, r0, ip, lsr r3

000083b8 <ckalloc>:
    83b8:	e92d4070 	push	{r4, r5, r6, lr}
    83bc:	e24dd010 	sub	sp, sp, #16, 0
    83c0:	e1a06000 	mov	r6, r0
    83c4:	e28d5004 	add	r5, sp, #4, 0
    83c8:	e28000a8 	add	r0, r0, #168, 0	; 0xa8
    83cc:	e885000e 	stm	r5, {r1, r2, r3}
    83d0:	eb00003d 	bl	84cc <kr_malloc>
    83d4:	e3a020a8 	mov	r2, #168, 0	; 0xa8
    83d8:	e1a04000 	mov	r4, r0
    83dc:	e3a01000 	mov	r1, #0, 0
    83e0:	eb0001dc 	bl	8b58 <memset>
    83e4:	e8950007 	ldm	r5, {r0, r1, r2}
    83e8:	e3a0c00b 	mov	ip, #11, 0
    83ec:	e2843010 	add	r3, r4, #16, 0
    83f0:	e9841040 	stmib	r4, {r6, ip}
    83f4:	e28450a8 	add	r5, r4, #168, 0	; 0xa8
    83f8:	e8830007 	stm	r3, {r0, r1, r2}
    83fc:	e1cd20d8 	ldrd	r2, [sp, #8]
    8400:	e59d1004 	ldr	r1, [sp, #4]
    8404:	e59f002c 	ldr	r0, [pc, #44]	; 8438 <ckalloc+0x80>
    8408:	eb0001f0 	bl	8bd0 <printk>
    840c:	e1a02006 	mov	r2, r6
    8410:	e1a01005 	mov	r1, r5
    8414:	e59f0020 	ldr	r0, [pc, #32]	; 843c <ckalloc+0x84>
    8418:	eb0001ec 	bl	8bd0 <printk>
    841c:	e1a00005 	mov	r0, r5
    8420:	e59f3018 	ldr	r3, [pc, #24]	; 8440 <ckalloc+0x88>
    8424:	e5932000 	ldr	r2, [r3]
    8428:	e5842000 	str	r2, [r4]
    842c:	e5834000 	str	r4, [r3]
    8430:	e28dd010 	add	sp, sp, #16, 0
    8434:	e8bd8070 	pop	{r4, r5, r6, pc}
    8438:	0000a268 	andeq	sl, r0, r8, ror #4
    843c:	0000a314 	andeq	sl, r0, r4, lsl r3
    8440:	0000aa50 	andeq	sl, r0, r0, asr sl

00008444 <kr_free>:
    8444:	e92d4010 	push	{r4, lr}
    8448:	e59fe078 	ldr	lr, [pc, #120]	; 84c8 <kr_free+0x84>
    844c:	e2401008 	sub	r1, r0, #8, 0
    8450:	e59e3000 	ldr	r3, [lr]
    8454:	ea000004 	b	846c <kr_free+0x28>
    8458:	e1520001 	cmp	r2, r1
    845c:	8a000009 	bhi	8488 <kr_free+0x44>
    8460:	e1520003 	cmp	r2, r3
    8464:	9a000007 	bls	8488 <kr_free+0x44>
    8468:	e1a03002 	mov	r3, r2
    846c:	e1530001 	cmp	r3, r1
    8470:	e5932000 	ldr	r2, [r3]
    8474:	3afffff7 	bcc	8458 <kr_free+0x14>
    8478:	e1530002 	cmp	r3, r2
    847c:	3afffff9 	bcc	8468 <kr_free+0x24>
    8480:	e1510002 	cmp	r1, r2
    8484:	2afffff7 	bcs	8468 <kr_free+0x24>
    8488:	e510c004 	ldr	ip, [r0, #-4]
    848c:	e58e3000 	str	r3, [lr]
    8490:	e081418c 	add	r4, r1, ip, lsl #3
    8494:	e1520004 	cmp	r2, r4
    8498:	08920014 	ldmeq	r2, {r2, r4}
    849c:	008cc004 	addeq	ip, ip, r4
    84a0:	0500c004 	streq	ip, [r0, #-4]
    84a4:	e5934004 	ldr	r4, [r3, #4]
    84a8:	e5002008 	str	r2, [r0, #-8]
    84ac:	e0830184 	add	r0, r3, r4, lsl #3
    84b0:	e1510000 	cmp	r1, r0
    84b4:	01a01002 	moveq	r1, r2
    84b8:	0084c00c 	addeq	ip, r4, ip
    84bc:	0583c004 	streq	ip, [r3, #4]
    84c0:	e5831000 	str	r1, [r3]
    84c4:	e8bd8010 	pop	{r4, pc}
    84c8:	0000aa58 	andeq	sl, r0, r8, asr sl

000084cc <kr_malloc>:
    84cc:	e92d41f0 	push	{r4, r5, r6, r7, r8, lr}
    84d0:	e59f50ec 	ldr	r5, [pc, #236]	; 85c4 <kr_malloc+0xf8>
    84d4:	e2804007 	add	r4, r0, #7, 0
    84d8:	e5951000 	ldr	r1, [r5]
    84dc:	e1a041a4 	lsr	r4, r4, #3
    84e0:	e3510000 	cmp	r1, #0, 0
    84e4:	e2844001 	add	r4, r4, #1, 0
    84e8:	0a00002c 	beq	85a0 <kr_malloc+0xd4>
    84ec:	e5910000 	ldr	r0, [r1]
    84f0:	e5902004 	ldr	r2, [r0, #4]
    84f4:	e1520004 	cmp	r2, r4
    84f8:	2a00002f 	bcs	85bc <kr_malloc+0xf0>
    84fc:	e3a07902 	mov	r7, #32768	; 0x8000
    8500:	e59f60c0 	ldr	r6, [pc, #192]	; 85c8 <kr_malloc+0xfc>
    8504:	ea000003 	b	8518 <kr_malloc+0x4c>
    8508:	e5930000 	ldr	r0, [r3]
    850c:	e5902004 	ldr	r2, [r0, #4]
    8510:	e1520004 	cmp	r2, r4
    8514:	2a000015 	bcs	8570 <kr_malloc+0xa4>
    8518:	e1510000 	cmp	r1, r0
    851c:	11a03000 	movne	r3, r0
    8520:	1afffff8 	bne	8508 <kr_malloc+0x3c>
    8524:	e3a01902 	mov	r1, #32768	; 0x8000
    8528:	e1a00006 	mov	r0, r6
    852c:	eb0001a7 	bl	8bd0 <printk>
    8530:	e3a00701 	mov	r0, #262144	; 0x40000
    8534:	eb0000ec 	bl	88ec <sbrk>
    8538:	e1a03000 	mov	r3, r0
    853c:	e3730001 	cmn	r3, #1, 0
    8540:	e2800008 	add	r0, r0, #8, 0
    8544:	0a000013 	beq	8598 <kr_malloc+0xcc>
    8548:	e5837004 	str	r7, [r3, #4]
    854c:	ebffffbc 	bl	8444 <kr_free>
    8550:	e5953000 	ldr	r3, [r5]
    8554:	e3530000 	cmp	r3, #0, 0
    8558:	0a00000e 	beq	8598 <kr_malloc+0xcc>
    855c:	e5930000 	ldr	r0, [r3]
    8560:	e1a01003 	mov	r1, r3
    8564:	e5902004 	ldr	r2, [r0, #4]
    8568:	e1520004 	cmp	r2, r4
    856c:	3affffe9 	bcc	8518 <kr_malloc+0x4c>
    8570:	e1520004 	cmp	r2, r4
    8574:	05902000 	ldreq	r2, [r0]
    8578:	10422004 	subne	r2, r2, r4
    857c:	15802004 	strne	r2, [r0, #4]
    8580:	10800182 	addne	r0, r0, r2, lsl #3
    8584:	15804004 	strne	r4, [r0, #4]
    8588:	05832000 	streq	r2, [r3]
    858c:	e5853000 	str	r3, [r5]
    8590:	e2800008 	add	r0, r0, #8, 0
    8594:	e8bd81f0 	pop	{r4, r5, r6, r7, r8, pc}
    8598:	e3a00000 	mov	r0, #0, 0
    859c:	e8bd81f0 	pop	{r4, r5, r6, r7, r8, pc}
    85a0:	e2853008 	add	r3, r5, #8, 0
    85a4:	e585100c 	str	r1, [r5, #12]
    85a8:	e1a00003 	mov	r0, r3
    85ac:	e1a01003 	mov	r1, r3
    85b0:	e5853000 	str	r3, [r5]
    85b4:	e5853008 	str	r3, [r5, #8]
    85b8:	eaffffcf 	b	84fc <kr_malloc+0x30>
    85bc:	e1a03001 	mov	r3, r1
    85c0:	eaffffea 	b	8570 <kr_malloc+0xa4>
    85c4:	0000aa58 	andeq	sl, r0, r8, asr sl
    85c8:	0000a344 	andeq	sl, r0, r4, asr #6

000085cc <mark>:
    85cc:	e92d4ff0 	push	{r4, r5, r6, r7, r8, r9, sl, fp, lr}
    85d0:	e1500001 	cmp	r0, r1
    85d4:	23a03052 	movcs	r3, #82, 0	; 0x52
    85d8:	259f2120 	ldrcs	r2, [pc, #288]	; 8700 <mark+0x134>
    85dc:	e24dd00c 	sub	sp, sp, #12, 0
    85e0:	2a000040 	bcs	86e8 <mark+0x11c>
    85e4:	e3100003 	tst	r0, #3, 0
    85e8:	e1a04000 	mov	r4, r0
    85ec:	1a00003b 	bne	86e0 <mark+0x114>
    85f0:	e3110003 	tst	r1, #3, 0
    85f4:	13a03056 	movne	r3, #86, 0	; 0x56
    85f8:	159f2104 	ldrne	r2, [pc, #260]	; 8704 <mark+0x138>
    85fc:	1a000039 	bne	86e8 <mark+0x11c>
    8600:	e0411000 	sub	r1, r1, r0
    8604:	e3c11003 	bic	r1, r1, #3, 0
    8608:	e2805004 	add	r5, r0, #4, 0
    860c:	e59f70f4 	ldr	r7, [pc, #244]	; 8708 <mark+0x13c>
    8610:	e59fa0f4 	ldr	sl, [pc, #244]	; 870c <mark+0x140>
    8614:	e0815005 	add	r5, r1, r5
    8618:	e5940000 	ldr	r0, [r4]
    861c:	e5973000 	ldr	r3, [r7]
    8620:	e1a08004 	mov	r8, r4
    8624:	e1500003 	cmp	r0, r3
    8628:	e2844004 	add	r4, r4, #4, 0
    862c:	3a00001a 	bcc	869c <mark+0xd0>
    8630:	e5973004 	ldr	r3, [r7, #4]
    8634:	e1500003 	cmp	r0, r3
    8638:	2a000017 	bcs	869c <mark+0xd0>
    863c:	ebfffeda 	bl	81ac <ck_ptr_is_alloced>
    8640:	e2506000 	subs	r6, r0, #0, 0
    8644:	0a000014 	beq	869c <mark+0xd0>
    8648:	e1d692b4 	ldrh	r9, [r6, #36]	; 0x24
    864c:	ebfffec7 	bl	8170 <ck_hdr_start>
    8650:	e286b0a8 	add	fp, r6, #168, 0	; 0xa8
    8654:	e1a01000 	mov	r1, r0
    8658:	e5143004 	ldr	r3, [r4, #-4]
    865c:	e1a02008 	mov	r2, r8
    8660:	e1a0000a 	mov	r0, sl
    8664:	e58db000 	str	fp, [sp]
    8668:	eb000158 	bl	8bd0 <printk>
    866c:	e3590001 	cmp	r9, #1, 0
    8670:	8a00000d 	bhi	86ac <mark+0xe0>
    8674:	e5143004 	ldr	r3, [r4, #-4]
    8678:	e59f0090 	ldr	r0, [pc, #144]	; 8710 <mark+0x144>
    867c:	e15b0003 	cmp	fp, r3
    8680:	03a03002 	moveq	r3, #2, 0
    8684:	13a03001 	movne	r3, #1, 0
    8688:	e1a01003 	mov	r1, r3
    868c:	e1c632b4 	strh	r3, [r6, #36]	; 0x24
    8690:	eb00014e 	bl	8bd0 <printk>
    8694:	e3590000 	cmp	r9, #0, 0
    8698:	0a000008 	beq	86c0 <mark+0xf4>
    869c:	e1550004 	cmp	r5, r4
    86a0:	1affffdc 	bne	8618 <mark+0x4c>
    86a4:	e28dd00c 	add	sp, sp, #12, 0
    86a8:	e8bd8ff0 	pop	{r4, r5, r6, r7, r8, r9, sl, fp, pc}
    86ac:	e59f0060 	ldr	r0, [pc, #96]	; 8714 <mark+0x148>
    86b0:	eb000146 	bl	8bd0 <printk>
    86b4:	e1550004 	cmp	r5, r4
    86b8:	1affffd6 	bne	8618 <mark+0x4c>
    86bc:	eafffff8 	b	86a4 <mark+0xd8>
    86c0:	e5961004 	ldr	r1, [r6, #4]
    86c4:	e2860004 	add	r0, r6, #4, 0
    86c8:	e28110a8 	add	r1, r1, #168, 0	; 0xa8
    86cc:	e0861001 	add	r1, r6, r1
    86d0:	ebffffbd 	bl	85cc <mark>
    86d4:	e1550004 	cmp	r5, r4
    86d8:	1affffce 	bne	8618 <mark+0x4c>
    86dc:	eafffff0 	b	86a4 <mark+0xd8>
    86e0:	e3a03055 	mov	r3, #85, 0	; 0x55
    86e4:	e59f202c 	ldr	r2, [pc, #44]	; 8718 <mark+0x14c>
    86e8:	e59f102c 	ldr	r1, [pc, #44]	; 871c <mark+0x150>
    86ec:	e58d2000 	str	r2, [sp]
    86f0:	e59f0028 	ldr	r0, [pc, #40]	; 8720 <mark+0x154>
    86f4:	e59f2028 	ldr	r2, [pc, #40]	; 8724 <mark+0x158>
    86f8:	eb000134 	bl	8bd0 <printk>
    86fc:	eb0003c4 	bl	9614 <clean_reboot>
    8700:	0000a370 	andeq	sl, r0, r0, ror r3
    8704:	0000a388 	andeq	sl, r0, r8, lsl #7
    8708:	0000aa68 	andeq	sl, r0, r8, ror #20
    870c:	0000a398 	muleq	r0, r8, r3
    8710:	0000a3c4 	andeq	sl, r0, r4, asr #7
    8714:	0000a3d4 	ldrdeq	sl, [r0], -r4
    8718:	0000a378 	andeq	sl, r0, r8, ror r3
    871c:	0000a368 	andeq	sl, r0, r8, ror #6
    8720:	0000a178 	andeq	sl, r0, r8, ror r1
    8724:	0000a680 	andeq	sl, r0, r0, lsl #13

00008728 <mark_all>:
    8728:	e92d4010 	push	{r4, lr}
    872c:	e24dd040 	sub	sp, sp, #64, 0	; 0x40
    8730:	ebfffe87 	bl	8154 <ck_first_hdr>
    8734:	e3500000 	cmp	r0, #0, 0
    8738:	0a000006 	beq	8758 <mark_all+0x30>
    873c:	e3a04000 	mov	r4, #0, 0
    8740:	e5804020 	str	r4, [r0, #32]
    8744:	e580401c 	str	r4, [r0, #28]
    8748:	e1c042b4 	strh	r4, [r0, #36]	; 0x24
    874c:	ebfffe84 	bl	8164 <ck_next_hdr>
    8750:	e3500000 	cmp	r0, #0, 0
    8754:	1afffff9 	bne	8740 <mark_all+0x18>
    8758:	e1a0000d 	mov	r0, sp
    875c:	eb0000fb 	bl	8b50 <dump_regs>
    8760:	e3a03000 	mov	r3, #0, 0
    8764:	e3a02000 	mov	r2, #0, 0
    8768:	e1a0000d 	mov	r0, sp
    876c:	e28d1038 	add	r1, sp, #56, 0	; 0x38
    8770:	e1cd20f0 	strd	r2, [sp]
    8774:	e1cd20f8 	strd	r2, [sp, #8]
    8778:	ebffff93 	bl	85cc <mark>
    877c:	e3a02302 	mov	r2, #134217728	; 0x8000000
    8780:	e59d1034 	ldr	r1, [sp, #52]	; 0x34
    8784:	e59f002c 	ldr	r0, [pc, #44]	; 87b8 <mark_all+0x90>
    8788:	eb000110 	bl	8bd0 <printk>
    878c:	e59d0034 	ldr	r0, [sp, #52]	; 0x34
    8790:	e3a01302 	mov	r1, #134217728	; 0x8000000
    8794:	ebffff8c 	bl	85cc <mark>
    8798:	e59f101c 	ldr	r1, [pc, #28]	; 87bc <mark_all+0x94>
    879c:	e59f001c 	ldr	r0, [pc, #28]	; 87c0 <mark_all+0x98>
    87a0:	ebffff89 	bl	85cc <mark>
    87a4:	e59f1018 	ldr	r1, [pc, #24]	; 87c4 <mark_all+0x9c>
    87a8:	e59f0018 	ldr	r0, [pc, #24]	; 87c8 <mark_all+0xa0>
    87ac:	ebffff86 	bl	85cc <mark>
    87b0:	e28dd040 	add	sp, sp, #64, 0	; 0x40
    87b4:	e8bd8010 	pop	{r4, pc}
    87b8:	0000a3e4 	andeq	sl, r0, r4, ror #7
    87bc:	0000ae80 	andeq	sl, r0, r0, lsl #29
    87c0:	0000aa50 	andeq	sl, r0, r0, asr sl
    87c4:	0000aa50 	andeq	sl, r0, r0, asr sl
    87c8:	0000aa3c 	andeq	sl, r0, ip, lsr sl

000087cc <sweep_leak>:
    87cc:	e92d47f0 	push	{r4, r5, r6, r7, r8, r9, sl, lr}
    87d0:	e1a08000 	mov	r8, r0
    87d4:	e59f00f0 	ldr	r0, [pc, #240]	; 88cc <sweep_leak+0x100>
    87d8:	eb0000fc 	bl	8bd0 <printk>
    87dc:	e59f00ec 	ldr	r0, [pc, #236]	; 88d0 <sweep_leak+0x104>
    87e0:	eb0000fa 	bl	8bd0 <printk>
    87e4:	ebffffcf 	bl	8728 <mark_all>
    87e8:	ebfffe59 	bl	8154 <ck_first_hdr>
    87ec:	e2504000 	subs	r4, r0, #0, 0
    87f0:	0a00002d 	beq	88ac <sweep_leak+0xe0>
    87f4:	e3a07000 	mov	r7, #0, 0
    87f8:	e59fa0d4 	ldr	sl, [pc, #212]	; 88d4 <sweep_leak+0x108>
    87fc:	e1a06007 	mov	r6, r7
    8800:	e1a05007 	mov	r5, r7
    8804:	e59f90cc 	ldr	r9, [pc, #204]	; 88d8 <sweep_leak+0x10c>
    8808:	ea000005 	b	8824 <sweep_leak+0x58>
    880c:	e3530001 	cmp	r3, #1, 0
    8810:	0a00001f 	beq	8894 <sweep_leak+0xc8>
    8814:	e1a00004 	mov	r0, r4
    8818:	ebfffe51 	bl	8164 <ck_next_hdr>
    881c:	e2504000 	subs	r4, r0, #0, 0
    8820:	0a00000c 	beq	8858 <sweep_leak+0x8c>
    8824:	e1d432b4 	ldrh	r3, [r4, #36]	; 0x24
    8828:	e2855001 	add	r5, r5, #1, 0
    882c:	e3530000 	cmp	r3, #0, 0
    8830:	1afffff5 	bne	880c <sweep_leak+0x40>
    8834:	e1a02004 	mov	r2, r4
    8838:	e1a01005 	mov	r1, r5
    883c:	e1a00009 	mov	r0, r9
    8840:	eb0000e2 	bl	8bd0 <printk>
    8844:	e1a00004 	mov	r0, r4
    8848:	ebfffe45 	bl	8164 <ck_next_hdr>
    884c:	e2504000 	subs	r4, r0, #0, 0
    8850:	e2866001 	add	r6, r6, #1, 0
    8854:	1afffff2 	bne	8824 <sweep_leak+0x58>
    8858:	e1a01005 	mov	r1, r5
    885c:	e59f0078 	ldr	r0, [pc, #120]	; 88dc <sweep_leak+0x110>
    8860:	eb0000da 	bl	8bd0 <printk>
    8864:	e1963007 	orrs	r3, r6, r7
    8868:	0a000012 	beq	88b8 <sweep_leak+0xec>
    886c:	e1a02007 	mov	r2, r7
    8870:	e1a01006 	mov	r1, r6
    8874:	e59f0064 	ldr	r0, [pc, #100]	; 88e0 <sweep_leak+0x114>
    8878:	eb0000d4 	bl	8bd0 <printk>
    887c:	e59f0060 	ldr	r0, [pc, #96]	; 88e4 <sweep_leak+0x118>
    8880:	eb0000d2 	bl	8bd0 <printk>
    8884:	e3580000 	cmp	r8, #0, 0
    8888:	10866007 	addne	r6, r6, r7
    888c:	e1a00006 	mov	r0, r6
    8890:	e8bd87f0 	pop	{r4, r5, r6, r7, r8, r9, sl, pc}
    8894:	e1a02004 	mov	r2, r4
    8898:	e1a01005 	mov	r1, r5
    889c:	e1a0000a 	mov	r0, sl
    88a0:	e2877001 	add	r7, r7, #1, 0
    88a4:	eb0000c9 	bl	8bd0 <printk>
    88a8:	eaffffd9 	b	8814 <sweep_leak+0x48>
    88ac:	e1a01004 	mov	r1, r4
    88b0:	e59f0024 	ldr	r0, [pc, #36]	; 88dc <sweep_leak+0x110>
    88b4:	eb0000c5 	bl	8bd0 <printk>
    88b8:	e3a07000 	mov	r7, #0, 0
    88bc:	e59f0024 	ldr	r0, [pc, #36]	; 88e8 <sweep_leak+0x11c>
    88c0:	e1a06007 	mov	r6, r7
    88c4:	eb0000c1 	bl	8bd0 <printk>
    88c8:	eaffffeb 	b	887c <sweep_leak+0xb0>
    88cc:	0000a400 	andeq	sl, r0, r0, lsl #8
    88d0:	0000a43c 	andeq	sl, r0, ip, lsr r4
    88d4:	0000a468 	andeq	sl, r0, r8, ror #8
    88d8:	0000a454 	andeq	sl, r0, r4, asr r4
    88dc:	0000a480 	andeq	sl, r0, r0, lsl #9
    88e0:	0000a4c8 	andeq	sl, r0, r8, asr #9
    88e4:	0000a4f8 	strdeq	sl, [r0], -r8
    88e8:	0000a4a0 	andeq	sl, r0, r0, lsr #9

000088ec <sbrk>:
    88ec:	e92d4030 	push	{r4, r5, lr}
    88f0:	e2504000 	subs	r4, r0, #0, 0
    88f4:	e24dd00c 	sub	sp, sp, #12, 0
    88f8:	da00000e 	ble	8938 <sbrk+0x4c>
    88fc:	e59f506c 	ldr	r5, [pc, #108]	; 8970 <sbrk+0x84>
    8900:	e5953008 	ldr	r3, [r5, #8]
    8904:	e3530000 	cmp	r3, #0, 0
    8908:	1a000012 	bne	8958 <sbrk+0x6c>
    890c:	e3a01601 	mov	r1, #1048576	; 0x100000
    8910:	e3a03602 	mov	r3, #2097152	; 0x200000
    8914:	e1a00001 	mov	r0, r1
    8918:	e885000a 	stm	r5, {r1, r3}
    891c:	eb000478 	bl	9b04 <kmalloc_init_set_start>
    8920:	e3a03001 	mov	r3, #1, 0
    8924:	e1a00004 	mov	r0, r4
    8928:	e5853008 	str	r3, [r5, #8]
    892c:	e28dd00c 	add	sp, sp, #12, 0
    8930:	e8bd4030 	pop	{r4, r5, lr}
    8934:	ea0004d5 	b	9c90 <kmalloc>
    8938:	e59f2034 	ldr	r2, [pc, #52]	; 8974 <sbrk+0x88>
    893c:	e3a03017 	mov	r3, #23, 0
    8940:	e59f1030 	ldr	r1, [pc, #48]	; 8978 <sbrk+0x8c>
    8944:	e58d2000 	str	r2, [sp]
    8948:	e59f002c 	ldr	r0, [pc, #44]	; 897c <sbrk+0x90>
    894c:	e59f202c 	ldr	r2, [pc, #44]	; 8980 <sbrk+0x94>
    8950:	eb00009e 	bl	8bd0 <printk>
    8954:	eb00032e 	bl	9614 <clean_reboot>
    8958:	e3a03019 	mov	r3, #25, 0
    895c:	e59f201c 	ldr	r2, [pc, #28]	; 8980 <sbrk+0x94>
    8960:	e59f1010 	ldr	r1, [pc, #16]	; 8978 <sbrk+0x8c>
    8964:	e59f0018 	ldr	r0, [pc, #24]	; 8984 <sbrk+0x98>
    8968:	eb000098 	bl	8bd0 <printk>
    896c:	eb000328 	bl	9614 <clean_reboot>
    8970:	0000aa68 	andeq	sl, r0, r8, ror #20
    8974:	0000a534 	andeq	sl, r0, r4, lsr r5
    8978:	0000a368 	andeq	sl, r0, r8, ror #6
    897c:	0000a178 	andeq	sl, r0, r8, ror r1
    8980:	0000a688 	andeq	sl, r0, r8, lsl #13
    8984:	0000a544 	andeq	sl, r0, r4, asr #10

00008988 <ck_find_leaks>:
    8988:	eaffff8f 	b	87cc <sweep_leak>

0000898c <check_no_leak>:
    898c:	e92d4010 	push	{r4, lr}
    8990:	e3a00001 	mov	r0, #1, 0
    8994:	ebffff8c 	bl	87cc <sweep_leak>
    8998:	e3500000 	cmp	r0, #0, 0
    899c:	1a000002 	bne	89ac <check_no_leak+0x20>
    89a0:	e59f001c 	ldr	r0, [pc, #28]	; 89c4 <check_no_leak+0x38>
    89a4:	eb000089 	bl	8bd0 <printk>
    89a8:	e8bd8010 	pop	{r4, pc}
    89ac:	e3a030dc 	mov	r3, #220, 0	; 0xdc
    89b0:	e59f2010 	ldr	r2, [pc, #16]	; 89c8 <check_no_leak+0x3c>
    89b4:	e59f1010 	ldr	r1, [pc, #16]	; 89cc <check_no_leak+0x40>
    89b8:	e59f0010 	ldr	r0, [pc, #16]	; 89d0 <check_no_leak+0x44>
    89bc:	eb000083 	bl	8bd0 <printk>
    89c0:	eb000313 	bl	9614 <clean_reboot>
    89c4:	0000a590 	muleq	r0, r0, r5
    89c8:	0000a690 	muleq	r0, r0, r6
    89cc:	0000a368 	andeq	sl, r0, r8, ror #6
    89d0:	0000a564 	andeq	sl, r0, r4, ror #10

000089d4 <check_should_leak>:
    89d4:	e92d4010 	push	{r4, lr}
    89d8:	e3a00001 	mov	r0, #1, 0
    89dc:	ebffff7a 	bl	87cc <sweep_leak>
    89e0:	e2504000 	subs	r4, r0, #0, 0
    89e4:	0a000004 	beq	89fc <check_should_leak+0x28>
    89e8:	e1a01004 	mov	r1, r4
    89ec:	e59f0020 	ldr	r0, [pc, #32]	; 8a14 <check_should_leak+0x40>
    89f0:	eb000076 	bl	8bd0 <printk>
    89f4:	e1a00004 	mov	r0, r4
    89f8:	e8bd8010 	pop	{r4, pc}
    89fc:	e3a030eb 	mov	r3, #235, 0	; 0xeb
    8a00:	e59f2010 	ldr	r2, [pc, #16]	; 8a18 <check_should_leak+0x44>
    8a04:	e59f1010 	ldr	r1, [pc, #16]	; 8a1c <check_should_leak+0x48>
    8a08:	e59f0010 	ldr	r0, [pc, #16]	; 8a20 <check_should_leak+0x4c>
    8a0c:	eb00006f 	bl	8bd0 <printk>
    8a10:	eb0002ff 	bl	9614 <clean_reboot>
    8a14:	0000a5d8 	ldrdeq	sl, [r0], -r8
    8a18:	0000a6a0 	andeq	sl, r0, r0, lsr #13
    8a1c:	0000a368 	andeq	sl, r0, r8, ror #6
    8a20:	0000a5b0 			; <UNDEFINED> instruction: 0x0000a5b0

00008a24 <ck_gc>:
    8a24:	e92d4ff0 	push	{r4, r5, r6, r7, r8, r9, sl, fp, lr}
    8a28:	e24dd014 	sub	sp, sp, #20, 0
    8a2c:	ebffff3d 	bl	8728 <mark_all>
    8a30:	e59f00d0 	ldr	r0, [pc, #208]	; 8b08 <ck_gc+0xe4>
    8a34:	eb000065 	bl	8bd0 <printk>
    8a38:	e59f00cc 	ldr	r0, [pc, #204]	; 8b0c <ck_gc+0xe8>
    8a3c:	eb000063 	bl	8bd0 <printk>
    8a40:	ebffff38 	bl	8728 <mark_all>
    8a44:	ebfffdc2 	bl	8154 <ck_first_hdr>
    8a48:	e2504000 	subs	r4, r0, #0, 0
    8a4c:	0a000029 	beq	8af8 <ck_gc+0xd4>
    8a50:	e3a05000 	mov	r5, #0, 0
    8a54:	e1a07005 	mov	r7, r5
    8a58:	e1a06005 	mov	r6, r5
    8a5c:	e59fa0ac 	ldr	sl, [pc, #172]	; 8b10 <ck_gc+0xec>
    8a60:	e59f90ac 	ldr	r9, [pc, #172]	; 8b14 <ck_gc+0xf0>
    8a64:	e59f80ac 	ldr	r8, [pc, #172]	; 8b18 <ck_gc+0xf4>
    8a68:	e1d432b4 	ldrh	r3, [r4, #36]	; 0x24
    8a6c:	e2866001 	add	r6, r6, #1, 0
    8a70:	e3530000 	cmp	r3, #0, 0
    8a74:	0a00000b 	beq	8aa8 <ck_gc+0x84>
    8a78:	e1a00004 	mov	r0, r4
    8a7c:	ebfffdb8 	bl	8164 <ck_next_hdr>
    8a80:	e2504000 	subs	r4, r0, #0, 0
    8a84:	1afffff7 	bne	8a68 <ck_gc+0x44>
    8a88:	e1a02007 	mov	r2, r7
    8a8c:	e1a01006 	mov	r1, r6
    8a90:	e1a03005 	mov	r3, r5
    8a94:	e59f0080 	ldr	r0, [pc, #128]	; 8b1c <ck_gc+0xf8>
    8a98:	eb00004c 	bl	8bd0 <printk>
    8a9c:	e1a00005 	mov	r0, r5
    8aa0:	e28dd014 	add	sp, sp, #20, 0
    8aa4:	e8bd8ff0 	pop	{r4, r5, r6, r7, r8, r9, sl, fp, pc}
    8aa8:	e59f3070 	ldr	r3, [pc, #112]	; 8b20 <ck_gc+0xfc>
    8aac:	e594c004 	ldr	ip, [r4, #4]
    8ab0:	e58d300c 	str	r3, [sp, #12]
    8ab4:	e284b0a8 	add	fp, r4, #168, 0	; 0xa8
    8ab8:	e58da004 	str	sl, [sp, #4]
    8abc:	e58d9008 	str	r9, [sp, #8]
    8ac0:	e28d3010 	add	r3, sp, #16, 0
    8ac4:	e913000e 	ldmdb	r3, {r1, r2, r3}
    8ac8:	e1a0000b 	mov	r0, fp
    8acc:	e085500c 	add	r5, r5, ip
    8ad0:	ebfffdd3 	bl	8224 <ckfree>
    8ad4:	e1a0100b 	mov	r1, fp
    8ad8:	e1a00008 	mov	r0, r8
    8adc:	eb00003b 	bl	8bd0 <printk>
    8ae0:	e1a00004 	mov	r0, r4
    8ae4:	ebfffd9e 	bl	8164 <ck_next_hdr>
    8ae8:	e2504000 	subs	r4, r0, #0, 0
    8aec:	e2877001 	add	r7, r7, #1, 0
    8af0:	1affffdc 	bne	8a68 <ck_gc+0x44>
    8af4:	eaffffe3 	b	8a88 <ck_gc+0x64>
    8af8:	e1a05004 	mov	r5, r4
    8afc:	e1a07004 	mov	r7, r4
    8b00:	e1a06004 	mov	r6, r4
    8b04:	eaffffdf 	b	8a88 <ck_gc+0x64>
    8b08:	0000a400 	andeq	sl, r0, r0, lsl #8
    8b0c:	0000a5fc 	strdeq	sl, [r0], -ip
    8b10:	0000a368 	andeq	sl, r0, r8, ror #6
    8b14:	0000a6b4 			; <UNDEFINED> instruction: 0x0000a6b4
    8b18:	0000a60c 	andeq	sl, r0, ip, lsl #12
    8b1c:	0000a61c 	andeq	sl, r0, ip, lsl r6
    8b20:	00000101 	andeq	r0, r0, r1, lsl #2

00008b24 <implement_this>:
    8b24:	e92d4010 	push	{r4, lr}
    8b28:	e59f3010 	ldr	r3, [pc, #16]	; 8b40 <implement_this+0x1c>
    8b2c:	e59f2010 	ldr	r2, [pc, #16]	; 8b44 <implement_this+0x20>
    8b30:	e59f1010 	ldr	r1, [pc, #16]	; 8b48 <implement_this+0x24>
    8b34:	e59f0010 	ldr	r0, [pc, #16]	; 8b4c <implement_this+0x28>
    8b38:	eb000024 	bl	8bd0 <printk>
    8b3c:	eb0002b4 	bl	9614 <clean_reboot>
    8b40:	00000117 	andeq	r0, r0, r7, lsl r1
    8b44:	0000a6c0 	andeq	sl, r0, r0, asr #13
    8b48:	0000a368 	andeq	sl, r0, r8, ror #6
    8b4c:	0000a650 	andeq	sl, r0, r0, asr r6

00008b50 <dump_regs>:
    8b50:	e8a0ffff 	stmia	r0!, {r0, r1, r2, r3, r4, r5, r6, r7, r8, r9, sl, fp, ip, sp, lr, pc}
    8b54:	e12fff1e 	bx	lr

00008b58 <memset>:
    8b58:	e92d4010 	push	{r4, lr}
    8b5c:	e0804002 	add	r4, r0, r2
    8b60:	e1500004 	cmp	r0, r4
    8b64:	28bd8010 	popcs	{r4, pc}
    8b68:	e2423001 	sub	r3, r2, #1, 0
    8b6c:	e3530002 	cmp	r3, #2, 0
    8b70:	e6ef1071 	uxtb	r1, r1
    8b74:	e1a03000 	mov	r3, r0
    8b78:	9a00000b 	bls	8bac <memset+0x54>
    8b7c:	e181e401 	orr	lr, r1, r1, lsl #8
    8b80:	e18ee801 	orr	lr, lr, r1, lsl #16
    8b84:	e3c2c003 	bic	ip, r2, #3, 0
    8b88:	e18eec01 	orr	lr, lr, r1, lsl #24
    8b8c:	e08cc000 	add	ip, ip, r0
    8b90:	e483e004 	str	lr, [r3], #4
    8b94:	e153000c 	cmp	r3, ip
    8b98:	1afffffc 	bne	8b90 <memset+0x38>
    8b9c:	e3c23003 	bic	r3, r2, #3, 0
    8ba0:	e1520003 	cmp	r2, r3
    8ba4:	e0803003 	add	r3, r0, r3
    8ba8:	08bd8010 	popeq	{r4, pc}
    8bac:	e1a02003 	mov	r2, r3
    8bb0:	e4c21001 	strb	r1, [r2], #1
    8bb4:	e1540002 	cmp	r4, r2
    8bb8:	98bd8010 	popls	{r4, pc}
    8bbc:	e2832002 	add	r2, r3, #2, 0
    8bc0:	e1540002 	cmp	r4, r2
    8bc4:	e5c31001 	strb	r1, [r3, #1]
    8bc8:	85c31002 	strbhi	r1, [r3, #2]
    8bcc:	e8bd8010 	pop	{r4, pc}

00008bd0 <printk>:
    8bd0:	e92d000f 	push	{r0, r1, r2, r3}
    8bd4:	e92d4030 	push	{r4, r5, lr}
    8bd8:	e59f5040 	ldr	r5, [pc, #64]	; 8c20 <printk+0x50>
    8bdc:	e24dd00c 	sub	sp, sp, #12, 0
    8be0:	e28d301c 	add	r3, sp, #28, 0
    8be4:	e3a01b01 	mov	r1, #1024	; 0x400
    8be8:	e59d2018 	ldr	r2, [sp, #24]
    8bec:	e1a00005 	mov	r0, r5
    8bf0:	e58d3004 	str	r3, [sp, #4]
    8bf4:	eb0000fb 	bl	8fe8 <va_printk>
    8bf8:	e1a04000 	mov	r4, r0
    8bfc:	e59f3020 	ldr	r3, [pc, #32]	; 8c24 <printk+0x54>
    8c00:	e1a00005 	mov	r0, r5
    8c04:	e5933000 	ldr	r3, [r3]
    8c08:	e12fff33 	blx	r3
    8c0c:	e1a00004 	mov	r0, r4
    8c10:	e28dd00c 	add	sp, sp, #12, 0
    8c14:	e8bd4030 	pop	{r4, r5, lr}
    8c18:	e28dd010 	add	sp, sp, #16, 0
    8c1c:	e12fff1e 	bx	lr
    8c20:	0000aa74 	andeq	sl, r0, r4, ror sl
    8c24:	0000aa3c 	andeq	sl, r0, ip, lsr sl

00008c28 <internal_putk>:
    8c28:	e92d4070 	push	{r4, r5, r6, lr}
    8c2c:	e1a04000 	mov	r4, r0
    8c30:	e5d00000 	ldrb	r0, [r0]
    8c34:	e3500000 	cmp	r0, #0, 0
    8c38:	0a000005 	beq	8c54 <internal_putk+0x2c>
    8c3c:	e59f5018 	ldr	r5, [pc, #24]	; 8c5c <internal_putk+0x34>
    8c40:	e5953000 	ldr	r3, [r5]
    8c44:	e12fff33 	blx	r3
    8c48:	e5f40001 	ldrb	r0, [r4, #1]!
    8c4c:	e3500000 	cmp	r0, #0, 0
    8c50:	1afffffa 	bne	8c40 <internal_putk+0x18>
    8c54:	e3a00001 	mov	r0, #1, 0
    8c58:	e8bd8070 	pop	{r4, r5, r6, pc}
    8c5c:	0000aa4c 	andeq	sl, r0, ip, asr #20

00008c60 <emit.constprop.0>:
    8c60:	e92d41f0 	push	{r4, r5, r6, r7, r8, lr}
    8c64:	e3530080 	cmp	r3, #128, 0	; 0x80
    8c68:	e1a0c000 	mov	ip, r0
    8c6c:	e24dd048 	sub	sp, sp, #72, 0	; 0x48
    8c70:	e1a00001 	mov	r0, r1
    8c74:	ca000069 	bgt	8e20 <emit.constprop.0+0x1c0>
    8c78:	e24c1002 	sub	r1, ip, #2, 0
    8c7c:	e1a0c002 	mov	ip, r2
    8c80:	e351000e 	cmp	r1, #14, 0
    8c84:	979ff101 	ldrls	pc, [pc, r1, lsl #2]
    8c88:	ea0000a7 	b	8f2c <emit.constprop.0+0x2cc>
    8c8c:	00008df8 	strdeq	r8, [r0], -r8	; <UNPREDICTABLE>
    8c90:	00008f2c 	andeq	r8, r0, ip, lsr #30
    8c94:	00008f2c 	andeq	r8, r0, ip, lsr #30
    8c98:	00008f2c 	andeq	r8, r0, ip, lsr #30
    8c9c:	00008f2c 	andeq	r8, r0, ip, lsr #30
    8ca0:	00008f2c 	andeq	r8, r0, ip, lsr #30
    8ca4:	00008ed4 	ldrdeq	r8, [r0], -r4
    8ca8:	00008f2c 	andeq	r8, r0, ip, lsr #30
    8cac:	00008e74 	andeq	r8, r0, r4, ror lr
    8cb0:	00008f2c 	andeq	r8, r0, ip, lsr #30
    8cb4:	00008f2c 	andeq	r8, r0, ip, lsr #30
    8cb8:	00008f2c 	andeq	r8, r0, ip, lsr #30
    8cbc:	00008f2c 	andeq	r8, r0, ip, lsr #30
    8cc0:	00008f2c 	andeq	r8, r0, ip, lsr #30
    8cc4:	00008ccc 	andeq	r8, r0, ip, asr #25
    8cc8:	e3a0307f 	mov	r3, #127, 0	; 0x7f
    8ccc:	e28d2008 	add	r2, sp, #8, 0
    8cd0:	e1a04002 	mov	r4, r2
    8cd4:	e59f1288 	ldr	r1, [pc, #648]	; 8f64 <emit.constprop.0+0x304>
    8cd8:	e20ce00f 	and	lr, ip, #15, 0
    8cdc:	e7d1e00e 	ldrb	lr, [r1, lr]
    8ce0:	e35c000f 	cmp	ip, #15, 0
    8ce4:	e4c4e001 	strb	lr, [r4], #1
    8ce8:	e1a0c22c 	lsr	ip, ip, #4
    8cec:	8afffff9 	bhi	8cd8 <emit.constprop.0+0x78>
    8cf0:	e3a0c078 	mov	ip, #120, 0	; 0x78
    8cf4:	e1a0e004 	mov	lr, r4
    8cf8:	e3a01030 	mov	r1, #48, 0	; 0x30
    8cfc:	e4cec002 	strb	ip, [lr], #2
    8d00:	e5c41001 	strb	r1, [r4, #1]
    8d04:	e04e1002 	sub	r1, lr, r2
    8d08:	e1510003 	cmp	r1, r3
    8d0c:	aa000083 	bge	8f20 <emit.constprop.0+0x2c0>
    8d10:	e1510003 	cmp	r1, r3
    8d14:	a3a0c001 	movge	ip, #1, 0
    8d18:	b3a0c000 	movlt	ip, #0, 0
    8d1c:	e2434001 	sub	r4, r3, #1, 0
    8d20:	e0444001 	sub	r4, r4, r1
    8d24:	b0436001 	sublt	r6, r3, r1
    8d28:	a3a06001 	movge	r6, #1, 0
    8d2c:	e3540002 	cmp	r4, #2, 0
    8d30:	938cc001 	orrls	ip, ip, #1, 0
    8d34:	e35c0000 	cmp	ip, #0, 0
    8d38:	1a000075 	bne	8f14 <emit.constprop.0+0x2b4>
    8d3c:	e1a0c00e 	mov	ip, lr
    8d40:	e3c65003 	bic	r5, r6, #3, 0
    8d44:	e59f721c 	ldr	r7, [pc, #540]	; 8f68 <emit.constprop.0+0x308>
    8d48:	e085500e 	add	r5, r5, lr
    8d4c:	e48c7004 	str	r7, [ip], #4
    8d50:	e15c0005 	cmp	ip, r5
    8d54:	1afffffc 	bne	8d4c <emit.constprop.0+0xec>
    8d58:	e3c6c003 	bic	ip, r6, #3, 0
    8d5c:	e156000c 	cmp	r6, ip
    8d60:	e08e500c 	add	r5, lr, ip
    8d64:	e08cc001 	add	ip, ip, r1
    8d68:	0a000008 	beq	8d90 <emit.constprop.0+0x130>
    8d6c:	e3a07020 	mov	r7, #32, 0
    8d70:	e28c8001 	add	r8, ip, #1, 0
    8d74:	e1580003 	cmp	r8, r3
    8d78:	e5c57000 	strb	r7, [r5]
    8d7c:	aa000003 	bge	8d90 <emit.constprop.0+0x130>
    8d80:	e28cc002 	add	ip, ip, #2, 0
    8d84:	e15c0003 	cmp	ip, r3
    8d88:	e5c57001 	strb	r7, [r5, #1]
    8d8c:	b5c57002 	strblt	r7, [r5, #2]
    8d90:	e1510003 	cmp	r1, r3
    8d94:	a3a04000 	movge	r4, #0, 0
    8d98:	e08e6006 	add	r6, lr, r6
    8d9c:	e0461002 	sub	r1, r6, r2
    8da0:	e08ee004 	add	lr, lr, r4
    8da4:	e3a03000 	mov	r3, #0, 0
    8da8:	e351007f 	cmp	r1, #127, 0	; 0x7f
    8dac:	c241407f 	subgt	r4, r1, #127, 0	; 0x7f
    8db0:	c0822004 	addgt	r2, r2, r4
    8db4:	e152000e 	cmp	r2, lr
    8db8:	e5c63000 	strb	r3, [r6]
    8dbc:	8a00004f 	bhi	8f00 <emit.constprop.0+0x2a0>
    8dc0:	e28ee001 	add	lr, lr, #1, 0
    8dc4:	e1a0300e 	mov	r3, lr
    8dc8:	e240c001 	sub	ip, r0, #1, 0
    8dcc:	e5734001 	ldrb	r4, [r3, #-1]!
    8dd0:	e1530002 	cmp	r3, r2
    8dd4:	e5ec4001 	strb	r4, [ip, #1]!
    8dd8:	1afffffb 	bne	8dcc <emit.constprop.0+0x16c>
    8ddc:	e04ee003 	sub	lr, lr, r3
    8de0:	e3a03000 	mov	r3, #0, 0
    8de4:	e080e00e 	add	lr, r0, lr
    8de8:	e5ce3000 	strb	r3, [lr]
    8dec:	e28dd048 	add	sp, sp, #72, 0	; 0x48
    8df0:	e8bd81f0 	pop	{r4, r5, r6, r7, r8, pc}
    8df4:	e3a0307f 	mov	r3, #127, 0	; 0x7f
    8df8:	e28d2008 	add	r2, sp, #8, 0
    8dfc:	e1a0e002 	mov	lr, r2
    8e00:	e59f1164 	ldr	r1, [pc, #356]	; 8f6c <emit.constprop.0+0x30c>
    8e04:	e20c4001 	and	r4, ip, #1, 0
    8e08:	e7d14004 	ldrb	r4, [r1, r4]
    8e0c:	e35c0001 	cmp	ip, #1, 0
    8e10:	e4ce4001 	strb	r4, [lr], #1
    8e14:	e1a0c0ac 	lsr	ip, ip, #1
    8e18:	8afffff9 	bhi	8e04 <emit.constprop.0+0x1a4>
    8e1c:	eaffffb8 	b	8d04 <emit.constprop.0+0xa4>
    8e20:	e24c3002 	sub	r3, ip, #2, 0
    8e24:	e1a0c002 	mov	ip, r2
    8e28:	e353000e 	cmp	r3, #14, 0
    8e2c:	979ff103 	ldrls	pc, [pc, r3, lsl #2]
    8e30:	ea00003d 	b	8f2c <emit.constprop.0+0x2cc>
    8e34:	00008df4 	strdeq	r8, [r0], -r4
    8e38:	00008f2c 	andeq	r8, r0, ip, lsr #30
    8e3c:	00008f2c 	andeq	r8, r0, ip, lsr #30
    8e40:	00008f2c 	andeq	r8, r0, ip, lsr #30
    8e44:	00008f2c 	andeq	r8, r0, ip, lsr #30
    8e48:	00008f2c 	andeq	r8, r0, ip, lsr #30
    8e4c:	00008f4c 	andeq	r8, r0, ip, asr #30
    8e50:	00008f2c 	andeq	r8, r0, ip, lsr #30
    8e54:	00008e70 	andeq	r8, r0, r0, ror lr
    8e58:	00008f2c 	andeq	r8, r0, ip, lsr #30
    8e5c:	00008f2c 	andeq	r8, r0, ip, lsr #30
    8e60:	00008f2c 	andeq	r8, r0, ip, lsr #30
    8e64:	00008f2c 	andeq	r8, r0, ip, lsr #30
    8e68:	00008f2c 	andeq	r8, r0, ip, lsr #30
    8e6c:	00008cc8 	andeq	r8, r0, r8, asr #25
    8e70:	e3a0307f 	mov	r3, #127, 0	; 0x7f
    8e74:	e59d1060 	ldr	r1, [sp, #96]	; 0x60
    8e78:	e59f70f0 	ldr	r7, [pc, #240]	; 8f70 <emit.constprop.0+0x310>
    8e7c:	e0118fa2 	ands	r8, r1, r2, lsr #31
    8e80:	1262c000 	rsbne	ip, r2, #0, 0
    8e84:	e28d2008 	add	r2, sp, #8, 0
    8e88:	13a08001 	movne	r8, #1, 0
    8e8c:	e1a0e002 	mov	lr, r2
    8e90:	e59f60dc 	ldr	r6, [pc, #220]	; 8f74 <emit.constprop.0+0x314>
    8e94:	e1a0500c 	mov	r5, ip
    8e98:	e0814c96 	umull	r4, r1, r6, ip
    8e9c:	e1a011a1 	lsr	r1, r1, #3
    8ea0:	e0814101 	add	r4, r1, r1, lsl #2
    8ea4:	e04cc084 	sub	ip, ip, r4, lsl #1
    8ea8:	e7d7400c 	ldrb	r4, [r7, ip]
    8eac:	e3550009 	cmp	r5, #9, 0
    8eb0:	e1a0c001 	mov	ip, r1
    8eb4:	e1a0100e 	mov	r1, lr
    8eb8:	e4ce4001 	strb	r4, [lr], #1
    8ebc:	8afffff4 	bhi	8e94 <emit.constprop.0+0x234>
    8ec0:	e3580000 	cmp	r8, #0, 0
    8ec4:	13a0c02d 	movne	ip, #45, 0	; 0x2d
    8ec8:	15cec000 	strbne	ip, [lr]
    8ecc:	1281e002 	addne	lr, r1, #2, 0
    8ed0:	eaffff8b 	b	8d04 <emit.constprop.0+0xa4>
    8ed4:	e3530001 	cmp	r3, #1, 0
    8ed8:	e5cd2008 	strb	r2, [sp, #8]
    8edc:	c3a01001 	movgt	r1, #1, 0
    8ee0:	c28de009 	addgt	lr, sp, #9, 0
    8ee4:	c28d2008 	addgt	r2, sp, #8, 0
    8ee8:	caffff88 	bgt	8d10 <emit.constprop.0+0xb0>
    8eec:	e3a03000 	mov	r3, #0, 0
    8ef0:	e28de008 	add	lr, sp, #8, 0
    8ef4:	e1a0200e 	mov	r2, lr
    8ef8:	e5cd3009 	strb	r3, [sp, #9]
    8efc:	eaffffaf 	b	8dc0 <emit.constprop.0+0x160>
    8f00:	e1a0e000 	mov	lr, r0
    8f04:	e3a03000 	mov	r3, #0, 0
    8f08:	e5ce3000 	strb	r3, [lr]
    8f0c:	e28dd048 	add	sp, sp, #72, 0	; 0x48
    8f10:	e8bd81f0 	pop	{r4, r5, r6, r7, r8, pc}
    8f14:	e1a0c001 	mov	ip, r1
    8f18:	e1a0500e 	mov	r5, lr
    8f1c:	eaffff92 	b	8d6c <emit.constprop.0+0x10c>
    8f20:	e1a0600e 	mov	r6, lr
    8f24:	e24ee001 	sub	lr, lr, #1, 0
    8f28:	eaffff9d 	b	8da4 <emit.constprop.0+0x144>
    8f2c:	e59f2044 	ldr	r2, [pc, #68]	; 8f78 <emit.constprop.0+0x318>
    8f30:	e3a03079 	mov	r3, #121, 0	; 0x79
    8f34:	e59f1040 	ldr	r1, [pc, #64]	; 8f7c <emit.constprop.0+0x31c>
    8f38:	e58d2000 	str	r2, [sp]
    8f3c:	e59f003c 	ldr	r0, [pc, #60]	; 8f80 <emit.constprop.0+0x320>
    8f40:	e59f203c 	ldr	r2, [pc, #60]	; 8f84 <emit.constprop.0+0x324>
    8f44:	ebffff21 	bl	8bd0 <printk>
    8f48:	eb0001b1 	bl	9614 <clean_reboot>
    8f4c:	e5cd2008 	strb	r2, [sp, #8]
    8f50:	e3a0307f 	mov	r3, #127, 0	; 0x7f
    8f54:	e3a01001 	mov	r1, #1, 0
    8f58:	e28de009 	add	lr, sp, #9, 0
    8f5c:	e28d2008 	add	r2, sp, #8, 0
    8f60:	eaffff6a 	b	8d10 <emit.constprop.0+0xb0>
    8f64:	0000a6e4 	andeq	sl, r0, r4, ror #13
    8f68:	20202020 	eorcs	r2, r0, r0, lsr #32
    8f6c:	0000a6f8 	strdeq	sl, [r0], -r8
    8f70:	0000a6fc 	strdeq	sl, [r0], -ip
    8f74:	cccccccd 	stclgt	12, cr12, [ip], {205}	; 0xcd
    8f78:	0000a540 	andeq	sl, r0, r0, asr #10
    8f7c:	0000a6d0 	ldrdeq	sl, [r0], -r0
    8f80:	0000a178 	andeq	sl, r0, r8, ror r1
    8f84:	0000a810 	andeq	sl, r0, r0, lsl r8

00008f88 <rpi_set_output>:
    8f88:	e3500000 	cmp	r0, #0, 0
    8f8c:	0a000005 	beq	8fa8 <rpi_set_output+0x20>
    8f90:	e59f3038 	ldr	r3, [pc, #56]	; 8fd0 <rpi_set_output+0x48>
    8f94:	e3510000 	cmp	r1, #0, 0
    8f98:	e5830000 	str	r0, [r3]
    8f9c:	159f3030 	ldrne	r3, [pc, #48]	; 8fd4 <rpi_set_output+0x4c>
    8fa0:	15831000 	strne	r1, [r3]
    8fa4:	e12fff1e 	bx	lr
    8fa8:	e52de004 	push	{lr}		; (str lr, [sp, #-4]!)
    8fac:	e59f2024 	ldr	r2, [pc, #36]	; 8fd8 <rpi_set_output+0x50>
    8fb0:	e24dd00c 	sub	sp, sp, #12, 0
    8fb4:	e3a03020 	mov	r3, #32, 0
    8fb8:	e59f101c 	ldr	r1, [pc, #28]	; 8fdc <rpi_set_output+0x54>
    8fbc:	e58d2000 	str	r2, [sp]
    8fc0:	e59f0018 	ldr	r0, [pc, #24]	; 8fe0 <rpi_set_output+0x58>
    8fc4:	e59f2018 	ldr	r2, [pc, #24]	; 8fe4 <rpi_set_output+0x5c>
    8fc8:	ebffff00 	bl	8bd0 <printk>
    8fcc:	eb000190 	bl	9614 <clean_reboot>
    8fd0:	0000aa4c 	andeq	sl, r0, ip, asr #20
    8fd4:	0000aa3c 	andeq	sl, r0, ip, lsr sl
    8fd8:	0000a708 	andeq	sl, r0, r8, lsl #14
    8fdc:	0000a6d0 	ldrdeq	sl, [r0], -r0
    8fe0:	0000a178 	andeq	sl, r0, r8, ror r1
    8fe4:	0000a818 	andeq	sl, r0, r8, lsl r8

00008fe8 <va_printk>:
    8fe8:	e92d4ff0 	push	{r4, r5, r6, r7, r8, r9, sl, fp, lr}
    8fec:	e1a0b000 	mov	fp, r0
    8ff0:	e3a00000 	mov	r0, #0, 0
    8ff4:	e5cb0000 	strb	r0, [fp]
    8ff8:	e5d2c000 	ldrb	ip, [r2]
    8ffc:	e2417001 	sub	r7, r1, #1, 0
    9000:	e08b7007 	add	r7, fp, r7
    9004:	e15c0000 	cmp	ip, r0
    9008:	115b0007 	cmpne	fp, r7
    900c:	e24ddf47 	sub	sp, sp, #284	; 0x11c
    9010:	e58d2010 	str	r2, [sp, #16]
    9014:	2a000159 	bcs	9580 <va_printk+0x598>
    9018:	e1a06002 	mov	r6, r2
    901c:	e1a08003 	mov	r8, r3
    9020:	e1a0400b 	mov	r4, fp
    9024:	e59fa5a4 	ldr	sl, [pc, #1444]	; 95d0 <va_printk+0x5e8>
    9028:	e58db00c 	str	fp, [sp, #12]
    902c:	ea000005 	b	9048 <va_printk+0x60>
    9030:	e4c4c001 	strb	ip, [r4], #1
    9034:	e2866001 	add	r6, r6, #1, 0
    9038:	e5d6c000 	ldrb	ip, [r6]
    903c:	e35c0000 	cmp	ip, #0, 0
    9040:	11570004 	cmpne	r7, r4
    9044:	9a00002f 	bls	9108 <va_printk+0x120>
    9048:	e35c0025 	cmp	ip, #37, 0	; 0x25
    904c:	1afffff7 	bne	9030 <va_printk+0x48>
    9050:	e5d62001 	ldrb	r2, [r6, #1]
    9054:	e3520025 	cmp	r2, #37, 0	; 0x25
    9058:	04c4c001 	strbeq	ip, [r4], #1
    905c:	02866002 	addeq	r6, r6, #2, 0
    9060:	0afffff4 	beq	9038 <va_printk+0x50>
    9064:	e2423030 	sub	r3, r2, #48, 0	; 0x30
    9068:	e3530009 	cmp	r3, #9, 0
    906c:	e3a05000 	mov	r5, #0, 0
    9070:	e2866001 	add	r6, r6, #1, 0
    9074:	8a000008 	bhi	909c <va_printk+0xb4>
    9078:	e0855105 	add	r5, r5, r5, lsl #2
    907c:	e0825085 	add	r5, r2, r5, lsl #1
    9080:	e5f62001 	ldrb	r2, [r6, #1]!
    9084:	e2455030 	sub	r5, r5, #48, 0	; 0x30
    9088:	e2423030 	sub	r3, r2, #48, 0	; 0x30
    908c:	e3530009 	cmp	r3, #9, 0
    9090:	9afffff8 	bls	9078 <va_printk+0x90>
    9094:	e355001f 	cmp	r5, #31, 0
    9098:	8a00013a 	bhi	9588 <va_printk+0x5a0>
    909c:	e2423062 	sub	r3, r2, #98, 0	; 0x62
    90a0:	e3530016 	cmp	r3, #22, 0
    90a4:	979ff103 	ldrls	pc, [pc, r3, lsl #2]
    90a8:	ea00011b 	b	951c <va_printk+0x534>
    90ac:	00009360 	andeq	r9, r0, r0, ror #6
    90b0:	0000925c 	andeq	r9, r0, ip, asr r2
    90b4:	00009254 	andeq	r9, r0, r4, asr r2
    90b8:	0000951c 	andeq	r9, r0, ip, lsl r5
    90bc:	00009558 	andeq	r9, r0, r8, asr r5
    90c0:	0000951c 	andeq	r9, r0, ip, lsl r5
    90c4:	0000951c 	andeq	r9, r0, ip, lsl r5
    90c8:	0000951c 	andeq	r9, r0, ip, lsl r5
    90cc:	0000951c 	andeq	r9, r0, ip, lsl r5
    90d0:	0000951c 	andeq	r9, r0, ip, lsl r5
    90d4:	00009164 	andeq	r9, r0, r4, ror #2
    90d8:	0000951c 	andeq	r9, r0, ip, lsl r5
    90dc:	0000951c 	andeq	r9, r0, ip, lsl r5
    90e0:	0000951c 	andeq	r9, r0, ip, lsl r5
    90e4:	00009120 	andeq	r9, r0, r0, lsr #2
    90e8:	0000951c 	andeq	r9, r0, ip, lsl r5
    90ec:	0000951c 	andeq	r9, r0, ip, lsl r5
    90f0:	00009458 	andeq	r9, r0, r8, asr r4
    90f4:	0000951c 	andeq	r9, r0, ip, lsl r5
    90f8:	00009230 	andeq	r9, r0, r0, lsr r2
    90fc:	0000951c 	andeq	r9, r0, ip, lsl r5
    9100:	0000951c 	andeq	r9, r0, ip, lsl r5
    9104:	00009120 	andeq	r9, r0, r0, lsr #2
    9108:	e59db00c 	ldr	fp, [sp, #12]
    910c:	e3a03000 	mov	r3, #0, 0
    9110:	e4c43001 	strb	r3, [r4], #1
    9114:	e044000b 	sub	r0, r4, fp
    9118:	e28ddf47 	add	sp, sp, #284	; 0x11c
    911c:	e8bd8ff0 	pop	{r4, r5, r6, r7, r8, r9, sl, fp, pc}
    9120:	e3a01000 	mov	r1, #0, 0
    9124:	e1a03005 	mov	r3, r5
    9128:	e4982004 	ldr	r2, [r8], #4
    912c:	e3a00010 	mov	r0, #16, 0
    9130:	e58d1000 	str	r1, [sp]
    9134:	e28d1018 	add	r1, sp, #24, 0
    9138:	ebfffec8 	bl	8c60 <emit.constprop.0>
    913c:	e1a05000 	mov	r5, r0
    9140:	e2866001 	add	r6, r6, #1, 0
    9144:	e2455001 	sub	r5, r5, #1, 0
    9148:	e5f53001 	ldrb	r3, [r5, #1]!
    914c:	e3530000 	cmp	r3, #0, 0
    9150:	0affffb8 	beq	9038 <va_printk+0x50>
    9154:	e4c43001 	strb	r3, [r4], #1
    9158:	e1570004 	cmp	r7, r4
    915c:	8afffff9 	bhi	9148 <va_printk+0x160>
    9160:	eaffffb4 	b	9038 <va_printk+0x50>
    9164:	e3a02003 	mov	r2, #3, 0
    9168:	e1a00006 	mov	r0, r6
    916c:	e59f1460 	ldr	r1, [pc, #1120]	; 95d4 <va_printk+0x5ec>
    9170:	eb0003da 	bl	a0e0 <strncmp>
    9174:	e3500000 	cmp	r0, #0, 0
    9178:	0a000005 	beq	9194 <va_printk+0x1ac>
    917c:	e3a02003 	mov	r2, #3, 0
    9180:	e1a00006 	mov	r0, r6
    9184:	e59f144c 	ldr	r1, [pc, #1100]	; 95d8 <va_printk+0x5f0>
    9188:	eb0003d4 	bl	a0e0 <strncmp>
    918c:	e3500000 	cmp	r0, #0, 0
    9190:	1a00010b 	bne	95c4 <va_printk+0x5dc>
    9194:	e2888007 	add	r8, r8, #7, 0
    9198:	e3c88007 	bic	r8, r8, #7, 0
    919c:	e598b004 	ldr	fp, [r8, #4]
    91a0:	e4989008 	ldr	r9, [r8], #8
    91a4:	e1a0100b 	mov	r1, fp
    91a8:	e59f042c 	ldr	r0, [pc, #1068]	; 95dc <va_printk+0x5f4>
    91ac:	ebfffe87 	bl	8bd0 <printk>
    91b0:	e1a01009 	mov	r1, r9
    91b4:	e59f0424 	ldr	r0, [pc, #1060]	; 95e0 <va_printk+0x5f8>
    91b8:	ebfffe84 	bl	8bd0 <printk>
    91bc:	e3a02003 	mov	r2, #3, 0
    91c0:	e1a00006 	mov	r0, r6
    91c4:	e59f1408 	ldr	r1, [pc, #1032]	; 95d4 <va_printk+0x5ec>
    91c8:	eb0003c4 	bl	a0e0 <strncmp>
    91cc:	e2503000 	subs	r3, r0, #0, 0
    91d0:	e1a02003 	mov	r2, r3
    91d4:	e2863002 	add	r3, r6, #2, 0
    91d8:	e58d3014 	str	r3, [sp, #20]
    91dc:	1a00009f 	bne	9460 <va_printk+0x478>
    91e0:	e1a06002 	mov	r6, r2
    91e4:	e1a03005 	mov	r3, r5
    91e8:	e58d2000 	str	r2, [sp]
    91ec:	e28d1018 	add	r1, sp, #24, 0
    91f0:	e1a0200b 	mov	r2, fp
    91f4:	e3a00010 	mov	r0, #16, 0
    91f8:	ebfffe98 	bl	8c60 <emit.constprop.0>
    91fc:	e1a0c000 	mov	ip, r0
    9200:	e1a03005 	mov	r3, r5
    9204:	e58d6000 	str	r6, [sp]
    9208:	e28d1098 	add	r1, sp, #152, 0	; 0x98
    920c:	e1a02009 	mov	r2, r9
    9210:	e3a00010 	mov	r0, #16, 0
    9214:	e1a0500c 	mov	r5, ip
    9218:	ebfffe90 	bl	8c60 <emit.constprop.0>
    921c:	e28d0018 	add	r0, sp, #24, 0
    9220:	e28d109a 	add	r1, sp, #154, 0	; 0x9a
    9224:	e59d6014 	ldr	r6, [sp, #20]
    9228:	eb00038a 	bl	a058 <strcat>
    922c:	eaffffc3 	b	9140 <va_printk+0x158>
    9230:	e3a01000 	mov	r1, #0, 0
    9234:	e1a03005 	mov	r3, r5
    9238:	e4982004 	ldr	r2, [r8], #4
    923c:	e3a0000a 	mov	r0, #10, 0
    9240:	e58d1000 	str	r1, [sp]
    9244:	e28d1018 	add	r1, sp, #24, 0
    9248:	ebfffe84 	bl	8c60 <emit.constprop.0>
    924c:	e1a05000 	mov	r5, r0
    9250:	eaffffba 	b	9140 <va_printk+0x158>
    9254:	e3a01001 	mov	r1, #1, 0
    9258:	eafffff5 	b	9234 <va_printk+0x24c>
    925c:	e4983004 	ldr	r3, [r8], #4
    9260:	e3550001 	cmp	r5, #1, 0
    9264:	e5cd3098 	strb	r3, [sp, #152]	; 0x98
    9268:	9a0000a6 	bls	9508 <va_printk+0x520>
    926c:	e2453002 	sub	r3, r5, #2, 0
    9270:	e3530002 	cmp	r3, #2, 0
    9274:	e2451001 	sub	r1, r5, #1, 0
    9278:	9a0000bc 	bls	9570 <va_printk+0x588>
    927c:	e59f0360 	ldr	r0, [pc, #864]	; 95e4 <va_printk+0x5fc>
    9280:	e1a02121 	lsr	r2, r1, #2
    9284:	e3520001 	cmp	r2, #1, 0
    9288:	e58d0099 	str	r0, [sp, #153]	; 0x99
    928c:	0a00000e 	beq	92cc <va_printk+0x2e4>
    9290:	e3520002 	cmp	r2, #2, 0
    9294:	e58d009d 	str	r0, [sp, #157]	; 0x9d
    9298:	0a00000b 	beq	92cc <va_printk+0x2e4>
    929c:	e3520003 	cmp	r2, #3, 0
    92a0:	e58d00a1 	str	r0, [sp, #161]	; 0xa1
    92a4:	0a000008 	beq	92cc <va_printk+0x2e4>
    92a8:	e3520004 	cmp	r2, #4, 0
    92ac:	e58d00a5 	str	r0, [sp, #165]	; 0xa5
    92b0:	0a000005 	beq	92cc <va_printk+0x2e4>
    92b4:	e3520005 	cmp	r2, #5, 0
    92b8:	e58d00a9 	str	r0, [sp, #169]	; 0xa9
    92bc:	0a000002 	beq	92cc <va_printk+0x2e4>
    92c0:	e3520007 	cmp	r2, #7, 0
    92c4:	e58d00ad 	str	r0, [sp, #173]	; 0xad
    92c8:	058d00b1 	streq	r0, [sp, #177]	; 0xb1
    92cc:	e3c12003 	bic	r2, r1, #3, 0
    92d0:	e1510002 	cmp	r1, r2
    92d4:	e28dc099 	add	ip, sp, #153, 0	; 0x99
    92d8:	e08c0002 	add	r0, ip, r2
    92dc:	e2822001 	add	r2, r2, #1, 0
    92e0:	0a000008 	beq	9308 <va_printk+0x320>
    92e4:	e3a0e020 	mov	lr, #32, 0
    92e8:	e2829001 	add	r9, r2, #1, 0
    92ec:	e1550009 	cmp	r5, r9
    92f0:	e5c0e000 	strb	lr, [r0]
    92f4:	da000003 	ble	9308 <va_printk+0x320>
    92f8:	e2822002 	add	r2, r2, #2, 0
    92fc:	e1550002 	cmp	r5, r2
    9300:	e5c0e001 	strb	lr, [r0, #1]
    9304:	c5c0e002 	strbgt	lr, [r0, #2]
    9308:	e3a0e000 	mov	lr, #0, 0
    930c:	e28d0098 	add	r0, sp, #152, 0	; 0x98
    9310:	e08c2001 	add	r2, ip, r1
    9314:	e0422000 	sub	r2, r2, r0
    9318:	e352007f 	cmp	r2, #127, 0	; 0x7f
    931c:	c242207f 	subgt	r2, r2, #127, 0	; 0x7f
    9320:	e08c3003 	add	r3, ip, r3
    9324:	c0800002 	addgt	r0, r0, r2
    9328:	e1530000 	cmp	r3, r0
    932c:	e7cce001 	strb	lr, [ip, r1]
    9330:	3a00006c 	bcc	94e8 <va_printk+0x500>
    9334:	e283c001 	add	ip, r3, #1, 0
    9338:	e1a0300c 	mov	r3, ip
    933c:	e28d5018 	add	r5, sp, #24, 0
    9340:	e2452001 	sub	r2, r5, #1, 0
    9344:	e5731001 	ldrb	r1, [r3, #-1]!
    9348:	e1500003 	cmp	r0, r3
    934c:	e5e21001 	strb	r1, [r2, #1]!
    9350:	1afffffb 	bne	9344 <va_printk+0x35c>
    9354:	e04c3000 	sub	r3, ip, r0
    9358:	e0853003 	add	r3, r5, r3
    935c:	ea00003a 	b	944c <va_printk+0x464>
    9360:	e28d1098 	add	r1, sp, #152, 0	; 0x98
    9364:	e1a03001 	mov	r3, r1
    9368:	e4980004 	ldr	r0, [r8], #4
    936c:	e200c001 	and	ip, r0, #1, 0
    9370:	e7dac00c 	ldrb	ip, [sl, ip]
    9374:	e3500001 	cmp	r0, #1, 0
    9378:	e1a02003 	mov	r2, r3
    937c:	e1a000a0 	lsr	r0, r0, #1
    9380:	e4c3c001 	strb	ip, [r3], #1
    9384:	8afffff8 	bhi	936c <va_printk+0x384>
    9388:	e0430001 	sub	r0, r3, r1
    938c:	e1550000 	cmp	r5, r0
    9390:	da000057 	ble	94f4 <va_printk+0x50c>
    9394:	e045c000 	sub	ip, r5, r0
    9398:	e24ce001 	sub	lr, ip, #1, 0
    939c:	e35e0002 	cmp	lr, #2, 0
    93a0:	e1a0e003 	mov	lr, r3
    93a4:	9a00000a 	bls	93d4 <va_printk+0x3ec>
    93a8:	e3cc9003 	bic	r9, ip, #3, 0
    93ac:	e0899003 	add	r9, r9, r3
    93b0:	e59fb22c 	ldr	fp, [pc, #556]	; 95e4 <va_printk+0x5fc>
    93b4:	e48eb004 	str	fp, [lr], #4
    93b8:	e15e0009 	cmp	lr, r9
    93bc:	1afffffb 	bne	93b0 <va_printk+0x3c8>
    93c0:	e3cce003 	bic	lr, ip, #3, 0
    93c4:	e15e000c 	cmp	lr, ip
    93c8:	e080000e 	add	r0, r0, lr
    93cc:	e083e00e 	add	lr, r3, lr
    93d0:	0a000008 	beq	93f8 <va_printk+0x410>
    93d4:	e3a09020 	mov	r9, #32, 0
    93d8:	e280b001 	add	fp, r0, #1, 0
    93dc:	e155000b 	cmp	r5, fp
    93e0:	e5ce9000 	strb	r9, [lr]
    93e4:	da000003 	ble	93f8 <va_printk+0x410>
    93e8:	e2800002 	add	r0, r0, #2, 0
    93ec:	e1550000 	cmp	r5, r0
    93f0:	e5ce9001 	strb	r9, [lr, #1]
    93f4:	c5ce9002 	strbgt	r9, [lr, #2]
    93f8:	e3a0e000 	mov	lr, #0, 0
    93fc:	e083000c 	add	r0, r3, ip
    9400:	e0400001 	sub	r0, r0, r1
    9404:	e350007f 	cmp	r0, #127, 0	; 0x7f
    9408:	e082200c 	add	r2, r2, ip
    940c:	e7c3e00c 	strb	lr, [r3, ip]
    9410:	da000001 	ble	941c <va_printk+0x434>
    9414:	e240007f 	sub	r0, r0, #127, 0	; 0x7f
    9418:	e0811000 	add	r1, r1, r0
    941c:	e1510002 	cmp	r1, r2
    9420:	8a000030 	bhi	94e8 <va_printk+0x500>
    9424:	e2822001 	add	r2, r2, #1, 0
    9428:	e1a03002 	mov	r3, r2
    942c:	e28d5018 	add	r5, sp, #24, 0
    9430:	e245c001 	sub	ip, r5, #1, 0
    9434:	e5730001 	ldrb	r0, [r3, #-1]!
    9438:	e1530001 	cmp	r3, r1
    943c:	e5ec0001 	strb	r0, [ip, #1]!
    9440:	1afffffb 	bne	9434 <va_printk+0x44c>
    9444:	e0423003 	sub	r3, r2, r3
    9448:	e0853003 	add	r3, r5, r3
    944c:	e3a02000 	mov	r2, #0, 0
    9450:	e5c32000 	strb	r2, [r3]
    9454:	eaffff39 	b	9140 <va_printk+0x158>
    9458:	e4985004 	ldr	r5, [r8], #4
    945c:	eaffff37 	b	9140 <va_printk+0x158>
    9460:	e3a02003 	mov	r2, #3, 0
    9464:	e1a00006 	mov	r0, r6
    9468:	e59f1168 	ldr	r1, [pc, #360]	; 95d8 <va_printk+0x5f0>
    946c:	eb00031b 	bl	a0e0 <strncmp>
    9470:	e2503000 	subs	r3, r0, #0, 0
    9474:	1a00004b 	bne	95a8 <va_printk+0x5c0>
    9478:	e1a06003 	mov	r6, r3
    947c:	e1a0200b 	mov	r2, fp
    9480:	e58d3000 	str	r3, [sp]
    9484:	e28d1018 	add	r1, sp, #24, 0
    9488:	e1a03005 	mov	r3, r5
    948c:	e3a0000a 	mov	r0, #10, 0
    9490:	ebfffdf2 	bl	8c60 <emit.constprop.0>
    9494:	e1a0c000 	mov	ip, r0
    9498:	e1a03005 	mov	r3, r5
    949c:	e1a02009 	mov	r2, r9
    94a0:	e28d1098 	add	r1, sp, #152, 0	; 0x98
    94a4:	e3a0000a 	mov	r0, #10, 0
    94a8:	e58d6000 	str	r6, [sp]
    94ac:	e1a0500c 	mov	r5, ip
    94b0:	ebfffdea 	bl	8c60 <emit.constprop.0>
    94b4:	e59f112c 	ldr	r1, [pc, #300]	; 95e8 <va_printk+0x600>
    94b8:	e28d0018 	add	r0, sp, #24, 0
    94bc:	eb0002f0 	bl	a084 <strcmp>
    94c0:	e3500000 	cmp	r0, #0, 0
    94c4:	e28d1098 	add	r1, sp, #152, 0	; 0x98
    94c8:	e28d0018 	add	r0, sp, #24, 0
    94cc:	1a000002 	bne	94dc <va_printk+0x4f4>
    94d0:	eb0002fc 	bl	a0c8 <strcpy>
    94d4:	e59d6014 	ldr	r6, [sp, #20]
    94d8:	eaffff18 	b	9140 <va_printk+0x158>
    94dc:	eb0002dd 	bl	a058 <strcat>
    94e0:	e59d6014 	ldr	r6, [sp, #20]
    94e4:	eaffff15 	b	9140 <va_printk+0x158>
    94e8:	e28d5018 	add	r5, sp, #24, 0
    94ec:	e1a03005 	mov	r3, r5
    94f0:	eaffffd5 	b	944c <va_printk+0x464>
    94f4:	e3a0c000 	mov	ip, #0, 0
    94f8:	e350007f 	cmp	r0, #127, 0	; 0x7f
    94fc:	e5c3c000 	strb	ip, [r3]
    9500:	caffffc3 	bgt	9414 <va_printk+0x42c>
    9504:	eaffffc6 	b	9424 <va_printk+0x43c>
    9508:	e3a02000 	mov	r2, #0, 0
    950c:	e28d3098 	add	r3, sp, #152, 0	; 0x98
    9510:	e1a00003 	mov	r0, r3
    9514:	e5cd2099 	strb	r2, [sp, #153]	; 0x99
    9518:	eaffff85 	b	9334 <va_printk+0x34c>
    951c:	e3a03000 	mov	r3, #0, 0
    9520:	e1a01002 	mov	r1, r2
    9524:	e5c63001 	strb	r3, [r6, #1]
    9528:	e59f00bc 	ldr	r0, [pc, #188]	; 95ec <va_printk+0x604>
    952c:	ebfffda7 	bl	8bd0 <printk>
    9530:	e59f30b8 	ldr	r3, [pc, #184]	; 95f0 <va_printk+0x608>
    9534:	e59d0010 	ldr	r0, [sp, #16]
    9538:	e5933000 	ldr	r3, [r3]
    953c:	e12fff33 	blx	r3
    9540:	e3a030e2 	mov	r3, #226, 0	; 0xe2
    9544:	e59f20a8 	ldr	r2, [pc, #168]	; 95f4 <va_printk+0x60c>
    9548:	e59f10a8 	ldr	r1, [pc, #168]	; 95f8 <va_printk+0x610>
    954c:	e59f00a8 	ldr	r0, [pc, #168]	; 95fc <va_printk+0x614>
    9550:	ebfffd9e 	bl	8bd0 <printk>
    9554:	eb00002e 	bl	9614 <clean_reboot>
    9558:	e3a030be 	mov	r3, #190, 0	; 0xbe
    955c:	e59f2090 	ldr	r2, [pc, #144]	; 95f4 <va_printk+0x60c>
    9560:	e59f1090 	ldr	r1, [pc, #144]	; 95f8 <va_printk+0x610>
    9564:	e59f0094 	ldr	r0, [pc, #148]	; 9600 <va_printk+0x618>
    9568:	ebfffd98 	bl	8bd0 <printk>
    956c:	eb000028 	bl	9614 <clean_reboot>
    9570:	e28dc099 	add	ip, sp, #153, 0	; 0x99
    9574:	e1a0000c 	mov	r0, ip
    9578:	e3a02001 	mov	r2, #1, 0
    957c:	eaffff58 	b	92e4 <va_printk+0x2fc>
    9580:	e1a0400b 	mov	r4, fp
    9584:	eafffee0 	b	910c <va_printk+0x124>
    9588:	e3a03098 	mov	r3, #152, 0	; 0x98
    958c:	e59f2070 	ldr	r2, [pc, #112]	; 9604 <va_printk+0x61c>
    9590:	e59f1060 	ldr	r1, [pc, #96]	; 95f8 <va_printk+0x610>
    9594:	e58d2000 	str	r2, [sp]
    9598:	e59f0068 	ldr	r0, [pc, #104]	; 9608 <va_printk+0x620>
    959c:	e59f2050 	ldr	r2, [pc, #80]	; 95f4 <va_printk+0x60c>
    95a0:	ebfffd8a 	bl	8bd0 <printk>
    95a4:	eb00001a 	bl	9614 <clean_reboot>
    95a8:	e3a030b6 	mov	r3, #182, 0	; 0xb6
    95ac:	e59f2040 	ldr	r2, [pc, #64]	; 95f4 <va_printk+0x60c>
    95b0:	e59f1040 	ldr	r1, [pc, #64]	; 95f8 <va_printk+0x610>
    95b4:	e59f0050 	ldr	r0, [pc, #80]	; 960c <va_printk+0x624>
    95b8:	e58d6000 	str	r6, [sp]
    95bc:	ebfffd83 	bl	8bd0 <printk>
    95c0:	eb000013 	bl	9614 <clean_reboot>
    95c4:	e3a0309f 	mov	r3, #159, 0	; 0x9f
    95c8:	e59f2040 	ldr	r2, [pc, #64]	; 9610 <va_printk+0x628>
    95cc:	eaffffef 	b	9590 <va_printk+0x5a8>
    95d0:	0000a6f8 	strdeq	sl, [r0], -r8
    95d4:	0000a71c 	andeq	sl, r0, ip, lsl r7
    95d8:	0000a730 	andeq	sl, r0, r0, lsr r7
    95dc:	0000a720 	andeq	sl, r0, r0, lsr #14
    95e0:	0000a728 	andeq	sl, r0, r8, lsr #14
    95e4:	20202020 	eorcs	r2, r0, r0, lsr #32
    95e8:	0000a540 	andeq	sl, r0, r0, asr #10
    95ec:	0000a7c0 	andeq	sl, r0, r0, asr #15
    95f0:	0000aa3c 	andeq	sl, r0, ip, lsr sl
    95f4:	0000a828 	andeq	sl, r0, r8, lsr #16
    95f8:	0000a6d0 	ldrdeq	sl, [r0], -r0
    95fc:	0000a7f0 	strdeq	sl, [r0], -r0
    9600:	0000a798 	muleq	r0, r8, r7
    9604:	0000a710 	andeq	sl, r0, r0, lsl r7
    9608:	0000a178 	andeq	sl, r0, r8, ror r1
    960c:	0000a770 	andeq	sl, r0, r0, ror r7
    9610:	0000a734 	andeq	sl, r0, r4, lsr r7

00009614 <clean_reboot>:
    9614:	e59f301c 	ldr	r3, [pc, #28]	; 9638 <clean_reboot+0x24>
    9618:	e92d4010 	push	{r4, lr}
    961c:	e5933000 	ldr	r3, [r3]
    9620:	e59f0014 	ldr	r0, [pc, #20]	; 963c <clean_reboot+0x28>
    9624:	e12fff33 	blx	r3
    9628:	eb00011b 	bl	9a9c <uart_flush_tx>
    962c:	e3a0000a 	mov	r0, #10, 0
    9630:	eb000082 	bl	9840 <delay_ms>
    9634:	eb00004b 	bl	9768 <rpi_reboot>
    9638:	0000aa3c 	andeq	sl, r0, ip, lsr sl
    963c:	0000a834 	andeq	sl, r0, r4, lsr r8

00009640 <_cstart>:
    9640:	e92d4070 	push	{r4, r5, r6, lr}
    9644:	eb00003b 	bl	9738 <custom_loader>
    9648:	e59f20e0 	ldr	r2, [pc, #224]	; 9730 <_cstart+0xf0>
    964c:	e59fc0e0 	ldr	ip, [pc, #224]	; 9734 <_cstart+0xf4>
    9650:	e152000c 	cmp	r2, ip
    9654:	2a00002e 	bcs	9714 <_cstart+0xd4>
    9658:	e24c1001 	sub	r1, ip, #1, 0
    965c:	e0411002 	sub	r1, r1, r2
    9660:	e3510017 	cmp	r1, #23, 0
    9664:	e1a03122 	lsr	r3, r2, #2
    9668:	e1a01121 	lsr	r1, r1, #2
    966c:	e2811001 	add	r1, r1, #1, 0
    9670:	e2033001 	and	r3, r3, #1, 0
    9674:	9a00002b 	bls	9728 <_cstart+0xe8>
    9678:	e3530000 	cmp	r3, #0, 0
    967c:	11a00002 	movne	r0, r2
    9680:	13a0e000 	movne	lr, #0, 0
    9684:	e3a04000 	mov	r4, #0, 0
    9688:	e3a05000 	mov	r5, #0, 0
    968c:	e0411003 	sub	r1, r1, r3
    9690:	01a00002 	moveq	r0, r2
    9694:	e0823103 	add	r3, r2, r3, lsl #2
    9698:	e1a020a1 	lsr	r2, r1, #1
    969c:	1480e004 	strne	lr, [r0], #4
    96a0:	e0832182 	add	r2, r3, r2, lsl #3
    96a4:	e0c340f8 	strd	r4, [r3], #8
    96a8:	e1520003 	cmp	r2, r3
    96ac:	1afffffc 	bne	96a4 <_cstart+0x64>
    96b0:	e3c13001 	bic	r3, r1, #1, 0
    96b4:	e1510003 	cmp	r1, r3
    96b8:	e0803103 	add	r3, r0, r3, lsl #2
    96bc:	0a000014 	beq	9714 <_cstart+0xd4>
    96c0:	e1a01003 	mov	r1, r3
    96c4:	e3a02000 	mov	r2, #0, 0
    96c8:	e4812004 	str	r2, [r1], #4
    96cc:	e151000c 	cmp	r1, ip
    96d0:	2a00000f 	bcs	9714 <_cstart+0xd4>
    96d4:	e2831008 	add	r1, r3, #8, 0
    96d8:	e151000c 	cmp	r1, ip
    96dc:	e5832004 	str	r2, [r3, #4]
    96e0:	2a00000b 	bcs	9714 <_cstart+0xd4>
    96e4:	e283100c 	add	r1, r3, #12, 0
    96e8:	e151000c 	cmp	r1, ip
    96ec:	e5832008 	str	r2, [r3, #8]
    96f0:	2a000007 	bcs	9714 <_cstart+0xd4>
    96f4:	e2831010 	add	r1, r3, #16, 0
    96f8:	e151000c 	cmp	r1, ip
    96fc:	e583200c 	str	r2, [r3, #12]
    9700:	2a000003 	bcs	9714 <_cstart+0xd4>
    9704:	e2831014 	add	r1, r3, #20, 0
    9708:	e151000c 	cmp	r1, ip
    970c:	e5832010 	str	r2, [r3, #16]
    9710:	35832014 	strcc	r2, [r3, #20]
    9714:	eb000082 	bl	9924 <uart_init>
    9718:	e3a03001 	mov	r3, #1, 0
    971c:	ee0f3f1c 	mcr	15, 0, r3, cr15, cr12, {0}
    9720:	ebfffa80 	bl	8128 <notmain>
    9724:	ebffffba 	bl	9614 <clean_reboot>
    9728:	e1a03002 	mov	r3, r2
    972c:	eaffffe3 	b	96c0 <_cstart+0x80>
    9730:	0000aa50 	andeq	sl, r0, r0, asr sl
    9734:	0000ae80 	andeq	sl, r0, r0, lsl #29

00009738 <custom_loader>:
    9738:	e12fff1e 	bx	lr

0000973c <at_user_level>:
    973c:	e10f0000 	mrs	r0, CPSR
    9740:	e200001f 	and	r0, r0, #31, 0
    9744:	e2400010 	sub	r0, r0, #16, 0
    9748:	e16f0f10 	clz	r0, r0
    974c:	e1a002a0 	lsr	r0, r0, #5
    9750:	e12fff1e 	bx	lr

00009754 <set_user_level>:
    9754:	e10f3000 	mrs	r3, CPSR
    9758:	e3c3301f 	bic	r3, r3, #31, 0
    975c:	e3833010 	orr	r3, r3, #16, 0
    9760:	e129f003 	msr	CPSR_fc, r3
    9764:	e12fff1e 	bx	lr

00009768 <rpi_reboot>:
    9768:	e92d4010 	push	{r4, lr}
    976c:	e10f3000 	mrs	r3, CPSR
    9770:	e203301f 	and	r3, r3, #31, 0
    9774:	e3530010 	cmp	r3, #16, 0
    9778:	1a000003 	bne	978c <rpi_reboot+0x24>
    977c:	e10f3000 	mrs	r3, CPSR
    9780:	e3c3301f 	bic	r3, r3, #31, 0
    9784:	e3833010 	orr	r3, r3, #16, 0
    9788:	e129f003 	msr	CPSR_fc, r3
    978c:	eb00025f 	bl	a110 <reboot_callout>
    9790:	eb0000c1 	bl	9a9c <uart_flush_tx>
    9794:	e3a0000a 	mov	r0, #10, 0
    9798:	eb000028 	bl	9840 <delay_ms>
    979c:	e59f1014 	ldr	r1, [pc, #20]	; 97b8 <rpi_reboot+0x50>
    97a0:	e59f0014 	ldr	r0, [pc, #20]	; 97bc <rpi_reboot+0x54>
    97a4:	ebfffa1e 	bl	8024 <PUT32>
    97a8:	e59f1010 	ldr	r1, [pc, #16]	; 97c0 <rpi_reboot+0x58>
    97ac:	e59f0010 	ldr	r0, [pc, #16]	; 97c4 <rpi_reboot+0x5c>
    97b0:	ebfffa1b 	bl	8024 <PUT32>
    97b4:	eafffffe 	b	97b4 <rpi_reboot+0x4c>
    97b8:	5a000001 	bpl	97c4 <rpi_reboot+0x5c>
    97bc:	20100024 	andscs	r0, r0, r4, lsr #32
    97c0:	5a000020 	bpl	9848 <delay_ms+0x8>
    97c4:	2010001c 	andscs	r0, r0, ip, lsl r0

000097c8 <timer_get_usec_raw>:
    97c8:	e59f0000 	ldr	r0, [pc]	; 97d0 <timer_get_usec_raw+0x8>
    97cc:	eafffa16 	b	802c <GET32>
    97d0:	20003004 	andcs	r3, r0, r4

000097d4 <timer_get_usec>:
    97d4:	e92d4010 	push	{r4, lr}
    97d8:	eb00024d 	bl	a114 <dev_barrier>
    97dc:	e59f0010 	ldr	r0, [pc, #16]	; 97f4 <timer_get_usec+0x20>
    97e0:	ebfffa11 	bl	802c <GET32>
    97e4:	e1a04000 	mov	r4, r0
    97e8:	eb000249 	bl	a114 <dev_barrier>
    97ec:	e1a00004 	mov	r0, r4
    97f0:	e8bd8010 	pop	{r4, pc}
    97f4:	20003004 	andcs	r3, r0, r4

000097f8 <delay_us>:
    97f8:	e92d41f0 	push	{r4, r5, r6, r7, r8, lr}
    97fc:	e1a06000 	mov	r6, r0
    9800:	eb000243 	bl	a114 <dev_barrier>
    9804:	e59f0030 	ldr	r0, [pc, #48]	; 983c <delay_us+0x44>
    9808:	ebfffa07 	bl	802c <GET32>
    980c:	e1a05000 	mov	r5, r0
    9810:	eb00023f 	bl	a114 <dev_barrier>
    9814:	e59f7020 	ldr	r7, [pc, #32]	; 983c <delay_us+0x44>
    9818:	eb00023d 	bl	a114 <dev_barrier>
    981c:	e1a00007 	mov	r0, r7
    9820:	ebfffa01 	bl	802c <GET32>
    9824:	e1a04000 	mov	r4, r0
    9828:	e0444005 	sub	r4, r4, r5
    982c:	eb000238 	bl	a114 <dev_barrier>
    9830:	e1540006 	cmp	r4, r6
    9834:	3afffff7 	bcc	9818 <delay_us+0x20>
    9838:	e8bd81f0 	pop	{r4, r5, r6, r7, r8, pc}
    983c:	20003004 	andcs	r3, r0, r4

00009840 <delay_ms>:
    9840:	e92d41f0 	push	{r4, r5, r6, r7, r8, lr}
    9844:	e0604280 	rsb	r4, r0, r0, lsl #5
    9848:	e0800104 	add	r0, r0, r4, lsl #2
    984c:	e1a04180 	lsl	r4, r0, #3
    9850:	eb00022f 	bl	a114 <dev_barrier>
    9854:	e59f0030 	ldr	r0, [pc, #48]	; 988c <delay_ms+0x4c>
    9858:	ebfff9f3 	bl	802c <GET32>
    985c:	e1a06000 	mov	r6, r0
    9860:	eb00022b 	bl	a114 <dev_barrier>
    9864:	e59f7020 	ldr	r7, [pc, #32]	; 988c <delay_ms+0x4c>
    9868:	eb000229 	bl	a114 <dev_barrier>
    986c:	e1a00007 	mov	r0, r7
    9870:	ebfff9ed 	bl	802c <GET32>
    9874:	e1a05000 	mov	r5, r0
    9878:	e0455006 	sub	r5, r5, r6
    987c:	eb000224 	bl	a114 <dev_barrier>
    9880:	e1540005 	cmp	r4, r5
    9884:	8afffff7 	bhi	9868 <delay_ms+0x28>
    9888:	e8bd81f0 	pop	{r4, r5, r6, r7, r8, pc}
    988c:	20003004 	andcs	r3, r0, r4

00009890 <delay_sec>:
    9890:	e92d41f0 	push	{r4, r5, r6, r7, r8, lr}
    9894:	e0604280 	rsb	r4, r0, r0, lsl #5
    9898:	e0644304 	rsb	r4, r4, r4, lsl #6
    989c:	e0800184 	add	r0, r0, r4, lsl #3
    98a0:	e1a04300 	lsl	r4, r0, #6
    98a4:	eb00021a 	bl	a114 <dev_barrier>
    98a8:	e59f0030 	ldr	r0, [pc, #48]	; 98e0 <delay_sec+0x50>
    98ac:	ebfff9de 	bl	802c <GET32>
    98b0:	e1a06000 	mov	r6, r0
    98b4:	eb000216 	bl	a114 <dev_barrier>
    98b8:	e59f7020 	ldr	r7, [pc, #32]	; 98e0 <delay_sec+0x50>
    98bc:	eb000214 	bl	a114 <dev_barrier>
    98c0:	e1a00007 	mov	r0, r7
    98c4:	ebfff9d8 	bl	802c <GET32>
    98c8:	e1a05000 	mov	r5, r0
    98cc:	e0455006 	sub	r5, r5, r6
    98d0:	eb00020f 	bl	a114 <dev_barrier>
    98d4:	e1540005 	cmp	r4, r5
    98d8:	8afffff7 	bhi	98bc <delay_sec+0x2c>
    98dc:	e8bd81f0 	pop	{r4, r5, r6, r7, r8, pc}
    98e0:	20003004 	andcs	r3, r0, r4

000098e4 <and_in32>:
    98e4:	e92d4070 	push	{r4, r5, r6, lr}
    98e8:	e1a04000 	mov	r4, r0
    98ec:	e1a05001 	mov	r5, r1
    98f0:	ebfff9cd 	bl	802c <GET32>
    98f4:	e0001005 	and	r1, r0, r5
    98f8:	e1a00004 	mov	r0, r4
    98fc:	ebfff9c8 	bl	8024 <PUT32>
    9900:	e8bd8070 	pop	{r4, r5, r6, pc}

00009904 <or_in32>:
    9904:	e92d4070 	push	{r4, r5, r6, lr}
    9908:	e1a04000 	mov	r4, r0
    990c:	e1a05001 	mov	r5, r1
    9910:	ebfff9c5 	bl	802c <GET32>
    9914:	e1801005 	orr	r1, r0, r5
    9918:	e1a00004 	mov	r0, r4
    991c:	ebfff9c0 	bl	8024 <PUT32>
    9920:	e8bd8070 	pop	{r4, r5, r6, pc}

00009924 <uart_init>:
    9924:	e92d4010 	push	{r4, lr}
    9928:	e3a01002 	mov	r1, #2, 0
    992c:	e3a0000e 	mov	r0, #14, 0
    9930:	eb000153 	bl	9e84 <gpio_set_function>
    9934:	e3a01002 	mov	r1, #2, 0
    9938:	e3a0000f 	mov	r0, #15, 0
    993c:	eb000150 	bl	9e84 <gpio_set_function>
    9940:	eb0001f3 	bl	a114 <dev_barrier>
    9944:	e3a01001 	mov	r1, #1, 0
    9948:	e59f0064 	ldr	r0, [pc, #100]	; 99b4 <uart_init+0x90>
    994c:	ebffffec 	bl	9904 <or_in32>
    9950:	eb0001ef 	bl	a114 <dev_barrier>
    9954:	e59f405c 	ldr	r4, [pc, #92]	; 99b8 <uart_init+0x94>
    9958:	e3a01000 	mov	r1, #0, 0
    995c:	e1a00004 	mov	r0, r4
    9960:	ebfff9af 	bl	8024 <PUT32>
    9964:	e3a01000 	mov	r1, #0, 0
    9968:	e59f004c 	ldr	r0, [pc, #76]	; 99bc <uart_init+0x98>
    996c:	ebfff9ac 	bl	8024 <PUT32>
    9970:	e3a01003 	mov	r1, #3, 0
    9974:	e59f0044 	ldr	r0, [pc, #68]	; 99c0 <uart_init+0x9c>
    9978:	ebfff9a9 	bl	8024 <PUT32>
    997c:	e3a01000 	mov	r1, #0, 0
    9980:	e59f003c 	ldr	r0, [pc, #60]	; 99c4 <uart_init+0xa0>
    9984:	ebfff9a6 	bl	8024 <PUT32>
    9988:	e3a010c7 	mov	r1, #199, 0	; 0xc7
    998c:	e59f0034 	ldr	r0, [pc, #52]	; 99c8 <uart_init+0xa4>
    9990:	ebfff9a3 	bl	8024 <PUT32>
    9994:	e59f1030 	ldr	r1, [pc, #48]	; 99cc <uart_init+0xa8>
    9998:	e59f0030 	ldr	r0, [pc, #48]	; 99d0 <uart_init+0xac>
    999c:	ebfff9a0 	bl	8024 <PUT32>
    99a0:	e3a01003 	mov	r1, #3, 0
    99a4:	e1a00004 	mov	r0, r4
    99a8:	ebfff99d 	bl	8024 <PUT32>
    99ac:	eb0001d8 	bl	a114 <dev_barrier>
    99b0:	e8bd8010 	pop	{r4, pc}
    99b4:	20215004 	eorcs	r5, r1, r4
    99b8:	20215060 	eorcs	r5, r1, r0, rrx
    99bc:	20215044 	eorcs	r5, r1, r4, asr #32
    99c0:	2021504c 	eorcs	r5, r1, ip, asr #32
    99c4:	20215050 	eorcs	r5, r1, r0, asr r0
    99c8:	20215048 	eorcs	r5, r1, r8, asr #32
    99cc:	0000010e 	andeq	r0, r0, lr, lsl #2
    99d0:	20215068 	eorcs	r5, r1, r8, rrx

000099d4 <uart_can_getc>:
    99d4:	e92d4010 	push	{r4, lr}
    99d8:	e59f0008 	ldr	r0, [pc, #8]	; 99e8 <uart_can_getc+0x14>
    99dc:	ebfff992 	bl	802c <GET32>
    99e0:	e2000001 	and	r0, r0, #1, 0
    99e4:	e8bd8010 	pop	{r4, pc}
    99e8:	20215064 	eorcs	r5, r1, r4, rrx

000099ec <uart_can_putc>:
    99ec:	e92d4010 	push	{r4, lr}
    99f0:	e59f0010 	ldr	r0, [pc, #16]	; 9a08 <uart_can_putc+0x1c>
    99f4:	ebfff98c 	bl	802c <GET32>
    99f8:	e3100002 	tst	r0, #2, 0
    99fc:	13a00001 	movne	r0, #1, 0
    9a00:	03a00000 	moveq	r0, #0, 0
    9a04:	e8bd8010 	pop	{r4, pc}
    9a08:	20215064 	eorcs	r5, r1, r4, rrx

00009a0c <uart_getc>:
    9a0c:	e92d4010 	push	{r4, lr}
    9a10:	eb0001bf 	bl	a114 <dev_barrier>
    9a14:	ebffffee 	bl	99d4 <uart_can_getc>
    9a18:	e3500000 	cmp	r0, #0, 0
    9a1c:	0afffffc 	beq	9a14 <uart_getc+0x8>
    9a20:	e59f0010 	ldr	r0, [pc, #16]	; 9a38 <uart_getc+0x2c>
    9a24:	ebfff980 	bl	802c <GET32>
    9a28:	e6ef4070 	uxtb	r4, r0
    9a2c:	eb0001b8 	bl	a114 <dev_barrier>
    9a30:	e1a00004 	mov	r0, r4
    9a34:	e8bd8010 	pop	{r4, pc}
    9a38:	20215040 	eorcs	r5, r1, r0, asr #32

00009a3c <uart_putc>:
    9a3c:	e92d4010 	push	{r4, lr}
    9a40:	e1a04000 	mov	r4, r0
    9a44:	eb0001b2 	bl	a114 <dev_barrier>
    9a48:	ebffffe7 	bl	99ec <uart_can_putc>
    9a4c:	e3500000 	cmp	r0, #0, 0
    9a50:	0afffffc 	beq	9a48 <uart_putc+0xc>
    9a54:	e6ef1074 	uxtb	r1, r4
    9a58:	e59f0008 	ldr	r0, [pc, #8]	; 9a68 <uart_putc+0x2c>
    9a5c:	ebfff970 	bl	8024 <PUT32>
    9a60:	eb0001ab 	bl	a114 <dev_barrier>
    9a64:	e8bd8010 	pop	{r4, pc}
    9a68:	20215040 	eorcs	r5, r1, r0, asr #32

00009a6c <uart_has_data>:
    9a6c:	e92d4010 	push	{r4, lr}
    9a70:	eb0001a7 	bl	a114 <dev_barrier>
    9a74:	ebffffd6 	bl	99d4 <uart_can_getc>
    9a78:	e8bd8010 	pop	{r4, pc}

00009a7c <uart_tx_is_empty>:
    9a7c:	e92d4010 	push	{r4, lr}
    9a80:	eb0001a3 	bl	a114 <dev_barrier>
    9a84:	e59f000c 	ldr	r0, [pc, #12]	; 9a98 <uart_tx_is_empty+0x1c>
    9a88:	ebfff967 	bl	802c <GET32>
    9a8c:	e1a004a0 	lsr	r0, r0, #9
    9a90:	e2000001 	and	r0, r0, #1, 0
    9a94:	e8bd8010 	pop	{r4, pc}
    9a98:	20215064 	eorcs	r5, r1, r4, rrx

00009a9c <uart_flush_tx>:
    9a9c:	e92d4010 	push	{r4, lr}
    9aa0:	ebfffff5 	bl	9a7c <uart_tx_is_empty>
    9aa4:	e3500000 	cmp	r0, #0, 0
    9aa8:	0afffffc 	beq	9aa0 <uart_flush_tx+0x4>
    9aac:	e8bd8010 	pop	{r4, pc}

00009ab0 <uart_disable>:
    9ab0:	e92d4010 	push	{r4, lr}
    9ab4:	ebfffff8 	bl	9a9c <uart_flush_tx>
    9ab8:	eb000195 	bl	a114 <dev_barrier>
    9abc:	e3e01001 	mvn	r1, #1, 0
    9ac0:	e59f0008 	ldr	r0, [pc, #8]	; 9ad0 <uart_disable+0x20>
    9ac4:	ebffff86 	bl	98e4 <and_in32>
    9ac8:	eb000191 	bl	a114 <dev_barrier>
    9acc:	e8bd8010 	pop	{r4, pc}
    9ad0:	20215004 	eorcs	r5, r1, r4

00009ad4 <kmalloc_heap_end>:
    9ad4:	e59f3004 	ldr	r3, [pc, #4]	; 9ae0 <kmalloc_heap_end+0xc>
    9ad8:	e5930000 	ldr	r0, [r3]
    9adc:	e12fff1e 	bx	lr
    9ae0:	0000aa40 	andeq	sl, r0, r0, asr #20

00009ae4 <kmalloc_heap_start>:
    9ae4:	e59f3004 	ldr	r3, [pc, #4]	; 9af0 <kmalloc_heap_start+0xc>
    9ae8:	e5930004 	ldr	r0, [r3, #4]
    9aec:	e12fff1e 	bx	lr
    9af0:	0000aa40 	andeq	sl, r0, r0, asr #20

00009af4 <kmalloc_heap_ptr>:
    9af4:	e59f3004 	ldr	r3, [pc, #4]	; 9b00 <kmalloc_heap_ptr+0xc>
    9af8:	e5930000 	ldr	r0, [r3]
    9afc:	e12fff1e 	bx	lr
    9b00:	0000aa40 	andeq	sl, r0, r0, asr #20

00009b04 <kmalloc_init_set_start>:
    9b04:	e52de004 	push	{lr}		; (str lr, [sp, #-4]!)
    9b08:	e24dd00c 	sub	sp, sp, #12, 0
    9b0c:	e3510000 	cmp	r1, #0, 0
    9b10:	0a00000a 	beq	9b40 <kmalloc_init_set_start+0x3c>
    9b14:	e59f306c 	ldr	r3, [pc, #108]	; 9b88 <kmalloc_init_set_start+0x84>
    9b18:	e5933000 	ldr	r3, [r3]
    9b1c:	e1530000 	cmp	r3, r0
    9b20:	8a00000e 	bhi	9b60 <kmalloc_init_set_start+0x5c>
    9b24:	e59f305c 	ldr	r3, [pc, #92]	; 9b88 <kmalloc_init_set_start+0x84>
    9b28:	e5830000 	str	r0, [r3]
    9b2c:	e5830004 	str	r0, [r3, #4]
    9b30:	e0800001 	add	r0, r0, r1
    9b34:	e5830008 	str	r0, [r3, #8]
    9b38:	e28dd00c 	add	sp, sp, #12, 0
    9b3c:	e49df004 	pop	{pc}		; (ldr pc, [sp], #4)
    9b40:	e59f3044 	ldr	r3, [pc, #68]	; 9b8c <kmalloc_init_set_start+0x88>
    9b44:	e58d3000 	str	r3, [sp]
    9b48:	e3a03030 	mov	r3, #48, 0	; 0x30
    9b4c:	e59f203c 	ldr	r2, [pc, #60]	; 9b90 <kmalloc_init_set_start+0x8c>
    9b50:	e59f103c 	ldr	r1, [pc, #60]	; 9b94 <kmalloc_init_set_start+0x90>
    9b54:	e59f003c 	ldr	r0, [pc, #60]	; 9b98 <kmalloc_init_set_start+0x94>
    9b58:	ebfffc1c 	bl	8bd0 <printk>
    9b5c:	ebfffeac 	bl	9614 <clean_reboot>
    9b60:	e59f3020 	ldr	r3, [pc, #32]	; 9b88 <kmalloc_init_set_start+0x84>
    9b64:	e5933008 	ldr	r3, [r3, #8]
    9b68:	e58d3004 	str	r3, [sp, #4]
    9b6c:	e58d0000 	str	r0, [sp]
    9b70:	e3a03034 	mov	r3, #52, 0	; 0x34
    9b74:	e59f2014 	ldr	r2, [pc, #20]	; 9b90 <kmalloc_init_set_start+0x8c>
    9b78:	e59f1014 	ldr	r1, [pc, #20]	; 9b94 <kmalloc_init_set_start+0x90>
    9b7c:	e59f0018 	ldr	r0, [pc, #24]	; 9b9c <kmalloc_init_set_start+0x98>
    9b80:	ebfffc12 	bl	8bd0 <printk>
    9b84:	ebfffea2 	bl	9614 <clean_reboot>
    9b88:	0000aa40 	andeq	sl, r0, r0, asr #20
    9b8c:	0000a84c 	andeq	sl, r0, ip, asr #16
    9b90:	0000a9d8 	ldrdeq	sl, [r0], -r8
    9b94:	0000a840 	andeq	sl, r0, r0, asr #16
    9b98:	0000a178 	andeq	sl, r0, r8, ror r1
    9b9c:	0000a858 	andeq	sl, r0, r8, asr r8

00009ba0 <kmalloc_init>:
    9ba0:	e92d4010 	push	{r4, lr}
    9ba4:	e59f303c 	ldr	r3, [pc, #60]	; 9be8 <kmalloc_init+0x48>
    9ba8:	e5933000 	ldr	r3, [r3]
    9bac:	e3530000 	cmp	r3, #0, 0
    9bb0:	1a000006 	bne	9bd0 <kmalloc_init+0x30>
    9bb4:	e59f302c 	ldr	r3, [pc, #44]	; 9be8 <kmalloc_init+0x48>
    9bb8:	e3a02001 	mov	r2, #1, 0
    9bbc:	e5832000 	str	r2, [r3]
    9bc0:	e3a01201 	mov	r1, #268435456	; 0x10000000
    9bc4:	e3a00601 	mov	r0, #1048576	; 0x100000
    9bc8:	ebffffcd 	bl	9b04 <kmalloc_init_set_start>
    9bcc:	e8bd8010 	pop	{r4, pc}
    9bd0:	e3a03040 	mov	r3, #64, 0	; 0x40
    9bd4:	e59f2010 	ldr	r2, [pc, #16]	; 9bec <kmalloc_init+0x4c>
    9bd8:	e59f1010 	ldr	r1, [pc, #16]	; 9bf0 <kmalloc_init+0x50>
    9bdc:	e59f0010 	ldr	r0, [pc, #16]	; 9bf4 <kmalloc_init+0x54>
    9be0:	ebfffbfa 	bl	8bd0 <printk>
    9be4:	ebfffe8a 	bl	9614 <clean_reboot>
    9be8:	0000ae74 	andeq	sl, r0, r4, ror lr
    9bec:	0000a9f0 	strdeq	sl, [r0], -r0
    9bf0:	0000a840 	andeq	sl, r0, r0, asr #16
    9bf4:	0000a89c 	muleq	r0, ip, r8

00009bf8 <kmalloc_notzero>:
    9bf8:	e52de004 	push	{lr}		; (str lr, [sp, #-4]!)
    9bfc:	e24dd00c 	sub	sp, sp, #12, 0
    9c00:	e3500000 	cmp	r0, #0, 0
    9c04:	0a00000a 	beq	9c34 <kmalloc_notzero+0x3c>
    9c08:	e2800007 	add	r0, r0, #7, 0
    9c0c:	e3c03007 	bic	r3, r0, #7, 0
    9c10:	e59f2060 	ldr	r2, [pc, #96]	; 9c78 <kmalloc_notzero+0x80>
    9c14:	e5920000 	ldr	r0, [r2]
    9c18:	e0801003 	add	r1, r0, r3
    9c1c:	e5821000 	str	r1, [r2]
    9c20:	e5922008 	ldr	r2, [r2, #8]
    9c24:	e1510002 	cmp	r1, r2
    9c28:	8a000009 	bhi	9c54 <kmalloc_notzero+0x5c>
    9c2c:	e28dd00c 	add	sp, sp, #12, 0
    9c30:	e49df004 	pop	{pc}		; (ldr pc, [sp], #4)
    9c34:	e59f3040 	ldr	r3, [pc, #64]	; 9c7c <kmalloc_notzero+0x84>
    9c38:	e58d3000 	str	r3, [sp]
    9c3c:	e3a03048 	mov	r3, #72, 0	; 0x48
    9c40:	e59f2038 	ldr	r2, [pc, #56]	; 9c80 <kmalloc_notzero+0x88>
    9c44:	e59f1038 	ldr	r1, [pc, #56]	; 9c84 <kmalloc_notzero+0x8c>
    9c48:	e59f0038 	ldr	r0, [pc, #56]	; 9c88 <kmalloc_notzero+0x90>
    9c4c:	ebfffbdf 	bl	8bd0 <printk>
    9c50:	ebfffe6f 	bl	9614 <clean_reboot>
    9c54:	e0422000 	sub	r2, r2, r0
    9c58:	e58d2004 	str	r2, [sp, #4]
    9c5c:	e58d3000 	str	r3, [sp]
    9c60:	e3a0304e 	mov	r3, #78, 0	; 0x4e
    9c64:	e59f2014 	ldr	r2, [pc, #20]	; 9c80 <kmalloc_notzero+0x88>
    9c68:	e59f1014 	ldr	r1, [pc, #20]	; 9c84 <kmalloc_notzero+0x8c>
    9c6c:	e59f0018 	ldr	r0, [pc, #24]	; 9c8c <kmalloc_notzero+0x94>
    9c70:	ebfffbd6 	bl	8bd0 <printk>
    9c74:	ebfffe66 	bl	9614 <clean_reboot>
    9c78:	0000aa40 	andeq	sl, r0, r0, asr #20
    9c7c:	0000a850 	andeq	sl, r0, r0, asr r8
    9c80:	0000aa00 	andeq	sl, r0, r0, lsl #20
    9c84:	0000a840 	andeq	sl, r0, r0, asr #16
    9c88:	0000a178 	andeq	sl, r0, r8, ror r1
    9c8c:	0000a8cc 	andeq	sl, r0, ip, asr #17

00009c90 <kmalloc>:
    9c90:	e92d4030 	push	{r4, r5, lr}
    9c94:	e24dd00c 	sub	sp, sp, #12, 0
    9c98:	e2504000 	subs	r4, r0, #0, 0
    9c9c:	0a000008 	beq	9cc4 <kmalloc+0x34>
    9ca0:	e1a00004 	mov	r0, r4
    9ca4:	ebffffd3 	bl	9bf8 <kmalloc_notzero>
    9ca8:	e1a05000 	mov	r5, r0
    9cac:	e1a02004 	mov	r2, r4
    9cb0:	e3a01000 	mov	r1, #0, 0
    9cb4:	ebfffba7 	bl	8b58 <memset>
    9cb8:	e1a00005 	mov	r0, r5
    9cbc:	e28dd00c 	add	sp, sp, #12, 0
    9cc0:	e8bd8030 	pop	{r4, r5, pc}
    9cc4:	e59f3018 	ldr	r3, [pc, #24]	; 9ce4 <kmalloc+0x54>
    9cc8:	e58d3000 	str	r3, [sp]
    9ccc:	e3a03054 	mov	r3, #84, 0	; 0x54
    9cd0:	e59f2010 	ldr	r2, [pc, #16]	; 9ce8 <kmalloc+0x58>
    9cd4:	e59f1010 	ldr	r1, [pc, #16]	; 9cec <kmalloc+0x5c>
    9cd8:	e59f0010 	ldr	r0, [pc, #16]	; 9cf0 <kmalloc+0x60>
    9cdc:	ebfffbbb 	bl	8bd0 <printk>
    9ce0:	ebfffe4b 	bl	9614 <clean_reboot>
    9ce4:	0000a850 	andeq	sl, r0, r0, asr r8
    9ce8:	0000aa10 	andeq	sl, r0, r0, lsl sl
    9cec:	0000a840 	andeq	sl, r0, r0, asr #16
    9cf0:	0000a178 	andeq	sl, r0, r8, ror r1

00009cf4 <kmalloc_aligned>:
    9cf4:	e52de004 	push	{lr}		; (str lr, [sp, #-4]!)
    9cf8:	e24dd00c 	sub	sp, sp, #12, 0
    9cfc:	e3500000 	cmp	r0, #0, 0
    9d00:	0a000014 	beq	9d58 <kmalloc_aligned+0x64>
    9d04:	e2613000 	rsb	r3, r1, #0, 0
    9d08:	e1d13003 	bics	r3, r1, r3
    9d0c:	1a000019 	bne	9d78 <kmalloc_aligned+0x84>
    9d10:	e3510008 	cmp	r1, #8, 0
    9d14:	33a01008 	movcc	r1, #8, 0
    9d18:	e59f30c0 	ldr	r3, [pc, #192]	; 9de0 <kmalloc_aligned+0xec>
    9d1c:	e5932000 	ldr	r2, [r3]
    9d20:	e2613000 	rsb	r3, r1, #0, 0
    9d24:	e1d1c003 	bics	ip, r1, r3
    9d28:	1a00001b 	bne	9d9c <kmalloc_aligned+0xa8>
    9d2c:	e0822001 	add	r2, r2, r1
    9d30:	e2422001 	sub	r2, r2, #1, 0
    9d34:	e0033002 	and	r3, r3, r2
    9d38:	e2411001 	sub	r1, r1, #1, 0
    9d3c:	e1110003 	tst	r1, r3
    9d40:	1a00001d 	bne	9dbc <kmalloc_aligned+0xc8>
    9d44:	e59f2094 	ldr	r2, [pc, #148]	; 9de0 <kmalloc_aligned+0xec>
    9d48:	e5823000 	str	r3, [r2]
    9d4c:	ebffffcf 	bl	9c90 <kmalloc>
    9d50:	e28dd00c 	add	sp, sp, #12, 0
    9d54:	e49df004 	pop	{pc}		; (ldr pc, [sp], #4)
    9d58:	e59f3084 	ldr	r3, [pc, #132]	; 9de4 <kmalloc_aligned+0xf0>
    9d5c:	e58d3000 	str	r3, [sp]
    9d60:	e3a0305f 	mov	r3, #95, 0	; 0x5f
    9d64:	e59f207c 	ldr	r2, [pc, #124]	; 9de8 <kmalloc_aligned+0xf4>
    9d68:	e59f107c 	ldr	r1, [pc, #124]	; 9dec <kmalloc_aligned+0xf8>
    9d6c:	e59f007c 	ldr	r0, [pc, #124]	; 9df0 <kmalloc_aligned+0xfc>
    9d70:	ebfffb96 	bl	8bd0 <printk>
    9d74:	ebfffe26 	bl	9614 <clean_reboot>
    9d78:	eb0000ac 	bl	a030 <rpi_reset_putc>
    9d7c:	e59f3070 	ldr	r3, [pc, #112]	; 9df4 <kmalloc_aligned+0x100>
    9d80:	e58d3000 	str	r3, [sp]
    9d84:	e3a03060 	mov	r3, #96, 0	; 0x60
    9d88:	e59f2058 	ldr	r2, [pc, #88]	; 9de8 <kmalloc_aligned+0xf4>
    9d8c:	e59f1058 	ldr	r1, [pc, #88]	; 9dec <kmalloc_aligned+0xf8>
    9d90:	e59f0060 	ldr	r0, [pc, #96]	; 9df8 <kmalloc_aligned+0x104>
    9d94:	ebfffb8d 	bl	8bd0 <printk>
    9d98:	ebfffe1d 	bl	9614 <clean_reboot>
    9d9c:	e59f3058 	ldr	r3, [pc, #88]	; 9dfc <kmalloc_aligned+0x108>
    9da0:	e58d3000 	str	r3, [sp]
    9da4:	e3a03011 	mov	r3, #17, 0
    9da8:	e59f2050 	ldr	r2, [pc, #80]	; 9e00 <kmalloc_aligned+0x10c>
    9dac:	e59f1038 	ldr	r1, [pc, #56]	; 9dec <kmalloc_aligned+0xf8>
    9db0:	e59f0038 	ldr	r0, [pc, #56]	; 9df0 <kmalloc_aligned+0xfc>
    9db4:	ebfffb85 	bl	8bd0 <printk>
    9db8:	ebfffe15 	bl	9614 <clean_reboot>
    9dbc:	eb00009b 	bl	a030 <rpi_reset_putc>
    9dc0:	e59f303c 	ldr	r3, [pc, #60]	; 9e04 <kmalloc_aligned+0x110>
    9dc4:	e58d3000 	str	r3, [sp]
    9dc8:	e3a03068 	mov	r3, #104, 0	; 0x68
    9dcc:	e59f2014 	ldr	r2, [pc, #20]	; 9de8 <kmalloc_aligned+0xf4>
    9dd0:	e59f1014 	ldr	r1, [pc, #20]	; 9dec <kmalloc_aligned+0xf8>
    9dd4:	e59f002c 	ldr	r0, [pc, #44]	; 9e08 <kmalloc_aligned+0x114>
    9dd8:	ebfffb7c 	bl	8bd0 <printk>
    9ddc:	ebfffe0c 	bl	9614 <clean_reboot>
    9de0:	0000aa40 	andeq	sl, r0, r0, asr #20
    9de4:	0000a850 	andeq	sl, r0, r0, asr r8
    9de8:	0000aa18 	andeq	sl, r0, r8, lsl sl
    9dec:	0000a840 	andeq	sl, r0, r0, asr #16
    9df0:	0000a178 	andeq	sl, r0, r8, ror r1
    9df4:	0000a940 	andeq	sl, r0, r0, asr #18
    9df8:	0000a90c 	andeq	sl, r0, ip, lsl #18
    9dfc:	0000a954 	andeq	sl, r0, r4, asr r9
    9e00:	0000aa28 	andeq	sl, r0, r8, lsr #20
    9e04:	0000a98c 	andeq	sl, r0, ip, lsl #19
    9e08:	0000a960 	andeq	sl, r0, r0, ror #18

00009e0c <kfree>:
    9e0c:	e12fff1e 	bx	lr

00009e10 <kfree_all>:
    9e10:	e59f3008 	ldr	r3, [pc, #8]	; 9e20 <kfree_all+0x10>
    9e14:	e5932004 	ldr	r2, [r3, #4]
    9e18:	e5832000 	str	r2, [r3]
    9e1c:	e12fff1e 	bx	lr
    9e20:	0000aa40 	andeq	sl, r0, r0, asr #20

00009e24 <kfree_pop>:
    9e24:	e59f3048 	ldr	r3, [pc, #72]	; 9e74 <kfree_pop+0x50>
    9e28:	e5933004 	ldr	r3, [r3, #4]
    9e2c:	e1530000 	cmp	r3, r0
    9e30:	8a000006 	bhi	9e50 <kfree_pop+0x2c>
    9e34:	e59f3038 	ldr	r3, [pc, #56]	; 9e74 <kfree_pop+0x50>
    9e38:	e5933008 	ldr	r3, [r3, #8]
    9e3c:	e1530000 	cmp	r3, r0
    9e40:	3a000002 	bcc	9e50 <kfree_pop+0x2c>
    9e44:	e59f3028 	ldr	r3, [pc, #40]	; 9e74 <kfree_pop+0x50>
    9e48:	e5830000 	str	r0, [r3]
    9e4c:	e12fff1e 	bx	lr
    9e50:	e52de004 	push	{lr}		; (str lr, [sp, #-4]!)
    9e54:	e24dd00c 	sub	sp, sp, #12, 0
    9e58:	e58d0000 	str	r0, [sp]
    9e5c:	e3a03077 	mov	r3, #119, 0	; 0x77
    9e60:	e59f2010 	ldr	r2, [pc, #16]	; 9e78 <kfree_pop+0x54>
    9e64:	e59f1010 	ldr	r1, [pc, #16]	; 9e7c <kfree_pop+0x58>
    9e68:	e59f0010 	ldr	r0, [pc, #16]	; 9e80 <kfree_pop+0x5c>
    9e6c:	ebfffb57 	bl	8bd0 <printk>
    9e70:	ebfffde7 	bl	9614 <clean_reboot>
    9e74:	0000aa40 	andeq	sl, r0, r0, asr #20
    9e78:	0000aa30 	andeq	sl, r0, r0, lsr sl
    9e7c:	0000a840 	andeq	sl, r0, r0, asr #16
    9e80:	0000a9a8 	andeq	sl, r0, r8, lsr #19

00009e84 <gpio_set_function>:
    9e84:	e350001f 	cmp	r0, #31, 0
    9e88:	812fff1e 	bxhi	lr
    9e8c:	e3d13007 	bics	r3, r1, #7, 0
    9e90:	e92d4070 	push	{r4, r5, r6, lr}
    9e94:	e1a05001 	mov	r5, r1
    9e98:	18bd8070 	popne	{r4, r5, r6, pc}
    9e9c:	e59f403c 	ldr	r4, [pc, #60]	; 9ee0 <gpio_set_function+0x5c>
    9ea0:	e0843094 	umull	r3, r4, r4, r0
    9ea4:	e1a041a4 	lsr	r4, r4, #3
    9ea8:	e2843302 	add	r3, r4, #134217728	; 0x8000000
    9eac:	e2833702 	add	r3, r3, #524288	; 0x80000
    9eb0:	e1a06103 	lsl	r6, r3, #2
    9eb4:	e0844104 	add	r4, r4, r4, lsl #2
    9eb8:	e0404084 	sub	r4, r0, r4, lsl #1
    9ebc:	e1a00006 	mov	r0, r6
    9ec0:	ebfff859 	bl	802c <GET32>
    9ec4:	e3a01007 	mov	r1, #7, 0
    9ec8:	e0844084 	add	r4, r4, r4, lsl #1
    9ecc:	e1c01411 	bic	r1, r0, r1, lsl r4
    9ed0:	e1811415 	orr	r1, r1, r5, lsl r4
    9ed4:	e1a00006 	mov	r0, r6
    9ed8:	e8bd4070 	pop	{r4, r5, r6, lr}
    9edc:	eafff850 	b	8024 <PUT32>
    9ee0:	cccccccd 	stclgt	12, cr12, [ip], {205}	; 0xcd

00009ee4 <gpio_set_output>:
    9ee4:	e350001f 	cmp	r0, #31, 0
    9ee8:	812fff1e 	bxhi	lr
    9eec:	e92d4070 	push	{r4, r5, r6, lr}
    9ef0:	e59f4040 	ldr	r4, [pc, #64]	; 9f38 <gpio_set_output+0x54>
    9ef4:	e0843094 	umull	r3, r4, r4, r0
    9ef8:	e1a041a4 	lsr	r4, r4, #3
    9efc:	e2843302 	add	r3, r4, #134217728	; 0x8000000
    9f00:	e2833702 	add	r3, r3, #524288	; 0x80000
    9f04:	e1a05103 	lsl	r5, r3, #2
    9f08:	e0844104 	add	r4, r4, r4, lsl #2
    9f0c:	e0404084 	sub	r4, r0, r4, lsl #1
    9f10:	e1a00005 	mov	r0, r5
    9f14:	ebfff844 	bl	802c <GET32>
    9f18:	e3a03007 	mov	r3, #7, 0
    9f1c:	e3a01001 	mov	r1, #1, 0
    9f20:	e0844084 	add	r4, r4, r4, lsl #1
    9f24:	e1c03413 	bic	r3, r0, r3, lsl r4
    9f28:	e1831411 	orr	r1, r3, r1, lsl r4
    9f2c:	e1a00005 	mov	r0, r5
    9f30:	e8bd4070 	pop	{r4, r5, r6, lr}
    9f34:	eafff83a 	b	8024 <PUT32>
    9f38:	cccccccd 	stclgt	12, cr12, [ip], {205}	; 0xcd

00009f3c <gpio_set_on>:
    9f3c:	e1a03000 	mov	r3, r0
    9f40:	e3a01001 	mov	r1, #1, 0
    9f44:	e59f0004 	ldr	r0, [pc, #4]	; 9f50 <gpio_set_on+0x14>
    9f48:	e1a01311 	lsl	r1, r1, r3
    9f4c:	eafff834 	b	8024 <PUT32>
    9f50:	2020001c 	eorcs	r0, r0, ip, lsl r0

00009f54 <gpio_set_off>:
    9f54:	e1a03000 	mov	r3, r0
    9f58:	e3a01001 	mov	r1, #1, 0
    9f5c:	e59f0004 	ldr	r0, [pc, #4]	; 9f68 <gpio_set_off+0x14>
    9f60:	e1a01311 	lsl	r1, r1, r3
    9f64:	eafff82e 	b	8024 <PUT32>
    9f68:	20200028 	eorcs	r0, r0, r8, lsr #32

00009f6c <gpio_set_input>:
    9f6c:	e350001f 	cmp	r0, #31, 0
    9f70:	812fff1e 	bxhi	lr
    9f74:	e92d4070 	push	{r4, r5, r6, lr}
    9f78:	e59f5040 	ldr	r5, [pc, #64]	; 9fc0 <gpio_set_input+0x54>
    9f7c:	e1a04000 	mov	r4, r0
    9f80:	e0853095 	umull	r3, r5, r5, r0
    9f84:	e1a051a5 	lsr	r5, r5, #3
    9f88:	e2850302 	add	r0, r5, #134217728	; 0x8000000
    9f8c:	e2800702 	add	r0, r0, #524288	; 0x80000
    9f90:	e1a06100 	lsl	r6, r0, #2
    9f94:	e1a00006 	mov	r0, r6
    9f98:	ebfff823 	bl	802c <GET32>
    9f9c:	e3a01007 	mov	r1, #7, 0
    9fa0:	e1a03000 	mov	r3, r0
    9fa4:	e0855105 	add	r5, r5, r5, lsl #2
    9fa8:	e0444085 	sub	r4, r4, r5, lsl #1
    9fac:	e0844084 	add	r4, r4, r4, lsl #1
    9fb0:	e1a00006 	mov	r0, r6
    9fb4:	e1c31411 	bic	r1, r3, r1, lsl r4
    9fb8:	e8bd4070 	pop	{r4, r5, r6, lr}
    9fbc:	eafff818 	b	8024 <PUT32>
    9fc0:	cccccccd 	stclgt	12, cr12, [ip], {205}	; 0xcd

00009fc4 <gpio_write>:
    9fc4:	e3510000 	cmp	r1, #0, 0
    9fc8:	e3a03001 	mov	r3, #1, 0
    9fcc:	e1a01000 	mov	r1, r0
    9fd0:	0a000002 	beq	9fe0 <gpio_write+0x1c>
    9fd4:	e59f0010 	ldr	r0, [pc, #16]	; 9fec <gpio_write+0x28>
    9fd8:	e1a01113 	lsl	r1, r3, r1
    9fdc:	eafff810 	b	8024 <PUT32>
    9fe0:	e59f0008 	ldr	r0, [pc, #8]	; 9ff0 <gpio_write+0x2c>
    9fe4:	e1a01113 	lsl	r1, r3, r1
    9fe8:	eafff80d 	b	8024 <PUT32>
    9fec:	2020001c 	eorcs	r0, r0, ip, lsl r0
    9ff0:	20200028 	eorcs	r0, r0, r8, lsr #32

00009ff4 <gpio_read>:
    9ff4:	e92d4010 	push	{r4, lr}
    9ff8:	e1a04000 	mov	r4, r0
    9ffc:	e59f0014 	ldr	r0, [pc, #20]	; a018 <gpio_read+0x24>
    a000:	e08002a4 	add	r0, r0, r4, lsr #5
    a004:	ebfff808 	bl	802c <GET32>
    a008:	e204401f 	and	r4, r4, #31, 0
    a00c:	e1a00430 	lsr	r0, r0, r4
    a010:	e2000001 	and	r0, r0, #1, 0
    a014:	e8bd8010 	pop	{r4, pc}
    a018:	20200034 	eorcs	r0, r0, r4, lsr r0

0000a01c <internal_putchar>:
    a01c:	e92d4010 	push	{r4, lr}
    a020:	e1a04000 	mov	r4, r0
    a024:	ebfffe84 	bl	9a3c <uart_putc>
    a028:	e1a00004 	mov	r0, r4
    a02c:	e8bd8010 	pop	{r4, pc}

0000a030 <rpi_reset_putc>:
    a030:	e59f3008 	ldr	r3, [pc, #8]	; a040 <rpi_reset_putc+0x10>
    a034:	e59f2008 	ldr	r2, [pc, #8]	; a044 <rpi_reset_putc+0x14>
    a038:	e5832000 	str	r2, [r3]
    a03c:	e12fff1e 	bx	lr
    a040:	0000aa4c 	andeq	sl, r0, ip, asr #20
    a044:	0000a01c 	andeq	sl, r0, ip, lsl r0

0000a048 <rpi_set_putc>:
    a048:	e59f3004 	ldr	r3, [pc, #4]	; a054 <rpi_set_putc+0xc>
    a04c:	e5830000 	str	r0, [r3]
    a050:	e12fff1e 	bx	lr
    a054:	0000aa4c 	andeq	sl, r0, ip, asr #20

0000a058 <strcat>:
    a058:	e1a02000 	mov	r2, r0
    a05c:	e1a03002 	mov	r3, r2
    a060:	e4d2c001 	ldrb	ip, [r2], #1
    a064:	e35c0000 	cmp	ip, #0, 0
    a068:	1afffffb 	bne	a05c <strcat+0x4>
    a06c:	e2433001 	sub	r3, r3, #1, 0
    a070:	e4d12001 	ldrb	r2, [r1], #1
    a074:	e3520000 	cmp	r2, #0, 0
    a078:	e5e32001 	strb	r2, [r3, #1]!
    a07c:	1afffffb 	bne	a070 <strcat+0x18>
    a080:	e12fff1e 	bx	lr

0000a084 <strcmp>:
    a084:	e5d03000 	ldrb	r3, [r0]
    a088:	e3530000 	cmp	r3, #0, 0
    a08c:	05d12000 	ldrbeq	r2, [r1]
    a090:	1a000003 	bne	a0a4 <strcmp+0x20>
    a094:	ea000006 	b	a0b4 <strcmp+0x30>
    a098:	e5f03001 	ldrb	r3, [r0, #1]!
    a09c:	e3530000 	cmp	r3, #0, 0
    a0a0:	0a000005 	beq	a0bc <strcmp+0x38>
    a0a4:	e1a0c001 	mov	ip, r1
    a0a8:	e4d12001 	ldrb	r2, [r1], #1
    a0ac:	e1520003 	cmp	r2, r3
    a0b0:	0afffff8 	beq	a098 <strcmp+0x14>
    a0b4:	e0430002 	sub	r0, r3, r2
    a0b8:	e12fff1e 	bx	lr
    a0bc:	e5dc2001 	ldrb	r2, [ip, #1]
    a0c0:	e0430002 	sub	r0, r3, r2
    a0c4:	e12fff1e 	bx	lr

0000a0c8 <strcpy>:
    a0c8:	e2402001 	sub	r2, r0, #1, 0
    a0cc:	e4d13001 	ldrb	r3, [r1], #1
    a0d0:	e3530000 	cmp	r3, #0, 0
    a0d4:	e5e23001 	strb	r3, [r2, #1]!
    a0d8:	1afffffb 	bne	a0cc <strcpy+0x4>
    a0dc:	e12fff1e 	bx	lr

0000a0e0 <strncmp>:
    a0e0:	e0802002 	add	r2, r0, r2
    a0e4:	ea000003 	b	a0f8 <strncmp+0x18>
    a0e8:	e4d03001 	ldrb	r3, [r0], #1
    a0ec:	e4d1c001 	ldrb	ip, [r1], #1
    a0f0:	e153000c 	cmp	r3, ip
    a0f4:	1a000003 	bne	a108 <strncmp+0x28>
    a0f8:	e1500002 	cmp	r0, r2
    a0fc:	1afffff9 	bne	a0e8 <strncmp+0x8>
    a100:	e3a00000 	mov	r0, #0, 0
    a104:	e12fff1e 	bx	lr
    a108:	e043000c 	sub	r0, r3, ip
    a10c:	e12fff1e 	bx	lr

0000a110 <reboot_callout>:
    a110:	e12fff1e 	bx	lr

0000a114 <dev_barrier>:
    a114:	ea000002 	b	a124 <dsb>

0000a118 <dmb>:
    a118:	e3a00000 	mov	r0, #0, 0
    a11c:	ee070fba 	mcr	15, 0, r0, cr7, cr10, {5}
    a120:	e12fff1e 	bx	lr

0000a124 <dsb>:
    a124:	ee070f9a 	mcr	15, 0, r0, cr7, cr10, {4}
    a128:	e12fff1e 	bx	lr

0000a12c <__code_end__>:
    a12c:	00000000 	andeq	r0, r0, r0

Disassembly of section .rodata:

0000a130 <__FUNCTION__.4026-0x120>:
    a130:	626f6c67 	rsbvs	r6, pc, #26368	; 0x6700
    a134:	705f6c61 	subsvc	r6, pc, r1, ror #24
    a138:	2070253d 	rsbscs	r2, r0, sp, lsr r5
    a13c:	61746164 	cmnvs	r4, r4, ror #2
    a140:	72617473 	rsbvc	r7, r1, #1929379840	; 0x73000000
    a144:	70253d74 	eorvc	r3, r5, r4, ror sp
    a148:	6164202c 	cmnvs	r4, ip, lsr #32
    a14c:	6e656174 	mcrvs	1, 3, r6, cr5, cr4, {3}
    a150:	70253d64 	eorvc	r3, r5, r4, ror #26
    a154:	0000000a 	andeq	r0, r0, sl
    a158:	74736574 	ldrbtvc	r6, [r3], #-1396	; 0xfffffa8c
    a15c:	2e322d73 	mrccs	13, 1, r2, cr2, cr3, {3}
    a160:	61702f30 	cmnvs	r0, r0, lsr pc
    a164:	2d327472 	cfldrscs	mvf7, [r2, #-456]!	; 0xfffffe38
    a168:	74736574 	ldrbtvc	r6, [r3], #-1396	; 0xfffffa8c
    a16c:	6f6e2d32 	svcvs	0x006e2d32
    a170:	61656c2d 	cmnvs	r5, sp, lsr #24
    a174:	00632e6b 	rsbeq	r2, r3, fp, ror #28
    a178:	494e4150 	stmdbmi	lr, {r4, r6, r8, lr}^
    a17c:	73253a43 			; <UNDEFINED> instruction: 0x73253a43
    a180:	3a73253a 	bcc	1cd3670 <__bss_end__+0x1cc87f0>
    a184:	253a6425 	ldrcs	r6, [sl, #-1061]!	; 0xfffffbdb
    a188:	00000a73 	andeq	r0, r0, r3, ror sl
    a18c:	696f7628 	stmdbvs	pc!, {r3, r5, r9, sl, ip, sp, lr}^	; <UNPREDICTABLE>
    a190:	26292a64 	strtcs	r2, [r9], -r4, ror #20
    a194:	626f6c67 	rsbvs	r6, pc, #26368	; 0x6700
    a198:	705f6c61 	subsvc	r6, pc, r1, ror #24
    a19c:	203d3e20 	eorscs	r3, sp, r0, lsr #28
    a1a0:	696f7628 	stmdbvs	pc!, {r3, r5, r9, sl, ip, sp, lr}^	; <UNPREDICTABLE>
    a1a4:	26292a64 	strtcs	r2, [r9], -r4, ror #20
    a1a8:	73625f5f 	cmnvc	r2, #380	; 0x17c
    a1ac:	74735f73 	ldrbtvc	r5, [r3], #-3955	; 0xfffff08d
    a1b0:	5f747261 	svcpl	0x00747261
    a1b4:	0000005f 	andeq	r0, r0, pc, asr r0
    a1b8:	696f7628 	stmdbvs	pc!, {r3, r5, r9, sl, ip, sp, lr}^	; <UNPREDICTABLE>
    a1bc:	26292a64 	strtcs	r2, [r9], -r4, ror #20
    a1c0:	626f6c67 	rsbvs	r6, pc, #26368	; 0x6700
    a1c4:	705f6c61 	subsvc	r6, pc, r1, ror #24
    a1c8:	28203c20 	stmdacs	r0!, {r5, sl, fp, ip, sp}
    a1cc:	64696f76 	strbtvs	r6, [r9], #-3958	; 0xfffff08a
    a1d0:	5f26292a 	svcpl	0x0026292a
    a1d4:	7373625f 	cmnvc	r3, #-268435451	; 0xf0000005
    a1d8:	646e655f 	strbtvs	r6, [lr], #-1375	; 0xfffffaa1
    a1dc:	00005f5f 	andeq	r5, r0, pc, asr pc
    a1e0:	74204347 	strtvc	r4, [r0], #-839	; 0xfffffcb9
    a1e4:	32747365 	rsbscc	r7, r4, #-1811939327	; 0x94000001
    a1e8:	6863203a 	stmdavs	r3!, {r1, r3, r4, r5, sp}^
    a1ec:	696b6365 	stmdbvs	fp!, {r0, r2, r5, r6, r8, r9, sp, lr}^
    a1f0:	7420676e 	strtvc	r6, [r0], #-1902	; 0xfffff892
    a1f4:	20746168 	rsbscs	r6, r4, r8, ror #2
    a1f8:	61636f6c 	cmnvs	r3, ip, ror #30
    a1fc:	7328206c 			; <UNDEFINED> instruction: 0x7328206c
    a200:	6b636174 	blvs	18e27d8 <__bss_end__+0x18d7958>
    a204:	20726f20 	rsbscs	r6, r2, r0, lsr #30
    a208:	29676572 	stmdbcs	r7!, {r1, r4, r5, r6, r8, sl, sp, lr}^
    a20c:	696f7020 	stmdbvs	pc!, {r5, ip, sp, lr}^	; <UNPREDICTABLE>
    a210:	7265746e 	rsbvc	r7, r5, #1845493760	; 0x6e000000
    a214:	72612073 	rsbvc	r2, r1, #115, 0	; 0x73
    a218:	65642065 	strbvs	r2, [r4, #-101]!	; 0xffffff9b
    a21c:	74636574 	strbtvc	r6, [r3], #-1396	; 0xfffffa8c
    a220:	0a2e6465 	beq	ba33bc <__bss_end__+0xb9853c>
    a224:	00000000 	andeq	r0, r0, r0
    a228:	43415254 	movtmi	r5, #4692	; 0x1254
    a22c:	616c3a45 	cmnvs	ip, r5, asr #20
    a230:	61207473 			; <UNDEFINED> instruction: 0x61207473
    a234:	636f6c6c 	cmnvs	pc, #108, 24	; 0x6c00
    a238:	62203d20 	eorvs	r3, r0, #32, 26	; 0x800
    a23c:	6b636f6c 	blvs	18e5ff4 <__bss_end__+0x18db174>
    a240:	3d64695f 			; <UNDEFINED> instruction: 0x3d64695f
    a244:	202c7525 	eorcs	r7, ip, r5, lsr #10
    a248:	5d70255b 	cfldr64pl	mvdx2, [r0, #-364]!	; 0xfffffe94
    a24c:	0000000a 	andeq	r0, r0, sl

0000a250 <__FUNCTION__.4026>:
    a250:	74736574 	ldrbtvc	r6, [r3], #-1396	; 0xfffffa8c
    a254:	00000000 	andeq	r0, r0, r0
    a258:	6e756f66 	cdpvs	15, 7, cr6, cr5, cr6, {3}
    a25c:	70252064 	eorvc	r2, r5, r4, rrx
    a260:	206e6920 	rsbcs	r6, lr, r0, lsr #18
    a264:	000a7025 	andeq	r7, sl, r5, lsr #32
    a268:	253a7325 	ldrcs	r7, [sl, #-805]!	; 0xfffffcdb
    a26c:	64253a73 	strtvs	r3, [r5], #-2675	; 0xfffff58d
    a270:	0000003a 	andeq	r0, r0, sl, lsr r0
    a274:	65657266 	strbvs	r7, [r5, #-614]!	; 0xfffffd9a
    a278:	20676e69 	rsbcs	r6, r7, r9, ror #28
    a27c:	0a702509 	beq	1c136a8 <__bss_end__+0x1c08828>
    a280:	00000000 	andeq	r0, r0, r0
    a284:	5f434f4c 	svcpl	0x00434f4c
    a288:	494e4150 	stmdbmi	lr, {r4, r6, r8, lr}^
    a28c:	25203a43 	strcs	r3, [r0, #-2627]!	; 0xfffff5bd
    a290:	73253a73 			; <UNDEFINED> instruction: 0x73253a73
    a294:	3a64253a 	bcc	1913784 <__bss_end__+0x1908904>
    a298:	00000000 	andeq	r0, r0, r0
    a29c:	65657266 	strbvs	r7, [r5, #-614]!	; 0xfffffd9a
    a2a0:	20676e69 	rsbcs	r6, r7, r9, ror #28
    a2a4:	6c616e75 	stclvs	14, cr6, [r1], #-468	; 0xfffffe2c
    a2a8:	61636f6c 	cmnvs	r3, ip, ror #30
    a2ac:	20646574 	rsbcs	r6, r4, r4, ror r5
    a2b0:	6f6d656d 	svcvs	0x006d656d
    a2b4:	203a7972 	eorscs	r7, sl, r2, ror r9
    a2b8:	74617473 	strbtvc	r7, [r1], #-1139	; 0xfffffb8d
    a2bc:	64253d65 	strtvs	r3, [r5], #-3429	; 0xfffff29b
    a2c0:	0000000a 	andeq	r0, r0, sl
    a2c4:	6c616b63 			; <UNDEFINED> instruction: 0x6c616b63
    a2c8:	2e636f6c 	cdpcs	15, 6, cr6, cr3, cr12, {3}
    a2cc:	00000063 	andeq	r0, r0, r3, rrx
    a2d0:	494e4150 	stmdbmi	lr, {r4, r6, r8, lr}^
    a2d4:	73253a43 			; <UNDEFINED> instruction: 0x73253a43
    a2d8:	3a73253a 	bcc	1cd37c8 <__bss_end__+0x1cc8948>
    a2dc:	643a6425 	ldrtvs	r6, [sl], #-1061	; 0xfffffbdb
    a2e0:	6e206469 	cdpvs	4, 2, cr6, cr0, cr9, {3}
    a2e4:	6620746f 	strtvs	r7, [r0], -pc, ror #8
    a2e8:	20646e69 	rsbcs	r6, r4, r9, ror #28
    a2ec:	69207025 	stmdbvs	r0!, {r0, r2, r5, ip, sp, lr}
    a2f0:	696c206e 	stmdbvs	ip!, {r1, r2, r3, r5, r6, sp}^
    a2f4:	0a0a7473 	beq	2a74c8 <__bss_end__+0x29c648>
    a2f8:	00000000 	andeq	r0, r0, r0
    a2fc:	705f6b63 	subsvc	r6, pc, r3, ror #22
    a300:	695f7274 	ldmdbvs	pc, {r2, r4, r5, r6, r9, ip, sp, lr}^	; <UNPREDICTABLE>
    a304:	6c615f73 	stclvs	15, cr5, [r1], #-460	; 0xfffffe34
    a308:	65636f6c 	strbvs	r6, [r3, #-3948]!	; 0xfffff094
    a30c:	64612864 	strbtvs	r2, [r1], #-2148	; 0xfffff79c
    a310:	00297264 	eoreq	r7, r9, r4, ror #4
    a314:	6f6c6c61 	svcvs	0x006c6c61
    a318:	69746163 	ldmdbvs	r4!, {r0, r1, r5, r6, r8, sp, lr}^
    a31c:	2520676e 	strcs	r6, [r0, #-1902]!	; 0xfffff892
    a320:	25282070 	strcs	r2, [r8, #-112]!	; 0xffffff90
    a324:	79622064 	stmdbvc	r2!, {r2, r5, r6, sp}^
    a328:	29736574 	ldmdbcs	r3!, {r2, r4, r5, r6, r8, sl, sp, lr}^
    a32c:	0000000a 	andeq	r0, r0, sl

0000a330 <__FUNCTION__.4058>:
    a330:	7473696c 	ldrbtvc	r6, [r3], #-2412	; 0xfffff694
    a334:	6d65725f 	sfmvs	f7, 2, [r5, #-380]!	; 0xfffffe84
    a338:	0065766f 	rsbeq	r7, r5, pc, ror #12

0000a33c <__FUNCTION__.4069>:
    a33c:	72666b63 	rsbvc	r6, r6, #101376	; 0x18c00
    a340:	00006565 	andeq	r6, r0, r5, ror #10
    a344:	75716552 	ldrbvc	r6, [r1, #-1362]!	; 0xfffffaae
    a348:	74737265 	ldrbtvc	r7, [r3], #-613	; 0xfffffd9b
    a34c:	20676e69 	rsbcs	r6, r7, r9, ror #28
    a350:	65726f6d 	ldrbvs	r6, [r2, #-3949]!	; 0xfffff093
    a354:	6d656d20 	stclvs	13, cr6, [r5, #-128]!	; 0xffffff80
    a358:	2079726f 	rsbscs	r7, r9, pc, ror #4
    a35c:	29642528 	stmdbcs	r4!, {r3, r5, r8, sl, sp}^
    a360:	0a2e2e2e 	beq	b95c20 <__bss_end__+0xb8ada0>
    a364:	00000000 	andeq	r0, r0, r0
    a368:	672d6b63 	strvs	r6, [sp, -r3, ror #22]!
    a36c:	00632e63 	rsbeq	r2, r3, r3, ror #28
    a370:	203c2070 	eorscs	r2, ip, r0, ror r0
    a374:	00000065 	andeq	r0, r0, r5, rrx
    a378:	67696c61 	strbvs	r6, [r9, -r1, ror #24]!
    a37c:	2864656e 	stmdacs	r4!, {r1, r2, r3, r5, r6, r8, sl, sp, lr}^
    a380:	34202c70 	strtcc	r2, [r0], #-3184	; 0xfffff390
    a384:	00000029 	andeq	r0, r0, r9, lsr #32
    a388:	67696c61 	strbvs	r6, [r9, -r1, ror #24]!
    a38c:	2864656e 	stmdacs	r4!, {r1, r2, r3, r5, r6, r8, sl, sp, lr}^
    a390:	34202c65 	strtcc	r2, [r0], #-3173	; 0xfffff39b
    a394:	00000029 	andeq	r0, r0, r9, lsr #32
    a398:	6e696f67 	cdpvs	15, 6, cr6, cr9, cr7, {3}
    a39c:	6f742067 	svcvs	0x00742067
    a3a0:	72616d20 	rsbvc	r6, r1, #32, 26	; 0x800
    a3a4:	7025206b 	eorvc	r2, r5, fp, rrx
    a3a8:	20692820 	rsbcs	r2, r9, r0, lsr #16
    a3ac:	70252040 	eorvc	r2, r5, r0, asr #32
    a3b0:	25203d20 	strcs	r3, [r0, #-3360]!	; 0xfffff2e0
    a3b4:	202c2970 	eorcs	r2, ip, r0, ror r9
    a3b8:	20707865 	rsbscs	r7, r0, r5, ror #16
    a3bc:	7025203d 	eorvc	r2, r5, sp, lsr r0
    a3c0:	0000000a 	andeq	r0, r0, sl
    a3c4:	6b72616d 	blvs	1ca2980 <__bss_end__+0x1c97b00>
    a3c8:	20676e69 	rsbcs	r6, r7, r9, ror #28
    a3cc:	25207361 	strcs	r7, [r0, #-865]!	; 0xfffffc9f
    a3d0:	00000a64 	andeq	r0, r0, r4, ror #20
    a3d4:	20746f6e 	rsbscs	r6, r4, lr, ror #30
    a3d8:	6b72616d 	blvs	1ca2994 <__bss_end__+0x1c97b14>
    a3dc:	21676e69 	cmncs	r7, r9, ror #28
    a3e0:	0000000a 	andeq	r0, r0, sl
    a3e4:	63656863 	cmnvs	r5, #6488064	; 0x630000
    a3e8:	676e696b 	strbvs	r6, [lr, -fp, ror #18]!
    a3ec:	61747320 	cmnvs	r4, r0, lsr #6
    a3f0:	203a6b63 	eorscs	r6, sl, r3, ror #22
    a3f4:	74207025 	strtvc	r7, [r0], #-37	; 0xffffffdb
    a3f8:	7025206f 	eorvc	r2, r5, pc, rrx
    a3fc:	0000000a 	andeq	r0, r0, sl
    a400:	2d2d2d2d 	stccs	13, cr2, [sp, #-180]!	; 0xffffff4c
    a404:	2d2d2d2d 	stccs	13, cr2, [sp, #-180]!	; 0xffffff4c
    a408:	2d2d2d2d 	stccs	13, cr2, [sp, #-180]!	; 0xffffff4c
    a40c:	2d2d2d2d 	stccs	13, cr2, [sp, #-180]!	; 0xffffff4c
    a410:	2d2d2d2d 	stccs	13, cr2, [sp, #-180]!	; 0xffffff4c
    a414:	2d2d2d2d 	stccs	13, cr2, [sp, #-180]!	; 0xffffff4c
    a418:	2d2d2d2d 	stccs	13, cr2, [sp, #-180]!	; 0xffffff4c
    a41c:	2d2d2d2d 	stccs	13, cr2, [sp, #-180]!	; 0xffffff4c
    a420:	2d2d2d2d 	stccs	13, cr2, [sp, #-180]!	; 0xffffff4c
    a424:	2d2d2d2d 	stccs	13, cr2, [sp, #-180]!	; 0xffffff4c
    a428:	2d2d2d2d 	stccs	13, cr2, [sp, #-180]!	; 0xffffff4c
    a42c:	2d2d2d2d 	stccs	13, cr2, [sp, #-180]!	; 0xffffff4c
    a430:	2d2d2d2d 	stccs	13, cr2, [sp, #-180]!	; 0xffffff4c
    a434:	2d2d2d2d 	stccs	13, cr2, [sp, #-180]!	; 0xffffff4c
    a438:	00000a2d 	andeq	r0, r0, sp, lsr #20
    a43c:	63656863 	cmnvs	r5, #6488064	; 0x630000
    a440:	676e696b 	strbvs	r6, [lr, -fp, ror #18]!
    a444:	726f6620 	rsbvc	r6, pc, #32, 12	; 0x2000000
    a448:	61656c20 	cmnvs	r5, r0, lsr #24
    a44c:	0a3a736b 	beq	ea7200 <__bss_end__+0xe9c380>
    a450:	00000000 	andeq	r0, r0, r0
    a454:	4c3a4347 	ldcmi	3, cr4, [sl], #-284	; 0xfffffee4
    a458:	2054534f 	subscs	r5, r4, pc, asr #6
    a45c:	2d206425 	cfstrscs	mvf6, [r0, #-148]!	; 0xffffff6c
    a460:	7025203e 	eorvc	r2, r5, lr, lsr r0
    a464:	0000000a 	andeq	r0, r0, sl
    a468:	4d3a4347 	ldcmi	3, cr4, [sl, #-284]!	; 0xfffffee4
    a46c:	45425941 	strbmi	r5, [r2, #-2369]	; 0xfffff6bf
    a470:	534f4c20 	movtpl	r4, #64544	; 0xfc20
    a474:	64252054 	strtvs	r2, [r5], #-84	; 0xffffffac
    a478:	203e2d20 	eorscs	r2, lr, r0, lsr #26
    a47c:	000a7025 	andeq	r7, sl, r5, lsr #32
    a480:	43415254 	movtmi	r5, #4692	; 0x1254
    a484:	47093a45 	strmi	r3, [r9, -r5, asr #20]
    a488:	68433a43 	stmdavs	r3, {r0, r1, r6, r9, fp, ip, sp}^
    a48c:	656b6365 	strbvs	r6, [fp, #-869]!	; 0xfffffc9b
    a490:	64252064 	strtvs	r2, [r5], #-100	; 0xffffff9c
    a494:	6f6c6220 	svcvs	0x006c6220
    a498:	2e736b63 	vsubcs.f64	d22, d3, d19
    a49c:	0000000a 	andeq	r0, r0, sl
    a4a0:	43415254 	movtmi	r5, #4692	; 0x1254
    a4a4:	09093a45 	stmdbeq	r9, {r0, r2, r6, r9, fp, ip, sp}
    a4a8:	533a4347 	teqpl	sl, #469762049	; 0x1c000001
    a4ac:	45434355 	strbmi	r4, [r3, #-853]	; 0xfffffcab
    a4b0:	203a5353 	eorscs	r5, sl, r3, asr r3
    a4b4:	6c206f4e 	stcvs	15, cr6, [r0], #-312	; 0xfffffec8
    a4b8:	736b6165 	cmnvc	fp, #1073741849	; 0x40000019
    a4bc:	756f6620 	strbvc	r6, [pc, #-1568]!	; 9ea4 <gpio_set_function+0x20>
    a4c0:	0a21646e 	beq	863680 <__bss_end__+0x858800>
    a4c4:	00000000 	andeq	r0, r0, r0
    a4c8:	43415254 	movtmi	r5, #4692	; 0x1254
    a4cc:	09093a45 	stmdbeq	r9, {r0, r2, r6, r9, fp, ip, sp}
    a4d0:	453a4347 	ldrmi	r4, [sl, #-839]!	; 0xfffffcb9
    a4d4:	524f5252 	subpl	r5, pc, #536870917	; 0x20000005
    a4d8:	25203a53 	strcs	r3, [r0, #-2643]!	; 0xfffff5ad
    a4dc:	72652064 	rsbvc	r2, r5, #100, 0	; 0x64
    a4e0:	73726f72 	cmnvc	r2, #456	; 0x1c8
    a4e4:	6425202c 	strtvs	r2, [r5], #-44	; 0xffffffd4
    a4e8:	79616d20 	stmdbvc	r1!, {r5, r8, sl, fp, sp, lr}^
    a4ec:	655f6562 	ldrbvs	r6, [pc, #-1378]	; 9f92 <gpio_set_input+0x26>
    a4f0:	726f7272 	rsbvc	r7, pc, #536870919	; 0x20000007
    a4f4:	00000a73 	andeq	r0, r0, r3, ror sl
    a4f8:	2d2d2d2d 	stccs	13, cr2, [sp, #-180]!	; 0xffffff4c
    a4fc:	2d2d2d2d 	stccs	13, cr2, [sp, #-180]!	; 0xffffff4c
    a500:	2d2d2d2d 	stccs	13, cr2, [sp, #-180]!	; 0xffffff4c
    a504:	2d2d2d2d 	stccs	13, cr2, [sp, #-180]!	; 0xffffff4c
    a508:	2d2d2d2d 	stccs	13, cr2, [sp, #-180]!	; 0xffffff4c
    a50c:	2d2d2d2d 	stccs	13, cr2, [sp, #-180]!	; 0xffffff4c
    a510:	2d2d2d2d 	stccs	13, cr2, [sp, #-180]!	; 0xffffff4c
    a514:	2d2d2d2d 	stccs	13, cr2, [sp, #-180]!	; 0xffffff4c
    a518:	2d2d2d2d 	stccs	13, cr2, [sp, #-180]!	; 0xffffff4c
    a51c:	2d2d2d2d 	stccs	13, cr2, [sp, #-180]!	; 0xffffff4c
    a520:	2d2d2d2d 	stccs	13, cr2, [sp, #-180]!	; 0xffffff4c
    a524:	2d2d2d2d 	stccs	13, cr2, [sp, #-180]!	; 0xffffff4c
    a528:	2d2d2d2d 	stccs	13, cr2, [sp, #-180]!	; 0xffffff4c
    a52c:	2d2d2d2d 	stccs	13, cr2, [sp, #-180]!	; 0xffffff4c
    a530:	000a2d2d 	andeq	r2, sl, sp, lsr #26
    a534:	72636e69 	rsbvc	r6, r3, #1680	; 0x690
    a538:	6e656d65 	cdpvs	13, 6, cr6, cr5, cr5, {3}
    a53c:	203e2074 	eorscs	r2, lr, r4, ror r0
    a540:	00000030 	andeq	r0, r0, r0, lsr r0
    a544:	494e4150 	stmdbmi	lr, {r4, r6, r8, lr}^
    a548:	73253a43 			; <UNDEFINED> instruction: 0x73253a43
    a54c:	3a73253a 	bcc	1cd3a3c <__bss_end__+0x1cc8bbc>
    a550:	6e3a6425 	cdpvs	4, 3, cr6, cr10, cr5, {1}
    a554:	6820746f 	stmdavs	r0!, {r0, r1, r2, r3, r5, r6, sl, ip, sp, lr}
    a558:	6c646e61 	stclvs	14, cr6, [r4], #-388	; 0xfffffe7c
    a55c:	0a676e69 	beq	19e5f08 <__bss_end__+0x19db088>
    a560:	0000000a 	andeq	r0, r0, sl
    a564:	494e4150 	stmdbmi	lr, {r4, r6, r8, lr}^
    a568:	73253a43 			; <UNDEFINED> instruction: 0x73253a43
    a56c:	3a73253a 	bcc	1cd3a5c <__bss_end__+0x1cc8bdc>
    a570:	473a6425 	ldrmi	r6, [sl, -r5, lsr #8]!
    a574:	73203a43 			; <UNDEFINED> instruction: 0x73203a43
    a578:	6c756f68 	ldclvs	15, cr6, [r5], #-416	; 0xfffffe60
    a57c:	61682064 	cmnvs	r8, r4, rrx
    a580:	6e206576 	mcrvs	5, 1, r6, cr0, cr6, {3}
    a584:	656c206f 	strbvs	r2, [ip, #-111]!	; 0xffffff91
    a588:	21736b61 	cmncs	r3, r1, ror #22
    a58c:	00000a0a 	andeq	r0, r0, sl, lsl #20
    a590:	43415254 	movtmi	r5, #4692	; 0x1254
    a594:	43473a45 	movtmi	r3, #31301	; 0x7a45
    a598:	5553203a 	ldrbpl	r2, [r3, #-58]	; 0xffffffc6
    a59c:	53454343 	movtpl	r4, #21315	; 0x5343
    a5a0:	6e203a53 			; <UNDEFINED> instruction: 0x6e203a53
    a5a4:	656c206f 	strbvs	r2, [ip, #-111]!	; 0xffffff91
    a5a8:	21736b61 	cmncs	r3, r1, ror #22
    a5ac:	0000000a 	andeq	r0, r0, sl
    a5b0:	494e4150 	stmdbmi	lr, {r4, r6, r8, lr}^
    a5b4:	73253a43 			; <UNDEFINED> instruction: 0x73253a43
    a5b8:	3a73253a 	bcc	1cd3aa8 <__bss_end__+0x1cc8c28>
    a5bc:	473a6425 	ldrmi	r6, [sl, -r5, lsr #8]!
    a5c0:	73203a43 			; <UNDEFINED> instruction: 0x73203a43
    a5c4:	6c756f68 	ldclvs	15, cr6, [r5], #-416	; 0xfffffe60
    a5c8:	61682064 	cmnvs	r8, r4, rrx
    a5cc:	6c206576 	cfstr32vs	mvfx6, [r0], #-472	; 0xfffffe28
    a5d0:	736b6165 	cmnvc	fp, #1073741849	; 0x40000019
    a5d4:	000a0a21 	andeq	r0, sl, r1, lsr #20
    a5d8:	43415254 	movtmi	r5, #4692	; 0x1254
    a5dc:	43473a45 	movtmi	r3, #31301	; 0x7a45
    a5e0:	5553203a 	ldrbpl	r2, [r3, #-58]	; 0xffffffc6
    a5e4:	53454343 	movtpl	r4, #21315	; 0x5343
    a5e8:	66203a53 			; <UNDEFINED> instruction: 0x66203a53
    a5ec:	646e756f 	strbtvs	r7, [lr], #-1391	; 0xfffffa91
    a5f0:	20642520 	rsbcs	r2, r4, r0, lsr #10
    a5f4:	6b61656c 	blvs	1863bac <__bss_end__+0x1858d2c>
    a5f8:	000a2173 	andeq	r2, sl, r3, ror r1
    a5fc:	706d6f63 	rsbvc	r6, sp, r3, ror #30
    a600:	69746361 	ldmdbvs	r4!, {r0, r5, r6, r8, r9, sp, lr}^
    a604:	0a3a676e 	beq	ea43c4 <__bss_end__+0xe99544>
    a608:	00000000 	andeq	r0, r0, r0
    a60c:	463a4347 	ldrtmi	r4, [sl], -r7, asr #6
    a610:	44454552 	strbmi	r4, [r5], #-1362	; 0xfffffaae
    a614:	0a702520 	beq	1c13a9c <__bss_end__+0x1c08c1c>
    a618:	00000000 	andeq	r0, r0, r0
    a61c:	43415254 	movtmi	r5, #4692	; 0x1254
    a620:	47093a45 	strmi	r3, [r9, -r5, asr #20]
    a624:	68433a43 	stmdavs	r3, {r0, r1, r6, r9, fp, ip, sp}^
    a628:	656b6365 	strbvs	r6, [fp, #-869]!	; 0xfffffc9b
    a62c:	64252064 	strtvs	r2, [r5], #-100	; 0xffffff9c
    a630:	6f6c6220 	svcvs	0x006c6220
    a634:	2c736b63 			; <UNDEFINED> instruction: 0x2c736b63
    a638:	65726620 	ldrbvs	r6, [r2, #-1568]!	; 0xfffff9e0
    a63c:	25206465 	strcs	r6, [r0, #-1125]!	; 0xfffffb9b
    a640:	25202c64 	strcs	r2, [r0, #-3172]!	; 0xfffff39c
    a644:	79622064 	stmdbvc	r2!, {r2, r5, r6, sp}^
    a648:	0a736574 	beq	1ce3c20 <__bss_end__+0x1cd8da0>
    a64c:	00000000 	andeq	r0, r0, r0
    a650:	494e4150 	stmdbmi	lr, {r4, r6, r8, lr}^
    a654:	73253a43 			; <UNDEFINED> instruction: 0x73253a43
    a658:	3a73253a 	bcc	1cd3b48 <__bss_end__+0x1cc8cc8>
    a65c:	643a6425 	ldrtvs	r6, [sl], #-1061	; 0xfffffbdb
    a660:	6e206469 	cdpvs	4, 2, cr6, cr0, cr9, {3}
    a664:	6920746f 	stmdbvs	r0!, {r0, r1, r2, r3, r5, r6, sl, ip, sp, lr}
    a668:	656c706d 	strbvs	r7, [ip, #-109]!	; 0xffffff93
    a66c:	746e656d 	strbtvc	r6, [lr], #-1389	; 0xfffffa93
    a670:	6d756420 	cfldrdvs	mvd6, [r5, #-128]!	; 0xffffff80
    a674:	65725f70 	ldrbvs	r5, [r2, #-3952]!	; 0xfffff090
    a678:	0a217367 	beq	86741c <__bss_end__+0x85c59c>
    a67c:	0000000a 	andeq	r0, r0, sl

0000a680 <__FUNCTION__.4045>:
    a680:	6b72616d 	blvs	1ca2c3c <__bss_end__+0x1c97dbc>
    a684:	00000000 	andeq	r0, r0, r0

0000a688 <__FUNCTION__.4032>:
    a688:	6b726273 	blvs	1ca305c <__bss_end__+0x1c981dc>
    a68c:	00000000 	andeq	r0, r0, r0

0000a690 <__FUNCTION__.4088>:
    a690:	63656863 	cmnvs	r5, #6488064	; 0x630000
    a694:	6f6e5f6b 	svcvs	0x006e5f6b
    a698:	61656c5f 	cmnvs	r5, pc, asr ip
    a69c:	0000006b 	andeq	r0, r0, fp, rrx

0000a6a0 <__FUNCTION__.4093>:
    a6a0:	63656863 	cmnvs	r5, #6488064	; 0x630000
    a6a4:	68735f6b 	ldmdavs	r3!, {r0, r1, r3, r5, r6, r8, r9, sl, fp, ip, lr}^
    a6a8:	646c756f 	strbtvs	r7, [ip], #-1391	; 0xfffffa91
    a6ac:	61656c5f 	cmnvs	r5, pc, asr ip
    a6b0:	0000006b 	andeq	r0, r0, fp, rrx

0000a6b4 <__FUNCTION__.4101>:
    a6b4:	65657773 	strbvs	r7, [r5, #-1907]!	; 0xfffff88d
    a6b8:	72665f70 	rsbvc	r5, r6, #112, 30	; 0x1c0
    a6bc:	00006565 	andeq	r6, r0, r5, ror #10

0000a6c0 <__FUNCTION__.4112>:
    a6c0:	6c706d69 	ldclvs	13, cr6, [r0], #-420	; 0xfffffe5c
    a6c4:	6e656d65 	cdpvs	13, 6, cr6, cr5, cr5, {3}
    a6c8:	68745f74 	ldmdavs	r4!, {r2, r4, r5, r6, r8, r9, sl, fp, ip, lr}^
    a6cc:	00007369 	andeq	r7, r0, r9, ror #6
    a6d0:	696c2f2e 	stmdbvs	ip!, {r1, r2, r3, r5, r8, r9, sl, fp, sp}^
    a6d4:	762f6362 	strtvc	r6, [pc], -r2, ror #6
    a6d8:	72702d61 	rsbsvc	r2, r0, #6208	; 0x1840
    a6dc:	6b746e69 	blvs	1d26088 <__bss_end__+0x1d1b208>
    a6e0:	0000632e 	andeq	r6, r0, lr, lsr #6
    a6e4:	33323130 	teqcc	r2, #12
    a6e8:	37363534 			; <UNDEFINED> instruction: 0x37363534
    a6ec:	62613938 	rsbvs	r3, r1, #56, 18	; 0xe0000
    a6f0:	66656463 	strbtvs	r6, [r5], -r3, ror #8
    a6f4:	00000000 	andeq	r0, r0, r0
    a6f8:	00003130 	andeq	r3, r0, r0, lsr r1
    a6fc:	33323130 	teqcc	r2, #12
    a700:	37363534 			; <UNDEFINED> instruction: 0x37363534
    a704:	00003938 	andeq	r3, r0, r8, lsr r9
    a708:	63747570 	cmnvs	r4, #112, 10	; 0x1c000000
    a70c:	0070665f 	rsbseq	r6, r0, pc, asr r6
    a710:	74646977 	strbtvc	r6, [r4], #-2423	; 0xfffff689
    a714:	203c2068 	eorscs	r2, ip, r8, rrx
    a718:	00003233 	andeq	r3, r0, r3, lsr r2
    a71c:	00786c6c 	rsbseq	r6, r8, ip, ror #24
    a720:	253d3078 	ldrcs	r3, [sp, #-120]!	; 0xffffff88
    a724:	00000a78 	andeq	r0, r0, r8, ror sl
    a728:	253d3178 	ldrcs	r3, [sp, #-376]!	; 0xfffffe88
    a72c:	00000a78 	andeq	r0, r0, r8, ror sl
    a730:	00646c6c 	rsbeq	r6, r4, ip, ror #24
    a734:	6e727473 	mrcvs	4, 3, r7, cr2, cr3, {3}
    a738:	28706d63 	ldmdacs	r0!, {r0, r1, r5, r6, r8, sl, fp, sp, lr}^
    a73c:	202c7974 	eorcs	r7, ip, r4, ror r9
    a740:	786c6c22 	stmdavc	ip!, {r1, r5, sl, fp, sp, lr}^
    a744:	33202c22 			; <UNDEFINED> instruction: 0x33202c22
    a748:	3d3d2029 	ldccc	0, cr2, [sp, #-164]!	; 0xffffff5c
    a74c:	7c203020 	stcvc	0, cr3, [r0], #-128	; 0xffffff80
    a750:	7473207c 	ldrbtvc	r2, [r3], #-124	; 0xffffff84
    a754:	6d636e72 	stclvs	14, cr6, [r3, #-456]!	; 0xfffffe38
    a758:	79742870 	ldmdbvc	r4!, {r4, r5, r6, fp, sp}^
    a75c:	6c22202c 	stcvs	0, cr2, [r2], #-176	; 0xffffff50
    a760:	2c22646c 	cfstrscs	mvf6, [r2], #-432	; 0xfffffe50
    a764:	20293320 	eorcs	r3, r9, r0, lsr #6
    a768:	30203d3d 	eorcc	r3, r0, sp, lsr sp
    a76c:	00000000 	andeq	r0, r0, r0
    a770:	494e4150 	stmdbmi	lr, {r4, r6, r8, lr}^
    a774:	73253a43 			; <UNDEFINED> instruction: 0x73253a43
    a778:	3a73253a 	bcc	1cd3c68 <__bss_end__+0x1cc8de8>
    a77c:	693a6425 	ldmdbvs	sl!, {r0, r2, r5, sl, sp, lr}
    a780:	736f706d 	cmnvc	pc, #109, 0	; 0x6d
    a784:	6c626973 			; <UNDEFINED> instruction: 0x6c626973
    a788:	66203a65 	strtvs	r3, [r0], -r5, ror #20
    a78c:	3c3d746d 	cfldrscc	mvf7, [sp], #-436	; 0xfffffe4c
    a790:	0a3e7325 	beq	fa742c <__bss_end__+0xf9c5ac>
    a794:	0000000a 	andeq	r0, r0, sl
    a798:	494e4150 	stmdbmi	lr, {r4, r6, r8, lr}^
    a79c:	73253a43 			; <UNDEFINED> instruction: 0x73253a43
    a7a0:	3a73253a 	bcc	1cd3c90 <__bss_end__+0x1cc8e10>
    a7a4:	663a6425 	ldrtvs	r6, [sl], -r5, lsr #8
    a7a8:	74616f6c 	strbtvc	r6, [r1], #-3948	; 0xfffff094
    a7ac:	746f6e20 	strbtvc	r6, [pc], #-3616	; a7b4 <__FUNCTION__.4112+0xf4>
    a7b0:	616e6520 	cmnvs	lr, r0, lsr #10
    a7b4:	64656c62 	strbtvs	r6, [r5], #-3170	; 0xfffff39e
    a7b8:	0a212121 	beq	852c44 <__bss_end__+0x847dc4>
    a7bc:	00000000 	andeq	r0, r0, r0
    a7c0:	6e697270 	mcrvs	2, 3, r7, cr9, cr0, {3}
    a7c4:	203a6b74 	eorscs	r6, sl, r4, ror fp
    a7c8:	20746f6e 	rsbscs	r6, r4, lr, ror #30
    a7cc:	646e6168 	strbtvs	r6, [lr], #-360	; 0xfffffe98
    a7d0:	676e696c 	strbvs	r6, [lr, -ip, ror #18]!
    a7d4:	65707320 	ldrbvs	r7, [r0, #-800]!	; 0xfffffce0
    a7d8:	69666963 	stmdbvs	r6!, {r0, r1, r5, r6, r8, fp, sp, lr}^
    a7dc:	27207265 	strcs	r7, [r0, -r5, ror #4]!
    a7e0:	20276325 	eorcs	r6, r7, r5, lsr #6
    a7e4:	63736128 	cmnvs	r3, #10
    a7e8:	253d6969 	ldrcs	r6, [sp, #-2409]!	; 0xfffff697
    a7ec:	000a2964 	andeq	r2, sl, r4, ror #18
    a7f0:	494e4150 	stmdbmi	lr, {r4, r6, r8, lr}^
    a7f4:	73253a43 			; <UNDEFINED> instruction: 0x73253a43
    a7f8:	3a73253a 	bcc	1cd3ce8 <__bss_end__+0x1cc8e68>
    a7fc:	703a6425 	eorsvc	r6, sl, r5, lsr #8
    a800:	746e6972 	strbtvc	r6, [lr], #-2418	; 0xfffff68e
    a804:	7265206b 	rsbvc	r2, r5, #107, 0	; 0x6b
    a808:	0a726f72 	beq	1ca65d8 <__bss_end__+0x1c9b758>
    a80c:	0000000a 	andeq	r0, r0, sl

0000a810 <__FUNCTION__.4004>:
    a810:	74696d65 	strbtvc	r6, [r9], #-3429	; 0xfffff29b
    a814:	00000000 	andeq	r0, r0, r0

0000a818 <__FUNCTION__.3952>:
    a818:	5f697072 	svcpl	0x00697072
    a81c:	5f746573 	svcpl	0x00746573
    a820:	7074756f 	rsbsvc	r7, r4, pc, ror #10
    a824:	00007475 	andeq	r7, r0, r5, ror r4

0000a828 <__FUNCTION__.4030>:
    a828:	705f6176 	subsvc	r6, pc, r6, ror r1	; <UNPREDICTABLE>
    a82c:	746e6972 	strbtvc	r6, [lr], #-2418	; 0xfffff68e
    a830:	0000006b 	andeq	r0, r0, fp, rrx
    a834:	454e4f44 	strbmi	r4, [lr, #-3908]	; 0xfffff0bc
    a838:	0a212121 	beq	852cc4 <__bss_end__+0x847e44>
    a83c:	00000000 	andeq	r0, r0, r0
    a840:	6c616d6b 	stclvs	13, cr6, [r1], #-428	; 0xfffffe54
    a844:	2e636f6c 	cdpcs	15, 6, cr6, cr3, cr12, {3}
    a848:	00000063 	andeq	r0, r0, r3, rrx
    a84c:	5f78616d 	svcpl	0x0078616d
    a850:	7479626e 	ldrbtvc	r6, [r9], #-622	; 0xfffffd92
    a854:	00007365 	andeq	r7, r0, r5, ror #6
    a858:	494e4150 	stmdbmi	lr, {r4, r6, r8, lr}^
    a85c:	73253a43 			; <UNDEFINED> instruction: 0x73253a43
    a860:	3a73253a 	bcc	1cd3d50 <__bss_end__+0x1cc8ed0>
    a864:	733a6425 	teqvc	sl, #620756992	; 0x25000000
    a868:	69747465 	ldmdbvs	r4!, {r0, r2, r5, r6, sl, ip, sp, lr}^
    a86c:	6820676e 	stmdavs	r0!, {r1, r2, r3, r5, r6, r8, r9, sl, sp, lr}
    a870:	20706165 	rsbscs	r6, r0, r5, ror #2
    a874:	25206f74 	strcs	r6, [r0, #-3956]!	; 0xfffff08c
    a878:	77203a70 			; <UNDEFINED> instruction: 0x77203a70
    a87c:	206c6c69 	rsbcs	r6, ip, r9, ror #24
    a880:	20746968 	rsbscs	r6, r4, r8, ror #18
    a884:	20656874 	rsbcs	r6, r5, r4, ror r8
    a888:	20646c6f 	rsbcs	r6, r4, pc, ror #24
    a88c:	70616568 	rsbvc	r6, r1, r8, ror #10
    a890:	20746120 	rsbscs	r6, r4, r0, lsr #2
    a894:	0a0a7025 	beq	2a6930 <__bss_end__+0x29bab0>
    a898:	00000000 	andeq	r0, r0, r0
    a89c:	494e4150 	stmdbmi	lr, {r4, r6, r8, lr}^
    a8a0:	73253a43 			; <UNDEFINED> instruction: 0x73253a43
    a8a4:	3a73253a 	bcc	1cd3d94 <__bss_end__+0x1cc8f14>
    a8a8:	613a6425 	teqvs	sl, r5, lsr #8
    a8ac:	6165726c 	cmnvs	r5, ip, ror #4
    a8b0:	63207964 			; <UNDEFINED> instruction: 0x63207964
    a8b4:	656c6c61 	strbvs	r6, [ip, #-3169]!	; 0xfffff39f
    a8b8:	6d6b2064 	stclvs	0, cr2, [fp, #-400]!	; 0xfffffe70
    a8bc:	6f6c6c61 	svcvs	0x006c6c61
    a8c0:	6e695f63 	cdpvs	15, 6, cr5, cr9, cr3, {3}
    a8c4:	0a0a7469 	beq	2a7a70 <__bss_end__+0x29cbf0>
    a8c8:	00000000 	andeq	r0, r0, r0
    a8cc:	494e4150 	stmdbmi	lr, {r4, r6, r8, lr}^
    a8d0:	73253a43 			; <UNDEFINED> instruction: 0x73253a43
    a8d4:	3a73253a 	bcc	1cd3dc4 <__bss_end__+0x1cc8f44>
    a8d8:	253a6425 	ldrcs	r6, [sl, #-1061]!	; 0xfffffbdb
    a8dc:	626e2064 	rsbvs	r2, lr, #100, 0	; 0x64
    a8e0:	73657479 	cmnvc	r5, #2030043136	; 0x79000000
    a8e4:	63786520 	cmnvs	r8, #32, 10	; 0x8000000
    a8e8:	65646565 	strbvs	r6, [r4, #-1381]!	; 0xfffffa9b
    a8ec:	69732064 	ldmdbvs	r3!, {r2, r5, r6, sp}^
    a8f0:	6f20657a 	svcvs	0x0020657a
    a8f4:	65682066 	strbvs	r2, [r8, #-102]!	; 0xffffff9a
    a8f8:	62207061 	eorvs	r7, r0, #97, 0	; 0x61
    a8fc:	75252079 	strvc	r2, [r5, #-121]!	; 0xffffff87
    a900:	79626e20 	stmdbvc	r2!, {r5, r9, sl, fp, sp, lr}^
    a904:	0a736574 	beq	1ce3edc <__bss_end__+0x1cd905c>
    a908:	0000000a 	andeq	r0, r0, sl
    a90c:	4f525245 	svcmi	0x00525245
    a910:	73253a52 			; <UNDEFINED> instruction: 0x73253a52
    a914:	3a73253a 	bcc	1cd3e04 <__bss_end__+0x1cc8f84>
    a918:	203a6425 	eorscs	r6, sl, r5, lsr #8
    a91c:	534c4146 	movtpl	r4, #49478	; 0xc146
    a920:	253c2845 	ldrcs	r2, [ip, #-2117]!	; 0xfffff7bb
    a924:	3a293e73 	bcc	a5a2f8 <__bss_end__+0xa4f478>
    a928:	73736120 	cmnvc	r3, #8
    a92c:	6e696d75 	mcrvs	13, 3, r6, cr9, cr5, {3}
    a930:	6f702067 	svcvs	0x00702067
    a934:	20726577 	rsbscs	r6, r2, r7, ror r5
    a938:	7420666f 	strtvc	r6, [r0], #-1647	; 0xfffff991
    a93c:	000a6f77 	andeq	r6, sl, r7, ror pc
    a940:	705f7369 	subsvc	r7, pc, r9, ror #6
    a944:	2832776f 	ldmdacs	r2!, {r0, r1, r2, r3, r5, r6, r8, r9, sl, ip, sp, lr}
    a948:	67696c61 	strbvs	r6, [r9, -r1, ror #24]!
    a94c:	6e656d6e 	cdpvs	13, 6, cr6, cr5, cr14, {3}
    a950:	00002974 	andeq	r2, r0, r4, ror r9
    a954:	705f7369 	subsvc	r7, pc, r9, ror #6
    a958:	2832776f 	ldmdacs	r2!, {r0, r1, r2, r3, r5, r6, r8, r9, sl, ip, sp, lr}
    a95c:	0000296e 	andeq	r2, r0, lr, ror #18
    a960:	4f525245 	svcmi	0x00525245
    a964:	73253a52 			; <UNDEFINED> instruction: 0x73253a52
    a968:	3a73253a 	bcc	1cd3e58 <__bss_end__+0x1cc8fd8>
    a96c:	203a6425 	eorscs	r6, sl, r5, lsr #8
    a970:	534c4146 	movtpl	r4, #49478	; 0xc146
    a974:	253c2845 	ldrcs	r2, [ip, #-2117]!	; 0xfffff7bb
    a978:	3a293e73 	bcc	a5a34c <__bss_end__+0xa4f4cc>
    a97c:	706d6920 	rsbvc	r6, sp, r0, lsr #18
    a980:	6973736f 	ldmdbvs	r3!, {r0, r1, r2, r3, r5, r6, r8, r9, ip, sp, lr}^
    a984:	0a656c62 	beq	1965b14 <__bss_end__+0x195ac94>
    a988:	00000000 	andeq	r0, r0, r0
    a98c:	615f7369 	cmpvs	pc, r9, ror #6
    a990:	6e67696c 	vnmulvs.f16	s13, s14, s25	; <UNPREDICTABLE>
    a994:	68286465 	stmdavs	r8!, {r0, r2, r5, r6, sl, sp, lr}
    a998:	6c61202c 	stclvs	0, cr2, [r1], #-176	; 0xffffff50
    a99c:	6d6e6769 	stclvs	7, cr6, [lr, #-420]!	; 0xfffffe5c
    a9a0:	29746e65 	ldmdbcs	r4!, {r0, r2, r5, r6, r9, sl, fp, sp, lr}^
    a9a4:	00000000 	andeq	r0, r0, r0
    a9a8:	494e4150 	stmdbmi	lr, {r4, r6, r8, lr}^
    a9ac:	73253a43 			; <UNDEFINED> instruction: 0x73253a43
    a9b0:	3a73253a 	bcc	1cd3ea0 <__bss_end__+0x1cc9020>
    a9b4:	703a6425 	eorsvc	r6, sl, r5, lsr #8
    a9b8:	746e696f 	strbtvc	r6, [lr], #-2415	; 0xfffff691
    a9bc:	25207265 	strcs	r7, [r0, #-613]!	; 0xfffffd9b
    a9c0:	61772070 	cmnvs	r7, r0, ror r0
    a9c4:	656e2073 	strbvs	r2, [lr, #-115]!	; 0xffffff8d
    a9c8:	20726576 	rsbscs	r6, r2, r6, ror r5
    a9cc:	6f6c6c61 	svcvs	0x006c6c61
    a9d0:	65746163 	ldrbvs	r6, [r4, #-355]!	; 0xfffffe9d
    a9d4:	000a0a64 	andeq	r0, sl, r4, ror #20

0000a9d8 <__FUNCTION__.7>:
    a9d8:	6c616d6b 	stclvs	13, cr6, [r1], #-428	; 0xfffffe54
    a9dc:	5f636f6c 	svcpl	0x00636f6c
    a9e0:	74696e69 	strbtvc	r6, [r9], #-3689	; 0xfffff197
    a9e4:	7465735f 	strbtvc	r7, [r5], #-863	; 0xfffffca1
    a9e8:	6174735f 	cmnvs	r4, pc, asr r3
    a9ec:	00007472 	andeq	r7, r0, r2, ror r4

0000a9f0 <__FUNCTION__.5>:
    a9f0:	6c616d6b 	stclvs	13, cr6, [r1], #-428	; 0xfffffe54
    a9f4:	5f636f6c 	svcpl	0x00636f6c
    a9f8:	74696e69 	strbtvc	r6, [r9], #-3689	; 0xfffff197
    a9fc:	00000000 	andeq	r0, r0, r0

0000aa00 <__FUNCTION__.4>:
    aa00:	6c616d6b 	stclvs	13, cr6, [r1], #-428	; 0xfffffe54
    aa04:	5f636f6c 	svcpl	0x00636f6c
    aa08:	7a746f6e 	bvc	1d267c8 <__bss_end__+0x1d1b948>
    aa0c:	006f7265 	rsbeq	r7, pc, r5, ror #4

0000aa10 <__FUNCTION__.2>:
    aa10:	6c616d6b 	stclvs	13, cr6, [r1], #-428	; 0xfffffe54
    aa14:	00636f6c 	rsbeq	r6, r3, ip, ror #30

0000aa18 <__FUNCTION__.1>:
    aa18:	6c616d6b 	stclvs	13, cr6, [r1], #-428	; 0xfffffe54
    aa1c:	5f636f6c 	svcpl	0x00636f6c
    aa20:	67696c61 	strbvs	r6, [r9, -r1, ror #24]!
    aa24:	0064656e 	rsbeq	r6, r4, lr, ror #10

0000aa28 <__FUNCTION__.3>:
    aa28:	6e756f72 	mrcvs	15, 3, r6, cr5, cr2, {3}
    aa2c:	00707564 	rsbseq	r7, r0, r4, ror #10

0000aa30 <__FUNCTION__.0>:
    aa30:	6572666b 	ldrbvs	r6, [r2, #-1643]!	; 0xfffff995
    aa34:	6f705f65 	svcvs	0x00705f65
    aa38:	Address 0x000000000000aa38 is out of bounds.


Disassembly of section .data:

0000aa3c <putk>:
    aa3c:	00008c28 	andeq	r8, r0, r8, lsr #24

0000aa40 <heap>:
    aa40:	0000ae80 	andeq	sl, r0, r0, lsl #29

0000aa44 <heap_start>:
    aa44:	0000ae80 	andeq	sl, r0, r0, lsl #29

0000aa48 <heap_end>:
    aa48:	0020ae80 	eoreq	sl, r0, r0, lsl #29

0000aa4c <rpi_putchar>:
    aa4c:	0000a01c 	andeq	sl, r0, ip, lsl r0

Disassembly of section .bss:

0000aa50 <__bss_start__>:
	...

0000aa58 <freep>:
	...

0000aa60 <base>:
	...

0000aa68 <heap_start>:
    aa68:	00000000 	andeq	r0, r0, r0

0000aa6c <heap_end>:
    aa6c:	00000000 	andeq	r0, r0, r0

0000aa70 <init_p.4031>:
    aa70:	00000000 	andeq	r0, r0, r0

0000aa74 <buf.3944>:
	...

0000ae74 <init_p.6>:
    ae74:	00000000 	andeq	r0, r0, r0

0000ae78 <global_p>:
	...

Disassembly of section .ARM.attributes:

00000000 <.ARM.attributes>:
   0:	00002a41 	andeq	r2, r0, r1, asr #20
   4:	61656100 	cmnvs	r5, r0, lsl #2
   8:	01006962 	tsteq	r0, r2, ror #18
   c:	00000020 	andeq	r0, r0, r0, lsr #32
  10:	4b5a3605 	blmi	168d82c <__bss_end__+0x16829ac>
  14:	08070600 	stmdaeq	r7, {r9, sl}
  18:	12010901 	andne	r0, r1, #16384	; 0x4000
  1c:	15011404 	strne	r1, [r1, #-1028]	; 0xfffffbfc
  20:	18031701 	stmdane	r3, {r0, r8, r9, sl, ip}
  24:	22011a01 	andcs	r1, r1, #4096	; 0x1000
  28:	Address 0x0000000000000028 is out of bounds.


Disassembly of section .comment:

00000000 <.comment>:
   0:	3a434347 	bcc	10d0d24 <__bss_end__+0x10c5ea4>
   4:	4e472820 	cdpmi	8, 4, cr2, cr7, cr0, {1}
   8:	6f542055 	svcvs	0x00542055
   c:	20736c6f 	rsbscs	r6, r3, pc, ror #24
  10:	20726f66 	rsbscs	r6, r2, r6, ror #30
  14:	206d7241 	rsbcs	r7, sp, r1, asr #4
  18:	65626d45 	strbvs	r6, [r2, #-3397]!	; 0xfffff2bb
  1c:	64656464 	strbtvs	r6, [r5], #-1124	; 0xfffffb9c
  20:	6f725020 	svcvs	0x00725020
  24:	73736563 	cmnvc	r3, #415236096	; 0x18c00000
  28:	2073726f 	rsbscs	r7, r3, pc, ror #4
  2c:	30322d39 	eorscc	r2, r2, r9, lsr sp
  30:	712d3931 			; <UNDEFINED> instruction: 0x712d3931
  34:	616d2d34 	cmnvs	sp, r4, lsr sp
  38:	29726f6a 	ldmdbcs	r2!, {r1, r3, r5, r6, r8, r9, sl, fp, sp, lr}^
  3c:	322e3920 	eorcc	r3, lr, #32, 18	; 0x80000
  40:	3220312e 	eorcc	r3, r0, #-2147483637	; 0x8000000b
  44:	31393130 	teqcc	r9, r0, lsr r1
  48:	20353230 	eorscs	r3, r5, r0, lsr r2
  4c:	6c657228 	sfmvs	f7, 2, [r5], #-160	; 0xffffff60
  50:	65736165 	ldrbvs	r6, [r3, #-357]!	; 0xfffffe9b
  54:	415b2029 	cmpmi	fp, r9, lsr #32
  58:	612f4d52 			; <UNDEFINED> instruction: 0x612f4d52
  5c:	392d6d72 	pushcc	{r1, r4, r5, r6, r8, sl, fp, sp, lr}
  60:	6172622d 	cmnvs	r2, sp, lsr #4
  64:	2068636e 	rsbcs	r6, r8, lr, ror #6
  68:	69766572 	ldmdbvs	r6!, {r1, r4, r5, r6, r8, sl, sp, lr}^
  6c:	6e6f6973 			; <UNDEFINED> instruction: 0x6e6f6973
  70:	37373220 	ldrcc	r3, [r7, -r0, lsr #4]!
  74:	5d393935 			; <UNDEFINED> instruction: 0x5d393935
  78:	43434700 	movtmi	r4, #14080	; 0x3700
  7c:	4728203a 			; <UNDEFINED> instruction: 0x4728203a
  80:	4120554e 			; <UNDEFINED> instruction: 0x4120554e
  84:	45206d72 	strmi	r6, [r0, #-3442]!	; 0xfffff28e
  88:	6465626d 	strbtvs	r6, [r5], #-621	; 0xfffffd93
  8c:	20646564 	rsbcs	r6, r4, r4, ror #10
  90:	6c6f6f54 	stclvs	15, cr6, [pc], #-336	; ffffff48 <__bss_end__+0xffff50c8>
  94:	69616863 	stmdbvs	r1!, {r0, r1, r5, r6, fp, sp, lr}^
  98:	3031206e 	eorscc	r2, r1, lr, rrx
  9c:	322d332e 	eorcc	r3, sp, #-1207959552	; 0xb8000000
  a0:	2e313230 	mrccs	2, 1, r3, cr1, cr0, {1}
  a4:	20293031 	eorcs	r3, r9, r1, lsr r0
  a8:	332e3031 			; <UNDEFINED> instruction: 0x332e3031
  ac:	3220312e 	eorcc	r3, r0, #-2147483637	; 0x8000000b
  b0:	30313230 	eorscc	r3, r1, r0, lsr r2
  b4:	20343238 	eorscs	r3, r4, r8, lsr r2
  b8:	6c657228 	sfmvs	f7, 2, [r5], #-160	; 0xffffff60
  bc:	65736165 	ldrbvs	r6, [r3, #-357]!	; 0xfffffe9b
  c0:	Address 0x00000000000000c0 is out of bounds.


Disassembly of section .debug_info:

00000000 <.debug_info>:
       0:	000004c7 	andeq	r0, r0, r7, asr #9
       4:	00000004 	andeq	r0, r0, r4
       8:	01040000 	mrseq	r0, (UNDEF: 4)
       c:	000001a8 	andeq	r0, r0, r8, lsr #3
      10:	0000080c 	andeq	r0, r0, ip, lsl #16
      14:	00010300 	andeq	r0, r1, r0, lsl #6
      18:	00803800 	addeq	r3, r0, r0, lsl #16
      1c:	00011c00 	andeq	r1, r1, r0, lsl #24
      20:	00000000 	andeq	r0, r0, r0
      24:	05040200 	streq	r0, [r4, #-512]	; 0xfffffe00
      28:	00746e69 	rsbseq	r6, r4, r9, ror #28
      2c:	54070403 	strpl	r0, [r7], #-1027	; 0xfffffbfd
      30:	03000001 	movweq	r0, #1
      34:	00ec0601 	rsceq	r0, ip, r1, lsl #12
      38:	02030000 	andeq	r0, r3, #0, 0
      3c:	00004905 	andeq	r4, r0, r5, lsl #18
      40:	05040300 	streq	r0, [r4, #-768]	; 0xfffffd00
      44:	0000009f 	muleq	r0, pc, r0	; <UNPREDICTABLE>
      48:	9a050803 	bls	14205c <__bss_end__+0x1371dc>
      4c:	04000000 	streq	r0, [r0], #-0
      50:	0000008d 	andeq	r0, r0, sp, lsl #1
      54:	5b182e04 	blpl	60b86c <__bss_end__+0x6009ec>
      58:	03000000 	movweq	r0, #0
      5c:	00ea0801 	rsceq	r0, sl, r1, lsl #16
      60:	6a040000 	bvs	100068 <__bss_end__+0xf51e8>
      64:	04000001 	streq	r0, [r0], #-1
      68:	006e1931 	rsbeq	r1, lr, r1, lsr r9
      6c:	02030000 	andeq	r0, r3, #0, 0
      70:	00017b07 	andeq	r7, r1, r7, lsl #22
      74:	01610400 	cmneq	r1, r0, lsl #8
      78:	34040000 	strcc	r0, [r4], #-0
      7c:	00008119 	andeq	r8, r0, r9, lsl r1
      80:	07040300 	streq	r0, [r4, -r0, lsl #6]
      84:	0000014f 	andeq	r0, r0, pc, asr #2
      88:	4a070803 	bmi	1c209c <__bss_end__+0x1b721c>
      8c:	05000001 	streq	r0, [r0, #-1]
      90:	00000025 	andeq	r0, r0, r5, lsr #32
      94:	0000009e 	muleq	r0, lr, r0
      98:	00002506 	andeq	r2, r0, r6, lsl #10
      9c:	53070000 	movwpl	r0, #28672	; 0x7000
      a0:	05000000 	streq	r0, [r0, #-0]
      a4:	00aa0e1c 	adceq	r0, sl, ip, lsl lr
      a8:	04080000 	streq	r0, [r8], #-0
      ac:	0000008f 	andeq	r0, r0, pc, lsl #1
      b0:	00002505 	andeq	r2, r0, r5, lsl #10
      b4:	0000bf00 	andeq	fp, r0, r0, lsl #30
      b8:	00bf0600 	adcseq	r0, pc, r0, lsl #12
      bc:	08000000 	stmdaeq	r0, {}	; <UNPREDICTABLE>
      c0:	0000cc04 	andeq	ip, r0, r4, lsl #24
      c4:	08010300 	stmdaeq	r1, {r8, r9}
      c8:	000000f3 	strdeq	r0, [r0], -r3
      cc:	0000c509 	andeq	ip, r0, r9, lsl #10
      d0:	05270700 	streq	r0, [r7, #-1792]!	; 0xfffff900
      d4:	21050000 	mrscs	r0, (UNDEF: 5)
      d8:	0000dd0e 	andeq	sp, r0, lr, lsl #26
      dc:	b0040800 	andlt	r0, r4, r0, lsl #16
      e0:	0a000000 	beq	e8 <__code_start__-0x7f18>
      e4:	0904020c 	stmdbeq	r4, {r2, r3, r9}
      e8:	00000114 	andeq	r0, r0, r4, lsl r1
      ec:	00006b0b 	andeq	r6, r0, fp, lsl #22
      f0:	11060200 	mrsne	r0, LR_usr
      f4:	000000bf 	strheq	r0, [r0], -pc	; <UNPREDICTABLE>
      f8:	00950b00 	addseq	r0, r5, r0, lsl #22
      fc:	07020000 	streq	r0, [r2, -r0]
     100:	0000bf11 	andeq	fp, r0, r1, lsl pc
     104:	430b0400 	movwmi	r0, #46080	; 0xb400
     108:	02000001 	andeq	r0, r0, #1, 0
     10c:	002c0e08 	eoreq	r0, ip, r8, lsl #28
     110:	00080000 	andeq	r0, r8, r0
     114:	00028404 	andeq	r8, r2, r4, lsl #8
     118:	03090200 	movweq	r0, #37376	; 0x9200
     11c:	000000e3 	andeq	r0, r0, r3, ror #1
     120:	5b01070c 	blpl	41d58 <__bss_end__+0x36ed8>
     124:	03000000 	movweq	r0, #0
     128:	013b060a 	teqeq	fp, sl, lsl #12
     12c:	700d0000 	andvc	r0, sp, r0
     130:	80000000 	andhi	r0, r0, r0
     134:	00005f0d 	andeq	r5, r0, sp, lsl #30
     138:	0e00fe00 	cdpeq	14, 0, cr15, cr0, cr0, {0}
     13c:	000000b2 	strheq	r0, [r0], -r2
     140:	100d03a8 	andne	r0, sp, r8, lsr #7
     144:	000001be 			; <UNDEFINED> instruction: 0x000001be
     148:	00027f0b 	andeq	r7, r2, fp, lsl #30
     14c:	140e0300 	strne	r0, [lr], #-768	; 0xfffffd00
     150:	000001be 			; <UNDEFINED> instruction: 0x000001be
     154:	02600b00 	rsbeq	r0, r0, #0, 22
     158:	0f030000 	svceq	0x00030000
     15c:	0000750e 	andeq	r7, r0, lr, lsl #10
     160:	370b0400 	strcc	r0, [fp, -r0, lsl #8]
     164:	03000000 	movweq	r0, #0
     168:	00750e10 	rsbseq	r0, r5, r0, lsl lr
     16c:	0b080000 	bleq	200174 <__bss_end__+0x1f52f4>
     170:	0000002e 	andeq	r0, r0, lr, lsr #32
     174:	750e1403 	strvc	r1, [lr, #-1027]	; 0xfffffbfd
     178:	0c000000 	stceq	0, cr0, [r0], {-0}
     17c:	0000c60b 	andeq	ip, r0, fp, lsl #12
     180:	0f160300 	svceq	0x00160300
     184:	00000114 	andeq	r0, r0, r4, lsl r1
     188:	00f80b10 	rscseq	r0, r8, r0, lsl fp
     18c:	19030000 	stmdbne	r3, {}	; <UNPREDICTABLE>
     190:	0000750e 	andeq	r7, r0, lr, lsl #10
     194:	3d0b1c00 	stccc	12, cr1, [fp, #-0]
     198:	03000000 	movweq	r0, #0
     19c:	00750e1a 	rsbseq	r0, r5, sl, lsl lr
     1a0:	0b200000 	bleq	8001a8 <__bss_end__+0x7f5328>
     1a4:	000003cc 	andeq	r0, r0, ip, asr #7
     1a8:	620e1c03 	andvs	r1, lr, #768	; 0x300
     1ac:	24000000 	strcs	r0, [r0], #-0
     1b0:	317a720f 	cmncc	sl, pc, lsl #4
     1b4:	0d1e0300 	ldceq	3, cr0, [lr, #-0]
     1b8:	000001c4 	andeq	r0, r0, r4, asr #3
     1bc:	04080026 	streq	r0, [r8], #-38	; 0xffffffda
     1c0:	0000013b 	andeq	r0, r0, fp, lsr r1
     1c4:	00004f10 	andeq	r4, r0, r0, lsl pc
     1c8:	0001d400 	andeq	sp, r1, r0, lsl #8
     1cc:	002c1100 	eoreq	r1, ip, r0, lsl #2
     1d0:	007f0000 	rsbseq	r0, pc, r0
     1d4:	00002804 	andeq	r2, r0, r4, lsl #16
     1d8:	031f0300 	tsteq	pc, #0, 6
     1dc:	0000013b 	andeq	r0, r0, fp, lsr r1
     1e0:	dd070412 	cfstrsle	mvf0, [r7, #-72]	; 0xffffffb8
     1e4:	03000000 	movweq	r0, #0
     1e8:	002c11a5 	eoreq	r1, ip, r5, lsr #3
     1ec:	93130000 	tstls	r3, #0, 0
     1f0:	01000001 	tsteq	r0, r1
     1f4:	02000715 	andeq	r0, r0, #5505024	; 0x540000
     1f8:	03050000 	movweq	r0, #20480	; 0x5000
     1fc:	0000ae78 	andeq	sl, r0, r8, ror lr
     200:	00c50408 	sbceq	r0, r5, r8, lsl #8
     204:	73140000 	tstvc	r4, #0, 0
     208:	01000001 	tsteq	r0, r1
     20c:	8128062e 			; <UNDEFINED> instruction: 0x8128062e
     210:	002c0000 	eoreq	r0, ip, r0
     214:	9c010000 	stcls	0, cr0, [r1], {-0}
     218:	00000296 	muleq	r0, r6, r2
     21c:	01007015 	tsteq	r0, r5, lsl r0
     220:	01e00b33 	mvneq	r0, r3, lsr fp
     224:	00040000 	andeq	r0, r4, r0
     228:	00000000 	andeq	r0, r0, r0
     22c:	23160000 	tstcs	r6, #0, 0
     230:	40000004 	andmi	r0, r0, r4
     234:	02000081 	andeq	r0, r0, #129, 0	; 0x81
     238:	00008140 	andeq	r8, r0, r0, asr #2
     23c:	00000000 	andeq	r0, r0, r0
     240:	62053401 	andvs	r3, r5, #16777216	; 0x1000000
     244:	17000002 	strne	r0, [r0, -r2]
     248:	00000434 	andeq	r0, r0, r4, lsr r4
     24c:	00000024 	andeq	r0, r0, r4, lsr #32
     250:	00000022 	andeq	r0, r0, r2, lsr #32
     254:	00043e18 	andeq	r3, r4, r8, lsl lr
     258:	00003b00 	andeq	r3, r0, r0, lsl #22
     25c:	00003700 	andeq	r3, r0, r0, lsl #14
     260:	34190000 	ldrcc	r0, [r9], #-0
     264:	85000081 	strhi	r0, [r0, #-129]	; 0xffffff7f
     268:	79000004 	stmdbvc	r0, {r2}
     26c:	1a000002 	bne	27c <__code_start__-0x7d84>
     270:	03055001 	movweq	r5, #20481	; 0x5001
     274:	0000a1e0 	andeq	sl, r0, r0, ror #3
     278:	81381b00 	teqhi	r8, r0, lsl #22
     27c:	02960000 	addseq	r0, r6, #0, 0
     280:	4c1c0000 	ldcmi	0, cr0, [ip], {-0}
     284:	85000081 	strhi	r0, [r0, #-129]	; 0xffffff7f
     288:	1a000004 	bne	2a0 <__code_start__-0x7d60>
     28c:	03055001 	movweq	r5, #20481	; 0x5001
     290:	0000a228 	andeq	sl, r0, r8, lsr #4
     294:	8e1d0000 	cdphi	0, 1, cr0, cr13, cr0, {0}
     298:	01000001 	tsteq	r0, r1
     29c:	01e00816 	mvneq	r0, r6, lsl r8
     2a0:	80380000 	eorshi	r0, r8, r0
     2a4:	00f00000 	rscseq	r0, r0, r0
     2a8:	9c010000 	stcls	0, cr0, [r1], {-0}
     2ac:	0000040e 	andeq	r0, r0, lr, lsl #8
     2b0:	00007f07 	andeq	r7, r0, r7, lsl #30
     2b4:	0e170100 	mufeqs	f0, f7, f0
     2b8:	000000c5 	andeq	r0, r0, r5, asr #1
     2bc:	00019c07 	andeq	r9, r1, r7, lsl #24
     2c0:	1d170100 	ldfnes	f0, [r7, #-0]
     2c4:	000000c5 	andeq	r0, r0, r5, asr #1
     2c8:	0000b91e 	andeq	fp, r0, lr, lsl r9
     2cc:	00041e00 	andeq	r1, r4, r0, lsl #28
     2d0:	50030500 	andpl	r0, r3, r0, lsl #10
     2d4:	150000a2 	strne	r0, [r0, #-162]	; 0xffffff5e
     2d8:	25010070 	strcs	r0, [r1, #-112]	; 0xffffff90
     2dc:	0001e00b 	andeq	lr, r1, fp
     2e0:	00005d00 	andeq	r5, r0, r0, lsl #26
     2e4:	00005900 	andeq	r5, r0, r0, lsl #18
     2e8:	044f1600 	strbeq	r1, [pc], #-1536	; 2f0 <__code_start__-0x7d10>
     2ec:	80780000 	rsbshi	r0, r8, r0
     2f0:	78030000 	stmdavc	r3, {}	; <UNPREDICTABLE>
     2f4:	18000080 	stmdane	r0, {r7}
     2f8:	01000000 	mrseq	r0, (UNDEF: 0)
     2fc:	032a1022 			; <UNDEFINED> instruction: 0x032a1022
     300:	78170000 	ldmdavc	r7, {}	; <UNPREDICTABLE>
     304:	7d000004 	stcvc	0, cr0, [r0, #-16]
     308:	7b000000 	blvc	310 <__code_start__-0x7cf0>
     30c:	17000000 	strne	r0, [r0, -r0]
     310:	0000046c 	andeq	r0, r0, ip, ror #8
     314:	00000094 	muleq	r0, r4, r0
     318:	00000092 	muleq	r0, r2, r0
     31c:	00046017 	andeq	r6, r4, r7, lsl r0
     320:	0000ae00 	andeq	sl, r0, r0, lsl #28
     324:	0000ac00 	andeq	sl, r0, r0, lsl #24
     328:	4f160000 	svcmi	0x00160000
     32c:	b0000004 	andlt	r0, r0, r4
     330:	01000080 	smlabbeq	r0, r0, r0, r0
     334:	000080b0 	strheq	r8, [r0], -r0
     338:	00000010 	andeq	r0, r0, r0, lsl r0
     33c:	6b0e2501 	blvs	389748 <__bss_end__+0x37e8c8>
     340:	17000003 	strne	r0, [r0, -r3]
     344:	00000478 	andeq	r0, r0, r8, ror r4
     348:	000000c8 	andeq	r0, r0, r8, asr #1
     34c:	000000c6 	andeq	r0, r0, r6, asr #1
     350:	00046c17 	andeq	r6, r4, r7, lsl ip
     354:	0000df00 	andeq	sp, r0, r0, lsl #30
     358:	0000dd00 	andeq	sp, r0, r0, lsl #26
     35c:	04601700 	strbteq	r1, [r0], #-1792	; 0xfffff900
     360:	00f90000 	rscseq	r0, r9, r0
     364:	00f70000 	rscseq	r0, r7, r0
     368:	19000000 	stmdbne	r0, {}	; <UNPREDICTABLE>
     36c:	00008060 	andeq	r8, r0, r0, rrx
     370:	00000485 	andeq	r0, r0, r5, lsl #9
     374:	00000394 	muleq	r0, r4, r3
     378:	0550011a 	ldrbeq	r0, [r0, #-282]	; 0xfffffee6
     37c:	00a13003 	adceq	r3, r1, r3
     380:	51011a00 	tstpl	r1, r0, lsl #20
     384:	1a007402 	bne	1d394 <__bss_end__+0x12514>
     388:	75025201 	strvc	r5, [r2, #-513]	; 0xfffffdff
     38c:	53011a00 	movwpl	r1, #6656	; 0x1a00
     390:	00007602 	andeq	r7, r0, r2, lsl #12
     394:	0080a019 	addeq	sl, r0, r9, lsl r0
     398:	00049a00 	andeq	r9, r4, r0, lsl #20
     39c:	0003a700 	andeq	sl, r3, r0, lsl #14
     3a0:	50011a00 	andpl	r1, r1, r0, lsl #20
     3a4:	19003401 	stmdbne	r0, {r0, sl, ip, sp}
     3a8:	000080b0 	strheq	r8, [r0], -r0
     3ac:	000004a6 	andeq	r0, r0, r6, lsr #9
     3b0:	000003bf 			; <UNDEFINED> instruction: 0x000003bf
     3b4:	0151011a 	cmpeq	r1, sl, lsl r1
     3b8:	52011a30 	andpl	r1, r1, #48, 20	; 0x30000
     3bc:	19003401 	stmdbne	r0, {r0, sl, ip, sp}
     3c0:	000080d0 	ldrdeq	r8, [r0], -r0
     3c4:	0000049a 	muleq	r0, sl, r4
     3c8:	000003d2 	ldrdeq	r0, [r0], -r2
     3cc:	0150011a 	cmpeq	r0, sl, lsl r1
     3d0:	d81b0034 	ldmdale	fp, {r2, r4, r5}
     3d4:	b2000080 	andlt	r0, r0, #128, 0	; 0x80
     3d8:	19000004 	stmdbne	r0, {r2}
     3dc:	00008100 	andeq	r8, r0, r0, lsl #2
     3e0:	00000485 	andeq	r0, r0, r5, lsl #9
     3e4:	00000404 	andeq	r0, r0, r4, lsl #8
     3e8:	0550011a 	ldrbeq	r0, [r0, #-282]	; 0xfffffee6
     3ec:	00a17803 	adceq	r7, r1, r3, lsl #16
     3f0:	51011a00 	tstpl	r1, r0, lsl #20
     3f4:	a1580305 	cmpge	r8, r5, lsl #6
     3f8:	011a0000 	tsteq	sl, r0
     3fc:	50030552 	andpl	r0, r3, r2, asr r5
     400:	000000a2 	andeq	r0, r0, r2, lsr #1
     404:	0081041b 	addeq	r0, r1, fp, lsl r4
     408:	0004be00 	andeq	fp, r4, r0, lsl #28
     40c:	cc100000 	ldcgt	0, cr0, [r0], {-0}
     410:	1e000000 	cdpne	0, 0, cr0, cr0, cr0, {0}
     414:	11000004 	tstne	r0, r4
     418:	0000002c 	andeq	r0, r0, ip, lsr #32
     41c:	0e090004 	cdpeq	0, 0, cr0, cr9, cr4, {0}
     420:	1f000004 	svcne	0x00000004
     424:	000000a8 	andeq	r0, r0, r8, lsr #1
     428:	2c112203 	lfmcs	f2, 4, [r1], {3}
     42c:	01000000 	mrseq	r0, (UNDEF: 0)
     430:	00000449 	andeq	r0, r0, r9, asr #8
     434:	03007020 	movweq	r7, #32
     438:	01e02122 	mvneq	r2, r2, lsr #2
     43c:	68210000 	stmdavs	r1!, {}	; <UNPREDICTABLE>
     440:	0c230300 	stceq	3, cr0, [r3], #-0
     444:	00000449 	andeq	r0, r0, r9, asr #8
     448:	d4040800 	strle	r0, [r4], #-2048	; 0xfffff800
     44c:	1f000001 	svcne	0x00000001
     450:	00000274 	andeq	r0, r0, r4, ror r2
     454:	140b0c02 	strne	r0, [fp], #-3074	; 0xfffff3fe
     458:	03000001 	movweq	r0, #1
     45c:	00000485 	andeq	r0, r0, r5, lsl #9
     460:	00006b22 	andeq	r6, r0, r2, lsr #22
     464:	220c0200 	andcs	r0, ip, #0, 4
     468:	000000bf 	strheq	r0, [r0], -pc	; <UNPREDICTABLE>
     46c:	00009522 	andeq	r9, r0, r2, lsr #10
     470:	340c0200 	strcc	r0, [ip], #-512	; 0xfffffe00
     474:	000000bf 	strheq	r0, [r0], -pc	; <UNPREDICTABLE>
     478:	00014322 	andeq	r4, r1, r2, lsr #6
     47c:	430c0200 	movwmi	r0, #49664	; 0xc200
     480:	0000002c 	andeq	r0, r0, ip, lsr #32
     484:	04e92300 	strbteq	r2, [r9], #768	; 0x300
     488:	04e90000 	strbteq	r0, [r9], #0
     48c:	28050000 	stmdacs	r5, {}	; <UNPREDICTABLE>
     490:	9e072406 	cdpls	4, 0, cr2, cr7, cr6, {0}
     494:	73657405 	cmnvc	r5, #83886080	; 0x5000000
     498:	00230074 	eoreq	r0, r3, r4, ror r0
     49c:	00000000 	andeq	r0, r0, r0
     4a0:	03000000 	movweq	r0, #0
     4a4:	6d230849 	stcvs	8, cr0, [r3, #-292]!	; 0xfffffedc
     4a8:	6d000002 	stcvs	0, cr0, [r0, #-8]
     4ac:	05000002 	streq	r0, [r0, #-2]
     4b0:	352307f2 	strcc	r0, [r3, #-2034]!	; 0xfffff80e
     4b4:	35000001 	strcc	r0, [r0, #-1]
     4b8:	03000001 	movweq	r0, #1
     4bc:	d023066c 	eorle	r0, r3, ip, ror #12
     4c0:	d0000000 	andle	r0, r0, r0
     4c4:	05000000 	streq	r0, [r0, #-0]
     4c8:	af00066e 	svcge	0x0000066e
     4cc:	04000009 	streq	r0, [r0], #-9
     4d0:	00021100 	andeq	r1, r2, r0, lsl #2
     4d4:	a8010400 	stmdage	r1, {sl}
     4d8:	0c000001 	stceq	0, cr0, [r0], {1}
     4dc:	000002f5 	strdeq	r0, [r0], -r5
     4e0:	00000103 	andeq	r0, r0, r3, lsl #2
     4e4:	00008154 	andeq	r8, r0, r4, asr r1
     4e8:	000002f0 	strdeq	r0, [r0], -r0	; <UNPREDICTABLE>
     4ec:	000001bf 			; <UNDEFINED> instruction: 0x000001bf
     4f0:	69050402 	stmdbvs	r5, {r1, sl}
     4f4:	0300746e 	movweq	r7, #1134	; 0x46e
     4f8:	01540704 	cmpeq	r4, r4, lsl #14
     4fc:	01030000 	mrseq	r0, (UNDEF: 3)
     500:	0000ec06 	andeq	lr, r0, r6, lsl #24
     504:	05020300 	streq	r0, [r2, #-768]	; 0xfffffd00
     508:	00000049 	andeq	r0, r0, r9, asr #32
     50c:	9f050403 	svcls	0x00050403
     510:	03000000 	movweq	r0, #0
     514:	009a0508 	addseq	r0, sl, r8, lsl #10
     518:	8d040000 	stchi	0, cr0, [r4, #-0]
     51c:	03000000 	movweq	r0, #0
     520:	005b182e 	subseq	r1, fp, lr, lsr #16
     524:	01030000 	mrseq	r0, (UNDEF: 3)
     528:	0000ea08 	andeq	lr, r0, r8, lsl #20
     52c:	016a0400 	cmneq	sl, r0, lsl #8
     530:	31030000 	mrscc	r0, (UNDEF: 3)
     534:	00006e19 	andeq	r6, r0, r9, lsl lr
     538:	07020300 	streq	r0, [r2, -r0, lsl #6]
     53c:	0000017b 	andeq	r0, r0, fp, ror r1
     540:	00016104 	andeq	r6, r1, r4, lsl #2
     544:	19340300 	ldmdbne	r4!, {r8, r9}
     548:	00000081 	andeq	r0, r0, r1, lsl #1
     54c:	4f070403 	svcmi	0x00070403
     550:	03000001 	movweq	r0, #1
     554:	014a0708 	cmpeq	sl, r8, lsl #14
     558:	25050000 	strcs	r0, [r5, #-0]
     55c:	9e000000 	cdpls	0, 0, cr0, cr0, cr0, {0}
     560:	06000000 	streq	r0, [r0], -r0
     564:	00000025 	andeq	r0, r0, r5, lsr #32
     568:	00530700 	subseq	r0, r3, r0, lsl #14
     56c:	1c040000 	stcne	0, cr0, [r4], {-0}
     570:	0000aa0e 	andeq	sl, r0, lr, lsl #20
     574:	8f040800 	svchi	0x00040800
     578:	05000000 	streq	r0, [r0, #-0]
     57c:	00000025 	andeq	r0, r0, r5, lsr #32
     580:	000000bf 	strheq	r0, [r0], -pc	; <UNPREDICTABLE>
     584:	0000bf06 	andeq	fp, r0, r6, lsl #30
     588:	04080000 	streq	r0, [r8], #-0
     58c:	000000cc 	andeq	r0, r0, ip, asr #1
     590:	f3080103 	vrhadd.u8	d0, d8, d3
     594:	09000000 	stmdbeq	r0, {}	; <UNPREDICTABLE>
     598:	000000c5 	andeq	r0, r0, r5, asr #1
     59c:	00052707 	andeq	r2, r5, r7, lsl #14
     5a0:	0e210400 	cdpeq	4, 2, cr0, cr1, cr0, {0}
     5a4:	000000dd 	ldrdeq	r0, [r0], -sp
     5a8:	00b00408 	adcseq	r0, r0, r8, lsl #8
     5ac:	0c0a0000 	stceq	0, cr0, [sl], {-0}
     5b0:	14090405 	strne	r0, [r9], #-1029	; 0xfffffbfb
     5b4:	0b000001 	bleq	5c0 <__code_start__-0x7a40>
     5b8:	0000006b 	andeq	r0, r0, fp, rrx
     5bc:	bf110605 	svclt	0x00110605
     5c0:	00000000 	andeq	r0, r0, r0
     5c4:	0000950b 	andeq	r9, r0, fp, lsl #10
     5c8:	11070500 	tstne	r7, r0, lsl #10
     5cc:	000000bf 	strheq	r0, [r0], -pc	; <UNPREDICTABLE>
     5d0:	01430b04 	cmpeq	r3, r4, lsl #22
     5d4:	08050000 	stmdaeq	r5, {}	; <UNPREDICTABLE>
     5d8:	00002c0e 	andeq	r2, r0, lr, lsl #24
     5dc:	04000800 	streq	r0, [r0], #-2048	; 0xfffff800
     5e0:	00000284 	andeq	r0, r0, r4, lsl #5
     5e4:	e3030905 	movw	r0, #14597	; 0x3905
     5e8:	0c000000 	stceq	0, cr0, [r0], {-0}
     5ec:	005b0107 	subseq	r0, fp, r7, lsl #2
     5f0:	09020000 	stmdbeq	r2, {}	; <UNPREDICTABLE>
     5f4:	00013b0e 	andeq	r3, r1, lr, lsl #22
     5f8:	02ff0d00 	rscseq	r0, pc, #0, 26
     5fc:	0d0b0000 	stceq	0, cr0, [fp, #-0]
     600:	0000029e 	muleq	r0, lr, r2
     604:	070c000c 	streq	r0, [ip, -ip]
     608:	00005b01 	andeq	r5, r0, r1, lsl #22
     60c:	060a0200 	streq	r0, [sl], -r0, lsl #4
     610:	00000156 	andeq	r0, r0, r6, asr r1
     614:	0000700d 	andeq	r7, r0, sp
     618:	5f0d8000 	svcpl	0x000d8000
     61c:	fe000000 	cdp2	0, 0, cr0, cr0, cr0, {0}
     620:	00b20e00 	adcseq	r0, r2, r0, lsl #28
     624:	02a80000 	adceq	r0, r8, #0, 0
     628:	01d9100d 	bicseq	r1, r9, sp
     62c:	7f0b0000 	svcvc	0x000b0000
     630:	02000002 	andeq	r0, r0, #2, 0
     634:	01d9140e 	bicseq	r1, r9, lr, lsl #8
     638:	0b000000 	bleq	640 <__code_start__-0x79c0>
     63c:	00000260 	andeq	r0, r0, r0, ror #4
     640:	750e0f02 	strvc	r0, [lr, #-3842]	; 0xfffff0fe
     644:	04000000 	streq	r0, [r0], #-0
     648:	0000370b 	andeq	r3, r0, fp, lsl #14
     64c:	0e100200 	cdpeq	2, 1, cr0, cr0, cr0, {0}
     650:	00000075 	andeq	r0, r0, r5, ror r0
     654:	002e0b08 	eoreq	r0, lr, r8, lsl #22
     658:	14020000 	strne	r0, [r2], #-0
     65c:	0000750e 	andeq	r7, r0, lr, lsl #10
     660:	c60b0c00 	strgt	r0, [fp], -r0, lsl #24
     664:	02000000 	andeq	r0, r0, #0, 0
     668:	01140f16 	tsteq	r4, r6, lsl pc
     66c:	0b100000 	bleq	400674 <__bss_end__+0x3f57f4>
     670:	000000f8 	strdeq	r0, [r0], -r8
     674:	750e1902 	strvc	r1, [lr, #-2306]	; 0xfffff6fe
     678:	1c000000 	stcne	0, cr0, [r0], {-0}
     67c:	00003d0b 	andeq	r3, r0, fp, lsl #26
     680:	0e1a0200 	cdpeq	2, 1, cr0, cr10, cr0, {0}
     684:	00000075 	andeq	r0, r0, r5, ror r0
     688:	03cc0b20 	biceq	r0, ip, #32, 22	; 0x8000
     68c:	1c020000 	stcne	0, cr0, [r2], {-0}
     690:	0000620e 	andeq	r6, r0, lr, lsl #4
     694:	720f2400 	andvc	r2, pc, #0, 8
     698:	0200317a 	andeq	r3, r0, #-2147483618	; 0x8000001e
     69c:	01df0d1e 	bicseq	r0, pc, lr, lsl sp	; <UNPREDICTABLE>
     6a0:	00260000 	eoreq	r0, r6, r0
     6a4:	01560408 	cmpeq	r6, r8, lsl #8
     6a8:	4f100000 	svcmi	0x00100000
     6ac:	ef000000 	svc	0x00000000
     6b0:	11000001 	tstne	r0, r1
     6b4:	0000002c 	andeq	r0, r0, ip, lsr #32
     6b8:	2804007f 	stmdacs	r4, {r0, r1, r2, r3, r4, r5, r6}
     6bc:	02000000 	andeq	r0, r0, #0, 0
     6c0:	0156031f 	cmpeq	r6, pc, lsl r3
     6c4:	04120000 	ldreq	r0, [r2], #-0
     6c8:	0000dd07 	andeq	sp, r0, r7, lsl #26
     6cc:	11a50200 			; <UNDEFINED> instruction: 0x11a50200
     6d0:	0000002c 	andeq	r0, r0, ip, lsr #32
     6d4:	0002c013 	andeq	ip, r2, r3, lsl r0
     6d8:	0f080100 	svceq	0x00080100
     6dc:	0000021b 	andeq	r0, r0, fp, lsl r2
     6e0:	aa500305 	bge	14012fc <__bss_end__+0x13f647c>
     6e4:	04080000 	streq	r0, [r8], #-0
     6e8:	000001ef 	andeq	r0, r0, pc, ror #3
     6ec:	00000014 	andeq	r0, r0, r4, lsl r0
     6f0:	08660100 	stmdaeq	r6!, {r8}^
     6f4:	000001fb 	strdeq	r0, [r0], -fp
     6f8:	000083b8 			; <UNDEFINED> instruction: 0x000083b8
     6fc:	0000008c 	andeq	r0, r0, ip, lsl #1
     700:	02ee9c01 	rsceq	r9, lr, #256	; 0x100
     704:	27150000 	ldrcs	r0, [r5, -r0]
     708:	01000003 	tsteq	r0, r3
     70c:	00751a66 	rsbseq	r1, r5, r6, ror #20
     710:	01170000 	tsteq	r7, r0
     714:	01110000 	tsteq	r1, r0
     718:	6c160000 	ldcvs	0, cr0, [r6], {-0}
     71c:	2c660100 	stfcse	f0, [r6], #-0
     720:	00000114 	andeq	r0, r0, r4, lsl r1
     724:	17649102 	strbne	r9, [r4, -r2, lsl #2]!
     728:	68010068 	stmdavs	r1, {r3, r5, r6}
     72c:	00021b0c 	andeq	r1, r2, ip, lsl #22
     730:	00014900 	andeq	r4, r1, r0, lsl #18
     734:	00014300 	andeq	r4, r1, r0, lsl #6
     738:	83d41800 	bicshi	r1, r4, #0, 16
     73c:	09760000 	ldmdbeq	r6!, {}^	; <UNPREDICTABLE>
     740:	02830000 	addeq	r0, r3, #0, 0
     744:	01190000 	tsteq	r9, r0
     748:	a8760350 	ldmdage	r6!, {r4, r6, r8, r9}^
     74c:	e4180001 	ldr	r0, [r8], #-1
     750:	82000083 	andhi	r0, r0, #131, 0	; 0x83
     754:	a2000009 	andge	r0, r0, #9, 0
     758:	19000002 	stmdbne	r0, {r1}
     75c:	74025001 	strvc	r5, [r2], #-1
     760:	51011900 	tstpl	r1, r0, lsl #18
     764:	01193001 	tsteq	r9, r1
     768:	a8080252 	stmdage	r8, {r1, r4, r6, r9}
     76c:	840c1800 	strhi	r1, [ip], #-2048	; 0xfffff800
     770:	098e0000 	stmibeq	lr, {}	; <UNPREDICTABLE>
     774:	02ce0000 	sbceq	r0, lr, #0, 0
     778:	01190000 	tsteq	r9, r0
     77c:	68030550 	stmdavs	r3, {r4, r6, r8, sl}
     780:	190000a2 	stmdbne	r0, {r1, r5, r7}
     784:	91035101 	tstls	r3, r1, lsl #2
     788:	0119065c 	tsteq	r9, ip, asr r6
     78c:	60910352 	addsvs	r0, r1, r2, asr r3
     790:	53011906 	movwpl	r1, #6406	; 0x1906
     794:	06649103 	strbteq	r9, [r4], -r3, lsl #2
     798:	841c1a00 	ldrhi	r1, [ip], #-2560	; 0xfffff600
     79c:	098e0000 	stmibeq	lr, {}	; <UNPREDICTABLE>
     7a0:	01190000 	tsteq	r9, r0
     7a4:	14030550 	strne	r0, [r3], #-1360	; 0xfffffab0
     7a8:	190000a3 	stmdbne	r0, {r0, r1, r5, r7}
     7ac:	75025101 	strvc	r5, [r2, #-257]	; 0xfffffeff
     7b0:	52011900 	andpl	r1, r1, #0, 18
     7b4:	00007602 	andeq	r7, r0, r2, lsl #12
     7b8:	02b91b00 	adcseq	r1, r9, #0, 22
     7bc:	53010000 	movwpl	r0, #4096	; 0x1000
     7c0:	00822406 	addeq	r2, r2, r6, lsl #8
     7c4:	00019400 	andeq	r9, r1, r0, lsl #8
     7c8:	049c0100 	ldreq	r0, [ip], #256	; 0x100
     7cc:	15000006 	strne	r0, [r0, #-6]
     7d0:	000009a6 	andeq	r0, r0, r6, lsr #19
     7d4:	fb145301 	blx	5153e2 <__bss_end__+0x50a562>
     7d8:	80000001 	andhi	r0, r0, r1
     7dc:	76000001 	strvc	r0, [r0], -r1
     7e0:	1c000001 	stcne	0, cr0, [r0], {1}
     7e4:	5301006c 	movwpl	r0, #4204	; 0x106c
     7e8:	00011424 	andeq	r1, r1, r4, lsr #8
     7ec:	0001cb00 	andeq	ip, r1, r0, lsl #22
     7f0:	0001c500 	andeq	ip, r1, r0, lsl #10
     7f4:	00681700 	rsbeq	r1, r8, r0, lsl #14
     7f8:	1b0c5501 	blne	315c04 <__bss_end__+0x30ad84>
     7fc:	19000002 	stmdbne	r0, {r1}
     800:	0b000002 	bleq	810 <__code_start__-0x77f0>
     804:	1d000002 	stcne	0, cr0, [r0, #-8]
     808:	000000b9 	strheq	r0, [r0], -r9
     80c:	00000614 	andeq	r0, r0, r4, lsl r6
     810:	a33c0305 	teqge	ip, #335544320	; 0x14000000
     814:	7b1e0000 	blvc	78081c <__bss_end__+0x77599c>
     818:	78000006 	stmdavc	r0, {r1, r2}
     81c:	02000082 	andeq	r0, r0, #130, 0	; 0x82
     820:	00000100 	andeq	r0, r0, r0, lsl #2
     824:	68055d01 	stmdavs	r5, {r0, r8, sl, fp, ip, lr}
     828:	1f000004 	svcne	0x00000004
     82c:	0000068c 	andeq	r0, r0, ip, lsl #13
     830:	0000027c 	andeq	r0, r0, ip, ror r2
     834:	0000027a 	andeq	r0, r0, sl, ror r2
     838:	00069820 	andeq	r9, r6, r0, lsr #16
     83c:	00012800 	andeq	r2, r1, r0, lsl #16
     840:	06992100 	ldreq	r2, [r9], r0, lsl #2
     844:	02910000 	addseq	r0, r1, #0, 0
     848:	028f0000 	addeq	r0, pc, #0, 0
     84c:	59220000 	stmdbpl	r2!, {}	; <UNPREDICTABLE>
     850:	78000007 	stmdavc	r0, {r0, r1, r2}
     854:	05000082 	streq	r0, [r0, #-130]	; 0xffffff7e
     858:	00000148 	andeq	r0, r0, r8, asr #2
     85c:	23152e01 	tstcs	r5, #1, 28
     860:	0000073d 	andeq	r0, r0, sp, lsr r7
     864:	0000828c 	andeq	r8, r0, ip, lsl #5
     868:	00828c01 	addeq	r8, r2, r1, lsl #24
     86c:	00000400 	andeq	r0, r0, r0, lsl #8
     870:	2c2e0100 	stfcss	f0, [lr], #-0
     874:	000003bb 			; <UNDEFINED> instruction: 0x000003bb
     878:	00074e1f 	andeq	r4, r7, pc, lsl lr
     87c:	0002a600 	andeq	sl, r2, r0, lsl #12
     880:	0002a400 	andeq	sl, r2, r0, lsl #8
     884:	c51e0000 	ldrgt	r0, [lr, #-0]
     888:	98000006 	stmdals	r0, {r1, r2}
     88c:	01000082 	smlabbeq	r0, r2, r0, r0
     890:	00000160 	andeq	r0, r0, r0, ror #2
     894:	4d0d3101 	stfmis	f3, [sp, #-4]
     898:	1f000004 	svcne	0x00000004
     89c:	000006e0 	andeq	r0, r0, r0, ror #13
     8a0:	000002bb 			; <UNDEFINED> instruction: 0x000002bb
     8a4:	000002b9 			; <UNDEFINED> instruction: 0x000002b9
     8a8:	0006d61f 	andeq	sp, r6, pc, lsl r6
     8ac:	0002d000 	andeq	sp, r2, r0
     8b0:	0002ce00 	andeq	ip, r2, r0, lsl #28
     8b4:	01602400 	cmneq	r0, r0, lsl #8
     8b8:	ec210000 	stc	0, cr0, [r1], #-0
     8bc:	e9000006 	stmdb	r0, {r1, r2}
     8c0:	e3000002 	movw	r0, #2
     8c4:	21000002 	tstcs	r0, r2
     8c8:	000006f8 	strdeq	r0, [r0], -r8
     8cc:	0000031a 	andeq	r0, r0, sl, lsl r3
     8d0:	00000318 	andeq	r0, r0, r8, lsl r3
     8d4:	0007211e 	andeq	r2, r7, lr, lsl r1
     8d8:	00829800 	addeq	r9, r2, r0, lsl #16
     8dc:	01780300 	cmneq	r8, r0, lsl #6
     8e0:	26010000 	strcs	r0, [r1], -r0
     8e4:	00042c11 	andeq	r2, r4, r1, lsl ip
     8e8:	07321f00 	ldreq	r1, [r2, -r0, lsl #30]!
     8ec:	03380000 	teqeq	r8, #0, 0
     8f0:	03360000 	teqeq	r6, #0, 0
     8f4:	25000000 	strcs	r0, [r0, #-0]
     8f8:	00000705 	andeq	r0, r0, r5, lsl #14
     8fc:	00008298 	muleq	r0, r8, r2
     900:	00019007 	andeq	r9, r1, r7
     904:	11270100 			; <UNDEFINED> instruction: 0x11270100
     908:	0007161f 	andeq	r1, r7, pc, lsl r6
     90c:	00034d00 	andeq	r4, r3, r0, lsl #26
     910:	00034b00 	andeq	r4, r3, r0, lsl #22
     914:	00000000 	andeq	r0, r0, r0
     918:	0082d01a 	addeq	sp, r2, sl, lsl r0
     91c:	00098e00 	andeq	r8, r9, r0, lsl #28
     920:	50011900 	andpl	r1, r1, r0, lsl #18
     924:	a2580305 	subsge	r0, r8, #335544320	; 0x14000000
     928:	01190000 	tsteq	r9, r0
     92c:	00740251 	rsbseq	r0, r4, r1, asr r2
     930:	1e000000 	cdpne	0, 0, cr0, cr0, cr0, {0}
     934:	00000619 	andeq	r0, r0, r9, lsl r6
     938:	000082d0 	ldrdeq	r8, [r0], -r0
     93c:	0001b005 	andeq	fp, r1, r5
     940:	055f0100 	ldrbeq	r0, [pc, #-256]	; 848 <__code_start__-0x77b8>
     944:	0000051a 	andeq	r0, r0, sl, lsl r5
     948:	0006261f 	andeq	r2, r6, pc, lsl r6
     94c:	00036400 	andeq	r6, r3, r0, lsl #8
     950:	00036000 	andeq	r6, r3, r0
     954:	06301f00 	ldrteq	r1, [r0], -r0, lsl #30
     958:	03900000 	orrseq	r0, r0, #0, 0
     95c:	038c0000 	orreq	r0, ip, #0, 0
     960:	b0240000 	eorlt	r0, r4, r0
     964:	21000001 	tstcs	r0, r1
     968:	00000649 	andeq	r0, r0, r9, asr #12
     96c:	000003ba 			; <UNDEFINED> instruction: 0x000003ba
     970:	000003ae 	andeq	r0, r0, lr, lsr #7
     974:	00065521 	andeq	r5, r6, r1, lsr #10
     978:	00040e00 	andeq	r0, r4, r0, lsl #28
     97c:	00040800 	andeq	r0, r4, r0, lsl #16
     980:	073d1e00 	ldreq	r1, [sp, -r0, lsl #28]!
     984:	82dc0000 	sbcshi	r0, ip, #0, 0
     988:	c8010000 	stmdagt	r1, {}	; <UNPREDICTABLE>
     98c:	01000001 	tsteq	r0, r1
     990:	04d91146 	ldrbeq	r1, [r9], #326	; 0x146
     994:	4e1f0000 	cdpmi	0, 1, cr0, cr15, cr0, {0}
     998:	3c000007 	stccc	0, cr0, [r0], {7}
     99c:	38000004 	stmdacc	r0, {r2}
     9a0:	00000004 	andeq	r0, r0, r4
     9a4:	00831c18 	addeq	r1, r3, r8, lsl ip
     9a8:	00098e00 	andeq	r8, r9, r0, lsl #28
     9ac:	00050f00 	andeq	r0, r5, r0, lsl #30
     9b0:	50011900 	andpl	r1, r1, r0, lsl #18
     9b4:	a2d00305 	sbcsge	r0, r0, #335544320	; 0x14000000
     9b8:	01190000 	tsteq	r9, r0
     9bc:	c4030551 	strgt	r0, [r3], #-1361	; 0xfffffaaf
     9c0:	190000a2 	stmdbne	r0, {r1, r5, r7}
     9c4:	03055201 	movweq	r5, #20993	; 0x5201
     9c8:	0000a330 	andeq	sl, r0, r0, lsr r3
     9cc:	02530119 	subseq	r0, r3, #1073741830	; 0x40000006
     9d0:	02194f08 	andseq	r4, r9, #8, 30
     9d4:	7502007d 	strvc	r0, [r2, #-125]	; 0xffffff83
     9d8:	20260000 	eorcs	r0, r6, r0
     9dc:	9a000083 	bls	bf0 <__code_start__-0x7410>
     9e0:	00000009 	andeq	r0, r0, r9
     9e4:	82541800 	subshi	r1, r4, #0, 16
     9e8:	098e0000 	stmibeq	lr, {}	; <UNPREDICTABLE>
     9ec:	05430000 	strbeq	r0, [r3, #-0]
     9f0:	01190000 	tsteq	r9, r0
     9f4:	68030550 	stmdavs	r3, {r4, r6, r8, sl}
     9f8:	190000a2 	stmdbne	r0, {r1, r5, r7}
     9fc:	76025101 	strvc	r5, [r2], -r1, lsl #2
     a00:	52011900 	andpl	r1, r1, #0, 18
     a04:	19007702 	stmdbne	r0, {r1, r8, r9, sl, ip, sp, lr}
     a08:	78025301 	stmdavc	r2, {r0, r8, r9, ip, lr}
     a0c:	60180000 	andsvs	r0, r8, r0
     a10:	8e000082 	cdphi	0, 0, cr0, cr0, cr2, {4}
     a14:	60000009 	andvs	r0, r0, r9
     a18:	19000005 	stmdbne	r0, {r0, r2}
     a1c:	03055001 	movweq	r5, #20481	; 0x5001
     a20:	0000a274 	andeq	sl, r0, r4, ror r2
     a24:	02510119 	subseq	r0, r1, #1073741830	; 0x40000006
     a28:	27000074 	smlsdxcs	r0, r4, r0, r0
     a2c:	00008338 	andeq	r8, r0, r8, lsr r3
     a30:	000009a6 	andeq	r0, r0, r6, lsr #19
     a34:	00000578 	andeq	r0, r0, r8, ror r5
     a38:	06500119 			; <UNDEFINED> instruction: 0x06500119
     a3c:	085001f3 	ldmdaeq	r0, {r0, r1, r4, r5, r6, r7, r8}^
     a40:	18001ca8 	stmdane	r0, {r3, r5, r7, sl, fp, ip}
     a44:	00008358 	andeq	r8, r0, r8, asr r3
     a48:	0000098e 	andeq	r0, r0, lr, lsl #19
     a4c:	000005a1 	andeq	r0, r0, r1, lsr #11
     a50:	05500119 	ldrbeq	r0, [r0, #-281]	; 0xfffffee7
     a54:	00a28403 	adceq	r8, r2, r3, lsl #8
     a58:	51011900 	tstpl	r1, r0, lsl #18
     a5c:	19007602 	stmdbne	r0, {r1, r9, sl, ip, sp, lr}
     a60:	77025201 	strvc	r5, [r2, -r1, lsl #4]
     a64:	53011900 	movwpl	r1, #6400	; 0x1900
     a68:	00007802 	andeq	r7, r0, r2, lsl #16
     a6c:	00836418 	addeq	r6, r3, r8, lsl r4
     a70:	00098e00 	andeq	r8, r9, r0, lsl #28
     a74:	0005b800 	andeq	fp, r5, r0, lsl #16
     a78:	50011900 	andpl	r1, r1, r0, lsl #18
     a7c:	a29c0305 	addsge	r0, ip, #335544320	; 0x14000000
     a80:	26000000 	strcs	r0, [r0], -r0
     a84:	00008368 	andeq	r8, r0, r8, ror #6
     a88:	0000099a 	muleq	r0, sl, r9
     a8c:	00838418 	addeq	r8, r3, r8, lsl r4
     a90:	00098e00 	andeq	r8, r9, r0, lsl #28
     a94:	0005fa00 	andeq	pc, r5, r0, lsl #20
     a98:	50011900 	andpl	r1, r1, r0, lsl #18
     a9c:	a1780305 	cmnge	r8, r5, lsl #6
     aa0:	01190000 	tsteq	r9, r0
     aa4:	c4030551 	strgt	r0, [r3], #-1361	; 0xfffffaaf
     aa8:	190000a2 	stmdbne	r0, {r1, r5, r7}
     aac:	03055201 	movweq	r5, #20993	; 0x5201
     ab0:	0000a33c 	andeq	sl, r0, ip, lsr r3
     ab4:	02530119 	subseq	r0, r3, #1073741830	; 0x40000006
     ab8:	02195d08 	andseq	r5, r9, #8, 26	; 0x200
     abc:	0305007d 	movweq	r0, #20605	; 0x507d
     ac0:	0000a2fc 	strdeq	sl, [r0], -ip
     ac4:	83882600 	orrhi	r2, r8, #0, 12
     ac8:	099a0000 	ldmibeq	sl, {}	; <UNPREDICTABLE>
     acc:	10000000 	andne	r0, r0, r0
     ad0:	000000cc 	andeq	r0, r0, ip, asr #1
     ad4:	00000614 	andeq	r0, r0, r4, lsl r6
     ad8:	00002c11 	andeq	r2, r0, r1, lsl ip
     adc:	09000600 	stmdbeq	r0, {r9, sl}
     ae0:	00000604 	andeq	r0, r0, r4, lsl #12
     ae4:	0002cb28 	andeq	ip, r2, r8, lsr #22
     ae8:	0d3a0100 	ldfeqs	f0, [sl, #-0]
     aec:	00066001 	andeq	r6, r6, r1
     af0:	006c2900 	rsbeq	r2, ip, r0, lsl #18
     af4:	60213a01 	eorvs	r3, r1, r1, lsl #20
     af8:	29000006 	stmdbcs	r0, {r1, r2}
     afc:	3a010068 	bcc	40ca4 <__bss_end__+0x35e24>
     b00:	00021b2b 	andeq	r1, r2, fp, lsr #22
     b04:	00b91d00 	adcseq	r1, r9, r0, lsl #26
     b08:	06760000 	ldrbteq	r0, [r6], -r0
     b0c:	03050000 	movweq	r0, #20480	; 0x5000
     b10:	0000a330 	andeq	sl, r0, r0, lsr r3
     b14:	00031f2a 	andeq	r1, r3, sl, lsr #30
     b18:	0c3d0100 	ldfeqs	f0, [sp], #-0
     b1c:	0000021b 	andeq	r0, r0, fp, lsl r2
     b20:	0100702b 	tsteq	r0, fp, lsr #32
     b24:	021b0c45 	andseq	r0, fp, #17664	; 0x4500
     b28:	08000000 	stmdaeq	r0, {}	; <UNPREDICTABLE>
     b2c:	00021b04 	andeq	r1, r2, r4, lsl #22
     b30:	00cc1000 	sbceq	r1, ip, r0
     b34:	06760000 	ldrbteq	r0, [r6], -r0
     b38:	2c110000 	ldccs	0, cr0, [r1], {-0}
     b3c:	0b000000 	bleq	b44 <__code_start__-0x74bc>
     b40:	06660900 	strbteq	r0, [r6], -r0, lsl #18
     b44:	d72c0000 	strle	r0, [ip, -r0]!
     b48:	01000002 	tsteq	r0, r2
     b4c:	021b082b 	andseq	r0, fp, #2818048	; 0x2b0000
     b50:	c5010000 	strgt	r0, [r1, #-0]
     b54:	29000006 	stmdbcs	r0, {r1, r2}
     b58:	00727470 	rsbseq	r7, r2, r0, ror r4
     b5c:	fb202b01 	blx	80b76a <__bss_end__+0x8008ea>
     b60:	2d000001 	stccs	0, cr0, [r0, #-4]
     b64:	0100682b 	tsteq	r0, fp, lsr #16
     b68:	021b112e 	andseq	r1, fp, #-2147483637	; 0x8000000b
     b6c:	141a0000 	ldrne	r0, [sl], #-0
     b70:	8e000082 	cdphi	0, 0, cr0, cr0, cr2, {4}
     b74:	19000009 	stmdbne	r0, {r0, r3}
     b78:	03055001 	movweq	r5, #20481	; 0x5001
     b7c:	0000a258 	andeq	sl, r0, r8, asr r2
     b80:	03510119 	cmpeq	r1, #1073741830	; 0x40000006
     b84:	195001f3 	ldmdbne	r0, {r0, r1, r4, r5, r6, r7, r8}^
     b88:	74025201 	strvc	r5, [r2], #-513	; 0xfffffdff
     b8c:	00000000 	andeq	r0, r0, r0
     b90:	00028e2c 	andeq	r8, r2, ip, lsr #28
     b94:	0a240100 	beq	900f9c <__bss_end__+0x8f611c>
     b98:	0000002c 	andeq	r0, r0, ip, lsr #32
     b9c:	00070501 	andeq	r0, r7, r1, lsl #10
     ba0:	00682900 	rsbeq	r2, r8, r0, lsl #18
     ba4:	1b212401 	blne	849bb0 <__bss_end__+0x83ed30>
     ba8:	29000002 	stmdbcs	r0, {r1}
     bac:	00727470 	rsbseq	r7, r2, r0, ror r4
     bb0:	fb2a2401 	blx	a89bbe <__bss_end__+0xa7ed3e>
     bb4:	2b000001 	blcs	bc0 <__code_start__-0x7440>
     bb8:	006e696d 	rsbeq	r6, lr, sp, ror #18
     bbc:	fb0b2601 	blx	2ca3ca <__bss_end__+0x2bf54a>
     bc0:	2b000001 	blcs	bcc <__code_start__-0x7434>
     bc4:	0078616d 	rsbseq	r6, r8, sp, ror #2
     bc8:	fb0b2701 	blx	2ca7d6 <__bss_end__+0x2bf956>
     bcc:	00000001 	andeq	r0, r0, r1
     bd0:	0003142c 	andeq	r1, r3, ip, lsr #8
     bd4:	071e0100 	ldreq	r0, [lr, -r0, lsl #2]
     bd8:	000001fb 	strdeq	r0, [r0], -fp
     bdc:	00072101 	andeq	r2, r7, r1, lsl #2
     be0:	00682900 	rsbeq	r2, r8, r0, lsl #18
     be4:	1b191e01 	blne	6483f0 <__bss_end__+0x63d570>
     be8:	00000002 	andeq	r0, r0, r2
     bec:	0003072c 	andeq	r0, r3, ip, lsr #14
     bf0:	07180100 	ldreq	r0, [r8, -r0, lsl #2]
     bf4:	000001fb 	strdeq	r0, [r0], -fp
     bf8:	00073d01 	andeq	r3, r7, r1, lsl #26
     bfc:	00682900 	rsbeq	r2, r8, r0, lsl #18
     c00:	1b1b1801 	blne	6c6c0c <__bss_end__+0x6bbd8c>
     c04:	00000002 	andeq	r0, r0, r2
     c08:	0002e92c 	andeq	lr, r2, ip, lsr #18
     c0c:	08110100 	ldmdaeq	r1, {r8}
     c10:	0000021b 	andeq	r0, r0, fp, lsl r2
     c14:	00075901 	andeq	r5, r7, r1, lsl #18
     c18:	00702900 	rsbseq	r2, r0, r0, lsl #18
     c1c:	1b1b1101 	blne	6c5028 <__bss_end__+0x6ba1a8>
     c20:	00000002 	andeq	r0, r0, r2
     c24:	0002ac2e 	andeq	sl, r2, lr, lsr #24
     c28:	080b0100 	stmdaeq	fp, {r8}
     c2c:	0000021b 	andeq	r0, r0, fp, lsl r2
     c30:	03242f01 			; <UNDEFINED> instruction: 0x03242f01
     c34:	2e020000 	cdpcs	0, 0, cr0, cr2, cr0, {0}
     c38:	00002c18 	andeq	r2, r0, r8, lsl ip
     c3c:	07820300 	streq	r0, [r2, r0, lsl #6]
     c40:	68290000 	stmdavs	r9!, {}	; <UNPREDICTABLE>
     c44:	292e0200 	stmdbcs	lr!, {r9}
     c48:	0000021b 	andeq	r0, r0, fp, lsl r2
     c4c:	07593000 	ldrbeq	r3, [r9, -r0]
     c50:	81540000 	cmphi	r4, r0
     c54:	00100000 	andseq	r0, r0, r0
     c58:	9c010000 	stcls	0, cr0, [r1], {-0}
     c5c:	00073d31 	andeq	r3, r7, r1, lsr sp
     c60:	00816400 	addeq	r6, r1, r0, lsl #8
     c64:	00000c00 	andeq	r0, r0, r0, lsl #24
     c68:	b29c0100 	addslt	r0, ip, #0
     c6c:	1f000007 	svcne	0x00000007
     c70:	0000074e 	andeq	r0, r0, lr, asr #14
     c74:	0000045e 	andeq	r0, r0, lr, asr r4
     c78:	0000045a 	andeq	r0, r0, sl, asr r4
     c7c:	07213100 	streq	r3, [r1, -r0, lsl #2]!
     c80:	81700000 	cmnhi	r0, r0
     c84:	00080000 	andeq	r0, r8, r0
     c88:	9c010000 	stcls	0, cr0, [r1], {-0}
     c8c:	000007d3 	ldrdeq	r0, [r0], -r3
     c90:	0007321f 	andeq	r3, r7, pc, lsl r2
     c94:	00048300 	andeq	r8, r4, r0, lsl #6
     c98:	00047f00 	andeq	r7, r4, r0, lsl #30
     c9c:	05310000 	ldreq	r0, [r1, #-0]!
     ca0:	78000007 	stmdavc	r0, {r0, r1, r2}
     ca4:	10000081 	andne	r0, r0, r1, lsl #1
     ca8:	01000000 	mrseq	r0, (UNDEF: 0)
     cac:	0007f49c 	muleq	r7, ip, r4
     cb0:	07161f00 	ldreq	r1, [r6, -r0, lsl #30]
     cb4:	04a80000 	strteq	r0, [r8], #0
     cb8:	04a40000 	strteq	r0, [r4], #0
     cbc:	31000000 	mrscc	r0, (UNDEF: 0)
     cc0:	000006c5 	andeq	r0, r0, r5, asr #13
     cc4:	00008188 	andeq	r8, r0, r8, lsl #3
     cc8:	00000024 	andeq	r0, r0, r4, lsr #32
     ccc:	08789c01 	ldmdaeq	r8!, {r0, sl, fp, ip, pc}^
     cd0:	d61f0000 	ldrle	r0, [pc], -r0
     cd4:	cd000006 	stcgt	0, cr0, [r0, #-24]	; 0xffffffe8
     cd8:	c9000004 	stmdbgt	r0, {r2}
     cdc:	32000004 	andcc	r0, r0, #4, 0
     ce0:	000006e0 	andeq	r0, r0, r0, ror #13
     ce4:	ec215101 	stfs	f5, [r1], #-4
     ce8:	f2000006 	vhadd.s8	d0, d0, d6
     cec:	ee000004 	cdp	0, 0, cr0, cr0, cr4, {0}
     cf0:	21000004 	tstcs	r0, r4
     cf4:	000006f8 	strdeq	r0, [r0], -r8
     cf8:	00000517 	andeq	r0, r0, r7, lsl r5
     cfc:	00000513 	andeq	r0, r0, r3, lsl r5
     d00:	0007211e 	andeq	r2, r7, lr, lsl r1
     d04:	00818800 	addeq	r8, r1, r0, lsl #16
     d08:	00000200 	andeq	r0, r0, r0, lsl #4
     d0c:	26010000 	strcs	r0, [r1], -r0
     d10:	00085811 	andeq	r5, r8, r1, lsl r8
     d14:	07321f00 	ldreq	r1, [r2, -r0, lsl #30]!
     d18:	05470000 	strbeq	r0, [r7, #-0]
     d1c:	05450000 	strbeq	r0, [r5, #-0]
     d20:	25000000 	strcs	r0, [r0, #-0]
     d24:	00000705 	andeq	r0, r0, r5, lsl #14
     d28:	00008188 	andeq	r8, r0, r8, lsl #3
     d2c:	00001806 	andeq	r1, r0, r6, lsl #16
     d30:	11270100 			; <UNDEFINED> instruction: 0x11270100
     d34:	0007161f 	andeq	r1, r7, pc, lsl r6
     d38:	00055c00 	andeq	r5, r5, r0, lsl #24
     d3c:	00055a00 	andeq	r5, r5, r0, lsl #20
     d40:	31000000 	mrscc	r0, (UNDEF: 0)
     d44:	0000067b 	andeq	r0, r0, fp, ror r6
     d48:	000081ac 	andeq	r8, r0, ip, lsr #3
     d4c:	00000078 	andeq	r0, r0, r8, ror r0
     d50:	09769c01 	ldmdbeq	r6!, {r0, sl, fp, ip, pc}^
     d54:	8c1f0000 	ldchi	0, cr0, [pc], {-0}
     d58:	75000006 	strvc	r0, [r0, #-6]
     d5c:	6f000005 	svcvs	0x00000005
     d60:	20000005 	andcs	r0, r0, r5
     d64:	00000698 	muleq	r0, r8, r6
     d68:	00000038 	andeq	r0, r0, r8, lsr r0
     d6c:	00069921 	andeq	r9, r6, r1, lsr #18
     d70:	0005a500 	andeq	sl, r5, r0, lsl #10
     d74:	0005a100 	andeq	sl, r5, r0, lsl #2
     d78:	07592200 	ldrbeq	r2, [r9, -r0, lsl #4]
     d7c:	81ac0000 			; <UNDEFINED> instruction: 0x81ac0000
     d80:	60030000 	andvs	r0, r3, r0
     d84:	01000000 	mrseq	r0, (UNDEF: 0)
     d88:	c51e152e 	ldrgt	r1, [lr, #-1326]	; 0xfffffad2
     d8c:	c0000006 	andgt	r0, r0, r6
     d90:	01000081 	smlabbeq	r0, r1, r0, r0
     d94:	00000078 	andeq	r0, r0, r8, ror r0
     d98:	510d3101 	tstpl	sp, r1, lsl #2
     d9c:	1f000009 	svcne	0x00000009
     da0:	000006e0 	andeq	r0, r0, r0, ror #13
     da4:	000005c7 	andeq	r0, r0, r7, asr #11
     da8:	000005c3 	andeq	r0, r0, r3, asr #11
     dac:	0006d61f 	andeq	sp, r6, pc, lsl r6
     db0:	0005e900 	andeq	lr, r5, r0, lsl #18
     db4:	0005e500 	andeq	lr, r5, r0, lsl #10
     db8:	00782400 	rsbseq	r2, r8, r0, lsl #8
     dbc:	ec210000 	stc	0, cr0, [r1], #-0
     dc0:	11000006 	tstne	r0, r6
     dc4:	07000006 	streq	r0, [r0, -r6]
     dc8:	21000006 	tstcs	r0, r6
     dcc:	000006f8 	strdeq	r0, [r0], -r8
     dd0:	00000665 	andeq	r0, r0, r5, ror #12
     dd4:	0000065f 	andeq	r0, r0, pc, asr r6
     dd8:	0007211e 	andeq	r2, r7, lr, lsl r1
     ddc:	0081c000 	addeq	ip, r1, r0
     de0:	00b00300 	adcseq	r0, r0, r0, lsl #6
     de4:	26010000 	strcs	r0, [r1], -r0
     de8:	00093011 	andeq	r3, r9, r1, lsl r0
     dec:	07321f00 	ldreq	r1, [r2, -r0, lsl #30]!
     df0:	06b70000 	ldrteq	r0, [r7], r0
     df4:	06b30000 	ldrteq	r0, [r3], r0
     df8:	25000000 	strcs	r0, [r0, #-0]
     dfc:	00000705 	andeq	r0, r0, r5, lsl #14
     e00:	000081c0 	andeq	r8, r0, r0, asr #3
     e04:	0000d807 	andeq	sp, r0, r7, lsl #16
     e08:	11270100 			; <UNDEFINED> instruction: 0x11270100
     e0c:	0007161f 	andeq	r1, r7, pc, lsl r6
     e10:	0006d900 	andeq	sp, r6, r0, lsl #18
     e14:	0006d500 	andeq	sp, r6, r0, lsl #10
     e18:	00000000 	andeq	r0, r0, r0
     e1c:	00073d33 	andeq	r3, r7, r3, lsr sp
     e20:	0081cc00 	addeq	ip, r1, r0, lsl #24
     e24:	81cc0300 	bichi	r0, ip, r0, lsl #6
     e28:	00040000 	andeq	r0, r4, r0
     e2c:	2e010000 	cdpcs	0, 0, cr0, cr1, cr0, {0}
     e30:	074e1f2c 	strbeq	r1, [lr, -ip, lsr #30]
     e34:	06f90000 	ldrbteq	r0, [r9], r0
     e38:	06f70000 	ldrbteq	r0, [r7], r0
     e3c:	00000000 	andeq	r0, r0, r0
     e40:	032e3400 			; <UNDEFINED> instruction: 0x032e3400
     e44:	032e0000 			; <UNDEFINED> instruction: 0x032e0000
     e48:	1e060000 	cdpne	0, 0, cr0, cr6, cr0, {0}
     e4c:	026d3407 	rsbeq	r3, sp, #117440512	; 0x7000000
     e50:	026d0000 	rsbeq	r0, sp, #0, 0
     e54:	f2040000 	vhadd.s8	d0, d4, d0
     e58:	04e93407 	strbteq	r3, [r9], #1031	; 0x407
     e5c:	04e90000 	strbteq	r0, [r9], #0
     e60:	28040000 	stmdacs	r4, {}	; <UNPREDICTABLE>
     e64:	00d03406 	sbcseq	r3, r0, r6, lsl #8
     e68:	00d00000 	sbcseq	r0, r0, r0
     e6c:	6e040000 	cdpvs	0, 0, cr0, cr4, cr0, {0}
     e70:	02a43406 	adceq	r3, r4, #100663296	; 0x6000000
     e74:	02a40000 	adceq	r0, r4, #0, 0
     e78:	1f060000 	svcne	0x00060000
     e7c:	02fb0006 	rscseq	r0, fp, #6, 0
     e80:	00040000 	andeq	r0, r4, r0
     e84:	00000532 	andeq	r0, r0, r2, lsr r5
     e88:	01a80104 			; <UNDEFINED> instruction: 0x01a80104
     e8c:	580c0000 	stmdapl	ip, {}	; <UNPREDICTABLE>
     e90:	03000003 	movweq	r0, #3
     e94:	44000001 	strmi	r0, [r0], #-1
     e98:	88000084 	stmdahi	r0, {r2, r7}
     e9c:	e4000001 	str	r0, [r0], #-1
     ea0:	02000005 	andeq	r0, r0, #5, 0
     ea4:	6e690504 	cdpvs	5, 6, cr0, cr9, cr4, {0}
     ea8:	04030074 	streq	r0, [r3], #-116	; 0xffffff8c
     eac:	00015407 	andeq	r5, r1, r7, lsl #8
     eb0:	06010300 	streq	r0, [r1], -r0, lsl #6
     eb4:	000000ec 	andeq	r0, r0, ip, ror #1
     eb8:	49050203 	stmdbmi	r5, {r0, r1, r9}
     ebc:	03000000 	movweq	r0, #0
     ec0:	009f0504 	addseq	r0, pc, r4, lsl #10
     ec4:	08030000 	stmdaeq	r3, {}	; <UNPREDICTABLE>
     ec8:	00009a05 	andeq	r9, r0, r5, lsl #20
     ecc:	08010300 	stmdaeq	r1, {r8, r9}
     ed0:	000000ea 	andeq	r0, r0, sl, ror #1
     ed4:	7b070203 	blvc	1c16e8 <__bss_end__+0x1b6868>
     ed8:	03000001 	movweq	r0, #1
     edc:	014f0704 	cmpeq	pc, r4, lsl #14
     ee0:	08030000 	stmdaeq	r3, {}	; <UNPREDICTABLE>
     ee4:	00014a07 	andeq	r4, r1, r7, lsl #20
     ee8:	00250400 	eoreq	r0, r5, r0, lsl #8
     eec:	007a0000 	rsbseq	r0, sl, r0
     ef0:	25050000 	strcs	r0, [r5, #-0]
     ef4:	00000000 	andeq	r0, r0, r0
     ef8:	00005306 	andeq	r5, r0, r6, lsl #6
     efc:	0e1c0200 	cdpeq	2, 1, cr0, cr12, cr0, {0}
     f00:	00000086 	andeq	r0, r0, r6, lsl #1
     f04:	006b0407 	rsbeq	r0, fp, r7, lsl #8
     f08:	25040000 	strcs	r0, [r4, #-0]
     f0c:	9b000000 	blls	f14 <__code_start__-0x70ec>
     f10:	05000000 	streq	r0, [r0, #-0]
     f14:	0000009b 	muleq	r0, fp, r0
     f18:	a8040700 	stmdage	r4, {r8, r9, sl}
     f1c:	03000000 	movweq	r0, #0
     f20:	00f30801 	rscseq	r0, r3, r1, lsl #16
     f24:	a1080000 	mrsge	r0, (UNDEF: 8)
     f28:	06000000 	streq	r0, [r0], -r0
     f2c:	00000527 	andeq	r0, r0, r7, lsr #10
     f30:	b90e2102 	stmdblt	lr, {r1, r8, sp}
     f34:	07000000 	streq	r0, [r0, -r0]
     f38:	00008c04 	andeq	r8, r0, r4, lsl #24
     f3c:	03450900 	movteq	r0, #22784	; 0x5900
     f40:	01080000 	mrseq	r0, (UNDEF: 8)
     f44:	00ec0705 	rsceq	r0, ip, r5, lsl #14
     f48:	640a0000 	strvs	r0, [sl], #-0
     f4c:	09070100 	stmdbeq	r7, {r8}
     f50:	000000ec 	andeq	r0, r0, ip, ror #1
     f54:	0100700a 	tsteq	r0, sl
     f58:	00f30808 	rscseq	r0, r3, r8, lsl #16
     f5c:	660a0000 	strvs	r0, [sl], -r0
     f60:	09010070 	stmdbeq	r1, {r4, r5, r6}
     f64:	0000f609 	andeq	pc, r0, r9, lsl #12
     f68:	08030000 	stmdaeq	r3, {}	; <UNPREDICTABLE>
     f6c:	00036404 	andeq	r6, r3, r4, lsl #8
     f70:	0c040b00 			; <UNDEFINED> instruction: 0x0c040b00
     f74:	00f50407 	rscseq	r0, r5, r7, lsl #8
     f78:	080d0000 	stmdaeq	sp, {}	; <UNPREDICTABLE>
     f7c:	20020e01 	andcs	r0, r2, r1, lsl #28
     f80:	0e000001 	cdpeq	0, 0, cr0, cr0, cr1, {0}
     f84:	00727470 	rsbseq	r7, r2, r0, ror r4
     f88:	42111001 	andsmi	r1, r1, #1, 0
     f8c:	00000001 	andeq	r0, r0, r1
     f90:	00037e0f 	andeq	r7, r3, pc, lsl #28
     f94:	0c110100 	ldfeqs	f0, [r1], {-0}
     f98:	0000002c 	andeq	r0, r0, ip, lsr #32
     f9c:	38090004 	stmdacc	r9, {r2}
     fa0:	08000003 	stmdaeq	r0, {r0, r1}
     fa4:	420f0c01 	andmi	r0, pc, #256	; 0x100
     fa8:	0a000001 	beq	fb4 <__code_start__-0x704c>
     fac:	12010073 	andne	r0, r1, #115, 0	; 0x73
     fb0:	0000fc04 	andeq	pc, r0, r4, lsl #24
     fb4:	00780a00 	rsbseq	r0, r8, r0, lsl #20
     fb8:	bf0e1301 	svclt	0x000e1301
     fbc:	00000000 	andeq	r0, r0, r0
     fc0:	01200407 			; <UNDEFINED> instruction: 0x01200407
     fc4:	83100000 	tsthi	r0, #0, 0
     fc8:	01000003 	tsteq	r0, r3
     fcc:	01200314 			; <UNDEFINED> instruction: 0x01200314
     fd0:	6b110000 	blvs	440fd8 <__bss_end__+0x436158>
     fd4:	01000003 	tsteq	r0, r3
     fd8:	01480f18 	cmpeq	r8, r8, lsl pc
     fdc:	03050000 	movweq	r0, #20480	; 0x5000
     fe0:	0000aa60 	andeq	sl, r0, r0, ror #20
     fe4:	00034b11 	andeq	r4, r3, r1, lsl fp
     fe8:	10190100 	andsne	r0, r9, r0, lsl #2
     fec:	00000178 	andeq	r0, r0, r8, ror r1
     ff0:	aa580305 	bge	1601c0c <__bss_end__+0x15f6d8c>
     ff4:	04070000 	streq	r0, [r7], #-0
     ff8:	00000148 	andeq	r0, r0, r8, asr #2
     ffc:	0002a412 	andeq	sl, r2, r2, lsl r4
    1000:	06530100 	ldrbeq	r0, [r3], -r0, lsl #2
    1004:	00008444 	andeq	r8, r0, r4, asr #8
    1008:	00000088 	andeq	r0, r0, r8, lsl #1
    100c:	01cd9c01 	biceq	r9, sp, r1, lsl #24
    1010:	61130000 	tstvs	r3, r0
    1014:	53010070 	movwpl	r0, #4208	; 0x1070
    1018:	0000f314 	andeq	pc, r0, r4, lsl r3	; <UNPREDICTABLE>
    101c:	00071200 	andeq	r1, r7, r0, lsl #4
    1020:	00070c00 	andeq	r0, r7, r0, lsl #24
    1024:	70621400 	rsbvc	r1, r2, r0, lsl #8
    1028:	0a550100 	beq	1541430 <__bss_end__+0x15365b0>
    102c:	00000178 	andeq	r0, r0, r8, ror r1
    1030:	00000744 	andeq	r0, r0, r4, asr #14
    1034:	00000740 	andeq	r0, r0, r0, asr #14
    1038:	01007014 	tsteq	r0, r4, lsl r0
    103c:	01780f55 	cmneq	r8, r5, asr pc
    1040:	07690000 	strbeq	r0, [r9, -r0]!
    1044:	07670000 	strbeq	r0, [r7, -r0]!
    1048:	15000000 	strne	r0, [r0, #-0]
    104c:	0000032e 	andeq	r0, r0, lr, lsr #6
    1050:	f3072b01 	vqrdmulh.s<illegal width 8>	d2, d7, d1
    1054:	cc000000 	stcgt	0, cr0, [r0], {-0}
    1058:	00000084 	andeq	r0, r0, r4, lsl #1
    105c:	01000001 	tsteq	r0, r1
    1060:	0002ad9c 	muleq	r2, ip, sp
    1064:	03271600 			; <UNDEFINED> instruction: 0x03271600
    1068:	2b010000 	blcs	41070 <__bss_end__+0x361f0>
    106c:	00002c1a 	andeq	r2, r0, sl, lsl ip
    1070:	00078400 	andeq	r8, r7, r0, lsl #8
    1074:	00077c00 	andeq	r7, r7, r0, lsl #24
    1078:	00701400 	rsbseq	r1, r0, r0, lsl #8
    107c:	780a2d01 	stmdavc	sl, {r0, r8, sl, fp, sp}
    1080:	ce000001 	cdpgt	0, 0, cr0, cr0, cr1, {0}
    1084:	be000007 	cdplt	0, 0, cr0, cr0, cr7, {0}
    1088:	17000007 	strne	r0, [r0, -r7]
    108c:	0000033f 	andeq	r0, r0, pc, lsr r3
    1090:	780e2d01 	stmdavc	lr, {r0, r8, sl, fp, sp}
    1094:	46000001 	strmi	r0, [r0], -r1
    1098:	3a000008 	bcc	10c0 <__code_start__-0x6f40>
    109c:	17000008 	strne	r0, [r0, -r8]
    10a0:	00000351 	andeq	r0, r0, r1, asr r3
    10a4:	2c0b2e01 	stccs	14, cr2, [fp], {1}
    10a8:	97000000 	strls	r0, [r0, -r0]
    10ac:	95000008 	strls	r0, [r0, #-8]
    10b0:	18000008 	stmdane	r0, {r3}
    10b4:	000002ad 	andeq	r0, r0, sp, lsr #5
    10b8:	00008524 	andeq	r8, r0, r4, lsr #10
    10bc:	0001e001 	andeq	lr, r1, r1
    10c0:	0d4a0100 	stfeqe	f0, [sl, #-0]
    10c4:	0002be19 	andeq	fp, r2, r9, lsl lr
    10c8:	0008ac00 	andeq	sl, r8, r0, lsl #24
    10cc:	0008aa00 	andeq	sl, r8, r0, lsl #20
    10d0:	01e01a00 	mvneq	r1, r0, lsl #20
    10d4:	c91b0000 	ldmdbgt	fp, {}	; <UNPREDICTABLE>
    10d8:	c6000002 	strgt	r0, [r0], -r2
    10dc:	c2000008 	andgt	r0, r0, #8, 0
    10e0:	1b000008 	blne	1108 <__code_start__-0x6ef8>
    10e4:	000002d4 	ldrdeq	r0, [r0], -r4
    10e8:	000008e8 	andeq	r0, r0, r8, ror #17
    10ec:	000008e4 	andeq	r0, r0, r4, ror #17
    10f0:	0085301c 	addeq	r3, r5, ip, lsl r0
    10f4:	0002e600 	andeq	lr, r2, r0, lsl #12
    10f8:	00028c00 	andeq	r8, r2, r0, lsl #24
    10fc:	50011d00 	andpl	r1, r1, r0, lsl #26
    1100:	1d007602 	stcne	6, cr7, [r0, #-8]
    1104:	77025101 	strvc	r5, [r2, -r1, lsl #2]
    1108:	381c0000 	ldmdacc	ip, {}	; <UNPREDICTABLE>
    110c:	f2000085 	vhadd.s8	d0, d16, d5
    1110:	a1000002 	tstge	r0, r2
    1114:	1d000002 	stcne	0, cr0, [r0, #-8]
    1118:	40035001 	andmi	r5, r3, r1
    111c:	1e00243e 	cfmvdhrne	mvd0, r2
    1120:	00008550 	andeq	r8, r0, r0, asr r5
    1124:	0000017e 	andeq	r0, r0, lr, ror r1
    1128:	1f000000 	svcne	0x00000000
    112c:	00000375 	andeq	r0, r0, r5, ror r3
    1130:	78101c01 	ldmdavc	r0, {r0, sl, fp, ip}
    1134:	01000001 	tsteq	r0, r1
    1138:	000002e0 	andeq	r0, r0, r0, ror #5
    113c:	00756e20 	rsbseq	r6, r5, r0, lsr #28
    1140:	2c221c01 	stccs	12, cr1, [r2], #-4
    1144:	21000000 	mrscs	r0, (UNDEF: 0)
    1148:	01007063 	tsteq	r0, r3, rrx
    114c:	02e00821 	rsceq	r0, r0, #2162688	; 0x210000
    1150:	75210000 	strvc	r0, [r1, #-0]!
    1154:	24010070 	strcs	r0, [r1], #-112	; 0xffffff90
    1158:	0001780a 	andeq	r7, r1, sl, lsl #16
    115c:	04070000 	streq	r0, [r7], #-0
    1160:	000000a1 	andeq	r0, r0, r1, lsr #1
    1164:	0004e922 	andeq	lr, r4, r2, lsr #18
    1168:	0004e900 	andeq	lr, r4, r0, lsl #18
    116c:	06280200 	strteq	r0, [r8], -r0, lsl #4
    1170:	00037022 	andeq	r7, r3, r2, lsr #32
    1174:	00037000 	andeq	r7, r3, r0
    1178:	0b1a0300 	bleq	681d80 <__bss_end__+0x676f00>
    117c:	000d7000 	andeq	r7, sp, r0
    1180:	37000400 	strcc	r0, [r0, -r0, lsl #8]
    1184:	04000007 	streq	r0, [r0], #-7
    1188:	0001a801 	andeq	sl, r1, r1, lsl #16
    118c:	04360c00 	ldrteq	r0, [r6], #-3072	; 0xfffff400
    1190:	01030000 	mrseq	r0, (UNDEF: 3)
    1194:	85cc0000 	strbhi	r0, [ip]
    1198:	05840000 	streq	r0, [r4]
    119c:	08240000 	stmdaeq	r4!, {}	; <UNPREDICTABLE>
    11a0:	04020000 	streq	r0, [r2], #-0
    11a4:	746e6905 	strbtvc	r6, [lr], #-2309	; 0xfffff6fb
    11a8:	07040300 	streq	r0, [r4, -r0, lsl #6]
    11ac:	00000154 	andeq	r0, r0, r4, asr r1
    11b0:	ec060103 	stfs	f0, [r6], {3}
    11b4:	03000000 	movweq	r0, #0
    11b8:	00490502 	subeq	r0, r9, r2, lsl #10
    11bc:	04030000 	streq	r0, [r3], #-0
    11c0:	00009f05 	andeq	r9, r0, r5, lsl #30
    11c4:	05080300 	streq	r0, [r8, #-768]	; 0xfffffd00
    11c8:	0000009a 	muleq	r0, sl, r0
    11cc:	00008d04 	andeq	r8, r0, r4, lsl #26
    11d0:	182e0300 	stmdane	lr!, {r8, r9}
    11d4:	0000005b 	andeq	r0, r0, fp, asr r0
    11d8:	ea080103 	b	2015ec <__bss_end__+0x1f676c>
    11dc:	04000000 	streq	r0, [r0], #-0
    11e0:	0000016a 	andeq	r0, r0, sl, ror #2
    11e4:	6e193103 	mufvse	f3, f1, f3
    11e8:	03000000 	movweq	r0, #0
    11ec:	017b0702 	cmneq	fp, r2, lsl #14
    11f0:	61040000 	mrsvs	r0, (UNDEF: 4)
    11f4:	03000001 	movweq	r0, #1
    11f8:	00811934 	addeq	r1, r1, r4, lsr r9
    11fc:	04030000 	streq	r0, [r3], #-0
    1200:	00014f07 	andeq	r4, r1, r7, lsl #30
    1204:	07080300 	streq	r0, [r8, -r0, lsl #6]
    1208:	0000014a 	andeq	r0, r0, sl, asr #2
    120c:	00002505 	andeq	r2, r0, r5, lsl #10
    1210:	00009e00 	andeq	r9, r0, r0, lsl #28
    1214:	00250600 	eoreq	r0, r5, r0, lsl #12
    1218:	07000000 	streq	r0, [r0, -r0]
    121c:	00000053 	andeq	r0, r0, r3, asr r0
    1220:	aa0e1c04 	bge	388238 <__bss_end__+0x37d3b8>
    1224:	08000000 	stmdaeq	r0, {}	; <UNPREDICTABLE>
    1228:	00008f04 	andeq	r8, r0, r4, lsl #30
    122c:	00250500 	eoreq	r0, r5, r0, lsl #10
    1230:	00bf0000 	adcseq	r0, pc, r0
    1234:	bf060000 	svclt	0x00060000
    1238:	00000000 	andeq	r0, r0, r0
    123c:	00cc0408 	sbceq	r0, ip, r8, lsl #8
    1240:	01030000 	mrseq	r0, (UNDEF: 3)
    1244:	0000f308 	andeq	pc, r0, r8, lsl #6
    1248:	00c50900 	sbceq	r0, r5, r0, lsl #18
    124c:	27070000 	strcs	r0, [r7, -r0]
    1250:	04000005 	streq	r0, [r0], #-5
    1254:	00dd0e21 	sbcseq	r0, sp, r1, lsr #28
    1258:	04080000 	streq	r0, [r8], #-0
    125c:	000000b0 	strheq	r0, [r0], -r0	; <UNPREDICTABLE>
    1260:	04020c0a 	streq	r0, [r2], #-3082	; 0xfffff3f6
    1264:	00011409 	andeq	r1, r1, r9, lsl #8
    1268:	006b0b00 	rsbeq	r0, fp, r0, lsl #22
    126c:	06020000 	streq	r0, [r2], -r0
    1270:	0000bf11 	andeq	fp, r0, r1, lsl pc
    1274:	950b0000 	strls	r0, [fp, #-0]
    1278:	02000000 	andeq	r0, r0, #0, 0
    127c:	00bf1107 	adcseq	r1, pc, r7, lsl #2
    1280:	0b040000 	bleq	101288 <__bss_end__+0xf6408>
    1284:	00000143 	andeq	r0, r0, r3, asr #2
    1288:	2c0e0802 	stccs	8, cr0, [lr], {2}
    128c:	08000000 	stmdaeq	r0, {}	; <UNPREDICTABLE>
    1290:	02840400 	addeq	r0, r4, #0, 8
    1294:	09020000 	stmdbeq	r2, {}	; <UNPREDICTABLE>
    1298:	0000e303 	andeq	lr, r0, r3, lsl #6
    129c:	01070c00 	tsteq	r7, r0, lsl #24
    12a0:	0000005b 	andeq	r0, r0, fp, asr r0
    12a4:	3b060a05 	blcc	183ac0 <__bss_end__+0x178c40>
    12a8:	0d000001 	stceq	0, cr0, [r0, #-4]
    12ac:	00000070 	andeq	r0, r0, r0, ror r0
    12b0:	005f0d80 	subseq	r0, pc, r0, lsl #27
    12b4:	00fe0000 	rscseq	r0, lr, r0
    12b8:	0000b20e 	andeq	fp, r0, lr, lsl #4
    12bc:	0d05a800 	stceq	8, cr10, [r5, #-0]
    12c0:	0001be10 	andeq	fp, r1, r0, lsl lr
    12c4:	027f0b00 	rsbseq	r0, pc, #0, 22
    12c8:	0e050000 	cdpeq	0, 0, cr0, cr5, cr0, {0}
    12cc:	0001be14 	andeq	fp, r1, r4, lsl lr
    12d0:	600b0000 	andvs	r0, fp, r0
    12d4:	05000002 	streq	r0, [r0, #-2]
    12d8:	00750e0f 	rsbseq	r0, r5, pc, lsl #28
    12dc:	0b040000 	bleq	1012e4 <__bss_end__+0xf6464>
    12e0:	00000037 	andeq	r0, r0, r7, lsr r0
    12e4:	750e1005 	strvc	r1, [lr, #-5]
    12e8:	08000000 	stmdaeq	r0, {}	; <UNPREDICTABLE>
    12ec:	00002e0b 	andeq	r2, r0, fp, lsl #28
    12f0:	0e140500 	cfmul32eq	mvfx0, mvfx4, mvfx0
    12f4:	00000075 	andeq	r0, r0, r5, ror r0
    12f8:	00c60b0c 	sbceq	r0, r6, ip, lsl #22
    12fc:	16050000 	strne	r0, [r5], -r0
    1300:	0001140f 	andeq	r1, r1, pc, lsl #8
    1304:	f80b1000 			; <UNDEFINED> instruction: 0xf80b1000
    1308:	05000000 	streq	r0, [r0, #-0]
    130c:	00750e19 	rsbseq	r0, r5, r9, lsl lr
    1310:	0b1c0000 	bleq	701318 <__bss_end__+0x6f6498>
    1314:	0000003d 	andeq	r0, r0, sp, lsr r0
    1318:	750e1a05 	strvc	r1, [lr, #-2565]	; 0xfffff5fb
    131c:	20000000 	andcs	r0, r0, r0
    1320:	0003cc0b 	andeq	ip, r3, fp, lsl #24
    1324:	0e1c0500 	cfmul32eq	mvfx0, mvfx12, mvfx0
    1328:	00000062 	andeq	r0, r0, r2, rrx
    132c:	7a720f24 	bvc	1c84fc4 <__bss_end__+0x1c7a144>
    1330:	1e050031 	mcrne	0, 0, r0, cr5, cr1, {1}
    1334:	0001c40d 	andeq	ip, r1, sp, lsl #8
    1338:	08002600 	stmdaeq	r0, {r9, sl, sp}
    133c:	00013b04 	andeq	r3, r1, r4, lsl #22
    1340:	004f1000 	subeq	r1, pc, r0
    1344:	01d40000 	bicseq	r0, r4, r0
    1348:	2c110000 	ldccs	0, cr0, [r1], {-0}
    134c:	7f000000 	svcvc	0x00000000
    1350:	00280400 	eoreq	r0, r8, r0, lsl #8
    1354:	1f050000 	svcne	0x00050000
    1358:	00013b03 	andeq	r3, r1, r3, lsl #22
    135c:	07041200 	streq	r1, [r4, -r0, lsl #4]
    1360:	000000dd 	ldrdeq	r0, [r0], -sp
    1364:	2c11a505 	cfldr32cs	mvfx10, [r1], {5}
    1368:	13000000 	movwne	r0, #0
    136c:	0000098f 	andeq	r0, r0, pc, lsl #19
    1370:	e00e1001 	and	r1, lr, r1
    1374:	05000001 	streq	r0, [r0, #-1]
    1378:	00aa6803 	adceq	r6, sl, r3, lsl #16
    137c:	09f01300 	ldmibeq	r0!, {r8, r9, ip}^
    1380:	11010000 	mrsne	r0, (UNDEF: 1)
    1384:	0001e00e 	andeq	lr, r1, lr
    1388:	6c030500 	cfstr32vs	mvfx0, [r3], {-0}
    138c:	140000aa 	strne	r0, [r0], #-170	; 0xffffff56
    1390:	0000039d 	muleq	r0, sp, r3
    1394:	06011501 	streq	r1, [r1], -r1, lsl #10
    1398:	00008b24 	andeq	r8, r0, r4, lsr #22
    139c:	0000002c 	andeq	r0, r0, ip, lsr #32
    13a0:	02729c01 	rsbseq	r9, r2, #256	; 0x100
    13a4:	b9150000 	ldmdblt	r5, {}	; <UNPREDICTABLE>
    13a8:	82000000 	andhi	r0, r0, #0, 0
    13ac:	05000002 	streq	r0, [r0, #-2]
    13b0:	00a6c003 	adceq	ip, r6, r3
    13b4:	8b3c1600 	blhi	f06bbc <__bss_end__+0xefbd3c>
    13b8:	0cec0000 	stcleq	0, cr0, [ip]
    13bc:	02680000 	rsbeq	r0, r8, #0, 0
    13c0:	01170000 	tsteq	r7, r0
    13c4:	50030550 	andpl	r0, r3, r0, asr r5
    13c8:	170000a6 	strne	r0, [r0, -r6, lsr #1]
    13cc:	03055101 	movweq	r5, #20737	; 0x5101
    13d0:	0000a368 	andeq	sl, r0, r8, ror #6
    13d4:	05520117 	ldrbeq	r0, [r2, #-279]	; 0xfffffee9
    13d8:	00a6c003 	adceq	ip, r6, r3
    13dc:	53011700 	movwpl	r1, #5888	; 0x1700
    13e0:	01170a03 	tsteq	r7, r3, lsl #20
    13e4:	8b401800 	blhi	10073ec <__bss_end__+0xffc56c>
    13e8:	0cf80000 	ldcleq	0, cr0, [r8]
    13ec:	10000000 	andne	r0, r0, r0
    13f0:	000000cc 	andeq	r0, r0, ip, asr #1
    13f4:	00000282 	andeq	r0, r0, r2, lsl #5
    13f8:	00002c11 	andeq	r2, r0, r1, lsl ip
    13fc:	09000e00 	stmdbeq	r0, {r9, sl, fp}
    1400:	00000272 	andeq	r0, r0, r2, ror r2
    1404:	0003ec19 	andeq	lr, r3, r9, lsl ip
    1408:	010b0100 	mrseq	r0, (UNDEF: 27)
    140c:	00002c0a 	andeq	r2, r0, sl, lsl #24
    1410:	008a2400 	addeq	r2, sl, r0, lsl #8
    1414:	00010000 	andeq	r0, r1, r0
    1418:	159c0100 	ldrne	r0, [ip, #256]	; 0x100
    141c:	1a000004 	bne	1434 <__code_start__-0x6bcc>
    1420:	00000327 	andeq	r0, r0, r7, lsr #6
    1424:	0e010e01 	cdpeq	14, 0, cr0, cr1, cr1, {0}
    1428:	0000002c 	andeq	r0, r0, ip, lsr #32
    142c:	00000908 	andeq	r0, r0, r8, lsl #18
    1430:	00000906 	andeq	r0, r0, r6, lsl #18
    1434:	0004151b 	andeq	r1, r4, fp, lsl r5
    1438:	008a3000 	addeq	r3, sl, r0
    143c:	03080100 	movweq	r0, #33024	; 0x8100
    1440:	0e010000 	cdpeq	0, 0, cr0, cr1, cr0, {0}
    1444:	040b1701 	streq	r1, [fp], #-1793	; 0xfffff8ff
    1448:	081c0000 	ldmdaeq	ip, {}	; <UNPREDICTABLE>
    144c:	1d000003 	stcne	0, cr0, [r0, #-12]
    1450:	00000426 	andeq	r0, r0, r6, lsr #8
    1454:	00000923 	andeq	r0, r0, r3, lsr #18
    1458:	0000091b 	andeq	r0, r0, fp, lsl r9
    145c:	0004321d 	andeq	r3, r4, sp, lsl r2
    1460:	00096100 	andeq	r6, r9, r0, lsl #2
    1464:	00095900 	andeq	r5, r9, r0, lsl #18
    1468:	043e1d00 	ldrteq	r1, [lr], #-3328	; 0xfffff300
    146c:	09a10000 	stmibeq	r1!, {}	; <UNPREDICTABLE>
    1470:	09970000 	ldmibeq	r7, {}	; <UNPREDICTABLE>
    1474:	591e0000 	ldmdbpl	lr, {}	; <UNPREDICTABLE>
    1478:	20000004 	andcs	r0, r0, r4
    147c:	ad000003 	stcge	0, cr0, [r0, #-12]
    1480:	1d000003 	stcne	0, cr0, [r0, #-12]
    1484:	0000045a 	andeq	r0, r0, sl, asr r4
    1488:	000009ee 	andeq	r0, r0, lr, ror #19
    148c:	000009e2 	andeq	r0, r0, r2, ror #19
    1490:	000adc1b 	andeq	sp, sl, fp, lsl ip
    1494:	008af000 	addeq	pc, sl, r0
    1498:	03400200 	movteq	r0, #512	; 0x200
    149c:	01010000 	mrseq	r0, (UNDEF: 1)
    14a0:	03510d01 	cmpeq	r1, #64	; 0x40
    14a4:	051f0000 	ldreq	r0, [pc, #-0]	; 14ac <__code_start__-0x6b54>
    14a8:	3d00000b 	stccc	0, cr0, [r0, #-44]	; 0xffffffd4
    14ac:	3b00000a 	blcc	14dc <__code_start__-0x6b24>
    14b0:	1f00000a 	svcne	0x0000000a
    14b4:	00000af9 	strdeq	r0, [r0], -r9
    14b8:	00000a55 	andeq	r0, r0, r5, asr sl
    14bc:	00000a53 	andeq	r0, r0, r3, asr sl
    14c0:	000aed1f 	andeq	lr, sl, pc, lsl sp
    14c4:	000a6f00 	andeq	r6, sl, r0, lsl #30
    14c8:	000a6d00 	andeq	r6, sl, r0, lsl #26
    14cc:	48180000 	ldmdami	r8, {}	; <UNPREDICTABLE>
    14d0:	1300008a 	movwne	r0, #138	; 0x8a
    14d4:	1600000d 	strne	r0, [r0], -sp
    14d8:	00008a80 	andeq	r8, r0, r0, lsl #21
    14dc:	00000d1f 	andeq	r0, r0, pc, lsl sp
    14e0:	0000036e 	andeq	r0, r0, lr, ror #6
    14e4:	02500117 	subseq	r0, r0, #-1073741819	; 0xc0000005
    14e8:	16000074 			; <UNDEFINED> instruction: 0x16000074
    14ec:	00008ad4 	ldrdeq	r8, [r0], -r4
    14f0:	00000d2b 	andeq	r0, r0, fp, lsr #26
    14f4:	00000382 	andeq	r0, r0, r2, lsl #7
    14f8:	02500117 	subseq	r0, r0, #-1073741819	; 0xc0000005
    14fc:	1600007b 			; <UNDEFINED> instruction: 0x1600007b
    1500:	00008ae0 	andeq	r8, r0, r0, ror #21
    1504:	00000cec 	andeq	r0, r0, ip, ror #25
    1508:	0000039c 	muleq	r0, ip, r3
    150c:	02500117 	subseq	r0, r0, #-1073741819	; 0xc0000005
    1510:	01170078 	tsteq	r7, r8, ror r0
    1514:	007b0251 	rsbseq	r0, fp, r1, asr r2
    1518:	8ae82000 	bhi	ffa09520 <__bss_end__+0xff9fe6a0>
    151c:	0d1f0000 	ldceq	0, cr0, [pc, #-0]	; 1524 <__code_start__-0x6adc>
    1520:	01170000 	tsteq	r7, r0
    1524:	00740250 	rsbseq	r0, r4, r0, asr r2
    1528:	38160000 	ldmdacc	r6, {}	; <UNPREDICTABLE>
    152c:	ec00008a 	stc	0, cr0, [r0], {138}	; 0x8a
    1530:	c400000c 	strgt	r0, [r0], #-12
    1534:	17000003 	strne	r0, [r0, -r3]
    1538:	03055001 	movweq	r5, #20481	; 0x5001
    153c:	0000a400 	andeq	sl, r0, r0, lsl #8
    1540:	8a401600 	bhi	1006d48 <__bss_end__+0xffbec8>
    1544:	0cec0000 	stcleq	0, cr0, [ip]
    1548:	03db0000 	bicseq	r0, fp, #0, 0
    154c:	01170000 	tsteq	r7, r0
    1550:	fc030550 	stc2	5, cr0, [r3], {80}	; 0x50
    1554:	000000a5 	andeq	r0, r0, r5, lsr #1
    1558:	008a4418 	addeq	r4, sl, r8, lsl r4
    155c:	0007ef00 	andeq	lr, r7, r0, lsl #30
    1560:	8a9c2000 	bhi	fe709568 <__bss_end__+0xfe6fe6e8>
    1564:	0cec0000 	stcleq	0, cr0, [ip]
    1568:	01170000 	tsteq	r7, r0
    156c:	1c030550 	cfstr32ne	mvfx0, [r3], {80}	; 0x50
    1570:	170000a6 	strne	r0, [r0, -r6, lsr #1]
    1574:	76025101 	strvc	r5, [r2], -r1, lsl #2
    1578:	52011700 	andpl	r1, r1, #0, 14
    157c:	17007702 	strne	r7, [r0, -r2, lsl #14]
    1580:	75025301 	strvc	r5, [r2, #-769]	; 0xfffffcff
    1584:	00000000 	andeq	r0, r0, r0
    1588:	008a3018 	addeq	r3, sl, r8, lsl r0
    158c:	0007ef00 	andeq	lr, r7, r0, lsl #30
    1590:	89210000 	stmdbhi	r1!, {}	; <UNPREDICTABLE>
    1594:	01000004 	tsteq	r0, r4
    1598:	002c11f3 	strdeq	r1, [ip], -r3	; <UNPREDICTABLE>
    159c:	66010000 	strvs	r0, [r1], -r0
    15a0:	22000004 	andcs	r0, r0, #4, 0
    15a4:	000003ac 	andeq	r0, r0, ip, lsr #7
    15a8:	2c0ef501 	cfstr32cs	mvfx15, [lr], {1}
    15ac:	22000000 	andcs	r0, r0, #0, 0
    15b0:	00000421 	andeq	r0, r0, r1, lsr #8
    15b4:	2c1bf501 	cfldr32cs	mvfx15, [fp], {1}
    15b8:	22000000 	andcs	r0, r0, #0, 0
    15bc:	000003bb 			; <UNDEFINED> instruction: 0x000003bb
    15c0:	2c27f501 	cfstr32cs	mvfx15, [r7], #-4
    15c4:	15000000 	strne	r0, [r0, #-0]
    15c8:	000000b9 	strheq	r0, [r0], -r9
    15cc:	00000476 	andeq	r0, r0, r6, ror r4
    15d0:	a6b40305 	ldrtge	r0, [r4], r5, lsl #6
    15d4:	24230000 	strtcs	r0, [r3], #-0
    15d8:	fa010068 	blx	41780 <__bss_end__+0x36900>
    15dc:	00047b11 	andeq	r7, r4, r1, lsl fp
    15e0:	10000000 	andne	r0, r0, r0
    15e4:	000000cc 	andeq	r0, r0, ip, asr #1
    15e8:	00000476 	andeq	r0, r0, r6, ror r4
    15ec:	00002c11 	andeq	r2, r0, r1, lsl ip
    15f0:	09000a00 	stmdbeq	r0, {r9, fp}
    15f4:	00000466 	andeq	r0, r0, r6, ror #8
    15f8:	01d40408 	bicseq	r0, r4, r8, lsl #8
    15fc:	3e250000 	cdpcc	0, 2, cr0, cr5, cr0, {0}
    1600:	01000004 	tsteq	r0, r4
    1604:	002c0ae3 	eoreq	r0, ip, r3, ror #21
    1608:	89d40000 	ldmibhi	r4, {}^	; <UNPREDICTABLE>
    160c:	00500000 	subseq	r0, r0, r0
    1610:	9c010000 	stcls	0, cr0, [r1], {-0}
    1614:	0000054a 	andeq	r0, r0, sl, asr #10
    1618:	0003fc26 	andeq	pc, r3, r6, lsr #24
    161c:	0ee90100 	cdpeq	1, 14, cr0, cr9, cr0, {0}
    1620:	0000002c 	andeq	r0, r0, ip, lsr #32
    1624:	00000a8d 	andeq	r0, r0, sp, lsl #21
    1628:	00000a87 	andeq	r0, r0, r7, lsl #21
    162c:	0000b915 	andeq	fp, r0, r5, lsl r9
    1630:	00055a00 	andeq	r5, r5, r0, lsl #20
    1634:	a0030500 	andge	r0, r3, r0, lsl #10
    1638:	270000a6 	strcs	r0, [r0, -r6, lsr #1]
    163c:	0000061f 	andeq	r0, r0, pc, lsl r6
    1640:	000089d8 	ldrdeq	r8, [r0], -r8	; <UNPREDICTABLE>
    1644:	0089d802 	addeq	sp, r9, r2, lsl #16
    1648:	00000800 	andeq	r0, r0, r0, lsl #16
    164c:	17e90100 	strbne	r0, [r9, r0, lsl #2]!
    1650:	000004f4 	strdeq	r0, [r0], -r4
    1654:	0006301f 	andeq	r3, r6, pc, lsl r0
    1658:	000ab800 	andeq	fp, sl, r0, lsl #16
    165c:	000ab600 	andeq	fp, sl, r0, lsl #12
    1660:	89e02000 	stmibhi	r0!, {sp}^
    1664:	063d0000 	ldrteq	r0, [sp], -r0
    1668:	01170000 	tsteq	r7, r0
    166c:	00310150 	eorseq	r0, r1, r0, asr r1
    1670:	89f41600 	ldmibhi	r4!, {r9, sl, ip}^
    1674:	0cec0000 	stcleq	0, cr0, [ip]
    1678:	05110000 	ldreq	r0, [r1, #-0]
    167c:	01170000 	tsteq	r7, r0
    1680:	d8030550 	stmdale	r3, {r4, r6, r8, sl}
    1684:	170000a5 	strne	r0, [r0, -r5, lsr #1]
    1688:	74025101 	strvc	r5, [r2], #-257	; 0xfffffeff
    168c:	10160000 	andsne	r0, r6, r0
    1690:	ec00008a 	stc	0, cr0, [r0], {138}	; 0x8a
    1694:	4000000c 	andmi	r0, r0, ip
    1698:	17000005 	strne	r0, [r0, -r5]
    169c:	03055001 	movweq	r5, #20481	; 0x5001
    16a0:	0000a5b0 			; <UNDEFINED> instruction: 0x0000a5b0
    16a4:	05510117 	ldrbeq	r0, [r1, #-279]	; 0xfffffee9
    16a8:	00a36803 	adceq	r6, r3, r3, lsl #16
    16ac:	52011700 	andpl	r1, r1, #0, 14
    16b0:	a6a00305 	strtge	r0, [r0], r5, lsl #6
    16b4:	01170000 	tsteq	r7, r0
    16b8:	eb080253 	bl	20200c <__bss_end__+0x1f718c>
    16bc:	8a141800 	bhi	5076c4 <__bss_end__+0x4fc844>
    16c0:	0cf80000 	ldcleq	0, cr0, [r8]
    16c4:	10000000 	andne	r0, r0, r0
    16c8:	000000cc 	andeq	r0, r0, ip, asr #1
    16cc:	0000055a 	andeq	r0, r0, sl, asr r5
    16d0:	00002c11 	andeq	r2, r0, r1, lsl ip
    16d4:	09001100 	stmdbeq	r0, {r8, ip}
    16d8:	0000054a 	andeq	r0, r0, sl, asr #10
    16dc:	00013528 	andeq	r3, r1, r8, lsr #10
    16e0:	06d50100 	ldrbeq	r0, [r5], r0, lsl #2
    16e4:	0000898c 	andeq	r8, r0, ip, lsl #19
    16e8:	00000048 	andeq	r0, r0, r8, asr #32
    16ec:	060a9c01 	streq	r9, [sl], -r1, lsl #24
    16f0:	b9150000 	ldmdblt	r5, {}	; <UNPREDICTABLE>
    16f4:	1a000000 	bne	16fc <__code_start__-0x6904>
    16f8:	05000006 	streq	r0, [r0, #-6]
    16fc:	00a69003 	adceq	r9, r6, r3
    1700:	061f2700 	ldreq	r2, [pc], -r0, lsl #14
    1704:	89900000 	ldmibhi	r0, {}	; <UNPREDICTABLE>
    1708:	90020000 	andls	r0, r2, r0
    170c:	08000089 	stmdaeq	r0, {r0, r3, r7}
    1710:	01000000 	mrseq	r0, (UNDEF: 0)
    1714:	05ba09db 	ldreq	r0, [sl, #2523]!	; 0x9db
    1718:	301f0000 	andscc	r0, pc, r0
    171c:	ce000006 	cdpgt	0, 0, cr0, cr0, cr6, {0}
    1720:	cc00000a 	stcgt	0, cr0, [r0], {10}
    1724:	2000000a 	andcs	r0, r0, sl
    1728:	00008998 	muleq	r0, r8, r9
    172c:	0000063d 	andeq	r0, r0, sp, lsr r6
    1730:	01500117 	cmpeq	r0, r7, lsl r1
    1734:	16000031 			; <UNDEFINED> instruction: 0x16000031
    1738:	000089a8 	andeq	r8, r0, r8, lsr #19
    173c:	00000cec 	andeq	r0, r0, ip, ror #25
    1740:	000005d1 	ldrdeq	r0, [r0], -r1
    1744:	05500117 	ldrbeq	r0, [r0, #-279]	; 0xfffffee9
    1748:	00a59003 	adceq	r9, r5, r3
    174c:	c0160000 	andsgt	r0, r6, r0
    1750:	ec000089 	stc	0, cr0, [r0], {137}	; 0x89
    1754:	0000000c 	andeq	r0, r0, ip
    1758:	17000006 	strne	r0, [r0, -r6]
    175c:	03055001 	movweq	r5, #20481	; 0x5001
    1760:	0000a564 	andeq	sl, r0, r4, ror #10
    1764:	05510117 	ldrbeq	r0, [r1, #-279]	; 0xfffffee9
    1768:	00a36803 	adceq	r6, r3, r3, lsl #16
    176c:	52011700 	andpl	r1, r1, #0, 14
    1770:	a6900305 	ldrge	r0, [r0], r5, lsl #6
    1774:	01170000 	tsteq	r7, r0
    1778:	dc080253 	sfmle	f0, 4, [r8], {83}	; 0x53
    177c:	89c41800 	stmibhi	r4, {fp, ip}^
    1780:	0cf80000 	ldcleq	0, cr0, [r8]
    1784:	10000000 	andne	r0, r0, r0
    1788:	000000cc 	andeq	r0, r0, ip, asr #1
    178c:	0000061a 	andeq	r0, r0, sl, lsl r6
    1790:	00002c11 	andeq	r2, r0, r1, lsl ip
    1794:	09000d00 	stmdbeq	r0, {r8, sl, fp}
    1798:	0000060a 	andeq	r0, r0, sl, lsl #12
    179c:	0003d129 	andeq	sp, r3, r9, lsr #2
    17a0:	0ace0100 	beq	ff381ba8 <__bss_end__+0xff376d28>
    17a4:	0000002c 	andeq	r0, r0, ip, lsr #32
    17a8:	00063d01 	andeq	r3, r6, r1, lsl #26
    17ac:	04942a00 	ldreq	r2, [r4], #2560	; 0xa00
    17b0:	ce010000 	cdpgt	0, 0, cr0, cr1, cr0, {0}
    17b4:	0000251c 	andeq	r2, r0, ip, lsl r5
    17b8:	6f2b0000 	svcvs	0x002b0000
    17bc:	01000004 	tsteq	r0, r4
    17c0:	002c11a5 	eoreq	r1, ip, r5, lsr #3
    17c4:	87cc0000 	strbhi	r0, [ip, r0]
    17c8:	01200000 			; <UNDEFINED> instruction: 0x01200000
    17cc:	9c010000 	stcls	0, cr0, [r1], {-0}
    17d0:	000007ef 	andeq	r0, r0, pc, ror #15
    17d4:	0004942c 	andeq	r9, r4, ip, lsr #8
    17d8:	20a50100 	adccs	r0, r5, r0, lsl #2
    17dc:	00000025 	andeq	r0, r0, r5, lsr #32
    17e0:	00000ae6 	andeq	r0, r0, r6, ror #21
    17e4:	00000ae2 	andeq	r0, r0, r2, ror #21
    17e8:	0003ac26 	andeq	sl, r3, r6, lsr #24
    17ec:	0ea70100 	fdveqs	f0, f7, f0
    17f0:	0000002c 	andeq	r0, r0, ip, lsr #32
    17f4:	00000b0c 	andeq	r0, r0, ip, lsl #22
    17f8:	00000b04 	andeq	r0, r0, r4, lsl #22
    17fc:	0003e526 	andeq	lr, r3, r6, lsr #10
    1800:	1ba70100 	blne	fe9c1c08 <__bss_end__+0xfe9b6d88>
    1804:	0000002c 	andeq	r0, r0, ip, lsr #32
    1808:	00000b4a 	andeq	r0, r0, sl, asr #22
    180c:	00000b42 	andeq	r0, r0, r2, asr #22
    1810:	0003df26 	andeq	sp, r3, r6, lsr #30
    1814:	27a70100 	strcs	r0, [r7, r0, lsl #2]!
    1818:	0000002c 	andeq	r0, r0, ip, lsr #32
    181c:	00000b88 	andeq	r0, r0, r8, lsl #23
    1820:	00000b80 	andeq	r0, r0, r0, lsl #23
    1824:	0002c82d 	andeq	ip, r2, sp, lsr #16
    1828:	00073000 	andeq	r3, r7, r0
    182c:	00682e00 	rsbeq	r2, r8, r0, lsl #28
    1830:	7b11ac01 	blvc	46c83c <__bss_end__+0x4619bc>
    1834:	d4000004 	strle	r0, [r0], #-4
    1838:	be00000b 	cdplt	0, 0, cr0, cr0, cr11, {0}
    183c:	1800000b 	stmdane	r0, {r0, r1, r3}
    1840:	000087ec 	andeq	r8, r0, ip, ror #15
    1844:	00000d13 	andeq	r0, r0, r3, lsl sp
    1848:	00881c16 	addeq	r1, r8, r6, lsl ip
    184c:	000d1f00 	andeq	r1, sp, r0, lsl #30
    1850:	0006df00 	andeq	sp, r6, r0, lsl #30
    1854:	50011700 	andpl	r1, r1, r0, lsl #14
    1858:	00007402 	andeq	r7, r0, r2, lsl #8
    185c:	00884416 	addeq	r4, r8, r6, lsl r4
    1860:	000cec00 	andeq	lr, ip, r0, lsl #24
    1864:	0006ff00 	andeq	pc, r6, r0, lsl #30
    1868:	50011700 	andpl	r1, r1, r0, lsl #14
    186c:	17007902 	strne	r7, [r0, -r2, lsl #18]
    1870:	75025101 	strvc	r5, [r2, #-257]	; 0xfffffeff
    1874:	52011700 	andpl	r1, r1, #0, 14
    1878:	00007402 	andeq	r7, r0, r2, lsl #8
    187c:	00884c16 	addeq	r4, r8, r6, lsl ip
    1880:	000d1f00 	andeq	r1, sp, r0, lsl #30
    1884:	00071300 	andeq	r1, r7, r0, lsl #6
    1888:	50011700 	andpl	r1, r1, r0, lsl #14
    188c:	00007402 	andeq	r7, r0, r2, lsl #8
    1890:	0088a820 	addeq	sl, r8, r0, lsr #16
    1894:	000cec00 	andeq	lr, ip, r0, lsl #24
    1898:	50011700 	andpl	r1, r1, r0, lsl #14
    189c:	17007a02 	strne	r7, [r0, -r2, lsl #20]
    18a0:	75025101 	strvc	r5, [r2, #-257]	; 0xfffffeff
    18a4:	52011700 	andpl	r1, r1, #0, 14
    18a8:	00007402 	andeq	r7, r0, r2, lsl #8
    18ac:	87dc1600 	ldrbhi	r1, [ip, r0, lsl #12]
    18b0:	0cec0000 	stcleq	0, cr0, [ip]
    18b4:	07470000 	strbeq	r0, [r7, -r0]
    18b8:	01170000 	tsteq	r7, r0
    18bc:	00030550 	andeq	r0, r3, r0, asr r5
    18c0:	000000a4 	andeq	r0, r0, r4, lsr #1
    18c4:	0087e416 	addeq	lr, r7, r6, lsl r4
    18c8:	000cec00 	andeq	lr, ip, r0, lsl #24
    18cc:	00075e00 	andeq	r5, r7, r0, lsl #28
    18d0:	50011700 	andpl	r1, r1, r0, lsl #14
    18d4:	a43c0305 	ldrtge	r0, [ip], #-773	; 0xfffffcfb
    18d8:	18000000 	stmdane	r0, {}	; <UNPREDICTABLE>
    18dc:	000087e8 	andeq	r8, r0, r8, ror #15
    18e0:	000007ef 	andeq	r0, r0, pc, ror #15
    18e4:	00886416 	addeq	r6, r8, r6, lsl r4
    18e8:	000cec00 	andeq	lr, ip, r0, lsl #24
    18ec:	00078400 	andeq	r8, r7, r0, lsl #8
    18f0:	50011700 	andpl	r1, r1, r0, lsl #14
    18f4:	a4800305 	strge	r0, [r0], #773	; 0x305
    18f8:	01170000 	tsteq	r7, r0
    18fc:	00750251 	rsbseq	r0, r5, r1, asr r2
    1900:	887c1600 	ldmdahi	ip!, {r9, sl, ip}^
    1904:	0cec0000 	stcleq	0, cr0, [ip]
    1908:	07a70000 	streq	r0, [r7, r0]!
    190c:	01170000 	tsteq	r7, r0
    1910:	c8030550 	stmdagt	r3, {r4, r6, r8, sl}
    1914:	170000a4 	strne	r0, [r0, -r4, lsr #1]
    1918:	76025101 	strvc	r5, [r2], -r1, lsl #2
    191c:	52011700 	andpl	r1, r1, #0, 14
    1920:	00007702 	andeq	r7, r0, r2, lsl #14
    1924:	00888416 	addeq	r8, r8, r6, lsl r4
    1928:	000cec00 	andeq	lr, ip, r0, lsl #24
    192c:	0007be00 	andeq	fp, r7, r0, lsl #28
    1930:	50011700 	andpl	r1, r1, r0, lsl #14
    1934:	a4f80305 	ldrbtge	r0, [r8], #773	; 0x305
    1938:	16000000 	strne	r0, [r0], -r0
    193c:	000088b8 			; <UNDEFINED> instruction: 0x000088b8
    1940:	00000cec 	andeq	r0, r0, ip, ror #25
    1944:	000007db 	ldrdeq	r0, [r0], -fp
    1948:	05500117 	ldrbeq	r0, [r0, #-279]	; 0xfffffee9
    194c:	00a48003 	adceq	r8, r4, r3
    1950:	51011700 	tstpl	r1, r0, lsl #14
    1954:	00007402 	andeq	r7, r0, r2, lsl #8
    1958:	0088c820 	addeq	ip, r8, r0, lsr #16
    195c:	000cec00 	andeq	lr, ip, r0, lsl #24
    1960:	50011700 	andpl	r1, r1, r0, lsl #14
    1964:	a4a00305 	strtge	r0, [r0], #773	; 0x305
    1968:	00000000 	andeq	r0, r0, r0
    196c:	0003942f 	andeq	r9, r3, pc, lsr #8
    1970:	0d790100 	ldfeqe	f0, [r9, #-0]
    1974:	00008728 	andeq	r8, r0, r8, lsr #14
    1978:	000000a4 	andeq	r0, r0, r4, lsr #1
    197c:	08f79c01 	ldmeq	r7!, {r0, sl, fp, ip, pc}^
    1980:	f7130000 			; <UNDEFINED> instruction: 0xf7130000
    1984:	01000003 	tsteq	r0, r3
    1988:	08f70e85 	ldmeq	r7!, {r0, r2, r7, r9, sl, fp}^
    198c:	91030000 	mrsls	r0, (UNDEF: 3)
    1990:	8a307fb8 	bhi	c21878 <__bss_end__+0xc169f8>
    1994:	01000003 	tsteq	r0, r3
    1998:	09070f96 	stmdbeq	r7, {r1, r2, r4, r7, r8, r9, sl, fp}
    199c:	00000000 	andeq	r0, r0, r0
    19a0:	7f070800 	svcvc	0x00070800
    19a4:	01000000 	mrseq	r0, (UNDEF: 0)
    19a8:	0075159b 			; <UNDEFINED> instruction: 0x0075159b
    19ac:	9c070000 	stcls	0, cr0, [r7], {-0}
    19b0:	01000001 	tsteq	r0, r1
    19b4:	0075249b 			; <UNDEFINED> instruction: 0x0075249b
    19b8:	7a070000 	bvc	1c19c0 <__bss_end__+0x1b6b40>
    19bc:	01000004 	tsteq	r0, r4
    19c0:	0075159e 			; <UNDEFINED> instruction: 0x0075159e
    19c4:	0d070000 	stceq	0, cr0, [r7, #-0]
    19c8:	01000004 	tsteq	r0, r4
    19cc:	0075259e 			; <UNDEFINED> instruction: 0x0075259e
    19d0:	b02d0000 	eorlt	r0, sp, r0
    19d4:	83000002 	movwhi	r0, #2
    19d8:	2e000008 	cdpcs	0, 0, cr0, cr0, cr8, {0}
    19dc:	7e010068 	cdpvc	0, 0, cr0, cr1, cr8, {3}
    19e0:	00047b11 	andeq	r7, r4, r1, lsl fp
    19e4:	000c5900 	andeq	r5, ip, r0, lsl #18
    19e8:	000c5500 	andeq	r5, ip, r0, lsl #10
    19ec:	87341800 	ldrhi	r1, [r4, -r0, lsl #16]!
    19f0:	0d130000 	ldceq	0, cr0, [r3, #-0]
    19f4:	50180000 	andspl	r0, r8, r0
    19f8:	1f000087 	svcne	0x00000087
    19fc:	0000000d 	andeq	r0, r0, sp
    1a00:	00876016 	addeq	r6, r7, r6, lsl r0
    1a04:	000d3700 	andeq	r3, sp, r0, lsl #14
    1a08:	00089700 	andeq	r9, r8, r0, lsl #14
    1a0c:	50011700 	andpl	r1, r1, r0, lsl #14
    1a10:	00007d02 	andeq	r7, r0, r2, lsl #26
    1a14:	00877c16 	addeq	r7, r7, r6, lsl ip
    1a18:	00090d00 	andeq	r0, r9, r0, lsl #26
    1a1c:	0008b100 	andeq	fp, r8, r0, lsl #2
    1a20:	50011700 	andpl	r1, r1, r0, lsl #14
    1a24:	17007d02 	strne	r7, [r0, -r2, lsl #26]
    1a28:	91025101 	tstls	r2, r1, lsl #2
    1a2c:	8c160068 	ldchi	0, cr0, [r6], {104}	; 0x68
    1a30:	ec000087 	stc	0, cr0, [r0], {135}	; 0x87
    1a34:	cf00000c 	svcgt	0x0000000c
    1a38:	17000008 	strne	r0, [r0, -r8]
    1a3c:	03055001 	movweq	r5, #20481	; 0x5001
    1a40:	0000a3e4 	andeq	sl, r0, r4, ror #7
    1a44:	03520117 	cmpeq	r2, #-1073741819	; 0xc0000005
    1a48:	00244740 	eoreq	r4, r4, r0, asr #14
    1a4c:	00879816 	addeq	r9, r7, r6, lsl r8
    1a50:	00090d00 	andeq	r0, r9, r0, lsl #26
    1a54:	0008e400 	andeq	lr, r8, r0, lsl #8
    1a58:	51011700 	tstpl	r1, r0, lsl #14
    1a5c:	24474003 	strbcs	r4, [r7], #-3
    1a60:	87a41800 	strhi	r1, [r4, r0, lsl #16]!
    1a64:	090d0000 	stmdbeq	sp, {}	; <UNPREDICTABLE>
    1a68:	b0180000 	andslt	r0, r8, r0
    1a6c:	0d000087 	stceq	0, cr0, [r0, #-540]	; 0xfffffde4
    1a70:	00000009 	andeq	r0, r0, r9
    1a74:	00007510 	andeq	r7, r0, r0, lsl r5
    1a78:	00090700 	andeq	r0, r9, r0, lsl #14
    1a7c:	002c1100 	eoreq	r1, ip, r0, lsl #2
    1a80:	000f0000 	andeq	r0, pc, r0
    1a84:	00750408 	rsbseq	r0, r5, r8, lsl #8
    1a88:	cc310000 	ldcgt	0, cr0, [r1], #-0
    1a8c:	01000003 	tsteq	r0, r3
    1a90:	70010d50 	andvc	r0, r1, r0, asr sp
    1a94:	32000009 	andcc	r0, r0, #9, 0
    1a98:	50010070 	andpl	r0, r1, r0, ror r0
    1a9c:	0009071c 	andeq	r0, r9, ip, lsl r7
    1aa0:	00653200 	rsbeq	r3, r5, r0, lsl #4
    1aa4:	07295001 	streq	r5, [r9, -r1]!
    1aa8:	15000009 	strne	r0, [r0, #-9]
    1aac:	000000b9 	strheq	r0, [r0], -r9
    1ab0:	00000980 	andeq	r0, r0, r0, lsl #19
    1ab4:	a6800305 	strge	r0, [r0], r5, lsl #6
    1ab8:	24230000 	strtcs	r0, [r3], #-0
    1abc:	58010069 	stmdapl	r1, {r0, r3, r5, r6}
    1ac0:	00090714 	andeq	r0, r9, r4, lsl r7
    1ac4:	62242300 	eorvs	r2, r4, #0, 6
    1ac8:	105a0100 	subsne	r0, sl, r0, lsl #2
    1acc:	0000047b 	andeq	r0, r0, fp, ror r4
    1ad0:	78652423 	stmdavc	r5!, {r0, r1, r5, sl, sp}^
    1ad4:	5d010070 	stcpl	0, cr0, [r1, #-448]	; 0xfffffe40
    1ad8:	00007516 	andeq	r7, r0, r6, lsl r5
    1adc:	03c82200 	biceq	r2, r8, #0, 4
    1ae0:	5e010000 	cdppl	0, 0, cr0, cr1, cr0, {0}
    1ae4:	00006216 	andeq	r6, r0, r6, lsl r2
    1ae8:	00000000 	andeq	r0, r0, r0
    1aec:	00cc1000 	sbceq	r1, ip, r0
    1af0:	09800000 	stmibeq	r0, {}	; <UNPREDICTABLE>
    1af4:	2c110000 	ldccs	0, cr0, [r1], {-0}
    1af8:	04000000 	streq	r0, [r0], #-0
    1afc:	09700900 	ldmdbeq	r0!, {r8, fp}^
    1b00:	1a210000 	bne	841b08 <__bss_end__+0x836c88>
    1b04:	01000004 	tsteq	r0, r4
    1b08:	047b0f3c 	ldrbteq	r0, [fp], #-3900	; 0xfffff0c4
    1b0c:	ad010000 	stcge	0, cr0, [r1, #-0]
    1b10:	2a000009 	bcs	1b3c <__code_start__-0x64c4>
    1b14:	000009a6 	andeq	r0, r0, r6, lsr #19
    1b18:	751f3c01 	ldrvc	r3, [pc, #-3073]	; f1f <__code_start__-0x70e1>
    1b1c:	24000000 	strcs	r0, [r0], #-0
    1b20:	3e010070 	mcrcc	0, 0, r0, cr1, cr0, {3}
    1b24:	0001e00b 	andeq	lr, r1, fp
    1b28:	28210000 	stmdacs	r1!, {}	; <UNPREDICTABLE>
    1b2c:	01000004 	tsteq	r0, r4
    1b30:	00250c2b 	eoreq	r0, r5, fp, lsr #24
    1b34:	c9010000 	stmdbgt	r1, {}	; <UNPREDICTABLE>
    1b38:	32000009 	andcc	r0, r0, #9, 0
    1b3c:	2b010070 	blcs	41d04 <__bss_end__+0x36e84>
    1b40:	0001e01a 	andeq	lr, r1, sl, lsl r0
    1b44:	70250000 	eorvc	r0, r5, r0
    1b48:	01000003 	tsteq	r0, r3
    1b4c:	01e00713 	mvneq	r0, r3, lsl r7
    1b50:	88ec0000 	stmiahi	ip!, {}^	; <UNPREDICTABLE>
    1b54:	009c0000 	addseq	r0, ip, r0
    1b58:	9c010000 	stcls	0, cr0, [r1], {-0}
    1b5c:	00000adc 	ldrdeq	r0, [r0], -ip
    1b60:	0004032c 	andeq	r0, r4, ip, lsr #6
    1b64:	11130100 	tstne	r3, r0, lsl #2
    1b68:	00000041 	andeq	r0, r0, r1, asr #32
    1b6c:	00000c87 	andeq	r0, r0, r7, lsl #25
    1b70:	00000c77 	andeq	r0, r0, r7, ror ip
    1b74:	0003b413 	andeq	fp, r3, r3, lsl r4
    1b78:	10150100 	andsne	r0, r5, r0, lsl #2
    1b7c:	00000025 	andeq	r0, r0, r5, lsr #32
    1b80:	aa700305 	bge	1c0279c <__bss_end__+0x1bf791c>
    1b84:	b9150000 	ldmdblt	r5, {}	; <UNPREDICTABLE>
    1b88:	80000000 	andhi	r0, r0, r0
    1b8c:	05000009 	streq	r0, [r0, #-9]
    1b90:	00a68803 	adceq	r8, r6, r3, lsl #16
    1b94:	02f02d00 	rscseq	r2, r0, #0, 26
    1b98:	0a4e0000 	beq	1381ba0 <__bss_end__+0x1376d20>
    1b9c:	30260000 	eorcc	r0, r6, r0
    1ba0:	01000004 	tsteq	r0, r4
    1ba4:	002c121c 	eoreq	r1, ip, ip, lsl r2
    1ba8:	0cec0000 	stcleq	0, cr0, [ip]
    1bac:	0cea0000 	stcleq	0, cr0, [sl]
    1bb0:	20200000 	eorcs	r0, r0, r0
    1bb4:	43000089 	movwmi	r0, #137	; 0x89
    1bb8:	1700000d 	strne	r0, [r0, -sp]
    1bbc:	40035001 	andmi	r5, r3, r1
    1bc0:	01172440 	tsteq	r7, r0, asr #8
    1bc4:	40400351 	submi	r0, r0, r1, asr r3
    1bc8:	33000024 	movwcc	r0, #36	; 0x24
    1bcc:	00008938 	andeq	r8, r0, r8, lsr r9
    1bd0:	00000d4f 	andeq	r0, r0, pc, asr #26
    1bd4:	00000a63 	andeq	r0, r0, r3, ror #20
    1bd8:	03500117 	cmpeq	r0, #-1073741819	; 0xc0000005
    1bdc:	005001f3 	ldrsheq	r0, [r0], #-19	; 0xffffffed
    1be0:	00895416 	addeq	r5, r9, r6, lsl r4
    1be4:	000cec00 	andeq	lr, ip, r0, lsl #24
    1be8:	000a9b00 	andeq	r9, sl, r0, lsl #22
    1bec:	50011700 	andpl	r1, r1, r0, lsl #14
    1bf0:	a1780305 	cmnge	r8, r5, lsl #6
    1bf4:	01170000 	tsteq	r7, r0
    1bf8:	68030551 	stmdavs	r3, {r0, r4, r6, r8, sl}
    1bfc:	170000a3 	strne	r0, [r0, -r3, lsr #1]
    1c00:	03055201 	movweq	r5, #20993	; 0x5201
    1c04:	0000a688 	andeq	sl, r0, r8, lsl #13
    1c08:	01530117 	cmpeq	r3, r7, lsl r1
    1c0c:	7d021747 	stcvc	7, cr1, [r2, #-284]	; 0xfffffee4
    1c10:	34030500 	strcc	r0, [r3], #-1280	; 0xfffffb00
    1c14:	000000a5 	andeq	r0, r0, r5, lsr #1
    1c18:	00895818 	addeq	r5, r9, r8, lsl r8
    1c1c:	000cf800 	andeq	pc, ip, r0, lsl #16
    1c20:	896c1600 	stmdbhi	ip!, {r9, sl, ip}^
    1c24:	0cec0000 	stcleq	0, cr0, [ip]
    1c28:	0ad20000 	beq	ff481c30 <__bss_end__+0xff476db0>
    1c2c:	01170000 	tsteq	r7, r0
    1c30:	44030550 	strmi	r0, [r3], #-1360	; 0xfffffab0
    1c34:	170000a5 	strne	r0, [r0, -r5, lsr #1]
    1c38:	03055101 	movweq	r5, #20737	; 0x5101
    1c3c:	0000a368 	andeq	sl, r0, r8, ror #6
    1c40:	05520117 	ldrbeq	r0, [r2, #-279]	; 0xfffffee9
    1c44:	00a68803 	adceq	r8, r6, r3, lsl #16
    1c48:	53011700 	movwpl	r1, #5888	; 0x1700
    1c4c:	18004901 	stmdane	r0, {r0, r8, fp, lr}
    1c50:	00008970 	andeq	r8, r0, r0, ror r9
    1c54:	00000cf8 	strdeq	r0, [r0], -r8
    1c58:	02742100 	rsbseq	r2, r4, #0
    1c5c:	0c020000 	stceq	0, cr0, [r2], {-0}
    1c60:	0001140b 	andeq	r1, r1, fp, lsl #8
    1c64:	0b120300 	bleq	48286c <__bss_end__+0x4779ec>
    1c68:	6b2a0000 	blvs	a81c70 <__bss_end__+0xa76df0>
    1c6c:	02000000 	andeq	r0, r0, #0, 0
    1c70:	00bf220c 	adcseq	r2, pc, ip, lsl #4
    1c74:	952a0000 	strls	r0, [sl, #-0]!
    1c78:	02000000 	andeq	r0, r0, #0, 0
    1c7c:	00bf340c 	adcseq	r3, pc, ip, lsl #8
    1c80:	432a0000 			; <UNDEFINED> instruction: 0x432a0000
    1c84:	02000001 	andeq	r0, r0, #1, 0
    1c88:	002c430c 	eoreq	r4, ip, ip, lsl #6
    1c8c:	34000000 	strcc	r0, [r0], #-0
    1c90:	0000090d 	andeq	r0, r0, sp, lsl #18
    1c94:	000085cc 	andeq	r8, r0, ip, asr #11
    1c98:	0000015c 	andeq	r0, r0, ip, asr r1
    1c9c:	0cba9c01 	ldceq	12, cr9, [sl], #4
    1ca0:	1a1f0000 	bne	7c1ca8 <__bss_end__+0x7b6e28>
    1ca4:	0a000009 	beq	1cd0 <__code_start__-0x6330>
    1ca8:	0200000d 	andeq	r0, r0, #13, 0
    1cac:	1f00000d 	svcne	0x0000000d
    1cb0:	00000924 	andeq	r0, r0, r4, lsr #18
    1cb4:	00000d4c 	andeq	r0, r0, ip, asr #26
    1cb8:	00000d44 	andeq	r0, r0, r4, asr #26
    1cbc:	00090d35 	andeq	r0, r9, r5, lsr sp
    1cc0:	0001f800 	andeq	pc, r1, r0, lsl #16
    1cc4:	0d500100 	ldfeqe	f0, [r0, #-0]
    1cc8:	00000c87 	andeq	r0, r0, r7, lsl #25
    1ccc:	00092436 	andeq	r2, r9, r6, lsr r4
    1cd0:	091a3600 	ldmdbeq	sl, {r9, sl, ip, sp}
    1cd4:	f81c0000 			; <UNDEFINED> instruction: 0xf81c0000
    1cd8:	37000001 	strcc	r0, [r0, -r1]
    1cdc:	0000093d 	andeq	r0, r0, sp, lsr r9
    1ce0:	000001f8 	strdeq	r0, [r0], -r8
    1ce4:	00093e1d 	andeq	r3, r9, sp, lsl lr
    1ce8:	000d9400 	andeq	r9, sp, r0, lsl #8
    1cec:	000d8600 	andeq	r8, sp, r0, lsl #12
    1cf0:	09483700 	stmdbeq	r8, {r8, r9, sl, ip, sp}^
    1cf4:	02100000 	andseq	r0, r0, #0, 0
    1cf8:	491d0000 	ldmdbmi	sp, {}	; <UNPREDICTABLE>
    1cfc:	f1000009 	cps	#9
    1d00:	e900000d 	stmdb	r0, {r0, r2, r3}
    1d04:	1e00000d 	cdpne	0, 0, cr0, cr0, cr13, {0}
    1d08:	00000953 	andeq	r0, r0, r3, asr r9
    1d0c:	00000230 	andeq	r0, r0, r0, lsr r2
    1d10:	00000c25 	andeq	r0, r0, r5, lsr #24
    1d14:	0009541d 	andeq	r5, r9, sp, lsl r4
    1d18:	000e2900 	andeq	r2, lr, r0, lsl #18
    1d1c:	000e2500 	andeq	r2, lr, r0, lsl #10
    1d20:	09601d00 	stmdbeq	r0!, {r8, sl, fp, ip}^
    1d24:	0e4b0000 	cdpeq	0, 4, cr0, cr11, cr0, {0}
    1d28:	0e470000 	cdpeq	0, 4, cr0, cr7, cr0, {0}
    1d2c:	50160000 	andspl	r0, r6, r0
    1d30:	5b000086 	blpl	1f50 <__code_start__-0x60b0>
    1d34:	c500000d 	strgt	r0, [r0, #-13]
    1d38:	1700000b 	strne	r0, [r0, -fp]
    1d3c:	76025001 	strvc	r5, [r2], -r1
    1d40:	6c160000 	ldcvs	0, cr0, [r6], {-0}
    1d44:	ec000086 	stc	0, cr0, [r0], {134}	; 0x86
    1d48:	e600000c 	str	r0, [r0], -ip
    1d4c:	1700000b 	strne	r0, [r0, -fp]
    1d50:	7a025001 	bvc	95d5c <__bss_end__+0x8aedc>
    1d54:	52011700 	andpl	r1, r1, #0, 14
    1d58:	17007802 	strne	r7, [r0, -r2, lsl #16]
    1d5c:	02007d02 	andeq	r7, r0, #128	; 0x80
    1d60:	1600007b 			; <UNDEFINED> instruction: 0x1600007b
    1d64:	00008694 	muleq	r0, r4, r6
    1d68:	00000cec 	andeq	r0, r0, ip, ror #25
    1d6c:	00000bfd 	strdeq	r0, [r0], -sp
    1d70:	05500117 	ldrbeq	r0, [r0, #-279]	; 0xfffffee9
    1d74:	00a3c403 	adceq	ip, r3, r3, lsl #8
    1d78:	b4160000 	ldrlt	r0, [r6], #-0
    1d7c:	ec000086 	stc	0, cr0, [r0], {134}	; 0x86
    1d80:	1400000c 	strne	r0, [r0], #-12
    1d84:	1700000c 	strne	r0, [r0, -ip]
    1d88:	03055001 	movweq	r5, #20481	; 0x5001
    1d8c:	0000a3d4 	ldrdeq	sl, [r0], -r4
    1d90:	86d42000 	ldrbhi	r2, [r4], r0
    1d94:	090d0000 	stmdbeq	sp, {}	; <UNPREDICTABLE>
    1d98:	01170000 	tsteq	r7, r0
    1d9c:	04760250 	ldrbteq	r0, [r6], #-592	; 0xfffffdb0
    1da0:	85380000 	ldrhi	r0, [r8, #-0]!
    1da4:	2c000009 	stccs	0, cr0, [r0], {9}
    1da8:	01000086 	smlabbeq	r0, r6, r0, r0
    1dac:	00000258 	andeq	r0, r0, r8, asr r2
    1db0:	1f145a01 	svcne	0x00145a01
    1db4:	00000996 	muleq	r0, r6, r9
    1db8:	00000e6b 	andeq	r0, r0, fp, ror #28
    1dbc:	00000e69 	andeq	r0, r0, r9, ror #28
    1dc0:	0002701c 	andeq	r7, r2, ip, lsl r0
    1dc4:	09a21d00 	stmibeq	r2!, {r8, sl, fp, ip}
    1dc8:	0e800000 	cdpeq	0, 8, cr0, cr0, cr0, {0}
    1dcc:	0e7e0000 	cdpeq	0, 7, cr0, cr14, cr0, {0}
    1dd0:	ad390000 	ldcge	0, cr0, [r9, #-0]
    1dd4:	2c000009 	stccs	0, cr0, [r0], {9}
    1dd8:	04000086 	streq	r0, [r0], #-134	; 0xffffff7a
    1ddc:	00000290 	muleq	r0, r0, r2
    1de0:	780a4001 	stmdavc	sl, {r0, lr}
    1de4:	1f00000c 	svcne	0x0000000c
    1de8:	000009be 			; <UNDEFINED> instruction: 0x000009be
    1dec:	00000e95 	muleq	r0, r5, lr
    1df0:	00000e93 	muleq	r0, r3, lr
    1df4:	86401800 	strbhi	r1, [r0], -r0, lsl #16
    1df8:	0d670000 	stcleq	0, cr0, [r7, #-0]
	...
    1e04:	0086fc16 	addeq	pc, r6, r6, lsl ip	; <UNPREDICTABLE>
    1e08:	000cec00 	andeq	lr, ip, r0, lsl #24
    1e0c:	000cb000 	andeq	fp, ip, r0
    1e10:	50011700 	andpl	r1, r1, r0, lsl #14
    1e14:	a1780305 	cmnge	r8, r5, lsl #6
    1e18:	01170000 	tsteq	r7, r0
    1e1c:	68030551 	stmdavs	r3, {r0, r4, r6, r8, sl}
    1e20:	170000a3 	strne	r0, [r0, -r3, lsr #1]
    1e24:	03055201 	movweq	r5, #20993	; 0x5201
    1e28:	0000a680 	andeq	sl, r0, r0, lsl #13
    1e2c:	87001800 	strhi	r1, [r0, -r0, lsl #16]
    1e30:	0cf80000 	ldcleq	0, cr0, [r8]
    1e34:	34000000 	strcc	r0, [r0], #-0
    1e38:	0000061f 	andeq	r0, r0, pc, lsl r6
    1e3c:	00008988 	andeq	r8, r0, r8, lsl #19
    1e40:	00000004 	andeq	r0, r0, r4
    1e44:	0cec9c01 	stcleq	12, cr9, [ip], #4
    1e48:	301f0000 	andscc	r0, pc, r0
    1e4c:	ac000006 	stcge	0, cr0, [r0], {6}
    1e50:	a800000e 	stmdage	r0, {r1, r2, r3}
    1e54:	3a00000e 	bcc	1e94 <__code_start__-0x616c>
    1e58:	0000898c 	andeq	r8, r0, ip, lsl #19
    1e5c:	0000063d 	andeq	r0, r0, sp, lsr r6
    1e60:	03500117 	cmpeq	r0, #-1073741819	; 0xc0000005
    1e64:	005001f3 	ldrsheq	r0, [r0], #-19	; 0xffffffed
    1e68:	04e93b00 	strbteq	r3, [r9], #2816	; 0xb00
    1e6c:	04e90000 	strbteq	r0, [r9], #0
    1e70:	28040000 	stmdacs	r4, {}	; <UNPREDICTABLE>
    1e74:	00d03b06 	sbcseq	r3, r0, r6, lsl #22
    1e78:	00d00000 	sbcseq	r0, r0, r0
    1e7c:	6e040000 	cdpvs	0, 0, cr0, cr4, cr0, {0}
    1e80:	9e0d3c06 	cdpls	12, 0, cr3, cr13, cr6, {0}
    1e84:	6577730b 	ldrbvs	r7, [r7, #-779]!	; 0xfffffcf5
    1e88:	665f7065 	ldrbvs	r7, [pc], -r5, rrx
    1e8c:	00656572 	rsbeq	r6, r5, r2, ror r5
    1e90:	0002ac3b 	andeq	sl, r2, fp, lsr ip
    1e94:	0002ac00 	andeq	sl, r2, r0, lsl #24
    1e98:	08280500 	stmdaeq	r8!, {r8, sl}
    1e9c:	0002e93b 	andeq	lr, r2, fp, lsr r9
    1ea0:	0002e900 	andeq	lr, r2, r0, lsl #18
    1ea4:	082b0500 	stmdaeq	fp!, {r8, sl}
    1ea8:	0002b93b 	andeq	fp, r2, fp, lsr r9
    1eac:	0002b900 	andeq	fp, r2, r0, lsl #18
    1eb0:	074a0500 	strbeq	r0, [sl, -r0, lsl #10]
    1eb4:	0003f23b 	andeq	pc, r3, fp, lsr r2	; <UNPREDICTABLE>
    1eb8:	0003f200 	andeq	pc, r3, r0, lsl #4
    1ebc:	06760100 	ldrbteq	r0, [r6], -r0, lsl #2
    1ec0:	0004583b 	andeq	r5, r4, fp, lsr r8
    1ec4:	00045800 	andeq	r5, r4, r0, lsl #16
    1ec8:	06820400 	streq	r0, [r2], r0, lsl #8
    1ecc:	0004503b 	andeq	r5, r4, fp, lsr r0
    1ed0:	00045000 	andeq	r5, r4, r0
    1ed4:	077b0400 	ldrbeq	r0, [fp, -r0, lsl #8]!
    1ed8:	0003073b 	andeq	r0, r3, fp, lsr r7
    1edc:	00030700 	andeq	r0, r3, r0, lsl #14
    1ee0:	07320500 	ldreq	r0, [r2, -r0, lsl #10]!
    1ee4:	0002d73b 	andeq	sp, r2, fp, lsr r7
    1ee8:	0002d700 	andeq	sp, r2, r0, lsl #14
    1eec:	08450500 	stmdaeq	r5, {r8, sl}^
    1ef0:	00014000 	andeq	r4, r1, r0
    1ef4:	ea000400 	b	2efc <__code_start__-0x5104>
    1ef8:	0400000a 	streq	r0, [r0], #-10
    1efc:	0001a801 	andeq	sl, r1, r1, lsl #16
    1f00:	04af0c00 	strteq	r0, [pc], #3072	; 1f08 <__code_start__-0x60f8>
    1f04:	04bf0000 	ldrteq	r0, [pc], #0	; 1f0c <__code_start__-0x60f4>
    1f08:	8b580000 	blhi	1601f10 <__bss_end__+0x15f7090>
    1f0c:	00780000 	rsbseq	r0, r8, r0
    1f10:	0dc40000 	stcleq	0, cr0, [r4]
    1f14:	04020000 	streq	r0, [r2], #-0
    1f18:	746e6905 	strbtvc	r6, [lr], #-2309	; 0xfffff6fb
    1f1c:	04a80300 	strteq	r0, [r8], #768	; 0x300
    1f20:	d1030000 	mrsle	r0, (UNDEF: 3)
    1f24:	00003817 	andeq	r3, r0, r7, lsl r8
    1f28:	07040400 	streq	r0, [r4, -r0, lsl #8]
    1f2c:	00000154 	andeq	r0, r0, r4, asr r1
    1f30:	ec060104 	stfs	f0, [r6], {4}
    1f34:	04000000 	streq	r0, [r0], #-0
    1f38:	00490502 	subeq	r0, r9, r2, lsl #10
    1f3c:	04040000 	streq	r0, [r4], #-0
    1f40:	00009f05 	andeq	r9, r0, r5, lsl #30
    1f44:	05080400 	streq	r0, [r8, #-1024]	; 0xfffffc00
    1f48:	0000009a 	muleq	r0, sl, r0
    1f4c:	ea080104 	b	202364 <__bss_end__+0x1f74e4>
    1f50:	04000000 	streq	r0, [r0], #-0
    1f54:	017b0702 	cmneq	fp, r2, lsl #14
    1f58:	04040000 	streq	r0, [r4], #-0
    1f5c:	00014f07 	andeq	r4, r1, r7, lsl #30
    1f60:	07080400 	streq	r0, [r8, -r0, lsl #8]
    1f64:	0000014a 	andeq	r0, r0, sl, asr #2
    1f68:	00002505 	andeq	r2, r0, r5, lsl #10
    1f6c:	00008600 	andeq	r8, r0, r0, lsl #12
    1f70:	00250600 	eoreq	r0, r5, r0, lsl #12
    1f74:	07000000 	streq	r0, [r0, -r0]
    1f78:	00000053 	andeq	r0, r0, r3, asr r0
    1f7c:	920e1c02 	andls	r1, lr, #512	; 0x200
    1f80:	08000000 	stmdaeq	r0, {}	; <UNPREDICTABLE>
    1f84:	00007704 	andeq	r7, r0, r4, lsl #14
    1f88:	00250500 	eoreq	r0, r5, r0, lsl #10
    1f8c:	00a70000 	adceq	r0, r7, r0
    1f90:	a7060000 	strge	r0, [r6, -r0]
    1f94:	00000000 	andeq	r0, r0, r0
    1f98:	00b40408 	adcseq	r0, r4, r8, lsl #8
    1f9c:	01040000 	mrseq	r0, (UNDEF: 4)
    1fa0:	0000f308 	andeq	pc, r0, r8, lsl #6
    1fa4:	00ad0900 	adceq	r0, sp, r0, lsl #18
    1fa8:	27070000 	strcs	r0, [r7, -r0]
    1fac:	02000005 	andeq	r0, r0, #5, 0
    1fb0:	00c50e21 	sbceq	r0, r5, r1, lsr #28
    1fb4:	04080000 	streq	r0, [r8], #-0
    1fb8:	00000098 	muleq	r0, r8, r0
    1fbc:	00026d0a 	andeq	r6, r2, sl, lsl #26
    1fc0:	07040100 	streq	r0, [r4, -r0, lsl #2]
    1fc4:	0000013b 	andeq	r0, r0, fp, lsr r1
    1fc8:	00008b58 	andeq	r8, r0, r8, asr fp
    1fcc:	00000078 	andeq	r0, r0, r8, ror r0
    1fd0:	013b9c01 	teqeq	fp, r1, lsl #24
    1fd4:	5f0b0000 	svcpl	0x000b0000
    1fd8:	04010070 	streq	r0, [r1], #-112	; 0xffffff90
    1fdc:	00013b14 	andeq	r3, r1, r4, lsl fp
    1fe0:	0c500100 	ldfeqe	f0, [r0], {-0}
    1fe4:	04010063 	streq	r0, [r1], #-99	; 0xffffff9d
    1fe8:	0000251c 	andeq	r2, r0, ip, lsl r5
    1fec:	000ed100 	andeq	sp, lr, r0, lsl #2
    1ff0:	000ecd00 	andeq	ip, lr, r0, lsl #26
    1ff4:	006e0c00 	rsbeq	r0, lr, r0, lsl #24
    1ff8:	2c260401 	cfstrscs	mvf0, [r6], #-4
    1ffc:	f6000000 			; <UNDEFINED> instruction: 0xf6000000
    2000:	f200000e 	vhadd.s8	d0, d0, d14
    2004:	0d00000e 	stceq	0, cr0, [r0, #-56]	; 0xffffffc8
    2008:	05010070 	streq	r0, [r1, #-112]	; 0xffffff90
    200c:	00013d0b 	andeq	r3, r1, fp, lsl #26
    2010:	000f2500 	andeq	r2, pc, r0, lsl #10
    2014:	000f1700 	andeq	r1, pc, r0, lsl #14
    2018:	00650d00 	rsbeq	r0, r5, r0, lsl #26
    201c:	3d140501 	cfldr32cc	mvfx0, [r4, #-4]
    2020:	82000001 	andhi	r0, r0, #1, 0
    2024:	8000000f 	andhi	r0, r0, pc
    2028:	0000000f 	andeq	r0, r0, pc
    202c:	0408040e 	streq	r0, [r8], #-1038	; 0xfffffbf2
    2030:	000000ad 	andeq	r0, r0, sp, lsr #1
    2034:	00019d00 	andeq	r9, r1, r0, lsl #26
    2038:	b6000400 	strlt	r0, [r0], -r0, lsl #8
    203c:	0400000b 	streq	r0, [r0], #-11
    2040:	0001a801 	andeq	sl, r1, r1, lsl #16
    2044:	05040c00 	streq	r0, [r4, #-3072]	; 0xfffff400
    2048:	04bf0000 	ldrteq	r0, [pc], #0	; 2050 <__code_start__-0x5fb0>
    204c:	8bd00000 	blhi	ff402054 <__bss_end__+0xff3f71d4>
    2050:	00580000 	subseq	r0, r8, r0
    2054:	0ee90000 	cdpeq	0, 14, cr0, cr9, cr0, {0}
    2058:	f0020000 			; <UNDEFINED> instruction: 0xf0020000
    205c:	02000004 	andeq	r0, r0, #4, 0
    2060:	00311b28 	eorseq	r1, r1, r8, lsr #22
    2064:	14030000 	strne	r0, [r3], #-0
    2068:	04000005 	streq	r0, [r0], #-5
    206c:	00480004 	subeq	r0, r8, r4
    2070:	ff040000 			; <UNDEFINED> instruction: 0xff040000
    2074:	48000004 	stmdami	r0, {r2}
    2078:	00000000 	andeq	r0, r0, r0
    207c:	02040500 	andeq	r0, r4, #0, 10
    2080:	00000516 	andeq	r0, r0, r6, lsl r5
    2084:	25186302 	ldrcs	r6, [r8, #-770]	; 0xfffffcfe
    2088:	06000000 	streq	r0, [r0], -r0
    208c:	6e690504 	cdpvs	5, 6, cr0, cr9, cr4, {0}
    2090:	04070074 	streq	r0, [r7], #-116	; 0xffffff8c
    2094:	00015407 	andeq	r5, r1, r7, lsl #8
    2098:	06010700 	streq	r0, [r1], -r0, lsl #14
    209c:	000000ec 	andeq	r0, r0, ip, ror #1
    20a0:	49050207 	stmdbmi	r5, {r0, r1, r2, r9}
    20a4:	07000000 	streq	r0, [r0, -r0]
    20a8:	009f0504 	addseq	r0, pc, r4, lsl #10
    20ac:	08070000 	stmdaeq	r7, {}	; <UNPREDICTABLE>
    20b0:	00009a05 	andeq	r9, r0, r5, lsl #20
    20b4:	08010700 	stmdaeq	r1, {r8, r9, sl}
    20b8:	000000ea 	andeq	r0, r0, sl, ror #1
    20bc:	7b070207 	blvc	1c28e0 <__bss_end__+0x1b7a60>
    20c0:	07000001 	streq	r0, [r0, -r1]
    20c4:	014f0704 	cmpeq	pc, r4, lsl #14
    20c8:	08070000 	stmdaeq	r7, {}	; <UNPREDICTABLE>
    20cc:	00014a07 	andeq	r4, r1, r7, lsl #20
    20d0:	00560800 	subseq	r0, r6, r0, lsl #16
    20d4:	00ab0000 	adceq	r0, fp, r0
    20d8:	56090000 	strpl	r0, [r9], -r0
    20dc:	00000000 	andeq	r0, r0, r0
    20e0:	0000530a 	andeq	r5, r0, sl, lsl #6
    20e4:	0e1c0300 	cdpeq	3, 1, cr0, cr12, cr0, {0}
    20e8:	000000b7 	strheq	r0, [r0], -r7
    20ec:	009c040b 	addseq	r0, ip, fp, lsl #8
    20f0:	56080000 	strpl	r0, [r8], -r0
    20f4:	cc000000 	stcgt	0, cr0, [r0], {-0}
    20f8:	09000000 	stmdbeq	r0, {}	; <UNPREDICTABLE>
    20fc:	000000cc 	andeq	r0, r0, ip, asr #1
    2100:	d9040b00 	stmdble	r4, {r8, r9, fp}
    2104:	07000000 	streq	r0, [r0, -r0]
    2108:	00f30801 	rscseq	r0, r3, r1, lsl #16
    210c:	d20c0000 	andle	r0, ip, #0, 0
    2110:	0a000000 	beq	2118 <__code_start__-0x5ee8>
    2114:	00000527 	andeq	r0, r0, r7, lsr #10
    2118:	ea0e2103 	b	38a52c <__bss_end__+0x37f6ac>
    211c:	0b000000 	bleq	2124 <__code_start__-0x5edc>
    2120:	0000bd04 	andeq	fp, r0, r4, lsl #26
    2124:	04e90d00 	strbteq	r0, [r9], #3328	; 0xd00
    2128:	06010000 	streq	r0, [r1], -r0
    212c:	00005605 	andeq	r5, r0, r5, lsl #12
    2130:	008bd000 	addeq	sp, fp, r0
    2134:	00005800 	andeq	r5, r0, r0, lsl #16
    2138:	839c0100 	orrshi	r0, ip, #0
    213c:	0e000001 	cdpeq	0, 0, cr0, cr0, cr1, {0}
    2140:	00746d66 	rsbseq	r6, r4, r6, ror #26
    2144:	cc180601 	ldcgt	6, cr0, [r8], {1}
    2148:	02000000 	andeq	r0, r0, #0, 0
    214c:	100f7091 	mulne	pc, r1, r0	; <UNPREDICTABLE>
    2150:	00667562 	rsbeq	r7, r6, r2, ror #10
    2154:	83110801 	tsthi	r1, #65536	; 0x10000
    2158:	05000001 	streq	r0, [r0, #-1]
    215c:	00aa7403 	adceq	r7, sl, r3, lsl #8
    2160:	04e11100 	strbteq	r1, [r1], #256	; 0x100
    2164:	09010000 	stmdbeq	r1, {}	; <UNPREDICTABLE>
    2168:	00004a0d 	andeq	r4, r0, sp, lsl #20
    216c:	5c910200 	lfmpl	f0, 4, [r1], {0}
    2170:	007a7312 	rsbseq	r7, sl, r2, lsl r3
    2174:	560d0c01 	strpl	r0, [sp], -r1, lsl #24
    2178:	9b000000 	blls	2180 <__code_start__-0x5e80>
    217c:	9500000f 	strls	r0, [r0, #-15]
    2180:	1300000f 	movwne	r0, #15
    2184:	00008bf8 	strdeq	r8, [r0], -r8	; <UNPREDICTABLE>
    2188:	00000194 	muleq	r0, r4, r1
    218c:	00000176 	andeq	r0, r0, r6, ror r1
    2190:	02500114 	subseq	r0, r0, #5
    2194:	01140075 	tsteq	r4, r5, ror r0
    2198:	000a0351 	andeq	r0, sl, r1, asr r3
    219c:	52011404 	andpl	r1, r1, #4, 8	; 0x4000000
    21a0:	06489103 	strbeq	r9, [r8], -r3, lsl #2
    21a4:	02530114 	subseq	r0, r3, #5
    21a8:	15004c91 	strne	r4, [r0, #-3217]	; 0xfffff36f
    21ac:	00008c0c 	andeq	r8, r0, ip, lsl #24
    21b0:	02500114 	subseq	r0, r0, #5
    21b4:	00000075 	andeq	r0, r0, r5, ror r0
    21b8:	0000d216 	andeq	sp, r0, r6, lsl r2
    21bc:	00019400 	andeq	r9, r1, r0, lsl #8
    21c0:	005d1700 	subseq	r1, sp, r0, lsl #14
    21c4:	03ff0000 	mvnseq	r0, #0, 0
    21c8:	04e61800 	strbteq	r1, [r6], #2048	; 0x800
    21cc:	04e60000 	strbteq	r0, [r6], #0
    21d0:	02050000 	andeq	r0, r5, #0, 0
    21d4:	00f30005 	rscseq	r0, r3, r5
    21d8:	00040000 	andeq	r0, r4, r0
    21dc:	00000cf8 	strdeq	r0, [r0], -r8
    21e0:	01a80104 			; <UNDEFINED> instruction: 0x01a80104
    21e4:	2c0c0000 	stccs	0, cr0, [ip], {-0}
    21e8:	bf000005 	svclt	0x00000005
    21ec:	28000004 	stmdacs	r0, {r2}
    21f0:	3800008c 	stmdacc	r0, {r2, r3, r7}
    21f4:	0d000000 	stceq	0, cr0, [r0, #-0]
    21f8:	02000010 	andeq	r0, r0, #16, 0
    21fc:	6e690504 	cdpvs	5, 6, cr0, cr9, cr4, {0}
    2200:	04030074 	streq	r0, [r3], #-116	; 0xffffff8c
    2204:	00015407 	andeq	r5, r1, r7, lsl #8
    2208:	06010300 	streq	r0, [r1], -r0, lsl #6
    220c:	000000ec 	andeq	r0, r0, ip, ror #1
    2210:	49050203 	stmdbmi	r5, {r0, r1, r9}
    2214:	03000000 	movweq	r0, #0
    2218:	009f0504 	addseq	r0, pc, r4, lsl #10
    221c:	08030000 	stmdaeq	r3, {}	; <UNPREDICTABLE>
    2220:	00009a05 	andeq	r9, r0, r5, lsl #20
    2224:	08010300 	stmdaeq	r1, {r8, r9}
    2228:	000000ea 	andeq	r0, r0, sl, ror #1
    222c:	7b070203 	blvc	1c2a40 <__bss_end__+0x1b7bc0>
    2230:	03000001 	movweq	r0, #1
    2234:	014f0704 	cmpeq	pc, r4, lsl #14
    2238:	08030000 	stmdaeq	r3, {}	; <UNPREDICTABLE>
    223c:	00014a07 	andeq	r4, r1, r7, lsl #20
    2240:	00250400 	eoreq	r0, r5, r0, lsl #8
    2244:	007a0000 	rsbseq	r0, sl, r0
    2248:	25050000 	strcs	r0, [r5, #-0]
    224c:	00000000 	andeq	r0, r0, r0
    2250:	00005306 	andeq	r5, r0, r6, lsl #6
    2254:	0e1c0200 	cdpeq	2, 1, cr0, cr12, cr0, {0}
    2258:	00000086 	andeq	r0, r0, r6, lsl #1
    225c:	006b0407 	rsbeq	r0, fp, r7, lsl #8
    2260:	25040000 	strcs	r0, [r4, #-0]
    2264:	9b000000 	blls	226c <__code_start__-0x5d94>
    2268:	05000000 	streq	r0, [r0, #-0]
    226c:	0000009b 	muleq	r0, fp, r0
    2270:	a8040700 	stmdage	r4, {r8, r9, sl}
    2274:	03000000 	movweq	r0, #0
    2278:	00f30801 	rscseq	r0, r3, r1, lsl #16
    227c:	a1080000 	mrsge	r0, (UNDEF: 8)
    2280:	06000000 	streq	r0, [r0], -r0
    2284:	00000527 	andeq	r0, r0, r7, lsr #10
    2288:	b90e2102 	stmdblt	lr, {r1, r8, sp}
    228c:	07000000 	streq	r0, [r0, -r0]
    2290:	00008c04 	andeq	r8, r0, r4, lsl #24
    2294:	00ad0900 	adceq	r0, sp, r0, lsl #18
    2298:	0c010000 	stceq	0, cr0, [r1], {-0}
    229c:	3c030507 	cfstr32cc	mvfx0, [r3], {7}
    22a0:	0a0000aa 	beq	2550 <__code_start__-0x5ab0>
    22a4:	0000051e 	andeq	r0, r0, lr, lsl r5
    22a8:	25050401 	strcs	r0, [r5, #-1025]	; 0xfffffbff
    22ac:	28000000 	stmdacs	r0, {}	; <UNPREDICTABLE>
    22b0:	3800008c 	stmdacc	r0, {r2, r3, r7}
    22b4:	01000000 	mrseq	r0, (UNDEF: 0)
    22b8:	00700b9c 			; <UNDEFINED> instruction: 0x00700b9c
    22bc:	9b1f0401 	blls	7c32c8 <__bss_end__+0x7b8448>
    22c0:	cc000000 	stcgt	0, cr0, [r0], {-0}
    22c4:	c400000f 	strgt	r0, [r0], #-15
    22c8:	0000000f 	andeq	r0, r0, pc
    22cc:	000c7f00 	andeq	r7, ip, r0, lsl #30
    22d0:	96000400 	strls	r0, [r0], -r0, lsl #8
    22d4:	0400000d 	streq	r0, [r0], #-13
    22d8:	0001a801 	andeq	sl, r1, r1, lsl #16
    22dc:	054b0c00 	strbeq	r0, [fp, #-3072]	; 0xfffff400
    22e0:	04bf0000 	ldrteq	r0, [pc], #0	; 22e8 <__code_start__-0x5d18>
    22e4:	8c600000 	stclhi	0, cr0, [r0], #-0
    22e8:	09b40000 	ldmibeq	r4!, {}	; <UNPREDICTABLE>
    22ec:	10b10000 	adcsne	r0, r1, r0
    22f0:	08020000 	stmdaeq	r2, {}	; <UNPREDICTABLE>
    22f4:	00014a07 	andeq	r4, r1, r7, lsl #20
    22f8:	07040200 	streq	r0, [r4, -r0, lsl #4]
    22fc:	00000154 	andeq	r0, r0, r4, asr r1
    2300:	69050403 	stmdbvs	r5, {r0, r1, sl}
    2304:	0200746e 	andeq	r7, r0, #1845493760	; 0x6e000000
    2308:	00ec0601 	rsceq	r0, ip, r1, lsl #12
    230c:	02020000 	andeq	r0, r2, #0, 0
    2310:	00004905 	andeq	r4, r0, r5, lsl #18
    2314:	05040200 	streq	r0, [r4, #-512]	; 0xfffffe00
    2318:	0000009f 	muleq	r0, pc, r0	; <UNPREDICTABLE>
    231c:	9a050802 	bls	14432c <__bss_end__+0x1394ac>
    2320:	02000000 	andeq	r0, r0, #0, 0
    2324:	00ea0801 	rsceq	r0, sl, r1, lsl #16
    2328:	02020000 	andeq	r0, r2, #0, 0
    232c:	00017b07 	andeq	r7, r1, r7, lsl #22
    2330:	01610400 	cmneq	r1, r0, lsl #8
    2334:	34020000 	strcc	r0, [r2], #-0
    2338:	00007019 	andeq	r7, r0, r9, lsl r0
    233c:	07040200 	streq	r0, [r4, -r0, lsl #4]
    2340:	0000014f 	andeq	r0, r0, pc, asr #2
    2344:	00054204 	andeq	r4, r5, r4, lsl #4
    2348:	19370200 	ldmdbne	r7!, {r9}
    234c:	00000025 	andeq	r0, r0, r5, lsr #32
    2350:	00003305 	andeq	r3, r0, r5, lsl #6
    2354:	00009200 	andeq	r9, r0, r0, lsl #4
    2358:	00330600 	eorseq	r0, r3, r0, lsl #12
    235c:	07000000 	streq	r0, [r0, -r0]
    2360:	00000053 	andeq	r0, r0, r3, asr r0
    2364:	9e0e1c03 	cdpls	12, 0, cr1, cr14, cr3, {0}
    2368:	08000000 	stmdaeq	r0, {}	; <UNPREDICTABLE>
    236c:	00008304 	andeq	r8, r0, r4, lsl #6
    2370:	00330500 	eorseq	r0, r3, r0, lsl #10
    2374:	00b30000 	adcseq	r0, r3, r0
    2378:	b3060000 	movwlt	r0, #24576	; 0x6000
    237c:	00000000 	andeq	r0, r0, r0
    2380:	00c00408 	sbceq	r0, r0, r8, lsl #8
    2384:	01020000 	mrseq	r0, (UNDEF: 2)
    2388:	0000f308 	andeq	pc, r0, r8, lsl #6
    238c:	00b90900 	adcseq	r0, r9, r0, lsl #18
    2390:	27070000 	strcs	r0, [r7, -r0]
    2394:	03000005 	movweq	r0, #5
    2398:	00d10e21 	sbcseq	r0, r1, r1, lsr #28
    239c:	04080000 	streq	r0, [r8], #-0
    23a0:	000000a4 	andeq	r0, r0, r4, lsr #1
    23a4:	00055e07 	andeq	r5, r5, r7, lsl #28
    23a8:	0d0b0400 	cfstrseq	mvf0, [fp, #-0]
    23ac:	000000b9 	strheq	r0, [r0], -r9
    23b0:	0005b707 	andeq	fp, r5, r7, lsl #14
    23b4:	0d0c0400 	cfstrseq	mvf0, [ip, #-0]
    23b8:	000000b9 	strheq	r0, [r0], -r9
    23bc:	00007f07 	andeq	r7, r0, r7, lsl #30
    23c0:	0d0d0400 	cfstrseq	mvf0, [sp, #-0]
    23c4:	000000b9 	strheq	r0, [r0], -r9
    23c8:	00019c07 	andeq	r9, r1, r7, lsl #24
    23cc:	0d0e0400 	cfstrseq	mvf0, [lr, #-0]
    23d0:	000000b9 	strheq	r0, [r0], -r9
    23d4:	00047a07 	andeq	r7, r4, r7, lsl #20
    23d8:	0d0f0400 	cfstrseq	mvf0, [pc, #-0]	; 23e0 <__code_start__-0x5c20>
    23dc:	000000b9 	strheq	r0, [r0], -r9
    23e0:	00040d07 	andeq	r0, r4, r7, lsl #26
    23e4:	0d100400 	cfldrseq	mvf0, [r0, #-0]
    23e8:	000000b9 	strheq	r0, [r0], -r9
    23ec:	0005e007 	andeq	lr, r5, r7
    23f0:	0d110400 	cfldrseq	mvf0, [r1, #-0]
    23f4:	000000b9 	strheq	r0, [r0], -r9
    23f8:	00057b07 	andeq	r7, r5, r7, lsl #22
    23fc:	0d120400 	cfldrseq	mvf0, [r2, #-0]
    2400:	000000b9 	strheq	r0, [r0], -r9
    2404:	0004f004 	andeq	pc, r4, r4
    2408:	1b280500 	blne	a03810 <__bss_end__+0x9f8990>
    240c:	00000143 	andeq	r0, r0, r3, asr #2
    2410:	0005140a 	andeq	r1, r5, sl, lsl #8
    2414:	00060400 	andeq	r0, r6, r0, lsl #8
    2418:	0000015a 	andeq	r0, r0, sl, asr r1
    241c:	0004ff0b 	andeq	pc, r4, fp, lsl #30
    2420:	00015a00 	andeq	r5, r1, r0, lsl #20
    2424:	0c000000 	stceq	0, cr0, [r0], {-0}
    2428:	05160404 	ldreq	r0, [r6, #-1028]	; 0xfffffbfc
    242c:	63050000 	movwvs	r0, #20480	; 0x5000
    2430:	00013718 	andeq	r3, r1, r8, lsl r7
    2434:	04e60d00 	strbteq	r0, [r6], #3328	; 0xd00
    2438:	81010000 	mrshi	r0, (UNDEF: 1)
    243c:	00003305 	andeq	r3, r0, r5, lsl #6
    2440:	008fe800 	addeq	lr, pc, r0, lsl #16
    2444:	00062c00 	andeq	r2, r6, r0, lsl #24
    2448:	6a9c0100 	bvs	fe702850 <__bss_end__+0xfe6f79d0>
    244c:	0e000008 	cdpeq	0, 0, cr0, cr0, cr8, {0}
    2450:	00667562 	rsbeq	r7, r6, r2, ror #10
    2454:	6a158101 	bvs	562860 <__bss_end__+0x5579e0>
    2458:	0c000008 	stceq	0, cr0, [r0], {8}
    245c:	02000010 	andeq	r0, r0, #16, 0
    2460:	0e000010 	mcreq	0, 0, r0, cr0, cr0, {0}
    2464:	8101006e 	tsthi	r1, lr, rrx
    2468:	0000331e 	andeq	r3, r0, lr, lsl r3
    246c:	00105900 	andseq	r5, r0, r0, lsl #18
    2470:	00105100 	andseq	r5, r0, r0, lsl #2
    2474:	6d660e00 	stclvs	14, cr0, [r6, #-0]
    2478:	81010074 	tsthi	r1, r4, ror r0
    247c:	0000b32d 	andeq	fp, r0, sp, lsr #6
    2480:	0010ab00 	andseq	sl, r0, r0, lsl #22
    2484:	00109300 	andseq	r9, r0, r0, lsl #6
    2488:	04e10f00 	strbteq	r0, [r1], #3840	; 0xf00
    248c:	81010000 	mrshi	r0, (UNDEF: 1)
    2490:	00015c3a 	andeq	r5, r1, sl, lsr ip
    2494:	00116d00 	andseq	r6, r1, r0, lsl #26
    2498:	00113f00 	andseq	r3, r1, r0, lsl #30
    249c:	00701000 	rsbseq	r1, r0, r0
    24a0:	6a088201 	bvs	222cac <__bss_end__+0x217e2c>
    24a4:	c0000008 	andgt	r0, r0, r8
    24a8:	aa000012 	bge	24f8 <__code_start__-0x5b08>
    24ac:	10000012 	andne	r0, r0, r2, lsl r0
    24b0:	82010065 	andhi	r0, r1, #101, 0	; 0x65
    24b4:	00086a12 	andeq	r6, r8, r2, lsl sl
    24b8:	00134900 	andseq	r4, r3, r0, lsl #18
    24bc:	00134700 	andseq	r4, r3, r0, lsl #14
    24c0:	30781000 	rsbscc	r1, r8, r0
    24c4:	0e830100 	rmfeqs	f0, f3, f0
    24c8:	00000064 	andeq	r0, r0, r4, rrx
    24cc:	00001362 	andeq	r1, r0, r2, ror #6
    24d0:	0000135c 	andeq	r1, r0, ip, asr r3
    24d4:	00317810 	eorseq	r7, r1, r0, lsl r8
    24d8:	64118301 	ldrvs	r8, [r1], #-769	; 0xfffffcff
    24dc:	91000000 	mrsls	r0, (UNDEF: 0)
    24e0:	8b000013 	blhi	2534 <__code_start__-0x5acc>
    24e4:	11000013 	tstne	r0, r3, lsl r0
    24e8:	00000599 	muleq	r0, r9, r5
    24ec:	b3118601 	tstlt	r1, #1048576	; 0x100000
    24f0:	c2000000 	andgt	r0, r0, #0, 0
    24f4:	ba000013 	blt	2548 <__code_start__-0x5ab8>
    24f8:	12000013 	andne	r0, r0, #19, 0
    24fc:	000000b9 	strheq	r0, [r0], -r9
    2500:	00000880 	andeq	r0, r0, r0, lsl #17
    2504:	a8280305 	stmdage	r8!, {r0, r2, r8, r9}
    2508:	d8130000 	ldmdale	r3, {}	; <UNPREDICTABLE>
    250c:	10000003 	andne	r0, r0, r3
    2510:	91010073 	tstls	r1, r3, ror r0
    2514:	00086a0a 	andeq	r6, r8, sl, lsl #20
    2518:	00140800 	andseq	r0, r4, r0, lsl #16
    251c:	0013fc00 	andseq	pc, r3, r0, lsl #24
    2520:	756e1400 	strbvc	r1, [lr, #-1024]!	; 0xfffffc00
    2524:	9101006d 	tstls	r1, sp, rrx
    2528:	0008850d 	andeq	r8, r8, sp, lsl #10
    252c:	d8910300 	ldmle	r1, {r8, r9}
    2530:	05ed157d 	strbeq	r1, [sp, #1405]!	; 0x57d
    2534:	91010000 	mrsls	r0, (UNDEF: 1)
    2538:	00088517 	andeq	r8, r8, r7, lsl r5
    253c:	d8910300 	ldmle	r1, {r8, r9}
    2540:	056d117e 	strbeq	r1, [sp, #-382]!	; 0xfffffe82
    2544:	92010000 	andls	r0, r1, #0, 0
    2548:	00002c0d 	andeq	r2, r0, sp, lsl #24
    254c:	00145a00 	andseq	r5, r4, r0, lsl #20
    2550:	00145200 	andseq	r5, r4, r0, lsl #4
    2554:	04001600 	streq	r1, [r0], #-1536	; 0xfffffa00
    2558:	04f10000 	ldrbteq	r0, [r1], #0
    255c:	74100000 	ldrvc	r0, [r0], #-0
    2560:	9e010079 	mcrls	0, 0, r0, cr1, cr9, {3}
    2564:	0000b31d 	andeq	fp, r0, sp, lsl r3
    2568:	00149b00 	andseq	r9, r4, r0, lsl #22
    256c:	00148f00 	andseq	r8, r4, r0, lsl #30
    2570:	78781400 	ldmdavc	r8!, {sl, ip}^
    2574:	1aa20100 	bne	fe88297c <__bss_end__+0xfe877afc>
    2578:	00000077 	andeq	r0, r0, r7, ror r0
    257c:	04935906 	ldreq	r5, [r3], #2310	; 0x906
    2580:	1704935b 	smlsdne	r4, fp, r3, r9
    2584:	00009174 	andeq	r9, r0, r4, ror r1
    2588:	00000c3a 	andeq	r0, r0, sl, lsr ip
    258c:	000002d8 	ldrdeq	r0, [r0], -r8
    2590:	02500118 	subseq	r0, r0, #6
    2594:	01180076 	tsteq	r8, r6, ror r0
    2598:	1c030551 	cfstr32ne	mvfx0, [r3], {81}	; 0x51
    259c:	180000a7 	stmdane	r0, {r0, r1, r2, r5, r7}
    25a0:	33015201 	movwcc	r5, #4609	; 0x1201
    25a4:	918c1700 	orrls	r1, ip, r0, lsl #14
    25a8:	0c3a0000 	ldceq	0, cr0, [sl], #-0
    25ac:	02fa0000 	rscseq	r0, sl, #0, 0
    25b0:	01180000 	tsteq	r8, r0
    25b4:	00760250 	rsbseq	r0, r6, r0, asr r2
    25b8:	05510118 	ldrbeq	r0, [r1, #-280]	; 0xfffffee8
    25bc:	00a73003 	adceq	r3, r7, r3
    25c0:	52011800 	andpl	r1, r1, #0, 16
    25c4:	17003301 	strne	r3, [r0, -r1, lsl #6]
    25c8:	000091b0 			; <UNDEFINED> instruction: 0x000091b0
    25cc:	00000c46 	andeq	r0, r0, r6, asr #24
    25d0:	00000317 	andeq	r0, r0, r7, lsl r3
    25d4:	05500118 	ldrbeq	r0, [r0, #-280]	; 0xfffffee8
    25d8:	00a72003 	adceq	r2, r7, r3
    25dc:	51011800 	tstpl	r1, r0, lsl #16
    25e0:	00007b02 	andeq	r7, r0, r2, lsl #22
    25e4:	0091bc17 	addseq	fp, r1, r7, lsl ip
    25e8:	000c4600 	andeq	r4, ip, r0, lsl #12
    25ec:	00033400 	andeq	r3, r3, r0, lsl #8
    25f0:	50011800 	andpl	r1, r1, r0, lsl #16
    25f4:	a7280305 	strge	r0, [r8, -r5, lsl #6]!
    25f8:	01180000 	tsteq	r8, r0
    25fc:	00790251 	rsbseq	r0, r9, r1, asr r2
    2600:	91cc1700 	bicls	r1, ip, r0, lsl #14
    2604:	0c3a0000 	ldceq	0, cr0, [sl], #-0
    2608:	03560000 	cmpeq	r6, #0, 0
    260c:	01180000 	tsteq	r8, r0
    2610:	00760250 	rsbseq	r0, r6, r0, asr r2
    2614:	05510118 	ldrbeq	r0, [r1, #-280]	; 0xfffffee8
    2618:	00a71c03 	adceq	r1, r7, r3, lsl #24
    261c:	52011800 	andpl	r1, r1, #0, 16
    2620:	17003301 	strne	r3, [r0, -r1, lsl #6]
    2624:	000091fc 	strdeq	r9, [r0], -ip
    2628:	00000aa4 	andeq	r0, r0, r4, lsr #21
    262c:	00000383 	andeq	r0, r0, r3, lsl #7
    2630:	01500118 	cmpeq	r0, r8, lsl r1
    2634:	51011840 	tstpl	r1, r0, asr #16
    2638:	7dd09103 	ldfvcp	f1, [r0, #12]
    263c:	02520118 	subseq	r0, r2, #6
    2640:	0118007b 	tsteq	r8, fp, ror r0
    2644:	00750253 	rsbseq	r0, r5, r3, asr r2
    2648:	007d0218 	rsbseq	r0, sp, r8, lsl r2
    264c:	00007602 	andeq	r7, r0, r2, lsl #12
    2650:	00921c17 	addseq	r1, r2, r7, lsl ip
    2654:	000aa400 	andeq	sl, sl, r0, lsl #8
    2658:	0003aa00 	andeq	sl, r3, r0, lsl #20
    265c:	50011800 	andpl	r1, r1, r0, lsl #16
    2660:	01184001 	tsteq	r8, r1
    2664:	d0910351 	addsle	r0, r1, r1, asr r3
    2668:	5201187e 	andpl	r1, r1, #8257536	; 0x7e0000
    266c:	18007902 	stmdane	r0, {r1, r8, fp, ip, sp, lr}
    2670:	02007d02 	andeq	r7, r0, #128	; 0x80
    2674:	17000076 	smlsdxne	r0, r6, r0, r0
    2678:	0000922c 	andeq	r9, r0, ip, lsr #4
    267c:	00000c52 	andeq	r0, r0, r2, asr ip
    2680:	000003c6 	andeq	r0, r0, r6, asr #7
    2684:	03500118 	cmpeq	r0, #6
    2688:	187dd091 	ldmdane	sp!, {r0, r4, r7, ip, lr, pc}^
    268c:	91035101 	tstls	r3, r1, lsl #2
    2690:	17007ed2 			; <UNDEFINED> instruction: 0x17007ed2
    2694:	00009470 	andeq	r9, r0, r0, ror r4
    2698:	00000c3a 	andeq	r0, r0, sl, lsr ip
    269c:	000003e8 	andeq	r0, r0, r8, ror #7
    26a0:	02500118 	subseq	r0, r0, #6
    26a4:	01180076 	tsteq	r8, r6, ror r0
    26a8:	30030551 	andcc	r0, r3, r1, asr r5
    26ac:	180000a7 	stmdane	r0, {r0, r1, r2, r5, r7}
    26b0:	33015201 	movwcc	r5, #4609	; 0x1201
    26b4:	94941700 	ldrls	r1, [r4], #1792	; 0x700
    26b8:	0aa40000 	beq	fe9026c0 <__bss_end__+0xfe8f7840>
    26bc:	04150000 	ldreq	r0, [r5], #-0
    26c0:	01180000 	tsteq	r8, r0
    26c4:	183a0150 	ldmdane	sl!, {r4, r6, r8}
    26c8:	91035101 	tstls	r3, r1, lsl #2
    26cc:	01187dd0 			; <UNDEFINED> instruction: 0x01187dd0
    26d0:	007b0252 	rsbseq	r0, fp, r2, asr r2
    26d4:	02530118 	subseq	r0, r3, #6
    26d8:	02180075 	andseq	r0, r8, #117, 0	; 0x75
    26dc:	7602007d 			; <UNDEFINED> instruction: 0x7602007d
    26e0:	b4170000 	ldrlt	r0, [r7], #-0
    26e4:	a4000094 	strge	r0, [r0], #-148	; 0xffffff6c
    26e8:	3c00000a 	stccc	0, cr0, [r0], {10}
    26ec:	18000004 	stmdane	r0, {r2}
    26f0:	3a015001 	bcc	566fc <__bss_end__+0x4b87c>
    26f4:	03510118 	cmpeq	r1, #6
    26f8:	187ed091 	ldmdane	lr!, {r0, r4, r7, ip, lr, pc}^
    26fc:	79025201 	stmdbvc	r2, {r0, r9, ip, lr}
    2700:	7d021800 	stcvc	8, cr1, [r2, #-0]
    2704:	00760200 	rsbseq	r0, r6, r0, lsl #4
    2708:	94c01700 	strbls	r1, [r0], #1792	; 0x700
    270c:	0c5e0000 	mraeq	r0, lr, acc0
    2710:	045a0000 	ldrbeq	r0, [sl], #-0
    2714:	01180000 	tsteq	r8, r0
    2718:	d0910350 	addsle	r0, r1, r0, asr r3
    271c:	5101187d 	tstpl	r1, sp, ror r8
    2720:	a5400305 	strbge	r0, [r0, #-773]	; 0xfffffcfb
    2724:	17000000 	strne	r0, [r0, -r0]
    2728:	000094d4 	ldrdeq	r9, [r0], -r4
    272c:	00000c6a 	andeq	r0, r0, sl, ror #24
    2730:	00000476 	andeq	r0, r0, r6, ror r4
    2734:	03500118 	cmpeq	r0, #6
    2738:	187dd091 	ldmdane	sp!, {r0, r4, r7, ip, lr, pc}^
    273c:	91035101 	tstls	r3, r1, lsl #2
    2740:	19007ed0 	stmdbne	r0, {r4, r6, r7, r9, sl, fp, ip, sp, lr}
    2744:	000094e0 	andeq	r9, r0, r0, ror #9
    2748:	00000c52 	andeq	r0, r0, r2, asr ip
    274c:	0095a417 	addseq	sl, r5, r7, lsl r4
    2750:	000c4600 	andeq	r4, ip, r0, lsl #12
    2754:	0004a800 	andeq	sl, r4, r0, lsl #16
    2758:	50011800 	andpl	r1, r1, r0, lsl #16
    275c:	a1780305 	cmnge	r8, r5, lsl #6
    2760:	01180000 	tsteq	r8, r0
    2764:	d0030551 	andle	r0, r3, r1, asr r5
    2768:	180000a6 	stmdane	r0, {r1, r2, r5, r7}
    276c:	03055201 	movweq	r5, #20993	; 0x5201
    2770:	0000a828 	andeq	sl, r0, r8, lsr #16
    2774:	95a81900 	strls	r1, [r8, #2304]!	; 0x900
    2778:	0c760000 	ldcleq	0, cr0, [r6], #-0
    277c:	c0170000 	andsgt	r0, r7, r0
    2780:	46000095 			; <UNDEFINED> instruction: 0x46000095
    2784:	e700000c 	str	r0, [r0, -ip]
    2788:	18000004 	stmdane	r0, {r2}
    278c:	03055001 	movweq	r5, #20481	; 0x5001
    2790:	0000a770 	andeq	sl, r0, r0, ror r7
    2794:	05510118 	ldrbeq	r0, [r1, #-280]	; 0xfffffee8
    2798:	00a6d003 	adceq	sp, r6, r3
    279c:	52011800 	andpl	r1, r1, #0, 16
    27a0:	a8280305 	stmdage	r8!, {r0, r2, r8, r9}
    27a4:	01180000 	tsteq	r8, r0
    27a8:	b6080253 			; <UNDEFINED> instruction: 0xb6080253
    27ac:	007d0218 	rsbseq	r0, sp, r8, lsl r2
    27b0:	00007602 	andeq	r7, r0, r2, lsl #12
    27b4:	0095c419 	addseq	ip, r5, r9, lsl r4
    27b8:	000c7600 	andeq	r7, ip, r0, lsl #12
    27bc:	e31a0000 	tst	sl, #0, 0
    27c0:	74000009 	strvc	r0, [r0], #-9
    27c4:	04000090 	streq	r0, [r0], #-144	; 0xffffff70
    27c8:	00042800 	andeq	r2, r4, r0, lsl #16
    27cc:	0a940100 	beq	fe502bd4 <__bss_end__+0xfe4f7d54>
    27d0:	00000515 	andeq	r0, r0, r5, lsl r5
    27d4:	0009f41b 	andeq	pc, r9, fp, lsl r4	; <UNPREDICTABLE>
    27d8:	0014f700 	andseq	pc, r4, r0, lsl #14
    27dc:	0014f300 	andseq	pc, r4, r0, lsl #6
    27e0:	951a0000 	ldrls	r0, [sl, #-0]
    27e4:	5c000008 	stcpl	0, cr0, [r0], {8}
    27e8:	01000092 	swpeq	r0, r2, [r0]	; <UNPREDICTABLE>
    27ec:	00044800 	andeq	r4, r4, r0, lsl #16
    27f0:	09dc0100 	ldmibeq	ip, {r8}^
    27f4:	0000064b 	andeq	r0, r0, fp, asr #12
    27f8:	0008be1b 	andeq	fp, r8, fp, lsl lr
    27fc:	00152500 	andseq	r2, r5, r0, lsl #10
    2800:	00151f00 	andseq	r1, r5, r0, lsl #30
    2804:	08e01b00 	stmiaeq	r0!, {r8, r9, fp, ip}^
    2808:	155a0000 	ldrbne	r0, [sl, #-0]
    280c:	15540000 	ldrbne	r0, [r4, #-0]
    2810:	d41b0000 	ldrle	r0, [fp], #-0
    2814:	8c000008 	stchi	0, cr0, [r0], {8}
    2818:	86000015 			; <UNDEFINED> instruction: 0x86000015
    281c:	1c000015 	stcne	0, cr0, [r0], {21}
    2820:	000008c8 	andeq	r0, r0, r8, asr #17
    2824:	0008b21b 	andeq	fp, r8, fp, lsl r2
    2828:	0015bd00 	andseq	fp, r5, r0, lsl #26
    282c:	0015b500 	andseq	fp, r5, r0, lsl #10
    2830:	08a61b00 	stmiaeq	r6!, {r8, r9, fp, ip}
    2834:	16000000 	strne	r0, [r0], -r0
    2838:	15fa0000 	ldrbne	r0, [sl, #0]!
    283c:	48130000 	ldmdami	r3, {}	; <UNPREDICTABLE>
    2840:	1d000004 	stcne	0, cr0, [r0, #-16]
    2844:	000008ec 	andeq	r0, r0, ip, ror #17
    2848:	7ed89103 	atnvce	f1, f3
    284c:	0008f81e 	andeq	pc, r8, lr, lsl r8	; <UNPREDICTABLE>
    2850:	00163a00 	andseq	r3, r6, r0, lsl #20
    2854:	00162c00 	andseq	r2, r6, r0, lsl #24
    2858:	09021f00 	stmdbeq	r2, {r8, r9, sl, fp, ip}
    285c:	a31a0000 	tstge	sl, #0, 0
    2860:	68000009 	stmdavs	r0, {r0, r3}
    2864:	04000092 	streq	r0, [r0], #-146	; 0xffffff6e
    2868:	00047800 	andeq	r7, r4, r0, lsl #16
    286c:	097c0100 	ldmdbeq	ip!, {r8}^
    2870:	000005e2 	andeq	r0, r0, r2, ror #11
    2874:	0009ca1b 	andeq	ip, r9, fp, lsl sl
    2878:	0016a400 	andseq	sl, r6, r0, lsl #8
    287c:	00169e00 	andseq	r9, r6, r0, lsl #28
    2880:	09be1b00 	ldmibeq	lr!, {r8, r9, fp, ip}
    2884:	16d90000 	ldrbne	r0, [r9], r0
    2888:	16cd0000 	strbne	r0, [sp], r0
    288c:	b41b0000 	ldrlt	r0, [fp], #-0
    2890:	3f000009 	svccc	0x00000009
    2894:	2f000017 	svccs	0x00000017
    2898:	13000017 	movwne	r0, #23
    289c:	00000478 	andeq	r0, r0, r8, ror r4
    28a0:	0009d61e 	andeq	sp, r9, lr, lsl r6
    28a4:	0017bc00 	andseq	fp, r7, r0, lsl #24
    28a8:	0017ae00 	andseq	sl, r7, r0, lsl #28
    28ac:	20000000 	andcs	r0, r0, r0
    28b0:	0000094f 	andeq	r0, r0, pc, asr #18
    28b4:	00009330 	andeq	r9, r0, r0, lsr r3
    28b8:	04a80002 	strteq	r0, [r8], #2
    28bc:	7c010000 	stcvc	0, cr0, [r1], {-0}
    28c0:	09801b09 	stmibeq	r0, {r0, r3, r8, r9, fp, ip}
    28c4:	181c0000 	ldmdane	ip, {}	; <UNPREDICTABLE>
    28c8:	18160000 	ldmdane	r6, {}	; <UNPREDICTABLE>
    28cc:	761b0000 	ldrvc	r0, [fp], -r0
    28d0:	52000009 	andpl	r0, r0, #9, 0
    28d4:	48000018 	stmdami	r0, {r3, r4}
    28d8:	1b000018 	blne	2940 <__code_start__-0x56c0>
    28dc:	0000096c 	andeq	r0, r0, ip, ror #18
    28e0:	000018a1 	andeq	r1, r0, r1, lsr #17
    28e4:	0000189d 	muleq	r0, sp, r8
    28e8:	0009601b 	andeq	r6, r9, fp, lsl r0
    28ec:	0018d100 	andseq	sp, r8, r0, lsl #2
    28f0:	0018c300 	andseq	ip, r8, r0, lsl #6
    28f4:	04a81300 	strteq	r1, [r8], #768	; 0x300
    28f8:	8c1e0000 	ldchi	0, cr0, [lr], {-0}
    28fc:	36000009 	strcc	r0, [r0], -r9
    2900:	34000019 	strcc	r0, [r0], #-25	; 0xffffffe7
    2904:	1e000019 	mcrne	0, 0, r0, cr0, cr9, {0}
    2908:	00000998 	muleq	r0, r8, r9
    290c:	00001950 	andeq	r1, r0, r0, asr r9
    2910:	0000194a 	andeq	r1, r0, sl, asr #18
    2914:	00000000 	andeq	r0, r0, r0
    2918:	0008951a 	andeq	r9, r8, sl, lsl r5
    291c:	00936c00 	addseq	r6, r3, r0, lsl #24
    2920:	d8000000 	stmdale	r0, {}	; <UNPREDICTABLE>
    2924:	01000004 	tsteq	r0, r4
    2928:	078909d6 			; <UNDEFINED> instruction: 0x078909d6
    292c:	be1b0000 	cdplt	0, 1, cr0, cr11, cr0, {0}
    2930:	83000008 	movwhi	r0, #8
    2934:	7f000019 	svcvc	0x00000019
    2938:	1b000019 	blne	29a4 <__code_start__-0x565c>
    293c:	000008e0 	andeq	r0, r0, r0, ror #17
    2940:	000019a9 	andeq	r1, r0, r9, lsr #19
    2944:	000019a5 	andeq	r1, r0, r5, lsr #19
    2948:	0008d41b 	andeq	sp, r8, fp, lsl r4
    294c:	0019cd00 	andseq	ip, r9, r0, lsl #26
    2950:	0019c900 	andseq	ip, r9, r0, lsl #18
    2954:	08c81c00 	stmiaeq	r8, {sl, fp, ip}^
    2958:	b21b0000 	andslt	r0, fp, #0, 0
    295c:	f1000008 	cps	#8
    2960:	eb000019 	bl	29cc <__code_start__-0x5634>
    2964:	1b000019 	blne	29d0 <__code_start__-0x5630>
    2968:	000008a6 	andeq	r0, r0, r6, lsr #17
    296c:	00001a24 	andeq	r1, r0, r4, lsr #20
    2970:	00001a20 	andeq	r1, r0, r0, lsr #20
    2974:	0004d813 	andeq	sp, r4, r3, lsl r8
    2978:	08ec1d00 	stmiaeq	ip!, {r8, sl, fp, ip}^
    297c:	91030000 	mrsls	r0, (UNDEF: 3)
    2980:	f81e7ed8 			; <UNDEFINED> instruction: 0xf81e7ed8
    2984:	4e000008 	cdpmi	0, 0, cr0, cr0, cr8, {0}
    2988:	4400001a 	strmi	r0, [r0], #-26	; 0xffffffe6
    298c:	1e00001a 	mcrne	0, 0, r0, cr0, cr10, {0}
    2990:	00000902 	andeq	r0, r0, r2, lsl #18
    2994:	00001a93 	muleq	r0, r3, sl
    2998:	00001a8f 	andeq	r1, r0, pc, lsl #21
    299c:	0009a31a 	andeq	sl, r9, sl, lsl r3
    29a0:	00938800 	addseq	r8, r3, r0, lsl #16
    29a4:	f8000300 			; <UNDEFINED> instruction: 0xf8000300
    29a8:	01000004 	tsteq	r0, r4
    29ac:	0720097c 			; <UNDEFINED> instruction: 0x0720097c
    29b0:	ca1b0000 	bgt	6c29b8 <__bss_end__+0x6b7b38>
    29b4:	b5000009 	strlt	r0, [r0, #-9]
    29b8:	b100001a 	tstlt	r0, sl, lsl r0
    29bc:	1b00001a 	blne	2a2c <__code_start__-0x55d4>
    29c0:	000009be 			; <UNDEFINED> instruction: 0x000009be
    29c4:	00001ad7 	ldrdeq	r1, [r0], -r7
    29c8:	00001ad3 	ldrdeq	r1, [r0], -r3
    29cc:	0009b41b 	andeq	fp, r9, fp, lsl r4
    29d0:	001b0100 	andseq	r0, fp, r0, lsl #2
    29d4:	001af500 	andseq	pc, sl, r0, lsl #10
    29d8:	04f81300 	ldrbteq	r1, [r8], #768	; 0x300
    29dc:	d61e0000 	ldrle	r0, [lr], -r0
    29e0:	5d000009 	stcpl	0, cr0, [r0, #-36]	; 0xffffffdc
    29e4:	5100001b 	tstpl	r0, fp, lsl r0
    29e8:	0000001b 	andeq	r0, r0, fp, lsl r0
    29ec:	094f2000 	stmdbeq	pc, {sp}^	; <UNPREDICTABLE>
    29f0:	94100000 	ldrls	r0, [r0], #-0
    29f4:	00020000 	andeq	r0, r2, r0
    29f8:	00000520 	andeq	r0, r0, r0, lsr #10
    29fc:	1b097c01 	blne	261a08 <__bss_end__+0x256b88>
    2a00:	00000980 	andeq	r0, r0, r0, lsl #19
    2a04:	00001bad 	andeq	r1, r0, sp, lsr #23
    2a08:	00001ba9 	andeq	r1, r0, r9, lsr #23
    2a0c:	0009761b 	andeq	r7, r9, fp, lsl r6
    2a10:	001bd500 	andseq	sp, fp, r0, lsl #10
    2a14:	001bcb00 	andseq	ip, fp, r0, lsl #22
    2a18:	096c1b00 	stmdbeq	ip!, {r8, r9, fp, ip}^
    2a1c:	1c210000 	stcne	0, cr0, [r1], #-0
    2a20:	1c1d0000 	ldcne	0, cr0, [sp], {-0}
    2a24:	601b0000 	andsvs	r0, fp, r0
    2a28:	4f000009 	svcmi	0x00000009
    2a2c:	4300001c 	movwmi	r0, #28
    2a30:	1300001c 	movwne	r0, #28
    2a34:	00000520 	andeq	r0, r0, r0, lsr #10
    2a38:	00098c1e 	andeq	r8, r9, lr, lsl ip
    2a3c:	001ca900 	andseq	sl, ip, r0, lsl #18
    2a40:	001ca500 	andseq	sl, ip, r0, lsl #10
    2a44:	09981e00 	ldmibeq	r8, {r9, sl, fp, ip}
    2a48:	1ccf0000 	stclne	0, cr0, [pc], {0}
    2a4c:	1ccb0000 	stclne	0, cr0, [fp], {0}
    2a50:	00000000 	andeq	r0, r0, r0
    2a54:	3c170000 	ldccc	0, cr0, [r7], {-0}
    2a58:	a4000091 	strge	r0, [r0], #-145	; 0xffffff6f
    2a5c:	af00000a 	svcge	0x0000000a
    2a60:	18000007 	stmdane	r0, {r0, r1, r2}
    2a64:	40015001 	andmi	r5, r1, r1
    2a68:	03510118 	cmpeq	r1, #6
    2a6c:	187dd091 	ldmdane	sp!, {r0, r4, r7, ip, lr, pc}^
    2a70:	75025301 	strvc	r5, [r2, #-769]	; 0xfffffcff
    2a74:	7d021800 	stcvc	8, cr1, [r2, #-0]
    2a78:	00300100 	eorseq	r0, r0, r0, lsl #2
    2a7c:	00924c17 	addseq	r4, r2, r7, lsl ip
    2a80:	000aa400 	andeq	sl, sl, r0, lsl #8
    2a84:	0007cf00 	andeq	ip, r7, r0, lsl #30
    2a88:	50011800 	andpl	r1, r1, r0, lsl #16
    2a8c:	01183a01 	tsteq	r8, r1, lsl #20
    2a90:	d0910351 	addsle	r0, r1, r1, asr r3
    2a94:	5301187d 	movwpl	r1, #6269	; 0x187d
    2a98:	00007502 	andeq	r7, r0, r2, lsl #10
    2a9c:	00953017 	addseq	r3, r5, r7, lsl r0
    2aa0:	000c4600 	andeq	r4, ip, r0, lsl #12
    2aa4:	0007e600 	andeq	lr, r7, r0, lsl #12
    2aa8:	50011800 	andpl	r1, r1, r0, lsl #16
    2aac:	a7c00305 	strbge	r0, [r0, r5, lsl #6]
    2ab0:	21000000 	mrscs	r0, (UNDEF: 0)
    2ab4:	00009540 	andeq	r9, r0, r0, asr #10
    2ab8:	000007f8 	strdeq	r0, [r0], -r8
    2abc:	04500118 	ldrbeq	r0, [r0], #-280	; 0xfffffee8
    2ac0:	067dc891 			; <UNDEFINED> instruction: 0x067dc891
    2ac4:	95541700 	ldrbls	r1, [r4, #-1792]	; 0xfffff900
    2ac8:	0c460000 	mareq	acc0, r0, r6
    2acc:	08270000 	stmdaeq	r7!, {}	; <UNPREDICTABLE>
    2ad0:	01180000 	tsteq	r8, r0
    2ad4:	f0030550 			; <UNDEFINED> instruction: 0xf0030550
    2ad8:	180000a7 	stmdane	r0, {r0, r1, r2, r5, r7}
    2adc:	03055101 	movweq	r5, #20737	; 0x5101
    2ae0:	0000a6d0 	ldrdeq	sl, [r0], -r0
    2ae4:	05520118 	ldrbeq	r0, [r2, #-280]	; 0xfffffee8
    2ae8:	00a82803 	adceq	r2, r8, r3, lsl #16
    2aec:	53011800 	movwpl	r1, #6144	; 0x1800
    2af0:	00e20802 	rsceq	r0, r2, r2, lsl #16
    2af4:	00955819 	addseq	r5, r5, r9, lsl r8
    2af8:	000c7600 	andeq	r7, ip, r0, lsl #12
    2afc:	956c1700 	strbls	r1, [ip, #-1792]!	; 0xfffff900
    2b00:	0c460000 	mareq	acc0, r0, r6
    2b04:	085f0000 	ldmdaeq	pc, {}^	; <UNPREDICTABLE>
    2b08:	01180000 	tsteq	r8, r0
    2b0c:	98030550 	stmdals	r3, {r4, r6, r8, sl}
    2b10:	180000a7 	stmdane	r0, {r0, r1, r2, r5, r7}
    2b14:	03055101 	movweq	r5, #20737	; 0x5101
    2b18:	0000a6d0 	ldrdeq	sl, [r0], -r0
    2b1c:	05520118 	ldrbeq	r0, [r2, #-280]	; 0xfffffee8
    2b20:	00a82803 	adceq	r2, r8, r3, lsl #16
    2b24:	53011800 	movwpl	r1, #6144	; 0x1800
    2b28:	00be0802 	adcseq	r0, lr, r2, lsl #16
    2b2c:	00957019 	addseq	r7, r5, r9, lsl r0
    2b30:	000c7600 	andeq	r7, ip, r0, lsl #12
    2b34:	08000000 	stmdaeq	r0, {}	; <UNPREDICTABLE>
    2b38:	0000b904 	andeq	fp, r0, r4, lsl #18
    2b3c:	00c02200 	sbceq	r2, r0, r0, lsl #4
    2b40:	08800000 	stmeq	r0, {}	; <UNPREDICTABLE>
    2b44:	2c230000 	stccs	0, cr0, [r3], #-0
    2b48:	09000000 	stmdbeq	r0, {}	; <UNPREDICTABLE>
    2b4c:	08700900 	ldmdaeq	r0!, {r8, fp}^
    2b50:	b9220000 	stmdblt	r2!, {}	; <UNPREDICTABLE>
    2b54:	95000000 	strls	r0, [r0, #-0]
    2b58:	23000008 	movwcs	r0, #8
    2b5c:	0000002c 	andeq	r0, r0, ip, lsr #32
    2b60:	c424007f 	strtgt	r0, [r4], #-127	; 0xffffff81
    2b64:	01000005 	tsteq	r0, r5
    2b68:	086a0149 	stmdaeq	sl!, {r0, r3, r6, r8}^
    2b6c:	2a010000 	bcs	42b74 <__bss_end__+0x37cf4>
    2b70:	25000009 	strcs	r0, [r0, #-9]
    2b74:	0000036b 	andeq	r0, r0, fp, ror #6
    2b78:	2c0f4901 			; <UNDEFINED> instruction: 0x2c0f4901
    2b7c:	26000000 	strcs	r0, [r0], -r0
    2b80:	00747364 	rsbseq	r7, r4, r4, ror #6
    2b84:	6a1b4901 	bvs	6d4f90 <__bss_end__+0x6ca110>
    2b88:	26000008 	strcs	r0, [r0], -r8
    2b8c:	4901006e 	stmdbmi	r1, {r1, r2, r3, r5, r6}
    2b90:	00003324 	andeq	r3, r0, r4, lsr #6
    2b94:	61762600 	cmnvs	r6, r0, lsl #12
    2b98:	4901006c 	stmdbmi	r1, {r2, r3, r5, r6}
    2b9c:	0000332b 	andeq	r3, r0, fp, lsr #6
    2ba0:	056d2500 	strbeq	r2, [sp, #-1280]!	; 0xfffffb00
    2ba4:	49010000 	stmdbmi	r1, {}	; <UNPREDICTABLE>
    2ba8:	00003334 	andeq	r3, r0, r4, lsr r3
    2bac:	05fa2500 	ldrbeq	r2, [sl, #1280]!	; 0x500
    2bb0:	49010000 	stmdbmi	r1, {}	; <UNPREDICTABLE>
    2bb4:	0000333f 	andeq	r3, r0, pc, lsr r3
    2bb8:	75622700 	strbvc	r2, [r2, #-1792]!	; 0xfffff900
    2bbc:	4e010066 	cdpmi	0, 0, cr0, cr1, cr6, {3}
    2bc0:	00092a07 	andeq	r2, r9, r7, lsl #20
    2bc4:	00702700 	rsbseq	r2, r0, r0, lsl #14
    2bc8:	6a114e01 	bvs	4563d4 <__bss_end__+0x44b554>
    2bcc:	27000008 	strcs	r0, [r0, -r8]
    2bd0:	4f010075 	svcmi	0x00010075
    2bd4:	00002c0b 	andeq	r2, r0, fp, lsl #24
    2bd8:	00b91200 	adcseq	r1, r9, r0, lsl #4
    2bdc:	094a0000 	stmdbeq	sl, {}^	; <UNPREDICTABLE>
    2be0:	03050000 	movweq	r0, #20480	; 0x5000
    2be4:	0000a810 	andeq	sl, r0, r0, lsl r8
    2be8:	05b12928 	ldreq	r2, [r1, #2344]!	; 0x928
    2bec:	54010000 	strpl	r0, [r1], #-0
    2bf0:	00002c0d 	andeq	r2, r0, sp, lsl #24
    2bf4:	22000000 	andcs	r0, r0, #0, 0
    2bf8:	000000b9 	strheq	r0, [r0], -r9
    2bfc:	0000093a 	andeq	r0, r0, sl, lsr r9
    2c00:	00002c23 	andeq	r2, r0, r3, lsr #24
    2c04:	22003f00 	andcs	r3, r0, #0, 30
    2c08:	000000c0 	andeq	r0, r0, r0, asr #1
    2c0c:	0000094a 	andeq	r0, r0, sl, asr #18
    2c10:	00002c23 	andeq	r2, r0, r3, lsr #24
    2c14:	09000400 	stmdbeq	r0, {sl}
    2c18:	0000093a 	andeq	r0, r0, sl, lsr r9
    2c1c:	0005c924 	andeq	ip, r5, r4, lsr #18
    2c20:	0e380100 	rsfeqe	f0, f0, f0
    2c24:	0000086a 	andeq	r0, r0, sl, ror #16
    2c28:	0009a301 	andeq	sl, r9, r1, lsl #6
    2c2c:	73642600 	cmnvc	r4, #0, 12
    2c30:	38010074 	stmdacc	r1, {r2, r4, r5, r6}
    2c34:	00086a1c 	andeq	r6, r8, ip, lsl sl
    2c38:	006e2600 	rsbeq	r2, lr, r0, lsl #12
    2c3c:	33253801 			; <UNDEFINED> instruction: 0x33253801
    2c40:	26000000 	strcs	r0, [r0], -r0
    2c44:	38010070 	stmdacc	r1, {r4, r5, r6}
    2c48:	00086a2e 	andeq	r6, r8, lr, lsr #20
    2c4c:	09942500 	ldmibeq	r4, {r8, sl, sp}
    2c50:	38010000 	stmdacc	r1, {}	; <UNPREDICTABLE>
    2c54:	00086a37 	andeq	r6, r8, r7, lsr sl
    2c58:	656c2700 	strbvs	r2, [ip, #-1792]!	; 0xfffff900
    2c5c:	3a01006e 	bcc	42e1c <__bss_end__+0x37f9c>
    2c60:	00003306 	andeq	r3, r0, r6, lsl #6
    2c64:	00732700 	rsbseq	r2, r3, r0, lsl #14
    2c68:	6a083e01 	bvs	212474 <__bss_end__+0x2075f4>
    2c6c:	00000008 	andeq	r0, r0, r8
    2c70:	6461702a 	strbtvs	r7, [r1], #-42	; 0xffffffd6
    2c74:	0e2e0100 	sufeqe	f0, f6, f0
    2c78:	0000086a 	andeq	r0, r0, sl, ror #16
    2c7c:	0009e301 	andeq	lr, r9, r1, lsl #6
    2c80:	00702600 	rsbseq	r2, r0, r0, lsl #12
    2c84:	6a182e01 	bvs	60e490 <__bss_end__+0x603610>
    2c88:	25000008 	strcs	r0, [r0, #-8]
    2c8c:	0000036b 	andeq	r0, r0, fp, ror #6
    2c90:	6a222e01 	bvs	88e49c <__bss_end__+0x88361c>
    2c94:	25000008 	strcs	r0, [r0, #-8]
    2c98:	0000056d 	andeq	r0, r0, sp, ror #10
    2c9c:	332c2e01 			; <UNDEFINED> instruction: 0x332c2e01
    2ca0:	27000000 	strcs	r0, [r0, -r0]
    2ca4:	006e656c 	rsbeq	r6, lr, ip, ror #10
    2ca8:	33062f01 	movwcc	r2, #28417	; 0x6f01
    2cac:	00000000 	andeq	r0, r0, r0
    2cb0:	00053a24 	andeq	r3, r5, r4, lsr #20
    2cb4:	0c270100 	stfeqs	f0, [r7], #-0
    2cb8:	00000033 	andeq	r0, r0, r3, lsr r0
    2cbc:	0009ff01 	andeq	pc, r9, r1, lsl #30
    2cc0:	00632600 	rsbeq	r2, r3, r0, lsl #12
    2cc4:	33182701 	tstcc	r8, #262144	; 0x40000
    2cc8:	00000000 	andeq	r0, r0, r0
    2ccc:	00058a2b 	andeq	r8, r5, fp, lsr #20
    2cd0:	061f0100 	ldreq	r0, [pc], -r0, lsl #2
    2cd4:	00008f88 	andeq	r8, r0, r8, lsl #31
    2cd8:	00000060 	andeq	r0, r0, r0, rrx
    2cdc:	0a8f9c01 	beq	fe3e9ce8 <__bss_end__+0xfe3dee68>
    2ce0:	730f0000 	movwvc	r0, #61440	; 0xf000
    2ce4:	01000005 	tsteq	r0, r5
    2ce8:	009e1b1f 	addseq	r1, lr, pc, lsl fp
    2cec:	1cf40000 	ldclne	0, cr0, [r4]
    2cf0:	1cf00000 	ldclne	0, cr0, [r0]
    2cf4:	d80f0000 	stmdale	pc, {}	; <UNPREDICTABLE>
    2cf8:	01000005 	tsteq	r0, r5
    2cfc:	00d1301f 	sbcseq	r3, r1, pc, lsl r0
    2d00:	1d190000 	ldcne	0, cr0, [r9, #-0]
    2d04:	1d150000 	ldcne	0, cr0, [r5, #-0]
    2d08:	b9120000 	ldmdblt	r2, {}	; <UNPREDICTABLE>
    2d0c:	9f000000 	svcls	0x00000000
    2d10:	0500000a 	streq	r0, [r0, #-10]
    2d14:	00a81803 	adceq	r1, r8, r3, lsl #16
    2d18:	8fcc1700 	svchi	0x00cc1700
    2d1c:	0c460000 	mareq	acc0, r0, r6
    2d20:	0a850000 	beq	fe142d28 <__bss_end__+0xfe137ea8>
    2d24:	01180000 	tsteq	r8, r0
    2d28:	78030550 	stmdavc	r3, {r4, r6, r8, sl}
    2d2c:	180000a1 	stmdane	r0, {r0, r5, r7}
    2d30:	03055101 	movweq	r5, #20737	; 0x5101
    2d34:	0000a6d0 	ldrdeq	sl, [r0], -r0
    2d38:	05520118 	ldrbeq	r0, [r2, #-280]	; 0xfffffee8
    2d3c:	00a81803 	adceq	r1, r8, r3, lsl #16
    2d40:	53011800 	movwpl	r1, #6144	; 0x1800
    2d44:	18200802 	stmdane	r0!, {r1, fp}
    2d48:	05007d02 	streq	r7, [r0, #-3330]	; 0xfffff2fe
    2d4c:	00a70803 	adceq	r0, r7, r3, lsl #16
    2d50:	d0190000 	andsle	r0, r9, r0
    2d54:	7600008f 	strvc	r0, [r0], -pc, lsl #1
    2d58:	0000000c 	andeq	r0, r0, ip
    2d5c:	0000c022 	andeq	ip, r0, r2, lsr #32
    2d60:	000a9f00 	andeq	r9, sl, r0, lsl #30
    2d64:	002c2300 	eoreq	r2, ip, r0, lsl #6
    2d68:	000e0000 	andeq	r0, lr, r0
    2d6c:	000a8f09 	andeq	r8, sl, r9, lsl #30
    2d70:	08952c00 	ldmeq	r5, {sl, fp, sp}
    2d74:	8c600000 	stclhi	0, cr0, [r0], #-0
    2d78:	03280000 			; <UNDEFINED> instruction: 0x03280000
    2d7c:	9c010000 	stcls	0, cr0, [r1], {-0}
    2d80:	00000c3a 	andeq	r0, r0, sl, lsr ip
    2d84:	0008a61b 	andeq	sl, r8, fp, lsl r6
    2d88:	001d5200 	andseq	r5, sp, r0, lsl #4
    2d8c:	001d3a00 	andseq	r3, sp, r0, lsl #20
    2d90:	08b21b00 	ldmeq	r2!, {r8, r9, fp, ip}
    2d94:	1dfc0000 	ldclne	0, cr0, [ip]
    2d98:	1df40000 	ldclne	0, cr0, [r4]
    2d9c:	c81b0000 	ldmdagt	fp, {}	; <UNPREDICTABLE>
    2da0:	53000008 	movwpl	r0, #8
    2da4:	3300001e 	movwcc	r0, #30
    2da8:	1b00001e 	blne	2e28 <__code_start__-0x51d8>
    2dac:	000008d4 	ldrdeq	r0, [r0], -r4
    2db0:	00001f29 	andeq	r1, r0, r9, lsr #30
    2db4:	00001f1b 	andeq	r1, r0, fp, lsl pc
    2db8:	0008e02d 	andeq	lr, r8, sp, lsr #32
    2dbc:	00910200 	addseq	r0, r1, r0, lsl #4
    2dc0:	0008ec1d 	andeq	lr, r8, sp, lsl ip
    2dc4:	a8910300 	ldmge	r1, {r8, r9}
    2dc8:	08f81e7f 	ldmeq	r8!, {r0, r1, r2, r3, r4, r5, r6, r9, sl, fp, ip}^
    2dcc:	1fbd0000 	svcne	0x00bd0000
    2dd0:	1f890000 	svcne	0x00890000
    2dd4:	021e0000 	andseq	r0, lr, #0, 0
    2dd8:	24000009 	strcs	r0, [r0], #-9
    2ddc:	02000021 	andeq	r0, r0, #33, 0	; 0x21
    2de0:	2e000021 	cdpcs	0, 0, cr0, cr0, cr1, {1}
    2de4:	000008be 			; <UNDEFINED> instruction: 0x000008be
    2de8:	09a31a80 	stmibeq	r3!, {r7, r9, fp, ip}
    2dec:	8d040000 	stchi	0, cr0, [r4, #-0]
    2df0:	00040000 	andeq	r0, r4, r0
    2df4:	00000370 	andeq	r0, r0, r0, ror r3
    2df8:	6d097c01 	stcvs	12, cr7, [r9, #-4]
    2dfc:	1b00000b 	blne	2e30 <__code_start__-0x51d0>
    2e00:	000009ca 	andeq	r0, r0, sl, asr #19
    2e04:	0000220c 	andeq	r2, r0, ip, lsl #4
    2e08:	00002202 	andeq	r2, r0, r2, lsl #4
    2e0c:	0009be1b 	andeq	fp, r9, fp, lsl lr
    2e10:	00226000 	eoreq	r6, r2, r0
    2e14:	00225000 	eoreq	r5, r2, r0
    2e18:	09b41b00 	ldmibeq	r4!, {r8, r9, fp, ip}
    2e1c:	22e00000 	rsccs	r0, r0, #0, 0
    2e20:	22cc0000 	sbccs	r0, ip, #0, 0
    2e24:	70130000 	andsvc	r0, r3, r0
    2e28:	1e000003 	cdpne	0, 0, cr0, cr0, cr3, {0}
    2e2c:	000009d6 	ldrdeq	r0, [r0], -r6
    2e30:	00002372 	andeq	r2, r0, r2, ror r3
    2e34:	00002362 	andeq	r2, r0, r2, ror #6
    2e38:	4f1a0000 	svcmi	0x001a0000
    2e3c:	bc000009 	stclt	0, cr0, [r0], {9}
    2e40:	0200008d 	andeq	r0, r0, #141, 0	; 0x8d
    2e44:	0003b800 	andeq	fp, r3, r0, lsl #16
    2e48:	097c0100 	ldmdbeq	ip!, {r8}^
    2e4c:	00000bd8 	ldrdeq	r0, [r0], -r8
    2e50:	0009801b 	andeq	r8, r9, fp, lsl r0
    2e54:	0023de00 	eoreq	sp, r3, r0, lsl #28
    2e58:	0023d600 	eoreq	sp, r3, r0, lsl #12
    2e5c:	09761b00 	ldmdbeq	r6!, {r8, r9, fp, ip}^
    2e60:	241d0000 	ldrcs	r0, [sp], #-0
    2e64:	24150000 	ldrcs	r0, [r5], #-0
    2e68:	6c1b0000 	ldcvs	0, cr0, [fp], {-0}
    2e6c:	5c000009 	stcpl	0, cr0, [r0], {9}
    2e70:	58000024 	stmdapl	r0, {r2, r5}
    2e74:	1b000024 	blne	2f0c <__code_start__-0x50f4>
    2e78:	00000960 	andeq	r0, r0, r0, ror #18
    2e7c:	0000248c 	andeq	r2, r0, ip, lsl #9
    2e80:	0000247e 	andeq	r2, r0, lr, ror r4
    2e84:	0003b813 	andeq	fp, r3, r3, lsl r8
    2e88:	098c1e00 	stmibeq	ip, {r9, sl, fp, ip}
    2e8c:	24f10000 	ldrbtcs	r0, [r1], #0
    2e90:	24eb0000 	strbtcs	r0, [fp], #0
    2e94:	981e0000 	ldmdals	lr, {}	; <UNPREDICTABLE>
    2e98:	23000009 	movwcs	r0, #9
    2e9c:	1f000025 	svcne	0x00000025
    2ea0:	00000025 	andeq	r0, r0, r5, lsr #32
    2ea4:	091b2f00 	ldmdbeq	fp, {r8, r9, sl, fp, sp}
    2ea8:	8e740000 	cdphi	0, 7, cr0, cr4, cr0, {0}
    2eac:	00600000 	rsbeq	r0, r0, r0
    2eb0:	0bf70000 	bleq	ffdc2eb8 <__bss_end__+0xffdb8038>
    2eb4:	1c1e0000 	ldcne	0, cr0, [lr], {-0}
    2eb8:	45000009 	strmi	r0, [r0, #-9]
    2ebc:	41000025 	tstmi	r0, r5, lsr #32
    2ec0:	00000025 	andeq	r0, r0, r5, lsr #32
    2ec4:	008f4817 	addeq	r4, pc, r7, lsl r8	; <UNPREDICTABLE>
    2ec8:	000c4600 	andeq	r4, ip, r0, lsl #12
    2ecc:	000c3000 	andeq	r3, ip, r0
    2ed0:	50011800 	andpl	r1, r1, r0, lsl #16
    2ed4:	a1780305 	cmnge	r8, r5, lsl #6
    2ed8:	01180000 	tsteq	r8, r0
    2edc:	d0030551 	andle	r0, r3, r1, asr r5
    2ee0:	180000a6 	stmdane	r0, {r1, r2, r5, r7}
    2ee4:	03055201 	movweq	r5, #20993	; 0x5201
    2ee8:	0000a810 	andeq	sl, r0, r0, lsl r8
    2eec:	02530118 	subseq	r0, r3, #6
    2ef0:	02187908 	andseq	r7, r8, #8, 18	; 0x20000
    2ef4:	0305007d 	movweq	r0, #20605	; 0x507d
    2ef8:	0000a540 	andeq	sl, r0, r0, asr #10
    2efc:	8f4c1900 	svchi	0x004c1900
    2f00:	0c760000 	ldcleq	0, cr0, [r6], #-0
    2f04:	30000000 	andcc	r0, r0, r0
    2f08:	000005f2 	strdeq	r0, [r0], -r2
    2f0c:	000005f2 	strdeq	r0, [r0], -r2
    2f10:	3005eb03 	andcc	lr, r5, r3, lsl #22
    2f14:	000004e9 	andeq	r0, r0, r9, ror #9
    2f18:	000004e9 	andeq	r0, r0, r9, ror #9
    2f1c:	30062803 	andcc	r2, r6, r3, lsl #16
    2f20:	000005a3 	andeq	r0, r0, r3, lsr #11
    2f24:	000005a3 	andeq	r0, r0, r3, lsr #11
    2f28:	3007ee03 	andcc	lr, r7, r3, lsl #28
    2f2c:	000005d1 	ldrdeq	r0, [r0], -r1
    2f30:	000005d1 	ldrdeq	r0, [r0], -r1
    2f34:	3005ea03 	andcc	lr, r5, r3, lsl #20
    2f38:	000005aa 	andeq	r0, r0, sl, lsr #11
    2f3c:	000005aa 	andeq	r0, r0, sl, lsr #11
    2f40:	3007ed03 	andcc	lr, r7, r3, lsl #26
    2f44:	000000d0 	ldrdeq	r0, [r0], -r0	; <UNPREDICTABLE>
    2f48:	000000d0 	ldrdeq	r0, [r0], -r0	; <UNPREDICTABLE>
    2f4c:	00066e03 	andeq	r6, r6, r3, lsl #28
    2f50:	0000012f 	andeq	r0, r0, pc, lsr #2
    2f54:	10390004 	eorsne	r0, r9, r4
    2f58:	01040000 	mrseq	r0, (UNDEF: 4)
    2f5c:	000001a8 	andeq	r0, r0, r8, lsr #3
    2f60:	0006170c 	andeq	r1, r6, ip, lsl #14
    2f64:	0004bf00 	andeq	fp, r4, r0, lsl #30
    2f68:	00961400 	addseq	r1, r6, r0, lsl #8
    2f6c:	00002c00 	andeq	r2, r0, r0, lsl #24
    2f70:	0019af00 	andseq	sl, r9, r0, lsl #30
    2f74:	05040200 	streq	r0, [r4, #-512]	; 0xfffffe00
    2f78:	00746e69 	rsbseq	r6, r4, r9, ror #28
    2f7c:	54070403 	strpl	r0, [r7], #-1027	; 0xfffffbfd
    2f80:	03000001 	movweq	r0, #1
    2f84:	00ec0601 	rsceq	r0, ip, r1, lsl #12
    2f88:	02030000 	andeq	r0, r3, #0, 0
    2f8c:	00004905 	andeq	r4, r0, r5, lsl #18
    2f90:	05040300 	streq	r0, [r4, #-768]	; 0xfffffd00
    2f94:	0000009f 	muleq	r0, pc, r0	; <UNPREDICTABLE>
    2f98:	9a050803 	bls	144fac <__bss_end__+0x13a12c>
    2f9c:	03000000 	movweq	r0, #0
    2fa0:	00ea0801 	rsceq	r0, sl, r1, lsl #16
    2fa4:	02030000 	andeq	r0, r3, #0, 0
    2fa8:	00017b07 	andeq	r7, r1, r7, lsl #22
    2fac:	07040300 	streq	r0, [r4, -r0, lsl #6]
    2fb0:	0000014f 	andeq	r0, r0, pc, asr #2
    2fb4:	4a070803 	bmi	1c4fc8 <__bss_end__+0x1ba148>
    2fb8:	04000001 	streq	r0, [r0], #-1
    2fbc:	00000025 	andeq	r0, r0, r5, lsr #32
    2fc0:	0000007a 	andeq	r0, r0, sl, ror r0
    2fc4:	00002505 	andeq	r2, r0, r5, lsl #10
    2fc8:	53060000 	movwpl	r0, #24576	; 0x6000
    2fcc:	02000000 	andeq	r0, r0, #0, 0
    2fd0:	00860e1c 	addeq	r0, r6, ip, lsl lr
    2fd4:	04070000 	streq	r0, [r7], #-0
    2fd8:	0000006b 	andeq	r0, r0, fp, rrx
    2fdc:	00002504 	andeq	r2, r0, r4, lsl #10
    2fe0:	00009b00 	andeq	r9, r0, r0, lsl #22
    2fe4:	009b0500 	addseq	r0, fp, r0, lsl #10
    2fe8:	07000000 	streq	r0, [r0, -r0]
    2fec:	0000a804 	andeq	sl, r0, r4, lsl #16
    2ff0:	08010300 	stmdaeq	r1, {r8, r9}
    2ff4:	000000f3 	strdeq	r0, [r0], -r3
    2ff8:	0000a108 	andeq	sl, r0, r8, lsl #2
    2ffc:	05270600 	streq	r0, [r7, #-1536]!	; 0xfffffa00
    3000:	21020000 	mrscs	r0, (UNDEF: 2)
    3004:	0000b90e 	andeq	fp, r0, lr, lsl #18
    3008:	8c040700 	stchi	7, cr0, [r4], {-0}
    300c:	09000000 	stmdbeq	r0, {}	; <UNPREDICTABLE>
    3010:	000000d0 	ldrdeq	r0, [r0], -r0	; <UNPREDICTABLE>
    3014:	14060401 	strne	r0, [r6], #-1025	; 0xfffffbff
    3018:	2c000096 	stccs	0, cr0, [r0], {150}	; 0x96
    301c:	01000000 	mrseq	r0, (UNDEF: 0)
    3020:	00010e9c 	muleq	r1, ip, lr
    3024:	96280a00 	strtls	r0, [r8], -r0, lsl #20
    3028:	00e80000 	rsceq	r0, r8, r0
    302c:	010b0000 	mrseq	r0, (UNDEF: 11)
    3030:	34030550 	strcc	r0, [r3], #-1360	; 0xfffffab0
    3034:	000000a8 	andeq	r0, r0, r8, lsr #1
    3038:	00962c0c 	addseq	r2, r6, ip, lsl #24
    303c:	00010e00 	andeq	r0, r1, r0, lsl #28
    3040:	96340d00 	ldrtls	r0, [r4], -r0, lsl #26
    3044:	011a0000 	tsteq	sl, r0
    3048:	01040000 	mrseq	r0, (UNDEF: 4)
    304c:	010b0000 	mrseq	r0, (UNDEF: 11)
    3050:	003a0150 	eorseq	r0, sl, r0, asr r1
    3054:	0096380c 	addseq	r3, r6, ip, lsl #16
    3058:	00012600 	andeq	r2, r1, r0, lsl #12
    305c:	320e0000 	andcc	r0, lr, #0, 0
    3060:	32000006 	andcc	r0, r0, #6, 0
    3064:	02000006 	andeq	r0, r0, #6, 0
    3068:	0e0e064d 	cfmadd32eq	mvax2, mvfx0, mvfx14, mvfx13
    306c:	0e000006 	cdpeq	0, 0, cr0, cr0, cr6, {0}
    3070:	02000006 	andeq	r0, r0, #6, 0
    3074:	030e0658 	movweq	r0, #58968	; 0xe658
    3078:	03000006 	movweq	r0, #6
    307c:	02000006 	andeq	r0, r0, #6, 0
    3080:	9000066b 	andls	r0, r0, fp, ror #12
    3084:	04000001 	streq	r0, [r0], #-1
    3088:	0010f900 	andseq	pc, r0, r0, lsl #18
    308c:	a8010400 	stmdage	r1, {sl}
    3090:	0c000001 	stceq	0, cr0, [r0], {1}
    3094:	00000668 	andeq	r0, r0, r8, ror #12
    3098:	000004bf 			; <UNDEFINED> instruction: 0x000004bf
    309c:	00009640 	andeq	r9, r0, r0, asr #12
    30a0:	000000f8 	strdeq	r0, [r0], -r8
    30a4:	00001a3a 	andeq	r1, r0, sl, lsr sl
    30a8:	69050402 	stmdbvs	r5, {r1, sl}
    30ac:	0300746e 	movweq	r7, #1134	; 0x46e
    30b0:	01540704 	cmpeq	r4, r4, lsl #14
    30b4:	01030000 	mrseq	r0, (UNDEF: 3)
    30b8:	0000ec06 	andeq	lr, r0, r6, lsl #24
    30bc:	05020300 	streq	r0, [r2, #-768]	; 0xfffffd00
    30c0:	00000049 	andeq	r0, r0, r9, asr #32
    30c4:	9f050403 	svcls	0x00050403
    30c8:	03000000 	movweq	r0, #0
    30cc:	009a0508 	addseq	r0, sl, r8, lsl #10
    30d0:	01030000 	mrseq	r0, (UNDEF: 3)
    30d4:	0000ea08 	andeq	lr, r0, r8, lsl #20
    30d8:	07020300 	streq	r0, [r2, -r0, lsl #6]
    30dc:	0000017b 	andeq	r0, r0, fp, ror r1
    30e0:	4f070403 	svcmi	0x00070403
    30e4:	03000001 	movweq	r0, #1
    30e8:	014a0708 	cmpeq	sl, r8, lsl #14
    30ec:	25040000 	strcs	r0, [r4, #-0]
    30f0:	7a000000 	bvc	30f8 <__code_start__-0x4f08>
    30f4:	05000000 	streq	r0, [r0, #-0]
    30f8:	00000025 	andeq	r0, r0, r5, lsr #32
    30fc:	00530600 	subseq	r0, r3, r0, lsl #12
    3100:	1c020000 	stcne	0, cr0, [r2], {-0}
    3104:	0000860e 	andeq	r8, r0, lr, lsl #12
    3108:	6b040700 	blvs	104d10 <__bss_end__+0xf9e90>
    310c:	04000000 	streq	r0, [r0], #-0
    3110:	00000025 	andeq	r0, r0, r5, lsr #32
    3114:	0000009b 	muleq	r0, fp, r0
    3118:	00009b05 	andeq	r9, r0, r5, lsl #22
    311c:	04070000 	streq	r0, [r7], #-0
    3120:	000000a8 	andeq	r0, r0, r8, lsr #1
    3124:	f3080103 	vrhadd.u8	d0, d8, d3
    3128:	08000000 	stmdaeq	r0, {}	; <UNPREDICTABLE>
    312c:	000000a1 	andeq	r0, r0, r1, lsr #1
    3130:	00052706 	andeq	r2, r5, r6, lsl #14
    3134:	0e210200 	cdpeq	2, 2, cr0, cr1, cr0, {0}
    3138:	000000b9 	strheq	r0, [r0], -r9
    313c:	008c0407 	addeq	r0, ip, r7, lsl #8
    3140:	40090000 	andmi	r0, r9, r0
    3144:	01000006 	tsteq	r0, r6
    3148:	96400604 	strbls	r0, [r0], -r4, lsl #12
    314c:	00f80000 	rscseq	r0, r8, r0
    3150:	9c010000 	stcls	0, cr0, [r1], {-0}
    3154:	0000015b 	andeq	r0, r0, fp, asr r1
    3158:	00007f06 	andeq	r7, r0, r6, lsl #30
    315c:	10050100 	andne	r0, r5, r0, lsl #2
    3160:	00000025 	andeq	r0, r0, r5, lsr #32
    3164:	00019c06 	andeq	r9, r1, r6, lsl #24
    3168:	1f050100 	svcne	0x00050100
    316c:	00000025 	andeq	r0, r0, r5, lsr #32
    3170:	0001730a 	andeq	r7, r1, sl, lsl #6
    3174:	07060100 	streq	r0, [r6, -r0, lsl #2]
    3178:	7373620b 	cmnvc	r3, #-1342177280	; 0xb0000000
    317c:	0a0a0100 	beq	283584 <__bss_end__+0x278704>
    3180:	0000015b 	andeq	r0, r0, fp, asr r1
    3184:	0000257d 	andeq	r2, r0, sp, ror r5
    3188:	00002565 	andeq	r2, r0, r5, ror #10
    318c:	0006480c 	andeq	r4, r6, ip, lsl #16
    3190:	0a0b0100 	beq	2c3598 <__bss_end__+0x2b8718>
    3194:	0000015b 	andeq	r0, r0, fp, asr r1
    3198:	0097180d 	addseq	r1, r7, sp, lsl #16
    319c:	00000800 	andeq	r0, r0, r0, lsl #16
    31a0:	00013600 	andeq	r3, r1, r0, lsl #12
    31a4:	6e690b00 	vmulvs.f64	d16, d9, d0
    31a8:	05140100 	ldreq	r0, [r4, #-256]	; 0xffffff00
    31ac:	0000002c 	andeq	r0, r0, ip, lsr #32
    31b0:	00002617 	andeq	r2, r0, r7, lsl r6
    31b4:	00002615 	andeq	r2, r0, r5, lsl r6
    31b8:	96480e00 	strbls	r0, [r8], -r0, lsl #28
    31bc:	01610000 	cmneq	r1, r0
    31c0:	180e0000 	stmdane	lr, {}	; <UNPREDICTABLE>
    31c4:	6e000097 	mcrvs	0, 0, r0, cr0, cr7, {4}
    31c8:	0e000001 	cdpeq	0, 0, cr0, cr0, cr1, {0}
    31cc:	00009724 	andeq	r9, r0, r4, lsr #14
    31d0:	0000017a 	andeq	r0, r0, sl, ror r1
    31d4:	0097280e 	addseq	r2, r7, lr, lsl #16
    31d8:	00018700 	andeq	r8, r1, r0, lsl #14
    31dc:	04070000 	streq	r0, [r7], #-0
    31e0:	00000025 	andeq	r0, r0, r5, lsr #32
    31e4:	00065a0f 	andeq	r5, r6, pc, lsl #20
    31e8:	00065a00 	andeq	r5, r6, r0, lsl #20
    31ec:	01310200 	teqeq	r1, r0, lsl #4
    31f0:	06501006 	ldrbeq	r1, [r0], -r6
    31f4:	06500000 	ldrbeq	r0, [r0], -r0
    31f8:	3b020000 	blcc	83200 <__bss_end__+0x78380>
    31fc:	01730f06 	cmneq	r3, r6, lsl #30
    3200:	01730000 	cmneq	r3, r0
    3204:	05020000 	streq	r0, [r2, #-0]
    3208:	d0100601 	andsle	r0, r0, r1, lsl #12
    320c:	d0000000 	andle	r0, r0, r0
    3210:	02000000 	andeq	r0, r0, #0, 0
    3214:	ce00066e 	cfmadd32gt	mvax3, mvfx0, mvfx0, mvfx14
    3218:	04000000 	streq	r0, [r0], #-0
    321c:	0011e400 	andseq	lr, r1, r0, lsl #8
    3220:	a8010400 	stmdage	r1, {sl}
    3224:	0c000001 	stceq	0, cr0, [r0], {1}
    3228:	0000067d 	andeq	r0, r0, sp, ror r6
    322c:	000004bf 			; <UNDEFINED> instruction: 0x000004bf
    3230:	00009738 	andeq	r9, r0, r8, lsr r7
    3234:	00000004 	andeq	r0, r0, r4
    3238:	00001b50 	andeq	r1, r0, r0, asr fp
    323c:	69050402 	stmdbvs	r5, {r1, sl}
    3240:	0300746e 	movweq	r7, #1134	; 0x46e
    3244:	01540704 	cmpeq	r4, r4, lsl #14
    3248:	01030000 	mrseq	r0, (UNDEF: 3)
    324c:	0000ec06 	andeq	lr, r0, r6, lsl #24
    3250:	05020300 	streq	r0, [r2, #-768]	; 0xfffffd00
    3254:	00000049 	andeq	r0, r0, r9, asr #32
    3258:	9f050403 	svcls	0x00050403
    325c:	03000000 	movweq	r0, #0
    3260:	009a0508 	addseq	r0, sl, r8, lsl #10
    3264:	01030000 	mrseq	r0, (UNDEF: 3)
    3268:	0000ea08 	andeq	lr, r0, r8, lsl #20
    326c:	07020300 	streq	r0, [r2, -r0, lsl #6]
    3270:	0000017b 	andeq	r0, r0, fp, ror r1
    3274:	4f070403 	svcmi	0x00070403
    3278:	03000001 	movweq	r0, #1
    327c:	014a0708 	cmpeq	sl, r8, lsl #14
    3280:	25040000 	strcs	r0, [r4, #-0]
    3284:	7a000000 	bvc	328c <__code_start__-0x4d74>
    3288:	05000000 	streq	r0, [r0, #-0]
    328c:	00000025 	andeq	r0, r0, r5, lsr #32
    3290:	00530600 	subseq	r0, r3, r0, lsl #12
    3294:	1c020000 	stcne	0, cr0, [r2], {-0}
    3298:	0000860e 	andeq	r8, r0, lr, lsl #12
    329c:	6b040700 	blvs	104ea4 <__bss_end__+0xfa024>
    32a0:	04000000 	streq	r0, [r0], #-0
    32a4:	00000025 	andeq	r0, r0, r5, lsr #32
    32a8:	0000009b 	muleq	r0, fp, r0
    32ac:	00009b05 	andeq	r9, r0, r5, lsl #22
    32b0:	04070000 	streq	r0, [r7], #-0
    32b4:	000000a8 	andeq	r0, r0, r8, lsr #1
    32b8:	f3080103 	vrhadd.u8	d0, d8, d3
    32bc:	08000000 	stmdaeq	r0, {}	; <UNPREDICTABLE>
    32c0:	000000a1 	andeq	r0, r0, r1, lsr #1
    32c4:	00052706 	andeq	r2, r5, r6, lsl #14
    32c8:	0e210200 	cdpeq	2, 2, cr0, cr1, cr0, {0}
    32cc:	000000b9 	strheq	r0, [r0], -r9
    32d0:	008c0407 	addeq	r0, ip, r7, lsl #8
    32d4:	5a090000 	bpl	2432dc <__bss_end__+0x23845c>
    32d8:	01000006 	tsteq	r0, r6
    32dc:	97380604 	ldrls	r0, [r8, -r4, lsl #12]!
    32e0:	00040000 	andeq	r0, r4, r0
    32e4:	9c010000 	stcls	0, cr0, [r1], {-0}
    32e8:	00027d00 	andeq	r7, r2, r0, lsl #26
    32ec:	5d000400 	cfstrspl	mvf0, [r0, #-0]
    32f0:	04000012 	streq	r0, [r0], #-18	; 0xffffffee
    32f4:	0001a801 	andeq	sl, r1, r1, lsl #16
    32f8:	06c50c00 	strbeq	r0, [r5], r0, lsl #24
    32fc:	04bf0000 	ldrteq	r0, [pc], #0	; 3304 <__code_start__-0x4cfc>
    3300:	05600000 	strbeq	r0, [r0, #-0]!
    3304:	00000000 	andeq	r0, r0, r0
    3308:	1bd10000 	blne	ff443310 <__bss_end__+0xff438490>
    330c:	04020000 	streq	r0, [r2], #-0
    3310:	746e6905 	strbtvc	r6, [lr], #-2309	; 0xfffff6fb
    3314:	00250300 	eoreq	r0, r5, r0, lsl #6
    3318:	04040000 	streq	r0, [r4], #-0
    331c:	00015407 	andeq	r5, r1, r7, lsl #8
    3320:	06010400 	streq	r0, [r1], -r0, lsl #8
    3324:	000000ec 	andeq	r0, r0, ip, ror #1
    3328:	49050204 	stmdbmi	r5, {r2, r9}
    332c:	04000000 	streq	r0, [r0], #-0
    3330:	009f0504 	addseq	r0, pc, r4, lsl #10
    3334:	08040000 	stmdaeq	r4, {}	; <UNPREDICTABLE>
    3338:	00009a05 	andeq	r9, r0, r5, lsl #20
    333c:	08010400 	stmdaeq	r1, {sl}
    3340:	000000ea 	andeq	r0, r0, sl, ror #1
    3344:	7b070204 	blvc	1c3b5c <__bss_end__+0x1b8cdc>
    3348:	04000001 	streq	r0, [r0], #-1
    334c:	014f0704 	cmpeq	pc, r4, lsl #14
    3350:	08040000 	stmdaeq	r4, {}	; <UNPREDICTABLE>
    3354:	00014a07 	andeq	r4, r1, r7, lsl #20
    3358:	00250500 	eoreq	r0, r5, r0, lsl #10
    335c:	007f0000 	rsbseq	r0, pc, r0
    3360:	25060000 	strcs	r0, [r6, #-0]
    3364:	00000000 	andeq	r0, r0, r0
    3368:	00005307 	andeq	r5, r0, r7, lsl #6
    336c:	0e1c0200 	cdpeq	2, 1, cr0, cr12, cr0, {0}
    3370:	0000008b 	andeq	r0, r0, fp, lsl #1
    3374:	00700408 	rsbseq	r0, r0, r8, lsl #8
    3378:	25050000 	strcs	r0, [r5, #-0]
    337c:	a0000000 	andge	r0, r0, r0
    3380:	06000000 	streq	r0, [r0], -r0
    3384:	000000a0 	andeq	r0, r0, r0, lsr #1
    3388:	ad040800 	stcge	8, cr0, [r4, #-0]
    338c:	04000000 	streq	r0, [r0], #-0
    3390:	00f30801 	rscseq	r0, r3, r1, lsl #16
    3394:	a6030000 	strge	r0, [r3], -r0
    3398:	07000000 	streq	r0, [r0, -r0]
    339c:	00000527 	andeq	r0, r0, r7, lsr #10
    33a0:	be0e2102 	adflte	f2, f6, f2
    33a4:	08000000 	stmdaeq	r0, {}	; <UNPREDICTABLE>
    33a8:	00009104 	andeq	r9, r0, r4, lsl #2
    33ac:	06e90900 	strbteq	r0, [r9], r0, lsl #18
    33b0:	0d010000 	stceq	0, cr0, [r1, #-0]
    33b4:	00003111 	andeq	r3, r0, r1, lsl r1
    33b8:	06030a00 	streq	r0, [r3], -r0, lsl #20
    33bc:	1f010000 	svcne	0x00010000
    33c0:	00976806 	addseq	r6, r7, r6, lsl #16
    33c4:	00006000 	andeq	r6, r0, r0
    33c8:	d59c0100 	ldrle	r0, [ip, #256]	; 0x100
    33cc:	0b000001 	bleq	33d8 <__code_start__-0x4c28>
    33d0:	0000070d 	andeq	r0, r0, sp, lsl #14
    33d4:	2c0f2c01 	stccs	12, cr2, [pc], {1}
    33d8:	1c000000 	stcne	0, cr0, [r0], {-0}
    33dc:	0b201000 	bleq	8073e4 <__bss_end__+0x7fc564>
    33e0:	000006a8 	andeq	r0, r0, r8, lsr #13
    33e4:	2c0f2d01 	stccs	13, cr2, [pc], {1}
    33e8:	24000000 	strcs	r0, [r0], #-0
    33ec:	0b201000 	bleq	8073f4 <__bss_end__+0x7fc574>
    33f0:	000006da 	ldrdeq	r0, [r0], -sl
    33f4:	2c0f2e01 	stccs	14, cr2, [pc], {1}
    33f8:	00000000 	andeq	r0, r0, r0
    33fc:	0c5a0000 	mraeq	r0, sl, acc0
    3400:	000006f4 	strdeq	r0, [r0], -r4
    3404:	2c0f2f01 	stccs	15, cr2, [pc], {1}
    3408:	20000000 	andcs	r0, r0, r0
    340c:	0001ef0d 	andeq	lr, r1, sp, lsl #30
    3410:	00976800 	addseq	r6, r7, r0, lsl #16
    3414:	05480200 	strbeq	r0, [r8, #-512]	; 0xfffffe00
    3418:	20010000 	andcs	r0, r1, r0
    341c:	00014c08 	andeq	r4, r1, r8, lsl #24
    3420:	05480e00 	strbeq	r0, [r8, #-3584]	; 0xfffff200
    3424:	000f0000 	andeq	r0, pc, r0
    3428:	2f000002 	svccs	0x00000002
    342c:	2b000026 	blcs	34cc <__code_start__-0x4b34>
    3430:	00000026 	andeq	r0, r0, r6, lsr #32
    3434:	01d51000 	bicseq	r1, r5, r0
    3438:	977c0000 	ldrbls	r0, [ip, -r0]!
    343c:	7c010000 	stcvc	0, cr0, [r1], {-0}
    3440:	10000097 	mulne	r0, r7, r0
    3444:	01000000 	mrseq	r0, (UNDEF: 0)
    3448:	01730921 	cmneq	r3, r1, lsr #18
    344c:	e20f0000 	and	r0, pc, #0, 0
    3450:	56000001 	strpl	r0, [r0], -r1
    3454:	4e000026 	cdpmi	0, 0, cr0, cr0, cr6, {1}
    3458:	00000026 	andeq	r0, r0, r6, lsr #32
    345c:	00979011 	addseq	r9, r7, r1, lsl r0
    3460:	00024f00 	andeq	r4, r2, r0, lsl #30
    3464:	97941100 	ldrls	r1, [r4, r0, lsl #2]
    3468:	025c0000 	subseq	r0, ip, #0, 0
    346c:	9c120000 	ldcls	0, cr0, [r2], {-0}
    3470:	68000097 	stmdavs	r0, {r0, r1, r2, r4, r7}
    3474:	98000002 	stmdals	r0, {r1}
    3478:	13000001 	movwne	r0, #1
    347c:	3a015001 	bcc	57488 <__bss_end__+0x4c608>
    3480:	97a81200 	strls	r1, [r8, r0, lsl #4]!
    3484:	02740000 	rsbseq	r0, r4, #0, 0
    3488:	01b80000 			; <UNDEFINED> instruction: 0x01b80000
    348c:	01130000 	tsteq	r3, r0
    3490:	240c0550 	strcs	r0, [ip], #-1360	; 0xfffffab0
    3494:	13201000 	nopne	{0}	; <UNPREDICTABLE>
    3498:	0c055101 	stfeqs	f5, [r5], {1}
    349c:	5a000001 	bpl	34a8 <__code_start__-0x4b58>
    34a0:	97b41400 	ldrls	r1, [r4, r0, lsl #8]!
    34a4:	02740000 	rsbseq	r0, r4, #0, 0
    34a8:	01130000 	tsteq	r3, r0
    34ac:	1c0c0550 	cfstr32ne	mvfx0, [ip], {80}	; 0x50
    34b0:	13201000 	nopne	{0}	; <UNPREDICTABLE>
    34b4:	0c055101 	stfeqs	f5, [r5], {1}
    34b8:	5a000020 	bpl	3540 <__code_start__-0x4ac0>
    34bc:	b6150000 	ldrlt	r0, [r5], -r0
    34c0:	01000006 	tsteq	r0, r6
    34c4:	ef010617 	svc	0x00010617
    34c8:	09000001 	stmdbeq	r0, {r0}
    34cc:	00000715 	andeq	r0, r0, r5, lsl r7
    34d0:	310e1801 	tstcc	lr, r1, lsl #16
    34d4:	00000000 	andeq	r0, r0, r0
    34d8:	0006e616 	andeq	lr, r6, r6, lsl r6
    34dc:	050e0100 	streq	r0, [lr, #-256]	; 0xffffff00
    34e0:	00000025 	andeq	r0, r0, r5, lsr #32
    34e4:	00020d01 	andeq	r0, r2, r1, lsl #26
    34e8:	07150900 	ldreq	r0, [r5, -r0, lsl #18]
    34ec:	0f010000 	svceq	0x00010000
    34f0:	0000310e 	andeq	r3, r0, lr, lsl #2
    34f4:	ef170000 	svc	0x00170000
    34f8:	3c000001 	stccc	0, cr0, [r0], {1}
    34fc:	18000097 	stmdane	r0, {r0, r1, r2, r4, r7}
    3500:	01000000 	mrseq	r0, (UNDEF: 0)
    3504:	00022e9c 	muleq	r2, ip, lr
    3508:	02000f00 	andeq	r0, r0, #0, 30
    350c:	26930000 	ldrcs	r0, [r3], r0
    3510:	268f0000 	strcs	r0, [pc], r0
    3514:	17000000 	strne	r0, [r0, -r0]
    3518:	000001d5 	ldrdeq	r0, [r0], -r5
    351c:	00009754 	andeq	r9, r0, r4, asr r7
    3520:	00000014 	andeq	r0, r0, r4, lsl r0
    3524:	024f9c01 	subeq	r9, pc, #256	; 0x100
    3528:	e20f0000 	and	r0, pc, #0, 0
    352c:	ba000001 	blt	3538 <__code_start__-0x4ac8>
    3530:	b2000026 	andlt	r0, r0, #38, 0	; 0x26
    3534:	00000026 	andeq	r0, r0, r6, lsr #32
    3538:	00069918 	andeq	r9, r6, r8, lsl r9
    353c:	00069900 	andeq	r9, r6, r0, lsl #18
    3540:	01360200 	teqeq	r6, r0, lsl #4
    3544:	06321906 	ldrteq	r1, [r2], -r6, lsl #18
    3548:	06320000 	ldrteq	r0, [r2], -r0
    354c:	4d020000 	stcmi	0, cr0, [r2, #-0]
    3550:	060e1906 	streq	r1, [lr], -r6, lsl #18
    3554:	060e0000 	streq	r0, [lr], -r0
    3558:	58020000 	stmdapl	r2, {}	; <UNPREDICTABLE>
    355c:	06b01906 	ldrteq	r1, [r0], r6, lsl #18
    3560:	06b00000 	ldrteq	r0, [r0], r0
    3564:	ad020000 	stcge	0, cr0, [r2, #-0]
    3568:	053f0006 	ldreq	r0, [pc, #-6]!	; 356a <__code_start__-0x4a96>
    356c:	00040000 	andeq	r0, r4, r0
    3570:	000013e0 	andeq	r1, r0, r0, ror #7
    3574:	01a80104 			; <UNDEFINED> instruction: 0x01a80104
    3578:	300c0000 	andcc	r0, ip, r0
    357c:	bf000007 	svclt	0x00000007
    3580:	c8000004 	stmdagt	r0, {r2}
    3584:	1c000097 	stcne	0, cr0, [r0], {151}	; 0x97
    3588:	e9000001 	stmdb	r0, {r0}
    358c:	0200001c 	andeq	r0, r0, #28, 0
    3590:	6e690504 	cdpvs	5, 6, cr0, cr9, cr4, {0}
    3594:	04030074 	streq	r0, [r3], #-116	; 0xffffff8c
    3598:	00015407 	andeq	r5, r1, r7, lsl #8
    359c:	06010300 	streq	r0, [r1], -r0, lsl #6
    35a0:	000000ec 	andeq	r0, r0, ip, ror #1
    35a4:	49050203 	stmdbmi	r5, {r0, r1, r9}
    35a8:	03000000 	movweq	r0, #0
    35ac:	009f0504 	addseq	r0, pc, r4, lsl #10
    35b0:	08030000 	stmdaeq	r3, {}	; <UNPREDICTABLE>
    35b4:	00009a05 	andeq	r9, r0, r5, lsl #20
    35b8:	08010300 	stmdaeq	r1, {r8, r9}
    35bc:	000000ea 	andeq	r0, r0, sl, ror #1
    35c0:	7b070203 	blvc	1c3dd4 <__bss_end__+0x1b8f54>
    35c4:	03000001 	movweq	r0, #1
    35c8:	014f0704 	cmpeq	pc, r4, lsl #14
    35cc:	08030000 	stmdaeq	r3, {}	; <UNPREDICTABLE>
    35d0:	00014a07 	andeq	r4, r1, r7, lsl #20
    35d4:	00250400 	eoreq	r0, r5, r0, lsl #8
    35d8:	007a0000 	rsbseq	r0, sl, r0
    35dc:	25050000 	strcs	r0, [r5, #-0]
    35e0:	00000000 	andeq	r0, r0, r0
    35e4:	00005306 	andeq	r5, r0, r6, lsl #6
    35e8:	0e1c0200 	cdpeq	2, 1, cr0, cr12, cr0, {0}
    35ec:	00000086 	andeq	r0, r0, r6, lsl #1
    35f0:	006b0407 	rsbeq	r0, fp, r7, lsl #8
    35f4:	25040000 	strcs	r0, [r4, #-0]
    35f8:	9b000000 	blls	3600 <__code_start__-0x4a00>
    35fc:	05000000 	streq	r0, [r0, #-0]
    3600:	0000009b 	muleq	r0, fp, r0
    3604:	a8040700 	stmdage	r4, {r8, r9, sl}
    3608:	03000000 	movweq	r0, #0
    360c:	00f30801 	rscseq	r0, r3, r1, lsl #16
    3610:	a1080000 	mrsge	r0, (UNDEF: 8)
    3614:	06000000 	streq	r0, [r0], -r0
    3618:	00000527 	andeq	r0, r0, r7, lsr #10
    361c:	b90e2102 	stmdblt	lr, {r1, r8, sp}
    3620:	07000000 	streq	r0, [r0, -r0]
    3624:	00008c04 	andeq	r8, r0, r4, lsl #24
    3628:	07260900 	streq	r0, [r6, -r0, lsl #18]!
    362c:	1e010000 	cdpne	0, 0, cr0, cr1, cr0, {0}
    3630:	00989006 	addseq	r9, r8, r6
    3634:	00005400 	andeq	r5, r0, r0, lsl #8
    3638:	0b9c0100 	bleq	fe703a40 <__bss_end__+0xfe6f8bc0>
    363c:	0a000002 	beq	364c <__code_start__-0x49b4>
    3640:	00636573 	rsbeq	r6, r3, r3, ror r5
    3644:	2c191e01 	ldccs	14, cr1, [r9], {1}
    3648:	f7000000 			; <UNDEFINED> instruction: 0xf7000000
    364c:	f3000026 	vhadd.u8	d0, d0, d22
    3650:	0b000026 	bleq	36f0 <__code_start__-0x4910>
    3654:	0000020b 	andeq	r0, r0, fp, lsl #4
    3658:	00009890 	muleq	r0, r0, r8
    365c:	00062802 	andeq	r2, r6, r2, lsl #16
    3660:	051f0100 	ldreq	r0, [pc, #-256]	; 3568 <__code_start__-0x4a98>
    3664:	0002180c 	andeq	r1, r2, ip, lsl #16
    3668:	00271c00 	eoreq	r1, r7, r0, lsl #24
    366c:	00271800 	eoreq	r1, r7, r0, lsl #16
    3670:	02240d00 	eoreq	r0, r4, #0, 26
    3674:	98a40000 	stmials	r4!, {}	; <UNPREDICTABLE>
    3678:	a4000000 	strge	r0, [r0], #-0
    367c:	40000098 	mulmi	r0, r8, r0
    3680:	01000000 	mrseq	r0, (UNDEF: 0)
    3684:	310c051c 	tstcc	ip, ip, lsl r5
    3688:	49000002 	stmdbmi	r0, {r1}
    368c:	47000027 	strmi	r0, [r0, -r7, lsr #32]
    3690:	0e000027 	cdpeq	0, 0, cr0, cr0, cr7, {1}
    3694:	0000023c 	andeq	r0, r0, ip, lsr r2
    3698:	0000275e 	andeq	r2, r0, lr, asr r7
    369c:	0000275c 	andeq	r2, r0, ip, asr r7
    36a0:	0002550f 	andeq	r5, r2, pc, lsl #10
    36a4:	0098a400 	addseq	sl, r8, r0, lsl #8
    36a8:	98a40200 	stmials	r4!, {r9}
    36ac:	00140000 	andseq	r0, r4, r0
    36b0:	13010000 	movwne	r0, #4096	; 0x1000
    36b4:	00019c13 	andeq	r9, r1, r3, lsl ip
    36b8:	02660e00 	rsbeq	r0, r6, #0, 28
    36bc:	27750000 	ldrbcs	r0, [r5, -r0]!
    36c0:	27710000 	ldrbcs	r0, [r1, -r0]!
    36c4:	710f0000 	mrsvc	r0, CPSR
    36c8:	a8000002 	stmdage	r0, {r1}
    36cc:	01000098 	swpeq	r0, r8, [r0]	; <UNPREDICTABLE>
    36d0:	000098a8 	andeq	r9, r0, r8, lsr #17
    36d4:	0000000c 	andeq	r0, r0, ip
    36d8:	89120d01 	ldmdbhi	r2, {r0, r8, sl, fp}
    36dc:	10000001 	andne	r0, r0, r1
    36e0:	000098b0 			; <UNDEFINED> instruction: 0x000098b0
    36e4:	0000052a 	andeq	r0, r0, sl, lsr #10
    36e8:	05500111 	ldrbeq	r0, [r0, #-273]	; 0xfffffeef
    36ec:	0030040c 	eorseq	r0, r0, ip, lsl #8
    36f0:	12000020 	andne	r0, r0, #32, 0
    36f4:	000098a8 	andeq	r9, r0, r8, lsr #17
    36f8:	00000536 	andeq	r0, r0, r6, lsr r5
    36fc:	0098b812 	addseq	fp, r8, r2, lsl r8
    3700:	00053600 	andeq	r3, r5, r0, lsl #12
    3704:	47130000 	ldrmi	r0, [r3, -r0]
    3708:	40000002 	andmi	r0, r0, r2
    370c:	14000006 	strne	r0, [r0], #-6
    3710:	00000248 	andeq	r0, r0, r8, asr #4
    3714:	0002550b 	andeq	r5, r2, fp, lsl #10
    3718:	0098bc00 	addseq	fp, r8, r0, lsl #24
    371c:	06580200 	ldrbeq	r0, [r8], -r0, lsl #4
    3720:	15010000 	strne	r0, [r1, #-0]
    3724:	06581517 			; <UNDEFINED> instruction: 0x06581517
    3728:	660e0000 	strvs	r0, [lr], -r0
    372c:	95000002 	strls	r0, [r0, #-2]
    3730:	93000027 	movwls	r0, #39	; 0x27
    3734:	16000027 	strne	r0, [r0], -r7, lsr #32
    3738:	00000271 	andeq	r0, r0, r1, ror r2
    373c:	000098c0 	andeq	r9, r0, r0, asr #17
    3740:	00067801 	andeq	r7, r6, r1, lsl #16
    3744:	120d0100 	andne	r0, sp, #0
    3748:	000001f3 	strdeq	r0, [r0], -r3
    374c:	0098c810 	addseq	ip, r8, r0, lsl r8
    3750:	00052a00 	andeq	r2, r5, r0, lsl #20
    3754:	50011100 	andpl	r1, r1, r0, lsl #2
    3758:	00007702 	andeq	r7, r0, r2, lsl #14
    375c:	98c01200 	stmials	r0, {r9, ip}^
    3760:	05360000 	ldreq	r0, [r6, #-0]!
    3764:	d4120000 	ldrle	r0, [r2], #-0
    3768:	36000098 			; <UNDEFINED> instruction: 0x36000098
    376c:	00000005 	andeq	r0, r0, r5
    3770:	00000000 	andeq	r0, r0, r0
    3774:	060e1700 	streq	r1, [lr], -r0, lsl #14
    3778:	1b010000 	blne	43780 <__bss_end__+0x38900>
    377c:	02240106 	eoreq	r0, r4, #-2147483647	; 0x80000001
    3780:	6d180000 	ldcvs	0, cr0, [r8, #-0]
    3784:	1b010073 	blne	43958 <__bss_end__+0x38ad8>
    3788:	00002c18 	andeq	r2, r0, r8, lsl ip
    378c:	59170000 	ldmdbpl	r7, {}	; <UNPREDICTABLE>
    3790:	01000007 	tsteq	r0, r7
    3794:	55010612 	strpl	r0, [r1, #-1554]	; 0xfffff9ee
    3798:	18000002 	stmdane	r0, {r1}
    379c:	01007375 	tsteq	r0, r5, ror r3
    37a0:	002c1812 	eoreq	r1, ip, r2, lsl r8
    37a4:	72190000 	andsvc	r0, r9, #0, 0
    37a8:	13010062 	movwne	r0, #4194	; 0x1062
    37ac:	00002c0e 	andeq	r2, r0, lr, lsl #24
    37b0:	72191a00 	andsvc	r1, r9, #0, 20
    37b4:	15010061 	strne	r0, [r1, #-97]	; 0xffffff9f
    37b8:	00002c12 	andeq	r2, r0, r2, lsl ip
    37bc:	1b000000 	blne	37c4 <__code_start__-0x483c>
    37c0:	0000074a 	andeq	r0, r0, sl, asr #14
    37c4:	2c0a0901 			; <UNDEFINED> instruction: 0x2c0a0901
    37c8:	01000000 	mrseq	r0, (UNDEF: 0)
    37cc:	00000271 	andeq	r0, r0, r1, ror r2
    37d0:	01007519 	tsteq	r0, r9, lsl r5
    37d4:	002c0e0d 	eoreq	r0, ip, sp, lsl #28
    37d8:	1c000000 	stcne	0, cr0, [r0], {-0}
    37dc:	00000762 	andeq	r0, r0, r2, ror #14
    37e0:	2c0a0401 	cfstrscs	mvf0, [sl], {1}
    37e4:	01000000 	mrseq	r0, (UNDEF: 0)
    37e8:	0002711d 	andeq	r7, r2, sp, lsl r1
    37ec:	0097c800 	addseq	ip, r7, r0, lsl #16
    37f0:	00000c00 	andeq	r0, r0, r0, lsl #24
    37f4:	a59c0100 	ldrge	r0, [ip, #256]	; 0x100
    37f8:	1e000002 	cdpne	0, 0, cr0, cr0, cr2, {0}
    37fc:	000097d0 	ldrdeq	r9, [r0], -r0
    3800:	0000052a 	andeq	r0, r0, sl, lsr #10
    3804:	05500111 	ldrbeq	r0, [r0, #-273]	; 0xfffffeef
    3808:	0030040c 	eorseq	r0, r0, ip, lsl #8
    380c:	1d000020 	stcne	0, cr0, [r0, #-128]	; 0xffffff80
    3810:	00000255 	andeq	r0, r0, r5, asr r2
    3814:	000097d4 	ldrdeq	r9, [r0], -r4
    3818:	00000024 	andeq	r0, r0, r4, lsr #32
    381c:	03059c01 	movweq	r9, #23553	; 0x5c01
    3820:	660e0000 	strvs	r0, [lr], -r0
    3824:	ac000002 	stcge	0, cr0, [r0], {2}
    3828:	a8000027 	stmdage	r0, {r0, r1, r2, r5}
    382c:	0f000027 	svceq	0x00000027
    3830:	00000271 	andeq	r0, r0, r1, ror r2
    3834:	000097dc 	ldrdeq	r9, [r0], -ip
    3838:	0097dc01 	addseq	sp, r7, r1, lsl #24
    383c:	00000c00 	andeq	r0, r0, r0, lsl #24
    3840:	120d0100 	andne	r0, sp, #0
    3844:	000002f2 	strdeq	r0, [r0], -r2
    3848:	0097e410 	addseq	lr, r7, r0, lsl r4
    384c:	00052a00 	andeq	r2, r5, r0, lsl #20
    3850:	50011100 	andpl	r1, r1, r0, lsl #2
    3854:	30040c05 	andcc	r0, r4, r5, lsl #24
    3858:	00002000 	andeq	r2, r0, r0
    385c:	0097dc12 	addseq	sp, r7, r2, lsl ip
    3860:	00053600 	andeq	r3, r5, r0, lsl #12
    3864:	97ec1200 	strbls	r1, [ip, r0, lsl #4]!
    3868:	05360000 	ldreq	r0, [r6, #-0]!
    386c:	1d000000 	stcne	0, cr0, [r0, #-0]
    3870:	00000224 	andeq	r0, r0, r4, lsr #4
    3874:	000097f8 	strdeq	r9, [r0], -r8
    3878:	00000048 	andeq	r0, r0, r8, asr #32
    387c:	04079c01 	streq	r9, [r7], #-3073	; 0xfffff3ff
    3880:	310c0000 	mrscc	r0, (UNDEF: 12)
    3884:	ce000002 	cdpgt	0, 0, cr0, cr0, cr2, {0}
    3888:	ca000027 	bgt	392c <__code_start__-0x46d4>
    388c:	0e000027 	cdpeq	0, 0, cr0, cr0, cr7, {1}
    3890:	0000023c 	andeq	r0, r0, ip, lsr r2
    3894:	000027ee 	andeq	r2, r0, lr, ror #15
    3898:	000027ec 	andeq	r2, r0, ip, ror #15
    389c:	00025516 	andeq	r5, r2, r6, lsl r5
    38a0:	0097f800 	addseq	pc, r7, r0, lsl #16
    38a4:	05700200 	ldrbeq	r0, [r0, #-512]!	; 0xfffffe00
    38a8:	13010000 	movwne	r0, #4096	; 0x1000
    38ac:	00039a13 	andeq	r9, r3, r3, lsl sl
    38b0:	05701500 	ldrbeq	r1, [r0, #-1280]!	; 0xfffffb00
    38b4:	660e0000 	strvs	r0, [lr], -r0
    38b8:	05000002 	streq	r0, [r0, #-2]
    38bc:	01000028 	tsteq	r0, r8, lsr #32
    38c0:	0f000028 	svceq	0x00000028
    38c4:	00000271 	andeq	r0, r0, r1, ror r2
    38c8:	00009804 	andeq	r9, r0, r4, lsl #16
    38cc:	00980401 	addseq	r0, r8, r1, lsl #8
    38d0:	00000c00 	andeq	r0, r0, r0, lsl #24
    38d4:	120d0100 	andne	r0, sp, #0
    38d8:	00000386 	andeq	r0, r0, r6, lsl #7
    38dc:	00980c10 	addseq	r0, r8, r0, lsl ip
    38e0:	00052a00 	andeq	r2, r5, r0, lsl #20
    38e4:	50011100 	andpl	r1, r1, r0, lsl #2
    38e8:	30040c05 	andcc	r0, r4, r5, lsl #24
    38ec:	00002000 	andeq	r2, r0, r0
    38f0:	00980412 	addseq	r0, r8, r2, lsl r4
    38f4:	00053600 	andeq	r3, r5, r0, lsl #12
    38f8:	98141200 	ldmdals	r4, {r9, ip}
    38fc:	05360000 	ldreq	r0, [r6, #-0]!
    3900:	00000000 	andeq	r0, r0, r0
    3904:	00024713 	andeq	r4, r2, r3, lsl r7
    3908:	00058800 	andeq	r8, r5, r0, lsl #16
    390c:	02481400 	subeq	r1, r8, #0, 8
    3910:	550b0000 	strpl	r0, [fp, #-0]
    3914:	18000002 	stmdane	r0, {r1}
    3918:	02000098 	andeq	r0, r0, #152, 0	; 0x98
    391c:	000005a0 	andeq	r0, r0, r0, lsr #11
    3920:	15171501 	ldrne	r1, [r7, #-1281]	; 0xfffffaff
    3924:	000005a0 	andeq	r0, r0, r0, lsr #11
    3928:	0002660e 	andeq	r6, r2, lr, lsl #12
    392c:	00282500 	eoreq	r2, r8, r0, lsl #10
    3930:	00282300 	eoreq	r2, r8, r0, lsl #6
    3934:	02711600 	rsbseq	r1, r1, #0, 12
    3938:	981c0000 	ldmdals	ip, {}	; <UNPREDICTABLE>
    393c:	c0010000 	andgt	r0, r1, r0
    3940:	01000005 	tsteq	r0, r5
    3944:	03f1120d 	mvnseq	r1, #-805306368	; 0xd0000000
    3948:	24100000 	ldrcs	r0, [r0], #-0
    394c:	2a000098 	bcs	3bb4 <__code_start__-0x444c>
    3950:	11000005 	tstne	r0, r5
    3954:	77025001 	strvc	r5, [r2, -r1]
    3958:	12000000 	andne	r0, r0, #0, 0
    395c:	0000981c 	andeq	r9, r0, ip, lsl r8
    3960:	00000536 	andeq	r0, r0, r6, lsr r5
    3964:	00983012 	addseq	r3, r8, r2, lsl r0
    3968:	00053600 	andeq	r3, r5, r0, lsl #12
    396c:	00000000 	andeq	r0, r0, r0
    3970:	020b1d00 	andeq	r1, fp, #0, 26
    3974:	98400000 	stmdals	r0, {}^	; <UNPREDICTABLE>
    3978:	00500000 	subseq	r0, r0, r0
    397c:	9c010000 	stcls	0, cr0, [r1], {-0}
    3980:	0000052a 	andeq	r0, r0, sl, lsr #10
    3984:	0002180c 	andeq	r1, r2, ip, lsl #16
    3988:	00283c00 	eoreq	r3, r8, r0, lsl #24
    398c:	00283800 	eoreq	r3, r8, r0, lsl #16
    3990:	02240d00 	eoreq	r0, r4, #0, 26
    3994:	98500000 	ldmdals	r0, {}^	; <UNPREDICTABLE>
    3998:	50000000 	andpl	r0, r0, r0
    399c:	40000098 	mulmi	r0, r8, r0
    39a0:	01000000 	mrseq	r0, (UNDEF: 0)
    39a4:	310c051c 	tstcc	ip, ip, lsl r5
    39a8:	5f000002 	svcpl	0x00000002
    39ac:	5d000028 	stcpl	0, cr0, [r0, #-160]	; 0xffffff60
    39b0:	0e000028 	cdpeq	0, 0, cr0, cr0, cr8, {1}
    39b4:	0000023c 	andeq	r0, r0, ip, lsr r2
    39b8:	00002874 	andeq	r2, r0, r4, ror r8
    39bc:	00002872 	andeq	r2, r0, r2, ror r8
    39c0:	0002550f 	andeq	r5, r2, pc, lsl #10
    39c4:	00985000 	addseq	r5, r8, r0
    39c8:	98500200 	ldmdals	r0, {r9}^
    39cc:	00140000 	andseq	r0, r4, r0
    39d0:	13010000 	movwne	r0, #4096	; 0x1000
    39d4:	0004bc13 	andeq	fp, r4, r3, lsl ip
    39d8:	02660e00 	rsbeq	r0, r6, #0, 28
    39dc:	288b0000 	stmcs	fp, {}	; <UNPREDICTABLE>
    39e0:	28870000 	stmcs	r7, {}	; <UNPREDICTABLE>
    39e4:	710f0000 	mrsvc	r0, CPSR
    39e8:	54000002 	strpl	r0, [r0], #-2
    39ec:	01000098 	swpeq	r0, r8, [r0]	; <UNPREDICTABLE>
    39f0:	00009854 	andeq	r9, r0, r4, asr r8
    39f4:	0000000c 	andeq	r0, r0, ip
    39f8:	a9120d01 	ldmdbge	r2, {r0, r8, sl, fp}
    39fc:	10000004 	andne	r0, r0, r4
    3a00:	0000985c 	andeq	r9, r0, ip, asr r8
    3a04:	0000052a 	andeq	r0, r0, sl, lsr #10
    3a08:	05500111 	ldrbeq	r0, [r0, #-273]	; 0xfffffeef
    3a0c:	0030040c 	eorseq	r0, r0, ip, lsl #8
    3a10:	12000020 	andne	r0, r0, #32, 0
    3a14:	00009854 	andeq	r9, r0, r4, asr r8
    3a18:	00000536 	andeq	r0, r0, r6, lsr r5
    3a1c:	00986412 	addseq	r6, r8, r2, lsl r4
    3a20:	00053600 	andeq	r3, r5, r0, lsl #12
    3a24:	47130000 	ldrmi	r0, [r3, -r0]
    3a28:	d8000002 	stmdale	r0, {r1}
    3a2c:	14000005 	strne	r0, [r0], #-5
    3a30:	00000248 	andeq	r0, r0, r8, asr #4
    3a34:	0002550b 	andeq	r5, r2, fp, lsl #10
    3a38:	00986800 	addseq	r6, r8, r0, lsl #16
    3a3c:	05f00200 	ldrbeq	r0, [r0, #512]!	; 0x200
    3a40:	15010000 	strne	r0, [r1, #-0]
    3a44:	05f01517 	ldrbeq	r1, [r0, #1303]!	; 0x517
    3a48:	660e0000 	strvs	r0, [lr], -r0
    3a4c:	ab000002 	blge	3a5c <__code_start__-0x45a4>
    3a50:	a9000028 	stmdbge	r0, {r3, r5}
    3a54:	16000028 	strne	r0, [r0], -r8, lsr #32
    3a58:	00000271 	andeq	r0, r0, r1, ror r2
    3a5c:	0000986c 	andeq	r9, r0, ip, ror #16
    3a60:	00061001 	andeq	r1, r6, r1
    3a64:	120d0100 	andne	r0, sp, #0
    3a68:	00000513 	andeq	r0, r0, r3, lsl r5
    3a6c:	00987410 	addseq	r7, r8, r0, lsl r4
    3a70:	00052a00 	andeq	r2, r5, r0, lsl #20
    3a74:	50011100 	andpl	r1, r1, r0, lsl #2
    3a78:	00007702 	andeq	r7, r0, r2, lsl #14
    3a7c:	986c1200 	stmdals	ip!, {r9, ip}^
    3a80:	05360000 	ldreq	r0, [r6, #-0]!
    3a84:	80120000 	andshi	r0, r2, r0
    3a88:	36000098 			; <UNDEFINED> instruction: 0x36000098
    3a8c:	00000005 	andeq	r0, r0, r5
    3a90:	00000000 	andeq	r0, r0, r0
    3a94:	0007441f 	andeq	r4, r7, pc, lsl r4
    3a98:	00074400 	andeq	r4, r7, r0, lsl #8
    3a9c:	0ac20200 	beq	ff0842a4 <__bss_end__+0xff079424>
    3aa0:	00071a1f 	andeq	r1, r7, pc, lsl sl
    3aa4:	00071a00 	andeq	r1, r7, r0, lsl #20
    3aa8:	069c0200 	ldreq	r0, [ip], r0, lsl #4
    3aac:	0005cd00 	andeq	ip, r5, r0, lsl #26
    3ab0:	af000400 	svcge	0x00000400
    3ab4:	04000015 	streq	r0, [r0], #-21	; 0xffffffeb
    3ab8:	00087501 	andeq	r7, r8, r1, lsl #10
    3abc:	07b40c00 	ldreq	r0, [r4, r0, lsl #24]!
    3ac0:	08250000 	stmdaeq	r5!, {}	; <UNPREDICTABLE>
    3ac4:	98e40000 	stmials	r4!, {}^	; <UNPREDICTABLE>
    3ac8:	01f00000 	mvnseq	r0, r0
    3acc:	1ee70000 	cdpne	0, 14, cr0, cr7, cr0, {0}
    3ad0:	04020000 	streq	r0, [r2], #-0
    3ad4:	746e6905 	strbtvc	r6, [lr], #-2309	; 0xfffff6fb
    3ad8:	07040300 	streq	r0, [r4, -r0, lsl #6]
    3adc:	00000154 	andeq	r0, r0, r4, asr r1
    3ae0:	00002c04 	andeq	r2, r0, r4, lsl #24
    3ae4:	06010300 	streq	r0, [r1], -r0, lsl #6
    3ae8:	000000ec 	andeq	r0, r0, ip, ror #1
    3aec:	49050203 	stmdbmi	r5, {r0, r1, r9}
    3af0:	03000000 	movweq	r0, #0
    3af4:	009f0504 	addseq	r0, pc, r4, lsl #10
    3af8:	08030000 	stmdaeq	r3, {}	; <UNPREDICTABLE>
    3afc:	00009a05 	andeq	r9, r0, r5, lsl #20
    3b00:	08010300 	stmdaeq	r1, {r8, r9}
    3b04:	000000ea 	andeq	r0, r0, sl, ror #1
    3b08:	7b070203 	blvc	1c431c <__bss_end__+0x1b949c>
    3b0c:	05000001 	streq	r0, [r0, #-1]
    3b10:	00000161 	andeq	r0, r0, r1, ror #2
    3b14:	6e193405 	cfmulsvs	mvf3, mvf9, mvf5
    3b18:	03000000 	movweq	r0, #0
    3b1c:	014f0704 	cmpeq	pc, r4, lsl #14
    3b20:	08030000 	stmdaeq	r3, {}	; <UNPREDICTABLE>
    3b24:	00014a07 	andeq	r4, r1, r7, lsl #20
    3b28:	08010300 	stmdaeq	r1, {r8, r9}
    3b2c:	000000f3 	strdeq	r0, [r0], -r3
    3b30:	54010706 	strpl	r0, [r1], #-1798	; 0xfffff8fa
    3b34:	04000000 	streq	r0, [r0], #-0
    3b38:	00c20e0c 	sbceq	r0, r2, ip, lsl #28
    3b3c:	5f070000 	svcpl	0x00070000
    3b40:	00000009 	andeq	r0, r0, r9
    3b44:	00079707 	andeq	r9, r7, r7, lsl #14
    3b48:	da070100 	ble	1c3f50 <__bss_end__+0x1b90d0>
    3b4c:	04000007 	streq	r0, [r0], #-7
    3b50:	0007e907 	andeq	lr, r7, r7, lsl #18
    3b54:	f8070500 			; <UNDEFINED> instruction: 0xf8070500
    3b58:	06000007 	streq	r0, [r0], -r7
    3b5c:	00080707 	andeq	r0, r8, r7, lsl #14
    3b60:	28070700 	stmdacs	r7, {r8, r9, sl}
    3b64:	03000009 	movweq	r0, #9
    3b68:	00081607 	andeq	r1, r8, r7, lsl #12
    3b6c:	08000200 	stmdaeq	r0, {r9}
    3b70:	000007a8 	andeq	r0, r0, r8, lsr #15
    3b74:	0806022c 	stmdaeq	r6, {r2, r3, r5, r9}
    3b78:	0000015e 	andeq	r0, r0, lr, asr r1
    3b7c:	006f6909 	rsbeq	r6, pc, r9, lsl #18
    3b80:	33090902 	movwcc	r0, #39170	; 0x9902
    3b84:	00000000 	andeq	r0, r0, r0
    3b88:	72656909 	rsbvc	r6, r5, #147456	; 0x24000
    3b8c:	090a0200 	stmdbeq	sl, {r9}
    3b90:	00000033 	andeq	r0, r0, r3, lsr r0
    3b94:	69690904 	stmdbvs	r9!, {r2, r8, fp}^
    3b98:	11020072 	tstne	r2, r2, ror r0
    3b9c:	00003309 	andeq	r3, r0, r9, lsl #6
    3ba0:	6c090800 	stcvs	8, cr0, [r9], {-0}
    3ba4:	02007263 	andeq	r7, r0, #805306374	; 0x30000006
    3ba8:	00330913 	eorseq	r0, r3, r3, lsl r9
    3bac:	090c0000 	stmdbeq	ip, {}	; <UNPREDICTABLE>
    3bb0:	0072636d 	rsbseq	r6, r2, sp, ror #6
    3bb4:	33091402 	movwcc	r1, #37890	; 0x9402
    3bb8:	10000000 	andne	r0, r0, r0
    3bbc:	72736c09 	rsbsvc	r6, r3, #2304	; 0x900
    3bc0:	09150200 	ldmdbeq	r5, {r9}
    3bc4:	00000033 	andeq	r0, r0, r3, lsr r0
    3bc8:	736d0914 	cmnvc	sp, #20, 18	; 0x50000
    3bcc:	16020072 			; <UNDEFINED> instruction: 0x16020072
    3bd0:	00003309 	andeq	r3, r0, r9, lsl #6
    3bd4:	3f0a1800 	svccc	0x000a1800
    3bd8:	02000009 	andeq	r0, r0, #9, 0
    3bdc:	00330917 	eorseq	r0, r3, r7, lsl r9
    3be0:	0a1c0000 	beq	703be8 <__bss_end__+0x6f8d68>
    3be4:	00000908 	andeq	r0, r0, r8, lsl #18
    3be8:	33091b02 	movwcc	r1, #39682	; 0x9b02
    3bec:	20000000 	andcs	r0, r0, r0
    3bf0:	0007840a 	andeq	r8, r7, sl, lsl #8
    3bf4:	091d0200 	ldmdbeq	sp, {r9}
    3bf8:	00000033 	andeq	r0, r0, r3, lsr r0
    3bfc:	085a0a24 	ldmdaeq	sl, {r2, r5, r9, fp}^
    3c00:	1e020000 	cdpne	0, 0, cr0, cr2, cr0, {0}
    3c04:	00003309 	andeq	r3, r0, r9, lsl #6
    3c08:	0b002800 	bleq	dc10 <__bss_end__+0x2d90>
    3c0c:	0000085f 	andeq	r0, r0, pc, asr r8
    3c10:	74090801 	strvc	r0, [r9], #-2049	; 0xfffff7ff
    3c14:	04000001 	streq	r0, [r0], #-1
    3c18:	0c202150 	stfeqs	f2, [r0], #-320	; 0xfffffec0
    3c1c:	00003304 	andeq	r3, r0, r4, lsl #6
    3c20:	016e0d00 	cmneq	lr, r0, lsl #26
    3c24:	470b0000 	strmi	r0, [fp, -r0]
    3c28:	01000009 	tsteq	r0, r9
    3c2c:	018f2329 	orreq	r2, pc, r9, lsr #6
    3c30:	50400000 	subpl	r0, r0, r0
    3c34:	040c2021 	streq	r2, [ip], #-33	; 0xffffffdf
    3c38:	000000c2 	andeq	r0, r0, r2, asr #1
    3c3c:	0001890d 	andeq	r8, r1, sp, lsl #18
    3c40:	06320e00 	ldrteq	r0, [r2], -r0, lsl #28
    3c44:	cc010000 	stcgt	0, cr0, [r1], {-0}
    3c48:	009a9c06 	addseq	r9, sl, r6, lsl #24
    3c4c:	00001400 	andeq	r1, r0, r0, lsl #8
    3c50:	b49c0100 	ldrlt	r0, [ip], #256	; 0x100
    3c54:	0f000001 	svceq	0x00000001
    3c58:	00009aa4 	andeq	r9, r0, r4, lsr #21
    3c5c:	000001b4 			; <UNDEFINED> instruction: 0x000001b4
    3c60:	07c91000 	strbeq	r1, [r9, r0]
    3c64:	b6010000 	strlt	r0, [r1], -r0
    3c68:	00002505 	andeq	r2, r0, r5, lsl #10
    3c6c:	009a7c00 	addseq	r7, sl, r0, lsl #24
    3c70:	00002000 	andeq	r2, r0, r0
    3c74:	eb9c0100 	bl	fe70407c <__bss_end__+0xfe6f91fc>
    3c78:	0f000001 	svceq	0x00000001
    3c7c:	00009a84 	andeq	r9, r0, r4, lsl #21
    3c80:	000005a0 	andeq	r0, r0, r0, lsr #11
    3c84:	009a8c11 	addseq	r8, sl, r1, lsl ip
    3c88:	0005ac00 	andeq	sl, r5, r0, lsl #24
    3c8c:	50011200 	andpl	r1, r1, r0, lsl #4
    3c90:	50640c05 	rsbpl	r0, r4, r5, lsl #24
    3c94:	00002021 	andeq	r2, r0, r1, lsr #32
    3c98:	00091a10 	andeq	r1, r9, r0, lsl sl
    3c9c:	05b30100 	ldreq	r0, [r3, #256]!	; 0x100
    3ca0:	00000025 	andeq	r0, r0, r5, lsr #32
    3ca4:	00009a6c 	andeq	r9, r0, ip, ror #20
    3ca8:	00000010 	andeq	r0, r0, r0, lsl r0
    3cac:	02189c01 	andseq	r9, r8, #256	; 0x100
    3cb0:	740f0000 	strvc	r0, [pc], #-0	; 3cb8 <__code_start__-0x4348>
    3cb4:	a000009a 	mulge	r0, sl, r0
    3cb8:	0f000005 	svceq	0x00000005
    3cbc:	00009a78 	andeq	r9, r0, r8, ror sl
    3cc0:	00000309 	andeq	r0, r0, r9, lsl #6
    3cc4:	09550e00 	ldmdbeq	r5, {r9, sl, fp}^
    3cc8:	ab010000 	blge	43cd0 <__bss_end__+0x38e50>
    3ccc:	009a3c06 	addseq	r3, sl, r6, lsl #24
    3cd0:	00003000 	andeq	r3, r0, r0
    3cd4:	7c9c0100 	ldfvcs	f0, [ip], {0}
    3cd8:	13000002 	movwne	r0, #2
    3cdc:	ab010063 	blge	43e70 <__bss_end__+0x38ff0>
    3ce0:	00002c19 	andeq	r2, r0, r9, lsl ip
    3ce4:	0028c200 	eoreq	ip, r8, r0, lsl #4
    3ce8:	0028be00 	eoreq	fp, r8, r0, lsl #28
    3cec:	9a480f00 	bls	12078f4 <__bss_end__+0x11fca74>
    3cf0:	05a00000 	streq	r0, [r0, #0]!
    3cf4:	4c0f0000 	stcmi	0, cr0, [pc], {-0}
    3cf8:	db00009a 	blle	3f68 <__code_start__-0x4098>
    3cfc:	14000002 	strne	r0, [r0], #-2
    3d00:	00009a60 	andeq	r9, r0, r0, ror #20
    3d04:	000005b8 			; <UNDEFINED> instruction: 0x000005b8
    3d08:	00000272 	andeq	r0, r0, r2, ror r2
    3d0c:	05500112 	ldrbeq	r0, [r0, #-274]	; 0xfffffeee
    3d10:	2150400c 	cmpcs	r0, ip
    3d14:	51011220 	tstpl	r1, r0, lsr #4
    3d18:	08007405 	stmdaeq	r0, {r0, r2, sl, ip, sp, lr}
    3d1c:	0f001aff 	svceq	0x00001aff
    3d20:	00009a64 	andeq	r9, r0, r4, ror #20
    3d24:	000005a0 	andeq	r0, r0, r0, lsr #11
    3d28:	086b1000 	stmdaeq	fp!, {ip}^
    3d2c:	a3010000 	movwge	r0, #4096	; 0x1000
    3d30:	00002505 	andeq	r2, r0, r5, lsl #10
    3d34:	009a0c00 	addseq	r0, sl, r0, lsl #24
    3d38:	00003000 	andeq	r3, r0, r0
    3d3c:	db9c0100 	blle	fe704144 <__bss_end__+0xfe6f92c4>
    3d40:	15000002 	strne	r0, [r0, #-2]
    3d44:	a7010063 	strge	r0, [r1, -r3, rrx]
    3d48:	00002509 	andeq	r2, r0, r9, lsl #10
    3d4c:	0028e200 	eoreq	lr, r8, r0, lsl #4
    3d50:	0028e000 	eoreq	lr, r8, r0
    3d54:	9a140f00 	bls	50795c <__bss_end__+0x4fcadc>
    3d58:	05a00000 	streq	r0, [r0, #0]!
    3d5c:	180f0000 	stmdane	pc, {}	; <UNPREDICTABLE>
    3d60:	0900009a 	stmdbeq	r0, {r1, r3, r4, r7}
    3d64:	14000003 	strne	r0, [r0], #-3
    3d68:	00009a28 	andeq	r9, r0, r8, lsr #20
    3d6c:	000005ac 	andeq	r0, r0, ip, lsr #11
    3d70:	000002d1 	ldrdeq	r0, [r0], -r1
    3d74:	05500112 	ldrbeq	r0, [r0, #-274]	; 0xfffffeee
    3d78:	2150400c 	cmpcs	r0, ip
    3d7c:	300f0020 	andcc	r0, pc, r0, lsr #32
    3d80:	a000009a 	mulge	r0, sl, r0
    3d84:	00000005 	andeq	r0, r0, r5
    3d88:	0007bb10 	andeq	fp, r7, r0, lsl fp
    3d8c:	05940100 	ldreq	r0, [r4, #256]	; 0x100
    3d90:	00000025 	andeq	r0, r0, r5, lsr #32
    3d94:	000099ec 	andeq	r9, r0, ip, ror #19
    3d98:	00000020 	andeq	r0, r0, r0, lsr #32
    3d9c:	03099c01 	movweq	r9, #39937	; 0x9c01
    3da0:	f8110000 			; <UNDEFINED> instruction: 0xf8110000
    3da4:	ac000099 	stcge	0, cr0, [r0], {153}	; 0x99
    3da8:	12000005 	andne	r0, r0, #5, 0
    3dac:	0c055001 	stceq	0, cr5, [r5], {1}
    3db0:	20215064 	eorcs	r5, r1, r4, rrx
    3db4:	89100000 	ldmdbhi	r0, {}	; <UNPREDICTABLE>
    3db8:	01000007 	tsteq	r0, r7
    3dbc:	0025058b 	eoreq	r0, r5, fp, lsl #11
    3dc0:	99d40000 	ldmibls	r4, {}^	; <UNPREDICTABLE>
    3dc4:	00180000 	andseq	r0, r8, r0
    3dc8:	9c010000 	stcls	0, cr0, [r1], {-0}
    3dcc:	00000337 	andeq	r0, r0, r7, lsr r3
    3dd0:	0099e011 	addseq	lr, r9, r1, lsl r0
    3dd4:	0005ac00 	andeq	sl, r5, r0, lsl #24
    3dd8:	50011200 	andpl	r1, r1, r0, lsl #4
    3ddc:	50640c05 	rsbpl	r0, r4, r5, lsl #24
    3de0:	00002021 	andeq	r2, r0, r1, lsr #32
    3de4:	0006500e 	andeq	r5, r6, lr
    3de8:	06450100 	strbeq	r0, [r5], -r0, lsl #2
    3dec:	00009924 	andeq	r9, r0, r4, lsr #18
    3df0:	000000b0 	strheq	r0, [r0], -r0	; <UNPREDICTABLE>
    3df4:	04849c01 	streq	r9, [r4], #3073	; 0xc01
    3df8:	7b160000 	blvc	583e00 <__bss_end__+0x578f80>
    3dfc:	01000007 	tsteq	r0, r7
    3e00:	00620e7e 	rsbeq	r0, r2, lr, ror lr
    3e04:	010e0000 	mrseq	r0, (UNDEF: 14)
    3e08:	00993414 	addseq	r3, r9, r4, lsl r4
    3e0c:	0005c400 	andeq	ip, r5, r0, lsl #8
    3e10:	00037300 	andeq	r7, r3, r0, lsl #6
    3e14:	50011200 	andpl	r1, r1, r0, lsl #4
    3e18:	01123e01 	tsteq	r2, r1, lsl #28
    3e1c:	00320151 	eorseq	r0, r2, r1, asr r1
    3e20:	00994014 	addseq	r4, r9, r4, lsl r0
    3e24:	0005c400 	andeq	ip, r5, r0, lsl #8
    3e28:	00038b00 	andeq	r8, r3, r0, lsl #22
    3e2c:	50011200 	andpl	r1, r1, r0, lsl #4
    3e30:	01123f01 	tsteq	r2, r1, lsl #30
    3e34:	00320151 	eorseq	r0, r2, r1, asr r1
    3e38:	0099440f 	addseq	r4, r9, pc, lsl #8
    3e3c:	0005a000 	andeq	sl, r5, r0
    3e40:	99501400 	ldmdbls	r0, {sl, ip}^
    3e44:	053d0000 	ldreq	r0, [sp, #-0]!
    3e48:	03b00000 	movseq	r0, #0, 0
    3e4c:	01120000 	tsteq	r2, r0
    3e50:	040c0550 	streq	r0, [ip], #-1360	; 0xfffffab0
    3e54:	12202150 	eorne	r2, r0, #20
    3e58:	31015101 	tstcc	r1, r1, lsl #2
    3e5c:	99540f00 	ldmdbls	r4, {r8, r9, sl, fp}^
    3e60:	05a00000 	streq	r0, [r0, #0]!
    3e64:	64140000 	ldrvs	r0, [r4], #-0
    3e68:	b8000099 	stmdalt	r0, {r0, r3, r4, r7}
    3e6c:	d2000005 	andle	r0, r0, #5, 0
    3e70:	12000003 	andne	r0, r0, #3, 0
    3e74:	74025001 	strvc	r5, [r2], #-1
    3e78:	51011200 	mrspl	r1, R9_usr
    3e7c:	14003001 	strne	r3, [r0], #-1
    3e80:	00009970 	andeq	r9, r0, r0, ror r9
    3e84:	000005b8 			; <UNDEFINED> instruction: 0x000005b8
    3e88:	000003ee 	andeq	r0, r0, lr, ror #7
    3e8c:	05500112 	ldrbeq	r0, [r0, #-274]	; 0xfffffeee
    3e90:	2150440c 	cmpcs	r0, ip, lsl #8
    3e94:	51011220 	tstpl	r1, r0, lsr #4
    3e98:	14003001 	strne	r3, [r0], #-1
    3e9c:	0000997c 	andeq	r9, r0, ip, ror r9
    3ea0:	000005b8 			; <UNDEFINED> instruction: 0x000005b8
    3ea4:	0000040a 	andeq	r0, r0, sl, lsl #8
    3ea8:	05500112 	ldrbeq	r0, [r0, #-274]	; 0xfffffeee
    3eac:	21504c0c 	cmpcs	r0, ip, lsl #24
    3eb0:	51011220 	tstpl	r1, r0, lsr #4
    3eb4:	14003301 	strne	r3, [r0], #-769	; 0xfffffcff
    3eb8:	00009988 	andeq	r9, r0, r8, lsl #19
    3ebc:	000005b8 			; <UNDEFINED> instruction: 0x000005b8
    3ec0:	00000426 	andeq	r0, r0, r6, lsr #8
    3ec4:	05500112 	ldrbeq	r0, [r0, #-274]	; 0xfffffeee
    3ec8:	2150500c 	cmpcs	r0, ip
    3ecc:	51011220 	tstpl	r1, r0, lsr #4
    3ed0:	14003001 	strne	r3, [r0], #-1
    3ed4:	00009994 	muleq	r0, r4, r9
    3ed8:	000005b8 			; <UNDEFINED> instruction: 0x000005b8
    3edc:	00000443 	andeq	r0, r0, r3, asr #8
    3ee0:	05500112 	ldrbeq	r0, [r0, #-274]	; 0xfffffeee
    3ee4:	2150480c 	cmpcs	r0, ip, lsl #16
    3ee8:	51011220 	tstpl	r1, r0, lsr #4
    3eec:	00c70802 	sbceq	r0, r7, r2, lsl #16
    3ef0:	0099a014 	addseq	sl, r9, r4, lsl r0
    3ef4:	0005b800 	andeq	fp, r5, r0, lsl #16
    3ef8:	00046100 	andeq	r6, r4, r0, lsl #2
    3efc:	50011200 	andpl	r1, r1, r0, lsl #4
    3f00:	50680c05 	rsbpl	r0, r8, r5, lsl #24
    3f04:	01122021 	tsteq	r2, r1, lsr #32
    3f08:	0e0a0351 	mcreq	3, 0, r0, cr10, cr1, {2}
    3f0c:	ac140001 	ldcge	0, cr0, [r4], {1}
    3f10:	b8000099 	stmdalt	r0, {r0, r3, r4, r7}
    3f14:	7a000005 	bvc	3f30 <__code_start__-0x40d0>
    3f18:	12000004 	andne	r0, r0, #4, 0
    3f1c:	74025001 	strvc	r5, [r2], #-1
    3f20:	51011200 	mrspl	r1, R9_usr
    3f24:	0f003301 	svceq	0x00003301
    3f28:	000099b0 			; <UNDEFINED> instruction: 0x000099b0
    3f2c:	000005a0 	andeq	r0, r0, r0, lsr #11
    3f30:	090d0e00 	stmdbeq	sp, {r9, sl, fp}
    3f34:	35010000 	strcc	r0, [r1, #-0]
    3f38:	009ab006 	addseq	fp, sl, r6
    3f3c:	00002400 	andeq	r2, r0, r0, lsl #8
    3f40:	d39c0100 	orrsle	r0, ip, #0
    3f44:	0f000004 	svceq	0x00000004
    3f48:	00009ab8 			; <UNDEFINED> instruction: 0x00009ab8
    3f4c:	00000194 	muleq	r0, r4, r1
    3f50:	009abc0f 	addseq	fp, sl, pc, lsl #24
    3f54:	0005a000 	andeq	sl, r5, r0
    3f58:	9ac81400 	bls	ff208f60 <__bss_end__+0xff1fe0e0>
    3f5c:	04d30000 	ldrbeq	r0, [r3], #0
    3f60:	04c90000 	strbeq	r0, [r9], #0
    3f64:	01120000 	tsteq	r2, r0
    3f68:	040c0550 	streq	r0, [ip], #-1360	; 0xfffffab0
    3f6c:	12202150 	eorne	r2, r0, #20
    3f70:	09025101 	stmdbeq	r2, {r0, r8, ip, lr}
    3f74:	cc0f00fe 	stcgt	0, cr0, [pc], {254}	; 0xfe
    3f78:	a000009a 	mulge	r0, sl, r0
    3f7c:	00000005 	andeq	r0, r0, r5
    3f80:	00094c17 	andeq	r4, r9, r7, lsl ip
    3f84:	0d310100 	ldfeqs	f0, [r1, #-0]
    3f88:	000098e4 	andeq	r9, r0, r4, ror #17
    3f8c:	00000020 	andeq	r0, r0, r0, lsr #32
    3f90:	05369c01 	ldreq	r9, [r6, #-3073]!	; 0xfffff3ff
    3f94:	a6180000 	ldrge	r0, [r8], -r0
    3f98:	01000009 	tsteq	r0, r9
    3f9c:	05362531 	ldreq	r2, [r6, #-1329]!	; 0xfffffacf
    3fa0:	28f90000 	ldmcs	r9!, {}^	; <UNPREDICTABLE>
    3fa4:	28f50000 	ldmcs	r5!, {}^	; <UNPREDICTABLE>
    3fa8:	76130000 	ldrvc	r0, [r3], -r0
    3fac:	01006c61 	tsteq	r0, r1, ror #24
    3fb0:	002c3431 	eoreq	r3, ip, r1, lsr r4
    3fb4:	291b0000 	ldmdbcs	fp, {}	; <UNPREDICTABLE>
    3fb8:	29170000 	ldmdbcs	r7, {}	; <UNPREDICTABLE>
    3fbc:	f4140000 			; <UNDEFINED> instruction: 0xf4140000
    3fc0:	ac000098 	stcge	0, cr0, [r0], {152}	; 0x98
    3fc4:	25000005 	strcs	r0, [r0, #-5]
    3fc8:	12000005 	andne	r0, r0, #5, 0
    3fcc:	74025001 	strvc	r5, [r2], #-1
    3fd0:	00110000 	andseq	r0, r1, r0
    3fd4:	b8000099 	stmdalt	r0, {r0, r3, r4, r7}
    3fd8:	12000005 	andne	r0, r0, #5, 0
    3fdc:	74025001 	strvc	r5, [r2], #-1
    3fe0:	0c000000 	stceq	0, cr0, [r0], {-0}
    3fe4:	00053c04 	andeq	r3, r5, r4, lsl #24
    3fe8:	37171900 	ldrcc	r1, [r7, -r0, lsl #18]
    3fec:	01000009 	tsteq	r0, r9
    3ff0:	99040d2e 	stmdbls	r4, {r1, r2, r3, r5, r8, sl, fp}
    3ff4:	00200000 	eoreq	r0, r0, r0
    3ff8:	9c010000 	stcls	0, cr0, [r1], {-0}
    3ffc:	000005a0 	andeq	r0, r0, r0, lsr #11
    4000:	0009a618 	andeq	sl, r9, r8, lsl r6
    4004:	242e0100 	strtcs	r0, [lr], #-256	; 0xffffff00
    4008:	00000536 	andeq	r0, r0, r6, lsr r5
    400c:	0000293d 	andeq	r2, r0, sp, lsr r9
    4010:	00002939 	andeq	r2, r0, r9, lsr r9
    4014:	6c617613 	stclvs	6, cr7, [r1], #-76	; 0xffffffb4
    4018:	332e0100 			; <UNDEFINED> instruction: 0x332e0100
    401c:	0000002c 	andeq	r0, r0, ip, lsr #32
    4020:	0000295f 	andeq	r2, r0, pc, asr r9
    4024:	0000295b 	andeq	r2, r0, fp, asr r9
    4028:	00991414 	addseq	r1, r9, r4, lsl r4
    402c:	0005ac00 	andeq	sl, r5, r0, lsl #24
    4030:	00058f00 	andeq	r8, r5, r0, lsl #30
    4034:	50011200 	andpl	r1, r1, r0, lsl #4
    4038:	00007402 	andeq	r7, r0, r2, lsl #8
    403c:	00992011 	addseq	r2, r9, r1, lsl r0
    4040:	0005b800 	andeq	fp, r5, r0, lsl #16
    4044:	50011200 	andpl	r1, r1, r0, lsl #4
    4048:	00007402 	andeq	r7, r0, r2, lsl #8
    404c:	071a1a00 	ldreq	r1, [sl, -r0, lsl #20]
    4050:	071a0000 	ldreq	r0, [sl, -r0]
    4054:	9c030000 	stcls	0, cr0, [r3], {-0}
    4058:	09811a06 	stmibeq	r1, {r1, r2, r9, fp, ip}
    405c:	09810000 	stmibeq	r1, {}	; <UNPREDICTABLE>
    4060:	c3030000 	movwgt	r0, #12288	; 0x3000
    4064:	07751a0b 	ldrbeq	r1, [r5, -fp, lsl #20]!
    4068:	07750000 	ldrbeq	r0, [r5, -r0]!
    406c:	ae030000 	cdpge	0, 0, cr0, cr3, cr0, {0}
    4070:	096f1a06 	stmdbeq	pc!, {r1, r2, r9, fp, ip}^	; <UNPREDICTABLE>
    4074:	096f0000 	stmdbeq	pc!, {}^	; <UNPREDICTABLE>
    4078:	19040000 	stmdbne	r4, {}	; <UNPREDICTABLE>
    407c:	08e90006 	stmiaeq	r9!, {r1, r2}^
    4080:	00040000 	andeq	r0, r4, r0
    4084:	00001747 	andeq	r1, r0, r7, asr #14
    4088:	08750104 	ldmdaeq	r5!, {r2, r8}^
    408c:	110c0000 	mrsne	r0, (UNDEF: 12)
    4090:	2500000a 	strcs	r0, [r0, #-10]
    4094:	d4000008 	strle	r0, [r0], #-8
    4098:	b000009a 	mullt	r0, sl, r0
    409c:	ef000003 	svc	0x00000003
    40a0:	02000020 	andeq	r0, r0, #32, 0
    40a4:	6e690504 	cdpvs	5, 6, cr0, cr9, cr4, {0}
    40a8:	04030074 	streq	r0, [r3], #-116	; 0xffffff8c
    40ac:	00015407 	andeq	r5, r1, r7, lsl #8
    40b0:	06010300 	streq	r0, [r1], -r0, lsl #6
    40b4:	000000ec 	andeq	r0, r0, ip, ror #1
    40b8:	49050203 	stmdbmi	r5, {r0, r1, r9}
    40bc:	03000000 	movweq	r0, #0
    40c0:	009f0504 	addseq	r0, pc, r4, lsl #10
    40c4:	08030000 	stmdaeq	r3, {}	; <UNPREDICTABLE>
    40c8:	00009a05 	andeq	r9, r0, r5, lsl #20
    40cc:	08010300 	stmdaeq	r1, {r8, r9}
    40d0:	000000ea 	andeq	r0, r0, sl, ror #1
    40d4:	7b070203 	blvc	1c48e8 <__bss_end__+0x1b9a68>
    40d8:	04000001 	streq	r0, [r0], #-1
    40dc:	00000161 	andeq	r0, r0, r1, ror #2
    40e0:	69193403 	ldmdbvs	r9, {r0, r1, sl, ip, sp}
    40e4:	03000000 	movweq	r0, #0
    40e8:	014f0704 	cmpeq	pc, r4, lsl #14
    40ec:	08030000 	stmdaeq	r3, {}	; <UNPREDICTABLE>
    40f0:	00014a07 	andeq	r4, r1, r7, lsl #20
    40f4:	08010300 	stmdaeq	r1, {r8, r9}
    40f8:	000000f3 	strdeq	r0, [r0], -r3
    40fc:	00007705 	andeq	r7, r0, r5, lsl #14
    4100:	04080300 	streq	r0, [r8], #-768	; 0xfffffd00
    4104:	00000364 	andeq	r0, r0, r4, ror #6
    4108:	07070406 	streq	r0, [r7, -r6, lsl #8]
    410c:	00002c04 	andeq	r2, r0, r4, lsl #24
    4110:	061f0100 	ldreq	r0, [pc], -r0, lsl #2
    4114:	000000a4 	andeq	r0, r0, r4, lsr #1
    4118:	0009ab08 	andeq	sl, r9, r8, lsl #22
    411c:	20000000 	andcs	r0, r0, r0
    4120:	7b090000 	blvc	244128 <__bss_end__+0x2392a8>
    4124:	01000005 	tsteq	r0, r5
    4128:	00770d22 	rsbseq	r0, r7, r2, lsr #26
    412c:	2b0a0000 	blcs	284134 <__bss_end__+0x2792b4>
    4130:	01000004 	tsteq	r0, r4
    4134:	00c20e23 	sbceq	r0, r2, r3, lsr #28
    4138:	03050000 	movweq	r0, #20480	; 0x5000
    413c:	0000aa40 	andeq	sl, r0, r0, asr #20
    4140:	0077040b 	rsbseq	r0, r7, fp, lsl #8
    4144:	8f0a0000 	svchi	0x000a0000
    4148:	01000009 	tsteq	r0, r9
    414c:	00c20e24 	sbceq	r0, r2, r4, lsr #28
    4150:	03050000 	movweq	r0, #20480	; 0x5000
    4154:	0000aa44 	andeq	sl, r0, r4, asr #20
    4158:	0009f00a 	andeq	pc, r9, sl
    415c:	0e250100 	sufeqs	f0, f5, f0
    4160:	000000c2 	andeq	r0, r0, r2, asr #1
    4164:	aa480305 	bge	1204d80 <__bss_end__+0x11f9f00>
    4168:	c60c0000 	strgt	r0, [ip], -r0
    416c:	01000009 	tsteq	r0, r9
    4170:	9e240675 	mcrls	6, 1, r0, cr4, cr5, {3}
    4174:	00600000 	rsbeq	r0, r0, r0
    4178:	9c010000 	stcls	0, cr0, [r1], {-0}
    417c:	00000164 	andeq	r0, r0, r4, ror #2
    4180:	0100700d 	tsteq	r0, sp
    4184:	008a1675 	addeq	r1, sl, r5, ror r6
    4188:	29830000 	stmibcs	r3, {}	; <UNPREDICTABLE>
    418c:	297d0000 	ldmdbcs	sp!, {}^	; <UNPREDICTABLE>
    4190:	b90e0000 	stmdblt	lr, {}	; <UNPREDICTABLE>
    4194:	74000000 	strvc	r0, [r0], #-0
    4198:	05000001 	streq	r0, [r0, #-1]
    419c:	00aa3003 	adceq	r3, sl, r3
    41a0:	9e700f00 	cdpls	15, 7, cr0, cr0, cr0, {0}
    41a4:	08bc0000 	ldmeq	ip!, {}	; <UNPREDICTABLE>
    41a8:	015a0000 	cmpeq	sl, r0
    41ac:	01100000 	tsteq	r0, r0
    41b0:	a8030550 	stmdage	r3, {r4, r6, r8, sl}
    41b4:	100000a9 	andne	r0, r0, r9, lsr #1
    41b8:	03055101 	movweq	r5, #20737	; 0x5101
    41bc:	0000a840 	andeq	sl, r0, r0, asr #16
    41c0:	05520110 	ldrbeq	r0, [r2, #-272]	; 0xfffffef0
    41c4:	00aa3003 	adceq	r3, sl, r3
    41c8:	53011000 	movwpl	r1, #4096	; 0x1000
    41cc:	10770802 	rsbsne	r0, r7, r2, lsl #16
    41d0:	03007d02 	movweq	r7, #3330	; 0xd02
    41d4:	005001f3 	ldrsheq	r0, [r0], #-19	; 0xffffffed
    41d8:	009e7411 	addseq	r7, lr, r1, lsl r4
    41dc:	0008c800 	andeq	ip, r8, r0, lsl #16
    41e0:	7e120000 	cdpvc	0, 1, cr0, cr2, cr0, {0}
    41e4:	74000000 	strvc	r0, [r0], #-0
    41e8:	13000001 	movwne	r0, #1
    41ec:	0000002c 	andeq	r0, r0, ip, lsr #32
    41f0:	64050009 	strvs	r0, [r5], #-9
    41f4:	14000001 	strne	r0, [r0], #-1
    41f8:	000009b4 			; <UNDEFINED> instruction: 0x000009b4
    41fc:	10067201 	andne	r7, r6, r1, lsl #4
    4200:	1400009e 	strne	r0, [r0], #-158	; 0xffffff62
    4204:	01000000 	mrseq	r0, (UNDEF: 0)
    4208:	02ba0c9c 	adcseq	r0, sl, #156, 24	; 0x9c00
    420c:	6f010000 	svcvs	0x00010000
    4210:	009e0c06 	addseq	r0, lr, r6, lsl #24
    4214:	00000400 	andeq	r0, r0, r0, lsl #8
    4218:	ae9c0100 	fmlgee	f0, f4, f0
    421c:	15000001 	strne	r0, [r0, #-1]
    4220:	6f010070 	svcvs	0x00010070
    4224:	00008a12 	andeq	r8, r0, r2, lsl sl
    4228:	00500100 	subseq	r0, r0, r0, lsl #2
    422c:	000a5316 	andeq	r5, sl, r6, lsl r3
    4230:	075e0100 	ldrbeq	r0, [lr, -r0, lsl #2]
    4234:	0000008a 	andeq	r0, r0, sl, lsl #1
    4238:	00009cf4 	strdeq	r9, [r0], -r4
    423c:	00000118 	andeq	r0, r0, r8, lsl r1
    4240:	042c9c01 	strteq	r9, [ip], #-3073	; 0xfffff3ff
    4244:	27170000 	ldrcs	r0, [r7, -r0]
    4248:	01000003 	tsteq	r0, r3
    424c:	002c205e 	eoreq	r2, ip, lr, asr r0
    4250:	29c40000 	stmibcs	r4, {}^	; <UNPREDICTABLE>
    4254:	29b00000 	ldmibcs	r0!, {}	; <UNPREDICTABLE>
    4258:	d0170000 	andsle	r0, r7, r0
    425c:	01000009 	tsteq	r0, r9
    4260:	002c315e 	eoreq	r3, ip, lr, asr r1
    4264:	2a5d0000 	bcs	174426c <__bss_end__+0x17393ec>
    4268:	2a490000 	bcs	1244270 <__bss_end__+0x12393f0>
    426c:	b90e0000 	stmdblt	lr, {}	; <UNPREDICTABLE>
    4270:	3c000000 	stccc	0, cr0, [r0], {-0}
    4274:	05000004 	streq	r0, [r0, #-4]
    4278:	00aa1803 	adceq	r1, sl, r3, lsl #16
    427c:	00681800 	rsbeq	r1, r8, r0, lsl #16
    4280:	2c0e6601 	stccs	6, cr6, [lr], {1}
    4284:	13000000 	movwne	r0, #0
    4288:	0700002b 	streq	r0, [r0, -fp, lsr #32]
    428c:	1900002b 	stmdbne	r0, {r0, r1, r3, r5}
    4290:	00000854 	andeq	r0, r0, r4, asr r8
    4294:	00009d04 	andeq	r9, r0, r4, lsl #26
    4298:	009d0404 	addseq	r0, sp, r4, lsl #8
    429c:	00000400 	andeq	r0, r0, r0, lsl #8
    42a0:	05600100 	strbeq	r0, [r0, #-256]!	; 0xffffff00
    42a4:	00000238 	andeq	r0, r0, r8, lsr r2
    42a8:	0008651a 	andeq	r6, r8, sl, lsl r5
    42ac:	002b6700 	eoreq	r6, fp, r0, lsl #14
    42b0:	002b6500 	eoreq	r6, fp, r0, lsl #10
    42b4:	96190000 	ldrls	r0, [r9], -r0
    42b8:	10000008 	andne	r0, r0, r8
    42bc:	0200009d 	andeq	r0, r0, #157, 0	; 0x9d
    42c0:	00009d10 	andeq	r9, r0, r0, lsl sp
    42c4:	00000008 	andeq	r0, r0, r8
    42c8:	6c116101 	ldfvss	f6, [r1], {1}
    42cc:	1a000002 	bne	42dc <__code_start__-0x3d24>
    42d0:	000008b1 			; <UNDEFINED> instruction: 0x000008b1
    42d4:	00002b7c 	andeq	r2, r0, ip, ror fp
    42d8:	00002b7a 	andeq	r2, r0, sl, ror fp
    42dc:	0008a71a 	andeq	sl, r8, sl, lsl r7
    42e0:	002b9200 	eoreq	r9, fp, r0, lsl #4
    42e4:	002b9000 	eoreq	r9, fp, r0
    42e8:	1f1b0000 	svcne	0x001b0000
    42ec:	20000008 	andcs	r0, r0, r8
    42f0:	0100009d 	swpeq	r0, sp, [r0]	; <UNPREDICTABLE>
    42f4:	000006a8 	andeq	r0, r0, r8, lsr #13
    42f8:	0a096701 	beq	25df04 <__bss_end__+0x253084>
    42fc:	1a000003 	bne	4310 <__code_start__-0x3cf0>
    4300:	0000083a 	andeq	r0, r0, sl, lsr r8
    4304:	00002bab 	andeq	r2, r0, fp, lsr #23
    4308:	00002ba5 	andeq	r2, r0, r5, lsr #23
    430c:	0008301a 	andeq	r3, r8, sl, lsl r0
    4310:	002bf200 	eoreq	pc, fp, r0, lsl #4
    4314:	002bea00 	eoreq	lr, fp, r0, lsl #20
    4318:	06a81c00 	strteq	r1, [r8], r0, lsl #24
    431c:	54190000 	ldrpl	r0, [r9], #-0
    4320:	20000008 	andcs	r0, r0, r8
    4324:	0400009d 	streq	r0, [r0], #-157	; 0xffffff63
    4328:	00009d20 	andeq	r9, r0, r0, lsr #26
    432c:	00000004 	andeq	r0, r0, r4
    4330:	c7051101 	strgt	r1, [r5, -r1, lsl #2]
    4334:	1a000002 	bne	4344 <__code_start__-0x3cbc>
    4338:	00000865 	andeq	r0, r0, r5, ror #16
    433c:	00002c30 	andeq	r2, r0, r0, lsr ip
    4340:	00002c2e 	andeq	r2, r0, lr, lsr #24
    4344:	9db80f00 	ldcls	15, cr0, [r8]
    4348:	08bc0000 	ldmeq	ip!, {}	; <UNPREDICTABLE>
    434c:	02ff0000 	rscseq	r0, pc, #0, 0
    4350:	01100000 	tsteq	r0, r0
    4354:	78030550 	stmdavc	r3, {r4, r6, r8, sl}
    4358:	100000a1 	andne	r0, r0, r1, lsr #1
    435c:	03055101 	movweq	r5, #20737	; 0x5101
    4360:	0000a840 	andeq	sl, r0, r0, asr #16
    4364:	05520110 	ldrbeq	r0, [r2, #-272]	; 0xfffffef0
    4368:	00aa2803 	adceq	r2, sl, r3, lsl #16
    436c:	53011000 	movwpl	r1, #4096	; 0x1000
    4370:	02104101 	andseq	r4, r0, #1073741824	; 0x40000000
    4374:	0305007d 	movweq	r0, #20605	; 0x507d
    4378:	0000a954 	andeq	sl, r0, r4, asr r9
    437c:	9dbc1100 	ldflss	f1, [ip]
    4380:	08c80000 	stmiaeq	r8, {}^	; <UNPREDICTABLE>
    4384:	00000000 	andeq	r0, r0, r0
    4388:	00087019 	andeq	r7, r8, r9, lsl r0
    438c:	009d3800 	addseq	r3, sp, r0, lsl #16
    4390:	9d380300 	ldcls	3, cr0, [r8, #-0]
    4394:	00040000 	andeq	r0, r4, r0
    4398:	68010000 	stmdavs	r1, {}	; <UNPREDICTABLE>
    439c:	00033e05 	andeq	r3, r3, r5, lsl #28
    43a0:	088b1a00 	stmeq	fp, {r9, fp, ip}
    43a4:	2c450000 	marcs	acc0, r0, r5
    43a8:	2c430000 	marcs	acc0, r0, r3
    43ac:	811a0000 	tsthi	sl, r0
    43b0:	5a000008 	bpl	43d8 <__code_start__-0x3c28>
    43b4:	5800002c 	stmdapl	r0, {r2, r3, r5}
    43b8:	0000002c 	andeq	r0, r0, ip, lsr #32
    43bc:	009d500f 	addseq	r5, sp, pc
    43c0:	00044100 	andeq	r4, r4, r0, lsl #2
    43c4:	00035300 	andeq	r5, r3, r0, lsl #6
    43c8:	50011000 	andpl	r1, r1, r0
    43cc:	5001f303 	andpl	pc, r1, r3, lsl #6
    43d0:	9d740f00 	ldclls	15, cr0, [r4, #-0]
    43d4:	08bc0000 	ldmeq	ip!, {}	; <UNPREDICTABLE>
    43d8:	038c0000 	orreq	r0, ip, #0, 0
    43dc:	01100000 	tsteq	r0, r0
    43e0:	78030550 	stmdavc	r3, {r4, r6, r8, sl}
    43e4:	100000a1 	andne	r0, r0, r1, lsr #1
    43e8:	03055101 	movweq	r5, #20737	; 0x5101
    43ec:	0000a840 	andeq	sl, r0, r0, asr #16
    43f0:	05520110 	ldrbeq	r0, [r2, #-272]	; 0xfffffef0
    43f4:	00aa1803 	adceq	r1, sl, r3, lsl #16
    43f8:	53011000 	movwpl	r1, #4096	; 0x1000
    43fc:	105f0802 	subsne	r0, pc, r2, lsl #16
    4400:	05007d02 	streq	r7, [r0, #-3330]	; 0xfffff2fe
    4404:	00a85003 	adceq	r5, r8, r3
    4408:	78110000 	ldmdavc	r1, {}	; <UNPREDICTABLE>
    440c:	c800009d 	stmdagt	r0, {r0, r2, r3, r4, r7}
    4410:	11000008 	tstne	r0, r8
    4414:	00009d7c 	andeq	r9, r0, ip, ror sp
    4418:	000008d4 	ldrdeq	r0, [r0], -r4
    441c:	009d980f 	addseq	r9, sp, pc, lsl #16
    4420:	0008bc00 	andeq	fp, r8, r0, lsl #24
    4424:	0003d700 	andeq	sp, r3, r0, lsl #14
    4428:	50011000 	andpl	r1, r1, r0
    442c:	a90c0305 	stmdbge	ip, {r0, r2, r8, r9}
    4430:	01100000 	tsteq	r0, r0
    4434:	40030551 	andmi	r0, r3, r1, asr r5
    4438:	100000a8 	andne	r0, r0, r8, lsr #1
    443c:	03055201 	movweq	r5, #20993	; 0x5201
    4440:	0000aa18 	andeq	sl, r0, r8, lsl sl
    4444:	02530110 	subseq	r0, r3, #4
    4448:	02106008 	andseq	r6, r0, #8, 0
    444c:	0305007d 	movweq	r0, #20605	; 0x507d
    4450:	0000a940 	andeq	sl, r0, r0, asr #18
    4454:	9d9c1100 	ldflss	f1, [ip]
    4458:	08c80000 	stmiaeq	r8, {}^	; <UNPREDICTABLE>
    445c:	c0110000 	andsgt	r0, r1, r0
    4460:	d400009d 	strle	r0, [r0], #-157	; 0xffffff63
    4464:	0f000008 	svceq	0x00000008
    4468:	00009ddc 	ldrdeq	r9, [r0], -ip
    446c:	000008bc 			; <UNDEFINED> instruction: 0x000008bc
    4470:	00000422 	andeq	r0, r0, r2, lsr #8
    4474:	05500110 	ldrbeq	r0, [r0, #-272]	; 0xfffffef0
    4478:	00a96003 	adceq	r6, r9, r3
    447c:	51011000 	mrspl	r1, (UNDEF: 1)
    4480:	a8400305 	stmdage	r0, {r0, r2, r8, r9}^
    4484:	01100000 	tsteq	r0, r0
    4488:	18030552 	stmdane	r3, {r1, r4, r6, r8, sl}
    448c:	100000aa 	andne	r0, r0, sl, lsr #1
    4490:	08025301 	stmdaeq	r2, {r0, r8, r9, ip, lr}
    4494:	7d021068 	stcvc	0, cr1, [r2, #-416]	; 0xfffffe60
    4498:	8c030500 	cfstr32hi	mvfx0, [r3], {-0}
    449c:	000000a9 	andeq	r0, r0, r9, lsr #1
    44a0:	009de011 	addseq	lr, sp, r1, lsl r0
    44a4:	0008c800 	andeq	ip, r8, r0, lsl #16
    44a8:	7e120000 	cdpvc	0, 1, cr0, cr2, cr0, {0}
    44ac:	3c000000 	stccc	0, cr0, [r0], {-0}
    44b0:	13000004 	movwne	r0, #4
    44b4:	0000002c 	andeq	r0, r0, ip, lsr #32
    44b8:	2c05000f 	stccs	0, cr0, [r5], {15}
    44bc:	16000004 	strne	r0, [r0], -r4
    44c0:	00000450 	andeq	r0, r0, r0, asr r4
    44c4:	8a075301 	bhi	1d90d0 <__bss_end__+0x1ce250>
    44c8:	90000000 	andls	r0, r0, r0
    44cc:	6400009c 	strvs	r0, [r0], #-156	; 0xffffff64
    44d0:	01000000 	mrseq	r0, (UNDEF: 0)
    44d4:	0005089c 	muleq	r5, ip, r8
    44d8:	03271700 			; <UNDEFINED> instruction: 0x03271700
    44dc:	53010000 	movwpl	r0, #4096	; 0x1000
    44e0:	00002c18 	andeq	r2, r0, r8, lsl ip
    44e4:	002c7500 	eoreq	r7, ip, r0, lsl #10
    44e8:	002c6d00 	eoreq	r6, ip, r0, lsl #26
    44ec:	00b90e00 	adcseq	r0, r9, r0, lsl #28
    44f0:	05180000 	ldreq	r0, [r8, #-0]
    44f4:	03050000 	movweq	r0, #20480	; 0x5000
    44f8:	0000aa10 	andeq	sl, r0, r0, lsl sl
    44fc:	0009a61d 	andeq	sl, r9, sp, lsl r6
    4500:	0b550100 	bleq	1544908 <__bss_end__+0x1539a88>
    4504:	0000008a 	andeq	r0, r0, sl, lsl #1
    4508:	00002cad 	andeq	r2, r0, sp, lsr #25
    450c:	00002ca9 	andeq	r2, r0, r9, lsr #25
    4510:	009ca80f 	addseq	sl, ip, pc, lsl #16
    4514:	00051d00 	andeq	r1, r5, r0, lsl #26
    4518:	0004a600 	andeq	sl, r4, r0, lsl #12
    451c:	50011000 	andpl	r1, r1, r0
    4520:	00007402 	andeq	r7, r0, r2, lsl #8
    4524:	009cb80f 	addseq	fp, ip, pc, lsl #16
    4528:	0008e000 	andeq	lr, r8, r0
    452c:	0004c500 	andeq	ip, r4, r0, lsl #10
    4530:	50011000 	andpl	r1, r1, r0
    4534:	10007502 	andne	r7, r0, r2, lsl #10
    4538:	30015101 	andcc	r5, r1, r1, lsl #2
    453c:	02520110 	subseq	r0, r2, #4
    4540:	0f000074 	svceq	0x00000074
    4544:	00009ce0 	andeq	r9, r0, r0, ror #25
    4548:	000008bc 			; <UNDEFINED> instruction: 0x000008bc
    454c:	000004fe 	strdeq	r0, [r0], -lr
    4550:	05500110 	ldrbeq	r0, [r0, #-272]	; 0xfffffef0
    4554:	00a17803 	adceq	r7, r1, r3, lsl #16
    4558:	51011000 	mrspl	r1, (UNDEF: 1)
    455c:	a8400305 	stmdage	r0, {r0, r2, r8, r9}^
    4560:	01100000 	tsteq	r0, r0
    4564:	10030552 	andne	r0, r3, r2, asr r5
    4568:	100000aa 	andne	r0, r0, sl, lsr #1
    456c:	08025301 	stmdaeq	r2, {r0, r8, r9, ip, lr}
    4570:	7d021054 	stcvc	0, cr1, [r2, #-336]	; 0xfffffeb0
    4574:	50030500 	andpl	r0, r3, r0, lsl #10
    4578:	000000a8 	andeq	r0, r0, r8, lsr #1
    457c:	009ce411 	addseq	lr, ip, r1, lsl r4
    4580:	0008c800 	andeq	ip, r8, r0, lsl #16
    4584:	7e120000 	cdpvc	0, 1, cr0, cr2, cr0, {0}
    4588:	18000000 	stmdane	r0, {}	; <UNPREDICTABLE>
    458c:	13000005 	movwne	r0, #5
    4590:	0000002c 	andeq	r0, r0, ip, lsr #32
    4594:	08050007 	stmdaeq	r5, {r0, r1, r2}
    4598:	16000005 	strne	r0, [r0], -r5
    459c:	000009f9 	strdeq	r0, [r0], -r9
    45a0:	8a074701 	bhi	1d61ac <__bss_end__+0x1cb32c>
    45a4:	f8000000 			; <UNDEFINED> instruction: 0xf8000000
    45a8:	9800009b 	stmdals	r0, {r0, r1, r3, r4, r7}
    45ac:	01000000 	mrseq	r0, (UNDEF: 0)
    45b0:	00062b9c 	muleq	r6, ip, fp
    45b4:	03271700 			; <UNDEFINED> instruction: 0x03271700
    45b8:	47010000 	strmi	r0, [r1, -r0]
    45bc:	00002c20 	andeq	r2, r0, r0, lsr #24
    45c0:	002cdb00 	eoreq	sp, ip, r0, lsl #22
    45c4:	002ccb00 	eoreq	ip, ip, r0, lsl #22
    45c8:	00b90e00 	adcseq	r0, r9, r0, lsl #28
    45cc:	043c0000 	ldrteq	r0, [ip], #-0
    45d0:	03050000 	movweq	r0, #20480	; 0x5000
    45d4:	0000aa00 	andeq	sl, r0, r0, lsl #20
    45d8:	0009a61d 	andeq	sl, r9, sp, lsl r6
    45dc:	0b4b0100 	bleq	12c49e4 <__bss_end__+0x12b9b64>
    45e0:	0000008a 	andeq	r0, r0, sl, lsl #1
    45e4:	00002d4d 	andeq	r2, r0, sp, asr #26
    45e8:	00002d49 	andeq	r2, r0, r9, asr #26
    45ec:	00081f1b 	andeq	r1, r8, fp, lsl pc
    45f0:	009c0800 	addseq	r0, ip, r0, lsl #16
    45f4:	06900300 	ldreq	r0, [r0], r0, lsl #6
    45f8:	49010000 	stmdbmi	r1, {}	; <UNPREDICTABLE>
    45fc:	0005a30e 	andeq	sl, r5, lr, lsl #6
    4600:	083a1a00 	ldmdaeq	sl!, {r9, fp, ip}
    4604:	2d6d0000 	stclcs	0, cr0, [sp, #-0]
    4608:	2d6b0000 	stclcs	0, cr0, [fp, #-0]
    460c:	301a0000 	andscc	r0, sl, r0
    4610:	85000008 	strhi	r0, [r0, #-8]
    4614:	8100002d 	tsthi	r0, sp, lsr #32
    4618:	1e00002d 	cdpne	0, 0, cr0, cr0, cr13, {1}
    461c:	00000690 	muleq	r0, r0, r6
    4620:	9c500f00 	mrrcls	15, 0, r0, r0, cr0	; <UNPREDICTABLE>
    4624:	08bc0000 	ldmeq	ip!, {}	; <UNPREDICTABLE>
    4628:	05dc0000 	ldrbeq	r0, [ip]
    462c:	01100000 	tsteq	r0, r0
    4630:	78030550 	stmdavc	r3, {r4, r6, r8, sl}
    4634:	100000a1 	andne	r0, r0, r1, lsr #1
    4638:	03055101 	movweq	r5, #20737	; 0x5101
    463c:	0000a840 	andeq	sl, r0, r0, asr #16
    4640:	05520110 	ldrbeq	r0, [r2, #-272]	; 0xfffffef0
    4644:	00aa0003 	adceq	r0, sl, r3
    4648:	53011000 	movwpl	r1, #4096	; 0x1000
    464c:	10480802 	subne	r0, r8, r2, lsl #16
    4650:	05007d02 	streq	r7, [r0, #-3330]	; 0xfffff2fe
    4654:	00a85003 	adceq	r5, r8, r3
    4658:	54110000 	ldrpl	r0, [r1], #-0
    465c:	c800009c 	stmdagt	r0, {r2, r3, r4, r7}
    4660:	0f000008 	svceq	0x00000008
    4664:	00009c74 	andeq	r9, r0, r4, ror ip
    4668:	000008bc 			; <UNDEFINED> instruction: 0x000008bc
    466c:	00000621 	andeq	r0, r0, r1, lsr #12
    4670:	05500110 	ldrbeq	r0, [r0, #-272]	; 0xfffffef0
    4674:	00a8cc03 	adceq	ip, r8, r3, lsl #24
    4678:	51011000 	mrspl	r1, (UNDEF: 1)
    467c:	a8400305 	stmdage	r0, {r0, r2, r8, r9}^
    4680:	01100000 	tsteq	r0, r0
    4684:	00030552 	andeq	r0, r3, r2, asr r5
    4688:	100000aa 	andne	r0, r0, sl, lsr #1
    468c:	08025301 	stmdaeq	r2, {r0, r8, r9, ip, lr}
    4690:	7d02104e 	stcvc	0, cr1, [r2, #-312]	; 0xfffffec8
    4694:	01f30800 	mvnseq	r0, r0, lsl #16
    4698:	09072350 	stmdbeq	r7, {r4, r6, r8, r9, sp}
    469c:	11001af8 	strdne	r1, [r0, -r8]
    46a0:	00009c78 	andeq	r9, r0, r8, ror ip
    46a4:	000008c8 	andeq	r0, r0, r8, asr #17
    46a8:	0a1b0c00 	beq	6c76b0 <__bss_end__+0x6bc830>
    46ac:	3c010000 	stccc	0, cr0, [r1], {-0}
    46b0:	009ba006 	addseq	sl, fp, r6
    46b4:	00005800 	andeq	r5, r0, r0, lsl #16
    46b8:	cf9c0100 	svcgt	0x009c0100
    46bc:	0a000006 	beq	46dc <__code_start__-0x3924>
    46c0:	000003b4 			; <UNDEFINED> instruction: 0x000003b4
    46c4:	25103d01 	ldrcs	r3, [r0, #-3329]	; 0xfffff2ff
    46c8:	05000000 	streq	r0, [r0, #-0]
    46cc:	00ae7403 	adceq	r7, lr, r3, lsl #8
    46d0:	00b90e00 	adcseq	r0, r9, r0, lsl #28
    46d4:	06df0000 	ldrbeq	r0, [pc], r0
    46d8:	03050000 	movweq	r0, #20480	; 0x5000
    46dc:	0000a9f0 	strdeq	sl, [r0], -r0
    46e0:	2c040707 	stccs	7, cr0, [r4], {7}
    46e4:	01000000 	mrseq	r0, (UNDEF: 0)
    46e8:	067a0a42 	ldrbteq	r0, [sl], -r2, asr #20
    46ec:	e2080000 	and	r0, r8, #0, 0
    46f0:	00000009 	andeq	r0, r0, r9
    46f4:	00001000 	andeq	r1, r0, r0
    46f8:	009bcc0f 	addseq	ip, fp, pc, lsl #24
    46fc:	0006e400 	andeq	lr, r6, r0, lsl #8
    4700:	00069600 	andeq	r9, r6, r0, lsl #12
    4704:	50011000 	andpl	r1, r1, r0
    4708:	24404003 	strbcs	r4, [r0], #-3
    470c:	03510110 	cmpeq	r1, #4
    4710:	00244840 	eoreq	r4, r4, r0, asr #16
    4714:	009be40f 	addseq	lr, fp, pc, lsl #8
    4718:	0008bc00 	andeq	fp, r8, r0, lsl #24
    471c:	0006c500 	andeq	ip, r6, r0, lsl #10
    4720:	50011000 	andpl	r1, r1, r0
    4724:	a89c0305 	ldmge	ip, {r0, r2, r8, r9}
    4728:	01100000 	tsteq	r0, r0
    472c:	40030551 	andmi	r0, r3, r1, asr r5
    4730:	100000a8 	andne	r0, r0, r8, lsr #1
    4734:	03055201 	movweq	r5, #20993	; 0x5201
    4738:	0000a9f0 	strdeq	sl, [r0], -r0
    473c:	02530110 	subseq	r0, r3, #4
    4740:	11004008 	tstne	r0, r8
    4744:	00009be8 	andeq	r9, r0, r8, ror #23
    4748:	000008c8 	andeq	r0, r0, r8, asr #17
    474c:	007e1200 	rsbseq	r1, lr, r0, lsl #4
    4750:	06df0000 	ldrbeq	r0, [pc], r0
    4754:	2c130000 	ldccs	0, cr0, [r3], {-0}
    4758:	0c000000 	stceq	0, cr0, [r0], {-0}
    475c:	06cf0500 	strbeq	r0, [pc], r0, lsl #10
    4760:	580c0000 	stmdapl	ip, {}	; <UNPREDICTABLE>
    4764:	01000004 	tsteq	r0, r4
    4768:	9b04062d 	blls	106024 <__bss_end__+0xfb1a4>
    476c:	009c0000 	addseq	r0, ip, r0
    4770:	9c010000 	stcls	0, cr0, [r1], {-0}
    4774:	000007c8 	andeq	r0, r0, r8, asr #15
    4778:	0009a517 	andeq	sl, r9, r7, lsl r5
    477c:	262d0100 	strtcs	r0, [sp], -r0, lsl #2
    4780:	0000002c 	andeq	r0, r0, ip, lsr #32
    4784:	00002db3 			; <UNDEFINED> instruction: 0x00002db3
    4788:	00002da5 	andeq	r2, r0, r5, lsr #27
    478c:	00099a17 	andeq	r9, r9, r7, lsl sl
    4790:	362d0100 	strtcc	r0, [sp], -r0, lsl #2
    4794:	0000002c 	andeq	r0, r0, ip, lsr #32
    4798:	00002e1b 	andeq	r2, r0, fp, lsl lr
    479c:	00002e13 	andeq	r2, r0, r3, lsl lr
    47a0:	0009a61d 	andeq	sl, r9, sp, lsl r6
    47a4:	0b2e0100 	bleq	b84bac <__bss_end__+0xb79d2c>
    47a8:	000000c2 	andeq	r0, r0, r2, asr #1
    47ac:	00002e63 	andeq	r2, r0, r3, ror #28
    47b0:	00002e55 	andeq	r2, r0, r5, asr lr
    47b4:	0000b90e 	andeq	fp, r0, lr, lsl #18
    47b8:	0007d800 	andeq	sp, r7, r0, lsl #16
    47bc:	d8030500 	stmdale	r3, {r8, sl}
    47c0:	0f0000a9 	svceq	0x000000a9
    47c4:	00009b5c 	andeq	r9, r0, ip, asr fp
    47c8:	000008bc 			; <UNDEFINED> instruction: 0x000008bc
    47cc:	0000077e 	andeq	r0, r0, lr, ror r7
    47d0:	05500110 	ldrbeq	r0, [r0, #-272]	; 0xfffffef0
    47d4:	00a17803 	adceq	r7, r1, r3, lsl #16
    47d8:	51011000 	mrspl	r1, (UNDEF: 1)
    47dc:	a8400305 	stmdage	r0, {r0, r2, r8, r9}^
    47e0:	01100000 	tsteq	r0, r0
    47e4:	d8030552 	stmdale	r3, {r1, r4, r6, r8, sl}
    47e8:	100000a9 	andne	r0, r0, r9, lsr #1
    47ec:	08025301 	stmdaeq	r2, {r0, r8, r9, ip, lr}
    47f0:	7d021030 	stcvc	0, cr1, [r2, #-192]	; 0xffffff40
    47f4:	4c030500 	cfstr32mi	mvfx0, [r3], {-0}
    47f8:	000000a8 	andeq	r0, r0, r8, lsr #1
    47fc:	009b6011 	addseq	r6, fp, r1, lsl r0
    4800:	0008c800 	andeq	ip, r8, r0, lsl #16
    4804:	9b840f00 	blls	fe10840c <__bss_end__+0xfe0fd58c>
    4808:	08bc0000 	ldmeq	ip!, {}	; <UNPREDICTABLE>
    480c:	07be0000 	ldreq	r0, [lr, r0]!
    4810:	01100000 	tsteq	r0, r0
    4814:	58030550 	stmdapl	r3, {r4, r6, r8, sl}
    4818:	100000a8 	andne	r0, r0, r8, lsr #1
    481c:	03055101 	movweq	r5, #20737	; 0x5101
    4820:	0000a840 	andeq	sl, r0, r0, asr #16
    4824:	05520110 	ldrbeq	r0, [r2, #-272]	; 0xfffffef0
    4828:	00a9d803 	adceq	sp, r9, r3, lsl #16
    482c:	53011000 	movwpl	r1, #4096	; 0x1000
    4830:	10340802 	eorsne	r0, r4, r2, lsl #16
    4834:	03007d02 	movweq	r7, #3330	; 0xd02
    4838:	005001f3 	ldrsheq	r0, [r0], #-19	; 0xffffffed
    483c:	009b8811 	addseq	r8, fp, r1, lsl r8
    4840:	0008c800 	andeq	ip, r8, r0, lsl #16
    4844:	7e120000 	cdpvc	0, 1, cr0, cr2, cr0, {0}
    4848:	d8000000 	stmdale	r0, {}	; <UNPREDICTABLE>
    484c:	13000007 	movwne	r0, #7
    4850:	0000002c 	andeq	r0, r0, ip, lsr #32
    4854:	c8050016 	stmdagt	r5, {r1, r2, r4}
    4858:	1f000007 	svcne	0x00000007
    485c:	00000a33 	andeq	r0, r0, r3, lsr sl
    4860:	8a072a01 	bhi	1cf06c <__bss_end__+0x1c41ec>
    4864:	f4000000 	vst4.8	{d0-d3}, [r0], r0
    4868:	1000009a 	mulne	r0, sl, r0
    486c:	01000000 	mrseq	r0, (UNDEF: 0)
    4870:	09871f9c 	stmibeq	r7, {r2, r3, r4, r7, r8, r9, sl, fp, ip}
    4874:	29010000 	stmdbcs	r1, {}	; <UNPREDICTABLE>
    4878:	00008a07 	andeq	r8, r0, r7, lsl #20
    487c:	009ae400 	addseq	lr, sl, r0, lsl #8
    4880:	00001000 	andeq	r1, r0, r0
    4884:	1f9c0100 	svcne	0x009c0100
    4888:	000009e8 	andeq	r0, r0, r8, ror #19
    488c:	8a072801 	bhi	1ce898 <__bss_end__+0x1c3a18>
    4890:	d4000000 	strle	r0, [r0], #-0
    4894:	1000009a 	mulne	r0, sl, r0
    4898:	01000000 	mrseq	r0, (UNDEF: 0)
    489c:	09be209c 	ldmibeq	lr!, {r2, r3, r4, r7, sp}
    48a0:	10010000 	andne	r0, r1, r0
    48a4:	00002c18 	andeq	r2, r0, r8, lsl ip
    48a8:	08540300 	ldmdaeq	r4, {r8, r9}^
    48ac:	78210000 	stmdavc	r1!, {}	; <UNPREDICTABLE>
    48b0:	29100100 	ldmdbcs	r0, {r8}
    48b4:	0000002c 	andeq	r0, r0, ip, lsr #32
    48b8:	01006e21 	tsteq	r0, r1, lsr #28
    48bc:	002c3510 	eoreq	r3, ip, r0, lsl r5
    48c0:	b90e0000 	stmdblt	lr, {}	; <UNPREDICTABLE>
    48c4:	18000000 	stmdane	r0, {}	; <UNPREDICTABLE>
    48c8:	05000005 	streq	r0, [r0, #-5]
    48cc:	00aa2803 	adceq	r2, sl, r3, lsl #16
    48d0:	09200000 	stmdbeq	r0!, {}	; <UNPREDICTABLE>
    48d4:	0100000a 	tsteq	r0, sl
    48d8:	002c180d 	eoreq	r1, ip, sp, lsl #16
    48dc:	70030000 	andvc	r0, r3, r0
    48e0:	21000008 	tstcs	r0, r8
    48e4:	0d010078 	stceq	0, cr0, [r1, #-480]	; 0xfffffe20
    48e8:	00002c29 	andeq	r2, r0, r9, lsr #24
    48ec:	28200000 	stmdacs	r0!, {}	; <UNPREDICTABLE>
    48f0:	0100000a 	tsteq	r0, sl
    48f4:	002c1807 	eoreq	r1, ip, r7, lsl #16
    48f8:	96030000 	strls	r0, [r3], -r0
    48fc:	21000008 	tstcs	r0, r8
    4900:	07010078 	smlsdxeq	r1, r8, r0, r0
    4904:	00002c2c 	andeq	r2, r0, ip, lsr #24
    4908:	006e2100 	rsbeq	r2, lr, r0, lsl #2
    490c:	2c380701 	ldccs	7, cr0, [r8], #-4
    4910:	00000000 	andeq	r0, r0, r0
    4914:	0009da20 	andeq	sp, r9, r0, lsr #20
    4918:	18040100 	stmdane	r4, {r8}
    491c:	0000005d 	andeq	r0, r0, sp, asr r0
    4920:	0008bc03 	andeq	fp, r8, r3, lsl #24
    4924:	00782100 	rsbseq	r2, r8, r0, lsl #2
    4928:	5d290401 	cfstrspl	mvf0, [r9, #-4]!
    492c:	21000000 	mrscs	r0, (UNDEF: 0)
    4930:	04010079 	streq	r0, [r1], #-121	; 0xffffff87
    4934:	00005d35 	andeq	r5, r0, r5, lsr sp
    4938:	e9220000 	stmdb	r2!, {}	; <UNPREDICTABLE>
    493c:	e9000004 	stmdb	r0, {r2}
    4940:	02000004 	andeq	r0, r0, #4, 0
    4944:	d0220628 	eorle	r0, r2, r8, lsr #12
    4948:	d0000000 	andle	r0, r0, r0
    494c:	02000000 	andeq	r0, r0, #0, 0
    4950:	4422066e 	strtmi	r0, [r2], #-1646	; 0xfffff992
    4954:	4400000a 	strmi	r0, [r0], #-10
    4958:	0200000a 	andeq	r0, r0, #10, 0
    495c:	6d22061d 	stcvs	6, cr0, [r2, #-116]!	; 0xffffff8c
    4960:	6d000002 	stcvs	0, cr0, [r0, #-8]
    4964:	02000002 	andeq	r0, r0, #2, 0
    4968:	730007f2 	movwvc	r0, #2034	; 0x7f2
    496c:	04000006 	streq	r0, [r0], #-6
    4970:	00196a00 	andseq	r6, r9, r0, lsl #20
    4974:	a8010400 	stmdage	r1, {sl}
    4978:	0c000001 	stceq	0, cr0, [r0], {1}
    497c:	00000a96 	muleq	r0, r6, sl
    4980:	000004bf 			; <UNDEFINED> instruction: 0x000004bf
    4984:	00009e84 	andeq	r9, r0, r4, lsl #29
    4988:	00000198 	muleq	r0, r8, r1
    498c:	00002485 	andeq	r2, r0, r5, lsl #9
    4990:	4a070802 	bmi	1c69a0 <__bss_end__+0x1bbb20>
    4994:	02000001 	andeq	r0, r0, #1, 0
    4998:	01540704 	cmpeq	r4, r4, lsl #14
    499c:	04030000 	streq	r0, [r3], #-0
    49a0:	746e6905 	strbtvc	r6, [lr], #-2309	; 0xfffff6fb
    49a4:	002c0400 	eoreq	r0, ip, r0, lsl #8
    49a8:	01020000 	mrseq	r0, (UNDEF: 2)
    49ac:	0000ec06 	andeq	lr, r0, r6, lsl #24
    49b0:	05020200 	streq	r0, [r2, #-512]	; 0xfffffe00
    49b4:	00000049 	andeq	r0, r0, r9, asr #32
    49b8:	9f050402 	svcls	0x00050402
    49bc:	02000000 	andeq	r0, r0, #0, 0
    49c0:	009a0508 	addseq	r0, sl, r8, lsl #10
    49c4:	01020000 	mrseq	r0, (UNDEF: 2)
    49c8:	0000ea08 	andeq	lr, r0, r8, lsl #20
    49cc:	07020200 	streq	r0, [r2, -r0, lsl #4]
    49d0:	0000017b 	andeq	r0, r0, fp, ror r1
    49d4:	00016105 	andeq	r6, r1, r5, lsl #2
    49d8:	19340300 	ldmdbne	r4!, {r8, r9}
    49dc:	00000075 	andeq	r0, r0, r5, ror r0
    49e0:	4f070402 	svcmi	0x00070402
    49e4:	06000001 	streq	r0, [r0], -r1
    49e8:	00000033 	andeq	r0, r0, r3, lsr r0
    49ec:	0000008b 	andeq	r0, r0, fp, lsl #1
    49f0:	00003307 	andeq	r3, r0, r7, lsl #6
    49f4:	53080000 	movwpl	r0, #32768	; 0x8000
    49f8:	02000000 	andeq	r0, r0, #0, 0
    49fc:	00970e1c 	addseq	r0, r7, ip, lsl lr
    4a00:	04090000 	streq	r0, [r9], #-0
    4a04:	0000007c 	andeq	r0, r0, ip, ror r0
    4a08:	00003306 	andeq	r3, r0, r6, lsl #6
    4a0c:	0000ac00 	andeq	sl, r0, r0, lsl #24
    4a10:	00ac0700 	adceq	r0, ip, r0, lsl #14
    4a14:	09000000 	stmdbeq	r0, {}	; <UNPREDICTABLE>
    4a18:	0000b904 	andeq	fp, r0, r4, lsl #18
    4a1c:	08010200 	stmdaeq	r1, {r9}
    4a20:	000000f3 	strdeq	r0, [r0], -r3
    4a24:	0000b204 	andeq	fp, r0, r4, lsl #4
    4a28:	05270800 	streq	r0, [r7, #-2048]!	; 0xfffff800
    4a2c:	21020000 	mrscs	r0, (UNDEF: 2)
    4a30:	0000ca0e 	andeq	ip, r0, lr, lsl #20
    4a34:	9d040900 	vstrls.16	s0, [r4, #-0]	; <UNPREDICTABLE>
    4a38:	0a000000 	beq	4a40 <__code_start__-0x35c0>
    4a3c:	005b0107 	subseq	r0, fp, r7, lsl #2
    4a40:	0c040000 	stceq	0, cr0, [r4], {-0}
    4a44:	00010f0e 	andeq	r0, r1, lr, lsl #30
    4a48:	095f0b00 	ldmdbeq	pc, {r8, r9, fp}^	; <UNPREDICTABLE>
    4a4c:	0b000000 	bleq	4a54 <__code_start__-0x35ac>
    4a50:	00000797 	muleq	r0, r7, r7
    4a54:	07da0b01 	ldrbeq	r0, [sl, r1, lsl #22]
    4a58:	0b040000 	bleq	104a60 <__bss_end__+0xf9be0>
    4a5c:	000007e9 	andeq	r0, r0, r9, ror #15
    4a60:	07f80b05 	ldrbeq	r0, [r8, r5, lsl #22]!
    4a64:	0b060000 	bleq	184a6c <__bss_end__+0x179bec>
    4a68:	00000807 	andeq	r0, r0, r7, lsl #16
    4a6c:	09280b07 	stmdbeq	r8!, {r0, r1, r2, r8, r9, fp}
    4a70:	0b030000 	bleq	c4a78 <__bss_end__+0xb9bf8>
    4a74:	00000816 	andeq	r0, r0, r6, lsl r8
    4a78:	cf050002 	svcgt	0x00050002
    4a7c:	0400000a 	streq	r0, [r0], #-10
    4a80:	00d00315 	sbcseq	r0, r0, r5, lsl r3
    4a84:	6d0c0000 	stcvs	0, cr0, [ip, #-0]
    4a88:	0100000a 	tsteq	r0, sl
    4a8c:	003a171d 	eorseq	r1, sl, sp, lsl r7
    4a90:	001c0000 	andseq	r0, ip, r0
    4a94:	630c2020 	movwvs	r2, #49184	; 0xc020
    4a98:	0100000a 	tsteq	r0, sl
    4a9c:	003a171e 	eorseq	r1, sl, lr, lsl r7
    4aa0:	00280000 	eoreq	r0, r8, r0
    4aa4:	db0c2020 	blle	30cb2c <__bss_end__+0x301cac>
    4aa8:	0100000a 	tsteq	r0, sl
    4aac:	003a171f 	eorseq	r1, sl, pc, lsl r7
    4ab0:	00340000 	eorseq	r0, r4, r0
    4ab4:	8c0d2020 	stchi	0, cr2, [sp], {32}
    4ab8:	0100000a 	tsteq	r0, sl
    4abc:	00330551 	eorseq	r0, r3, r1, asr r5
    4ac0:	9ff40000 	svcls	0x00f40000
    4ac4:	00280000 	eoreq	r0, r8, r0
    4ac8:	9c010000 	stcls	0, cr0, [r1], {-0}
    4acc:	000001ba 			; <UNDEFINED> instruction: 0x000001ba
    4ad0:	6e69700e 	cdpvs	0, 6, cr7, cr9, cr14, {0}
    4ad4:	18510100 	ldmdane	r1, {r8}^
    4ad8:	0000002c 	andeq	r0, r0, ip, lsr #32
    4adc:	00002ec9 	andeq	r2, r0, r9, asr #29
    4ae0:	00002ec3 	andeq	r2, r0, r3, asr #29
    4ae4:	000ae50f 	andeq	lr, sl, pc, lsl #10
    4ae8:	0e520100 	rdfeqs	f0, f2, f0
    4aec:	0000002c 	andeq	r0, r0, ip, lsr #32
    4af0:	00002eff 	strdeq	r2, [r0], -pc	; <UNPREDICTABLE>
    4af4:	00002ef5 	strdeq	r2, [r0], -r5
    4af8:	66666f10 	uqadd16vs	r6, r6, r0
    4afc:	0e530100 	rdfeqs	f0, f3, f0
    4b00:	0000002c 	andeq	r0, r0, ip, lsr #32
    4b04:	00002f6d 	andeq	r2, r0, sp, ror #30
    4b08:	00002f67 	andeq	r2, r0, r7, ror #30
    4b0c:	00a00811 	adceq	r0, r0, r1, lsl r8
    4b10:	00065e00 	andeq	r5, r6, r0, lsl #28
    4b14:	50011200 	andpl	r1, r1, r0, lsl #4
    4b18:	3500740a 	strcc	r7, [r0, #-1034]	; 0xfffffbf6
    4b1c:	80b42325 	adcshi	r2, r4, r5, lsr #6
    4b20:	00028180 	andeq	r8, r2, r0, lsl #3
    4b24:	0a771300 	beq	1dc972c <__bss_end__+0x1dbe8ac>
    4b28:	4a010000 	bmi	44b30 <__bss_end__+0x39cb0>
    4b2c:	009fc406 	addseq	ip, pc, r6, lsl #8
    4b30:	00003000 	andeq	r3, r0, r0
    4b34:	759c0100 	ldrvc	r0, [ip, #256]	; 0x100
    4b38:	0e000002 	cdpeq	0, 0, cr0, cr0, cr2, {0}
    4b3c:	006e6970 	rsbeq	r6, lr, r0, ror r9
    4b40:	2c1a4a01 			; <UNDEFINED> instruction: 0x2c1a4a01
    4b44:	aa000000 	bge	4b4c <__code_start__-0x34b4>
    4b48:	9e00002f 	cdpls	0, 0, cr0, cr0, cr15, {1}
    4b4c:	0e00002f 	cdpeq	0, 0, cr0, cr0, cr15, {1}
    4b50:	4a010076 	bmi	44d30 <__bss_end__+0x39eb0>
    4b54:	00002c28 	andeq	r2, r0, r8, lsr #24
    4b58:	002ffe00 	eoreq	pc, pc, r0, lsl #28
    4b5c:	002ffa00 	eoreq	pc, pc, r0, lsl #20
    4b60:	038d1400 	orreq	r1, sp, #0, 8
    4b64:	9fd40000 	svcls	0x00d40000
    4b68:	60010000 	andvs	r0, r1, r0
    4b6c:	01000007 	tsteq	r0, r7
    4b70:	0235094c 	eorseq	r0, r5, #76, 18	; 0x130000
    4b74:	9a150000 	bls	544b7c <__bss_end__+0x539cfc>
    4b78:	25000003 	strcs	r0, [r0, #-3]
    4b7c:	1f000030 	svcne	0x00000030
    4b80:	16000030 			; <UNDEFINED> instruction: 0x16000030
    4b84:	00009fe0 	andeq	r9, r0, r0, ror #31
    4b88:	0000066a 	andeq	r0, r0, sl, ror #12
    4b8c:	05500112 	ldrbeq	r0, [r0, #-274]	; 0xfffffeee
    4b90:	20001c0c 	andcs	r1, r0, ip, lsl #24
    4b94:	51011220 	tstpl	r1, r0, lsr #4
    4b98:	01f33105 	mvnseq	r3, r5, lsl #2
    4b9c:	00002450 	andeq	r2, r0, r0, asr r4
    4ba0:	00037317 	andeq	r7, r3, r7, lsl r3
    4ba4:	009fe000 	addseq	lr, pc, r0
    4ba8:	9fe00200 	svcls	0x00e00200
    4bac:	00140000 	andseq	r0, r4, r0
    4bb0:	4e010000 	cdpmi	0, 0, cr0, cr1, cr0, {0}
    4bb4:	03801509 	orreq	r1, r0, #37748736	; 0x2400000
    4bb8:	30570000 	subscc	r0, r7, r0
    4bbc:	30510000 	subscc	r0, r1, r0
    4bc0:	ec160000 	ldc	0, cr0, [r6], {-0}
    4bc4:	6a00009f 	bvs	4e48 <__code_start__-0x31b8>
    4bc8:	12000006 	andne	r0, r0, #6, 0
    4bcc:	0c055001 	stceq	0, cr5, [r5], {1}
    4bd0:	20200028 	eorcs	r0, r0, r8, lsr #32
    4bd4:	05510112 	ldrbeq	r0, [r1, #-274]	; 0xfffffeee
    4bd8:	5001f331 	andpl	pc, r1, r1, lsr r3	; <UNPREDICTABLE>
    4bdc:	00000024 	andeq	r0, r0, r4, lsr #32
    4be0:	000aa313 	andeq	sl, sl, r3, lsl r3
    4be4:	06450100 	strbeq	r0, [r5], -r0, lsl #2
    4be8:	00009f6c 	andeq	r9, r0, ip, ror #30
    4bec:	00000058 	andeq	r0, r0, r8, asr r0
    4bf0:	03739c01 	cmneq	r3, #256	; 0x100
    4bf4:	700e0000 	andvc	r0, lr, r0
    4bf8:	01006e69 	tsteq	r0, r9, ror #28
    4bfc:	002c1e45 	eoreq	r1, ip, r5, asr #28
    4c00:	30890000 	addcc	r0, r9, r0
    4c04:	30830000 	addcc	r0, r3, r0
    4c08:	a5180000 	ldrge	r0, [r8, #-0]
    4c0c:	6c000004 	stcvs	0, cr0, [r0], {4}
    4c10:	0200009f 	andeq	r0, r0, #159, 0	; 0x9f
    4c14:	00000720 	andeq	r0, r0, r0, lsr #14
    4c18:	19054601 	stmdbne	r5, {r0, r9, sl, lr}
    4c1c:	000004be 			; <UNDEFINED> instruction: 0x000004be
    4c20:	04b21500 	ldrteq	r1, [r2], #1280	; 0x500
    4c24:	30bb0000 	adcscc	r0, fp, r0
    4c28:	30b50000 	adcscc	r0, r5, r0
    4c2c:	201a0000 	andscs	r0, sl, r0
    4c30:	1b000007 	blne	4c54 <__code_start__-0x33ac>
    4c34:	000004ca 	andeq	r0, r0, sl, asr #9
    4c38:	0004d61b 	andeq	sp, r4, fp, lsl r6
    4c3c:	04e01b00 	strbteq	r1, [r0], #2816	; 0xb00
    4c40:	a5180000 	ldrge	r0, [r8, #-0]
    4c44:	74000004 	strvc	r0, [r0], #-4
    4c48:	0000009f 	muleq	r0, pc, r0	; <UNPREDICTABLE>
    4c4c:	00000740 	andeq	r0, r0, r0, asr #14
    4c50:	19062801 	stmdbne	r6, {r0, fp, sp}
    4c54:	000004be 			; <UNDEFINED> instruction: 0x000004be
    4c58:	04b21500 	ldrteq	r1, [r2], #1280	; 0x500
    4c5c:	30ed0000 	rsccc	r0, sp, r0
    4c60:	30e70000 	rsccc	r0, r7, r0
    4c64:	401a0000 	andsmi	r0, sl, r0
    4c68:	1c000007 	stcne	0, cr0, [r0], {7}
    4c6c:	000004ca 	andeq	r0, r0, sl, asr #9
    4c70:	0000311f 	andeq	r3, r0, pc, lsl r1
    4c74:	00003119 	andeq	r3, r0, r9, lsl r1
    4c78:	0004d61c 	andeq	sp, r4, ip, lsl r6
    4c7c:	00316100 	eorseq	r6, r1, r0, lsl #2
    4c80:	00315b00 	eorseq	r5, r1, r0, lsl #22
    4c84:	04e01c00 	strbteq	r1, [r0], #3072	; 0xc00
    4c88:	31b70000 			; <UNDEFINED> instruction: 0x31b70000
    4c8c:	31af0000 			; <UNDEFINED> instruction: 0x31af0000
    4c90:	9c1d0000 	ldcls	0, cr0, [sp], {-0}
    4c94:	5e00009f 	mcrpl	0, 0, r0, cr0, cr15, {4}
    4c98:	3b000006 	blcc	4cb8 <__code_start__-0x3348>
    4c9c:	12000003 	andne	r0, r0, #3, 0
    4ca0:	76025001 	strvc	r5, [r2], -r1
    4ca4:	c0160000 	andsgt	r0, r6, r0
    4ca8:	6a00009f 	bvs	4f2c <__code_start__-0x30d4>
    4cac:	12000006 	andne	r0, r0, #6, 0
    4cb0:	f3255001 	vhadd.u32	d5, d5, d1
    4cb4:	2cf75001 	ldclcs	0, cr5, [r7], #4
    4cb8:	25f425f7 	ldrbcs	r2, [r4, #1527]!	; 0x5f7
    4cbc:	cccccd08 	stclgt	13, cr12, [ip], {8}
    4cc0:	000000cc 	andeq	r0, r0, ip, asr #1
    4cc4:	20081e00 	andcs	r1, r8, r0, lsl #28
    4cc8:	f72525f7 			; <UNDEFINED> instruction: 0xf72525f7
    4ccc:	3300f72c 	movwcc	pc, #1836	; 0x72c	; <UNPREDICTABLE>
    4cd0:	80802325 	addhi	r2, r0, r5, lsr #6
    4cd4:	243240a0 	ldrtcs	r4, [r2], #-160	; 0xffffff60
    4cd8:	00000000 	andeq	r0, r0, r0
    4cdc:	b21e0000 	andslt	r0, lr, #0, 0
    4ce0:	0100000a 	tsteq	r0, sl
    4ce4:	8d030d40 	stchi	13, cr0, [r3, #-256]	; 0xffffff00
    4ce8:	1f000003 	svcne	0x00000003
    4cec:	006e6970 	rsbeq	r6, lr, r0, ror r9
    4cf0:	2c234001 	stccs	0, cr4, [r3], #-4
    4cf4:	00000000 	andeq	r0, r0, r0
    4cf8:	000aea1e 	andeq	lr, sl, lr, lsl sl
    4cfc:	0d3b0100 	ldfeqs	f0, [fp, #-0]
    4d00:	0003a703 	andeq	sl, r3, r3, lsl #14
    4d04:	69701f00 	ldmdbvs	r0!, {r8, r9, sl, fp, ip}^
    4d08:	3b01006e 	blcc	44ec8 <__bss_end__+0x3a048>
    4d0c:	00002c22 	andeq	r2, r0, r2, lsr #24
    4d10:	bf130000 	svclt	0x00130000
    4d14:	0100000a 	tsteq	r0, sl
    4d18:	9ee40636 	mcrls	6, 7, r0, cr4, cr6, {1}
    4d1c:	00580000 	subseq	r0, r8, r0
    4d20:	9c010000 	stcls	0, cr0, [r1], {-0}
    4d24:	000004a5 	andeq	r0, r0, r5, lsr #9
    4d28:	6e69700e 	cdpvs	0, 6, cr7, cr9, cr14, {0}
    4d2c:	1f360100 	svcne	0x00360100
    4d30:	0000002c 	andeq	r0, r0, ip, lsr #32
    4d34:	00003215 	andeq	r3, r0, r5, lsl r2
    4d38:	00003211 	andeq	r3, r0, r1, lsl r2
    4d3c:	0004a518 	andeq	sl, r4, r8, lsl r5
    4d40:	009ee400 	addseq	lr, lr, r0, lsl #8
    4d44:	06e00200 	strbteq	r0, [r0], r0, lsl #4
    4d48:	37010000 	strcc	r0, [r1, -r0]
    4d4c:	04be1905 	ldrteq	r1, [lr], #2309	; 0x905
    4d50:	15010000 	strne	r0, [r1, #-0]
    4d54:	000004b2 			; <UNDEFINED> instruction: 0x000004b2
    4d58:	0000323a 	andeq	r3, r0, sl, lsr r2
    4d5c:	00003236 	andeq	r3, r0, r6, lsr r2
    4d60:	0006e01a 	andeq	lr, r6, sl, lsl r0
    4d64:	04ca1b00 	strbeq	r1, [sl], #2816	; 0xb00
    4d68:	d61b0000 	ldrle	r0, [fp], -r0
    4d6c:	1b000004 	blne	4d84 <__code_start__-0x327c>
    4d70:	000004e0 	andeq	r0, r0, r0, ror #9
    4d74:	0004a518 	andeq	sl, r4, r8, lsl r5
    4d78:	009eec00 	addseq	lr, lr, r0, lsl #24
    4d7c:	07000000 	streq	r0, [r0, -r0]
    4d80:	28010000 	stmdacs	r1, {}	; <UNPREDICTABLE>
    4d84:	04be1906 	ldrteq	r1, [lr], #2310	; 0x906
    4d88:	15010000 	strne	r0, [r1, #-0]
    4d8c:	000004b2 			; <UNDEFINED> instruction: 0x000004b2
    4d90:	0000325f 	andeq	r3, r0, pc, asr r2
    4d94:	0000325b 	andeq	r3, r0, fp, asr r2
    4d98:	0007001a 	andeq	r0, r7, sl, lsl r0
    4d9c:	04ca1c00 	strbeq	r1, [sl], #3072	; 0xc00
    4da0:	32840000 	addcc	r0, r4, #0, 0
    4da4:	32800000 	addcc	r0, r0, #0, 0
    4da8:	d61c0000 	ldrle	r0, [ip], -r0
    4dac:	d0000004 	andle	r0, r0, r4
    4db0:	ca000032 	bgt	4e80 <__code_start__-0x3180>
    4db4:	1c000032 	stcne	0, cr0, [r0], {50}	; 0x32
    4db8:	000004e0 	andeq	r0, r0, r0, ror #9
    4dbc:	00003326 	andeq	r3, r0, r6, lsr #6
    4dc0:	0000331e 	andeq	r3, r0, lr, lsl r3
    4dc4:	009f181d 	addseq	r1, pc, sp, lsl r8	; <UNPREDICTABLE>
    4dc8:	00065e00 	andeq	r5, r6, r0, lsl #28
    4dcc:	00046d00 	andeq	r6, r4, r0, lsl #26
    4dd0:	50011200 	andpl	r1, r1, r0, lsl #4
    4dd4:	00007502 	andeq	r7, r0, r2, lsl #10
    4dd8:	009f3816 	addseq	r3, pc, r6, lsl r8	; <UNPREDICTABLE>
    4ddc:	00066a00 	andeq	r6, r6, r0, lsl #20
    4de0:	50011200 	andpl	r1, r1, r0, lsl #4
    4de4:	5001f325 	andpl	pc, r1, r5, lsr #6
    4de8:	25f72cf7 	ldrbcs	r2, [r7, #3319]!	; 0xcf7
    4dec:	cd0825f4 	cfstr32gt	mvfx2, [r8, #-976]	; 0xfffffc30
    4df0:	00cccccc 	sbceq	ip, ip, ip, asr #25
    4df4:	1e000000 	cdpne	0, 0, cr0, cr0, cr0, {0}
    4df8:	25f72008 	ldrbcs	r2, [r7, #8]!
    4dfc:	f72cf725 			; <UNDEFINED> instruction: 0xf72cf725
    4e00:	23253300 			; <UNDEFINED> instruction: 0x23253300
    4e04:	40a08080 	adcmi	r8, r0, r0, lsl #1
    4e08:	00002432 	andeq	r2, r0, r2, lsr r4
    4e0c:	00000000 	andeq	r0, r0, r0
    4e10:	00096f1e 	andeq	r6, r9, lr, lsl pc
    4e14:	06280100 	strteq	r0, [r8], -r0, lsl #2
    4e18:	0004eb01 	andeq	lr, r4, r1, lsl #22
    4e1c:	69701f00 	ldmdbvs	r0!, {r8, r9, sl, fp, ip}^
    4e20:	2801006e 	stmdacs	r1, {r1, r2, r3, r5, r6}
    4e24:	00002c21 	andeq	r2, r0, r1, lsr #24
    4e28:	00952000 	addseq	r2, r5, r0
    4e2c:	28010000 	stmdacs	r1, {}	; <UNPREDICTABLE>
    4e30:	00010f32 	andeq	r0, r1, r2, lsr pc
    4e34:	666f2100 	strbtvs	r2, [pc], -r0, lsl #2
    4e38:	2d010066 	stccs	0, cr0, [r1, #-408]	; 0xfffffe68
    4e3c:	00002c0e 	andeq	r2, r0, lr, lsl #24
    4e40:	00672100 	rsbeq	r2, r7, r0, lsl #2
    4e44:	2c0e2e01 	stccs	14, cr2, [lr], {1}
    4e48:	21000000 	mrscs	r0, (UNDEF: 0)
    4e4c:	30010076 	andcc	r0, r1, r6, ror r0
    4e50:	00002c0e 	andeq	r2, r0, lr, lsl #24
    4e54:	82220000 	eorhi	r0, r2, #0, 0
    4e58:	0200000a 	andeq	r0, r0, #10, 0
    4e5c:	006918b1 	strhteq	r1, [r9], #-129	; 0xffffff7f
    4e60:	07030000 	streq	r0, [r3, -r0]
    4e64:	1f000005 	svcne	0x00000005
    4e68:	b1020078 	tstlt	r2, r8, ror r0
    4e6c:	0000692b 	andeq	r6, r0, fp, lsr #18
    4e70:	a5230000 	strge	r0, [r3, #-0]!
    4e74:	84000004 	strhi	r0, [r0], #-4
    4e78:	6000009e 	mulvs	r0, lr, r0
    4e7c:	01000000 	mrseq	r0, (UNDEF: 0)
    4e80:	0005e49c 	muleq	r5, ip, r4
    4e84:	04b21500 	ldrteq	r1, [r2], #1280	; 0x500
    4e88:	33650000 	cmncc	r5, #0, 0
    4e8c:	33610000 	cmncc	r1, #0, 0
    4e90:	be150000 	cdplt	0, 1, cr0, cr5, cr0, {0}
    4e94:	8a000004 	bhi	4eac <__code_start__-0x3154>
    4e98:	86000033 			; <UNDEFINED> instruction: 0x86000033
    4e9c:	1b000033 	blne	4f70 <__code_start__-0x3090>
    4ea0:	000004ca 	andeq	r0, r0, sl, asr #9
    4ea4:	0004d61b 	andeq	sp, r4, fp, lsl r6
    4ea8:	04e01b00 	strbteq	r1, [r0], #2816	; 0xb00
    4eac:	a5180000 	ldrge	r0, [r8, #-0]
    4eb0:	8c000004 	stchi	0, cr0, [r0], {4}
    4eb4:	0000009e 	muleq	r0, lr, r0
    4eb8:	000006c0 	andeq	r0, r0, r0, asr #13
    4ebc:	15062801 	strne	r2, [r6, #-2049]	; 0xfffff7ff
    4ec0:	000004be 			; <UNDEFINED> instruction: 0x000004be
    4ec4:	000033af 	andeq	r3, r0, pc, lsr #7
    4ec8:	000033ab 	andeq	r3, r0, fp, lsr #7
    4ecc:	0004b215 	andeq	fp, r4, r5, lsl r2
    4ed0:	0033d400 	eorseq	sp, r3, r0, lsl #8
    4ed4:	0033d000 	eorseq	sp, r3, r0
    4ed8:	06c01a00 	strbeq	r1, [r0], r0, lsl #20
    4edc:	ca1c0000 	bgt	704ee4 <__bss_end__+0x6fa064>
    4ee0:	f9000004 			; <UNDEFINED> instruction: 0xf9000004
    4ee4:	f5000033 			; <UNDEFINED> instruction: 0xf5000033
    4ee8:	1c000033 	stcne	0, cr0, [r0], {51}	; 0x33
    4eec:	000004d6 	ldrdeq	r0, [r0], -r6
    4ef0:	00003445 	andeq	r3, r0, r5, asr #8
    4ef4:	0000343f 	andeq	r3, r0, pc, lsr r4
    4ef8:	0004e01c 	andeq	lr, r4, ip, lsl r0
    4efc:	00349b00 	eorseq	r9, r4, r0, lsl #22
    4f00:	00349300 	eorseq	r9, r4, r0, lsl #6
    4f04:	9ec41d00 	cdpls	13, 12, cr1, cr4, cr0, {0}
    4f08:	065e0000 	ldrbeq	r0, [lr], -r0
    4f0c:	05ae0000 	streq	r0, [lr, #0]!
    4f10:	01120000 	tsteq	r2, r0
    4f14:	00760250 	rsbseq	r0, r6, r0, asr r2
    4f18:	9ee01600 	cdpls	6, 14, cr1, cr0, cr0, {0}
    4f1c:	066a0000 	strbteq	r0, [sl], -r0
    4f20:	01120000 	tsteq	r2, r0
    4f24:	01f32550 	mvnseq	r2, r0, asr r5
    4f28:	f72cf750 			; <UNDEFINED> instruction: 0xf72cf750
    4f2c:	0825f425 	stmdaeq	r5!, {r0, r2, r5, sl, ip, sp, lr, pc}
    4f30:	cccccccd 	stclgt	12, cr12, [ip], {205}	; 0xcd
    4f34:	00000000 	andeq	r0, r0, r0
    4f38:	f720081e 			; <UNDEFINED> instruction: 0xf720081e
    4f3c:	2cf72525 	cfldr64cs	mvdx2, [r7], #148	; 0x94
    4f40:	253300f7 	ldrcs	r0, [r3, #-247]!	; 0xffffff09
    4f44:	a0808023 	addge	r8, r0, r3, lsr #32
    4f48:	00243240 	eoreq	r3, r4, r0, asr #4
    4f4c:	23000000 	movwcs	r0, #0
    4f50:	0000038d 	andeq	r0, r0, sp, lsl #7
    4f54:	00009f3c 	andeq	r9, r0, ip, lsr pc
    4f58:	00000018 	andeq	r0, r0, r8, lsl r0
    4f5c:	06219c01 	strteq	r9, [r1], -r1, lsl #24
    4f60:	9a150000 	bls	544f68 <__bss_end__+0x53a0e8>
    4f64:	f1000003 	cps	#3
    4f68:	eb000034 	bl	5040 <__code_start__-0x2fc0>
    4f6c:	16000034 			; <UNDEFINED> instruction: 0x16000034
    4f70:	00009f50 	andeq	r9, r0, r0, asr pc
    4f74:	0000066a 	andeq	r0, r0, sl, ror #12
    4f78:	05500112 	ldrbeq	r0, [r0, #-274]	; 0xfffffeee
    4f7c:	20001c0c 	andcs	r1, r0, ip, lsl #24
    4f80:	51011220 	tstpl	r1, r0, lsr #4
    4f84:	01f33105 	mvnseq	r3, r5, lsl #2
    4f88:	00002450 	andeq	r2, r0, r0, asr r4
    4f8c:	00037323 	andeq	r7, r3, r3, lsr #6
    4f90:	009f5400 	addseq	r5, pc, r0, lsl #8
    4f94:	00001800 	andeq	r1, r0, r0, lsl #16
    4f98:	5e9c0100 	fmlple	f0, f4, f0
    4f9c:	15000006 	strne	r0, [r0, #-6]
    4fa0:	00000380 	andeq	r0, r0, r0, lsl #7
    4fa4:	00003523 	andeq	r3, r0, r3, lsr #10
    4fa8:	0000351d 	andeq	r3, r0, sp, lsl r5
    4fac:	009f6816 	addseq	r6, pc, r6, lsl r8	; <UNPREDICTABLE>
    4fb0:	00066a00 	andeq	r6, r6, r0, lsl #20
    4fb4:	50011200 	andpl	r1, r1, r0, lsl #4
    4fb8:	00280c05 	eoreq	r0, r8, r5, lsl #24
    4fbc:	01122020 	tsteq	r2, r0, lsr #32
    4fc0:	f3310551 	vqrshl.u64	q0, <illegal reg q0.5>, <illegal reg q0.5>
    4fc4:	00245001 	eoreq	r5, r4, r1
    4fc8:	07442400 	strbeq	r2, [r4, -r0, lsl #8]
    4fcc:	07440000 	strbeq	r0, [r4, -r0]
    4fd0:	c2020000 	andgt	r0, r2, #0, 0
    4fd4:	06b0240a 	ldrteq	r2, [r0], sl, lsl #8
    4fd8:	06b00000 	ldrteq	r0, [r0], r0
    4fdc:	ad020000 	stcge	0, cr0, [r2, #-0]
    4fe0:	01490006 	cmpeq	r9, r6
    4fe4:	00040000 	andeq	r0, r4, r0
    4fe8:	00001b98 	muleq	r0, r8, fp
    4fec:	01a80104 			; <UNDEFINED> instruction: 0x01a80104
    4ff0:	140c0000 	strne	r0, [ip], #-0
    4ff4:	bf00000b 	svclt	0x0000000b
    4ff8:	1c000004 	stcne	0, cr0, [r0], {4}
    4ffc:	3c0000a0 	stccc	0, cr0, [r0], {160}	; 0xa0
    5000:	12000000 	andne	r0, r0, #0, 0
    5004:	02000027 	andeq	r0, r0, #39, 0	; 0x27
    5008:	6e690504 	cdpvs	5, 6, cr0, cr9, cr4, {0}
    500c:	04030074 	streq	r0, [r3], #-116	; 0xffffff8c
    5010:	00015407 	andeq	r5, r1, r7, lsl #8
    5014:	06010300 	streq	r0, [r1], -r0, lsl #6
    5018:	000000ec 	andeq	r0, r0, ip, ror #1
    501c:	49050203 	stmdbmi	r5, {r0, r1, r9}
    5020:	03000000 	movweq	r0, #0
    5024:	009f0504 	addseq	r0, pc, r4, lsl #10
    5028:	08030000 	stmdaeq	r3, {}	; <UNPREDICTABLE>
    502c:	00009a05 	andeq	r9, r0, r5, lsl #20
    5030:	08010300 	stmdaeq	r1, {r8, r9}
    5034:	000000ea 	andeq	r0, r0, sl, ror #1
    5038:	7b070203 	blvc	1c584c <__bss_end__+0x1ba9cc>
    503c:	03000001 	movweq	r0, #1
    5040:	014f0704 	cmpeq	pc, r4, lsl #14
    5044:	08030000 	stmdaeq	r3, {}	; <UNPREDICTABLE>
    5048:	00014a07 	andeq	r4, r1, r7, lsl #20
    504c:	00250400 	eoreq	r0, r5, r0, lsl #8
    5050:	007a0000 	rsbseq	r0, sl, r0
    5054:	25050000 	strcs	r0, [r5, #-0]
    5058:	00000000 	andeq	r0, r0, r0
    505c:	00005306 	andeq	r5, r0, r6, lsl #6
    5060:	0e1c0200 	cdpeq	2, 1, cr0, cr12, cr0, {0}
    5064:	00000086 	andeq	r0, r0, r6, lsl #1
    5068:	006b0407 	rsbeq	r0, fp, r7, lsl #8
    506c:	25040000 	strcs	r0, [r4, #-0]
    5070:	9b000000 	blls	5078 <__code_start__-0x2f88>
    5074:	05000000 	streq	r0, [r0, #-0]
    5078:	0000009b 	muleq	r0, fp, r0
    507c:	a8040700 	stmdage	r4, {r8, r9, sl}
    5080:	03000000 	movweq	r0, #0
    5084:	00f30801 	rscseq	r0, r3, r1, lsl #16
    5088:	a1080000 	mrsge	r0, (UNDEF: 8)
    508c:	06000000 	streq	r0, [r0], -r0
    5090:	00000527 	andeq	r0, r0, r7, lsr #10
    5094:	b90e2102 	stmdblt	lr, {r1, r8, sp}
    5098:	07000000 	streq	r0, [r0, -r0]
    509c:	00008c04 	andeq	r8, r0, r4, lsl #24
    50a0:	007a0900 	rsbseq	r0, sl, r0, lsl #18
    50a4:	06010000 	streq	r0, [r1], -r0
    50a8:	4c030507 	cfstr32mi	mvfx0, [r3], {7}
    50ac:	0a0000aa 	beq	535c <__code_start__-0x2ca4>
    50b0:	00000b07 	andeq	r0, r0, r7, lsl #22
    50b4:	48060b01 	stmdami	r6, {r0, r8, r9, fp}
    50b8:	100000a0 	andne	r0, r0, r0, lsr #1
    50bc:	01000000 	mrseq	r0, (UNDEF: 0)
    50c0:	0000f19c 	muleq	r0, ip, r1
    50c4:	70660b00 	rsbvc	r0, r6, r0, lsl #22
    50c8:	190b0100 	stmdbne	fp, {r8}
    50cc:	00000086 	andeq	r0, r0, r6, lsl #1
    50d0:	0c005001 	stceq	0, cr5, [r0], {1}
    50d4:	00000a44 	andeq	r0, r0, r4, asr #20
    50d8:	30060801 	andcc	r0, r6, r1, lsl #16
    50dc:	180000a0 	stmdane	r0, {r5, r7}
    50e0:	01000000 	mrseq	r0, (UNDEF: 0)
    50e4:	0af60d9c 	beq	ffd8875c <__bss_end__+0xffd7d8dc>
    50e8:	03010000 	movweq	r0, #4096	; 0x1000
    50ec:	0000250c 	andeq	r2, r0, ip, lsl #10
    50f0:	00a01c00 	adceq	r1, r0, r0, lsl #24
    50f4:	00001400 	andeq	r1, r0, r0, lsl #8
    50f8:	409c0100 	addsmi	r0, ip, r0, lsl #2
    50fc:	0e000001 	cdpeq	0, 0, cr0, cr0, cr1, {0}
    5100:	03010063 	movweq	r0, #4195	; 0x1063
    5104:	00002521 	andeq	r2, r0, r1, lsr #10
    5108:	00355300 	eorseq	r5, r5, r0, lsl #6
    510c:	00354f00 	eorseq	r4, r5, r0, lsl #30
    5110:	a0280f00 	eorge	r0, r8, r0, lsl #30
    5114:	01400000 	mrseq	r0, (UNDEF: 64)
    5118:	01100000 	tsteq	r0, r0
    511c:	00740250 	rsbseq	r0, r4, r0, asr r2
    5120:	55110000 	ldrpl	r0, [r1, #-0]
    5124:	55000009 	strpl	r0, [r0, #-9]
    5128:	02000009 	andeq	r0, r0, #9, 0
    512c:	37000642 	strcc	r0, [r0, -r2, asr #12]
    5130:	04000001 	streq	r0, [r0], #-1
    5134:	001ca700 	andseq	sl, ip, r0, lsl #14
    5138:	a8010400 	stmdage	r1, {sl}
    513c:	0c000001 	stceq	0, cr0, [r0], {1}
    5140:	00000b25 	andeq	r0, r0, r5, lsr #22
    5144:	000004bf 			; <UNDEFINED> instruction: 0x000004bf
    5148:	0000a058 	andeq	sl, r0, r8, asr r0
    514c:	0000002c 	andeq	r0, r0, ip, lsr #32
    5150:	000027b4 			; <UNDEFINED> instruction: 0x000027b4
    5154:	69050402 	stmdbvs	r5, {r1, sl}
    5158:	0300746e 	movweq	r7, #1134	; 0x46e
    515c:	01540704 	cmpeq	r4, r4, lsl #14
    5160:	01030000 	mrseq	r0, (UNDEF: 3)
    5164:	0000ec06 	andeq	lr, r0, r6, lsl #24
    5168:	05020300 	streq	r0, [r2, #-768]	; 0xfffffd00
    516c:	00000049 	andeq	r0, r0, r9, asr #32
    5170:	9f050403 	svcls	0x00050403
    5174:	03000000 	movweq	r0, #0
    5178:	009a0508 	addseq	r0, sl, r8, lsl #10
    517c:	01030000 	mrseq	r0, (UNDEF: 3)
    5180:	0000ea08 	andeq	lr, r0, r8, lsl #20
    5184:	07020300 	streq	r0, [r2, -r0, lsl #6]
    5188:	0000017b 	andeq	r0, r0, fp, ror r1
    518c:	4f070403 	svcmi	0x00070403
    5190:	03000001 	movweq	r0, #1
    5194:	014a0708 	cmpeq	sl, r8, lsl #14
    5198:	25040000 	strcs	r0, [r4, #-0]
    519c:	7a000000 	bvc	51a4 <__code_start__-0x2e5c>
    51a0:	05000000 	streq	r0, [r0, #-0]
    51a4:	00000025 	andeq	r0, r0, r5, lsr #32
    51a8:	00530600 	subseq	r0, r3, r0, lsl #12
    51ac:	1c020000 	stcne	0, cr0, [r2], {-0}
    51b0:	0000860e 	andeq	r8, r0, lr, lsl #12
    51b4:	6b040700 	blvs	106dbc <__bss_end__+0xfbf3c>
    51b8:	04000000 	streq	r0, [r0], #-0
    51bc:	00000025 	andeq	r0, r0, r5, lsr #32
    51c0:	0000009b 	muleq	r0, fp, r0
    51c4:	00009b05 	andeq	r9, r0, r5, lsl #22
    51c8:	04070000 	streq	r0, [r7], #-0
    51cc:	000000a8 	andeq	r0, r0, r8, lsr #1
    51d0:	f3080103 	vrhadd.u8	d0, d8, d3
    51d4:	08000000 	stmdaeq	r0, {}	; <UNPREDICTABLE>
    51d8:	000000a1 	andeq	r0, r0, r1, lsr #1
    51dc:	00052706 	andeq	r2, r5, r6, lsl #14
    51e0:	0e210200 	cdpeq	2, 2, cr0, cr1, cr0, {0}
    51e4:	000000b9 	strheq	r0, [r0], -r9
    51e8:	008c0407 	addeq	r0, ip, r7, lsl #8
    51ec:	a3090000 	movwge	r0, #36864	; 0x9000
    51f0:	01000005 	tsteq	r0, r5
    51f4:	01340704 	teqeq	r4, r4, lsl #14
    51f8:	a0580000 	subsge	r0, r8, r0
    51fc:	002c0000 	eoreq	r0, ip, r0
    5200:	9c010000 	stcls	0, cr0, [r1], {-0}
    5204:	00000134 	andeq	r0, r0, r4, lsr r1
    5208:	000b350a 	andeq	r3, fp, sl, lsl #10
    520c:	15040100 	strne	r0, [r4, #-256]	; 0xffffff00
    5210:	00000134 	andeq	r0, r0, r4, lsr r1
    5214:	730b5001 	movwvc	r5, #45057	; 0xb001
    5218:	01006372 	tsteq	r0, r2, ror r3
    521c:	009b2704 	addseq	r2, fp, r4, lsl #14
    5220:	35750000 	ldrbcc	r0, [r5, #-0]!
    5224:	35710000 	ldrbcc	r0, [r1, #-0]!
    5228:	730c0000 	movwvc	r0, #49152	; 0xc000
    522c:	05010031 	streq	r0, [r1, #-49]	; 0xffffffcf
    5230:	0001340b 	andeq	r3, r1, fp, lsl #8
    5234:	0035a400 	eorseq	sl, r5, r0, lsl #8
    5238:	00359600 	eorseq	r9, r5, r0, lsl #12
    523c:	32730c00 	rsbscc	r0, r3, #0, 24
    5240:	11060100 	mrsne	r0, (UNDEF: 22)
    5244:	0000009b 	muleq	r0, fp, r0
    5248:	00003603 	andeq	r3, r0, r3, lsl #12
    524c:	000035fd 	strdeq	r3, [r0], -sp
    5250:	0100630c 	tsteq	r0, ip, lsl #6
    5254:	00a10a07 	adceq	r0, r1, r7, lsl #20
    5258:	36340000 	ldrtcc	r0, [r4], -r0
    525c:	362e0000 	strtcc	r0, [lr], -r0
    5260:	07000000 	streq	r0, [r0, -r0]
    5264:	0000a104 	andeq	sl, r0, r4, lsl #2
    5268:	00f70000 	rscseq	r0, r7, r0
    526c:	00040000 	andeq	r0, r4, r0
    5270:	00001d5d 	andeq	r1, r0, sp, asr sp
    5274:	01a80104 			; <UNDEFINED> instruction: 0x01a80104
    5278:	3a0c0000 	bcc	305280 <__bss_end__+0x2fa400>
    527c:	bf00000b 	svclt	0x0000000b
    5280:	84000004 	strhi	r0, [r0], #-4
    5284:	440000a0 	strmi	r0, [r0], #-160	; 0xffffff60
    5288:	9a000000 	bls	5290 <__code_start__-0x2d70>
    528c:	02000028 	andeq	r0, r0, #40, 0	; 0x28
    5290:	6e690504 	cdpvs	5, 6, cr0, cr9, cr4, {0}
    5294:	04030074 	streq	r0, [r3], #-116	; 0xffffff8c
    5298:	00015407 	andeq	r5, r1, r7, lsl #8
    529c:	06010300 	streq	r0, [r1], -r0, lsl #6
    52a0:	000000ec 	andeq	r0, r0, ip, ror #1
    52a4:	49050203 	stmdbmi	r5, {r0, r1, r9}
    52a8:	03000000 	movweq	r0, #0
    52ac:	009f0504 	addseq	r0, pc, r4, lsl #10
    52b0:	08030000 	stmdaeq	r3, {}	; <UNPREDICTABLE>
    52b4:	00009a05 	andeq	r9, r0, r5, lsl #20
    52b8:	08010300 	stmdaeq	r1, {r8, r9}
    52bc:	000000ea 	andeq	r0, r0, sl, ror #1
    52c0:	7b070203 	blvc	1c5ad4 <__bss_end__+0x1bac54>
    52c4:	03000001 	movweq	r0, #1
    52c8:	014f0704 	cmpeq	pc, r4, lsl #14
    52cc:	08030000 	stmdaeq	r3, {}	; <UNPREDICTABLE>
    52d0:	00014a07 	andeq	r4, r1, r7, lsl #20
    52d4:	00250400 	eoreq	r0, r5, r0, lsl #8
    52d8:	007a0000 	rsbseq	r0, sl, r0
    52dc:	25050000 	strcs	r0, [r5, #-0]
    52e0:	00000000 	andeq	r0, r0, r0
    52e4:	00005306 	andeq	r5, r0, r6, lsl #6
    52e8:	0e1c0200 	cdpeq	2, 1, cr0, cr12, cr0, {0}
    52ec:	00000086 	andeq	r0, r0, r6, lsl #1
    52f0:	006b0407 	rsbeq	r0, fp, r7, lsl #8
    52f4:	25040000 	strcs	r0, [r4, #-0]
    52f8:	9b000000 	blls	5300 <__code_start__-0x2d00>
    52fc:	05000000 	streq	r0, [r0, #-0]
    5300:	0000009b 	muleq	r0, fp, r0
    5304:	a8040700 	stmdage	r4, {r8, r9, sl}
    5308:	03000000 	movweq	r0, #0
    530c:	00f30801 	rscseq	r0, r3, r1, lsl #16
    5310:	a1080000 	mrsge	r0, (UNDEF: 8)
    5314:	06000000 	streq	r0, [r0], -r0
    5318:	00000527 	andeq	r0, r0, r7, lsr #10
    531c:	b90e2102 	stmdblt	lr, {r1, r8, sp}
    5320:	07000000 	streq	r0, [r0, -r0]
    5324:	00008c04 	andeq	r8, r0, r4, lsl #24
    5328:	05d10900 	ldrbeq	r0, [r1, #2304]	; 0x900
    532c:	03010000 	movweq	r0, #4096	; 0x1000
    5330:	00002505 	andeq	r2, r0, r5, lsl #10
    5334:	00a08400 	adceq	r8, r0, r0, lsl #8
    5338:	00004400 	andeq	r4, r0, r0, lsl #8
    533c:	0a9c0100 	beq	fe705744 <__bss_end__+0xfe6fa8c4>
    5340:	03010061 	movweq	r0, #4193	; 0x1061
    5344:	00009b18 	andeq	r9, r0, r8, lsl fp
    5348:	00366b00 	eorseq	r6, r6, r0, lsl #22
    534c:	00365f00 	eorseq	r5, r6, r0, lsl #30
    5350:	00620a00 	rsbeq	r0, r2, r0, lsl #20
    5354:	9b270301 	blls	9c5f60 <__bss_end__+0x9bb0e0>
    5358:	bf000000 	svclt	0x00000000
    535c:	b9000036 	stmdblt	r0, {r1, r2, r4, r5}
    5360:	00000036 	andeq	r0, r0, r6, lsr r0
    5364:	00010f00 	andeq	r0, r1, r0, lsl #30
    5368:	ec000400 	cfstrs	mvf0, [r0], {-0}
    536c:	0400001d 	streq	r0, [r0], #-29	; 0xffffffe3
    5370:	0001a801 	andeq	sl, r1, r1, lsl #16
    5374:	0b4a0c00 	bleq	128837c <__bss_end__+0x127d4fc>
    5378:	04bf0000 	ldrteq	r0, [pc], #0	; 5380 <__code_start__-0x2c80>
    537c:	a0c80000 	sbcge	r0, r8, r0
    5380:	00180000 	andseq	r0, r8, r0
    5384:	29500000 	ldmdbcs	r0, {}^	; <UNPREDICTABLE>
    5388:	04020000 	streq	r0, [r2], #-0
    538c:	746e6905 	strbtvc	r6, [lr], #-2309	; 0xfffff6fb
    5390:	07040300 	streq	r0, [r4, -r0, lsl #6]
    5394:	00000154 	andeq	r0, r0, r4, asr r1
    5398:	ec060103 	stfs	f0, [r6], {3}
    539c:	03000000 	movweq	r0, #0
    53a0:	00490502 	subeq	r0, r9, r2, lsl #10
    53a4:	04030000 	streq	r0, [r3], #-0
    53a8:	00009f05 	andeq	r9, r0, r5, lsl #30
    53ac:	05080300 	streq	r0, [r8, #-768]	; 0xfffffd00
    53b0:	0000009a 	muleq	r0, sl, r0
    53b4:	ea080103 	b	2057c8 <__bss_end__+0x1fa948>
    53b8:	03000000 	movweq	r0, #0
    53bc:	017b0702 	cmneq	fp, r2, lsl #14
    53c0:	04030000 	streq	r0, [r3], #-0
    53c4:	00014f07 	andeq	r4, r1, r7, lsl #30
    53c8:	07080300 	streq	r0, [r8, -r0, lsl #6]
    53cc:	0000014a 	andeq	r0, r0, sl, asr #2
    53d0:	00002504 	andeq	r2, r0, r4, lsl #10
    53d4:	00007a00 	andeq	r7, r0, r0, lsl #20
    53d8:	00250500 	eoreq	r0, r5, r0, lsl #10
    53dc:	06000000 	streq	r0, [r0], -r0
    53e0:	00000053 	andeq	r0, r0, r3, asr r0
    53e4:	860e1c02 	strhi	r1, [lr], -r2, lsl #24
    53e8:	07000000 	streq	r0, [r0, -r0]
    53ec:	00006b04 	andeq	r6, r0, r4, lsl #22
    53f0:	00250400 	eoreq	r0, r5, r0, lsl #8
    53f4:	009b0000 	addseq	r0, fp, r0
    53f8:	9b050000 	blls	145400 <__bss_end__+0x13a580>
    53fc:	00000000 	andeq	r0, r0, r0
    5400:	00a80407 	adceq	r0, r8, r7, lsl #8
    5404:	01030000 	mrseq	r0, (UNDEF: 3)
    5408:	0000f308 	andeq	pc, r0, r8, lsl #6
    540c:	00a10800 	adceq	r0, r1, r0, lsl #16
    5410:	27060000 	strcs	r0, [r6, -r0]
    5414:	02000005 	andeq	r0, r0, #5, 0
    5418:	00b90e21 	adcseq	r0, r9, r1, lsr #28
    541c:	04070000 	streq	r0, [r7], #-0
    5420:	0000008c 	andeq	r0, r0, ip, lsl #1
    5424:	0005aa09 	andeq	sl, r5, r9, lsl #20
    5428:	07030100 	streq	r0, [r3, -r0, lsl #2]
    542c:	0000010c 	andeq	r0, r0, ip, lsl #2
    5430:	0000a0c8 	andeq	sl, r0, r8, asr #1
    5434:	00000018 	andeq	r0, r0, r8, lsl r0
    5438:	010c9c01 	tsteq	ip, r1, lsl #24
    543c:	730a0000 	movwvc	r0, #40960	; 0xa000
    5440:	03010031 	movweq	r0, #4145	; 0x1031
    5444:	00010c15 	andeq	r0, r1, r5, lsl ip
    5448:	0b500100 	bleq	1405850 <__bss_end__+0x13fa9d0>
    544c:	01003273 	tsteq	r0, r3, ror r2
    5450:	009b2603 	addseq	r2, fp, r3, lsl #12
    5454:	36ee0000 	strbtcc	r0, [lr], r0
    5458:	36e80000 	strbtcc	r0, [r8], r0
    545c:	730c0000 	movwvc	r0, #49152	; 0xc000
    5460:	14040100 	strne	r0, [r4], #-256	; 0xffffff00
    5464:	0000010c 	andeq	r0, r0, ip, lsl #2
    5468:	0000371b 	andeq	r3, r0, fp, lsl r7
    546c:	00003719 	andeq	r3, r0, r9, lsl r7
    5470:	a1040700 	tstge	r4, r0, lsl #14
    5474:	00000000 	andeq	r0, r0, r0
    5478:	0000014e 	andeq	r0, r0, lr, asr #2
    547c:	1ea20004 	cdpne	0, 10, cr0, cr2, cr4, {0}
    5480:	01040000 	mrseq	r0, (UNDEF: 4)
    5484:	000001a8 	andeq	r0, r0, r8, lsr #3
    5488:	000b5a0c 	andeq	r5, fp, ip, lsl #20
    548c:	0004bf00 	andeq	fp, r4, r0, lsl #30
    5490:	00a0e000 	adceq	lr, r0, r0
    5494:	00003000 	andeq	r3, r0, r0
    5498:	0029f100 	eoreq	pc, r9, r0, lsl #2
    549c:	05040200 	streq	r0, [r4, #-512]	; 0xfffffe00
    54a0:	00746e69 	rsbseq	r6, r4, r9, ror #28
    54a4:	0004a803 	andeq	sl, r4, r3, lsl #16
    54a8:	17d10300 	ldrbne	r0, [r1, r0, lsl #6]
    54ac:	00000038 	andeq	r0, r0, r8, lsr r0
    54b0:	54070404 	strpl	r0, [r7], #-1028	; 0xfffffbfc
    54b4:	04000001 	streq	r0, [r0], #-1
    54b8:	00ec0601 	rsceq	r0, ip, r1, lsl #12
    54bc:	02040000 	andeq	r0, r4, #0, 0
    54c0:	00004905 	andeq	r4, r0, r5, lsl #18
    54c4:	05040400 	streq	r0, [r4, #-1024]	; 0xfffffc00
    54c8:	0000009f 	muleq	r0, pc, r0	; <UNPREDICTABLE>
    54cc:	9a050804 	bls	1474e4 <__bss_end__+0x13c664>
    54d0:	04000000 	streq	r0, [r0], #-0
    54d4:	00ea0801 	rsceq	r0, sl, r1, lsl #16
    54d8:	5b050000 	blpl	1454e0 <__bss_end__+0x13a660>
    54dc:	04000000 	streq	r0, [r0], #-0
    54e0:	017b0702 	cmneq	fp, r2, lsl #14
    54e4:	04040000 	streq	r0, [r4], #-0
    54e8:	00014f07 	andeq	r4, r1, r7, lsl #30
    54ec:	07080400 	streq	r0, [r8, -r0, lsl #8]
    54f0:	0000014a 	andeq	r0, r0, sl, asr #2
    54f4:	00002506 	andeq	r2, r0, r6, lsl #10
    54f8:	00008b00 	andeq	r8, r0, r0, lsl #22
    54fc:	00250700 	eoreq	r0, r5, r0, lsl #14
    5500:	08000000 	stmdaeq	r0, {}	; <UNPREDICTABLE>
    5504:	00000053 	andeq	r0, r0, r3, asr r0
    5508:	970e1c02 	strls	r1, [lr, -r2, lsl #24]
    550c:	09000000 	stmdbeq	r0, {}	; <UNPREDICTABLE>
    5510:	00007c04 	andeq	r7, r0, r4, lsl #24
    5514:	00250600 	eoreq	r0, r5, r0, lsl #12
    5518:	00ac0000 	adceq	r0, ip, r0
    551c:	ac070000 	stcge	0, cr0, [r7], {-0}
    5520:	00000000 	andeq	r0, r0, r0
    5524:	00b90409 	adcseq	r0, r9, r9, lsl #8
    5528:	01040000 	mrseq	r0, (UNDEF: 4)
    552c:	0000f308 	andeq	pc, r0, r8, lsl #6
    5530:	00b20500 	adcseq	r0, r2, r0, lsl #10
    5534:	27080000 	strcs	r0, [r8, -r0]
    5538:	02000005 	andeq	r0, r0, #5, 0
    553c:	00ca0e21 	sbceq	r0, sl, r1, lsr #28
    5540:	04090000 	streq	r0, [r9], #-0
    5544:	0000009d 	muleq	r0, sp, r0
    5548:	0005f20a 	andeq	pc, r5, sl, lsl #4
    554c:	05040100 	streq	r0, [r4, #-256]	; 0xffffff00
    5550:	00000025 	andeq	r0, r0, r5, lsr #32
    5554:	0000a0e0 	andeq	sl, r0, r0, ror #1
    5558:	00000030 	andeq	r0, r0, r0, lsr r0
    555c:	014b9c01 	cmpeq	fp, r1, lsl #24
    5560:	5f0b0000 	svcpl	0x000b0000
    5564:	01003173 	tsteq	r0, r3, ror r1
    5568:	00ac1904 	adceq	r1, ip, r4, lsl #18
    556c:	37320000 	ldrcc	r0, [r2, -r0]!
    5570:	372e0000 	strcc	r0, [lr, -r0]!
    5574:	5f0b0000 	svcpl	0x000b0000
    5578:	01003273 	tsteq	r0, r3, ror r2
    557c:	00ac2a04 	adceq	r2, ip, r4, lsl #20
    5580:	37570000 	ldrbcc	r0, [r7, -r0]
    5584:	37530000 	ldrbcc	r0, [r3, -r0]
    5588:	6e0b0000 	cdpvs	0, 0, cr0, cr11, cr0, {0}
    558c:	36040100 	strcc	r0, [r4], -r0, lsl #2
    5590:	0000002c 	andeq	r0, r0, ip, lsr #32
    5594:	00003782 	andeq	r3, r0, r2, lsl #15
    5598:	00003778 	andeq	r3, r0, r8, ror r7
    559c:	0031730c 	eorseq	r7, r1, ip, lsl #6
    55a0:	4b1a0501 	blmi	6869ac <__bss_end__+0x67bb2c>
    55a4:	d9000001 	stmdble	r0, {r0}
    55a8:	d1000037 	tstle	r0, r7, lsr r0
    55ac:	0c000037 	stceq	0, cr0, [r0], {55}	; 0x37
    55b0:	01003273 	tsteq	r0, r3, ror r2
    55b4:	014b2c05 	cmpeq	fp, r5, lsl #24
    55b8:	38170000 	ldmdacc	r7, {}	; <UNPREDICTABLE>
    55bc:	38110000 	ldmdacc	r1, {}	; <UNPREDICTABLE>
    55c0:	09000000 	stmdbeq	r0, {}	; <UNPREDICTABLE>
    55c4:	00006204 	andeq	r6, r0, r4, lsl #4
    55c8:	00ce0000 	sbceq	r0, lr, r0
    55cc:	00040000 	andeq	r0, r4, r0
    55d0:	00001f56 	andeq	r1, r0, r6, asr pc
    55d4:	01a80104 			; <UNDEFINED> instruction: 0x01a80104
    55d8:	6b0c0000 	blvs	3055e0 <__bss_end__+0x2fa760>
    55dc:	bf00000b 	svclt	0x0000000b
    55e0:	10000004 	andne	r0, r0, r4
    55e4:	040000a1 	streq	r0, [r0], #-161	; 0xffffff5f
    55e8:	f2000000 	vhadd.s8	d0, d0, d0
    55ec:	0200002a 	andeq	r0, r0, #42, 0	; 0x2a
    55f0:	6e690504 	cdpvs	5, 6, cr0, cr9, cr4, {0}
    55f4:	04030074 	streq	r0, [r3], #-116	; 0xffffff8c
    55f8:	00015407 	andeq	r5, r1, r7, lsl #8
    55fc:	06010300 	streq	r0, [r1], -r0, lsl #6
    5600:	000000ec 	andeq	r0, r0, ip, ror #1
    5604:	49050203 	stmdbmi	r5, {r0, r1, r9}
    5608:	03000000 	movweq	r0, #0
    560c:	009f0504 	addseq	r0, pc, r4, lsl #10
    5610:	08030000 	stmdaeq	r3, {}	; <UNPREDICTABLE>
    5614:	00009a05 	andeq	r9, r0, r5, lsl #20
    5618:	08010300 	stmdaeq	r1, {r8, r9}
    561c:	000000ea 	andeq	r0, r0, sl, ror #1
    5620:	7b070203 	blvc	1c5e34 <__bss_end__+0x1bafb4>
    5624:	03000001 	movweq	r0, #1
    5628:	014f0704 	cmpeq	pc, r4, lsl #14
    562c:	08030000 	stmdaeq	r3, {}	; <UNPREDICTABLE>
    5630:	00014a07 	andeq	r4, r1, r7, lsl #20
    5634:	00250400 	eoreq	r0, r5, r0, lsl #8
    5638:	007a0000 	rsbseq	r0, sl, r0
    563c:	25050000 	strcs	r0, [r5, #-0]
    5640:	00000000 	andeq	r0, r0, r0
    5644:	00005306 	andeq	r5, r0, r6, lsl #6
    5648:	0e1c0200 	cdpeq	2, 1, cr0, cr12, cr0, {0}
    564c:	00000086 	andeq	r0, r0, r6, lsl #1
    5650:	006b0407 	rsbeq	r0, fp, r7, lsl #8
    5654:	25040000 	strcs	r0, [r4, #-0]
    5658:	9b000000 	blls	5660 <__code_start__-0x29a0>
    565c:	05000000 	streq	r0, [r0, #-0]
    5660:	0000009b 	muleq	r0, fp, r0
    5664:	a8040700 	stmdage	r4, {r8, r9, sl}
    5668:	03000000 	movweq	r0, #0
    566c:	00f30801 	rscseq	r0, r3, r1, lsl #16
    5670:	a1080000 	mrsge	r0, (UNDEF: 8)
    5674:	06000000 	streq	r0, [r0], -r0
    5678:	00000527 	andeq	r0, r0, r7, lsr #10
    567c:	b90e2102 	stmdblt	lr, {r1, r8, sp}
    5680:	07000000 	streq	r0, [r0, -r0]
    5684:	00008c04 	andeq	r8, r0, r4, lsl #24
    5688:	06990900 	ldreq	r0, [r9], r0, lsl #18
    568c:	03010000 	movweq	r0, #4096	; 0x1000
    5690:	00a11006 	adceq	r1, r1, r6
    5694:	00000400 	andeq	r0, r0, r0, lsl #8
    5698:	009c0100 	addseq	r0, ip, r0, lsl #2

Disassembly of section .debug_abbrev:

00000000 <.debug_abbrev>:
       0:	25011101 	strcs	r1, [r1, #-257]	; 0xfffffeff
       4:	030b130e 	movweq	r1, #45838	; 0xb30e
       8:	110e1b0e 	tstne	lr, lr, lsl #22
       c:	10061201 	andne	r1, r6, r1, lsl #4
      10:	02000017 	andeq	r0, r0, #23, 0
      14:	0b0b0024 	bleq	2c00ac <__bss_end__+0x2b522c>
      18:	08030b3e 	stmdaeq	r3, {r1, r2, r3, r4, r5, r8, r9, fp}
      1c:	24030000 	strcs	r0, [r3], #-0
      20:	3e0b0b00 	vmlacc.f64	d0, d11, d0
      24:	000e030b 	andeq	r0, lr, fp, lsl #6
      28:	00160400 	andseq	r0, r6, r0, lsl #8
      2c:	0b3a0e03 	bleq	e83840 <__bss_end__+0xe789c0>
      30:	0b390b3b 	bleq	e42d24 <__bss_end__+0xe37ea4>
      34:	00001349 	andeq	r1, r0, r9, asr #6
      38:	27011505 	strcs	r1, [r1, -r5, lsl #10]
      3c:	01134919 	tsteq	r3, r9, lsl r9
      40:	06000013 			; <UNDEFINED> instruction: 0x06000013
      44:	13490005 	movtne	r0, #36869	; 0x9005
      48:	34070000 	strcc	r0, [r7], #-0
      4c:	3a0e0300 	bcc	380c54 <__bss_end__+0x375dd4>
      50:	390b3b0b 	stmdbcc	fp, {r0, r1, r3, r8, r9, fp, ip, sp}
      54:	3f13490b 	svccc	0x0013490b
      58:	00193c19 	andseq	r3, r9, r9, lsl ip
      5c:	000f0800 	andeq	r0, pc, r0, lsl #16
      60:	13490b0b 	movtne	r0, #39691	; 0x9b0b
      64:	26090000 	strcs	r0, [r9], -r0
      68:	00134900 	andseq	r4, r3, r0, lsl #18
      6c:	01130a00 	tsteq	r3, r0, lsl #20
      70:	0b3a0b0b 	bleq	e82ca4 <__bss_end__+0xe77e24>
      74:	0b390b3b 	bleq	e42d68 <__bss_end__+0xe37ee8>
      78:	00001301 	andeq	r1, r0, r1, lsl #6
      7c:	03000d0b 	movweq	r0, #3339	; 0xd0b
      80:	3b0b3a0e 	blcc	2ce8c0 <__bss_end__+0x2c3a40>
      84:	490b390b 	stmdbmi	fp, {r0, r1, r3, r8, fp, ip, sp}
      88:	000b3813 	andeq	r3, fp, r3, lsl r8
      8c:	01040c00 	tsteq	r4, r0, lsl #24
      90:	0b0b0b3e 	bleq	2c2d90 <__bss_end__+0x2b7f10>
      94:	0b3a1349 	bleq	e84dc0 <__bss_end__+0xe79f40>
      98:	0b390b3b 	bleq	e42d8c <__bss_end__+0xe37f0c>
      9c:	00001301 	andeq	r1, r0, r1, lsl #6
      a0:	0300280d 	movweq	r2, #2061	; 0x80d
      a4:	000b1c0e 	andeq	r1, fp, lr, lsl #24
      a8:	01130e00 	tsteq	r3, r0, lsl #28
      ac:	0b0b0e03 	bleq	2c38c0 <__bss_end__+0x2b8a40>
      b0:	0b3b0b3a 	bleq	ec2da0 <__bss_end__+0xeb7f20>
      b4:	13010b39 	movwne	r0, #6969	; 0x1b39
      b8:	0d0f0000 	stceq	0, cr0, [pc, #-0]	; c0 <__code_start__-0x7f40>
      bc:	3a080300 	bcc	200cc4 <__bss_end__+0x1f5e44>
      c0:	390b3b0b 	stmdbcc	fp, {r0, r1, r3, r8, r9, fp, ip, sp}
      c4:	3813490b 	ldmdacc	r3, {r0, r1, r3, r8, fp, lr}
      c8:	1000000b 	andne	r0, r0, fp
      cc:	13490101 	movtne	r0, #37121	; 0x9101
      d0:	00001301 	andeq	r1, r0, r1, lsl #6
      d4:	49002111 	stmdbmi	r0, {r0, r4, r8, sp}
      d8:	000b2f13 	andeq	r2, fp, r3, lsl pc
      dc:	000f1200 	andeq	r1, pc, r0, lsl #4
      e0:	00000b0b 	andeq	r0, r0, fp, lsl #22
      e4:	03003413 	movweq	r3, #1043	; 0x413
      e8:	3b0b3a0e 	blcc	2ce928 <__bss_end__+0x2c3aa8>
      ec:	490b390b 	stmdbmi	fp, {r0, r1, r3, r8, fp, ip, sp}
      f0:	02193f13 	andseq	r3, r9, #76	; 0x4c
      f4:	14000018 	strne	r0, [r0], #-24	; 0xffffffe8
      f8:	193f012e 	ldmdbne	pc!, {r1, r2, r3, r5, r8}	; <UNPREDICTABLE>
      fc:	0b3a0e03 	bleq	e83910 <__bss_end__+0xe78a90>
     100:	0b390b3b 	bleq	e42df4 <__bss_end__+0xe37f74>
     104:	01111927 	tsteq	r1, r7, lsr #18
     108:	18400612 	stmdane	r0, {r1, r4, r9, sl}^
     10c:	01194297 			; <UNDEFINED> instruction: 0x01194297
     110:	15000013 	strne	r0, [r0, #-19]	; 0xffffffed
     114:	08030034 	stmdaeq	r3, {r2, r4, r5}
     118:	0b3b0b3a 	bleq	ec2e08 <__bss_end__+0xeb7f88>
     11c:	13490b39 	movtne	r0, #39737	; 0x9b39
     120:	42b71702 	adcsmi	r1, r7, #524288	; 0x80000
     124:	16000017 			; <UNDEFINED> instruction: 0x16000017
     128:	1331011d 	teqne	r1, #1073741831	; 0x40000007
     12c:	42b80152 	adcsmi	r0, r8, #-2147483628	; 0x80000014
     130:	1201110b 	andne	r1, r1, #-1073741822	; 0xc0000002
     134:	590b5806 	stmdbpl	fp, {r1, r2, fp, ip, lr}
     138:	010b570b 	tsteq	fp, fp, lsl #14
     13c:	17000013 	smladne	r0, r3, r0, r0
     140:	13310005 	teqne	r1, #5, 0
     144:	42b71702 	adcsmi	r1, r7, #524288	; 0x80000
     148:	18000017 	stmdane	r0, {r0, r1, r2, r4}
     14c:	13310034 	teqne	r1, #52, 0	; 0x34
     150:	42b71702 	adcsmi	r1, r7, #524288	; 0x80000
     154:	19000017 	stmdbne	r0, {r0, r1, r2, r4}
     158:	01018289 	smlabbeq	r1, r9, r2, r8
     15c:	13310111 	teqne	r1, #1073741828	; 0x40000004
     160:	00001301 	andeq	r1, r0, r1, lsl #6
     164:	01828a1a 	orreq	r8, r2, sl, lsl sl
     168:	91180200 	tstls	r8, r0, lsl #4
     16c:	00001842 	andeq	r1, r0, r2, asr #16
     170:	0182891b 	orreq	r8, r2, fp, lsl r9
     174:	31011100 	mrscc	r1, (UNDEF: 17)
     178:	1c000013 	stcne	0, cr0, [r0], {19}
     17c:	01018289 	smlabbeq	r1, r9, r2, r8
     180:	42950111 	addsmi	r0, r5, #1073741828	; 0x40000004
     184:	00133119 	andseq	r3, r3, r9, lsl r1
     188:	012e1d00 			; <UNDEFINED> instruction: 0x012e1d00
     18c:	0e03193f 			; <UNDEFINED> instruction: 0x0e03193f
     190:	0b3b0b3a 	bleq	ec2e80 <__bss_end__+0xeb8000>
     194:	19270b39 	stmdbne	r7!, {r0, r3, r4, r5, r8, r9, fp}
     198:	01111349 	tsteq	r1, r9, asr #6
     19c:	18400612 	stmdane	r0, {r1, r4, r9, sl}^
     1a0:	01194297 			; <UNDEFINED> instruction: 0x01194297
     1a4:	1e000013 	mcrne	0, 0, r0, cr0, cr3, {0}
     1a8:	0e030034 	mcreq	0, 0, r0, cr3, cr4, {1}
     1ac:	19341349 	ldmdbne	r4!, {r0, r3, r6, r8, r9, ip}
     1b0:	00001802 	andeq	r1, r0, r2, lsl #16
     1b4:	03012e1f 	movweq	r2, #7711	; 0x1e1f
     1b8:	3b0b3a0e 	blcc	2ce9f8 <__bss_end__+0x2c3b78>
     1bc:	270b390b 	strcs	r3, [fp, -fp, lsl #18]
     1c0:	20134919 	andscs	r4, r3, r9, lsl r9
     1c4:	0013010b 	andseq	r0, r3, fp, lsl #2
     1c8:	00052000 	andeq	r2, r5, r0
     1cc:	0b3a0803 	bleq	e821e0 <__bss_end__+0xe77360>
     1d0:	0b390b3b 	bleq	e42ec4 <__bss_end__+0xe38044>
     1d4:	00001349 	andeq	r1, r0, r9, asr #6
     1d8:	03003421 	movweq	r3, #1057	; 0x421
     1dc:	3b0b3a08 	blcc	2cea04 <__bss_end__+0x2c3b84>
     1e0:	490b390b 	stmdbmi	fp, {r0, r1, r3, r8, fp, ip, sp}
     1e4:	22000013 	andcs	r0, r0, #19, 0
     1e8:	0e030005 	cdpeq	0, 0, cr0, cr3, cr5, {0}
     1ec:	0b3b0b3a 	bleq	ec2edc <__bss_end__+0xeb805c>
     1f0:	13490b39 	movtne	r0, #39737	; 0x9b39
     1f4:	2e230000 	cdpcs	0, 2, cr0, cr3, cr0, {0}
     1f8:	3c193f00 	ldccc	15, cr3, [r9], {-0}
     1fc:	030e6e19 	movweq	r6, #60953	; 0xee19
     200:	3b0b3a0e 	blcc	2cea40 <__bss_end__+0x2c3bc0>
     204:	000b390b 	andeq	r3, fp, fp, lsl #18
     208:	00362400 	eorseq	r2, r6, r0, lsl #8
     20c:	00001802 	andeq	r1, r0, r2, lsl #16
     210:	01110100 	tsteq	r1, r0, lsl #2
     214:	0b130e25 	bleq	4c3ab0 <__bss_end__+0x4b8c30>
     218:	0e1b0e03 	cdpeq	14, 1, cr0, cr11, cr3, {0}
     21c:	06120111 			; <UNDEFINED> instruction: 0x06120111
     220:	00001710 	andeq	r1, r0, r0, lsl r7
     224:	0b002402 	bleq	9234 <va_printk+0x24c>
     228:	030b3e0b 	movweq	r3, #48651	; 0xbe0b
     22c:	03000008 	movweq	r0, #8
     230:	0b0b0024 	bleq	2c02c8 <__bss_end__+0x2b5448>
     234:	0e030b3e 	vmoveq.16	d3[0], r0
     238:	16040000 	strne	r0, [r4], -r0
     23c:	3a0e0300 	bcc	380e44 <__bss_end__+0x375fc4>
     240:	390b3b0b 	stmdbcc	fp, {r0, r1, r3, r8, r9, fp, ip, sp}
     244:	0013490b 	andseq	r4, r3, fp, lsl #18
     248:	01150500 	tsteq	r5, r0, lsl #10
     24c:	13491927 	movtne	r1, #39207	; 0x9927
     250:	00001301 	andeq	r1, r0, r1, lsl #6
     254:	49000506 	stmdbmi	r0, {r1, r2, r8, sl}
     258:	07000013 	smladeq	r0, r3, r0, r0
     25c:	0e030034 	mcreq	0, 0, r0, cr3, cr4, {1}
     260:	0b3b0b3a 	bleq	ec2f50 <__bss_end__+0xeb80d0>
     264:	13490b39 	movtne	r0, #39737	; 0x9b39
     268:	193c193f 	ldmdbne	ip!, {r0, r1, r2, r3, r4, r5, r8, fp, ip}
     26c:	0f080000 	svceq	0x00080000
     270:	490b0b00 	stmdbmi	fp, {r8, r9, fp}
     274:	09000013 	stmdbeq	r0, {r0, r1, r4}
     278:	13490026 	movtne	r0, #36902	; 0x9026
     27c:	130a0000 	movwne	r0, #40960	; 0xa000
     280:	3a0b0b01 	bcc	2c2e8c <__bss_end__+0x2b800c>
     284:	390b3b0b 	stmdbcc	fp, {r0, r1, r3, r8, r9, fp, ip, sp}
     288:	0013010b 	andseq	r0, r3, fp, lsl #2
     28c:	000d0b00 	andeq	r0, sp, r0, lsl #22
     290:	0b3a0e03 	bleq	e83aa4 <__bss_end__+0xe78c24>
     294:	0b390b3b 	bleq	e42f88 <__bss_end__+0xe38108>
     298:	0b381349 	bleq	e04fc4 <__bss_end__+0xdfa144>
     29c:	040c0000 	streq	r0, [ip], #-0
     2a0:	0b0b3e01 	bleq	2cfaac <__bss_end__+0x2c4c2c>
     2a4:	3a13490b 	bcc	4d26d8 <__bss_end__+0x4c7858>
     2a8:	390b3b0b 	stmdbcc	fp, {r0, r1, r3, r8, r9, fp, ip, sp}
     2ac:	0013010b 	andseq	r0, r3, fp, lsl #2
     2b0:	00280d00 	eoreq	r0, r8, r0, lsl #26
     2b4:	0b1c0e03 	bleq	703ac8 <__bss_end__+0x6f8c48>
     2b8:	130e0000 	movwne	r0, #57344	; 0xe000
     2bc:	0b0e0301 	bleq	380ec8 <__bss_end__+0x376048>
     2c0:	3b0b3a0b 	blcc	2ceaf4 <__bss_end__+0x2c3c74>
     2c4:	010b390b 	tsteq	fp, fp, lsl #18
     2c8:	0f000013 	svceq	0x00000013
     2cc:	0803000d 	stmdaeq	r3, {r0, r2, r3}
     2d0:	0b3b0b3a 	bleq	ec2fc0 <__bss_end__+0xeb8140>
     2d4:	13490b39 	movtne	r0, #39737	; 0x9b39
     2d8:	00000b38 	andeq	r0, r0, r8, lsr fp
     2dc:	49010110 	stmdbmi	r1, {r4, r8}
     2e0:	00130113 	andseq	r0, r3, r3, lsl r1
     2e4:	00211100 	eoreq	r1, r1, r0, lsl #2
     2e8:	0b2f1349 	bleq	bc5014 <__bss_end__+0xbba194>
     2ec:	0f120000 	svceq	0x00120000
     2f0:	000b0b00 	andeq	r0, fp, r0, lsl #22
     2f4:	00341300 	eorseq	r1, r4, r0, lsl #6
     2f8:	0b3a0e03 	bleq	e83b0c <__bss_end__+0xe78c8c>
     2fc:	0b390b3b 	bleq	e42ff0 <__bss_end__+0xe38170>
     300:	18021349 	stmdane	r2, {r0, r3, r6, r8, r9, ip}
     304:	2e140000 	cdpcs	0, 1, cr0, cr4, cr0, {0}
     308:	03193f01 	tsteq	r9, #1, 30
     30c:	3b0b3a0e 	blcc	2ceb4c <__bss_end__+0x2c3ccc>
     310:	270b390b 	strcs	r3, [fp, -fp, lsl #18]
     314:	11134919 	tstne	r3, r9, lsl r9
     318:	40061201 	andmi	r1, r6, r1, lsl #4
     31c:	19429718 	stmdbne	r2, {r3, r4, r8, r9, sl, ip, pc}^
     320:	00001301 	andeq	r1, r0, r1, lsl #6
     324:	03000515 	movweq	r0, #1301	; 0x515
     328:	3b0b3a0e 	blcc	2ceb68 <__bss_end__+0x2c3ce8>
     32c:	490b390b 	stmdbmi	fp, {r0, r1, r3, r8, fp, ip, sp}
     330:	b7170213 			; <UNDEFINED> instruction: 0xb7170213
     334:	00001742 	andeq	r1, r0, r2, asr #14
     338:	03000516 	movweq	r0, #1302	; 0x516
     33c:	3b0b3a08 	blcc	2ceb64 <__bss_end__+0x2c3ce4>
     340:	490b390b 	stmdbmi	fp, {r0, r1, r3, r8, fp, ip, sp}
     344:	00180213 	andseq	r0, r8, r3, lsl r2
     348:	00341700 	eorseq	r1, r4, r0, lsl #14
     34c:	0b3a0803 	bleq	e82360 <__bss_end__+0xe774e0>
     350:	0b390b3b 	bleq	e43044 <__bss_end__+0xe381c4>
     354:	17021349 	strne	r1, [r2, -r9, asr #6]
     358:	001742b7 			; <UNDEFINED> instruction: 0x001742b7
     35c:	82891800 	addhi	r1, r9, #0, 16
     360:	01110101 	tsteq	r1, r1, lsl #2
     364:	13011331 	movwne	r1, #4913	; 0x1331
     368:	8a190000 	bhi	640370 <__bss_end__+0x6354f0>
     36c:	02000182 	andeq	r0, r0, #-2147483616	; 0x80000020
     370:	18429118 	stmdane	r2, {r3, r4, r8, ip, pc}^
     374:	891a0000 	ldmdbhi	sl, {}	; <UNPREDICTABLE>
     378:	11010182 	smlabbne	r1, r2, r1, r0
     37c:	00133101 	andseq	r3, r3, r1, lsl #2
     380:	012e1b00 			; <UNDEFINED> instruction: 0x012e1b00
     384:	0e03193f 			; <UNDEFINED> instruction: 0x0e03193f
     388:	0b3b0b3a 	bleq	ec3078 <__bss_end__+0xeb81f8>
     38c:	19270b39 	stmdbne	r7!, {r0, r3, r4, r5, r8, r9, fp}
     390:	06120111 			; <UNDEFINED> instruction: 0x06120111
     394:	42971840 	addsmi	r1, r7, #64, 16	; 0x400000
     398:	00130119 	andseq	r0, r3, r9, lsl r1
     39c:	00051c00 	andeq	r1, r5, r0, lsl #24
     3a0:	0b3a0803 	bleq	e823b4 <__bss_end__+0xe77534>
     3a4:	0b390b3b 	bleq	e43098 <__bss_end__+0xe38218>
     3a8:	17021349 	strne	r1, [r2, -r9, asr #6]
     3ac:	001742b7 			; <UNDEFINED> instruction: 0x001742b7
     3b0:	00341d00 	eorseq	r1, r4, r0, lsl #26
     3b4:	13490e03 	movtne	r0, #40451	; 0x9e03
     3b8:	18021934 	stmdane	r2, {r2, r4, r5, r8, fp, ip}
     3bc:	1d1e0000 	ldcne	0, cr0, [lr, #-0]
     3c0:	52133101 	andspl	r3, r3, #1073741824	; 0x40000000
     3c4:	0b42b801 	bleq	10ae3d0 <__bss_end__+0x10a3550>
     3c8:	0b581755 	bleq	1606124 <__bss_end__+0x15fb2a4>
     3cc:	0b570b59 	bleq	15c3138 <__bss_end__+0x15b82b8>
     3d0:	00001301 	andeq	r1, r0, r1, lsl #6
     3d4:	3100051f 	tstcc	r0, pc, lsl r5
     3d8:	b7170213 			; <UNDEFINED> instruction: 0xb7170213
     3dc:	00001742 	andeq	r1, r0, r2, asr #14
     3e0:	31010b20 	tstcc	r1, r0, lsr #22
     3e4:	00175513 	andseq	r5, r7, r3, lsl r5
     3e8:	00342100 	eorseq	r2, r4, r0, lsl #2
     3ec:	17021331 	smladxne	r2, r1, r3, r1
     3f0:	001742b7 			; <UNDEFINED> instruction: 0x001742b7
     3f4:	001d2200 	andseq	r2, sp, r0, lsl #4
     3f8:	01521331 	cmpeq	r2, r1, lsr r3
     3fc:	550b42b8 	strpl	r4, [fp, #-696]	; 0xfffffd48
     400:	590b5817 	stmdbpl	fp, {r0, r1, r2, r4, fp, ip, lr}
     404:	000b570b 	andeq	r5, fp, fp, lsl #14
     408:	011d2300 	tsteq	sp, r0, lsl #6
     40c:	01521331 	cmpeq	r2, r1, lsr r3
     410:	110b42b8 			; <UNDEFINED> instruction: 0x110b42b8
     414:	58061201 	stmdapl	r6, {r0, r9, ip}
     418:	570b590b 	strpl	r5, [fp, -fp, lsl #18]
     41c:	0013010b 	andseq	r0, r3, fp, lsl #2
     420:	010b2400 	tsteq	fp, r0, lsl #8
     424:	00001755 	andeq	r1, r0, r5, asr r7
     428:	31011d25 	tstcc	r1, r5, lsr #26
     42c:	b8015213 	stmdalt	r1, {r0, r1, r4, r9, ip, lr}
     430:	17550b42 	ldrbne	r0, [r5, -r2, asr #22]
     434:	0b590b58 	bleq	164319c <__bss_end__+0x163831c>
     438:	00000b57 	andeq	r0, r0, r7, asr fp
     43c:	01828926 	orreq	r8, r2, r6, lsr #18
     440:	31011100 	mrscc	r1, (UNDEF: 17)
     444:	27000013 	smladcs	r0, r3, r0, r0
     448:	01018289 	smlabbeq	r1, r9, r2, r8
     44c:	42950111 	addsmi	r0, r5, #1073741828	; 0x40000004
     450:	01133119 	tsteq	r3, r9, lsl r1
     454:	28000013 	stmdacs	r0, {r0, r1, r4}
     458:	0e03012e 	adfeqsp	f0, f3, #0.5
     45c:	0b3b0b3a 	bleq	ec314c <__bss_end__+0xeb82cc>
     460:	19270b39 	stmdbne	r7!, {r0, r3, r4, r5, r8, r9, fp}
     464:	13010b20 	movwne	r0, #6944	; 0x1b20
     468:	05290000 	streq	r0, [r9, #-0]!
     46c:	3a080300 	bcc	201074 <__bss_end__+0x1f61f4>
     470:	390b3b0b 	stmdbcc	fp, {r0, r1, r3, r8, r9, fp, ip, sp}
     474:	0013490b 	andseq	r4, r3, fp, lsl #18
     478:	00342a00 	eorseq	r2, r4, r0, lsl #20
     47c:	0b3a0e03 	bleq	e83c90 <__bss_end__+0xe78e10>
     480:	0b390b3b 	bleq	e43174 <__bss_end__+0xe382f4>
     484:	00001349 	andeq	r1, r0, r9, asr #6
     488:	0300342b 	movweq	r3, #1067	; 0x42b
     48c:	3b0b3a08 	blcc	2cecb4 <__bss_end__+0x2c3e34>
     490:	490b390b 	stmdbmi	fp, {r0, r1, r3, r8, fp, ip, sp}
     494:	2c000013 	stccs	0, cr0, [r0], {19}
     498:	193f012e 	ldmdbne	pc!, {r1, r2, r3, r5, r8}	; <UNPREDICTABLE>
     49c:	0b3a0e03 	bleq	e83cb0 <__bss_end__+0xe78e30>
     4a0:	0b390b3b 	bleq	e43194 <__bss_end__+0xe38314>
     4a4:	13491927 	movtne	r1, #39207	; 0x9927
     4a8:	13010b20 	movwne	r0, #6944	; 0x1b20
     4ac:	0b2d0000 	bleq	b404b4 <__bss_end__+0xb35634>
     4b0:	2e000001 	cdpcs	0, 0, cr0, cr0, cr1, {0}
     4b4:	193f002e 	ldmdbne	pc!, {r1, r2, r3, r5}	; <UNPREDICTABLE>
     4b8:	0b3a0e03 	bleq	e83ccc <__bss_end__+0xe78e4c>
     4bc:	0b390b3b 	bleq	e431b0 <__bss_end__+0xe38330>
     4c0:	13491927 	movtne	r1, #39207	; 0x9927
     4c4:	00000b20 	andeq	r0, r0, r0, lsr #22
     4c8:	03012e2f 	movweq	r2, #7727	; 0x1e2f
     4cc:	3b0b3a0e 	blcc	2ced0c <__bss_end__+0x2c3e8c>
     4d0:	270b390b 	strcs	r3, [fp, -fp, lsl #18]
     4d4:	20134919 	andscs	r4, r3, r9, lsl r9
     4d8:	0013010b 	andseq	r0, r3, fp, lsl #2
     4dc:	002e3000 	eoreq	r3, lr, r0
     4e0:	01111331 	tsteq	r1, r1, lsr r3
     4e4:	18400612 	stmdane	r0, {r1, r4, r9, sl}^
     4e8:	00194297 	mulseq	r9, r7, r2
     4ec:	012e3100 			; <UNDEFINED> instruction: 0x012e3100
     4f0:	01111331 	tsteq	r1, r1, lsr r3
     4f4:	18400612 	stmdane	r0, {r1, r4, r9, sl}^
     4f8:	01194297 			; <UNDEFINED> instruction: 0x01194297
     4fc:	32000013 	andcc	r0, r0, #19, 0
     500:	13310005 	teqne	r1, #5, 0
     504:	00001802 	andeq	r1, r0, r2, lsl #16
     508:	31011d33 	tstcc	r1, r3, lsr sp
     50c:	b8015213 	stmdalt	r1, {r0, r1, r4, r9, ip, lr}
     510:	01110b42 	tsteq	r1, r2, asr #22
     514:	0b580612 	bleq	1601d64 <__bss_end__+0x15f6ee4>
     518:	0b570b59 	bleq	15c3284 <__bss_end__+0x15b8404>
     51c:	2e340000 	cdpcs	0, 3, cr0, cr4, cr0, {0}
     520:	3c193f00 	ldccc	15, cr3, [r9], {-0}
     524:	030e6e19 	movweq	r6, #60953	; 0xee19
     528:	3b0b3a0e 	blcc	2ced68 <__bss_end__+0x2c3ee8>
     52c:	000b390b 	andeq	r3, fp, fp, lsl #18
     530:	11010000 	mrsne	r0, (UNDEF: 1)
     534:	130e2501 	movwne	r2, #58625	; 0xe501
     538:	1b0e030b 	blne	38116c <__bss_end__+0x3762ec>
     53c:	1201110e 	andne	r1, r1, #-2147483645	; 0x80000003
     540:	00171006 	andseq	r1, r7, r6
     544:	00240200 	eoreq	r0, r4, r0, lsl #4
     548:	0b3e0b0b 	bleq	f8317c <__bss_end__+0xf782fc>
     54c:	00000803 	andeq	r0, r0, r3, lsl #16
     550:	0b002403 	bleq	9564 <va_printk+0x57c>
     554:	030b3e0b 	movweq	r3, #48651	; 0xbe0b
     558:	0400000e 	streq	r0, [r0], #-14
     55c:	19270115 	stmdbne	r7!, {r0, r2, r4, r8}
     560:	13011349 	movwne	r1, #4937	; 0x1349
     564:	05050000 	streq	r0, [r5, #-0]
     568:	00134900 	andseq	r4, r3, r0, lsl #18
     56c:	00340600 	eorseq	r0, r4, r0, lsl #12
     570:	0b3a0e03 	bleq	e83d84 <__bss_end__+0xe78f04>
     574:	0b390b3b 	bleq	e43268 <__bss_end__+0xe383e8>
     578:	193f1349 	ldmdbne	pc!, {r0, r3, r6, r8, r9, ip}	; <UNPREDICTABLE>
     57c:	0000193c 	andeq	r1, r0, ip, lsr r9
     580:	0b000f07 	bleq	41a4 <__code_start__-0x3e5c>
     584:	0013490b 	andseq	r4, r3, fp, lsl #18
     588:	00260800 	eoreq	r0, r6, r0, lsl #16
     58c:	00001349 	andeq	r1, r0, r9, asr #6
     590:	03011709 	movweq	r1, #5897	; 0x1709
     594:	3a0b0b0e 	bcc	2c31d4 <__bss_end__+0x2b8354>
     598:	390b3b0b 	stmdbcc	fp, {r0, r1, r3, r8, r9, fp, ip, sp}
     59c:	0013010b 	andseq	r0, r3, fp, lsl #2
     5a0:	000d0a00 	andeq	r0, sp, r0, lsl #20
     5a4:	0b3a0803 	bleq	e825b8 <__bss_end__+0xe77738>
     5a8:	0b390b3b 	bleq	e4329c <__bss_end__+0xe3841c>
     5ac:	00001349 	andeq	r1, r0, r9, asr #6
     5b0:	0b000f0b 	bleq	41e4 <__code_start__-0x3e1c>
     5b4:	0c00000b 	stceq	0, cr0, [r0], {11}
     5b8:	19270015 	stmdbne	r7!, {r0, r2, r4}
     5bc:	130d0000 	movwne	r0, #53248	; 0xd000
     5c0:	3a0b0b01 	bcc	2c31cc <__bss_end__+0x2b834c>
     5c4:	390b3b0b 	stmdbcc	fp, {r0, r1, r3, r8, r9, fp, ip, sp}
     5c8:	0013010b 	andseq	r0, r3, fp, lsl #2
     5cc:	000d0e00 	andeq	r0, sp, r0, lsl #28
     5d0:	0b3a0803 	bleq	e825e4 <__bss_end__+0xe77764>
     5d4:	0b390b3b 	bleq	e432c8 <__bss_end__+0xe38448>
     5d8:	0b381349 	bleq	e05304 <__bss_end__+0xdfa484>
     5dc:	0d0f0000 	stceq	0, cr0, [pc, #-0]	; 5e4 <__code_start__-0x7a1c>
     5e0:	3a0e0300 	bcc	3811e8 <__bss_end__+0x376368>
     5e4:	390b3b0b 	stmdbcc	fp, {r0, r1, r3, r8, r9, fp, ip, sp}
     5e8:	3813490b 	ldmdacc	r3, {r0, r1, r3, r8, fp, lr}
     5ec:	1000000b 	andne	r0, r0, fp
     5f0:	0e030016 	mcreq	0, 0, r0, cr3, cr6, {0}
     5f4:	0b3b0b3a 	bleq	ec32e4 <__bss_end__+0xeb8464>
     5f8:	13490b39 	movtne	r0, #39737	; 0x9b39
     5fc:	34110000 	ldrcc	r0, [r1], #-0
     600:	3a0e0300 	bcc	381208 <__bss_end__+0x376388>
     604:	390b3b0b 	stmdbcc	fp, {r0, r1, r3, r8, r9, fp, ip, sp}
     608:	0213490b 	andseq	r4, r3, #180224	; 0x2c000
     60c:	12000018 	andne	r0, r0, #24, 0
     610:	193f012e 	ldmdbne	pc!, {r1, r2, r3, r5, r8}	; <UNPREDICTABLE>
     614:	0b3a0e03 	bleq	e83e28 <__bss_end__+0xe78fa8>
     618:	0b390b3b 	bleq	e4330c <__bss_end__+0xe3848c>
     61c:	01111927 	tsteq	r1, r7, lsr #18
     620:	18400612 	stmdane	r0, {r1, r4, r9, sl}^
     624:	01194297 			; <UNDEFINED> instruction: 0x01194297
     628:	13000013 	movwne	r0, #19
     62c:	08030005 	stmdaeq	r3, {r0, r2}
     630:	0b3b0b3a 	bleq	ec3320 <__bss_end__+0xeb84a0>
     634:	13490b39 	movtne	r0, #39737	; 0x9b39
     638:	42b71702 	adcsmi	r1, r7, #524288	; 0x80000
     63c:	14000017 	strne	r0, [r0], #-23	; 0xffffffe9
     640:	08030034 	stmdaeq	r3, {r2, r4, r5}
     644:	0b3b0b3a 	bleq	ec3334 <__bss_end__+0xeb84b4>
     648:	13490b39 	movtne	r0, #39737	; 0x9b39
     64c:	42b71702 	adcsmi	r1, r7, #524288	; 0x80000
     650:	15000017 	strne	r0, [r0, #-23]	; 0xffffffe9
     654:	193f012e 	ldmdbne	pc!, {r1, r2, r3, r5, r8}	; <UNPREDICTABLE>
     658:	0b3a0e03 	bleq	e83e6c <__bss_end__+0xe78fec>
     65c:	0b390b3b 	bleq	e43350 <__bss_end__+0xe384d0>
     660:	13491927 	movtne	r1, #39207	; 0x9927
     664:	06120111 			; <UNDEFINED> instruction: 0x06120111
     668:	42971840 	addsmi	r1, r7, #64, 16	; 0x400000
     66c:	00130119 	andseq	r0, r3, r9, lsl r1
     670:	00051600 	andeq	r1, r5, r0, lsl #12
     674:	0b3a0e03 	bleq	e83e88 <__bss_end__+0xe79008>
     678:	0b390b3b 	bleq	e4336c <__bss_end__+0xe384ec>
     67c:	17021349 	strne	r1, [r2, -r9, asr #6]
     680:	001742b7 			; <UNDEFINED> instruction: 0x001742b7
     684:	00341700 	eorseq	r1, r4, r0, lsl #14
     688:	0b3a0e03 	bleq	e83e9c <__bss_end__+0xe7901c>
     68c:	0b390b3b 	bleq	e43380 <__bss_end__+0xe38500>
     690:	17021349 	strne	r1, [r2, -r9, asr #6]
     694:	001742b7 			; <UNDEFINED> instruction: 0x001742b7
     698:	011d1800 	tsteq	sp, r0, lsl #16
     69c:	01521331 	cmpeq	r2, r1, lsr r3
     6a0:	550b42b8 	strpl	r4, [fp, #-696]	; 0xfffffd48
     6a4:	590b5817 	stmdbpl	fp, {r0, r1, r2, r4, fp, ip, lr}
     6a8:	000b570b 	andeq	r5, fp, fp, lsl #14
     6ac:	00051900 	andeq	r1, r5, r0, lsl #18
     6b0:	17021331 	smladxne	r2, r1, r3, r1
     6b4:	001742b7 			; <UNDEFINED> instruction: 0x001742b7
     6b8:	010b1a00 	tsteq	fp, r0, lsl #20
     6bc:	00001755 	andeq	r1, r0, r5, asr r7
     6c0:	3100341b 	tstcc	r0, fp, lsl r4
     6c4:	b7170213 			; <UNDEFINED> instruction: 0xb7170213
     6c8:	00001742 	andeq	r1, r0, r2, asr #14
     6cc:	0182891c 	orreq	r8, r2, ip, lsl r9
     6d0:	31011101 	tstcc	r1, r1, lsl #2
     6d4:	00130113 	andseq	r0, r3, r3, lsl r1
     6d8:	828a1d00 	addhi	r1, sl, #0, 26
     6dc:	18020001 	stmdane	r2, {r0}
     6e0:	00184291 	mulseq	r8, r1, r2
     6e4:	82891e00 	addhi	r1, r9, #0, 28
     6e8:	01110001 	tsteq	r1, r1
     6ec:	00001331 	andeq	r1, r0, r1, lsr r3
     6f0:	03012e1f 	movweq	r2, #7711	; 0x1e1f
     6f4:	3b0b3a0e 	blcc	2cef34 <__bss_end__+0x2c40b4>
     6f8:	270b390b 	strcs	r3, [fp, -fp, lsl #18]
     6fc:	20134919 	andscs	r4, r3, r9, lsl r9
     700:	0013010b 	andseq	r0, r3, fp, lsl #2
     704:	00052000 	andeq	r2, r5, r0
     708:	0b3a0803 	bleq	e8271c <__bss_end__+0xe7789c>
     70c:	0b390b3b 	bleq	e43400 <__bss_end__+0xe38580>
     710:	00001349 	andeq	r1, r0, r9, asr #6
     714:	03003421 	movweq	r3, #1057	; 0x421
     718:	3b0b3a08 	blcc	2cef40 <__bss_end__+0x2c40c0>
     71c:	490b390b 	stmdbmi	fp, {r0, r1, r3, r8, fp, ip, sp}
     720:	22000013 	andcs	r0, r0, #19, 0
     724:	193f002e 	ldmdbne	pc!, {r1, r2, r3, r5}	; <UNPREDICTABLE>
     728:	0e6e193c 			; <UNDEFINED> instruction: 0x0e6e193c
     72c:	0b3a0e03 	bleq	e83f40 <__bss_end__+0xe790c0>
     730:	0b390b3b 	bleq	e43424 <__bss_end__+0xe385a4>
     734:	01000000 	mrseq	r0, (UNDEF: 0)
     738:	0e250111 	mcreq	1, 1, r0, cr5, cr1, {0}
     73c:	0e030b13 	vmoveq.32	d3[0], r0
     740:	01110e1b 	tsteq	r1, fp, lsl lr
     744:	17100612 			; <UNDEFINED> instruction: 0x17100612
     748:	24020000 	strcs	r0, [r2], #-0
     74c:	3e0b0b00 	vmlacc.f64	d0, d11, d0
     750:	0008030b 	andeq	r0, r8, fp, lsl #6
     754:	00240300 	eoreq	r0, r4, r0, lsl #6
     758:	0b3e0b0b 	bleq	f8338c <__bss_end__+0xf7850c>
     75c:	00000e03 	andeq	r0, r0, r3, lsl #28
     760:	03001604 	movweq	r1, #1540	; 0x604
     764:	3b0b3a0e 	blcc	2cefa4 <__bss_end__+0x2c4124>
     768:	490b390b 	stmdbmi	fp, {r0, r1, r3, r8, fp, ip, sp}
     76c:	05000013 	streq	r0, [r0, #-19]	; 0xffffffed
     770:	19270115 	stmdbne	r7!, {r0, r2, r4, r8}
     774:	13011349 	movwne	r1, #4937	; 0x1349
     778:	05060000 	streq	r0, [r6, #-0]
     77c:	00134900 	andseq	r4, r3, r0, lsl #18
     780:	00340700 	eorseq	r0, r4, r0, lsl #14
     784:	0b3a0e03 	bleq	e83f98 <__bss_end__+0xe79118>
     788:	0b390b3b 	bleq	e4347c <__bss_end__+0xe385fc>
     78c:	193f1349 	ldmdbne	pc!, {r0, r3, r6, r8, r9, ip}	; <UNPREDICTABLE>
     790:	0000193c 	andeq	r1, r0, ip, lsr r9
     794:	0b000f08 	bleq	43bc <__code_start__-0x3c44>
     798:	0013490b 	andseq	r4, r3, fp, lsl #18
     79c:	00260900 	eoreq	r0, r6, r0, lsl #18
     7a0:	00001349 	andeq	r1, r0, r9, asr #6
     7a4:	0b01130a 	bleq	453d4 <__bss_end__+0x3a554>
     7a8:	3b0b3a0b 	blcc	2cefdc <__bss_end__+0x2c415c>
     7ac:	010b390b 	tsteq	fp, fp, lsl #18
     7b0:	0b000013 	bleq	804 <__code_start__-0x77fc>
     7b4:	0e03000d 	cdpeq	0, 0, cr0, cr3, cr13, {0}
     7b8:	0b3b0b3a 	bleq	ec34a8 <__bss_end__+0xeb8628>
     7bc:	13490b39 	movtne	r0, #39737	; 0x9b39
     7c0:	00000b38 	andeq	r0, r0, r8, lsr fp
     7c4:	3e01040c 	cdpcc	4, 0, cr0, cr1, cr12, {0}
     7c8:	490b0b0b 	stmdbmi	fp, {r0, r1, r3, r8, r9, fp}
     7cc:	3b0b3a13 	blcc	2cf020 <__bss_end__+0x2c41a0>
     7d0:	010b390b 	tsteq	fp, fp, lsl #18
     7d4:	0d000013 	stceq	0, cr0, [r0, #-76]	; 0xffffffb4
     7d8:	0e030028 	cdpeq	0, 0, cr0, cr3, cr8, {1}
     7dc:	00000b1c 	andeq	r0, r0, ip, lsl fp
     7e0:	0301130e 	movweq	r1, #4878	; 0x130e
     7e4:	3a0b0b0e 	bcc	2c3424 <__bss_end__+0x2b85a4>
     7e8:	390b3b0b 	stmdbcc	fp, {r0, r1, r3, r8, r9, fp, ip, sp}
     7ec:	0013010b 	andseq	r0, r3, fp, lsl #2
     7f0:	000d0f00 	andeq	r0, sp, r0, lsl #30
     7f4:	0b3a0803 	bleq	e82808 <__bss_end__+0xe77988>
     7f8:	0b390b3b 	bleq	e434ec <__bss_end__+0xe3866c>
     7fc:	0b381349 	bleq	e05528 <__bss_end__+0xdfa6a8>
     800:	01100000 	tsteq	r0, r0
     804:	01134901 	tsteq	r3, r1, lsl #18
     808:	11000013 	tstne	r0, r3, lsl r0
     80c:	13490021 	movtne	r0, #36897	; 0x9021
     810:	00000b2f 	andeq	r0, r0, pc, lsr #22
     814:	0b000f12 	bleq	4464 <__code_start__-0x3b9c>
     818:	1300000b 	movwne	r0, #11
     81c:	0e030034 	mcreq	0, 0, r0, cr3, cr4, {1}
     820:	0b3b0b3a 	bleq	ec3510 <__bss_end__+0xeb8690>
     824:	13490b39 	movtne	r0, #39737	; 0x9b39
     828:	00001802 	andeq	r1, r0, r2, lsl #16
     82c:	3f012e14 	svccc	0x00012e14
     830:	3a0e0319 	bcc	38149c <__bss_end__+0x37661c>
     834:	39053b0b 	stmdbcc	r5, {r0, r1, r3, r8, r9, fp, ip, sp}
     838:	1119270b 	tstne	r9, fp, lsl #14
     83c:	40061201 	andmi	r1, r6, r1, lsl #4
     840:	19429718 	stmdbne	r2, {r3, r4, r8, r9, sl, ip, pc}^
     844:	00001301 	andeq	r1, r0, r1, lsl #6
     848:	03003415 	movweq	r3, #1045	; 0x415
     84c:	3413490e 	ldrcc	r4, [r3], #-2318	; 0xfffff6f2
     850:	00180219 	andseq	r0, r8, r9, lsl r2
     854:	82891600 	addhi	r1, r9, #0, 12
     858:	01110101 	tsteq	r1, r1, lsl #2
     85c:	13011331 	movwne	r1, #4913	; 0x1331
     860:	8a170000 	bhi	5c0868 <__bss_end__+0x5b59e8>
     864:	02000182 	andeq	r0, r0, #-2147483616	; 0x80000020
     868:	18429118 	stmdane	r2, {r3, r4, r8, ip, pc}^
     86c:	89180000 	ldmdbhi	r8, {}	; <UNPREDICTABLE>
     870:	11000182 	smlabbne	r0, r2, r1, r0
     874:	00133101 	andseq	r3, r3, r1, lsl #2
     878:	012e1900 			; <UNDEFINED> instruction: 0x012e1900
     87c:	0e03193f 			; <UNDEFINED> instruction: 0x0e03193f
     880:	053b0b3a 	ldreq	r0, [fp, #-2874]!	; 0xfffff4c6
     884:	19270b39 	stmdbne	r7!, {r0, r3, r4, r5, r8, r9, fp}
     888:	01111349 	tsteq	r1, r9, asr #6
     88c:	18400612 	stmdane	r0, {r1, r4, r9, sl}^
     890:	01194297 			; <UNDEFINED> instruction: 0x01194297
     894:	1a000013 	bne	8e8 <__code_start__-0x7718>
     898:	0e030034 	mcreq	0, 0, r0, cr3, cr4, {1}
     89c:	053b0b3a 	ldreq	r0, [fp, #-2874]!	; 0xfffff4c6
     8a0:	13490b39 	movtne	r0, #39737	; 0x9b39
     8a4:	42b71702 	adcsmi	r1, r7, #524288	; 0x80000
     8a8:	1b000017 	blne	90c <__code_start__-0x76f4>
     8ac:	1331011d 	teqne	r1, #1073741831	; 0x40000007
     8b0:	42b80152 	adcsmi	r0, r8, #-2147483628	; 0x80000014
     8b4:	5817550b 	ldmdapl	r7, {r0, r1, r3, r8, sl, ip, lr}
     8b8:	5705590b 	strpl	r5, [r5, -fp, lsl #18]
     8bc:	0013010b 	andseq	r0, r3, fp, lsl #2
     8c0:	010b1c00 	tsteq	fp, r0, lsl #24
     8c4:	00001755 	andeq	r1, r0, r5, asr r7
     8c8:	3100341d 	tstcc	r0, sp, lsl r4
     8cc:	b7170213 			; <UNDEFINED> instruction: 0xb7170213
     8d0:	00001742 	andeq	r1, r0, r2, asr #14
     8d4:	31010b1e 	tstcc	r1, lr, lsl fp
     8d8:	01175513 	tsteq	r7, r3, lsl r5
     8dc:	1f000013 	svcne	0x00000013
     8e0:	13310005 	teqne	r1, #5, 0
     8e4:	42b71702 	adcsmi	r1, r7, #524288	; 0x80000
     8e8:	20000017 	andcs	r0, r0, r7, lsl r0
     8ec:	01018289 	smlabbeq	r1, r9, r2, r8
     8f0:	13310111 	teqne	r1, #1073741828	; 0x40000004
     8f4:	2e210000 	cdpcs	0, 2, cr0, cr1, cr0, {0}
     8f8:	3a0e0301 	bcc	381504 <__bss_end__+0x376684>
     8fc:	390b3b0b 	stmdbcc	fp, {r0, r1, r3, r8, r9, fp, ip, sp}
     900:	4919270b 	ldmdbmi	r9, {r0, r1, r3, r8, r9, sl, sp}
     904:	010b2013 	tsteq	fp, r3, lsl r0
     908:	22000013 	andcs	r0, r0, #19, 0
     90c:	0e030034 	mcreq	0, 0, r0, cr3, cr4, {1}
     910:	0b3b0b3a 	bleq	ec3600 <__bss_end__+0xeb8780>
     914:	13490b39 	movtne	r0, #39737	; 0x9b39
     918:	0b230000 	bleq	8c0920 <__bss_end__+0x8b5aa0>
     91c:	24000001 	strcs	r0, [r0], #-1
     920:	08030034 	stmdaeq	r3, {r2, r4, r5}
     924:	0b3b0b3a 	bleq	ec3614 <__bss_end__+0xeb8794>
     928:	13490b39 	movtne	r0, #39737	; 0x9b39
     92c:	2e250000 	cdpcs	0, 2, cr0, cr5, cr0, {0}
     930:	03193f01 	tsteq	r9, #1, 30
     934:	3b0b3a0e 	blcc	2cf174 <__bss_end__+0x2c42f4>
     938:	270b390b 	strcs	r3, [fp, -fp, lsl #18]
     93c:	11134919 	tstne	r3, r9, lsl r9
     940:	40061201 	andmi	r1, r6, r1, lsl #4
     944:	19429718 	stmdbne	r2, {r3, r4, r8, r9, sl, ip, pc}^
     948:	00001301 	andeq	r1, r0, r1, lsl #6
     94c:	03003426 	movweq	r3, #1062	; 0x426
     950:	3b0b3a0e 	blcc	2cf190 <__bss_end__+0x2c4310>
     954:	490b390b 	stmdbmi	fp, {r0, r1, r3, r8, fp, ip, sp}
     958:	b7170213 			; <UNDEFINED> instruction: 0xb7170213
     95c:	00001742 	andeq	r1, r0, r2, asr #14
     960:	31011d27 	tstcc	r1, r7, lsr #26
     964:	b8015213 	stmdalt	r1, {r0, r1, r4, r9, ip, lr}
     968:	01110b42 	tsteq	r1, r2, asr #22
     96c:	0b580612 	bleq	16021bc <__bss_end__+0x15f733c>
     970:	0b570b59 	bleq	15c36dc <__bss_end__+0x15b885c>
     974:	00001301 	andeq	r1, r0, r1, lsl #6
     978:	3f012e28 	svccc	0x00012e28
     97c:	3a0e0319 	bcc	3815e8 <__bss_end__+0x376768>
     980:	390b3b0b 	stmdbcc	fp, {r0, r1, r3, r8, r9, fp, ip, sp}
     984:	1119270b 	tstne	r9, fp, lsl #14
     988:	40061201 	andmi	r1, r6, r1, lsl #4
     98c:	19429718 	stmdbne	r2, {r3, r4, r8, r9, sl, ip, pc}^
     990:	00001301 	andeq	r1, r0, r1, lsl #6
     994:	3f012e29 	svccc	0x00012e29
     998:	3a0e0319 	bcc	381604 <__bss_end__+0x376784>
     99c:	390b3b0b 	stmdbcc	fp, {r0, r1, r3, r8, r9, fp, ip, sp}
     9a0:	4919270b 	ldmdbmi	r9, {r0, r1, r3, r8, r9, sl, sp}
     9a4:	010b2013 	tsteq	fp, r3, lsl r0
     9a8:	2a000013 	bcs	9fc <__code_start__-0x7604>
     9ac:	0e030005 	cdpeq	0, 0, cr0, cr3, cr5, {0}
     9b0:	0b3b0b3a 	bleq	ec36a0 <__bss_end__+0xeb8820>
     9b4:	13490b39 	movtne	r0, #39737	; 0x9b39
     9b8:	2e2b0000 	cdpcs	0, 2, cr0, cr11, cr0, {0}
     9bc:	3a0e0301 	bcc	3815c8 <__bss_end__+0x376748>
     9c0:	390b3b0b 	stmdbcc	fp, {r0, r1, r3, r8, r9, fp, ip, sp}
     9c4:	4919270b 	ldmdbmi	r9, {r0, r1, r3, r8, r9, sl, sp}
     9c8:	12011113 	andne	r1, r1, #-1073741820	; 0xc0000004
     9cc:	97184006 	ldrls	r4, [r8, -r6]
     9d0:	13011942 	movwne	r1, #6466	; 0x1942
     9d4:	052c0000 	streq	r0, [ip, #-0]!
     9d8:	3a0e0300 	bcc	3815e0 <__bss_end__+0x376760>
     9dc:	390b3b0b 	stmdbcc	fp, {r0, r1, r3, r8, r9, fp, ip, sp}
     9e0:	0213490b 	andseq	r4, r3, #180224	; 0x2c000
     9e4:	1742b717 	smlaldne	fp, r2, r7, r7
     9e8:	0b2d0000 	bleq	b409f0 <__bss_end__+0xb35b70>
     9ec:	01175501 	tsteq	r7, r1, lsl #10
     9f0:	2e000013 	mcrcs	0, 0, r0, cr0, cr3, {0}
     9f4:	08030034 	stmdaeq	r3, {r2, r4, r5}
     9f8:	0b3b0b3a 	bleq	ec36e8 <__bss_end__+0xeb8868>
     9fc:	13490b39 	movtne	r0, #39737	; 0x9b39
     a00:	42b71702 	adcsmi	r1, r7, #524288	; 0x80000
     a04:	2f000017 	svccs	0x00000017
     a08:	0e03012e 	adfeqsp	f0, f3, #0.5
     a0c:	0b3b0b3a 	bleq	ec36fc <__bss_end__+0xeb887c>
     a10:	19270b39 	stmdbne	r7!, {r0, r3, r4, r5, r8, r9, fp}
     a14:	06120111 			; <UNDEFINED> instruction: 0x06120111
     a18:	42971840 	addsmi	r1, r7, #64, 16	; 0x400000
     a1c:	00130119 	andseq	r0, r3, r9, lsl r1
     a20:	00343000 	eorseq	r3, r4, r0
     a24:	0b3a0e03 	bleq	e84238 <__bss_end__+0xe793b8>
     a28:	0b390b3b 	bleq	e4371c <__bss_end__+0xe3889c>
     a2c:	061c1349 	ldreq	r1, [ip], -r9, asr #6
     a30:	2e310000 	cdpcs	0, 3, cr0, cr1, cr0, {0}
     a34:	3a0e0301 	bcc	381640 <__bss_end__+0x3767c0>
     a38:	390b3b0b 	stmdbcc	fp, {r0, r1, r3, r8, r9, fp, ip, sp}
     a3c:	2019270b 	andscs	r2, r9, fp, lsl #14
     a40:	0013010b 	andseq	r0, r3, fp, lsl #2
     a44:	00053200 	andeq	r3, r5, r0, lsl #4
     a48:	0b3a0803 	bleq	e82a5c <__bss_end__+0xe77bdc>
     a4c:	0b390b3b 	bleq	e43740 <__bss_end__+0xe388c0>
     a50:	00001349 	andeq	r1, r0, r9, asr #6
     a54:	01828933 	orreq	r8, r2, r3, lsr r9
     a58:	95011101 	strls	r1, [r1, #-257]	; 0xfffffeff
     a5c:	13311942 	teqne	r1, #1081344	; 0x108000
     a60:	00001301 	andeq	r1, r0, r1, lsl #6
     a64:	31012e34 	tstcc	r1, r4, lsr lr
     a68:	12011113 	andne	r1, r1, #-1073741820	; 0xc0000004
     a6c:	97184006 	ldrls	r4, [r8, -r6]
     a70:	13011942 	movwne	r1, #6466	; 0x1942
     a74:	1d350000 	ldcne	0, cr0, [r5, #-0]
     a78:	55133101 	ldrpl	r3, [r3, #-257]	; 0xfffffeff
     a7c:	590b5817 	stmdbpl	fp, {r0, r1, r2, r4, fp, ip, lr}
     a80:	010b570b 	tsteq	fp, fp, lsl #14
     a84:	36000013 			; <UNDEFINED> instruction: 0x36000013
     a88:	13310005 	teqne	r1, #5, 0
     a8c:	0b370000 	bleq	dc0a94 <__bss_end__+0xdb5c14>
     a90:	55133101 	ldrpl	r3, [r3, #-257]	; 0xfffffeff
     a94:	38000017 	stmdacc	r0, {r0, r1, r2, r4}
     a98:	1331011d 	teqne	r1, #1073741831	; 0x40000007
     a9c:	42b80152 	adcsmi	r0, r8, #-2147483628	; 0x80000014
     aa0:	5817550b 	ldmdapl	r7, {r0, r1, r3, r8, sl, ip, lr}
     aa4:	570b590b 	strpl	r5, [fp, -fp, lsl #18]
     aa8:	3900000b 	stmdbcc	r0, {r0, r1, r3}
     aac:	1331011d 	teqne	r1, #1073741831	; 0x40000007
     ab0:	42b80152 	adcsmi	r0, r8, #-2147483628	; 0x80000014
     ab4:	5817550b 	ldmdapl	r7, {r0, r1, r3, r8, sl, ip, lr}
     ab8:	570b590b 	strpl	r5, [fp, -fp, lsl #18]
     abc:	0013010b 	andseq	r0, r3, fp, lsl #2
     ac0:	82893a00 	addhi	r3, r9, #0, 20
     ac4:	01110101 	tsteq	r1, r1, lsl #2
     ac8:	31194295 			; <UNDEFINED> instruction: 0x31194295
     acc:	3b000013 	blcc	b20 <__code_start__-0x74e0>
     ad0:	193f002e 	ldmdbne	pc!, {r1, r2, r3, r5}	; <UNPREDICTABLE>
     ad4:	0e6e193c 			; <UNDEFINED> instruction: 0x0e6e193c
     ad8:	0b3a0e03 	bleq	e842ec <__bss_end__+0xe7946c>
     adc:	0b390b3b 	bleq	e437d0 <__bss_end__+0xe38950>
     ae0:	363c0000 	ldrtcc	r0, [ip], -r0
     ae4:	00180200 	andseq	r0, r8, r0, lsl #4
     ae8:	11010000 	mrsne	r0, (UNDEF: 1)
     aec:	130e2501 	movwne	r2, #58625	; 0xe501
     af0:	1b0e030b 	blne	381724 <__bss_end__+0x3768a4>
     af4:	1201110e 	andne	r1, r1, #-2147483645	; 0x80000003
     af8:	00171006 	andseq	r1, r7, r6
     afc:	00240200 	eoreq	r0, r4, r0, lsl #4
     b00:	0b3e0b0b 	bleq	f83734 <__bss_end__+0xf788b4>
     b04:	00000803 	andeq	r0, r0, r3, lsl #16
     b08:	03001603 	movweq	r1, #1539	; 0x603
     b0c:	3b0b3a0e 	blcc	2cf34c <__bss_end__+0x2c44cc>
     b10:	490b390b 	stmdbmi	fp, {r0, r1, r3, r8, fp, ip, sp}
     b14:	04000013 	streq	r0, [r0], #-19	; 0xffffffed
     b18:	0b0b0024 	bleq	2c0bb0 <__bss_end__+0x2b5d30>
     b1c:	0e030b3e 	vmoveq.16	d3[0], r0
     b20:	15050000 	strne	r0, [r5, #-0]
     b24:	49192701 	ldmdbmi	r9, {r0, r8, r9, sl, sp}
     b28:	00130113 	andseq	r0, r3, r3, lsl r1
     b2c:	00050600 	andeq	r0, r5, r0, lsl #12
     b30:	00001349 	andeq	r1, r0, r9, asr #6
     b34:	03003407 	movweq	r3, #1031	; 0x407
     b38:	3b0b3a0e 	blcc	2cf378 <__bss_end__+0x2c44f8>
     b3c:	490b390b 	stmdbmi	fp, {r0, r1, r3, r8, fp, ip, sp}
     b40:	3c193f13 	ldccc	15, cr3, [r9], {19}
     b44:	08000019 	stmdaeq	r0, {r0, r3, r4}
     b48:	0b0b000f 	bleq	2c0b8c <__bss_end__+0x2b5d0c>
     b4c:	00001349 	andeq	r1, r0, r9, asr #6
     b50:	49002609 	stmdbmi	r0, {r0, r3, r9, sl, sp}
     b54:	0a000013 	beq	ba8 <__code_start__-0x7458>
     b58:	193f012e 	ldmdbne	pc!, {r1, r2, r3, r5, r8}	; <UNPREDICTABLE>
     b5c:	0b3a0e03 	bleq	e84370 <__bss_end__+0xe794f0>
     b60:	0b390b3b 	bleq	e43854 <__bss_end__+0xe389d4>
     b64:	13491927 	movtne	r1, #39207	; 0x9927
     b68:	06120111 			; <UNDEFINED> instruction: 0x06120111
     b6c:	42971840 	addsmi	r1, r7, #64, 16	; 0x400000
     b70:	00130119 	andseq	r0, r3, r9, lsl r1
     b74:	00050b00 	andeq	r0, r5, r0, lsl #22
     b78:	0b3a0803 	bleq	e82b8c <__bss_end__+0xe77d0c>
     b7c:	0b390b3b 	bleq	e43870 <__bss_end__+0xe389f0>
     b80:	18021349 	stmdane	r2, {r0, r3, r6, r8, r9, ip}
     b84:	050c0000 	streq	r0, [ip, #-0]
     b88:	3a080300 	bcc	201790 <__bss_end__+0x1f6910>
     b8c:	390b3b0b 	stmdbcc	fp, {r0, r1, r3, r8, r9, fp, ip, sp}
     b90:	0213490b 	andseq	r4, r3, #180224	; 0x2c000
     b94:	1742b717 	smlaldne	fp, r2, r7, r7
     b98:	340d0000 	strcc	r0, [sp], #-0
     b9c:	3a080300 	bcc	2017a4 <__bss_end__+0x1f6924>
     ba0:	390b3b0b 	stmdbcc	fp, {r0, r1, r3, r8, r9, fp, ip, sp}
     ba4:	0213490b 	andseq	r4, r3, #180224	; 0x2c000
     ba8:	1742b717 	smlaldne	fp, r2, r7, r7
     bac:	0f0e0000 	svceq	0x000e0000
     bb0:	000b0b00 	andeq	r0, fp, r0, lsl #22
     bb4:	11010000 	mrsne	r0, (UNDEF: 1)
     bb8:	130e2501 	movwne	r2, #58625	; 0xe501
     bbc:	1b0e030b 	blne	3817f0 <__bss_end__+0x376970>
     bc0:	1201110e 	andne	r1, r1, #-2147483645	; 0x80000003
     bc4:	00171006 	andseq	r1, r7, r6
     bc8:	00160200 	andseq	r0, r6, r0, lsl #4
     bcc:	0b3a0e03 	bleq	e843e0 <__bss_end__+0xe79560>
     bd0:	0b390b3b 	bleq	e438c4 <__bss_end__+0xe38a44>
     bd4:	00001349 	andeq	r1, r0, r9, asr #6
     bd8:	03011303 	movweq	r1, #4867	; 0x1303
     bdc:	3a0b0b0e 	bcc	2c381c <__bss_end__+0x2b899c>
     be0:	010b3b0b 	tsteq	fp, fp, lsl #22
     be4:	04000013 	streq	r0, [r0], #-19	; 0xffffffed
     be8:	0e03000d 	cdpeq	0, 0, cr0, cr3, cr13, {0}
     bec:	0b381349 	bleq	e05918 <__bss_end__+0xdfaa98>
     bf0:	00001934 	andeq	r1, r0, r4, lsr r9
     bf4:	0b000f05 	bleq	4810 <__code_start__-0x37f0>
     bf8:	0600000b 	streq	r0, [r0], -fp
     bfc:	0b0b0024 	bleq	2c0c94 <__bss_end__+0x2b5e14>
     c00:	08030b3e 	stmdaeq	r3, {r1, r2, r3, r4, r5, r8, r9, fp}
     c04:	24070000 	strcs	r0, [r7], #-0
     c08:	3e0b0b00 	vmlacc.f64	d0, d11, d0
     c0c:	000e030b 	andeq	r0, lr, fp, lsl #6
     c10:	01150800 	tsteq	r5, r0, lsl #16
     c14:	13491927 	movtne	r1, #39207	; 0x9927
     c18:	00001301 	andeq	r1, r0, r1, lsl #6
     c1c:	49000509 	stmdbmi	r0, {r0, r3, r8, sl}
     c20:	0a000013 	beq	c74 <__code_start__-0x738c>
     c24:	0e030034 	mcreq	0, 0, r0, cr3, cr4, {1}
     c28:	0b3b0b3a 	bleq	ec3918 <__bss_end__+0xeb8a98>
     c2c:	13490b39 	movtne	r0, #39737	; 0x9b39
     c30:	193c193f 	ldmdbne	ip!, {r0, r1, r2, r3, r4, r5, r8, fp, ip}
     c34:	0f0b0000 	svceq	0x000b0000
     c38:	490b0b00 	stmdbmi	fp, {r8, r9, fp}
     c3c:	0c000013 	stceq	0, cr0, [r0], {19}
     c40:	13490026 	movtne	r0, #36902	; 0x9026
     c44:	2e0d0000 	cdpcs	0, 0, cr0, cr13, cr0, {0}
     c48:	03193f01 	tsteq	r9, #1, 30
     c4c:	3b0b3a0e 	blcc	2cf48c <__bss_end__+0x2c460c>
     c50:	270b390b 	strcs	r3, [fp, -fp, lsl #18]
     c54:	11134919 	tstne	r3, r9, lsl r9
     c58:	40061201 	andmi	r1, r6, r1, lsl #4
     c5c:	19429718 	stmdbne	r2, {r3, r4, r8, r9, sl, ip, pc}^
     c60:	00001301 	andeq	r1, r0, r1, lsl #6
     c64:	0300050e 	movweq	r0, #1294	; 0x50e
     c68:	3b0b3a08 	blcc	2cf490 <__bss_end__+0x2c4610>
     c6c:	490b390b 	stmdbmi	fp, {r0, r1, r3, r8, fp, ip, sp}
     c70:	00180213 	andseq	r0, r8, r3, lsl r2
     c74:	00180f00 	andseq	r0, r8, r0, lsl #30
     c78:	34100000 	ldrcc	r0, [r0], #-0
     c7c:	3a080300 	bcc	201884 <__bss_end__+0x1f6a04>
     c80:	390b3b0b 	stmdbcc	fp, {r0, r1, r3, r8, r9, fp, ip, sp}
     c84:	0213490b 	andseq	r4, r3, #180224	; 0x2c000
     c88:	11000018 	tstne	r0, r8, lsl r0
     c8c:	0e030034 	mcreq	0, 0, r0, cr3, cr4, {1}
     c90:	0b3b0b3a 	bleq	ec3980 <__bss_end__+0xeb8b00>
     c94:	13490b39 	movtne	r0, #39737	; 0x9b39
     c98:	00001802 	andeq	r1, r0, r2, lsl #16
     c9c:	03003412 	movweq	r3, #1042	; 0x412
     ca0:	3b0b3a08 	blcc	2cf4c8 <__bss_end__+0x2c4648>
     ca4:	490b390b 	stmdbmi	fp, {r0, r1, r3, r8, fp, ip, sp}
     ca8:	b7170213 			; <UNDEFINED> instruction: 0xb7170213
     cac:	00001742 	andeq	r1, r0, r2, asr #14
     cb0:	01828913 	orreq	r8, r2, r3, lsl r9
     cb4:	31011101 	tstcc	r1, r1, lsl #2
     cb8:	00130113 	andseq	r0, r3, r3, lsl r1
     cbc:	828a1400 	addhi	r1, sl, #0, 8
     cc0:	18020001 	stmdane	r2, {r0}
     cc4:	00184291 	mulseq	r8, r1, r2
     cc8:	82891500 	addhi	r1, r9, #0, 10
     ccc:	01110101 	tsteq	r1, r1, lsl #2
     cd0:	01160000 	tsteq	r6, r0
     cd4:	01134901 	tsteq	r3, r1, lsl #18
     cd8:	17000013 	smladne	r0, r3, r0, r0
     cdc:	13490021 	movtne	r0, #36897	; 0x9021
     ce0:	0000052f 	andeq	r0, r0, pc, lsr #10
     ce4:	3f002e18 	svccc	0x00002e18
     ce8:	6e193c19 	mrcvs	12, 0, r3, cr9, cr9, {0}
     cec:	3a0e030e 	bcc	38192c <__bss_end__+0x376aac>
     cf0:	390b3b0b 	stmdbcc	fp, {r0, r1, r3, r8, r9, fp, ip, sp}
     cf4:	0000000b 	andeq	r0, r0, fp
     cf8:	25011101 	strcs	r1, [r1, #-257]	; 0xfffffeff
     cfc:	030b130e 	movweq	r1, #45838	; 0xb30e
     d00:	110e1b0e 	tstne	lr, lr, lsl #22
     d04:	10061201 	andne	r1, r6, r1, lsl #4
     d08:	02000017 	andeq	r0, r0, #23, 0
     d0c:	0b0b0024 	bleq	2c0da4 <__bss_end__+0x2b5f24>
     d10:	08030b3e 	stmdaeq	r3, {r1, r2, r3, r4, r5, r8, r9, fp}
     d14:	24030000 	strcs	r0, [r3], #-0
     d18:	3e0b0b00 	vmlacc.f64	d0, d11, d0
     d1c:	000e030b 	andeq	r0, lr, fp, lsl #6
     d20:	01150400 	tsteq	r5, r0, lsl #8
     d24:	13491927 	movtne	r1, #39207	; 0x9927
     d28:	00001301 	andeq	r1, r0, r1, lsl #6
     d2c:	49000505 	stmdbmi	r0, {r0, r2, r8, sl}
     d30:	06000013 			; <UNDEFINED> instruction: 0x06000013
     d34:	0e030034 	mcreq	0, 0, r0, cr3, cr4, {1}
     d38:	0b3b0b3a 	bleq	ec3a28 <__bss_end__+0xeb8ba8>
     d3c:	13490b39 	movtne	r0, #39737	; 0x9b39
     d40:	193c193f 	ldmdbne	ip!, {r0, r1, r2, r3, r4, r5, r8, fp, ip}
     d44:	0f070000 	svceq	0x00070000
     d48:	490b0b00 	stmdbmi	fp, {r8, r9, fp}
     d4c:	08000013 	stmdaeq	r0, {r0, r1, r4}
     d50:	13490026 	movtne	r0, #36902	; 0x9026
     d54:	34090000 	strcc	r0, [r9], #-0
     d58:	3a134700 	bcc	4d2960 <__bss_end__+0x4c7ae0>
     d5c:	390b3b0b 	stmdbcc	fp, {r0, r1, r3, r8, r9, fp, ip, sp}
     d60:	0018020b 	andseq	r0, r8, fp, lsl #4
     d64:	012e0a00 			; <UNDEFINED> instruction: 0x012e0a00
     d68:	0e03193f 			; <UNDEFINED> instruction: 0x0e03193f
     d6c:	0b3b0b3a 	bleq	ec3a5c <__bss_end__+0xeb8bdc>
     d70:	19270b39 	stmdbne	r7!, {r0, r3, r4, r5, r8, r9, fp}
     d74:	01111349 	tsteq	r1, r9, asr #6
     d78:	18400612 	stmdane	r0, {r1, r4, r9, sl}^
     d7c:	00194296 	mulseq	r9, r6, r2
     d80:	00050b00 	andeq	r0, r5, r0, lsl #22
     d84:	0b3a0803 	bleq	e82d98 <__bss_end__+0xe77f18>
     d88:	0b390b3b 	bleq	e43a7c <__bss_end__+0xe38bfc>
     d8c:	17021349 	strne	r1, [r2, -r9, asr #6]
     d90:	001742b7 			; <UNDEFINED> instruction: 0x001742b7
     d94:	11010000 	mrsne	r0, (UNDEF: 1)
     d98:	130e2501 	movwne	r2, #58625	; 0xe501
     d9c:	1b0e030b 	blne	3819d0 <__bss_end__+0x376b50>
     da0:	1201110e 	andne	r1, r1, #-2147483645	; 0x80000003
     da4:	00171006 	andseq	r1, r7, r6
     da8:	00240200 	eoreq	r0, r4, r0, lsl #4
     dac:	0b3e0b0b 	bleq	f839e0 <__bss_end__+0xf78b60>
     db0:	00000e03 	andeq	r0, r0, r3, lsl #28
     db4:	0b002403 	bleq	9dc8 <kmalloc_aligned+0xd4>
     db8:	030b3e0b 	movweq	r3, #48651	; 0xbe0b
     dbc:	04000008 	streq	r0, [r0], #-8
     dc0:	0e030016 	mcreq	0, 0, r0, cr3, cr6, {0}
     dc4:	0b3b0b3a 	bleq	ec3ab4 <__bss_end__+0xeb8c34>
     dc8:	13490b39 	movtne	r0, #39737	; 0x9b39
     dcc:	15050000 	strne	r0, [r5, #-0]
     dd0:	49192701 	ldmdbmi	r9, {r0, r8, r9, sl, sp}
     dd4:	00130113 	andseq	r0, r3, r3, lsl r1
     dd8:	00050600 	andeq	r0, r5, r0, lsl #12
     ddc:	00001349 	andeq	r1, r0, r9, asr #6
     de0:	03003407 	movweq	r3, #1031	; 0x407
     de4:	3b0b3a0e 	blcc	2cf624 <__bss_end__+0x2c47a4>
     de8:	490b390b 	stmdbmi	fp, {r0, r1, r3, r8, fp, ip, sp}
     dec:	3c193f13 	ldccc	15, cr3, [r9], {19}
     df0:	08000019 	stmdaeq	r0, {r0, r3, r4}
     df4:	0b0b000f 	bleq	2c0e38 <__bss_end__+0x2b5fb8>
     df8:	00001349 	andeq	r1, r0, r9, asr #6
     dfc:	49002609 	stmdbmi	r0, {r0, r3, r9, sl, sp}
     e00:	0a000013 	beq	e54 <__code_start__-0x71ac>
     e04:	0e030113 	mcreq	1, 0, r0, cr3, cr3, {0}
     e08:	0b3a0b0b 	bleq	e83a3c <__bss_end__+0xe78bbc>
     e0c:	13010b3b 	movwne	r0, #6971	; 0x1b3b
     e10:	0d0b0000 	stceq	0, cr0, [fp, #-0]
     e14:	490e0300 	stmdbmi	lr, {r8, r9}
     e18:	340b3813 	strcc	r3, [fp], #-2067	; 0xfffff7ed
     e1c:	0c000019 	stceq	0, cr0, [r0], {25}
     e20:	0b0b000f 	bleq	2c0e64 <__bss_end__+0x2b5fe4>
     e24:	2e0d0000 	cdpcs	0, 0, cr0, cr13, cr0, {0}
     e28:	03193f01 	tsteq	r9, #1, 30
     e2c:	3b0b3a0e 	blcc	2cf66c <__bss_end__+0x2c47ec>
     e30:	270b390b 	strcs	r3, [fp, -fp, lsl #18]
     e34:	11134919 	tstne	r3, r9, lsl r9
     e38:	40061201 	andmi	r1, r6, r1, lsl #4
     e3c:	19429718 	stmdbne	r2, {r3, r4, r8, r9, sl, ip, pc}^
     e40:	00001301 	andeq	r1, r0, r1, lsl #6
     e44:	0300050e 	movweq	r0, #1294	; 0x50e
     e48:	3b0b3a08 	blcc	2cf670 <__bss_end__+0x2c47f0>
     e4c:	490b390b 	stmdbmi	fp, {r0, r1, r3, r8, fp, ip, sp}
     e50:	b7170213 			; <UNDEFINED> instruction: 0xb7170213
     e54:	00001742 	andeq	r1, r0, r2, asr #14
     e58:	0300050f 	movweq	r0, #1295	; 0x50f
     e5c:	3b0b3a0e 	blcc	2cf69c <__bss_end__+0x2c481c>
     e60:	490b390b 	stmdbmi	fp, {r0, r1, r3, r8, fp, ip, sp}
     e64:	b7170213 			; <UNDEFINED> instruction: 0xb7170213
     e68:	00001742 	andeq	r1, r0, r2, asr #14
     e6c:	03003410 	movweq	r3, #1040	; 0x410
     e70:	3b0b3a08 	blcc	2cf698 <__bss_end__+0x2c4818>
     e74:	490b390b 	stmdbmi	fp, {r0, r1, r3, r8, fp, ip, sp}
     e78:	b7170213 			; <UNDEFINED> instruction: 0xb7170213
     e7c:	00001742 	andeq	r1, r0, r2, asr #14
     e80:	03003411 	movweq	r3, #1041	; 0x411
     e84:	3b0b3a0e 	blcc	2cf6c4 <__bss_end__+0x2c4844>
     e88:	490b390b 	stmdbmi	fp, {r0, r1, r3, r8, fp, ip, sp}
     e8c:	b7170213 			; <UNDEFINED> instruction: 0xb7170213
     e90:	00001742 	andeq	r1, r0, r2, asr #14
     e94:	03003412 	movweq	r3, #1042	; 0x412
     e98:	3413490e 	ldrcc	r4, [r3], #-2318	; 0xfffff6f2
     e9c:	00180219 	andseq	r0, r8, r9, lsl r2
     ea0:	010b1300 	mrseq	r1, (UNDEF: 59)
     ea4:	00001755 	andeq	r1, r0, r5, asr r7
     ea8:	03003414 	movweq	r3, #1044	; 0x414
     eac:	3b0b3a08 	blcc	2cf6d4 <__bss_end__+0x2c4854>
     eb0:	490b390b 	stmdbmi	fp, {r0, r1, r3, r8, fp, ip, sp}
     eb4:	00180213 	andseq	r0, r8, r3, lsl r2
     eb8:	00341500 	eorseq	r1, r4, r0, lsl #10
     ebc:	0b3a0e03 	bleq	e846d0 <__bss_end__+0xe79850>
     ec0:	0b390b3b 	bleq	e43bb4 <__bss_end__+0xe38d34>
     ec4:	18021349 	stmdane	r2, {r0, r3, r6, r8, r9, ip}
     ec8:	0b160000 	bleq	580ed0 <__bss_end__+0x576050>
     ecc:	01175501 	tsteq	r7, r1, lsl #10
     ed0:	17000013 	smladne	r0, r3, r0, r0
     ed4:	01018289 	smlabbeq	r1, r9, r2, r8
     ed8:	13310111 	teqne	r1, #1073741828	; 0x40000004
     edc:	00001301 	andeq	r1, r0, r1, lsl #6
     ee0:	01828a18 	orreq	r8, r2, r8, lsl sl
     ee4:	91180200 	tstls	r8, r0, lsl #4
     ee8:	00001842 	andeq	r1, r0, r2, asr #16
     eec:	01828919 	orreq	r8, r2, r9, lsl r9
     ef0:	31011100 	mrscc	r1, (UNDEF: 17)
     ef4:	1a000013 	bne	f48 <__code_start__-0x70b8>
     ef8:	1331011d 	teqne	r1, #1073741831	; 0x40000007
     efc:	42b80152 	adcsmi	r0, r8, #-2147483628	; 0x80000014
     f00:	58175505 	ldmdapl	r7, {r0, r2, r8, sl, ip, lr}
     f04:	570b590b 	strpl	r5, [fp, -fp, lsl #18]
     f08:	0013010b 	andseq	r0, r3, fp, lsl #2
     f0c:	00051b00 	andeq	r1, r5, r0, lsl #22
     f10:	17021331 	smladxne	r2, r1, r3, r1
     f14:	001742b7 			; <UNDEFINED> instruction: 0x001742b7
     f18:	00051c00 	andeq	r1, r5, r0, lsl #24
     f1c:	00001331 	andeq	r1, r0, r1, lsr r3
     f20:	3100341d 	tstcc	r0, sp, lsl r4
     f24:	00180213 	andseq	r0, r8, r3, lsl r2
     f28:	00341e00 	eorseq	r1, r4, r0, lsl #28
     f2c:	17021331 	smladxne	r2, r1, r3, r1
     f30:	001742b7 			; <UNDEFINED> instruction: 0x001742b7
     f34:	00341f00 	eorseq	r1, r4, r0, lsl #30
     f38:	00001331 	andeq	r1, r0, r1, lsr r3
     f3c:	31011d20 	tstcc	r1, r0, lsr #26
     f40:	b8015213 	stmdalt	r1, {r0, r1, r4, r9, ip, lr}
     f44:	17550542 	ldrbne	r0, [r5, -r2, asr #10]
     f48:	0b590b58 	bleq	1643cb0 <__bss_end__+0x1638e30>
     f4c:	00000b57 	andeq	r0, r0, r7, asr fp
     f50:	01828921 	orreq	r8, r2, r1, lsr #18
     f54:	01011101 	tsteq	r1, r1, lsl #2
     f58:	22000013 	andcs	r0, r0, #19, 0
     f5c:	13490101 	movtne	r0, #37121	; 0x9101
     f60:	00001301 	andeq	r1, r0, r1, lsl #6
     f64:	49002123 	stmdbmi	r0, {r0, r1, r5, r8, sp}
     f68:	000b2f13 	andeq	r2, fp, r3, lsl pc
     f6c:	012e2400 			; <UNDEFINED> instruction: 0x012e2400
     f70:	0b3a0e03 	bleq	e84784 <__bss_end__+0xe79904>
     f74:	0b390b3b 	bleq	e43c68 <__bss_end__+0xe38de8>
     f78:	13491927 	movtne	r1, #39207	; 0x9927
     f7c:	13010b20 	movwne	r0, #6944	; 0x1b20
     f80:	05250000 	streq	r0, [r5, #-0]!
     f84:	3a0e0300 	bcc	381b8c <__bss_end__+0x376d0c>
     f88:	390b3b0b 	stmdbcc	fp, {r0, r1, r3, r8, r9, fp, ip, sp}
     f8c:	0013490b 	andseq	r4, r3, fp, lsl #18
     f90:	00052600 	andeq	r2, r5, r0, lsl #12
     f94:	0b3a0803 	bleq	e82fa8 <__bss_end__+0xe78128>
     f98:	0b390b3b 	bleq	e43c8c <__bss_end__+0xe38e0c>
     f9c:	00001349 	andeq	r1, r0, r9, asr #6
     fa0:	03003427 	movweq	r3, #1063	; 0x427
     fa4:	3b0b3a08 	blcc	2cf7cc <__bss_end__+0x2c494c>
     fa8:	490b390b 	stmdbmi	fp, {r0, r1, r3, r8, fp, ip, sp}
     fac:	28000013 	stmdacs	r0, {r0, r1, r4}
     fb0:	0000010b 	andeq	r0, r0, fp, lsl #2
     fb4:	03003429 	movweq	r3, #1065	; 0x429
     fb8:	3b0b3a0e 	blcc	2cf7f8 <__bss_end__+0x2c4978>
     fbc:	490b390b 	stmdbmi	fp, {r0, r1, r3, r8, fp, ip, sp}
     fc0:	2a000013 	bcs	1014 <__code_start__-0x6fec>
     fc4:	0803012e 	stmdaeq	r3, {r1, r2, r3, r5, r8}
     fc8:	0b3b0b3a 	bleq	ec3cb8 <__bss_end__+0xeb8e38>
     fcc:	19270b39 	stmdbne	r7!, {r0, r3, r4, r5, r8, r9, fp}
     fd0:	0b201349 	bleq	805cfc <__bss_end__+0x7fae7c>
     fd4:	00001301 	andeq	r1, r0, r1, lsl #6
     fd8:	3f012e2b 	svccc	0x00012e2b
     fdc:	3a0e0319 	bcc	381c48 <__bss_end__+0x376dc8>
     fe0:	390b3b0b 	stmdbcc	fp, {r0, r1, r3, r8, r9, fp, ip, sp}
     fe4:	1119270b 	tstne	r9, fp, lsl #14
     fe8:	40061201 	andmi	r1, r6, r1, lsl #4
     fec:	19429718 	stmdbne	r2, {r3, r4, r8, r9, sl, ip, pc}^
     ff0:	00001301 	andeq	r1, r0, r1, lsl #6
     ff4:	31012e2c 	tstcc	r1, ip, lsr #28
     ff8:	12011113 	andne	r1, r1, #-1073741820	; 0xc0000004
     ffc:	97184006 	ldrls	r4, [r8, -r6]
    1000:	13011942 	movwne	r1, #6466	; 0x1942
    1004:	052d0000 	streq	r0, [sp, #-0]!
    1008:	02133100 	andseq	r3, r3, #0
    100c:	2e000018 	mcrcs	0, 0, r0, cr0, cr8, {0}
    1010:	13310005 	teqne	r1, #5, 0
    1014:	00000b1c 	andeq	r0, r0, ip, lsl fp
    1018:	31010b2f 	tstcc	r1, pc, lsr #22
    101c:	12011113 	andne	r1, r1, #-1073741820	; 0xc0000004
    1020:	00130106 	andseq	r0, r3, r6, lsl #2
    1024:	002e3000 	eoreq	r3, lr, r0
    1028:	193c193f 	ldmdbne	ip!, {r0, r1, r2, r3, r4, r5, r8, fp, ip}
    102c:	0e030e6e 	cdpeq	14, 0, cr0, cr3, cr14, {3}
    1030:	0b3b0b3a 	bleq	ec3d20 <__bss_end__+0xeb8ea0>
    1034:	00000b39 	andeq	r0, r0, r9, lsr fp
    1038:	01110100 	tsteq	r1, r0, lsl #2
    103c:	0b130e25 	bleq	4c48d8 <__bss_end__+0x4b9a58>
    1040:	0e1b0e03 	cdpeq	14, 1, cr0, cr11, cr3, {0}
    1044:	06120111 			; <UNDEFINED> instruction: 0x06120111
    1048:	00001710 	andeq	r1, r0, r0, lsl r7
    104c:	0b002402 	bleq	a05c <strcat+0x4>
    1050:	030b3e0b 	movweq	r3, #48651	; 0xbe0b
    1054:	03000008 	movweq	r0, #8
    1058:	0b0b0024 	bleq	2c10f0 <__bss_end__+0x2b6270>
    105c:	0e030b3e 	vmoveq.16	d3[0], r0
    1060:	15040000 	strne	r0, [r4, #-0]
    1064:	49192701 	ldmdbmi	r9, {r0, r8, r9, sl, sp}
    1068:	00130113 	andseq	r0, r3, r3, lsl r1
    106c:	00050500 	andeq	r0, r5, r0, lsl #10
    1070:	00001349 	andeq	r1, r0, r9, asr #6
    1074:	03003406 	movweq	r3, #1030	; 0x406
    1078:	3b0b3a0e 	blcc	2cf8b8 <__bss_end__+0x2c4a38>
    107c:	490b390b 	stmdbmi	fp, {r0, r1, r3, r8, fp, ip, sp}
    1080:	3c193f13 	ldccc	15, cr3, [r9], {19}
    1084:	07000019 	smladeq	r0, r9, r0, r0
    1088:	0b0b000f 	bleq	2c10cc <__bss_end__+0x2b624c>
    108c:	00001349 	andeq	r1, r0, r9, asr #6
    1090:	49002608 	stmdbmi	r0, {r3, r9, sl, sp}
    1094:	09000013 	stmdbeq	r0, {r0, r1, r4}
    1098:	193f012e 	ldmdbne	pc!, {r1, r2, r3, r5, r8}	; <UNPREDICTABLE>
    109c:	0b3a0e03 	bleq	e848b0 <__bss_end__+0xe79a30>
    10a0:	0b390b3b 	bleq	e43d94 <__bss_end__+0xe38f14>
    10a4:	01871927 	orreq	r1, r7, r7, lsr #18
    10a8:	12011119 	andne	r1, r1, #1073741830	; 0x40000006
    10ac:	97184006 	ldrls	r4, [r8, -r6]
    10b0:	13011942 	movwne	r1, #6466	; 0x1942
    10b4:	890a0000 	stmdbhi	sl, {}	; <UNPREDICTABLE>
    10b8:	11010182 	smlabbne	r1, r2, r1, r0
    10bc:	00130101 	andseq	r0, r3, r1, lsl #2
    10c0:	828a0b00 	addhi	r0, sl, #0, 22
    10c4:	18020001 	stmdane	r2, {r0}
    10c8:	00184291 	mulseq	r8, r1, r2
    10cc:	82890c00 	addhi	r0, r9, #0, 24
    10d0:	01110001 	tsteq	r1, r1
    10d4:	00001331 	andeq	r1, r0, r1, lsr r3
    10d8:	0182890d 	orreq	r8, r2, sp, lsl #18
    10dc:	31011101 	tstcc	r1, r1, lsl #2
    10e0:	00130113 	andseq	r0, r3, r3, lsl r1
    10e4:	002e0e00 	eoreq	r0, lr, r0, lsl #28
    10e8:	193c193f 	ldmdbne	ip!, {r0, r1, r2, r3, r4, r5, r8, fp, ip}
    10ec:	0e030e6e 	cdpeq	14, 0, cr0, cr3, cr14, {3}
    10f0:	0b3b0b3a 	bleq	ec3de0 <__bss_end__+0xeb8f60>
    10f4:	00000b39 	andeq	r0, r0, r9, lsr fp
    10f8:	01110100 	tsteq	r1, r0, lsl #2
    10fc:	0b130e25 	bleq	4c4998 <__bss_end__+0x4b9b18>
    1100:	0e1b0e03 	cdpeq	14, 1, cr0, cr11, cr3, {0}
    1104:	06120111 			; <UNDEFINED> instruction: 0x06120111
    1108:	00001710 	andeq	r1, r0, r0, lsl r7
    110c:	0b002402 	bleq	a11c <dmb+0x4>
    1110:	030b3e0b 	movweq	r3, #48651	; 0xbe0b
    1114:	03000008 	movweq	r0, #8
    1118:	0b0b0024 	bleq	2c11b0 <__bss_end__+0x2b6330>
    111c:	0e030b3e 	vmoveq.16	d3[0], r0
    1120:	15040000 	strne	r0, [r4, #-0]
    1124:	49192701 	ldmdbmi	r9, {r0, r8, r9, sl, sp}
    1128:	00130113 	andseq	r0, r3, r3, lsl r1
    112c:	00050500 	andeq	r0, r5, r0, lsl #10
    1130:	00001349 	andeq	r1, r0, r9, asr #6
    1134:	03003406 	movweq	r3, #1030	; 0x406
    1138:	3b0b3a0e 	blcc	2cf978 <__bss_end__+0x2c4af8>
    113c:	490b390b 	stmdbmi	fp, {r0, r1, r3, r8, fp, ip, sp}
    1140:	3c193f13 	ldccc	15, cr3, [r9], {19}
    1144:	07000019 	smladeq	r0, r9, r0, r0
    1148:	0b0b000f 	bleq	2c118c <__bss_end__+0x2b630c>
    114c:	00001349 	andeq	r1, r0, r9, asr #6
    1150:	49002608 	stmdbmi	r0, {r3, r9, sl, sp}
    1154:	09000013 	stmdbeq	r0, {r0, r1, r4}
    1158:	193f012e 	ldmdbne	pc!, {r1, r2, r3, r5, r8}	; <UNPREDICTABLE>
    115c:	0b3a0e03 	bleq	e84970 <__bss_end__+0xe79af0>
    1160:	0b390b3b 	bleq	e43e54 <__bss_end__+0xe38fd4>
    1164:	06120111 			; <UNDEFINED> instruction: 0x06120111
    1168:	42971840 	addsmi	r1, r7, #64, 16	; 0x400000
    116c:	00130119 	andseq	r0, r3, r9, lsl r1
    1170:	002e0a00 	eoreq	r0, lr, r0, lsl #20
    1174:	0e03193f 			; <UNDEFINED> instruction: 0x0e03193f
    1178:	0b3b0b3a 	bleq	ec3e68 <__bss_end__+0xeb8fe8>
    117c:	19270b39 	stmdbne	r7!, {r0, r3, r4, r5, r8, r9, fp}
    1180:	0000193c 	andeq	r1, r0, ip, lsr r9
    1184:	0300340b 	movweq	r3, #1035	; 0x40b
    1188:	3b0b3a08 	blcc	2cf9b0 <__bss_end__+0x2c4b30>
    118c:	490b390b 	stmdbmi	fp, {r0, r1, r3, r8, fp, ip, sp}
    1190:	b7170213 			; <UNDEFINED> instruction: 0xb7170213
    1194:	00001742 	andeq	r1, r0, r2, asr #14
    1198:	0300340c 	movweq	r3, #1036	; 0x40c
    119c:	3b0b3a0e 	blcc	2cf9dc <__bss_end__+0x2c4b5c>
    11a0:	490b390b 	stmdbmi	fp, {r0, r1, r3, r8, fp, ip, sp}
    11a4:	0d000013 	stceq	0, cr0, [r0, #-76]	; 0xffffffb4
    11a8:	0111010b 	tsteq	r1, fp, lsl #2
    11ac:	13010612 	movwne	r0, #5650	; 0x1612
    11b0:	890e0000 	stmdbhi	lr, {}	; <UNPREDICTABLE>
    11b4:	11000182 	smlabbne	r0, r2, r1, r0
    11b8:	00133101 	andseq	r3, r3, r1, lsl #2
    11bc:	002e0f00 	eoreq	r0, lr, r0, lsl #30
    11c0:	193c193f 	ldmdbne	ip!, {r0, r1, r2, r3, r4, r5, r8, fp, ip}
    11c4:	0e030e6e 	cdpeq	14, 0, cr0, cr3, cr14, {3}
    11c8:	053b0b3a 	ldreq	r0, [fp, #-2874]!	; 0xfffff4c6
    11cc:	00000b39 	andeq	r0, r0, r9, lsr fp
    11d0:	3f002e10 	svccc	0x00002e10
    11d4:	6e193c19 	mrcvs	12, 0, r3, cr9, cr9, {0}
    11d8:	3a0e030e 	bcc	381e18 <__bss_end__+0x376f98>
    11dc:	390b3b0b 	stmdbcc	fp, {r0, r1, r3, r8, r9, fp, ip, sp}
    11e0:	0000000b 	andeq	r0, r0, fp
    11e4:	25011101 	strcs	r1, [r1, #-257]	; 0xfffffeff
    11e8:	030b130e 	movweq	r1, #45838	; 0xb30e
    11ec:	110e1b0e 	tstne	lr, lr, lsl #22
    11f0:	10061201 	andne	r1, r6, r1, lsl #4
    11f4:	02000017 	andeq	r0, r0, #23, 0
    11f8:	0b0b0024 	bleq	2c1290 <__bss_end__+0x2b6410>
    11fc:	08030b3e 	stmdaeq	r3, {r1, r2, r3, r4, r5, r8, r9, fp}
    1200:	24030000 	strcs	r0, [r3], #-0
    1204:	3e0b0b00 	vmlacc.f64	d0, d11, d0
    1208:	000e030b 	andeq	r0, lr, fp, lsl #6
    120c:	01150400 	tsteq	r5, r0, lsl #8
    1210:	13491927 	movtne	r1, #39207	; 0x9927
    1214:	00001301 	andeq	r1, r0, r1, lsl #6
    1218:	49000505 	stmdbmi	r0, {r0, r2, r8, sl}
    121c:	06000013 			; <UNDEFINED> instruction: 0x06000013
    1220:	0e030034 	mcreq	0, 0, r0, cr3, cr4, {1}
    1224:	0b3b0b3a 	bleq	ec3f14 <__bss_end__+0xeb9094>
    1228:	13490b39 	movtne	r0, #39737	; 0x9b39
    122c:	193c193f 	ldmdbne	ip!, {r0, r1, r2, r3, r4, r5, r8, fp, ip}
    1230:	0f070000 	svceq	0x00070000
    1234:	490b0b00 	stmdbmi	fp, {r8, r9, fp}
    1238:	08000013 	stmdaeq	r0, {r0, r1, r4}
    123c:	13490026 	movtne	r0, #36902	; 0x9026
    1240:	2e090000 	cdpcs	0, 0, cr0, cr9, cr0, {0}
    1244:	03193f00 	tsteq	r9, #0, 30
    1248:	3b0b3a0e 	blcc	2cfa88 <__bss_end__+0x2c4c08>
    124c:	270b390b 	strcs	r3, [fp, -fp, lsl #18]
    1250:	12011119 	andne	r1, r1, #1073741830	; 0x40000006
    1254:	97184006 	ldrls	r4, [r8, -r6]
    1258:	00001942 	andeq	r1, r0, r2, asr #18
    125c:	01110100 	tsteq	r1, r0, lsl #2
    1260:	0b130e25 	bleq	4c4afc <__bss_end__+0x4b9c7c>
    1264:	0e1b0e03 	cdpeq	14, 1, cr0, cr11, cr3, {0}
    1268:	01111755 	tsteq	r1, r5, asr r7
    126c:	00001710 	andeq	r1, r0, r0, lsl r7
    1270:	0b002402 	bleq	a280 <__FUNCTION__.4026+0x30>
    1274:	030b3e0b 	movweq	r3, #48651	; 0xbe0b
    1278:	03000008 	movweq	r0, #8
    127c:	13490026 	movtne	r0, #36902	; 0x9026
    1280:	24040000 	strcs	r0, [r4], #-0
    1284:	3e0b0b00 	vmlacc.f64	d0, d11, d0
    1288:	000e030b 	andeq	r0, lr, fp, lsl #6
    128c:	01150500 	tsteq	r5, r0, lsl #10
    1290:	13491927 	movtne	r1, #39207	; 0x9927
    1294:	00001301 	andeq	r1, r0, r1, lsl #6
    1298:	49000506 	stmdbmi	r0, {r1, r2, r8, sl}
    129c:	07000013 	smladeq	r0, r3, r0, r0
    12a0:	0e030034 	mcreq	0, 0, r0, cr3, cr4, {1}
    12a4:	0b3b0b3a 	bleq	ec3f94 <__bss_end__+0xeb9114>
    12a8:	13490b39 	movtne	r0, #39737	; 0x9b39
    12ac:	193c193f 	ldmdbne	ip!, {r0, r1, r2, r3, r4, r5, r8, fp, ip}
    12b0:	0f080000 	svceq	0x00080000
    12b4:	490b0b00 	stmdbmi	fp, {r8, r9, fp}
    12b8:	09000013 	stmdbeq	r0, {r0, r1, r4}
    12bc:	0e030034 	mcreq	0, 0, r0, cr3, cr4, {1}
    12c0:	0b3b0b3a 	bleq	ec3fb0 <__bss_end__+0xeb9130>
    12c4:	13490b39 	movtne	r0, #39737	; 0x9b39
    12c8:	2e0a0000 	cdpcs	0, 0, cr0, cr10, cr0, {0}
    12cc:	03193f01 	tsteq	r9, #1, 30
    12d0:	3b0b3a0e 	blcc	2cfb10 <__bss_end__+0x2c4c90>
    12d4:	270b390b 	strcs	r3, [fp, -fp, lsl #18]
    12d8:	19018719 	stmdbne	r1, {r0, r3, r4, r8, r9, sl, pc}
    12dc:	06120111 			; <UNDEFINED> instruction: 0x06120111
    12e0:	42971840 	addsmi	r1, r7, #64, 16	; 0x400000
    12e4:	00130119 	andseq	r0, r3, r9, lsl r1
    12e8:	00340b00 	eorseq	r0, r4, r0, lsl #22
    12ec:	0b3a0e03 	bleq	e84b00 <__bss_end__+0xe79c80>
    12f0:	0b390b3b 	bleq	e43fe4 <__bss_end__+0xe39164>
    12f4:	061c1349 	ldreq	r1, [ip], -r9, asr #6
    12f8:	340c0000 	strcc	r0, [ip], #-0
    12fc:	3a0e0300 	bcc	381f04 <__bss_end__+0x377084>
    1300:	390b3b0b 	stmdbcc	fp, {r0, r1, r3, r8, r9, fp, ip, sp}
    1304:	1c13490b 			; <UNDEFINED> instruction: 0x1c13490b
    1308:	0d00000b 	stceq	0, cr0, [r0, #-44]	; 0xffffffd4
    130c:	1331011d 	teqne	r1, #1073741831	; 0x40000007
    1310:	42b80152 	adcsmi	r0, r8, #-2147483628	; 0x80000014
    1314:	5817550b 	ldmdapl	r7, {r0, r1, r3, r8, sl, ip, lr}
    1318:	570b590b 	strpl	r5, [fp, -fp, lsl #18]
    131c:	0013010b 	andseq	r0, r3, fp, lsl #2
    1320:	010b0e00 	tsteq	fp, r0, lsl #28
    1324:	00001755 	andeq	r1, r0, r5, asr r7
    1328:	3100340f 	tstcc	r0, pc, lsl #8
    132c:	b7170213 			; <UNDEFINED> instruction: 0xb7170213
    1330:	00001742 	andeq	r1, r0, r2, asr #14
    1334:	31011d10 	tstcc	r1, r0, lsl sp
    1338:	b8015213 	stmdalt	r1, {r0, r1, r4, r9, ip, lr}
    133c:	01110b42 	tsteq	r1, r2, asr #22
    1340:	0b580612 	bleq	1602b90 <__bss_end__+0x15f7d10>
    1344:	0b570b59 	bleq	15c40b0 <__bss_end__+0x15b9230>
    1348:	00001301 	andeq	r1, r0, r1, lsl #6
    134c:	01828911 	orreq	r8, r2, r1, lsl r9
    1350:	31011100 	mrscc	r1, (UNDEF: 17)
    1354:	12000013 	andne	r0, r0, #19, 0
    1358:	01018289 	smlabbeq	r1, r9, r2, r8
    135c:	13310111 	teqne	r1, #1073741828	; 0x40000004
    1360:	00001301 	andeq	r1, r0, r1, lsl #6
    1364:	01828a13 	orreq	r8, r2, r3, lsl sl
    1368:	91180200 	tstls	r8, r0, lsl #4
    136c:	00001842 	andeq	r1, r0, r2, asr #16
    1370:	01828914 	orreq	r8, r2, r4, lsl r9
    1374:	31011101 	tstcc	r1, r1, lsl #2
    1378:	15000013 	strne	r0, [r0, #-19]	; 0xffffffed
    137c:	193f012e 	ldmdbne	pc!, {r1, r2, r3, r5, r8}	; <UNPREDICTABLE>
    1380:	0b3a0e03 	bleq	e84b94 <__bss_end__+0xe79d14>
    1384:	0b390b3b 	bleq	e44078 <__bss_end__+0xe391f8>
    1388:	0b201927 	bleq	80782c <__bss_end__+0x7fc9ac>
    138c:	00001301 	andeq	r1, r0, r1, lsl #6
    1390:	3f012e16 	svccc	0x00012e16
    1394:	3a0e0319 	bcc	382000 <__bss_end__+0x377180>
    1398:	390b3b0b 	stmdbcc	fp, {r0, r1, r3, r8, r9, fp, ip, sp}
    139c:	4919270b 	ldmdbmi	r9, {r0, r1, r3, r8, r9, sl, sp}
    13a0:	010b2013 	tsteq	fp, r3, lsl r0
    13a4:	17000013 	smladne	r0, r3, r0, r0
    13a8:	1331012e 	teqne	r1, #-2147483637	; 0x8000000b
    13ac:	06120111 			; <UNDEFINED> instruction: 0x06120111
    13b0:	42971840 	addsmi	r1, r7, #64, 16	; 0x400000
    13b4:	00130119 	andseq	r0, r3, r9, lsl r1
    13b8:	002e1800 	eoreq	r1, lr, r0, lsl #16
    13bc:	193c193f 	ldmdbne	ip!, {r0, r1, r2, r3, r4, r5, r8, fp, ip}
    13c0:	0e030e6e 	cdpeq	14, 0, cr0, cr3, cr14, {3}
    13c4:	053b0b3a 	ldreq	r0, [fp, #-2874]!	; 0xfffff4c6
    13c8:	00000b39 	andeq	r0, r0, r9, lsr fp
    13cc:	3f002e19 	svccc	0x00002e19
    13d0:	6e193c19 	mrcvs	12, 0, r3, cr9, cr9, {0}
    13d4:	3a0e030e 	bcc	382014 <__bss_end__+0x377194>
    13d8:	390b3b0b 	stmdbcc	fp, {r0, r1, r3, r8, r9, fp, ip, sp}
    13dc:	0000000b 	andeq	r0, r0, fp
    13e0:	25011101 	strcs	r1, [r1, #-257]	; 0xfffffeff
    13e4:	030b130e 	movweq	r1, #45838	; 0xb30e
    13e8:	110e1b0e 	tstne	lr, lr, lsl #22
    13ec:	10061201 	andne	r1, r6, r1, lsl #4
    13f0:	02000017 	andeq	r0, r0, #23, 0
    13f4:	0b0b0024 	bleq	2c148c <__bss_end__+0x2b660c>
    13f8:	08030b3e 	stmdaeq	r3, {r1, r2, r3, r4, r5, r8, r9, fp}
    13fc:	24030000 	strcs	r0, [r3], #-0
    1400:	3e0b0b00 	vmlacc.f64	d0, d11, d0
    1404:	000e030b 	andeq	r0, lr, fp, lsl #6
    1408:	01150400 	tsteq	r5, r0, lsl #8
    140c:	13491927 	movtne	r1, #39207	; 0x9927
    1410:	00001301 	andeq	r1, r0, r1, lsl #6
    1414:	49000505 	stmdbmi	r0, {r0, r2, r8, sl}
    1418:	06000013 			; <UNDEFINED> instruction: 0x06000013
    141c:	0e030034 	mcreq	0, 0, r0, cr3, cr4, {1}
    1420:	0b3b0b3a 	bleq	ec4110 <__bss_end__+0xeb9290>
    1424:	13490b39 	movtne	r0, #39737	; 0x9b39
    1428:	193c193f 	ldmdbne	ip!, {r0, r1, r2, r3, r4, r5, r8, fp, ip}
    142c:	0f070000 	svceq	0x00070000
    1430:	490b0b00 	stmdbmi	fp, {r8, r9, fp}
    1434:	08000013 	stmdaeq	r0, {r0, r1, r4}
    1438:	13490026 	movtne	r0, #36902	; 0x9026
    143c:	2e090000 	cdpcs	0, 0, cr0, cr9, cr0, {0}
    1440:	03193f01 	tsteq	r9, #1, 30
    1444:	3b0b3a0e 	blcc	2cfc84 <__bss_end__+0x2c4e04>
    1448:	270b390b 	strcs	r3, [fp, -fp, lsl #18]
    144c:	12011119 	andne	r1, r1, #1073741830	; 0x40000006
    1450:	97184006 	ldrls	r4, [r8, -r6]
    1454:	13011942 	movwne	r1, #6466	; 0x1942
    1458:	050a0000 	streq	r0, [sl, #-0]
    145c:	3a080300 	bcc	202064 <__bss_end__+0x1f71e4>
    1460:	390b3b0b 	stmdbcc	fp, {r0, r1, r3, r8, r9, fp, ip, sp}
    1464:	0213490b 	andseq	r4, r3, #180224	; 0x2c000
    1468:	1742b717 	smlaldne	fp, r2, r7, r7
    146c:	1d0b0000 	stcne	0, cr0, [fp, #-0]
    1470:	52133101 	andspl	r3, r3, #1073741824	; 0x40000000
    1474:	0b42b801 	bleq	10af480 <__bss_end__+0x10a4600>
    1478:	0b581755 	bleq	16071d4 <__bss_end__+0x15fc354>
    147c:	0b570b59 	bleq	15c41e8 <__bss_end__+0x15b9368>
    1480:	050c0000 	streq	r0, [ip, #-0]
    1484:	02133100 	andseq	r3, r3, #0
    1488:	1742b717 	smlaldne	fp, r2, r7, r7
    148c:	1d0d0000 	stcne	0, cr0, [sp, #-0]
    1490:	52133101 	andspl	r3, r3, #1073741824	; 0x40000000
    1494:	0b42b801 	bleq	10af4a0 <__bss_end__+0x10a4620>
    1498:	06120111 			; <UNDEFINED> instruction: 0x06120111
    149c:	0b590b58 	bleq	1644204 <__bss_end__+0x1639384>
    14a0:	00000b57 	andeq	r0, r0, r7, asr fp
    14a4:	3100340e 	tstcc	r0, lr, lsl #8
    14a8:	b7170213 			; <UNDEFINED> instruction: 0xb7170213
    14ac:	00001742 	andeq	r1, r0, r2, asr #14
    14b0:	31011d0f 	tstcc	r1, pc, lsl #26
    14b4:	b8015213 	stmdalt	r1, {r0, r1, r4, r9, ip, lr}
    14b8:	01110b42 	tsteq	r1, r2, asr #22
    14bc:	0b580612 	bleq	1602d0c <__bss_end__+0x15f7e8c>
    14c0:	0b570b59 	bleq	15c422c <__bss_end__+0x15b93ac>
    14c4:	00001301 	andeq	r1, r0, r1, lsl #6
    14c8:	01828910 	orreq	r8, r2, r0, lsl r9
    14cc:	31011101 	tstcc	r1, r1, lsl #2
    14d0:	11000013 	tstne	r0, r3, lsl r0
    14d4:	0001828a 	andeq	r8, r1, sl, lsl #5
    14d8:	42911802 	addsmi	r1, r1, #131072	; 0x20000
    14dc:	12000018 	andne	r0, r0, #24, 0
    14e0:	00018289 	andeq	r8, r1, r9, lsl #5
    14e4:	13310111 	teqne	r1, #1073741828	; 0x40000004
    14e8:	0b130000 	bleq	4c14f0 <__bss_end__+0x4b6670>
    14ec:	55133101 	ldrpl	r3, [r3, #-257]	; 0xfffffeff
    14f0:	14000017 	strne	r0, [r0], #-23	; 0xffffffe9
    14f4:	13310034 	teqne	r1, #52, 0	; 0x34
    14f8:	0b150000 	bleq	541500 <__bss_end__+0x536680>
    14fc:	00175501 	andseq	r5, r7, r1, lsl #10
    1500:	011d1600 	tsteq	sp, r0, lsl #12
    1504:	01521331 	cmpeq	r2, r1, lsr r3
    1508:	550b42b8 	strpl	r4, [fp, #-696]	; 0xfffffd48
    150c:	590b5817 	stmdbpl	fp, {r0, r1, r2, r4, fp, ip, lr}
    1510:	010b570b 	tsteq	fp, fp, lsl #14
    1514:	17000013 	smladne	r0, r3, r0, r0
    1518:	193f012e 	ldmdbne	pc!, {r1, r2, r3, r5, r8}	; <UNPREDICTABLE>
    151c:	0b3a0e03 	bleq	e84d30 <__bss_end__+0xe79eb0>
    1520:	0b390b3b 	bleq	e44214 <__bss_end__+0xe39394>
    1524:	0b201927 	bleq	8079c8 <__bss_end__+0x7fcb48>
    1528:	00001301 	andeq	r1, r0, r1, lsl #6
    152c:	03000518 	movweq	r0, #1304	; 0x518
    1530:	3b0b3a08 	blcc	2cfd58 <__bss_end__+0x2c4ed8>
    1534:	490b390b 	stmdbmi	fp, {r0, r1, r3, r8, fp, ip, sp}
    1538:	19000013 	stmdbne	r0, {r0, r1, r4}
    153c:	08030034 	stmdaeq	r3, {r2, r4, r5}
    1540:	0b3b0b3a 	bleq	ec4230 <__bss_end__+0xeb93b0>
    1544:	13490b39 	movtne	r0, #39737	; 0x9b39
    1548:	0b1a0000 	bleq	681550 <__bss_end__+0x6766d0>
    154c:	1b000001 	blne	1558 <__code_start__-0x6aa8>
    1550:	193f012e 	ldmdbne	pc!, {r1, r2, r3, r5, r8}	; <UNPREDICTABLE>
    1554:	0b3a0e03 	bleq	e84d68 <__bss_end__+0xe79ee8>
    1558:	0b390b3b 	bleq	e4424c <__bss_end__+0xe393cc>
    155c:	13491927 	movtne	r1, #39207	; 0x9927
    1560:	13010b20 	movwne	r0, #6944	; 0x1b20
    1564:	2e1c0000 	cdpcs	0, 1, cr0, cr12, cr0, {0}
    1568:	03193f00 	tsteq	r9, #0, 30
    156c:	3b0b3a0e 	blcc	2cfdac <__bss_end__+0x2c4f2c>
    1570:	270b390b 	strcs	r3, [fp, -fp, lsl #18]
    1574:	20134919 	andscs	r4, r3, r9, lsl r9
    1578:	1d00000b 	stcne	0, cr0, [r0, #-44]	; 0xffffffd4
    157c:	1331012e 	teqne	r1, #-2147483637	; 0x8000000b
    1580:	06120111 			; <UNDEFINED> instruction: 0x06120111
    1584:	42971840 	addsmi	r1, r7, #64, 16	; 0x400000
    1588:	00130119 	andseq	r0, r3, r9, lsl r1
    158c:	82891e00 	addhi	r1, r9, #0, 28
    1590:	01110101 	tsteq	r1, r1, lsl #2
    1594:	31194295 			; <UNDEFINED> instruction: 0x31194295
    1598:	1f000013 	svcne	0x00000013
    159c:	193f002e 	ldmdbne	pc!, {r1, r2, r3, r5}	; <UNPREDICTABLE>
    15a0:	0e6e193c 			; <UNDEFINED> instruction: 0x0e6e193c
    15a4:	0b3a0e03 	bleq	e84db8 <__bss_end__+0xe79f38>
    15a8:	0b390b3b 	bleq	e4429c <__bss_end__+0xe3941c>
    15ac:	01000000 	mrseq	r0, (UNDEF: 0)
    15b0:	0e250111 	mcreq	1, 1, r0, cr5, cr1, {0}
    15b4:	0e030b13 	vmoveq.32	d3[0], r0
    15b8:	01110e1b 	tsteq	r1, fp, lsl lr
    15bc:	17100612 			; <UNDEFINED> instruction: 0x17100612
    15c0:	24020000 	strcs	r0, [r2], #-0
    15c4:	3e0b0b00 	vmlacc.f64	d0, d11, d0
    15c8:	0008030b 	andeq	r0, r8, fp, lsl #6
    15cc:	00240300 	eoreq	r0, r4, r0, lsl #6
    15d0:	0b3e0b0b 	bleq	f84204 <__bss_end__+0xf79384>
    15d4:	00000e03 	andeq	r0, r0, r3, lsl #28
    15d8:	49003504 	stmdbmi	r0, {r2, r8, sl, ip, sp}
    15dc:	05000013 	streq	r0, [r0, #-19]	; 0xffffffed
    15e0:	0e030016 	mcreq	0, 0, r0, cr3, cr6, {0}
    15e4:	0b3b0b3a 	bleq	ec42d4 <__bss_end__+0xeb9454>
    15e8:	13490b39 	movtne	r0, #39737	; 0x9b39
    15ec:	04060000 	streq	r0, [r6], #-0
    15f0:	0b0b3e01 	bleq	2d0dfc <__bss_end__+0x2c5f7c>
    15f4:	3a13490b 	bcc	4d3a28 <__bss_end__+0x4c8ba8>
    15f8:	390b3b0b 	stmdbcc	fp, {r0, r1, r3, r8, r9, fp, ip, sp}
    15fc:	0013010b 	andseq	r0, r3, fp, lsl #2
    1600:	00280700 	eoreq	r0, r8, r0, lsl #14
    1604:	0b1c0e03 	bleq	704e18 <__bss_end__+0x6f9f98>
    1608:	13080000 	movwne	r0, #32768	; 0x8000
    160c:	0b0e0301 	bleq	382218 <__bss_end__+0x377398>
    1610:	3b0b3a0b 	blcc	2cfe44 <__bss_end__+0x2c4fc4>
    1614:	010b390b 	tsteq	fp, fp, lsl #18
    1618:	09000013 	stmdbeq	r0, {r0, r1, r4}
    161c:	0803000d 	stmdaeq	r3, {r0, r2, r3}
    1620:	0b3b0b3a 	bleq	ec4310 <__bss_end__+0xeb9490>
    1624:	13490b39 	movtne	r0, #39737	; 0x9b39
    1628:	00000b38 	andeq	r0, r0, r8, lsr fp
    162c:	03000d0a 	movweq	r0, #3338	; 0xd0a
    1630:	3b0b3a0e 	blcc	2cfe70 <__bss_end__+0x2c4ff0>
    1634:	490b390b 	stmdbmi	fp, {r0, r1, r3, r8, fp, ip, sp}
    1638:	000b3813 	andeq	r3, fp, r3, lsl r8
    163c:	00340b00 	eorseq	r0, r4, r0, lsl #22
    1640:	0b3a0e03 	bleq	e84e54 <__bss_end__+0xe79fd4>
    1644:	0b390b3b 	bleq	e44338 <__bss_end__+0xe394b8>
    1648:	061c1349 	ldreq	r1, [ip], -r9, asr #6
    164c:	0f0c0000 	svceq	0x000c0000
    1650:	490b0b00 	stmdbmi	fp, {r8, r9, fp}
    1654:	0d000013 	stceq	0, cr0, [r0, #-76]	; 0xffffffb4
    1658:	13490026 	movtne	r0, #36902	; 0x9026
    165c:	2e0e0000 	cdpcs	0, 0, cr0, cr14, cr0, {0}
    1660:	03193f01 	tsteq	r9, #1, 30
    1664:	3b0b3a0e 	blcc	2cfea4 <__bss_end__+0x2c5024>
    1668:	270b390b 	strcs	r3, [fp, -fp, lsl #18]
    166c:	12011119 	andne	r1, r1, #1073741830	; 0x40000006
    1670:	97184006 	ldrls	r4, [r8, -r6]
    1674:	13011942 	movwne	r1, #6466	; 0x1942
    1678:	890f0000 	stmdbhi	pc, {}	; <UNPREDICTABLE>
    167c:	11000182 	smlabbne	r0, r2, r1, r0
    1680:	00133101 	andseq	r3, r3, r1, lsl #2
    1684:	012e1000 			; <UNDEFINED> instruction: 0x012e1000
    1688:	0e03193f 			; <UNDEFINED> instruction: 0x0e03193f
    168c:	0b3b0b3a 	bleq	ec437c <__bss_end__+0xeb94fc>
    1690:	19270b39 	stmdbne	r7!, {r0, r3, r4, r5, r8, r9, fp}
    1694:	01111349 	tsteq	r1, r9, asr #6
    1698:	18400612 	stmdane	r0, {r1, r4, r9, sl}^
    169c:	01194297 			; <UNDEFINED> instruction: 0x01194297
    16a0:	11000013 	tstne	r0, r3, lsl r0
    16a4:	01018289 	smlabbeq	r1, r9, r2, r8
    16a8:	13310111 	teqne	r1, #1073741828	; 0x40000004
    16ac:	8a120000 	bhi	4816b4 <__bss_end__+0x476834>
    16b0:	02000182 	andeq	r0, r0, #-2147483616	; 0x80000020
    16b4:	18429118 	stmdane	r2, {r3, r4, r8, ip, pc}^
    16b8:	05130000 	ldreq	r0, [r3, #-0]
    16bc:	3a080300 	bcc	2022c4 <__bss_end__+0x1f7444>
    16c0:	390b3b0b 	stmdbcc	fp, {r0, r1, r3, r8, r9, fp, ip, sp}
    16c4:	0213490b 	andseq	r4, r3, #180224	; 0x2c000
    16c8:	1742b717 	smlaldne	fp, r2, r7, r7
    16cc:	89140000 	ldmdbhi	r4, {}	; <UNPREDICTABLE>
    16d0:	11010182 	smlabbne	r1, r2, r1, r0
    16d4:	01133101 	tsteq	r3, r1, lsl #2
    16d8:	15000013 	strne	r0, [r0, #-19]	; 0xffffffed
    16dc:	08030034 	stmdaeq	r3, {r2, r4, r5}
    16e0:	0b3b0b3a 	bleq	ec43d0 <__bss_end__+0xeb9550>
    16e4:	13490b39 	movtne	r0, #39737	; 0x9b39
    16e8:	42b71702 	adcsmi	r1, r7, #524288	; 0x80000
    16ec:	16000017 			; <UNDEFINED> instruction: 0x16000017
    16f0:	0e030034 	mcreq	0, 0, r0, cr3, cr4, {1}
    16f4:	0b3b0b3a 	bleq	ec43e4 <__bss_end__+0xeb9564>
    16f8:	13490b39 	movtne	r0, #39737	; 0x9b39
    16fc:	0000051c 	andeq	r0, r0, ip, lsl r5
    1700:	03012e17 	movweq	r2, #7703	; 0x1e17
    1704:	3b0b3a0e 	blcc	2cff44 <__bss_end__+0x2c50c4>
    1708:	270b390b 	strcs	r3, [fp, -fp, lsl #18]
    170c:	12011119 	andne	r1, r1, #1073741830	; 0x40000006
    1710:	97184006 	ldrls	r4, [r8, -r6]
    1714:	13011942 	movwne	r1, #6466	; 0x1942
    1718:	05180000 	ldreq	r0, [r8, #-0]
    171c:	3a0e0300 	bcc	382324 <__bss_end__+0x3774a4>
    1720:	390b3b0b 	stmdbcc	fp, {r0, r1, r3, r8, r9, fp, ip, sp}
    1724:	0213490b 	andseq	r4, r3, #180224	; 0x2c000
    1728:	1742b717 	smlaldne	fp, r2, r7, r7
    172c:	35190000 	ldrcc	r0, [r9, #-0]
    1730:	1a000000 	bne	1738 <__code_start__-0x68c8>
    1734:	193f002e 	ldmdbne	pc!, {r1, r2, r3, r5}	; <UNPREDICTABLE>
    1738:	0e6e193c 			; <UNDEFINED> instruction: 0x0e6e193c
    173c:	0b3a0e03 	bleq	e84f50 <__bss_end__+0xe7a0d0>
    1740:	0b390b3b 	bleq	e44434 <__bss_end__+0xe395b4>
    1744:	01000000 	mrseq	r0, (UNDEF: 0)
    1748:	0e250111 	mcreq	1, 1, r0, cr5, cr1, {0}
    174c:	0e030b13 	vmoveq.32	d3[0], r0
    1750:	01110e1b 	tsteq	r1, fp, lsl lr
    1754:	17100612 			; <UNDEFINED> instruction: 0x17100612
    1758:	24020000 	strcs	r0, [r2], #-0
    175c:	3e0b0b00 	vmlacc.f64	d0, d11, d0
    1760:	0008030b 	andeq	r0, r8, fp, lsl #6
    1764:	00240300 	eoreq	r0, r4, r0, lsl #6
    1768:	0b3e0b0b 	bleq	f8439c <__bss_end__+0xf7951c>
    176c:	00000e03 	andeq	r0, r0, r3, lsl #28
    1770:	03001604 	movweq	r1, #1540	; 0x604
    1774:	3b0b3a0e 	blcc	2cffb4 <__bss_end__+0x2c5134>
    1778:	490b390b 	stmdbmi	fp, {r0, r1, r3, r8, fp, ip, sp}
    177c:	05000013 	streq	r0, [r0, #-19]	; 0xffffffed
    1780:	13490026 	movtne	r0, #36902	; 0x9026
    1784:	0f060000 	svceq	0x00060000
    1788:	000b0b00 	andeq	r0, fp, r0, lsl #22
    178c:	01040700 	tsteq	r4, r0, lsl #14
    1790:	0b0b0b3e 	bleq	2c4490 <__bss_end__+0x2b9610>
    1794:	0b3a1349 	bleq	e864c0 <__bss_end__+0xe7b640>
    1798:	0b390b3b 	bleq	e4448c <__bss_end__+0xe3960c>
    179c:	00001301 	andeq	r1, r0, r1, lsl #6
    17a0:	03002808 	movweq	r2, #2056	; 0x808
    17a4:	00061c0e 	andeq	r1, r6, lr, lsl #24
    17a8:	00340900 	eorseq	r0, r4, r0, lsl #18
    17ac:	0b3a0e03 	bleq	e84fc0 <__bss_end__+0xe7a140>
    17b0:	0b390b3b 	bleq	e444a4 <__bss_end__+0xe39624>
    17b4:	193f1349 	ldmdbne	pc!, {r0, r3, r6, r8, r9, ip}	; <UNPREDICTABLE>
    17b8:	0000193c 	andeq	r1, r0, ip, lsr r9
    17bc:	0300340a 	movweq	r3, #1034	; 0x40a
    17c0:	3b0b3a0e 	blcc	2d0000 <__bss_end__+0x2c5180>
    17c4:	490b390b 	stmdbmi	fp, {r0, r1, r3, r8, fp, ip, sp}
    17c8:	00180213 	andseq	r0, r8, r3, lsl r2
    17cc:	000f0b00 	andeq	r0, pc, r0, lsl #22
    17d0:	13490b0b 	movtne	r0, #39691	; 0x9b0b
    17d4:	2e0c0000 	cdpcs	0, 0, cr0, cr12, cr0, {0}
    17d8:	03193f01 	tsteq	r9, #1, 30
    17dc:	3b0b3a0e 	blcc	2d001c <__bss_end__+0x2c519c>
    17e0:	270b390b 	strcs	r3, [fp, -fp, lsl #18]
    17e4:	12011119 	andne	r1, r1, #1073741830	; 0x40000006
    17e8:	97184006 	ldrls	r4, [r8, -r6]
    17ec:	13011942 	movwne	r1, #6466	; 0x1942
    17f0:	050d0000 	streq	r0, [sp, #-0]
    17f4:	3a080300 	bcc	2023fc <__bss_end__+0x1f757c>
    17f8:	390b3b0b 	stmdbcc	fp, {r0, r1, r3, r8, r9, fp, ip, sp}
    17fc:	0213490b 	andseq	r4, r3, #180224	; 0x2c000
    1800:	1742b717 	smlaldne	fp, r2, r7, r7
    1804:	340e0000 	strcc	r0, [lr], #-0
    1808:	490e0300 	stmdbmi	lr, {r8, r9}
    180c:	02193413 	andseq	r3, r9, #318767104	; 0x13000000
    1810:	0f000018 	svceq	0x00000018
    1814:	01018289 	smlabbeq	r1, r9, r2, r8
    1818:	13310111 	teqne	r1, #1073741828	; 0x40000004
    181c:	00001301 	andeq	r1, r0, r1, lsl #6
    1820:	01828a10 	orreq	r8, r2, r0, lsl sl
    1824:	91180200 	tstls	r8, r0, lsl #4
    1828:	00001842 	andeq	r1, r0, r2, asr #16
    182c:	01828911 	orreq	r8, r2, r1, lsl r9
    1830:	31011100 	mrscc	r1, (UNDEF: 17)
    1834:	12000013 	andne	r0, r0, #19, 0
    1838:	13490101 	movtne	r0, #37121	; 0x9101
    183c:	00001301 	andeq	r1, r0, r1, lsl #6
    1840:	49002113 	stmdbmi	r0, {r0, r1, r4, r8, sp}
    1844:	000b2f13 	andeq	r2, fp, r3, lsl pc
    1848:	002e1400 	eoreq	r1, lr, r0, lsl #8
    184c:	0e03193f 			; <UNDEFINED> instruction: 0x0e03193f
    1850:	0b3b0b3a 	bleq	ec4540 <__bss_end__+0xeb96c0>
    1854:	19270b39 	stmdbne	r7!, {r0, r3, r4, r5, r8, r9, fp}
    1858:	06120111 			; <UNDEFINED> instruction: 0x06120111
    185c:	42971840 	addsmi	r1, r7, #64, 16	; 0x400000
    1860:	15000019 	strne	r0, [r0, #-25]	; 0xffffffe7
    1864:	08030005 	stmdaeq	r3, {r0, r2}
    1868:	0b3b0b3a 	bleq	ec4558 <__bss_end__+0xeb96d8>
    186c:	13490b39 	movtne	r0, #39737	; 0x9b39
    1870:	00001802 	andeq	r1, r0, r2, lsl #16
    1874:	3f012e16 	svccc	0x00012e16
    1878:	3a0e0319 	bcc	3824e4 <__bss_end__+0x377664>
    187c:	390b3b0b 	stmdbcc	fp, {r0, r1, r3, r8, r9, fp, ip, sp}
    1880:	4919270b 	ldmdbmi	r9, {r0, r1, r3, r8, r9, sl, sp}
    1884:	12011113 	andne	r1, r1, #-1073741820	; 0xc0000004
    1888:	97184006 	ldrls	r4, [r8, -r6]
    188c:	13011942 	movwne	r1, #6466	; 0x1942
    1890:	05170000 	ldreq	r0, [r7, #-0]
    1894:	3a0e0300 	bcc	38249c <__bss_end__+0x37761c>
    1898:	390b3b0b 	stmdbcc	fp, {r0, r1, r3, r8, r9, fp, ip, sp}
    189c:	0213490b 	andseq	r4, r3, #180224	; 0x2c000
    18a0:	1742b717 	smlaldne	fp, r2, r7, r7
    18a4:	34180000 	ldrcc	r0, [r8], #-0
    18a8:	3a080300 	bcc	2024b0 <__bss_end__+0x1f7630>
    18ac:	390b3b0b 	stmdbcc	fp, {r0, r1, r3, r8, r9, fp, ip, sp}
    18b0:	0213490b 	andseq	r4, r3, #180224	; 0x2c000
    18b4:	1742b717 	smlaldne	fp, r2, r7, r7
    18b8:	1d190000 	ldcne	0, cr0, [r9, #-0]
    18bc:	52133101 	andspl	r3, r3, #1073741824	; 0x40000000
    18c0:	0b42b801 	bleq	10af8cc <__bss_end__+0x10a4a4c>
    18c4:	06120111 			; <UNDEFINED> instruction: 0x06120111
    18c8:	0b590b58 	bleq	1644630 <__bss_end__+0x16397b0>
    18cc:	13010b57 	movwne	r0, #6999	; 0x1b57
    18d0:	051a0000 	ldreq	r0, [sl, #-0]
    18d4:	02133100 	andseq	r3, r3, #0
    18d8:	1742b717 	smlaldne	fp, r2, r7, r7
    18dc:	1d1b0000 	ldcne	0, cr0, [fp, #-0]
    18e0:	52133101 	andspl	r3, r3, #1073741824	; 0x40000000
    18e4:	0b42b801 	bleq	10af8f0 <__bss_end__+0x10a4a70>
    18e8:	0b581755 	bleq	1607644 <__bss_end__+0x15fc7c4>
    18ec:	0b570b59 	bleq	15c4658 <__bss_end__+0x15b97d8>
    18f0:	00001301 	andeq	r1, r0, r1, lsl #6
    18f4:	55010b1c 	strpl	r0, [r1, #-2844]	; 0xfffff4e4
    18f8:	1d000017 	stcne	0, cr0, [r0, #-92]	; 0xffffffa4
    18fc:	0e030034 	mcreq	0, 0, r0, cr3, cr4, {1}
    1900:	0b3b0b3a 	bleq	ec45f0 <__bss_end__+0xeb9770>
    1904:	13490b39 	movtne	r0, #39737	; 0x9b39
    1908:	42b71702 	adcsmi	r1, r7, #524288	; 0x80000
    190c:	1e000017 	mcrne	0, 0, r0, cr0, cr7, {0}
    1910:	1755000b 	ldrbne	r0, [r5, -fp]
    1914:	2e1f0000 	cdpcs	0, 1, cr0, cr15, cr0, {0}
    1918:	03193f00 	tsteq	r9, #0, 30
    191c:	3b0b3a0e 	blcc	2d015c <__bss_end__+0x2c52dc>
    1920:	270b390b 	strcs	r3, [fp, -fp, lsl #18]
    1924:	11134919 	tstne	r3, r9, lsl r9
    1928:	40061201 	andmi	r1, r6, r1, lsl #4
    192c:	19429718 	stmdbne	r2, {r3, r4, r8, r9, sl, ip, pc}^
    1930:	2e200000 	cdpcs	0, 2, cr0, cr0, cr0, {0}
    1934:	3a0e0301 	bcc	382540 <__bss_end__+0x3776c0>
    1938:	390b3b0b 	stmdbcc	fp, {r0, r1, r3, r8, r9, fp, ip, sp}
    193c:	4919270b 	ldmdbmi	r9, {r0, r1, r3, r8, r9, sl, sp}
    1940:	010b2013 	tsteq	fp, r3, lsl r0
    1944:	21000013 	tstcs	r0, r3, lsl r0
    1948:	08030005 	stmdaeq	r3, {r0, r2}
    194c:	0b3b0b3a 	bleq	ec463c <__bss_end__+0xeb97bc>
    1950:	13490b39 	movtne	r0, #39737	; 0x9b39
    1954:	2e220000 	cdpcs	0, 2, cr0, cr2, cr0, {0}
    1958:	3c193f00 	ldccc	15, cr3, [r9], {-0}
    195c:	030e6e19 	movweq	r6, #60953	; 0xee19
    1960:	3b0b3a0e 	blcc	2d01a0 <__bss_end__+0x2c5320>
    1964:	000b390b 	andeq	r3, fp, fp, lsl #18
    1968:	11010000 	mrsne	r0, (UNDEF: 1)
    196c:	130e2501 	movwne	r2, #58625	; 0xe501
    1970:	1b0e030b 	blne	3825a4 <__bss_end__+0x377724>
    1974:	1201110e 	andne	r1, r1, #-2147483645	; 0x80000003
    1978:	00171006 	andseq	r1, r7, r6
    197c:	00240200 	eoreq	r0, r4, r0, lsl #4
    1980:	0b3e0b0b 	bleq	f845b4 <__bss_end__+0xf79734>
    1984:	00000e03 	andeq	r0, r0, r3, lsl #28
    1988:	0b002403 	bleq	a99c <__FUNCTION__.4030+0x174>
    198c:	030b3e0b 	movweq	r3, #48651	; 0xbe0b
    1990:	04000008 	streq	r0, [r0], #-8
    1994:	13490026 	movtne	r0, #36902	; 0x9026
    1998:	16050000 	strne	r0, [r5], -r0
    199c:	3a0e0300 	bcc	3825a4 <__bss_end__+0x377724>
    19a0:	390b3b0b 	stmdbcc	fp, {r0, r1, r3, r8, r9, fp, ip, sp}
    19a4:	0013490b 	andseq	r4, r3, fp, lsl #18
    19a8:	01150600 	tsteq	r5, r0, lsl #12
    19ac:	13491927 	movtne	r1, #39207	; 0x9927
    19b0:	00001301 	andeq	r1, r0, r1, lsl #6
    19b4:	49000507 	stmdbmi	r0, {r0, r1, r2, r8, sl}
    19b8:	08000013 	stmdaeq	r0, {r0, r1, r4}
    19bc:	0e030034 	mcreq	0, 0, r0, cr3, cr4, {1}
    19c0:	0b3b0b3a 	bleq	ec46b0 <__bss_end__+0xeb9830>
    19c4:	13490b39 	movtne	r0, #39737	; 0x9b39
    19c8:	193c193f 	ldmdbne	ip!, {r0, r1, r2, r3, r4, r5, r8, fp, ip}
    19cc:	0f090000 	svceq	0x00090000
    19d0:	490b0b00 	stmdbmi	fp, {r8, r9, fp}
    19d4:	0a000013 	beq	1a28 <__code_start__-0x65d8>
    19d8:	0b3e0104 	bleq	f81df0 <__bss_end__+0xf76f70>
    19dc:	13490b0b 	movtne	r0, #39691	; 0x9b0b
    19e0:	0b3b0b3a 	bleq	ec46d0 <__bss_end__+0xeb9850>
    19e4:	13010b39 	movwne	r0, #6969	; 0x1b39
    19e8:	280b0000 	stmdacs	fp, {}	; <UNPREDICTABLE>
    19ec:	1c0e0300 	stcne	3, cr0, [lr], {-0}
    19f0:	0c00000b 	stceq	0, cr0, [r0], {11}
    19f4:	0e030034 	mcreq	0, 0, r0, cr3, cr4, {1}
    19f8:	0b3b0b3a 	bleq	ec46e8 <__bss_end__+0xeb9868>
    19fc:	13490b39 	movtne	r0, #39737	; 0x9b39
    1a00:	0000061c 	andeq	r0, r0, ip, lsl r6
    1a04:	3f012e0d 	svccc	0x00012e0d
    1a08:	3a0e0319 	bcc	382674 <__bss_end__+0x3777f4>
    1a0c:	390b3b0b 	stmdbcc	fp, {r0, r1, r3, r8, r9, fp, ip, sp}
    1a10:	4919270b 	ldmdbmi	r9, {r0, r1, r3, r8, r9, sl, sp}
    1a14:	12011113 	andne	r1, r1, #-1073741820	; 0xc0000004
    1a18:	97184006 	ldrls	r4, [r8, -r6]
    1a1c:	13011942 	movwne	r1, #6466	; 0x1942
    1a20:	050e0000 	streq	r0, [lr, #-0]
    1a24:	3a080300 	bcc	20262c <__bss_end__+0x1f77ac>
    1a28:	390b3b0b 	stmdbcc	fp, {r0, r1, r3, r8, r9, fp, ip, sp}
    1a2c:	0213490b 	andseq	r4, r3, #180224	; 0x2c000
    1a30:	1742b717 	smlaldne	fp, r2, r7, r7
    1a34:	340f0000 	strcc	r0, [pc], #-0	; 1a3c <__code_start__-0x65c4>
    1a38:	3a0e0300 	bcc	382640 <__bss_end__+0x3777c0>
    1a3c:	390b3b0b 	stmdbcc	fp, {r0, r1, r3, r8, r9, fp, ip, sp}
    1a40:	0213490b 	andseq	r4, r3, #180224	; 0x2c000
    1a44:	1742b717 	smlaldne	fp, r2, r7, r7
    1a48:	34100000 	ldrcc	r0, [r0], #-0
    1a4c:	3a080300 	bcc	202654 <__bss_end__+0x1f77d4>
    1a50:	390b3b0b 	stmdbcc	fp, {r0, r1, r3, r8, r9, fp, ip, sp}
    1a54:	0213490b 	andseq	r4, r3, #180224	; 0x2c000
    1a58:	1742b717 	smlaldne	fp, r2, r7, r7
    1a5c:	89110000 	ldmdbhi	r1, {}	; <UNPREDICTABLE>
    1a60:	11010182 	smlabbne	r1, r2, r1, r0
    1a64:	00133101 	andseq	r3, r3, r1, lsl #2
    1a68:	828a1200 	addhi	r1, sl, #0, 4
    1a6c:	18020001 	stmdane	r2, {r0}
    1a70:	00184291 	mulseq	r8, r1, r2
    1a74:	012e1300 			; <UNDEFINED> instruction: 0x012e1300
    1a78:	0e03193f 			; <UNDEFINED> instruction: 0x0e03193f
    1a7c:	0b3b0b3a 	bleq	ec476c <__bss_end__+0xeb98ec>
    1a80:	19270b39 	stmdbne	r7!, {r0, r3, r4, r5, r8, r9, fp}
    1a84:	06120111 			; <UNDEFINED> instruction: 0x06120111
    1a88:	42971840 	addsmi	r1, r7, #64, 16	; 0x400000
    1a8c:	00130119 	andseq	r0, r3, r9, lsl r1
    1a90:	011d1400 	tsteq	sp, r0, lsl #8
    1a94:	01521331 	cmpeq	r2, r1, lsr r3
    1a98:	550b42b8 	strpl	r4, [fp, #-696]	; 0xfffffd48
    1a9c:	590b5817 	stmdbpl	fp, {r0, r1, r2, r4, fp, ip, lr}
    1aa0:	010b570b 	tsteq	fp, fp, lsl #14
    1aa4:	15000013 	strne	r0, [r0, #-19]	; 0xffffffed
    1aa8:	13310005 	teqne	r1, #5, 0
    1aac:	42b71702 	adcsmi	r1, r7, #524288	; 0x80000
    1ab0:	16000017 			; <UNDEFINED> instruction: 0x16000017
    1ab4:	01018289 	smlabbeq	r1, r9, r2, r8
    1ab8:	42950111 	addsmi	r0, r5, #1073741828	; 0x40000004
    1abc:	00133119 	andseq	r3, r3, r9, lsl r1
    1ac0:	011d1700 	tsteq	sp, r0, lsl #14
    1ac4:	01521331 	cmpeq	r2, r1, lsr r3
    1ac8:	110b42b8 			; <UNDEFINED> instruction: 0x110b42b8
    1acc:	58061201 	stmdapl	r6, {r0, r9, ip}
    1ad0:	570b590b 	strpl	r5, [fp, -fp, lsl #18]
    1ad4:	1800000b 	stmdane	r0, {r0, r1, r3}
    1ad8:	1331011d 	teqne	r1, #1073741831	; 0x40000007
    1adc:	42b80152 	adcsmi	r0, r8, #-2147483628	; 0x80000014
    1ae0:	5817550b 	ldmdapl	r7, {r0, r1, r3, r8, sl, ip, lr}
    1ae4:	570b590b 	strpl	r5, [fp, -fp, lsl #18]
    1ae8:	1900000b 	stmdbne	r0, {r0, r1, r3}
    1aec:	13310005 	teqne	r1, #5, 0
    1af0:	00000b1c 	andeq	r0, r0, ip, lsl fp
    1af4:	55010b1a 	strpl	r0, [r1, #-2842]	; 0xfffff4e6
    1af8:	1b000017 	blne	1b5c <__code_start__-0x64a4>
    1afc:	13310034 	teqne	r1, #52, 0	; 0x34
    1b00:	341c0000 	ldrcc	r0, [ip], #-0
    1b04:	02133100 	andseq	r3, r3, #0
    1b08:	1742b717 	smlaldne	fp, r2, r7, r7
    1b0c:	891d0000 	ldmdbhi	sp, {}	; <UNPREDICTABLE>
    1b10:	11010182 	smlabbne	r1, r2, r1, r0
    1b14:	01133101 	tsteq	r3, r1, lsl #2
    1b18:	1e000013 	mcrne	0, 0, r0, cr0, cr3, {0}
    1b1c:	193f012e 	ldmdbne	pc!, {r1, r2, r3, r5, r8}	; <UNPREDICTABLE>
    1b20:	0b3a0e03 	bleq	e85334 <__bss_end__+0xe7a4b4>
    1b24:	0b390b3b 	bleq	e44818 <__bss_end__+0xe39998>
    1b28:	0b201927 	bleq	807fcc <__bss_end__+0x7fd14c>
    1b2c:	00001301 	andeq	r1, r0, r1, lsl #6
    1b30:	0300051f 	movweq	r0, #1311	; 0x51f
    1b34:	3b0b3a08 	blcc	2d035c <__bss_end__+0x2c54dc>
    1b38:	490b390b 	stmdbmi	fp, {r0, r1, r3, r8, fp, ip, sp}
    1b3c:	20000013 	andcs	r0, r0, r3, lsl r0
    1b40:	0e030005 	cdpeq	0, 0, cr0, cr3, cr5, {0}
    1b44:	0b3b0b3a 	bleq	ec4834 <__bss_end__+0xeb99b4>
    1b48:	13490b39 	movtne	r0, #39737	; 0x9b39
    1b4c:	34210000 	strtcc	r0, [r1], #-0
    1b50:	3a080300 	bcc	202758 <__bss_end__+0x1f78d8>
    1b54:	390b3b0b 	stmdbcc	fp, {r0, r1, r3, r8, r9, fp, ip, sp}
    1b58:	0013490b 	andseq	r4, r3, fp, lsl #18
    1b5c:	012e2200 			; <UNDEFINED> instruction: 0x012e2200
    1b60:	0b3a0e03 	bleq	e85374 <__bss_end__+0xe7a4f4>
    1b64:	0b390b3b 	bleq	e44858 <__bss_end__+0xe399d8>
    1b68:	13491927 	movtne	r1, #39207	; 0x9927
    1b6c:	13010b20 	movwne	r0, #6944	; 0x1b20
    1b70:	2e230000 	cdpcs	0, 2, cr0, cr3, cr0, {0}
    1b74:	11133101 	tstne	r3, r1, lsl #2
    1b78:	40061201 	andmi	r1, r6, r1, lsl #4
    1b7c:	19429718 	stmdbne	r2, {r3, r4, r8, r9, sl, ip, pc}^
    1b80:	00001301 	andeq	r1, r0, r1, lsl #6
    1b84:	3f002e24 	svccc	0x00002e24
    1b88:	6e193c19 	mrcvs	12, 0, r3, cr9, cr9, {0}
    1b8c:	3a0e030e 	bcc	3827cc <__bss_end__+0x37794c>
    1b90:	390b3b0b 	stmdbcc	fp, {r0, r1, r3, r8, r9, fp, ip, sp}
    1b94:	0000000b 	andeq	r0, r0, fp
    1b98:	25011101 	strcs	r1, [r1, #-257]	; 0xfffffeff
    1b9c:	030b130e 	movweq	r1, #45838	; 0xb30e
    1ba0:	110e1b0e 	tstne	lr, lr, lsl #22
    1ba4:	10061201 	andne	r1, r6, r1, lsl #4
    1ba8:	02000017 	andeq	r0, r0, #23, 0
    1bac:	0b0b0024 	bleq	2c1c44 <__bss_end__+0x2b6dc4>
    1bb0:	08030b3e 	stmdaeq	r3, {r1, r2, r3, r4, r5, r8, r9, fp}
    1bb4:	24030000 	strcs	r0, [r3], #-0
    1bb8:	3e0b0b00 	vmlacc.f64	d0, d11, d0
    1bbc:	000e030b 	andeq	r0, lr, fp, lsl #6
    1bc0:	01150400 	tsteq	r5, r0, lsl #8
    1bc4:	13491927 	movtne	r1, #39207	; 0x9927
    1bc8:	00001301 	andeq	r1, r0, r1, lsl #6
    1bcc:	49000505 	stmdbmi	r0, {r0, r2, r8, sl}
    1bd0:	06000013 			; <UNDEFINED> instruction: 0x06000013
    1bd4:	0e030034 	mcreq	0, 0, r0, cr3, cr4, {1}
    1bd8:	0b3b0b3a 	bleq	ec48c8 <__bss_end__+0xeb9a48>
    1bdc:	13490b39 	movtne	r0, #39737	; 0x9b39
    1be0:	193c193f 	ldmdbne	ip!, {r0, r1, r2, r3, r4, r5, r8, fp, ip}
    1be4:	0f070000 	svceq	0x00070000
    1be8:	490b0b00 	stmdbmi	fp, {r8, r9, fp}
    1bec:	08000013 	stmdaeq	r0, {r0, r1, r4}
    1bf0:	13490026 	movtne	r0, #36902	; 0x9026
    1bf4:	34090000 	strcc	r0, [r9], #-0
    1bf8:	3a134700 	bcc	4d3800 <__bss_end__+0x4c8980>
    1bfc:	390b3b0b 	stmdbcc	fp, {r0, r1, r3, r8, r9, fp, ip, sp}
    1c00:	0018020b 	andseq	r0, r8, fp, lsl #4
    1c04:	012e0a00 			; <UNDEFINED> instruction: 0x012e0a00
    1c08:	0e03193f 			; <UNDEFINED> instruction: 0x0e03193f
    1c0c:	0b3b0b3a 	bleq	ec48fc <__bss_end__+0xeb9a7c>
    1c10:	19270b39 	stmdbne	r7!, {r0, r3, r4, r5, r8, r9, fp}
    1c14:	06120111 			; <UNDEFINED> instruction: 0x06120111
    1c18:	42971840 	addsmi	r1, r7, #64, 16	; 0x400000
    1c1c:	00130119 	andseq	r0, r3, r9, lsl r1
    1c20:	00050b00 	andeq	r0, r5, r0, lsl #22
    1c24:	0b3a0803 	bleq	e83c38 <__bss_end__+0xe78db8>
    1c28:	0b390b3b 	bleq	e4491c <__bss_end__+0xe39a9c>
    1c2c:	18021349 	stmdane	r2, {r0, r3, r6, r8, r9, ip}
    1c30:	2e0c0000 	cdpcs	0, 0, cr0, cr12, cr0, {0}
    1c34:	03193f00 	tsteq	r9, #0, 30
    1c38:	3b0b3a0e 	blcc	2d0478 <__bss_end__+0x2c55f8>
    1c3c:	270b390b 	strcs	r3, [fp, -fp, lsl #18]
    1c40:	12011119 	andne	r1, r1, #1073741830	; 0x40000006
    1c44:	97184006 	ldrls	r4, [r8, -r6]
    1c48:	00001942 	andeq	r1, r0, r2, asr #18
    1c4c:	03012e0d 	movweq	r2, #7693	; 0x1e0d
    1c50:	3b0b3a0e 	blcc	2d0490 <__bss_end__+0x2c5610>
    1c54:	270b390b 	strcs	r3, [fp, -fp, lsl #18]
    1c58:	11134919 	tstne	r3, r9, lsl r9
    1c5c:	40061201 	andmi	r1, r6, r1, lsl #4
    1c60:	19429718 	stmdbne	r2, {r3, r4, r8, r9, sl, ip, pc}^
    1c64:	00001301 	andeq	r1, r0, r1, lsl #6
    1c68:	0300050e 	movweq	r0, #1294	; 0x50e
    1c6c:	3b0b3a08 	blcc	2d0494 <__bss_end__+0x2c5614>
    1c70:	490b390b 	stmdbmi	fp, {r0, r1, r3, r8, fp, ip, sp}
    1c74:	b7170213 			; <UNDEFINED> instruction: 0xb7170213
    1c78:	00001742 	andeq	r1, r0, r2, asr #14
    1c7c:	0182890f 	orreq	r8, r2, pc, lsl #18
    1c80:	31011101 	tstcc	r1, r1, lsl #2
    1c84:	10000013 	andne	r0, r0, r3, lsl r0
    1c88:	0001828a 	andeq	r8, r1, sl, lsl #5
    1c8c:	42911802 	addsmi	r1, r1, #131072	; 0x20000
    1c90:	11000018 	tstne	r0, r8, lsl r0
    1c94:	193f002e 	ldmdbne	pc!, {r1, r2, r3, r5}	; <UNPREDICTABLE>
    1c98:	0e6e193c 			; <UNDEFINED> instruction: 0x0e6e193c
    1c9c:	0b3a0e03 	bleq	e854b0 <__bss_end__+0xe7a630>
    1ca0:	0b390b3b 	bleq	e44994 <__bss_end__+0xe39b14>
    1ca4:	01000000 	mrseq	r0, (UNDEF: 0)
    1ca8:	0e250111 	mcreq	1, 1, r0, cr5, cr1, {0}
    1cac:	0e030b13 	vmoveq.32	d3[0], r0
    1cb0:	01110e1b 	tsteq	r1, fp, lsl lr
    1cb4:	17100612 			; <UNDEFINED> instruction: 0x17100612
    1cb8:	24020000 	strcs	r0, [r2], #-0
    1cbc:	3e0b0b00 	vmlacc.f64	d0, d11, d0
    1cc0:	0008030b 	andeq	r0, r8, fp, lsl #6
    1cc4:	00240300 	eoreq	r0, r4, r0, lsl #6
    1cc8:	0b3e0b0b 	bleq	f848fc <__bss_end__+0xf79a7c>
    1ccc:	00000e03 	andeq	r0, r0, r3, lsl #28
    1cd0:	27011504 	strcs	r1, [r1, -r4, lsl #10]
    1cd4:	01134919 	tsteq	r3, r9, lsl r9
    1cd8:	05000013 	streq	r0, [r0, #-19]	; 0xffffffed
    1cdc:	13490005 	movtne	r0, #36869	; 0x9005
    1ce0:	34060000 	strcc	r0, [r6], #-0
    1ce4:	3a0e0300 	bcc	3828ec <__bss_end__+0x377a6c>
    1ce8:	390b3b0b 	stmdbcc	fp, {r0, r1, r3, r8, r9, fp, ip, sp}
    1cec:	3f13490b 	svccc	0x0013490b
    1cf0:	00193c19 	andseq	r3, r9, r9, lsl ip
    1cf4:	000f0700 	andeq	r0, pc, r0, lsl #14
    1cf8:	13490b0b 	movtne	r0, #39691	; 0x9b0b
    1cfc:	26080000 	strcs	r0, [r8], -r0
    1d00:	00134900 	andseq	r4, r3, r0, lsl #18
    1d04:	012e0900 			; <UNDEFINED> instruction: 0x012e0900
    1d08:	0e03193f 			; <UNDEFINED> instruction: 0x0e03193f
    1d0c:	0b3b0b3a 	bleq	ec49fc <__bss_end__+0xeb9b7c>
    1d10:	19270b39 	stmdbne	r7!, {r0, r3, r4, r5, r8, r9, fp}
    1d14:	01111349 	tsteq	r1, r9, asr #6
    1d18:	18400612 	stmdane	r0, {r1, r4, r9, sl}^
    1d1c:	01194297 			; <UNDEFINED> instruction: 0x01194297
    1d20:	0a000013 	beq	1d74 <__code_start__-0x628c>
    1d24:	0e030005 	cdpeq	0, 0, cr0, cr3, cr5, {0}
    1d28:	0b3b0b3a 	bleq	ec4a18 <__bss_end__+0xeb9b98>
    1d2c:	13490b39 	movtne	r0, #39737	; 0x9b39
    1d30:	00001802 	andeq	r1, r0, r2, lsl #16
    1d34:	0300050b 	movweq	r0, #1291	; 0x50b
    1d38:	3b0b3a08 	blcc	2d0560 <__bss_end__+0x2c56e0>
    1d3c:	490b390b 	stmdbmi	fp, {r0, r1, r3, r8, fp, ip, sp}
    1d40:	b7170213 			; <UNDEFINED> instruction: 0xb7170213
    1d44:	00001742 	andeq	r1, r0, r2, asr #14
    1d48:	0300340c 	movweq	r3, #1036	; 0x40c
    1d4c:	3b0b3a08 	blcc	2d0574 <__bss_end__+0x2c56f4>
    1d50:	490b390b 	stmdbmi	fp, {r0, r1, r3, r8, fp, ip, sp}
    1d54:	b7170213 			; <UNDEFINED> instruction: 0xb7170213
    1d58:	00001742 	andeq	r1, r0, r2, asr #14
    1d5c:	01110100 	tsteq	r1, r0, lsl #2
    1d60:	0b130e25 	bleq	4c55fc <__bss_end__+0x4ba77c>
    1d64:	0e1b0e03 	cdpeq	14, 1, cr0, cr11, cr3, {0}
    1d68:	06120111 			; <UNDEFINED> instruction: 0x06120111
    1d6c:	00001710 	andeq	r1, r0, r0, lsl r7
    1d70:	0b002402 	bleq	ad80 <buf.3944+0x30c>
    1d74:	030b3e0b 	movweq	r3, #48651	; 0xbe0b
    1d78:	03000008 	movweq	r0, #8
    1d7c:	0b0b0024 	bleq	2c1e14 <__bss_end__+0x2b6f94>
    1d80:	0e030b3e 	vmoveq.16	d3[0], r0
    1d84:	15040000 	strne	r0, [r4, #-0]
    1d88:	49192701 	ldmdbmi	r9, {r0, r8, r9, sl, sp}
    1d8c:	00130113 	andseq	r0, r3, r3, lsl r1
    1d90:	00050500 	andeq	r0, r5, r0, lsl #10
    1d94:	00001349 	andeq	r1, r0, r9, asr #6
    1d98:	03003406 	movweq	r3, #1030	; 0x406
    1d9c:	3b0b3a0e 	blcc	2d05dc <__bss_end__+0x2c575c>
    1da0:	490b390b 	stmdbmi	fp, {r0, r1, r3, r8, fp, ip, sp}
    1da4:	3c193f13 	ldccc	15, cr3, [r9], {19}
    1da8:	07000019 	smladeq	r0, r9, r0, r0
    1dac:	0b0b000f 	bleq	2c1df0 <__bss_end__+0x2b6f70>
    1db0:	00001349 	andeq	r1, r0, r9, asr #6
    1db4:	49002608 	stmdbmi	r0, {r3, r9, sl, sp}
    1db8:	09000013 	stmdbeq	r0, {r0, r1, r4}
    1dbc:	193f012e 	ldmdbne	pc!, {r1, r2, r3, r5, r8}	; <UNPREDICTABLE>
    1dc0:	0b3a0e03 	bleq	e855d4 <__bss_end__+0xe7a754>
    1dc4:	0b390b3b 	bleq	e44ab8 <__bss_end__+0xe39c38>
    1dc8:	13491927 	movtne	r1, #39207	; 0x9927
    1dcc:	06120111 			; <UNDEFINED> instruction: 0x06120111
    1dd0:	42971840 	addsmi	r1, r7, #64, 16	; 0x400000
    1dd4:	0a000019 	beq	1e40 <__code_start__-0x61c0>
    1dd8:	08030005 	stmdaeq	r3, {r0, r2}
    1ddc:	0b3b0b3a 	bleq	ec4acc <__bss_end__+0xeb9c4c>
    1de0:	13490b39 	movtne	r0, #39737	; 0x9b39
    1de4:	42b71702 	adcsmi	r1, r7, #524288	; 0x80000
    1de8:	00000017 	andeq	r0, r0, r7, lsl r0
    1dec:	25011101 	strcs	r1, [r1, #-257]	; 0xfffffeff
    1df0:	030b130e 	movweq	r1, #45838	; 0xb30e
    1df4:	110e1b0e 	tstne	lr, lr, lsl #22
    1df8:	10061201 	andne	r1, r6, r1, lsl #4
    1dfc:	02000017 	andeq	r0, r0, #23, 0
    1e00:	0b0b0024 	bleq	2c1e98 <__bss_end__+0x2b7018>
    1e04:	08030b3e 	stmdaeq	r3, {r1, r2, r3, r4, r5, r8, r9, fp}
    1e08:	24030000 	strcs	r0, [r3], #-0
    1e0c:	3e0b0b00 	vmlacc.f64	d0, d11, d0
    1e10:	000e030b 	andeq	r0, lr, fp, lsl #6
    1e14:	01150400 	tsteq	r5, r0, lsl #8
    1e18:	13491927 	movtne	r1, #39207	; 0x9927
    1e1c:	00001301 	andeq	r1, r0, r1, lsl #6
    1e20:	49000505 	stmdbmi	r0, {r0, r2, r8, sl}
    1e24:	06000013 			; <UNDEFINED> instruction: 0x06000013
    1e28:	0e030034 	mcreq	0, 0, r0, cr3, cr4, {1}
    1e2c:	0b3b0b3a 	bleq	ec4b1c <__bss_end__+0xeb9c9c>
    1e30:	13490b39 	movtne	r0, #39737	; 0x9b39
    1e34:	193c193f 	ldmdbne	ip!, {r0, r1, r2, r3, r4, r5, r8, fp, ip}
    1e38:	0f070000 	svceq	0x00070000
    1e3c:	490b0b00 	stmdbmi	fp, {r8, r9, fp}
    1e40:	08000013 	stmdaeq	r0, {r0, r1, r4}
    1e44:	13490026 	movtne	r0, #36902	; 0x9026
    1e48:	2e090000 	cdpcs	0, 0, cr0, cr9, cr0, {0}
    1e4c:	03193f01 	tsteq	r9, #1, 30
    1e50:	3b0b3a0e 	blcc	2d0690 <__bss_end__+0x2c5810>
    1e54:	270b390b 	strcs	r3, [fp, -fp, lsl #18]
    1e58:	11134919 	tstne	r3, r9, lsl r9
    1e5c:	40061201 	andmi	r1, r6, r1, lsl #4
    1e60:	19429718 	stmdbne	r2, {r3, r4, r8, r9, sl, ip, pc}^
    1e64:	00001301 	andeq	r1, r0, r1, lsl #6
    1e68:	0300050a 	movweq	r0, #1290	; 0x50a
    1e6c:	3b0b3a08 	blcc	2d0694 <__bss_end__+0x2c5814>
    1e70:	490b390b 	stmdbmi	fp, {r0, r1, r3, r8, fp, ip, sp}
    1e74:	00180213 	andseq	r0, r8, r3, lsl r2
    1e78:	00050b00 	andeq	r0, r5, r0, lsl #22
    1e7c:	0b3a0803 	bleq	e83e90 <__bss_end__+0xe79010>
    1e80:	0b390b3b 	bleq	e44b74 <__bss_end__+0xe39cf4>
    1e84:	17021349 	strne	r1, [r2, -r9, asr #6]
    1e88:	001742b7 			; <UNDEFINED> instruction: 0x001742b7
    1e8c:	00340c00 	eorseq	r0, r4, r0, lsl #24
    1e90:	0b3a0803 	bleq	e83ea4 <__bss_end__+0xe79024>
    1e94:	0b390b3b 	bleq	e44b88 <__bss_end__+0xe39d08>
    1e98:	17021349 	strne	r1, [r2, -r9, asr #6]
    1e9c:	001742b7 			; <UNDEFINED> instruction: 0x001742b7
    1ea0:	11010000 	mrsne	r0, (UNDEF: 1)
    1ea4:	130e2501 	movwne	r2, #58625	; 0xe501
    1ea8:	1b0e030b 	blne	382adc <__bss_end__+0x377c5c>
    1eac:	1201110e 	andne	r1, r1, #-2147483645	; 0x80000003
    1eb0:	00171006 	andseq	r1, r7, r6
    1eb4:	00240200 	eoreq	r0, r4, r0, lsl #4
    1eb8:	0b3e0b0b 	bleq	f84aec <__bss_end__+0xf79c6c>
    1ebc:	00000803 	andeq	r0, r0, r3, lsl #16
    1ec0:	03001603 	movweq	r1, #1539	; 0x603
    1ec4:	3b0b3a0e 	blcc	2d0704 <__bss_end__+0x2c5884>
    1ec8:	490b390b 	stmdbmi	fp, {r0, r1, r3, r8, fp, ip, sp}
    1ecc:	04000013 	streq	r0, [r0], #-19	; 0xffffffed
    1ed0:	0b0b0024 	bleq	2c1f68 <__bss_end__+0x2b70e8>
    1ed4:	0e030b3e 	vmoveq.16	d3[0], r0
    1ed8:	26050000 	strcs	r0, [r5], -r0
    1edc:	00134900 	andseq	r4, r3, r0, lsl #18
    1ee0:	01150600 	tsteq	r5, r0, lsl #12
    1ee4:	13491927 	movtne	r1, #39207	; 0x9927
    1ee8:	00001301 	andeq	r1, r0, r1, lsl #6
    1eec:	49000507 	stmdbmi	r0, {r0, r1, r2, r8, sl}
    1ef0:	08000013 	stmdaeq	r0, {r0, r1, r4}
    1ef4:	0e030034 	mcreq	0, 0, r0, cr3, cr4, {1}
    1ef8:	0b3b0b3a 	bleq	ec4be8 <__bss_end__+0xeb9d68>
    1efc:	13490b39 	movtne	r0, #39737	; 0x9b39
    1f00:	193c193f 	ldmdbne	ip!, {r0, r1, r2, r3, r4, r5, r8, fp, ip}
    1f04:	0f090000 	svceq	0x00090000
    1f08:	490b0b00 	stmdbmi	fp, {r8, r9, fp}
    1f0c:	0a000013 	beq	1f60 <__code_start__-0x60a0>
    1f10:	193f012e 	ldmdbne	pc!, {r1, r2, r3, r5, r8}	; <UNPREDICTABLE>
    1f14:	0b3a0e03 	bleq	e85728 <__bss_end__+0xe7a8a8>
    1f18:	0b390b3b 	bleq	e44c0c <__bss_end__+0xe39d8c>
    1f1c:	13491927 	movtne	r1, #39207	; 0x9927
    1f20:	06120111 			; <UNDEFINED> instruction: 0x06120111
    1f24:	42971840 	addsmi	r1, r7, #64, 16	; 0x400000
    1f28:	00130119 	andseq	r0, r3, r9, lsl r1
    1f2c:	00050b00 	andeq	r0, r5, r0, lsl #22
    1f30:	0b3a0803 	bleq	e83f44 <__bss_end__+0xe790c4>
    1f34:	0b390b3b 	bleq	e44c28 <__bss_end__+0xe39da8>
    1f38:	17021349 	strne	r1, [r2, -r9, asr #6]
    1f3c:	001742b7 			; <UNDEFINED> instruction: 0x001742b7
    1f40:	00340c00 	eorseq	r0, r4, r0, lsl #24
    1f44:	0b3a0803 	bleq	e83f58 <__bss_end__+0xe790d8>
    1f48:	0b390b3b 	bleq	e44c3c <__bss_end__+0xe39dbc>
    1f4c:	17021349 	strne	r1, [r2, -r9, asr #6]
    1f50:	001742b7 			; <UNDEFINED> instruction: 0x001742b7
    1f54:	11010000 	mrsne	r0, (UNDEF: 1)
    1f58:	130e2501 	movwne	r2, #58625	; 0xe501
    1f5c:	1b0e030b 	blne	382b90 <__bss_end__+0x377d10>
    1f60:	1201110e 	andne	r1, r1, #-2147483645	; 0x80000003
    1f64:	00171006 	andseq	r1, r7, r6
    1f68:	00240200 	eoreq	r0, r4, r0, lsl #4
    1f6c:	0b3e0b0b 	bleq	f84ba0 <__bss_end__+0xf79d20>
    1f70:	00000803 	andeq	r0, r0, r3, lsl #16
    1f74:	0b002403 	bleq	af88 <__bss_end__+0x108>
    1f78:	030b3e0b 	movweq	r3, #48651	; 0xbe0b
    1f7c:	0400000e 	streq	r0, [r0], #-14
    1f80:	19270115 	stmdbne	r7!, {r0, r2, r4, r8}
    1f84:	13011349 	movwne	r1, #4937	; 0x1349
    1f88:	05050000 	streq	r0, [r5, #-0]
    1f8c:	00134900 	andseq	r4, r3, r0, lsl #18
    1f90:	00340600 	eorseq	r0, r4, r0, lsl #12
    1f94:	0b3a0e03 	bleq	e857a8 <__bss_end__+0xe7a928>
    1f98:	0b390b3b 	bleq	e44c8c <__bss_end__+0xe39e0c>
    1f9c:	193f1349 	ldmdbne	pc!, {r0, r3, r6, r8, r9, ip}	; <UNPREDICTABLE>
    1fa0:	0000193c 	andeq	r1, r0, ip, lsr r9
    1fa4:	0b000f07 	bleq	5bc8 <__code_start__-0x2438>
    1fa8:	0013490b 	andseq	r4, r3, fp, lsl #18
    1fac:	00260800 	eoreq	r0, r6, r0, lsl #16
    1fb0:	00001349 	andeq	r1, r0, r9, asr #6
    1fb4:	3f002e09 	svccc	0x00002e09
    1fb8:	3a0e0319 	bcc	382c24 <__bss_end__+0x377da4>
    1fbc:	390b3b0b 	stmdbcc	fp, {r0, r1, r3, r8, r9, fp, ip, sp}
    1fc0:	1119270b 	tstne	r9, fp, lsl #14
    1fc4:	40061201 	andmi	r1, r6, r1, lsl #4
    1fc8:	19429718 	stmdbne	r2, {r3, r4, r8, r9, sl, ip, pc}^
    1fcc:	Address 0x0000000000001fcc is out of bounds.


Disassembly of section .debug_loc:

00000000 <.debug_loc>:
       0:	00000000 	andeq	r0, r0, r0
       4:	00000108 	andeq	r0, r0, r8, lsl #2
       8:	0000010c 	andeq	r0, r0, ip, lsl #2
       c:	0c500001 	mrrceq	0, 0, r0, r0, cr1	; <UNPREDICTABLE>
      10:	13000001 	movwne	r0, #1
      14:	01000001 	tsteq	r0, r1
      18:	00005200 	andeq	r5, r0, r0, lsl #4
      1c:	00000000 	andeq	r0, r0, r0
      20:	05020000 	streq	r0, [r2, #-0]
      24:	00000108 	andeq	r0, r0, r8, lsl #2
      28:	00000108 	andeq	r0, r0, r8, lsl #2
      2c:	00500001 	subseq	r0, r0, r1
      30:	00000000 	andeq	r0, r0, r0
      34:	04000000 	streq	r0, [r0], #-0
      38:	08000000 	stmdaeq	r0, {}	; <UNPREDICTABLE>
      3c:	0c000001 	stceq	0, cr0, [r0], {1}
      40:	01000001 	tsteq	r0, r1
      44:	010c5000 	mrseq	r5, (UNDEF: 12)
      48:	01130000 	tsteq	r3, r0
      4c:	00010000 	andeq	r0, r1, r0
      50:	00000052 	andeq	r0, r0, r2, asr r0
	...
      5c:	00009c00 	andeq	r9, r0, r0, lsl #24
      60:	00009f00 	andeq	r9, r0, r0, lsl #30
      64:	50000100 	andpl	r0, r0, r0, lsl #2
      68:	0000009f 	muleq	r0, pc, r0	; <UNPREDICTABLE>
      6c:	000000ac 	andeq	r0, r0, ip, lsr #1
      70:	00540001 	subseq	r0, r4, r1
      74:	00000000 	andeq	r0, r0, r0
      78:	03000000 	movweq	r0, #0
      7c:	00004000 	andeq	r4, r0, r0
      80:	00005000 	andeq	r5, r0, r0
      84:	08000300 	stmdaeq	r0, {r8, r9}
      88:	00009f22 	andeq	r9, r0, r2, lsr #30
      8c:	00000000 	andeq	r0, r0, r0
      90:	00030000 	andeq	r0, r3, r0
      94:	00000040 	andeq	r0, r0, r0, asr #32
      98:	00000050 	andeq	r0, r0, r0, asr r0
      9c:	91f20006 	mvnsls	r0, r6
      a0:	00000004 	andeq	r0, r0, r4
	...
      ac:	00400003 	subeq	r0, r0, r3
      b0:	00500000 	subseq	r0, r0, r0
      b4:	00060000 	andeq	r0, r6, r0
      b8:	00a15803 	adceq	r5, r1, r3, lsl #16
      bc:	00009f00 	andeq	r9, r0, r0, lsl #30
      c0:	00000000 	andeq	r0, r0, r0
      c4:	00010000 	andeq	r0, r1, r0
      c8:	00000078 	andeq	r0, r0, r8, ror r0
      cc:	00000084 	andeq	r0, r0, r4, lsl #1
      d0:	25080003 	strcs	r0, [r8, #-3]
      d4:	0000009f 	muleq	r0, pc, r0	; <UNPREDICTABLE>
      d8:	00000000 	andeq	r0, r0, r0
      dc:	78000100 	stmdavc	r0, {r8}
      e0:	84000000 	strhi	r0, [r0], #-0
      e4:	06000000 	streq	r0, [r0], -r0
      e8:	0491f200 	ldreq	pc, [r1], #512	; 0x200
	...
      f4:	01000000 	mrseq	r0, (UNDEF: 0)
      f8:	00007800 	andeq	r7, r0, r0, lsl #16
      fc:	00008400 	andeq	r8, r0, r0, lsl #8
     100:	03000600 	movweq	r0, #1536	; 0x600
     104:	0000a158 	andeq	sl, r0, r8, asr r1
     108:	0000009f 	muleq	r0, pc, r0	; <UNPREDICTABLE>
	...
     114:	64000000 	strvs	r0, [r0], #-0
     118:	78000002 	stmdavc	r0, {r1}
     11c:	01000002 	tsteq	r0, r2
     120:	02785000 	rsbseq	r5, r8, #0, 0
     124:	02e40000 	rsceq	r0, r4, #0, 0
     128:	00010000 	andeq	r0, r1, r0
     12c:	0002e456 	andeq	lr, r2, r6, asr r4
     130:	0002f000 	andeq	pc, r2, r0
     134:	f3000400 	vshl.u8	d0, d0, d0
     138:	009f5001 	addseq	r5, pc, r1
	...
     148:	00028800 	andeq	r8, r2, r0, lsl #16
     14c:	00028f00 	andeq	r8, r2, r0, lsl #30
     150:	50000100 	andpl	r0, r0, r0, lsl #2
     154:	0000028f 	andeq	r0, r0, pc, lsl #5
     158:	000002e4 	andeq	r0, r0, r4, ror #5
     15c:	e4540001 	ldrb	r0, [r4], #-1
     160:	f0000002 			; <UNDEFINED> instruction: 0xf0000002
     164:	05000002 	streq	r0, [r0, #-2]
     168:	aa500300 	bge	1400d70 <__bss_end__+0x13f5ef0>
	...
     180:	000000d0 	ldrdeq	r0, [r0], -r0	; <UNPREDICTABLE>
     184:	000000e0 	andeq	r0, r0, r0, ror #1
     188:	e0500001 	subs	r0, r0, r1
     18c:	e0000000 	and	r0, r0, r0
     190:	01000001 	tsteq	r0, r1
     194:	01e05400 	mvneq	r5, r0, lsl #8
     198:	01e30000 	mvneq	r0, r0
     19c:	00040000 	andeq	r0, r4, r0
     1a0:	9f01a870 	svcls	0x0001a870
     1a4:	000001e3 	andeq	r0, r0, r3, ror #3
     1a8:	000001e4 	andeq	r0, r0, r4, ror #3
     1ac:	01f30004 	mvnseq	r0, r4
     1b0:	01e49f50 	mvneq	r9, r0, asr pc
     1b4:	02640000 	rsbeq	r0, r4, #0, 0
     1b8:	00010000 	andeq	r0, r1, r0
     1bc:	00000054 	andeq	r0, r0, r4, asr r0
	...
     1c8:	ec000000 	stc	0, cr0, [r0], {-0}
     1cc:	e0000000 	and	r0, r0, r0
     1d0:	08000001 	stmdaeq	r0, {r0}
     1d4:	57049300 	strpl	r9, [r4, -r0, lsl #6]
     1d8:	93580493 	cmpls	r8, #-1828716544	; 0x93000000
     1dc:	0001e004 	andeq	lr, r1, r4
     1e0:	0001e400 	andeq	lr, r1, r0, lsl #8
     1e4:	93000a00 	movwls	r0, #2560	; 0xa00
     1e8:	93589104 	cmpls	r8, #1
     1ec:	935c9104 	cmpls	ip, #1
     1f0:	0001e404 	andeq	lr, r1, r4, lsl #8
     1f4:	00026400 	andeq	r6, r2, r0, lsl #8
     1f8:	93000800 	movwls	r0, #2048	; 0x800
     1fc:	04935704 	ldreq	r5, [r3], #1796	; 0x704
     200:	00049358 	andeq	r9, r4, r8, asr r3
     204:	00000000 	andeq	r0, r0, r0
     208:	01000000 	mrseq	r0, (UNDEF: 0)
	...
     218:	0000ec00 	andeq	lr, r0, r0, lsl #24
     21c:	00011000 	andeq	r1, r1, r0
     220:	54000100 	strpl	r0, [r0], #-256	; 0xffffff00
     224:	00000110 	andeq	r0, r0, r0, lsl r1
     228:	00000134 	andeq	r0, r0, r4, lsr r1
     22c:	d8740004 	ldmdale	r4!, {r2}^
     230:	01349f7e 	teqeq	r4, lr, ror pc
     234:	01e00000 	mvneq	r0, r0
     238:	00010000 	andeq	r0, r1, r0
     23c:	0001e055 	andeq	lr, r1, r5, asr r0
     240:	0001e300 	andeq	lr, r1, r0, lsl #6
     244:	50000100 	andpl	r0, r0, r0, lsl #2
     248:	000001e3 	andeq	r0, r0, r3, ror #3
     24c:	000001e4 	andeq	r0, r0, r4, ror #3
     250:	01f30007 	mvnseq	r0, r7
     254:	1ca80850 	stcne	8, cr0, [r8], #320	; 0x140
     258:	0001e49f 	muleq	r1, pc, r4	; <UNPREDICTABLE>
     25c:	0001f000 	andeq	pc, r1, r0
     260:	55000100 	strpl	r0, [r0, #-256]	; 0xffffff00
     264:	000001f0 	strdeq	r0, [r0], -r0	; <UNPREDICTABLE>
     268:	00000264 	andeq	r0, r0, r4, ror #4
     26c:	d8740004 	ldmdale	r4!, {r2}^
     270:	00009f7e 	andeq	r9, r0, lr, ror pc
     274:	00000000 	andeq	r0, r0, r0
     278:	01020000 	mrseq	r0, (UNDEF: 2)
     27c:	00000124 	andeq	r0, r0, r4, lsr #2
     280:	0000017c 	andeq	r0, r0, ip, ror r1
     284:	00540001 	subseq	r0, r4, r1
	...
     290:	00012800 	andeq	r2, r1, r0, lsl #16
     294:	00017b00 	andeq	r7, r1, r0, lsl #22
     298:	52000100 	andpl	r0, r0, #0
	...
     2a4:	01380001 	teqeq	r8, r1
     2a8:	013c0000 	teqeq	ip, r0
     2ac:	00010000 	andeq	r0, r1, r0
     2b0:	00000052 	andeq	r0, r0, r2, asr r0
     2b4:	00000000 	andeq	r0, r0, r0
     2b8:	440d0100 	strmi	r0, [sp], #-256	; 0xffffff00
     2bc:	44000001 	strmi	r0, [r0], #-1
     2c0:	01000001 	tsteq	r0, r1
     2c4:	00005400 	andeq	r5, r0, r0, lsl #8
     2c8:	00000000 	andeq	r0, r0, r0
     2cc:	0d010000 	stceq	0, cr0, [r1, #-0]
     2d0:	00000144 	andeq	r0, r0, r4, asr #2
     2d4:	00000144 	andeq	r0, r0, r4, asr #2
     2d8:	00520001 	subseq	r0, r2, r1
     2dc:	00000000 	andeq	r0, r0, r0
     2e0:	05000000 	streq	r0, [r0, #-0]
     2e4:	00000000 	andeq	r0, r0, r0
     2e8:	00014400 	andeq	r4, r1, r0, lsl #8
     2ec:	00014c00 	andeq	r4, r1, r0, lsl #24
     2f0:	72000400 	andvc	r0, r0, #0, 8
     2f4:	4c9f01a8 	ldfmis	f0, [pc], {168}	; 0xa8
     2f8:	74000001 	strvc	r0, [r0], #-1
     2fc:	01000001 	tsteq	r0, r1
     300:	01745100 	cmneq	r4, r0, lsl #2
     304:	017b0000 	cmneq	fp, r0
     308:	00040000 	andeq	r0, r4, r0
     30c:	9f01a872 	svcls	0x0001a872
	...
     318:	0144000c 	cmpeq	r4, ip
     31c:	017b0000 	cmneq	fp, r0
     320:	000a0000 	andeq	r0, sl, r0
     324:	04720072 	ldrbteq	r0, [r2], #-114	; 0xffffff8e
     328:	a8232206 	stmdage	r3!, {r1, r2, r9, sp}
     32c:	00009f01 	andeq	r9, r0, r1, lsl #30
     330:	00000000 	andeq	r0, r0, r0
     334:	05030000 	streq	r0, [r3, #-0]
     338:	00000144 	andeq	r0, r0, r4, asr #2
     33c:	00000144 	andeq	r0, r0, r4, asr #2
     340:	00520001 	subseq	r0, r2, r1
     344:	00000000 	andeq	r0, r0, r0
     348:	07000000 	streq	r0, [r0, -r0]
     34c:	0001440c 	andeq	r4, r1, ip, lsl #8
     350:	00014400 	andeq	r4, r1, r0, lsl #8
     354:	52000100 	andpl	r0, r0, #0
	...
     360:	00000206 	andeq	r0, r0, r6, lsl #4
     364:	0000017c 	andeq	r0, r0, ip, ror r1
     368:	000001d4 	ldrdeq	r0, [r0], -r4
     36c:	50030006 	andpl	r0, r3, r6
     370:	9f0000aa 	svcls	0x000000aa
     374:	000001e4 	andeq	r0, r0, r4, ror #3
     378:	000001f0 	strdeq	r0, [r0], -r0	; <UNPREDICTABLE>
     37c:	50030006 	andpl	r0, r3, r6
     380:	9f0000aa 	svcls	0x000000aa
	...
     38c:	00000205 	andeq	r0, r0, r5, lsl #4
     390:	0000017c 	andeq	r0, r0, ip, ror r1
     394:	000001d4 	ldrdeq	r0, [r0], -r4
     398:	e4550001 	ldrb	r0, [r5], #-1
     39c:	f0000001 			; <UNDEFINED> instruction: 0xf0000001
     3a0:	01000001 	tsteq	r0, r1
     3a4:	00005500 	andeq	r5, r0, r0, lsl #10
	...
     3b8:	01800000 	orreq	r0, r0, r0
     3bc:	01a80000 			; <UNDEFINED> instruction: 0x01a80000
     3c0:	00010000 	andeq	r0, r1, r0
     3c4:	0001a853 	andeq	sl, r1, r3, asr r8
     3c8:	0001b000 	andeq	fp, r1, r0
     3cc:	52000100 	andpl	r0, r0, #0
     3d0:	000001b0 			; <UNDEFINED> instruction: 0x000001b0
     3d4:	000001b4 			; <UNDEFINED> instruction: 0x000001b4
     3d8:	cc530001 	mrrcgt	0, 0, r0, r3, cr1
     3dc:	d0000001 	andle	r0, r0, r1
     3e0:	01000001 	tsteq	r0, r1
     3e4:	01d05300 	bicseq	r5, r0, r0, lsl #6
     3e8:	01d40000 	bicseq	r0, r4, r0
     3ec:	00050000 	andeq	r0, r5, r0
     3f0:	00aa5003 	adceq	r5, sl, r3
     3f4:	0001e400 	andeq	lr, r1, r0, lsl #8
     3f8:	0001f000 	andeq	pc, r1, r0
     3fc:	53000100 	movwpl	r0, #256	; 0x100
	...
     40c:	01940000 	orrseq	r0, r4, r0
     410:	01b00000 	movseq	r0, r0
     414:	00010000 	andeq	r0, r1, r0
     418:	0001e452 	andeq	lr, r1, r2, asr r4
     41c:	0001e800 	andeq	lr, r1, r0, lsl #16
     420:	52000100 	andpl	r0, r0, #0
     424:	000001e8 	andeq	r0, r0, r8, ror #3
     428:	000001ec 	andeq	r0, r0, ip, ror #3
     42c:	00730002 	rsbseq	r0, r3, r2
	...
     438:	00010001 	andeq	r0, r1, r1
     43c:	00000188 	andeq	r0, r0, r8, lsl #3
     440:	00000194 	muleq	r0, r4, r1
     444:	a8530001 	ldmdage	r3, {r0}^
     448:	b0000001 	andlt	r0, r0, r1
     44c:	01000001 	tsteq	r0, r1
     450:	00005200 	andeq	r5, r0, r0, lsl #4
	...
     45c:	00100000 	andseq	r0, r0, r0
     460:	00180000 	andseq	r0, r8, r0
     464:	00010000 	andeq	r0, r1, r0
     468:	00001850 	andeq	r1, r0, r0, asr r8
     46c:	00001c00 	andeq	r1, r0, r0, lsl #24
     470:	f3000400 	vshl.u8	d0, d0, d0
     474:	009f5001 	addseq	r5, pc, r1
	...
     480:	1c000000 	stcne	0, cr0, [r0], {-0}
     484:	20000000 	andcs	r0, r0, r0
     488:	01000000 	mrseq	r0, (UNDEF: 0)
     48c:	00205000 	eoreq	r5, r0, r0
     490:	00240000 	eoreq	r0, r4, r0
     494:	00040000 	andeq	r0, r4, r0
     498:	9f7ed870 	svcls	0x007ed870
	...
     4a8:	00000024 	andeq	r0, r0, r4, lsr #32
     4ac:	00000030 	andeq	r0, r0, r0, lsr r0
     4b0:	30500001 	subscc	r0, r0, r1
     4b4:	34000000 	strcc	r0, [r0], #-0
     4b8:	04000000 	streq	r0, [r0], #-0
     4bc:	5001f300 	andpl	pc, r1, r0, lsl #6
     4c0:	0000009f 	muleq	r0, pc, r0	; <UNPREDICTABLE>
	...
     4cc:	00003400 	andeq	r3, r0, r0, lsl #8
     4d0:	00004400 	andeq	r4, r0, r0, lsl #8
     4d4:	50000100 	andpl	r0, r0, r0, lsl #2
     4d8:	00000044 	andeq	r0, r0, r4, asr #32
     4dc:	00000058 	andeq	r0, r0, r8, asr r0
     4e0:	d8720004 	ldmdale	r2!, {r2}^
     4e4:	00009f7e 	andeq	r9, r0, lr, ror pc
     4e8:	00000000 	andeq	r0, r0, r0
     4ec:	00040000 	andeq	r0, r4, r0
     4f0:	00340000 	eorseq	r0, r4, r0
     4f4:	003c0000 	eorseq	r0, ip, r0
     4f8:	00040000 	andeq	r0, r4, r0
     4fc:	9f01a870 	svcls	0x0001a870
     500:	0000003c 	andeq	r0, r0, ip, lsr r0
     504:	00000058 	andeq	r0, r0, r8, asr r0
     508:	00520001 	subseq	r0, r2, r1
     50c:	00000000 	andeq	r0, r0, r0
     510:	0b000000 	bleq	518 <__code_start__-0x7ae8>
     514:	34000000 	strcc	r0, [r0], #-0
     518:	44000000 	strmi	r0, [r0], #-0
     51c:	0a000000 	beq	524 <__code_start__-0x7adc>
     520:	70007000 	andvc	r7, r0, r0
     524:	23220604 			; <UNDEFINED> instruction: 0x23220604
     528:	449f01a8 	ldrmi	r0, [pc], #424	; 530 <__code_start__-0x7ad0>
     52c:	58000000 	stmdapl	r0, {}	; <UNPREDICTABLE>
     530:	08000000 	stmdaeq	r0, {}	; <UNPREDICTABLE>
     534:	72007200 	andvc	r7, r0, #0, 4
     538:	22067edc 	andcs	r7, r6, #220, 28	; 0xdc0
     53c:	0000009f 	muleq	r0, pc, r0	; <UNPREDICTABLE>
     540:	00000000 	andeq	r0, r0, r0
     544:	34040200 	strcc	r0, [r4], #-512	; 0xfffffe00
     548:	34000000 	strcc	r0, [r0], #-0
     54c:	01000000 	mrseq	r0, (UNDEF: 0)
     550:	00005000 	andeq	r5, r0, r0
     554:	00000000 	andeq	r0, r0, r0
     558:	0b060000 	bleq	180560 <__bss_end__+0x1756e0>
     55c:	00000034 	andeq	r0, r0, r4, lsr r0
     560:	00000034 	andeq	r0, r0, r4, lsr r0
     564:	00500001 	subseq	r0, r0, r1
	...
     574:	00005800 	andeq	r5, r0, r0, lsl #16
     578:	0000bc00 	andeq	fp, r0, r0, lsl #24
     57c:	50000100 	andpl	r0, r0, r0, lsl #2
     580:	000000bc 	strheq	r0, [r0], -ip
     584:	000000bf 	strheq	r0, [r0], -pc	; <UNPREDICTABLE>
     588:	bf510001 	svclt	0x00510001
     58c:	d0000000 	andle	r0, r0, r0
     590:	04000000 	streq	r0, [r0], #-0
     594:	5001f300 	andpl	pc, r1, r0, lsl #6
     598:	0000009f 	muleq	r0, pc, r0	; <UNPREDICTABLE>
     59c:	00000000 	andeq	r0, r0, r0
     5a0:	0d000000 	stceq	0, cr0, [r0, #-0]
     5a4:	00006400 	andeq	r6, r0, r0, lsl #8
     5a8:	00007c00 	andeq	r7, r0, r0, lsl #24
     5ac:	54000100 	strpl	r0, [r0], #-256	; 0xffffff00
     5b0:	0000007c 	andeq	r0, r0, ip, ror r0
     5b4:	000000d0 	ldrdeq	r0, [r0], -r0	; <UNPREDICTABLE>
     5b8:	00540001 	subseq	r0, r4, r1
     5bc:	00000000 	andeq	r0, r0, r0
     5c0:	01000000 	mrseq	r0, (UNDEF: 0)
     5c4:	6c0d000d 	stcvs	0, cr0, [sp], {13}
     5c8:	6c000000 	stcvs	0, cr0, [r0], {-0}
     5cc:	01000000 	mrseq	r0, (UNDEF: 0)
     5d0:	007c5000 	rsbseq	r5, ip, r0
     5d4:	007c0000 	rsbseq	r0, ip, r0
     5d8:	00010000 	andeq	r0, r1, r0
     5dc:	00000050 	andeq	r0, r0, r0, asr r0
     5e0:	00000000 	andeq	r0, r0, r0
     5e4:	000d0100 	andeq	r0, sp, r0, lsl #2
     5e8:	00006c0d 	andeq	r6, r0, sp, lsl #24
     5ec:	00006c00 	andeq	r6, r0, r0, lsl #24
     5f0:	54000100 	strpl	r0, [r0], #-256	; 0xffffff00
     5f4:	0000007c 	andeq	r0, r0, ip, ror r0
     5f8:	0000007c 	andeq	r0, r0, ip, ror r0
     5fc:	00540001 	subseq	r0, r4, r1
     600:	00000000 	andeq	r0, r0, r0
     604:	05000000 	streq	r0, [r0, #-0]
     608:	02020000 	andeq	r0, r2, #0, 0
     60c:	00000505 	andeq	r0, r0, r5, lsl #10
     610:	00006c00 	andeq	r6, r0, r0, lsl #24
     614:	00007400 	andeq	r7, r0, r0, lsl #8
     618:	74000400 	strvc	r0, [r0], #-1024	; 0xfffffc00
     61c:	749f01a8 	ldrvc	r0, [pc], #424	; 624 <__code_start__-0x79dc>
     620:	78000000 	stmdavc	r0, {}	; <UNPREDICTABLE>
     624:	01000000 	mrseq	r0, (UNDEF: 0)
     628:	00785200 	rsbseq	r5, r8, r0, lsl #4
     62c:	007c0000 	rsbseq	r0, ip, r0
     630:	000a0000 	andeq	r0, sl, r0
     634:	00aa5003 	adceq	r5, sl, r3
     638:	a8230600 	stmdage	r3!, {r9, sl}
     63c:	007c9f01 	rsbseq	r9, ip, r1, lsl #30
     640:	00840000 	addeq	r0, r4, r0
     644:	00040000 	andeq	r0, r4, r0
     648:	9f01a874 	svcls	0x0001a874
     64c:	00000084 	andeq	r0, r0, r4, lsl #1
     650:	000000b8 	strheq	r0, [r0], -r8
     654:	00520001 	subseq	r0, r2, r1
     658:	00000000 	andeq	r0, r0, r0
     65c:	0c000000 	stceq	0, cr0, [r0], {-0}
     660:	0c0c0200 	sfmeq	f0, 4, [ip], {-0}
     664:	00006c00 	andeq	r6, r0, r0, lsl #24
     668:	00007800 	andeq	r7, r0, r0, lsl #16
     66c:	74000a00 	strvc	r0, [r0], #-2560	; 0xfffff600
     670:	06047400 	streq	r7, [r4], -r0, lsl #8
     674:	01a82322 			; <UNDEFINED> instruction: 0x01a82322
     678:	0000789f 	muleq	r0, pc, r8	; <UNPREDICTABLE>
     67c:	00007c00 	andeq	r7, r0, r0, lsl #24
     680:	03001400 	movweq	r1, #1024	; 0x400
     684:	0000aa50 	andeq	sl, r0, r0, asr sl
     688:	aa500306 	bge	14012a8 <__bss_end__+0x13f6428>
     68c:	23060000 	movwcs	r0, #24576	; 0x6000
     690:	23220604 			; <UNDEFINED> instruction: 0x23220604
     694:	7c9f01a8 	ldfvcs	f0, [pc], {168}	; 0xa8
     698:	8c000000 	stchi	0, cr0, [r0], {-0}
     69c:	0a000000 	beq	6a4 <__code_start__-0x795c>
     6a0:	74007400 	strvc	r7, [r0], #-1024	; 0xfffffc00
     6a4:	23220604 			; <UNDEFINED> instruction: 0x23220604
     6a8:	009f01a8 	addseq	r0, pc, r8, lsr #3
     6ac:	00000000 	andeq	r0, r0, r0
     6b0:	03000000 	movweq	r0, #0
     6b4:	6c050305 	stcvs	3, cr0, [r5], {5}
     6b8:	6c000000 	stcvs	0, cr0, [r0], {-0}
     6bc:	01000000 	mrseq	r0, (UNDEF: 0)
     6c0:	007c5400 	rsbseq	r5, ip, r0, lsl #8
     6c4:	007c0000 	rsbseq	r0, ip, r0
     6c8:	00010000 	andeq	r0, r1, r0
     6cc:	00000054 	andeq	r0, r0, r4, asr r0
     6d0:	00000000 	andeq	r0, r0, r0
     6d4:	070c0700 	streq	r0, [ip, -r0, lsl #14]
     6d8:	00006c0c 	andeq	r6, r0, ip, lsl #24
     6dc:	00006c00 	andeq	r6, r0, r0, lsl #24
     6e0:	54000100 	strpl	r0, [r0], #-256	; 0xffffff00
     6e4:	0000007c 	andeq	r0, r0, ip, ror r0
     6e8:	0000007c 	andeq	r0, r0, ip, ror r0
     6ec:	00540001 	subseq	r0, r4, r1
     6f0:	00000000 	andeq	r0, r0, r0
     6f4:	03000000 	movweq	r0, #0
     6f8:	00007800 	andeq	r7, r0, r0, lsl #16
     6fc:	00007c00 	andeq	r7, r0, r0, lsl #24
     700:	54000100 	strpl	r0, [r0], #-256	; 0xffffff00
	...
     714:	006c0000 	rsbeq	r0, ip, r0
     718:	00010000 	andeq	r0, r1, r0
     71c:	00006c50 	andeq	r6, r0, r0, asr ip
     720:	00007400 	andeq	r7, r0, r0, lsl #8
     724:	71000300 	mrsvc	r0, LR_irq
     728:	00749f08 	rsbseq	r9, r4, r8, lsl #30
     72c:	00880000 	addeq	r0, r8, r0
     730:	00040000 	andeq	r0, r4, r0
     734:	9f5001f3 	svcls	0x005001f3
	...
     744:	0000000c 	andeq	r0, r0, ip
     748:	00000074 	andeq	r0, r0, r4, ror r0
     74c:	74510001 	ldrbvc	r0, [r1], #-1
     750:	88000000 	stmdahi	r0, {}	; <UNPREDICTABLE>
     754:	06000000 	streq	r0, [r0], -r0
     758:	5001f300 	andpl	pc, r1, r0, lsl #6
     75c:	009f1c38 	addseq	r1, pc, r8, lsr ip	; <UNPREDICTABLE>
	...
     768:	00001000 	andeq	r1, r0, r0
     76c:	00008800 	andeq	r8, r0, r0, lsl #16
     770:	53000100 	movwpl	r0, #256	; 0x100
	...
     784:	00000088 	andeq	r0, r0, r8, lsl #1
     788:	000000ac 	andeq	r0, r0, ip, lsr #1
     78c:	ac500001 	mrrcge	0, 0, r0, r0, cr1	; <UNPREDICTABLE>
     790:	5c000000 	stcpl	0, cr0, [r0], {-0}
     794:	04000001 	streq	r0, [r0], #-1
     798:	5001f300 	andpl	pc, r1, r0, lsl #6
     79c:	00015c9f 	muleq	r1, pc, ip	; <UNPREDICTABLE>
     7a0:	00016800 	andeq	r6, r1, r0, lsl #16
     7a4:	50000100 	andpl	r0, r0, r0, lsl #2
     7a8:	00000168 	andeq	r0, r0, r8, ror #2
     7ac:	00000188 	andeq	r0, r0, r8, lsl #3
     7b0:	01f30004 	mvnseq	r0, r4
     7b4:	00009f50 	andeq	r9, r0, r0, asr pc
	...
     7c4:	01010100 	mrseq	r0, (UNDEF: 17)
     7c8:	00020001 	andeq	r0, r2, r1
     7cc:	00ac0000 	adceq	r0, ip, r0
     7d0:	00b80000 	adcseq	r0, r8, r0
     7d4:	00010000 	andeq	r0, r1, r0
     7d8:	0000c450 	andeq	ip, r0, r0, asr r4
     7dc:	0000c800 	andeq	ip, r0, r0, lsl #16
     7e0:	53000100 	movwpl	r0, #256	; 0x100
     7e4:	000000c8 	andeq	r0, r0, r8, asr #1
     7e8:	000000d4 	ldrdeq	r0, [r0], -r4
     7ec:	10500001 	subsne	r0, r0, r1
     7f0:	20000001 	andcs	r0, r0, r1
     7f4:	01000001 	tsteq	r0, r1
     7f8:	01205300 			; <UNDEFINED> instruction: 0x01205300
     7fc:	013c0000 	teqeq	ip, r0
     800:	00010000 	andeq	r0, r1, r0
     804:	00013c50 	andeq	r3, r1, r0, asr ip
     808:	00014000 	andeq	r4, r1, r0
     80c:	72000800 	andvc	r0, r0, #0, 16
     810:	70243300 	eorvc	r3, r4, r0, lsl #6
     814:	749f2200 	ldrvc	r2, [pc], #512	; 81c <__code_start__-0x77e4>
     818:	78000001 	stmdavc	r0, {r0}
     81c:	06000001 	streq	r0, [r0], -r1
     820:	aa600300 	bge	1801428 <__bss_end__+0x17f65a8>
     824:	789f0000 	ldmvc	pc, {}	; <UNPREDICTABLE>
     828:	88000001 	stmdahi	r0, {r0}
     82c:	01000001 	tsteq	r0, r1
     830:	00005000 	andeq	r5, r0, r0
     834:	00000000 	andeq	r0, r0, r0
     838:	00010000 	andeq	r0, r1, r0
     83c:	00010002 	andeq	r0, r1, r2
     840:	00010100 	andeq	r0, r1, r0, lsl #2
     844:	00a40000 	adceq	r0, r4, r0
     848:	00b80000 	adcseq	r0, r8, r0
     84c:	00010000 	andeq	r0, r1, r0
     850:	0000c451 	andeq	ip, r0, r1, asr r4
     854:	0000d400 	andeq	sp, r0, r0, lsl #8
     858:	53000100 	movwpl	r0, #256	; 0x100
     85c:	00000120 	andeq	r0, r0, r0, lsr #2
     860:	0000012c 	andeq	r0, r0, ip, lsr #2
     864:	5c530001 	mrrcpl	0, 0, r0, r3, cr1
     868:	5c000001 	stcpl	0, cr0, [r0], {1}
     86c:	01000001 	tsteq	r0, r1
     870:	015c5100 	cmpeq	ip, r0, lsl #2
     874:	01780000 	cmneq	r8, r0
     878:	00060000 	andeq	r0, r6, r0
     87c:	00aa6003 	adceq	r6, sl, r3
     880:	01789f00 	cmneq	r8, r0, lsl #30
     884:	01880000 	orreq	r0, r8, r0
     888:	00010000 	andeq	r0, r1, r0
     88c:	00000051 	andeq	r0, r0, r1, asr r0
     890:	00000000 	andeq	r0, r0, r0
     894:	a4000000 	strge	r0, [r0], #-0
     898:	88000000 	stmdahi	r0, {}	; <UNPREDICTABLE>
     89c:	01000001 	tsteq	r0, r1
     8a0:	00005400 	andeq	r5, r0, r0, lsl #8
     8a4:	00000000 	andeq	r0, r0, r0
     8a8:	00020000 	andeq	r0, r2, r0
     8ac:	000000e0 	andeq	r0, r0, r0, ror #1
     8b0:	00000110 	andeq	r0, r0, r0, lsl r1
     8b4:	000a0004 	andeq	r0, sl, r4
     8b8:	00009f80 	andeq	r9, r0, r0, lsl #31
	...
     8c4:	00f80000 	rscseq	r0, r8, r0
     8c8:	01000000 	mrseq	r0, (UNDEF: 0)
     8cc:	00010000 	andeq	r0, r1, r0
     8d0:	00010050 	andeq	r0, r1, r0, asr r0
     8d4:	00010b00 	andeq	r0, r1, r0, lsl #22
     8d8:	53000100 	movwpl	r0, #256	; 0x100
	...
     8e4:	00000001 	andeq	r0, r0, r1
     8e8:	000000f8 	strdeq	r0, [r0], -r8
     8ec:	00000100 	andeq	r0, r0, r0, lsl #2
     8f0:	00500001 	subseq	r0, r0, r1
     8f4:	0b000001 	bleq	900 <__code_start__-0x7700>
     8f8:	01000001 	tsteq	r0, r1
     8fc:	00005300 	andeq	r5, r0, r0, lsl #6
     900:	00000000 	andeq	r0, r0, r0
     904:	00020000 	andeq	r0, r2, r0
     908:	000004d0 	ldrdeq	r0, [r0], -r0	; <UNPREDICTABLE>
     90c:	000004dc 	ldrdeq	r0, [r0], -ip
     910:	00550001 	subseq	r0, r5, r1
     914:	00000000 	andeq	r0, r0, r0
     918:	03000000 	movweq	r0, #0
     91c:	00000000 	andeq	r0, r0, r0
     920:	64000000 	strvs	r0, [r0], #-0
     924:	9c000004 	stcls	0, cr0, [r0], {4}
     928:	02000004 	andeq	r0, r0, #4, 0
     92c:	9c9f3000 	ldcls	0, cr3, [pc], {0}
     930:	bc000004 	stclt	0, cr0, [r0], {4}
     934:	01000004 	tsteq	r0, r4
     938:	04dc5600 	ldrbeq	r5, [ip], #1536	; 0x600
     93c:	052c0000 	streq	r0, [ip, #-0]!
     940:	00010000 	andeq	r0, r1, r0
     944:	00052c56 	andeq	r2, r5, r6, asr ip
     948:	00055800 	andeq	r5, r5, r0, lsl #16
     94c:	30000200 	andcc	r0, r0, r0, lsl #4
     950:	0000009f 	muleq	r0, pc, r0	; <UNPREDICTABLE>
     954:	00000000 	andeq	r0, r0, r0
     958:	00000300 	andeq	r0, r0, r0, lsl #6
     95c:	00000000 	andeq	r0, r0, r0
     960:	00046400 	andeq	r6, r4, r0, lsl #8
     964:	00049c00 	andeq	r9, r4, r0, lsl #24
     968:	30000200 	andcc	r0, r0, r0, lsl #4
     96c:	00049c9f 	muleq	r4, pc, ip	; <UNPREDICTABLE>
     970:	0004bc00 	andeq	fp, r4, r0, lsl #24
     974:	57000100 	strpl	r0, [r0, -r0, lsl #2]
     978:	000004dc 	ldrdeq	r0, [r0], -ip
     97c:	0000052c 	andeq	r0, r0, ip, lsr #10
     980:	2c570001 	mrrccs	0, 0, r0, r7, cr1
     984:	58000005 	stmdapl	r0, {r0, r2}
     988:	02000005 	andeq	r0, r0, #5, 0
     98c:	009f3000 	addseq	r3, pc, r0
     990:	00000000 	andeq	r0, r0, r0
     994:	03000000 	movweq	r0, #0
     998:	00000000 	andeq	r0, r0, r0
     99c:	00000100 	andeq	r0, r0, r0, lsl #2
     9a0:	00046400 	andeq	r6, r4, r0, lsl #8
     9a4:	00049c00 	andeq	r9, r4, r0, lsl #24
     9a8:	30000200 	andcc	r0, r0, r0, lsl #4
     9ac:	00049c9f 	muleq	r4, pc, ip	; <UNPREDICTABLE>
     9b0:	0004bc00 	andeq	fp, r4, r0, lsl #24
     9b4:	55000100 	strpl	r0, [r0, #-256]	; 0xffffff00
     9b8:	000004dc 	ldrdeq	r0, [r0], -ip
     9bc:	00000504 	andeq	r0, r0, r4, lsl #10
     9c0:	24550001 	ldrbcs	r0, [r5], #-1
     9c4:	2c000005 	stccs	0, cr0, [r0], {5}
     9c8:	01000005 	tsteq	r0, r5
     9cc:	052c5500 	streq	r5, [ip, #-1280]!	; 0xfffffb00
     9d0:	05580000 	ldrbeq	r0, [r8, #-0]
     9d4:	00020000 	andeq	r0, r2, r0
     9d8:	00009f30 	andeq	r9, r0, r0, lsr pc
	...
     9e8:	07000000 	streq	r0, [r0, -r0]
     9ec:	047c0007 	ldrbteq	r0, [ip], #-7
     9f0:	049c0000 	ldreq	r0, [ip], #0
     9f4:	00010000 	andeq	r0, r1, r0
     9f8:	00049c50 	andeq	r9, r4, r0, asr ip
     9fc:	0004b400 	andeq	fp, r4, r0, lsl #8
     a00:	54000100 	strpl	r0, [r0], #-256	; 0xffffff00
     a04:	000004b4 			; <UNDEFINED> instruction: 0x000004b4
     a08:	000004bc 			; <UNDEFINED> instruction: 0x000004bc
     a0c:	dc500001 	mrrcle	0, 0, r0, r0, cr1	; <UNPREDICTABLE>
     a10:	20000004 	andcs	r0, r0, r4
     a14:	01000005 	tsteq	r0, r5
     a18:	05205400 	streq	r5, [r0, #-1024]!	; 0xfffffc00
     a1c:	05240000 	streq	r0, [r4, #-0]!
     a20:	00040000 	andeq	r0, r4, r0
     a24:	9f7ed87b 	svcls	0x007ed87b
     a28:	00000524 	andeq	r0, r0, r4, lsr #10
     a2c:	00000558 	andeq	r0, r0, r8, asr r5
     a30:	00500001 	subseq	r0, r0, r1
     a34:	00000000 	andeq	r0, r0, r0
     a38:	02000000 	andeq	r0, r0, #0, 0
     a3c:	00052404 	andeq	r2, r5, r4, lsl #8
     a40:	00052400 	andeq	r2, r5, r0, lsl #8
     a44:	0a000400 	beq	1a4c <__code_start__-0x65b4>
     a48:	009f0101 	addseq	r0, pc, r1, lsl #2
     a4c:	00000000 	andeq	r0, r0, r0
     a50:	02000000 	andeq	r0, r0, #0, 0
     a54:	00052404 	andeq	r2, r5, r4, lsl #8
     a58:	00052400 	andeq	r2, r5, r0, lsl #8
     a5c:	f2000600 	vmax.s8	d0, d0, d0
     a60:	00001e81 	andeq	r1, r0, r1, lsl #29
	...
     a6c:	24040200 	strcs	r0, [r4], #-512	; 0xfffffe00
     a70:	24000005 	strcs	r0, [r0], #-5
     a74:	06000005 	streq	r0, [r0], -r5
     a78:	a3680300 	cmnge	r8, #0, 6
     a7c:	009f0000 	addseq	r0, pc, r0
	...
     a8c:	00041400 	andeq	r1, r4, r0, lsl #8
     a90:	00042400 	andeq	r2, r4, r0, lsl #8
     a94:	50000100 	andpl	r0, r0, r0, lsl #2
     a98:	00000424 	andeq	r0, r0, r4, lsr #8
     a9c:	00000427 	andeq	r0, r0, r7, lsr #8
     aa0:	27510001 	ldrbcs	r0, [r1, -r1]
     aa4:	58000004 	stmdapl	r0, {r2}
     aa8:	01000004 	tsteq	r0, r4
     aac:	00005400 	andeq	r5, r0, r0, lsl #8
     ab0:	00000000 	andeq	r0, r0, r0
     ab4:	00020000 	andeq	r0, r2, r0
     ab8:	0000040c 	andeq	r0, r0, ip, lsl #8
     abc:	00000414 	andeq	r0, r0, r4, lsl r4
     ac0:	9f310002 	svcls	0x00310002
	...
     acc:	03c40002 	biceq	r0, r4, #2, 0
     ad0:	03cc0000 	biceq	r0, ip, #0, 0
     ad4:	00020000 	andeq	r0, r2, r0
     ad8:	00009f31 	andeq	r9, r0, r1, lsr pc
	...
     ae4:	02000000 	andeq	r0, r0, #0, 0
     ae8:	020c0000 	andeq	r0, ip, #0, 0
     aec:	00010000 	andeq	r0, r1, r0
     af0:	00020c50 	andeq	r0, r2, r0, asr ip
     af4:	00032000 	andeq	r2, r3, r0
     af8:	58000100 	stmdapl	r0, {r8}
	...
     b04:	00000002 	andeq	r0, r0, r2
     b08:	02000000 	andeq	r0, r0, #0, 0
     b0c:	00000200 	andeq	r0, r0, r0, lsl #4
     b10:	00000240 	andeq	r0, r0, r0, asr #4
     b14:	9f300002 	svcls	0x00300002
     b18:	00000240 	andeq	r0, r0, r0, asr #4
     b1c:	000002b0 			; <UNDEFINED> instruction: 0x000002b0
     b20:	c8550001 	ldmdagt	r5, {r0}^
     b24:	e0000002 	and	r0, r0, r2
     b28:	01000002 	tsteq	r0, r2
     b2c:	02e05500 	rsceq	r5, r0, #0, 10
     b30:	02ec0000 	rsceq	r0, ip, #0, 0
     b34:	00020000 	andeq	r0, r2, r0
     b38:	00009f30 	andeq	r9, r0, r0, lsr pc
     b3c:	00000000 	andeq	r0, r0, r0
     b40:	00020000 	andeq	r0, r2, r0
     b44:	00000000 	andeq	r0, r0, r0
     b48:	02000200 	andeq	r0, r0, #0, 4
     b4c:	02400000 	subeq	r0, r0, #0, 0
     b50:	00020000 	andeq	r0, r2, r0
     b54:	02409f30 	subeq	r9, r0, #48, 30	; 0xc0
     b58:	02b00000 	adcseq	r0, r0, #0, 0
     b5c:	00010000 	andeq	r0, r1, r0
     b60:	0002c856 	andeq	ip, r2, r6, asr r8
     b64:	0002e000 	andeq	lr, r2, r0
     b68:	56000100 	strpl	r0, [r0], -r0, lsl #2
     b6c:	000002e0 	andeq	r0, r0, r0, ror #5
     b70:	000002ec 	andeq	r0, r0, ip, ror #5
     b74:	9f300002 	svcls	0x00300002
	...
     b80:	00000002 	andeq	r0, r0, r2
     b84:	02000000 	andeq	r0, r0, #0, 0
     b88:	00000200 	andeq	r0, r0, r0, lsl #4
     b8c:	00000240 	andeq	r0, r0, r0, asr #4
     b90:	9f300002 	svcls	0x00300002
     b94:	00000240 	andeq	r0, r0, r0, asr #4
     b98:	000002b0 			; <UNDEFINED> instruction: 0x000002b0
     b9c:	c8570001 	ldmdagt	r7, {r0}^
     ba0:	e0000002 	and	r0, r0, r2
     ba4:	01000002 	tsteq	r0, r2
     ba8:	02e05700 	rsceq	r5, r0, #0, 14
     bac:	02ec0000 	rsceq	r0, ip, #0, 0
     bb0:	00020000 	andeq	r0, r2, r0
     bb4:	00009f30 	andeq	r9, r0, r0, lsr pc
	...
     bc8:	00000002 	andeq	r0, r0, r2
	...
     bd4:	00000220 	andeq	r0, r0, r0, lsr #4
     bd8:	00000248 	andeq	r0, r0, r8, asr #4
     bdc:	48500001 	ldmdami	r0, {r0}^
     be0:	50000002 	andpl	r0, r0, r2
     be4:	01000002 	tsteq	r0, r2
     be8:	02505400 	subseq	r5, r0, #0, 8
     bec:	02740000 	rsbseq	r0, r4, #0, 0
     bf0:	00010000 	andeq	r0, r1, r0
     bf4:	00027450 	andeq	r7, r2, r0, asr r4
     bf8:	00027700 	andeq	r7, r2, r0, lsl #14
     bfc:	52000100 	andpl	r0, r0, #0
     c00:	00000277 	andeq	r0, r0, r7, ror r2
     c04:	00000284 	andeq	r0, r0, r4, lsl #5
     c08:	88540001 	ldmdahi	r4, {r0}^
     c0c:	94000002 	strls	r0, [r0], #-2
     c10:	01000002 	tsteq	r0, r2
     c14:	02945000 	addseq	r5, r4, #0, 0
     c18:	02c80000 	sbceq	r0, r8, #0, 0
     c1c:	00010000 	andeq	r0, r1, r0
     c20:	0002c854 	andeq	ip, r2, r4, asr r8
     c24:	0002d400 	andeq	sp, r2, r0, lsl #8
     c28:	50000100 	andpl	r0, r0, r0, lsl #2
     c2c:	000002d4 	ldrdeq	r0, [r0], -r4
     c30:	000002e0 	andeq	r0, r0, r0, ror #5
     c34:	e0540001 	subs	r0, r4, r1
     c38:	e8000002 	stmda	r0, {r1}
     c3c:	01000002 	tsteq	r0, r2
     c40:	02e85000 	rsceq	r5, r8, #0, 0
     c44:	03200000 	nopeq	{0}	; <UNPREDICTABLE>
     c48:	00010000 	andeq	r0, r1, r0
     c4c:	00000054 	andeq	r0, r0, r4, asr r0
	...
     c58:	00016800 	andeq	r6, r1, r0, lsl #16
     c5c:	00018300 	andeq	r8, r1, r0, lsl #6
     c60:	50000100 	andpl	r0, r0, r0, lsl #2
     c64:	00000184 	andeq	r0, r0, r4, lsl #3
     c68:	00000190 	muleq	r0, r0, r1
     c6c:	00500001 	subseq	r0, r0, r1
	...
     c84:	20000000 	andcs	r0, r0, r0
     c88:	4c000003 	stcmi	0, cr0, [r0], {3}
     c8c:	01000003 	tsteq	r0, r3
     c90:	034c5000 	movteq	r5, #49152	; 0xc000
     c94:	03680000 	cmneq	r8, #0, 0
     c98:	00010000 	andeq	r0, r1, r0
     c9c:	00036854 	andeq	r6, r3, r4, asr r8
     ca0:	00036b00 	andeq	r6, r3, r0, lsl #22
     ca4:	50000100 	andpl	r0, r0, r0, lsl #2
     ca8:	0000036b 	andeq	r0, r0, fp, ror #6
     cac:	0000036c 	andeq	r0, r0, ip, ror #6
     cb0:	01f30004 	mvnseq	r0, r4
     cb4:	036c9f50 	cmneq	ip, #80, 30	; 0x140
     cb8:	03800000 	orreq	r0, r0, #0, 0
     cbc:	00010000 	andeq	r0, r1, r0
     cc0:	00038050 	andeq	r8, r3, r0, asr r0
     cc4:	00038c00 	andeq	r8, r3, r0, lsl #24
     cc8:	54000100 	strpl	r0, [r0], #-256	; 0xffffff00
     ccc:	0000038c 	andeq	r0, r0, ip, lsl #7
     cd0:	0000039c 	muleq	r0, ip, r3
     cd4:	9c500001 	mrrcls	0, 0, r0, r0, cr1	; <UNPREDICTABLE>
     cd8:	bc000003 	stclt	0, cr0, [r0], {3}
     cdc:	01000003 	tsteq	r0, r3
     ce0:	00005400 	andeq	r5, r0, r0, lsl #8
     ce4:	00000000 	andeq	r0, r0, r0
     ce8:	00020000 	andeq	r0, r2, r0
     cec:	00000340 	andeq	r0, r0, r0, asr #6
     cf0:	0000036c 	andeq	r0, r0, ip, ror #6
     cf4:	40400004 	submi	r0, r0, r4
     cf8:	00009f24 	andeq	r9, r0, r4, lsr #30
	...
     d0c:	004c0000 	subeq	r0, ip, r0
     d10:	00010000 	andeq	r0, r1, r0
     d14:	00004c50 	andeq	r4, r0, r0, asr ip
     d18:	00011400 	andeq	r1, r1, r0, lsl #8
     d1c:	f3000400 	vshl.u8	d0, d0, d0
     d20:	149f5001 	ldrne	r5, [pc], #1	; d28 <__code_start__-0x72d8>
     d24:	28000001 	stmdacs	r0, {r0}
     d28:	01000001 	tsteq	r0, r1
     d2c:	01285000 			; <UNDEFINED> instruction: 0x01285000
     d30:	015c0000 	cmpeq	ip, r0
     d34:	00040000 	andeq	r0, r4, r0
     d38:	9f5001f3 	svcls	0x005001f3
	...
     d50:	00000038 	andeq	r0, r0, r8, lsr r0
     d54:	38510001 	ldmdacc	r1, {r0}^
     d58:	14000000 	strne	r0, [r0], #-0
     d5c:	04000001 	streq	r0, [r0], #-1
     d60:	5101f300 	mrspl	pc, SP_irq	; <UNPREDICTABLE>
     d64:	0001149f 	muleq	r1, pc, r4	; <UNPREDICTABLE>
     d68:	00012000 	andeq	r2, r1, r0
     d6c:	51000100 	mrspl	r0, (UNDEF: 16)
     d70:	00000120 	andeq	r0, r0, r0, lsr #2
     d74:	0000015c 	andeq	r0, r0, ip, asr r1
     d78:	01f30004 	mvnseq	r0, r4
     d7c:	00009f51 	andeq	r9, r0, r1, asr pc
	...
     d88:	00020200 	andeq	r0, r2, r0, lsl #4
     d8c:	00020200 	andeq	r0, r2, r0, lsl #4
     d90:	00020200 	andeq	r0, r2, r0, lsl #4
     d94:	00000058 	andeq	r0, r0, r8, asr r0
     d98:	00000060 	andeq	r0, r0, r0, rrx
     d9c:	60540001 	subsvs	r0, r4, r1
     da0:	d0000000 	andle	r0, r0, r0
     da4:	01000000 	mrseq	r0, (UNDEF: 0)
     da8:	00d05800 	sbcseq	r5, r0, r0, lsl #16
     dac:	00e00000 	rsceq	r0, r0, r0
     db0:	00010000 	andeq	r0, r1, r0
     db4:	0000e054 	andeq	lr, r0, r4, asr r0
     db8:	0000e800 	andeq	lr, r0, r0, lsl #16
     dbc:	58000100 	stmdapl	r0, {r8}
     dc0:	000000e8 	andeq	r0, r0, r8, ror #1
     dc4:	000000f4 	strdeq	r0, [r0], -r4
     dc8:	f4540001 			; <UNDEFINED> instruction: 0xf4540001
     dcc:	08000000 	stmdaeq	r0, {}	; <UNPREDICTABLE>
     dd0:	01000001 	tsteq	r0, r1
     dd4:	01085800 	tsteq	r8, r0, lsl #16
     dd8:	01140000 	tsteq	r4, r0
     ddc:	00010000 	andeq	r0, r1, r0
     de0:	00000054 	andeq	r0, r0, r4, asr r0
	...
     df0:	00007400 	andeq	r7, r0, r0, lsl #8
     df4:	00008300 	andeq	r8, r0, r0, lsl #6
     df8:	50000100 	andpl	r0, r0, r0, lsl #2
     dfc:	00000083 	andeq	r0, r0, r3, lsl #1
     e00:	000000d0 	ldrdeq	r0, [r0], -r0	; <UNPREDICTABLE>
     e04:	e0560001 	subs	r0, r6, r1
     e08:	e8000000 	stmda	r0, {}	; <UNPREDICTABLE>
     e0c:	01000000 	mrseq	r0, (UNDEF: 0)
     e10:	00f45600 	rscseq	r5, r4, r0, lsl #12
     e14:	01080000 	mrseq	r0, (UNDEF: 8)
     e18:	00010000 	andeq	r0, r1, r0
     e1c:	00000056 	andeq	r0, r0, r6, asr r0
	...
     e28:	00008800 	andeq	r8, r0, r0, lsl #16
     e2c:	0000d000 	andeq	sp, r0, r0
     e30:	5b000100 	blpl	1238 <__code_start__-0x6dc8>
     e34:	000000e0 	andeq	r0, r0, r0, ror #1
     e38:	00000114 	andeq	r0, r0, r4, lsl r1
     e3c:	005b0001 	subseq	r0, fp, r1
     e40:	00000000 	andeq	r0, r0, r0
     e44:	01000000 	mrseq	r0, (UNDEF: 0)
     e48:	88000000 	stmdahi	r0, {}	; <UNPREDICTABLE>
     e4c:	d0000000 	andle	r0, r0, r0
     e50:	01000000 	mrseq	r0, (UNDEF: 0)
     e54:	00e05900 	rsceq	r5, r0, r0, lsl #18
     e58:	01140000 	tsteq	r4, r0
     e5c:	00010000 	andeq	r0, r1, r0
     e60:	00000059 	andeq	r0, r0, r9, asr r0
     e64:	00000000 	andeq	r0, r0, r0
     e68:	60000000 	andvs	r0, r0, r0
     e6c:	73000000 	movwvc	r0, #0
     e70:	01000000 	mrseq	r0, (UNDEF: 0)
     e74:	00005000 	andeq	r5, r0, r0
     e78:	00000000 	andeq	r0, r0, r0
     e7c:	00030000 	andeq	r0, r3, r0
     e80:	00000060 	andeq	r0, r0, r0, rrx
     e84:	00000073 	andeq	r0, r0, r3, ror r0
     e88:	00500001 	subseq	r0, r0, r1
     e8c:	00000000 	andeq	r0, r0, r0
     e90:	04000000 	streq	r0, [r0], #-0
     e94:	00006000 	andeq	r6, r0, r0
     e98:	00007000 	andeq	r7, r0, r0
     e9c:	50000100 	andpl	r0, r0, r0, lsl #2
	...
     eac:	000003bc 			; <UNDEFINED> instruction: 0x000003bc
     eb0:	000003bf 			; <UNDEFINED> instruction: 0x000003bf
     eb4:	bf500001 	svclt	0x00500001
     eb8:	c0000003 	andgt	r0, r0, r3
     ebc:	04000003 	streq	r0, [r0], #-3
     ec0:	5001f300 	andpl	pc, r1, r0, lsl #6
     ec4:	0000009f 	muleq	r0, pc, r0	; <UNPREDICTABLE>
	...
     ed4:	00001c00 	andeq	r1, r0, r0, lsl #24
     ed8:	51000100 	mrspl	r0, (UNDEF: 16)
     edc:	0000001c 	andeq	r0, r0, ip, lsl r0
     ee0:	00000078 	andeq	r0, r0, r8, ror r0
     ee4:	01f30004 	mvnseq	r0, r4
     ee8:	00009f51 	andeq	r9, r0, r1, asr pc
	...
     ef8:	00580000 	subseq	r0, r8, r0
     efc:	00010000 	andeq	r0, r1, r0
     f00:	00005852 	andeq	r5, r0, r2, asr r8
     f04:	00007800 	andeq	r7, r0, r0, lsl #16
     f08:	f3000400 	vshl.u8	d0, d0, d0
     f0c:	009f5201 	addseq	r5, pc, r1, lsl #4
     f10:	00000000 	andeq	r0, r0, r0
     f14:	02000000 	andeq	r0, r0, #0, 0
     f18:	01010000 	mrseq	r0, (UNDEF: 1)
     f1c:	01010000 	mrseq	r0, (UNDEF: 1)
     f20:	01010000 	mrseq	r0, (UNDEF: 1)
     f24:	00000000 	andeq	r0, r0, r0
     f28:	00003800 	andeq	r3, r0, r0, lsl #16
     f2c:	50000100 	andpl	r0, r0, r0, lsl #2
     f30:	00000054 	andeq	r0, r0, r4, asr r0
     f34:	00000054 	andeq	r0, r0, r4, asr r0
     f38:	54530001 	ldrbpl	r0, [r3], #-1
     f3c:	5c000000 	stcpl	0, cr0, [r0], {-0}
     f40:	03000000 	movweq	r0, #0
     f44:	9f017300 	svcls	0x00017300
     f48:	0000005c 	andeq	r0, r0, ip, asr r0
     f4c:	00000064 	andeq	r0, r0, r4, rrx
     f50:	64520001 	ldrbvs	r0, [r2], #-1
     f54:	68000000 	stmdavs	r0, {}	; <UNPREDICTABLE>
     f58:	03000000 	movweq	r0, #0
     f5c:	9f027300 	svcls	0x00027300
     f60:	00000068 	andeq	r0, r0, r8, rrx
     f64:	00000074 	andeq	r0, r0, r4, ror r0
     f68:	74520001 	ldrbvc	r0, [r2], #-1
     f6c:	78000000 	stmdavc	r0, {}	; <UNPREDICTABLE>
     f70:	03000000 	movweq	r0, #0
     f74:	9f017200 	svcls	0x00017200
	...
     f80:	00080000 	andeq	r0, r8, r0
     f84:	00780000 	rsbseq	r0, r8, r0
     f88:	00010000 	andeq	r0, r1, r0
     f8c:	00000054 	andeq	r0, r0, r4, asr r0
	...
     f98:	2c000000 	stccs	0, cr0, [r0], {-0}
     f9c:	34000000 	strcc	r0, [r0], #-0
     fa0:	01000000 	mrseq	r0, (UNDEF: 0)
     fa4:	00345000 	eorseq	r5, r4, r0
     fa8:	00480000 	subeq	r0, r8, r0
     fac:	00010000 	andeq	r0, r1, r0
     fb0:	00004854 	andeq	r4, r0, r4, asr r8
     fb4:	00005800 	andeq	r5, r0, r0, lsl #16
     fb8:	50000100 	andpl	r0, r0, r0, lsl #2
	...
     fc4:	01000000 	mrseq	r0, (UNDEF: 0)
     fc8:	00000001 	andeq	r0, r0, r1
     fcc:	00000000 	andeq	r0, r0, r0
     fd0:	0000000c 	andeq	r0, r0, ip
     fd4:	0c500001 	mrrceq	0, 0, r0, r0, cr1	; <UNPREDICTABLE>
     fd8:	20000000 	andcs	r0, r0, r0
     fdc:	01000000 	mrseq	r0, (UNDEF: 0)
     fe0:	00205400 	eoreq	r5, r0, r0, lsl #8
     fe4:	00240000 	eoreq	r0, r4, r0
     fe8:	00030000 	andeq	r0, r3, r0
     fec:	249f0174 	ldrcs	r0, [pc], #372	; ff4 <__code_start__-0x700c>
     ff0:	38000000 	stmdacc	r0, {}	; <UNPREDICTABLE>
     ff4:	01000000 	mrseq	r0, (UNDEF: 0)
     ff8:	00005400 	andeq	r5, r0, r0, lsl #8
	...
    100c:	00000388 	andeq	r0, r0, r8, lsl #7
    1010:	00000394 	muleq	r0, r4, r3
    1014:	94500001 	ldrbls	r0, [r0], #-1
    1018:	d0000003 	andle	r0, r0, r3
    101c:	01000003 	tsteq	r0, r3
    1020:	03d05b00 	bicseq	r5, r0, #0, 22
    1024:	09200000 	stmdbeq	r0!, {}	; <UNPREDICTABLE>
    1028:	00040000 	andeq	r0, r4, r0
    102c:	9f5001f3 	svcls	0x005001f3
    1030:	00000920 	andeq	r0, r0, r0, lsr #18
    1034:	00000928 	andeq	r0, r0, r8, lsr #18
    1038:	285b0001 	ldmdacs	fp, {r0}^
    103c:	b4000009 	strlt	r0, [r0], #-9
    1040:	04000009 	streq	r0, [r0], #-9
    1044:	5001f300 	andpl	pc, r1, r0, lsl #6
    1048:	0000009f 	muleq	r0, pc, r0	; <UNPREDICTABLE>
	...
    1058:	00038800 	andeq	r8, r3, r0, lsl #16
    105c:	0003d000 	andeq	sp, r3, r0
    1060:	51000100 	mrspl	r0, (UNDEF: 16)
    1064:	000003d0 	ldrdeq	r0, [r0], -r0	; <UNPREDICTABLE>
    1068:	00000920 	andeq	r0, r0, r0, lsr #18
    106c:	01f30004 	mvnseq	r0, r4
    1070:	09209f51 	stmdbeq	r0!, {r0, r4, r6, r8, r9, sl, fp, ip, pc}
    1074:	09280000 	stmdbeq	r8!, {}	; <UNPREDICTABLE>
    1078:	00010000 	andeq	r0, r1, r0
    107c:	00092851 	andeq	r2, r9, r1, asr r8
    1080:	0009b400 	andeq	fp, r9, r0, lsl #8
    1084:	f3000400 	vshl.u8	d0, d0, d0
    1088:	009f5101 	addseq	r5, pc, r1, lsl #2
	...
    1098:	00010000 	andeq	r0, r1, r0
    109c:	00000100 	andeq	r0, r0, r0, lsl #2
	...
    10a8:	88000000 	stmdahi	r0, {}	; <UNPREDICTABLE>
    10ac:	d0000003 	andle	r0, r0, r3
    10b0:	01000003 	tsteq	r0, r3
    10b4:	03d05200 	bicseq	r5, r0, #0, 4
    10b8:	04000000 	streq	r0, [r0], #-0
    10bc:	00010000 	andeq	r0, r1, r0
    10c0:	00041456 	andeq	r1, r4, r6, asr r4
    10c4:	00042400 	andeq	r2, r4, r0, lsl #8
    10c8:	56000100 	strpl	r0, [r0], -r0, lsl #2
    10cc:	00000424 	andeq	r0, r0, r4, lsr #8
    10d0:	00000428 	andeq	r0, r0, r8, lsr #8
    10d4:	7f760003 	svcvc	0x00760003
    10d8:	0004a89f 	muleq	r4, pc, r8	; <UNPREDICTABLE>
    10dc:	0004ac00 	andeq	sl, r4, r0, lsl #24
    10e0:	56000100 	strpl	r0, [r0], -r0, lsl #2
    10e4:	000004e0 	andeq	r0, r0, r0, ror #9
    10e8:	00000504 	andeq	r0, r0, r4, lsl #10
    10ec:	7c560001 	mrrcvc	0, 0, r0, r6, cr1
    10f0:	88000005 	stmdahi	r0, {r0, r2}
    10f4:	01000005 	tsteq	r0, r5
    10f8:	05885300 	streq	r5, [r8, #768]	; 0x300
    10fc:	05d00000 	ldrbeq	r0, [r0]
    1100:	00030000 	andeq	r0, r3, r0
    1104:	007dcc91 			; <UNDEFINED> instruction: 0x007dcc91
    1108:	0f000008 	svceq	0x00000008
    110c:	01000008 	tsteq	r0, r8
    1110:	080f5300 	stmdaeq	pc, {r8, r9, ip, lr}	; <UNPREDICTABLE>
    1114:	08880000 	stmeq	r8, {}	; <UNPREDICTABLE>
    1118:	00030000 	andeq	r0, r3, r0
    111c:	207dcc91 			; <UNDEFINED> instruction: 0x207dcc91
    1120:	28000009 	stmdacs	r0, {r0, r3}
    1124:	01000009 	tsteq	r0, r9
    1128:	09485200 	stmdbeq	r8, {r9, ip, lr}^
    112c:	09640000 	stmdbeq	r4!, {}^	; <UNPREDICTABLE>
    1130:	00030000 	andeq	r0, r3, r0
    1134:	007dcc91 			; <UNDEFINED> instruction: 0x007dcc91
	...
    1148:	00000101 	andeq	r0, r0, r1, lsl #2
    114c:	00000101 	andeq	r0, r0, r1, lsl #2
    1150:	02020000 	andeq	r0, r2, #0, 0
    1154:	02020000 	andeq	r0, r2, #0, 0
    1158:	01010000 	mrseq	r0, (UNDEF: 1)
    115c:	02020000 	andeq	r0, r2, #0, 0
    1160:	01010000 	mrseq	r0, (UNDEF: 1)
	...
    116c:	00038800 	andeq	r8, r3, r0, lsl #16
    1170:	0003ac00 	andeq	sl, r3, r0, lsl #24
    1174:	53000100 	movwpl	r0, #256	; 0x100
    1178:	000003ac 	andeq	r0, r0, ip, lsr #7
    117c:	000003c0 	andeq	r0, r0, r0, asr #7
    1180:	93530003 	cmpls	r3, #3, 0
    1184:	0003d004 	andeq	sp, r3, r4
    1188:	0003e800 	andeq	lr, r3, r0, lsl #16
    118c:	58000300 	stmdapl	r0, {r8, r9}
    1190:	03e80493 	mvneq	r0, #-1828716544	; 0x93000000
    1194:	04ac0000 	strteq	r0, [ip], #0
    1198:	00030000 	andeq	r0, r3, r0
    119c:	c0049358 	andgt	r9, r4, r8, asr r3
    11a0:	c0000004 	andgt	r0, r0, r4
    11a4:	03000004 	movweq	r0, #4
    11a8:	04935800 	ldreq	r5, [r3], #2048	; 0x800
    11ac:	000004c0 	andeq	r0, r0, r0, asr #9
    11b0:	000004cc 	andeq	r0, r0, ip, asr #9
    11b4:	04780005 	ldrbteq	r0, [r8], #-5
    11b8:	cc04939f 	stcgt	3, cr9, [r4], {159}	; 0x9f
    11bc:	e0000004 	and	r0, r0, r4
    11c0:	03000004 	movweq	r0, #4
    11c4:	04935800 	ldreq	r5, [r3], #2048	; 0x800
    11c8:	000004e0 	andeq	r0, r0, r0, ror #9
    11cc:	00000538 	andeq	r0, r0, r8, lsr r5
    11d0:	93580003 	cmpls	r8, #3, 0
    11d4:	00053804 	andeq	r3, r5, r4, lsl #16
    11d8:	00053c00 	andeq	r3, r5, r0, lsl #24
    11dc:	78000500 	stmdavc	r0, {r8, sl}
    11e0:	04939f79 	ldreq	r9, [r3], #3961	; 0xf79
    11e4:	000005d0 	ldrdeq	r0, [r0], -r0	; <UNPREDICTABLE>
    11e8:	000005d0 	ldrdeq	r0, [r0], -r0	; <UNPREDICTABLE>
    11ec:	93580003 	cmpls	r8, #3, 0
    11f0:	0005d004 	andeq	sp, r5, r4
    11f4:	0005d400 	andeq	sp, r5, r0, lsl #8
    11f8:	78000500 	stmdavc	r0, {r8, sl}
    11fc:	04939f04 	ldreq	r9, [r3], #3844	; 0xf04
    1200:	000005f4 	strdeq	r0, [r0], -r4
    1204:	000005f4 	strdeq	r0, [r0], -r4
    1208:	93580003 	cmpls	r8, #3, 0
    120c:	0005f404 	andeq	pc, r5, r4, lsl #8
    1210:	0005fc00 	andeq	pc, r5, r0, lsl #24
    1214:	78000500 	stmdavc	r0, {r8, sl}
    1218:	04939f04 	ldreq	r9, [r3], #3844	; 0xf04
    121c:	000005fc 	strdeq	r0, [r0], -ip
    1220:	000005fc 	strdeq	r0, [r0], -ip
    1224:	93580003 	cmpls	r8, #3, 0
    1228:	0005fc04 	andeq	pc, r5, r4, lsl #24
    122c:	00060000 	andeq	r0, r6, r0
    1230:	78000500 	stmdavc	r0, {r8, sl}
    1234:	04939f04 	ldreq	r9, [r3], #3844	; 0xf04
    1238:	00000600 	andeq	r0, r0, r0, lsl #12
    123c:	00000700 	andeq	r0, r0, r0, lsl #14
    1240:	93580003 	cmpls	r8, #3, 0
    1244:	00070004 	andeq	r0, r7, r4
    1248:	00070c00 	andeq	r0, r7, r0, lsl #24
    124c:	78000500 	stmdavc	r0, {r8, sl}
    1250:	04939f04 	ldreq	r9, [r3], #3844	; 0xf04
    1254:	0000070c 	andeq	r0, r0, ip, lsl #14
    1258:	000007f8 	strdeq	r0, [r0], -r8
    125c:	93580003 	cmpls	r8, #3, 0
    1260:	0007f804 	andeq	pc, r7, r4, lsl #16
    1264:	0007fc00 	andeq	pc, r7, r0, lsl #24
    1268:	78000500 	stmdavc	r0, {r8, sl}
    126c:	04939f04 	ldreq	r9, [r3], #3844	; 0xf04
    1270:	000007fc 	strdeq	r0, [r0], -ip
    1274:	00000800 	andeq	r0, r0, r0, lsl #16
    1278:	93580003 	cmpls	r8, #3, 0
    127c:	00088804 	andeq	r8, r8, r4, lsl #16
    1280:	00092000 	andeq	r2, r9, r0
    1284:	58000300 	stmdapl	r0, {r8, r9}
    1288:	09200493 	stmdbeq	r0!, {r0, r1, r4, r7, sl}
    128c:	09280000 	stmdbeq	r8!, {}	; <UNPREDICTABLE>
    1290:	00010000 	andeq	r0, r1, r0
    1294:	00096453 	andeq	r6, r9, r3, asr r4
    1298:	0009b400 	andeq	fp, r9, r0, lsl #8
    129c:	58000300 	stmdapl	r0, {r8, r9}
    12a0:	00000493 	muleq	r0, r3, r4
    12a4:	00000000 	andeq	r0, r0, r0
    12a8:	00010000 	andeq	r0, r1, r0
    12ac:	00000000 	andeq	r0, r0, r0
    12b0:	02000000 	andeq	r0, r0, #0, 0
    12b4:	00000002 	andeq	r0, r0, r2
    12b8:	00010101 	andeq	r0, r1, r1, lsl #2
    12bc:	00000000 	andeq	r0, r0, r0
    12c0:	000003ac 	andeq	r0, r0, ip, lsr #7
    12c4:	000003d0 	ldrdeq	r0, [r0], -r0	; <UNPREDICTABLE>
    12c8:	d05b0001 	subsle	r0, fp, r1
    12cc:	d4000003 	strle	r0, [r0], #-3
    12d0:	01000003 	tsteq	r0, r3
    12d4:	03d45400 	bicseq	r5, r4, #0, 8
    12d8:	03d80000 	bicseq	r0, r8, #0, 0
    12dc:	00030000 	andeq	r0, r3, r0
    12e0:	d89f7f74 	ldmle	pc, {r2, r4, r5, r6, r8, r9, sl, fp, ip, sp, lr}	; <UNPREDICTABLE>
    12e4:	fc000003 	stc2	0, cr0, [r0], {3}
    12e8:	01000003 	tsteq	r0, r3
    12ec:	04a85400 	strteq	r5, [r8], #1024	; 0x400
    12f0:	04ac0000 	strteq	r0, [ip], #0
    12f4:	00010000 	andeq	r0, r1, r0
    12f8:	0004ac54 	andeq	sl, r4, r4, asr ip
    12fc:	0004b400 	andeq	fp, r4, r0, lsl #8
    1300:	74000300 	strvc	r0, [r0], #-768	; 0xfffffd00
    1304:	04b49f01 	ldrteq	r9, [r4], #3841	; 0xf01
    1308:	04c00000 	strbeq	r0, [r0], #0
    130c:	00010000 	andeq	r0, r1, r0
    1310:	0004e454 	andeq	lr, r4, r4, asr r4
    1314:	0004f400 	andeq	pc, r4, r0, lsl #8
    1318:	54000100 	strpl	r0, [r0], #-256	; 0xffffff00
    131c:	000004f4 	strdeq	r0, [r0], -r4
    1320:	000004f8 	strdeq	r0, [r0], -r8
    1324:	01740003 	cmneq	r4, r3
    1328:	0004f89f 	muleq	r4, pc, r8	; <UNPREDICTABLE>
    132c:	00050400 	andeq	r0, r5, r0, lsl #8
    1330:	54000100 	strpl	r0, [r0], #-256	; 0xffffff00
    1334:	00000920 	andeq	r0, r0, r0, lsr #18
    1338:	00000928 	andeq	r0, r0, r8, lsr #18
    133c:	005b0001 	subseq	r0, fp, r1
    1340:	00000000 	andeq	r0, r0, r0
    1344:	01000000 	mrseq	r0, (UNDEF: 0)
    1348:	0003ac00 	andeq	sl, r3, r0, lsl #24
    134c:	0009b400 	andeq	fp, r9, r0, lsl #8
    1350:	57000100 	strpl	r0, [r0, -r0, lsl #2]
	...
    135c:	00000002 	andeq	r0, r0, r2
    1360:	057c0000 	ldrbeq	r0, [ip, #-0]!
    1364:	05d00000 	ldrbeq	r0, [r0]
    1368:	00010000 	andeq	r0, r1, r0
    136c:	0008005b 	andeq	r0, r8, fp, asr r0
    1370:	00088800 	andeq	r8, r8, r0, lsl #16
    1374:	5b000100 	blpl	177c <__code_start__-0x6884>
    1378:	00000948 	andeq	r0, r0, r8, asr #18
    137c:	00000964 	andeq	r0, r0, r4, ror #18
    1380:	005b0001 	subseq	r0, fp, r1
    1384:	00000000 	andeq	r0, r0, r0
    1388:	03000000 	movweq	r0, #0
    138c:	00000000 	andeq	r0, r0, r0
    1390:	00057c00 	andeq	r7, r5, r0, lsl #24
    1394:	0005d000 	andeq	sp, r5, r0
    1398:	59000100 	stmdbpl	r0, {r8}
    139c:	00000800 	andeq	r0, r0, r0, lsl #16
    13a0:	00000888 	andeq	r0, r0, r8, lsl #17
    13a4:	48590001 	ldmdami	r9, {r0}^
    13a8:	64000009 	strvs	r0, [r0], #-9
    13ac:	01000009 	tsteq	r0, r9
    13b0:	00005900 	andeq	r5, r0, r0, lsl #18
    13b4:	00000000 	andeq	r0, r0, r0
    13b8:	00040000 	andeq	r0, r4, r0
    13bc:	00000000 	andeq	r0, r0, r0
    13c0:	03ac0000 			; <UNDEFINED> instruction: 0x03ac0000
    13c4:	03d00000 	bicseq	r0, r0, #0, 0
    13c8:	00010000 	andeq	r0, r1, r0
    13cc:	0003d052 	andeq	sp, r3, r2, asr r0
    13d0:	00092000 	andeq	r2, r9, r0
    13d4:	f3000400 	vshl.u8	d0, d0, d0
    13d8:	209f5201 	addscs	r5, pc, r1, lsl #4
    13dc:	28000009 	stmdacs	r0, {r0, r3}
    13e0:	01000009 	tsteq	r0, r9
    13e4:	09285200 	stmdbeq	r8!, {r9, ip, lr}
    13e8:	09b40000 	ldmibeq	r4!, {}	; <UNPREDICTABLE>
    13ec:	00040000 	andeq	r0, r4, r0
    13f0:	9f5201f3 	svcls	0x005201f3
	...
    13fc:	00010100 	andeq	r0, r1, r0, lsl #2
    1400:	00000000 	andeq	r0, r0, r0
    1404:	00000001 	andeq	r0, r0, r1
    1408:	000004e0 	andeq	r0, r0, r0, ror #9
    140c:	000004e0 	andeq	r0, r0, r0, ror #9
    1410:	e0500001 	subs	r0, r0, r1
    1414:	e8000004 	stmda	r0, {r2}
    1418:	01000004 	tsteq	r0, r4
    141c:	05b85500 	ldreq	r5, [r8, #1280]!	; 0x500
    1420:	05d00000 	ldrbeq	r0, [r0]
    1424:	00010000 	andeq	r0, r1, r0
    1428:	0005f055 	andeq	pc, r5, r5, asr r0	; <UNPREDICTABLE>
    142c:	0005f400 	andeq	pc, r5, r0, lsl #8
    1430:	50000100 	andpl	r0, r0, r0, lsl #2
    1434:	000007f4 	strdeq	r0, [r0], -r4
    1438:	000007f8 	strdeq	r0, [r0], -r8
    143c:	50550001 	subspl	r0, r5, r1
    1440:	88000008 	stmdahi	r0, {r3}
    1444:	01000008 	tsteq	r0, r8
    1448:	00005500 	andeq	r5, r0, r0, lsl #10
    144c:	00000000 	andeq	r0, r0, r0
    1450:	00020000 	andeq	r0, r2, r0
    1454:	00000000 	andeq	r0, r0, r0
    1458:	04140000 	ldreq	r0, [r4], #-0
    145c:	04180000 	ldreq	r0, [r8], #-0
    1460:	00020000 	andeq	r0, r2, r0
    1464:	04189f30 	ldreq	r9, [r8], #-3888	; 0xfffff0d0
    1468:	041c0000 	ldreq	r0, [ip], #-0
    146c:	00010000 	andeq	r0, r1, r0
    1470:	00042855 	andeq	r2, r4, r5, asr r8
    1474:	00043c00 	andeq	r3, r4, r0, lsl #24
    1478:	55000100 	strpl	r0, [r0, #-256]	; 0xffffff00
    147c:	00000928 	andeq	r0, r0, r8, lsr #18
    1480:	00000930 	andeq	r0, r0, r0, lsr r9
    1484:	00550001 	subseq	r0, r5, r1
    1488:	00000000 	andeq	r0, r0, r0
    148c:	01000000 	mrseq	r0, (UNDEF: 0)
	...
    1498:	04000000 	streq	r0, [r0], #-0
    149c:	84000005 	strhi	r0, [r0], #-5
    14a0:	01000005 	tsteq	r0, r5
    14a4:	05845600 	streq	r5, [r4, #1536]	; 0x600
    14a8:	05880000 	streq	r0, [r8]
    14ac:	00030000 	andeq	r0, r3, r0
    14b0:	889f7e73 	ldmhi	pc, {r0, r1, r4, r5, r6, r9, sl, fp, ip, sp, lr}	; <UNPREDICTABLE>
    14b4:	d0000005 	andle	r0, r0, r5
    14b8:	07000005 	streq	r0, [r0, -r5]
    14bc:	7dcc9100 	stfvcp	f1, [ip]
    14c0:	9f1c3206 	svcls	0x001c3206
    14c4:	00000800 	andeq	r0, r0, r0, lsl #16
    14c8:	0000081c 	andeq	r0, r0, ip, lsl r8
    14cc:	1c560001 	mrrcne	0, 0, r0, r6, cr1
    14d0:	88000008 	stmdahi	r0, {r3}
    14d4:	07000008 	streq	r0, [r0, -r8]
    14d8:	7dcc9100 	stfvcp	f1, [ip]
    14dc:	9f1c3206 	svcls	0x001c3206
    14e0:	00000948 	andeq	r0, r0, r8, asr #18
    14e4:	000009b4 			; <UNDEFINED> instruction: 0x000009b4
    14e8:	00560001 	subseq	r0, r6, r1
    14ec:	00000000 	andeq	r0, r0, r0
    14f0:	04000000 	streq	r0, [r0], #-0
    14f4:	14040206 	strne	r0, [r4], #-518	; 0xfffffdfa
    14f8:	14000004 	strne	r0, [r0], #-4
    14fc:	06000004 	streq	r0, [r0], -r4
    1500:	08007200 	stmdaeq	r0, {r9, ip, sp, lr}
    1504:	289f1aff 	ldmcs	pc, {r0, r1, r2, r3, r4, r5, r6, r7, r9, fp, ip}	; <UNPREDICTABLE>
    1508:	28000004 	stmdacs	r0, {r2}
    150c:	06000004 	streq	r0, [r0], -r4
    1510:	08007200 	stmdaeq	r0, {r9, ip, sp, lr}
    1514:	009f1aff 			; <UNDEFINED> instruction: 0x009f1aff
    1518:	00000000 	andeq	r0, r0, r0
    151c:	02000000 	andeq	r0, r0, #0, 0
    1520:	00000000 	andeq	r0, r0, r0
    1524:	0005fc00 	andeq	pc, r5, r0, lsl #24
    1528:	00070000 	andeq	r0, r7, r0
    152c:	08000300 	stmdaeq	r0, {r8, r9}
    1530:	08a89f80 	stmiaeq	r8!, {r7, r8, r9, sl, fp, ip, pc}
    1534:	08bc0000 	ldmeq	ip!, {}	; <UNPREDICTABLE>
    1538:	00030000 	andeq	r0, r3, r0
    153c:	109f8008 	addsne	r8, pc, r8
    1540:	20000009 	andcs	r0, r0, r9
    1544:	03000009 	movweq	r0, #9
    1548:	9f800800 	svcls	0x00800800
	...
    1554:	00000001 	andeq	r0, r0, r1
    1558:	05fc0000 	ldrbeq	r0, [ip, #0]!
    155c:	07000000 	streq	r0, [r0, -r0]
    1560:	00020000 	andeq	r0, r2, r0
    1564:	08a89f30 	stmiaeq	r8!, {r4, r5, r8, r9, sl, fp, ip, pc}
    1568:	08bc0000 	ldmeq	ip!, {}	; <UNPREDICTABLE>
    156c:	00020000 	andeq	r0, r2, r0
    1570:	09109f30 	ldmdbeq	r0, {r4, r5, r8, r9, sl, fp, ip, pc}
    1574:	09200000 	stmdbeq	r0!, {}	; <UNPREDICTABLE>
    1578:	00020000 	andeq	r0, r2, r0
    157c:	00009f30 	andeq	r9, r0, r0, lsr pc
    1580:	00000000 	andeq	r0, r0, r0
    1584:	00010000 	andeq	r0, r1, r0
    1588:	00000000 	andeq	r0, r0, r0
    158c:	000005fc 	strdeq	r0, [r0], -ip
    1590:	000006e0 	andeq	r0, r0, r0, ror #13
    1594:	a8550001 	ldmdage	r5, {r0}^
    1598:	bc000008 	stclt	0, cr0, [r0], {8}
    159c:	01000008 	tsteq	r0, r8
    15a0:	09105500 	ldmdbeq	r0, {r8, sl, ip, lr}
    15a4:	09200000 	stmdbeq	r0!, {}	; <UNPREDICTABLE>
    15a8:	00010000 	andeq	r0, r1, r0
    15ac:	00000055 	andeq	r0, r0, r5, asr r0
    15b0:	00000000 	andeq	r0, r0, r0
    15b4:	00000100 	andeq	r0, r0, r0, lsl #2
    15b8:	00000000 	andeq	r0, r0, r0
    15bc:	0005fc00 	andeq	pc, r5, r0, lsl #24
    15c0:	0006e000 	andeq	lr, r6, r0
    15c4:	91000400 	tstls	r0, r0, lsl #8
    15c8:	e09f7dd0 			; <UNDEFINED> instruction: 0xe09f7dd0
    15cc:	00000006 	andeq	r0, r0, r6
    15d0:	01000007 	tsteq	r0, r7
    15d4:	08a85500 	stmiaeq	r8!, {r8, sl, ip, lr}
    15d8:	08bc0000 	ldmeq	ip!, {}	; <UNPREDICTABLE>
    15dc:	00040000 	andeq	r0, r4, r0
    15e0:	9f7dd091 	svcls	0x007dd091
    15e4:	00000910 	andeq	r0, r0, r0, lsl r9
    15e8:	00000920 	andeq	r0, r0, r0, lsr #18
    15ec:	d0910004 	addsle	r0, r1, r4
    15f0:	00009f7d 	andeq	r9, r0, sp, ror pc
    15f4:	00000000 	andeq	r0, r0, r0
    15f8:	00010000 	andeq	r0, r1, r0
    15fc:	00000000 	andeq	r0, r0, r0
    1600:	000005fc 	strdeq	r0, [r0], -ip
    1604:	00000700 	andeq	r0, r0, r0, lsl #14
    1608:	9f380002 	svcls	0x00380002
    160c:	000008a8 	andeq	r0, r0, r8, lsr #17
    1610:	000008bc 			; <UNDEFINED> instruction: 0x000008bc
    1614:	9f380002 	svcls	0x00380002
    1618:	00000910 	andeq	r0, r0, r0, lsl r9
    161c:	00000920 	andeq	r0, r0, r0, lsr #18
    1620:	9f380002 	svcls	0x00380002
	...
    162c:	00070704 	andeq	r0, r7, r4, lsl #14
	...
    1638:	05fc0000 	ldrbeq	r0, [ip, #0]!
    163c:	05fc0000 	ldrbeq	r0, [ip, #0]!
    1640:	00040000 	andeq	r0, r4, r0
    1644:	9f7ed091 	svcls	0x007ed091
    1648:	000005fc 	strdeq	r0, [r0], -ip
    164c:	00000678 	andeq	r0, r0, r8, ror r6
    1650:	d1910004 	orrsle	r0, r1, r4
    1654:	06789f7e 	uhsub16eq	r9, r8, lr
    1658:	06d40000 	ldrbeq	r0, [r4], r0
    165c:	00010000 	andeq	r0, r1, r0
    1660:	0006d45c 	andeq	sp, r6, ip, asr r4
    1664:	00070000 	andeq	r0, r7, r0
    1668:	91000400 	tstls	r0, r0, lsl #8
    166c:	a89f7ed1 	ldmge	pc, {r0, r4, r6, r7, r9, sl, fp, ip, sp, lr}	; <UNPREDICTABLE>
    1670:	bc000008 	stclt	0, cr0, [r0], {8}
    1674:	04000008 	streq	r0, [r0], #-8
    1678:	7ed19100 	atnvcs	f1, f0
    167c:	0009109f 	muleq	r9, pc, r0	; <UNPREDICTABLE>
    1680:	00091400 	andeq	r1, r9, r0, lsl #8
    1684:	91000400 	tstls	r0, r0, lsl #8
    1688:	149f7ed1 	ldrne	r7, [pc], #3793	; 1690 <__code_start__-0x6970>
    168c:	20000009 	andcs	r0, r0, r9
    1690:	01000009 	tsteq	r0, r9
    1694:	00005c00 	andeq	r5, r0, r0, lsl #24
    1698:	00000000 	andeq	r0, r0, r0
    169c:	01040000 	mrseq	r0, (UNDEF: 4)
    16a0:	00000100 	andeq	r0, r0, r0, lsl #2
    16a4:	00000608 	andeq	r0, r0, r8, lsl #12
    16a8:	000006d0 	ldrdeq	r0, [r0], -r0	; <UNPREDICTABLE>
    16ac:	a8550001 	ldmdage	r5, {r0}^
    16b0:	b8000008 	stmdalt	r0, {r3}
    16b4:	01000008 	tsteq	r0, r8
    16b8:	09105500 	ldmdbeq	r0, {r8, sl, ip, lr}
    16bc:	09200000 	stmdbeq	r0!, {}	; <UNPREDICTABLE>
    16c0:	00010000 	andeq	r0, r1, r0
    16c4:	00000055 	andeq	r0, r0, r5, asr r0
    16c8:	00000000 	andeq	r0, r0, r0
    16cc:	00000400 	andeq	r0, r0, r0, lsl #8
    16d0:	00010000 	andeq	r0, r1, r0
    16d4:	00010000 	andeq	r0, r1, r0
    16d8:	00060800 	andeq	r0, r6, r0, lsl #16
    16dc:	0006b000 	andeq	fp, r6, r0
    16e0:	91000400 	tstls	r0, r0, lsl #8
    16e4:	b09f7ed0 			; <UNDEFINED> instruction: 0xb09f7ed0
    16e8:	c8000006 	stmdagt	r0, {r1, r2}
    16ec:	01000006 	tsteq	r0, r6
    16f0:	06c85000 	strbeq	r5, [r8], r0
    16f4:	06d00000 	ldrbeq	r0, [r0], r0
    16f8:	00040000 	andeq	r0, r4, r0
    16fc:	9f7ed091 	svcls	0x007ed091
    1700:	000008a8 	andeq	r0, r0, r8, lsr #17
    1704:	000008b0 			; <UNDEFINED> instruction: 0x000008b0
    1708:	d0910004 	addsle	r0, r1, r4
    170c:	08b09f7e 	ldmeq	r0!, {r1, r2, r3, r4, r5, r6, r8, r9, sl, fp, ip, pc}
    1710:	08b80000 	ldmeq	r8!, {}	; <UNPREDICTABLE>
    1714:	00010000 	andeq	r0, r1, r0
    1718:	00091053 	andeq	r1, r9, r3, asr r0
    171c:	00092000 	andeq	r2, r9, r0
    1720:	91000400 	tstls	r0, r0, lsl #8
    1724:	009f7ed0 			; <UNDEFINED> instruction: 0x009f7ed0
    1728:	00000000 	andeq	r0, r0, r0
    172c:	04000000 	streq	r0, [r0], #-0
    1730:	01010000 	mrseq	r0, (UNDEF: 1)
    1734:	03030101 	movweq	r0, #12545	; 0x3101
    1738:	00010002 	andeq	r0, r1, r2
    173c:	08000000 	stmdaeq	r0, {}	; <UNPREDICTABLE>
    1740:	24000006 	strcs	r0, [r0], #-6
    1744:	04000006 	streq	r0, [r0], #-6
    1748:	7ed19100 	atnvcs	f1, f0
    174c:	0006849f 	muleq	r6, pc, r4	; <UNPREDICTABLE>
    1750:	00068400 	andeq	r8, r6, r0, lsl #8
    1754:	50000100 	andpl	r0, r0, r0, lsl #2
    1758:	00000684 	andeq	r0, r0, r4, lsl #13
    175c:	00000698 	muleq	r0, r8, r6
    1760:	01700003 	cmneq	r0, r3
    1764:	0006989f 	muleq	r6, pc, r8	; <UNPREDICTABLE>
    1768:	0006a400 	andeq	sl, r6, r0, lsl #8
    176c:	70000300 	andvc	r0, r0, r0, lsl #6
    1770:	06a49f02 	strteq	r9, [r4], r2, lsl #30
    1774:	06a80000 	strteq	r0, [r8], r0
    1778:	00030000 	andeq	r0, r3, r0
    177c:	a89f0370 	ldmge	pc, {r4, r5, r6, r8, r9}	; <UNPREDICTABLE>
    1780:	b8000008 	stmdalt	r0, {r3}
    1784:	04000008 	streq	r0, [r0], #-8
    1788:	7ed19100 	atnvcs	f1, f0
    178c:	0009109f 	muleq	r9, pc, r0	; <UNPREDICTABLE>
    1790:	00091400 	andeq	r1, r9, r0, lsl #8
    1794:	91000400 	tstls	r0, r0, lsl #8
    1798:	149f7ed1 	ldrne	r7, [pc], #3793	; 17a0 <__code_start__-0x6860>
    179c:	20000009 	andcs	r0, r0, r9
    17a0:	01000009 	tsteq	r0, r9
    17a4:	00005c00 	andeq	r5, r0, r0, lsl #24
    17a8:	00000000 	andeq	r0, r0, r0
    17ac:	00060000 	andeq	r0, r6, r0
    17b0:	01010100 	mrseq	r0, (UNDEF: 17)
    17b4:	02010101 	andeq	r0, r1, #1073741824	; 0x40000000
    17b8:	00000100 	andeq	r0, r0, r0, lsl #2
    17bc:	00000608 	andeq	r0, r0, r8, lsl #12
    17c0:	00000624 	andeq	r0, r0, r4, lsr #12
    17c4:	9f310002 	svcls	0x00310002
    17c8:	00000684 	andeq	r0, r0, r4, lsl #13
    17cc:	00000694 	muleq	r0, r4, r6
    17d0:	94520001 	ldrbls	r0, [r2], #-1
    17d4:	a4000006 	strge	r0, [r0], #-6
    17d8:	01000006 	tsteq	r0, r6
    17dc:	06a45900 	strteq	r5, [r4], r0, lsl #18
    17e0:	06a80000 	strteq	r0, [r8], r0
    17e4:	00010000 	andeq	r0, r1, r0
    17e8:	0006a852 	andeq	sl, r6, r2, asr r8
    17ec:	0006a800 	andeq	sl, r6, r0, lsl #16
    17f0:	72000300 	andvc	r0, r0, #0, 6
    17f4:	08a89f01 	stmiaeq	r8!, {r0, r8, r9, sl, fp, ip, pc}
    17f8:	08b80000 	ldmeq	r8!, {}	; <UNPREDICTABLE>
    17fc:	00020000 	andeq	r0, r2, r0
    1800:	09109f31 	ldmdbeq	r0, {r0, r4, r5, r8, r9, sl, fp, ip, pc}
    1804:	09200000 	stmdbeq	r0!, {}	; <UNPREDICTABLE>
    1808:	00020000 	andeq	r0, r2, r0
    180c:	00009f31 	andeq	r9, r0, r1, lsr pc
    1810:	00000000 	andeq	r0, r0, r0
    1814:	06010000 	streq	r0, [r1], -r0
    1818:	00010006 	andeq	r0, r1, r6
    181c:	000006d0 	ldrdeq	r0, [r0], -r0	; <UNPREDICTABLE>
    1820:	000006d0 	ldrdeq	r0, [r0], -r0	; <UNPREDICTABLE>
    1824:	d0910004 	addsle	r0, r1, r4
    1828:	06d09f7e 			; <UNDEFINED> instruction: 0x06d09f7e
    182c:	07000000 	streq	r0, [r0, -r0]
    1830:	00010000 	andeq	r0, r1, r0
    1834:	0008b850 	andeq	fp, r8, r0, asr r8
    1838:	0008bc00 	andeq	fp, r8, r0, lsl #24
    183c:	53000100 	movwpl	r0, #256	; 0x100
	...
    1848:	00000801 	andeq	r0, r0, r1, lsl #16
    184c:	00010100 	andeq	r0, r1, r0, lsl #2
    1850:	06d00701 	ldrbeq	r0, [r0], r1, lsl #14
    1854:	06d00000 	ldrbeq	r0, [r0], r0
    1858:	00060000 	andeq	r0, r6, r0
    185c:	0071007c 	rsbseq	r0, r1, ip, ror r0
    1860:	06e49f22 	strbteq	r9, [r4], r2, lsr #30
    1864:	06e80000 	strbteq	r0, [r8], r0
    1868:	00030000 	andeq	r0, r3, r0
    186c:	e89f7f73 	ldm	pc, {r0, r1, r4, r5, r6, r8, r9, sl, fp, ip, sp, lr}	; <UNPREDICTABLE>
    1870:	f0000006 			; <UNDEFINED> instruction: 0xf0000006
    1874:	01000006 	tsteq	r0, r6
    1878:	06f05300 	ldrbteq	r5, [r0], r0, lsl #6
    187c:	06f80000 	ldrbteq	r0, [r8], r0
    1880:	00030000 	andeq	r0, r3, r0
    1884:	b89f7f73 	ldmlt	pc, {r0, r1, r4, r5, r6, r8, r9, sl, fp, ip, sp, lr}	; <UNPREDICTABLE>
    1888:	b8000008 	stmdalt	r0, {r3}
    188c:	04000008 	streq	r0, [r0], #-8
    1890:	7ed19100 	atnvcs	f1, f0
    1894:	0000009f 	muleq	r0, pc, r0	; <UNPREDICTABLE>
    1898:	00000000 	andeq	r0, r0, r0
    189c:	01000100 	mrseq	r0, (UNDEF: 16)
    18a0:	0006d000 	andeq	sp, r6, r0
    18a4:	00070000 	andeq	r0, r7, r0
    18a8:	08000300 	stmdaeq	r0, {r8, r9}
    18ac:	08b89f80 	ldmeq	r8!, {r7, r8, r9, sl, fp, ip, pc}
    18b0:	08bc0000 	ldmeq	ip!, {}	; <UNPREDICTABLE>
    18b4:	00030000 	andeq	r0, r3, r0
    18b8:	009f8008 	addseq	r8, pc, r8
    18bc:	00000000 	andeq	r0, r0, r0
    18c0:	01000000 	mrseq	r0, (UNDEF: 0)
    18c4:	00000000 	andeq	r0, r0, r0
    18c8:	00000101 	andeq	r0, r0, r1, lsl #2
    18cc:	01010200 	mrseq	r0, R9_usr
    18d0:	0006d000 	andeq	sp, r6, r0
    18d4:	0006e000 	andeq	lr, r6, r0
    18d8:	91000400 	tstls	r0, r0, lsl #8
    18dc:	e09f7dd0 			; <UNDEFINED> instruction: 0xe09f7dd0
    18e0:	e4000006 	str	r0, [r0], #-6
    18e4:	01000006 	tsteq	r0, r6
    18e8:	06e45500 	strbteq	r5, [r4], r0, lsl #10
    18ec:	06e40000 	strbteq	r0, [r4], r0
    18f0:	00030000 	andeq	r0, r3, r0
    18f4:	e49f0172 	ldr	r0, [pc], #370	; 18fc <__code_start__-0x6704>
    18f8:	f0000006 			; <UNDEFINED> instruction: 0xf0000006
    18fc:	03000006 	movweq	r0, #6
    1900:	9f027200 	svcls	0x00027200
    1904:	000006f0 	strdeq	r0, [r0], -r0	; <UNPREDICTABLE>
    1908:	00000700 	andeq	r0, r0, r0, lsl #14
    190c:	01720003 	cmneq	r2, r3
    1910:	0007ec9f 	muleq	r7, pc, ip	; <UNPREDICTABLE>
    1914:	0007f400 	andeq	pc, r7, r0, lsl #8
    1918:	73000300 	movwvc	r0, #768	; 0x300
    191c:	08b89f01 	ldmeq	r8!, {r0, r8, r9, sl, fp, ip, pc}
    1920:	08bc0000 	ldmeq	ip!, {}	; <UNPREDICTABLE>
    1924:	00040000 	andeq	r0, r4, r0
    1928:	9f7dd091 	svcls	0x007dd091
	...
    1934:	08b80004 	ldmeq	r8!, {r2}
    1938:	08bc0000 	ldmeq	ip!, {}	; <UNPREDICTABLE>
    193c:	00020000 	andeq	r0, r2, r0
    1940:	00009f32 	andeq	r9, r0, r2, lsr pc
    1944:	00000000 	andeq	r0, r0, r0
    1948:	00070000 	andeq	r0, r7, r0
    194c:	00060000 	andeq	r0, r6, r0
    1950:	000006d0 	ldrdeq	r0, [r0], -r0	; <UNPREDICTABLE>
    1954:	000006e0 	andeq	r0, r0, r0, ror #13
    1958:	d0910004 	addsle	r0, r1, r4
    195c:	06e09f7d 			; <UNDEFINED> instruction: 0x06e09f7d
    1960:	07000000 	streq	r0, [r0, -r0]
    1964:	00010000 	andeq	r0, r1, r0
    1968:	0008b855 	andeq	fp, r8, r5, asr r8
    196c:	0008bc00 	andeq	fp, r8, r0, lsl #24
    1970:	91000400 	tstls	r0, r0, lsl #8
    1974:	009f7dd0 			; <UNDEFINED> instruction: 0x009f7dd0
    1978:	00000000 	andeq	r0, r0, r0
    197c:	01000000 	mrseq	r0, (UNDEF: 0)
    1980:	0c000000 	stceq	0, cr0, [r0], {-0}
    1984:	ec000007 	stc	0, cr0, [r0], {7}
    1988:	03000007 	movweq	r0, #7
    198c:	9f800800 	svcls	0x00800800
    1990:	00000894 	muleq	r0, r4, r8
    1994:	000008a8 	andeq	r0, r0, r8, lsr #17
    1998:	80080003 	andhi	r0, r8, r3
    199c:	0000009f 	muleq	r0, pc, r0	; <UNPREDICTABLE>
	...
    19a8:	00070c00 	andeq	r0, r7, r0, lsl #24
    19ac:	0007ec00 	andeq	lr, r7, r0, lsl #24
    19b0:	30000200 	andcc	r0, r0, r0, lsl #4
    19b4:	0008949f 	muleq	r8, pc, r4	; <UNPREDICTABLE>
    19b8:	0008a800 	andeq	sl, r8, r0, lsl #16
    19bc:	30000200 	andcc	r0, r0, r0, lsl #4
    19c0:	0000009f 	muleq	r0, pc, r0	; <UNPREDICTABLE>
	...
    19cc:	00070c00 	andeq	r0, r7, r0, lsl #24
    19d0:	0007d000 	andeq	sp, r7, r0
    19d4:	55000100 	strpl	r0, [r0, #-256]	; 0xffffff00
    19d8:	00000894 	muleq	r0, r4, r8
    19dc:	000008a8 	andeq	r0, r0, r8, lsr #17
    19e0:	00550001 	subseq	r0, r5, r1
	...
    19f0:	00070c00 	andeq	r0, r7, r0, lsl #24
    19f4:	0007d000 	andeq	sp, r7, r0
    19f8:	91000400 	tstls	r0, r0, lsl #8
    19fc:	d09f7dd0 			; <UNDEFINED> instruction: 0xd09f7dd0
    1a00:	ec000007 	stc	0, cr0, [r0], {7}
    1a04:	01000007 	tsteq	r0, r7
    1a08:	08945500 	ldmeq	r4, {r8, sl, ip, lr}
    1a0c:	08a80000 	stmiaeq	r8!, {}	; <UNPREDICTABLE>
    1a10:	00040000 	andeq	r0, r4, r0
    1a14:	9f7dd091 	svcls	0x007dd091
	...
    1a24:	0000070c 	andeq	r0, r0, ip, lsl #14
    1a28:	000007ec 	andeq	r0, r0, ip, ror #15
    1a2c:	9f320002 	svcls	0x00320002
    1a30:	00000894 	muleq	r0, r4, r8
    1a34:	000008a8 	andeq	r0, r0, r8, lsr #17
    1a38:	9f320002 	svcls	0x00320002
	...
    1a44:	00050503 	andeq	r0, r5, r3, lsl #10
    1a48:	00000000 	andeq	r0, r0, r0
    1a4c:	070c0000 	streq	r0, [ip, -r0]
    1a50:	070c0000 	streq	r0, [ip, -r0]
    1a54:	00010000 	andeq	r0, r1, r0
    1a58:	00070c51 	andeq	r0, r7, r1, asr ip
    1a5c:	00071c00 	andeq	r1, r7, r0, lsl #24
    1a60:	53000100 	movwpl	r0, #256	; 0x100
    1a64:	0000071c 	andeq	r0, r0, ip, lsl r7
    1a68:	00000724 	andeq	r0, r0, r4, lsr #14
    1a6c:	01720003 	cmneq	r2, r3
    1a70:	0007249f 	muleq	r7, pc, r4	; <UNPREDICTABLE>
    1a74:	0007cc00 	andeq	ip, r7, r0, lsl #24
    1a78:	53000100 	movwpl	r0, #256	; 0x100
    1a7c:	00000894 	muleq	r0, r4, r8
    1a80:	000008a8 	andeq	r0, r0, r8, lsr #17
    1a84:	00530001 	subseq	r0, r3, r1
    1a88:	00000000 	andeq	r0, r0, r0
    1a8c:	05000000 	streq	r0, [r0, #-0]
    1a90:	0c000100 	stfeqs	f0, [r0], {-0}
    1a94:	20000007 	andcs	r0, r0, r7
    1a98:	01000007 	tsteq	r0, r7
    1a9c:	07245000 	streq	r5, [r4, -r0]!
    1aa0:	072c0000 	streq	r0, [ip, -r0]!
    1aa4:	00010000 	andeq	r0, r1, r0
    1aa8:	00000050 	andeq	r0, r0, r0, asr r0
    1aac:	00000000 	andeq	r0, r0, r0
    1ab0:	00010300 	andeq	r0, r1, r0, lsl #6
    1ab4:	00072801 	andeq	r2, r7, r1, lsl #16
    1ab8:	0007b000 	andeq	fp, r7, r0
    1abc:	55000100 	strpl	r0, [r0, #-256]	; 0xffffff00
    1ac0:	00000894 	muleq	r0, r4, r8
    1ac4:	000008a0 	andeq	r0, r0, r0, lsr #17
    1ac8:	00550001 	subseq	r0, r5, r1
    1acc:	00000000 	andeq	r0, r0, r0
    1ad0:	03000000 	movweq	r0, #0
    1ad4:	28010001 	stmdacs	r1, {r0}
    1ad8:	b0000007 	andlt	r0, r0, r7
    1adc:	01000007 	tsteq	r0, r7
    1ae0:	08945100 	ldmeq	r4, {r8, ip, lr}
    1ae4:	08a00000 	stmiaeq	r0!, {}	; <UNPREDICTABLE>
    1ae8:	00010000 	andeq	r0, r1, r0
    1aec:	00000051 	andeq	r0, r0, r1, asr r0
    1af0:	00000000 	andeq	r0, r0, r0
    1af4:	00000300 	andeq	r0, r0, r0, lsl #6
    1af8:	01010101 	tsteq	r1, r1, lsl #2
    1afc:	00020303 	andeq	r0, r2, r3, lsl #6
    1b00:	00072801 	andeq	r2, r7, r1, lsl #16
    1b04:	00075000 	andeq	r5, r7, r0
    1b08:	53000100 	movwpl	r0, #256	; 0x100
    1b0c:	00000774 	andeq	r0, r0, r4, ror r7
    1b10:	00000774 	andeq	r0, r0, r4, ror r7
    1b14:	745e0001 	ldrbvc	r0, [lr], #-1
    1b18:	88000007 	stmdahi	r0, {r0, r1, r2}
    1b1c:	03000007 	movweq	r0, #7
    1b20:	9f017e00 	svcls	0x00017e00
    1b24:	00000788 	andeq	r0, r0, r8, lsl #15
    1b28:	00000794 	muleq	r0, r4, r7
    1b2c:	027e0003 	rsbseq	r0, lr, #3, 0
    1b30:	0007949f 	muleq	r7, pc, r4	; <UNPREDICTABLE>
    1b34:	00079800 	andeq	r9, r7, r0, lsl #16
    1b38:	7e000300 	cdpvc	3, 0, cr0, cr0, cr0, {0}
    1b3c:	08949f03 	ldmeq	r4, {r0, r1, r8, r9, sl, fp, ip, pc}
    1b40:	08a00000 	stmiaeq	r0!, {}	; <UNPREDICTABLE>
    1b44:	00010000 	andeq	r0, r1, r0
    1b48:	00000053 	andeq	r0, r0, r3, asr r0
	...
    1b54:	01010101 	tsteq	r1, r1, lsl #2
    1b58:	00020101 	andeq	r0, r2, r1, lsl #2
    1b5c:	00072c01 	andeq	r2, r7, r1, lsl #24
    1b60:	00075000 	andeq	r5, r7, r0
    1b64:	50000100 	andpl	r0, r0, r0, lsl #2
    1b68:	00000774 	andeq	r0, r0, r4, ror r7
    1b6c:	00000784 	andeq	r0, r0, r4, lsl #15
    1b70:	84500001 	ldrbhi	r0, [r0], #-1
    1b74:	94000007 	strls	r0, [r0], #-7
    1b78:	01000007 	tsteq	r0, r7
    1b7c:	07945b00 	ldreq	r5, [r4, r0, lsl #22]
    1b80:	07980000 	ldreq	r0, [r8, r0]
    1b84:	00010000 	andeq	r0, r1, r0
    1b88:	00079850 	andeq	r9, r7, r0, asr r8
    1b8c:	00079800 	andeq	r9, r7, r0, lsl #16
    1b90:	70000300 	andvc	r0, r0, r0, lsl #6
    1b94:	08949f01 	ldmeq	r4, {r0, r8, r9, sl, fp, ip, pc}
    1b98:	08a00000 	stmiaeq	r0!, {}	; <UNPREDICTABLE>
    1b9c:	00010000 	andeq	r0, r1, r0
    1ba0:	00000050 	andeq	r0, r0, r0, asr r0
    1ba4:	00000000 	andeq	r0, r0, r0
    1ba8:	01000100 	mrseq	r0, (UNDEF: 16)
    1bac:	0007b000 	andeq	fp, r7, r0
    1bb0:	0007ec00 	andeq	lr, r7, r0, lsl #24
    1bb4:	51000100 	mrspl	r0, (UNDEF: 16)
    1bb8:	000008a0 	andeq	r0, r0, r0, lsr #17
    1bbc:	000008a8 	andeq	r0, r0, r8, lsr #17
    1bc0:	00510001 	subseq	r0, r1, r1
    1bc4:	00000000 	andeq	r0, r0, r0
    1bc8:	01000000 	mrseq	r0, (UNDEF: 0)
    1bcc:	00000000 	andeq	r0, r0, r0
    1bd0:	01000101 	tsteq	r0, r1, lsl #2
    1bd4:	0007b000 	andeq	fp, r7, r0
    1bd8:	0007b400 	andeq	fp, r7, r0, lsl #8
    1bdc:	73000600 	movwvc	r0, #1536	; 0x600
    1be0:	22007c00 	andcs	r7, r0, #0, 24
    1be4:	0007d49f 	muleq	r7, pc, r4	; <UNPREDICTABLE>
    1be8:	0007d800 	andeq	sp, r7, r0, lsl #16
    1bec:	73000300 	movwvc	r0, #768	; 0x300
    1bf0:	07d89f7f 			; <UNDEFINED> instruction: 0x07d89f7f
    1bf4:	07e00000 	strbeq	r0, [r0, r0]!
    1bf8:	00010000 	andeq	r0, r1, r0
    1bfc:	0007e053 	andeq	lr, r7, r3, asr r0
    1c00:	0007e800 	andeq	lr, r7, r0, lsl #16
    1c04:	73000300 	movwvc	r0, #768	; 0x300
    1c08:	08a09f7f 	stmiaeq	r0!, {r0, r1, r2, r3, r4, r5, r6, r8, r9, sl, fp, ip, pc}
    1c0c:	08a80000 	stmiaeq	r8!, {}	; <UNPREDICTABLE>
    1c10:	00010000 	andeq	r0, r1, r0
    1c14:	00000053 	andeq	r0, r0, r3, asr r0
    1c18:	00000000 	andeq	r0, r0, r0
    1c1c:	01000100 	mrseq	r0, (UNDEF: 16)
    1c20:	0007b000 	andeq	fp, r7, r0
    1c24:	0007ec00 	andeq	lr, r7, r0, lsl #24
    1c28:	08000300 	stmdaeq	r0, {r8, r9}
    1c2c:	08a09f80 	stmiaeq	r0!, {r7, r8, r9, sl, fp, ip, pc}
    1c30:	08a80000 	stmiaeq	r8!, {}	; <UNPREDICTABLE>
    1c34:	00030000 	andeq	r0, r3, r0
    1c38:	009f8008 	addseq	r8, pc, r8
    1c3c:	00000000 	andeq	r0, r0, r0
    1c40:	01000000 	mrseq	r0, (UNDEF: 0)
    1c44:	00000000 	andeq	r0, r0, r0
    1c48:	00000101 	andeq	r0, r0, r1, lsl #2
    1c4c:	b0000100 	andlt	r0, r0, r0, lsl #2
    1c50:	d0000007 	andle	r0, r0, r7
    1c54:	04000007 	streq	r0, [r0], #-7
    1c58:	7dd09100 	ldfvcp	f1, [r0]
    1c5c:	0007d09f 	muleq	r7, pc, r0	; <UNPREDICTABLE>
    1c60:	0007d400 	andeq	sp, r7, r0, lsl #8
    1c64:	55000100 	strpl	r0, [r0, #-256]	; 0xffffff00
    1c68:	000007d4 	ldrdeq	r0, [r0], -r4
    1c6c:	000007d4 	ldrdeq	r0, [r0], -r4
    1c70:	017c0003 	cmneq	ip, r3
    1c74:	0007d49f 	muleq	r7, pc, r4	; <UNPREDICTABLE>
    1c78:	0007e000 	andeq	lr, r7, r0
    1c7c:	7c000300 	stcvc	3, cr0, [r0], {-0}
    1c80:	07e09f02 	strbeq	r9, [r0, r2, lsl #30]!
    1c84:	07ec0000 	strbeq	r0, [ip, r0]!
    1c88:	00030000 	andeq	r0, r3, r0
    1c8c:	a09f017c 	addsge	r0, pc, ip, ror r1	; <UNPREDICTABLE>
    1c90:	a8000008 	stmdage	r0, {r3}
    1c94:	04000008 	streq	r0, [r0], #-8
    1c98:	7dd09100 	ldfvcp	f1, [r0]
    1c9c:	0000009f 	muleq	r0, pc, r0	; <UNPREDICTABLE>
    1ca0:	00000000 	andeq	r0, r0, r0
    1ca4:	04000400 	streq	r0, [r0], #-1024	; 0xfffffc00
    1ca8:	0007b000 	andeq	fp, r7, r0
    1cac:	0007b400 	andeq	fp, r7, r0, lsl #8
    1cb0:	70000300 	andvc	r0, r0, r0, lsl #6
    1cb4:	08a09f01 	stmiaeq	r0!, {r0, r8, r9, sl, fp, ip, pc}
    1cb8:	08a80000 	stmiaeq	r8!, {}	; <UNPREDICTABLE>
    1cbc:	00030000 	andeq	r0, r3, r0
    1cc0:	009f0170 	addseq	r0, pc, r0, ror r1	; <UNPREDICTABLE>
    1cc4:	00000000 	andeq	r0, r0, r0
    1cc8:	01000000 	mrseq	r0, (UNDEF: 0)
    1ccc:	bc000000 	stclt	0, cr0, [r0], {-0}
    1cd0:	d0000007 	andle	r0, r0, r7
    1cd4:	04000007 	streq	r0, [r0], #-7
    1cd8:	7dd09100 	ldfvcp	f1, [r0]
    1cdc:	0007d09f 	muleq	r7, pc, r0	; <UNPREDICTABLE>
    1ce0:	0007ec00 	andeq	lr, r7, r0, lsl #24
    1ce4:	55000100 	strpl	r0, [r0, #-256]	; 0xffffff00
	...
    1cf4:	00000328 	andeq	r0, r0, r8, lsr #6
    1cf8:	00000364 	andeq	r0, r0, r4, ror #6
    1cfc:	64500001 	ldrbvs	r0, [r0], #-1
    1d00:	88000003 	stmdahi	r0, {r0, r1}
    1d04:	04000003 	streq	r0, [r0], #-3
    1d08:	5001f300 	andpl	pc, r1, r0, lsl #6
    1d0c:	0000009f 	muleq	r0, pc, r0	; <UNPREDICTABLE>
	...
    1d18:	00032800 	andeq	r2, r3, r0, lsl #16
    1d1c:	00035c00 	andeq	r5, r3, r0, lsl #24
    1d20:	51000100 	mrspl	r0, (UNDEF: 16)
    1d24:	0000035c 	andeq	r0, r0, ip, asr r3
    1d28:	00000388 	andeq	r0, r0, r8, lsl #7
    1d2c:	01f30004 	mvnseq	r0, r4
    1d30:	00009f51 	andeq	r9, r0, r1, asr pc
	...
    1d54:	00140000 	andseq	r0, r4, r0
    1d58:	00010000 	andeq	r0, r1, r0
    1d5c:	00001450 	andeq	r1, r0, r0, asr r4
    1d60:	00002000 	andeq	r2, r0, r0
    1d64:	5c000100 	stfpls	f0, [r0], {-0}
    1d68:	00000020 	andeq	r0, r0, r0, lsr #32
    1d6c:	00000068 	andeq	r0, r0, r8, rrx
    1d70:	02710003 	rsbseq	r0, r1, #3, 0
    1d74:	0000689f 	muleq	r0, pc, r8	; <UNPREDICTABLE>
    1d78:	00006c00 	andeq	r6, r0, r0, lsl #24
    1d7c:	73000300 	movwvc	r0, #768	; 0x300
    1d80:	006c9f02 	rsbeq	r9, ip, r2, lsl #30
    1d84:	01940000 	orrseq	r0, r4, r0
    1d88:	00040000 	andeq	r0, r4, r0
    1d8c:	9f5001f3 	svcls	0x005001f3
    1d90:	00000194 	muleq	r0, r4, r1
    1d94:	00000198 	muleq	r0, r8, r1
    1d98:	02730003 	rsbseq	r0, r3, #3, 0
    1d9c:	0001989f 	muleq	r1, pc, r8	; <UNPREDICTABLE>
    1da0:	0001c000 	andeq	ip, r1, r0
    1da4:	f3000400 	vshl.u8	d0, d0, d0
    1da8:	c09f5001 	addsgt	r5, pc, r1
    1dac:	c8000001 	stmdagt	r0, {r0}
    1db0:	01000001 	tsteq	r0, r1
    1db4:	01c85c00 	biceq	r5, r8, r0, lsl #24
    1db8:	02140000 	andseq	r0, r4, #0, 0
    1dbc:	00030000 	andeq	r0, r3, r0
    1dc0:	149f0273 	ldrne	r0, [pc], #627	; 1dc8 <__code_start__-0x6238>
    1dc4:	ec000002 	stc	0, cr0, [r0], {2}
    1dc8:	04000002 	streq	r0, [r0], #-2
    1dcc:	5001f300 	andpl	pc, r1, r0, lsl #6
    1dd0:	0002ec9f 	muleq	r2, pc, ip	; <UNPREDICTABLE>
    1dd4:	0002f400 	andeq	pc, r2, r0, lsl #8
    1dd8:	73000300 	movwvc	r0, #768	; 0x300
    1ddc:	02f49f02 	rscseq	r9, r4, #2, 30
    1de0:	03280000 			; <UNDEFINED> instruction: 0x03280000
    1de4:	00040000 	andeq	r0, r4, r0
    1de8:	9f5001f3 	svcls	0x005001f3
	...
    1e00:	0000001c 	andeq	r0, r0, ip, lsl r0
    1e04:	1c510001 	mrrcne	0, 0, r0, r1, cr1
    1e08:	e0000000 	and	r0, r0, r0
    1e0c:	01000002 	tsteq	r0, r2
    1e10:	02e05000 	rsceq	r5, r0, #0, 0
    1e14:	02ec0000 	rsceq	r0, ip, #0, 0
    1e18:	00040000 	andeq	r0, r4, r0
    1e1c:	9f5101f3 	svcls	0x005101f3
    1e20:	000002ec 	andeq	r0, r0, ip, ror #5
    1e24:	00000328 	andeq	r0, r0, r8, lsr #6
    1e28:	00500001 	subseq	r0, r0, r1
	...
    1e38:	00000001 	andeq	r0, r0, r1
    1e3c:	00000000 	andeq	r0, r0, r0
    1e40:	00000202 	andeq	r0, r0, r2, lsl #4
	...
    1e54:	70000000 	andvc	r0, r0, r0
    1e58:	01000000 	mrseq	r0, (UNDEF: 0)
    1e5c:	00705200 	rsbseq	r5, r0, r0, lsl #4
    1e60:	00780000 	rsbseq	r0, r8, r0
    1e64:	00010000 	andeq	r0, r1, r0
    1e68:	0000785c 	andeq	r7, r0, ip, asr r8
    1e6c:	0000a400 	andeq	sl, r0, r0, lsl #8
    1e70:	f3000400 	vshl.u8	d0, d0, d0
    1e74:	949f5201 	ldrls	r5, [pc], #513	; 1e7c <__code_start__-0x6184>
    1e78:	9c000001 	stcls	0, cr0, [r0], {1}
    1e7c:	01000001 	tsteq	r0, r1
    1e80:	019c5200 	orrseq	r5, ip, r0, lsl #4
    1e84:	01a40000 			; <UNDEFINED> instruction: 0x01a40000
    1e88:	00010000 	andeq	r0, r1, r0
    1e8c:	0001a45c 	andeq	sl, r1, ip, asr r4
    1e90:	0001c000 	andeq	ip, r1, r0
    1e94:	f3000400 	vshl.u8	d0, d0, d0
    1e98:	c09f5201 	addsgt	r5, pc, r1, lsl #4
    1e9c:	20000001 	andcs	r0, r0, r1
    1ea0:	01000002 	tsteq	r0, r2
    1ea4:	02205200 	eoreq	r5, r0, #0, 4
    1ea8:	02280000 	eoreq	r0, r8, #0, 0
    1eac:	00040000 	andeq	r0, r4, r0
    1eb0:	9f1f0072 	svcls	0x001f0072
    1eb4:	00000228 	andeq	r0, r0, r8, lsr #4
    1eb8:	00000274 	andeq	r0, r0, r4, ror r2
    1ebc:	01f30005 	mvnseq	r0, r5
    1ec0:	749f1f52 	ldrvc	r1, [pc], #3922	; 1ec8 <__code_start__-0x6138>
    1ec4:	88000002 	stmdahi	r0, {r1}
    1ec8:	01000002 	tsteq	r0, r2
    1ecc:	02885200 	addeq	r5, r8, #0, 4
    1ed0:	02a00000 	adceq	r0, r0, #0, 0
    1ed4:	00010000 	andeq	r0, r1, r0
    1ed8:	0002cc5c 	andeq	ip, r2, ip, asr ip
    1edc:	0002d000 	andeq	sp, r2, r0
    1ee0:	52000100 	andpl	r0, r0, #0
    1ee4:	000002d0 	ldrdeq	r0, [r0], -r0	; <UNPREDICTABLE>
    1ee8:	000002e7 	andeq	r0, r0, r7, ror #5
    1eec:	e75c0001 	ldrb	r0, [ip, -r1]
    1ef0:	ec000002 	stc	0, cr0, [r0], {2}
    1ef4:	04000002 	streq	r0, [r0], #-2
    1ef8:	5201f300 	andpl	pc, r1, #0, 6
    1efc:	0002ec9f 	muleq	r2, pc, ip	; <UNPREDICTABLE>
    1f00:	00030000 	andeq	r0, r3, r0
    1f04:	52000100 	andpl	r0, r0, #0
    1f08:	00000300 	andeq	r0, r0, r0, lsl #6
    1f0c:	00000328 	andeq	r0, r0, r8, lsr #6
    1f10:	005c0001 	subseq	r0, ip, r1
	...
    1f2c:	00006800 	andeq	r6, r0, r0, lsl #16
    1f30:	53000100 	movwpl	r0, #256	; 0x100
    1f34:	00000068 	andeq	r0, r0, r8, rrx
    1f38:	0000006c 	andeq	r0, r0, ip, rrx
    1f3c:	7f080003 	svcvc	0x00080003
    1f40:	0001949f 	muleq	r1, pc, r4	; <UNPREDICTABLE>
    1f44:	00019800 	andeq	r9, r1, r0, lsl #16
    1f48:	08000300 	stmdaeq	r0, {r8, r9}
    1f4c:	01c09f7f 	biceq	r9, r0, pc, ror pc
    1f50:	02140000 	andseq	r0, r4, #0, 0
    1f54:	00030000 	andeq	r0, r3, r0
    1f58:	749f7f08 	ldrvc	r7, [pc], #3848	; 1f60 <__code_start__-0x60a0>
    1f5c:	90000002 	andls	r0, r0, r2
    1f60:	01000002 	tsteq	r0, r2
    1f64:	02905300 	addseq	r5, r0, #0, 6
    1f68:	02a00000 	adceq	r0, r0, #0, 0
    1f6c:	00040000 	andeq	r0, r4, r0
    1f70:	9f5301f3 	svcls	0x005301f3
    1f74:	000002ec 	andeq	r0, r0, ip, ror #5
    1f78:	00000328 	andeq	r0, r0, r8, lsr #6
    1f7c:	7f080003 	svcvc	0x00080003
    1f80:	0000009f 	muleq	r0, pc, r0	; <UNPREDICTABLE>
    1f84:	00000000 	andeq	r0, r0, r0
    1f88:	00000100 	andeq	r0, r0, r0, lsl #2
    1f8c:	02020000 	andeq	r0, r2, #0, 0
    1f90:	01010000 	mrseq	r0, (UNDEF: 1)
	...
    1f9c:	00000202 	andeq	r0, r0, r2, lsl #4
    1fa0:	00000100 	andeq	r0, r0, r0, lsl #2
    1fa4:	00000000 	andeq	r0, r0, r0
    1fa8:	01010000 	mrseq	r0, (UNDEF: 1)
    1fac:	00000000 	andeq	r0, r0, r0
    1fb0:	00000202 	andeq	r0, r0, r2, lsl #4
    1fb4:	00000000 	andeq	r0, r0, r0
    1fb8:	00000101 	andeq	r0, r0, r1, lsl #2
    1fbc:	00001800 	andeq	r1, r0, r0, lsl #16
    1fc0:	00007000 	andeq	r7, r0, r0
    1fc4:	91000400 	tstls	r0, r0, lsl #8
    1fc8:	709f7fa0 	addsvc	r7, pc, r0, lsr #31
    1fcc:	78000000 	stmdavc	r0, {}	; <UNPREDICTABLE>
    1fd0:	01000000 	mrseq	r0, (UNDEF: 0)
    1fd4:	00785200 	rsbseq	r5, r8, r0, lsl #4
    1fd8:	00780000 	rsbseq	r0, r8, r0
    1fdc:	00010000 	andeq	r0, r1, r0
    1fe0:	00007854 	andeq	r7, r0, r4, asr r8
    1fe4:	00008800 	andeq	r8, r0, r0, lsl #16
    1fe8:	74000300 	strvc	r0, [r0], #-768	; 0xfffffd00
    1fec:	00889f01 	addeq	r9, r8, r1, lsl #30
    1ff0:	00900000 	addseq	r0, r0, r0
    1ff4:	00010000 	andeq	r0, r1, r0
    1ff8:	00009054 	andeq	r9, r0, r4, asr r0
    1ffc:	0000a000 	andeq	sl, r0, r0
    2000:	74000300 	strvc	r0, [r0], #-768	; 0xfffffd00
    2004:	00a09f02 	adceq	r9, r0, r2, lsl #30
    2008:	00b00000 	adcseq	r0, r0, r0
    200c:	00010000 	andeq	r0, r1, r0
    2010:	0001945e 	andeq	r9, r1, lr, asr r4
    2014:	00019c00 	andeq	r9, r1, r0, lsl #24
    2018:	91000400 	tstls	r0, r0, lsl #8
    201c:	9c9f7fa0 	ldcls	15, cr7, [pc], {160}	; 0xa0
    2020:	a4000001 	strge	r0, [r0], #-1
    2024:	01000001 	tsteq	r0, r1
    2028:	01a45200 			; <UNDEFINED> instruction: 0x01a45200
    202c:	01a40000 			; <UNDEFINED> instruction: 0x01a40000
    2030:	00010000 	andeq	r0, r1, r0
    2034:	0001a45e 	andeq	sl, r1, lr, asr r4
    2038:	0001b400 	andeq	fp, r1, r0, lsl #8
    203c:	7e000300 	cdpvc	3, 0, cr0, cr0, cr0, {0}
    2040:	01b49f01 			; <UNDEFINED> instruction: 0x01b49f01
    2044:	01c00000 	biceq	r0, r0, r0
    2048:	00010000 	andeq	r0, r1, r0
    204c:	0001c05e 	andeq	ip, r1, lr, asr r0
    2050:	00022800 	andeq	r2, r2, r0, lsl #16
    2054:	91000400 	tstls	r0, r0, lsl #8
    2058:	289f7fa0 	ldmcs	pc, {r5, r7, r8, r9, sl, fp, ip, sp, lr}	; <UNPREDICTABLE>
    205c:	34000002 	strcc	r0, [r0], #-2
    2060:	01000002 	tsteq	r0, r2
    2064:	02345200 	eorseq	r5, r4, #0, 4
    2068:	02580000 	subseq	r0, r8, #0, 0
    206c:	00010000 	andeq	r0, r1, r0
    2070:	0002585e 	andeq	r5, r2, lr, asr r8
    2074:	00025c00 	andeq	r5, r2, r0, lsl #24
    2078:	7e000300 	cdpvc	3, 0, cr0, cr0, cr0, {0}
    207c:	025c9f01 	subseq	r9, ip, #1, 30
    2080:	02640000 	rsbeq	r0, r4, #0, 0
    2084:	00010000 	andeq	r0, r1, r0
    2088:	0002645e 	andeq	r6, r2, lr, asr r4
    208c:	00027000 	andeq	r7, r2, r0
    2090:	71000300 	mrsvc	r0, LR_irq
    2094:	02709f02 	rsbseq	r9, r0, #2, 30
    2098:	02740000 	rsbseq	r0, r4, #0, 0
    209c:	00010000 	andeq	r0, r1, r0
    20a0:	0002745e 	andeq	r7, r2, lr, asr r4
    20a4:	00027400 	andeq	r7, r2, r0, lsl #8
    20a8:	91000400 	tstls	r0, r0, lsl #8
    20ac:	749f7fa0 	ldrvc	r7, [pc], #4000	; 20b4 <__code_start__-0x5f4c>
    20b0:	a0000002 	andge	r0, r0, r2
    20b4:	04000002 	streq	r0, [r0], #-2
    20b8:	7fa19100 	svcvc	0x00a19100
    20bc:	0002c09f 	muleq	r2, pc, r0	; <UNPREDICTABLE>
    20c0:	0002c800 	andeq	ip, r2, r0, lsl #16
    20c4:	5e000100 	adfpls	f0, f0, f0
    20c8:	000002c8 	andeq	r0, r0, r8, asr #5
    20cc:	000002cc 	andeq	r0, r0, ip, asr #5
    20d0:	cc560001 	mrrcgt	0, 0, r0, r6, cr1
    20d4:	ec000002 	stc	0, cr0, [r0], {2}
    20d8:	04000002 	streq	r0, [r0], #-2
    20dc:	7fa09100 	svcvc	0x00a09100
    20e0:	0002ec9f 	muleq	r2, pc, ip	; <UNPREDICTABLE>
    20e4:	0002fc00 	andeq	pc, r2, r0, lsl #24
    20e8:	91000400 	tstls	r0, r0, lsl #8
    20ec:	fc9f7fa1 	ldc2	15, cr7, [pc], {161}	; 0xa1
    20f0:	28000002 	stmdacs	r0, {r1}
    20f4:	01000003 	tsteq	r0, r3
    20f8:	00005e00 	andeq	r5, r0, r0, lsl #28
	...
    2110:	00010100 	andeq	r0, r1, r0, lsl #2
	...
    2124:	00000020 	andeq	r0, r0, r0, lsr #32
    2128:	00000070 	andeq	r0, r0, r0, ror r0
    212c:	70520001 	subsvc	r0, r2, r1
    2130:	94000000 	strls	r0, [r0], #-0
    2134:	01000000 	mrseq	r0, (UNDEF: 0)
    2138:	01945c00 	orrseq	r5, r4, r0, lsl #24
    213c:	019c0000 	orrseq	r0, ip, r0
    2140:	00010000 	andeq	r0, r1, r0
    2144:	00019c52 	andeq	r9, r1, r2, asr ip
    2148:	0001c000 	andeq	ip, r1, r0
    214c:	5c000100 	stfpls	f0, [r0], {-0}
    2150:	000001c8 	andeq	r0, r0, r8, asr #3
    2154:	00000210 	andeq	r0, r0, r0, lsl r2
    2158:	105c0001 	subsne	r0, ip, r1
    215c:	24000002 	strcs	r0, [r0], #-2
    2160:	01000002 	tsteq	r0, r2
    2164:	02245200 	eoreq	r5, r4, #0, 4
    2168:	02480000 	subeq	r0, r8, #0, 0
    216c:	00010000 	andeq	r0, r1, r0
    2170:	0002485c 	andeq	r4, r2, ip, asr r8
    2174:	00025c00 	andeq	r5, r2, r0, lsl #24
    2178:	55000100 	strpl	r0, [r0, #-256]	; 0xffffff00
    217c:	0000025c 	andeq	r0, r0, ip, asr r2
    2180:	00000268 	andeq	r0, r0, r8, ror #4
    2184:	685c0001 	ldmdavs	ip, {r0}^
    2188:	74000002 	strvc	r0, [r0], #-2
    218c:	19000002 	stmdbne	r0, {r1}
    2190:	f7007500 			; <UNDEFINED> instruction: 0xf7007500
    2194:	7625f72c 	strtvc	pc, [r5], -ip, lsr #14
    2198:	f72cf700 			; <UNDEFINED> instruction: 0xf72cf700
    219c:	20081e25 	andcs	r1, r8, r5, lsr #28
    21a0:	f72525f7 			; <UNDEFINED> instruction: 0xf72525f7
    21a4:	3300f72c 	movwcc	pc, #1836	; 0x72c	; <UNPREDICTABLE>
    21a8:	02749f25 	rsbseq	r9, r4, #148	; 0x94
    21ac:	02880000 	addeq	r0, r8, #0, 0
    21b0:	00010000 	andeq	r0, r1, r0
    21b4:	00028852 	andeq	r8, r2, r2, asr r8
    21b8:	0002a000 	andeq	sl, r2, r0
    21bc:	5c000100 	stfpls	f0, [r0], {-0}
    21c0:	000002cc 	andeq	r0, r0, ip, asr #5
    21c4:	000002d0 	ldrdeq	r0, [r0], -r0	; <UNPREDICTABLE>
    21c8:	d0520001 	subsle	r0, r2, r1
    21cc:	e7000002 	str	r0, [r0, -r2]
    21d0:	01000002 	tsteq	r0, r2
    21d4:	02e75c00 	rsceq	r5, r7, #0, 24
    21d8:	02ec0000 	rsceq	r0, ip, #0, 0
    21dc:	00040000 	andeq	r0, r4, r0
    21e0:	9f5201f3 	svcls	0x005201f3
    21e4:	000002ec 	andeq	r0, r0, ip, ror #5
    21e8:	00000300 	andeq	r0, r0, r0, lsl #6
    21ec:	00520001 	subseq	r0, r2, r1
    21f0:	28000003 	stmdacs	r0, {r0, r1}
    21f4:	01000003 	tsteq	r0, r3
    21f8:	00005c00 	andeq	r5, r0, r0, lsl #24
    21fc:	00000000 	andeq	r0, r0, r0
    2200:	00040000 	andeq	r0, r4, r0
    2204:	01000004 	tsteq	r0, r4
    2208:	00040000 	andeq	r0, r4, r0
    220c:	000000a4 	andeq	r0, r0, r4, lsr #1
    2210:	000000b0 	strheq	r0, [r0], -r0	; <UNPREDICTABLE>
    2214:	7c530001 	mrrcvc	0, 0, r0, r3, cr1
    2218:	90000002 	andls	r0, r0, r2
    221c:	01000002 	tsteq	r0, r2
    2220:	02905300 	addseq	r5, r0, #0, 6
    2224:	029c0000 	addseq	r0, ip, #0, 0
    2228:	00040000 	andeq	r0, r4, r0
    222c:	9f5301f3 	svcls	0x005301f3
    2230:	000002c0 	andeq	r0, r0, r0, asr #5
    2234:	000002cc 	andeq	r0, r0, ip, asr #5
    2238:	f0530001 			; <UNDEFINED> instruction: 0xf0530001
    223c:	28000002 	stmdacs	r0, {r1}
    2240:	03000003 	movweq	r0, #3
    2244:	9f7f0800 	svcls	0x007f0800
	...
    2250:	01000004 	tsteq	r0, r4
    2254:	01000004 	tsteq	r0, r4
    2258:	00000000 	andeq	r0, r0, r0
    225c:	00000004 	andeq	r0, r0, r4
    2260:	000000a4 	andeq	r0, r0, r4, lsr #1
    2264:	000000b0 	strheq	r0, [r0], -r0	; <UNPREDICTABLE>
    2268:	b0520001 	subslt	r0, r2, r1
    226c:	5c000000 	stcpl	0, cr0, [r0], {-0}
    2270:	04000001 	streq	r0, [r0], #-1
    2274:	7fa09100 	svcvc	0x00a09100
    2278:	00027c9f 	muleq	r2, pc, ip	; <UNPREDICTABLE>
    227c:	00029400 	andeq	r9, r2, r0, lsl #8
    2280:	91000400 	tstls	r0, r0, lsl #8
    2284:	949f7fa0 	ldrls	r7, [pc], #4000	; 228c <__code_start__-0x5d74>
    2288:	9c000002 	stcls	0, cr0, [r0], {2}
    228c:	01000002 	tsteq	r0, r2
    2290:	02b45e00 	adcseq	r5, r4, #0, 28
    2294:	02c00000 	sbceq	r0, r0, #0, 0
    2298:	00040000 	andeq	r0, r4, r0
    229c:	9f7fa091 	svcls	0x007fa091
    22a0:	000002c0 	andeq	r0, r0, r0, asr #5
    22a4:	000002cc 	andeq	r0, r0, ip, asr #5
    22a8:	f0520001 			; <UNDEFINED> instruction: 0xf0520001
    22ac:	00000002 	andeq	r0, r0, r2
    22b0:	04000003 	streq	r0, [r0], #-3
    22b4:	7fa09100 	svcvc	0x00a09100
    22b8:	0003009f 	muleq	r3, pc, r0	; <UNPREDICTABLE>
    22bc:	00032800 	andeq	r2, r3, r0, lsl #16
    22c0:	52000100 	andpl	r0, r0, #0
	...
    22cc:	01000004 	tsteq	r0, r4
    22d0:	03010101 	movweq	r0, #4353	; 0x1101
    22d4:	01040203 	tsteq	r4, r3, lsl #4
    22d8:	00000000 	andeq	r0, r0, r0
    22dc:	00000004 	andeq	r0, r0, r4
    22e0:	000000a4 	andeq	r0, r0, r4, lsr #1
    22e4:	000000b0 	strheq	r0, [r0], -r0	; <UNPREDICTABLE>
    22e8:	0c5e0001 	mrrceq	0, 0, r0, lr, cr1
    22ec:	0c000001 	stceq	0, cr0, [r0], {1}
    22f0:	01000001 	tsteq	r0, r1
    22f4:	010c5500 	tsteq	ip, r0, lsl #10
    22f8:	01200000 			; <UNDEFINED> instruction: 0x01200000
    22fc:	00030000 	andeq	r0, r3, r0
    2300:	209f0175 	addscs	r0, pc, r5, ror r1	; <UNPREDICTABLE>
    2304:	2c000001 	stccs	0, cr0, [r0], {1}
    2308:	03000001 	movweq	r0, #1
    230c:	9f027500 	svcls	0x00027500
    2310:	0000012c 	andeq	r0, r0, ip, lsr #2
    2314:	00000130 	andeq	r0, r0, r0, lsr r1
    2318:	03750003 	cmneq	r5, #3, 0
    231c:	00027c9f 	muleq	r2, pc, ip	; <UNPREDICTABLE>
    2320:	00029c00 	andeq	r9, r2, r0, lsl #24
    2324:	91000400 	tstls	r0, r0, lsl #8
    2328:	c09f7fa1 	addsgt	r7, pc, r1, lsr #31
    232c:	c8000002 	stmdagt	r0, {r1}
    2330:	01000002 	tsteq	r0, r2
    2334:	02c85e00 	sbceq	r5, r8, #0, 28
    2338:	02cc0000 	sbceq	r0, ip, #0, 0
    233c:	00010000 	andeq	r0, r1, r0
    2340:	0002f056 	andeq	pc, r2, r6, asr r0	; <UNPREDICTABLE>
    2344:	0002fc00 	andeq	pc, r2, r0, lsl #24
    2348:	91000400 	tstls	r0, r0, lsl #8
    234c:	fc9f7fa1 	ldc2	15, cr7, [pc], {161}	; 0xa1
    2350:	28000002 	stmdacs	r0, {r1}
    2354:	01000003 	tsteq	r0, r3
    2358:	00005e00 	andeq	r5, r0, r0, lsl #28
	...
    2364:	01010100 	mrseq	r0, (UNDEF: 17)
    2368:	02010101 	andeq	r0, r1, #1073741824	; 0x40000000
    236c:	00000106 	andeq	r0, r0, r6, lsl #2
    2370:	00a80006 	adceq	r0, r8, r6
    2374:	00b00000 	adcseq	r0, r0, r0
    2378:	00010000 	andeq	r0, r1, r0
    237c:	00010c51 	andeq	r0, r1, r1, asr ip
    2380:	00011c00 	andeq	r1, r1, r0, lsl #24
    2384:	5c000100 	stfpls	f0, [r0], {-0}
    2388:	0000011c 	andeq	r0, r0, ip, lsl r1
    238c:	0000012c 	andeq	r0, r0, ip, lsr #2
    2390:	2c580001 	mrrccs	0, 0, r0, r8, cr1
    2394:	30000001 	andcc	r0, r0, r1
    2398:	01000001 	tsteq	r0, r1
    239c:	01305c00 	teqeq	r0, r0, lsl #24
    23a0:	01300000 	teqeq	r0, r0
    23a4:	00030000 	andeq	r0, r3, r0
    23a8:	7c9f017c 	ldfvcs	f0, [pc], {124}	; 0x7c
    23ac:	9c000002 	stcls	0, cr0, [r0], {2}
    23b0:	02000002 	andeq	r0, r0, #2, 0
    23b4:	c09f3100 	addsgt	r3, pc, r0, lsl #2
    23b8:	cc000002 	stcgt	0, cr0, [r0], {2}
    23bc:	01000002 	tsteq	r0, r2
    23c0:	02f05100 	rscseq	r5, r0, #0
    23c4:	03280000 			; <UNDEFINED> instruction: 0x03280000
    23c8:	00020000 	andeq	r0, r2, r0
    23cc:	00009f31 	andeq	r9, r0, r1, lsr pc
    23d0:	00000000 	andeq	r0, r0, r0
    23d4:	06010000 	streq	r0, [r1], -r0
    23d8:	00010106 	andeq	r0, r1, r6, lsl #2
    23dc:	015c0100 	cmpeq	ip, r0, lsl #2
    23e0:	015c0000 	cmpeq	ip, r0
    23e4:	00040000 	andeq	r0, r4, r0
    23e8:	9f7fa091 	svcls	0x007fa091
    23ec:	0000015c 	andeq	r0, r0, ip, asr r1
    23f0:	0000018c 	andeq	r0, r0, ip, lsl #3
    23f4:	9c520001 	mrrcls	0, 0, r0, r2, cr1
    23f8:	a0000002 	andge	r0, r0, r2
    23fc:	01000002 	tsteq	r0, r2
    2400:	02a05e00 	adceq	r5, r0, #0, 28
    2404:	02ac0000 	adceq	r0, ip, #0, 0
    2408:	00010000 	andeq	r0, r1, r0
    240c:	00000052 	andeq	r0, r0, r2, asr r0
	...
    2418:	01000101 	tsteq	r0, r1, lsl #2
    241c:	00016c07 	andeq	r6, r1, r7, lsl #24
    2420:	00017000 	andeq	r7, r1, r0
    2424:	73000300 	movwvc	r0, #768	; 0x300
    2428:	01709f7f 	cmneq	r0, pc, ror pc
    242c:	01780000 	cmneq	r8, r0
    2430:	00010000 	andeq	r0, r1, r0
    2434:	00017853 	andeq	r7, r1, r3, asr r8
    2438:	00018400 	andeq	r8, r1, r0, lsl #8
    243c:	73000300 	movwvc	r0, #768	; 0x300
    2440:	029c9f7f 	addseq	r9, ip, #508	; 0x1fc
    2444:	029c0000 	addseq	r0, ip, #0, 0
    2448:	00040000 	andeq	r0, r4, r0
    244c:	9f7fa191 	svcls	0x007fa191
	...
    2458:	01010101 	tsteq	r1, r1, lsl #2
    245c:	0000015c 	andeq	r0, r0, ip, asr r1
    2460:	0000018c 	andeq	r0, r0, ip, lsl #3
    2464:	80080003 	andhi	r0, r8, r3
    2468:	00029c9f 	muleq	r2, pc, ip	; <UNPREDICTABLE>
    246c:	0002ac00 	andeq	sl, r2, r0, lsl #24
    2470:	08000300 	stmdaeq	r0, {r8, r9}
    2474:	00009f80 	andeq	r9, r0, r0, lsl #31
    2478:	00000000 	andeq	r0, r0, r0
    247c:	00010000 	andeq	r0, r1, r0
    2480:	00010100 	andeq	r0, r1, r0, lsl #2
    2484:	01010100 	mrseq	r0, (UNDEF: 17)
    2488:	01010101 	tsteq	r1, r1, lsl #2
    248c:	0000015c 	andeq	r0, r0, ip, asr r1
    2490:	0000016c 	andeq	r0, r0, ip, ror #2
    2494:	6c500001 	mrrcvs	0, 0, r0, r0, cr1	; <UNPREDICTABLE>
    2498:	6c000001 	stcvs	0, cr0, [r0], {1}
    249c:	03000001 	movweq	r0, #1
    24a0:	9f017c00 	svcls	0x00017c00
    24a4:	0000016c 	andeq	r0, r0, ip, ror #2
    24a8:	00000178 	andeq	r0, r0, r8, ror r1
    24ac:	027c0003 	rsbseq	r0, ip, #3, 0
    24b0:	0001789f 	muleq	r1, pc, r8	; <UNPREDICTABLE>
    24b4:	00018800 	andeq	r8, r1, r0, lsl #16
    24b8:	7c000300 	stcvc	3, cr0, [r0], {-0}
    24bc:	01889f01 	orreq	r9, r8, r1, lsl #30
    24c0:	018c0000 	orreq	r0, ip, r0
    24c4:	00030000 	andeq	r0, r3, r0
    24c8:	9c9f017e 	ldflss	f0, [pc], {126}	; 0x7e
    24cc:	a4000002 	strge	r0, [r0], #-2
    24d0:	01000002 	tsteq	r0, r2
    24d4:	02a45000 	adceq	r5, r4, #0, 0
    24d8:	02ac0000 	adceq	r0, ip, #0, 0
    24dc:	00030000 	andeq	r0, r3, r0
    24e0:	009f017e 	addseq	r0, pc, lr, ror r1	; <UNPREDICTABLE>
    24e4:	00000000 	andeq	r0, r0, r0
    24e8:	04000000 	streq	r0, [r0], #-0
    24ec:	00000400 	andeq	r0, r0, r0, lsl #8
    24f0:	00015c01 	andeq	r5, r1, r1, lsl #24
    24f4:	00016000 	andeq	r6, r1, r0
    24f8:	71000300 	mrsvc	r0, LR_irq
    24fc:	029c9f01 	addseq	r9, ip, #1, 30
    2500:	02a00000 	adceq	r0, r0, #0, 0
    2504:	00020000 	andeq	r0, r2, r0
    2508:	02a09f32 	adceq	r9, r0, #200	; 0xc8
    250c:	02ac0000 	adceq	r0, ip, #0, 0
    2510:	00030000 	andeq	r0, r3, r0
    2514:	009f0171 	addseq	r0, pc, r1, ror r1	; <UNPREDICTABLE>
    2518:	00000000 	andeq	r0, r0, r0
    251c:	07000000 	streq	r0, [r0, -r0]
    2520:	5c000600 	stcpl	6, cr0, [r0], {-0}
    2524:	94000001 	strls	r0, [r0], #-1
    2528:	01000001 	tsteq	r0, r1
    252c:	029c5000 	addseq	r5, ip, #0, 0
    2530:	02b40000 	adcseq	r0, r4, #0, 0
    2534:	00010000 	andeq	r0, r1, r0
    2538:	00000050 	andeq	r0, r0, r0, asr r0
    253c:	00000000 	andeq	r0, r0, r0
    2540:	01010100 	mrseq	r0, (UNDEF: 17)
    2544:	00021400 	andeq	r1, r2, r0, lsl #8
    2548:	00022000 	andeq	r2, r2, r0
    254c:	30000200 	andcc	r0, r0, r0, lsl #4
    2550:	0002209f 	muleq	r2, pc, r0	; <UNPREDICTABLE>
    2554:	00023400 	andeq	r3, r2, r0, lsl #8
    2558:	31000200 	mrscc	r0, R8_usr
    255c:	0000009f 	muleq	r0, pc, r0	; <UNPREDICTABLE>
    2560:	00000000 	andeq	r0, r0, r0
    2564:	01010000 	mrseq	r0, (UNDEF: 1)
    2568:	01010000 	mrseq	r0, (UNDEF: 1)
    256c:	01010000 	mrseq	r0, (UNDEF: 1)
    2570:	01010000 	mrseq	r0, (UNDEF: 1)
    2574:	01010000 	mrseq	r0, (UNDEF: 1)
    2578:	02020000 	andeq	r0, r2, #0, 0
    257c:	00008001 	andeq	r8, r0, r1
    2580:	00008000 	andeq	r8, r0, r0
    2584:	53000100 	movwpl	r0, #256	; 0x100
    2588:	00000080 	andeq	r0, r0, r0, lsl #1
    258c:	0000008c 	andeq	r0, r0, ip, lsl #1
    2590:	04730003 	ldrbteq	r0, [r3], #-3
    2594:	00008c9f 	muleq	r0, pc, ip	; <UNPREDICTABLE>
    2598:	00009400 	andeq	r9, r0, r0, lsl #8
    259c:	51000100 	mrspl	r0, (UNDEF: 16)
    25a0:	00000094 	muleq	r0, r4, r0
    25a4:	00000098 	muleq	r0, r8, r0
    25a8:	08730003 	ldmdaeq	r3!, {r0, r1}^
    25ac:	0000989f 	muleq	r0, pc, r8	; <UNPREDICTABLE>
    25b0:	0000a400 	andeq	sl, r0, r0, lsl #8
    25b4:	51000100 	mrspl	r0, (UNDEF: 16)
    25b8:	000000a4 	andeq	r0, r0, r4, lsr #1
    25bc:	000000a8 	andeq	r0, r0, r8, lsr #1
    25c0:	0c730003 	ldcleq	0, cr0, [r3], #-12
    25c4:	0000a89f 	muleq	r0, pc, r8	; <UNPREDICTABLE>
    25c8:	0000b400 	andeq	fp, r0, r0, lsl #8
    25cc:	51000100 	mrspl	r0, (UNDEF: 16)
    25d0:	000000b4 	strheq	r0, [r0], -r4
    25d4:	000000b8 	strheq	r0, [r0], -r8
    25d8:	10730003 	rsbsne	r0, r3, r3
    25dc:	0000b89f 	muleq	r0, pc, r8	; <UNPREDICTABLE>
    25e0:	0000c400 	andeq	ip, r0, r0, lsl #8
    25e4:	51000100 	mrspl	r0, (UNDEF: 16)
    25e8:	000000c4 	andeq	r0, r0, r4, asr #1
    25ec:	000000c8 	andeq	r0, r0, r8, asr #1
    25f0:	14730003 	ldrbtne	r0, [r3], #-3
    25f4:	0000c89f 	muleq	r0, pc, r8	; <UNPREDICTABLE>
    25f8:	0000d000 	andeq	sp, r0, r0
    25fc:	51000100 	mrspl	r0, (UNDEF: 16)
    2600:	000000d0 	ldrdeq	r0, [r0], -r0	; <UNPREDICTABLE>
    2604:	000000d4 	ldrdeq	r0, [r0], -r4
    2608:	04710003 	ldrbteq	r0, [r1], #-3
    260c:	0000009f 	muleq	r0, pc, r0	; <UNPREDICTABLE>
    2610:	00000000 	andeq	r0, r0, r0
    2614:	d8000200 	stmdale	r0, {r9}
    2618:	e8000000 	stmda	r0, {}	; <UNPREDICTABLE>
    261c:	02000000 	andeq	r0, r0, #0, 0
    2620:	009f3100 	addseq	r3, pc, r0, lsl #2
    2624:	00000000 	andeq	r0, r0, r0
    2628:	04000000 	streq	r0, [r0], #-0
    262c:	68010000 	stmdavs	r1, {}	; <UNPREDICTABLE>
    2630:	70000097 	mulvc	r0, r7, r0
    2634:	02000097 	andeq	r0, r0, #151, 0	; 0x97
    2638:	709f3000 	addsvc	r3, pc, r0
    263c:	70000097 	mulvc	r0, r7, r0
    2640:	01000097 	swpeq	r0, r7, [r0]	; <UNPREDICTABLE>
    2644:	00005300 	andeq	r5, r0, r0, lsl #6
    2648:	00000000 	andeq	r0, r0, r0
    264c:	00030000 	andeq	r0, r3, r0
    2650:	00000000 	andeq	r0, r0, r0
    2654:	977c0000 	ldrbls	r0, [ip, -r0]!
    2658:	97800000 	strls	r0, [r0, r0]
    265c:	00020000 	andeq	r0, r2, r0
    2660:	97809f30 			; <UNDEFINED> instruction: 0x97809f30
    2664:	97840000 	strls	r0, [r4, r0]
    2668:	00010000 	andeq	r0, r1, r0
    266c:	00978453 	addseq	r8, r7, r3, asr r4
    2670:	00978800 	addseq	r8, r7, r0, lsl #16
    2674:	73000500 	movwvc	r0, #1280	; 0x500
    2678:	9f214000 	svcls	0x00214000
    267c:	00009788 	andeq	r9, r0, r8, lsl #15
    2680:	0000978c 	andeq	r9, r0, ip, lsl #15
    2684:	00530001 	subseq	r0, r3, r1
    2688:	00000000 	andeq	r0, r0, r0
    268c:	02000000 	andeq	r0, r0, #0, 0
    2690:	3c000000 	stccc	0, cr0, [r0], {-0}
    2694:	40000097 	mulmi	r0, r7, r0
    2698:	02000097 	andeq	r0, r0, #151, 0	; 0x97
    269c:	409f3000 	addsmi	r3, pc, r0
    26a0:	44000097 	strmi	r0, [r0], #-151	; 0xffffff69
    26a4:	01000097 	swpeq	r0, r7, [r0]	; <UNPREDICTABLE>
    26a8:	00005000 	andeq	r5, r0, r0
    26ac:	00000000 	andeq	r0, r0, r0
    26b0:	00020000 	andeq	r0, r2, r0
    26b4:	00000000 	andeq	r0, r0, r0
    26b8:	97540000 	ldrbls	r0, [r4, -r0]
    26bc:	97580000 	ldrbls	r0, [r8, -r0]
    26c0:	00020000 	andeq	r0, r2, r0
    26c4:	97589f30 	smmlarls	r8, r0, pc, r9	; <UNPREDICTABLE>
    26c8:	975c0000 	ldrbls	r0, [ip, -r0]
    26cc:	00010000 	andeq	r0, r1, r0
    26d0:	00975c53 	addseq	r5, r7, r3, asr ip
    26d4:	00976000 	addseq	r6, r7, r0
    26d8:	73000500 	movwvc	r0, #1280	; 0x500
    26dc:	9f214000 	svcls	0x00214000
    26e0:	00009760 	andeq	r9, r0, r0, ror #14
    26e4:	00009768 	andeq	r9, r0, r8, ror #14
    26e8:	00530001 	subseq	r0, r3, r1
	...
    26f4:	c8000000 	stmdagt	r0, {}	; <UNPREDICTABLE>
    26f8:	d8000000 	stmdale	r0, {}	; <UNPREDICTABLE>
    26fc:	01000000 	mrseq	r0, (UNDEF: 0)
    2700:	00d85000 	sbcseq	r5, r8, r0
    2704:	011c0000 	tsteq	ip, r0
    2708:	00040000 	andeq	r0, r4, r0
    270c:	9f5001f3 	svcls	0x005001f3
	...
    2718:	00000002 	andeq	r0, r0, r2
    271c:	000000c8 	andeq	r0, r0, r8, asr #1
    2720:	000000d8 	ldrdeq	r0, [r0], -r8
    2724:	00700007 	rsbseq	r0, r0, r7
    2728:	1e03e80a 	cdpne	8, 0, cr14, cr3, cr10, {0}
    272c:	0000d89f 	muleq	r0, pc, r8	; <UNPREDICTABLE>
    2730:	00011c00 	andeq	r1, r1, r0, lsl #24
    2734:	f3000800 	vsub.i8	d0, d0, d0
    2738:	e80a5001 	stmda	sl, {r0, ip, lr}
    273c:	009f1e03 	addseq	r1, pc, r3, lsl #28
	...
    2748:	0000dc00 	andeq	sp, r0, r0, lsl #24
    274c:	00011c00 	andeq	r1, r1, r0, lsl #24
    2750:	54000100 	strpl	r0, [r0], #-256	; 0xffffff00
	...
    275c:	00f00001 	rscseq	r0, r0, r1
    2760:	011c0000 	tsteq	ip, r0
    2764:	00010000 	andeq	r0, r1, r0
    2768:	00000056 	andeq	r0, r0, r6, asr r0
	...
    2774:	0000ec00 	andeq	lr, r0, r0, lsl #24
    2778:	0000ef00 	andeq	lr, r0, r0, lsl #30
    277c:	50000100 	andpl	r0, r0, r0, lsl #2
    2780:	000000ef 	andeq	r0, r0, pc, ror #1
    2784:	0000011c 	andeq	r0, r0, ip, lsl r1
    2788:	00560001 	subseq	r0, r6, r1
	...
    2794:	00010400 	andeq	r0, r1, r0, lsl #8
    2798:	00010b00 	andeq	r0, r1, r0, lsl #22
    279c:	50000100 	andpl	r0, r0, r0, lsl #2
	...
    27ac:	00000020 	andeq	r0, r0, r0, lsr #32
    27b0:	00000023 	andeq	r0, r0, r3, lsr #32
    27b4:	23500001 	cmpcs	r0, #1, 0
    27b8:	30000000 	andcc	r0, r0, r0
    27bc:	01000000 	mrseq	r0, (UNDEF: 0)
    27c0:	00005400 	andeq	r5, r0, r0, lsl #8
	...
    27cc:	00300000 	eorseq	r0, r0, r0
    27d0:	003b0000 	eorseq	r0, fp, r0
    27d4:	00010000 	andeq	r0, r1, r0
    27d8:	00003b50 	andeq	r3, r0, r0, asr fp
    27dc:	00007800 	andeq	r7, r0, r0, lsl #16
    27e0:	56000100 	strpl	r0, [r0], -r0, lsl #2
	...
    27ec:	004c0001 	subeq	r0, ip, r1
    27f0:	00780000 	rsbseq	r0, r8, r0
    27f4:	00010000 	andeq	r0, r1, r0
    27f8:	00000055 	andeq	r0, r0, r5, asr r0
	...
    2804:	00004800 	andeq	r4, r0, r0, lsl #16
    2808:	00004b00 	andeq	r4, r0, r0, lsl #22
    280c:	50000100 	andpl	r0, r0, r0, lsl #2
    2810:	0000004b 	andeq	r0, r0, fp, asr #32
    2814:	00000078 	andeq	r0, r0, r8, ror r0
    2818:	00550001 	subseq	r0, r5, r1
	...
    2824:	00006000 	andeq	r6, r0, r0
    2828:	00006700 	andeq	r6, r0, r0, lsl #14
    282c:	50000100 	andpl	r0, r0, r0, lsl #2
	...
    283c:	00000078 	andeq	r0, r0, r8, ror r0
    2840:	00000084 	andeq	r0, r0, r4, lsl #1
    2844:	84500001 	ldrbhi	r0, [r0], #-1
    2848:	c8000000 	stmdagt	r0, {}	; <UNPREDICTABLE>
    284c:	04000000 	streq	r0, [r0], #-0
    2850:	5001f300 	andpl	pc, r1, r0, lsl #6
    2854:	0000009f 	muleq	r0, pc, r0	; <UNPREDICTABLE>
    2858:	00000000 	andeq	r0, r0, r0
    285c:	88000000 	stmdahi	r0, {}	; <UNPREDICTABLE>
    2860:	c8000000 	stmdagt	r0, {}	; <UNPREDICTABLE>
    2864:	01000000 	mrseq	r0, (UNDEF: 0)
    2868:	00005400 	andeq	r5, r0, r0, lsl #8
    286c:	00000000 	andeq	r0, r0, r0
    2870:	00010000 	andeq	r0, r1, r0
    2874:	0000009c 	muleq	r0, ip, r0
    2878:	000000c8 	andeq	r0, r0, r8, asr #1
    287c:	00560001 	subseq	r0, r6, r1
	...
    2888:	98000000 	stmdals	r0, {}	; <UNPREDICTABLE>
    288c:	9b000000 	blls	2894 <__code_start__-0x576c>
    2890:	01000000 	mrseq	r0, (UNDEF: 0)
    2894:	009b5000 	addseq	r5, fp, r0
    2898:	00c80000 	sbceq	r0, r8, r0
    289c:	00010000 	andeq	r0, r1, r0
    28a0:	00000056 	andeq	r0, r0, r6, asr r0
    28a4:	00000000 	andeq	r0, r0, r0
    28a8:	b0000000 	andlt	r0, r0, r0
    28ac:	b7000000 	strlt	r0, [r0, -r0]
    28b0:	01000000 	mrseq	r0, (UNDEF: 0)
    28b4:	00005000 	andeq	r5, r0, r0
	...
    28c0:	01580000 	cmpeq	r8, r0
    28c4:	01630000 	cmneq	r3, r0
    28c8:	00010000 	andeq	r0, r1, r0
    28cc:	00016350 	andeq	r6, r1, r0, asr r3
    28d0:	00018800 	andeq	r8, r1, r0, lsl #16
    28d4:	54000100 	strpl	r0, [r0], #-256	; 0xffffff00
	...
    28e0:	01480000 	mrseq	r0, (UNDEF: 72)
    28e4:	01580000 	cmpeq	r8, r0
    28e8:	00010000 	andeq	r0, r1, r0
    28ec:	00000054 	andeq	r0, r0, r4, asr r0
	...
    28fc:	00000f00 	andeq	r0, r0, r0, lsl #30
    2900:	50000100 	andpl	r0, r0, r0, lsl #2
    2904:	0000000f 	andeq	r0, r0, pc
    2908:	00000020 	andeq	r0, r0, r0, lsr #32
    290c:	00540001 	subseq	r0, r4, r1
	...
    291c:	0f000000 	svceq	0x00000000
    2920:	01000000 	mrseq	r0, (UNDEF: 0)
    2924:	000f5100 	andeq	r5, pc, r0, lsl #2
    2928:	00200000 	eoreq	r0, r0, r0
    292c:	00010000 	andeq	r0, r1, r0
    2930:	00000055 	andeq	r0, r0, r5, asr r0
	...
    293c:	00002000 	andeq	r2, r0, r0
    2940:	00002f00 	andeq	r2, r0, r0, lsl #30
    2944:	50000100 	andpl	r0, r0, r0, lsl #2
    2948:	0000002f 	andeq	r0, r0, pc, lsr #32
    294c:	00000040 	andeq	r0, r0, r0, asr #32
    2950:	00540001 	subseq	r0, r4, r1
	...
    295c:	20000000 	andcs	r0, r0, r0
    2960:	2f000000 	svccs	0x00000000
    2964:	01000000 	mrseq	r0, (UNDEF: 0)
    2968:	002f5100 	eoreq	r5, pc, r0, lsl #2
    296c:	00400000 	subeq	r0, r0, r0
    2970:	00010000 	andeq	r0, r1, r0
    2974:	00000055 	andeq	r0, r0, r5, asr r0
	...
    2980:	50000000 	andpl	r0, r0, r0
    2984:	98000003 	stmdals	r0, {r0, r1}
    2988:	01000003 	tsteq	r0, r3
    298c:	03985000 	orrseq	r5, r8, #0, 0
    2990:	039b0000 	orrseq	r0, fp, #0, 0
    2994:	00020000 	andeq	r0, r2, r0
    2998:	039b6891 	orrseq	r6, fp, #9502720	; 0x910000
    299c:	03b00000 	movseq	r0, #0, 0
    29a0:	00040000 	andeq	r0, r4, r0
    29a4:	9f5001f3 	svcls	0x005001f3
	...
    29c4:	00000220 	andeq	r0, r0, r0, lsr #4
    29c8:	0000027b 	andeq	r0, r0, fp, ror r2
    29cc:	7b500001 	blvc	14029d8 <__bss_end__+0x13f7b58>
    29d0:	84000002 	strhi	r0, [r0], #-2
    29d4:	04000002 	streq	r0, [r0], #-2
    29d8:	5001f300 	andpl	pc, r1, r0, lsl #6
    29dc:	0002849f 	muleq	r2, pc, r4	; <UNPREDICTABLE>
    29e0:	00029c00 	andeq	r9, r2, r0, lsl #24
    29e4:	50000100 	andpl	r0, r0, r0, lsl #2
    29e8:	0000029c 	muleq	r0, ip, r2
    29ec:	000002a4 	andeq	r0, r0, r4, lsr #5
    29f0:	01f30004 	mvnseq	r0, r4
    29f4:	02a49f50 	adceq	r9, r4, #80, 30	; 0x140
    29f8:	02a70000 	adceq	r0, r7, #0, 0
    29fc:	00010000 	andeq	r0, r1, r0
    2a00:	0002a750 	andeq	sl, r2, r0, asr r7
    2a04:	0002c800 	andeq	ip, r2, r0, lsl #16
    2a08:	f3000400 	vshl.u8	d0, d0, d0
    2a0c:	c89f5001 	ldmgt	pc, {r0, ip, lr}	; <UNPREDICTABLE>
    2a10:	e0000002 	and	r0, r0, r2
    2a14:	01000002 	tsteq	r0, r2
    2a18:	02e05000 	rsceq	r5, r0, #0, 0
    2a1c:	02e80000 	rsceq	r0, r8, #0, 0
    2a20:	00040000 	andeq	r0, r4, r0
    2a24:	9f5001f3 	svcls	0x005001f3
    2a28:	000002e8 	andeq	r0, r0, r8, ror #5
    2a2c:	000002eb 	andeq	r0, r0, fp, ror #5
    2a30:	eb500001 	bl	1402a3c <__bss_end__+0x13f7bbc>
    2a34:	38000002 	stmdacc	r0, {r1}
    2a38:	04000003 	streq	r0, [r0], #-3
    2a3c:	5001f300 	andpl	pc, r1, r0, lsl #6
    2a40:	0000009f 	muleq	r0, pc, r0	; <UNPREDICTABLE>
	...
    2a5c:	00022000 	andeq	r2, r2, r0
    2a60:	00024400 	andeq	r4, r2, r0, lsl #8
    2a64:	51000100 	mrspl	r0, (UNDEF: 16)
    2a68:	00000244 	andeq	r0, r0, r4, asr #4
    2a6c:	00000268 	andeq	r0, r0, r8, ror #4
    2a70:	68510001 	ldmdavs	r1, {r0}^
    2a74:	7b000002 	blvc	2a84 <__code_start__-0x557c>
    2a78:	03000002 	movweq	r0, #2
    2a7c:	9f017100 	svcls	0x00017100
    2a80:	0000027b 	andeq	r0, r0, fp, ror r2
    2a84:	00000284 	andeq	r0, r0, r4, lsl #5
    2a88:	f3380017 	vqadd.u64	d0, d8, d7
    2a8c:	01f35101 	mvnseq	r5, r1, lsl #2
    2a90:	244b4051 	strbcs	r4, [fp], #-81	; 0xffffffaf
    2a94:	00080c22 	andeq	r0, r8, r2, lsr #24
    2a98:	282d8000 	stmdacs	sp!, {pc}
    2a9c:	13160001 	tstne	r6, #1, 0
    2aa0:	0002849f 	muleq	r2, pc, r4	; <UNPREDICTABLE>
    2aa4:	00029800 	andeq	r9, r2, r0, lsl #16
    2aa8:	51000100 	mrspl	r0, (UNDEF: 16)
    2aac:	00000298 	muleq	r0, r8, r2
    2ab0:	000002a4 	andeq	r0, r0, r4, lsr #5
    2ab4:	01f30004 	mvnseq	r0, r4
    2ab8:	02a49f51 	adceq	r9, r4, #324	; 0x144
    2abc:	02a70000 	adceq	r0, r7, #0, 0
    2ac0:	00010000 	andeq	r0, r1, r0
    2ac4:	0002a751 	andeq	sl, r2, r1, asr r7
    2ac8:	0002c800 	andeq	ip, r2, r0, lsl #16
    2acc:	f3000400 	vshl.u8	d0, d0, d0
    2ad0:	c89f5101 	ldmgt	pc, {r0, r8, ip, lr}	; <UNPREDICTABLE>
    2ad4:	dc000002 	stcle	0, cr0, [r0], {2}
    2ad8:	01000002 	tsteq	r0, r2
    2adc:	02dc5100 	sbcseq	r5, ip, #0
    2ae0:	03380000 	teqeq	r8, #0, 0
    2ae4:	00170000 	andseq	r0, r7, r0
    2ae8:	5101f338 	tstpl	r1, r8, lsr r3	; <UNPREDICTABLE>
    2aec:	405101f3 	ldrshmi	r0, [r1], #-19	; 0xffffffed
    2af0:	0c22244b 	cfstrseq	mvf2, [r2], #-300	; 0xfffffed4
    2af4:	80000008 	andhi	r0, r0, r8
    2af8:	0001282d 	andeq	r2, r1, sp, lsr #16
    2afc:	009f1316 	addseq	r1, pc, r6, lsl r3	; <UNPREDICTABLE>
	...
    2b10:	4c000000 	stcmi	0, cr0, [r0], {-0}
    2b14:	5c000002 	stcpl	0, cr0, [r0], {2}
    2b18:	01000002 	tsteq	r0, r2
    2b1c:	025c5200 	subseq	r5, ip, #0, 4
    2b20:	02640000 	rsbeq	r0, r4, #0, 0
    2b24:	00050000 	andeq	r0, r5, r0
    2b28:	00aa4003 	adceq	r4, sl, r3
    2b2c:	00026400 	andeq	r6, r2, r0, lsl #8
    2b30:	00027b00 	andeq	r7, r2, r0, lsl #22
    2b34:	53000100 	movwpl	r0, #256	; 0x100
    2b38:	000002c8 	andeq	r0, r0, r8, asr #5
    2b3c:	000002d8 	ldrdeq	r0, [r0], -r8
    2b40:	d8520001 	ldmdale	r2, {r0}^
    2b44:	e3000002 	movw	r0, #2
    2b48:	05000002 	streq	r0, [r0, #-2]
    2b4c:	aa400300 	bge	1003754 <__bss_end__+0xff88d4>
    2b50:	02e80000 	rsceq	r0, r8, #0, 0
    2b54:	02eb0000 	rsceq	r0, fp, #0, 0
    2b58:	00010000 	andeq	r0, r1, r0
    2b5c:	00000053 	andeq	r0, r0, r3, asr r0
    2b60:	00000000 	andeq	r0, r0, r0
    2b64:	30000400 	andcc	r0, r0, r0, lsl #8
    2b68:	34000002 	strcc	r0, [r0], #-2
    2b6c:	01000002 	tsteq	r0, r2
    2b70:	00005100 	andeq	r5, r0, r0, lsl #2
    2b74:	00000000 	andeq	r0, r0, r0
    2b78:	00020000 	andeq	r0, r2, r0
    2b7c:	0000023c 	andeq	r0, r0, ip, lsr r2
    2b80:	00000244 	andeq	r0, r0, r4, asr #4
    2b84:	9f380002 	svcls	0x00380002
	...
    2b90:	023c0002 	eorseq	r0, ip, #2, 0
    2b94:	02440000 	subeq	r0, r4, #0, 0
    2b98:	00010000 	andeq	r0, r1, r0
    2b9c:	00000051 	andeq	r0, r0, r1, asr r0
    2ba0:	00000000 	andeq	r0, r0, r0
    2ba4:	00000100 	andeq	r0, r0, r0, lsl #2
    2ba8:	4c000000 	stcmi	0, cr0, [r0], {-0}
    2bac:	64000002 	strvs	r0, [r0], #-2
    2bb0:	01000002 	tsteq	r0, r2
    2bb4:	02c85100 	sbceq	r5, r8, #0
    2bb8:	02dc0000 	sbcseq	r0, ip, #0, 0
    2bbc:	00010000 	andeq	r0, r1, r0
    2bc0:	0002dc51 	andeq	sp, r2, r1, asr ip
    2bc4:	0002e800 	andeq	lr, r2, r0, lsl #16
    2bc8:	38001700 	stmdacc	r0, {r8, r9, sl, ip}
    2bcc:	f35101f3 	vbsl	q8, <illegal reg q8.5>, <illegal reg q9.5>
    2bd0:	4b405101 	blmi	1016fdc <__bss_end__+0x100c15c>
    2bd4:	080c2224 	stmdaeq	ip, {r2, r5, r9, sp}
    2bd8:	2d800000 	stccs	0, cr0, [r0]
    2bdc:	16000128 	strne	r0, [r0], -r8, lsr #2
    2be0:	00009f13 	andeq	r9, r0, r3, lsl pc
    2be4:	00000000 	andeq	r0, r0, r0
    2be8:	00010000 	andeq	r0, r1, r0
    2bec:	00000000 	andeq	r0, r0, r0
    2bf0:	024c0000 	subeq	r0, ip, #0, 0
    2bf4:	025c0000 	subseq	r0, ip, #0, 0
    2bf8:	00010000 	andeq	r0, r1, r0
    2bfc:	00025c52 	andeq	r5, r2, r2, asr ip
    2c00:	00026400 	andeq	r6, r2, r0, lsl #8
    2c04:	03000500 	movweq	r0, #1280	; 0x500
    2c08:	0000aa40 	andeq	sl, r0, r0, asr #20
    2c0c:	000002c8 	andeq	r0, r0, r8, asr #5
    2c10:	000002d8 	ldrdeq	r0, [r0], -r8
    2c14:	d8520001 	ldmdale	r2, {r0}^
    2c18:	e3000002 	movw	r0, #2
    2c1c:	05000002 	streq	r0, [r0, #-2]
    2c20:	aa400300 	bge	1003828 <__bss_end__+0xff89a8>
	...
    2c2c:	00040000 	andeq	r0, r4, r0
    2c30:	0000024c 	andeq	r0, r0, ip, asr #4
    2c34:	00000250 	andeq	r0, r0, r0, asr r2
    2c38:	00510001 	subseq	r0, r1, r1
    2c3c:	00000000 	andeq	r0, r0, r0
    2c40:	03000000 	movweq	r0, #0
    2c44:	00026400 	andeq	r6, r2, r0, lsl #8
    2c48:	00026800 	andeq	r6, r2, r0, lsl #16
    2c4c:	51000100 	mrspl	r0, (UNDEF: 16)
	...
    2c58:	02640003 	rsbeq	r0, r4, #3, 0
    2c5c:	02680000 	rsbeq	r0, r8, #0, 0
    2c60:	00010000 	andeq	r0, r1, r0
    2c64:	00000053 	andeq	r0, r0, r3, asr r0
	...
    2c74:	0001bc00 	andeq	fp, r1, r0, lsl #24
    2c78:	0001d300 	andeq	sp, r1, r0, lsl #6
    2c7c:	50000100 	andpl	r0, r0, r0, lsl #2
    2c80:	000001d3 	ldrdeq	r0, [r0], -r3
    2c84:	000001f0 	strdeq	r0, [r0], -r0	; <UNPREDICTABLE>
    2c88:	f0540001 			; <UNDEFINED> instruction: 0xf0540001
    2c8c:	08000001 	stmdaeq	r0, {r0}
    2c90:	01000002 	tsteq	r0, r2
    2c94:	02085000 	andeq	r5, r8, #0, 0
    2c98:	02200000 	eoreq	r0, r0, #0, 0
    2c9c:	00010000 	andeq	r0, r1, r0
    2ca0:	00000054 	andeq	r0, r0, r4, asr r0
	...
    2cac:	0001d800 	andeq	sp, r1, r0, lsl #16
    2cb0:	0001e300 	andeq	lr, r1, r0, lsl #6
    2cb4:	50000100 	andpl	r0, r0, r0, lsl #2
    2cb8:	000001e3 	andeq	r0, r0, r3, ror #3
    2cbc:	000001f0 	strdeq	r0, [r0], -r0	; <UNPREDICTABLE>
    2cc0:	00550001 	subseq	r0, r5, r1
	...
    2cd8:	24000000 	strcs	r0, [r0], #-0
    2cdc:	38000001 	stmdacc	r0, {r0}
    2ce0:	01000001 	tsteq	r0, r1
    2ce4:	01385000 	teqeq	r8, r0
    2ce8:	013c0000 	teqeq	ip, r0
    2cec:	00030000 	andeq	r0, r3, r0
    2cf0:	3c9f7970 			; <UNDEFINED> instruction: 0x3c9f7970
    2cf4:	60000001 	andvs	r0, r0, r1
    2cf8:	01000001 	tsteq	r0, r1
    2cfc:	01605300 	cmneq	r0, r0, lsl #6
    2d00:	01780000 	cmneq	r8, r0
    2d04:	00010000 	andeq	r0, r1, r0
    2d08:	00017850 	andeq	r7, r1, r0, asr r8
    2d0c:	00018000 	andeq	r8, r1, r0
    2d10:	f3000400 	vshl.u8	d0, d0, d0
    2d14:	809f5001 	addshi	r5, pc, r1
    2d18:	90000001 	andls	r0, r0, r1
    2d1c:	01000001 	tsteq	r0, r1
    2d20:	01905300 	orrseq	r5, r0, r0, lsl #6
    2d24:	019f0000 	orrseq	r0, pc, r0
    2d28:	00020000 	andeq	r0, r2, r0
    2d2c:	019f6891 			; <UNDEFINED> instruction: 0x019f6891
    2d30:	01bc0000 			; <UNDEFINED> instruction: 0x01bc0000
    2d34:	00090000 	andeq	r0, r9, r0
    2d38:	235001f3 	cmpcs	r0, #-1073741764	; 0xc000003c
    2d3c:	1af80907 	bne	ffe05160 <__bss_end__+0xffdfa2e0>
    2d40:	0000009f 	muleq	r0, pc, r0	; <UNPREDICTABLE>
	...
    2d4c:	00014400 	andeq	r4, r1, r0, lsl #8
    2d50:	00016000 	andeq	r6, r1, r0
    2d54:	50000100 	andpl	r0, r0, r0, lsl #2
    2d58:	00000180 	andeq	r0, r0, r0, lsl #3
    2d5c:	0000019c 	muleq	r0, ip, r1
    2d60:	00500001 	subseq	r0, r0, r1
    2d64:	00000000 	andeq	r0, r0, r0
    2d68:	03000000 	movweq	r0, #0
    2d6c:	00013400 	andeq	r3, r1, r0, lsl #8
    2d70:	00013c00 	andeq	r3, r1, r0, lsl #24
    2d74:	38000200 	stmdacc	r0, {r9}
    2d78:	0000009f 	muleq	r0, pc, r0	; <UNPREDICTABLE>
    2d7c:	00000000 	andeq	r0, r0, r0
    2d80:	00000300 	andeq	r0, r0, r0, lsl #6
    2d84:	00013400 	andeq	r3, r1, r0, lsl #8
    2d88:	00013800 	andeq	r3, r1, r0, lsl #16
    2d8c:	50000100 	andpl	r0, r0, r0, lsl #2
    2d90:	00000138 	andeq	r0, r0, r8, lsr r1
    2d94:	0000013c 	andeq	r0, r0, ip, lsr r1
    2d98:	79700003 	ldmdbvc	r0!, {r0, r1}^
    2d9c:	0000009f 	muleq	r0, pc, r0	; <UNPREDICTABLE>
	...
    2db0:	30000000 	andcc	r0, r0, r0
    2db4:	60000000 	andvs	r0, r0, r0
    2db8:	01000000 	mrseq	r0, (UNDEF: 0)
    2dbc:	00605000 	rsbeq	r5, r0, r0
    2dc0:	006c0000 	rsbeq	r0, ip, r0
    2dc4:	00050000 	andeq	r0, r5, r0
    2dc8:	00aa4003 	adceq	r4, sl, r3
    2dcc:	00006c00 	andeq	r6, r0, r0, lsl #24
    2dd0:	00008400 	andeq	r8, r0, r0, lsl #8
    2dd4:	50000100 	andpl	r0, r0, r0, lsl #2
    2dd8:	00000084 	andeq	r0, r0, r4, lsl #1
    2ddc:	0000008c 	andeq	r0, r0, ip, lsl #1
    2de0:	01f30004 	mvnseq	r0, r4
    2de4:	008c9f50 	addeq	r9, ip, r0, asr pc
    2de8:	00ac0000 	adceq	r0, ip, r0
    2dec:	00010000 	andeq	r0, r1, r0
    2df0:	0000ac50 	andeq	sl, r0, r0, asr ip
    2df4:	0000af00 	andeq	sl, r0, r0, lsl #30
    2df8:	91000200 	mrsls	r0, R8_usr
    2dfc:	0000af68 	andeq	sl, r0, r8, ror #30
    2e00:	0000cc00 	andeq	ip, r0, r0, lsl #24
    2e04:	f3000400 	vshl.u8	d0, d0, d0
    2e08:	009f5001 	addseq	r5, pc, r1
	...
    2e18:	30000000 	andcc	r0, r0, r0
    2e1c:	80000000 	andhi	r0, r0, r0
    2e20:	01000000 	mrseq	r0, (UNDEF: 0)
    2e24:	00805100 	addeq	r5, r0, r0, lsl #2
    2e28:	008c0000 	addeq	r0, ip, r0
    2e2c:	00040000 	andeq	r0, r4, r0
    2e30:	9f5101f3 	svcls	0x005101f3
    2e34:	0000008c 	andeq	r0, r0, ip, lsl #1
    2e38:	000000a8 	andeq	r0, r0, r8, lsr #1
    2e3c:	a8510001 	ldmdage	r1, {r0}^
    2e40:	cc000000 	stcgt	0, cr0, [r0], {-0}
    2e44:	04000000 	streq	r0, [r0], #-0
    2e48:	5101f300 	mrspl	pc, SP_irq	; <UNPREDICTABLE>
    2e4c:	0000009f 	muleq	r0, pc, r0	; <UNPREDICTABLE>
    2e50:	00000000 	andeq	r0, r0, r0
    2e54:	00000100 	andeq	r0, r0, r0, lsl #2
	...
    2e60:	38000000 	stmdacc	r0, {}	; <UNPREDICTABLE>
    2e64:	60000000 	andvs	r0, r0, r0
    2e68:	01000000 	mrseq	r0, (UNDEF: 0)
    2e6c:	00605000 	rsbeq	r5, r0, r0
    2e70:	006c0000 	rsbeq	r0, ip, r0
    2e74:	00050000 	andeq	r0, r5, r0
    2e78:	00aa4003 	adceq	r4, sl, r3
    2e7c:	00006c00 	andeq	r6, r0, r0, lsl #24
    2e80:	00008400 	andeq	r8, r0, r0, lsl #8
    2e84:	50000100 	andpl	r0, r0, r0, lsl #2
    2e88:	00000084 	andeq	r0, r0, r4, lsl #1
    2e8c:	0000008c 	andeq	r0, r0, ip, lsl #1
    2e90:	01f30004 	mvnseq	r0, r4
    2e94:	008c9f50 	addeq	r9, ip, r0, asr pc
    2e98:	00ac0000 	adceq	r0, ip, r0
    2e9c:	00010000 	andeq	r0, r1, r0
    2ea0:	0000ac50 	andeq	sl, r0, r0, asr ip
    2ea4:	0000af00 	andeq	sl, r0, r0, lsl #30
    2ea8:	91000200 	mrsls	r0, R8_usr
    2eac:	0000af68 	andeq	sl, r0, r8, ror #30
    2eb0:	0000cc00 	andeq	ip, r0, r0, lsl #24
    2eb4:	f3000400 	vshl.u8	d0, d0, d0
    2eb8:	009f5001 	addseq	r5, pc, r1
	...
    2ec8:	00017000 	andeq	r7, r1, r0
    2ecc:	00017c00 	andeq	r7, r1, r0, lsl #24
    2ed0:	50000100 	andpl	r0, r0, r0, lsl #2
    2ed4:	0000017c 	andeq	r0, r0, ip, ror r1
    2ed8:	00000188 	andeq	r0, r0, r8, lsl #3
    2edc:	88540001 	ldmdahi	r4, {r0}^
    2ee0:	98000001 	stmdals	r0, {r0}
    2ee4:	04000001 	streq	r0, [r0], #-1
    2ee8:	5001f300 	andpl	pc, r1, r0, lsl #6
    2eec:	0000009f 	muleq	r0, pc, r0	; <UNPREDICTABLE>
	...
    2efc:	78000000 	stmdavc	r0, {}	; <UNPREDICTABLE>
    2f00:	7c000001 	stcvc	0, cr0, [r0], {1}
    2f04:	0b000001 	bleq	2f10 <__code_start__-0x50f0>
    2f08:	35007000 	strcc	r7, [r0, #-0]
    2f0c:	80b42325 	adcshi	r2, r4, r5, lsr #6
    2f10:	9f028180 	svcls	0x00028180
    2f14:	0000017c 	andeq	r0, r0, ip, ror r1
    2f18:	00000180 	andeq	r0, r0, r0, lsl #3
    2f1c:	0074000b 	rsbseq	r0, r4, fp
    2f20:	b4232535 	strtlt	r2, [r3], #-1333	; 0xfffffacb
    2f24:	02818080 	addeq	r8, r1, #128, 0	; 0x80
    2f28:	0001809f 	muleq	r1, pc, r0	; <UNPREDICTABLE>
    2f2c:	00018300 	andeq	r8, r1, r0, lsl #6
    2f30:	50000100 	andpl	r0, r0, r0, lsl #2
    2f34:	00000183 	andeq	r0, r0, r3, lsl #3
    2f38:	00000188 	andeq	r0, r0, r8, lsl #3
    2f3c:	0074000b 	rsbseq	r0, r4, fp
    2f40:	b4232535 	strtlt	r2, [r3], #-1333	; 0xfffffacb
    2f44:	02818080 	addeq	r8, r1, #128, 0	; 0x80
    2f48:	0001889f 	muleq	r1, pc, r8	; <UNPREDICTABLE>
    2f4c:	00019800 	andeq	r9, r1, r0, lsl #16
    2f50:	f3000c00 			; <UNDEFINED> instruction: 0xf3000c00
    2f54:	25355001 	ldrcs	r5, [r5, #-1]!
    2f58:	8080b423 	addhi	fp, r0, r3, lsr #8
    2f5c:	009f0281 	addseq	r0, pc, r1, lsl #5
    2f60:	00000000 	andeq	r0, r0, r0
    2f64:	01000000 	mrseq	r0, (UNDEF: 0)
    2f68:	00000000 	andeq	r0, r0, r0
    2f6c:	00017800 	andeq	r7, r1, r0, lsl #16
    2f70:	00017c00 	andeq	r7, r1, r0, lsl #24
    2f74:	70000500 	andvc	r0, r0, r0, lsl #10
    2f78:	9f1a4f00 	svcls	0x001a4f00
    2f7c:	0000017c 	andeq	r0, r0, ip, ror r1
    2f80:	00000188 	andeq	r0, r0, r8, lsl #3
    2f84:	00740005 	rsbseq	r0, r4, r5
    2f88:	889f1a4f 	ldmhi	pc, {r0, r1, r2, r3, r6, r9, fp, ip}	; <UNPREDICTABLE>
    2f8c:	98000001 	stmdals	r0, {r0}
    2f90:	01000001 	tsteq	r0, r1
    2f94:	00005400 	andeq	r5, r0, r0, lsl #8
	...
    2fa8:	01400000 	mrseq	r0, (UNDEF: 64)
    2fac:	01540000 	cmpeq	r4, r0
    2fb0:	00010000 	andeq	r0, r1, r0
    2fb4:	00015450 	andeq	r5, r1, r0, asr r4
    2fb8:	00015800 	andeq	r5, r1, r0, lsl #16
    2fbc:	51000100 	mrspl	r0, (UNDEF: 16)
    2fc0:	00000158 	andeq	r0, r0, r8, asr r1
    2fc4:	0000015c 	andeq	r0, r0, ip, asr r1
    2fc8:	01f30004 	mvnseq	r0, r4
    2fcc:	015c9f50 	cmpeq	ip, r0, asr pc
    2fd0:	01600000 	cmneq	r0, r0
    2fd4:	00010000 	andeq	r0, r1, r0
    2fd8:	00016050 	andeq	r6, r1, r0, asr r0
    2fdc:	00016400 	andeq	r6, r1, r0, lsl #8
    2fe0:	51000100 	mrspl	r0, (UNDEF: 16)
    2fe4:	00000164 	andeq	r0, r0, r4, ror #2
    2fe8:	00000170 	andeq	r0, r0, r0, ror r1
    2fec:	01f30004 	mvnseq	r0, r4
    2ff0:	00009f50 	andeq	r9, r0, r0, asr pc
	...
    2ffc:	01400000 	mrseq	r0, (UNDEF: 64)
    3000:	014c0000 	mrseq	r0, (UNDEF: 76)
    3004:	00010000 	andeq	r0, r1, r0
    3008:	00014c51 	andeq	r4, r1, r1, asr ip
    300c:	00017000 	andeq	r7, r1, r0
    3010:	f3000400 	vshl.u8	d0, d0, d0
    3014:	009f5101 	addseq	r5, pc, r1, lsl #2
    3018:	00000000 	andeq	r0, r0, r0
    301c:	01000000 	mrseq	r0, (UNDEF: 0)
    3020:	00000000 	andeq	r0, r0, r0
    3024:	00015000 	andeq	r5, r1, r0
    3028:	00015400 	andeq	r5, r1, r0, lsl #8
    302c:	50000100 	andpl	r0, r0, r0, lsl #2
    3030:	00000154 	andeq	r0, r0, r4, asr r1
    3034:	00000158 	andeq	r0, r0, r8, asr r1
    3038:	58510001 	ldmdapl	r1, {r0}^
    303c:	5c000001 	stcpl	0, cr0, [r0], {1}
    3040:	04000001 	streq	r0, [r0], #-1
    3044:	5001f300 	andpl	pc, r1, r0, lsl #6
    3048:	0000009f 	muleq	r0, pc, r0	; <UNPREDICTABLE>
    304c:	00000000 	andeq	r0, r0, r0
    3050:	00000200 	andeq	r0, r0, r0, lsl #4
    3054:	5c000000 	stcpl	0, cr0, [r0], {-0}
    3058:	60000001 	andvs	r0, r0, r1
    305c:	01000001 	tsteq	r0, r1
    3060:	01605000 	cmneq	r0, r0
    3064:	01640000 	cmneq	r4, r0
    3068:	00010000 	andeq	r0, r1, r0
    306c:	00016451 	andeq	r6, r1, r1, asr r4
    3070:	00017000 	andeq	r7, r1, r0
    3074:	f3000400 	vshl.u8	d0, d0, d0
    3078:	009f5001 	addseq	r5, pc, r1
	...
    3088:	0000e800 	andeq	lr, r0, r0, lsl #16
    308c:	00010800 	andeq	r0, r1, r0, lsl #16
    3090:	50000100 	andpl	r0, r0, r0, lsl #2
    3094:	00000108 	andeq	r0, r0, r8, lsl #2
    3098:	00000128 	andeq	r0, r0, r8, lsr #2
    309c:	28540001 	ldmdacs	r4, {r0}^
    30a0:	40000001 	andmi	r0, r0, r1
    30a4:	04000001 	streq	r0, [r0], #-1
    30a8:	5001f300 	andpl	pc, r1, r0, lsl #6
    30ac:	0000009f 	muleq	r0, pc, r0	; <UNPREDICTABLE>
    30b0:	00000000 	andeq	r0, r0, r0
    30b4:	00000200 	andeq	r0, r0, r0, lsl #4
    30b8:	e8000000 	stmda	r0, {}	; <UNPREDICTABLE>
    30bc:	08000000 	stmdaeq	r0, {}	; <UNPREDICTABLE>
    30c0:	01000001 	tsteq	r0, r1
    30c4:	01085000 	mrseq	r5, (UNDEF: 8)
    30c8:	01280000 			; <UNDEFINED> instruction: 0x01280000
    30cc:	00010000 	andeq	r0, r1, r0
    30d0:	00012854 	andeq	r2, r1, r4, asr r8
    30d4:	00014000 	andeq	r4, r1, r0
    30d8:	f3000400 	vshl.u8	d0, d0, d0
    30dc:	009f5001 	addseq	r5, pc, r1
	...
    30ec:	0000f000 	andeq	pc, r0, r0
    30f0:	00010800 	andeq	r0, r1, r0, lsl #16
    30f4:	50000100 	andpl	r0, r0, r0, lsl #2
    30f8:	00000108 	andeq	r0, r0, r8, lsl #2
    30fc:	00000128 	andeq	r0, r0, r8, lsr #2
    3100:	28540001 	ldmdacs	r4, {r0}^
    3104:	40000001 	andmi	r0, r0, r1
    3108:	04000001 	streq	r0, [r0], #-1
    310c:	5001f300 	andpl	pc, r1, r0, lsl #6
    3110:	0000009f 	muleq	r0, pc, r0	; <UNPREDICTABLE>
    3114:	00000000 	andeq	r0, r0, r0
    3118:	00000300 	andeq	r0, r0, r0, lsl #6
    311c:	f0000000 			; <UNDEFINED> instruction: 0xf0000000
    3120:	08000000 	stmdaeq	r0, {}	; <UNPREDICTABLE>
    3124:	07000001 	streq	r0, [r0, -r1]
    3128:	3a007000 	bcc	1f130 <__bss_end__+0x142b0>
    312c:	9f1e331d 	svcls	0x001e331d
    3130:	00000108 	andeq	r0, r0, r8, lsl #2
    3134:	00000128 	andeq	r0, r0, r8, lsr #2
    3138:	00740007 	rsbseq	r0, r4, r7
    313c:	1e331d3a 	mrcne	13, 1, r1, cr3, cr10, {1}
    3140:	0001289f 	muleq	r1, pc, r8	; <UNPREDICTABLE>
    3144:	00014000 	andeq	r4, r1, r0
    3148:	f3000800 	vsub.i8	d0, d0, d0
    314c:	1d3a5001 	ldcne	0, cr5, [sl, #-4]!
    3150:	009f1e33 	addseq	r1, pc, r3, lsr lr	; <UNPREDICTABLE>
	...
    3160:	00011000 	andeq	r1, r1, r0
    3164:	00013800 	andeq	r3, r1, r0, lsl #16
    3168:	56000100 	strpl	r0, [r0], -r0, lsl #2
    316c:	00000138 	andeq	r0, r0, r8, lsr r1
    3170:	0000013b 	andeq	r0, r0, fp, lsr r1
    3174:	3b500001 	blcc	1403180 <__bss_end__+0x13f8300>
    3178:	40000001 	andmi	r0, r0, r1
    317c:	26000001 	strcs	r0, [r0], -r1
    3180:	5001f300 	andpl	pc, r1, r0, lsl #6
    3184:	25f72cf7 	ldrbcs	r2, [r7, #3319]!	; 0xcf7
    3188:	cd0825f4 	cfstr32gt	mvfx2, [r8, #-976]	; 0xfffffc30
    318c:	00cccccc 	sbceq	ip, ip, ip, asr #25
    3190:	1e000000 	cdpne	0, 0, cr0, cr0, cr0, {0}
    3194:	25f72008 	ldrbcs	r2, [r7, #8]!
    3198:	f72cf725 			; <UNDEFINED> instruction: 0xf72cf725
    319c:	23253300 			; <UNDEFINED> instruction: 0x23253300
    31a0:	40a08080 	adcmi	r8, r0, r0, lsl #1
    31a4:	009f2432 	addseq	r2, pc, r2, lsr r4	; <UNPREDICTABLE>
	...
    31b0:	00000101 	andeq	r0, r0, r1, lsl #2
    31b4:	20000000 	andcs	r0, r0, r0
    31b8:	20000001 	andcs	r0, r0, r1
    31bc:	01000001 	tsteq	r0, r1
    31c0:	01205000 			; <UNDEFINED> instruction: 0x01205000
    31c4:	01280000 			; <UNDEFINED> instruction: 0x01280000
    31c8:	000d0000 	andeq	r0, sp, r0
    31cc:	3a007437 	bcc	202b0 <__bss_end__+0x15430>
    31d0:	241e331d 	ldrcs	r3, [lr], #-797	; 0xfffffce3
    31d4:	1a007020 	bne	1f25c <__bss_end__+0x143dc>
    31d8:	0001289f 	muleq	r1, pc, r8	; <UNPREDICTABLE>
    31dc:	00013000 	andeq	r3, r1, r0
    31e0:	37000e00 	strcc	r0, [r0, -r0, lsl #28]
    31e4:	3a5001f3 	bcc	14039b8 <__bss_end__+0x13f8b38>
    31e8:	241e331d 	ldrcs	r3, [lr], #-797	; 0xfffffce3
    31ec:	1a007020 	bne	1f274 <__bss_end__+0x143f4>
    31f0:	0001309f 	muleq	r1, pc, r0	; <UNPREDICTABLE>
    31f4:	00013b00 	andeq	r3, r1, r0, lsl #22
    31f8:	37000e00 	strcc	r0, [r0, -r0, lsl #28]
    31fc:	3a5001f3 	bcc	14039d0 <__bss_end__+0x13f8b50>
    3200:	241e331d 	ldrcs	r3, [lr], #-797	; 0xfffffce3
    3204:	1a007320 	bne	1fe8c <__bss_end__+0x1500c>
    3208:	0000009f 	muleq	r0, pc, r0	; <UNPREDICTABLE>
	...
    3214:	00006000 	andeq	r6, r0, r0
    3218:	00009000 	andeq	r9, r0, r0
    321c:	50000100 	andpl	r0, r0, r0, lsl #2
    3220:	00000090 	muleq	r0, r0, r0
    3224:	000000b8 	strheq	r0, [r0], -r8
    3228:	01f30004 	mvnseq	r0, r4
    322c:	00009f50 	andeq	r9, r0, r0, asr pc
    3230:	00000000 	andeq	r0, r0, r0
    3234:	00020000 	andeq	r0, r2, r0
    3238:	00600000 	rsbeq	r0, r0, r0
    323c:	00900000 	addseq	r0, r0, r0
    3240:	00010000 	andeq	r0, r1, r0
    3244:	00009050 	andeq	r9, r0, r0, asr r0
    3248:	0000b800 	andeq	fp, r0, r0, lsl #16
    324c:	f3000400 	vshl.u8	d0, d0, d0
    3250:	009f5001 	addseq	r5, pc, r1
	...
    325c:	68000000 	stmdavs	r0, {}	; <UNPREDICTABLE>
    3260:	90000000 	andls	r0, r0, r0
    3264:	01000000 	mrseq	r0, (UNDEF: 0)
    3268:	00905000 	addseq	r5, r0, r0
    326c:	00b80000 	adcseq	r0, r8, r0
    3270:	00040000 	andeq	r0, r4, r0
    3274:	9f5001f3 	svcls	0x005001f3
	...
    3284:	000000a0 	andeq	r0, r0, r0, lsr #1
    3288:	000000b0 	strheq	r0, [r0], -r0	; <UNPREDICTABLE>
    328c:	b0540001 	subslt	r0, r4, r1
    3290:	b8000000 	stmdalt	r0, {}	; <UNPREDICTABLE>
    3294:	29000000 	stmdbcs	r0, {}	; <UNPREDICTABLE>
    3298:	5001f300 	andpl	pc, r1, r0, lsl #6
    329c:	f75001f3 			; <UNDEFINED> instruction: 0xf75001f3
    32a0:	f425f72c 	vld1.8	{d15}, [r5 :128], ip
    32a4:	cccd0825 	stclgt	8, cr0, [sp], {37}	; 0x25
    32a8:	0000cccc 	andeq	ip, r0, ip, asr #25
    32ac:	081e0000 	ldmdaeq	lr, {}	; <UNPREDICTABLE>
    32b0:	2525f720 	strcs	pc, [r5, #-1824]!	; 0xfffff8e0
    32b4:	00f72cf7 	ldrshteq	r2, [r7], #199	; 0xc7
    32b8:	1e352533 	mrcne	5, 1, r2, cr5, cr3, {1}
    32bc:	331c2431 	tstcc	ip, #822083584	; 0x31000000
    32c0:	00009f1e 	andeq	r9, r0, lr, lsl pc
    32c4:	00000000 	andeq	r0, r0, r0
    32c8:	00010000 	andeq	r0, r1, r0
    32cc:	00000000 	andeq	r0, r0, r0
    32d0:	000000a0 	andeq	r0, r0, r0, lsr #1
    32d4:	000000b0 	strheq	r0, [r0], -r0	; <UNPREDICTABLE>
    32d8:	b0550001 	subslt	r0, r5, r1
    32dc:	b3000000 	movwlt	r0, #0
    32e0:	01000000 	mrseq	r0, (UNDEF: 0)
    32e4:	00b35000 	adcseq	r5, r3, r0
    32e8:	00b80000 	adcseq	r0, r8, r0
    32ec:	00260000 	eoreq	r0, r6, r0
    32f0:	f75001f3 			; <UNDEFINED> instruction: 0xf75001f3
    32f4:	f425f72c 	vld1.8	{d15}, [r5 :128], ip
    32f8:	cccd0825 	stclgt	8, cr0, [sp], {37}	; 0x25
    32fc:	0000cccc 	andeq	ip, r0, ip, asr #25
    3300:	081e0000 	ldmdaeq	lr, {}	; <UNPREDICTABLE>
    3304:	2525f720 	strcs	pc, [r5, #-1824]!	; 0xfffff8e0
    3308:	00f72cf7 	ldrshteq	r2, [r7], #199	; 0xc7
    330c:	80232533 	eorhi	r2, r3, r3, lsr r5
    3310:	3240a080 	subcc	sl, r0, #128, 0	; 0x80
    3314:	00009f24 	andeq	r9, r0, r4, lsr #30
    3318:	00000000 	andeq	r0, r0, r0
    331c:	00020000 	andeq	r0, r2, r0
    3320:	00010100 	andeq	r0, r1, r0, lsl #2
    3324:	00a00000 	adceq	r0, r0, r0
    3328:	00a40000 	adceq	r0, r4, r0
    332c:	00010000 	andeq	r0, r1, r0
    3330:	0000a450 	andeq	sl, r0, r0, asr r4
    3334:	0000a400 	andeq	sl, r0, r0, lsl #8
    3338:	53000100 	movwpl	r0, #256	; 0x100
    333c:	000000a4 	andeq	r0, r0, r4, lsr #1
    3340:	000000a8 	andeq	r0, r0, r8, lsr #1
    3344:	74310008 	ldrtvc	r0, [r1], #-8
    3348:	00732400 	rsbseq	r2, r3, r0, lsl #8
    334c:	00a89f21 	adceq	r9, r8, r1, lsr #30
    3350:	00b30000 	adcseq	r0, r3, r0
    3354:	00010000 	andeq	r0, r1, r0
    3358:	00000051 	andeq	r0, r0, r1, asr r0
	...
    3368:	00003c00 	andeq	r3, r0, r0, lsl #24
    336c:	50000100 	andpl	r0, r0, r0, lsl #2
    3370:	0000003c 	andeq	r0, r0, ip, lsr r0
    3374:	00000060 	andeq	r0, r0, r0, rrx
    3378:	01f30004 	mvnseq	r0, r4
    337c:	00009f50 	andeq	r9, r0, r0, asr pc
	...
    338c:	003f0000 	eorseq	r0, pc, r0
    3390:	00010000 	andeq	r0, r1, r0
    3394:	00003f51 	andeq	r3, r0, r1, asr pc
    3398:	00006000 	andeq	r6, r0, r0
    339c:	f3000400 	vshl.u8	d0, d0, d0
    33a0:	009f5101 	addseq	r5, pc, r1, lsl #2
	...
    33ac:	08000000 	stmdaeq	r0, {}	; <UNPREDICTABLE>
    33b0:	3f000000 	svccc	0x00000000
    33b4:	01000000 	mrseq	r0, (UNDEF: 0)
    33b8:	003f5100 	eorseq	r5, pc, r0, lsl #2
    33bc:	00600000 	rsbeq	r0, r0, r0
    33c0:	00040000 	andeq	r0, r4, r0
    33c4:	9f5101f3 	svcls	0x005101f3
	...
    33d4:	00000008 	andeq	r0, r0, r8
    33d8:	0000003c 	andeq	r0, r0, ip, lsr r0
    33dc:	3c500001 	mrrccc	0, 0, r0, r0, cr1	; <UNPREDICTABLE>
    33e0:	60000000 	andvs	r0, r0, r0
    33e4:	04000000 	streq	r0, [r0], #-0
    33e8:	5001f300 	andpl	pc, r1, r0, lsl #6
    33ec:	0000009f 	muleq	r0, pc, r0	; <UNPREDICTABLE>
	...
    33f8:	00004800 	andeq	r4, r0, r0, lsl #16
    33fc:	00005800 	andeq	r5, r0, r0, lsl #16
    3400:	54000100 	strpl	r0, [r0], #-256	; 0xffffff00
    3404:	00000058 	andeq	r0, r0, r8, asr r0
    3408:	00000060 	andeq	r0, r0, r0, rrx
    340c:	01f30029 	mvnseq	r0, r9, lsr #32
    3410:	5001f350 	andpl	pc, r1, r0, asr r3	; <UNPREDICTABLE>
    3414:	25f72cf7 	ldrbcs	r2, [r7, #3319]!	; 0xcf7
    3418:	cd0825f4 	cfstr32gt	mvfx2, [r8, #-976]	; 0xfffffc30
    341c:	00cccccc 	sbceq	ip, ip, ip, asr #25
    3420:	1e000000 	cdpne	0, 0, cr0, cr0, cr0, {0}
    3424:	25f72008 	ldrbcs	r2, [r7, #8]!
    3428:	f72cf725 			; <UNDEFINED> instruction: 0xf72cf725
    342c:	35253300 	strcc	r3, [r5, #-768]!	; 0xfffffd00
    3430:	1c24311e 	stfnes	f3, [r4], #-120	; 0xffffff88
    3434:	009f1e33 	addseq	r1, pc, r3, lsr lr	; <UNPREDICTABLE>
    3438:	00000000 	andeq	r0, r0, r0
    343c:	01000000 	mrseq	r0, (UNDEF: 0)
    3440:	00000000 	andeq	r0, r0, r0
    3444:	00004800 	andeq	r4, r0, r0, lsl #16
    3448:	00005800 	andeq	r5, r0, r0, lsl #16
    344c:	56000100 	strpl	r0, [r0], -r0, lsl #2
    3450:	00000058 	andeq	r0, r0, r8, asr r0
    3454:	0000005b 	andeq	r0, r0, fp, asr r0
    3458:	5b500001 	blpl	1403464 <__bss_end__+0x13f85e4>
    345c:	60000000 	andvs	r0, r0, r0
    3460:	26000000 	strcs	r0, [r0], -r0
    3464:	5001f300 	andpl	pc, r1, r0, lsl #6
    3468:	25f72cf7 	ldrbcs	r2, [r7, #3319]!	; 0xcf7
    346c:	cd0825f4 	cfstr32gt	mvfx2, [r8, #-976]	; 0xfffffc30
    3470:	00cccccc 	sbceq	ip, ip, ip, asr #25
    3474:	1e000000 	cdpne	0, 0, cr0, cr0, cr0, {0}
    3478:	25f72008 	ldrbcs	r2, [r7, #8]!
    347c:	f72cf725 			; <UNDEFINED> instruction: 0xf72cf725
    3480:	23253300 			; <UNDEFINED> instruction: 0x23253300
    3484:	40a08080 	adcmi	r8, r0, r0, lsl #1
    3488:	009f2432 	addseq	r2, pc, r2, lsr r4	; <UNPREDICTABLE>
    348c:	00000000 	andeq	r0, r0, r0
    3490:	02000000 	andeq	r0, r0, #0, 0
    3494:	01010000 	mrseq	r0, (UNDEF: 1)
    3498:	48000000 	stmdami	r0, {}	; <UNPREDICTABLE>
    349c:	4c000000 	stcmi	0, cr0, [r0], {-0}
    34a0:	01000000 	mrseq	r0, (UNDEF: 0)
    34a4:	004c5000 	subeq	r5, ip, r0
    34a8:	004c0000 	subeq	r0, ip, r0
    34ac:	00010000 	andeq	r0, r1, r0
    34b0:	00004c51 	andeq	r4, r0, r1, asr ip
    34b4:	00005000 	andeq	r5, r0, r0
    34b8:	75000c00 	strvc	r0, [r0, #-3072]	; 0xfffff400
    34bc:	1aff0800 	bne	fffc54c4 <__bss_end__+0xfffba644>
    34c0:	71240074 			; <UNDEFINED> instruction: 0x71240074
    34c4:	509f2100 	addspl	r2, pc, r0, lsl #2
    34c8:	54000000 	strpl	r0, [r0], #-0
    34cc:	12000000 	andne	r0, r0, #0, 0
    34d0:	00743700 	rsbseq	r3, r4, r0, lsl #14
    34d4:	00702024 	rsbseq	r2, r0, r4, lsr #32
    34d8:	0800751a 	stmdaeq	r0, {r1, r3, r4, r8, sl, ip, sp, lr}
    34dc:	00741aff 	ldrshteq	r1, [r4], #-175	; 0xffffff51
    34e0:	009f2124 	addseq	r2, pc, r4, lsr #2
	...
    34f0:	0000b800 	andeq	fp, r0, r0, lsl #16
    34f4:	0000c400 	andeq	ip, r0, r0, lsl #8
    34f8:	50000100 	andpl	r0, r0, r0, lsl #2
    34fc:	000000c4 	andeq	r0, r0, r4, asr #1
    3500:	000000cb 	andeq	r0, r0, fp, asr #1
    3504:	cb530001 	blgt	14c3510 <__bss_end__+0x14b8690>
    3508:	d0000000 	andle	r0, r0, r0
    350c:	04000000 	streq	r0, [r0], #-0
    3510:	5001f300 	andpl	pc, r1, r0, lsl #6
    3514:	0000009f 	muleq	r0, pc, r0	; <UNPREDICTABLE>
	...
    3520:	d0000000 	andle	r0, r0, r0
    3524:	dc000000 	stcle	0, cr0, [r0], {-0}
    3528:	01000000 	mrseq	r0, (UNDEF: 0)
    352c:	00dc5000 	sbcseq	r5, ip, r0
    3530:	00e30000 	rsceq	r0, r3, r0
    3534:	00010000 	andeq	r0, r1, r0
    3538:	0000e353 	andeq	lr, r0, r3, asr r3
    353c:	0000e800 	andeq	lr, r0, r0, lsl #16
    3540:	f3000400 	vshl.u8	d0, d0, d0
    3544:	009f5001 	addseq	r5, pc, r1
	...
    3554:	0b000000 	bleq	355c <__code_start__-0x4aa4>
    3558:	01000000 	mrseq	r0, (UNDEF: 0)
    355c:	000b5000 	andeq	r5, fp, r0
    3560:	00140000 	andseq	r0, r4, r0
    3564:	00010000 	andeq	r0, r1, r0
    3568:	00000054 	andeq	r0, r0, r4, asr r0
	...
    3578:	00001800 	andeq	r1, r0, r0, lsl #16
    357c:	51000100 	mrspl	r0, (UNDEF: 16)
    3580:	00000018 	andeq	r0, r0, r8, lsl r0
    3584:	0000002c 	andeq	r0, r0, ip, lsr #32
    3588:	01f30004 	mvnseq	r0, r4
    358c:	00009f51 	andeq	r9, r0, r1, asr pc
    3590:	00000000 	andeq	r0, r0, r0
    3594:	00020000 	andeq	r0, r2, r0
    3598:	00000000 	andeq	r0, r0, r0
    359c:	01000000 	mrseq	r0, (UNDEF: 0)
    35a0:	00000001 	andeq	r0, r0, r1
    35a4:	00000000 	andeq	r0, r0, r0
    35a8:	00000004 	andeq	r0, r0, r4
    35ac:	04500001 	ldrbeq	r0, [r0], #-1
    35b0:	08000000 	stmdaeq	r0, {}	; <UNPREDICTABLE>
    35b4:	01000000 	mrseq	r0, (UNDEF: 0)
    35b8:	00085200 	andeq	r5, r8, r0, lsl #4
    35bc:	000c0000 	andeq	r0, ip, r0
    35c0:	00030000 	andeq	r0, r3, r0
    35c4:	0c9f0172 	ldfeqs	f0, [pc], {114}	; 0x72
    35c8:	18000000 	stmdane	r0, {}	; <UNPREDICTABLE>
    35cc:	01000000 	mrseq	r0, (UNDEF: 0)
    35d0:	00185200 	andseq	r5, r8, r0, lsl #4
    35d4:	001c0000 	andseq	r0, ip, r0
    35d8:	00010000 	andeq	r0, r1, r0
    35dc:	00001c53 	andeq	r1, r0, r3, asr ip
    35e0:	00002400 	andeq	r2, r0, r0, lsl #8
    35e4:	73000300 	movwvc	r0, #768	; 0x300
    35e8:	00249f01 	eoreq	r9, r4, r1, lsl #30
    35ec:	002c0000 	eoreq	r0, ip, r0
    35f0:	00010000 	andeq	r0, r1, r0
    35f4:	00000053 	andeq	r0, r0, r3, asr r0
    35f8:	00000000 	andeq	r0, r0, r0
    35fc:	02020300 	andeq	r0, r2, #0, 6
    3600:	00000000 	andeq	r0, r0, r0
    3604:	18000000 	stmdane	r0, {}	; <UNPREDICTABLE>
    3608:	01000000 	mrseq	r0, (UNDEF: 0)
    360c:	00185100 	andseq	r5, r8, r0, lsl #2
    3610:	001c0000 	andseq	r0, ip, r0
    3614:	00030000 	andeq	r0, r3, r0
    3618:	1c9f0171 	ldfnes	f0, [pc], {113}	; 0x71
    361c:	2c000000 	stccs	0, cr0, [r0], {-0}
    3620:	01000000 	mrseq	r0, (UNDEF: 0)
    3624:	00005100 	andeq	r5, r0, r0, lsl #2
	...
    3634:	00000008 	andeq	r0, r0, r8
    3638:	0000000c 	andeq	r0, r0, ip
    363c:	00720002 	rsbseq	r0, r2, r2
    3640:	0000000c 	andeq	r0, r0, ip
    3644:	00000018 	andeq	r0, r0, r8, lsl r0
    3648:	00730002 	rsbseq	r0, r3, r2
    364c:	0000001c 	andeq	r0, r0, ip, lsl r0
    3650:	0000002c 	andeq	r0, r0, ip, lsr #32
    3654:	00520001 	subseq	r0, r2, r1
	...
    366c:	14000000 	strne	r0, [r0], #-0
    3670:	01000000 	mrseq	r0, (UNDEF: 0)
    3674:	00145000 	andseq	r5, r4, r0
    3678:	00180000 	andseq	r0, r8, r0
    367c:	00030000 	andeq	r0, r3, r0
    3680:	189f0170 	ldmne	pc, {r4, r5, r6, r8}	; <UNPREDICTABLE>
    3684:	20000000 	andcs	r0, r0, r0
    3688:	01000000 	mrseq	r0, (UNDEF: 0)
    368c:	00245000 	eoreq	r5, r4, r0
    3690:	00280000 	eoreq	r0, r8, r0
    3694:	00010000 	andeq	r0, r1, r0
    3698:	00002850 	andeq	r2, r0, r0, asr r8
    369c:	00003000 	andeq	r3, r0, r0
    36a0:	70000300 	andvc	r0, r0, r0, lsl #6
    36a4:	00389f01 	eorseq	r9, r8, r1, lsl #30
    36a8:	00400000 	subeq	r0, r0, r0
    36ac:	00010000 	andeq	r0, r1, r0
    36b0:	00000050 	andeq	r0, r0, r0, asr r0
	...
    36c0:	24000000 	strcs	r0, [r0], #-0
    36c4:	01000000 	mrseq	r0, (UNDEF: 0)
    36c8:	00245100 	eoreq	r5, r4, r0, lsl #2
    36cc:	00280000 	eoreq	r0, r8, r0
    36d0:	00010000 	andeq	r0, r1, r0
    36d4:	0000285c 	andeq	r2, r0, ip, asr r8
    36d8:	00004400 	andeq	r4, r0, r0, lsl #8
    36dc:	51000100 	mrspl	r0, (UNDEF: 16)
	...
    36e8:	00020200 	andeq	r0, r2, r0, lsl #4
    36ec:	00000000 	andeq	r0, r0, r0
    36f0:	00040000 	andeq	r0, r4, r0
    36f4:	00010000 	andeq	r0, r1, r0
    36f8:	00000451 	andeq	r0, r0, r1, asr r4
    36fc:	00000800 	andeq	r0, r0, r0, lsl #16
    3700:	71000300 	mrsvc	r0, LR_irq
    3704:	00089f01 	andeq	r9, r8, r1, lsl #30
    3708:	00180000 	andseq	r0, r8, r0
    370c:	00010000 	andeq	r0, r1, r0
    3710:	00000051 	andeq	r0, r0, r1, asr r0
    3714:	00000000 	andeq	r0, r0, r0
    3718:	00000200 	andeq	r0, r0, r0, lsl #4
    371c:	04000000 	streq	r0, [r0], #-0
    3720:	01000000 	mrseq	r0, (UNDEF: 0)
    3724:	00005000 	andeq	r5, r0, r0
	...
    3734:	00080000 	andeq	r0, r8, r0
    3738:	00010000 	andeq	r0, r1, r0
    373c:	00000850 	andeq	r0, r0, r0, asr r8
    3740:	00003000 	andeq	r3, r0, r0
    3744:	f3000400 	vshl.u8	d0, d0, d0
    3748:	009f5001 	addseq	r5, pc, r1
	...
    3758:	08000000 	stmdaeq	r0, {}	; <UNPREDICTABLE>
    375c:	01000000 	mrseq	r0, (UNDEF: 0)
    3760:	00085100 	andeq	r5, r8, r0, lsl #2
    3764:	00300000 	eorseq	r0, r0, r0
    3768:	00040000 	andeq	r0, r4, r0
    376c:	9f5101f3 	svcls	0x005101f3
	...
    377c:	02010000 	andeq	r0, r1, #0, 0
    3780:	00000002 	andeq	r0, r0, r2
    3784:	00040000 	andeq	r0, r4, r0
    3788:	00010000 	andeq	r0, r1, r0
    378c:	00000452 	andeq	r0, r0, r2, asr r4
    3790:	00000800 	andeq	r0, r0, r0, lsl #16
    3794:	f3000400 	vshl.u8	d0, d0, d0
    3798:	089f5201 	ldmeq	pc, {r0, r9, ip, lr}	; <UNPREDICTABLE>
    379c:	18000000 	stmdane	r0, {}	; <UNPREDICTABLE>
    37a0:	06000000 	streq	r0, [r0], -r0
    37a4:	5201f300 	andpl	pc, r1, #0, 6
    37a8:	189f1c31 	ldmne	pc, {r0, r4, r5, sl, fp, ip}	; <UNPREDICTABLE>
    37ac:	18000000 	stmdane	r0, {}	; <UNPREDICTABLE>
    37b0:	04000000 	streq	r0, [r0], #-0
    37b4:	5201f300 	andpl	pc, r1, #0, 6
    37b8:	0000189f 	muleq	r0, pc, r8	; <UNPREDICTABLE>
    37bc:	00003000 	andeq	r3, r0, r0
    37c0:	f3000600 	vmax.u8	d0, d0, d0
    37c4:	1c315201 	lfmne	f5, 4, [r1], #-4
    37c8:	0000009f 	muleq	r0, pc, r0	; <UNPREDICTABLE>
    37cc:	00000000 	andeq	r0, r0, r0
    37d0:	00000200 	andeq	r0, r0, r0, lsl #4
    37d4:	00000100 	andeq	r0, r0, r0, lsl #2
    37d8:	00000000 	andeq	r0, r0, r0
    37dc:	00000c00 	andeq	r0, r0, r0, lsl #24
    37e0:	50000100 	andpl	r0, r0, r0, lsl #2
    37e4:	0000000c 	andeq	r0, r0, ip
    37e8:	00000018 	andeq	r0, r0, r8, lsl r0
    37ec:	7f700003 	svcvc	0x00700003
    37f0:	0000189f 	muleq	r0, pc, r8	; <UNPREDICTABLE>
    37f4:	00002400 	andeq	r2, r0, r0, lsl #8
    37f8:	50000100 	andpl	r0, r0, r0, lsl #2
    37fc:	00000028 	andeq	r0, r0, r8, lsr #32
    3800:	0000002c 	andeq	r0, r0, ip, lsr #32
    3804:	7f700003 	svcvc	0x00700003
    3808:	0000009f 	muleq	r0, pc, r0	; <UNPREDICTABLE>
    380c:	00000000 	andeq	r0, r0, r0
    3810:	00000200 	andeq	r0, r0, r0, lsl #4
    3814:	00000000 	andeq	r0, r0, r0
    3818:	0c000000 	stceq	0, cr0, [r0], {-0}
    381c:	01000000 	mrseq	r0, (UNDEF: 0)
    3820:	000c5100 	andeq	r5, ip, r0, lsl #2
    3824:	00100000 	andseq	r0, r0, r0
    3828:	00030000 	andeq	r0, r3, r0
    382c:	109f0171 	addsne	r0, pc, r1, ror r1	; <UNPREDICTABLE>
    3830:	30000000 	andcc	r0, r0, r0
    3834:	01000000 	mrseq	r0, (UNDEF: 0)
    3838:	00005100 	andeq	r5, r0, r0, lsl #2
    383c:	00000000 	andeq	r0, r0, r0
	...

Disassembly of section .debug_aranges:

00000000 <.debug_aranges>:
   0:	0000001c 	andeq	r0, r0, ip, lsl r0
   4:	00000002 	andeq	r0, r0, r2
   8:	00040000 	andeq	r0, r4, r0
   c:	00000000 	andeq	r0, r0, r0
  10:	00008038 	andeq	r8, r0, r8, lsr r0
  14:	0000011c 	andeq	r0, r0, ip, lsl r1
	...
  20:	0000001c 	andeq	r0, r0, ip, lsl r0
  24:	04cb0002 	strbeq	r0, [fp], #2
  28:	00040000 	andeq	r0, r4, r0
  2c:	00000000 	andeq	r0, r0, r0
  30:	00008154 	andeq	r8, r0, r4, asr r1
  34:	000002f0 	strdeq	r0, [r0], -r0	; <UNPREDICTABLE>
	...
  40:	0000001c 	andeq	r0, r0, ip, lsl r0
  44:	0e7e0002 	cdpeq	0, 7, cr0, cr14, cr2, {0}
  48:	00040000 	andeq	r0, r4, r0
  4c:	00000000 	andeq	r0, r0, r0
  50:	00008444 	andeq	r8, r0, r4, asr #8
  54:	00000188 	andeq	r0, r0, r8, lsl #3
	...
  60:	0000001c 	andeq	r0, r0, ip, lsl r0
  64:	117d0002 	cmnne	sp, r2
  68:	00040000 	andeq	r0, r4, r0
  6c:	00000000 	andeq	r0, r0, r0
  70:	000085cc 	andeq	r8, r0, ip, asr #11
  74:	00000584 	andeq	r0, r0, r4, lsl #11
	...
  80:	0000001c 	andeq	r0, r0, ip, lsl r0
  84:	1ef10002 	cdpne	0, 15, cr0, cr1, cr2, {0}
  88:	00040000 	andeq	r0, r4, r0
  8c:	00000000 	andeq	r0, r0, r0
  90:	00008b58 	andeq	r8, r0, r8, asr fp
  94:	00000078 	andeq	r0, r0, r8, ror r0
	...
  a0:	0000001c 	andeq	r0, r0, ip, lsl r0
  a4:	20350002 	eorscs	r0, r5, r2
  a8:	00040000 	andeq	r0, r4, r0
  ac:	00000000 	andeq	r0, r0, r0
  b0:	00008bd0 	ldrdeq	r8, [r0], -r0
  b4:	00000058 	andeq	r0, r0, r8, asr r0
	...
  c0:	0000001c 	andeq	r0, r0, ip, lsl r0
  c4:	21d60002 	bicscs	r0, r6, r2
  c8:	00040000 	andeq	r0, r4, r0
  cc:	00000000 	andeq	r0, r0, r0
  d0:	00008c28 	andeq	r8, r0, r8, lsr #24
  d4:	00000038 	andeq	r0, r0, r8, lsr r0
	...
  e0:	0000001c 	andeq	r0, r0, ip, lsl r0
  e4:	22cd0002 	sbccs	r0, sp, #2, 0
  e8:	00040000 	andeq	r0, r4, r0
  ec:	00000000 	andeq	r0, r0, r0
  f0:	00008c60 	andeq	r8, r0, r0, ror #24
  f4:	000009b4 			; <UNDEFINED> instruction: 0x000009b4
	...
 100:	0000001c 	andeq	r0, r0, ip, lsl r0
 104:	2f500002 	svccs	0x00500002
 108:	00040000 	andeq	r0, r4, r0
 10c:	00000000 	andeq	r0, r0, r0
 110:	00009614 	andeq	r9, r0, r4, lsl r6
 114:	0000002c 	andeq	r0, r0, ip, lsr #32
	...
 120:	0000001c 	andeq	r0, r0, ip, lsl r0
 124:	30830002 	addcc	r0, r3, r2
 128:	00040000 	andeq	r0, r4, r0
 12c:	00000000 	andeq	r0, r0, r0
 130:	00009640 	andeq	r9, r0, r0, asr #12
 134:	000000f8 	strdeq	r0, [r0], -r8
	...
 140:	0000001c 	andeq	r0, r0, ip, lsl r0
 144:	32170002 	andscc	r0, r7, #2, 0
 148:	00040000 	andeq	r0, r4, r0
 14c:	00000000 	andeq	r0, r0, r0
 150:	00009738 	andeq	r9, r0, r8, lsr r7
 154:	00000004 	andeq	r0, r0, r4
	...
 160:	0000001c 	andeq	r0, r0, ip, lsl r0
 164:	32e90002 	rsccc	r0, r9, #2, 0
 168:	00040000 	andeq	r0, r4, r0
 16c:	00000000 	andeq	r0, r0, r0
 170:	0000973c 	andeq	r9, r0, ip, lsr r7
 174:	0000008c 	andeq	r0, r0, ip, lsl #1
	...
 180:	0000001c 	andeq	r0, r0, ip, lsl r0
 184:	356a0002 	strbcc	r0, [sl, #-2]!
 188:	00040000 	andeq	r0, r4, r0
 18c:	00000000 	andeq	r0, r0, r0
 190:	000097c8 	andeq	r9, r0, r8, asr #15
 194:	0000011c 	andeq	r0, r0, ip, lsl r1
	...
 1a0:	0000001c 	andeq	r0, r0, ip, lsl r0
 1a4:	3aad0002 	bcc	feb401b4 <__bss_end__+0xfeb35334>
 1a8:	00040000 	andeq	r0, r4, r0
 1ac:	00000000 	andeq	r0, r0, r0
 1b0:	000098e4 	andeq	r9, r0, r4, ror #17
 1b4:	000001f0 	strdeq	r0, [r0], -r0	; <UNPREDICTABLE>
	...
 1c0:	0000001c 	andeq	r0, r0, ip, lsl r0
 1c4:	407e0002 	rsbsmi	r0, lr, r2
 1c8:	00040000 	andeq	r0, r4, r0
 1cc:	00000000 	andeq	r0, r0, r0
 1d0:	00009ad4 	ldrdeq	r9, [r0], -r4
 1d4:	000003b0 			; <UNDEFINED> instruction: 0x000003b0
	...
 1e0:	0000001c 	andeq	r0, r0, ip, lsl r0
 1e4:	496b0002 	stmdbmi	fp!, {r1}^
 1e8:	00040000 	andeq	r0, r4, r0
 1ec:	00000000 	andeq	r0, r0, r0
 1f0:	00009e84 	andeq	r9, r0, r4, lsl #29
 1f4:	00000198 	muleq	r0, r8, r1
	...
 200:	0000001c 	andeq	r0, r0, ip, lsl r0
 204:	4fe20002 	svcmi	0x00e20002
 208:	00040000 	andeq	r0, r4, r0
 20c:	00000000 	andeq	r0, r0, r0
 210:	0000a01c 	andeq	sl, r0, ip, lsl r0
 214:	0000003c 	andeq	r0, r0, ip, lsr r0
	...
 220:	0000001c 	andeq	r0, r0, ip, lsl r0
 224:	512f0002 			; <UNDEFINED> instruction: 0x512f0002
 228:	00040000 	andeq	r0, r4, r0
 22c:	00000000 	andeq	r0, r0, r0
 230:	0000a058 	andeq	sl, r0, r8, asr r0
 234:	0000002c 	andeq	r0, r0, ip, lsr #32
	...
 240:	0000001c 	andeq	r0, r0, ip, lsl r0
 244:	526a0002 	rsbpl	r0, sl, #2, 0
 248:	00040000 	andeq	r0, r4, r0
 24c:	00000000 	andeq	r0, r0, r0
 250:	0000a084 	andeq	sl, r0, r4, lsl #1
 254:	00000044 	andeq	r0, r0, r4, asr #32
	...
 260:	0000001c 	andeq	r0, r0, ip, lsl r0
 264:	53650002 	cmnpl	r5, #2, 0
 268:	00040000 	andeq	r0, r4, r0
 26c:	00000000 	andeq	r0, r0, r0
 270:	0000a0c8 	andeq	sl, r0, r8, asr #1
 274:	00000018 	andeq	r0, r0, r8, lsl r0
	...
 280:	0000001c 	andeq	r0, r0, ip, lsl r0
 284:	54780002 	ldrbtpl	r0, [r8], #-2
 288:	00040000 	andeq	r0, r4, r0
 28c:	00000000 	andeq	r0, r0, r0
 290:	0000a0e0 	andeq	sl, r0, r0, ror #1
 294:	00000030 	andeq	r0, r0, r0, lsr r0
	...
 2a0:	0000001c 	andeq	r0, r0, ip, lsl r0
 2a4:	55ca0002 	strbpl	r0, [sl, #2]
 2a8:	00040000 	andeq	r0, r4, r0
 2ac:	00000000 	andeq	r0, r0, r0
 2b0:	0000a110 	andeq	sl, r0, r0, lsl r1
 2b4:	00000004 	andeq	r0, r0, r4
	...

Disassembly of section .debug_line:

00000000 <.debug_line>:
       0:	000001bb 			; <UNDEFINED> instruction: 0x000001bb
       4:	00ee0003 	rsceq	r0, lr, r3
       8:	01020000 	mrseq	r0, (UNDEF: 2)
       c:	000d0efb 	strdeq	r0, [sp], -fp
      10:	01010101 	tsteq	r1, r1, lsl #2
      14:	01000000 	mrseq	r0, (UNDEF: 0)
      18:	74010000 	strvc	r0, [r1], #-0
      1c:	73747365 	cmnvc	r4, #-1811939327	; 0x94000001
      20:	302e322d 	eorcc	r3, lr, sp, lsr #4
      24:	2f002e00 	svccs	0x00002e00
      28:	2f74706f 	svccs	0x0074706f
      2c:	656d6f68 	strbvs	r6, [sp, #-3944]!	; 0xfffff098
      30:	77657262 	strbvc	r7, [r5, -r2, ror #4]!
      34:	6c65432f 	stclvs	3, cr4, [r5], #-188	; 0xffffff44
      38:	2f72616c 	svccs	0x0072616c
      3c:	2d6d7261 	sfmcs	f7, 2, [sp, #-388]!	; 0xfffffe7c
      40:	656e6f6e 	strbvs	r6, [lr, #-3950]!	; 0xfffff092
      44:	6261652d 	rsbvs	r6, r1, #188743680	; 0xb400000
      48:	2f392d69 	svccs	0x00392d69
      4c:	30322d39 	eorscc	r2, r2, r9, lsr sp
      50:	34713931 	ldrbtcc	r3, [r1], #-2353	; 0xfffff6cf
      54:	3173632d 	cmncc	r3, sp, lsr #6
      58:	2f653730 	svccs	0x00653730
      5c:	2f62696c 	svccs	0x0062696c
      60:	2f636367 	svccs	0x00636367
      64:	2d6d7261 	sfmcs	f7, 2, [sp, #-388]!	; 0xfffffe7c
      68:	656e6f6e 	strbvs	r6, [lr, #-3950]!	; 0xfffff092
      6c:	6261652d 	rsbvs	r6, r1, #188743680	; 0xb400000
      70:	2e392f69 	cdpcs	15, 3, cr2, cr9, cr9, {3}
      74:	2f312e32 	svccs	0x00312e32
      78:	6c636e69 	stclvs	14, cr6, [r3], #-420	; 0xfffffe5c
      7c:	00656475 	rsbeq	r6, r5, r5, ror r4
      80:	6573552f 	ldrbvs	r5, [r3, #-1327]!	; 0xfffffad1
      84:	6d2f7372 	stcvs	3, cr7, [pc, #-456]!	; fffffec4 <__bss_end__+0xffff5044>
      88:	73656c69 	cmnvc	r5, #26880	; 0x6900
      8c:	756f532f 	strbvc	r5, [pc, #-815]!	; fffffd65 <__bss_end__+0xffff4ee5>
      90:	2f656372 	svccs	0x00656372
      94:	34327363 	ldrtcc	r7, [r2], #-867	; 0xfffffc9d
      98:	2f786c30 	svccs	0x00786c30
      9c:	7062696c 	rsbvc	r6, r2, ip, ror #18
      a0:	6e692f69 	cdpvs	15, 6, cr2, cr9, cr9, {3}
      a4:	64756c63 	ldrbtvs	r6, [r5], #-3171	; 0xfffff39d
      a8:	70000065 	andvc	r0, r0, r5, rrx
      ac:	32747261 	rsbscc	r7, r4, #268435462	; 0x10000006
      b0:	7365742d 	cmnvc	r5, #754974720	; 0x2d000000
      b4:	6e2d3274 	mcrvs	2, 1, r3, cr13, cr4, {3}
      b8:	656c2d6f 	strbvs	r2, [ip, #-3439]!	; 0xfffff291
      bc:	632e6b61 			; <UNDEFINED> instruction: 0x632e6b61
      c0:	00000100 	andeq	r0, r0, r0, lsl #2
      c4:	2d637273 	sfmcs	f7, 2, [r3, #-460]!	; 0xfffffe34
      c8:	2e636f6c 	cdpcs	15, 6, cr6, cr3, cr12, {3}
      cc:	00020068 	andeq	r0, r2, r8, rrx
      d0:	616b6300 	cmnvs	fp, r0, lsl #6
      d4:	636f6c6c 	cmnvs	pc, #108, 24	; 0x6c00
      d8:	0200682e 	andeq	r6, r0, #3014656	; 0x2e0000
      dc:	74730000 	ldrbtvc	r0, [r3], #-0
      e0:	746e6964 	strbtvc	r6, [lr], #-2404	; 0xfffff69c
      e4:	6363672d 	cmnvs	r3, #11796480	; 0xb40000
      e8:	0300682e 	movweq	r6, #2094	; 0x82e
      ec:	70720000 	rsbsvc	r0, r2, r0
      f0:	00682e69 	rsbeq	r2, r8, r9, ror #28
      f4:	00000004 	andeq	r0, r0, r4
      f8:	05001305 	streq	r1, [r0, #-773]	; 0xfffffcfb
      fc:	00803802 	addeq	r3, r0, r2, lsl #16
     100:	01150300 	tsteq	r5, r0, lsl #6
     104:	05130205 	ldreq	r0, [r3, #-517]	; 0xfffffdfb
     108:	13051405 	movwne	r1, #21509	; 0x5405
     10c:	05050f06 	streq	r0, [r5, #-3846]	; 0xfffff0fa
     110:	d3130531 	tstle	r3, #205520896	; 0xc400000
     114:	06310505 	ldrteq	r0, [r1], -r5, lsl #10
     118:	02000134 	andeq	r0, r0, #13
     11c:	00820204 	addeq	r0, r2, r4, lsl #4
     120:	01020402 	tsteq	r2, r2, lsl #8
     124:	02040200 	andeq	r0, r4, #0, 4
     128:	04020013 	streq	r0, [r2], #-19	; 0xffffffed
     12c:	014a0102 	cmpeq	sl, r2, lsl #2
     130:	05020414 	streq	r0, [r2, #-1044]	; 0xfffffbec
     134:	016a030b 	cmneq	sl, fp, lsl #6
     138:	05130505 	ldreq	r0, [r3, #-1285]	; 0xfffffafb
     13c:	8201060c 	andhi	r0, r1, #12, 12	; 0xc00000
     140:	10050104 	andne	r0, r5, r4, lsl #2
     144:	054a1503 	strbeq	r1, [sl, #-1283]	; 0xfffffafd
     148:	0e058305 	cdpeq	3, 0, cr8, cr5, cr5, {0}
     14c:	06050549 	streq	r0, [r5], -r9, asr #10
     150:	0204302f 	andeq	r3, r4, #47, 0	; 0x2f
     154:	67030b05 	strvs	r0, [r3, -r5, lsl #22]
     158:	13050501 	movwne	r0, #21761	; 0x5501
     15c:	01060c05 	tsteq	r6, r5, lsl #24
     160:	05010466 	streq	r0, [r1, #-1126]	; 0xfffffb9a
     164:	2e18030e 	cdpcs	3, 1, cr0, cr8, cr14, {0}
     168:	a0060505 	andge	r0, r6, r5, lsl #10
     16c:	06010531 			; <UNDEFINED> instruction: 0x06010531
     170:	00050513 	andeq	r0, r5, r3, lsl r5
     174:	06010402 	streq	r0, [r1], -r2, lsl #8
     178:	00667503 	rsbeq	r7, r6, r3, lsl #10
     17c:	01010402 	tsteq	r1, r2, lsl #8
     180:	01040200 	mrseq	r0, R12_usr
     184:	031405d6 	tsteq	r4, #897581056	; 0x35800000
     188:	053c080e 	ldreq	r0, [ip, #-2062]!	; 0xfffff7f2
     18c:	14051305 	strne	r1, [r5], #-773	; 0xfffffcfb
     190:	05051106 	streq	r1, [r5, #-262]	; 0xfffffefa
     194:	054e062f 	strbeq	r0, [lr, #-1583]	; 0xfffff9d1
     198:	0501060f 	streq	r0, [r1, #-1551]	; 0xfffff9f1
     19c:	0f053001 	svceq	0x00053001
     1a0:	0605052c 	streq	r0, [r5], -ip, lsr #10
     1a4:	0304012f 	movweq	r0, #16687	; 0x412f
     1a8:	6e031105 	adfvss	f1, f3, f5
     1ac:	13050501 	movwne	r0, #21761	; 0x5501
     1b0:	04010613 	streq	r0, [r1], #-1555	; 0xfffff9ed
     1b4:	01100301 	tsteq	r0, r1, lsl #6
     1b8:	04024a2e 	streq	r4, [r2], #-2606	; 0xfffff5d2
     1bc:	21010100 	mrscs	r0, (UNDEF: 17)
     1c0:	03000004 	movweq	r0, #4
     1c4:	0000e500 	andeq	lr, r0, r0, lsl #10
     1c8:	fb010200 	blx	409d2 <__bss_end__+0x35b52>
     1cc:	01000d0e 	tsteq	r0, lr, lsl #26
     1d0:	00010101 	andeq	r0, r1, r1, lsl #2
     1d4:	00010000 	andeq	r0, r1, r0
     1d8:	6f2f0100 	svcvs	0x002f0100
     1dc:	682f7470 	stmdavs	pc!, {r4, r5, r6, sl, ip, sp, lr}	; <UNPREDICTABLE>
     1e0:	62656d6f 	rsbvs	r6, r5, #7104	; 0x1bc0
     1e4:	2f776572 	svccs	0x00776572
     1e8:	6c6c6543 	cfstr64vs	mvdx6, [ip], #-268	; 0xfffffef4
     1ec:	612f7261 			; <UNDEFINED> instruction: 0x612f7261
     1f0:	6e2d6d72 	mcrvs	13, 1, r6, cr13, cr2, {3}
     1f4:	2d656e6f 	stclcs	14, cr6, [r5, #-444]!	; 0xfffffe44
     1f8:	69626165 	stmdbvs	r2!, {r0, r2, r5, r6, r8, sp, lr}^
     1fc:	392f392d 	stmdbcc	pc!, {r0, r2, r3, r5, r8, fp, ip, sp}	; <UNPREDICTABLE>
     200:	3130322d 	teqcc	r0, sp, lsr #4
     204:	2d347139 	ldfcss	f7, [r4, #-228]!	; 0xffffff1c
     208:	30317363 	eorscc	r7, r1, r3, ror #6
     20c:	6c2f6537 	cfstr32vs	mvfx6, [pc], #-220	; 138 <__code_start__-0x7ec8>
     210:	672f6269 	strvs	r6, [pc, -r9, ror #4]!
     214:	612f6363 			; <UNDEFINED> instruction: 0x612f6363
     218:	6e2d6d72 	mcrvs	13, 1, r6, cr13, cr2, {3}
     21c:	2d656e6f 	stclcs	14, cr6, [r5, #-444]!	; 0xfffffe44
     220:	69626165 	stmdbvs	r2!, {r0, r2, r5, r6, r8, sp, lr}^
     224:	322e392f 	eorcc	r3, lr, #770048	; 0xbc000
     228:	692f312e 	stmdbvs	pc!, {r1, r2, r3, r5, r8, ip, sp}	; <UNPREDICTABLE>
     22c:	756c636e 	strbvc	r6, [ip, #-878]!	; 0xfffffc92
     230:	2f006564 	svccs	0x00006564
     234:	72657355 	rsbvc	r7, r5, #1409286145	; 0x54000001
     238:	696d2f73 	stmdbvs	sp!, {r0, r1, r4, r5, r6, r8, r9, sl, fp, sp}^
     23c:	2f73656c 	svccs	0x0073656c
     240:	72756f53 	rsbsvc	r6, r5, #332	; 0x14c
     244:	632f6563 			; <UNDEFINED> instruction: 0x632f6563
     248:	30343273 	eorscc	r3, r4, r3, ror r2
     24c:	6c2f786c 	stcvs	8, cr7, [pc], #-432	; a4 <__code_start__-0x7f5c>
     250:	69706269 	ldmdbvs	r0!, {r0, r3, r5, r6, r9, sp, lr}^
     254:	636e692f 	cmnvs	lr, #770048	; 0xbc000
     258:	6564756c 	strbvs	r7, [r4, #-1388]!	; 0xfffffa94
     25c:	6b630000 	blvs	18c0264 <__bss_end__+0x18b53e4>
     260:	6f6c6c61 	svcvs	0x006c6c61
     264:	00632e63 	rsbeq	r2, r3, r3, ror #28
     268:	63000000 	movwvs	r0, #0
     26c:	6c6c616b 	stfvse	f6, [ip], #-428	; 0xfffffe54
     270:	682e636f 	stmdavs	lr!, {r0, r1, r2, r3, r5, r6, r8, r9, sp, lr}
     274:	00000000 	andeq	r0, r0, r0
     278:	69647473 	stmdbvs	r4!, {r0, r1, r4, r5, r6, sl, ip, sp, lr}^
     27c:	672d746e 	strvs	r7, [sp, -lr, ror #8]!
     280:	682e6363 	stmdavs	lr!, {r0, r1, r5, r6, r8, r9, sp, lr}
     284:	00000100 	andeq	r0, r0, r0, lsl #2
     288:	2e697072 	mcrcs	0, 3, r7, cr9, cr2, {3}
     28c:	00020068 	andeq	r0, r2, r8, rrx
     290:	63727300 	cmnvs	r2, #0, 6
     294:	636f6c2d 	cmnvs	pc, #11520	; 0x2d00
     298:	0000682e 	andeq	r6, r0, lr, lsr #16
     29c:	726b0000 	rsbvc	r0, fp, #0, 0
     2a0:	6c616d2d 	stclvs	13, cr6, [r1], #-180	; 0xffffff4c
     2a4:	2e636f6c 	cdpcs	15, 6, cr6, cr3, cr12, {3}
     2a8:	00000068 	andeq	r0, r0, r8, rrx
     2ac:	01050000 	mrseq	r0, (UNDEF: 5)
     2b0:	54020500 	strpl	r0, [r2], #-1280	; 0xfffffb00
     2b4:	03000081 	movweq	r0, #129	; 0x81
     2b8:	0505010b 	streq	r0, [r5, #-267]	; 0xfffffef5
     2bc:	060c0513 			; <UNDEFINED> instruction: 0x060c0513
     2c0:	2f010501 	svccs	0x00010501
     2c4:	05056a06 	streq	r6, [r5, #-2566]	; 0xfffff5fa
     2c8:	06080513 			; <UNDEFINED> instruction: 0x06080513
     2cc:	06090501 	streq	r0, [r9], -r1, lsl #10
     2d0:	0611052f 	ldreq	r0, [r1], -pc, lsr #10
     2d4:	30010501 	andcc	r0, r1, r1, lsl #10
     2d8:	05053106 	streq	r3, [r5, #-262]	; 0xfffffefa
     2dc:	06010513 			; <UNDEFINED> instruction: 0x06010513
     2e0:	32062e13 	andcc	r2, r6, #304	; 0x130
     2e4:	03130505 	tsteq	r3, #20971520	; 0x1400000
     2e8:	0204017a 	andeq	r0, r4, #-2147483618	; 0x8000001e
     2ec:	04011503 	streq	r1, [r1], #-1283	; 0xfffffafd
     2f0:	06240501 	strteq	r0, [r4], -r1, lsl #10
     2f4:	05017103 	streq	r7, [r1, #-259]	; 0xfffffefd
     2f8:	062e4b01 	strteq	r4, [lr], -r1, lsl #22
     2fc:	13050532 	movwne	r0, #21810	; 0x5532
     300:	72030705 	andvc	r0, r3, #1310720	; 0x140000
     304:	14050501 	strne	r0, [r5], #-1281	; 0xfffffaff
     308:	03060106 	movweq	r0, #24838	; 0x6106
     30c:	0705010d 	streq	r0, [r5, -sp, lsl #2]
     310:	05017703 	streq	r7, [r1, #-1795]	; 0xfffff8fd
     314:	01061405 	tsteq	r6, r5, lsl #8
     318:	017a0306 	cmneq	sl, r6, lsl #6
     31c:	15030204 	strne	r0, [r3, #-516]	; 0xfffffdfc
     320:	03010401 	movweq	r0, #5121	; 0x1401
     324:	24050179 	strcs	r0, [r5], #-377	; 0xfffffe87
     328:	01780306 	cmneq	r8, r6, lsl #6
     32c:	7a030c05 	bvc	c3348 <__bss_end__+0xb84c8>
     330:	24052e2e 	strcs	r2, [r5], #-3630	; 0xfffff1d2
     334:	01054a18 	tsteq	r5, r8, lsl sl
     338:	06010903 	streq	r0, [r1], -r3, lsl #18
     33c:	140505a1 	strne	r0, [r5], #-1441	; 0xfffffa5f
     340:	05010a05 	streq	r0, [r1, #-2565]	; 0xfffff5fb
     344:	015d0308 	cmpeq	sp, r8, lsl #6
     348:	05140505 	ldreq	r0, [r4, #-1285]	; 0xfffffafb
     34c:	0501060c 	streq	r0, [r1, #-1548]	; 0xfffff9f4
     350:	2e1f0301 	cdpcs	3, 1, cr0, cr15, cr1, {0}
     354:	61030c05 	tstvs	r3, r5, lsl #24
     358:	25052e2e 	strcs	r2, [r5, #-3630]	; 0xfffff1d2
     35c:	01210306 			; <UNDEFINED> instruction: 0x01210306
     360:	01060505 	tsteq	r6, r5, lsl #10
     364:	4d060905 	vstrmi.16	s0, [r6, #-10]	; <UNPREDICTABLE>
     368:	73030a05 	movwvc	r0, #14853	; 0x3a05
     36c:	14050501 	strne	r0, [r5], #-1281	; 0xfffffaff
     370:	72030705 	andvc	r0, r3, #1310720	; 0x140000
     374:	14050501 	strne	r0, [r5], #-1281	; 0xfffffaff
     378:	03060106 	movweq	r0, #24838	; 0x6106
     37c:	0705010d 	streq	r0, [r5, -sp, lsl #2]
     380:	05017703 	streq	r7, [r1, #-1795]	; 0xfffff8fd
     384:	01061405 	tsteq	r6, r5, lsl #8
     388:	017a0306 	cmneq	sl, r6, lsl #6
     38c:	15030204 	strne	r0, [r3, #-516]	; 0xfffffdfc
     390:	03010401 	movweq	r0, #5121	; 0x1401
     394:	24050179 	strcs	r0, [r5], #-377	; 0xfffffe87
     398:	01780306 	cmneq	r8, r6, lsl #6
     39c:	7a030c05 	bvc	c33b8 <__bss_end__+0xb8538>
     3a0:	052e2e2e 	streq	r2, [lr, #-3630]!	; 0xfffff1d2
     3a4:	17030609 	strne	r0, [r3, -r9, lsl #12]
     3a8:	0f280501 	svceq	0x00280501
     3ac:	63030805 	movwvs	r0, #14341	; 0x3805
     3b0:	14050501 	strne	r0, [r5], #-1281	; 0xfffffaff
     3b4:	05130905 	ldreq	r0, [r3, #-2309]	; 0xfffff6fb
     3b8:	2e010611 	mcrcs	6, 0, r0, cr1, cr1, {0}
     3bc:	03060a05 	movweq	r0, #27141	; 0x6a05
     3c0:	05050110 	streq	r0, [r5, #-272]	; 0xfffffef0
     3c4:	03070514 	movweq	r0, #29972	; 0x7514
     3c8:	05050172 	streq	r0, [r5, #-370]	; 0xfffffe8e
     3cc:	06010614 			; <UNDEFINED> instruction: 0x06010614
     3d0:	05010d03 	streq	r0, [r1, #-3331]	; 0xfffff2fd
     3d4:	01770307 	cmneq	r7, r7, lsl #6
     3d8:	06140505 	ldreq	r0, [r4], -r5, lsl #10
     3dc:	7a030601 	bvc	c1be8 <__bss_end__+0xb6d68>
     3e0:	03020401 	movweq	r0, #9217	; 0x2401
     3e4:	01040115 	tsteq	r4, r5, lsl r1
     3e8:	06017903 	streq	r7, [r1], -r3, lsl #18
     3ec:	06250501 	strteq	r0, [r5], -r1, lsl #10
     3f0:	06050518 			; <UNDEFINED> instruction: 0x06050518
     3f4:	030c0501 	movweq	r0, #50433	; 0xc501
     3f8:	052e2e6c 	streq	r2, [lr, #-3692]!	; 0xfffff194
     3fc:	01140305 	tsteq	r4, r5, lsl #6
     400:	72032405 	andvc	r2, r3, #83886080	; 0x5000000
     404:	0c052e2e 	stceq	14, cr2, [r5], {46}	; 0x2e
     408:	054a1103 	strbeq	r1, [sl, #-259]	; 0xfffffefd
     40c:	06d8060d 	ldrbeq	r0, [r8], sp, lsl #12
     410:	2f062e4a 	svccs	0x00062e4a
     414:	01050106 	tsteq	r5, r6, lsl #2
     418:	1c030616 	stcne	6, cr0, [r3], {22}
     41c:	66010682 	strvs	r0, [r1], -r2, lsl #13
     420:	0605052e 	streq	r0, [r5], -lr, lsr #10
     424:	14061367 	strne	r1, [r6], #-871	; 0xfffffc99
     428:	05f30805 	ldrbeq	r0, [r3, #2053]!	; 0x805
     42c:	012d0605 			; <UNDEFINED> instruction: 0x012d0605
     430:	05130101 	ldreq	r0, [r3, #-257]	; 0xfffffeff
     434:	05010608 	streq	r0, [r1, #-1544]	; 0xfffff9f8
     438:	054b0609 	strbeq	r0, [fp, #-1545]	; 0xfffff9f7
     43c:	0e051405 	cdpeq	4, 0, cr1, cr5, cr5, {0}
     440:	0c050106 	stfeqs	f0, [r5], {6}
     444:	2e7fb103 	expcse	f3, f3
     448:	cf030e05 	svcgt	0x00030e05
     44c:	05052e00 	streq	r2, [r5, #-3584]	; 0xfffff200
     450:	05012f06 	streq	r2, [r1, #-3846]	; 0xfffff0fa
     454:	014e0308 	cmpeq	lr, r8, lsl #6
     458:	05150505 	ldreq	r0, [r5, #-1285]	; 0xfffffafb
     45c:	0805010a 	stmdaeq	r5, {r1, r3, r8}
     460:	05015d03 	streq	r5, [r1, #-3331]	; 0xfffff2fd
     464:	0c051405 	cfstrseq	mvf1, [r5], {5}
     468:	052e0106 	streq	r0, [lr, #-262]!	; 0xfffffefa
     46c:	21030625 	tstcs	r3, r5, lsr #12
     470:	06050501 	streq	r0, [r5], -r1, lsl #10
     474:	28056601 	stmdacs	r5, {r0, r9, sl, sp, lr}
     478:	08052e06 	stmdaeq	r5, {r1, r2, r9, sl, fp, sp}
     47c:	05016303 	streq	r6, [r1, #-771]	; 0xfffffcfd
     480:	09051405 	stmdbeq	r5, {r0, r2, sl, ip}
     484:	06110513 			; <UNDEFINED> instruction: 0x06110513
     488:	25052e01 	strcs	r2, [r5, #-3585]	; 0xfffff1ff
     48c:	011a0306 	tsteq	sl, r6, lsl #6
     490:	01060505 	tsteq	r6, r5, lsl #10
     494:	4d060905 	vstrmi.16	s0, [r6, #-10]	; <UNPREDICTABLE>
     498:	73030a05 	movwvc	r0, #14853	; 0x3a05
     49c:	14050501 	strne	r0, [r5], #-1281	; 0xfffffaff
     4a0:	72030705 	andvc	r0, r3, #1310720	; 0x140000
     4a4:	14050501 	strne	r0, [r5], #-1281	; 0xfffffaff
     4a8:	03060106 	movweq	r0, #24838	; 0x6106
     4ac:	0705010d 	streq	r0, [r5, -sp, lsl #2]
     4b0:	05017703 	streq	r7, [r1, #-1795]	; 0xfffff8fd
     4b4:	01061405 	tsteq	r6, r5, lsl #8
     4b8:	017a0306 	cmneq	sl, r6, lsl #6
     4bc:	15030204 	strne	r0, [r3, #-516]	; 0xfffffdfc
     4c0:	03010401 	movweq	r0, #5121	; 0x1401
     4c4:	24050179 	strcs	r0, [r5], #-377	; 0xfffffe87
     4c8:	01780306 	cmneq	r8, r6, lsl #6
     4cc:	7a030c05 	bvc	c34e8 <__bss_end__+0xb8668>
     4d0:	24052e2e 	strcs	r2, [r5], #-3630	; 0xfffff1d2
     4d4:	030c0518 	movweq	r0, #50456	; 0xc518
     4d8:	0d054a11 	vstreq	s8, [r5, #-68]	; 0xffffffbc
     4dc:	2e06d806 	cdpcs	8, 0, cr13, cr6, cr6, {0}
     4e0:	01064b06 	tsteq	r6, r6, lsl #22
     4e4:	03060505 	movweq	r0, #25861	; 0x6505
     4e8:	14010129 	strne	r0, [r1], #-297	; 0xfffffed7
     4ec:	5b030d05 	blpl	c3908 <__bss_end__+0xb8a88>
     4f0:	14050501 	strne	r0, [r5], #-1281	; 0xfffffaff
     4f4:	13010101 	movwne	r0, #4353	; 0x1101
     4f8:	01060c05 	tsteq	r6, r5, lsl #24
     4fc:	30060505 	andcc	r0, r6, r5, lsl #10
     500:	01060805 	tsteq	r6, r5, lsl #16
     504:	51060b05 	tstpl	r6, r5, lsl #22
     508:	4b030805 	blmi	c2524 <__bss_end__+0xb76a4>
     50c:	14050501 	strne	r0, [r5], #-1281	; 0xfffffaff
     510:	01060805 	tsteq	r6, r5, lsl #16
     514:	4b060905 	blmi	182930 <__bss_end__+0x177ab0>
     518:	01061105 	tsteq	r6, r5, lsl #2
     51c:	030b052e 	movweq	r0, #46382	; 0xb52e
     520:	09050132 	stmdbeq	r5, {r1, r4, r5, r8}
     524:	0c054c06 	stceq	12, cr4, [r5], {6}
     528:	0b050106 	bleq	140948 <__bss_end__+0x135ac8>
     52c:	08056406 	stmdaeq	r5, {r1, r2, sl, sp, lr}
     530:	05014b03 	streq	r4, [r1, #-2819]	; 0xfffff4fd
     534:	08051405 	stmdaeq	r5, {r0, r2, sl, ip}
     538:	054a0106 	strbeq	r0, [sl, #-262]	; 0xfffffefa
     53c:	3c030605 	stccc	6, cr0, [r3], {5}
     540:	2e060101 	adfcss	f0, f6, f1
     544:	09059e06 	stmdbeq	r5, {r1, r2, r9, sl, fp, ip, pc}
     548:	052e7203 	streq	r7, [lr, #-515]!	; 0xfffffdfd
     54c:	2e01060c 	cfmadd32cs	mvax0, mvfx0, mvfx1, mvfx12
     550:	2f060905 	svccs	0x00060905
     554:	0d030505 	cfstr32eq	mvfx0, [r3, #-20]	; 0xffffffec
     558:	06010601 	streq	r0, [r1], -r1, lsl #12
     55c:	05011103 	streq	r1, [r1, #-259]	; 0xfffffefd
     560:	052f0601 	streq	r0, [pc, #-1537]!	; ffffff67 <__bss_end__+0xffff50e7>
     564:	0d054905 	vstreq.16	s8, [r5, #-10]	; <UNPREDICTABLE>
     568:	2e6a0306 	cdpcs	3, 6, cr0, cr10, cr6, {0}
     56c:	01061b05 	tsteq	r6, r5, lsl #22
     570:	052e1805 	streq	r1, [lr, #-2053]!	; 0xfffff7fb
     574:	062f060d 	strteq	r0, [pc], -sp, lsl #12
     578:	0609052e 	streq	r0, [r9], -lr, lsr #10
     57c:	01010f03 	tsteq	r1, r3, lsl #30
     580:	0505669e 	streq	r6, [r5, #-1694]	; 0xfffff962
     584:	05d60131 	ldrbeq	r0, [r6, #305]	; 0x131
     588:	080a0301 	stmdaeq	sl, {r0, r8, r9}
     58c:	13050590 	movwne	r0, #21904	; 0x5590
     590:	11060105 	tstne	r6, r5, lsl #2
     594:	4b10054a 	blmi	401ac4 <__bss_end__+0x3f6c44>
     598:	052d0105 	streq	r0, [sp, #-261]!	; 0xfffffefb
     59c:	05052f10 	streq	r2, [r5, #-3856]	; 0xfffff0f0
     5a0:	2d10052f 	cfldr32cs	mvfx0, [r0, #-188]	; 0xffffff44
     5a4:	2f060505 	svccs	0x00060505
     5a8:	0612054c 	ldreq	r0, [r2], -ip, asr #10
     5ac:	2d0e0514 	cfstr32cs	mvfx0, [lr, #-80]	; 0xffffffb0
     5b0:	052f1205 	streq	r1, [pc, #-517]!	; 3b3 <__code_start__-0x7c4d>
     5b4:	05052d0e 	streq	r2, [r5, #-3342]	; 0xfffff2f2
     5b8:	14062f06 	strne	r2, [r6], #-3846	; 0xfffff0fa
     5bc:	052c1205 	streq	r1, [ip, #-517]!	; 0xfffffdfb
     5c0:	01300605 	teqeq	r0, r5, lsl #12
     5c4:	05148282 	ldreq	r8, [r4, #-642]	; 0xfffffd7e
     5c8:	05160601 	ldreq	r0, [r6, #-1537]	; 0xfffff9ff
     5cc:	05052a0d 	streq	r2, [r5, #-2573]	; 0xfffff5f3
     5d0:	10056706 	andne	r6, r5, r6, lsl #14
     5d4:	05050106 	streq	r0, [r5, #-262]	; 0xfffffefa
     5d8:	01053006 	tsteq	r5, r6
     5dc:	024a1306 	subeq	r1, sl, #402653184	; 0x18000000
     5e0:	01010006 	tsteq	r1, r6
     5e4:	0000023c 	andeq	r0, r0, ip, lsr r2
     5e8:	00640003 	rsbeq	r0, r4, r3
     5ec:	01020000 	mrseq	r0, (UNDEF: 2)
     5f0:	000d0efb 	strdeq	r0, [sp], -fp
     5f4:	01010101 	tsteq	r1, r1, lsl #2
     5f8:	01000000 	mrseq	r0, (UNDEF: 0)
     5fc:	2f010000 	svccs	0x00010000
     600:	72657355 	rsbvc	r7, r5, #1409286145	; 0x54000001
     604:	696d2f73 	stmdbvs	sp!, {r0, r1, r4, r5, r6, r8, r9, sl, fp, sp}^
     608:	2f73656c 	svccs	0x0073656c
     60c:	72756f53 	rsbsvc	r6, r5, #332	; 0x14c
     610:	632f6563 			; <UNDEFINED> instruction: 0x632f6563
     614:	30343273 	eorscc	r3, r4, r3, ror r2
     618:	6c2f786c 	stcvs	8, cr7, [pc], #-432	; 470 <__code_start__-0x7b90>
     61c:	69706269 	ldmdbvs	r0!, {r0, r3, r5, r6, r9, sp, lr}^
     620:	636e692f 	cmnvs	lr, #770048	; 0xbc000
     624:	6564756c 	strbvs	r7, [r4, #-1388]!	; 0xfffffa94
     628:	726b0000 	rsbvc	r0, fp, #0, 0
     62c:	6c616d2d 	stclvs	13, cr6, [r1], #-180	; 0xffffff4c
     630:	2e636f6c 	cdpcs	15, 6, cr6, cr3, cr12, {3}
     634:	00000063 	andeq	r0, r0, r3, rrx
     638:	69707200 	ldmdbvs	r0!, {r9, ip, sp, lr}^
     63c:	0100682e 	tsteq	r0, lr, lsr #16
     640:	726b0000 	rsbvc	r0, fp, #0, 0
     644:	6c616d2d 	stclvs	13, cr6, [r1], #-180	; 0xffffff4c
     648:	2e636f6c 	cdpcs	15, 6, cr6, cr3, cr12, {3}
     64c:	00000068 	andeq	r0, r0, r8, rrx
     650:	01050000 	mrseq	r0, (UNDEF: 5)
     654:	44020500 	strmi	r0, [r2], #-1280	; 0xfffffb00
     658:	03000084 	movweq	r0, #132	; 0x84
     65c:	050100d3 	streq	r0, [r1, #-211]	; 0xffffff2d
     660:	05131302 	ldreq	r1, [r3, #-770]	; 0xfffffcfe
     664:	05100601 	ldreq	r0, [r0, #-1537]	; 0xfffff9ff
     668:	05053109 	streq	r3, [r5, #-265]	; 0xfffffef7
     66c:	0602052d 	streq	r0, [r2], -sp, lsr #10
     670:	0609052f 	streq	r0, [r9], -pc, lsr #10
     674:	2e020501 	cfsh32cs	mvfx0, mvfx2, #1
     678:	02001205 	andeq	r1, r0, #1342177280	; 0x50000000
     67c:	052e0304 	streq	r0, [lr, #-772]!	; 0xfffffcfc
     680:	01054b06 	tsteq	r5, r6, lsl #22
     684:	01040200 	mrseq	r0, R12_usr
     688:	00120546 	andseq	r0, r2, r6, asr #10
     68c:	06010402 	streq	r0, [r1], -r2, lsl #8
     690:	00030531 	andeq	r0, r3, r1, lsr r5
     694:	13010402 	movwne	r0, #5122	; 0x1402
     698:	01040200 	mrseq	r0, R12_usr
     69c:	00020501 	andeq	r0, r2, r1, lsl #10
     6a0:	06010402 	streq	r0, [r1], -r2, lsl #8
     6a4:	00100511 	andseq	r0, r0, r1, lsl r5
     6a8:	2f010402 	svccs	0x00010402
     6ac:	02000205 	andeq	r0, r0, #1342177280	; 0x50000000
     6b0:	052d0104 	streq	r0, [sp, #-260]!	; 0xfffffefc
     6b4:	20052f06 	andcs	r2, r5, r6, lsl #30
     6b8:	02040200 	andeq	r0, r4, #0, 4
     6bc:	0602054a 	streq	r0, [r2], -sl, asr #10
     6c0:	0610054c 	ldreq	r0, [r0], -ip, asr #10
     6c4:	03080501 	movweq	r0, #34049	; 0x8501
     6c8:	09052e0e 	stmdbeq	r5, {r1, r2, r3, r9, sl, fp, sp}
     6cc:	052e7203 	streq	r7, [lr, #-515]!	; 0xfffffdfd
     6d0:	03052e05 	movweq	r2, #24069	; 0x5e05
     6d4:	1a053006 	bne	14c6f4 <__bss_end__+0x141874>
     6d8:	0e051306 	cdpeq	3, 0, cr1, cr5, cr6, {0}
     6dc:	0603052d 	streq	r0, [r3], -sp, lsr #10
     6e0:	060e054b 	streq	r0, [lr], -fp, asr #10
     6e4:	06020516 			; <UNDEFINED> instruction: 0x06020516
     6e8:	0608054a 	streq	r0, [r8], -sl, asr #10
     6ec:	2e050501 	cfsh32cs	mvfx0, mvfx5, #1
     6f0:	30060305 	andcc	r0, r6, r5, lsl #6
     6f4:	13060c05 	movwne	r0, #27653	; 0x6c05
     6f8:	052d0d05 	streq	r0, [sp, #-3333]!	; 0xfffff2fb
     6fc:	054b0603 	strbeq	r0, [fp, #-1539]	; 0xfffff9fd
     700:	01053202 	tsteq	r5, r2, lsl #4
     704:	03061306 	movweq	r1, #25350	; 0x6306
     708:	02054a43 	andeq	r4, r5, #274432	; 0x43000
     70c:	05141313 	ldreq	r1, [r4, #-787]	; 0xfffffced
     710:	050e0601 	streq	r0, [lr, #-1537]	; 0xfffff9ff
     714:	2405330d 	strcs	r3, [r5], #-781	; 0xfffffcf3
     718:	2f0d052d 	svccs	0x000d052d
     71c:	052d2905 	streq	r2, [sp, #-2309]!	; 0xfffff6fb
     720:	09052f05 	stmdbeq	r5, {r0, r2, r8, r9, sl, fp, sp}
     724:	0602052d 	streq	r0, [r2], -sp, lsr #10
     728:	0605052f 	streq	r0, [r5], -pc, lsr #10
     72c:	06020501 	streq	r0, [r2], -r1, lsl #10
     730:	06090534 			; <UNDEFINED> instruction: 0x06090534
     734:	06030501 	streq	r0, [r3], -r1, lsl #10
     738:	060b0530 			; <UNDEFINED> instruction: 0x060b0530
     73c:	2e060501 	cfsh32cs	mvfx0, mvfx6, #1
     740:	67030205 	strvs	r0, [r3, -r5, lsl #4]
     744:	1a05664a 	bne	15a074 <__bss_end__+0x14f1f4>
     748:	01170306 	tsteq	r7, r6, lsl #6
     74c:	01062705 	tsteq	r6, r5, lsl #14
     750:	2e061805 	cdpcs	8, 0, cr1, cr6, cr5, {0}
     754:	05140305 	ldreq	r0, [r4, #-773]	; 0xfffffcfb
     758:	0501060b 	streq	r0, [r1, #-1547]	; 0xfffff9f5
     75c:	03052e06 	movweq	r2, #24070	; 0x5e06
     760:	4a0f0306 	bmi	3c1380 <__bss_end__+0x3b6500>
     764:	01060605 	tsteq	r6, r5, lsl #12
     768:	68060405 	stmdavs	r6, {r0, r2, sl}
     76c:	52031005 	andpl	r1, r3, #5, 0
     770:	14020501 	strne	r0, [r2], #-1281	; 0xfffffaff
     774:	0d056714 	stceq	7, cr6, [r5, #-80]	; 0xffffffb0
     778:	02050106 	andeq	r0, r5, #-2147483647	; 0x80000001
     77c:	0d054d06 	stceq	13, cr4, [r5, #-24]	; 0xffffffe8
     780:	02050f06 	andeq	r0, r5, #6, 30
     784:	05152f06 	ldreq	r2, [r5, #-3846]	; 0xfffff0fa
     788:	050f0605 	streq	r0, [pc, #-1541]	; 18b <__code_start__-0x7e75>
     78c:	05053202 	streq	r3, [r5, #-514]	; 0xfffffdfe
     790:	310d052a 	tstcc	sp, sl, lsr #10
     794:	2f060205 	svccs	0x00060205
     798:	0609052f 	streq	r0, [r9], -pc, lsr #10
     79c:	07052e01 	streq	r2, [r5, -r1, lsl #28]
     7a0:	05012303 	streq	r2, [r1, #-771]	; 0xfffffcfd
     7a4:	4a6d0327 	bmi	1b41448 <__bss_end__+0x1b365c8>
     7a8:	4a061a05 	bmi	186fc4 <__bss_end__+0x17c144>
     7ac:	05011805 	streq	r1, [r1, #-2053]	; 0xfffff7fb
     7b0:	0b051403 	bleq	1457c4 <__bss_end__+0x13a944>
     7b4:	06050106 	streq	r0, [r5], -r6, lsl #2
     7b8:	0604052e 	streq	r0, [r4], -lr, lsr #10
     7bc:	0607054c 	streq	r0, [r7], -ip, asr #10
     7c0:	06050501 	streq	r0, [r5], -r1, lsl #10
     7c4:	18051630 	stmdane	r5, {r4, r5, r9, sl, ip}
     7c8:	0f050e06 	svceq	0x00050e06
     7cc:	06050532 			; <UNDEFINED> instruction: 0x06050532
     7d0:	0607054b 	streq	r0, [r7], -fp, asr #10
     7d4:	06050501 	streq	r0, [r5], -r1, lsl #10
     7d8:	060f052f 	streq	r0, [pc], -pc, lsr #10
     7dc:	06040501 	streq	r0, [r4], -r1, lsl #10
     7e0:	06120530 			; <UNDEFINED> instruction: 0x06120530
     7e4:	05017803 	streq	r7, [r1, #-2051]	; 0xfffff7fd
     7e8:	0405360a 	streq	r3, [r5], #-1546	; 0xfffff9f6
     7ec:	0b052f06 	bleq	14c40c <__bss_end__+0x14158c>
     7f0:	0c050106 	stfeqs	f0, [r5], {6}
     7f4:	32010550 	andcc	r0, r1, #80, 10	; 0x14000000
     7f8:	03060305 	movweq	r0, #25349	; 0x6305
     7fc:	16052e63 	strne	r2, [r5], -r3, ror #28
     800:	0f050106 	svceq	0x00050106
     804:	3109052f 	tstcc	r9, pc, lsr #10
     808:	052b0f05 	streq	r0, [fp, #-3845]!	; 0xfffff0fb
     80c:	0e052d16 	mcreq	13, 0, r2, cr5, cr6, {0}
     810:	0603052e 	streq	r0, [r3], -lr, lsr #10
     814:	1502052f 	strne	r0, [r2, #-1327]	; 0xfffffad1
     818:	05140305 	ldreq	r0, [r4, #-773]	; 0xfffffcfb
     81c:	022e0606 	eoreq	r0, lr, #6291456	; 0x600000
     820:	01010008 	tsteq	r1, r8
     824:	0000059c 	muleq	r0, ip, r5
     828:	00d40003 	sbcseq	r0, r4, r3
     82c:	01020000 	mrseq	r0, (UNDEF: 2)
     830:	000d0efb 	strdeq	r0, [sp], -fp
     834:	01010101 	tsteq	r1, r1, lsl #2
     838:	01000000 	mrseq	r0, (UNDEF: 0)
     83c:	2f010000 	svccs	0x00010000
     840:	2f74706f 	svccs	0x0074706f
     844:	656d6f68 	strbvs	r6, [sp, #-3944]!	; 0xfffff098
     848:	77657262 	strbvc	r7, [r5, -r2, ror #4]!
     84c:	6c65432f 	stclvs	3, cr4, [r5], #-188	; 0xffffff44
     850:	2f72616c 	svccs	0x0072616c
     854:	2d6d7261 	sfmcs	f7, 2, [sp, #-388]!	; 0xfffffe7c
     858:	656e6f6e 	strbvs	r6, [lr, #-3950]!	; 0xfffff092
     85c:	6261652d 	rsbvs	r6, r1, #188743680	; 0xb400000
     860:	2f392d69 	svccs	0x00392d69
     864:	30322d39 	eorscc	r2, r2, r9, lsr sp
     868:	34713931 	ldrbtcc	r3, [r1], #-2353	; 0xfffff6cf
     86c:	3173632d 	cmncc	r3, sp, lsr #6
     870:	2f653730 	svccs	0x00653730
     874:	2f62696c 	svccs	0x0062696c
     878:	2f636367 	svccs	0x00636367
     87c:	2d6d7261 	sfmcs	f7, 2, [sp, #-388]!	; 0xfffffe7c
     880:	656e6f6e 	strbvs	r6, [lr, #-3950]!	; 0xfffff092
     884:	6261652d 	rsbvs	r6, r1, #188743680	; 0xb400000
     888:	2e392f69 	cdpcs	15, 3, cr2, cr9, cr9, {3}
     88c:	2f312e32 	svccs	0x00312e32
     890:	6c636e69 	stclvs	14, cr6, [r3], #-420	; 0xfffffe5c
     894:	00656475 	rsbeq	r6, r5, r5, ror r4
     898:	6573552f 	ldrbvs	r5, [r3, #-1327]!	; 0xfffffad1
     89c:	6d2f7372 	stcvs	3, cr7, [pc, #-456]!	; 6dc <__code_start__-0x7924>
     8a0:	73656c69 	cmnvc	r5, #26880	; 0x6900
     8a4:	756f532f 	strbvc	r5, [pc, #-815]!	; 57d <__code_start__-0x7a83>
     8a8:	2f656372 	svccs	0x00656372
     8ac:	34327363 	ldrtcc	r7, [r2], #-867	; 0xfffffc9d
     8b0:	2f786c30 	svccs	0x00786c30
     8b4:	7062696c 	rsbvc	r6, r2, ip, ror #18
     8b8:	6e692f69 	cdpvs	15, 6, cr2, cr9, cr9, {3}
     8bc:	64756c63 	ldrbtvs	r6, [r5], #-3171	; 0xfffff39d
     8c0:	63000065 	movwvs	r0, #101	; 0x65
     8c4:	63672d6b 	cmnvs	r7, #6848	; 0x1ac0
     8c8:	0000632e 	andeq	r6, r0, lr, lsr #6
     8cc:	72730000 	rsbsvc	r0, r3, #0, 0
     8d0:	6f6c2d63 	svcvs	0x006c2d63
     8d4:	00682e63 	rsbeq	r2, r8, r3, ror #28
     8d8:	73000000 	movwvc	r0, #0
     8dc:	6e696474 	mcrvs	4, 3, r6, cr9, cr4, {3}
     8e0:	63672d74 	cmnvs	r7, #116, 26	; 0x1d00
     8e4:	00682e63 	rsbeq	r2, r8, r3, ror #28
     8e8:	72000001 	andvc	r0, r0, #1, 0
     8ec:	682e6970 	stmdavs	lr!, {r4, r5, r6, r8, fp, sp, lr}
     8f0:	00000200 	andeq	r0, r0, r0, lsl #4
     8f4:	6c616b63 			; <UNDEFINED> instruction: 0x6c616b63
     8f8:	2e636f6c 	cdpcs	15, 6, cr6, cr3, cr12, {3}
     8fc:	00000068 	andeq	r0, r0, r8, rrx
     900:	01050000 	mrseq	r0, (UNDEF: 5)
     904:	cc020500 	cfstr32gt	mvfx0, [r2], {-0}
     908:	03000085 	movweq	r0, #133	; 0x85
     90c:	050100d0 	streq	r0, [r1, #-208]	; 0xffffff30
     910:	05011305 	streq	r1, [r1, #-773]	; 0xfffffcfb
     914:	05110601 	ldreq	r0, [r1, #-1537]	; 0xfffff9ff
     918:	01052f05 	tsteq	r5, r5, lsl #30
     91c:	2f050565 	svccs	0x00050565
     920:	02040200 	andeq	r0, r4, #0, 4
     924:	02002e06 	andeq	r2, r0, #96	; 0x60
     928:	00010204 	andeq	r0, r1, r4, lsl #4
     92c:	15020402 	strne	r0, [r2, #-1026]	; 0xfffffbfe
     930:	02040200 	andeq	r0, r4, #0, 4
     934:	04020001 	streq	r0, [r2], #-1
     938:	02006602 	andeq	r6, r0, #2097152	; 0x200000
     93c:	00010204 	andeq	r0, r1, r4, lsl #4
     940:	13020402 	movwne	r0, #9218	; 0x2402
     944:	02040200 	andeq	r0, r4, #0, 4
     948:	04020001 	streq	r0, [r2], #-1
     94c:	059e0602 	ldreq	r0, [lr, #1538]	; 0x602
     950:	6609030d 	strvs	r0, [r9], -sp, lsl #6
     954:	030b054a 	movweq	r0, #46410	; 0xb54a
     958:	0805015f 	stmdaeq	r5, {r0, r1, r2, r3, r4, r6, r8}
     95c:	4a2e7003 	bmi	b9c970 <__bss_end__+0xb91af0>
     960:	03060905 	movweq	r0, #26885	; 0x6905
     964:	0805012c 	stmdaeq	r5, {r2, r3, r5, r8}
     968:	01540306 	cmpeq	r4, r6, lsl #6
     96c:	060f054a 	streq	r0, [pc], -sl, asr #10
     970:	05010e03 	streq	r0, [r1, #-3587]	; 0xfffff1fd
     974:	05141405 	ldreq	r1, [r4, #-1029]	; 0xfffffbfb
     978:	016b030c 	cmneq	fp, ip, lsl #6
     97c:	05150505 	ldreq	r0, [r5, #-1285]	; 0xfffffafb
     980:	05010608 	streq	r0, [r1, #-1544]	; 0xfffff9f8
     984:	05662e18 	strbeq	r2, [r6, #-3608]!	; 0xfffff1e8
     988:	14030605 	strne	r0, [r3], #-1541	; 0xfffff9fb
     98c:	060c0501 	streq	r0, [ip], -r1, lsl #10
     990:	09052e01 	stmdbeq	r5, {r0, r9, sl, fp, sp}
     994:	01190306 	tsteq	r9, r6, lsl #6
     998:	01060c05 	tsteq	r6, r5, lsl #24
     99c:	4c060d05 	stcmi	13, cr0, [r6], {5}
     9a0:	13061605 	movwne	r1, #26117	; 0x6605
     9a4:	052f0d05 	streq	r0, [pc, #-3333]!	; fffffca7 <__bss_end__+0xffff4e27>
     9a8:	0d052c29 	stceq	12, cr2, [r5, #-164]	; 0xffffff5c
     9ac:	bb132f06 	bllt	4cc5cc <__bss_end__+0x4c174c>
     9b0:	01061005 	tsteq	r6, r5
     9b4:	4c061105 	stfmis	f1, [r6], {5}
     9b8:	01061905 	tsteq	r6, r5, lsl #18
     9bc:	052f1105 	streq	r1, [pc, #-261]!	; 8bf <__code_start__-0x7741>
     9c0:	11052d19 	tstne	r5, r9, lsl sp
     9c4:	05690667 	strbeq	r0, [r9, #-1639]!	; 0xfffff999
     9c8:	4a010614 	bmi	42220 <__bss_end__+0x373a0>
     9cc:	03062305 	movweq	r2, #25349	; 0x6305
     9d0:	1b050172 	blne	140fa0 <__bss_end__+0x136120>
     9d4:	06050501 	streq	r0, [r5], -r1, lsl #10
     9d8:	01054a01 	tsteq	r5, r1, lsl #20
     9dc:	05011903 	streq	r1, [r1, #-2307]	; 0xfffff6fd
     9e0:	06460611 			; <UNDEFINED> instruction: 0x06460611
     9e4:	0623054a 	strteq	r0, [r3], -sl, asr #10
     9e8:	05016b03 	streq	r6, [r1, #-2819]	; 0xfffff4fd
     9ec:	0505011b 	streq	r0, [r5, #-283]	; 0xfffffee5
     9f0:	15050106 	strne	r0, [r5, #-262]	; 0xfffffefa
     9f4:	66100306 	ldrvs	r0, [r0], -r6, lsl #6
     9f8:	23059e06 	movwcs	r9, #24070	; 0x5e06
     9fc:	01700306 	cmneq	r0, r6, lsl #6
     a00:	05011b05 	streq	r1, [r1, #-2821]	; 0xfffff4fb
     a04:	66010605 	strvs	r0, [r1], -r5, lsl #12
     a08:	01040200 	mrseq	r0, R12_usr
     a0c:	02000f06 	andeq	r0, r0, #6, 30
     a10:	00010104 	andeq	r0, r1, r4, lsl #2
     a14:	06010402 	streq	r0, [r1], -r2, lsl #8
     a18:	0402004a 	streq	r0, [r2], #-74	; 0xffffffb6
     a1c:	02002e01 	andeq	r2, r0, #1, 28
     a20:	004a0104 	subeq	r0, sl, r4, lsl #2
     a24:	06010402 	streq	r0, [r1], -r2, lsl #8
     a28:	0301054a 	movweq	r0, #5450	; 0x154a
     a2c:	05580825 	ldrbeq	r0, [r8, #-2085]	; 0xfffff7db
     a30:	0a051605 	beq	14624c <__bss_end__+0x13b3cc>
     a34:	06010501 	streq	r0, [r1], -r1, lsl #10
     a38:	4e15050e 	cfmul32mi	mvfx0, mvfx5, mvfx14
     a3c:	2e062505 	cfsh32cs	mvfx2, mvfx6, #5
     a40:	01060505 	tsteq	r6, r5, lsl #10
     a44:	3032052e 	eorscc	r0, r2, lr, lsr #10
     a48:	02000905 	andeq	r0, r0, #81920	; 0x14000
     a4c:	2e060304 	cdpcs	3, 0, cr0, cr6, cr4, {0}
     a50:	02003205 	andeq	r3, r0, #1342177280	; 0x50000000
     a54:	01060304 	tsteq	r6, r4, lsl #6
     a58:	02002105 	andeq	r2, r0, #1073741825	; 0x40000001
     a5c:	052e0304 	streq	r0, [lr, #-772]!	; 0xfffffcfc
     a60:	04020011 	streq	r0, [r2], #-17	; 0xffffffef
     a64:	28052e03 	stmdacs	r5, {r0, r1, r9, sl, fp, sp}
     a68:	03040200 	movweq	r0, #16896	; 0x4200
     a6c:	2c052c06 	stccs	12, cr2, [r5], {6}
     a70:	03040200 	movweq	r0, #16896	; 0x4200
     a74:	25050106 	strcs	r0, [r5, #-262]	; 0xfffffefa
     a78:	03040200 	movweq	r0, #16896	; 0x4200
     a7c:	05052e06 	streq	r2, [r5, #-3590]	; 0xfffff1fa
     a80:	03040200 	movweq	r0, #16896	; 0x4200
     a84:	02000106 	andeq	r0, r0, #-2147483647	; 0x80000001
     a88:	002e0304 	eoreq	r0, lr, r4, lsl #6
     a8c:	2e030402 	cdpcs	4, 0, cr0, cr3, cr2, {0}
     a90:	06131906 	ldreq	r1, [r3], -r6, lsl #18
     a94:	1330062e 	teqne	r0, #48234496	; 0x2e00000
     a98:	0d051313 	stceq	3, cr1, [r5, #-76]	; 0xffffffb4
     a9c:	05050f06 	streq	r0, [r5, #-3846]	; 0xfffff0fa
     aa0:	054a0a03 	strbeq	r0, [sl, #-2563]	; 0xfffff5fd
     aa4:	4a76030d 	bmi	1d816e0 <__bss_end__+0x1d76860>
     aa8:	03060505 	movweq	r0, #25861	; 0x6505
     aac:	13324a0a 	teqne	r2, #40960	; 0xa000
     ab0:	68136983 	ldmdavs	r3, {r0, r1, r7, r8, fp, sp, lr}
     ab4:	06010513 			; <UNDEFINED> instruction: 0x06010513
     ab8:	05dc0667 	ldrbeq	r0, [ip, #1639]	; 0x667
     abc:	05131305 	ldreq	r1, [r3, #-773]	; 0xfffffcfb
     ac0:	2e100601 	cfmsub32cs	mvax0, mvfx0, mvfx0, mvfx1
     ac4:	2e300505 	cdpcs	5, 3, cr0, cr0, cr5, {0}
     ac8:	2f4c2f06 	svccs	0x004c2f06
     acc:	05010a05 	streq	r0, [r1, #-2565]	; 0xfffff5fb
     ad0:	05010615 	streq	r0, [r1, #-1557]	; 0xfffff9eb
     ad4:	052e0625 	streq	r0, [lr, #-1573]!	; 0xfffff9db
     ad8:	05010605 	streq	r0, [r1, #-1541]	; 0xfffff9fb
     adc:	0d054527 	cfstr32eq	mvfx4, [r5, #-156]	; 0xffffff64
     ae0:	052e1003 	streq	r1, [lr, #-3]!
     ae4:	2e70031b 	mrccs	3, 3, r0, cr0, cr11, {0}
     ae8:	052e0e05 	streq	r0, [lr, #-3589]!	; 0xfffff1fb
     aec:	2e0b030d 	cdpcs	3, 0, cr0, cr11, cr13, {0}
     af0:	054c1105 	strbeq	r1, [ip, #-261]	; 0xfffffefb
     af4:	04020028 	streq	r0, [r2], #-40	; 0xffffffd8
     af8:	78030602 	stmdavc	r3, {r1, r9, sl}
     afc:	002c054a 	eoreq	r0, ip, sl, asr #10
     b00:	06020402 	streq	r0, [r2], -r2, lsl #8
     b04:	00250501 	eoreq	r0, r5, r1, lsl #10
     b08:	06020402 	streq	r0, [r2], -r2, lsl #8
     b0c:	0005054a 	andeq	r0, r5, sl, asr #10
     b10:	06020402 	streq	r0, [r2], -r2, lsl #8
     b14:	06090501 	streq	r0, [r9], -r1, lsl #10
     b18:	180e054c 	stmdane	lr, {r2, r3, r6, r8, sl}
     b1c:	10050d06 	andne	r0, r5, r6, lsl #26
     b20:	0609052d 	streq	r0, [r9], -sp, lsr #10
     b24:	060c052f 	streq	r0, [ip], -pc, lsr #10
     b28:	060d0501 	streq	r0, [sp], -r1, lsl #10
     b2c:	6613064c 	ldrvs	r0, [r3], -ip, asr #12
     b30:	7a032c05 	bvc	cbb4c <__bss_end__+0xc0ccc>
     b34:	4a05052e 	bmi	141ff4 <__bss_end__+0x137174>
     b38:	05331305 	ldreq	r1, [r3, #-773]!	; 0xfffffcfb
     b3c:	052f060d 	streq	r0, [pc, #-1549]!	; 537 <__code_start__-0x7ac9>
     b40:	017a0328 	cmneq	sl, r8, lsr #6
     b44:	05012505 	streq	r2, [r1, #-1285]	; 0xfffffafb
     b48:	2e010605 	cfmadd32cs	mvax0, mvfx0, mvfx1, mvfx5
     b4c:	010f0306 	tsteq	pc, r6, lsl #6
     b50:	064a0601 	strbeq	r0, [sl], -r1, lsl #12
     b54:	0805132e 	stmdaeq	r5, {r1, r2, r3, r5, r8, r9, ip}
     b58:	09050106 	stmdbeq	r5, {r1, r2, r8}
     b5c:	00014d06 	andeq	r4, r1, r6, lsl #26
     b60:	82010402 	andhi	r0, r1, #33554432	; 0x2000000
     b64:	02000505 	andeq	r0, r0, #20971520	; 0x1400000
     b68:	00140104 	andseq	r0, r4, r4, lsl #2
     b6c:	4b010402 	blmi	41b7c <__bss_end__+0x36cfc>
     b70:	02000805 	andeq	r0, r0, #327680	; 0x50000
     b74:	01060104 	tsteq	r6, r4, lsl #2
     b78:	02001705 	andeq	r1, r0, #1310720	; 0x140000
     b7c:	05300104 	ldreq	r0, [r0, #-260]!	; 0xfffffefc
     b80:	04020001 	streq	r0, [r2], #-1
     b84:	0d053401 	cfstrseq	mvf3, [r5, #-4]
     b88:	4a6c0306 	bmi	1b017a8 <__bss_end__+0x1af6928>
     b8c:	19051306 	stmdbne	r5, {r1, r2, r8, r9, ip}
     b90:	060d0565 	streq	r0, [sp], -r5, ror #10
     b94:	054a062f 	strbeq	r0, [sl, #-1583]	; 0xfffff9d1
     b98:	01160605 	tsteq	r6, r5, lsl #12
     b9c:	2e064a06 	vmlacs.f32	s8, s12, s12
     ba0:	13090513 	movwne	r0, #38163	; 0x9513
     ba4:	01058201 	tsteq	r5, r1, lsl #4
     ba8:	087ed703 	ldmdaeq	lr!, {r0, r1, r8, r9, sl, ip, lr, pc}^
     bac:	13050520 	movwne	r0, #21792	; 0x5520
     bb0:	01050114 	tsteq	r5, r4, lsl r1
     bb4:	05050f06 	streq	r0, [r5, #-3846]	; 0xfffff0fa
     bb8:	2b010531 	blcs	42084 <__bss_end__+0x37204>
     bbc:	00310505 	eorseq	r0, r1, r5, lsl #10
     bc0:	06020402 	streq	r0, [r2], -r2, lsl #8
     bc4:	0402002e 	streq	r0, [r2], #-46	; 0xffffffd2
     bc8:	02000102 	andeq	r0, r0, #-2147483648	; 0x80000000
     bcc:	05130204 	ldreq	r0, [r3, #-516]	; 0xfffffdfc
     bd0:	04020009 	streq	r0, [r2], #-9
     bd4:	05010602 	streq	r0, [r1, #-1538]	; 0xfffff9fe
     bd8:	04020008 	streq	r0, [r2], #-8
     bdc:	09052e02 	stmdbeq	r5, {r1, r9, sl, fp, sp}
     be0:	13156706 	tstne	r5, #1572864	; 0x180000
     be4:	01061405 	tsteq	r6, r5, lsl #8
     be8:	052f1205 	streq	r1, [pc, #-517]!	; 9eb <__code_start__-0x7615>
     bec:	12052f09 	andne	r2, r5, #9, 30	; 0x24
     bf0:	0609052d 	streq	r0, [r9], -sp, lsr #10
     bf4:	10052f2f 	andne	r2, r5, pc, lsr #30
     bf8:	0c050106 	stfeqs	f0, [r5], {6}
     bfc:	2c100530 	cfldr32cs	mvfx0, [r0], {48}	; 0x30
     c00:	30060505 	andcc	r0, r6, r5, lsl #10
     c04:	13060105 	movwne	r0, #24837	; 0x6105
     c08:	05490c05 	strbeq	r0, [r9, #-3077]	; 0xfffff3fb
     c0c:	04020005 	streq	r0, [r2], #-5
     c10:	75030601 	strvc	r0, [r3, #-1537]	; 0xfffff9ff
     c14:	0402002e 	streq	r0, [r2], #-46	; 0xffffffd2
     c18:	02000101 	andeq	r0, r0, #1073741824	; 0x40000000
     c1c:	9e060104 	adflss	f0, f6, f4
     c20:	01040200 	mrseq	r0, R12_usr
     c24:	09054a06 	stmdbeq	r5, {r1, r2, r9, fp, lr}
     c28:	82060130 	andhi	r0, r6, #12
     c2c:	01052e06 	tsteq	r5, r6, lsl #28
     c30:	d601b603 	strle	fp, [r1], -r3, lsl #12
     c34:	05140505 	ldreq	r0, [r4, #-1285]	; 0xfffffafb
     c38:	2e01060c 	cfmadd32cs	mvax0, mvfx0, mvfx1, mvfx12
     c3c:	00060105 	andeq	r0, r6, r5, lsl #2
     c40:	898c0205 	stmibhi	ip, {r0, r2, r9}
     c44:	05170000 	ldreq	r0, [r7, #-0]
     c48:	01051605 	tsteq	r5, r5, lsl #12
     c4c:	05050e06 	streq	r0, [r5, #-3590]	; 0xfffff1fa
     c50:	05130632 	ldreq	r0, [r3, #-1586]	; 0xfffff9ce
     c54:	0173030a 	cmneq	r3, sl, lsl #6
     c58:	05150505 	ldreq	r0, [r5, #-1285]	; 0xfffffafb
     c5c:	4a01060c 	bmi	42494 <__bss_end__+0x37614>
     c60:	0a030805 	beq	c2c7c <__bss_end__+0xb7dfc>
     c64:	06090501 	streq	r0, [r9], -r1, lsl #10
     c68:	4a01144b 	bmi	45d9c <__bss_end__+0x3af1c>
     c6c:	05130505 	ldreq	r0, [r3, #-1285]	; 0xfffffafb
     c70:	05130601 	ldreq	r0, [r3, #-1537]	; 0xfffff9ff
     c74:	012a0609 			; <UNDEFINED> instruction: 0x012a0609
     c78:	a601059e 			; <UNDEFINED> instruction: 0xa601059e
     c7c:	05160505 	ldreq	r0, [r6, #-1285]	; 0xfffffafb
     c80:	050e0601 	streq	r0, [lr, #-1537]	; 0xfffff9ff
     c84:	13063205 	movwne	r3, #25093	; 0x6205
     c88:	65030a05 	strvs	r0, [r3, #-2565]	; 0xfffff5fb
     c8c:	15050501 	strne	r0, [r5, #-1281]	; 0xfffffaff
     c90:	01060c05 	tsteq	r6, r5, lsl #24
     c94:	0605054a 	streq	r0, [r5], -sl, asr #10
     c98:	05011903 	streq	r1, [r1, #-2307]	; 0xfffff6fd
     c9c:	05010608 	streq	r0, [r1, #-1544]	; 0xfffff9f8
     ca0:	144b0609 	strbne	r0, [fp], #-1545	; 0xfffff9f7
     ca4:	064a0601 	strbeq	r0, [sl], -r1, lsl #12
     ca8:	1305052e 	movwne	r0, #21806	; 0x552e
     cac:	06010513 			; <UNDEFINED> instruction: 0x06010513
     cb0:	06090513 			; <UNDEFINED> instruction: 0x06090513
     cb4:	059e0145 	ldreq	r0, [lr, #325]	; 0x145
     cb8:	9e210301 	cdpls	3, 2, cr0, cr1, cr1, {0}
     cbc:	05130505 	ldreq	r0, [r3, #-1285]	; 0xfffffafb
     cc0:	05110601 	ldreq	r0, [r1, #-1537]	; 0xfffff9ff
     cc4:	2f064b05 	svccs	0x00064b05
     cc8:	65031105 	strvs	r1, [r3, #-261]	; 0xfffffefb
     ccc:	14050501 	strne	r0, [r5], #-1281	; 0xfffffaff
     cd0:	2f4c4b13 	svccs	0x004c4b13
     cd4:	05010a05 	streq	r0, [r1, #-2565]	; 0xfffff5fb
     cd8:	05010615 	streq	r0, [r1, #-1557]	; 0xfffff9eb
     cdc:	052e0625 	streq	r0, [lr, #-1573]!	; 0xfffff9db
     ce0:	05010605 	streq	r0, [r1, #-1541]	; 0xfffff9fb
     ce4:	1b054527 	blne	152188 <__bss_end__+0x147308>
     ce8:	2e0e052e 	cfsh32cs	mvfx0, mvfx14, #30
     cec:	0c050204 	sfmeq	f0, 4, [r5], {4}
     cf0:	2e7e9803 	cdpcs	8, 7, cr9, cr14, cr3, {0}
     cf4:	0d050104 	stfeqs	f0, [r5, #-16]
     cf8:	4a01f503 	bmi	7e10c <__bss_end__+0x7328c>
     cfc:	03060905 	movweq	r0, #26885	; 0x6905
     d00:	28052e7a 	stmdacs	r5, {r1, r3, r4, r5, r6, r9, sl, fp, sp}
     d04:	060c0510 			; <UNDEFINED> instruction: 0x060c0510
     d08:	2d100515 	cfldr32cs	mvfx0, [r0, #-84]	; 0xffffffac
     d0c:	2f060905 	svccs	0x00060905
     d10:	01060c05 	tsteq	r6, r5, lsl #24
     d14:	05472c05 	strbeq	r2, [r7, #-3077]	; 0xfffff3fb
     d18:	054a0625 	strbeq	r0, [sl, #-1573]	; 0xfffff9db
     d1c:	4a010605 	bmi	42538 <__bss_end__+0x376b8>
     d20:	010c0306 	tsteq	ip, r6, lsl #6
     d24:	06149e01 	ldreq	r9, [r4], -r1, lsl #28
     d28:	0a030601 	beq	c2534 <__bss_end__+0xb76b4>
     d2c:	06010501 	streq	r0, [r1], -r1, lsl #10
     d30:	060d0513 			; <UNDEFINED> instruction: 0x060d0513
     d34:	04666c03 	strbteq	r6, [r6], #-3075	; 0xfffff3fd
     d38:	060c0502 	streq	r0, [ip], -r2, lsl #10
     d3c:	017e8e03 	cmneq	lr, r3, lsl #28
     d40:	1a050104 	bne	141158 <__bss_end__+0x1362d8>
     d44:	2e01f303 	cdpcs	3, 0, cr15, cr1, cr3, {0}
     d48:	0c050204 	sfmeq	f0, 4, [r5], {4}
     d4c:	2e7e8d03 	cdpcs	13, 7, cr8, cr14, cr3, {0}
     d50:	0d050104 	stfeqs	f0, [r5, #-16]
     d54:	2e01f403 	cdpcs	4, 0, cr15, cr1, cr3, {0}
     d58:	0c050204 	sfmeq	f0, 4, [r5], {4}
     d5c:	2e7e8c03 	cdpcs	12, 7, cr8, cr14, cr3, {0}
     d60:	0d050104 	stfeqs	f0, [r5, #-16]
     d64:	4a01f403 	bmi	7dd78 <__bss_end__+0x72ef8>
     d68:	05651a05 	strbeq	r1, [r5, #-2565]!	; 0xfffff5fb
     d6c:	052f2f0d 	streq	r2, [pc, #-3853]!	; fffffe67 <__bss_end__+0xffff4fe7>
     d70:	6678032c 	ldrbtvs	r0, [r8], -ip, lsr #6
     d74:	054a0505 	strbeq	r0, [sl, #-1285]	; 0xfffffafb
     d78:	0d053313 	stceq	3, cr3, [r5, #-76]	; 0xffffffb4
     d7c:	04132f06 	ldreq	r2, [r3], #-3846	; 0xfffff0fa
     d80:	030b0502 	movweq	r0, #46338	; 0xb502
     d84:	05017e8b 	streq	r7, [r1, #-3723]	; 0xfffff175
     d88:	01061305 	tsteq	r6, r5, lsl #6
     d8c:	0d050104 	stfeqs	f0, [r5, #-16]
     d90:	01f50306 	mvnseq	r0, r6, lsl #6
     d94:	03280501 			; <UNDEFINED> instruction: 0x03280501
     d98:	25050178 	strcs	r0, [r5, #-376]	; 0xfffffe88
     d9c:	06050501 	streq	r0, [r5], -r1, lsl #10
     da0:	27054a01 	strcs	r4, [r5, -r1, lsl #20]
     da4:	2e1b050d 	cfmul32cs	mvfx0, mvfx11, mvfx13
     da8:	052e0e05 	streq	r0, [lr, #-3589]!	; 0xfffff1fb
     dac:	21030601 	tstcs	r3, r1, lsl #12
     db0:	05052008 	streq	r2, [r5, #-8]
     db4:	01050113 	tsteq	r5, r3, lsl r1
     db8:	05051106 	streq	r1, [r5, #-262]	; 0xfffffefa
     dbc:	029e062f 	addseq	r0, lr, #49283072	; 0x2f00000
     dc0:	0101000a 	tsteq	r1, sl
     dc4:	00000121 	andeq	r0, r0, r1, lsr #2
     dc8:	00be0003 	adcseq	r0, lr, r3
     dcc:	01020000 	mrseq	r0, (UNDEF: 2)
     dd0:	000d0efb 	strdeq	r0, [sp], -fp
     dd4:	01010101 	tsteq	r1, r1, lsl #2
     dd8:	01000000 	mrseq	r0, (UNDEF: 0)
     ddc:	2e010000 	cdpcs	0, 0, cr0, cr1, cr0, {0}
     de0:	62696c2f 	rsbvs	r6, r9, #12032	; 0x2f00
     de4:	552f0063 	strpl	r0, [pc, #-99]!	; d89 <__code_start__-0x7277>
     de8:	73726573 	cmnvc	r2, #482344960	; 0x1cc00000
     dec:	6c696d2f 	stclvs	13, cr6, [r9], #-188	; 0xffffff44
     df0:	532f7365 			; <UNDEFINED> instruction: 0x532f7365
     df4:	6372756f 	cmnvs	r2, #465567744	; 0x1bc00000
     df8:	73632f65 	cmnvc	r3, #404	; 0x194
     dfc:	6c303432 	cfldrsvs	mvf3, [r0], #-200	; 0xffffff38
     e00:	696c2f78 	stmdbvs	ip!, {r3, r4, r5, r6, r8, r9, sl, fp, sp}^
     e04:	2f697062 	svccs	0x00697062
     e08:	6c636e69 	stclvs	14, cr6, [r3], #-420	; 0xfffffe5c
     e0c:	00656475 	rsbeq	r6, r5, r5, ror r4
     e10:	74706f2f 	ldrbtvc	r6, [r0], #-3887	; 0xfffff0d1
     e14:	6d6f682f 	stclvs	8, cr6, [pc, #-188]!	; d60 <__code_start__-0x72a0>
     e18:	65726265 	ldrbvs	r6, [r2, #-613]!	; 0xfffffd9b
     e1c:	65432f77 	strbvs	r2, [r3, #-3959]	; 0xfffff089
     e20:	72616c6c 	rsbvc	r6, r1, #108, 24	; 0x6c00
     e24:	6d72612f 	ldfvse	f6, [r2, #-188]!	; 0xffffff44
     e28:	6e6f6e2d 	cdpvs	14, 6, cr6, cr15, cr13, {1}
     e2c:	61652d65 	cmnvs	r5, r5, ror #26
     e30:	392d6962 	pushcc	{r1, r5, r6, r8, fp, sp, lr}
     e34:	322d392f 	eorcc	r3, sp, #770048	; 0xbc000
     e38:	71393130 	teqvc	r9, r0, lsr r1
     e3c:	73632d34 	cmnvc	r3, #52, 26	; 0xd00
     e40:	65373031 	ldrvs	r3, [r7, #-49]!	; 0xffffffcf
     e44:	62696c2f 	rsbvs	r6, r9, #12032	; 0x2f00
     e48:	6363672f 	cmnvs	r3, #12320768	; 0xbc0000
     e4c:	6d72612f 	ldfvse	f6, [r2, #-188]!	; 0xffffff44
     e50:	6e6f6e2d 	cdpvs	14, 6, cr6, cr15, cr13, {1}
     e54:	61652d65 	cmnvs	r5, r5, ror #26
     e58:	392f6962 	stmdbcc	pc!, {r1, r5, r6, r8, fp, sp, lr}	; <UNPREDICTABLE>
     e5c:	312e322e 			; <UNDEFINED> instruction: 0x312e322e
     e60:	636e692f 	cmnvs	lr, #770048	; 0xbc000
     e64:	6564756c 	strbvs	r7, [r4, #-1388]!	; 0xfffffa94
     e68:	656d0000 	strbvs	r0, [sp, #-0]!
     e6c:	7465736d 	strbtvc	r7, [r5], #-877	; 0xfffffc93
     e70:	0100632e 	tsteq	r0, lr, lsr #6
     e74:	70720000 	rsbsvc	r0, r2, r0
     e78:	00682e69 	rsbeq	r2, r8, r9, ror #28
     e7c:	73000002 	movwvc	r0, #2
     e80:	65646474 	strbvs	r6, [r4, #-1140]!	; 0xfffffb8c
     e84:	00682e66 	rsbeq	r2, r8, r6, ror #28
     e88:	00000003 	andeq	r0, r0, r3
     e8c:	05002905 	streq	r2, [r0, #-2309]	; 0xfffff6fb
     e90:	008b5802 	addeq	r5, fp, r2, lsl #16
     e94:	05051500 	streq	r1, [r5, #-1280]	; 0xfffffb00
     e98:	06290513 			; <UNDEFINED> instruction: 0x06290513
     e9c:	2f140511 	svccs	0x00140511
     ea0:	30060505 	andcc	r0, r6, r5, lsl #10
     ea4:	06010a05 	streq	r0, [r1], -r5, lsl #20
     ea8:	0609059e 			; <UNDEFINED> instruction: 0x0609059e
     eac:	060e05d7 			; <UNDEFINED> instruction: 0x060e05d7
     eb0:	060a0501 	streq	r0, [sl], -r1, lsl #10
     eb4:	bb09052d 	bllt	242370 <__bss_end__+0x2374f0>
     eb8:	01060e05 	tsteq	r6, r5, lsl #28
     ebc:	060a052e 	streq	r0, [sl], -lr, lsr #10
     ec0:	4b09052d 	blmi	24237c <__bss_end__+0x2374fc>
     ec4:	01060b05 	tsteq	r6, r5, lsl #22
     ec8:	052d0a05 	streq	r0, [sp, #-2565]!	; 0xfffff5fb
     ecc:	0a052f0e 	beq	14cb0c <__bss_end__+0x141c8c>
     ed0:	0e052d06 	cdpeq	13, 0, cr2, cr5, cr6, {0}
     ed4:	09051306 	stmdbeq	r5, {r1, r2, r8, r9, ip}
     ed8:	0a052e06 	beq	14c6f8 <__bss_end__+0x141878>
     edc:	14050511 	strne	r0, [r5], #-1297	; 0xfffffaef
     ee0:	13060105 	movwne	r0, #24837	; 0x6105
     ee4:	01000202 	tsteq	r0, r2, lsl #4
     ee8:	00012001 	andeq	r2, r1, r1
     eec:	db000300 	blle	1af4 <__code_start__-0x650c>
     ef0:	02000000 	andeq	r0, r0, #0, 0
     ef4:	0d0efb01 	vstreq	d15, [lr, #-4]
     ef8:	01010100 	mrseq	r0, (UNDEF: 17)
     efc:	00000001 	andeq	r0, r0, r1
     f00:	01000001 	tsteq	r0, r1
     f04:	696c2f2e 	stmdbvs	ip!, {r1, r2, r3, r5, r8, r9, sl, fp, sp}^
     f08:	2f006362 	svccs	0x00006362
     f0c:	2f74706f 	svccs	0x0074706f
     f10:	656d6f68 	strbvs	r6, [sp, #-3944]!	; 0xfffff098
     f14:	77657262 	strbvc	r7, [r5, -r2, ror #4]!
     f18:	6c65432f 	stclvs	3, cr4, [r5], #-188	; 0xffffff44
     f1c:	2f72616c 	svccs	0x0072616c
     f20:	2d6d7261 	sfmcs	f7, 2, [sp, #-388]!	; 0xfffffe7c
     f24:	656e6f6e 	strbvs	r6, [lr, #-3950]!	; 0xfffff092
     f28:	6261652d 	rsbvs	r6, r1, #188743680	; 0xb400000
     f2c:	2f392d69 	svccs	0x00392d69
     f30:	30322d39 	eorscc	r2, r2, r9, lsr sp
     f34:	34713931 	ldrbtcc	r3, [r1], #-2353	; 0xfffff6cf
     f38:	3173632d 	cmncc	r3, sp, lsr #6
     f3c:	2f653730 	svccs	0x00653730
     f40:	2f62696c 	svccs	0x0062696c
     f44:	2f636367 	svccs	0x00636367
     f48:	2d6d7261 	sfmcs	f7, 2, [sp, #-388]!	; 0xfffffe7c
     f4c:	656e6f6e 	strbvs	r6, [lr, #-3950]!	; 0xfffff092
     f50:	6261652d 	rsbvs	r6, r1, #188743680	; 0xb400000
     f54:	2e392f69 	cdpcs	15, 3, cr2, cr9, cr9, {3}
     f58:	2f312e32 	svccs	0x00312e32
     f5c:	6c636e69 	stclvs	14, cr6, [r3], #-420	; 0xfffffe5c
     f60:	00656475 	rsbeq	r6, r5, r5, ror r4
     f64:	6573552f 	ldrbvs	r5, [r3, #-1327]!	; 0xfffffad1
     f68:	6d2f7372 	stcvs	3, cr7, [pc, #-456]!	; da8 <__code_start__-0x7258>
     f6c:	73656c69 	cmnvc	r5, #26880	; 0x6900
     f70:	756f532f 	strbvc	r5, [pc, #-815]!	; c49 <__code_start__-0x73b7>
     f74:	2f656372 	svccs	0x00656372
     f78:	34327363 	ldrtcc	r7, [r2], #-867	; 0xfffffc9d
     f7c:	2f786c30 	svccs	0x00786c30
     f80:	7062696c 	rsbvc	r6, r2, ip, ror #18
     f84:	6e692f69 	cdpvs	15, 6, cr2, cr9, cr9, {3}
     f88:	64756c63 	ldrbtvs	r6, [r5], #-3171	; 0xfffff39d
     f8c:	70000065 	andvc	r0, r0, r5, rrx
     f90:	746e6972 	strbtvc	r6, [lr], #-2418	; 0xfffff68e
     f94:	00632e6b 	rsbeq	r2, r3, fp, ror #28
     f98:	73000001 	movwvc	r0, #1
     f9c:	72616474 	rsbvc	r6, r1, #116, 8	; 0x74000000
     fa0:	00682e67 	rsbeq	r2, r8, r7, ror #28
     fa4:	72000002 	andvc	r0, r0, #2, 0
     fa8:	682e6970 	stmdavs	lr!, {r4, r5, r6, r8, fp, sp, lr}
     fac:	00000300 	andeq	r0, r0, r0, lsl #6
     fb0:	6975623c 	ldmdbvs	r5!, {r2, r3, r4, r5, r9, sp, lr}^
     fb4:	692d746c 	pushvs	{r2, r3, r5, r6, sl, ip, sp, lr}
     fb8:	00003e6e 	andeq	r3, r0, lr, ror #28
     fbc:	61760000 	cmnvs	r6, r0
     fc0:	6972702d 	ldmdbvs	r2!, {r0, r2, r3, r5, ip, sp, lr}^
     fc4:	2e6b746e 	cdpcs	4, 6, cr7, cr11, cr14, {3}
     fc8:	00010068 	andeq	r0, r1, r8, rrx
     fcc:	22050000 	andcs	r0, r5, #0, 0
     fd0:	d0020500 	andle	r0, r2, r0, lsl #10
     fd4:	1700008b 	strne	r0, [r0, -fp, lsl #1]
     fd8:	13140505 	tstne	r4, #20971520	; 0x1400000
     fdc:	06220514 			; <UNDEFINED> instruction: 0x06220514
     fe0:	5012050d 	andspl	r0, r2, sp, lsl #10
     fe4:	7a032205 	bvc	c9800 <__bss_end__+0xbe980>
     fe8:	3305052e 	movwcc	r0, #21806	; 0x552e
     fec:	052f1205 	streq	r1, [pc, #-517]!	; def <__code_start__-0x7211>
     ff0:	09056505 	stmdbeq	r5, {r0, r2, r8, sl, sp, lr}
     ff4:	12052f06 	andne	r2, r5, #6, 30
     ff8:	05050106 	streq	r0, [r5, #-262]	; 0xfffffefa
     ffc:	06164b06 	ldreq	r4, [r6], -r6, lsl #22
    1000:	0550064a 	ldrbeq	r0, [r0, #-1610]	; 0xfffff9b6
    1004:	66130601 	ldrvs	r0, [r3], -r1, lsl #12
    1008:	01000802 	tsteq	r0, r2, lsl #16
    100c:	0000a001 	andeq	sl, r0, r1
    1010:	57000300 	strpl	r0, [r0, -r0, lsl #6]
    1014:	02000000 	andeq	r0, r0, #0, 0
    1018:	0d0efb01 	vstreq	d15, [lr, #-4]
    101c:	01010100 	mrseq	r0, (UNDEF: 17)
    1020:	00000001 	andeq	r0, r0, r1
    1024:	01000001 	tsteq	r0, r1
    1028:	696c2f2e 	stmdbvs	ip!, {r1, r2, r3, r5, r8, r9, sl, fp, sp}^
    102c:	2f006362 	svccs	0x00006362
    1030:	72657355 	rsbvc	r7, r5, #1409286145	; 0x54000001
    1034:	696d2f73 	stmdbvs	sp!, {r0, r1, r4, r5, r6, r8, r9, sl, fp, sp}^
    1038:	2f73656c 	svccs	0x0073656c
    103c:	72756f53 	rsbsvc	r6, r5, #332	; 0x14c
    1040:	632f6563 			; <UNDEFINED> instruction: 0x632f6563
    1044:	30343273 	eorscc	r3, r4, r3, ror r2
    1048:	6c2f786c 	stcvs	8, cr7, [pc], #-432	; ea0 <__code_start__-0x7160>
    104c:	69706269 	ldmdbvs	r0!, {r0, r3, r5, r6, r9, sp, lr}^
    1050:	636e692f 	cmnvs	lr, #770048	; 0xbc000
    1054:	6564756c 	strbvs	r7, [r4, #-1388]!	; 0xfffffa94
    1058:	75700000 	ldrbvc	r0, [r0, #-0]!
    105c:	632e6b74 			; <UNDEFINED> instruction: 0x632e6b74
    1060:	00000100 	andeq	r0, r0, r0, lsl #2
    1064:	2e697072 	mcrcs	0, 3, r7, cr9, cr2, {3}
    1068:	00020068 	andeq	r0, r2, r8, rrx
    106c:	22050000 	andcs	r0, r5, #0, 0
    1070:	28020500 	stmdacs	r2, {r8, sl}
    1074:	1500008c 	strne	r0, [r0, #-140]	; 0xffffff74
    1078:	05130505 	ldreq	r0, [r3, #-1285]	; 0xfffffafb
    107c:	2e110622 	cfmsub32cs	mvax1, mvfx0, mvfx1, mvfx2
    1080:	2f060b05 	svccs	0x00060b05
    1084:	2e060505 	cfsh32cs	mvfx0, mvfx6, #5
    1088:	02000905 	andeq	r0, r0, #81920	; 0x14000
    108c:	67060204 	strvs	r0, [r6, -r4, lsl #4]
    1090:	02000f05 	andeq	r0, r0, #5, 30
    1094:	05490204 	strbeq	r0, [r9, #-516]	; 0xfffffdfc
    1098:	0402000b 	streq	r0, [r2], #-11
    109c:	05050102 	streq	r0, [r5, #-258]	; 0xfffffefe
    10a0:	02040200 	andeq	r0, r4, #0, 4
    10a4:	4e062e06 	cdpmi	14, 0, cr2, cr6, cr6, {0}
    10a8:	13060105 	movwne	r0, #24837	; 0x6105
    10ac:	01000602 	tsteq	r0, r2, lsl #12
    10b0:	0008fa01 	andeq	pc, r8, r1, lsl #20
    10b4:	f1000300 			; <UNDEFINED> instruction: 0xf1000300
    10b8:	02000000 	andeq	r0, r0, #0, 0
    10bc:	0d0efb01 	vstreq	d15, [lr, #-4]
    10c0:	01010100 	mrseq	r0, (UNDEF: 17)
    10c4:	00000001 	andeq	r0, r0, r1
    10c8:	01000001 	tsteq	r0, r1
    10cc:	696c2f2e 	stmdbvs	ip!, {r1, r2, r3, r5, r8, r9, sl, fp, sp}^
    10d0:	2f006362 	svccs	0x00006362
    10d4:	2f74706f 	svccs	0x0074706f
    10d8:	656d6f68 	strbvs	r6, [sp, #-3944]!	; 0xfffff098
    10dc:	77657262 	strbvc	r7, [r5, -r2, ror #4]!
    10e0:	6c65432f 	stclvs	3, cr4, [r5], #-188	; 0xffffff44
    10e4:	2f72616c 	svccs	0x0072616c
    10e8:	2d6d7261 	sfmcs	f7, 2, [sp, #-388]!	; 0xfffffe7c
    10ec:	656e6f6e 	strbvs	r6, [lr, #-3950]!	; 0xfffff092
    10f0:	6261652d 	rsbvs	r6, r1, #188743680	; 0xb400000
    10f4:	2f392d69 	svccs	0x00392d69
    10f8:	30322d39 	eorscc	r2, r2, r9, lsr sp
    10fc:	34713931 	ldrbtcc	r3, [r1], #-2353	; 0xfffff6cf
    1100:	3173632d 	cmncc	r3, sp, lsr #6
    1104:	2f653730 	svccs	0x00653730
    1108:	2f62696c 	svccs	0x0062696c
    110c:	2f636367 	svccs	0x00636367
    1110:	2d6d7261 	sfmcs	f7, 2, [sp, #-388]!	; 0xfffffe7c
    1114:	656e6f6e 	strbvs	r6, [lr, #-3950]!	; 0xfffff092
    1118:	6261652d 	rsbvs	r6, r1, #188743680	; 0xb400000
    111c:	2e392f69 	cdpcs	15, 3, cr2, cr9, cr9, {3}
    1120:	2f312e32 	svccs	0x00312e32
    1124:	6c636e69 	stclvs	14, cr6, [r3], #-420	; 0xfffffe5c
    1128:	00656475 	rsbeq	r6, r5, r5, ror r4
    112c:	6573552f 	ldrbvs	r5, [r3, #-1327]!	; 0xfffffad1
    1130:	6d2f7372 	stcvs	3, cr7, [pc, #-456]!	; f70 <__code_start__-0x7090>
    1134:	73656c69 	cmnvc	r5, #26880	; 0x6900
    1138:	756f532f 	strbvc	r5, [pc, #-815]!	; e11 <__code_start__-0x71ef>
    113c:	2f656372 	svccs	0x00656372
    1140:	34327363 	ldrtcc	r7, [r2], #-867	; 0xfffffc9d
    1144:	2f786c30 	svccs	0x00786c30
    1148:	7062696c 	rsbvc	r6, r2, ip, ror #18
    114c:	6e692f69 	cdpvs	15, 6, cr2, cr9, cr9, {3}
    1150:	64756c63 	ldrbtvs	r6, [r5], #-3171	; 0xfffff39d
    1154:	76000065 	strvc	r0, [r0], -r5, rrx
    1158:	72702d61 	rsbsvc	r2, r0, #6208	; 0x1840
    115c:	6b746e69 	blvs	1d1cb08 <__bss_end__+0x1d11c88>
    1160:	0100632e 	tsteq	r0, lr, lsr #6
    1164:	74730000 	ldrbtvc	r0, [r3], #-0
    1168:	746e6964 	strbtvc	r6, [lr], #-2404	; 0xfffff69c
    116c:	6363672d 	cmnvs	r3, #11796480	; 0xb40000
    1170:	0200682e 	andeq	r6, r0, #3014656	; 0x2e0000
    1174:	70720000 	rsbsvc	r0, r2, r0
    1178:	00682e69 	rsbeq	r2, r8, r9, ror #28
    117c:	72000003 	andvc	r0, r0, #3, 0
    1180:	692d6970 	pushvs	{r4, r5, r6, r8, fp, sp, lr}
    1184:	7265746e 	rsbvc	r7, r5, #1845493760	; 0x6e000000
    1188:	2e6c616e 	powcsez	f6, f4, #0.5
    118c:	00030068 	andeq	r0, r3, r8, rrx
    1190:	64747300 	ldrbtvs	r7, [r4], #-768	; 0xfffffd00
    1194:	2e677261 	cdpcs	2, 6, cr7, cr7, cr1, {3}
    1198:	00020068 	andeq	r0, r2, r8, rrx
    119c:	75623c00 	strbvc	r3, [r2, #-3072]!	; 0xfffff400
    11a0:	2d746c69 	ldclcs	12, cr6, [r4, #-420]!	; 0xfffffe5c
    11a4:	003e6e69 	eorseq	r6, lr, r9, ror #28
    11a8:	00000000 	andeq	r0, r0, r0
    11ac:	05000105 	streq	r0, [r0, #-261]	; 0xfffffefb
    11b0:	008c6002 	addeq	r6, ip, r2
    11b4:	00c80300 	sbceq	r0, r8, r0, lsl #6
    11b8:	14020501 	strne	r0, [r2], #-1281	; 0xfffffaff
    11bc:	10060105 	andne	r0, r6, r5, lsl #2
    11c0:	05300405 	ldreq	r0, [r0, #-1029]!	; 0xfffffbfb
    11c4:	054a2c01 	strbeq	r2, [sl, #-3073]	; 0xfffff3ff
    11c8:	02053004 	andeq	r3, r5, #4, 0
    11cc:	05133106 	ldreq	r3, [r3, #-262]	; 0xfffffefa
    11d0:	052e060b 	streq	r0, [lr, #-1547]!	; 0xfffff9f5
    11d4:	05300602 	ldreq	r0, [r0, #-1538]!	; 0xfffff9fe
    11d8:	24020609 	strcs	r0, [r2], #-1545	; 0xfffff9f7
    11dc:	052e2e0d 	streq	r2, [lr, #-3597]!	; 0xfffff1f3
    11e0:	1703060d 	strne	r0, [r3, -sp, lsl #12]
    11e4:	1311054a 	tstne	r1, #310378496	; 0x12800000
    11e8:	01062d05 	tsteq	r6, r5, lsl #26
    11ec:	052e1605 	streq	r1, [lr, #-1541]!	; 0xfffff9fb
    11f0:	16052f0d 	strne	r2, [r5], -sp, lsl #30
    11f4:	0614052d 	ldreq	r0, [r4], -sp, lsr #10
    11f8:	0617052f 	ldreq	r0, [r7], -pc, lsr #10
    11fc:	2e0d0501 	cfsh32cs	mvfx0, mvfx13, #1
    1200:	12052f06 	andne	r2, r5, #6, 30
    1204:	2f2e0106 	svccs	0x002e0106
    1208:	060d052d 	streq	r0, [sp], -sp, lsr #10
    120c:	0612052f 	ldreq	r0, [r2], -pc, lsr #10
    1210:	06190501 	ldreq	r0, [r9], -r1, lsl #10
    1214:	0304052f 	movweq	r0, #17711	; 0x452f
    1218:	05010111 	streq	r0, [r1, #-273]	; 0xfffffeef
    121c:	0e051502 	cfsh32eq	mvfx1, mvfx5, #2
    1220:	017fb203 	cmneq	pc, r3, lsl #4
    1224:	05130205 	ldreq	r0, [r3, #-517]	; 0xfffffdfb
    1228:	05010606 	streq	r0, [r1, #-1542]	; 0xfffff9fa
    122c:	05300602 	ldreq	r0, [r0, #-1538]!	; 0xfffff9fe
    1230:	02050108 	andeq	r0, r5, #2
    1234:	054a0106 	strbeq	r0, [sl, #-262]	; 0xfffffefa
    1238:	05910808 	ldreq	r0, [r1, #2056]	; 0x808
    123c:	054a0603 	strbeq	r0, [sl, #-1539]	; 0xfffff9fd
    1240:	05010608 	streq	r0, [r1, #-1544]	; 0xfffff9f8
    1244:	052d0615 	streq	r0, [sp, #-1557]!	; 0xfffff9eb
    1248:	03050108 	movweq	r0, #20744	; 0x5108
    124c:	060805d7 			; <UNDEFINED> instruction: 0x060805d7
    1250:	2d180501 	cfldr32cs	mvfx0, [r8, #-4]
    1254:	052e0205 	streq	r0, [lr, #-517]!	; 0xfffffdfb
    1258:	15052f08 	strne	r2, [r5, #-3848]	; 0xfffff0f8
    125c:	08052d06 	stmdaeq	r5, {r1, r2, r8, sl, fp, sp}
    1260:	06020501 	streq	r0, [r2], -r1, lsl #10
    1264:	06030501 	streq	r0, [r3], -r1, lsl #10
    1268:	0618052f 	ldreq	r0, [r8], -pc, lsr #10
    126c:	2e020511 	mcrcs	5, 0, r0, cr2, cr1, {0}
    1270:	052f0805 	streq	r0, [pc, #-2053]!	; a73 <__code_start__-0x758d>
    1274:	052d0615 	streq	r0, [sp, #-1557]!	; 0xfffff9eb
    1278:	03050108 	movweq	r0, #20744	; 0x5108
    127c:	06080513 			; <UNDEFINED> instruction: 0x06080513
    1280:	06150501 	ldreq	r0, [r5], -r1, lsl #10
    1284:	0108052d 	tsteq	r8, sp, lsr #10
    1288:	02050106 	andeq	r0, r5, #-2147483647	; 0x80000001
    128c:	0505a006 	streq	sl, [r5, #-6]
    1290:	04050106 	streq	r0, [r5], #-262	; 0xfffffefa
    1294:	2f110536 	svccs	0x00110536
    1298:	052e0905 	streq	r0, [lr, #-2309]!	; 0xfffff6fb
    129c:	05053302 	streq	r3, [r5, #-770]	; 0xfffffcfe
    12a0:	052e7203 	streq	r7, [lr, #-515]!	; 0xfffffdfd
    12a4:	062f0602 	strteq	r0, [pc], -r2, lsl #12
    12a8:	060e0501 	streq	r0, [lr], -r1, lsl #10
    12ac:	14020516 	strne	r0, [r2], #-1302	; 0xfffffaea
    12b0:	13030513 	movwne	r0, #13587	; 0x3513
    12b4:	15140205 	ldrne	r0, [r4, #-517]	; 0xfffffdfb
    12b8:	05010b05 	streq	r0, [r1, #-2821]	; 0xfffff4fb
    12bc:	2e010602 	cfmadd32cs	mvax0, mvfx0, mvfx1, mvfx2
    12c0:	67060305 	strvs	r0, [r6, -r5, lsl #6]
    12c4:	01060a05 	tsteq	r6, r5, lsl #20
    12c8:	052d0205 	streq	r0, [sp, #-517]!	; 0xfffffdfb
    12cc:	17052f0a 	strne	r2, [r5, -sl, lsl #30]
    12d0:	0b052d06 	bleq	14c6f0 <__bss_end__+0x141870>
    12d4:	06020501 	streq	r0, [r2], -r1, lsl #10
    12d8:	4c090501 	cfstr32mi	mvfx0, [r9], {1}
    12dc:	0602052e 	streq	r0, [r2], -lr, lsr #10
    12e0:	0609052e 	streq	r0, [r9], -lr, lsr #10
    12e4:	06020501 	streq	r0, [r2], -r1, lsl #10
    12e8:	05010630 	streq	r0, [r1, #-1584]	; 0xfffff9d0
    12ec:	01380301 	teqeq	r8, r1, lsl #6
    12f0:	4f030905 	svcmi	0x00030905
    12f4:	052e2e4a 	streq	r2, [lr, #-3658]!	; 0xfffff1b6
    12f8:	27030619 	smladcs	r3, r9, r6, r0
    12fc:	131a054a 	tstne	sl, #310378496	; 0x12800000
    1300:	01062805 	tsteq	r6, r5, lsl #16
    1304:	052e1f05 	streq	r1, [lr, #-3845]!	; 0xfffff0fb
    1308:	1f052f04 	svcne	0x00052f04
    130c:	060b052d 	streq	r0, [fp], -sp, lsr #10
    1310:	060e052f 	streq	r0, [lr], -pc, lsr #10
    1314:	2e040501 	cfsh32cs	mvfx0, mvfx4, #1
    1318:	03060205 	movweq	r0, #25093	; 0x6205
    131c:	05134a59 	ldreq	r4, [r3, #-2649]	; 0xfffff5a7
    1320:	052e060b 	streq	r0, [lr, #-1547]!	; 0xfffff9f5
    1324:	05300602 	ldreq	r0, [r0, #-1538]!	; 0xfffff9fe
    1328:	24020609 	strcs	r0, [r2], #-1545	; 0xfffff9f7
    132c:	0604050d 	streq	r0, [r4], -sp, lsl #10
    1330:	06051336 			; <UNDEFINED> instruction: 0x06051336
    1334:	05050106 	streq	r0, [r5, #-262]	; 0xfffffefa
    1338:	13136706 	tstne	r3, #1572864	; 0x180000
    133c:	11060905 	tstne	r6, r5, lsl #18
    1340:	052b0d05 	streq	r0, [fp, #-3333]!	; 0xfffff2fb
    1344:	0d05300b 	stceq	0, cr3, [r5, #-44]	; 0xffffffd4
    1348:	351b052c 	ldrcc	r0, [fp, #-1324]	; 0xfffffad4
    134c:	2d060405 	cfstrscs	mvf0, [r6, #-20]	; 0xffffffec
    1350:	05130505 	ldreq	r0, [r3, #-1285]	; 0xfffffafb
    1354:	052e061b 	streq	r0, [lr, #-1563]!	; 0xfffff9e5
    1358:	0405820a 	streq	r8, [r5], #-522	; 0xfffffdf6
    135c:	2e0e052f 	cfsh32cs	mvfx0, mvfx14, #31
    1360:	05490a05 	strbeq	r0, [r9, #-2565]	; 0xfffff5fb
    1364:	052f060b 	streq	r0, [pc, #-1547]!	; d61 <__code_start__-0x729f>
    1368:	06010604 	streq	r0, [r1], -r4, lsl #12
    136c:	0606052f 	streq	r0, [r6], -pc, lsr #10
    1370:	06050501 	streq	r0, [r5], -r1, lsl #10
    1374:	060a052f 	streq	r0, [sl], -pc, lsr #10
    1378:	07052e01 	streq	r2, [r5, -r1, lsl #28]
    137c:	052e2e2e 	streq	r2, [lr, #-3630]!	; 0xfffff1d2
    1380:	0d030604 	stceq	6, cr0, [r3, #-16]
    1384:	06020501 	streq	r0, [r2], -r1, lsl #10
    1388:	05014603 	streq	r4, [r1, #-1539]	; 0xfffff9fd
    138c:	2e3a0309 	cdpcs	3, 3, cr0, cr10, cr9, {0}
    1390:	2f060405 	svccs	0x00060405
    1394:	01010d03 	tsteq	r1, r3, lsl #26
    1398:	05150205 	ldreq	r0, [r5, #-517]	; 0xfffffdfb
    139c:	7fb2030e 	svcvc	0x00b2030e
    13a0:	13020501 	movwne	r0, #9473	; 0x2501
    13a4:	01080514 	tsteq	r8, r4, lsl r5
    13a8:	10060605 	andne	r0, r6, r5, lsl #12
    13ac:	052e3c03 	streq	r3, [lr, #-3075]!	; 0xfffff3fd
    13b0:	4a460302 	bmi	1181fc0 <__bss_end__+0x1177140>
    13b4:	05053006 	streq	r3, [r5, #-6]
    13b8:	2e2e0106 	sufcse	f0, f6, f6
    13bc:	4b060205 	blmi	181bd8 <__bss_end__+0x176d58>
    13c0:	0e050106 	adfeqs	f0, f5, f6
    13c4:	02051606 	andeq	r1, r5, #6291456	; 0x600000
    13c8:	15151314 	ldrne	r1, [r5, #-788]	; 0xfffffcec
    13cc:	05010b05 	streq	r0, [r1, #-2821]	; 0xfffff4fb
    13d0:	062e0602 	strteq	r0, [lr], -r2, lsl #12
    13d4:	06090530 			; <UNDEFINED> instruction: 0x06090530
    13d8:	06020501 	streq	r0, [r2], -r1, lsl #10
    13dc:	0501064c 	streq	r0, [r1, #-1612]	; 0xfffff9b4
    13e0:	01380301 	teqeq	r8, r1, lsl #6
    13e4:	6e030605 	cfmadd32vs	mvax0, mvfx0, mvfx3, mvfx5
    13e8:	0302054a 	movweq	r0, #9546	; 0x254a
    13ec:	2e4a6646 	cdpcs	6, 4, cr6, cr10, cr6, {2}
    13f0:	03060405 	movweq	r0, #25605	; 0x6405
    13f4:	010100c8 	smlabteq	r1, r8, r0, r0
    13f8:	2e060101 	adfcss	f0, f6, f1
    13fc:	034a0682 	movteq	r0, #42626	; 0xa682
    1400:	09052e72 	stmdbeq	r5, {r1, r4, r5, r6, r9, sl, fp, sp}
    1404:	04050106 	streq	r0, [r5], #-262	; 0xfffffefa
    1408:	0d032f06 	stceq	15, cr2, [r3, #-24]	; 0xffffffe8
    140c:	02050101 	andeq	r0, r5, #1073741824	; 0x40000000
    1410:	030e0515 	movweq	r0, #58645	; 0xe515
    1414:	05017fb2 	streq	r7, [r1, #-4018]	; 0xfffff04e
    1418:	05141302 	ldreq	r1, [r4, #-770]	; 0xfffffcfe
    141c:	09050108 	stmdbeq	r5, {r3, r8}
    1420:	011b0306 	tsteq	fp, r6, lsl #6
    1424:	63030605 	movwvs	r0, #13829	; 0x3605
    1428:	2e3c032e 	cdpcs	3, 3, cr0, cr12, cr14, {1}
    142c:	48052e2e 	stmdami	r5, {r1, r2, r3, r5, r9, sl, fp, sp}
    1430:	7fb40306 	svcvc	0x00b40306
    1434:	05053c08 	streq	r3, [r5, #-3080]	; 0xfffff3f8
    1438:	2e060113 	mcrcs	1, 0, r0, cr6, cr3, {0}
    143c:	02040200 	andeq	r0, r4, #0, 4
    1440:	02002e06 	andeq	r2, r0, #96	; 0x60
    1444:	00010204 	andeq	r0, r1, r4, lsl #4
    1448:	13020402 	movwne	r0, #9218	; 0x2402
    144c:	02001105 	andeq	r1, r0, #1073741825	; 0x40000001
    1450:	01060204 	tsteq	r6, r4, lsl #4
    1454:	02000705 	andeq	r0, r0, #1310720	; 0x140000
    1458:	052f0204 	streq	r0, [pc, #-516]!	; 125c <__code_start__-0x6da4>
    145c:	04020011 	streq	r0, [r2], #-17	; 0xffffffef
    1460:	05052d02 	streq	r2, [r5, #-3330]	; 0xfffff2fe
    1464:	02040200 	andeq	r0, r4, #0, 4
    1468:	09052f06 	stmdbeq	r5, {r1, r2, r8, r9, sl, fp, sp}
    146c:	02040200 	andeq	r0, r4, #0, 4
    1470:	000e0513 	andeq	r0, lr, r3, lsl r5
    1474:	06020402 	streq	r0, [r2], -r2, lsl #8
    1478:	00050501 	andeq	r0, r5, r1, lsl #10
    147c:	06010402 	streq	r0, [r1], -r2, lsl #8
    1480:	04020063 	streq	r0, [r2], #-99	; 0xffffff9d
    1484:	48050101 	stmdami	r5, {r0, r8}
    1488:	01040200 	mrseq	r0, R12_usr
    148c:	05051106 	streq	r1, [r5, #-262]	; 0xfffffefa
    1490:	01040200 	mrseq	r0, R12_usr
    1494:	0048052f 	subeq	r0, r8, pc, lsr #10
    1498:	2d010402 	cfstrscs	mvf0, [r1, #-8]
    149c:	02000505 	andeq	r0, r0, #20971520	; 0x1400000
    14a0:	002f0104 	eoreq	r0, pc, r4, lsl #2
    14a4:	4a010402 	bmi	424b4 <__bss_end__+0x37634>
    14a8:	01040200 	mrseq	r0, R12_usr
    14ac:	0402004a 	streq	r0, [r2], #-74	; 0xffffffb6
    14b0:	054a0601 	strbeq	r0, [sl, #-1537]	; 0xfffff9ff
    14b4:	00e10340 	rsceq	r0, r1, r0, asr #6
    14b8:	050106d6 	streq	r0, [r1, #-1750]	; 0xfffff92a
    14bc:	052e4e09 	streq	r4, [lr, #-3593]!	; 0xfffff1f7
    14c0:	1e053008 	cdpne	0, 0, cr3, cr5, cr8, {0}
    14c4:	2e120529 	cfmul64cs	mvdx0, mvdx2, mvdx9
    14c8:	05330d05 	ldreq	r0, [r3, #-3333]!	; 0xfffff2fb
    14cc:	05450602 	strbeq	r0, [r5, #-1538]	; 0xfffff9fe
    14d0:	02051305 	andeq	r1, r5, #335544320	; 0x14000000
    14d4:	13050514 	movwne	r0, #21780	; 0x5514
    14d8:	05130205 	ldreq	r0, [r3, #-517]	; 0xfffffdfb
    14dc:	40050108 	andmi	r0, r5, r8, lsl #2
    14e0:	017a0306 	cmneq	sl, r6, lsl #6
    14e4:	340d052e 	strcc	r0, [sp], #-1326	; 0xfffffad2
    14e8:	03110566 	tsteq	r1, #427819008	; 0x19800000
    14ec:	054a4a20 	strbeq	r4, [sl, #-2592]	; 0xfffff5e0
    14f0:	62030604 	andvs	r0, r3, #4, 12	; 0x400000
    14f4:	06090501 	streq	r0, [r9], -r1, lsl #10
    14f8:	2e0f0501 	cfsh32cs	mvfx0, mvfx15, #1
    14fc:	2c060805 	stccs	8, cr0, [r6], {5}
    1500:	2e060d05 	cdpcs	13, 0, cr0, cr6, cr5, {0}
    1504:	67060305 	strvs	r0, [r6, -r5, lsl #6]
    1508:	01060505 	tsteq	r6, r5, lsl #10
    150c:	4d060805 	stcmi	8, cr0, [r6, #-20]	; 0xffffffec
    1510:	01060e05 	tsteq	r6, r5, lsl #28
    1514:	052e0a05 	streq	r0, [lr, #-2565]!	; 0xfffff5fb
    1518:	04052f09 	streq	r2, [r5], #-3849	; 0xfffff0f7
    151c:	07052f06 	streq	r2, [r5, -r6, lsl #30]
    1520:	0a050106 	beq	141940 <__bss_end__+0x136ac0>
    1524:	0604052c 	streq	r0, [r4], -ip, lsr #10
    1528:	062d0532 			; <UNDEFINED> instruction: 0x062d0532
    152c:	017f9803 	cmneq	pc, r3, lsl #16
    1530:	ed030905 	vstr.16	s0, [r3, #-10]
    1534:	0d052e00 	stceq	14, cr2, [r5, #-0]
    1538:	2b07052c 	blcs	1c29f0 <__bss_end__+0x1b7b70>
    153c:	30060405 	andcc	r0, r6, r5, lsl #8
    1540:	09051413 	stmdbeq	r5, {r0, r1, r4, sl, ip}
    1544:	030c0501 	movweq	r0, #50433	; 0xc501
    1548:	05017f93 	streq	r7, [r1, #-3987]	; 0xfffff06d
    154c:	0106011d 	tsteq	r6, sp, lsl r1
    1550:	ed030905 	vstr.16	s0, [r3, #-10]
    1554:	05050100 	streq	r0, [r5, #-256]	; 0xffffff00
    1558:	12052f06 	andne	r2, r5, #6, 30
    155c:	2d2e0106 	stfcss	f0, [lr, #-24]!	; 0xffffffe8
    1560:	052f0b05 	streq	r0, [pc, #-2821]!	; a63 <__code_start__-0x759d>
    1564:	052f0605 	streq	r0, [pc, #-1541]!	; f67 <__code_start__-0x7099>
    1568:	0c051009 	stceq	0, cr1, [r5], {9}
    156c:	017f9303 	cmneq	pc, r3, lsl #6
    1570:	05011d05 	streq	r1, [r1, #-3333]	; 0xfffff2fb
    1574:	0501062d 	streq	r0, [r1, #-1581]	; 0xfffff9d3
    1578:	00ed0309 	rsceq	r0, sp, r9, lsl #6
    157c:	0604052e 	streq	r0, [r4], -lr, lsr #10
    1580:	0200014e 	andeq	r0, r0, #-2147483629	; 0x80000013
    1584:	004a0204 	subeq	r0, sl, r4, lsl #4
    1588:	01020402 	tsteq	r2, r2, lsl #8
    158c:	02040200 	andeq	r0, r4, #0, 4
    1590:	04020015 	streq	r0, [r2], #-21	; 0xffffffeb
    1594:	36020602 	strcc	r0, [r2], -r2, lsl #12
    1598:	04020012 	streq	r0, [r2], #-18	; 0xffffffee
    159c:	02052e02 	andeq	r2, r5, #2, 28
    15a0:	00d10306 	sbcseq	r0, r1, r6, lsl #6
    15a4:	06070501 	streq	r0, [r7], -r1, lsl #10
    15a8:	02052e01 	andeq	r2, r5, #1, 28
    15ac:	0b052f06 	bleq	14d1cc <__bss_end__+0x14234c>
    15b0:	01050106 	tsteq	r5, r6, lsl #2
    15b4:	0605052f 	streq	r0, [r5], -pc, lsr #10
    15b8:	054a6503 	strbeq	r6, [sl, #-1283]	; 0xfffffafd
    15bc:	66010609 	strvs	r0, [r1], -r9, lsl #12
    15c0:	9f060505 	svcls	0x00060505
    15c4:	11030405 	tstne	r3, r5, lsl #8
    15c8:	06070501 	streq	r0, [r7], -r1, lsl #10
    15cc:	06040501 	streq	r0, [r4], -r1, lsl #10
    15d0:	010a0531 	tsteq	sl, r1, lsr r5
    15d4:	02001305 	andeq	r1, r0, #335544320	; 0x14000000
    15d8:	2e060104 	adfcss	f0, f6, f4
    15dc:	02001005 	andeq	r1, r0, #5, 0
    15e0:	052e0104 	streq	r0, [lr, #-260]!	; 0xfffffefc
    15e4:	054b0605 	strbeq	r0, [fp, #-1541]	; 0xfffff9fb
    15e8:	0601060a 	streq	r0, [r1], -sl, lsl #12
    15ec:	0604052d 	streq	r0, [r4], -sp, lsr #10
    15f0:	06110501 	ldreq	r0, [r1], -r1, lsl #10
    15f4:	667fb603 	ldrbtvs	fp, [pc], -r3, lsl #12
    15f8:	02000113 	andeq	r0, r0, #-1073741820	; 0xc0000004
    15fc:	ba060204 	blt	181e14 <__bss_end__+0x176f94>
    1600:	1401ba06 	strne	fp, [r1], #-2566	; 0xfffff5fa
    1604:	13061a05 	movwne	r1, #27141	; 0x6a05
    1608:	11052e2e 	tstne	r5, lr, lsr #28
    160c:	1405674e 	strne	r6, [r5], #-1870	; 0xfffff8b2
    1610:	82130568 	andshi	r0, r3, #104, 10	; 0x1a000000
    1614:	78031505 	stmdavc	r3, {r0, r2, r8, sl, ip}
    1618:	0611054a 	ldreq	r0, [r1], -sl, asr #10
    161c:	1413134b 	ldrne	r1, [r3], #-843	; 0xfffffcb5
    1620:	13051413 	movwne	r1, #21523	; 0x5413
    1624:	09050106 	stmdbeq	r5, {r1, r2, r8}
    1628:	0d052f06 	stceq	15, cr2, [r5, #-24]	; 0xffffffe8
    162c:	2e2e0106 	sufcse	f0, f6, f6
    1630:	05bb0905 	ldreq	r0, [fp, #2309]!	; 0x905
    1634:	09059d0d 	stmdbeq	r5, {r0, r2, r3, r8, sl, fp, ip, pc}
    1638:	15052f06 	strne	r2, [r5, #-3846]	; 0xfffff0fa
    163c:	7503062f 	strvc	r0, [r3, #-1583]	; 0xfffff9d1
    1640:	2e0b034a 	cdpcs	3, 0, cr0, cr11, cr10, {2}
    1644:	0605054a 	streq	r0, [r5], -sl, asr #10
    1648:	05012303 	streq	r2, [r1, #-771]	; 0xfffffcfd
    164c:	2e010609 	cfmadd32cs	mvax0, mvfx0, mvfx1, mvfx9
    1650:	d7060505 	strle	r0, [r6, -r5, lsl #10]
    1654:	032e6e03 			; <UNDEFINED> instruction: 0x032e6e03
    1658:	0905010e 	stmdbeq	r5, {r1, r2, r3, r8}
    165c:	05050106 	streq	r0, [r5, #-262]	; 0xfffffefa
    1660:	4a100306 	bmi	402280 <__bss_end__+0x3f7400>
    1664:	ed030105 	stfs	f0, [r3, #-20]	; 0xffffffec
    1668:	0205017e 	andeq	r0, r5, #-2147483617	; 0x8000001f
    166c:	14131514 	ldrne	r1, [r3], #-1300	; 0xfffffaec
    1670:	1a030405 	bne	c268c <__bss_end__+0xb780c>
    1674:	06090501 	streq	r0, [r9], -r1, lsl #10
    1678:	03020501 	movweq	r0, #9473	; 0x2501
    167c:	09052e46 	stmdbeq	r5, {r1, r2, r6, r9, sl, fp, sp}
    1680:	052e3a03 	streq	r3, [lr, #-2563]!	; 0xfffff5fd
    1684:	032f0604 			; <UNDEFINED> instruction: 0x032f0604
    1688:	0501010d 	streq	r0, [r1, #-269]	; 0xfffffef3
    168c:	0e051502 	cfsh32eq	mvfx1, mvfx5, #2
    1690:	017fb203 	cmneq	pc, r3, lsl #4
    1694:	14130205 	ldrne	r0, [r3], #-517	; 0xfffffdfb
    1698:	05010805 	streq	r0, [r1, #-2053]	; 0xfffff7fb
    169c:	05010602 	streq	r0, [r1, #-1538]	; 0xfffff9fe
    16a0:	03059f08 	movweq	r9, #24328	; 0x5f08
    16a4:	01064a06 	tsteq	r6, r6, lsl #20
    16a8:	052e0805 	streq	r0, [lr, #-2053]!	; 0xfffff7fb
    16ac:	052d0615 	streq	r0, [sp, #-1557]!	; 0xfffff9eb
    16b0:	03050108 	movweq	r0, #20744	; 0x5108
    16b4:	0501062f 	streq	r0, [r1, #-1583]	; 0xfffff9d1
    16b8:	15052e08 	strne	r2, [r5, #-3592]	; 0xfffff1f8
    16bc:	08052d06 	stmdaeq	r5, {r1, r2, r8, sl, fp, sp}
    16c0:	2f030501 	svccs	0x00030501
    16c4:	08050106 	stmdaeq	r5, {r1, r2, r8}
    16c8:	0615052e 	ldreq	r0, [r5], -lr, lsr #10
    16cc:	0108052d 	tsteq	r8, sp, lsr #10
    16d0:	062f0305 	strteq	r0, [pc], -r5, lsl #6
    16d4:	2e080501 	cfsh32cs	mvfx0, mvfx8, #1
    16d8:	2d061505 	cfstr32cs	mvfx1, [r6, #-20]	; 0xffffffec
    16dc:	05010805 	streq	r0, [r1, #-2053]	; 0xfffff7fb
    16e0:	01062f03 	tsteq	r6, r3, lsl #30
    16e4:	052e0805 	streq	r0, [lr, #-2053]!	; 0xfffff7fb
    16e8:	052d0615 	streq	r0, [sp, #-1557]!	; 0xfffff9eb
    16ec:	03050108 	movweq	r0, #20744	; 0x5108
    16f0:	0501062f 	streq	r0, [r1, #-1583]	; 0xfffff9d1
    16f4:	15052e08 	strne	r2, [r5, #-3592]	; 0xfffff1f8
    16f8:	08052d06 	stmdaeq	r5, {r1, r2, r8, sl, fp, sp}
    16fc:	13030501 	movwne	r0, #13569	; 0x3501
    1700:	01060805 	tsteq	r6, r5, lsl #16
    1704:	2d061505 	cfstr32cs	mvfx1, [r6, #-20]	; 0xffffffec
    1708:	06010805 	streq	r0, [r1], -r5, lsl #16
    170c:	06030566 	streq	r0, [r3], -r6, ror #10
    1710:	06080567 	streq	r0, [r8], -r7, ror #10
    1714:	2d180501 	cfldr32cs	mvfx0, [r8, #-4]
    1718:	052e0205 	streq	r0, [lr, #-517]!	; 0xfffffdfb
    171c:	15052f08 	strne	r2, [r5, #-3848]	; 0xfffff0f8
    1720:	08052d06 	stmdaeq	r5, {r1, r2, r8, sl, fp, sp}
    1724:	06020501 	streq	r0, [r2], -r1, lsl #10
    1728:	06030501 	streq	r0, [r3], -r1, lsl #10
    172c:	0618052f 	ldreq	r0, [r8], -pc, lsr #10
    1730:	2e020511 	mcrcs	5, 0, r0, cr2, cr1, {0}
    1734:	052f0805 	streq	r0, [pc, #-2053]!	; f37 <__code_start__-0x70c9>
    1738:	052d0615 	streq	r0, [sp, #-1557]!	; 0xfffff9eb
    173c:	03050108 	movweq	r0, #20744	; 0x5108
    1740:	06080513 			; <UNDEFINED> instruction: 0x06080513
    1744:	06150501 	ldreq	r0, [r5], -r1, lsl #10
    1748:	0108052d 	tsteq	r8, sp, lsr #10
    174c:	14060505 	strne	r0, [r6], #-1285	; 0xfffffafb
    1750:	0602054a 	streq	r0, [r2], -sl, asr #10
    1754:	060e052e 	streq	r0, [lr], -lr, lsr #10
    1758:	2f040519 	svccs	0x00040519
    175c:	052f1105 	streq	r1, [pc, #-261]!	; 165f <__code_start__-0x69a1>
    1760:	02054a09 	andeq	r4, r5, #36864	; 0x9000
    1764:	03050533 	movweq	r0, #21811	; 0x5533
    1768:	02052e72 	andeq	r2, r5, #1824	; 0x720
    176c:	01062f06 	tsteq	r6, r6, lsl #30
    1770:	16060e05 	strne	r0, [r6], -r5, lsl #28
    1774:	13140205 	tstne	r4, #1342177280	; 0x50000000
    1778:	05130305 	ldreq	r0, [r3, #-773]	; 0xfffffcfb
    177c:	05151402 	ldreq	r1, [r5, #-1026]	; 0xfffffbfe
    1780:	0205010b 	andeq	r0, r5, #-1073741822	; 0xc0000002
    1784:	662e0106 	strtvs	r0, [lr], -r6, lsl #2
    1788:	2f060305 	svccs	0x00060305
    178c:	01060a05 	tsteq	r6, r5, lsl #20
    1790:	052d0205 	streq	r0, [sp, #-517]!	; 0xfffffdfb
    1794:	17052f0a 	strne	r2, [r5, -sl, lsl #30]
    1798:	0b052d06 	bleq	14cbb8 <__bss_end__+0x141d38>
    179c:	06020501 	streq	r0, [r2], -r1, lsl #10
    17a0:	054a4a01 	strbeq	r4, [sl, #-2561]	; 0xfffff5ff
    17a4:	95030605 	strls	r0, [r3, #-1541]	; 0xfffff9fb
    17a8:	11050101 	tstne	r5, r1, lsl #2
    17ac:	7ef80306 	cdpvc	3, 15, cr0, cr8, cr6, {0}
    17b0:	031b0501 	tsteq	fp, #4194304	; 0x400000
    17b4:	054a0188 	strbeq	r0, [sl, #-392]	; 0xfffffe78
    17b8:	f3030601 	vmax.u8	d0, d3, d1
    17bc:	02052e7e 	andeq	r2, r5, #2016	; 0x7e0
    17c0:	14131514 	ldrne	r1, [r3], #-1300	; 0xfffffaec
    17c4:	22031905 	andcs	r1, r3, #81920	; 0x14000
    17c8:	131a0501 	tstne	sl, #4194304	; 0x400000
    17cc:	01062805 	tsteq	r6, r5, lsl #16
    17d0:	052e1f05 	streq	r1, [lr, #-3845]!	; 0xfffff0fb
    17d4:	0e052f04 	cdpeq	15, 0, cr2, cr5, cr4, {0}
    17d8:	2d1f054a 	cfldr32cs	mvfx0, [pc, #-296]	; 16b8 <__code_start__-0x6948>
    17dc:	2f060b05 	svccs	0x00060b05
    17e0:	01060405 	tsteq	r6, r5, lsl #8
    17e4:	05013206 	streq	r3, [r1, #-518]	; 0xfffffdfa
    17e8:	0e051502 	cfsh32eq	mvfx1, mvfx5, #2
    17ec:	017fb203 	cmneq	pc, r3, lsl #4
    17f0:	05130205 	ldreq	r0, [r3, #-517]	; 0xfffffdfb
    17f4:	05010606 	streq	r0, [r1, #-1542]	; 0xfffff9fa
    17f8:	05300602 	ldreq	r0, [r0, #-1538]!	; 0xfffff9fe
    17fc:	02050108 	andeq	r0, r5, #2
    1800:	03050106 	movweq	r0, #20742	; 0x5106
    1804:	05210806 	streq	r0, [r1, #-2054]!	; 0xfffff7fa
    1808:	05010608 	streq	r0, [r1, #-1544]	; 0xfffff9f8
    180c:	05490615 	strbeq	r0, [r9, #-1557]	; 0xfffff9eb
    1810:	03050108 	movweq	r0, #20744	; 0x5108
    1814:	060805d7 			; <UNDEFINED> instruction: 0x060805d7
    1818:	2d180501 	cfldr32cs	mvfx0, [r8, #-4]
    181c:	052e0205 	streq	r0, [lr, #-517]!	; 0xfffffdfb
    1820:	15052f08 	strne	r2, [r5, #-3848]	; 0xfffff0f8
    1824:	08052d06 	stmdaeq	r5, {r1, r2, r8, sl, fp, sp}
    1828:	06020501 	streq	r0, [r2], -r1, lsl #10
    182c:	06030501 	streq	r0, [r3], -r1, lsl #10
    1830:	0618052f 	ldreq	r0, [r8], -pc, lsr #10
    1834:	2e020511 	mcrcs	5, 0, r0, cr2, cr1, {0}
    1838:	052f0805 	streq	r0, [pc, #-2053]!	; 103b <__code_start__-0x6fc5>
    183c:	052d0615 	streq	r0, [sp, #-1557]!	; 0xfffff9eb
    1840:	03050108 	movweq	r0, #20744	; 0x5108
    1844:	06080513 			; <UNDEFINED> instruction: 0x06080513
    1848:	06150501 	ldreq	r0, [r5], -r1, lsl #10
    184c:	0108052d 	tsteq	r8, sp, lsr #10
    1850:	14060505 	strne	r0, [r6], #-1285	; 0xfffffafb
    1854:	66060205 	strvs	r0, [r6], -r5, lsl #4
    1858:	1a060405 	bne	182874 <__bss_end__+0x1779f4>
    185c:	78030505 	stmdavc	r3, {r0, r2, r8, sl}
    1860:	0602054a 	streq	r0, [r2], -sl, asr #10
    1864:	0501062f 	streq	r0, [r1, #-1583]	; 0xfffff9d1
    1868:	0516060e 	ldreq	r0, [r6, #-1550]	; 0xfffff9f2
    186c:	05131402 	ldreq	r1, [r3, #-1026]	; 0xfffffbfe
    1870:	05010604 	streq	r0, [r1, #-1540]	; 0xfffff9fc
    1874:	052f0603 	streq	r0, [pc, #-1539]!	; 1279 <__code_start__-0x6d87>
    1878:	05010611 	streq	r0, [r1, #-1553]	; 0xfffff9ef
    187c:	02052e09 	andeq	r2, r5, #144	; 0x90
    1880:	05153006 	ldreq	r3, [r5, #-6]
    1884:	0205010b 	andeq	r0, r5, #-1073741822	; 0xc0000002
    1888:	4a4a0106 	bmi	1281ca8 <__bss_end__+0x1276e28>
    188c:	0603052e 	streq	r0, [r3], -lr, lsr #10
    1890:	060a052f 	streq	r0, [sl], -pc, lsr #10
    1894:	2d020501 	cfstr32cs	mvfx0, [r2, #-4]
    1898:	052f0a05 	streq	r0, [pc, #-2565]!	; e9b <__code_start__-0x7165>
    189c:	052d0617 	streq	r0, [sp, #-1559]!	; 0xfffff9e9
    18a0:	0205010b 	andeq	r0, r5, #-1073741822	; 0xc0000002
    18a4:	2e4a0106 	dvfcse	f0, f2, f6
    18a8:	09051406 	stmdbeq	r5, {r1, r2, sl, ip}
    18ac:	02050106 	andeq	r0, r5, #-2147483647	; 0x80000001
    18b0:	01064c06 	tsteq	r6, r6, lsl #24
    18b4:	03060505 	movweq	r0, #25861	; 0x6505
    18b8:	2a010198 	bcs	41f20 <__bss_end__+0x370a0>
    18bc:	01060705 	tsteq	r6, r5, lsl #14
    18c0:	2f060505 	svccs	0x00060505
    18c4:	53031805 	movwpl	r1, #14341	; 0x3805
    18c8:	061b052e 	ldreq	r0, [fp], -lr, lsr #10
    18cc:	821a0501 	andshi	r0, sl, #4194304	; 0x400000
    18d0:	4b060905 	blmi	183cec <__bss_end__+0x178e6c>
    18d4:	01060d05 	tsteq	r6, r5, lsl #26
    18d8:	d709052e 	strle	r0, [r9, -lr, lsr #10]
    18dc:	059d0d05 	ldreq	r0, [sp, #3333]	; 0xd05
    18e0:	052f0609 	streq	r0, [pc, #-1545]!	; 12df <__code_start__-0x6d21>
    18e4:	18053015 	stmdane	r5, {r0, r2, r4, ip, sp}
    18e8:	17050106 	strne	r0, [r5, -r6, lsl #2]
    18ec:	2f190566 	svccs	0x00190566
    18f0:	05491705 	strbeq	r1, [r9, #-1797]	; 0xfffff8fb
    18f4:	052f0619 	streq	r0, [pc, #-1561]!	; 12e3 <__code_start__-0x6d1d>
    18f8:	6f030615 	svcvs	0x00030615
    18fc:	0619052e 	ldreq	r0, [r9], -lr, lsr #10
    1900:	054a1303 	strbeq	r1, [sl, #-771]	; 0xfffffcfd
    1904:	6d030615 	stcvs	6, cr0, [r3, #-84]	; 0xffffffac
    1908:	02054a2e 	andeq	r4, r5, #188416	; 0x2e000
    190c:	017fa003 	cmneq	pc, r3
    1910:	72030666 	andvc	r0, r3, #106954752	; 0x6600000
    1914:	06050501 	streq	r0, [r5], -r1, lsl #10
    1918:	36040501 	strcc	r0, [r4], -r1, lsl #10
    191c:	78030505 	stmdavc	r3, {r0, r2, r8, sl}
    1920:	0602052e 	streq	r0, [r2], -lr, lsr #10
    1924:	0501062f 	streq	r0, [r1, #-1583]	; 0xfffff9d1
    1928:	0516060e 	ldreq	r0, [r6, #-1550]	; 0xfffff9f2
    192c:	05131402 	ldreq	r1, [r3, #-1026]	; 0xfffffbfe
    1930:	4a010604 	bmi	43148 <__bss_end__+0x382c8>
    1934:	03060205 	movweq	r0, #25093	; 0x6205
    1938:	05050178 	streq	r0, [r5, #-376]	; 0xfffffe88
    193c:	054a0106 	strbeq	r0, [sl, #-262]	; 0xfffffefa
    1940:	064b0602 	strbeq	r0, [fp], -r2, lsl #12
    1944:	060e0501 	streq	r0, [lr], -r1, lsl #10
    1948:	14020516 	strne	r0, [r2], #-1302	; 0xfffffaea
    194c:	05151513 	ldreq	r1, [r5, #-1299]	; 0xfffffaed
    1950:	2e06010b 	adfcss	f0, f6, #3.0
    1954:	03061105 	movweq	r1, #24837	; 0x6105
    1958:	0501019e 	streq	r0, [r1, #-414]	; 0xfffffe62
    195c:	05010622 	streq	r0, [r1, #-1570]	; 0xfffff9de
    1960:	22052f05 	andcs	r2, r5, #5, 30
    1964:	0605052d 	streq	r0, [r5], -sp, lsr #10
    1968:	4b11052f 	blmi	442e2c <__bss_end__+0x437fac>
    196c:	01830505 	orreq	r0, r3, r5, lsl #10
    1970:	2e5c039e 	mrccs	3, 2, r0, cr12, cr14, {4}
    1974:	02059e01 	andeq	r9, r5, #1, 28
    1978:	7ef30306 	cdpvc	3, 15, cr0, cr3, cr6, {0}
    197c:	06052e2e 	streq	r2, [r5], -lr, lsr #28
    1980:	0d054a2c 	vstreq	s8, [r5, #-176]	; 0xffffff50
    1984:	0100d803 	tsteq	r0, r3, lsl #16
    1988:	02000405 	andeq	r0, r0, #83886080	; 0x5000000
    198c:	03060104 	movweq	r0, #24836	; 0x6104
    1990:	02004a11 	andeq	r4, r0, #69632	; 0x11000
    1994:	05010104 	streq	r0, [r1, #-260]	; 0xfffffefc
    1998:	06510611 			; <UNDEFINED> instruction: 0x06510611
    199c:	0315059e 	tsteq	r5, #662700032	; 0x27800000
    19a0:	ba012e17 	blt	4d204 <__bss_end__+0x42384>
    19a4:	69031105 	stmdbvs	r3, {r0, r2, r8, ip}
    19a8:	2802012e 	stmdacs	r2, {r1, r2, r3, r5, r8}
    19ac:	87010100 	strhi	r0, [r1, -r0, lsl #2]
    19b0:	03000000 	movweq	r0, #0
    19b4:	00006400 	andeq	r6, r0, r0, lsl #8
    19b8:	fb010200 	blx	421c2 <__bss_end__+0x37342>
    19bc:	01000d0e 	tsteq	r0, lr, lsl #26
    19c0:	00010101 	andeq	r0, r1, r1, lsl #2
    19c4:	00010000 	andeq	r0, r1, r0
    19c8:	2f2e0100 	svccs	0x002e0100
    19cc:	66617473 			; <UNDEFINED> instruction: 0x66617473
    19d0:	72732d66 	rsbsvc	r2, r3, #6528	; 0x1980
    19d4:	552f0063 	strpl	r0, [pc, #-99]!	; 1979 <__code_start__-0x6687>
    19d8:	73726573 	cmnvc	r2, #482344960	; 0x1cc00000
    19dc:	6c696d2f 	stclvs	13, cr6, [r9], #-188	; 0xffffff44
    19e0:	532f7365 			; <UNDEFINED> instruction: 0x532f7365
    19e4:	6372756f 	cmnvs	r2, #465567744	; 0x1bc00000
    19e8:	73632f65 	cmnvc	r3, #404	; 0x194
    19ec:	6c303432 	cfldrsvs	mvf3, [r0], #-200	; 0xffffff38
    19f0:	696c2f78 	stmdbvs	ip!, {r3, r4, r5, r6, r8, r9, sl, fp, sp}^
    19f4:	2f697062 	svccs	0x00697062
    19f8:	6c636e69 	stclvs	14, cr6, [r3], #-420	; 0xfffffe5c
    19fc:	00656475 	rsbeq	r6, r5, r5, ror r4
    1a00:	656c6300 	strbvs	r6, [ip, #-768]!	; 0xfffffd00
    1a04:	722d6e61 	eorvc	r6, sp, #1552	; 0x610
    1a08:	6f6f6265 	svcvs	0x006f6265
    1a0c:	00632e74 	rsbeq	r2, r3, r4, ror lr
    1a10:	72000001 	andvc	r0, r0, #1, 0
    1a14:	682e6970 	stmdavs	lr!, {r4, r5, r6, r8, fp, sp, lr}
    1a18:	00000200 	andeq	r0, r0, r0, lsl #4
    1a1c:	00190500 	andseq	r0, r9, r0, lsl #10
    1a20:	96140205 	ldrls	r0, [r4], -r5, lsl #4
    1a24:	05150000 	ldreq	r0, [r5, #-0]
    1a28:	19051305 	stmdbne	r5, {r0, r2, r8, r9, ip}
    1a2c:	05052d06 	streq	r2, [r5, #-3334]	; 0xfffff2fa
    1a30:	2f67062f 	svccs	0x0067062f
    1a34:	0006024b 	andeq	r0, r6, fp, asr #4
    1a38:	01120101 	tsteq	r2, r1, lsl #2
    1a3c:	00030000 	andeq	r0, r3, r0
    1a40:	0000005e 	andeq	r0, r0, lr, asr r0
    1a44:	0efb0102 	cdpeq	1, 15, cr0, cr11, cr2, {0}
    1a48:	0101000d 	tsteq	r1, sp
    1a4c:	00000101 	andeq	r0, r0, r1, lsl #2
    1a50:	00000100 	andeq	r0, r0, r0, lsl #2
    1a54:	732f2e01 			; <UNDEFINED> instruction: 0x732f2e01
    1a58:	66666174 			; <UNDEFINED> instruction: 0x66666174
    1a5c:	6372732d 	cmnvs	r2, #-1275068416	; 0xb4000000
    1a60:	73552f00 	cmpvc	r5, #0, 30
    1a64:	2f737265 	svccs	0x00737265
    1a68:	656c696d 	strbvs	r6, [ip, #-2413]!	; 0xfffff693
    1a6c:	6f532f73 	svcvs	0x00532f73
    1a70:	65637275 	strbvs	r7, [r3, #-629]!	; 0xfffffd8b
    1a74:	3273632f 	rsbscc	r6, r3, #-1140850688	; 0xbc000000
    1a78:	786c3034 	stmdavc	ip!, {r2, r4, r5, ip, sp}^
    1a7c:	62696c2f 	rsbvs	r6, r9, #12032	; 0x2f00
    1a80:	692f6970 	stmdbvs	pc!, {r4, r5, r6, r8, fp, sp, lr}	; <UNPREDICTABLE>
    1a84:	756c636e 	strbvc	r6, [ip, #-878]!	; 0xfffffc92
    1a88:	00006564 	andeq	r6, r0, r4, ror #10
    1a8c:	61747363 	cmnvs	r4, r3, ror #6
    1a90:	632e7472 			; <UNDEFINED> instruction: 0x632e7472
    1a94:	00000100 	andeq	r0, r0, r0, lsl #2
    1a98:	2e697072 	mcrcs	0, 3, r7, cr9, cr2, {3}
    1a9c:	00020068 	andeq	r0, r2, r8, rrx
    1aa0:	10050000 	andne	r0, r5, r0
    1aa4:	40020500 	andmi	r0, r2, r0, lsl #10
    1aa8:	15000096 	strne	r0, [r0, #-150]	; 0xffffff6a
    1aac:	05130505 	ldreq	r0, [r3, #-1285]	; 0xfffffafb
    1ab0:	05051302 	streq	r1, [r5, #-770]	; 0xfffffcfe
    1ab4:	06100514 			; <UNDEFINED> instruction: 0x06100514
    1ab8:	3205050e 	andcc	r0, r5, #58720256	; 0x3800000
    1abc:	14133006 	ldrne	r3, [r3], #-6
    1ac0:	05010a05 	streq	r0, [r1, #-2565]	; 0xfffff5fb
    1ac4:	05910809 	ldreq	r0, [r1, #2057]	; 0x809
    1ac8:	05010610 	streq	r0, [r1, #-1552]	; 0xfffff9f0
    1acc:	10059a0a 	andne	r9, r5, sl, lsl #20
    1ad0:	060a056a 	streq	r0, [sl], -sl, ror #10
    1ad4:	2f09052d 	svccs	0x0009052d
    1ad8:	01061005 	tsteq	r6, r5
    1adc:	2d060a05 	vstrcs	s0, [r6, #-20]	; 0xffffffec
    1ae0:	05bb0905 	ldreq	r0, [fp, #2309]!	; 0x905
    1ae4:	05010610 	streq	r0, [r1, #-1552]	; 0xfffff9f0
    1ae8:	0565060a 	strbeq	r0, [r5, #-1546]!	; 0xfffff9f6
    1aec:	0d054b09 	vstreq	d4, [r5, #-36]	; 0xffffffdc
    1af0:	0a050106 	beq	141f10 <__bss_end__+0x137090>
    1af4:	2f10052d 	svccs	0x0010052d
    1af8:	2d060a05 	vstrcs	s0, [r6, #-20]	; 0xffffffec
    1afc:	052f0905 	streq	r0, [pc, #-2309]!	; 11ff <__code_start__-0x6e01>
    1b00:	0501060d 	streq	r0, [r1, #-1549]	; 0xfffff9f3
    1b04:	10052d0a 	andne	r2, r5, sl, lsl #26
    1b08:	060a052f 	streq	r0, [sl], -pc, lsr #10
    1b0c:	2f09052d 	svccs	0x0009052d
    1b10:	01060d05 	tsteq	r6, r5, lsl #26
    1b14:	052d0a05 	streq	r0, [sp, #-2565]!	; 0xfffff5fb
    1b18:	0a052f10 	beq	14d760 <__bss_end__+0x1428e0>
    1b1c:	09052d06 	stmdbeq	r5, {r1, r2, r8, sl, fp, sp}
    1b20:	060d052f 	streq	r0, [sp], -pc, lsr #10
    1b24:	2d0a0501 	cfstr32cs	mvfx0, [sl, #-4]
    1b28:	052f1005 	streq	r1, [pc, #-5]!	; 1b2b <__code_start__-0x64d5>
    1b2c:	052d060a 	streq	r0, [sp, #-1546]!	; 0xfffff9f6
    1b30:	10051309 	andne	r1, r5, r9, lsl #6
    1b34:	0a050106 	beq	141f54 <__bss_end__+0x1370d4>
    1b38:	05052d06 	streq	r2, [r5, #-3334]	; 0xfffff2fa
    1b3c:	01013215 	tsteq	r1, r5, lsl r2
    1b40:	0205144a 	andeq	r1, r5, #1241513984	; 0x4a000000
    1b44:	060a052f 	streq	r0, [sl], -pc, lsr #10
    1b48:	022e7303 	eoreq	r7, lr, #201326592	; 0xc000000
    1b4c:	01010008 	tsteq	r1, r8
    1b50:	0000007d 	andeq	r0, r0, sp, ror r0
    1b54:	00650003 	rsbeq	r0, r5, r3
    1b58:	01020000 	mrseq	r0, (UNDEF: 2)
    1b5c:	000d0efb 	strdeq	r0, [sp], -fp
    1b60:	01010101 	tsteq	r1, r1, lsl #2
    1b64:	01000000 	mrseq	r0, (UNDEF: 0)
    1b68:	2e010000 	cdpcs	0, 0, cr0, cr1, cr0, {0}
    1b6c:	6174732f 	cmnvs	r4, pc, lsr #6
    1b70:	732d6666 			; <UNDEFINED> instruction: 0x732d6666
    1b74:	2f006372 	svccs	0x00006372
    1b78:	72657355 	rsbvc	r7, r5, #1409286145	; 0x54000001
    1b7c:	696d2f73 	stmdbvs	sp!, {r0, r1, r4, r5, r6, r8, r9, sl, fp, sp}^
    1b80:	2f73656c 	svccs	0x0073656c
    1b84:	72756f53 	rsbsvc	r6, r5, #332	; 0x14c
    1b88:	632f6563 			; <UNDEFINED> instruction: 0x632f6563
    1b8c:	30343273 	eorscc	r3, r4, r3, ror r2
    1b90:	6c2f786c 	stcvs	8, cr7, [pc], #-432	; 19e8 <__code_start__-0x6618>
    1b94:	69706269 	ldmdbvs	r0!, {r0, r3, r5, r6, r9, sp, lr}^
    1b98:	636e692f 	cmnvs	lr, #770048	; 0xbc000
    1b9c:	6564756c 	strbvs	r7, [r4, #-1388]!	; 0xfffffa94
    1ba0:	75630000 	strbvc	r0, [r3, #-0]!
    1ba4:	6d6f7473 	cfstrdvs	mvd7, [pc, #-460]!	; 19e0 <__code_start__-0x6620>
    1ba8:	616f6c2d 	cmnvs	pc, sp, lsr #24
    1bac:	2e726564 	cdpcs	5, 7, cr6, cr2, cr4, {3}
    1bb0:	00010063 	andeq	r0, r1, r3, rrx
    1bb4:	69707200 	ldmdbvs	r0!, {r9, ip, sp, lr}^
    1bb8:	0200682e 	andeq	r6, r0, #3014656	; 0x2e0000
    1bbc:	05000000 	streq	r0, [r0, #-0]
    1bc0:	0205001a 	andeq	r0, r5, #26, 0
    1bc4:	00009738 	andeq	r9, r0, r8, lsr r7
    1bc8:	14010515 	strne	r0, [r1], #-1301	; 0xfffffaeb
    1bcc:	01000202 	tsteq	r0, r2, lsl #4
    1bd0:	00011401 	andeq	r1, r1, r1, lsl #8
    1bd4:	5e000300 	cdppl	3, 0, cr0, cr0, cr0, {0}
    1bd8:	02000000 	andeq	r0, r0, #0, 0
    1bdc:	0d0efb01 	vstreq	d15, [lr, #-4]
    1be0:	01010100 	mrseq	r0, (UNDEF: 17)
    1be4:	00000001 	andeq	r0, r0, r1
    1be8:	01000001 	tsteq	r0, r1
    1bec:	74732f2e 	ldrbtvc	r2, [r3], #-3886	; 0xfffff0d2
    1bf0:	2d666661 	stclcs	6, cr6, [r6, #-388]!	; 0xfffffe7c
    1bf4:	00637273 	rsbeq	r7, r3, r3, ror r2
    1bf8:	6573552f 	ldrbvs	r5, [r3, #-1327]!	; 0xfffffad1
    1bfc:	6d2f7372 	stcvs	3, cr7, [pc, #-456]!	; 1a3c <__code_start__-0x65c4>
    1c00:	73656c69 	cmnvc	r5, #26880	; 0x6900
    1c04:	756f532f 	strbvc	r5, [pc, #-815]!	; 18dd <__code_start__-0x6723>
    1c08:	2f656372 	svccs	0x00656372
    1c0c:	34327363 	ldrtcc	r7, [r2], #-867	; 0xfffffc9d
    1c10:	2f786c30 	svccs	0x00786c30
    1c14:	7062696c 	rsbvc	r6, r2, ip, ror #18
    1c18:	6e692f69 	cdpvs	15, 6, cr2, cr9, cr9, {3}
    1c1c:	64756c63 	ldrbtvs	r6, [r5], #-3171	; 0xfffff39d
    1c20:	72000065 	andvc	r0, r0, #101, 0	; 0x65
    1c24:	6f6f6265 	svcvs	0x006f6265
    1c28:	00632e74 	rsbeq	r2, r3, r4, ror lr
    1c2c:	72000001 	andvc	r0, r0, #1, 0
    1c30:	682e6970 	stmdavs	lr!, {r4, r5, r6, r8, fp, sp, lr}
    1c34:	00000200 	andeq	r0, r0, r0, lsl #4
    1c38:	00190500 	andseq	r0, r9, r0, lsl #10
    1c3c:	973c0205 	ldrls	r0, [ip, -r5, lsl #4]!
    1c40:	0d030000 	stceq	0, cr0, [r3, #-0]
    1c44:	13050501 	movwne	r0, #21761	; 0x5501
    1c48:	13053113 	movwne	r3, #20755	; 0x5113
    1c4c:	01050106 	tsteq	r5, r6, lsl #2
    1c50:	061b052f 	ldreq	r0, [fp], -pc, lsr #10
    1c54:	13050585 	movwne	r0, #21893	; 0x5585
    1c58:	2f090514 	svccs	0x00090514
    1c5c:	01061605 	tsteq	r6, r5, lsl #12
    1c60:	2f060505 	svccs	0x00060505
    1c64:	11060e05 	tstne	r6, r5, lsl #28
    1c68:	052f0505 	streq	r0, [pc, #-1285]!	; 176b <__code_start__-0x6895>
    1c6c:	17052f01 	strne	r2, [r5, -r1, lsl #30]
    1c70:	05053006 	streq	r3, [r5, #-6]
    1c74:	016e0313 	cmneq	lr, r3, lsl r3
    1c78:	17051313 	smladne	r5, r3, r3, r1
    1c7c:	010f0306 	tsteq	pc, r6, lsl #6
    1c80:	71030505 	tstvc	r3, r5, lsl #10
    1c84:	0531062e 	ldreq	r0, [r1, #-1582]!	; 0xfffff9d2
    1c88:	05010613 	streq	r0, [r1, #-1555]	; 0xfffff9ed
    1c8c:	2e0d0307 	cdpcs	3, 0, cr0, cr13, cr7, {0}
    1c90:	4b060905 	blmi	1840ac <__bss_end__+0x17922c>
    1c94:	76030605 	strvc	r0, [r3], -r5, lsl #12
    1c98:	13050501 	movwne	r0, #21761	; 0x5501
    1c9c:	2f090514 	svccs	0x00090514
    1ca0:	01061605 	tsteq	r6, r5, lsl #12
    1ca4:	2f060505 	svccs	0x00060505
    1ca8:	11060e05 	tstne	r6, r5, lsl #28
    1cac:	2e2f0505 	cfsh64cs	mvdx0, mvdx15, #5
    1cb0:	010a0306 	tsteq	sl, r6, lsl #6
    1cb4:	134d2f30 	movtne	r2, #57136	; 0xdf30
    1cb8:	67151313 			; <UNDEFINED> instruction: 0x67151313
    1cbc:	01040200 	mrseq	r0, R12_usr
    1cc0:	000d0567 	andeq	r0, sp, r7, ror #10
    1cc4:	01010402 	tsteq	r1, r2, lsl #8
    1cc8:	02000a05 	andeq	r0, r0, #20480	; 0x5000
    1ccc:	05010104 	streq	r0, [r1, #-260]	; 0xfffffefc
    1cd0:	04020005 	streq	r0, [r2], #-5
    1cd4:	0d050101 	stfeqs	f0, [r5, #-4]
    1cd8:	01040200 	mrseq	r0, R12_usr
    1cdc:	000a0501 	andeq	r0, sl, r1, lsl #10
    1ce0:	01010402 	tsteq	r1, r2, lsl #8
    1ce4:	01000a02 	tsteq	r0, r2, lsl #20
    1ce8:	0001fa01 	andeq	pc, r1, r1, lsl #20
    1cec:	5d000300 	stcpl	3, cr0, [r0, #-0]
    1cf0:	02000000 	andeq	r0, r0, #0, 0
    1cf4:	0d0efb01 	vstreq	d15, [lr, #-4]
    1cf8:	01010100 	mrseq	r0, (UNDEF: 17)
    1cfc:	00000001 	andeq	r0, r0, r1
    1d00:	01000001 	tsteq	r0, r1
    1d04:	74732f2e 	ldrbtvc	r2, [r3], #-3886	; 0xfffff0d2
    1d08:	2d666661 	stclcs	6, cr6, [r6, #-388]!	; 0xfffffe7c
    1d0c:	00637273 	rsbeq	r7, r3, r3, ror r2
    1d10:	6573552f 	ldrbvs	r5, [r3, #-1327]!	; 0xfffffad1
    1d14:	6d2f7372 	stcvs	3, cr7, [pc, #-456]!	; 1b54 <__code_start__-0x64ac>
    1d18:	73656c69 	cmnvc	r5, #26880	; 0x6900
    1d1c:	756f532f 	strbvc	r5, [pc, #-815]!	; 19f5 <__code_start__-0x660b>
    1d20:	2f656372 	svccs	0x00656372
    1d24:	34327363 	ldrtcc	r7, [r2], #-867	; 0xfffffc9d
    1d28:	2f786c30 	svccs	0x00786c30
    1d2c:	7062696c 	rsbvc	r6, r2, ip, ror #18
    1d30:	6e692f69 	cdpvs	15, 6, cr2, cr9, cr9, {3}
    1d34:	64756c63 	ldrbtvs	r6, [r5], #-3171	; 0xfffff39d
    1d38:	74000065 	strvc	r0, [r0], #-101	; 0xffffff9b
    1d3c:	72656d69 	rsbvc	r6, r5, #6720	; 0x1a40
    1d40:	0100632e 	tsteq	r0, lr, lsr #6
    1d44:	70720000 	rsbsvc	r0, r2, r0
    1d48:	00682e69 	rsbeq	r2, r8, r9, ror #28
    1d4c:	00000002 	andeq	r0, r0, r2
    1d50:	05002305 	streq	r2, [r0, #-773]	; 0xfffffcfb
    1d54:	0097c802 	addseq	ip, r7, r2, lsl #16
    1d58:	05051500 	streq	r1, [r5, #-1280]	; 0xfffffb00
    1d5c:	060c0513 			; <UNDEFINED> instruction: 0x060c0513
    1d60:	061f0501 	ldreq	r0, [pc], -r1, lsl #10
    1d64:	1505056a 	strne	r0, [r5, #-1386]	; 0xfffffa96
    1d68:	0f061f05 	svceq	0x00061f05
    1d6c:	06310505 	ldrteq	r0, [r1], -r5, lsl #10
    1d70:	030a052f 	movweq	r0, #42287	; 0xa52f
    1d74:	05050177 	streq	r0, [r5, #-375]	; 0xfffffe89
    1d78:	060c0513 			; <UNDEFINED> instruction: 0x060c0513
    1d7c:	05056601 	streq	r6, [r5, #-1537]	; 0xfffff9ff
    1d80:	01090306 	tsteq	r9, r6, lsl #6
    1d84:	0601052f 	streq	r0, [r1], -pc, lsr #10
    1d88:	061c0513 			; <UNDEFINED> instruction: 0x061c0513
    1d8c:	13050568 	movwne	r0, #21864	; 0x5568
    1d90:	76030a05 	strvc	r0, [r3], -r5, lsl #20
    1d94:	15050501 	strne	r0, [r5, #-1281]	; 0xfffffaff
    1d98:	18061c05 	stmdane	r6, {r0, r2, sl, fp, ip}
    1d9c:	0305052e 	movweq	r0, #21806	; 0x552e
    1da0:	2f062e7a 	svccs	0x00062e7a
    1da4:	77030a05 	strvc	r0, [r3, -r5, lsl #20]
    1da8:	13050501 	movwne	r0, #21761	; 0x5501
    1dac:	01060c05 	tsteq	r6, r5, lsl #24
    1db0:	06050566 	streq	r0, [r5], -r6, ror #10
    1db4:	2f010903 	svccs	0x00010903
    1db8:	0c050106 	stfeqs	f0, [r5], {6}
    1dbc:	05017603 	streq	r7, [r1, #-1539]	; 0xfffff9fd
    1dc0:	0f030605 	svceq	0x00030605
    1dc4:	1309052e 	movwne	r0, #38190	; 0x952e
    1dc8:	74030a05 	strvc	r0, [r3], #-2565	; 0xfffff5fb
    1dcc:	15050501 	strne	r0, [r5, #-1281]	; 0xfffffaff
    1dd0:	030a052f 	movweq	r0, #42287	; 0xa52f
    1dd4:	05050177 	streq	r0, [r5, #-375]	; 0xfffffe89
    1dd8:	060c0513 			; <UNDEFINED> instruction: 0x060c0513
    1ddc:	05056601 	streq	r6, [r5, #-1537]	; 0xfffff9ff
    1de0:	01090306 	tsteq	r9, r6, lsl #6
    1de4:	1a061105 	bne	186200 <__bss_end__+0x17b380>
    1de8:	78030505 	stmdavc	r3, {r0, r2, r8, sl}
    1dec:	052f062e 	streq	r0, [pc, #-1582]!	; 17c6 <__code_start__-0x683a>
    1df0:	0c051909 			; <UNDEFINED> instruction: 0x0c051909
    1df4:	1c050106 	stfnes	f0, [r5], {6}
    1df8:	05058706 	streq	r8, [r5, #-1798]	; 0xfffff8fa
    1dfc:	061c0513 			; <UNDEFINED> instruction: 0x061c0513
    1e00:	2f050511 	svccs	0x00050511
    1e04:	0606054a 	streq	r0, [r6], -sl, asr #10
    1e08:	052e7603 	streq	r7, [lr, #-1539]!	; 0xfffff9fd
    1e0c:	0a051305 	beq	146a28 <__bss_end__+0x13bba8>
    1e10:	05017603 	streq	r7, [r1, #-1539]	; 0xfffff9fd
    1e14:	052f1505 	streq	r1, [pc, #-1285]!	; 1917 <__code_start__-0x66e9>
    1e18:	0177030a 	cmneq	r7, sl, lsl #6
    1e1c:	05130505 	ldreq	r0, [r3, #-1285]	; 0xfffffafb
    1e20:	6601060c 	strvs	r0, [r1], -ip, lsl #12
    1e24:	03060505 	movweq	r0, #25861	; 0x6505
    1e28:	062f0109 	strteq	r0, [pc], -r9, lsl #2
    1e2c:	030c0501 	movweq	r0, #50433	; 0xc501
    1e30:	05050176 	streq	r0, [r5, #-374]	; 0xfffffe8a
    1e34:	2e0f0306 	cdpcs	3, 0, cr0, cr15, cr6, {0}
    1e38:	05130905 	ldreq	r0, [r3, #-2309]	; 0xfffff6fb
    1e3c:	0174030a 	cmneq	r4, sl, lsl #6
    1e40:	2f150505 	svccs	0x00150505
    1e44:	77030a05 	strvc	r0, [r3, -r5, lsl #20]
    1e48:	13050501 	movwne	r0, #21761	; 0x5501
    1e4c:	01060c05 	tsteq	r6, r5, lsl #24
    1e50:	06050566 	streq	r0, [r5], -r6, ror #10
    1e54:	05010903 	streq	r0, [r1, #-2307]	; 0xfffff6fd
    1e58:	051a0611 	ldreq	r0, [sl, #-1553]	; 0xfffff9ef
    1e5c:	2e780305 	cdpcs	3, 7, cr0, cr8, cr5, {0}
    1e60:	09052f06 	stmdbeq	r5, {r1, r2, r8, r9, sl, fp, sp}
    1e64:	060c0519 			; <UNDEFINED> instruction: 0x060c0519
    1e68:	061e0501 	ldreq	r0, [lr], -r1, lsl #10
    1e6c:	1305058a 	movwne	r0, #21898	; 0x558a
    1e70:	050e0605 	streq	r0, [lr, #-1541]	; 0xfffff9fb
    1e74:	1e051305 	cdpne	3, 0, cr1, cr5, cr5, {0}
    1e78:	05051406 	streq	r1, [r5, #-1030]	; 0xfffffbfa
    1e7c:	0605662c 	streq	r6, [r5], -ip, lsr #12
    1e80:	2e760306 	cdpcs	3, 7, cr0, cr6, cr6, {0}
    1e84:	05130505 	ldreq	r0, [r3, #-1285]	; 0xfffffafb
    1e88:	0176030a 	cmneq	r6, sl, lsl #6
    1e8c:	2f150505 	svccs	0x00150505
    1e90:	77030a05 	strvc	r0, [r3, -r5, lsl #20]
    1e94:	13050501 	movwne	r0, #21761	; 0x5501
    1e98:	01060c05 	tsteq	r6, r5, lsl #24
    1e9c:	06050566 	streq	r0, [r5], -r6, ror #10
    1ea0:	2f010903 	svccs	0x00010903
    1ea4:	0c050106 	stfeqs	f0, [r5], {6}
    1ea8:	05017603 	streq	r7, [r1, #-1539]	; 0xfffff9fd
    1eac:	0f030605 	svceq	0x00030605
    1eb0:	1309052e 	movwne	r0, #38190	; 0x952e
    1eb4:	74030a05 	strvc	r0, [r3], #-2565	; 0xfffff5fb
    1eb8:	15050501 	strne	r0, [r5, #-1281]	; 0xfffffaff
    1ebc:	030a052f 	movweq	r0, #42287	; 0xa52f
    1ec0:	05050177 	streq	r0, [r5, #-375]	; 0xfffffe89
    1ec4:	060c0513 			; <UNDEFINED> instruction: 0x060c0513
    1ec8:	05056601 	streq	r6, [r5, #-1537]	; 0xfffff9ff
    1ecc:	01090306 	tsteq	r9, r6, lsl #6
    1ed0:	1a061105 	bne	1862ec <__bss_end__+0x17b46c>
    1ed4:	78030505 	stmdavc	r3, {r0, r2, r8, sl}
    1ed8:	052f062e 	streq	r0, [pc, #-1582]!	; 18b2 <__code_start__-0x674e>
    1edc:	0c051909 			; <UNDEFINED> instruction: 0x0c051909
    1ee0:	08020106 	stmdaeq	r2, {r1, r2, r8}
    1ee4:	04010100 	streq	r0, [r1], #-256	; 0xffffff00
    1ee8:	03000002 	movweq	r0, #2
    1eec:	0000c800 	andeq	ip, r0, r0, lsl #16
    1ef0:	fb010200 	blx	426fa <__bss_end__+0x3787a>
    1ef4:	01000d0e 	tsteq	r0, lr, lsl #26
    1ef8:	00010101 	andeq	r0, r1, r1, lsl #2
    1efc:	00010000 	andeq	r0, r1, r0
    1f00:	682f0100 	stmdavs	pc!, {r8}	; <UNPREDICTABLE>
    1f04:	2f656d6f 	svccs	0x00656d6f
    1f08:	6c676e65 	stclvs	14, cr6, [r7], #-404	; 0xfffffe6c
    1f0c:	632f7265 			; <UNDEFINED> instruction: 0x632f7265
    1f10:	7373616c 	cmnvc	r3, #27
    1f14:	3173632f 	cmncc	r3, pc, lsr #6
    1f18:	2d653034 	stclcs	0, cr3, [r5, #-208]!	; 0xffffff30
    1f1c:	69773232 	ldmdbvs	r7!, {r1, r4, r5, r9, ip, sp}^
    1f20:	6c2f2f6e 	stcvs	15, cr2, [pc], #-440	; 1d70 <__code_start__-0x6290>
    1f24:	69706269 	ldmdbvs	r0!, {r0, r3, r5, r6, r9, sp, lr}^
    1f28:	636e692f 	cmnvs	lr, #770048	; 0xbc000
    1f2c:	6564756c 	strbvs	r7, [r4, #-1388]!	; 0xfffffa94
    1f30:	73752f00 	cmnvc	r5, #0, 30
    1f34:	68732f72 	ldmdavs	r3!, {r1, r4, r5, r6, r8, r9, sl, fp, sp}^
    1f38:	2f657261 	svccs	0x00657261
    1f3c:	2d636367 	stclcs	3, cr6, [r3, #-412]!	; 0xfffffe64
    1f40:	2d6d7261 	sfmcs	f7, 2, [sp, #-388]!	; 0xfffffe7c
    1f44:	656e6f6e 	strbvs	r6, [lr, #-3950]!	; 0xfffff092
    1f48:	6261652d 	rsbvs	r6, r1, #188743680	; 0xb400000
    1f4c:	30312d69 	eorscc	r2, r1, r9, ror #26
    1f50:	322d332e 	eorcc	r3, sp, #-1207959552	; 0xb8000000
    1f54:	2e313230 	mrccs	2, 1, r3, cr1, cr0, {1}
    1f58:	6c2f3031 	stcvs	0, cr3, [pc], #-196	; 1e9c <__code_start__-0x6164>
    1f5c:	672f6269 	strvs	r6, [pc, -r9, ror #4]!
    1f60:	612f6363 			; <UNDEFINED> instruction: 0x612f6363
    1f64:	6e2d6d72 	mcrvs	13, 1, r6, cr13, cr2, {3}
    1f68:	2d656e6f 	stclcs	14, cr6, [r5, #-444]!	; 0xfffffe44
    1f6c:	69626165 	stmdbvs	r2!, {r0, r2, r5, r6, r8, sp, lr}^
    1f70:	2e30312f 	rsfcssp	f3, f0, #10.0
    1f74:	2f312e33 	svccs	0x00312e33
    1f78:	6c636e69 	stclvs	14, cr6, [r3], #-420	; 0xfffffe5c
    1f7c:	00656475 	rsbeq	r6, r5, r5, ror r4
    1f80:	72617500 	rsbvc	r7, r1, #0, 10
    1f84:	00632e74 	rsbeq	r2, r3, r4, ror lr
    1f88:	75000000 	strvc	r0, [r0, #-0]
    1f8c:	2e747261 	cdpcs	2, 7, cr7, cr4, cr1, {3}
    1f90:	00010068 	andeq	r0, r1, r8, rrx
    1f94:	69707200 	ldmdbvs	r0!, {r9, ip, sp, lr}^
    1f98:	0100682e 	tsteq	r0, lr, lsr #16
    1f9c:	70670000 	rsbvc	r0, r7, r0
    1fa0:	682e6f69 	stmdavs	lr!, {r0, r3, r5, r6, r8, r9, sl, fp, sp, lr}
    1fa4:	00000100 	andeq	r0, r0, r0, lsl #2
    1fa8:	69647473 	stmdbvs	r4!, {r0, r1, r4, r5, r6, sl, ip, sp, lr}^
    1fac:	672d746e 	strvs	r7, [sp, -lr, ror #8]!
    1fb0:	682e6363 	stmdavs	lr!, {r0, r1, r5, r6, r8, r9, sp, lr}
    1fb4:	00000200 	andeq	r0, r0, r0, lsl #4
    1fb8:	00390500 	eorseq	r0, r9, r0, lsl #10
    1fbc:	98e40205 	stmials	r4!, {r0, r2, r9}^
    1fc0:	30030000 	andcc	r0, r3, r0
    1fc4:	05010601 	streq	r0, [r1, #-1537]	; 0xfffff9ff
    1fc8:	05670605 	strbeq	r0, [r7, #-1541]!	; 0xfffff9fb
    1fcc:	05010611 	streq	r0, [r1, #-1553]	; 0xfffff9ef
    1fd0:	01052e05 	tsteq	r5, r5, lsl #28
    1fd4:	06380567 	ldrteq	r0, [r8], -r7, ror #10
    1fd8:	05010629 	streq	r0, [r1, #-1577]	; 0xfffff9d7
    1fdc:	05670605 	strbeq	r0, [r7, #-1541]!	; 0xfffff9fb
    1fe0:	05010611 	streq	r0, [r1, #-1553]	; 0xfffff9ef
    1fe4:	01052e05 	tsteq	r5, r5, lsl #28
    1fe8:	06160567 	ldreq	r0, [r6], -r7, ror #10
    1fec:	052e1503 	streq	r1, [lr, #-1283]!	; 0xfffffafd
    1ff0:	68673505 	stmdavs	r7!, {r0, r2, r8, sl, ip, sp}^
    1ff4:	0c036835 	stceq	8, cr6, [r3], {53}	; 0x35
    1ff8:	696b852e 	stmdbvs	fp!, {r1, r2, r3, r5, r8, sl, pc}^
    1ffc:	660c0369 	strvs	r0, [ip], -r9, ror #6
    2000:	05676b13 	strbeq	r6, [r7, #-2835]!	; 0xfffff4ed
    2004:	052f0601 	streq	r0, [pc, #-1537]!	; 1a0b <__code_start__-0x65f5>
    2008:	25080619 	strcs	r0, [r8, #-1561]	; 0xfffff9e7
    200c:	05340505 	ldreq	r0, [r4, #-1285]!	; 0xfffffafb
    2010:	0501060d 	streq	r0, [r1, #-1549]	; 0xfffff9f3
    2014:	19054c01 	stmdbne	r5, {r0, sl, fp, lr}
    2018:	05056706 	streq	r6, [r5, #-1798]	; 0xfffff8fa
    201c:	060d0536 			; <UNDEFINED> instruction: 0x060d0536
    2020:	4a280501 	bmi	a0342c <__bss_end__+0x9f85ac>
    2024:	05300105 	ldreq	r0, [r0, #-261]!	; 0xfffffefb
    2028:	05870615 	streq	r0, [r7, #1557]	; 0x615
    202c:	052f2f05 	streq	r2, [pc, #-3845]!	; 112f <__code_start__-0x6ed1>
    2030:	04020009 	streq	r0, [r2], #-9
    2034:	0a051301 	beq	146c40 <__bss_end__+0x13bdc0>
    2038:	01040200 	mrseq	r0, R12_usr
    203c:	000c0511 	andeq	r0, ip, r1, lsl r5
    2040:	06010402 	streq	r0, [r1], -r2, lsl #8
    2044:	000a0501 	andeq	r0, sl, r1, lsl #10
    2048:	2e010402 	cdpcs	4, 0, cr0, cr1, cr2, {0}
    204c:	4c060505 	cfstr32mi	mvfx0, [r6], {5}
    2050:	01060e05 	tsteq	r6, r5, lsl #28
    2054:	054a0905 	strbeq	r0, [sl, #-2309]	; 0xfffff6fb
    2058:	2f2f0605 	svccs	0x002f0605
    205c:	13060105 	movwne	r0, #24837	; 0x6105
    2060:	67061c05 	strvs	r1, [r6, -r5, lsl #24]
    2064:	05050106 	streq	r0, [r5, #-262]	; 0xfffffefa
    2068:	052f4b06 	streq	r4, [pc, #-2822]!	; 156a <__code_start__-0x6a96>
    206c:	04020009 	streq	r0, [r2], #-9
    2070:	0a051301 	beq	146c7c <__bss_end__+0x13bdfc>
    2074:	01040200 	mrseq	r0, R12_usr
    2078:	000c0511 	andeq	r0, ip, r1, lsl r5
    207c:	06010402 	streq	r0, [r1], -r2, lsl #8
    2080:	000a0501 	andeq	r0, sl, r1, lsl #10
    2084:	2e010402 	cdpcs	4, 0, cr0, cr1, cr2, {0}
    2088:	4c060505 	cfstr32mi	mvfx0, [r6], {5}
    208c:	06010567 	streq	r0, [r1], -r7, ror #10
    2090:	0619052f 	ldreq	r0, [r9], -pc, lsr #10
    2094:	2e1b054c 	cfmac32cs	mvfx0, mvfx11, mvfx12
    2098:	052e2a05 	streq	r2, [lr, #-2565]!	; 0xfffff5fb
    209c:	05010631 	streq	r0, [r1, #-1585]	; 0xfffff9cf
    20a0:	1c052e42 	stcne	14, cr2, [r5], {66}	; 0x42
    20a4:	05053106 	streq	r3, [r5, #-262]	; 0xfffffefa
    20a8:	2e09032f 	cdpcs	3, 0, cr0, cr9, cr15, {1}
    20ac:	01060e05 	tsteq	r6, r5, lsl #28
    20b0:	054a2105 	strbeq	r2, [sl, #-261]	; 0xfffffefb
    20b4:	2e0a0301 	cdpcs	3, 0, cr0, cr10, cr1, {0}
    20b8:	68061a05 	stmdavs	r6, {r0, r2, r9, fp, ip}
    20bc:	02000905 	andeq	r0, r0, #81920	; 0x14000
    20c0:	05300104 	ldreq	r0, [r0, #-260]!	; 0xfffffefc
    20c4:	0402000a 	streq	r0, [r2], #-10
    20c8:	0c051101 	stfeqs	f1, [r5], {1}
    20cc:	01040200 	mrseq	r0, R12_usr
    20d0:	0a050106 	beq	1424f0 <__bss_end__+0x137670>
    20d4:	01040200 	mrseq	r0, R12_usr
    20d8:	0619052e 	ldreq	r0, [r9], -lr, lsr #10
    20dc:	667ee803 	ldrbtvs	lr, [lr], -r3, lsl #16
    20e0:	2f2f0505 	svccs	0x002f0505
    20e4:	0105672f 	tsteq	r5, pc, lsr #14
    20e8:	04022f06 	streq	r2, [r2], #-3846	; 0xfffff0fa
    20ec:	92010100 	andls	r0, r1, #0
    20f0:	03000003 	movweq	r0, #3
    20f4:	0000b700 	andeq	fp, r0, r0, lsl #14
    20f8:	fb010200 	blx	42902 <__bss_end__+0x37a82>
    20fc:	01000d0e 	tsteq	r0, lr, lsl #26
    2100:	00010101 	andeq	r0, r1, r1, lsl #2
    2104:	00010000 	andeq	r0, r1, r0
    2108:	682f0100 	stmdavs	pc!, {r8}	; <UNPREDICTABLE>
    210c:	2f656d6f 	svccs	0x00656d6f
    2110:	6c676e65 	stclvs	14, cr6, [r7], #-404	; 0xfffffe6c
    2114:	632f7265 			; <UNDEFINED> instruction: 0x632f7265
    2118:	7373616c 	cmnvc	r3, #27
    211c:	3173632f 	cmncc	r3, pc, lsr #6
    2120:	2d653034 	stclcs	0, cr3, [r5, #-208]!	; 0xffffff30
    2124:	69773232 	ldmdbvs	r7!, {r1, r4, r5, r9, ip, sp}^
    2128:	6c2f2f6e 	stcvs	15, cr2, [pc], #-440	; 1f78 <__code_start__-0x6088>
    212c:	69706269 	ldmdbvs	r0!, {r0, r3, r5, r6, r9, sp, lr}^
    2130:	636e692f 	cmnvs	lr, #770048	; 0xbc000
    2134:	6564756c 	strbvs	r7, [r4, #-1388]!	; 0xfffffa94
    2138:	73752f00 	cmnvc	r5, #0, 30
    213c:	68732f72 	ldmdavs	r3!, {r1, r4, r5, r6, r8, r9, sl, fp, sp}^
    2140:	2f657261 	svccs	0x00657261
    2144:	2d636367 	stclcs	3, cr6, [r3, #-412]!	; 0xfffffe64
    2148:	2d6d7261 	sfmcs	f7, 2, [sp, #-388]!	; 0xfffffe7c
    214c:	656e6f6e 	strbvs	r6, [lr, #-3950]!	; 0xfffff092
    2150:	6261652d 	rsbvs	r6, r1, #188743680	; 0xb400000
    2154:	30312d69 	eorscc	r2, r1, r9, ror #26
    2158:	322d332e 	eorcc	r3, sp, #-1207959552	; 0xb8000000
    215c:	2e313230 	mrccs	2, 1, r3, cr1, cr0, {1}
    2160:	6c2f3031 	stcvs	0, cr3, [pc], #-196	; 20a4 <__code_start__-0x5f5c>
    2164:	672f6269 	strvs	r6, [pc, -r9, ror #4]!
    2168:	612f6363 			; <UNDEFINED> instruction: 0x612f6363
    216c:	6e2d6d72 	mcrvs	13, 1, r6, cr13, cr2, {3}
    2170:	2d656e6f 	stclcs	14, cr6, [r5, #-444]!	; 0xfffffe44
    2174:	69626165 	stmdbvs	r2!, {r0, r2, r5, r6, r8, sp, lr}^
    2178:	2e30312f 	rsfcssp	f3, f0, #10.0
    217c:	2f312e33 	svccs	0x00312e33
    2180:	6c636e69 	stclvs	14, cr6, [r3], #-420	; 0xfffffe5c
    2184:	00656475 	rsbeq	r6, r5, r5, ror r4
    2188:	616d6b00 	cmnvs	sp, r0, lsl #22
    218c:	636f6c6c 	cmnvs	pc, #108, 24	; 0x6c00
    2190:	0000632e 	andeq	r6, r0, lr, lsr #6
    2194:	70720000 	rsbsvc	r0, r2, r0
    2198:	00682e69 	rsbeq	r2, r8, r9, ror #28
    219c:	73000001 	movwvc	r0, #1
    21a0:	6e696474 	mcrvs	4, 3, r6, cr9, cr4, {3}
    21a4:	63672d74 	cmnvs	r7, #116, 26	; 0x1d00
    21a8:	00682e63 	rsbeq	r2, r8, r3, ror #28
    21ac:	00000002 	andeq	r0, r0, r2
    21b0:	05001e05 	streq	r1, [r0, #-3589]	; 0xfffff1fb
    21b4:	009ad402 	addseq	sp, sl, r2, lsl #8
    21b8:	01270300 			; <UNDEFINED> instruction: 0x01270300
    21bc:	05012005 	streq	r2, [r1, #-5]
    21c0:	0501062d 	streq	r0, [r1, #-1581]	; 0xfffff9d3
    21c4:	05830620 	streq	r0, [r3, #1568]	; 0x620
    21c8:	35050122 	strcc	r0, [r5, #-290]	; 0xfffffede
    21cc:	1e050106 	adfnes	f0, f5, f6
    21d0:	20058306 	andcs	r8, r5, r6, lsl #6
    21d4:	062d0501 	strteq	r0, [sp], -r1, lsl #10
    21d8:	06420501 	strbeq	r0, [r2], -r1, lsl #10
    21dc:	05010685 	streq	r0, [r1, #-1669]	; 0xfffff97b
    21e0:	144b0605 	strbne	r0, [fp], #-1541	; 0xfffff9fb
    21e4:	002e0601 	eoreq	r0, lr, r1, lsl #12
    21e8:	06020402 	streq	r0, [r2], -r2, lsl #8
    21ec:	0402002e 	streq	r0, [r2], #-46	; 0xffffffd2
    21f0:	02000102 	andeq	r0, r0, #-2147483648	; 0x80000000
    21f4:	05150204 	ldreq	r0, [r5, #-516]	; 0xfffffdfc
    21f8:	0402000d 	streq	r0, [r2], #-13
    21fc:	05010602 	streq	r0, [r1, #-1538]	; 0xfffff9fe
    2200:	04020007 	streq	r0, [r2], #-7
    2204:	09054a02 	stmdbeq	r5, {r1, r9, fp, lr}
    2208:	05054b06 	streq	r4, [r5, #-2822]	; 0xfffff4fa
    220c:	06170515 			; <UNDEFINED> instruction: 0x06170515
    2210:	4a100501 	bmi	40361c <__bss_end__+0x3f879c>
    2214:	2f060505 	svccs	0x00060505
    2218:	01061b05 	tsteq	r6, r5, lsl #22
    221c:	052e0e05 	streq	r0, [lr, #-3589]!	; 0xfffff1fb
    2220:	05052f01 	streq	r2, [r5, #-3841]	; 0xfffff0ff
    2224:	01040200 	mrseq	r0, R12_usr
    2228:	4a770306 	bmi	1dc2e48 <__bss_end__+0x1db7fc8>
    222c:	01040200 	mrseq	r0, R12_usr
    2230:	04020001 	streq	r0, [r2], #-1
    2234:	009e0601 	addseq	r0, lr, r1, lsl #12
    2238:	2e010402 	cdpcs	4, 0, cr0, cr1, cr2, {0}
    223c:	01040200 	mrseq	r0, R12_usr
    2240:	09052e06 	stmdbeq	r5, {r1, r2, r9, sl, fp, sp}
    2244:	d6060132 			; <UNDEFINED> instruction: 0xd6060132
    2248:	052e062e 	streq	r0, [lr, #-1582]!	; 0xfffff9d2
    224c:	0505de19 	streq	sp, [r5, #-3609]	; 0xfffff1e7
    2250:	0805142f 	stmdaeq	r5, {r0, r1, r2, r3, r5, sl, ip}
    2254:	07050106 	streq	r0, [r5, -r6, lsl #2]
    2258:	0609054a 	streq	r0, [r9], -sl, asr #10
    225c:	1305054b 	movwne	r0, #21835	; 0x554b
    2260:	01060c05 	tsteq	r6, r5, lsl #24
    2264:	67060505 	strvs	r0, [r6, -r5, lsl #10]
    2268:	06010513 			; <UNDEFINED> instruction: 0x06010513
    226c:	06090567 	streq	r0, [r9], -r7, ror #10
    2270:	059e012a 	ldreq	r0, [lr, #298]	; 0x12a
    2274:	0106a528 	tsteq	r6, r8, lsr #10
    2278:	4b060505 	blmi	183694 <__bss_end__+0x178814>
    227c:	062e0601 	strteq	r0, [lr], -r1, lsl #12
    2280:	0513012e 	ldreq	r0, [r3, #-302]	; 0xfffffed2
    2284:	01470318 	cmpeq	r7, r8, lsl r3
    2288:	01130505 	tsteq	r3, r5, lsl #10
    228c:	0f060106 	svceq	0x00060106
    2290:	05130115 	ldreq	r0, [r3, #-277]	; 0xfffffeeb
    2294:	0501060e 	streq	r0, [r1, #-1550]	; 0xfffff9f2
    2298:	052e2e16 	streq	r2, [lr, #-3606]!	; 0xfffff1ea
    229c:	39030605 	stmdbcc	r3, {r0, r2, r9, sl}
    22a0:	060b0501 	streq	r0, [fp], -r1, lsl #10
    22a4:	06050501 	streq	r0, [r5], -r1, lsl #10
    22a8:	060a054b 	streq	r0, [sl], -fp, asr #10
    22ac:	06050501 	streq	r0, [r5], -r1, lsl #10
    22b0:	060d054b 	streq	r0, [sp], -fp, asr #10
    22b4:	2e070501 	cfsh32cs	mvfx0, mvfx7, #1
    22b8:	054d0105 	strbeq	r0, [sp, #-261]	; 0xfffffefb
    22bc:	04020005 	streq	r0, [r2], #-5
    22c0:	78030601 	stmdavc	r3, {r0, r9, sl}
    22c4:	0402004a 	streq	r0, [r2], #-74	; 0xffffffb6
    22c8:	02000101 	andeq	r0, r0, #1073741824	; 0x40000000
    22cc:	ba060104 	blt	1826e4 <__bss_end__+0x177864>
    22d0:	01040200 	mrseq	r0, R12_usr
    22d4:	09052e06 	stmdbeq	r5, {r1, r2, r9, sl, fp, sp}
    22d8:	82060134 	andhi	r0, r6, #13
    22dc:	052e0666 	streq	r0, [lr, #-1638]!	; 0xfffff99a
    22e0:	0106db20 	tsteq	r6, r0, lsr #22
    22e4:	4b060505 	blmi	183700 <__bss_end__+0x178880>
    22e8:	04020001 	streq	r0, [r2], #-1
    22ec:	02004a02 	andeq	r4, r0, #8192	; 0x2000
    22f0:	00010204 	andeq	r0, r1, r4, lsl #4
    22f4:	13020402 	movwne	r0, #9218	; 0x2402
    22f8:	02001205 	andeq	r1, r0, #1342177280	; 0x50000000
    22fc:	01060204 	tsteq	r6, r4, lsl #4
    2300:	02040200 	andeq	r0, r4, #0, 4
    2304:	0402002e 	streq	r0, [r2], #-46	; 0xffffffd2
    2308:	05052e02 	streq	r2, [r5, #-3586]	; 0xfffff1fe
    230c:	02040200 	andeq	r0, r4, #0, 4
    2310:	02002f06 	andeq	r2, r0, #6, 30
    2314:	05670204 	strbeq	r0, [r7, #-516]!	; 0xfffffdfc
    2318:	04020001 	streq	r0, [r2], #-1
    231c:	05130602 	ldreq	r0, [r3, #-1538]	; 0xfffff9fe
    2320:	04020005 	streq	r0, [r2], #-5
    2324:	00620601 	rsbeq	r0, r2, r1, lsl #12
    2328:	01010402 	tsteq	r1, r2, lsl #8
    232c:	01040200 	mrseq	r0, R12_usr
    2330:	0200ba06 	andeq	fp, r0, #24576	; 0x6000
    2334:	2e060104 	adfcss	f0, f6, f4
    2338:	0a033c05 	beq	d1354 <__bss_end__+0xc64d4>
    233c:	0501069e 	streq	r0, [r1, #-1694]	; 0xfffff962
    2340:	014b0605 	cmpeq	fp, r5, lsl #12
    2344:	2e062e06 	cdpcs	14, 0, cr2, cr6, cr6, {0}
    2348:	05011301 	streq	r1, [r1, #-769]	; 0xfffffcff
    234c:	7fad0318 	svcvc	0x00ad0318
    2350:	13050501 	movwne	r0, #21761	; 0x5501
    2354:	01061105 	tsteq	r6, r5, lsl #2
    2358:	0305052e 	movweq	r0, #21806	; 0x552e
    235c:	060100d2 			; <UNDEFINED> instruction: 0x060100d2
    2360:	1805134a 	stmdane	r5, {r1, r3, r6, r8, r9, ip}
    2364:	017fa303 	cmneq	pc, r3, lsl #6
    2368:	05130505 	ldreq	r0, [r3, #-1285]	; 0xfffffafb
    236c:	4a010616 	bmi	43bcc <__bss_end__+0x38d4c>
    2370:	03060505 	movweq	r0, #25861	; 0x6505
    2374:	050100e1 	streq	r0, [r1, #-225]	; 0xffffff1f
    2378:	05010612 	streq	r0, [r1, #-1554]	; 0xfffff9ee
    237c:	054b0605 	strbeq	r0, [fp, #-1541]	; 0xfffff9fb
    2380:	7fa90318 	svcvc	0x00a90318
    2384:	13050501 	movwne	r0, #21761	; 0x5501
    2388:	0e180501 	cfmul32eq	mvfx0, mvfx8, mvfx1
    238c:	05130505 	ldreq	r0, [r3, #-1285]	; 0xfffffafb
    2390:	2e010611 	mcrcs	6, 0, r0, cr1, cr1, {0}
    2394:	06150505 	ldreq	r0, [r5], -r5, lsl #10
    2398:	0513014a 	ldreq	r0, [r3, #-330]	; 0xfffffeb6
    239c:	2e01060e 	cfmadd32cs	mvax0, mvfx0, mvfx1, mvfx14
    23a0:	2e2e1605 	cfmadda32cs	mvax0, mvax1, mvfx14, mvfx5
    23a4:	03060505 	movweq	r0, #25861	; 0x6505
    23a8:	010100d6 	ldrdeq	r0, [r1, -r6]
    23ac:	9f031805 	svcls	0x00031805
    23b0:	0505017f 	streq	r0, [r5, #-383]	; 0xfffffe81
    23b4:	06190513 			; <UNDEFINED> instruction: 0x06190513
    23b8:	05052e01 	streq	r2, [r5, #-3585]	; 0xfffff1ff
    23bc:	0100e003 	tsteq	r0, r3
    23c0:	02040200 	andeq	r0, r4, #0, 4
    23c4:	02004a06 	andeq	r4, r0, #24576	; 0x6000
    23c8:	05140204 	ldreq	r0, [r4, #-516]	; 0xfffffdfc
    23cc:	0402000a 	streq	r0, [r2], #-10
    23d0:	05010602 	streq	r0, [r1, #-1538]	; 0xfffff9fe
    23d4:	04020005 	streq	r0, [r2], #-5
    23d8:	054b0602 	strbeq	r0, [fp, #-1538]	; 0xfffff9fe
    23dc:	0402000c 	streq	r0, [r2], #-12
    23e0:	05010602 	streq	r0, [r1, #-1538]	; 0xfffff9fe
    23e4:	04020001 	streq	r0, [r2], #-1
    23e8:	05052f02 	streq	r2, [r5, #-3842]	; 0xfffff0fe
    23ec:	01040200 	mrseq	r0, R12_usr
    23f0:	4a730306 	bmi	1cc3010 <__bss_end__+0x1cb8190>
    23f4:	01040200 	mrseq	r0, R12_usr
    23f8:	04020001 	streq	r0, [r2], #-1
    23fc:	009e0601 	addseq	r0, lr, r1, lsl #12
    2400:	2e010402 	cdpcs	4, 0, cr0, cr1, cr2, {0}
    2404:	01040200 	mrseq	r0, R12_usr
    2408:	02002e06 	andeq	r2, r0, #96	; 0x60
    240c:	002f0104 	eoreq	r0, pc, r4, lsl #2
    2410:	2e010402 	cdpcs	4, 0, cr0, cr1, cr2, {0}
    2414:	01040200 	mrseq	r0, R12_usr
    2418:	7fb103d6 	svcvc	0x00b103d6
    241c:	8206012e 	andhi	r0, r6, #-2147483637	; 0x8000000b
    2420:	2e062e2e 	cdpcs	14, 0, cr2, cr6, cr14, {1}
    2424:	02002e06 	andeq	r2, r0, #96	; 0x60
    2428:	03060104 	movweq	r0, #24836	; 0x6104
    242c:	000100d7 	ldrdeq	r0, [r1], -r7
    2430:	2e010402 	cdpcs	4, 0, cr0, cr1, cr2, {0}
    2434:	01040200 	mrseq	r0, R12_usr
    2438:	081505d6 	ldmdaeq	r5, {r1, r2, r4, r6, r7, r8, sl}
    243c:	0117057b 	tsteq	r7, fp, ror r5
    2440:	05311605 	ldreq	r1, [r1, #-1541]!	; 0xfffff9fb
    2444:	1d050118 	stfnes	f0, [r5, #-96]	; 0xffffffa0
    2448:	2b050106 	blcs	142868 <__bss_end__+0x1379e8>
    244c:	06190566 	ldreq	r0, [r9], -r6, ror #10
    2450:	1305054d 	movwne	r0, #21837	; 0x554d
    2454:	01060c05 	tsteq	r6, r5, lsl #24
    2458:	054a0705 	strbeq	r0, [sl, #-1797]	; 0xfffff8fb
    245c:	04020025 	streq	r0, [r2], #-37	; 0xffffffdb
    2460:	1e054a01 	vmlane.f32	s8, s10, s2
    2464:	01040200 	mrseq	r0, R12_usr
    2468:	0609054a 	streq	r0, [r9], -sl, asr #10
    246c:	1305054b 	movwne	r0, #21835	; 0x554b
    2470:	01060a05 	tsteq	r6, r5, lsl #20
    2474:	05631905 	strbeq	r1, [r3, #-2309]!	; 0xfffff6fb
    2478:	014c0609 	cmpeq	ip, r9, lsl #12
    247c:	2e069e06 	cdpcs	14, 0, cr9, cr6, cr6, {0}
    2480:	01000a02 	tsteq	r0, r2, lsl #20
    2484:	00028901 	andeq	r8, r2, r1, lsl #18
    2488:	c9000300 	stmdbgt	r0, {r8, r9}
    248c:	02000000 	andeq	r0, r0, #0, 0
    2490:	0d0efb01 	vstreq	d15, [lr, #-4]
    2494:	01010100 	mrseq	r0, (UNDEF: 17)
    2498:	00000001 	andeq	r0, r0, r1
    249c:	01000001 	tsteq	r0, r1
    24a0:	72732f2e 	rsbsvc	r2, r3, #184	; 0xb8
    24a4:	552f0063 	strpl	r0, [pc, #-99]!	; 2449 <__code_start__-0x5bb7>
    24a8:	73726573 	cmnvc	r2, #482344960	; 0x1cc00000
    24ac:	6c696d2f 	stclvs	13, cr6, [r9], #-188	; 0xffffff44
    24b0:	532f7365 			; <UNDEFINED> instruction: 0x532f7365
    24b4:	6372756f 	cmnvs	r2, #465567744	; 0x1bc00000
    24b8:	73632f65 	cmnvc	r3, #404	; 0x194
    24bc:	6c303432 	cfldrsvs	mvf3, [r0], #-200	; 0xffffff38
    24c0:	696c2f78 	stmdbvs	ip!, {r3, r4, r5, r6, r8, r9, sl, fp, sp}^
    24c4:	2f697062 	svccs	0x00697062
    24c8:	6c636e69 	stclvs	14, cr6, [r3], #-420	; 0xfffffe5c
    24cc:	00656475 	rsbeq	r6, r5, r5, ror r4
    24d0:	74706f2f 	ldrbtvc	r6, [r0], #-3887	; 0xfffff0d1
    24d4:	6d6f682f 	stclvs	8, cr6, [pc, #-188]!	; 2420 <__code_start__-0x5be0>
    24d8:	65726265 	ldrbvs	r6, [r2, #-613]!	; 0xfffffd9b
    24dc:	65432f77 	strbvs	r2, [r3, #-3959]	; 0xfffff089
    24e0:	72616c6c 	rsbvc	r6, r1, #108, 24	; 0x6c00
    24e4:	6d72612f 	ldfvse	f6, [r2, #-188]!	; 0xffffff44
    24e8:	6e6f6e2d 	cdpvs	14, 6, cr6, cr15, cr13, {1}
    24ec:	61652d65 	cmnvs	r5, r5, ror #26
    24f0:	392d6962 	pushcc	{r1, r5, r6, r8, fp, sp, lr}
    24f4:	322d392f 	eorcc	r3, sp, #770048	; 0xbc000
    24f8:	71393130 	teqvc	r9, r0, lsr r1
    24fc:	73632d34 	cmnvc	r3, #52, 26	; 0xd00
    2500:	65373031 	ldrvs	r3, [r7, #-49]!	; 0xffffffcf
    2504:	62696c2f 	rsbvs	r6, r9, #12032	; 0x2f00
    2508:	6363672f 	cmnvs	r3, #12320768	; 0xbc0000
    250c:	6d72612f 	ldfvse	f6, [r2, #-188]!	; 0xffffff44
    2510:	6e6f6e2d 	cdpvs	14, 6, cr6, cr15, cr13, {1}
    2514:	61652d65 	cmnvs	r5, r5, ror #26
    2518:	392f6962 	stmdbcc	pc!, {r1, r5, r6, r8, fp, sp, lr}	; <UNPREDICTABLE>
    251c:	312e322e 			; <UNDEFINED> instruction: 0x312e322e
    2520:	636e692f 	cmnvs	lr, #770048	; 0xbc000
    2524:	6564756c 	strbvs	r7, [r4, #-1388]!	; 0xfffffa94
    2528:	70670000 	rsbvc	r0, r7, r0
    252c:	632e6f69 			; <UNDEFINED> instruction: 0x632e6f69
    2530:	00000100 	andeq	r0, r0, r0, lsl #2
    2534:	2e697072 	mcrcs	0, 3, r7, cr9, cr2, {3}
    2538:	00020068 	andeq	r0, r2, r8, rrx
    253c:	64747300 	ldrbtvs	r7, [r4], #-768	; 0xfffffd00
    2540:	2d746e69 	ldclcs	14, cr6, [r4, #-420]!	; 0xfffffe5c
    2544:	2e636367 	cdpcs	3, 6, cr6, cr3, cr7, {3}
    2548:	00030068 	andeq	r0, r3, r8, rrx
    254c:	69706700 	ldmdbvs	r0!, {r8, r9, sl, sp, lr}^
    2550:	00682e6f 	rsbeq	r2, r8, pc, ror #28
    2554:	00000002 	andeq	r0, r0, r2
    2558:	05003805 	streq	r3, [r0, #-2053]	; 0xfffff7fb
    255c:	009e8402 	addseq	r8, lr, r2, lsl #8
    2560:	01270300 			; <UNDEFINED> instruction: 0x01270300
    2564:	05130505 	ldreq	r0, [r3, #-1285]	; 0xfffffafb
    2568:	05010607 	streq	r0, [r1, #-1543]	; 0xfffff9f9
    256c:	05490606 	strbeq	r0, [r9, #-1542]	; 0xfffff9fa
    2570:	07051505 	streq	r1, [r5, -r5, lsl #10]
    2574:	38050106 	stmdacc	r5, {r1, r2, r8}
    2578:	4d07052b 	cfstr32mi	mvfx0, [r7, #-172]	; 0xffffff54
    257c:	30060505 	andcc	r0, r6, r5, lsl #10
    2580:	01061805 	tsteq	r6, r5, lsl #16
    2584:	05671c05 	strbeq	r1, [r7, #-3077]!	; 0xfffff3fb
    2588:	18054a0e 	stmdane	r5, {r1, r2, r3, r9, fp, lr}
    258c:	4d12052d 	cfldr32mi	mvfx0, [r2, #-180]	; 0xffffff4c
    2590:	0e052f2e 	cdpeq	15, 0, cr2, cr5, cr14, {1}
    2594:	0605052a 	streq	r0, [r5], -sl, lsr #10
    2598:	0513142f 	ldreq	r1, [r3, #-1071]	; 0xfffffbd1
    259c:	05010607 	streq	r0, [r1, #-1543]	; 0xfffff9f9
    25a0:	132f0605 			; <UNDEFINED> instruction: 0x132f0605
    25a4:	052e2e06 	streq	r2, [lr, #-3590]!	; 0xfffff1fa
    25a8:	05051301 	streq	r1, [r5, #-769]	; 0xfffffcff
    25ac:	24052e2d 	strcs	r2, [r5], #-3629	; 0xfffff1d3
    25b0:	02050006 	andeq	r0, r5, #6, 0
    25b4:	00009ee4 	andeq	r9, r0, r4, ror #29
    25b8:	13050515 	movwne	r0, #21781	; 0x5515
    25bc:	71030605 	tstvc	r3, r5, lsl #12
    25c0:	13050501 	movwne	r0, #21761	; 0x5501
    25c4:	01060705 	tsteq	r6, r5, lsl #14
    25c8:	49060605 	stmdbmi	r6, {r0, r2, r9, sl}
    25cc:	14150505 	ldrne	r0, [r5], #-1285	; 0xfffffafb
    25d0:	03062405 	movweq	r2, #25605	; 0x6405
    25d4:	18050109 	stmdane	r5, {r0, r3, r8}
    25d8:	052e7703 	streq	r7, [lr, #-1795]!	; 0xfffff8fd
    25dc:	0e05671c 	mcreq	7, 0, r6, cr5, cr12, {0}
    25e0:	2d18054a 	cfldr32cs	mvfx0, [r8, #-296]	; 0xfffffed8
    25e4:	2e4d1205 	cdpcs	2, 4, cr1, cr13, cr5, {0}
    25e8:	2f0f052f 	svccs	0x000f052f
    25ec:	05290e05 	streq	r0, [r9, #-3589]!	; 0xfffff1fb
    25f0:	142f0605 	strtne	r0, [pc], #-1541	; 25f8 <__code_start__-0x5a08>
    25f4:	06070513 			; <UNDEFINED> instruction: 0x06070513
    25f8:	06050501 	streq	r0, [r5], -r1, lsl #10
    25fc:	2e06132f 	cdpcs	3, 0, cr1, cr6, cr15, {1}
    2600:	05330105 	ldreq	r0, [r3, #-261]!	; 0xfffffefb
    2604:	052e2905 	streq	r2, [lr, #-2309]!	; 0xfffff6fb
    2608:	05000627 	streq	r0, [r0, #-1575]	; 0xfffff9d9
    260c:	009f3c02 	addseq	r3, pc, r2, lsl #24
    2610:	05051a00 	streq	r1, [r5, #-2560]	; 0xfffff600
    2614:	06270513 			; <UNDEFINED> instruction: 0x06270513
    2618:	2f180511 	svccs	0x00180511
    261c:	2e2e0505 	cfsh64cs	mvdx0, mvdx14, #5
    2620:	0628054a 	strteq	r0, [r8], -sl, asr #10
    2624:	54020500 	strpl	r0, [r2], #-1280	; 0xfffffb00
    2628:	1600009f 			; <UNDEFINED> instruction: 0x1600009f
    262c:	05130505 	ldreq	r0, [r3, #-1285]	; 0xfffffafb
    2630:	05110628 	ldreq	r0, [r1, #-1576]	; 0xfffff9d8
    2634:	05052f18 	streq	r2, [r5, #-3864]	; 0xfffff0e8
    2638:	054a2e2e 	strbeq	r2, [sl, #-3630]	; 0xfffff1d2
    263c:	05000623 	streq	r0, [r0, #-1571]	; 0xfffff9dd
    2640:	009f6c02 	addseq	r6, pc, r2, lsl #24
    2644:	05051600 	streq	r1, [r5, #-1536]	; 0xfffffa00
    2648:	03060513 	movweq	r0, #25875	; 0x6513
    264c:	05050162 	streq	r0, [r5, #-354]	; 0xfffffe9e
    2650:	06070513 			; <UNDEFINED> instruction: 0x06070513
    2654:	06060501 	streq	r0, [r6], -r1, lsl #10
    2658:	15050549 	strne	r0, [r5, #-1353]	; 0xfffffab7
    265c:	23051314 	movwcs	r1, #21268	; 0x5314
    2660:	01170306 	tsteq	r7, r6, lsl #6
    2664:	69032205 	stmdbvs	r3, {r0, r2, r9, sp}
    2668:	821c052e 	andshi	r0, ip, #192937984	; 0xb800000
    266c:	2e0e052e 	cfsh32cs	mvfx0, mvfx14, #30
    2670:	30060505 	andcc	r0, r6, r5, lsl #10
    2674:	01061205 	tsteq	r6, r5, lsl #4
    2678:	05052d4b 	streq	r2, [r5, #-3403]	; 0xfffff2b5
    267c:	13132f06 	tstne	r3, #6, 30
    2680:	03061805 	movweq	r1, #26629	; 0x6805
    2684:	0e05017a 	mcreq	1, 0, r0, cr5, cr10, {3}
    2688:	3405054a 	strcc	r0, [r5], #-1354	; 0xfffffab6
    268c:	0301052e 	movweq	r0, #5422	; 0x152e
    2690:	05052e14 	streq	r2, [r5, #-3604]	; 0xfffff1ec
    2694:	2e2e6c03 	cdpcs	12, 2, cr6, cr14, cr3, {0}
    2698:	00062b05 	andeq	r2, r6, r5, lsl #22
    269c:	9fc40205 	svcls	0x00c40205
    26a0:	17030000 	strne	r0, [r3, -r0]
    26a4:	13050501 	movwne	r0, #21761	; 0x5501
    26a8:	01060705 	tsteq	r6, r5, lsl #14
    26ac:	71031805 	tstvc	r3, r5, lsl #16
    26b0:	032b052e 			; <UNDEFINED> instruction: 0x032b052e
    26b4:	07052e0e 	streq	r2, [r5, -lr, lsl #28]
    26b8:	0609052f 	streq	r0, [r9], -pc, lsr #10
    26bc:	030d052f 	movweq	r0, #54575	; 0xd52f
    26c0:	0505016f 	streq	r0, [r5, #-367]	; 0xfffffe91
    26c4:	2e2e0613 	mcrcs	6, 1, r0, cr14, cr3, {0}
    26c8:	0609052e 	streq	r0, [r9], -lr, lsr #10
    26cc:	05011203 	streq	r1, [r1, #-515]	; 0xfffffdfd
    26d0:	0172030d 	cmneq	r2, sp, lsl #6
    26d4:	06130505 	ldreq	r0, [r3], -r5, lsl #10
    26d8:	1d052e2e 	stcne	14, cr2, [r5, #-184]	; 0xffffff48
    26dc:	66100306 	ldrvs	r0, [r0], -r6, lsl #6
    26e0:	05130505 	ldreq	r0, [r3, #-1285]	; 0xfffffafb
    26e4:	2e11061d 	mrccs	6, 0, r0, cr1, cr13, {0}
    26e8:	30060505 	andcc	r0, r6, r5, lsl #10
    26ec:	060e0513 			; <UNDEFINED> instruction: 0x060e0513
    26f0:	30170510 	andscc	r0, r7, r0, lsl r5
    26f4:	0502042e 	streq	r0, [r2, #-1070]	; 0xfffffbd2
    26f8:	dd030630 	stcle	6, cr0, [r3, #-192]	; 0xffffff40
    26fc:	01042e00 	tsteq	r4, r0, lsl #28
    2700:	03060e05 	movweq	r0, #28165	; 0x6e05
    2704:	05017fa2 	streq	r7, [r1, #-4002]	; 0xfffff05e
    2708:	01052f23 	tsteq	r5, r3, lsr #30
    270c:	0006022f 	andeq	r0, r6, pc, lsr #4
    2710:	009e0101 	addseq	r0, lr, r1, lsl #2
    2714:	00030000 	andeq	r0, r3, r0
    2718:	0000005a 	andeq	r0, r0, sl, asr r0
    271c:	0efb0102 	cdpeq	1, 15, cr0, cr11, cr2, {0}
    2720:	0101000d 	tsteq	r1, sp
    2724:	00000101 	andeq	r0, r0, r1, lsl #2
    2728:	00000100 	andeq	r0, r0, r0, lsl #2
    272c:	6c2f2e01 	stcvs	14, cr2, [pc], #-4	; 2730 <__code_start__-0x58d0>
    2730:	00636269 	rsbeq	r6, r3, r9, ror #4
    2734:	6573552f 	ldrbvs	r5, [r3, #-1327]!	; 0xfffffad1
    2738:	6d2f7372 	stcvs	3, cr7, [pc, #-456]!	; 2578 <__code_start__-0x5a88>
    273c:	73656c69 	cmnvc	r5, #26880	; 0x6900
    2740:	756f532f 	strbvc	r5, [pc, #-815]!	; 2419 <__code_start__-0x5be7>
    2744:	2f656372 	svccs	0x00656372
    2748:	34327363 	ldrtcc	r7, [r2], #-867	; 0xfffffc9d
    274c:	2f786c30 	svccs	0x00786c30
    2750:	7062696c 	rsbvc	r6, r2, ip, ror #18
    2754:	6e692f69 	cdpvs	15, 6, cr2, cr9, cr9, {3}
    2758:	64756c63 	ldrbtvs	r6, [r5], #-3171	; 0xfffff39d
    275c:	70000065 	andvc	r0, r0, r5, rrx
    2760:	68637475 	stmdavs	r3!, {r0, r2, r4, r5, r6, sl, ip, sp, lr}^
    2764:	632e7261 			; <UNDEFINED> instruction: 0x632e7261
    2768:	00000100 	andeq	r0, r0, r0, lsl #2
    276c:	2e697072 	mcrcs	0, 3, r7, cr9, cr2, {3}
    2770:	00020068 	andeq	r0, r2, r8, rrx
    2774:	24050000 	strcs	r0, [r5], #-0
    2778:	1c020500 	cfstr32ne	mvfx0, [r2], {-0}
    277c:	140000a0 	strne	r0, [r0], #-160	; 0xffffff60
    2780:	05012605 	streq	r2, [r1, #-1541]	; 0xfffff9fb
    2784:	2e010624 	cfmadd32cs	mvax1, mvfx0, mvfx1, mvfx4
    2788:	052e2605 	streq	r2, [lr, #-1541]!	; 0xfffff9fb
    278c:	052e0634 	streq	r0, [lr, #-1588]!	; 0xfffff9cc
    2790:	05010601 	streq	r0, [r1, #-1537]	; 0xfffff9ff
    2794:	054f061b 	strbeq	r0, [pc, #-1563]	; 2181 <__code_start__-0x5e7f>
    2798:	11051305 	tstne	r5, r5, lsl #6
    279c:	01050106 	tsteq	r5, r6, lsl #2
    27a0:	06230567 	strteq	r0, [r3], -r7, ror #10
    27a4:	13050567 	movwne	r0, #21863	; 0x5567
    27a8:	01061105 	tsteq	r6, r5, lsl #2
    27ac:	024b0105 	subeq	r0, fp, #1073741825	; 0x40000001
    27b0:	01010004 	tsteq	r1, r4
    27b4:	000000e2 	andeq	r0, r0, r2, ror #1
    27b8:	00590003 	subseq	r0, r9, r3
    27bc:	01020000 	mrseq	r0, (UNDEF: 2)
    27c0:	000d0efb 	strdeq	r0, [sp], -fp
    27c4:	01010101 	tsteq	r1, r1, lsl #2
    27c8:	01000000 	mrseq	r0, (UNDEF: 0)
    27cc:	2e010000 	cdpcs	0, 0, cr0, cr1, cr0, {0}
    27d0:	62696c2f 	rsbvs	r6, r9, #12032	; 0x2f00
    27d4:	552f0063 	strpl	r0, [pc, #-99]!	; 2779 <__code_start__-0x5887>
    27d8:	73726573 	cmnvc	r2, #482344960	; 0x1cc00000
    27dc:	6c696d2f 	stclvs	13, cr6, [r9], #-188	; 0xffffff44
    27e0:	532f7365 			; <UNDEFINED> instruction: 0x532f7365
    27e4:	6372756f 	cmnvs	r2, #465567744	; 0x1bc00000
    27e8:	73632f65 	cmnvc	r3, #404	; 0x194
    27ec:	6c303432 	cfldrsvs	mvf3, [r0], #-200	; 0xffffff38
    27f0:	696c2f78 	stmdbvs	ip!, {r3, r4, r5, r6, r8, r9, sl, fp, sp}^
    27f4:	2f697062 	svccs	0x00697062
    27f8:	6c636e69 	stclvs	14, cr6, [r3], #-420	; 0xfffffe5c
    27fc:	00656475 	rsbeq	r6, r5, r5, ror r4
    2800:	72747300 	rsbsvc	r7, r4, #0, 6
    2804:	2e746163 	rpwcssz	f6, f4, f3
    2808:	00010063 	andeq	r0, r1, r3, rrx
    280c:	69707200 	ldmdbvs	r0!, {r9, ip, sp, lr}^
    2810:	0200682e 	andeq	r6, r0, #3014656	; 0x2e0000
    2814:	05000000 	streq	r0, [r0, #-0]
    2818:	0205002c 	andeq	r0, r5, #44, 0	; 0x2c
    281c:	0000a058 	andeq	sl, r0, r8, asr r0
    2820:	13050515 	movwne	r0, #21781	; 0x5515
    2824:	060b0513 			; <UNDEFINED> instruction: 0x060b0513
    2828:	00050511 	andeq	r0, r5, r1, lsl r5
    282c:	06010402 	streq	r0, [r1], -r2, lsl #8
    2830:	04020030 	streq	r0, [r2], #-48	; 0xffffffd0
    2834:	09051501 	stmdbeq	r5, {r0, r8, sl, ip}
    2838:	01040200 	mrseq	r0, R12_usr
    283c:	000b0513 	andeq	r0, fp, r3, lsl r5
    2840:	2f010402 	svccs	0x00010402
    2844:	02000505 	andeq	r0, r0, #20971520	; 0x1400000
    2848:	01060104 	tsteq	r6, r4, lsl #2
    284c:	01040200 	mrseq	r0, R12_usr
    2850:	054e062e 	strbeq	r0, [lr, #-1582]	; 0xfffff9d2
    2854:	05010608 	streq	r0, [r1, #-1544]	; 0xfffff9f8
    2858:	04020005 	streq	r0, [r2], #-5
    285c:	052f0601 	streq	r0, [pc, #-1537]!	; 2263 <__code_start__-0x5d9d>
    2860:	04020009 	streq	r0, [r2], #-9
    2864:	0b051301 	bleq	147470 <__bss_end__+0x13c5f0>
    2868:	01040200 	mrseq	r0, R12_usr
    286c:	09050106 	stmdbeq	r5, {r1, r2, r8}
    2870:	01040200 	mrseq	r0, R12_usr
    2874:	05052f06 	streq	r2, [r5, #-3846]	; 0xfffff0fa
    2878:	01040200 	mrseq	r0, R12_usr
    287c:	0f051306 	svceq	0x00051306
    2880:	01040200 	mrseq	r0, R12_usr
    2884:	000d052d 	andeq	r0, sp, sp, lsr #10
    2888:	06010402 	streq	r0, [r1], -r2, lsl #8
    288c:	0005052f 	andeq	r0, r5, pc, lsr #10
    2890:	06010402 	streq	r0, [r1], -r2, lsl #8
    2894:	00040201 	andeq	r0, r4, r1, lsl #4
    2898:	00b20101 	adcseq	r0, r2, r1, lsl #2
    289c:	00030000 	andeq	r0, r3, r0
    28a0:	00000059 	andeq	r0, r0, r9, asr r0
    28a4:	0efb0102 	cdpeq	1, 15, cr0, cr11, cr2, {0}
    28a8:	0101000d 	tsteq	r1, sp
    28ac:	00000101 	andeq	r0, r0, r1, lsl #2
    28b0:	00000100 	andeq	r0, r0, r0, lsl #2
    28b4:	6c2f2e01 	stcvs	14, cr2, [pc], #-4	; 28b8 <__code_start__-0x5748>
    28b8:	00636269 	rsbeq	r6, r3, r9, ror #4
    28bc:	6573552f 	ldrbvs	r5, [r3, #-1327]!	; 0xfffffad1
    28c0:	6d2f7372 	stcvs	3, cr7, [pc, #-456]!	; 2700 <__code_start__-0x5900>
    28c4:	73656c69 	cmnvc	r5, #26880	; 0x6900
    28c8:	756f532f 	strbvc	r5, [pc, #-815]!	; 25a1 <__code_start__-0x5a5f>
    28cc:	2f656372 	svccs	0x00656372
    28d0:	34327363 	ldrtcc	r7, [r2], #-867	; 0xfffffc9d
    28d4:	2f786c30 	svccs	0x00786c30
    28d8:	7062696c 	rsbvc	r6, r2, ip, ror #18
    28dc:	6e692f69 	cdpvs	15, 6, cr2, cr9, cr9, {3}
    28e0:	64756c63 	ldrbtvs	r6, [r5], #-3171	; 0xfffff39d
    28e4:	73000065 	movwvc	r0, #101	; 0x65
    28e8:	6d637274 	sfmvs	f7, 2, [r3, #-464]!	; 0xfffffe30
    28ec:	00632e70 	rsbeq	r2, r3, r0, ror lr
    28f0:	72000001 	andvc	r0, r0, #1, 0
    28f4:	682e6970 	stmdavs	lr!, {r4, r5, r6, r8, fp, sp, lr}
    28f8:	00000200 	andeq	r0, r0, r0, lsl #4
    28fc:	002a0500 	eoreq	r0, sl, r0, lsl #10
    2900:	a0840205 	addge	r0, r4, r5, lsl #4
    2904:	05140000 	ldreq	r0, [r4, #-0]
    2908:	10051309 	andne	r1, r5, r9, lsl #6
    290c:	0f050106 	svceq	0x00050106
    2910:	10052e06 	andne	r2, r5, r6, lsl #28
    2914:	0f058206 	svceq	0x00058206
    2918:	0011052e 	andseq	r0, r1, lr, lsr #10
    291c:	06010402 	streq	r0, [r1], -r2, lsl #8
    2920:	001c054b 	andseq	r0, ip, fp, asr #10
    2924:	06010402 	streq	r0, [r1], -r2, lsl #8
    2928:	000f052d 	andeq	r0, pc, sp, lsr #10
    292c:	06010402 	streq	r0, [r1], -r2, lsl #8
    2930:	0013052e 	andseq	r0, r3, lr, lsr #10
    2934:	06010402 	streq	r0, [r1], -r2, lsl #8
    2938:	06090501 	streq	r0, [r9], -r1, lsl #10
    293c:	0601054c 	streq	r0, [r1], -ip, asr #10
    2940:	09054a13 	stmdbeq	r5, {r0, r1, r4, r9, fp, lr}
    2944:	01052d06 	tsteq	r5, r6, lsl #26
    2948:	022e1306 	eoreq	r1, lr, #402653184	; 0x18000000
    294c:	01010002 	tsteq	r1, r2
    2950:	0000009d 	muleq	r0, sp, r0
    2954:	00590003 	subseq	r0, r9, r3
    2958:	01020000 	mrseq	r0, (UNDEF: 2)
    295c:	000d0efb 	strdeq	r0, [sp], -fp
    2960:	01010101 	tsteq	r1, r1, lsl #2
    2964:	01000000 	mrseq	r0, (UNDEF: 0)
    2968:	2e010000 	cdpcs	0, 0, cr0, cr1, cr0, {0}
    296c:	62696c2f 	rsbvs	r6, r9, #12032	; 0x2f00
    2970:	552f0063 	strpl	r0, [pc, #-99]!	; 2915 <__code_start__-0x56eb>
    2974:	73726573 	cmnvc	r2, #482344960	; 0x1cc00000
    2978:	6c696d2f 	stclvs	13, cr6, [r9], #-188	; 0xffffff44
    297c:	532f7365 			; <UNDEFINED> instruction: 0x532f7365
    2980:	6372756f 	cmnvs	r2, #465567744	; 0x1bc00000
    2984:	73632f65 	cmnvc	r3, #404	; 0x194
    2988:	6c303432 	cfldrsvs	mvf3, [r0], #-200	; 0xffffff38
    298c:	696c2f78 	stmdbvs	ip!, {r3, r4, r5, r6, r8, r9, sl, fp, sp}^
    2990:	2f697062 	svccs	0x00697062
    2994:	6c636e69 	stclvs	14, cr6, [r3], #-420	; 0xfffffe5c
    2998:	00656475 	rsbeq	r6, r5, r5, ror r4
    299c:	72747300 	rsbsvc	r7, r4, #0, 6
    29a0:	2e797063 	cdpcs	0, 7, cr7, cr9, cr3, {3}
    29a4:	00010063 	andeq	r0, r1, r3, rrx
    29a8:	69707200 	ldmdbvs	r0!, {r9, ip, sp, lr}^
    29ac:	0200682e 	andeq	r6, r0, #3014656	; 0x2e0000
    29b0:	05000000 	streq	r0, [r0, #-0]
    29b4:	0205002a 	andeq	r0, r5, #42, 0	; 0x2a
    29b8:	0000a0c8 	andeq	sl, r0, r8, asr #1
    29bc:	13050514 	movwne	r0, #21780	; 0x5514
    29c0:	00220513 	eoreq	r0, r2, r3, lsl r5
    29c4:	2e010402 	cdpcs	4, 0, cr0, cr1, cr2, {0}
    29c8:	02000b05 	andeq	r0, r0, #5120	; 0x1400
    29cc:	05010104 	streq	r0, [r1, #-260]	; 0xfffffefc
    29d0:	04020015 	streq	r0, [r2], #-21	; 0xffffffeb
    29d4:	05010601 	streq	r0, [r1, #-1537]	; 0xfffff9ff
    29d8:	0402000b 	streq	r0, [r2], #-11
    29dc:	13052e01 	movwne	r2, #24065	; 0x5e01
    29e0:	01040200 	mrseq	r0, R12_usr
    29e4:	000b052e 	andeq	r0, fp, lr, lsr #10
    29e8:	2e010402 	cdpcs	4, 0, cr0, cr1, cr2, {0}
    29ec:	01000402 	tsteq	r0, r2, lsl #8
    29f0:	0000fd01 	andeq	pc, r0, r1, lsl #26
    29f4:	bf000300 	svclt	0x00000300
    29f8:	02000000 	andeq	r0, r0, #0, 0
    29fc:	0d0efb01 	vstreq	d15, [lr, #-4]
    2a00:	01010100 	mrseq	r0, (UNDEF: 17)
    2a04:	00000001 	andeq	r0, r0, r1
    2a08:	01000001 	tsteq	r0, r1
    2a0c:	696c2f2e 	stmdbvs	ip!, {r1, r2, r3, r5, r8, r9, sl, fp, sp}^
    2a10:	2f006362 	svccs	0x00006362
    2a14:	72657355 	rsbvc	r7, r5, #1409286145	; 0x54000001
    2a18:	696d2f73 	stmdbvs	sp!, {r0, r1, r4, r5, r6, r8, r9, sl, fp, sp}^
    2a1c:	2f73656c 	svccs	0x0073656c
    2a20:	72756f53 	rsbsvc	r6, r5, #332	; 0x14c
    2a24:	632f6563 			; <UNDEFINED> instruction: 0x632f6563
    2a28:	30343273 	eorscc	r3, r4, r3, ror r2
    2a2c:	6c2f786c 	stcvs	8, cr7, [pc], #-432	; 2884 <__code_start__-0x577c>
    2a30:	69706269 	ldmdbvs	r0!, {r0, r3, r5, r6, r9, sp, lr}^
    2a34:	636e692f 	cmnvs	lr, #770048	; 0xbc000
    2a38:	6564756c 	strbvs	r7, [r4, #-1388]!	; 0xfffffa94
    2a3c:	706f2f00 	rsbvc	r2, pc, r0, lsl #30
    2a40:	6f682f74 	svcvs	0x00682f74
    2a44:	7262656d 	rsbvc	r6, r2, #457179136	; 0x1b400000
    2a48:	432f7765 			; <UNDEFINED> instruction: 0x432f7765
    2a4c:	616c6c65 	cmnvs	ip, r5, ror #24
    2a50:	72612f72 	rsbvc	r2, r1, #456	; 0x1c8
    2a54:	6f6e2d6d 	svcvs	0x006e2d6d
    2a58:	652d656e 	strvs	r6, [sp, #-1390]!	; 0xfffffa92
    2a5c:	2d696261 	sfmcs	f6, 2, [r9, #-388]!	; 0xfffffe7c
    2a60:	2d392f39 	ldccs	15, cr2, [r9, #-228]!	; 0xffffff1c
    2a64:	39313032 	ldmdbcc	r1!, {r1, r4, r5, ip, sp}
    2a68:	632d3471 			; <UNDEFINED> instruction: 0x632d3471
    2a6c:	37303173 			; <UNDEFINED> instruction: 0x37303173
    2a70:	696c2f65 	stmdbvs	ip!, {r0, r2, r5, r6, r8, r9, sl, fp, sp}^
    2a74:	63672f62 	cmnvs	r7, #392	; 0x188
    2a78:	72612f63 	rsbvc	r2, r1, #396	; 0x18c
    2a7c:	6f6e2d6d 	svcvs	0x006e2d6d
    2a80:	652d656e 	strvs	r6, [sp, #-1390]!	; 0xfffffa92
    2a84:	2f696261 	svccs	0x00696261
    2a88:	2e322e39 	mrccs	14, 1, r2, cr2, cr9, {1}
    2a8c:	6e692f31 	mcrvs	15, 3, r2, cr9, cr1, {1}
    2a90:	64756c63 	ldrbtvs	r6, [r5], #-3171	; 0xfffff39d
    2a94:	73000065 	movwvc	r0, #101	; 0x65
    2a98:	636e7274 	cmnvs	lr, #116, 4	; 0x40000007
    2a9c:	632e706d 			; <UNDEFINED> instruction: 0x632e706d
    2aa0:	00000100 	andeq	r0, r0, r0, lsl #2
    2aa4:	2e697072 	mcrcs	0, 3, r7, cr9, cr2, {3}
    2aa8:	00020068 	andeq	r0, r2, r8, rrx
    2aac:	64747300 	ldrbtvs	r7, [r4], #-768	; 0xfffffd00
    2ab0:	2e666564 	cdpcs	5, 6, cr6, cr6, cr4, {3}
    2ab4:	00030068 	andeq	r0, r3, r8, rrx
    2ab8:	39050000 	stmdbcc	r5, {}	; <UNPREDICTABLE>
    2abc:	e0020500 	and	r0, r2, r0, lsl #10
    2ac0:	150000a0 	strne	r0, [r0, #-160]	; 0xffffff60
    2ac4:	13130505 	tstne	r3, #20971520	; 0x1400000
    2ac8:	2e060a05 	vmlacs.f32	s0, s12, s10
    2acc:	052f0c05 	streq	r0, [pc, #-3077]!	; 1ecf <__code_start__-0x6131>
    2ad0:	0b052e13 	bleq	14e324 <__bss_end__+0x1434a4>
    2ad4:	0609052e 	streq	r0, [r9], -lr, lsr #10
    2ad8:	110a054a 	tstne	sl, sl, asr #10
    2adc:	0c050106 	stfeqs	f0, [r5], {6}
    2ae0:	2f01054e 	svccs	0x0001054e
    2ae4:	2b060d05 	blcs	185f00 <__bss_end__+0x17b080>
    2ae8:	01061b05 	tsteq	r6, r5, lsl #22
    2aec:	0002022e 	andeq	r0, r2, lr, lsr #4
    2af0:	008a0101 	addeq	r0, sl, r1, lsl #2
    2af4:	00030000 	andeq	r0, r3, r0
    2af8:	0000006e 	andeq	r0, r0, lr, rrx
    2afc:	0efb0102 	cdpeq	1, 15, cr0, cr11, cr2, {0}
    2b00:	0101000d 	tsteq	r1, sp
    2b04:	00000101 	andeq	r0, r0, r1, lsl #2
    2b08:	00000100 	andeq	r0, r0, r0, lsl #2
    2b0c:	732f2e01 			; <UNDEFINED> instruction: 0x732f2e01
    2b10:	66666174 			; <UNDEFINED> instruction: 0x66666174
    2b14:	6372732d 	cmnvs	r2, #-1275068416	; 0xb4000000
    2b18:	73552f00 	cmpvc	r5, #0, 30
    2b1c:	2f737265 	svccs	0x00737265
    2b20:	656c696d 	strbvs	r6, [ip, #-2413]!	; 0xfffff693
    2b24:	6f532f73 	svcvs	0x00532f73
    2b28:	65637275 	strbvs	r7, [r3, #-629]!	; 0xfffffd8b
    2b2c:	3273632f 	rsbscc	r6, r3, #-1140850688	; 0xbc000000
    2b30:	786c3034 	stmdavc	ip!, {r2, r4, r5, ip, sp}^
    2b34:	62696c2f 	rsbvs	r6, r9, #12032	; 0x2f00
    2b38:	692f6970 	stmdbvs	pc!, {r4, r5, r6, r8, fp, sp, lr}	; <UNPREDICTABLE>
    2b3c:	756c636e 	strbvc	r6, [ip, #-878]!	; 0xfffffc92
    2b40:	00006564 	andeq	r6, r0, r4, ror #10
    2b44:	61666564 	cmnvs	r6, r4, ror #10
    2b48:	2d746c75 	ldclcs	12, cr6, [r4, #-468]!	; 0xfffffe2c
    2b4c:	6f626572 	svcvs	0x00626572
    2b50:	632d746f 			; <UNDEFINED> instruction: 0x632d746f
    2b54:	6f6c6c61 	svcvs	0x006c6c61
    2b58:	632e7475 			; <UNDEFINED> instruction: 0x632e7475
    2b5c:	00000100 	andeq	r0, r0, r0, lsl #2
    2b60:	2e697072 	mcrcs	0, 3, r7, cr9, cr2, {3}
    2b64:	00020068 	andeq	r0, r2, r8, rrx
    2b68:	1b050000 	blne	142b70 <__bss_end__+0x137cf0>
    2b6c:	10020500 	andne	r0, r2, r0, lsl #10
    2b70:	140000a1 	strne	r0, [r0], #-161	; 0xffffff5f
    2b74:	05011c05 	streq	r1, [r1, #-3077]	; 0xfffff3fb
    2b78:	02010601 	andeq	r0, r1, #1048576	; 0x100000
    2b7c:	01010002 	tsteq	r1, r2

Disassembly of section .debug_str:

00000000 <.debug_str>:
   0:	6c616b63 			; <UNDEFINED> instruction: 0x6c616b63
   4:	00636f6c 	rsbeq	r6, r3, ip, ror #30
   8:	74736574 	ldrbtvc	r6, [r3], #-1396	; 0xfffffa8c
   c:	2e322d73 	mrccs	13, 1, r2, cr2, cr3, {3}
  10:	61702f30 	cmnvs	r0, r0, lsr pc
  14:	2d327472 	cfldrscs	mvf7, [r2, #-456]!	; 0xfffffe38
  18:	74736574 	ldrbtvc	r6, [r3], #-1396	; 0xfffffa8c
  1c:	6f6e2d32 	svcvs	0x006e2d32
  20:	61656c2d 	cmnvs	r5, sp, lsr #24
  24:	00632e6b 	rsbeq	r2, r3, fp, ror #28
  28:	5f726468 	svcpl	0x00726468
  2c:	6c620074 	stclvs	0, cr0, [r2], #-464	; 0xfffffe30
  30:	5f6b636f 	svcpl	0x006b636f
  34:	73006469 	movwvc	r6, #1129	; 0x469
  38:	65746174 	ldrbvs	r6, [r4, #-372]!	; 0xfffffe8c
  3c:	66657200 	strbtvs	r7, [r5], -r0, lsl #4
  40:	696d5f73 	stmdbvs	sp!, {r0, r1, r4, r5, r6, r8, r9, sl, fp, ip, lr}^
  44:	656c6464 	strbvs	r6, [ip, #-1124]!	; 0xfffffb9c
  48:	6f687300 	svcvs	0x00687300
  4c:	69207472 	stmdbvs	r0!, {r1, r4, r5, r6, sl, ip, sp, lr}
  50:	7200746e 	andvc	r7, r0, #1845493760	; 0x6e000000
  54:	705f6970 	subsvc	r6, pc, r0, ror r9	; <UNPREDICTABLE>
  58:	68637475 	stmdavs	r3!, {r0, r2, r4, r5, r6, sl, ip, sp, lr}^
  5c:	52007261 	andpl	r7, r0, #268435462	; 0x10000006
  60:	4f5a4445 	svcmi	0x005a4445
  64:	565f454e 	ldrbpl	r4, [pc], -lr, asr #10
  68:	66004c41 	strvs	r4, [r0], -r1, asr #24
  6c:	00656c69 	rsbeq	r6, r5, r9, ror #24
  70:	5a444552 	bpl	11115c0 <__bss_end__+0x1106740>
  74:	5f454e4f 	svcpl	0x00454e4f
  78:	5459424e 	ldrbpl	r4, [r9], #-590	; 0xfffffdb2
  7c:	5f005345 	svcpl	0x00005345
  80:	7373625f 	cmnvc	r3, #-268435451	; 0xf0000005
  84:	6174735f 	cmnvs	r4, pc, asr r3
  88:	5f5f7472 	svcpl	0x005f7472
  8c:	6e697500 	cdpvs	5, 6, cr7, cr9, cr0, {0}
  90:	745f3874 	ldrbvc	r3, [pc], #-2164	; 98 <__code_start__-0x7f68>
  94:	6e756600 	cdpvs	6, 7, cr6, cr5, cr0, {0}
  98:	6f6c0063 	svcvs	0x006c0063
  9c:	6c20676e 	stcvs	7, cr6, [r0], #-440	; 0xfffffe48
  a0:	20676e6f 	rsbcs	r6, r7, pc, ror #28
  a4:	00746e69 	rsbseq	r6, r4, r9, ror #28
  a8:	625f6b63 	subsvs	r6, pc, #101376	; 0x18c00
  ac:	695f6b6c 	ldmdbvs	pc, {r2, r3, r5, r6, r8, r9, fp, sp, lr}^	; <UNPREDICTABLE>
  b0:	6b630064 	blvs	18c0248 <__bss_end__+0x18b53c8>
  b4:	7264685f 	rsbvc	r6, r4, #6225920	; 0x5f0000
  b8:	465f5f00 	ldrbmi	r5, [pc], -r0, lsl #30
  bc:	54434e55 	strbpl	r4, [r3], #-3669	; 0xfffff1ab
  c0:	5f4e4f49 	svcpl	0x004e4f49
  c4:	6c61005f 	stclvs	0, cr0, [r1], #-380	; 0xfffffe84
  c8:	5f636f6c 	svcpl	0x00636f6c
  cc:	00636f6c 	rsbeq	r6, r3, ip, ror #30
  d0:	61656c63 	cmnvs	r5, r3, ror #24
  d4:	65725f6e 	ldrbvs	r5, [r2, #-3950]!	; 0xfffff092
  d8:	746f6f62 	strbtvc	r6, [pc], #-3938	; e0 <__code_start__-0x7f20>
  dc:	5f6b6300 	svcpl	0x006b6300
  e0:	62726576 	rsbsvs	r6, r2, #494927872	; 0x1d800000
  e4:	5f65736f 	svcpl	0x0065736f
  e8:	6e750070 	mrcvs	0, 3, r0, cr5, cr0, {3}
  ec:	6e676973 			; <UNDEFINED> instruction: 0x6e676973
  f0:	63206465 			; <UNDEFINED> instruction: 0x63206465
  f4:	00726168 	rsbseq	r6, r2, r8, ror #2
  f8:	73666572 	cmnvc	r6, #478150656	; 0x1c800000
  fc:	6174735f 	cmnvs	r4, pc, asr r3
 100:	2f007472 	svccs	0x00007472
 104:	72657355 	rsbvc	r7, r5, #1409286145	; 0x54000001
 108:	696d2f73 	stmdbvs	sp!, {r0, r1, r4, r5, r6, r8, r9, sl, fp, sp}^
 10c:	2f73656c 	svccs	0x0073656c
 110:	72756f53 	rsbsvc	r6, r5, #332	; 0x14c
 114:	632f6563 			; <UNDEFINED> instruction: 0x632f6563
 118:	30343273 	eorscc	r3, r4, r3, ror r2
 11c:	6c2f786c 	stcvs	8, cr7, [pc], #-432	; ffffff74 <__bss_end__+0xffff50f4>
 120:	2f736261 	svccs	0x00736261
 124:	616d2d35 	cmnvs	sp, r5, lsr sp
 128:	636f6c6c 	cmnvs	pc, #108, 24	; 0x6c00
 12c:	2f63672b 	svccs	0x0063672b
 130:	65646f63 	strbvs	r6, [r4, #-3939]!	; 0xfffff09d
 134:	65686300 	strbvs	r6, [r8, #-768]!	; 0xfffffd00
 138:	6e5f6b63 	vnmlavs.f64	d22, d15, d19
 13c:	656c5f6f 	strbvs	r5, [ip, #-3951]!	; 0xfffff091
 140:	6c006b61 			; <UNDEFINED> instruction: 0x6c006b61
 144:	6e656e69 	cdpvs	14, 6, cr6, cr5, cr9, {3}
 148:	6f6c006f 	svcvs	0x006c006f
 14c:	6c20676e 	stcvs	7, cr6, [r0], #-440	; 0xfffffe48
 150:	20676e6f 	rsbcs	r6, r7, pc, ror #28
 154:	69736e75 	ldmdbvs	r3!, {r0, r2, r4, r5, r6, r9, sl, fp, sp, lr}^
 158:	64656e67 	strbtvs	r6, [r5], #-3687	; 0xfffff199
 15c:	746e6920 	strbtvc	r6, [lr], #-2336	; 0xfffff6e0
 160:	6e697500 	cdpvs	5, 6, cr7, cr9, cr0, {0}
 164:	5f323374 	svcpl	0x00323374
 168:	69750074 	ldmdbvs	r5!, {r2, r4, r5, r6}^
 16c:	3631746e 	ldrtcc	r7, [r1], -lr, ror #8
 170:	6e00745f 	cfmvsrvs	mvf0, r7
 174:	616d746f 	cmnvs	sp, pc, ror #8
 178:	73006e69 	movwvc	r6, #3689	; 0xe69
 17c:	74726f68 	ldrbtvc	r6, [r2], #-3944	; 0xfffff098
 180:	736e7520 	cmnvc	lr, #32, 10	; 0x8000000
 184:	656e6769 	strbvs	r6, [lr, #-1897]!	; 0xfffff897
 188:	6e692064 	cdpvs	0, 6, cr2, cr9, cr4, {3}
 18c:	65740074 	ldrbvs	r0, [r4, #-116]!	; 0xffffff8c
 190:	67007473 	smlsdxvs	r0, r3, r4, r7
 194:	61626f6c 	cmnvs	r2, ip, ror #30
 198:	00705f6c 	rsbseq	r5, r0, ip, ror #30
 19c:	73625f5f 	cmnvc	r2, #380	; 0x17c
 1a0:	6e655f73 	mcrvs	15, 3, r5, cr5, cr3, {3}
 1a4:	005f5f64 	subseq	r5, pc, r4, ror #30
 1a8:	20554e47 	subscs	r4, r5, r7, asr #28
 1ac:	20393943 	eorscs	r3, r9, r3, asr #18
 1b0:	2e322e39 	mrccs	14, 1, r2, cr2, cr9, {1}
 1b4:	30322031 	eorscc	r2, r2, r1, lsr r0
 1b8:	30313931 	eorscc	r3, r1, r1, lsr r9
 1bc:	28203532 	stmdacs	r0!, {r1, r4, r5, r8, sl, ip, sp}
 1c0:	656c6572 	strbvs	r6, [ip, #-1394]!	; 0xfffffa8e
 1c4:	29657361 	stmdbcs	r5!, {r0, r5, r6, r8, r9, ip, sp, lr}^
 1c8:	52415b20 	subpl	r5, r1, #32, 22	; 0x8000
 1cc:	72612f4d 	rsbvc	r2, r1, #308	; 0x134
 1d0:	2d392d6d 	ldccs	13, cr2, [r9, #-436]!	; 0xfffffe4c
 1d4:	6e617262 	cdpvs	2, 6, cr7, cr1, cr2, {3}
 1d8:	72206863 	eorvc	r6, r0, #6488064	; 0x630000
 1dc:	73697665 	cmnvc	r9, #105906176	; 0x6500000
 1e0:	206e6f69 	rsbcs	r6, lr, r9, ror #30
 1e4:	35373732 	ldrcc	r3, [r7, #-1842]!	; 0xfffff8ce
 1e8:	205d3939 	subscs	r3, sp, r9, lsr r9
 1ec:	70636d2d 	rsbvc	r6, r3, sp, lsr #26
 1f0:	72613d75 	rsbvc	r3, r1, #7488	; 0x1d40
 1f4:	3731316d 	ldrcc	r3, [r1, -sp, ror #2]!
 1f8:	667a6a36 			; <UNDEFINED> instruction: 0x667a6a36
 1fc:	2d20732d 	stccs	3, cr7, [r0, #-180]!	; 0xffffff4c
 200:	6e75746d 	cdpvs	4, 7, cr7, cr5, cr13, {3}
 204:	72613d65 	rsbvc	r3, r1, #6464	; 0x1940
 208:	3731316d 	ldrcc	r3, [r1, -sp, ror #2]!
 20c:	667a6a36 			; <UNDEFINED> instruction: 0x667a6a36
 210:	2d20732d 	stccs	3, cr7, [r0, #-180]!	; 0xffffff4c
 214:	6f6c666d 	svcvs	0x006c666d
 218:	612d7461 			; <UNDEFINED> instruction: 0x612d7461
 21c:	733d6962 	teqvc	sp, #1605632	; 0x188000
 220:	2074666f 	rsbscs	r6, r4, pc, ror #12
 224:	72616d2d 	rsbvc	r6, r1, #2880	; 0xb40
 228:	6d2d206d 	stcvs	0, cr2, [sp, #-436]!	; 0xfffffe4c
 22c:	68637261 	stmdavs	r3!, {r0, r5, r6, r9, ip, sp, lr}^
 230:	6d72613d 	ldfvse	f6, [r2, #-244]!	; 0xffffff0c
 234:	7a6b3676 	bvc	1acdc14 <__bss_end__+0x1ac2d94>
 238:	67672d20 	strbvs	r2, [r7, -r0, lsr #26]!
 23c:	2d206264 	sfmcs	f6, 4, [r0, #-400]!	; 0xfffffe70
 240:	7361664f 	cmnvc	r1, #82837504	; 0x4f00000
 244:	732d2074 			; <UNDEFINED> instruction: 0x732d2074
 248:	673d6474 			; <UNDEFINED> instruction: 0x673d6474
 24c:	3939756e 	ldmdbcc	r9!, {r1, r2, r3, r5, r6, r8, sl, ip, sp, lr}
 250:	66662d20 	strbtvs	r2, [r6], -r0, lsr #26
 254:	73656572 	cmnvc	r5, #478150656	; 0x1c800000
 258:	646e6174 	strbtvs	r6, [lr], #-372	; 0xfffffe8c
 25c:	00676e69 	rsbeq	r6, r7, r9, ror #28
 260:	7479626e 	ldrbtvc	r6, [r9], #-622	; 0xfffffd92
 264:	615f7365 	cmpvs	pc, r5, ror #6
 268:	636f6c6c 	cmnvs	pc, #108, 24	; 0x6c00
 26c:	6d656d00 	stclvs	13, cr6, [r5, #-0]
 270:	00746573 	rsbseq	r6, r4, r3, ror r5
 274:	5f637273 	svcpl	0x00637273
 278:	5f636f6c 	svcpl	0x00636f6c
 27c:	6e006b6d 	vmlsvs.f64	d6, d0, d29
 280:	00747865 	rsbseq	r7, r4, r5, ror #16
 284:	5f637273 	svcpl	0x00637273
 288:	5f636f6c 	svcpl	0x00636f6c
 28c:	6b630074 	blvs	18c0464 <__bss_end__+0x18b55e4>
 290:	7274705f 	rsbsvc	r7, r4, #95, 0	; 0x5f
 294:	5f6e695f 	svcpl	0x006e695f
 298:	636f6c62 	cmnvs	pc, #25088	; 0x6200
 29c:	5246006b 	subpl	r0, r6, #107, 0	; 0x6b
 2a0:	00444545 	subeq	r4, r4, r5, asr #10
 2a4:	665f726b 	ldrbvs	r7, [pc], -fp, ror #4
 2a8:	00656572 	rsbeq	r6, r5, r2, ror r5
 2ac:	665f6b63 	ldrbvs	r6, [pc], -r3, ror #22
 2b0:	74737269 	ldrbtvc	r7, [r3], #-617	; 0xfffffd97
 2b4:	7264685f 	rsbvc	r6, r4, #6225920	; 0x5f0000
 2b8:	666b6300 	strbtvs	r6, [fp], -r0, lsl #6
 2bc:	00656572 	rsbeq	r6, r5, r2, ror r5
 2c0:	6f6c6c61 	svcvs	0x006c6c61
 2c4:	696c5f63 	stmdbvs	ip!, {r0, r1, r5, r6, r8, r9, sl, fp, ip, lr}^
 2c8:	6c007473 	cfstrsvs	mvf7, [r0], {115}	; 0x73
 2cc:	5f747369 	svcpl	0x00747369
 2d0:	6f6d6572 	svcvs	0x006d6572
 2d4:	63006576 	movwvs	r6, #1398	; 0x576
 2d8:	74705f6b 	ldrbtvc	r5, [r0], #-3947	; 0xfffff095
 2dc:	73695f72 	cmnvc	r9, #456	; 0x1c8
 2e0:	6c6c615f 	stfvse	f6, [ip], #-380	; 0xfffffe84
 2e4:	6465636f 	strbtvs	r6, [r5], #-879	; 0xfffffc91
 2e8:	5f6b6300 	svcpl	0x006b6300
 2ec:	7478656e 	ldrbtvc	r6, [r8], #-1390	; 0xfffffa92
 2f0:	7264685f 	rsbvc	r6, r4, #6225920	; 0x5f0000
 2f4:	616b6300 	cmnvs	fp, r0, lsl #6
 2f8:	636f6c6c 	cmnvs	pc, #108, 24	; 0x6c00
 2fc:	4100632e 	tstmi	r0, lr, lsr #6
 300:	434f4c4c 	movtmi	r4, #64588	; 0xfc4c
 304:	63004445 	movwvs	r4, #1093	; 0x445
 308:	64685f6b 	strbtvs	r5, [r8], #-3947	; 0xfffff095
 30c:	74735f72 	ldrbtvc	r5, [r3], #-3954	; 0xfffff08e
 310:	00747261 	rsbseq	r7, r4, r1, ror #4
 314:	685f6b63 	ldmdavs	pc, {r0, r1, r5, r6, r8, r9, fp, sp, lr}^	; <UNPREDICTABLE>
 318:	655f7264 	ldrbvs	r7, [pc, #-612]	; bc <__code_start__-0x7f44>
 31c:	7000646e 	andvc	r6, r0, lr, ror #8
 320:	00766572 	rsbseq	r6, r6, r2, ror r5
 324:	6e5f6b63 	vnmlavs.f64	d22, d15, d19
 328:	65747962 	ldrbvs	r7, [r4, #-2402]!	; 0xfffff69e
 32c:	726b0073 	rsbvc	r0, fp, #115, 0	; 0x73
 330:	6c616d5f 	stclvs	13, cr6, [r1], #-380	; 0xfffffe84
 334:	00636f6c 	rsbeq	r6, r3, ip, ror #30
 338:	64616568 	strbtvs	r6, [r1], #-1384	; 0xfffffa98
 33c:	70007265 	andvc	r7, r0, r5, ror #4
 340:	70766572 	rsbsvc	r6, r6, r2, ror r5
 344:	696c6100 	stmdbvs	ip!, {r8, sp, lr}^
 348:	66006e67 	strvs	r6, [r0], -r7, ror #28
 34c:	70656572 	rsbvc	r6, r5, r2, ror r5
 350:	6e756e00 	cdpvs	14, 7, cr6, cr5, cr0, {0}
 354:	00737469 	rsbseq	r7, r3, r9, ror #8
 358:	6d2d726b 	sfmvs	f7, 4, [sp, #-428]!	; 0xfffffe54
 35c:	6f6c6c61 	svcvs	0x006c6c61
 360:	00632e63 	rsbeq	r2, r3, r3, ror #28
 364:	62756f64 	rsbsvs	r6, r5, #100, 30	; 0x190
 368:	6200656c 	andvs	r6, r0, #108, 10	; 0x1b000000
 36c:	00657361 	rsbeq	r7, r5, r1, ror #6
 370:	6b726273 	blvs	1c98d44 <__bss_end__+0x1c8dec4>
 374:	726f6d00 	rsbvc	r6, pc, #0, 26
 378:	726f6365 	rsbvc	r6, pc, #-1811939327	; 0x94000001
 37c:	69730065 	ldmdbvs	r3!, {r0, r2, r5, r6}^
 380:	4800657a 	stmdami	r0, {r1, r3, r4, r5, r6, r8, sl, sp, lr}
 384:	65646165 	strbvs	r6, [r4, #-357]!	; 0xfffffe9b
 388:	74730072 	ldrbtvc	r0, [r3], #-114	; 0xffffff8e
 38c:	5f6b6361 	svcpl	0x006b6361
 390:	00706f74 	rsbseq	r6, r0, r4, ror pc
 394:	6b72616d 	blvs	1c98950 <__bss_end__+0x1c8dad0>
 398:	6c6c615f 	stfvse	f6, [ip], #-380	; 0xfffffe84
 39c:	706d6900 	rsbvc	r6, sp, r0, lsl #18
 3a0:	656d656c 	strbvs	r6, [sp, #-1388]!	; 0xfffffa94
 3a4:	745f746e 	ldrbvc	r7, [pc], #-1134	; 3ac <__code_start__-0x7c54>
 3a8:	00736968 	rsbseq	r6, r3, r8, ror #18
 3ac:	6f6c626e 	svcvs	0x006c626e
 3b0:	00736b63 	rsbseq	r6, r3, r3, ror #22
 3b4:	74696e69 	strbtvc	r6, [r9], #-3689	; 0xfffff197
 3b8:	6e00705f 	mcrvs	0, 0, r7, cr0, cr15, {2}
 3bc:	65747962 	ldrbvs	r7, [r4, #-2402]!	; 0xfffff69e
 3c0:	72665f73 	rsbvc	r5, r6, #460	; 0x1cc
 3c4:	00646565 	rsbeq	r6, r4, r5, ror #10
 3c8:	5f646c6f 	svcpl	0x00646c6f
 3cc:	6b72616d 	blvs	1c98988 <__bss_end__+0x1c8db08>
 3d0:	5f6b6300 	svcpl	0x006b6300
 3d4:	646e6966 	strbtvs	r6, [lr], #-2406	; 0xfffff69a
 3d8:	61656c5f 	cmnvs	r5, pc, asr ip
 3dc:	6d00736b 	stcvs	3, cr7, [r0, #-428]	; 0xfffffe54
 3e0:	65627961 	strbvs	r7, [r2, #-2401]!	; 0xfffff69f
 3e4:	7272655f 	rsbsvc	r6, r2, #398458880	; 0x17c00000
 3e8:	0073726f 	rsbseq	r7, r3, pc, ror #4
 3ec:	675f6b63 	ldrbvs	r6, [pc, -r3, ror #22]
 3f0:	75640063 	strbvc	r0, [r4, #-99]!	; 0xffffff9d
 3f4:	725f706d 	subsvc	r7, pc, #109, 0	; 0x6d
 3f8:	00736765 	rsbseq	r6, r3, r5, ror #14
 3fc:	61656c6e 	cmnvs	r5, lr, ror #24
 400:	6900736b 	stmdbvs	r0, {r0, r1, r3, r5, r6, r8, r9, ip, sp, lr}
 404:	6572636e 	ldrbvs	r6, [r2, #-878]!	; 0xfffffc92
 408:	746e656d 	strbtvc	r6, [lr], #-1389	; 0xfffffa93
 40c:	645f5f00 	ldrbvs	r5, [pc], #-3840	; 414 <__code_start__-0x7bec>
 410:	5f617461 	svcpl	0x00617461
 414:	5f646e65 	svcpl	0x00646e65
 418:	7369005f 	cmnvc	r9, #95, 0	; 0x5f
 41c:	7274705f 	rsbsvc	r7, r4, #95, 0	; 0x5f
 420:	72666e00 	rsbvc	r6, r6, #0, 28
 424:	00646565 	rsbeq	r6, r4, r5, ror #10
 428:	685f6e69 	ldmdavs	pc, {r0, r3, r5, r6, r9, sl, fp, sp, lr}^	; <UNPREDICTABLE>
 42c:	00706165 	rsbseq	r6, r0, r5, ror #2
 430:	6d656e6f 	stclvs	14, cr6, [r5, #-444]!	; 0xfffffe44
 434:	6b630062 	blvs	18c05c4 <__bss_end__+0x18b5744>
 438:	2e63672d 	cdpcs	7, 6, cr6, cr3, cr13, {1}
 43c:	68630063 	stmdavs	r3!, {r0, r1, r5, r6}^
 440:	5f6b6365 	svcpl	0x006b6365
 444:	756f6873 	strbvc	r6, [pc, #-2163]!	; fffffbd9 <__bss_end__+0xffff4d59>
 448:	6c5f646c 	cfldrdvs	mvd6, [pc], {108}	; 0x6c
 44c:	006b6165 	rsbeq	r6, fp, r5, ror #2
 450:	6c616d6b 	stclvs	13, cr6, [r1], #-428	; 0xfffffe54
 454:	00636f6c 	rsbeq	r6, r3, ip, ror #30
 458:	6c616d6b 	stclvs	13, cr6, [r1], #-428	; 0xfffffe54
 45c:	5f636f6c 	svcpl	0x00636f6c
 460:	74696e69 	strbtvc	r6, [r9], #-3689	; 0xfffff197
 464:	7465735f 	strbtvc	r7, [r5], #-863	; 0xfffffca1
 468:	6174735f 	cmnvs	r4, pc, asr r3
 46c:	73007472 	movwvc	r7, #1138	; 0x472
 470:	70656577 	rsbvc	r6, r5, r7, ror r5
 474:	61656c5f 	cmnvs	r5, pc, asr ip
 478:	5f5f006b 	svcpl	0x005f006b
 47c:	61746164 	cmnvs	r4, r4, ror #2
 480:	6174735f 	cmnvs	r4, pc, asr r3
 484:	5f5f7472 	svcpl	0x005f7472
 488:	65777300 	ldrbvs	r7, [r7, #-768]!	; 0xfffffd00
 48c:	665f7065 	ldrbvs	r7, [pc], -r5, rrx
 490:	00656572 	rsbeq	r6, r5, r2, ror r5
 494:	6e726177 	mrcvs	1, 3, r6, cr2, cr7, {3}
 498:	5f6f6e5f 	svcpl	0x006f6e5f
 49c:	72617473 	rsbvc	r7, r1, #1929379840	; 0x73000000
 4a0:	65725f74 	ldrbvs	r5, [r2, #-3956]!	; 0xfffff08c
 4a4:	00705f66 	rsbseq	r5, r0, r6, ror #30
 4a8:	657a6973 	ldrbvs	r6, [sl, #-2419]!	; 0xfffff68d
 4ac:	2e00745f 	cfmvsrcs	mvf0, r7
 4b0:	62696c2f 	rsbvs	r6, r9, #12032	; 0x2f00
 4b4:	656d2f63 	strbvs	r2, [sp, #-3939]!	; 0xfffff09d
 4b8:	7465736d 	strbtvc	r7, [r5], #-877	; 0xfffffc93
 4bc:	2f00632e 	svccs	0x0000632e
 4c0:	72657355 	rsbvc	r7, r5, #1409286145	; 0x54000001
 4c4:	696d2f73 	stmdbvs	sp!, {r0, r1, r4, r5, r6, r8, r9, sl, fp, sp}^
 4c8:	2f73656c 	svccs	0x0073656c
 4cc:	72756f53 	rsbsvc	r6, r5, #332	; 0x14c
 4d0:	632f6563 			; <UNDEFINED> instruction: 0x632f6563
 4d4:	30343273 	eorscc	r3, r4, r3, ror r2
 4d8:	6c2f786c 	stcvs	8, cr7, [pc], #-432	; 330 <__code_start__-0x7cd0>
 4dc:	69706269 	ldmdbvs	r0!, {r0, r3, r5, r6, r9, sp, lr}^
 4e0:	67726100 	ldrbvs	r6, [r2, -r0, lsl #2]!
 4e4:	61760073 	cmnvs	r6, r3, ror r0
 4e8:	6972705f 	ldmdbvs	r2!, {r0, r1, r2, r3, r4, r6, ip, sp, lr}^
 4ec:	006b746e 	rsbeq	r7, fp, lr, ror #8
 4f0:	6e675f5f 	mcrvs	15, 3, r5, cr7, cr15, {2}
 4f4:	765f6375 			; <UNDEFINED> instruction: 0x765f6375
 4f8:	696c5f61 	stmdbvs	ip!, {r0, r5, r6, r8, r9, sl, fp, ip, lr}^
 4fc:	5f007473 	svcpl	0x00007473
 500:	0070615f 	rsbseq	r6, r0, pc, asr r1
 504:	696c2f2e 	stmdbvs	ip!, {r1, r2, r3, r5, r8, r9, sl, fp, sp}^
 508:	702f6362 	eorvc	r6, pc, r2, ror #6
 50c:	746e6972 	strbtvc	r6, [lr], #-2418	; 0xfffff68e
 510:	00632e6b 	rsbeq	r2, r3, fp, ror #28
 514:	61765f5f 	cmnvs	r6, pc, asr pc
 518:	73696c5f 	cmnvc	r9, #24320	; 0x5f00
 51c:	6e690074 	mcrvs	0, 3, r0, cr9, cr4, {3}
 520:	6e726574 	mrcvs	5, 3, r6, cr2, cr4, {3}
 524:	705f6c61 	subsvc	r6, pc, r1, ror #24
 528:	006b7475 	rsbeq	r7, fp, r5, ror r4
 52c:	696c2f2e 	stmdbvs	ip!, {r1, r2, r3, r5, r8, r9, sl, fp, sp}^
 530:	702f6362 	eorvc	r6, pc, r2, ror #6
 534:	2e6b7475 	mcrcs	4, 3, r7, cr11, cr5, {3}
 538:	73690063 	cmnvc	r9, #99, 0	; 0x63
 53c:	69676964 	stmdbvs	r7!, {r2, r5, r6, r8, fp, sp, lr}^
 540:	69750074 	ldmdbvs	r5!, {r2, r4, r5, r6}^
 544:	3436746e 	ldrtcc	r7, [r6], #-1134	; 0xfffffb92
 548:	2e00745f 	cfmvsrcs	mvf0, r7
 54c:	62696c2f 	rsbvs	r6, r9, #12032	; 0x2f00
 550:	61762f63 	cmnvs	r6, r3, ror #30
 554:	6972702d 	ldmdbvs	r2!, {r0, r2, r3, r5, ip, sp, lr}^
 558:	2e6b746e 	cdpcs	4, 6, cr7, cr11, cr14, {3}
 55c:	5f5f0063 	svcpl	0x005f0063
 560:	65646f63 	strbvs	r6, [r4, #-3939]!	; 0xfffff09d
 564:	6174735f 	cmnvs	r4, pc, asr r3
 568:	5f5f7472 	svcpl	0x005f7472
 56c:	64697700 	strbtvs	r7, [r9], #-1792	; 0xfffff900
 570:	70006874 	andvc	r6, r0, r4, ror r8
 574:	5f637475 	svcpl	0x00637475
 578:	5f007066 	svcpl	0x00007066
 57c:	6165685f 	cmnvs	r5, pc, asr r8
 580:	74735f70 	ldrbtvc	r5, [r3], #-3952	; 0xfffff090
 584:	5f747261 	svcpl	0x00747261
 588:	7072005f 	rsbsvc	r0, r2, pc, asr r0
 58c:	65735f69 	ldrbvs	r5, [r3, #-3945]!	; 0xfffff097
 590:	756f5f74 	strbvc	r5, [pc, #-3956]!	; fffff624 <__bss_end__+0xffff47a4>
 594:	74757074 	ldrbtvc	r7, [r5], #-116	; 0xffffff8c
 598:	746d6600 	strbtvc	r6, [sp], #-1536	; 0xfffffa00
 59c:	6174735f 	cmnvs	r4, pc, asr r3
 5a0:	73007472 	movwvc	r7, #1138	; 0x472
 5a4:	61637274 	smcvs	14116	; 0x3724
 5a8:	74730074 	ldrbtvc	r0, [r3], #-116	; 0xffffff8c
 5ac:	79706372 	ldmdbvc	r0!, {r1, r4, r5, r6, r8, r9, sp, lr}^
 5b0:	67656e00 	strbvs	r6, [r5, -r0, lsl #28]!
 5b4:	5f00705f 	svcpl	0x0000705f
 5b8:	646f635f 	strbtvs	r6, [pc], #-863	; 5c0 <__code_start__-0x7a40>
 5bc:	6e655f65 	cdpvs	15, 6, cr5, cr5, cr5, {3}
 5c0:	005f5f64 	subseq	r5, pc, r4, ror #30
 5c4:	74696d65 	strbtvc	r6, [r9], #-3429	; 0xfffff29b
 5c8:	76657200 	strbtvc	r7, [r5], -r0, lsl #4
 5cc:	65737265 	ldrbvs	r7, [r3, #-613]!	; 0xfffffd9b
 5d0:	72747300 	rsbsvc	r7, r4, #0, 6
 5d4:	00706d63 	rsbseq	r6, r0, r3, ror #26
 5d8:	73747570 	cmnvc	r4, #112, 10	; 0x1c000000
 5dc:	0070665f 	rsbseq	r6, r0, pc, asr r6
 5e0:	72705f5f 	rsbsvc	r5, r0, #380	; 0x17c
 5e4:	655f676f 	ldrbvs	r6, [pc, #-1903]	; fffffe7d <__bss_end__+0xffff4ffd>
 5e8:	5f5f646e 	svcpl	0x005f646e
 5ec:	6d756e00 	ldclvs	14, cr6, [r5, #-0]
 5f0:	74730031 	ldrbtvc	r0, [r3], #-49	; 0xffffffcf
 5f4:	6d636e72 	stclvs	14, cr6, [r3, #-456]!	; 0xfffffe38
 5f8:	69730070 	ldmdbvs	r3!, {r4, r5, r6}^
 5fc:	64656e67 	strbtvs	r6, [r5], #-3687	; 0xfffff199
 600:	7200705f 	andvc	r7, r0, #95, 0	; 0x5f
 604:	725f6970 	subsvc	r6, pc, #112, 18	; 0x1c0000
 608:	6f6f6265 	svcvs	0x006f6265
 60c:	65640074 	strbvs	r0, [r4, #-116]!	; 0xffffff8c
 610:	5f79616c 	svcpl	0x0079616c
 614:	2e00736d 	cdpcs	3, 0, cr7, cr0, cr13, {3}
 618:	6174732f 	cmnvs	r4, pc, lsr #6
 61c:	732d6666 			; <UNDEFINED> instruction: 0x732d6666
 620:	632f6372 			; <UNDEFINED> instruction: 0x632f6372
 624:	6e61656c 	cdpvs	5, 6, cr6, cr1, cr12, {3}
 628:	6265722d 	rsbvs	r7, r5, #-805306366	; 0xd0000002
 62c:	2e746f6f 	cdpcs	15, 7, cr6, cr4, cr15, {3}
 630:	61750063 	cmnvs	r5, r3, rrx
 634:	665f7472 			; <UNDEFINED> instruction: 0x665f7472
 638:	6873756c 	ldmdavs	r3!, {r2, r3, r5, r6, r8, sl, ip, sp, lr}^
 63c:	0078745f 	rsbseq	r7, r8, pc, asr r4
 640:	7473635f 	ldrbtvc	r6, [r3], #-863	; 0xfffffca1
 644:	00747261 	rsbseq	r7, r4, r1, ror #4
 648:	5f737362 	svcpl	0x00737362
 64c:	00646e65 	rsbeq	r6, r4, r5, ror #28
 650:	74726175 	ldrbtvc	r6, [r2], #-373	; 0xfffffe8b
 654:	696e695f 	stmdbvs	lr!, {r0, r1, r2, r3, r4, r6, r8, fp, sp, lr}^
 658:	75630074 	strbvc	r0, [r3, #-116]!	; 0xffffff8c
 65c:	6d6f7473 	cfstrdvs	mvd7, [pc, #-460]!	; 498 <__code_start__-0x7b68>
 660:	616f6c5f 	cmnvs	pc, pc, asr ip	; <UNPREDICTABLE>
 664:	00726564 	rsbseq	r6, r2, r4, ror #10
 668:	74732f2e 	ldrbtvc	r2, [r3], #-3886	; 0xfffff0d2
 66c:	2d666661 	stclcs	6, cr6, [r6, #-388]!	; 0xfffffe7c
 670:	2f637273 	svccs	0x00637273
 674:	61747363 	cmnvs	r4, r3, ror #6
 678:	632e7472 			; <UNDEFINED> instruction: 0x632e7472
 67c:	732f2e00 			; <UNDEFINED> instruction: 0x732f2e00
 680:	66666174 			; <UNDEFINED> instruction: 0x66666174
 684:	6372732d 	cmnvs	r2, #-1275068416	; 0xb4000000
 688:	7375632f 	cmnvc	r5, #-1140850688	; 0xbc000000
 68c:	2d6d6f74 	stclcs	15, cr6, [sp, #-464]!	; 0xfffffe30
 690:	64616f6c 	strbtvs	r6, [r1], #-3948	; 0xfffff094
 694:	632e7265 			; <UNDEFINED> instruction: 0x632e7265
 698:	62657200 	rsbvs	r7, r5, #0, 4
 69c:	5f746f6f 	svcpl	0x00746f6f
 6a0:	6c6c6163 	stfvse	f6, [ip], #-396	; 0xfffffe74
 6a4:	0074756f 	rsbseq	r7, r4, pc, ror #10
 6a8:	575f4d50 			; <UNDEFINED> instruction: 0x575f4d50
 6ac:	00474f44 	subeq	r4, r7, r4, asr #30
 6b0:	33545550 	cmpcc	r4, #80, 10	; 0x14000000
 6b4:	65730032 	ldrbvs	r0, [r3, #-50]!	; 0xffffffce
 6b8:	73755f74 	cmnvc	r5, #116, 30	; 0x1d0
 6bc:	6c5f7265 	lfmvs	f7, 2, [pc], {101}	; 0x65
 6c0:	6c657665 	stclvs	6, cr7, [r5], #-404	; 0xfffffe6c
 6c4:	732f2e00 			; <UNDEFINED> instruction: 0x732f2e00
 6c8:	66666174 			; <UNDEFINED> instruction: 0x66666174
 6cc:	6372732d 	cmnvs	r2, #-1275068416	; 0xb4000000
 6d0:	6265722f 	rsbvs	r7, r5, #-268435454	; 0xf0000002
 6d4:	2e746f6f 	cdpcs	15, 7, cr6, cr4, cr15, {3}
 6d8:	4d500063 	ldclmi	0, cr0, [r0, #-396]	; 0xfffffe74
 6dc:	5341505f 	movtpl	r5, #4191	; 0x105f
 6e0:	524f5753 	subpl	r5, pc, #21757952	; 0x14c0000
 6e4:	74610044 	strbtvc	r0, [r1], #-68	; 0xffffffbc
 6e8:	6573755f 	ldrbvs	r7, [r3, #-1375]!	; 0xfffffaa1
 6ec:	656c5f72 	strbvs	r5, [ip, #-3954]!	; 0xfffff08e
 6f0:	006c6576 	rsbeq	r6, ip, r6, ror r5
 6f4:	525f4d50 	subspl	r4, pc, #80, 26	; 0x1400
 6f8:	5f435453 	svcpl	0x00435453
 6fc:	46435257 			; <UNDEFINED> instruction: 0x46435257
 700:	55465f47 	strbpl	r5, [r6, #-3911]	; 0xfffff0b9
 704:	525f4c4c 	subspl	r4, pc, #76, 24	; 0x4c00
 708:	54455345 	strbpl	r5, [r5], #-837	; 0xfffffcbb
 70c:	5f4d5000 	svcpl	0x004d5000
 710:	43545352 	cmpmi	r4, #1207959553	; 0x48000001
 714:	73706300 	cmnvc	r0, #0, 6
 718:	65640072 	strbvs	r0, [r4, #-114]!	; 0xffffff8e
 71c:	61625f76 	smcvs	9718	; 0x25f6
 720:	65697272 	strbvs	r7, [r9, #-626]!	; 0xfffffd8e
 724:	65640072 	strbvs	r0, [r4, #-114]!	; 0xffffff8e
 728:	5f79616c 	svcpl	0x0079616c
 72c:	00636573 	rsbeq	r6, r3, r3, ror r5
 730:	74732f2e 	ldrbtvc	r2, [r3], #-3886	; 0xfffff0d2
 734:	2d666661 	stclcs	6, cr6, [r6, #-388]!	; 0xfffffe7c
 738:	2f637273 	svccs	0x00637273
 73c:	656d6974 	strbvs	r6, [sp, #-2420]!	; 0xfffff68c
 740:	00632e72 	rsbeq	r2, r3, r2, ror lr
 744:	33544547 	cmpcc	r4, #297795584	; 0x11c00000
 748:	69740032 	ldmdbvs	r4!, {r1, r4, r5}^
 74c:	5f72656d 	svcpl	0x0072656d
 750:	5f746567 	svcpl	0x00746567
 754:	63657375 	cmnvs	r5, #-738197503	; 0xd4000001
 758:	6c656400 	cfstrdvs	mvd6, [r5], #-0
 75c:	755f7961 	ldrbvc	r7, [pc, #-2401]	; fffffe03 <__bss_end__+0xffff4f83>
 760:	69740073 	ldmdbvs	r4!, {r0, r1, r4, r5, r6}^
 764:	5f72656d 	svcpl	0x0072656d
 768:	5f746567 	svcpl	0x00746567
 76c:	63657375 	cmnvs	r5, #-738197503	; 0xd4000001
 770:	7761725f 			; <UNDEFINED> instruction: 0x7761725f
 774:	74757000 	ldrbtvc	r7, [r5], #-0
 778:	62003233 	andvs	r3, r0, #805306371	; 0x30000003
 77c:	5f647561 	svcpl	0x00647561
 780:	006c6176 	rsbeq	r6, ip, r6, ror r1
 784:	74617473 	strbtvc	r7, [r1], #-1139	; 0xfffffb8d
 788:	72617500 	rsbvc	r7, r1, #0, 10
 78c:	61635f74 	smcvs	13812	; 0x35f4
 790:	65675f6e 	strbvs	r5, [r7, #-3950]!	; 0xfffff092
 794:	47006374 	smlsdxmi	r0, r4, r3, r6
 798:	5f4f4950 	svcpl	0x004f4950
 79c:	434e5546 	movtmi	r5, #58694	; 0xe546
 7a0:	54554f5f 	ldrbpl	r4, [r5], #-3935	; 0xfffff0a1
 7a4:	00545550 	subseq	r5, r4, r0, asr r5
 7a8:	5f787561 	svcpl	0x00787561
 7ac:	69726570 	ldmdbvs	r2!, {r4, r5, r6, r8, sl, sp, lr}^
 7b0:	00736870 	rsbseq	r6, r3, r0, ror r8
 7b4:	74726175 	ldrbtvc	r6, [r2], #-373	; 0xfffffe8b
 7b8:	7500632e 	strvc	r6, [r0, #-814]	; 0xfffffcd2
 7bc:	5f747261 	svcpl	0x00747261
 7c0:	5f6e6163 	svcpl	0x006e6163
 7c4:	63747570 	cmnvs	r4, #112, 10	; 0x1c000000
 7c8:	72617500 	rsbvc	r7, r1, #0, 10
 7cc:	78745f74 	ldmdavc	r4!, {r2, r4, r5, r6, r8, r9, sl, fp, ip, lr}^
 7d0:	5f73695f 	svcpl	0x0073695f
 7d4:	74706d65 	ldrbtvc	r6, [r0], #-3429	; 0xfffff29b
 7d8:	50470079 	subpl	r0, r7, r9, ror r0
 7dc:	465f4f49 	ldrbmi	r4, [pc], -r9, asr #30
 7e0:	5f434e55 	svcpl	0x00434e55
 7e4:	30544c41 	subscc	r4, r4, r1, asr #24
 7e8:	49504700 	ldmdbmi	r0, {r8, r9, sl, lr}^
 7ec:	55465f4f 	strbpl	r5, [r6, #-3919]	; 0xfffff0b1
 7f0:	415f434e 	cmpmi	pc, lr, asr #6
 7f4:	0031544c 	eorseq	r5, r1, ip, asr #8
 7f8:	4f495047 	svcmi	0x00495047
 7fc:	4e55465f 	mrcmi	6, 2, r4, cr5, cr15, {2}
 800:	4c415f43 	mcrrmi	15, 4, r5, r1, cr3
 804:	47003254 	smlsdmi	r0, r4, r2, r3
 808:	5f4f4950 	svcpl	0x004f4950
 80c:	434e5546 	movtmi	r5, #58694	; 0xe546
 810:	544c415f 	strbpl	r4, [ip], #-351	; 0xfffffea1
 814:	50470033 	subpl	r0, r7, r3, lsr r0
 818:	465f4f49 	ldrbmi	r4, [pc], -r9, asr #30
 81c:	5f434e55 	svcpl	0x00434e55
 820:	35544c41 	ldrbcc	r4, [r4, #-3137]	; 0xfffff3bf
 824:	6f682f00 	svcvs	0x00682f00
 828:	652f656d 	strvs	r6, [pc, #-1389]!	; 2c3 <__code_start__-0x7d3d>
 82c:	656c676e 	strbvs	r6, [ip, #-1902]!	; 0xfffff892
 830:	6c632f72 	stclvs	15, cr2, [r3], #-456	; 0xfffffe38
 834:	2f737361 	svccs	0x00737361
 838:	34327363 	ldrtcc	r7, [r2], #-867	; 0xfffffc9d
 83c:	2d786c30 	ldclcs	12, cr6, [r8, #-192]!	; 0xffffff40
 840:	70733232 	rsbsvc	r3, r3, r2, lsr r2
 844:	696c2f72 	stmdbvs	ip!, {r1, r4, r5, r6, r8, r9, sl, fp, sp}^
 848:	2f697062 	svccs	0x00697062
 84c:	66617473 			; <UNDEFINED> instruction: 0x66617473
 850:	72702d66 	rsbsvc	r2, r0, #6528	; 0x1980
 854:	74617669 	strbtvc	r7, [r1], #-1641	; 0xfffff997
 858:	61620065 	cmnvs	r2, r5, rrx
 85c:	61006475 	tstvs	r0, r5, ror r4
 860:	655f7875 	ldrbvs	r7, [pc, #-2165]	; fffffff3 <__bss_end__+0xffff5173>
 864:	6c62616e 	stfvse	f6, [r2], #-440	; 0xfffffe48
 868:	75007365 	strvc	r7, [r0, #-869]	; 0xfffffc9b
 86c:	5f747261 	svcpl	0x00747261
 870:	63746567 	cmnvs	r4, #432013312	; 0x19c00000
 874:	554e4700 	strbpl	r4, [lr, #-1792]	; 0xfffff900
 878:	39394320 	ldmdbcc	r9!, {r5, r8, r9, lr}
 87c:	2e303120 	rsfcssp	f3, f0, f0
 880:	20312e33 	eorscs	r2, r1, r3, lsr lr
 884:	31323032 	teqcc	r2, r2, lsr r0
 888:	34323830 	ldrtcc	r3, [r2], #-2096	; 0xfffff7d0
 88c:	65722820 	ldrbvs	r2, [r2, #-2080]!	; 0xfffff7e0
 890:	7361656c 	cmnvc	r1, #108, 10	; 0x1b000000
 894:	2d202965 			; <UNDEFINED> instruction: 0x2d202965
 898:	7570636d 	ldrbvc	r6, [r0, #-877]!	; 0xfffffc93
 89c:	6d72613d 	ldfvse	f6, [r2, #-244]!	; 0xffffff0c
 8a0:	36373131 			; <UNDEFINED> instruction: 0x36373131
 8a4:	2d667a6a 	vstmdbcs	r6!, {s15-s120}
 8a8:	6d2d2073 	stcvs	0, cr2, [sp, #-460]!	; 0xfffffe34
 8ac:	656e7574 	strbvs	r7, [lr, #-1396]!	; 0xfffffa8c
 8b0:	6d72613d 	ldfvse	f6, [r2, #-244]!	; 0xffffff0c
 8b4:	36373131 			; <UNDEFINED> instruction: 0x36373131
 8b8:	2d667a6a 	vstmdbcs	r6!, {s15-s120}
 8bc:	6d2d2073 	stcvs	0, cr2, [sp, #-460]!	; 0xfffffe34
 8c0:	616f6c66 	cmnvs	pc, r6, ror #24
 8c4:	62612d74 	rsbvs	r2, r1, #116, 26	; 0x1d00
 8c8:	6f733d69 	svcvs	0x00733d69
 8cc:	2d207466 	cfstrscs	mvf7, [r0, #-408]!	; 0xfffffe68
 8d0:	6d72616d 	ldfvse	f6, [r2, #-436]!	; 0xfffffe4c
 8d4:	616d2d20 	cmnvs	sp, r0, lsr #26
 8d8:	3d686372 	stclcc	3, cr6, [r8, #-456]!	; 0xfffffe38
 8dc:	766d7261 	strbtvc	r7, [sp], -r1, ror #4
 8e0:	207a6b36 	rsbscs	r6, sl, r6, lsr fp
 8e4:	6467672d 	strbtvs	r6, [r7], #-1837	; 0xfffff8d3
 8e8:	4f2d2062 	svcmi	0x002d2062
 8ec:	732d2067 			; <UNDEFINED> instruction: 0x732d2067
 8f0:	673d6474 			; <UNDEFINED> instruction: 0x673d6474
 8f4:	3939756e 	ldmdbcc	r9!, {r1, r2, r3, r5, r6, r8, sl, ip, sp, lr}
 8f8:	66662d20 	strbtvs	r2, [r6], -r0, lsr #26
 8fc:	73656572 	cmnvc	r5, #478150656	; 0x1c800000
 900:	646e6174 	strbtvs	r6, [lr], #-372	; 0xfffffe8c
 904:	00676e69 	rsbeq	r6, r7, r9, ror #28
 908:	6c746e63 	ldclvs	14, cr6, [r4], #-396	; 0xfffffe74
 90c:	72617500 	rsbvc	r7, r1, #0, 10
 910:	69645f74 	stmdbvs	r4!, {r2, r4, r5, r6, r8, r9, sl, fp, ip, lr}^
 914:	6c626173 	stfvse	f6, [r2], #-460	; 0xfffffe34
 918:	61750065 	cmnvs	r5, r5, rrx
 91c:	685f7472 	ldmdavs	pc, {r1, r4, r5, r6, sl, ip, sp, lr}^	; <UNPREDICTABLE>
 920:	645f7361 	ldrbvs	r7, [pc], #-865	; 928 <__code_start__-0x76d8>
 924:	00617461 	rsbeq	r7, r1, r1, ror #8
 928:	4f495047 	svcmi	0x00495047
 92c:	4e55465f 	mrcmi	6, 2, r4, cr5, cr15, {2}
 930:	4c415f43 	mcrrmi	15, 4, r5, r1, cr3
 934:	6f003454 	svcvs	0x00003454
 938:	6e695f72 	mcrvs	15, 3, r5, cr9, cr2, {3}
 93c:	73003233 	movwvc	r3, #563	; 0x233
 940:	74617263 	strbtvc	r7, [r1], #-611	; 0xfffffd9d
 944:	75006863 	strvc	r6, [r0, #-2147]	; 0xfffff79d
 948:	00747261 	rsbseq	r7, r4, r1, ror #4
 94c:	5f646e61 	svcpl	0x00646e61
 950:	32336e69 	eorscc	r6, r3, #1680	; 0x690
 954:	72617500 	rsbvc	r7, r1, #0, 10
 958:	75705f74 	ldrbvc	r5, [r0, #-3956]!	; 0xfffff08c
 95c:	47006374 	smlsdxmi	r0, r4, r3, r6
 960:	5f4f4950 	svcpl	0x004f4950
 964:	434e5546 	movtmi	r5, #58694	; 0xe546
 968:	504e495f 	subpl	r4, lr, pc, asr r9
 96c:	67005455 	smlsdvs	r0, r5, r4, r5
 970:	5f6f6970 	svcpl	0x006f6970
 974:	5f746573 	svcpl	0x00746573
 978:	636e7566 	cmnvs	lr, #427819008	; 0x19800000
 97c:	6e6f6974 			; <UNDEFINED> instruction: 0x6e6f6974
 980:	74656700 	strbtvc	r6, [r5], #-1792	; 0xfffff900
 984:	6b003233 	blvs	d258 <__bss_end__+0x23d8>
 988:	6c6c616d 	stfvse	f6, [ip], #-436	; 0xfffffe4c
 98c:	685f636f 	ldmdavs	pc, {r0, r1, r2, r3, r5, r6, r8, r9, sp, lr}^	; <UNPREDICTABLE>
 990:	5f706165 	svcpl	0x00706165
 994:	72617473 	rsbvc	r7, r1, #1929379840	; 0x73000000
 998:	616d0074 	smcvs	53252	; 0xd004
 99c:	626e5f78 	rsbvs	r5, lr, #120, 30	; 0x1e0
 9a0:	73657479 	cmnvc	r5, #2030043136	; 0x79000000
 9a4:	64615f00 	strbtvs	r5, [r1], #-3840	; 0xfffff100
 9a8:	68007264 	stmdavs	r0, {r2, r5, r6, r9, ip, sp, lr}
 9ac:	5f706165 	svcpl	0x00706165
 9b0:	0078616d 	rsbseq	r6, r8, sp, ror #2
 9b4:	6572666b 	ldrbvs	r6, [r2, #-1643]!	; 0xfffff995
 9b8:	6c615f65 	stclvs	15, cr5, [r1], #-404	; 0xfffffe6c
 9bc:	6f72006c 	svcvs	0x0072006c
 9c0:	75646e75 	strbvc	r6, [r4, #-3701]!	; 0xfffff18b
 9c4:	666b0070 			; <UNDEFINED> instruction: 0x666b0070
 9c8:	5f656572 	svcpl	0x00656572
 9cc:	00706f70 	rsbseq	r6, r0, r0, ror pc
 9d0:	67696c61 	strbvs	r6, [r9, -r1, ror #24]!
 9d4:	6e656d6e 	cdpvs	13, 6, cr6, cr5, cr14, {3}
 9d8:	616d0074 	smcvs	53252	; 0xd004
 9dc:	33755f78 	cmncc	r5, #120, 30	; 0x1e0
 9e0:	6e4f0032 	mcrvs	0, 2, r0, cr15, cr2, {1}
 9e4:	00424d65 	subeq	r4, r2, r5, ror #26
 9e8:	6c616d6b 	stclvs	13, cr6, [r1], #-428	; 0xfffffe54
 9ec:	5f636f6c 	svcpl	0x00636f6c
 9f0:	70616568 	rsbvc	r6, r1, r8, ror #10
 9f4:	646e655f 	strbtvs	r6, [lr], #-1375	; 0xfffffaa1
 9f8:	616d6b00 	cmnvs	sp, r0, lsl #22
 9fc:	636f6c6c 	cmnvs	pc, #108, 24	; 0x6c00
 a00:	746f6e5f 	strbtvc	r6, [pc], #-3679	; a08 <__code_start__-0x75f8>
 a04:	6f72657a 	svcvs	0x0072657a
 a08:	5f736900 	svcpl	0x00736900
 a0c:	32776f70 	rsbscc	r6, r7, #112, 30	; 0x1c0
 a10:	616d6b00 	cmnvs	sp, r0, lsl #22
 a14:	636f6c6c 	cmnvs	pc, #108, 24	; 0x6c00
 a18:	6b00632e 	blvs	196d8 <__bss_end__+0xe858>
 a1c:	6c6c616d 	stfvse	f6, [ip], #-436	; 0xfffffe4c
 a20:	695f636f 	ldmdbvs	pc, {r0, r1, r2, r3, r5, r6, r8, r9, sp, lr}^	; <UNPREDICTABLE>
 a24:	0074696e 	rsbseq	r6, r4, lr, ror #18
 a28:	615f7369 	cmpvs	pc, r9, ror #6
 a2c:	6e67696c 	vnmulvs.f16	s13, s14, s25	; <UNPREDICTABLE>
 a30:	6b006465 	blvs	19bcc <__bss_end__+0xed4c>
 a34:	6c6c616d 	stfvse	f6, [ip], #-436	; 0xfffffe4c
 a38:	685f636f 	ldmdavs	pc, {r0, r1, r2, r3, r5, r6, r8, r9, sp, lr}^	; <UNPREDICTABLE>
 a3c:	5f706165 	svcpl	0x00706165
 a40:	00727470 	rsbseq	r7, r2, r0, ror r4
 a44:	5f697072 	svcpl	0x00697072
 a48:	65736572 	ldrbvs	r6, [r3, #-1394]!	; 0xfffffa8e
 a4c:	75705f74 	ldrbvc	r5, [r0, #-3956]!	; 0xfffff08c
 a50:	6b006374 	blvs	19828 <__bss_end__+0xe9a8>
 a54:	6c6c616d 	stfvse	f6, [ip], #-436	; 0xfffffe4c
 a58:	615f636f 	cmpvs	pc, pc, ror #6
 a5c:	6e67696c 	vnmulvs.f16	s13, s14, s25	; <UNPREDICTABLE>
 a60:	67006465 	strvs	r6, [r0, -r5, ror #8]
 a64:	5f6f6970 	svcpl	0x006f6970
 a68:	30726c63 	rsbscc	r6, r2, r3, ror #24
 a6c:	69706700 	ldmdbvs	r0!, {r8, r9, sl, sp, lr}^
 a70:	65735f6f 	ldrbvs	r5, [r3, #-3951]!	; 0xfffff091
 a74:	67003074 	smlsdxvs	r0, r4, r0, r3
 a78:	5f6f6970 	svcpl	0x006f6970
 a7c:	74697277 	strbtvc	r7, [r9], #-631	; 0xfffffd89
 a80:	45440065 	strbmi	r0, [r4, #-101]	; 0xffffff9b
 a84:	41565f56 	cmpmi	r6, r6, asr pc
 a88:	0032334c 	eorseq	r3, r2, ip, asr #6
 a8c:	6f697067 	svcvs	0x00697067
 a90:	6165725f 	cmnvs	r5, pc, asr r2
 a94:	2f2e0064 	svccs	0x002e0064
 a98:	2f637273 	svccs	0x00637273
 a9c:	6f697067 	svcvs	0x00697067
 aa0:	6700632e 	strvs	r6, [r0, -lr, lsr #6]
 aa4:	5f6f6970 	svcpl	0x006f6970
 aa8:	5f746573 	svcpl	0x00746573
 aac:	75706e69 	ldrbvc	r6, [r0, #-3689]!	; 0xfffff197
 ab0:	70670074 	rsbvc	r0, r7, r4, ror r0
 ab4:	735f6f69 	cmpvc	pc, #420	; 0x1a4
 ab8:	6f5f7465 	svcvs	0x005f7465
 abc:	67006666 	strvs	r6, [r0, -r6, ror #12]
 ac0:	5f6f6970 	svcpl	0x006f6970
 ac4:	5f746573 	svcpl	0x00746573
 ac8:	7074756f 	rsbsvc	r7, r4, pc, ror #10
 acc:	67007475 	smlsdxvs	r0, r5, r4, r7
 ad0:	5f6f6970 	svcpl	0x006f6970
 ad4:	636e7566 	cmnvs	lr, #427819008	; 0x19800000
 ad8:	6700745f 	smlsdvs	r0, pc, r4, r7	; <UNPREDICTABLE>
 adc:	5f6f6970 	svcpl	0x006f6970
 ae0:	3076656c 	rsbscc	r6, r6, ip, ror #10
 ae4:	6e616200 	cdpvs	2, 6, cr6, cr1, cr0, {0}
 ae8:	7067006b 	rsbvc	r0, r7, fp, rrx
 aec:	735f6f69 	cmpvc	pc, #420	; 0x1a4
 af0:	6f5f7465 	svcvs	0x005f7465
 af4:	6e69006e 	cdpvs	0, 6, cr0, cr9, cr14, {3}
 af8:	6e726574 	mrcvs	5, 3, r6, cr2, cr4, {3}
 afc:	705f6c61 	subsvc	r6, pc, r1, ror #24
 b00:	68637475 	stmdavs	r3!, {r0, r2, r4, r5, r6, sl, ip, sp, lr}^
 b04:	72007261 	andvc	r7, r0, #268435462	; 0x10000006
 b08:	735f6970 	cmpvc	pc, #112, 18	; 0x1c0000
 b0c:	705f7465 	subsvc	r7, pc, r5, ror #8
 b10:	00637475 	rsbeq	r7, r3, r5, ror r4
 b14:	696c2f2e 	stmdbvs	ip!, {r1, r2, r3, r5, r8, r9, sl, fp, sp}^
 b18:	702f6362 	eorvc	r6, pc, r2, ror #6
 b1c:	68637475 	stmdavs	r3!, {r0, r2, r4, r5, r6, sl, ip, sp, lr}^
 b20:	632e7261 			; <UNDEFINED> instruction: 0x632e7261
 b24:	6c2f2e00 	stcvs	14, cr2, [pc], #-0	; b2c <__code_start__-0x74d4>
 b28:	2f636269 	svccs	0x00636269
 b2c:	63727473 	cmnvs	r2, #1929379840	; 0x73000000
 b30:	632e7461 			; <UNDEFINED> instruction: 0x632e7461
 b34:	73656400 	cmnvc	r5, #0, 8
 b38:	2f2e0074 	svccs	0x002e0074
 b3c:	6362696c 	cmnvs	r2, #108, 18	; 0x1b0000
 b40:	7274732f 	rsbsvc	r7, r4, #-1140850688	; 0xbc000000
 b44:	2e706d63 	cdpcs	13, 7, cr6, cr0, cr3, {3}
 b48:	2f2e0063 	svccs	0x002e0063
 b4c:	6362696c 	cmnvs	r2, #108, 18	; 0x1b0000
 b50:	7274732f 	rsbsvc	r7, r4, #-1140850688	; 0xbc000000
 b54:	2e797063 	cdpcs	0, 7, cr7, cr9, cr3, {3}
 b58:	2f2e0063 	svccs	0x002e0063
 b5c:	6362696c 	cmnvs	r2, #108, 18	; 0x1b0000
 b60:	7274732f 	rsbsvc	r7, r4, #-1140850688	; 0xbc000000
 b64:	706d636e 	rsbvc	r6, sp, lr, ror #6
 b68:	2e00632e 	cdpcs	3, 0, cr6, cr0, cr14, {1}
 b6c:	6174732f 	cmnvs	r4, pc, lsr #6
 b70:	732d6666 			; <UNDEFINED> instruction: 0x732d6666
 b74:	642f6372 	strtvs	r6, [pc], #-882	; b7c <__code_start__-0x7484>
 b78:	75616665 	strbvc	r6, [r1, #-1637]!	; 0xfffff99b
 b7c:	722d746c 	eorvc	r7, sp, #108, 8	; 0x6c000000
 b80:	6f6f6265 	svcvs	0x006f6265
 b84:	61632d74 	smcvs	13012	; 0x32d4
 b88:	756f6c6c 	strbvc	r6, [pc, #-3180]!	; ffffff24 <__bss_end__+0xffff50a4>
 b8c:	00632e74 	rsbeq	r2, r3, r4, ror lr

Disassembly of section .debug_frame:

00000000 <.debug_frame>:
   0:	0000000c 	andeq	r0, r0, ip
   4:	ffffffff 			; <UNDEFINED> instruction: 0xffffffff
   8:	7c020001 	stcvc	0, cr0, [r2], {1}
   c:	000d0c0e 	andeq	r0, sp, lr, lsl #24
  10:	00000024 	andeq	r0, r0, r4, lsr #32
  14:	00000000 	andeq	r0, r0, r0
  18:	00008038 	andeq	r8, r0, r8, lsr r0
  1c:	000000f0 	strdeq	r0, [r0], -r0	; <UNPREDICTABLE>
  20:	84100e42 	ldrhi	r0, [r0], #-3650	; 0xfffff1be
  24:	86038504 	strhi	r8, [r3], -r4, lsl #10
  28:	50018e02 	andpl	r8, r1, r2, lsl #28
  2c:	4202300e 	andmi	r3, r2, #14, 0
  30:	42100e0a 	andsmi	r0, r0, #160	; 0xa0
  34:	0000000b 	andeq	r0, r0, fp
  38:	00000018 	andeq	r0, r0, r8, lsl r0
  3c:	00000000 	andeq	r0, r0, r0
  40:	00008128 	andeq	r8, r0, r8, lsr #2
  44:	0000002c 	andeq	r0, r0, ip, lsr #32
  48:	84080e42 	strhi	r0, [r8], #-3650	; 0xfffff1be
  4c:	48018e02 	stmdami	r1, {r1, r9, sl, fp, pc}
  50:	000ec4ce 	andeq	ip, lr, lr, asr #9
  54:	0000000c 	andeq	r0, r0, ip
  58:	ffffffff 			; <UNDEFINED> instruction: 0xffffffff
  5c:	7c020001 	stcvc	0, cr0, [r2], {1}
  60:	000d0c0e 	andeq	r0, sp, lr, lsl #24
  64:	0000000c 	andeq	r0, r0, ip
  68:	00000054 	andeq	r0, r0, r4, asr r0
  6c:	00008154 	andeq	r8, r0, r4, asr r1
  70:	00000010 	andeq	r0, r0, r0, lsl r0
  74:	0000000c 	andeq	r0, r0, ip
  78:	00000054 	andeq	r0, r0, r4, asr r0
  7c:	00008164 	andeq	r8, r0, r4, ror #2
  80:	0000000c 	andeq	r0, r0, ip
  84:	0000000c 	andeq	r0, r0, ip
  88:	00000054 	andeq	r0, r0, r4, asr r0
  8c:	00008170 	andeq	r8, r0, r0, ror r1
  90:	00000008 	andeq	r0, r0, r8
  94:	0000000c 	andeq	r0, r0, ip
  98:	00000054 	andeq	r0, r0, r4, asr r0
  9c:	00008178 	andeq	r8, r0, r8, ror r1
  a0:	00000010 	andeq	r0, r0, r0, lsl r0
  a4:	0000000c 	andeq	r0, r0, ip
  a8:	00000054 	andeq	r0, r0, r4, asr r0
  ac:	00008188 	andeq	r8, r0, r8, lsl #3
  b0:	00000024 	andeq	r0, r0, r4, lsr #32
  b4:	00000014 	andeq	r0, r0, r4, lsl r0
  b8:	00000054 	andeq	r0, r0, r4, asr r0
  bc:	000081ac 	andeq	r8, r0, ip, lsr #3
  c0:	00000078 	andeq	r0, r0, r8, ror r0
  c4:	84080e44 	strhi	r0, [r8], #-3652	; 0xfffff1bc
  c8:	00018e02 	andeq	r8, r1, r2, lsl #28
  cc:	00000030 	andeq	r0, r0, r0, lsr r0
  d0:	00000054 	andeq	r0, r0, r4, asr r0
  d4:	00008224 	andeq	r8, r0, r4, lsr #4
  d8:	00000194 	muleq	r0, r4, r1
  dc:	84180e42 	ldrhi	r0, [r8], #-3650	; 0xfffff1be
  e0:	86058506 	strhi	r8, [r5], -r6, lsl #10
  e4:	88038704 	stmdahi	r3, {r2, r8, r9, sl, pc}
  e8:	44018e02 	strmi	r8, [r1], #-3586	; 0xfffff1fe
  ec:	8002300e 	andhi	r3, r2, lr
  f0:	42180e0a 	andsmi	r0, r8, #160	; 0xa0
  f4:	c6c7c8ce 	strbgt	ip, [r7], lr, asr #17
  f8:	000ec4c5 	andeq	ip, lr, r5, asr #9
  fc:	00000b42 	andeq	r0, r0, r2, asr #22
 100:	00000020 	andeq	r0, r0, r0, lsr #32
 104:	00000054 	andeq	r0, r0, r4, asr r0
 108:	000083b8 			; <UNDEFINED> instruction: 0x000083b8
 10c:	0000008c 	andeq	r0, r0, ip, lsl #1
 110:	84100e42 	ldrhi	r0, [r0], #-3650	; 0xfffff1be
 114:	86038504 	strhi	r8, [r3], -r4, lsl #10
 118:	42018e02 	andmi	r8, r1, #2, 28
 11c:	0e7a200e 	cdpeq	0, 7, cr2, cr10, cr14, {0}
 120:	00000010 	andeq	r0, r0, r0, lsl r0
 124:	0000000c 	andeq	r0, r0, ip
 128:	ffffffff 			; <UNDEFINED> instruction: 0xffffffff
 12c:	7c020001 	stcvc	0, cr0, [r2], {1}
 130:	000d0c0e 	andeq	r0, sp, lr, lsl #24
 134:	00000014 	andeq	r0, r0, r4, lsl r0
 138:	00000124 	andeq	r0, r0, r4, lsr #2
 13c:	00008444 	andeq	r8, r0, r4, asr #8
 140:	00000088 	andeq	r0, r0, r8, lsl #1
 144:	84080e42 	strhi	r0, [r8], #-3650	; 0xfffff1be
 148:	00018e02 	andeq	r8, r1, r2, lsl #28
 14c:	0000001c 	andeq	r0, r0, ip, lsl r0
 150:	00000124 	andeq	r0, r0, r4, lsr #2
 154:	000084cc 	andeq	r8, r0, ip, asr #9
 158:	00000100 	andeq	r0, r0, r0, lsl #2
 15c:	84180e42 	ldrhi	r0, [r8], #-3650	; 0xfffff1be
 160:	86058506 	strhi	r8, [r5], -r6, lsl #10
 164:	88038704 	stmdahi	r3, {r2, r8, r9, sl, pc}
 168:	00018e02 	andeq	r8, r1, r2, lsl #28
 16c:	0000000c 	andeq	r0, r0, ip
 170:	ffffffff 			; <UNDEFINED> instruction: 0xffffffff
 174:	7c020001 	stcvc	0, cr0, [r2], {1}
 178:	000d0c0e 	andeq	r0, sp, lr, lsl #24
 17c:	0000002c 	andeq	r0, r0, ip, lsr #32
 180:	0000016c 	andeq	r0, r0, ip, ror #2
 184:	000085cc 	andeq	r8, r0, ip, asr #11
 188:	0000015c 	andeq	r0, r0, ip, asr r1
 18c:	84240e42 	strthi	r0, [r4], #-3650	; 0xfffff1be
 190:	86088509 	strhi	r8, [r8], -r9, lsl #10
 194:	88068707 	stmdahi	r6, {r0, r1, r2, r8, r9, sl, pc}
 198:	8a048905 	bhi	1225b4 <__bss_end__+0x117734>
 19c:	8e028b03 	vmlahi.f64	d8, d2, d3
 1a0:	300e4801 	andcc	r4, lr, r1, lsl #16
 1a4:	0e0a6402 	cdpeq	4, 0, cr6, cr10, cr2, {0}
 1a8:	000b4224 	andeq	r4, fp, r4, lsr #4
 1ac:	0000001c 	andeq	r0, r0, ip, lsl r0
 1b0:	0000016c 	andeq	r0, r0, ip, ror #2
 1b4:	00008728 	andeq	r8, r0, r8, lsr #14
 1b8:	000000a4 	andeq	r0, r0, r4, lsr #1
 1bc:	84080e42 	strhi	r0, [r8], #-3650	; 0xfffff1be
 1c0:	42018e02 	andmi	r8, r1, #2, 28
 1c4:	4202480e 	andmi	r4, r2, #917504	; 0xe0000
 1c8:	0000080e 	andeq	r0, r0, lr, lsl #16
 1cc:	00000020 	andeq	r0, r0, r0, lsr #32
 1d0:	0000016c 	andeq	r0, r0, ip, ror #2
 1d4:	000087cc 	andeq	r8, r0, ip, asr #15
 1d8:	00000120 	andeq	r0, r0, r0, lsr #2
 1dc:	84200e42 	strthi	r0, [r0], #-3650	; 0xfffff1be
 1e0:	86078508 	strhi	r8, [r7], -r8, lsl #10
 1e4:	88058706 	stmdahi	r5, {r1, r2, r8, r9, sl, pc}
 1e8:	8a038904 	bhi	e2600 <__bss_end__+0xd7780>
 1ec:	00018e02 	andeq	r8, r1, r2, lsl #28
 1f0:	00000024 	andeq	r0, r0, r4, lsr #32
 1f4:	0000016c 	andeq	r0, r0, ip, ror #2
 1f8:	000088ec 	andeq	r8, r0, ip, ror #17
 1fc:	0000009c 	muleq	r0, ip, r0
 200:	840c0e42 	strhi	r0, [ip], #-3650	; 0xfffff1be
 204:	8e028503 	cfsh32hi	mvfx8, mvfx2, #3
 208:	180e4401 	stmdane	lr, {r0, sl, lr}
 20c:	0c0e0a5c 			; <UNDEFINED> instruction: 0x0c0e0a5c
 210:	c4c5ce42 	strbgt	ip, [r5], #3650	; 0xe42
 214:	0b42000e 	bleq	1080254 <__bss_end__+0x10753d4>
 218:	0000000c 	andeq	r0, r0, ip
 21c:	0000016c 	andeq	r0, r0, ip, ror #2
 220:	00008988 	andeq	r8, r0, r8, lsl #19
 224:	00000004 	andeq	r0, r0, r4
 228:	00000014 	andeq	r0, r0, r4, lsl r0
 22c:	0000016c 	andeq	r0, r0, ip, ror #2
 230:	0000898c 	andeq	r8, r0, ip, lsl #19
 234:	00000048 	andeq	r0, r0, r8, asr #32
 238:	84080e42 	strhi	r0, [r8], #-3650	; 0xfffff1be
 23c:	00018e02 	andeq	r8, r1, r2, lsl #28
 240:	00000014 	andeq	r0, r0, r4, lsl r0
 244:	0000016c 	andeq	r0, r0, ip, ror #2
 248:	000089d4 	ldrdeq	r8, [r0], -r4
 24c:	00000050 	andeq	r0, r0, r0, asr r0
 250:	84080e42 	strhi	r0, [r8], #-3650	; 0xfffff1be
 254:	00018e02 	andeq	r8, r1, r2, lsl #28
 258:	0000002c 	andeq	r0, r0, ip, lsr #32
 25c:	0000016c 	andeq	r0, r0, ip, ror #2
 260:	00008a24 	andeq	r8, r0, r4, lsr #20
 264:	00000100 	andeq	r0, r0, r0, lsl #2
 268:	84240e42 	strthi	r0, [r4], #-3650	; 0xfffff1be
 26c:	86088509 	strhi	r8, [r8], -r9, lsl #10
 270:	88068707 	stmdahi	r6, {r0, r1, r2, r8, r9, sl, pc}
 274:	8a048905 	bhi	122690 <__bss_end__+0x117810>
 278:	8e028b03 	vmlahi.f64	d8, d2, d3
 27c:	380e4201 	stmdacc	lr, {r0, r9, lr}
 280:	240e0a7c 	strcs	r0, [lr], #-2684	; 0xfffff584
 284:	00000b42 	andeq	r0, r0, r2, asr #22
 288:	00000014 	andeq	r0, r0, r4, lsl r0
 28c:	0000016c 	andeq	r0, r0, ip, ror #2
 290:	00008b24 	andeq	r8, r0, r4, lsr #22
 294:	0000002c 	andeq	r0, r0, ip, lsr #32
 298:	84080e42 	strhi	r0, [r8], #-3650	; 0xfffff1be
 29c:	00018e02 	andeq	r8, r1, r2, lsl #28
 2a0:	0000000c 	andeq	r0, r0, ip
 2a4:	ffffffff 			; <UNDEFINED> instruction: 0xffffffff
 2a8:	7c020001 	stcvc	0, cr0, [r2], {1}
 2ac:	000d0c0e 	andeq	r0, sp, lr, lsl #24
 2b0:	00000014 	andeq	r0, r0, r4, lsl r0
 2b4:	000002a0 	andeq	r0, r0, r0, lsr #5
 2b8:	00008b58 	andeq	r8, r0, r8, asr fp
 2bc:	00000078 	andeq	r0, r0, r8, ror r0
 2c0:	84080e42 	strhi	r0, [r8], #-3650	; 0xfffff1be
 2c4:	00018e02 	andeq	r8, r1, r2, lsl #28
 2c8:	0000000c 	andeq	r0, r0, ip
 2cc:	ffffffff 			; <UNDEFINED> instruction: 0xffffffff
 2d0:	7c020001 	stcvc	0, cr0, [r2], {1}
 2d4:	000d0c0e 	andeq	r0, sp, lr, lsl #24
 2d8:	00000034 	andeq	r0, r0, r4, lsr r0
 2dc:	000002c8 	andeq	r0, r0, r8, asr #5
 2e0:	00008bd0 	ldrdeq	r8, [r0], -r0
 2e4:	00000058 	andeq	r0, r0, r8, asr r0
 2e8:	80100e42 	andshi	r0, r0, r2, asr #28
 2ec:	82038104 	andhi	r8, r3, #1
 2f0:	42018302 	andmi	r8, r1, #134217728	; 0x8000000
 2f4:	07841c0e 	streq	r1, [r4, lr, lsl #24]
 2f8:	058e0685 	streq	r0, [lr, #1669]	; 0x685
 2fc:	5a280e44 	bpl	a03c14 <__bss_end__+0x9f8d94>
 300:	ce421c0e 	cdpgt	12, 4, cr1, cr2, cr14, {0}
 304:	100ec4c5 	andne	ip, lr, r5, asr #9
 308:	c1c2c342 	bicgt	ip, r2, r2, asr #6
 30c:	00000ec0 	andeq	r0, r0, r0, asr #29
 310:	0000000c 	andeq	r0, r0, ip
 314:	ffffffff 			; <UNDEFINED> instruction: 0xffffffff
 318:	7c020001 	stcvc	0, cr0, [r2], {1}
 31c:	000d0c0e 	andeq	r0, sp, lr, lsl #24
 320:	00000018 	andeq	r0, r0, r8, lsl r0
 324:	00000310 	andeq	r0, r0, r0, lsl r3
 328:	00008c28 	andeq	r8, r0, r8, lsr #24
 32c:	00000038 	andeq	r0, r0, r8, lsr r0
 330:	84100e42 	ldrhi	r0, [r0], #-3650	; 0xfffff1be
 334:	86038504 	strhi	r8, [r3], -r4, lsl #10
 338:	00018e02 	andeq	r8, r1, r2, lsl #28
 33c:	0000000c 	andeq	r0, r0, ip
 340:	ffffffff 			; <UNDEFINED> instruction: 0xffffffff
 344:	7c020001 	stcvc	0, cr0, [r2], {1}
 348:	000d0c0e 	andeq	r0, sp, lr, lsl #24
 34c:	0000002c 	andeq	r0, r0, ip, lsr #32
 350:	0000033c 	andeq	r0, r0, ip, lsr r3
 354:	00008c60 	andeq	r8, r0, r0, ror #24
 358:	00000328 	andeq	r0, r0, r8, lsr #6
 35c:	84180e42 	ldrhi	r0, [r8], #-3650	; 0xfffff1be
 360:	86058506 	strhi	r8, [r5], -r6, lsl #10
 364:	88038704 	stmdahi	r3, {r2, r8, r9, sl, pc}
 368:	46018e02 	strmi	r8, [r1], -r2, lsl #28
 36c:	c002600e 	andgt	r6, r2, lr
 370:	42180e0a 	andsmi	r0, r8, #160	; 0xa0
 374:	0a8e020b 	beq	fe380ba8 <__bss_end__+0xfe375d28>
 378:	0b42180e 	bleq	10863b8 <__bss_end__+0x107b538>
 37c:	00000014 	andeq	r0, r0, r4, lsl r0
 380:	0000033c 	andeq	r0, r0, ip, lsr r3
 384:	00008f88 	andeq	r8, r0, r8, lsl #31
 388:	00000060 	andeq	r0, r0, r0, rrx
 38c:	8e040e52 	mcrhi	14, 0, r0, cr4, cr2, {2}
 390:	100e4401 	andne	r4, lr, r1, lsl #8
 394:	0000002c 	andeq	r0, r0, ip, lsr #32
 398:	0000033c 	andeq	r0, r0, ip, lsr r3
 39c:	00008fe8 	andeq	r8, r0, r8, ror #31
 3a0:	0000062c 	andeq	r0, r0, ip, lsr #12
 3a4:	84240e42 	strthi	r0, [r4], #-3650	; 0xfffff1be
 3a8:	86088509 	strhi	r8, [r8], -r9, lsl #10
 3ac:	88068707 	stmdahi	r6, {r0, r1, r2, r8, r9, sl, pc}
 3b0:	8a048905 	bhi	1227cc <__bss_end__+0x11794c>
 3b4:	8e028b03 	vmlahi.f64	d8, d2, d3
 3b8:	c00e5201 	andgt	r5, lr, r1, lsl #4
 3bc:	0a860202 	beq	fe180bcc <__bss_end__+0xfe175d4c>
 3c0:	0b42240e 	bleq	1089400 <__bss_end__+0x107e580>
 3c4:	0000000c 	andeq	r0, r0, ip
 3c8:	ffffffff 			; <UNDEFINED> instruction: 0xffffffff
 3cc:	7c020001 	stcvc	0, cr0, [r2], {1}
 3d0:	000d0c0e 	andeq	r0, sp, lr, lsl #24
 3d4:	00000014 	andeq	r0, r0, r4, lsl r0
 3d8:	000003c4 	andeq	r0, r0, r4, asr #7
 3dc:	00009614 	andeq	r9, r0, r4, lsl r6
 3e0:	0000002c 	andeq	r0, r0, ip, lsr #32
 3e4:	84080e44 	strhi	r0, [r8], #-3652	; 0xfffff1bc
 3e8:	00018e02 	andeq	r8, r1, r2, lsl #28
 3ec:	0000000c 	andeq	r0, r0, ip
 3f0:	ffffffff 			; <UNDEFINED> instruction: 0xffffffff
 3f4:	7c020001 	stcvc	0, cr0, [r2], {1}
 3f8:	000d0c0e 	andeq	r0, sp, lr, lsl #24
 3fc:	00000018 	andeq	r0, r0, r8, lsl r0
 400:	000003ec 	andeq	r0, r0, ip, ror #7
 404:	00009640 	andeq	r9, r0, r0, asr #12
 408:	000000f8 	strdeq	r0, [r0], -r8
 40c:	84100e42 	ldrhi	r0, [r0], #-3650	; 0xfffff1be
 410:	86038504 	strhi	r8, [r3], -r4, lsl #10
 414:	00018e02 	andeq	r8, r1, r2, lsl #28
 418:	0000000c 	andeq	r0, r0, ip
 41c:	ffffffff 			; <UNDEFINED> instruction: 0xffffffff
 420:	7c020001 	stcvc	0, cr0, [r2], {1}
 424:	000d0c0e 	andeq	r0, sp, lr, lsl #24
 428:	0000000c 	andeq	r0, r0, ip
 42c:	00000418 	andeq	r0, r0, r8, lsl r4
 430:	00009738 	andeq	r9, r0, r8, lsr r7
 434:	00000004 	andeq	r0, r0, r4
 438:	0000000c 	andeq	r0, r0, ip
 43c:	ffffffff 			; <UNDEFINED> instruction: 0xffffffff
 440:	7c020001 	stcvc	0, cr0, [r2], {1}
 444:	000d0c0e 	andeq	r0, sp, lr, lsl #24
 448:	0000000c 	andeq	r0, r0, ip
 44c:	00000438 	andeq	r0, r0, r8, lsr r4
 450:	0000973c 	andeq	r9, r0, ip, lsr r7
 454:	00000018 	andeq	r0, r0, r8, lsl r0
 458:	0000000c 	andeq	r0, r0, ip
 45c:	00000438 	andeq	r0, r0, r8, lsr r4
 460:	00009754 	andeq	r9, r0, r4, asr r7
 464:	00000014 	andeq	r0, r0, r4, lsl r0
 468:	00000014 	andeq	r0, r0, r4, lsl r0
 46c:	00000438 	andeq	r0, r0, r8, lsr r4
 470:	00009768 	andeq	r9, r0, r8, ror #14
 474:	00000060 	andeq	r0, r0, r0, rrx
 478:	84080e42 	strhi	r0, [r8], #-3650	; 0xfffff1be
 47c:	00018e02 	andeq	r8, r1, r2, lsl #28
 480:	0000000c 	andeq	r0, r0, ip
 484:	ffffffff 			; <UNDEFINED> instruction: 0xffffffff
 488:	7c020001 	stcvc	0, cr0, [r2], {1}
 48c:	000d0c0e 	andeq	r0, sp, lr, lsl #24
 490:	0000000c 	andeq	r0, r0, ip
 494:	00000480 	andeq	r0, r0, r0, lsl #9
 498:	000097c8 	andeq	r9, r0, r8, asr #15
 49c:	0000000c 	andeq	r0, r0, ip
 4a0:	00000014 	andeq	r0, r0, r4, lsl r0
 4a4:	00000480 	andeq	r0, r0, r0, lsl #9
 4a8:	000097d4 	ldrdeq	r9, [r0], -r4
 4ac:	00000024 	andeq	r0, r0, r4, lsr #32
 4b0:	84080e42 	strhi	r0, [r8], #-3650	; 0xfffff1be
 4b4:	00018e02 	andeq	r8, r1, r2, lsl #28
 4b8:	0000001c 	andeq	r0, r0, ip, lsl r0
 4bc:	00000480 	andeq	r0, r0, r0, lsl #9
 4c0:	000097f8 	strdeq	r9, [r0], -r8
 4c4:	00000048 	andeq	r0, r0, r8, asr #32
 4c8:	84180e42 	ldrhi	r0, [r8], #-3650	; 0xfffff1be
 4cc:	86058506 	strhi	r8, [r5], -r6, lsl #10
 4d0:	88038704 	stmdahi	r3, {r2, r8, r9, sl, pc}
 4d4:	00018e02 	andeq	r8, r1, r2, lsl #28
 4d8:	0000001c 	andeq	r0, r0, ip, lsl r0
 4dc:	00000480 	andeq	r0, r0, r0, lsl #9
 4e0:	00009840 	andeq	r9, r0, r0, asr #16
 4e4:	00000050 	andeq	r0, r0, r0, asr r0
 4e8:	84180e42 	ldrhi	r0, [r8], #-3650	; 0xfffff1be
 4ec:	86058506 	strhi	r8, [r5], -r6, lsl #10
 4f0:	88038704 	stmdahi	r3, {r2, r8, r9, sl, pc}
 4f4:	00018e02 	andeq	r8, r1, r2, lsl #28
 4f8:	0000001c 	andeq	r0, r0, ip, lsl r0
 4fc:	00000480 	andeq	r0, r0, r0, lsl #9
 500:	00009890 	muleq	r0, r0, r8
 504:	00000054 	andeq	r0, r0, r4, asr r0
 508:	84180e42 	ldrhi	r0, [r8], #-3650	; 0xfffff1be
 50c:	86058506 	strhi	r8, [r5], -r6, lsl #10
 510:	88038704 	stmdahi	r3, {r2, r8, r9, sl, pc}
 514:	00018e02 	andeq	r8, r1, r2, lsl #28
 518:	0000000c 	andeq	r0, r0, ip
 51c:	ffffffff 			; <UNDEFINED> instruction: 0xffffffff
 520:	7c020001 	stcvc	0, cr0, [r2], {1}
 524:	000d0c0e 	andeq	r0, sp, lr, lsl #24
 528:	00000018 	andeq	r0, r0, r8, lsl r0
 52c:	00000518 	andeq	r0, r0, r8, lsl r5
 530:	000098e4 	andeq	r9, r0, r4, ror #17
 534:	00000020 	andeq	r0, r0, r0, lsr #32
 538:	84100e42 	ldrhi	r0, [r0], #-3650	; 0xfffff1be
 53c:	86038504 	strhi	r8, [r3], -r4, lsl #10
 540:	00018e02 	andeq	r8, r1, r2, lsl #28
 544:	00000018 	andeq	r0, r0, r8, lsl r0
 548:	00000518 	andeq	r0, r0, r8, lsl r5
 54c:	00009904 	andeq	r9, r0, r4, lsl #18
 550:	00000020 	andeq	r0, r0, r0, lsr #32
 554:	84100e42 	ldrhi	r0, [r0], #-3650	; 0xfffff1be
 558:	86038504 	strhi	r8, [r3], -r4, lsl #10
 55c:	00018e02 	andeq	r8, r1, r2, lsl #28
 560:	00000014 	andeq	r0, r0, r4, lsl r0
 564:	00000518 	andeq	r0, r0, r8, lsl r5
 568:	00009924 	andeq	r9, r0, r4, lsr #18
 56c:	000000b0 	strheq	r0, [r0], -r0	; <UNPREDICTABLE>
 570:	84080e42 	strhi	r0, [r8], #-3650	; 0xfffff1be
 574:	00018e02 	andeq	r8, r1, r2, lsl #28
 578:	00000014 	andeq	r0, r0, r4, lsl r0
 57c:	00000518 	andeq	r0, r0, r8, lsl r5
 580:	000099d4 	ldrdeq	r9, [r0], -r4
 584:	00000018 	andeq	r0, r0, r8, lsl r0
 588:	84080e42 	strhi	r0, [r8], #-3650	; 0xfffff1be
 58c:	00018e02 	andeq	r8, r1, r2, lsl #28
 590:	00000014 	andeq	r0, r0, r4, lsl r0
 594:	00000518 	andeq	r0, r0, r8, lsl r5
 598:	000099ec 	andeq	r9, r0, ip, ror #19
 59c:	00000020 	andeq	r0, r0, r0, lsr #32
 5a0:	84080e42 	strhi	r0, [r8], #-3650	; 0xfffff1be
 5a4:	00018e02 	andeq	r8, r1, r2, lsl #28
 5a8:	00000014 	andeq	r0, r0, r4, lsl r0
 5ac:	00000518 	andeq	r0, r0, r8, lsl r5
 5b0:	00009a0c 	andeq	r9, r0, ip, lsl #20
 5b4:	00000030 	andeq	r0, r0, r0, lsr r0
 5b8:	84080e42 	strhi	r0, [r8], #-3650	; 0xfffff1be
 5bc:	00018e02 	andeq	r8, r1, r2, lsl #28
 5c0:	00000014 	andeq	r0, r0, r4, lsl r0
 5c4:	00000518 	andeq	r0, r0, r8, lsl r5
 5c8:	00009a3c 	andeq	r9, r0, ip, lsr sl
 5cc:	00000030 	andeq	r0, r0, r0, lsr r0
 5d0:	84080e42 	strhi	r0, [r8], #-3650	; 0xfffff1be
 5d4:	00018e02 	andeq	r8, r1, r2, lsl #28
 5d8:	00000014 	andeq	r0, r0, r4, lsl r0
 5dc:	00000518 	andeq	r0, r0, r8, lsl r5
 5e0:	00009a6c 	andeq	r9, r0, ip, ror #20
 5e4:	00000010 	andeq	r0, r0, r0, lsl r0
 5e8:	84080e42 	strhi	r0, [r8], #-3650	; 0xfffff1be
 5ec:	00018e02 	andeq	r8, r1, r2, lsl #28
 5f0:	00000014 	andeq	r0, r0, r4, lsl r0
 5f4:	00000518 	andeq	r0, r0, r8, lsl r5
 5f8:	00009a7c 	andeq	r9, r0, ip, ror sl
 5fc:	00000020 	andeq	r0, r0, r0, lsr #32
 600:	84080e42 	strhi	r0, [r8], #-3650	; 0xfffff1be
 604:	00018e02 	andeq	r8, r1, r2, lsl #28
 608:	00000014 	andeq	r0, r0, r4, lsl r0
 60c:	00000518 	andeq	r0, r0, r8, lsl r5
 610:	00009a9c 	muleq	r0, ip, sl
 614:	00000014 	andeq	r0, r0, r4, lsl r0
 618:	84080e42 	strhi	r0, [r8], #-3650	; 0xfffff1be
 61c:	00018e02 	andeq	r8, r1, r2, lsl #28
 620:	00000014 	andeq	r0, r0, r4, lsl r0
 624:	00000518 	andeq	r0, r0, r8, lsl r5
 628:	00009ab0 			; <UNDEFINED> instruction: 0x00009ab0
 62c:	00000024 	andeq	r0, r0, r4, lsr #32
 630:	84080e42 	strhi	r0, [r8], #-3650	; 0xfffff1be
 634:	00018e02 	andeq	r8, r1, r2, lsl #28
 638:	0000000c 	andeq	r0, r0, ip
 63c:	ffffffff 			; <UNDEFINED> instruction: 0xffffffff
 640:	7c020001 	stcvc	0, cr0, [r2], {1}
 644:	000d0c0e 	andeq	r0, sp, lr, lsl #24
 648:	0000000c 	andeq	r0, r0, ip
 64c:	00000638 	andeq	r0, r0, r8, lsr r6
 650:	00009ad4 	ldrdeq	r9, [r0], -r4
 654:	00000010 	andeq	r0, r0, r0, lsl r0
 658:	0000000c 	andeq	r0, r0, ip
 65c:	00000638 	andeq	r0, r0, r8, lsr r6
 660:	00009ae4 	andeq	r9, r0, r4, ror #21
 664:	00000010 	andeq	r0, r0, r0, lsl r0
 668:	0000000c 	andeq	r0, r0, ip
 66c:	00000638 	andeq	r0, r0, r8, lsr r6
 670:	00009af4 	strdeq	r9, [r0], -r4
 674:	00000010 	andeq	r0, r0, r0, lsl r0
 678:	0000001c 	andeq	r0, r0, ip, lsl r0
 67c:	00000638 	andeq	r0, r0, r8, lsr r6
 680:	00009b04 	andeq	r9, r0, r4, lsl #22
 684:	0000009c 	muleq	r0, ip, r0
 688:	8e040e42 	cdphi	14, 0, cr0, cr4, cr2, {2}
 68c:	100e4201 	andne	r4, lr, r1, lsl #4
 690:	040e0a58 	streq	r0, [lr], #-2648	; 0xfffff5a8
 694:	00000b42 	andeq	r0, r0, r2, asr #22
 698:	00000014 	andeq	r0, r0, r4, lsl r0
 69c:	00000638 	andeq	r0, r0, r8, lsr r6
 6a0:	00009ba0 	andeq	r9, r0, r0, lsr #23
 6a4:	00000058 	andeq	r0, r0, r8, asr r0
 6a8:	84080e42 	strhi	r0, [r8], #-3650	; 0xfffff1be
 6ac:	00018e02 	andeq	r8, r1, r2, lsl #28
 6b0:	0000001c 	andeq	r0, r0, ip, lsl r0
 6b4:	00000638 	andeq	r0, r0, r8, lsr r6
 6b8:	00009bf8 	strdeq	r9, [r0], -r8
 6bc:	00000098 	muleq	r0, r8, r0
 6c0:	8e040e42 	cdphi	14, 0, cr0, cr4, cr2, {2}
 6c4:	100e4201 	andne	r4, lr, r1, lsl #4
 6c8:	040e0a58 	streq	r0, [lr], #-2648	; 0xfffff5a8
 6cc:	00000b42 	andeq	r0, r0, r2, asr #22
 6d0:	00000020 	andeq	r0, r0, r0, lsr #32
 6d4:	00000638 	andeq	r0, r0, r8, lsr r6
 6d8:	00009c90 	muleq	r0, r0, ip
 6dc:	00000064 	andeq	r0, r0, r4, rrx
 6e0:	840c0e42 	strhi	r0, [ip], #-3650	; 0xfffff1be
 6e4:	8e028503 	cfsh32hi	mvfx8, mvfx2, #3
 6e8:	180e4201 	stmdane	lr, {r0, r9, lr}
 6ec:	0c0e0a54 			; <UNDEFINED> instruction: 0x0c0e0a54
 6f0:	00000b42 	andeq	r0, r0, r2, asr #22
 6f4:	0000001c 	andeq	r0, r0, ip, lsl r0
 6f8:	00000638 	andeq	r0, r0, r8, lsr r6
 6fc:	00009cf4 	strdeq	r9, [r0], -r4
 700:	00000118 	andeq	r0, r0, r8, lsl r1
 704:	8e040e42 	cdphi	14, 0, cr0, cr4, cr2, {2}
 708:	100e4201 	andne	r4, lr, r1, lsl #4
 70c:	040e0a6c 	streq	r0, [lr], #-2668	; 0xfffff594
 710:	00000b42 	andeq	r0, r0, r2, asr #22
 714:	0000000c 	andeq	r0, r0, ip
 718:	00000638 	andeq	r0, r0, r8, lsr r6
 71c:	00009e0c 	andeq	r9, r0, ip, lsl #28
 720:	00000004 	andeq	r0, r0, r4
 724:	0000000c 	andeq	r0, r0, ip
 728:	00000638 	andeq	r0, r0, r8, lsr r6
 72c:	00009e10 	andeq	r9, r0, r0, lsl lr
 730:	00000014 	andeq	r0, r0, r4, lsl r0
 734:	00000014 	andeq	r0, r0, r4, lsl r0
 738:	00000638 	andeq	r0, r0, r8, lsr r6
 73c:	00009e24 	andeq	r9, r0, r4, lsr #28
 740:	00000060 	andeq	r0, r0, r0, rrx
 744:	8e040e58 	mcrhi	14, 0, r0, cr4, cr8, {2}
 748:	100e4201 	andne	r4, lr, r1, lsl #4
 74c:	0000000c 	andeq	r0, r0, ip
 750:	ffffffff 			; <UNDEFINED> instruction: 0xffffffff
 754:	7c020001 	stcvc	0, cr0, [r2], {1}
 758:	000d0c0e 	andeq	r0, sp, lr, lsl #24
 75c:	00000020 	andeq	r0, r0, r0, lsr #32
 760:	0000074c 	andeq	r0, r0, ip, asr #14
 764:	00009e84 	andeq	r9, r0, r4, lsl #29
 768:	00000060 	andeq	r0, r0, r0, rrx
 76c:	84100e48 	ldrhi	r0, [r0], #-3656	; 0xfffff1b8
 770:	86038504 	strhi	r8, [r3], -r4, lsl #10
 774:	64018e02 	strvs	r8, [r1], #-3586	; 0xfffff1fe
 778:	c4c5c6ce 	strbgt	ip, [r5], #1742	; 0x6ce
 77c:	0000000e 	andeq	r0, r0, lr
 780:	00000020 	andeq	r0, r0, r0, lsr #32
 784:	0000074c 	andeq	r0, r0, ip, asr #14
 788:	00009ee4 	andeq	r9, r0, r4, ror #29
 78c:	00000058 	andeq	r0, r0, r8, asr r0
 790:	84100e46 	ldrhi	r0, [r0], #-3654	; 0xfffff1ba
 794:	86038504 	strhi	r8, [r3], -r4, lsl #10
 798:	62018e02 	andvs	r8, r1, #2, 28
 79c:	c4c5c6ce 	strbgt	ip, [r5], #1742	; 0x6ce
 7a0:	0000000e 	andeq	r0, r0, lr
 7a4:	0000000c 	andeq	r0, r0, ip
 7a8:	0000074c 	andeq	r0, r0, ip, asr #14
 7ac:	00009f3c 	andeq	r9, r0, ip, lsr pc
 7b0:	00000018 	andeq	r0, r0, r8, lsl r0
 7b4:	0000000c 	andeq	r0, r0, ip
 7b8:	0000074c 	andeq	r0, r0, ip, asr #14
 7bc:	00009f54 	andeq	r9, r0, r4, asr pc
 7c0:	00000018 	andeq	r0, r0, r8, lsl r0
 7c4:	00000020 	andeq	r0, r0, r0, lsr #32
 7c8:	0000074c 	andeq	r0, r0, ip, asr #14
 7cc:	00009f6c 	andeq	r9, r0, ip, ror #30
 7d0:	00000058 	andeq	r0, r0, r8, asr r0
 7d4:	84100e46 	ldrhi	r0, [r0], #-3654	; 0xfffff1ba
 7d8:	86038504 	strhi	r8, [r3], -r4, lsl #10
 7dc:	62018e02 	andvs	r8, r1, #2, 28
 7e0:	c4c5c6ce 	strbgt	ip, [r5], #1742	; 0x6ce
 7e4:	0000000e 	andeq	r0, r0, lr
 7e8:	0000000c 	andeq	r0, r0, ip
 7ec:	0000074c 	andeq	r0, r0, ip, asr #14
 7f0:	00009fc4 	andeq	r9, r0, r4, asr #31
 7f4:	00000030 	andeq	r0, r0, r0, lsr r0
 7f8:	00000014 	andeq	r0, r0, r4, lsl r0
 7fc:	0000074c 	andeq	r0, r0, ip, asr #14
 800:	00009ff4 	strdeq	r9, [r0], -r4
 804:	00000028 	andeq	r0, r0, r8, lsr #32
 808:	84080e42 	strhi	r0, [r8], #-3650	; 0xfffff1be
 80c:	00018e02 	andeq	r8, r1, r2, lsl #28
 810:	0000000c 	andeq	r0, r0, ip
 814:	ffffffff 			; <UNDEFINED> instruction: 0xffffffff
 818:	7c020001 	stcvc	0, cr0, [r2], {1}
 81c:	000d0c0e 	andeq	r0, sp, lr, lsl #24
 820:	00000014 	andeq	r0, r0, r4, lsl r0
 824:	00000810 	andeq	r0, r0, r0, lsl r8
 828:	0000a01c 	andeq	sl, r0, ip, lsl r0
 82c:	00000014 	andeq	r0, r0, r4, lsl r0
 830:	84080e42 	strhi	r0, [r8], #-3650	; 0xfffff1be
 834:	00018e02 	andeq	r8, r1, r2, lsl #28
 838:	0000000c 	andeq	r0, r0, ip
 83c:	00000810 	andeq	r0, r0, r0, lsl r8
 840:	0000a030 	andeq	sl, r0, r0, lsr r0
 844:	00000018 	andeq	r0, r0, r8, lsl r0
 848:	0000000c 	andeq	r0, r0, ip
 84c:	00000810 	andeq	r0, r0, r0, lsl r8
 850:	0000a048 	andeq	sl, r0, r8, asr #32
 854:	00000010 	andeq	r0, r0, r0, lsl r0
 858:	0000000c 	andeq	r0, r0, ip
 85c:	ffffffff 			; <UNDEFINED> instruction: 0xffffffff
 860:	7c020001 	stcvc	0, cr0, [r2], {1}
 864:	000d0c0e 	andeq	r0, sp, lr, lsl #24
 868:	0000000c 	andeq	r0, r0, ip
 86c:	00000858 	andeq	r0, r0, r8, asr r8
 870:	0000a058 	andeq	sl, r0, r8, asr r0
 874:	0000002c 	andeq	r0, r0, ip, lsr #32
 878:	0000000c 	andeq	r0, r0, ip
 87c:	ffffffff 			; <UNDEFINED> instruction: 0xffffffff
 880:	7c020001 	stcvc	0, cr0, [r2], {1}
 884:	000d0c0e 	andeq	r0, sp, lr, lsl #24
 888:	0000000c 	andeq	r0, r0, ip
 88c:	00000878 	andeq	r0, r0, r8, ror r8
 890:	0000a084 	andeq	sl, r0, r4, lsl #1
 894:	00000044 	andeq	r0, r0, r4, asr #32
 898:	0000000c 	andeq	r0, r0, ip
 89c:	ffffffff 			; <UNDEFINED> instruction: 0xffffffff
 8a0:	7c020001 	stcvc	0, cr0, [r2], {1}
 8a4:	000d0c0e 	andeq	r0, sp, lr, lsl #24
 8a8:	0000000c 	andeq	r0, r0, ip
 8ac:	00000898 	muleq	r0, r8, r8
 8b0:	0000a0c8 	andeq	sl, r0, r8, asr #1
 8b4:	00000018 	andeq	r0, r0, r8, lsl r0
 8b8:	0000000c 	andeq	r0, r0, ip
 8bc:	ffffffff 			; <UNDEFINED> instruction: 0xffffffff
 8c0:	7c020001 	stcvc	0, cr0, [r2], {1}
 8c4:	000d0c0e 	andeq	r0, sp, lr, lsl #24
 8c8:	0000000c 	andeq	r0, r0, ip
 8cc:	000008b8 			; <UNDEFINED> instruction: 0x000008b8
 8d0:	0000a0e0 	andeq	sl, r0, r0, ror #1
 8d4:	00000030 	andeq	r0, r0, r0, lsr r0
 8d8:	0000000c 	andeq	r0, r0, ip
 8dc:	ffffffff 			; <UNDEFINED> instruction: 0xffffffff
 8e0:	7c020001 	stcvc	0, cr0, [r2], {1}
 8e4:	000d0c0e 	andeq	r0, sp, lr, lsl #24
 8e8:	0000000c 	andeq	r0, r0, ip
 8ec:	000008d8 	ldrdeq	r0, [r0], -r8
 8f0:	0000a110 	andeq	sl, r0, r0, lsl r1
 8f4:	00000004 	andeq	r0, r0, r4

Disassembly of section .debug_ranges:

00000000 <.debug_ranges>:
   0:	00000034 	andeq	r0, r0, r4, lsr r0
   4:	00000034 	andeq	r0, r0, r4, lsr r0
   8:	00000038 	andeq	r0, r0, r8, lsr r0
   c:	0000003c 	andeq	r0, r0, ip, lsr r0
	...
  18:	00000034 	andeq	r0, r0, r4, lsr r0
  1c:	00000034 	andeq	r0, r0, r4, lsr r0
  20:	00000034 	andeq	r0, r0, r4, lsr r0
  24:	00000038 	andeq	r0, r0, r8, lsr r0
  28:	0000003c 	andeq	r0, r0, ip, lsr r0
  2c:	00000044 	andeq	r0, r0, r4, asr #32
	...
  38:	00000058 	andeq	r0, r0, r8, asr r0
  3c:	0000005c 	andeq	r0, r0, ip, asr r0
  40:	00000060 	andeq	r0, r0, r0, rrx
  44:	0000006c 	andeq	r0, r0, ip, rrx
  48:	0000006c 	andeq	r0, r0, ip, rrx
  4c:	0000007c 	andeq	r0, r0, ip, ror r0
  50:	0000007c 	andeq	r0, r0, ip, ror r0
  54:	000000c0 	andeq	r0, r0, r0, asr #1
	...
  60:	00000058 	andeq	r0, r0, r8, asr r0
  64:	0000005c 	andeq	r0, r0, ip, asr r0
  68:	00000060 	andeq	r0, r0, r0, rrx
  6c:	00000064 	andeq	r0, r0, r4, rrx
	...
  78:	0000006c 	andeq	r0, r0, ip, rrx
  7c:	0000006c 	andeq	r0, r0, ip, rrx
  80:	0000006c 	andeq	r0, r0, ip, rrx
  84:	00000078 	andeq	r0, r0, r8, ror r0
  88:	0000007c 	andeq	r0, r0, ip, ror r0
  8c:	0000007c 	andeq	r0, r0, ip, ror r0
  90:	0000007c 	andeq	r0, r0, ip, ror r0
  94:	0000007c 	andeq	r0, r0, ip, ror r0
  98:	00000080 	andeq	r0, r0, r0, lsl #1
  9c:	00000084 	andeq	r0, r0, r4, lsl #1
  a0:	00000088 	andeq	r0, r0, r8, lsl #1
  a4:	00000094 	muleq	r0, r4, r0
	...
  b0:	0000006c 	andeq	r0, r0, ip, rrx
  b4:	0000006c 	andeq	r0, r0, ip, rrx
  b8:	00000070 	andeq	r0, r0, r0, ror r0
  bc:	00000078 	andeq	r0, r0, r8, ror r0
  c0:	0000007c 	andeq	r0, r0, ip, ror r0
  c4:	0000007c 	andeq	r0, r0, ip, ror r0
  c8:	00000080 	andeq	r0, r0, r0, lsl #1
  cc:	00000084 	andeq	r0, r0, r4, lsl #1
	...
  d8:	0000006c 	andeq	r0, r0, ip, rrx
  dc:	0000006c 	andeq	r0, r0, ip, rrx
  e0:	0000006c 	andeq	r0, r0, ip, rrx
  e4:	00000070 	andeq	r0, r0, r0, ror r0
  e8:	0000007c 	andeq	r0, r0, ip, ror r0
  ec:	0000007c 	andeq	r0, r0, ip, ror r0
  f0:	00000088 	andeq	r0, r0, r8, lsl #1
  f4:	00000094 	muleq	r0, r4, r0
	...
 100:	0000011c 	andeq	r0, r0, ip, lsl r1
 104:	00000120 	andeq	r0, r0, r0, lsr #2
 108:	00000124 	andeq	r0, r0, r4, lsr #2
 10c:	00000124 	andeq	r0, r0, r4, lsr #2
 110:	00000124 	andeq	r0, r0, r4, lsr #2
 114:	00000144 	andeq	r0, r0, r4, asr #2
 118:	00000144 	andeq	r0, r0, r4, asr #2
 11c:	0000017c 	andeq	r0, r0, ip, ror r1
	...
 128:	0000011c 	andeq	r0, r0, ip, lsl r1
 12c:	00000120 	andeq	r0, r0, r0, lsr #2
 130:	00000124 	andeq	r0, r0, r4, lsr #2
 134:	00000144 	andeq	r0, r0, r4, asr #2
 138:	00000144 	andeq	r0, r0, r4, asr #2
 13c:	0000017c 	andeq	r0, r0, ip, ror r1
	...
 148:	0000011c 	andeq	r0, r0, ip, lsl r1
 14c:	00000120 	andeq	r0, r0, r0, lsr #2
 150:	00000124 	andeq	r0, r0, r4, lsr #2
 154:	00000128 	andeq	r0, r0, r8, lsr #2
	...
 160:	00000144 	andeq	r0, r0, r4, asr #2
 164:	00000144 	andeq	r0, r0, r4, asr #2
 168:	00000144 	andeq	r0, r0, r4, asr #2
 16c:	00000154 	andeq	r0, r0, r4, asr r1
	...
 178:	00000144 	andeq	r0, r0, r4, asr #2
 17c:	00000144 	andeq	r0, r0, r4, asr #2
 180:	00000148 	andeq	r0, r0, r8, asr #2
 184:	0000014c 	andeq	r0, r0, ip, asr #2
	...
 190:	00000144 	andeq	r0, r0, r4, asr #2
 194:	00000144 	andeq	r0, r0, r4, asr #2
 198:	00000144 	andeq	r0, r0, r4, asr #2
 19c:	00000148 	andeq	r0, r0, r8, asr #2
 1a0:	0000014c 	andeq	r0, r0, ip, asr #2
 1a4:	00000154 	andeq	r0, r0, r4, asr r1
	...
 1b0:	0000017c 	andeq	r0, r0, ip, ror r1
 1b4:	000001d4 	ldrdeq	r0, [r0], -r4
 1b8:	000001e4 	andeq	r0, r0, r4, ror #3
 1bc:	000001f0 	strdeq	r0, [r0], -r0	; <UNPREDICTABLE>
	...
 1c8:	00000188 	andeq	r0, r0, r8, lsl #3
 1cc:	00000194 	muleq	r0, r4, r1
 1d0:	000001a8 	andeq	r0, r0, r8, lsr #3
 1d4:	000001b0 			; <UNDEFINED> instruction: 0x000001b0
	...
 1e0:	000000b8 	strheq	r0, [r0], -r8
 1e4:	000000c4 	andeq	r0, r0, r4, asr #1
 1e8:	000000e0 	andeq	r0, r0, r0, ror #1
 1ec:	00000110 	andeq	r0, r0, r0, lsl r1
	...
 1f8:	00000044 	andeq	r0, r0, r4, asr #32
 1fc:	000000d8 	ldrdeq	r0, [r0], -r8
 200:	000000e0 	andeq	r0, r0, r0, ror #1
 204:	00000114 	andeq	r0, r0, r4, lsl r1
	...
 210:	00000044 	andeq	r0, r0, r4, asr #32
 214:	000000d0 	ldrdeq	r0, [r0], -r0	; <UNPREDICTABLE>
 218:	000000e0 	andeq	r0, r0, r0, ror #1
 21c:	000000e8 	andeq	r0, r0, r8, ror #1
 220:	000000f4 	strdeq	r0, [r0], -r4
 224:	00000108 	andeq	r0, r0, r8, lsl #2
	...
 230:	00000044 	andeq	r0, r0, r4, asr #32
 234:	0000004c 	andeq	r0, r0, ip, asr #32
 238:	0000007c 	andeq	r0, r0, ip, ror r0
 23c:	000000d0 	ldrdeq	r0, [r0], -r0	; <UNPREDICTABLE>
 240:	000000e0 	andeq	r0, r0, r0, ror #1
 244:	000000e8 	andeq	r0, r0, r8, ror #1
 248:	000000f4 	strdeq	r0, [r0], -r4
 24c:	00000108 	andeq	r0, r0, r8, lsl #2
	...
 258:	0000004c 	andeq	r0, r0, ip, asr #32
 25c:	00000058 	andeq	r0, r0, r8, asr r0
 260:	00000058 	andeq	r0, r0, r8, asr r0
 264:	00000074 	andeq	r0, r0, r4, ror r0
	...
 270:	0000004c 	andeq	r0, r0, ip, asr #32
 274:	00000058 	andeq	r0, r0, r8, asr r0
 278:	00000058 	andeq	r0, r0, r8, asr r0
 27c:	00000060 	andeq	r0, r0, r0, rrx
 280:	00000060 	andeq	r0, r0, r0, rrx
 284:	00000074 	andeq	r0, r0, r4, ror r0
	...
 290:	00000050 	andeq	r0, r0, r0, asr r0
 294:	00000058 	andeq	r0, r0, r8, asr r0
 298:	00000058 	andeq	r0, r0, r8, asr r0
 29c:	00000060 	andeq	r0, r0, r0, rrx
 2a0:	00000060 	andeq	r0, r0, r0, rrx
 2a4:	00000070 	andeq	r0, r0, r0, ror r0
	...
 2b0:	0000015c 	andeq	r0, r0, ip, asr r1
 2b4:	0000015c 	andeq	r0, r0, ip, asr r1
 2b8:	00000164 	andeq	r0, r0, r4, ror #2
 2bc:	0000018c 	andeq	r0, r0, ip, lsl #3
	...
 2c8:	0000021c 	andeq	r0, r0, ip, lsl r2
 2cc:	00000228 	andeq	r0, r0, r8, lsr #4
 2d0:	0000022c 	andeq	r0, r0, ip, lsr #4
 2d4:	00000230 	andeq	r0, r0, r0, lsr r2
 2d8:	00000238 	andeq	r0, r0, r8, lsr r2
 2dc:	0000028c 	andeq	r0, r0, ip, lsl #5
 2e0:	000002c8 	andeq	r0, r0, r8, asr #5
 2e4:	000002e0 	andeq	r0, r0, r0, ror #5
	...
 2f0:	00000340 	andeq	r0, r0, r0, asr #6
 2f4:	00000358 	andeq	r0, r0, r8, asr r3
 2f8:	0000035c 	andeq	r0, r0, ip, asr r3
 2fc:	00000360 	andeq	r0, r0, r0, ror #6
	...
 308:	00000464 	andeq	r0, r0, r4, ror #8
 30c:	000004d0 	ldrdeq	r0, [r0], -r0	; <UNPREDICTABLE>
 310:	000004dc 	ldrdeq	r0, [r0], -ip
 314:	00000558 	andeq	r0, r0, r8, asr r5
	...
 320:	00000478 	andeq	r0, r0, r8, ror r4
 324:	00000484 	andeq	r0, r0, r4, lsl #9
 328:	00000490 	muleq	r0, r0, r4
 32c:	000004bc 			; <UNDEFINED> instruction: 0x000004bc
 330:	000004dc 	ldrdeq	r0, [r0], -ip
 334:	0000052c 	andeq	r0, r0, ip, lsr #10
	...
 340:	00000490 	muleq	r0, r0, r4
 344:	00000498 	muleq	r0, r8, r4
 348:	000004dc 	ldrdeq	r0, [r0], -ip
 34c:	000004e0 	andeq	r0, r0, r0, ror #9
 350:	000004e4 	andeq	r0, r0, r4, ror #9
 354:	000004e8 	andeq	r0, r0, r8, ror #9
 358:	000004ec 	andeq	r0, r0, ip, ror #9
 35c:	000004f4 	strdeq	r0, [r0], -r4
 360:	00000524 	andeq	r0, r0, r4, lsr #10
 364:	00000524 	andeq	r0, r0, r4, lsr #10
	...
 370:	000000a4 	andeq	r0, r0, r4, lsr #1
 374:	00000148 	andeq	r0, r0, r8, asr #2
 378:	00000158 	andeq	r0, r0, r8, asr r1
 37c:	0000015c 	andeq	r0, r0, ip, asr r1
 380:	00000274 	andeq	r0, r0, r4, ror r2
 384:	00000278 	andeq	r0, r0, r8, ror r2
 388:	0000027c 	andeq	r0, r0, ip, ror r2
 38c:	00000280 	andeq	r0, r0, r0, lsl #5
 390:	00000288 	andeq	r0, r0, r8, lsl #5
 394:	0000029c 	muleq	r0, ip, r2
 398:	000002c0 	andeq	r0, r0, r0, asr #5
 39c:	000002cc 	andeq	r0, r0, ip, asr #5
 3a0:	000002f0 	strdeq	r0, [r0], -r0	; <UNPREDICTABLE>
 3a4:	000002f0 	strdeq	r0, [r0], -r0	; <UNPREDICTABLE>
 3a8:	000002f4 	strdeq	r0, [r0], -r4
 3ac:	000002f8 	strdeq	r0, [r0], -r8
	...
 3b8:	00000148 	andeq	r0, r0, r8, asr #2
 3bc:	00000158 	andeq	r0, r0, r8, asr r1
 3c0:	0000015c 	andeq	r0, r0, ip, asr r1
 3c4:	0000018c 	andeq	r0, r0, ip, lsl #3
 3c8:	0000029c 	muleq	r0, ip, r2
 3cc:	000002ac 	andeq	r0, r0, ip, lsr #5
	...
 3d8:	000003c8 	andeq	r0, r0, r8, asr #7
 3dc:	000003d0 	ldrdeq	r0, [r0], -r0	; <UNPREDICTABLE>
 3e0:	00000404 	andeq	r0, r0, r4, lsl #8
 3e4:	000004ac 	andeq	r0, r0, ip, lsr #9
 3e8:	000004c0 	andeq	r0, r0, r0, asr #9
 3ec:	00000920 	andeq	r0, r0, r0, lsr #18
 3f0:	00000928 	andeq	r0, r0, r8, lsr #18
 3f4:	000009b4 			; <UNDEFINED> instruction: 0x000009b4
	...
 400:	000003c8 	andeq	r0, r0, r8, asr #7
 404:	000003d0 	ldrdeq	r0, [r0], -r0	; <UNPREDICTABLE>
 408:	00000504 	andeq	r0, r0, r4, lsl #10
 40c:	000005d0 	ldrdeq	r0, [r0], -r0	; <UNPREDICTABLE>
 410:	00000800 	andeq	r0, r0, r0, lsl #16
 414:	00000888 	andeq	r0, r0, r8, lsl #17
 418:	00000930 	andeq	r0, r0, r0, lsr r9
 41c:	000009b4 			; <UNDEFINED> instruction: 0x000009b4
	...
 428:	00000404 	andeq	r0, r0, r4, lsl #8
 42c:	00000408 	andeq	r0, r0, r8, lsl #8
 430:	00000414 	andeq	r0, r0, r4, lsl r4
 434:	00000414 	andeq	r0, r0, r4, lsl r4
 438:	00000428 	andeq	r0, r0, r8, lsr #8
 43c:	0000042c 	andeq	r0, r0, ip, lsr #8
	...
 448:	000005fc 	strdeq	r0, [r0], -ip
 44c:	00000700 	andeq	r0, r0, r0, lsl #14
 450:	000007ec 	andeq	r0, r0, ip, ror #15
 454:	000007f4 	strdeq	r0, [r0], -r4
 458:	00000888 	andeq	r0, r0, r8, lsl #17
 45c:	00000894 	muleq	r0, r4, r8
 460:	000008a8 	andeq	r0, r0, r8, lsr #17
 464:	000008bc 			; <UNDEFINED> instruction: 0x000008bc
 468:	00000910 	andeq	r0, r0, r0, lsl r9
 46c:	00000920 	andeq	r0, r0, r0, lsr #18
	...
 478:	00000600 	andeq	r0, r0, r0, lsl #12
 47c:	00000604 	andeq	r0, r0, r4, lsl #12
 480:	00000608 	andeq	r0, r0, r8, lsl #12
 484:	000006b4 			; <UNDEFINED> instruction: 0x000006b4
 488:	000006cc 	andeq	r0, r0, ip, asr #13
 48c:	000006d0 	ldrdeq	r0, [r0], -r0	; <UNPREDICTABLE>
 490:	000008a8 	andeq	r0, r0, r8, lsr #17
 494:	000008b8 			; <UNDEFINED> instruction: 0x000008b8
 498:	00000910 	andeq	r0, r0, r0, lsl r9
 49c:	00000920 	andeq	r0, r0, r0, lsr #18
	...
 4a8:	000006b4 			; <UNDEFINED> instruction: 0x000006b4
 4ac:	000006cc 	andeq	r0, r0, ip, asr #13
 4b0:	000006d0 	ldrdeq	r0, [r0], -r0	; <UNPREDICTABLE>
 4b4:	00000700 	andeq	r0, r0, r0, lsl #14
 4b8:	000007ec 	andeq	r0, r0, ip, ror #15
 4bc:	000007f4 	strdeq	r0, [r0], -r4
 4c0:	00000888 	andeq	r0, r0, r8, lsl #17
 4c4:	00000894 	muleq	r0, r4, r8
 4c8:	000008b8 			; <UNDEFINED> instruction: 0x000008b8
 4cc:	000008bc 			; <UNDEFINED> instruction: 0x000008bc
	...
 4d8:	00000700 	andeq	r0, r0, r0, lsl #14
 4dc:	00000708 	andeq	r0, r0, r8, lsl #14
 4e0:	0000070c 	andeq	r0, r0, ip, lsl #14
 4e4:	000007ec 	andeq	r0, r0, ip, ror #15
 4e8:	00000894 	muleq	r0, r4, r8
 4ec:	000008a8 	andeq	r0, r0, r8, lsr #17
	...
 4f8:	00000728 	andeq	r0, r0, r8, lsr #14
 4fc:	000007a4 	andeq	r0, r0, r4, lsr #15
 500:	000007ac 	andeq	r0, r0, ip, lsr #15
 504:	000007b0 			; <UNDEFINED> instruction: 0x000007b0
 508:	00000894 	muleq	r0, r4, r8
 50c:	00000898 	muleq	r0, r8, r8
 510:	0000089c 	muleq	r0, ip, r8
 514:	000008a0 	andeq	r0, r0, r0, lsr #17
	...
 520:	000007a4 	andeq	r0, r0, r4, lsr #15
 524:	000007ac 	andeq	r0, r0, ip, lsr #15
 528:	000007b0 			; <UNDEFINED> instruction: 0x000007b0
 52c:	000007ec 	andeq	r0, r0, ip, ror #15
 530:	00000898 	muleq	r0, r8, r8
 534:	0000089c 	muleq	r0, ip, r8
 538:	000008a0 	andeq	r0, r0, r0, lsr #17
 53c:	000008a8 	andeq	r0, r0, r8, lsr #17
	...
 548:	00009768 	andeq	r9, r0, r8, ror #14
 54c:	00009768 	andeq	r9, r0, r8, ror #14
 550:	0000976c 	andeq	r9, r0, ip, ror #14
 554:	00009774 	andeq	r9, r0, r4, ror r7
	...
 560:	0000973c 	andeq	r9, r0, ip, lsr r7
 564:	000097c8 	andeq	r9, r0, r8, asr #15
	...
 570:	00000030 	andeq	r0, r0, r0, lsr r0
 574:	00000030 	andeq	r0, r0, r0, lsr r0
 578:	00000038 	andeq	r0, r0, r8, lsr r0
 57c:	0000004c 	andeq	r0, r0, ip, asr #32
	...
 588:	0000004c 	andeq	r0, r0, ip, asr #32
 58c:	00000050 	andeq	r0, r0, r0, asr r0
 590:	00000050 	andeq	r0, r0, r0, asr r0
 594:	00000078 	andeq	r0, r0, r8, ror r0
	...
 5a0:	0000004c 	andeq	r0, r0, ip, asr #32
 5a4:	00000050 	andeq	r0, r0, r0, asr r0
 5a8:	00000050 	andeq	r0, r0, r0, asr r0
 5ac:	00000060 	andeq	r0, r0, r0, rrx
 5b0:	00000064 	andeq	r0, r0, r4, rrx
 5b4:	00000068 	andeq	r0, r0, r8, rrx
	...
 5c0:	0000004c 	andeq	r0, r0, ip, asr #32
 5c4:	00000050 	andeq	r0, r0, r0, asr r0
 5c8:	00000054 	andeq	r0, r0, r4, asr r0
 5cc:	00000060 	andeq	r0, r0, r0, rrx
	...
 5d8:	0000009c 	muleq	r0, ip, r0
 5dc:	000000a0 	andeq	r0, r0, r0, lsr #1
 5e0:	000000a0 	andeq	r0, r0, r0, lsr #1
 5e4:	000000c8 	andeq	r0, r0, r8, asr #1
	...
 5f0:	0000009c 	muleq	r0, ip, r0
 5f4:	000000a0 	andeq	r0, r0, r0, lsr #1
 5f8:	000000a0 	andeq	r0, r0, r0, lsr #1
 5fc:	000000b0 	strheq	r0, [r0], -r0	; <UNPREDICTABLE>
 600:	000000b4 	strheq	r0, [r0], -r4
 604:	000000b8 	strheq	r0, [r0], -r8
	...
 610:	0000009c 	muleq	r0, ip, r0
 614:	000000a0 	andeq	r0, r0, r0, lsr #1
 618:	000000a4 	andeq	r0, r0, r4, lsr #1
 61c:	000000b0 	strheq	r0, [r0], -r0	; <UNPREDICTABLE>
	...
 628:	000000c8 	andeq	r0, r0, r8, asr #1
 62c:	000000c8 	andeq	r0, r0, r8, asr #1
 630:	000000cc 	andeq	r0, r0, ip, asr #1
 634:	0000011c 	andeq	r0, r0, ip, lsl r1
	...
 640:	000000f0 	strdeq	r0, [r0], -r0	; <UNPREDICTABLE>
 644:	000000f4 	strdeq	r0, [r0], -r4
 648:	000000f4 	strdeq	r0, [r0], -r4
 64c:	0000011c 	andeq	r0, r0, ip, lsl r1
	...
 658:	000000f0 	strdeq	r0, [r0], -r0	; <UNPREDICTABLE>
 65c:	000000f4 	strdeq	r0, [r0], -r4
 660:	000000f4 	strdeq	r0, [r0], -r4
 664:	00000104 	andeq	r0, r0, r4, lsl #2
 668:	00000108 	andeq	r0, r0, r8, lsl #2
 66c:	0000010c 	andeq	r0, r0, ip, lsl #2
	...
 678:	000000f0 	strdeq	r0, [r0], -r0	; <UNPREDICTABLE>
 67c:	000000f4 	strdeq	r0, [r0], -r4
 680:	000000f8 	strdeq	r0, [r0], -r8
 684:	00000104 	andeq	r0, r0, r4, lsl #2
	...
 690:	00000134 	andeq	r0, r0, r4, lsr r1
 694:	00000134 	andeq	r0, r0, r4, lsr r1
 698:	00000134 	andeq	r0, r0, r4, lsr r1
 69c:	0000013c 	andeq	r0, r0, ip, lsr r1
	...
 6a8:	0000024c 	andeq	r0, r0, ip, asr #4
 6ac:	00000264 	andeq	r0, r0, r4, ror #4
 6b0:	000002c8 	andeq	r0, r0, r8, asr #5
 6b4:	000002e8 	andeq	r0, r0, r8, ror #5
	...
 6c0:	00000008 	andeq	r0, r0, r8
 6c4:	0000000c 	andeq	r0, r0, ip
 6c8:	00000014 	andeq	r0, r0, r4, lsl r0
 6cc:	00000054 	andeq	r0, r0, r4, asr r0
 6d0:	00000058 	andeq	r0, r0, r8, asr r0
 6d4:	00000060 	andeq	r0, r0, r0, rrx
	...
 6e0:	00000060 	andeq	r0, r0, r0, rrx
 6e4:	00000068 	andeq	r0, r0, r8, rrx
 6e8:	0000006c 	andeq	r0, r0, ip, rrx
 6ec:	000000ac 	andeq	r0, r0, ip, lsr #1
 6f0:	000000b0 	strheq	r0, [r0], -r0	; <UNPREDICTABLE>
 6f4:	000000b8 	strheq	r0, [r0], -r8
	...
 700:	00000068 	andeq	r0, r0, r8, rrx
 704:	00000068 	andeq	r0, r0, r8, rrx
 708:	0000006c 	andeq	r0, r0, ip, rrx
 70c:	000000ac 	andeq	r0, r0, ip, lsr #1
 710:	000000b0 	strheq	r0, [r0], -r0	; <UNPREDICTABLE>
 714:	000000b8 	strheq	r0, [r0], -r8
	...
 720:	000000e8 	andeq	r0, r0, r8, ror #1
 724:	000000f0 	strdeq	r0, [r0], -r0	; <UNPREDICTABLE>
 728:	000000f4 	strdeq	r0, [r0], -r4
 72c:	00000134 	andeq	r0, r0, r4, lsr r1
 730:	00000138 	andeq	r0, r0, r8, lsr r1
 734:	00000140 	andeq	r0, r0, r0, asr #2
	...
 740:	000000f0 	strdeq	r0, [r0], -r0	; <UNPREDICTABLE>
 744:	000000f0 	strdeq	r0, [r0], -r0	; <UNPREDICTABLE>
 748:	000000f4 	strdeq	r0, [r0], -r4
 74c:	00000134 	andeq	r0, r0, r4, lsr r1
 750:	00000138 	andeq	r0, r0, r8, lsr r1
 754:	00000140 	andeq	r0, r0, r0, asr #2
	...
 760:	00000144 	andeq	r0, r0, r4, asr #2
 764:	00000148 	andeq	r0, r0, r8, asr #2
 768:	00000150 	andeq	r0, r0, r0, asr r1
 76c:	0000015c 	andeq	r0, r0, ip, asr r1
	...
