
tests-2.0/part2-test4-no-leak.elf:     file format elf32-littlearm


Disassembly of section .text:

00008000 <__code_start__>:
    8000:	e3a00013 	mov	r0, #19, 0
    8004:	e3800080 	orr	r0, r0, #128, 0	; 0x80
    8008:	e129f000 	msr	CPSR_fc, r0
    800c:	e3a01000 	mov	r1, #0, 0
    8010:	ee071f95 	mcr	15, 0, r1, cr7, cr5, {4}
    8014:	e3a0d302 	mov	sp, #134217728	; 0x8000000
    8018:	e3a0b000 	mov	fp, #0, 0
    801c:	eb000582 	bl	962c <_cstart>
    8020:	eb0005cb 	bl	9754 <rpi_reboot>

00008024 <PUT32>:
    8024:	e5801000 	str	r1, [r0]
    8028:	e12fff1e 	bx	lr

0000802c <GET32>:
    802c:	e5900000 	ldr	r0, [r0]
    8030:	e12fff1e 	bx	lr

00008034 <BRANCHTO>:
    8034:	e12fff10 	bx	r0

00008038 <test>:
    8038:	e92d4ff0 	push	{r4, r5, r6, r7, r8, r9, sl, fp, lr}
    803c:	e3a09010 	mov	r9, #16, 0
    8040:	e59fb0bc 	ldr	fp, [pc, #188]	; 8104 <test+0xcc>
    8044:	e59fa0bc 	ldr	sl, [pc, #188]	; 8108 <test+0xd0>
    8048:	e24dd01c 	sub	sp, sp, #28, 0
    804c:	e58d9014 	str	r9, [sp, #20]
    8050:	e58db00c 	str	fp, [sp, #12]
    8054:	e58da010 	str	sl, [sp, #16]
    8058:	e28d700c 	add	r7, sp, #12, 0
    805c:	e897000e 	ldm	r7, {r1, r2, r3}
    8060:	e3a0000c 	mov	r0, #12, 0
    8064:	eb0000ce 	bl	83a4 <ckalloc>
    8068:	e3a08000 	mov	r8, #0, 0
    806c:	e1a05000 	mov	r5, r0
    8070:	e3a0200c 	mov	r2, #12, 0
    8074:	e3a01000 	mov	r1, #0, 0
    8078:	eb0002b1 	bl	8b44 <memset>
    807c:	e3a06064 	mov	r6, #100, 0	; 0x64
    8080:	e5858000 	str	r8, [r5]
    8084:	ea000010 	b	80cc <test+0x94>
    8088:	e58db00c 	str	fp, [sp, #12]
    808c:	e58da010 	str	sl, [sp, #16]
    8090:	e58d9014 	str	r9, [sp, #20]
    8094:	e897000e 	ldm	r7, {r1, r2, r3}
    8098:	e3a0000c 	mov	r0, #12, 0
    809c:	eb0000c0 	bl	83a4 <ckalloc>
    80a0:	e1a04000 	mov	r4, r0
    80a4:	e3a0200c 	mov	r2, #12, 0
    80a8:	e3a01000 	mov	r1, #0, 0
    80ac:	eb0002a4 	bl	8b44 <memset>
    80b0:	e5953008 	ldr	r3, [r5, #8]
    80b4:	e5848000 	str	r8, [r4]
    80b8:	e3530000 	cmp	r3, #0, 0
    80bc:	1a000008 	bne	80e4 <test+0xac>
    80c0:	e5854008 	str	r4, [r5, #8]
    80c4:	e5845004 	str	r5, [r4, #4]
    80c8:	e1a05004 	mov	r5, r4
    80cc:	e2566001 	subs	r6, r6, #1, 0
    80d0:	1affffec 	bne	8088 <test+0x50>
    80d4:	eb000227 	bl	8978 <check_no_leak>
    80d8:	e1a00005 	mov	r0, r5
    80dc:	e28dd01c 	add	sp, sp, #28, 0
    80e0:	e8bd8ff0 	pop	{r4, r5, r6, r7, r8, r9, sl, fp, pc}
    80e4:	e59f2020 	ldr	r2, [pc, #32]	; 810c <test+0xd4>
    80e8:	e3a03014 	mov	r3, #20, 0
    80ec:	e59f1010 	ldr	r1, [pc, #16]	; 8104 <test+0xcc>
    80f0:	e58d2000 	str	r2, [sp]
    80f4:	e59f0014 	ldr	r0, [pc, #20]	; 8110 <test+0xd8>
    80f8:	e59f2008 	ldr	r2, [pc, #8]	; 8108 <test+0xd0>
    80fc:	eb0002ae 	bl	8bbc <printk>
    8100:	eb00053e 	bl	9600 <clean_reboot>
    8104:	0000a118 	andeq	sl, r0, r8, lsl r1
    8108:	0000a1c0 	andeq	sl, r0, r0, asr #3
    810c:	0000a14c 	andeq	sl, r0, ip, asr #2
    8110:	0000a138 	andeq	sl, r0, r8, lsr r1

00008114 <notmain>:
    8114:	e92d4010 	push	{r4, lr}
    8118:	e59f0018 	ldr	r0, [pc, #24]	; 8138 <notmain+0x24>
    811c:	eb0002a6 	bl	8bbc <printk>
    8120:	ebffffc4 	bl	8038 <test>
    8124:	e8bd4010 	pop	{r4, lr}
    8128:	e1a02000 	mov	r2, r0
    812c:	e59f0008 	ldr	r0, [pc, #8]	; 813c <notmain+0x28>
    8130:	e512109c 	ldr	r1, [r2, #-156]	; 0xffffff64
    8134:	ea0002a0 	b	8bbc <printk>
    8138:	0000a158 	andeq	sl, r0, r8, asr r1
    813c:	0000a194 	muleq	r0, r4, r1

00008140 <ck_first_hdr>:
    8140:	e59f3004 	ldr	r3, [pc, #4]	; 814c <ck_first_hdr+0xc>
    8144:	e5930000 	ldr	r0, [r3]
    8148:	e12fff1e 	bx	lr
    814c:	0000a9c0 	andeq	sl, r0, r0, asr #19

00008150 <ck_next_hdr>:
    8150:	e3500000 	cmp	r0, #0, 0
    8154:	15900000 	ldrne	r0, [r0]
    8158:	e12fff1e 	bx	lr

0000815c <ck_hdr_start>:
    815c:	e28000a8 	add	r0, r0, #168, 0	; 0xa8
    8160:	e12fff1e 	bx	lr

00008164 <ck_hdr_end>:
    8164:	e5903004 	ldr	r3, [r0, #4]
    8168:	e28330a8 	add	r3, r3, #168, 0	; 0xa8
    816c:	e0800003 	add	r0, r0, r3
    8170:	e12fff1e 	bx	lr

00008174 <ck_ptr_in_block>:
    8174:	e5903004 	ldr	r3, [r0, #4]
    8178:	e28020a8 	add	r2, r0, #168, 0	; 0xa8
    817c:	e28330a8 	add	r3, r3, #168, 0	; 0xa8
    8180:	e0800003 	add	r0, r0, r3
    8184:	e1520001 	cmp	r2, r1
    8188:	91510000 	cmpls	r1, r0
    818c:	33a00001 	movcc	r0, #1, 0
    8190:	23a00000 	movcs	r0, #0, 0
    8194:	e12fff1e 	bx	lr

00008198 <ck_ptr_is_alloced>:
    8198:	e59f3068 	ldr	r3, [pc, #104]	; 8208 <ck_ptr_is_alloced+0x70>
    819c:	e92d4010 	push	{r4, lr}
    81a0:	e5934000 	ldr	r4, [r3]
    81a4:	e3540000 	cmp	r4, #0, 0
    81a8:	0a000014 	beq	8200 <ck_ptr_is_alloced+0x68>
    81ac:	e5943004 	ldr	r3, [r4, #4]
    81b0:	e28420a8 	add	r2, r4, #168, 0	; 0xa8
    81b4:	ea000004 	b	81cc <ck_ptr_is_alloced+0x34>
    81b8:	e5944000 	ldr	r4, [r4]
    81bc:	e3540000 	cmp	r4, #0, 0
    81c0:	e28420a8 	add	r2, r4, #168, 0	; 0xa8
    81c4:	0a00000d 	beq	8200 <ck_ptr_is_alloced+0x68>
    81c8:	e5943004 	ldr	r3, [r4, #4]
    81cc:	e28330a8 	add	r3, r3, #168, 0	; 0xa8
    81d0:	e0843003 	add	r3, r4, r3
    81d4:	e1500003 	cmp	r0, r3
    81d8:	33a03001 	movcc	r3, #1, 0
    81dc:	23a03000 	movcs	r3, #0, 0
    81e0:	e1500002 	cmp	r0, r2
    81e4:	33a03000 	movcc	r3, #0, 0
    81e8:	e3530000 	cmp	r3, #0, 0
    81ec:	0afffff1 	beq	81b8 <ck_ptr_is_alloced+0x20>
    81f0:	e1a01000 	mov	r1, r0
    81f4:	e1a02004 	mov	r2, r4
    81f8:	e59f000c 	ldr	r0, [pc, #12]	; 820c <ck_ptr_is_alloced+0x74>
    81fc:	eb00026e 	bl	8bbc <printk>
    8200:	e1a00004 	mov	r0, r4
    8204:	e8bd8010 	pop	{r4, pc}
    8208:	0000a9c0 	andeq	sl, r0, r0, asr #19
    820c:	0000a1c8 	andeq	sl, r0, r8, asr #3

00008210 <ckfree>:
    8210:	e92d41f0 	push	{r4, r5, r6, r7, r8, lr}
    8214:	e1a04000 	mov	r4, r0
    8218:	e24dd018 	sub	sp, sp, #24, 0
    821c:	e28d0018 	add	r0, sp, #24, 0
    8220:	e900000e 	stmdb	r0, {r1, r2, r3}
    8224:	e59d8014 	ldr	r8, [sp, #20]
    8228:	e1cd60dc 	ldrd	r6, [sp, #12]
    822c:	e1a03008 	mov	r3, r8
    8230:	e1a01006 	mov	r1, r6
    8234:	e1a02007 	mov	r2, r7
    8238:	e59f0134 	ldr	r0, [pc, #308]	; 8374 <ckfree+0x164>
    823c:	eb00025e 	bl	8bbc <printk>
    8240:	e1a01004 	mov	r1, r4
    8244:	e59f012c 	ldr	r0, [pc, #300]	; 8378 <ckfree+0x168>
    8248:	eb00025b 	bl	8bbc <printk>
    824c:	e51430a0 	ldr	r3, [r4, #-160]	; 0xffffff60
    8250:	e353000b 	cmp	r3, #11, 0
    8254:	1a000035 	bne	8330 <ckfree+0x120>
    8258:	e3a0300c 	mov	r3, #12, 0
    825c:	e59f6118 	ldr	r6, [pc, #280]	; 837c <ckfree+0x16c>
    8260:	e50430a0 	str	r3, [r4, #-160]	; 0xffffff60
    8264:	e5962000 	ldr	r2, [r6]
    8268:	e3520000 	cmp	r2, #0, 0
    826c:	0a000038 	beq	8354 <ckfree+0x144>
    8270:	e24450a8 	sub	r5, r4, #168, 0	; 0xa8
    8274:	ea000002 	b	8284 <ckfree+0x74>
    8278:	e5922000 	ldr	r2, [r2]
    827c:	e3520000 	cmp	r2, #0, 0
    8280:	0a000033 	beq	8354 <ckfree+0x144>
    8284:	e5923004 	ldr	r3, [r2, #4]
    8288:	e28210a8 	add	r1, r2, #168, 0	; 0xa8
    828c:	e28330a8 	add	r3, r3, #168, 0	; 0xa8
    8290:	e0823003 	add	r3, r2, r3
    8294:	e1540003 	cmp	r4, r3
    8298:	33a03001 	movcc	r3, #1, 0
    829c:	23a03000 	movcs	r3, #0, 0
    82a0:	e1540001 	cmp	r4, r1
    82a4:	33a03000 	movcc	r3, #0, 0
    82a8:	e3530000 	cmp	r3, #0, 0
    82ac:	0afffff1 	beq	8278 <ckfree+0x68>
    82b0:	e1a01004 	mov	r1, r4
    82b4:	e59f00c4 	ldr	r0, [pc, #196]	; 8380 <ckfree+0x170>
    82b8:	eb00023f 	bl	8bbc <printk>
    82bc:	e5963000 	ldr	r3, [r6]
    82c0:	e1550003 	cmp	r5, r3
    82c4:	0a000010 	beq	830c <ckfree+0xfc>
    82c8:	e3530000 	cmp	r3, #0, 0
    82cc:	0a000007 	beq	82f0 <ckfree+0xe0>
    82d0:	e5932000 	ldr	r2, [r3]
    82d4:	e3520000 	cmp	r2, #0, 0
    82d8:	0a000004 	beq	82f0 <ckfree+0xe0>
    82dc:	e1550002 	cmp	r5, r2
    82e0:	0a00000f 	beq	8324 <ckfree+0x114>
    82e4:	e1a03002 	mov	r3, r2
    82e8:	e3530000 	cmp	r3, #0, 0
    82ec:	1afffff7 	bne	82d0 <ckfree+0xc0>
    82f0:	e3a0304f 	mov	r3, #79, 0	; 0x4f
    82f4:	e59f2088 	ldr	r2, [pc, #136]	; 8384 <ckfree+0x174>
    82f8:	e59f1088 	ldr	r1, [pc, #136]	; 8388 <ckfree+0x178>
    82fc:	e59f0088 	ldr	r0, [pc, #136]	; 838c <ckfree+0x17c>
    8300:	e58d5000 	str	r5, [sp]
    8304:	eb00022c 	bl	8bbc <printk>
    8308:	eb0004bc 	bl	9600 <clean_reboot>
    830c:	e51430a8 	ldr	r3, [r4, #-168]	; 0xffffff58
    8310:	e5863000 	str	r3, [r6]
    8314:	e1a00005 	mov	r0, r5
    8318:	e28dd018 	add	sp, sp, #24, 0
    831c:	e8bd41f0 	pop	{r4, r5, r6, r7, r8, lr}
    8320:	ea000042 	b	8430 <kr_free>
    8324:	e51420a8 	ldr	r2, [r4, #-168]	; 0xffffff58
    8328:	e5832000 	str	r2, [r3]
    832c:	eafffff8 	b	8314 <ckfree+0x104>
    8330:	e1a03008 	mov	r3, r8
    8334:	e1a02007 	mov	r2, r7
    8338:	e1a01006 	mov	r1, r6
    833c:	e59f004c 	ldr	r0, [pc, #76]	; 8390 <ckfree+0x180>
    8340:	eb00021d 	bl	8bbc <printk>
    8344:	e51410a0 	ldr	r1, [r4, #-160]	; 0xffffff60
    8348:	e59f0044 	ldr	r0, [pc, #68]	; 8394 <ckfree+0x184>
    834c:	eb00021a 	bl	8bbc <printk>
    8350:	eb0004aa 	bl	9600 <clean_reboot>
    8354:	e59f203c 	ldr	r2, [pc, #60]	; 8398 <ckfree+0x188>
    8358:	e3a0305d 	mov	r3, #93, 0	; 0x5d
    835c:	e59f1024 	ldr	r1, [pc, #36]	; 8388 <ckfree+0x178>
    8360:	e58d2000 	str	r2, [sp]
    8364:	e59f0030 	ldr	r0, [pc, #48]	; 839c <ckfree+0x18c>
    8368:	e59f2030 	ldr	r2, [pc, #48]	; 83a0 <ckfree+0x190>
    836c:	eb000212 	bl	8bbc <printk>
    8370:	eb0004a2 	bl	9600 <clean_reboot>
    8374:	0000a1d8 	ldrdeq	sl, [r0], -r8
    8378:	0000a1e4 	andeq	sl, r0, r4, ror #3
    837c:	0000a9c0 	andeq	sl, r0, r0, asr #19
    8380:	0000a1c8 	andeq	sl, r0, r8, asr #3
    8384:	0000a2a0 	andeq	sl, r0, r0, lsr #5
    8388:	0000a234 	andeq	sl, r0, r4, lsr r2
    838c:	0000a240 	andeq	sl, r0, r0, asr #4
    8390:	0000a1f4 	strdeq	sl, [r0], -r4
    8394:	0000a20c 	andeq	sl, r0, ip, lsl #4
    8398:	0000a26c 	andeq	sl, r0, ip, ror #4
    839c:	0000a138 	andeq	sl, r0, r8, lsr r1
    83a0:	0000a2ac 	andeq	sl, r0, ip, lsr #5

000083a4 <ckalloc>:
    83a4:	e92d4070 	push	{r4, r5, r6, lr}
    83a8:	e24dd010 	sub	sp, sp, #16, 0
    83ac:	e1a06000 	mov	r6, r0
    83b0:	e28d5004 	add	r5, sp, #4, 0
    83b4:	e28000a8 	add	r0, r0, #168, 0	; 0xa8
    83b8:	e885000e 	stm	r5, {r1, r2, r3}
    83bc:	eb00003d 	bl	84b8 <kr_malloc>
    83c0:	e3a020a8 	mov	r2, #168, 0	; 0xa8
    83c4:	e1a04000 	mov	r4, r0
    83c8:	e3a01000 	mov	r1, #0, 0
    83cc:	eb0001dc 	bl	8b44 <memset>
    83d0:	e8950007 	ldm	r5, {r0, r1, r2}
    83d4:	e3a0c00b 	mov	ip, #11, 0
    83d8:	e2843010 	add	r3, r4, #16, 0
    83dc:	e9841040 	stmib	r4, {r6, ip}
    83e0:	e28450a8 	add	r5, r4, #168, 0	; 0xa8
    83e4:	e8830007 	stm	r3, {r0, r1, r2}
    83e8:	e1cd20d8 	ldrd	r2, [sp, #8]
    83ec:	e59d1004 	ldr	r1, [sp, #4]
    83f0:	e59f002c 	ldr	r0, [pc, #44]	; 8424 <ckalloc+0x80>
    83f4:	eb0001f0 	bl	8bbc <printk>
    83f8:	e1a02006 	mov	r2, r6
    83fc:	e1a01005 	mov	r1, r5
    8400:	e59f0020 	ldr	r0, [pc, #32]	; 8428 <ckalloc+0x84>
    8404:	eb0001ec 	bl	8bbc <printk>
    8408:	e1a00005 	mov	r0, r5
    840c:	e59f3018 	ldr	r3, [pc, #24]	; 842c <ckalloc+0x88>
    8410:	e5932000 	ldr	r2, [r3]
    8414:	e5842000 	str	r2, [r4]
    8418:	e5834000 	str	r4, [r3]
    841c:	e28dd010 	add	sp, sp, #16, 0
    8420:	e8bd8070 	pop	{r4, r5, r6, pc}
    8424:	0000a1d8 	ldrdeq	sl, [r0], -r8
    8428:	0000a284 	andeq	sl, r0, r4, lsl #5
    842c:	0000a9c0 	andeq	sl, r0, r0, asr #19

00008430 <kr_free>:
    8430:	e92d4010 	push	{r4, lr}
    8434:	e59fe078 	ldr	lr, [pc, #120]	; 84b4 <kr_free+0x84>
    8438:	e2401008 	sub	r1, r0, #8, 0
    843c:	e59e3000 	ldr	r3, [lr]
    8440:	ea000004 	b	8458 <kr_free+0x28>
    8444:	e1520001 	cmp	r2, r1
    8448:	8a000009 	bhi	8474 <kr_free+0x44>
    844c:	e1520003 	cmp	r2, r3
    8450:	9a000007 	bls	8474 <kr_free+0x44>
    8454:	e1a03002 	mov	r3, r2
    8458:	e1530001 	cmp	r3, r1
    845c:	e5932000 	ldr	r2, [r3]
    8460:	3afffff7 	bcc	8444 <kr_free+0x14>
    8464:	e1530002 	cmp	r3, r2
    8468:	3afffff9 	bcc	8454 <kr_free+0x24>
    846c:	e1510002 	cmp	r1, r2
    8470:	2afffff7 	bcs	8454 <kr_free+0x24>
    8474:	e510c004 	ldr	ip, [r0, #-4]
    8478:	e58e3000 	str	r3, [lr]
    847c:	e081418c 	add	r4, r1, ip, lsl #3
    8480:	e1520004 	cmp	r2, r4
    8484:	08920014 	ldmeq	r2, {r2, r4}
    8488:	008cc004 	addeq	ip, ip, r4
    848c:	0500c004 	streq	ip, [r0, #-4]
    8490:	e5934004 	ldr	r4, [r3, #4]
    8494:	e5002008 	str	r2, [r0, #-8]
    8498:	e0830184 	add	r0, r3, r4, lsl #3
    849c:	e1510000 	cmp	r1, r0
    84a0:	01a01002 	moveq	r1, r2
    84a4:	0084c00c 	addeq	ip, r4, ip
    84a8:	0583c004 	streq	ip, [r3, #4]
    84ac:	e5831000 	str	r1, [r3]
    84b0:	e8bd8010 	pop	{r4, pc}
    84b4:	0000a9c8 	andeq	sl, r0, r8, asr #19

000084b8 <kr_malloc>:
    84b8:	e92d41f0 	push	{r4, r5, r6, r7, r8, lr}
    84bc:	e59f50ec 	ldr	r5, [pc, #236]	; 85b0 <kr_malloc+0xf8>
    84c0:	e2804007 	add	r4, r0, #7, 0
    84c4:	e5951000 	ldr	r1, [r5]
    84c8:	e1a041a4 	lsr	r4, r4, #3
    84cc:	e3510000 	cmp	r1, #0, 0
    84d0:	e2844001 	add	r4, r4, #1, 0
    84d4:	0a00002c 	beq	858c <kr_malloc+0xd4>
    84d8:	e5910000 	ldr	r0, [r1]
    84dc:	e5902004 	ldr	r2, [r0, #4]
    84e0:	e1520004 	cmp	r2, r4
    84e4:	2a00002f 	bcs	85a8 <kr_malloc+0xf0>
    84e8:	e3a07902 	mov	r7, #32768	; 0x8000
    84ec:	e59f60c0 	ldr	r6, [pc, #192]	; 85b4 <kr_malloc+0xfc>
    84f0:	ea000003 	b	8504 <kr_malloc+0x4c>
    84f4:	e5930000 	ldr	r0, [r3]
    84f8:	e5902004 	ldr	r2, [r0, #4]
    84fc:	e1520004 	cmp	r2, r4
    8500:	2a000015 	bcs	855c <kr_malloc+0xa4>
    8504:	e1510000 	cmp	r1, r0
    8508:	11a03000 	movne	r3, r0
    850c:	1afffff8 	bne	84f4 <kr_malloc+0x3c>
    8510:	e3a01902 	mov	r1, #32768	; 0x8000
    8514:	e1a00006 	mov	r0, r6
    8518:	eb0001a7 	bl	8bbc <printk>
    851c:	e3a00701 	mov	r0, #262144	; 0x40000
    8520:	eb0000ec 	bl	88d8 <sbrk>
    8524:	e1a03000 	mov	r3, r0
    8528:	e3730001 	cmn	r3, #1, 0
    852c:	e2800008 	add	r0, r0, #8, 0
    8530:	0a000013 	beq	8584 <kr_malloc+0xcc>
    8534:	e5837004 	str	r7, [r3, #4]
    8538:	ebffffbc 	bl	8430 <kr_free>
    853c:	e5953000 	ldr	r3, [r5]
    8540:	e3530000 	cmp	r3, #0, 0
    8544:	0a00000e 	beq	8584 <kr_malloc+0xcc>
    8548:	e5930000 	ldr	r0, [r3]
    854c:	e1a01003 	mov	r1, r3
    8550:	e5902004 	ldr	r2, [r0, #4]
    8554:	e1520004 	cmp	r2, r4
    8558:	3affffe9 	bcc	8504 <kr_malloc+0x4c>
    855c:	e1520004 	cmp	r2, r4
    8560:	05902000 	ldreq	r2, [r0]
    8564:	10422004 	subne	r2, r2, r4
    8568:	15802004 	strne	r2, [r0, #4]
    856c:	10800182 	addne	r0, r0, r2, lsl #3
    8570:	15804004 	strne	r4, [r0, #4]
    8574:	05832000 	streq	r2, [r3]
    8578:	e5853000 	str	r3, [r5]
    857c:	e2800008 	add	r0, r0, #8, 0
    8580:	e8bd81f0 	pop	{r4, r5, r6, r7, r8, pc}
    8584:	e3a00000 	mov	r0, #0, 0
    8588:	e8bd81f0 	pop	{r4, r5, r6, r7, r8, pc}
    858c:	e2853008 	add	r3, r5, #8, 0
    8590:	e585100c 	str	r1, [r5, #12]
    8594:	e1a00003 	mov	r0, r3
    8598:	e1a01003 	mov	r1, r3
    859c:	e5853000 	str	r3, [r5]
    85a0:	e5853008 	str	r3, [r5, #8]
    85a4:	eaffffcf 	b	84e8 <kr_malloc+0x30>
    85a8:	e1a03001 	mov	r3, r1
    85ac:	eaffffea 	b	855c <kr_malloc+0xa4>
    85b0:	0000a9c8 	andeq	sl, r0, r8, asr #19
    85b4:	0000a2b4 			; <UNDEFINED> instruction: 0x0000a2b4

000085b8 <mark>:
    85b8:	e92d4ff0 	push	{r4, r5, r6, r7, r8, r9, sl, fp, lr}
    85bc:	e1500001 	cmp	r0, r1
    85c0:	23a03052 	movcs	r3, #82, 0	; 0x52
    85c4:	259f2120 	ldrcs	r2, [pc, #288]	; 86ec <mark+0x134>
    85c8:	e24dd00c 	sub	sp, sp, #12, 0
    85cc:	2a000040 	bcs	86d4 <mark+0x11c>
    85d0:	e3100003 	tst	r0, #3, 0
    85d4:	e1a04000 	mov	r4, r0
    85d8:	1a00003b 	bne	86cc <mark+0x114>
    85dc:	e3110003 	tst	r1, #3, 0
    85e0:	13a03056 	movne	r3, #86, 0	; 0x56
    85e4:	159f2104 	ldrne	r2, [pc, #260]	; 86f0 <mark+0x138>
    85e8:	1a000039 	bne	86d4 <mark+0x11c>
    85ec:	e0411000 	sub	r1, r1, r0
    85f0:	e3c11003 	bic	r1, r1, #3, 0
    85f4:	e2805004 	add	r5, r0, #4, 0
    85f8:	e59f70f4 	ldr	r7, [pc, #244]	; 86f4 <mark+0x13c>
    85fc:	e59fa0f4 	ldr	sl, [pc, #244]	; 86f8 <mark+0x140>
    8600:	e0815005 	add	r5, r1, r5
    8604:	e5940000 	ldr	r0, [r4]
    8608:	e5973000 	ldr	r3, [r7]
    860c:	e1a08004 	mov	r8, r4
    8610:	e1500003 	cmp	r0, r3
    8614:	e2844004 	add	r4, r4, #4, 0
    8618:	3a00001a 	bcc	8688 <mark+0xd0>
    861c:	e5973004 	ldr	r3, [r7, #4]
    8620:	e1500003 	cmp	r0, r3
    8624:	2a000017 	bcs	8688 <mark+0xd0>
    8628:	ebfffeda 	bl	8198 <ck_ptr_is_alloced>
    862c:	e2506000 	subs	r6, r0, #0, 0
    8630:	0a000014 	beq	8688 <mark+0xd0>
    8634:	e1d692b4 	ldrh	r9, [r6, #36]	; 0x24
    8638:	ebfffec7 	bl	815c <ck_hdr_start>
    863c:	e286b0a8 	add	fp, r6, #168, 0	; 0xa8
    8640:	e1a01000 	mov	r1, r0
    8644:	e5143004 	ldr	r3, [r4, #-4]
    8648:	e1a02008 	mov	r2, r8
    864c:	e1a0000a 	mov	r0, sl
    8650:	e58db000 	str	fp, [sp]
    8654:	eb000158 	bl	8bbc <printk>
    8658:	e3590001 	cmp	r9, #1, 0
    865c:	8a00000d 	bhi	8698 <mark+0xe0>
    8660:	e5143004 	ldr	r3, [r4, #-4]
    8664:	e59f0090 	ldr	r0, [pc, #144]	; 86fc <mark+0x144>
    8668:	e15b0003 	cmp	fp, r3
    866c:	03a03002 	moveq	r3, #2, 0
    8670:	13a03001 	movne	r3, #1, 0
    8674:	e1a01003 	mov	r1, r3
    8678:	e1c632b4 	strh	r3, [r6, #36]	; 0x24
    867c:	eb00014e 	bl	8bbc <printk>
    8680:	e3590000 	cmp	r9, #0, 0
    8684:	0a000008 	beq	86ac <mark+0xf4>
    8688:	e1550004 	cmp	r5, r4
    868c:	1affffdc 	bne	8604 <mark+0x4c>
    8690:	e28dd00c 	add	sp, sp, #12, 0
    8694:	e8bd8ff0 	pop	{r4, r5, r6, r7, r8, r9, sl, fp, pc}
    8698:	e59f0060 	ldr	r0, [pc, #96]	; 8700 <mark+0x148>
    869c:	eb000146 	bl	8bbc <printk>
    86a0:	e1550004 	cmp	r5, r4
    86a4:	1affffd6 	bne	8604 <mark+0x4c>
    86a8:	eafffff8 	b	8690 <mark+0xd8>
    86ac:	e5961004 	ldr	r1, [r6, #4]
    86b0:	e2860004 	add	r0, r6, #4, 0
    86b4:	e28110a8 	add	r1, r1, #168, 0	; 0xa8
    86b8:	e0861001 	add	r1, r6, r1
    86bc:	ebffffbd 	bl	85b8 <mark>
    86c0:	e1550004 	cmp	r5, r4
    86c4:	1affffce 	bne	8604 <mark+0x4c>
    86c8:	eafffff0 	b	8690 <mark+0xd8>
    86cc:	e3a03055 	mov	r3, #85, 0	; 0x55
    86d0:	e59f202c 	ldr	r2, [pc, #44]	; 8704 <mark+0x14c>
    86d4:	e59f102c 	ldr	r1, [pc, #44]	; 8708 <mark+0x150>
    86d8:	e58d2000 	str	r2, [sp]
    86dc:	e59f0028 	ldr	r0, [pc, #40]	; 870c <mark+0x154>
    86e0:	e59f2028 	ldr	r2, [pc, #40]	; 8710 <mark+0x158>
    86e4:	eb000134 	bl	8bbc <printk>
    86e8:	eb0003c4 	bl	9600 <clean_reboot>
    86ec:	0000a2e0 	andeq	sl, r0, r0, ror #5
    86f0:	0000a2f8 	strdeq	sl, [r0], -r8
    86f4:	0000a9d8 	ldrdeq	sl, [r0], -r8
    86f8:	0000a308 	andeq	sl, r0, r8, lsl #6
    86fc:	0000a334 	andeq	sl, r0, r4, lsr r3
    8700:	0000a344 	andeq	sl, r0, r4, asr #6
    8704:	0000a2e8 	andeq	sl, r0, r8, ror #5
    8708:	0000a2d8 	ldrdeq	sl, [r0], -r8
    870c:	0000a138 	andeq	sl, r0, r8, lsr r1
    8710:	0000a5f0 	strdeq	sl, [r0], -r0

00008714 <mark_all>:
    8714:	e92d4010 	push	{r4, lr}
    8718:	e24dd040 	sub	sp, sp, #64, 0	; 0x40
    871c:	ebfffe87 	bl	8140 <ck_first_hdr>
    8720:	e3500000 	cmp	r0, #0, 0
    8724:	0a000006 	beq	8744 <mark_all+0x30>
    8728:	e3a04000 	mov	r4, #0, 0
    872c:	e5804020 	str	r4, [r0, #32]
    8730:	e580401c 	str	r4, [r0, #28]
    8734:	e1c042b4 	strh	r4, [r0, #36]	; 0x24
    8738:	ebfffe84 	bl	8150 <ck_next_hdr>
    873c:	e3500000 	cmp	r0, #0, 0
    8740:	1afffff9 	bne	872c <mark_all+0x18>
    8744:	e1a0000d 	mov	r0, sp
    8748:	eb0000fb 	bl	8b3c <dump_regs>
    874c:	e3a03000 	mov	r3, #0, 0
    8750:	e3a02000 	mov	r2, #0, 0
    8754:	e1a0000d 	mov	r0, sp
    8758:	e28d1038 	add	r1, sp, #56, 0	; 0x38
    875c:	e1cd20f0 	strd	r2, [sp]
    8760:	e1cd20f8 	strd	r2, [sp, #8]
    8764:	ebffff93 	bl	85b8 <mark>
    8768:	e3a02302 	mov	r2, #134217728	; 0x8000000
    876c:	e59d1034 	ldr	r1, [sp, #52]	; 0x34
    8770:	e59f002c 	ldr	r0, [pc, #44]	; 87a4 <mark_all+0x90>
    8774:	eb000110 	bl	8bbc <printk>
    8778:	e59d0034 	ldr	r0, [sp, #52]	; 0x34
    877c:	e3a01302 	mov	r1, #134217728	; 0x8000000
    8780:	ebffff8c 	bl	85b8 <mark>
    8784:	e59f101c 	ldr	r1, [pc, #28]	; 87a8 <mark_all+0x94>
    8788:	e59f001c 	ldr	r0, [pc, #28]	; 87ac <mark_all+0x98>
    878c:	ebffff89 	bl	85b8 <mark>
    8790:	e59f1018 	ldr	r1, [pc, #24]	; 87b0 <mark_all+0x9c>
    8794:	e59f0018 	ldr	r0, [pc, #24]	; 87b4 <mark_all+0xa0>
    8798:	ebffff86 	bl	85b8 <mark>
    879c:	e28dd040 	add	sp, sp, #64, 0	; 0x40
    87a0:	e8bd8010 	pop	{r4, pc}
    87a4:	0000a354 	andeq	sl, r0, r4, asr r3
    87a8:	0000ade8 	andeq	sl, r0, r8, ror #27
    87ac:	0000a9c0 	andeq	sl, r0, r0, asr #19
    87b0:	0000a9c0 	andeq	sl, r0, r0, asr #19
    87b4:	0000a9ac 	andeq	sl, r0, ip, lsr #19

000087b8 <sweep_leak>:
    87b8:	e92d47f0 	push	{r4, r5, r6, r7, r8, r9, sl, lr}
    87bc:	e1a08000 	mov	r8, r0
    87c0:	e59f00f0 	ldr	r0, [pc, #240]	; 88b8 <sweep_leak+0x100>
    87c4:	eb0000fc 	bl	8bbc <printk>
    87c8:	e59f00ec 	ldr	r0, [pc, #236]	; 88bc <sweep_leak+0x104>
    87cc:	eb0000fa 	bl	8bbc <printk>
    87d0:	ebffffcf 	bl	8714 <mark_all>
    87d4:	ebfffe59 	bl	8140 <ck_first_hdr>
    87d8:	e2504000 	subs	r4, r0, #0, 0
    87dc:	0a00002d 	beq	8898 <sweep_leak+0xe0>
    87e0:	e3a07000 	mov	r7, #0, 0
    87e4:	e59fa0d4 	ldr	sl, [pc, #212]	; 88c0 <sweep_leak+0x108>
    87e8:	e1a06007 	mov	r6, r7
    87ec:	e1a05007 	mov	r5, r7
    87f0:	e59f90cc 	ldr	r9, [pc, #204]	; 88c4 <sweep_leak+0x10c>
    87f4:	ea000005 	b	8810 <sweep_leak+0x58>
    87f8:	e3530001 	cmp	r3, #1, 0
    87fc:	0a00001f 	beq	8880 <sweep_leak+0xc8>
    8800:	e1a00004 	mov	r0, r4
    8804:	ebfffe51 	bl	8150 <ck_next_hdr>
    8808:	e2504000 	subs	r4, r0, #0, 0
    880c:	0a00000c 	beq	8844 <sweep_leak+0x8c>
    8810:	e1d432b4 	ldrh	r3, [r4, #36]	; 0x24
    8814:	e2855001 	add	r5, r5, #1, 0
    8818:	e3530000 	cmp	r3, #0, 0
    881c:	1afffff5 	bne	87f8 <sweep_leak+0x40>
    8820:	e1a02004 	mov	r2, r4
    8824:	e1a01005 	mov	r1, r5
    8828:	e1a00009 	mov	r0, r9
    882c:	eb0000e2 	bl	8bbc <printk>
    8830:	e1a00004 	mov	r0, r4
    8834:	ebfffe45 	bl	8150 <ck_next_hdr>
    8838:	e2504000 	subs	r4, r0, #0, 0
    883c:	e2866001 	add	r6, r6, #1, 0
    8840:	1afffff2 	bne	8810 <sweep_leak+0x58>
    8844:	e1a01005 	mov	r1, r5
    8848:	e59f0078 	ldr	r0, [pc, #120]	; 88c8 <sweep_leak+0x110>
    884c:	eb0000da 	bl	8bbc <printk>
    8850:	e1963007 	orrs	r3, r6, r7
    8854:	0a000012 	beq	88a4 <sweep_leak+0xec>
    8858:	e1a02007 	mov	r2, r7
    885c:	e1a01006 	mov	r1, r6
    8860:	e59f0064 	ldr	r0, [pc, #100]	; 88cc <sweep_leak+0x114>
    8864:	eb0000d4 	bl	8bbc <printk>
    8868:	e59f0060 	ldr	r0, [pc, #96]	; 88d0 <sweep_leak+0x118>
    886c:	eb0000d2 	bl	8bbc <printk>
    8870:	e3580000 	cmp	r8, #0, 0
    8874:	10866007 	addne	r6, r6, r7
    8878:	e1a00006 	mov	r0, r6
    887c:	e8bd87f0 	pop	{r4, r5, r6, r7, r8, r9, sl, pc}
    8880:	e1a02004 	mov	r2, r4
    8884:	e1a01005 	mov	r1, r5
    8888:	e1a0000a 	mov	r0, sl
    888c:	e2877001 	add	r7, r7, #1, 0
    8890:	eb0000c9 	bl	8bbc <printk>
    8894:	eaffffd9 	b	8800 <sweep_leak+0x48>
    8898:	e1a01004 	mov	r1, r4
    889c:	e59f0024 	ldr	r0, [pc, #36]	; 88c8 <sweep_leak+0x110>
    88a0:	eb0000c5 	bl	8bbc <printk>
    88a4:	e3a07000 	mov	r7, #0, 0
    88a8:	e59f0024 	ldr	r0, [pc, #36]	; 88d4 <sweep_leak+0x11c>
    88ac:	e1a06007 	mov	r6, r7
    88b0:	eb0000c1 	bl	8bbc <printk>
    88b4:	eaffffeb 	b	8868 <sweep_leak+0xb0>
    88b8:	0000a370 	andeq	sl, r0, r0, ror r3
    88bc:	0000a3ac 	andeq	sl, r0, ip, lsr #7
    88c0:	0000a3d8 	ldrdeq	sl, [r0], -r8
    88c4:	0000a3c4 	andeq	sl, r0, r4, asr #7
    88c8:	0000a3f0 	strdeq	sl, [r0], -r0
    88cc:	0000a438 	andeq	sl, r0, r8, lsr r4
    88d0:	0000a468 	andeq	sl, r0, r8, ror #8
    88d4:	0000a410 	andeq	sl, r0, r0, lsl r4

000088d8 <sbrk>:
    88d8:	e92d4030 	push	{r4, r5, lr}
    88dc:	e2504000 	subs	r4, r0, #0, 0
    88e0:	e24dd00c 	sub	sp, sp, #12, 0
    88e4:	da00000e 	ble	8924 <sbrk+0x4c>
    88e8:	e59f506c 	ldr	r5, [pc, #108]	; 895c <sbrk+0x84>
    88ec:	e5953008 	ldr	r3, [r5, #8]
    88f0:	e3530000 	cmp	r3, #0, 0
    88f4:	1a000012 	bne	8944 <sbrk+0x6c>
    88f8:	e3a01601 	mov	r1, #1048576	; 0x100000
    88fc:	e3a03602 	mov	r3, #2097152	; 0x200000
    8900:	e1a00001 	mov	r0, r1
    8904:	e885000a 	stm	r5, {r1, r3}
    8908:	eb000478 	bl	9af0 <kmalloc_init_set_start>
    890c:	e3a03001 	mov	r3, #1, 0
    8910:	e1a00004 	mov	r0, r4
    8914:	e5853008 	str	r3, [r5, #8]
    8918:	e28dd00c 	add	sp, sp, #12, 0
    891c:	e8bd4030 	pop	{r4, r5, lr}
    8920:	ea0004d5 	b	9c7c <kmalloc>
    8924:	e59f2034 	ldr	r2, [pc, #52]	; 8960 <sbrk+0x88>
    8928:	e3a03017 	mov	r3, #23, 0
    892c:	e59f1030 	ldr	r1, [pc, #48]	; 8964 <sbrk+0x8c>
    8930:	e58d2000 	str	r2, [sp]
    8934:	e59f002c 	ldr	r0, [pc, #44]	; 8968 <sbrk+0x90>
    8938:	e59f202c 	ldr	r2, [pc, #44]	; 896c <sbrk+0x94>
    893c:	eb00009e 	bl	8bbc <printk>
    8940:	eb00032e 	bl	9600 <clean_reboot>
    8944:	e3a03019 	mov	r3, #25, 0
    8948:	e59f201c 	ldr	r2, [pc, #28]	; 896c <sbrk+0x94>
    894c:	e59f1010 	ldr	r1, [pc, #16]	; 8964 <sbrk+0x8c>
    8950:	e59f0018 	ldr	r0, [pc, #24]	; 8970 <sbrk+0x98>
    8954:	eb000098 	bl	8bbc <printk>
    8958:	eb000328 	bl	9600 <clean_reboot>
    895c:	0000a9d8 	ldrdeq	sl, [r0], -r8
    8960:	0000a4a4 	andeq	sl, r0, r4, lsr #9
    8964:	0000a2d8 	ldrdeq	sl, [r0], -r8
    8968:	0000a138 	andeq	sl, r0, r8, lsr r1
    896c:	0000a5f8 	strdeq	sl, [r0], -r8
    8970:	0000a4b4 			; <UNDEFINED> instruction: 0x0000a4b4

00008974 <ck_find_leaks>:
    8974:	eaffff8f 	b	87b8 <sweep_leak>

00008978 <check_no_leak>:
    8978:	e92d4010 	push	{r4, lr}
    897c:	e3a00001 	mov	r0, #1, 0
    8980:	ebffff8c 	bl	87b8 <sweep_leak>
    8984:	e3500000 	cmp	r0, #0, 0
    8988:	1a000002 	bne	8998 <check_no_leak+0x20>
    898c:	e59f001c 	ldr	r0, [pc, #28]	; 89b0 <check_no_leak+0x38>
    8990:	eb000089 	bl	8bbc <printk>
    8994:	e8bd8010 	pop	{r4, pc}
    8998:	e3a030dc 	mov	r3, #220, 0	; 0xdc
    899c:	e59f2010 	ldr	r2, [pc, #16]	; 89b4 <check_no_leak+0x3c>
    89a0:	e59f1010 	ldr	r1, [pc, #16]	; 89b8 <check_no_leak+0x40>
    89a4:	e59f0010 	ldr	r0, [pc, #16]	; 89bc <check_no_leak+0x44>
    89a8:	eb000083 	bl	8bbc <printk>
    89ac:	eb000313 	bl	9600 <clean_reboot>
    89b0:	0000a500 	andeq	sl, r0, r0, lsl #10
    89b4:	0000a600 	andeq	sl, r0, r0, lsl #12
    89b8:	0000a2d8 	ldrdeq	sl, [r0], -r8
    89bc:	0000a4d4 	ldrdeq	sl, [r0], -r4

000089c0 <check_should_leak>:
    89c0:	e92d4010 	push	{r4, lr}
    89c4:	e3a00001 	mov	r0, #1, 0
    89c8:	ebffff7a 	bl	87b8 <sweep_leak>
    89cc:	e2504000 	subs	r4, r0, #0, 0
    89d0:	0a000004 	beq	89e8 <check_should_leak+0x28>
    89d4:	e1a01004 	mov	r1, r4
    89d8:	e59f0020 	ldr	r0, [pc, #32]	; 8a00 <check_should_leak+0x40>
    89dc:	eb000076 	bl	8bbc <printk>
    89e0:	e1a00004 	mov	r0, r4
    89e4:	e8bd8010 	pop	{r4, pc}
    89e8:	e3a030eb 	mov	r3, #235, 0	; 0xeb
    89ec:	e59f2010 	ldr	r2, [pc, #16]	; 8a04 <check_should_leak+0x44>
    89f0:	e59f1010 	ldr	r1, [pc, #16]	; 8a08 <check_should_leak+0x48>
    89f4:	e59f0010 	ldr	r0, [pc, #16]	; 8a0c <check_should_leak+0x4c>
    89f8:	eb00006f 	bl	8bbc <printk>
    89fc:	eb0002ff 	bl	9600 <clean_reboot>
    8a00:	0000a548 	andeq	sl, r0, r8, asr #10
    8a04:	0000a610 	andeq	sl, r0, r0, lsl r6
    8a08:	0000a2d8 	ldrdeq	sl, [r0], -r8
    8a0c:	0000a520 	andeq	sl, r0, r0, lsr #10

00008a10 <ck_gc>:
    8a10:	e92d4ff0 	push	{r4, r5, r6, r7, r8, r9, sl, fp, lr}
    8a14:	e24dd014 	sub	sp, sp, #20, 0
    8a18:	ebffff3d 	bl	8714 <mark_all>
    8a1c:	e59f00d0 	ldr	r0, [pc, #208]	; 8af4 <ck_gc+0xe4>
    8a20:	eb000065 	bl	8bbc <printk>
    8a24:	e59f00cc 	ldr	r0, [pc, #204]	; 8af8 <ck_gc+0xe8>
    8a28:	eb000063 	bl	8bbc <printk>
    8a2c:	ebffff38 	bl	8714 <mark_all>
    8a30:	ebfffdc2 	bl	8140 <ck_first_hdr>
    8a34:	e2504000 	subs	r4, r0, #0, 0
    8a38:	0a000029 	beq	8ae4 <ck_gc+0xd4>
    8a3c:	e3a05000 	mov	r5, #0, 0
    8a40:	e1a07005 	mov	r7, r5
    8a44:	e1a06005 	mov	r6, r5
    8a48:	e59fa0ac 	ldr	sl, [pc, #172]	; 8afc <ck_gc+0xec>
    8a4c:	e59f90ac 	ldr	r9, [pc, #172]	; 8b00 <ck_gc+0xf0>
    8a50:	e59f80ac 	ldr	r8, [pc, #172]	; 8b04 <ck_gc+0xf4>
    8a54:	e1d432b4 	ldrh	r3, [r4, #36]	; 0x24
    8a58:	e2866001 	add	r6, r6, #1, 0
    8a5c:	e3530000 	cmp	r3, #0, 0
    8a60:	0a00000b 	beq	8a94 <ck_gc+0x84>
    8a64:	e1a00004 	mov	r0, r4
    8a68:	ebfffdb8 	bl	8150 <ck_next_hdr>
    8a6c:	e2504000 	subs	r4, r0, #0, 0
    8a70:	1afffff7 	bne	8a54 <ck_gc+0x44>
    8a74:	e1a02007 	mov	r2, r7
    8a78:	e1a01006 	mov	r1, r6
    8a7c:	e1a03005 	mov	r3, r5
    8a80:	e59f0080 	ldr	r0, [pc, #128]	; 8b08 <ck_gc+0xf8>
    8a84:	eb00004c 	bl	8bbc <printk>
    8a88:	e1a00005 	mov	r0, r5
    8a8c:	e28dd014 	add	sp, sp, #20, 0
    8a90:	e8bd8ff0 	pop	{r4, r5, r6, r7, r8, r9, sl, fp, pc}
    8a94:	e59f3070 	ldr	r3, [pc, #112]	; 8b0c <ck_gc+0xfc>
    8a98:	e594c004 	ldr	ip, [r4, #4]
    8a9c:	e58d300c 	str	r3, [sp, #12]
    8aa0:	e284b0a8 	add	fp, r4, #168, 0	; 0xa8
    8aa4:	e58da004 	str	sl, [sp, #4]
    8aa8:	e58d9008 	str	r9, [sp, #8]
    8aac:	e28d3010 	add	r3, sp, #16, 0
    8ab0:	e913000e 	ldmdb	r3, {r1, r2, r3}
    8ab4:	e1a0000b 	mov	r0, fp
    8ab8:	e085500c 	add	r5, r5, ip
    8abc:	ebfffdd3 	bl	8210 <ckfree>
    8ac0:	e1a0100b 	mov	r1, fp
    8ac4:	e1a00008 	mov	r0, r8
    8ac8:	eb00003b 	bl	8bbc <printk>
    8acc:	e1a00004 	mov	r0, r4
    8ad0:	ebfffd9e 	bl	8150 <ck_next_hdr>
    8ad4:	e2504000 	subs	r4, r0, #0, 0
    8ad8:	e2877001 	add	r7, r7, #1, 0
    8adc:	1affffdc 	bne	8a54 <ck_gc+0x44>
    8ae0:	eaffffe3 	b	8a74 <ck_gc+0x64>
    8ae4:	e1a05004 	mov	r5, r4
    8ae8:	e1a07004 	mov	r7, r4
    8aec:	e1a06004 	mov	r6, r4
    8af0:	eaffffdf 	b	8a74 <ck_gc+0x64>
    8af4:	0000a370 	andeq	sl, r0, r0, ror r3
    8af8:	0000a56c 	andeq	sl, r0, ip, ror #10
    8afc:	0000a2d8 	ldrdeq	sl, [r0], -r8
    8b00:	0000a624 	andeq	sl, r0, r4, lsr #12
    8b04:	0000a57c 	andeq	sl, r0, ip, ror r5
    8b08:	0000a58c 	andeq	sl, r0, ip, lsl #11
    8b0c:	00000101 	andeq	r0, r0, r1, lsl #2

00008b10 <implement_this>:
    8b10:	e92d4010 	push	{r4, lr}
    8b14:	e59f3010 	ldr	r3, [pc, #16]	; 8b2c <implement_this+0x1c>
    8b18:	e59f2010 	ldr	r2, [pc, #16]	; 8b30 <implement_this+0x20>
    8b1c:	e59f1010 	ldr	r1, [pc, #16]	; 8b34 <implement_this+0x24>
    8b20:	e59f0010 	ldr	r0, [pc, #16]	; 8b38 <implement_this+0x28>
    8b24:	eb000024 	bl	8bbc <printk>
    8b28:	eb0002b4 	bl	9600 <clean_reboot>
    8b2c:	00000117 	andeq	r0, r0, r7, lsl r1
    8b30:	0000a630 	andeq	sl, r0, r0, lsr r6
    8b34:	0000a2d8 	ldrdeq	sl, [r0], -r8
    8b38:	0000a5c0 	andeq	sl, r0, r0, asr #11

00008b3c <dump_regs>:
    8b3c:	e8a0ffff 	stmia	r0!, {r0, r1, r2, r3, r4, r5, r6, r7, r8, r9, sl, fp, ip, sp, lr, pc}
    8b40:	e12fff1e 	bx	lr

00008b44 <memset>:
    8b44:	e92d4010 	push	{r4, lr}
    8b48:	e0804002 	add	r4, r0, r2
    8b4c:	e1500004 	cmp	r0, r4
    8b50:	28bd8010 	popcs	{r4, pc}
    8b54:	e2423001 	sub	r3, r2, #1, 0
    8b58:	e3530002 	cmp	r3, #2, 0
    8b5c:	e6ef1071 	uxtb	r1, r1
    8b60:	e1a03000 	mov	r3, r0
    8b64:	9a00000b 	bls	8b98 <memset+0x54>
    8b68:	e181e401 	orr	lr, r1, r1, lsl #8
    8b6c:	e18ee801 	orr	lr, lr, r1, lsl #16
    8b70:	e3c2c003 	bic	ip, r2, #3, 0
    8b74:	e18eec01 	orr	lr, lr, r1, lsl #24
    8b78:	e08cc000 	add	ip, ip, r0
    8b7c:	e483e004 	str	lr, [r3], #4
    8b80:	e153000c 	cmp	r3, ip
    8b84:	1afffffc 	bne	8b7c <memset+0x38>
    8b88:	e3c23003 	bic	r3, r2, #3, 0
    8b8c:	e1520003 	cmp	r2, r3
    8b90:	e0803003 	add	r3, r0, r3
    8b94:	08bd8010 	popeq	{r4, pc}
    8b98:	e1a02003 	mov	r2, r3
    8b9c:	e4c21001 	strb	r1, [r2], #1
    8ba0:	e1540002 	cmp	r4, r2
    8ba4:	98bd8010 	popls	{r4, pc}
    8ba8:	e2832002 	add	r2, r3, #2, 0
    8bac:	e1540002 	cmp	r4, r2
    8bb0:	e5c31001 	strb	r1, [r3, #1]
    8bb4:	85c31002 	strbhi	r1, [r3, #2]
    8bb8:	e8bd8010 	pop	{r4, pc}

00008bbc <printk>:
    8bbc:	e92d000f 	push	{r0, r1, r2, r3}
    8bc0:	e92d4030 	push	{r4, r5, lr}
    8bc4:	e59f5040 	ldr	r5, [pc, #64]	; 8c0c <printk+0x50>
    8bc8:	e24dd00c 	sub	sp, sp, #12, 0
    8bcc:	e28d301c 	add	r3, sp, #28, 0
    8bd0:	e3a01b01 	mov	r1, #1024	; 0x400
    8bd4:	e59d2018 	ldr	r2, [sp, #24]
    8bd8:	e1a00005 	mov	r0, r5
    8bdc:	e58d3004 	str	r3, [sp, #4]
    8be0:	eb0000fb 	bl	8fd4 <va_printk>
    8be4:	e1a04000 	mov	r4, r0
    8be8:	e59f3020 	ldr	r3, [pc, #32]	; 8c10 <printk+0x54>
    8bec:	e1a00005 	mov	r0, r5
    8bf0:	e5933000 	ldr	r3, [r3]
    8bf4:	e12fff33 	blx	r3
    8bf8:	e1a00004 	mov	r0, r4
    8bfc:	e28dd00c 	add	sp, sp, #12, 0
    8c00:	e8bd4030 	pop	{r4, r5, lr}
    8c04:	e28dd010 	add	sp, sp, #16, 0
    8c08:	e12fff1e 	bx	lr
    8c0c:	0000a9e4 	andeq	sl, r0, r4, ror #19
    8c10:	0000a9ac 	andeq	sl, r0, ip, lsr #19

00008c14 <internal_putk>:
    8c14:	e92d4070 	push	{r4, r5, r6, lr}
    8c18:	e1a04000 	mov	r4, r0
    8c1c:	e5d00000 	ldrb	r0, [r0]
    8c20:	e3500000 	cmp	r0, #0, 0
    8c24:	0a000005 	beq	8c40 <internal_putk+0x2c>
    8c28:	e59f5018 	ldr	r5, [pc, #24]	; 8c48 <internal_putk+0x34>
    8c2c:	e5953000 	ldr	r3, [r5]
    8c30:	e12fff33 	blx	r3
    8c34:	e5f40001 	ldrb	r0, [r4, #1]!
    8c38:	e3500000 	cmp	r0, #0, 0
    8c3c:	1afffffa 	bne	8c2c <internal_putk+0x18>
    8c40:	e3a00001 	mov	r0, #1, 0
    8c44:	e8bd8070 	pop	{r4, r5, r6, pc}
    8c48:	0000a9bc 			; <UNDEFINED> instruction: 0x0000a9bc

00008c4c <emit.constprop.0>:
    8c4c:	e92d41f0 	push	{r4, r5, r6, r7, r8, lr}
    8c50:	e3530080 	cmp	r3, #128, 0	; 0x80
    8c54:	e1a0c000 	mov	ip, r0
    8c58:	e24dd048 	sub	sp, sp, #72, 0	; 0x48
    8c5c:	e1a00001 	mov	r0, r1
    8c60:	ca000069 	bgt	8e0c <emit.constprop.0+0x1c0>
    8c64:	e24c1002 	sub	r1, ip, #2, 0
    8c68:	e1a0c002 	mov	ip, r2
    8c6c:	e351000e 	cmp	r1, #14, 0
    8c70:	979ff101 	ldrls	pc, [pc, r1, lsl #2]
    8c74:	ea0000a7 	b	8f18 <emit.constprop.0+0x2cc>
    8c78:	00008de4 	andeq	r8, r0, r4, ror #27
    8c7c:	00008f18 	andeq	r8, r0, r8, lsl pc
    8c80:	00008f18 	andeq	r8, r0, r8, lsl pc
    8c84:	00008f18 	andeq	r8, r0, r8, lsl pc
    8c88:	00008f18 	andeq	r8, r0, r8, lsl pc
    8c8c:	00008f18 	andeq	r8, r0, r8, lsl pc
    8c90:	00008ec0 	andeq	r8, r0, r0, asr #29
    8c94:	00008f18 	andeq	r8, r0, r8, lsl pc
    8c98:	00008e60 	andeq	r8, r0, r0, ror #28
    8c9c:	00008f18 	andeq	r8, r0, r8, lsl pc
    8ca0:	00008f18 	andeq	r8, r0, r8, lsl pc
    8ca4:	00008f18 	andeq	r8, r0, r8, lsl pc
    8ca8:	00008f18 	andeq	r8, r0, r8, lsl pc
    8cac:	00008f18 	andeq	r8, r0, r8, lsl pc
    8cb0:	00008cb8 			; <UNDEFINED> instruction: 0x00008cb8
    8cb4:	e3a0307f 	mov	r3, #127, 0	; 0x7f
    8cb8:	e28d2008 	add	r2, sp, #8, 0
    8cbc:	e1a04002 	mov	r4, r2
    8cc0:	e59f1288 	ldr	r1, [pc, #648]	; 8f50 <emit.constprop.0+0x304>
    8cc4:	e20ce00f 	and	lr, ip, #15, 0
    8cc8:	e7d1e00e 	ldrb	lr, [r1, lr]
    8ccc:	e35c000f 	cmp	ip, #15, 0
    8cd0:	e4c4e001 	strb	lr, [r4], #1
    8cd4:	e1a0c22c 	lsr	ip, ip, #4
    8cd8:	8afffff9 	bhi	8cc4 <emit.constprop.0+0x78>
    8cdc:	e3a0c078 	mov	ip, #120, 0	; 0x78
    8ce0:	e1a0e004 	mov	lr, r4
    8ce4:	e3a01030 	mov	r1, #48, 0	; 0x30
    8ce8:	e4cec002 	strb	ip, [lr], #2
    8cec:	e5c41001 	strb	r1, [r4, #1]
    8cf0:	e04e1002 	sub	r1, lr, r2
    8cf4:	e1510003 	cmp	r1, r3
    8cf8:	aa000083 	bge	8f0c <emit.constprop.0+0x2c0>
    8cfc:	e1510003 	cmp	r1, r3
    8d00:	a3a0c001 	movge	ip, #1, 0
    8d04:	b3a0c000 	movlt	ip, #0, 0
    8d08:	e2434001 	sub	r4, r3, #1, 0
    8d0c:	e0444001 	sub	r4, r4, r1
    8d10:	b0436001 	sublt	r6, r3, r1
    8d14:	a3a06001 	movge	r6, #1, 0
    8d18:	e3540002 	cmp	r4, #2, 0
    8d1c:	938cc001 	orrls	ip, ip, #1, 0
    8d20:	e35c0000 	cmp	ip, #0, 0
    8d24:	1a000075 	bne	8f00 <emit.constprop.0+0x2b4>
    8d28:	e1a0c00e 	mov	ip, lr
    8d2c:	e3c65003 	bic	r5, r6, #3, 0
    8d30:	e59f721c 	ldr	r7, [pc, #540]	; 8f54 <emit.constprop.0+0x308>
    8d34:	e085500e 	add	r5, r5, lr
    8d38:	e48c7004 	str	r7, [ip], #4
    8d3c:	e15c0005 	cmp	ip, r5
    8d40:	1afffffc 	bne	8d38 <emit.constprop.0+0xec>
    8d44:	e3c6c003 	bic	ip, r6, #3, 0
    8d48:	e156000c 	cmp	r6, ip
    8d4c:	e08e500c 	add	r5, lr, ip
    8d50:	e08cc001 	add	ip, ip, r1
    8d54:	0a000008 	beq	8d7c <emit.constprop.0+0x130>
    8d58:	e3a07020 	mov	r7, #32, 0
    8d5c:	e28c8001 	add	r8, ip, #1, 0
    8d60:	e1580003 	cmp	r8, r3
    8d64:	e5c57000 	strb	r7, [r5]
    8d68:	aa000003 	bge	8d7c <emit.constprop.0+0x130>
    8d6c:	e28cc002 	add	ip, ip, #2, 0
    8d70:	e15c0003 	cmp	ip, r3
    8d74:	e5c57001 	strb	r7, [r5, #1]
    8d78:	b5c57002 	strblt	r7, [r5, #2]
    8d7c:	e1510003 	cmp	r1, r3
    8d80:	a3a04000 	movge	r4, #0, 0
    8d84:	e08e6006 	add	r6, lr, r6
    8d88:	e0461002 	sub	r1, r6, r2
    8d8c:	e08ee004 	add	lr, lr, r4
    8d90:	e3a03000 	mov	r3, #0, 0
    8d94:	e351007f 	cmp	r1, #127, 0	; 0x7f
    8d98:	c241407f 	subgt	r4, r1, #127, 0	; 0x7f
    8d9c:	c0822004 	addgt	r2, r2, r4
    8da0:	e152000e 	cmp	r2, lr
    8da4:	e5c63000 	strb	r3, [r6]
    8da8:	8a00004f 	bhi	8eec <emit.constprop.0+0x2a0>
    8dac:	e28ee001 	add	lr, lr, #1, 0
    8db0:	e1a0300e 	mov	r3, lr
    8db4:	e240c001 	sub	ip, r0, #1, 0
    8db8:	e5734001 	ldrb	r4, [r3, #-1]!
    8dbc:	e1530002 	cmp	r3, r2
    8dc0:	e5ec4001 	strb	r4, [ip, #1]!
    8dc4:	1afffffb 	bne	8db8 <emit.constprop.0+0x16c>
    8dc8:	e04ee003 	sub	lr, lr, r3
    8dcc:	e3a03000 	mov	r3, #0, 0
    8dd0:	e080e00e 	add	lr, r0, lr
    8dd4:	e5ce3000 	strb	r3, [lr]
    8dd8:	e28dd048 	add	sp, sp, #72, 0	; 0x48
    8ddc:	e8bd81f0 	pop	{r4, r5, r6, r7, r8, pc}
    8de0:	e3a0307f 	mov	r3, #127, 0	; 0x7f
    8de4:	e28d2008 	add	r2, sp, #8, 0
    8de8:	e1a0e002 	mov	lr, r2
    8dec:	e59f1164 	ldr	r1, [pc, #356]	; 8f58 <emit.constprop.0+0x30c>
    8df0:	e20c4001 	and	r4, ip, #1, 0
    8df4:	e7d14004 	ldrb	r4, [r1, r4]
    8df8:	e35c0001 	cmp	ip, #1, 0
    8dfc:	e4ce4001 	strb	r4, [lr], #1
    8e00:	e1a0c0ac 	lsr	ip, ip, #1
    8e04:	8afffff9 	bhi	8df0 <emit.constprop.0+0x1a4>
    8e08:	eaffffb8 	b	8cf0 <emit.constprop.0+0xa4>
    8e0c:	e24c3002 	sub	r3, ip, #2, 0
    8e10:	e1a0c002 	mov	ip, r2
    8e14:	e353000e 	cmp	r3, #14, 0
    8e18:	979ff103 	ldrls	pc, [pc, r3, lsl #2]
    8e1c:	ea00003d 	b	8f18 <emit.constprop.0+0x2cc>
    8e20:	00008de0 	andeq	r8, r0, r0, ror #27
    8e24:	00008f18 	andeq	r8, r0, r8, lsl pc
    8e28:	00008f18 	andeq	r8, r0, r8, lsl pc
    8e2c:	00008f18 	andeq	r8, r0, r8, lsl pc
    8e30:	00008f18 	andeq	r8, r0, r8, lsl pc
    8e34:	00008f18 	andeq	r8, r0, r8, lsl pc
    8e38:	00008f38 	andeq	r8, r0, r8, lsr pc
    8e3c:	00008f18 	andeq	r8, r0, r8, lsl pc
    8e40:	00008e5c 	andeq	r8, r0, ip, asr lr
    8e44:	00008f18 	andeq	r8, r0, r8, lsl pc
    8e48:	00008f18 	andeq	r8, r0, r8, lsl pc
    8e4c:	00008f18 	andeq	r8, r0, r8, lsl pc
    8e50:	00008f18 	andeq	r8, r0, r8, lsl pc
    8e54:	00008f18 	andeq	r8, r0, r8, lsl pc
    8e58:	00008cb4 			; <UNDEFINED> instruction: 0x00008cb4
    8e5c:	e3a0307f 	mov	r3, #127, 0	; 0x7f
    8e60:	e59d1060 	ldr	r1, [sp, #96]	; 0x60
    8e64:	e59f70f0 	ldr	r7, [pc, #240]	; 8f5c <emit.constprop.0+0x310>
    8e68:	e0118fa2 	ands	r8, r1, r2, lsr #31
    8e6c:	1262c000 	rsbne	ip, r2, #0, 0
    8e70:	e28d2008 	add	r2, sp, #8, 0
    8e74:	13a08001 	movne	r8, #1, 0
    8e78:	e1a0e002 	mov	lr, r2
    8e7c:	e59f60dc 	ldr	r6, [pc, #220]	; 8f60 <emit.constprop.0+0x314>
    8e80:	e1a0500c 	mov	r5, ip
    8e84:	e0814c96 	umull	r4, r1, r6, ip
    8e88:	e1a011a1 	lsr	r1, r1, #3
    8e8c:	e0814101 	add	r4, r1, r1, lsl #2
    8e90:	e04cc084 	sub	ip, ip, r4, lsl #1
    8e94:	e7d7400c 	ldrb	r4, [r7, ip]
    8e98:	e3550009 	cmp	r5, #9, 0
    8e9c:	e1a0c001 	mov	ip, r1
    8ea0:	e1a0100e 	mov	r1, lr
    8ea4:	e4ce4001 	strb	r4, [lr], #1
    8ea8:	8afffff4 	bhi	8e80 <emit.constprop.0+0x234>
    8eac:	e3580000 	cmp	r8, #0, 0
    8eb0:	13a0c02d 	movne	ip, #45, 0	; 0x2d
    8eb4:	15cec000 	strbne	ip, [lr]
    8eb8:	1281e002 	addne	lr, r1, #2, 0
    8ebc:	eaffff8b 	b	8cf0 <emit.constprop.0+0xa4>
    8ec0:	e3530001 	cmp	r3, #1, 0
    8ec4:	e5cd2008 	strb	r2, [sp, #8]
    8ec8:	c3a01001 	movgt	r1, #1, 0
    8ecc:	c28de009 	addgt	lr, sp, #9, 0
    8ed0:	c28d2008 	addgt	r2, sp, #8, 0
    8ed4:	caffff88 	bgt	8cfc <emit.constprop.0+0xb0>
    8ed8:	e3a03000 	mov	r3, #0, 0
    8edc:	e28de008 	add	lr, sp, #8, 0
    8ee0:	e1a0200e 	mov	r2, lr
    8ee4:	e5cd3009 	strb	r3, [sp, #9]
    8ee8:	eaffffaf 	b	8dac <emit.constprop.0+0x160>
    8eec:	e1a0e000 	mov	lr, r0
    8ef0:	e3a03000 	mov	r3, #0, 0
    8ef4:	e5ce3000 	strb	r3, [lr]
    8ef8:	e28dd048 	add	sp, sp, #72, 0	; 0x48
    8efc:	e8bd81f0 	pop	{r4, r5, r6, r7, r8, pc}
    8f00:	e1a0c001 	mov	ip, r1
    8f04:	e1a0500e 	mov	r5, lr
    8f08:	eaffff92 	b	8d58 <emit.constprop.0+0x10c>
    8f0c:	e1a0600e 	mov	r6, lr
    8f10:	e24ee001 	sub	lr, lr, #1, 0
    8f14:	eaffff9d 	b	8d90 <emit.constprop.0+0x144>
    8f18:	e59f2044 	ldr	r2, [pc, #68]	; 8f64 <emit.constprop.0+0x318>
    8f1c:	e3a03079 	mov	r3, #121, 0	; 0x79
    8f20:	e59f1040 	ldr	r1, [pc, #64]	; 8f68 <emit.constprop.0+0x31c>
    8f24:	e58d2000 	str	r2, [sp]
    8f28:	e59f003c 	ldr	r0, [pc, #60]	; 8f6c <emit.constprop.0+0x320>
    8f2c:	e59f203c 	ldr	r2, [pc, #60]	; 8f70 <emit.constprop.0+0x324>
    8f30:	ebffff21 	bl	8bbc <printk>
    8f34:	eb0001b1 	bl	9600 <clean_reboot>
    8f38:	e5cd2008 	strb	r2, [sp, #8]
    8f3c:	e3a0307f 	mov	r3, #127, 0	; 0x7f
    8f40:	e3a01001 	mov	r1, #1, 0
    8f44:	e28de009 	add	lr, sp, #9, 0
    8f48:	e28d2008 	add	r2, sp, #8, 0
    8f4c:	eaffff6a 	b	8cfc <emit.constprop.0+0xb0>
    8f50:	0000a654 	andeq	sl, r0, r4, asr r6
    8f54:	20202020 	eorcs	r2, r0, r0, lsr #32
    8f58:	0000a668 	andeq	sl, r0, r8, ror #12
    8f5c:	0000a66c 	andeq	sl, r0, ip, ror #12
    8f60:	cccccccd 	stclgt	12, cr12, [ip], {205}	; 0xcd
    8f64:	0000a4b0 			; <UNDEFINED> instruction: 0x0000a4b0
    8f68:	0000a640 	andeq	sl, r0, r0, asr #12
    8f6c:	0000a138 	andeq	sl, r0, r8, lsr r1
    8f70:	0000a780 	andeq	sl, r0, r0, lsl #15

00008f74 <rpi_set_output>:
    8f74:	e3500000 	cmp	r0, #0, 0
    8f78:	0a000005 	beq	8f94 <rpi_set_output+0x20>
    8f7c:	e59f3038 	ldr	r3, [pc, #56]	; 8fbc <rpi_set_output+0x48>
    8f80:	e3510000 	cmp	r1, #0, 0
    8f84:	e5830000 	str	r0, [r3]
    8f88:	159f3030 	ldrne	r3, [pc, #48]	; 8fc0 <rpi_set_output+0x4c>
    8f8c:	15831000 	strne	r1, [r3]
    8f90:	e12fff1e 	bx	lr
    8f94:	e52de004 	push	{lr}		; (str lr, [sp, #-4]!)
    8f98:	e59f2024 	ldr	r2, [pc, #36]	; 8fc4 <rpi_set_output+0x50>
    8f9c:	e24dd00c 	sub	sp, sp, #12, 0
    8fa0:	e3a03020 	mov	r3, #32, 0
    8fa4:	e59f101c 	ldr	r1, [pc, #28]	; 8fc8 <rpi_set_output+0x54>
    8fa8:	e58d2000 	str	r2, [sp]
    8fac:	e59f0018 	ldr	r0, [pc, #24]	; 8fcc <rpi_set_output+0x58>
    8fb0:	e59f2018 	ldr	r2, [pc, #24]	; 8fd0 <rpi_set_output+0x5c>
    8fb4:	ebffff00 	bl	8bbc <printk>
    8fb8:	eb000190 	bl	9600 <clean_reboot>
    8fbc:	0000a9bc 			; <UNDEFINED> instruction: 0x0000a9bc
    8fc0:	0000a9ac 	andeq	sl, r0, ip, lsr #19
    8fc4:	0000a678 	andeq	sl, r0, r8, ror r6
    8fc8:	0000a640 	andeq	sl, r0, r0, asr #12
    8fcc:	0000a138 	andeq	sl, r0, r8, lsr r1
    8fd0:	0000a788 	andeq	sl, r0, r8, lsl #15

00008fd4 <va_printk>:
    8fd4:	e92d4ff0 	push	{r4, r5, r6, r7, r8, r9, sl, fp, lr}
    8fd8:	e1a0b000 	mov	fp, r0
    8fdc:	e3a00000 	mov	r0, #0, 0
    8fe0:	e5cb0000 	strb	r0, [fp]
    8fe4:	e5d2c000 	ldrb	ip, [r2]
    8fe8:	e2417001 	sub	r7, r1, #1, 0
    8fec:	e08b7007 	add	r7, fp, r7
    8ff0:	e15c0000 	cmp	ip, r0
    8ff4:	115b0007 	cmpne	fp, r7
    8ff8:	e24ddf47 	sub	sp, sp, #284	; 0x11c
    8ffc:	e58d2010 	str	r2, [sp, #16]
    9000:	2a000159 	bcs	956c <va_printk+0x598>
    9004:	e1a06002 	mov	r6, r2
    9008:	e1a08003 	mov	r8, r3
    900c:	e1a0400b 	mov	r4, fp
    9010:	e59fa5a4 	ldr	sl, [pc, #1444]	; 95bc <va_printk+0x5e8>
    9014:	e58db00c 	str	fp, [sp, #12]
    9018:	ea000005 	b	9034 <va_printk+0x60>
    901c:	e4c4c001 	strb	ip, [r4], #1
    9020:	e2866001 	add	r6, r6, #1, 0
    9024:	e5d6c000 	ldrb	ip, [r6]
    9028:	e35c0000 	cmp	ip, #0, 0
    902c:	11570004 	cmpne	r7, r4
    9030:	9a00002f 	bls	90f4 <va_printk+0x120>
    9034:	e35c0025 	cmp	ip, #37, 0	; 0x25
    9038:	1afffff7 	bne	901c <va_printk+0x48>
    903c:	e5d62001 	ldrb	r2, [r6, #1]
    9040:	e3520025 	cmp	r2, #37, 0	; 0x25
    9044:	04c4c001 	strbeq	ip, [r4], #1
    9048:	02866002 	addeq	r6, r6, #2, 0
    904c:	0afffff4 	beq	9024 <va_printk+0x50>
    9050:	e2423030 	sub	r3, r2, #48, 0	; 0x30
    9054:	e3530009 	cmp	r3, #9, 0
    9058:	e3a05000 	mov	r5, #0, 0
    905c:	e2866001 	add	r6, r6, #1, 0
    9060:	8a000008 	bhi	9088 <va_printk+0xb4>
    9064:	e0855105 	add	r5, r5, r5, lsl #2
    9068:	e0825085 	add	r5, r2, r5, lsl #1
    906c:	e5f62001 	ldrb	r2, [r6, #1]!
    9070:	e2455030 	sub	r5, r5, #48, 0	; 0x30
    9074:	e2423030 	sub	r3, r2, #48, 0	; 0x30
    9078:	e3530009 	cmp	r3, #9, 0
    907c:	9afffff8 	bls	9064 <va_printk+0x90>
    9080:	e355001f 	cmp	r5, #31, 0
    9084:	8a00013a 	bhi	9574 <va_printk+0x5a0>
    9088:	e2423062 	sub	r3, r2, #98, 0	; 0x62
    908c:	e3530016 	cmp	r3, #22, 0
    9090:	979ff103 	ldrls	pc, [pc, r3, lsl #2]
    9094:	ea00011b 	b	9508 <va_printk+0x534>
    9098:	0000934c 	andeq	r9, r0, ip, asr #6
    909c:	00009248 	andeq	r9, r0, r8, asr #4
    90a0:	00009240 	andeq	r9, r0, r0, asr #4
    90a4:	00009508 	andeq	r9, r0, r8, lsl #10
    90a8:	00009544 	andeq	r9, r0, r4, asr #10
    90ac:	00009508 	andeq	r9, r0, r8, lsl #10
    90b0:	00009508 	andeq	r9, r0, r8, lsl #10
    90b4:	00009508 	andeq	r9, r0, r8, lsl #10
    90b8:	00009508 	andeq	r9, r0, r8, lsl #10
    90bc:	00009508 	andeq	r9, r0, r8, lsl #10
    90c0:	00009150 	andeq	r9, r0, r0, asr r1
    90c4:	00009508 	andeq	r9, r0, r8, lsl #10
    90c8:	00009508 	andeq	r9, r0, r8, lsl #10
    90cc:	00009508 	andeq	r9, r0, r8, lsl #10
    90d0:	0000910c 	andeq	r9, r0, ip, lsl #2
    90d4:	00009508 	andeq	r9, r0, r8, lsl #10
    90d8:	00009508 	andeq	r9, r0, r8, lsl #10
    90dc:	00009444 	andeq	r9, r0, r4, asr #8
    90e0:	00009508 	andeq	r9, r0, r8, lsl #10
    90e4:	0000921c 	andeq	r9, r0, ip, lsl r2
    90e8:	00009508 	andeq	r9, r0, r8, lsl #10
    90ec:	00009508 	andeq	r9, r0, r8, lsl #10
    90f0:	0000910c 	andeq	r9, r0, ip, lsl #2
    90f4:	e59db00c 	ldr	fp, [sp, #12]
    90f8:	e3a03000 	mov	r3, #0, 0
    90fc:	e4c43001 	strb	r3, [r4], #1
    9100:	e044000b 	sub	r0, r4, fp
    9104:	e28ddf47 	add	sp, sp, #284	; 0x11c
    9108:	e8bd8ff0 	pop	{r4, r5, r6, r7, r8, r9, sl, fp, pc}
    910c:	e3a01000 	mov	r1, #0, 0
    9110:	e1a03005 	mov	r3, r5
    9114:	e4982004 	ldr	r2, [r8], #4
    9118:	e3a00010 	mov	r0, #16, 0
    911c:	e58d1000 	str	r1, [sp]
    9120:	e28d1018 	add	r1, sp, #24, 0
    9124:	ebfffec8 	bl	8c4c <emit.constprop.0>
    9128:	e1a05000 	mov	r5, r0
    912c:	e2866001 	add	r6, r6, #1, 0
    9130:	e2455001 	sub	r5, r5, #1, 0
    9134:	e5f53001 	ldrb	r3, [r5, #1]!
    9138:	e3530000 	cmp	r3, #0, 0
    913c:	0affffb8 	beq	9024 <va_printk+0x50>
    9140:	e4c43001 	strb	r3, [r4], #1
    9144:	e1570004 	cmp	r7, r4
    9148:	8afffff9 	bhi	9134 <va_printk+0x160>
    914c:	eaffffb4 	b	9024 <va_printk+0x50>
    9150:	e3a02003 	mov	r2, #3, 0
    9154:	e1a00006 	mov	r0, r6
    9158:	e59f1460 	ldr	r1, [pc, #1120]	; 95c0 <va_printk+0x5ec>
    915c:	eb0003da 	bl	a0cc <strncmp>
    9160:	e3500000 	cmp	r0, #0, 0
    9164:	0a000005 	beq	9180 <va_printk+0x1ac>
    9168:	e3a02003 	mov	r2, #3, 0
    916c:	e1a00006 	mov	r0, r6
    9170:	e59f144c 	ldr	r1, [pc, #1100]	; 95c4 <va_printk+0x5f0>
    9174:	eb0003d4 	bl	a0cc <strncmp>
    9178:	e3500000 	cmp	r0, #0, 0
    917c:	1a00010b 	bne	95b0 <va_printk+0x5dc>
    9180:	e2888007 	add	r8, r8, #7, 0
    9184:	e3c88007 	bic	r8, r8, #7, 0
    9188:	e598b004 	ldr	fp, [r8, #4]
    918c:	e4989008 	ldr	r9, [r8], #8
    9190:	e1a0100b 	mov	r1, fp
    9194:	e59f042c 	ldr	r0, [pc, #1068]	; 95c8 <va_printk+0x5f4>
    9198:	ebfffe87 	bl	8bbc <printk>
    919c:	e1a01009 	mov	r1, r9
    91a0:	e59f0424 	ldr	r0, [pc, #1060]	; 95cc <va_printk+0x5f8>
    91a4:	ebfffe84 	bl	8bbc <printk>
    91a8:	e3a02003 	mov	r2, #3, 0
    91ac:	e1a00006 	mov	r0, r6
    91b0:	e59f1408 	ldr	r1, [pc, #1032]	; 95c0 <va_printk+0x5ec>
    91b4:	eb0003c4 	bl	a0cc <strncmp>
    91b8:	e2503000 	subs	r3, r0, #0, 0
    91bc:	e1a02003 	mov	r2, r3
    91c0:	e2863002 	add	r3, r6, #2, 0
    91c4:	e58d3014 	str	r3, [sp, #20]
    91c8:	1a00009f 	bne	944c <va_printk+0x478>
    91cc:	e1a06002 	mov	r6, r2
    91d0:	e1a03005 	mov	r3, r5
    91d4:	e58d2000 	str	r2, [sp]
    91d8:	e28d1018 	add	r1, sp, #24, 0
    91dc:	e1a0200b 	mov	r2, fp
    91e0:	e3a00010 	mov	r0, #16, 0
    91e4:	ebfffe98 	bl	8c4c <emit.constprop.0>
    91e8:	e1a0c000 	mov	ip, r0
    91ec:	e1a03005 	mov	r3, r5
    91f0:	e58d6000 	str	r6, [sp]
    91f4:	e28d1098 	add	r1, sp, #152, 0	; 0x98
    91f8:	e1a02009 	mov	r2, r9
    91fc:	e3a00010 	mov	r0, #16, 0
    9200:	e1a0500c 	mov	r5, ip
    9204:	ebfffe90 	bl	8c4c <emit.constprop.0>
    9208:	e28d0018 	add	r0, sp, #24, 0
    920c:	e28d109a 	add	r1, sp, #154, 0	; 0x9a
    9210:	e59d6014 	ldr	r6, [sp, #20]
    9214:	eb00038a 	bl	a044 <strcat>
    9218:	eaffffc3 	b	912c <va_printk+0x158>
    921c:	e3a01000 	mov	r1, #0, 0
    9220:	e1a03005 	mov	r3, r5
    9224:	e4982004 	ldr	r2, [r8], #4
    9228:	e3a0000a 	mov	r0, #10, 0
    922c:	e58d1000 	str	r1, [sp]
    9230:	e28d1018 	add	r1, sp, #24, 0
    9234:	ebfffe84 	bl	8c4c <emit.constprop.0>
    9238:	e1a05000 	mov	r5, r0
    923c:	eaffffba 	b	912c <va_printk+0x158>
    9240:	e3a01001 	mov	r1, #1, 0
    9244:	eafffff5 	b	9220 <va_printk+0x24c>
    9248:	e4983004 	ldr	r3, [r8], #4
    924c:	e3550001 	cmp	r5, #1, 0
    9250:	e5cd3098 	strb	r3, [sp, #152]	; 0x98
    9254:	9a0000a6 	bls	94f4 <va_printk+0x520>
    9258:	e2453002 	sub	r3, r5, #2, 0
    925c:	e3530002 	cmp	r3, #2, 0
    9260:	e2451001 	sub	r1, r5, #1, 0
    9264:	9a0000bc 	bls	955c <va_printk+0x588>
    9268:	e59f0360 	ldr	r0, [pc, #864]	; 95d0 <va_printk+0x5fc>
    926c:	e1a02121 	lsr	r2, r1, #2
    9270:	e3520001 	cmp	r2, #1, 0
    9274:	e58d0099 	str	r0, [sp, #153]	; 0x99
    9278:	0a00000e 	beq	92b8 <va_printk+0x2e4>
    927c:	e3520002 	cmp	r2, #2, 0
    9280:	e58d009d 	str	r0, [sp, #157]	; 0x9d
    9284:	0a00000b 	beq	92b8 <va_printk+0x2e4>
    9288:	e3520003 	cmp	r2, #3, 0
    928c:	e58d00a1 	str	r0, [sp, #161]	; 0xa1
    9290:	0a000008 	beq	92b8 <va_printk+0x2e4>
    9294:	e3520004 	cmp	r2, #4, 0
    9298:	e58d00a5 	str	r0, [sp, #165]	; 0xa5
    929c:	0a000005 	beq	92b8 <va_printk+0x2e4>
    92a0:	e3520005 	cmp	r2, #5, 0
    92a4:	e58d00a9 	str	r0, [sp, #169]	; 0xa9
    92a8:	0a000002 	beq	92b8 <va_printk+0x2e4>
    92ac:	e3520007 	cmp	r2, #7, 0
    92b0:	e58d00ad 	str	r0, [sp, #173]	; 0xad
    92b4:	058d00b1 	streq	r0, [sp, #177]	; 0xb1
    92b8:	e3c12003 	bic	r2, r1, #3, 0
    92bc:	e1510002 	cmp	r1, r2
    92c0:	e28dc099 	add	ip, sp, #153, 0	; 0x99
    92c4:	e08c0002 	add	r0, ip, r2
    92c8:	e2822001 	add	r2, r2, #1, 0
    92cc:	0a000008 	beq	92f4 <va_printk+0x320>
    92d0:	e3a0e020 	mov	lr, #32, 0
    92d4:	e2829001 	add	r9, r2, #1, 0
    92d8:	e1550009 	cmp	r5, r9
    92dc:	e5c0e000 	strb	lr, [r0]
    92e0:	da000003 	ble	92f4 <va_printk+0x320>
    92e4:	e2822002 	add	r2, r2, #2, 0
    92e8:	e1550002 	cmp	r5, r2
    92ec:	e5c0e001 	strb	lr, [r0, #1]
    92f0:	c5c0e002 	strbgt	lr, [r0, #2]
    92f4:	e3a0e000 	mov	lr, #0, 0
    92f8:	e28d0098 	add	r0, sp, #152, 0	; 0x98
    92fc:	e08c2001 	add	r2, ip, r1
    9300:	e0422000 	sub	r2, r2, r0
    9304:	e352007f 	cmp	r2, #127, 0	; 0x7f
    9308:	c242207f 	subgt	r2, r2, #127, 0	; 0x7f
    930c:	e08c3003 	add	r3, ip, r3
    9310:	c0800002 	addgt	r0, r0, r2
    9314:	e1530000 	cmp	r3, r0
    9318:	e7cce001 	strb	lr, [ip, r1]
    931c:	3a00006c 	bcc	94d4 <va_printk+0x500>
    9320:	e283c001 	add	ip, r3, #1, 0
    9324:	e1a0300c 	mov	r3, ip
    9328:	e28d5018 	add	r5, sp, #24, 0
    932c:	e2452001 	sub	r2, r5, #1, 0
    9330:	e5731001 	ldrb	r1, [r3, #-1]!
    9334:	e1500003 	cmp	r0, r3
    9338:	e5e21001 	strb	r1, [r2, #1]!
    933c:	1afffffb 	bne	9330 <va_printk+0x35c>
    9340:	e04c3000 	sub	r3, ip, r0
    9344:	e0853003 	add	r3, r5, r3
    9348:	ea00003a 	b	9438 <va_printk+0x464>
    934c:	e28d1098 	add	r1, sp, #152, 0	; 0x98
    9350:	e1a03001 	mov	r3, r1
    9354:	e4980004 	ldr	r0, [r8], #4
    9358:	e200c001 	and	ip, r0, #1, 0
    935c:	e7dac00c 	ldrb	ip, [sl, ip]
    9360:	e3500001 	cmp	r0, #1, 0
    9364:	e1a02003 	mov	r2, r3
    9368:	e1a000a0 	lsr	r0, r0, #1
    936c:	e4c3c001 	strb	ip, [r3], #1
    9370:	8afffff8 	bhi	9358 <va_printk+0x384>
    9374:	e0430001 	sub	r0, r3, r1
    9378:	e1550000 	cmp	r5, r0
    937c:	da000057 	ble	94e0 <va_printk+0x50c>
    9380:	e045c000 	sub	ip, r5, r0
    9384:	e24ce001 	sub	lr, ip, #1, 0
    9388:	e35e0002 	cmp	lr, #2, 0
    938c:	e1a0e003 	mov	lr, r3
    9390:	9a00000a 	bls	93c0 <va_printk+0x3ec>
    9394:	e3cc9003 	bic	r9, ip, #3, 0
    9398:	e0899003 	add	r9, r9, r3
    939c:	e59fb22c 	ldr	fp, [pc, #556]	; 95d0 <va_printk+0x5fc>
    93a0:	e48eb004 	str	fp, [lr], #4
    93a4:	e15e0009 	cmp	lr, r9
    93a8:	1afffffb 	bne	939c <va_printk+0x3c8>
    93ac:	e3cce003 	bic	lr, ip, #3, 0
    93b0:	e15e000c 	cmp	lr, ip
    93b4:	e080000e 	add	r0, r0, lr
    93b8:	e083e00e 	add	lr, r3, lr
    93bc:	0a000008 	beq	93e4 <va_printk+0x410>
    93c0:	e3a09020 	mov	r9, #32, 0
    93c4:	e280b001 	add	fp, r0, #1, 0
    93c8:	e155000b 	cmp	r5, fp
    93cc:	e5ce9000 	strb	r9, [lr]
    93d0:	da000003 	ble	93e4 <va_printk+0x410>
    93d4:	e2800002 	add	r0, r0, #2, 0
    93d8:	e1550000 	cmp	r5, r0
    93dc:	e5ce9001 	strb	r9, [lr, #1]
    93e0:	c5ce9002 	strbgt	r9, [lr, #2]
    93e4:	e3a0e000 	mov	lr, #0, 0
    93e8:	e083000c 	add	r0, r3, ip
    93ec:	e0400001 	sub	r0, r0, r1
    93f0:	e350007f 	cmp	r0, #127, 0	; 0x7f
    93f4:	e082200c 	add	r2, r2, ip
    93f8:	e7c3e00c 	strb	lr, [r3, ip]
    93fc:	da000001 	ble	9408 <va_printk+0x434>
    9400:	e240007f 	sub	r0, r0, #127, 0	; 0x7f
    9404:	e0811000 	add	r1, r1, r0
    9408:	e1510002 	cmp	r1, r2
    940c:	8a000030 	bhi	94d4 <va_printk+0x500>
    9410:	e2822001 	add	r2, r2, #1, 0
    9414:	e1a03002 	mov	r3, r2
    9418:	e28d5018 	add	r5, sp, #24, 0
    941c:	e245c001 	sub	ip, r5, #1, 0
    9420:	e5730001 	ldrb	r0, [r3, #-1]!
    9424:	e1530001 	cmp	r3, r1
    9428:	e5ec0001 	strb	r0, [ip, #1]!
    942c:	1afffffb 	bne	9420 <va_printk+0x44c>
    9430:	e0423003 	sub	r3, r2, r3
    9434:	e0853003 	add	r3, r5, r3
    9438:	e3a02000 	mov	r2, #0, 0
    943c:	e5c32000 	strb	r2, [r3]
    9440:	eaffff39 	b	912c <va_printk+0x158>
    9444:	e4985004 	ldr	r5, [r8], #4
    9448:	eaffff37 	b	912c <va_printk+0x158>
    944c:	e3a02003 	mov	r2, #3, 0
    9450:	e1a00006 	mov	r0, r6
    9454:	e59f1168 	ldr	r1, [pc, #360]	; 95c4 <va_printk+0x5f0>
    9458:	eb00031b 	bl	a0cc <strncmp>
    945c:	e2503000 	subs	r3, r0, #0, 0
    9460:	1a00004b 	bne	9594 <va_printk+0x5c0>
    9464:	e1a06003 	mov	r6, r3
    9468:	e1a0200b 	mov	r2, fp
    946c:	e58d3000 	str	r3, [sp]
    9470:	e28d1018 	add	r1, sp, #24, 0
    9474:	e1a03005 	mov	r3, r5
    9478:	e3a0000a 	mov	r0, #10, 0
    947c:	ebfffdf2 	bl	8c4c <emit.constprop.0>
    9480:	e1a0c000 	mov	ip, r0
    9484:	e1a03005 	mov	r3, r5
    9488:	e1a02009 	mov	r2, r9
    948c:	e28d1098 	add	r1, sp, #152, 0	; 0x98
    9490:	e3a0000a 	mov	r0, #10, 0
    9494:	e58d6000 	str	r6, [sp]
    9498:	e1a0500c 	mov	r5, ip
    949c:	ebfffdea 	bl	8c4c <emit.constprop.0>
    94a0:	e59f112c 	ldr	r1, [pc, #300]	; 95d4 <va_printk+0x600>
    94a4:	e28d0018 	add	r0, sp, #24, 0
    94a8:	eb0002f0 	bl	a070 <strcmp>
    94ac:	e3500000 	cmp	r0, #0, 0
    94b0:	e28d1098 	add	r1, sp, #152, 0	; 0x98
    94b4:	e28d0018 	add	r0, sp, #24, 0
    94b8:	1a000002 	bne	94c8 <va_printk+0x4f4>
    94bc:	eb0002fc 	bl	a0b4 <strcpy>
    94c0:	e59d6014 	ldr	r6, [sp, #20]
    94c4:	eaffff18 	b	912c <va_printk+0x158>
    94c8:	eb0002dd 	bl	a044 <strcat>
    94cc:	e59d6014 	ldr	r6, [sp, #20]
    94d0:	eaffff15 	b	912c <va_printk+0x158>
    94d4:	e28d5018 	add	r5, sp, #24, 0
    94d8:	e1a03005 	mov	r3, r5
    94dc:	eaffffd5 	b	9438 <va_printk+0x464>
    94e0:	e3a0c000 	mov	ip, #0, 0
    94e4:	e350007f 	cmp	r0, #127, 0	; 0x7f
    94e8:	e5c3c000 	strb	ip, [r3]
    94ec:	caffffc3 	bgt	9400 <va_printk+0x42c>
    94f0:	eaffffc6 	b	9410 <va_printk+0x43c>
    94f4:	e3a02000 	mov	r2, #0, 0
    94f8:	e28d3098 	add	r3, sp, #152, 0	; 0x98
    94fc:	e1a00003 	mov	r0, r3
    9500:	e5cd2099 	strb	r2, [sp, #153]	; 0x99
    9504:	eaffff85 	b	9320 <va_printk+0x34c>
    9508:	e3a03000 	mov	r3, #0, 0
    950c:	e1a01002 	mov	r1, r2
    9510:	e5c63001 	strb	r3, [r6, #1]
    9514:	e59f00bc 	ldr	r0, [pc, #188]	; 95d8 <va_printk+0x604>
    9518:	ebfffda7 	bl	8bbc <printk>
    951c:	e59f30b8 	ldr	r3, [pc, #184]	; 95dc <va_printk+0x608>
    9520:	e59d0010 	ldr	r0, [sp, #16]
    9524:	e5933000 	ldr	r3, [r3]
    9528:	e12fff33 	blx	r3
    952c:	e3a030e2 	mov	r3, #226, 0	; 0xe2
    9530:	e59f20a8 	ldr	r2, [pc, #168]	; 95e0 <va_printk+0x60c>
    9534:	e59f10a8 	ldr	r1, [pc, #168]	; 95e4 <va_printk+0x610>
    9538:	e59f00a8 	ldr	r0, [pc, #168]	; 95e8 <va_printk+0x614>
    953c:	ebfffd9e 	bl	8bbc <printk>
    9540:	eb00002e 	bl	9600 <clean_reboot>
    9544:	e3a030be 	mov	r3, #190, 0	; 0xbe
    9548:	e59f2090 	ldr	r2, [pc, #144]	; 95e0 <va_printk+0x60c>
    954c:	e59f1090 	ldr	r1, [pc, #144]	; 95e4 <va_printk+0x610>
    9550:	e59f0094 	ldr	r0, [pc, #148]	; 95ec <va_printk+0x618>
    9554:	ebfffd98 	bl	8bbc <printk>
    9558:	eb000028 	bl	9600 <clean_reboot>
    955c:	e28dc099 	add	ip, sp, #153, 0	; 0x99
    9560:	e1a0000c 	mov	r0, ip
    9564:	e3a02001 	mov	r2, #1, 0
    9568:	eaffff58 	b	92d0 <va_printk+0x2fc>
    956c:	e1a0400b 	mov	r4, fp
    9570:	eafffee0 	b	90f8 <va_printk+0x124>
    9574:	e3a03098 	mov	r3, #152, 0	; 0x98
    9578:	e59f2070 	ldr	r2, [pc, #112]	; 95f0 <va_printk+0x61c>
    957c:	e59f1060 	ldr	r1, [pc, #96]	; 95e4 <va_printk+0x610>
    9580:	e58d2000 	str	r2, [sp]
    9584:	e59f0068 	ldr	r0, [pc, #104]	; 95f4 <va_printk+0x620>
    9588:	e59f2050 	ldr	r2, [pc, #80]	; 95e0 <va_printk+0x60c>
    958c:	ebfffd8a 	bl	8bbc <printk>
    9590:	eb00001a 	bl	9600 <clean_reboot>
    9594:	e3a030b6 	mov	r3, #182, 0	; 0xb6
    9598:	e59f2040 	ldr	r2, [pc, #64]	; 95e0 <va_printk+0x60c>
    959c:	e59f1040 	ldr	r1, [pc, #64]	; 95e4 <va_printk+0x610>
    95a0:	e59f0050 	ldr	r0, [pc, #80]	; 95f8 <va_printk+0x624>
    95a4:	e58d6000 	str	r6, [sp]
    95a8:	ebfffd83 	bl	8bbc <printk>
    95ac:	eb000013 	bl	9600 <clean_reboot>
    95b0:	e3a0309f 	mov	r3, #159, 0	; 0x9f
    95b4:	e59f2040 	ldr	r2, [pc, #64]	; 95fc <va_printk+0x628>
    95b8:	eaffffef 	b	957c <va_printk+0x5a8>
    95bc:	0000a668 	andeq	sl, r0, r8, ror #12
    95c0:	0000a68c 	andeq	sl, r0, ip, lsl #13
    95c4:	0000a6a0 	andeq	sl, r0, r0, lsr #13
    95c8:	0000a690 	muleq	r0, r0, r6
    95cc:	0000a698 	muleq	r0, r8, r6
    95d0:	20202020 	eorcs	r2, r0, r0, lsr #32
    95d4:	0000a4b0 			; <UNDEFINED> instruction: 0x0000a4b0
    95d8:	0000a730 	andeq	sl, r0, r0, lsr r7
    95dc:	0000a9ac 	andeq	sl, r0, ip, lsr #19
    95e0:	0000a798 	muleq	r0, r8, r7
    95e4:	0000a640 	andeq	sl, r0, r0, asr #12
    95e8:	0000a760 	andeq	sl, r0, r0, ror #14
    95ec:	0000a708 	andeq	sl, r0, r8, lsl #14
    95f0:	0000a680 	andeq	sl, r0, r0, lsl #13
    95f4:	0000a138 	andeq	sl, r0, r8, lsr r1
    95f8:	0000a6e0 	andeq	sl, r0, r0, ror #13
    95fc:	0000a6a4 	andeq	sl, r0, r4, lsr #13

00009600 <clean_reboot>:
    9600:	e59f301c 	ldr	r3, [pc, #28]	; 9624 <clean_reboot+0x24>
    9604:	e92d4010 	push	{r4, lr}
    9608:	e5933000 	ldr	r3, [r3]
    960c:	e59f0014 	ldr	r0, [pc, #20]	; 9628 <clean_reboot+0x28>
    9610:	e12fff33 	blx	r3
    9614:	eb00011b 	bl	9a88 <uart_flush_tx>
    9618:	e3a0000a 	mov	r0, #10, 0
    961c:	eb000082 	bl	982c <delay_ms>
    9620:	eb00004b 	bl	9754 <rpi_reboot>
    9624:	0000a9ac 	andeq	sl, r0, ip, lsr #19
    9628:	0000a7a4 	andeq	sl, r0, r4, lsr #15

0000962c <_cstart>:
    962c:	e92d4070 	push	{r4, r5, r6, lr}
    9630:	eb00003b 	bl	9724 <custom_loader>
    9634:	e59f20e0 	ldr	r2, [pc, #224]	; 971c <_cstart+0xf0>
    9638:	e59fc0e0 	ldr	ip, [pc, #224]	; 9720 <_cstart+0xf4>
    963c:	e152000c 	cmp	r2, ip
    9640:	2a00002e 	bcs	9700 <_cstart+0xd4>
    9644:	e24c1001 	sub	r1, ip, #1, 0
    9648:	e0411002 	sub	r1, r1, r2
    964c:	e3510017 	cmp	r1, #23, 0
    9650:	e1a03122 	lsr	r3, r2, #2
    9654:	e1a01121 	lsr	r1, r1, #2
    9658:	e2811001 	add	r1, r1, #1, 0
    965c:	e2033001 	and	r3, r3, #1, 0
    9660:	9a00002b 	bls	9714 <_cstart+0xe8>
    9664:	e3530000 	cmp	r3, #0, 0
    9668:	11a00002 	movne	r0, r2
    966c:	13a0e000 	movne	lr, #0, 0
    9670:	e3a04000 	mov	r4, #0, 0
    9674:	e3a05000 	mov	r5, #0, 0
    9678:	e0411003 	sub	r1, r1, r3
    967c:	01a00002 	moveq	r0, r2
    9680:	e0823103 	add	r3, r2, r3, lsl #2
    9684:	e1a020a1 	lsr	r2, r1, #1
    9688:	1480e004 	strne	lr, [r0], #4
    968c:	e0832182 	add	r2, r3, r2, lsl #3
    9690:	e0c340f8 	strd	r4, [r3], #8
    9694:	e1520003 	cmp	r2, r3
    9698:	1afffffc 	bne	9690 <_cstart+0x64>
    969c:	e3c13001 	bic	r3, r1, #1, 0
    96a0:	e1510003 	cmp	r1, r3
    96a4:	e0803103 	add	r3, r0, r3, lsl #2
    96a8:	0a000014 	beq	9700 <_cstart+0xd4>
    96ac:	e1a01003 	mov	r1, r3
    96b0:	e3a02000 	mov	r2, #0, 0
    96b4:	e4812004 	str	r2, [r1], #4
    96b8:	e151000c 	cmp	r1, ip
    96bc:	2a00000f 	bcs	9700 <_cstart+0xd4>
    96c0:	e2831008 	add	r1, r3, #8, 0
    96c4:	e151000c 	cmp	r1, ip
    96c8:	e5832004 	str	r2, [r3, #4]
    96cc:	2a00000b 	bcs	9700 <_cstart+0xd4>
    96d0:	e283100c 	add	r1, r3, #12, 0
    96d4:	e151000c 	cmp	r1, ip
    96d8:	e5832008 	str	r2, [r3, #8]
    96dc:	2a000007 	bcs	9700 <_cstart+0xd4>
    96e0:	e2831010 	add	r1, r3, #16, 0
    96e4:	e151000c 	cmp	r1, ip
    96e8:	e583200c 	str	r2, [r3, #12]
    96ec:	2a000003 	bcs	9700 <_cstart+0xd4>
    96f0:	e2831014 	add	r1, r3, #20, 0
    96f4:	e151000c 	cmp	r1, ip
    96f8:	e5832010 	str	r2, [r3, #16]
    96fc:	35832014 	strcc	r2, [r3, #20]
    9700:	eb000082 	bl	9910 <uart_init>
    9704:	e3a03001 	mov	r3, #1, 0
    9708:	ee0f3f1c 	mcr	15, 0, r3, cr15, cr12, {0}
    970c:	ebfffa80 	bl	8114 <notmain>
    9710:	ebffffba 	bl	9600 <clean_reboot>
    9714:	e1a03002 	mov	r3, r2
    9718:	eaffffe3 	b	96ac <_cstart+0x80>
    971c:	0000a9c0 	andeq	sl, r0, r0, asr #19
    9720:	0000ade8 	andeq	sl, r0, r8, ror #27

00009724 <custom_loader>:
    9724:	e12fff1e 	bx	lr

00009728 <at_user_level>:
    9728:	e10f0000 	mrs	r0, CPSR
    972c:	e200001f 	and	r0, r0, #31, 0
    9730:	e2400010 	sub	r0, r0, #16, 0
    9734:	e16f0f10 	clz	r0, r0
    9738:	e1a002a0 	lsr	r0, r0, #5
    973c:	e12fff1e 	bx	lr

00009740 <set_user_level>:
    9740:	e10f3000 	mrs	r3, CPSR
    9744:	e3c3301f 	bic	r3, r3, #31, 0
    9748:	e3833010 	orr	r3, r3, #16, 0
    974c:	e129f003 	msr	CPSR_fc, r3
    9750:	e12fff1e 	bx	lr

00009754 <rpi_reboot>:
    9754:	e92d4010 	push	{r4, lr}
    9758:	e10f3000 	mrs	r3, CPSR
    975c:	e203301f 	and	r3, r3, #31, 0
    9760:	e3530010 	cmp	r3, #16, 0
    9764:	1a000003 	bne	9778 <rpi_reboot+0x24>
    9768:	e10f3000 	mrs	r3, CPSR
    976c:	e3c3301f 	bic	r3, r3, #31, 0
    9770:	e3833010 	orr	r3, r3, #16, 0
    9774:	e129f003 	msr	CPSR_fc, r3
    9778:	eb00025f 	bl	a0fc <reboot_callout>
    977c:	eb0000c1 	bl	9a88 <uart_flush_tx>
    9780:	e3a0000a 	mov	r0, #10, 0
    9784:	eb000028 	bl	982c <delay_ms>
    9788:	e59f1014 	ldr	r1, [pc, #20]	; 97a4 <rpi_reboot+0x50>
    978c:	e59f0014 	ldr	r0, [pc, #20]	; 97a8 <rpi_reboot+0x54>
    9790:	ebfffa23 	bl	8024 <PUT32>
    9794:	e59f1010 	ldr	r1, [pc, #16]	; 97ac <rpi_reboot+0x58>
    9798:	e59f0010 	ldr	r0, [pc, #16]	; 97b0 <rpi_reboot+0x5c>
    979c:	ebfffa20 	bl	8024 <PUT32>
    97a0:	eafffffe 	b	97a0 <rpi_reboot+0x4c>
    97a4:	5a000001 	bpl	97b0 <rpi_reboot+0x5c>
    97a8:	20100024 	andscs	r0, r0, r4, lsr #32
    97ac:	5a000020 	bpl	9834 <delay_ms+0x8>
    97b0:	2010001c 	andscs	r0, r0, ip, lsl r0

000097b4 <timer_get_usec_raw>:
    97b4:	e59f0000 	ldr	r0, [pc]	; 97bc <timer_get_usec_raw+0x8>
    97b8:	eafffa1b 	b	802c <GET32>
    97bc:	20003004 	andcs	r3, r0, r4

000097c0 <timer_get_usec>:
    97c0:	e92d4010 	push	{r4, lr}
    97c4:	eb00024d 	bl	a100 <dev_barrier>
    97c8:	e59f0010 	ldr	r0, [pc, #16]	; 97e0 <timer_get_usec+0x20>
    97cc:	ebfffa16 	bl	802c <GET32>
    97d0:	e1a04000 	mov	r4, r0
    97d4:	eb000249 	bl	a100 <dev_barrier>
    97d8:	e1a00004 	mov	r0, r4
    97dc:	e8bd8010 	pop	{r4, pc}
    97e0:	20003004 	andcs	r3, r0, r4

000097e4 <delay_us>:
    97e4:	e92d41f0 	push	{r4, r5, r6, r7, r8, lr}
    97e8:	e1a06000 	mov	r6, r0
    97ec:	eb000243 	bl	a100 <dev_barrier>
    97f0:	e59f0030 	ldr	r0, [pc, #48]	; 9828 <delay_us+0x44>
    97f4:	ebfffa0c 	bl	802c <GET32>
    97f8:	e1a05000 	mov	r5, r0
    97fc:	eb00023f 	bl	a100 <dev_barrier>
    9800:	e59f7020 	ldr	r7, [pc, #32]	; 9828 <delay_us+0x44>
    9804:	eb00023d 	bl	a100 <dev_barrier>
    9808:	e1a00007 	mov	r0, r7
    980c:	ebfffa06 	bl	802c <GET32>
    9810:	e1a04000 	mov	r4, r0
    9814:	e0444005 	sub	r4, r4, r5
    9818:	eb000238 	bl	a100 <dev_barrier>
    981c:	e1540006 	cmp	r4, r6
    9820:	3afffff7 	bcc	9804 <delay_us+0x20>
    9824:	e8bd81f0 	pop	{r4, r5, r6, r7, r8, pc}
    9828:	20003004 	andcs	r3, r0, r4

0000982c <delay_ms>:
    982c:	e92d41f0 	push	{r4, r5, r6, r7, r8, lr}
    9830:	e0604280 	rsb	r4, r0, r0, lsl #5
    9834:	e0800104 	add	r0, r0, r4, lsl #2
    9838:	e1a04180 	lsl	r4, r0, #3
    983c:	eb00022f 	bl	a100 <dev_barrier>
    9840:	e59f0030 	ldr	r0, [pc, #48]	; 9878 <delay_ms+0x4c>
    9844:	ebfff9f8 	bl	802c <GET32>
    9848:	e1a06000 	mov	r6, r0
    984c:	eb00022b 	bl	a100 <dev_barrier>
    9850:	e59f7020 	ldr	r7, [pc, #32]	; 9878 <delay_ms+0x4c>
    9854:	eb000229 	bl	a100 <dev_barrier>
    9858:	e1a00007 	mov	r0, r7
    985c:	ebfff9f2 	bl	802c <GET32>
    9860:	e1a05000 	mov	r5, r0
    9864:	e0455006 	sub	r5, r5, r6
    9868:	eb000224 	bl	a100 <dev_barrier>
    986c:	e1540005 	cmp	r4, r5
    9870:	8afffff7 	bhi	9854 <delay_ms+0x28>
    9874:	e8bd81f0 	pop	{r4, r5, r6, r7, r8, pc}
    9878:	20003004 	andcs	r3, r0, r4

0000987c <delay_sec>:
    987c:	e92d41f0 	push	{r4, r5, r6, r7, r8, lr}
    9880:	e0604280 	rsb	r4, r0, r0, lsl #5
    9884:	e0644304 	rsb	r4, r4, r4, lsl #6
    9888:	e0800184 	add	r0, r0, r4, lsl #3
    988c:	e1a04300 	lsl	r4, r0, #6
    9890:	eb00021a 	bl	a100 <dev_barrier>
    9894:	e59f0030 	ldr	r0, [pc, #48]	; 98cc <delay_sec+0x50>
    9898:	ebfff9e3 	bl	802c <GET32>
    989c:	e1a06000 	mov	r6, r0
    98a0:	eb000216 	bl	a100 <dev_barrier>
    98a4:	e59f7020 	ldr	r7, [pc, #32]	; 98cc <delay_sec+0x50>
    98a8:	eb000214 	bl	a100 <dev_barrier>
    98ac:	e1a00007 	mov	r0, r7
    98b0:	ebfff9dd 	bl	802c <GET32>
    98b4:	e1a05000 	mov	r5, r0
    98b8:	e0455006 	sub	r5, r5, r6
    98bc:	eb00020f 	bl	a100 <dev_barrier>
    98c0:	e1540005 	cmp	r4, r5
    98c4:	8afffff7 	bhi	98a8 <delay_sec+0x2c>
    98c8:	e8bd81f0 	pop	{r4, r5, r6, r7, r8, pc}
    98cc:	20003004 	andcs	r3, r0, r4

000098d0 <and_in32>:
    98d0:	e92d4070 	push	{r4, r5, r6, lr}
    98d4:	e1a04000 	mov	r4, r0
    98d8:	e1a05001 	mov	r5, r1
    98dc:	ebfff9d2 	bl	802c <GET32>
    98e0:	e0001005 	and	r1, r0, r5
    98e4:	e1a00004 	mov	r0, r4
    98e8:	ebfff9cd 	bl	8024 <PUT32>
    98ec:	e8bd8070 	pop	{r4, r5, r6, pc}

000098f0 <or_in32>:
    98f0:	e92d4070 	push	{r4, r5, r6, lr}
    98f4:	e1a04000 	mov	r4, r0
    98f8:	e1a05001 	mov	r5, r1
    98fc:	ebfff9ca 	bl	802c <GET32>
    9900:	e1801005 	orr	r1, r0, r5
    9904:	e1a00004 	mov	r0, r4
    9908:	ebfff9c5 	bl	8024 <PUT32>
    990c:	e8bd8070 	pop	{r4, r5, r6, pc}

00009910 <uart_init>:
    9910:	e92d4010 	push	{r4, lr}
    9914:	e3a01002 	mov	r1, #2, 0
    9918:	e3a0000e 	mov	r0, #14, 0
    991c:	eb000153 	bl	9e70 <gpio_set_function>
    9920:	e3a01002 	mov	r1, #2, 0
    9924:	e3a0000f 	mov	r0, #15, 0
    9928:	eb000150 	bl	9e70 <gpio_set_function>
    992c:	eb0001f3 	bl	a100 <dev_barrier>
    9930:	e3a01001 	mov	r1, #1, 0
    9934:	e59f0064 	ldr	r0, [pc, #100]	; 99a0 <uart_init+0x90>
    9938:	ebffffec 	bl	98f0 <or_in32>
    993c:	eb0001ef 	bl	a100 <dev_barrier>
    9940:	e59f405c 	ldr	r4, [pc, #92]	; 99a4 <uart_init+0x94>
    9944:	e3a01000 	mov	r1, #0, 0
    9948:	e1a00004 	mov	r0, r4
    994c:	ebfff9b4 	bl	8024 <PUT32>
    9950:	e3a01000 	mov	r1, #0, 0
    9954:	e59f004c 	ldr	r0, [pc, #76]	; 99a8 <uart_init+0x98>
    9958:	ebfff9b1 	bl	8024 <PUT32>
    995c:	e3a01003 	mov	r1, #3, 0
    9960:	e59f0044 	ldr	r0, [pc, #68]	; 99ac <uart_init+0x9c>
    9964:	ebfff9ae 	bl	8024 <PUT32>
    9968:	e3a01000 	mov	r1, #0, 0
    996c:	e59f003c 	ldr	r0, [pc, #60]	; 99b0 <uart_init+0xa0>
    9970:	ebfff9ab 	bl	8024 <PUT32>
    9974:	e3a010c7 	mov	r1, #199, 0	; 0xc7
    9978:	e59f0034 	ldr	r0, [pc, #52]	; 99b4 <uart_init+0xa4>
    997c:	ebfff9a8 	bl	8024 <PUT32>
    9980:	e59f1030 	ldr	r1, [pc, #48]	; 99b8 <uart_init+0xa8>
    9984:	e59f0030 	ldr	r0, [pc, #48]	; 99bc <uart_init+0xac>
    9988:	ebfff9a5 	bl	8024 <PUT32>
    998c:	e3a01003 	mov	r1, #3, 0
    9990:	e1a00004 	mov	r0, r4
    9994:	ebfff9a2 	bl	8024 <PUT32>
    9998:	eb0001d8 	bl	a100 <dev_barrier>
    999c:	e8bd8010 	pop	{r4, pc}
    99a0:	20215004 	eorcs	r5, r1, r4
    99a4:	20215060 	eorcs	r5, r1, r0, rrx
    99a8:	20215044 	eorcs	r5, r1, r4, asr #32
    99ac:	2021504c 	eorcs	r5, r1, ip, asr #32
    99b0:	20215050 	eorcs	r5, r1, r0, asr r0
    99b4:	20215048 	eorcs	r5, r1, r8, asr #32
    99b8:	0000010e 	andeq	r0, r0, lr, lsl #2
    99bc:	20215068 	eorcs	r5, r1, r8, rrx

000099c0 <uart_can_getc>:
    99c0:	e92d4010 	push	{r4, lr}
    99c4:	e59f0008 	ldr	r0, [pc, #8]	; 99d4 <uart_can_getc+0x14>
    99c8:	ebfff997 	bl	802c <GET32>
    99cc:	e2000001 	and	r0, r0, #1, 0
    99d0:	e8bd8010 	pop	{r4, pc}
    99d4:	20215064 	eorcs	r5, r1, r4, rrx

000099d8 <uart_can_putc>:
    99d8:	e92d4010 	push	{r4, lr}
    99dc:	e59f0010 	ldr	r0, [pc, #16]	; 99f4 <uart_can_putc+0x1c>
    99e0:	ebfff991 	bl	802c <GET32>
    99e4:	e3100002 	tst	r0, #2, 0
    99e8:	13a00001 	movne	r0, #1, 0
    99ec:	03a00000 	moveq	r0, #0, 0
    99f0:	e8bd8010 	pop	{r4, pc}
    99f4:	20215064 	eorcs	r5, r1, r4, rrx

000099f8 <uart_getc>:
    99f8:	e92d4010 	push	{r4, lr}
    99fc:	eb0001bf 	bl	a100 <dev_barrier>
    9a00:	ebffffee 	bl	99c0 <uart_can_getc>
    9a04:	e3500000 	cmp	r0, #0, 0
    9a08:	0afffffc 	beq	9a00 <uart_getc+0x8>
    9a0c:	e59f0010 	ldr	r0, [pc, #16]	; 9a24 <uart_getc+0x2c>
    9a10:	ebfff985 	bl	802c <GET32>
    9a14:	e6ef4070 	uxtb	r4, r0
    9a18:	eb0001b8 	bl	a100 <dev_barrier>
    9a1c:	e1a00004 	mov	r0, r4
    9a20:	e8bd8010 	pop	{r4, pc}
    9a24:	20215040 	eorcs	r5, r1, r0, asr #32

00009a28 <uart_putc>:
    9a28:	e92d4010 	push	{r4, lr}
    9a2c:	e1a04000 	mov	r4, r0
    9a30:	eb0001b2 	bl	a100 <dev_barrier>
    9a34:	ebffffe7 	bl	99d8 <uart_can_putc>
    9a38:	e3500000 	cmp	r0, #0, 0
    9a3c:	0afffffc 	beq	9a34 <uart_putc+0xc>
    9a40:	e6ef1074 	uxtb	r1, r4
    9a44:	e59f0008 	ldr	r0, [pc, #8]	; 9a54 <uart_putc+0x2c>
    9a48:	ebfff975 	bl	8024 <PUT32>
    9a4c:	eb0001ab 	bl	a100 <dev_barrier>
    9a50:	e8bd8010 	pop	{r4, pc}
    9a54:	20215040 	eorcs	r5, r1, r0, asr #32

00009a58 <uart_has_data>:
    9a58:	e92d4010 	push	{r4, lr}
    9a5c:	eb0001a7 	bl	a100 <dev_barrier>
    9a60:	ebffffd6 	bl	99c0 <uart_can_getc>
    9a64:	e8bd8010 	pop	{r4, pc}

00009a68 <uart_tx_is_empty>:
    9a68:	e92d4010 	push	{r4, lr}
    9a6c:	eb0001a3 	bl	a100 <dev_barrier>
    9a70:	e59f000c 	ldr	r0, [pc, #12]	; 9a84 <uart_tx_is_empty+0x1c>
    9a74:	ebfff96c 	bl	802c <GET32>
    9a78:	e1a004a0 	lsr	r0, r0, #9
    9a7c:	e2000001 	and	r0, r0, #1, 0
    9a80:	e8bd8010 	pop	{r4, pc}
    9a84:	20215064 	eorcs	r5, r1, r4, rrx

00009a88 <uart_flush_tx>:
    9a88:	e92d4010 	push	{r4, lr}
    9a8c:	ebfffff5 	bl	9a68 <uart_tx_is_empty>
    9a90:	e3500000 	cmp	r0, #0, 0
    9a94:	0afffffc 	beq	9a8c <uart_flush_tx+0x4>
    9a98:	e8bd8010 	pop	{r4, pc}

00009a9c <uart_disable>:
    9a9c:	e92d4010 	push	{r4, lr}
    9aa0:	ebfffff8 	bl	9a88 <uart_flush_tx>
    9aa4:	eb000195 	bl	a100 <dev_barrier>
    9aa8:	e3e01001 	mvn	r1, #1, 0
    9aac:	e59f0008 	ldr	r0, [pc, #8]	; 9abc <uart_disable+0x20>
    9ab0:	ebffff86 	bl	98d0 <and_in32>
    9ab4:	eb000191 	bl	a100 <dev_barrier>
    9ab8:	e8bd8010 	pop	{r4, pc}
    9abc:	20215004 	eorcs	r5, r1, r4

00009ac0 <kmalloc_heap_end>:
    9ac0:	e59f3004 	ldr	r3, [pc, #4]	; 9acc <kmalloc_heap_end+0xc>
    9ac4:	e5930000 	ldr	r0, [r3]
    9ac8:	e12fff1e 	bx	lr
    9acc:	0000a9b0 			; <UNDEFINED> instruction: 0x0000a9b0

00009ad0 <kmalloc_heap_start>:
    9ad0:	e59f3004 	ldr	r3, [pc, #4]	; 9adc <kmalloc_heap_start+0xc>
    9ad4:	e5930004 	ldr	r0, [r3, #4]
    9ad8:	e12fff1e 	bx	lr
    9adc:	0000a9b0 			; <UNDEFINED> instruction: 0x0000a9b0

00009ae0 <kmalloc_heap_ptr>:
    9ae0:	e59f3004 	ldr	r3, [pc, #4]	; 9aec <kmalloc_heap_ptr+0xc>
    9ae4:	e5930000 	ldr	r0, [r3]
    9ae8:	e12fff1e 	bx	lr
    9aec:	0000a9b0 			; <UNDEFINED> instruction: 0x0000a9b0

00009af0 <kmalloc_init_set_start>:
    9af0:	e52de004 	push	{lr}		; (str lr, [sp, #-4]!)
    9af4:	e24dd00c 	sub	sp, sp, #12, 0
    9af8:	e3510000 	cmp	r1, #0, 0
    9afc:	0a00000a 	beq	9b2c <kmalloc_init_set_start+0x3c>
    9b00:	e59f306c 	ldr	r3, [pc, #108]	; 9b74 <kmalloc_init_set_start+0x84>
    9b04:	e5933000 	ldr	r3, [r3]
    9b08:	e1530000 	cmp	r3, r0
    9b0c:	8a00000e 	bhi	9b4c <kmalloc_init_set_start+0x5c>
    9b10:	e59f305c 	ldr	r3, [pc, #92]	; 9b74 <kmalloc_init_set_start+0x84>
    9b14:	e5830000 	str	r0, [r3]
    9b18:	e5830004 	str	r0, [r3, #4]
    9b1c:	e0800001 	add	r0, r0, r1
    9b20:	e5830008 	str	r0, [r3, #8]
    9b24:	e28dd00c 	add	sp, sp, #12, 0
    9b28:	e49df004 	pop	{pc}		; (ldr pc, [sp], #4)
    9b2c:	e59f3044 	ldr	r3, [pc, #68]	; 9b78 <kmalloc_init_set_start+0x88>
    9b30:	e58d3000 	str	r3, [sp]
    9b34:	e3a03030 	mov	r3, #48, 0	; 0x30
    9b38:	e59f203c 	ldr	r2, [pc, #60]	; 9b7c <kmalloc_init_set_start+0x8c>
    9b3c:	e59f103c 	ldr	r1, [pc, #60]	; 9b80 <kmalloc_init_set_start+0x90>
    9b40:	e59f003c 	ldr	r0, [pc, #60]	; 9b84 <kmalloc_init_set_start+0x94>
    9b44:	ebfffc1c 	bl	8bbc <printk>
    9b48:	ebfffeac 	bl	9600 <clean_reboot>
    9b4c:	e59f3020 	ldr	r3, [pc, #32]	; 9b74 <kmalloc_init_set_start+0x84>
    9b50:	e5933008 	ldr	r3, [r3, #8]
    9b54:	e58d3004 	str	r3, [sp, #4]
    9b58:	e58d0000 	str	r0, [sp]
    9b5c:	e3a03034 	mov	r3, #52, 0	; 0x34
    9b60:	e59f2014 	ldr	r2, [pc, #20]	; 9b7c <kmalloc_init_set_start+0x8c>
    9b64:	e59f1014 	ldr	r1, [pc, #20]	; 9b80 <kmalloc_init_set_start+0x90>
    9b68:	e59f0018 	ldr	r0, [pc, #24]	; 9b88 <kmalloc_init_set_start+0x98>
    9b6c:	ebfffc12 	bl	8bbc <printk>
    9b70:	ebfffea2 	bl	9600 <clean_reboot>
    9b74:	0000a9b0 			; <UNDEFINED> instruction: 0x0000a9b0
    9b78:	0000a7bc 			; <UNDEFINED> instruction: 0x0000a7bc
    9b7c:	0000a948 	andeq	sl, r0, r8, asr #18
    9b80:	0000a7b0 			; <UNDEFINED> instruction: 0x0000a7b0
    9b84:	0000a138 	andeq	sl, r0, r8, lsr r1
    9b88:	0000a7c8 	andeq	sl, r0, r8, asr #15

00009b8c <kmalloc_init>:
    9b8c:	e92d4010 	push	{r4, lr}
    9b90:	e59f303c 	ldr	r3, [pc, #60]	; 9bd4 <kmalloc_init+0x48>
    9b94:	e5933000 	ldr	r3, [r3]
    9b98:	e3530000 	cmp	r3, #0, 0
    9b9c:	1a000006 	bne	9bbc <kmalloc_init+0x30>
    9ba0:	e59f302c 	ldr	r3, [pc, #44]	; 9bd4 <kmalloc_init+0x48>
    9ba4:	e3a02001 	mov	r2, #1, 0
    9ba8:	e5832000 	str	r2, [r3]
    9bac:	e3a01201 	mov	r1, #268435456	; 0x10000000
    9bb0:	e3a00601 	mov	r0, #1048576	; 0x100000
    9bb4:	ebffffcd 	bl	9af0 <kmalloc_init_set_start>
    9bb8:	e8bd8010 	pop	{r4, pc}
    9bbc:	e3a03040 	mov	r3, #64, 0	; 0x40
    9bc0:	e59f2010 	ldr	r2, [pc, #16]	; 9bd8 <kmalloc_init+0x4c>
    9bc4:	e59f1010 	ldr	r1, [pc, #16]	; 9bdc <kmalloc_init+0x50>
    9bc8:	e59f0010 	ldr	r0, [pc, #16]	; 9be0 <kmalloc_init+0x54>
    9bcc:	ebfffbfa 	bl	8bbc <printk>
    9bd0:	ebfffe8a 	bl	9600 <clean_reboot>
    9bd4:	0000ade4 	andeq	sl, r0, r4, ror #27
    9bd8:	0000a960 	andeq	sl, r0, r0, ror #18
    9bdc:	0000a7b0 			; <UNDEFINED> instruction: 0x0000a7b0
    9be0:	0000a80c 	andeq	sl, r0, ip, lsl #16

00009be4 <kmalloc_notzero>:
    9be4:	e52de004 	push	{lr}		; (str lr, [sp, #-4]!)
    9be8:	e24dd00c 	sub	sp, sp, #12, 0
    9bec:	e3500000 	cmp	r0, #0, 0
    9bf0:	0a00000a 	beq	9c20 <kmalloc_notzero+0x3c>
    9bf4:	e2800007 	add	r0, r0, #7, 0
    9bf8:	e3c03007 	bic	r3, r0, #7, 0
    9bfc:	e59f2060 	ldr	r2, [pc, #96]	; 9c64 <kmalloc_notzero+0x80>
    9c00:	e5920000 	ldr	r0, [r2]
    9c04:	e0801003 	add	r1, r0, r3
    9c08:	e5821000 	str	r1, [r2]
    9c0c:	e5922008 	ldr	r2, [r2, #8]
    9c10:	e1510002 	cmp	r1, r2
    9c14:	8a000009 	bhi	9c40 <kmalloc_notzero+0x5c>
    9c18:	e28dd00c 	add	sp, sp, #12, 0
    9c1c:	e49df004 	pop	{pc}		; (ldr pc, [sp], #4)
    9c20:	e59f3040 	ldr	r3, [pc, #64]	; 9c68 <kmalloc_notzero+0x84>
    9c24:	e58d3000 	str	r3, [sp]
    9c28:	e3a03048 	mov	r3, #72, 0	; 0x48
    9c2c:	e59f2038 	ldr	r2, [pc, #56]	; 9c6c <kmalloc_notzero+0x88>
    9c30:	e59f1038 	ldr	r1, [pc, #56]	; 9c70 <kmalloc_notzero+0x8c>
    9c34:	e59f0038 	ldr	r0, [pc, #56]	; 9c74 <kmalloc_notzero+0x90>
    9c38:	ebfffbdf 	bl	8bbc <printk>
    9c3c:	ebfffe6f 	bl	9600 <clean_reboot>
    9c40:	e0422000 	sub	r2, r2, r0
    9c44:	e58d2004 	str	r2, [sp, #4]
    9c48:	e58d3000 	str	r3, [sp]
    9c4c:	e3a0304e 	mov	r3, #78, 0	; 0x4e
    9c50:	e59f2014 	ldr	r2, [pc, #20]	; 9c6c <kmalloc_notzero+0x88>
    9c54:	e59f1014 	ldr	r1, [pc, #20]	; 9c70 <kmalloc_notzero+0x8c>
    9c58:	e59f0018 	ldr	r0, [pc, #24]	; 9c78 <kmalloc_notzero+0x94>
    9c5c:	ebfffbd6 	bl	8bbc <printk>
    9c60:	ebfffe66 	bl	9600 <clean_reboot>
    9c64:	0000a9b0 			; <UNDEFINED> instruction: 0x0000a9b0
    9c68:	0000a7c0 	andeq	sl, r0, r0, asr #15
    9c6c:	0000a970 	andeq	sl, r0, r0, ror r9
    9c70:	0000a7b0 			; <UNDEFINED> instruction: 0x0000a7b0
    9c74:	0000a138 	andeq	sl, r0, r8, lsr r1
    9c78:	0000a83c 	andeq	sl, r0, ip, lsr r8

00009c7c <kmalloc>:
    9c7c:	e92d4030 	push	{r4, r5, lr}
    9c80:	e24dd00c 	sub	sp, sp, #12, 0
    9c84:	e2504000 	subs	r4, r0, #0, 0
    9c88:	0a000008 	beq	9cb0 <kmalloc+0x34>
    9c8c:	e1a00004 	mov	r0, r4
    9c90:	ebffffd3 	bl	9be4 <kmalloc_notzero>
    9c94:	e1a05000 	mov	r5, r0
    9c98:	e1a02004 	mov	r2, r4
    9c9c:	e3a01000 	mov	r1, #0, 0
    9ca0:	ebfffba7 	bl	8b44 <memset>
    9ca4:	e1a00005 	mov	r0, r5
    9ca8:	e28dd00c 	add	sp, sp, #12, 0
    9cac:	e8bd8030 	pop	{r4, r5, pc}
    9cb0:	e59f3018 	ldr	r3, [pc, #24]	; 9cd0 <kmalloc+0x54>
    9cb4:	e58d3000 	str	r3, [sp]
    9cb8:	e3a03054 	mov	r3, #84, 0	; 0x54
    9cbc:	e59f2010 	ldr	r2, [pc, #16]	; 9cd4 <kmalloc+0x58>
    9cc0:	e59f1010 	ldr	r1, [pc, #16]	; 9cd8 <kmalloc+0x5c>
    9cc4:	e59f0010 	ldr	r0, [pc, #16]	; 9cdc <kmalloc+0x60>
    9cc8:	ebfffbbb 	bl	8bbc <printk>
    9ccc:	ebfffe4b 	bl	9600 <clean_reboot>
    9cd0:	0000a7c0 	andeq	sl, r0, r0, asr #15
    9cd4:	0000a980 	andeq	sl, r0, r0, lsl #19
    9cd8:	0000a7b0 			; <UNDEFINED> instruction: 0x0000a7b0
    9cdc:	0000a138 	andeq	sl, r0, r8, lsr r1

00009ce0 <kmalloc_aligned>:
    9ce0:	e52de004 	push	{lr}		; (str lr, [sp, #-4]!)
    9ce4:	e24dd00c 	sub	sp, sp, #12, 0
    9ce8:	e3500000 	cmp	r0, #0, 0
    9cec:	0a000014 	beq	9d44 <kmalloc_aligned+0x64>
    9cf0:	e2613000 	rsb	r3, r1, #0, 0
    9cf4:	e1d13003 	bics	r3, r1, r3
    9cf8:	1a000019 	bne	9d64 <kmalloc_aligned+0x84>
    9cfc:	e3510008 	cmp	r1, #8, 0
    9d00:	33a01008 	movcc	r1, #8, 0
    9d04:	e59f30c0 	ldr	r3, [pc, #192]	; 9dcc <kmalloc_aligned+0xec>
    9d08:	e5932000 	ldr	r2, [r3]
    9d0c:	e2613000 	rsb	r3, r1, #0, 0
    9d10:	e1d1c003 	bics	ip, r1, r3
    9d14:	1a00001b 	bne	9d88 <kmalloc_aligned+0xa8>
    9d18:	e0822001 	add	r2, r2, r1
    9d1c:	e2422001 	sub	r2, r2, #1, 0
    9d20:	e0033002 	and	r3, r3, r2
    9d24:	e2411001 	sub	r1, r1, #1, 0
    9d28:	e1110003 	tst	r1, r3
    9d2c:	1a00001d 	bne	9da8 <kmalloc_aligned+0xc8>
    9d30:	e59f2094 	ldr	r2, [pc, #148]	; 9dcc <kmalloc_aligned+0xec>
    9d34:	e5823000 	str	r3, [r2]
    9d38:	ebffffcf 	bl	9c7c <kmalloc>
    9d3c:	e28dd00c 	add	sp, sp, #12, 0
    9d40:	e49df004 	pop	{pc}		; (ldr pc, [sp], #4)
    9d44:	e59f3084 	ldr	r3, [pc, #132]	; 9dd0 <kmalloc_aligned+0xf0>
    9d48:	e58d3000 	str	r3, [sp]
    9d4c:	e3a0305f 	mov	r3, #95, 0	; 0x5f
    9d50:	e59f207c 	ldr	r2, [pc, #124]	; 9dd4 <kmalloc_aligned+0xf4>
    9d54:	e59f107c 	ldr	r1, [pc, #124]	; 9dd8 <kmalloc_aligned+0xf8>
    9d58:	e59f007c 	ldr	r0, [pc, #124]	; 9ddc <kmalloc_aligned+0xfc>
    9d5c:	ebfffb96 	bl	8bbc <printk>
    9d60:	ebfffe26 	bl	9600 <clean_reboot>
    9d64:	eb0000ac 	bl	a01c <rpi_reset_putc>
    9d68:	e59f3070 	ldr	r3, [pc, #112]	; 9de0 <kmalloc_aligned+0x100>
    9d6c:	e58d3000 	str	r3, [sp]
    9d70:	e3a03060 	mov	r3, #96, 0	; 0x60
    9d74:	e59f2058 	ldr	r2, [pc, #88]	; 9dd4 <kmalloc_aligned+0xf4>
    9d78:	e59f1058 	ldr	r1, [pc, #88]	; 9dd8 <kmalloc_aligned+0xf8>
    9d7c:	e59f0060 	ldr	r0, [pc, #96]	; 9de4 <kmalloc_aligned+0x104>
    9d80:	ebfffb8d 	bl	8bbc <printk>
    9d84:	ebfffe1d 	bl	9600 <clean_reboot>
    9d88:	e59f3058 	ldr	r3, [pc, #88]	; 9de8 <kmalloc_aligned+0x108>
    9d8c:	e58d3000 	str	r3, [sp]
    9d90:	e3a03011 	mov	r3, #17, 0
    9d94:	e59f2050 	ldr	r2, [pc, #80]	; 9dec <kmalloc_aligned+0x10c>
    9d98:	e59f1038 	ldr	r1, [pc, #56]	; 9dd8 <kmalloc_aligned+0xf8>
    9d9c:	e59f0038 	ldr	r0, [pc, #56]	; 9ddc <kmalloc_aligned+0xfc>
    9da0:	ebfffb85 	bl	8bbc <printk>
    9da4:	ebfffe15 	bl	9600 <clean_reboot>
    9da8:	eb00009b 	bl	a01c <rpi_reset_putc>
    9dac:	e59f303c 	ldr	r3, [pc, #60]	; 9df0 <kmalloc_aligned+0x110>
    9db0:	e58d3000 	str	r3, [sp]
    9db4:	e3a03068 	mov	r3, #104, 0	; 0x68
    9db8:	e59f2014 	ldr	r2, [pc, #20]	; 9dd4 <kmalloc_aligned+0xf4>
    9dbc:	e59f1014 	ldr	r1, [pc, #20]	; 9dd8 <kmalloc_aligned+0xf8>
    9dc0:	e59f002c 	ldr	r0, [pc, #44]	; 9df4 <kmalloc_aligned+0x114>
    9dc4:	ebfffb7c 	bl	8bbc <printk>
    9dc8:	ebfffe0c 	bl	9600 <clean_reboot>
    9dcc:	0000a9b0 			; <UNDEFINED> instruction: 0x0000a9b0
    9dd0:	0000a7c0 	andeq	sl, r0, r0, asr #15
    9dd4:	0000a988 	andeq	sl, r0, r8, lsl #19
    9dd8:	0000a7b0 			; <UNDEFINED> instruction: 0x0000a7b0
    9ddc:	0000a138 	andeq	sl, r0, r8, lsr r1
    9de0:	0000a8b0 			; <UNDEFINED> instruction: 0x0000a8b0
    9de4:	0000a87c 	andeq	sl, r0, ip, ror r8
    9de8:	0000a8c4 	andeq	sl, r0, r4, asr #17
    9dec:	0000a998 	muleq	r0, r8, r9
    9df0:	0000a8fc 	strdeq	sl, [r0], -ip
    9df4:	0000a8d0 	ldrdeq	sl, [r0], -r0

00009df8 <kfree>:
    9df8:	e12fff1e 	bx	lr

00009dfc <kfree_all>:
    9dfc:	e59f3008 	ldr	r3, [pc, #8]	; 9e0c <kfree_all+0x10>
    9e00:	e5932004 	ldr	r2, [r3, #4]
    9e04:	e5832000 	str	r2, [r3]
    9e08:	e12fff1e 	bx	lr
    9e0c:	0000a9b0 			; <UNDEFINED> instruction: 0x0000a9b0

00009e10 <kfree_pop>:
    9e10:	e59f3048 	ldr	r3, [pc, #72]	; 9e60 <kfree_pop+0x50>
    9e14:	e5933004 	ldr	r3, [r3, #4]
    9e18:	e1530000 	cmp	r3, r0
    9e1c:	8a000006 	bhi	9e3c <kfree_pop+0x2c>
    9e20:	e59f3038 	ldr	r3, [pc, #56]	; 9e60 <kfree_pop+0x50>
    9e24:	e5933008 	ldr	r3, [r3, #8]
    9e28:	e1530000 	cmp	r3, r0
    9e2c:	3a000002 	bcc	9e3c <kfree_pop+0x2c>
    9e30:	e59f3028 	ldr	r3, [pc, #40]	; 9e60 <kfree_pop+0x50>
    9e34:	e5830000 	str	r0, [r3]
    9e38:	e12fff1e 	bx	lr
    9e3c:	e52de004 	push	{lr}		; (str lr, [sp, #-4]!)
    9e40:	e24dd00c 	sub	sp, sp, #12, 0
    9e44:	e58d0000 	str	r0, [sp]
    9e48:	e3a03077 	mov	r3, #119, 0	; 0x77
    9e4c:	e59f2010 	ldr	r2, [pc, #16]	; 9e64 <kfree_pop+0x54>
    9e50:	e59f1010 	ldr	r1, [pc, #16]	; 9e68 <kfree_pop+0x58>
    9e54:	e59f0010 	ldr	r0, [pc, #16]	; 9e6c <kfree_pop+0x5c>
    9e58:	ebfffb57 	bl	8bbc <printk>
    9e5c:	ebfffde7 	bl	9600 <clean_reboot>
    9e60:	0000a9b0 			; <UNDEFINED> instruction: 0x0000a9b0
    9e64:	0000a9a0 	andeq	sl, r0, r0, lsr #19
    9e68:	0000a7b0 			; <UNDEFINED> instruction: 0x0000a7b0
    9e6c:	0000a918 	andeq	sl, r0, r8, lsl r9

00009e70 <gpio_set_function>:
    9e70:	e350001f 	cmp	r0, #31, 0
    9e74:	812fff1e 	bxhi	lr
    9e78:	e3d13007 	bics	r3, r1, #7, 0
    9e7c:	e92d4070 	push	{r4, r5, r6, lr}
    9e80:	e1a05001 	mov	r5, r1
    9e84:	18bd8070 	popne	{r4, r5, r6, pc}
    9e88:	e59f403c 	ldr	r4, [pc, #60]	; 9ecc <gpio_set_function+0x5c>
    9e8c:	e0843094 	umull	r3, r4, r4, r0
    9e90:	e1a041a4 	lsr	r4, r4, #3
    9e94:	e2843302 	add	r3, r4, #134217728	; 0x8000000
    9e98:	e2833702 	add	r3, r3, #524288	; 0x80000
    9e9c:	e1a06103 	lsl	r6, r3, #2
    9ea0:	e0844104 	add	r4, r4, r4, lsl #2
    9ea4:	e0404084 	sub	r4, r0, r4, lsl #1
    9ea8:	e1a00006 	mov	r0, r6
    9eac:	ebfff85e 	bl	802c <GET32>
    9eb0:	e3a01007 	mov	r1, #7, 0
    9eb4:	e0844084 	add	r4, r4, r4, lsl #1
    9eb8:	e1c01411 	bic	r1, r0, r1, lsl r4
    9ebc:	e1811415 	orr	r1, r1, r5, lsl r4
    9ec0:	e1a00006 	mov	r0, r6
    9ec4:	e8bd4070 	pop	{r4, r5, r6, lr}
    9ec8:	eafff855 	b	8024 <PUT32>
    9ecc:	cccccccd 	stclgt	12, cr12, [ip], {205}	; 0xcd

00009ed0 <gpio_set_output>:
    9ed0:	e350001f 	cmp	r0, #31, 0
    9ed4:	812fff1e 	bxhi	lr
    9ed8:	e92d4070 	push	{r4, r5, r6, lr}
    9edc:	e59f4040 	ldr	r4, [pc, #64]	; 9f24 <gpio_set_output+0x54>
    9ee0:	e0843094 	umull	r3, r4, r4, r0
    9ee4:	e1a041a4 	lsr	r4, r4, #3
    9ee8:	e2843302 	add	r3, r4, #134217728	; 0x8000000
    9eec:	e2833702 	add	r3, r3, #524288	; 0x80000
    9ef0:	e1a05103 	lsl	r5, r3, #2
    9ef4:	e0844104 	add	r4, r4, r4, lsl #2
    9ef8:	e0404084 	sub	r4, r0, r4, lsl #1
    9efc:	e1a00005 	mov	r0, r5
    9f00:	ebfff849 	bl	802c <GET32>
    9f04:	e3a03007 	mov	r3, #7, 0
    9f08:	e3a01001 	mov	r1, #1, 0
    9f0c:	e0844084 	add	r4, r4, r4, lsl #1
    9f10:	e1c03413 	bic	r3, r0, r3, lsl r4
    9f14:	e1831411 	orr	r1, r3, r1, lsl r4
    9f18:	e1a00005 	mov	r0, r5
    9f1c:	e8bd4070 	pop	{r4, r5, r6, lr}
    9f20:	eafff83f 	b	8024 <PUT32>
    9f24:	cccccccd 	stclgt	12, cr12, [ip], {205}	; 0xcd

00009f28 <gpio_set_on>:
    9f28:	e1a03000 	mov	r3, r0
    9f2c:	e3a01001 	mov	r1, #1, 0
    9f30:	e59f0004 	ldr	r0, [pc, #4]	; 9f3c <gpio_set_on+0x14>
    9f34:	e1a01311 	lsl	r1, r1, r3
    9f38:	eafff839 	b	8024 <PUT32>
    9f3c:	2020001c 	eorcs	r0, r0, ip, lsl r0

00009f40 <gpio_set_off>:
    9f40:	e1a03000 	mov	r3, r0
    9f44:	e3a01001 	mov	r1, #1, 0
    9f48:	e59f0004 	ldr	r0, [pc, #4]	; 9f54 <gpio_set_off+0x14>
    9f4c:	e1a01311 	lsl	r1, r1, r3
    9f50:	eafff833 	b	8024 <PUT32>
    9f54:	20200028 	eorcs	r0, r0, r8, lsr #32

00009f58 <gpio_set_input>:
    9f58:	e350001f 	cmp	r0, #31, 0
    9f5c:	812fff1e 	bxhi	lr
    9f60:	e92d4070 	push	{r4, r5, r6, lr}
    9f64:	e59f5040 	ldr	r5, [pc, #64]	; 9fac <gpio_set_input+0x54>
    9f68:	e1a04000 	mov	r4, r0
    9f6c:	e0853095 	umull	r3, r5, r5, r0
    9f70:	e1a051a5 	lsr	r5, r5, #3
    9f74:	e2850302 	add	r0, r5, #134217728	; 0x8000000
    9f78:	e2800702 	add	r0, r0, #524288	; 0x80000
    9f7c:	e1a06100 	lsl	r6, r0, #2
    9f80:	e1a00006 	mov	r0, r6
    9f84:	ebfff828 	bl	802c <GET32>
    9f88:	e3a01007 	mov	r1, #7, 0
    9f8c:	e1a03000 	mov	r3, r0
    9f90:	e0855105 	add	r5, r5, r5, lsl #2
    9f94:	e0444085 	sub	r4, r4, r5, lsl #1
    9f98:	e0844084 	add	r4, r4, r4, lsl #1
    9f9c:	e1a00006 	mov	r0, r6
    9fa0:	e1c31411 	bic	r1, r3, r1, lsl r4
    9fa4:	e8bd4070 	pop	{r4, r5, r6, lr}
    9fa8:	eafff81d 	b	8024 <PUT32>
    9fac:	cccccccd 	stclgt	12, cr12, [ip], {205}	; 0xcd

00009fb0 <gpio_write>:
    9fb0:	e3510000 	cmp	r1, #0, 0
    9fb4:	e3a03001 	mov	r3, #1, 0
    9fb8:	e1a01000 	mov	r1, r0
    9fbc:	0a000002 	beq	9fcc <gpio_write+0x1c>
    9fc0:	e59f0010 	ldr	r0, [pc, #16]	; 9fd8 <gpio_write+0x28>
    9fc4:	e1a01113 	lsl	r1, r3, r1
    9fc8:	eafff815 	b	8024 <PUT32>
    9fcc:	e59f0008 	ldr	r0, [pc, #8]	; 9fdc <gpio_write+0x2c>
    9fd0:	e1a01113 	lsl	r1, r3, r1
    9fd4:	eafff812 	b	8024 <PUT32>
    9fd8:	2020001c 	eorcs	r0, r0, ip, lsl r0
    9fdc:	20200028 	eorcs	r0, r0, r8, lsr #32

00009fe0 <gpio_read>:
    9fe0:	e92d4010 	push	{r4, lr}
    9fe4:	e1a04000 	mov	r4, r0
    9fe8:	e59f0014 	ldr	r0, [pc, #20]	; a004 <gpio_read+0x24>
    9fec:	e08002a4 	add	r0, r0, r4, lsr #5
    9ff0:	ebfff80d 	bl	802c <GET32>
    9ff4:	e204401f 	and	r4, r4, #31, 0
    9ff8:	e1a00430 	lsr	r0, r0, r4
    9ffc:	e2000001 	and	r0, r0, #1, 0
    a000:	e8bd8010 	pop	{r4, pc}
    a004:	20200034 	eorcs	r0, r0, r4, lsr r0

0000a008 <internal_putchar>:
    a008:	e92d4010 	push	{r4, lr}
    a00c:	e1a04000 	mov	r4, r0
    a010:	ebfffe84 	bl	9a28 <uart_putc>
    a014:	e1a00004 	mov	r0, r4
    a018:	e8bd8010 	pop	{r4, pc}

0000a01c <rpi_reset_putc>:
    a01c:	e59f3008 	ldr	r3, [pc, #8]	; a02c <rpi_reset_putc+0x10>
    a020:	e59f2008 	ldr	r2, [pc, #8]	; a030 <rpi_reset_putc+0x14>
    a024:	e5832000 	str	r2, [r3]
    a028:	e12fff1e 	bx	lr
    a02c:	0000a9bc 			; <UNDEFINED> instruction: 0x0000a9bc
    a030:	0000a008 	andeq	sl, r0, r8

0000a034 <rpi_set_putc>:
    a034:	e59f3004 	ldr	r3, [pc, #4]	; a040 <rpi_set_putc+0xc>
    a038:	e5830000 	str	r0, [r3]
    a03c:	e12fff1e 	bx	lr
    a040:	0000a9bc 			; <UNDEFINED> instruction: 0x0000a9bc

0000a044 <strcat>:
    a044:	e1a02000 	mov	r2, r0
    a048:	e1a03002 	mov	r3, r2
    a04c:	e4d2c001 	ldrb	ip, [r2], #1
    a050:	e35c0000 	cmp	ip, #0, 0
    a054:	1afffffb 	bne	a048 <strcat+0x4>
    a058:	e2433001 	sub	r3, r3, #1, 0
    a05c:	e4d12001 	ldrb	r2, [r1], #1
    a060:	e3520000 	cmp	r2, #0, 0
    a064:	e5e32001 	strb	r2, [r3, #1]!
    a068:	1afffffb 	bne	a05c <strcat+0x18>
    a06c:	e12fff1e 	bx	lr

0000a070 <strcmp>:
    a070:	e5d03000 	ldrb	r3, [r0]
    a074:	e3530000 	cmp	r3, #0, 0
    a078:	05d12000 	ldrbeq	r2, [r1]
    a07c:	1a000003 	bne	a090 <strcmp+0x20>
    a080:	ea000006 	b	a0a0 <strcmp+0x30>
    a084:	e5f03001 	ldrb	r3, [r0, #1]!
    a088:	e3530000 	cmp	r3, #0, 0
    a08c:	0a000005 	beq	a0a8 <strcmp+0x38>
    a090:	e1a0c001 	mov	ip, r1
    a094:	e4d12001 	ldrb	r2, [r1], #1
    a098:	e1520003 	cmp	r2, r3
    a09c:	0afffff8 	beq	a084 <strcmp+0x14>
    a0a0:	e0430002 	sub	r0, r3, r2
    a0a4:	e12fff1e 	bx	lr
    a0a8:	e5dc2001 	ldrb	r2, [ip, #1]
    a0ac:	e0430002 	sub	r0, r3, r2
    a0b0:	e12fff1e 	bx	lr

0000a0b4 <strcpy>:
    a0b4:	e2402001 	sub	r2, r0, #1, 0
    a0b8:	e4d13001 	ldrb	r3, [r1], #1
    a0bc:	e3530000 	cmp	r3, #0, 0
    a0c0:	e5e23001 	strb	r3, [r2, #1]!
    a0c4:	1afffffb 	bne	a0b8 <strcpy+0x4>
    a0c8:	e12fff1e 	bx	lr

0000a0cc <strncmp>:
    a0cc:	e0802002 	add	r2, r0, r2
    a0d0:	ea000003 	b	a0e4 <strncmp+0x18>
    a0d4:	e4d03001 	ldrb	r3, [r0], #1
    a0d8:	e4d1c001 	ldrb	ip, [r1], #1
    a0dc:	e153000c 	cmp	r3, ip
    a0e0:	1a000003 	bne	a0f4 <strncmp+0x28>
    a0e4:	e1500002 	cmp	r0, r2
    a0e8:	1afffff9 	bne	a0d4 <strncmp+0x8>
    a0ec:	e3a00000 	mov	r0, #0, 0
    a0f0:	e12fff1e 	bx	lr
    a0f4:	e043000c 	sub	r0, r3, ip
    a0f8:	e12fff1e 	bx	lr

0000a0fc <reboot_callout>:
    a0fc:	e12fff1e 	bx	lr

0000a100 <dev_barrier>:
    a100:	ea000002 	b	a110 <dsb>

0000a104 <dmb>:
    a104:	e3a00000 	mov	r0, #0, 0
    a108:	ee070fba 	mcr	15, 0, r0, cr7, cr10, {5}
    a10c:	e12fff1e 	bx	lr

0000a110 <dsb>:
    a110:	ee070f9a 	mcr	15, 0, r0, cr7, cr10, {4}
    a114:	e12fff1e 	bx	lr

Disassembly of section .rodata:

0000a118 <__FUNCTION__.4030-0xa8>:
    a118:	74736574 	ldrbtvc	r6, [r3], #-1396	; 0xfffffa8c
    a11c:	2e322d73 	mrccs	13, 1, r2, cr2, cr3, {3}
    a120:	61702f30 	cmnvs	r0, r0, lsr pc
    a124:	2d327472 	cfldrscs	mvf7, [r2, #-456]!	; 0xfffffe38
    a128:	74736574 	ldrbtvc	r6, [r3], #-1396	; 0xfffffa8c
    a12c:	6f6e2d34 	svcvs	0x006e2d34
    a130:	61656c2d 	cmnvs	r5, sp, lsr #24
    a134:	00632e6b 	rsbeq	r2, r3, fp, ror #28
    a138:	494e4150 	stmdbmi	lr, {r4, r6, r8, lr}^
    a13c:	73253a43 			; <UNDEFINED> instruction: 0x73253a43
    a140:	3a73253a 	bcc	1cd3630 <__bss_end__+0x1cc8848>
    a144:	253a6425 	ldrcs	r6, [sl, #-1061]!	; 0xfffffbdb
    a148:	00000a73 	andeq	r0, r0, r3, ror sl
    a14c:	3e2d6821 	cdpcc	8, 2, cr6, cr13, cr1, {1}
    a150:	76657270 			; <UNDEFINED> instruction: 0x76657270
    a154:	00000000 	andeq	r0, r0, r0
    a158:	74204347 	strtvc	r4, [r0], #-839	; 0xfffffcb9
    a15c:	3a747365 	bcc	1d26ef8 <__bss_end__+0x1d1c110>
    a160:	65686320 	strbvs	r6, [r8, #-800]!	; 0xfffffce0
    a164:	6e696b63 	vnmulvs.f64	d22, d9, d19
    a168:	68742067 	ldmdavs	r4!, {r0, r1, r2, r5, r6, sp}^
    a16c:	61207461 			; <UNDEFINED> instruction: 0x61207461
    a170:	756f6420 	strbvc	r6, [pc, #-1056]!	; 9d58 <kmalloc_aligned+0x78>
    a174:	2d796c62 	ldclcs	12, cr6, [r9, #-392]!	; 0xfffffe78
    a178:	6b6e696c 	blvs	1ba4730 <__bss_end__+0x1b99948>
    a17c:	6c206465 	cfstrsvs	mvf6, [r0], #-404	; 0xfffffe6c
    a180:	20747369 	rsbscs	r7, r4, r9, ror #6
    a184:	68207369 	stmdavs	r0!, {r0, r3, r5, r6, r8, r9, ip, sp, lr}
    a188:	6c646e61 	stclvs	14, cr6, [r4], #-388	; 0xfffffe7c
    a18c:	0a2e6465 	beq	ba3328 <__bss_end__+0xb98540>
    a190:	00000000 	andeq	r0, r0, r0
    a194:	43415254 	movtmi	r5, #4692	; 0x1254
    a198:	616c3a45 	cmnvs	ip, r5, asr #20
    a19c:	61207473 			; <UNDEFINED> instruction: 0x61207473
    a1a0:	636f6c6c 	cmnvs	pc, #108, 24	; 0x6c00
    a1a4:	62203d20 	eorvs	r3, r0, #32, 26	; 0x800
    a1a8:	6b636f6c 	blvs	18e5f60 <__bss_end__+0x18db178>
    a1ac:	3d646920 			; <UNDEFINED> instruction: 0x3d646920
    a1b0:	5b207525 	blpl	82764c <__bss_end__+0x81c864>
    a1b4:	72646461 	rsbvc	r6, r4, #1627389952	; 0x61000000
    a1b8:	5d70253d 	cfldr64pl	mvdx2, [r0, #-244]!	; 0xffffff0c
    a1bc:	0000000a 	andeq	r0, r0, sl

0000a1c0 <__FUNCTION__.4030>:
    a1c0:	74736574 	ldrbtvc	r6, [r3], #-1396	; 0xfffffa8c
    a1c4:	00000000 	andeq	r0, r0, r0
    a1c8:	6e756f66 	cdpvs	15, 7, cr6, cr5, cr6, {3}
    a1cc:	70252064 	eorvc	r2, r5, r4, rrx
    a1d0:	206e6920 	rsbcs	r6, lr, r0, lsr #18
    a1d4:	000a7025 	andeq	r7, sl, r5, lsr #32
    a1d8:	253a7325 	ldrcs	r7, [sl, #-805]!	; 0xfffffcdb
    a1dc:	64253a73 	strtvs	r3, [r5], #-2675	; 0xfffff58d
    a1e0:	0000003a 	andeq	r0, r0, sl, lsr r0
    a1e4:	65657266 	strbvs	r7, [r5, #-614]!	; 0xfffffd9a
    a1e8:	20676e69 	rsbcs	r6, r7, r9, ror #28
    a1ec:	0a702509 	beq	1c13618 <__bss_end__+0x1c08830>
    a1f0:	00000000 	andeq	r0, r0, r0
    a1f4:	5f434f4c 	svcpl	0x00434f4c
    a1f8:	494e4150 	stmdbmi	lr, {r4, r6, r8, lr}^
    a1fc:	25203a43 	strcs	r3, [r0, #-2627]!	; 0xfffff5bd
    a200:	73253a73 			; <UNDEFINED> instruction: 0x73253a73
    a204:	3a64253a 	bcc	19136f4 <__bss_end__+0x190890c>
    a208:	00000000 	andeq	r0, r0, r0
    a20c:	65657266 	strbvs	r7, [r5, #-614]!	; 0xfffffd9a
    a210:	20676e69 	rsbcs	r6, r7, r9, ror #28
    a214:	6c616e75 	stclvs	14, cr6, [r1], #-468	; 0xfffffe2c
    a218:	61636f6c 	cmnvs	r3, ip, ror #30
    a21c:	20646574 	rsbcs	r6, r4, r4, ror r5
    a220:	6f6d656d 	svcvs	0x006d656d
    a224:	203a7972 	eorscs	r7, sl, r2, ror r9
    a228:	74617473 	strbtvc	r7, [r1], #-1139	; 0xfffffb8d
    a22c:	64253d65 	strtvs	r3, [r5], #-3429	; 0xfffff29b
    a230:	0000000a 	andeq	r0, r0, sl
    a234:	6c616b63 			; <UNDEFINED> instruction: 0x6c616b63
    a238:	2e636f6c 	cdpcs	15, 6, cr6, cr3, cr12, {3}
    a23c:	00000063 	andeq	r0, r0, r3, rrx
    a240:	494e4150 	stmdbmi	lr, {r4, r6, r8, lr}^
    a244:	73253a43 			; <UNDEFINED> instruction: 0x73253a43
    a248:	3a73253a 	bcc	1cd3738 <__bss_end__+0x1cc8950>
    a24c:	643a6425 	ldrtvs	r6, [sl], #-1061	; 0xfffffbdb
    a250:	6e206469 	cdpvs	4, 2, cr6, cr0, cr9, {3}
    a254:	6620746f 	strtvs	r7, [r0], -pc, ror #8
    a258:	20646e69 	rsbcs	r6, r4, r9, ror #28
    a25c:	69207025 	stmdbvs	r0!, {r0, r2, r5, ip, sp, lr}
    a260:	696c206e 	stmdbvs	ip!, {r1, r2, r3, r5, r6, sp}^
    a264:	0a0a7473 	beq	2a7438 <__bss_end__+0x29c650>
    a268:	00000000 	andeq	r0, r0, r0
    a26c:	705f6b63 	subsvc	r6, pc, r3, ror #22
    a270:	695f7274 	ldmdbvs	pc, {r2, r4, r5, r6, r9, ip, sp, lr}^	; <UNPREDICTABLE>
    a274:	6c615f73 	stclvs	15, cr5, [r1], #-460	; 0xfffffe34
    a278:	65636f6c 	strbvs	r6, [r3, #-3948]!	; 0xfffff094
    a27c:	64612864 	strbtvs	r2, [r1], #-2148	; 0xfffff79c
    a280:	00297264 	eoreq	r7, r9, r4, ror #4
    a284:	6f6c6c61 	svcvs	0x006c6c61
    a288:	69746163 	ldmdbvs	r4!, {r0, r1, r5, r6, r8, sp, lr}^
    a28c:	2520676e 	strcs	r6, [r0, #-1902]!	; 0xfffff892
    a290:	25282070 	strcs	r2, [r8, #-112]!	; 0xffffff90
    a294:	79622064 	stmdbvc	r2!, {r2, r5, r6, sp}^
    a298:	29736574 	ldmdbcs	r3!, {r2, r4, r5, r6, r8, sl, sp, lr}^
    a29c:	0000000a 	andeq	r0, r0, sl

0000a2a0 <__FUNCTION__.4058>:
    a2a0:	7473696c 	ldrbtvc	r6, [r3], #-2412	; 0xfffff694
    a2a4:	6d65725f 	sfmvs	f7, 2, [r5, #-380]!	; 0xfffffe84
    a2a8:	0065766f 	rsbeq	r7, r5, pc, ror #12

0000a2ac <__FUNCTION__.4069>:
    a2ac:	72666b63 	rsbvc	r6, r6, #101376	; 0x18c00
    a2b0:	00006565 	andeq	r6, r0, r5, ror #10
    a2b4:	75716552 	ldrbvc	r6, [r1, #-1362]!	; 0xfffffaae
    a2b8:	74737265 	ldrbtvc	r7, [r3], #-613	; 0xfffffd9b
    a2bc:	20676e69 	rsbcs	r6, r7, r9, ror #28
    a2c0:	65726f6d 	ldrbvs	r6, [r2, #-3949]!	; 0xfffff093
    a2c4:	6d656d20 	stclvs	13, cr6, [r5, #-128]!	; 0xffffff80
    a2c8:	2079726f 	rsbscs	r7, r9, pc, ror #4
    a2cc:	29642528 	stmdbcs	r4!, {r3, r5, r8, sl, sp}^
    a2d0:	0a2e2e2e 	beq	b95b90 <__bss_end__+0xb8ada8>
    a2d4:	00000000 	andeq	r0, r0, r0
    a2d8:	672d6b63 	strvs	r6, [sp, -r3, ror #22]!
    a2dc:	00632e63 	rsbeq	r2, r3, r3, ror #28
    a2e0:	203c2070 	eorscs	r2, ip, r0, ror r0
    a2e4:	00000065 	andeq	r0, r0, r5, rrx
    a2e8:	67696c61 	strbvs	r6, [r9, -r1, ror #24]!
    a2ec:	2864656e 	stmdacs	r4!, {r1, r2, r3, r5, r6, r8, sl, sp, lr}^
    a2f0:	34202c70 	strtcc	r2, [r0], #-3184	; 0xfffff390
    a2f4:	00000029 	andeq	r0, r0, r9, lsr #32
    a2f8:	67696c61 	strbvs	r6, [r9, -r1, ror #24]!
    a2fc:	2864656e 	stmdacs	r4!, {r1, r2, r3, r5, r6, r8, sl, sp, lr}^
    a300:	34202c65 	strtcc	r2, [r0], #-3173	; 0xfffff39b
    a304:	00000029 	andeq	r0, r0, r9, lsr #32
    a308:	6e696f67 	cdpvs	15, 6, cr6, cr9, cr7, {3}
    a30c:	6f742067 	svcvs	0x00742067
    a310:	72616d20 	rsbvc	r6, r1, #32, 26	; 0x800
    a314:	7025206b 	eorvc	r2, r5, fp, rrx
    a318:	20692820 	rsbcs	r2, r9, r0, lsr #16
    a31c:	70252040 	eorvc	r2, r5, r0, asr #32
    a320:	25203d20 	strcs	r3, [r0, #-3360]!	; 0xfffff2e0
    a324:	202c2970 	eorcs	r2, ip, r0, ror r9
    a328:	20707865 	rsbscs	r7, r0, r5, ror #16
    a32c:	7025203d 	eorvc	r2, r5, sp, lsr r0
    a330:	0000000a 	andeq	r0, r0, sl
    a334:	6b72616d 	blvs	1ca28f0 <__bss_end__+0x1c97b08>
    a338:	20676e69 	rsbcs	r6, r7, r9, ror #28
    a33c:	25207361 	strcs	r7, [r0, #-865]!	; 0xfffffc9f
    a340:	00000a64 	andeq	r0, r0, r4, ror #20
    a344:	20746f6e 	rsbscs	r6, r4, lr, ror #30
    a348:	6b72616d 	blvs	1ca2904 <__bss_end__+0x1c97b1c>
    a34c:	21676e69 	cmncs	r7, r9, ror #28
    a350:	0000000a 	andeq	r0, r0, sl
    a354:	63656863 	cmnvs	r5, #6488064	; 0x630000
    a358:	676e696b 	strbvs	r6, [lr, -fp, ror #18]!
    a35c:	61747320 	cmnvs	r4, r0, lsr #6
    a360:	203a6b63 	eorscs	r6, sl, r3, ror #22
    a364:	74207025 	strtvc	r7, [r0], #-37	; 0xffffffdb
    a368:	7025206f 	eorvc	r2, r5, pc, rrx
    a36c:	0000000a 	andeq	r0, r0, sl
    a370:	2d2d2d2d 	stccs	13, cr2, [sp, #-180]!	; 0xffffff4c
    a374:	2d2d2d2d 	stccs	13, cr2, [sp, #-180]!	; 0xffffff4c
    a378:	2d2d2d2d 	stccs	13, cr2, [sp, #-180]!	; 0xffffff4c
    a37c:	2d2d2d2d 	stccs	13, cr2, [sp, #-180]!	; 0xffffff4c
    a380:	2d2d2d2d 	stccs	13, cr2, [sp, #-180]!	; 0xffffff4c
    a384:	2d2d2d2d 	stccs	13, cr2, [sp, #-180]!	; 0xffffff4c
    a388:	2d2d2d2d 	stccs	13, cr2, [sp, #-180]!	; 0xffffff4c
    a38c:	2d2d2d2d 	stccs	13, cr2, [sp, #-180]!	; 0xffffff4c
    a390:	2d2d2d2d 	stccs	13, cr2, [sp, #-180]!	; 0xffffff4c
    a394:	2d2d2d2d 	stccs	13, cr2, [sp, #-180]!	; 0xffffff4c
    a398:	2d2d2d2d 	stccs	13, cr2, [sp, #-180]!	; 0xffffff4c
    a39c:	2d2d2d2d 	stccs	13, cr2, [sp, #-180]!	; 0xffffff4c
    a3a0:	2d2d2d2d 	stccs	13, cr2, [sp, #-180]!	; 0xffffff4c
    a3a4:	2d2d2d2d 	stccs	13, cr2, [sp, #-180]!	; 0xffffff4c
    a3a8:	00000a2d 	andeq	r0, r0, sp, lsr #20
    a3ac:	63656863 	cmnvs	r5, #6488064	; 0x630000
    a3b0:	676e696b 	strbvs	r6, [lr, -fp, ror #18]!
    a3b4:	726f6620 	rsbvc	r6, pc, #32, 12	; 0x2000000
    a3b8:	61656c20 	cmnvs	r5, r0, lsr #24
    a3bc:	0a3a736b 	beq	ea7170 <__bss_end__+0xe9c388>
    a3c0:	00000000 	andeq	r0, r0, r0
    a3c4:	4c3a4347 	ldcmi	3, cr4, [sl], #-284	; 0xfffffee4
    a3c8:	2054534f 	subscs	r5, r4, pc, asr #6
    a3cc:	2d206425 	cfstrscs	mvf6, [r0, #-148]!	; 0xffffff6c
    a3d0:	7025203e 	eorvc	r2, r5, lr, lsr r0
    a3d4:	0000000a 	andeq	r0, r0, sl
    a3d8:	4d3a4347 	ldcmi	3, cr4, [sl, #-284]!	; 0xfffffee4
    a3dc:	45425941 	strbmi	r5, [r2, #-2369]	; 0xfffff6bf
    a3e0:	534f4c20 	movtpl	r4, #64544	; 0xfc20
    a3e4:	64252054 	strtvs	r2, [r5], #-84	; 0xffffffac
    a3e8:	203e2d20 	eorscs	r2, lr, r0, lsr #26
    a3ec:	000a7025 	andeq	r7, sl, r5, lsr #32
    a3f0:	43415254 	movtmi	r5, #4692	; 0x1254
    a3f4:	47093a45 	strmi	r3, [r9, -r5, asr #20]
    a3f8:	68433a43 	stmdavs	r3, {r0, r1, r6, r9, fp, ip, sp}^
    a3fc:	656b6365 	strbvs	r6, [fp, #-869]!	; 0xfffffc9b
    a400:	64252064 	strtvs	r2, [r5], #-100	; 0xffffff9c
    a404:	6f6c6220 	svcvs	0x006c6220
    a408:	2e736b63 	vsubcs.f64	d22, d3, d19
    a40c:	0000000a 	andeq	r0, r0, sl
    a410:	43415254 	movtmi	r5, #4692	; 0x1254
    a414:	09093a45 	stmdbeq	r9, {r0, r2, r6, r9, fp, ip, sp}
    a418:	533a4347 	teqpl	sl, #469762049	; 0x1c000001
    a41c:	45434355 	strbmi	r4, [r3, #-853]	; 0xfffffcab
    a420:	203a5353 	eorscs	r5, sl, r3, asr r3
    a424:	6c206f4e 	stcvs	15, cr6, [r0], #-312	; 0xfffffec8
    a428:	736b6165 	cmnvc	fp, #1073741849	; 0x40000019
    a42c:	756f6620 	strbvc	r6, [pc, #-1568]!	; 9e14 <kfree_pop+0x4>
    a430:	0a21646e 	beq	8635f0 <__bss_end__+0x858808>
    a434:	00000000 	andeq	r0, r0, r0
    a438:	43415254 	movtmi	r5, #4692	; 0x1254
    a43c:	09093a45 	stmdbeq	r9, {r0, r2, r6, r9, fp, ip, sp}
    a440:	453a4347 	ldrmi	r4, [sl, #-839]!	; 0xfffffcb9
    a444:	524f5252 	subpl	r5, pc, #536870917	; 0x20000005
    a448:	25203a53 	strcs	r3, [r0, #-2643]!	; 0xfffff5ad
    a44c:	72652064 	rsbvc	r2, r5, #100, 0	; 0x64
    a450:	73726f72 	cmnvc	r2, #456	; 0x1c8
    a454:	6425202c 	strtvs	r2, [r5], #-44	; 0xffffffd4
    a458:	79616d20 	stmdbvc	r1!, {r5, r8, sl, fp, sp, lr}^
    a45c:	655f6562 	ldrbvs	r6, [pc, #-1378]	; 9f02 <gpio_set_output+0x32>
    a460:	726f7272 	rsbvc	r7, pc, #536870919	; 0x20000007
    a464:	00000a73 	andeq	r0, r0, r3, ror sl
    a468:	2d2d2d2d 	stccs	13, cr2, [sp, #-180]!	; 0xffffff4c
    a46c:	2d2d2d2d 	stccs	13, cr2, [sp, #-180]!	; 0xffffff4c
    a470:	2d2d2d2d 	stccs	13, cr2, [sp, #-180]!	; 0xffffff4c
    a474:	2d2d2d2d 	stccs	13, cr2, [sp, #-180]!	; 0xffffff4c
    a478:	2d2d2d2d 	stccs	13, cr2, [sp, #-180]!	; 0xffffff4c
    a47c:	2d2d2d2d 	stccs	13, cr2, [sp, #-180]!	; 0xffffff4c
    a480:	2d2d2d2d 	stccs	13, cr2, [sp, #-180]!	; 0xffffff4c
    a484:	2d2d2d2d 	stccs	13, cr2, [sp, #-180]!	; 0xffffff4c
    a488:	2d2d2d2d 	stccs	13, cr2, [sp, #-180]!	; 0xffffff4c
    a48c:	2d2d2d2d 	stccs	13, cr2, [sp, #-180]!	; 0xffffff4c
    a490:	2d2d2d2d 	stccs	13, cr2, [sp, #-180]!	; 0xffffff4c
    a494:	2d2d2d2d 	stccs	13, cr2, [sp, #-180]!	; 0xffffff4c
    a498:	2d2d2d2d 	stccs	13, cr2, [sp, #-180]!	; 0xffffff4c
    a49c:	2d2d2d2d 	stccs	13, cr2, [sp, #-180]!	; 0xffffff4c
    a4a0:	000a2d2d 	andeq	r2, sl, sp, lsr #26
    a4a4:	72636e69 	rsbvc	r6, r3, #1680	; 0x690
    a4a8:	6e656d65 	cdpvs	13, 6, cr6, cr5, cr5, {3}
    a4ac:	203e2074 	eorscs	r2, lr, r4, ror r0
    a4b0:	00000030 	andeq	r0, r0, r0, lsr r0
    a4b4:	494e4150 	stmdbmi	lr, {r4, r6, r8, lr}^
    a4b8:	73253a43 			; <UNDEFINED> instruction: 0x73253a43
    a4bc:	3a73253a 	bcc	1cd39ac <__bss_end__+0x1cc8bc4>
    a4c0:	6e3a6425 	cdpvs	4, 3, cr6, cr10, cr5, {1}
    a4c4:	6820746f 	stmdavs	r0!, {r0, r1, r2, r3, r5, r6, sl, ip, sp, lr}
    a4c8:	6c646e61 	stclvs	14, cr6, [r4], #-388	; 0xfffffe7c
    a4cc:	0a676e69 	beq	19e5e78 <__bss_end__+0x19db090>
    a4d0:	0000000a 	andeq	r0, r0, sl
    a4d4:	494e4150 	stmdbmi	lr, {r4, r6, r8, lr}^
    a4d8:	73253a43 			; <UNDEFINED> instruction: 0x73253a43
    a4dc:	3a73253a 	bcc	1cd39cc <__bss_end__+0x1cc8be4>
    a4e0:	473a6425 	ldrmi	r6, [sl, -r5, lsr #8]!
    a4e4:	73203a43 			; <UNDEFINED> instruction: 0x73203a43
    a4e8:	6c756f68 	ldclvs	15, cr6, [r5], #-416	; 0xfffffe60
    a4ec:	61682064 	cmnvs	r8, r4, rrx
    a4f0:	6e206576 	mcrvs	5, 1, r6, cr0, cr6, {3}
    a4f4:	656c206f 	strbvs	r2, [ip, #-111]!	; 0xffffff91
    a4f8:	21736b61 	cmncs	r3, r1, ror #22
    a4fc:	00000a0a 	andeq	r0, r0, sl, lsl #20
    a500:	43415254 	movtmi	r5, #4692	; 0x1254
    a504:	43473a45 	movtmi	r3, #31301	; 0x7a45
    a508:	5553203a 	ldrbpl	r2, [r3, #-58]	; 0xffffffc6
    a50c:	53454343 	movtpl	r4, #21315	; 0x5343
    a510:	6e203a53 			; <UNDEFINED> instruction: 0x6e203a53
    a514:	656c206f 	strbvs	r2, [ip, #-111]!	; 0xffffff91
    a518:	21736b61 	cmncs	r3, r1, ror #22
    a51c:	0000000a 	andeq	r0, r0, sl
    a520:	494e4150 	stmdbmi	lr, {r4, r6, r8, lr}^
    a524:	73253a43 			; <UNDEFINED> instruction: 0x73253a43
    a528:	3a73253a 	bcc	1cd3a18 <__bss_end__+0x1cc8c30>
    a52c:	473a6425 	ldrmi	r6, [sl, -r5, lsr #8]!
    a530:	73203a43 			; <UNDEFINED> instruction: 0x73203a43
    a534:	6c756f68 	ldclvs	15, cr6, [r5], #-416	; 0xfffffe60
    a538:	61682064 	cmnvs	r8, r4, rrx
    a53c:	6c206576 	cfstr32vs	mvfx6, [r0], #-472	; 0xfffffe28
    a540:	736b6165 	cmnvc	fp, #1073741849	; 0x40000019
    a544:	000a0a21 	andeq	r0, sl, r1, lsr #20
    a548:	43415254 	movtmi	r5, #4692	; 0x1254
    a54c:	43473a45 	movtmi	r3, #31301	; 0x7a45
    a550:	5553203a 	ldrbpl	r2, [r3, #-58]	; 0xffffffc6
    a554:	53454343 	movtpl	r4, #21315	; 0x5343
    a558:	66203a53 			; <UNDEFINED> instruction: 0x66203a53
    a55c:	646e756f 	strbtvs	r7, [lr], #-1391	; 0xfffffa91
    a560:	20642520 	rsbcs	r2, r4, r0, lsr #10
    a564:	6b61656c 	blvs	1863b1c <__bss_end__+0x1858d34>
    a568:	000a2173 	andeq	r2, sl, r3, ror r1
    a56c:	706d6f63 	rsbvc	r6, sp, r3, ror #30
    a570:	69746361 	ldmdbvs	r4!, {r0, r5, r6, r8, r9, sp, lr}^
    a574:	0a3a676e 	beq	ea4334 <__bss_end__+0xe9954c>
    a578:	00000000 	andeq	r0, r0, r0
    a57c:	463a4347 	ldrtmi	r4, [sl], -r7, asr #6
    a580:	44454552 	strbmi	r4, [r5], #-1362	; 0xfffffaae
    a584:	0a702520 	beq	1c13a0c <__bss_end__+0x1c08c24>
    a588:	00000000 	andeq	r0, r0, r0
    a58c:	43415254 	movtmi	r5, #4692	; 0x1254
    a590:	47093a45 	strmi	r3, [r9, -r5, asr #20]
    a594:	68433a43 	stmdavs	r3, {r0, r1, r6, r9, fp, ip, sp}^
    a598:	656b6365 	strbvs	r6, [fp, #-869]!	; 0xfffffc9b
    a59c:	64252064 	strtvs	r2, [r5], #-100	; 0xffffff9c
    a5a0:	6f6c6220 	svcvs	0x006c6220
    a5a4:	2c736b63 			; <UNDEFINED> instruction: 0x2c736b63
    a5a8:	65726620 	ldrbvs	r6, [r2, #-1568]!	; 0xfffff9e0
    a5ac:	25206465 	strcs	r6, [r0, #-1125]!	; 0xfffffb9b
    a5b0:	25202c64 	strcs	r2, [r0, #-3172]!	; 0xfffff39c
    a5b4:	79622064 	stmdbvc	r2!, {r2, r5, r6, sp}^
    a5b8:	0a736574 	beq	1ce3b90 <__bss_end__+0x1cd8da8>
    a5bc:	00000000 	andeq	r0, r0, r0
    a5c0:	494e4150 	stmdbmi	lr, {r4, r6, r8, lr}^
    a5c4:	73253a43 			; <UNDEFINED> instruction: 0x73253a43
    a5c8:	3a73253a 	bcc	1cd3ab8 <__bss_end__+0x1cc8cd0>
    a5cc:	643a6425 	ldrtvs	r6, [sl], #-1061	; 0xfffffbdb
    a5d0:	6e206469 	cdpvs	4, 2, cr6, cr0, cr9, {3}
    a5d4:	6920746f 	stmdbvs	r0!, {r0, r1, r2, r3, r5, r6, sl, ip, sp, lr}
    a5d8:	656c706d 	strbvs	r7, [ip, #-109]!	; 0xffffff93
    a5dc:	746e656d 	strbtvc	r6, [lr], #-1389	; 0xfffffa93
    a5e0:	6d756420 	cfldrdvs	mvd6, [r5, #-128]!	; 0xffffff80
    a5e4:	65725f70 	ldrbvs	r5, [r2, #-3952]!	; 0xfffff090
    a5e8:	0a217367 	beq	86738c <__bss_end__+0x85c5a4>
    a5ec:	0000000a 	andeq	r0, r0, sl

0000a5f0 <__FUNCTION__.4045>:
    a5f0:	6b72616d 	blvs	1ca2bac <__bss_end__+0x1c97dc4>
    a5f4:	00000000 	andeq	r0, r0, r0

0000a5f8 <__FUNCTION__.4032>:
    a5f8:	6b726273 	blvs	1ca2fcc <__bss_end__+0x1c981e4>
    a5fc:	00000000 	andeq	r0, r0, r0

0000a600 <__FUNCTION__.4088>:
    a600:	63656863 	cmnvs	r5, #6488064	; 0x630000
    a604:	6f6e5f6b 	svcvs	0x006e5f6b
    a608:	61656c5f 	cmnvs	r5, pc, asr ip
    a60c:	0000006b 	andeq	r0, r0, fp, rrx

0000a610 <__FUNCTION__.4093>:
    a610:	63656863 	cmnvs	r5, #6488064	; 0x630000
    a614:	68735f6b 	ldmdavs	r3!, {r0, r1, r3, r5, r6, r8, r9, sl, fp, ip, lr}^
    a618:	646c756f 	strbtvs	r7, [ip], #-1391	; 0xfffffa91
    a61c:	61656c5f 	cmnvs	r5, pc, asr ip
    a620:	0000006b 	andeq	r0, r0, fp, rrx

0000a624 <__FUNCTION__.4101>:
    a624:	65657773 	strbvs	r7, [r5, #-1907]!	; 0xfffff88d
    a628:	72665f70 	rsbvc	r5, r6, #112, 30	; 0x1c0
    a62c:	00006565 	andeq	r6, r0, r5, ror #10

0000a630 <__FUNCTION__.4112>:
    a630:	6c706d69 	ldclvs	13, cr6, [r0], #-420	; 0xfffffe5c
    a634:	6e656d65 	cdpvs	13, 6, cr6, cr5, cr5, {3}
    a638:	68745f74 	ldmdavs	r4!, {r2, r4, r5, r6, r8, r9, sl, fp, ip, lr}^
    a63c:	00007369 	andeq	r7, r0, r9, ror #6
    a640:	696c2f2e 	stmdbvs	ip!, {r1, r2, r3, r5, r8, r9, sl, fp, sp}^
    a644:	762f6362 	strtvc	r6, [pc], -r2, ror #6
    a648:	72702d61 	rsbsvc	r2, r0, #6208	; 0x1840
    a64c:	6b746e69 	blvs	1d25ff8 <__bss_end__+0x1d1b210>
    a650:	0000632e 	andeq	r6, r0, lr, lsr #6
    a654:	33323130 	teqcc	r2, #12
    a658:	37363534 			; <UNDEFINED> instruction: 0x37363534
    a65c:	62613938 	rsbvs	r3, r1, #56, 18	; 0xe0000
    a660:	66656463 	strbtvs	r6, [r5], -r3, ror #8
    a664:	00000000 	andeq	r0, r0, r0
    a668:	00003130 	andeq	r3, r0, r0, lsr r1
    a66c:	33323130 	teqcc	r2, #12
    a670:	37363534 			; <UNDEFINED> instruction: 0x37363534
    a674:	00003938 	andeq	r3, r0, r8, lsr r9
    a678:	63747570 	cmnvs	r4, #112, 10	; 0x1c000000
    a67c:	0070665f 	rsbseq	r6, r0, pc, asr r6
    a680:	74646977 	strbtvc	r6, [r4], #-2423	; 0xfffff689
    a684:	203c2068 	eorscs	r2, ip, r8, rrx
    a688:	00003233 	andeq	r3, r0, r3, lsr r2
    a68c:	00786c6c 	rsbseq	r6, r8, ip, ror #24
    a690:	253d3078 	ldrcs	r3, [sp, #-120]!	; 0xffffff88
    a694:	00000a78 	andeq	r0, r0, r8, ror sl
    a698:	253d3178 	ldrcs	r3, [sp, #-376]!	; 0xfffffe88
    a69c:	00000a78 	andeq	r0, r0, r8, ror sl
    a6a0:	00646c6c 	rsbeq	r6, r4, ip, ror #24
    a6a4:	6e727473 	mrcvs	4, 3, r7, cr2, cr3, {3}
    a6a8:	28706d63 	ldmdacs	r0!, {r0, r1, r5, r6, r8, sl, fp, sp, lr}^
    a6ac:	202c7974 	eorcs	r7, ip, r4, ror r9
    a6b0:	786c6c22 	stmdavc	ip!, {r1, r5, sl, fp, sp, lr}^
    a6b4:	33202c22 			; <UNDEFINED> instruction: 0x33202c22
    a6b8:	3d3d2029 	ldccc	0, cr2, [sp, #-164]!	; 0xffffff5c
    a6bc:	7c203020 	stcvc	0, cr3, [r0], #-128	; 0xffffff80
    a6c0:	7473207c 	ldrbtvc	r2, [r3], #-124	; 0xffffff84
    a6c4:	6d636e72 	stclvs	14, cr6, [r3, #-456]!	; 0xfffffe38
    a6c8:	79742870 	ldmdbvc	r4!, {r4, r5, r6, fp, sp}^
    a6cc:	6c22202c 	stcvs	0, cr2, [r2], #-176	; 0xffffff50
    a6d0:	2c22646c 	cfstrscs	mvf6, [r2], #-432	; 0xfffffe50
    a6d4:	20293320 	eorcs	r3, r9, r0, lsr #6
    a6d8:	30203d3d 	eorcc	r3, r0, sp, lsr sp
    a6dc:	00000000 	andeq	r0, r0, r0
    a6e0:	494e4150 	stmdbmi	lr, {r4, r6, r8, lr}^
    a6e4:	73253a43 			; <UNDEFINED> instruction: 0x73253a43
    a6e8:	3a73253a 	bcc	1cd3bd8 <__bss_end__+0x1cc8df0>
    a6ec:	693a6425 	ldmdbvs	sl!, {r0, r2, r5, sl, sp, lr}
    a6f0:	736f706d 	cmnvc	pc, #109, 0	; 0x6d
    a6f4:	6c626973 			; <UNDEFINED> instruction: 0x6c626973
    a6f8:	66203a65 	strtvs	r3, [r0], -r5, ror #20
    a6fc:	3c3d746d 	cfldrscc	mvf7, [sp], #-436	; 0xfffffe4c
    a700:	0a3e7325 	beq	fa739c <__bss_end__+0xf9c5b4>
    a704:	0000000a 	andeq	r0, r0, sl
    a708:	494e4150 	stmdbmi	lr, {r4, r6, r8, lr}^
    a70c:	73253a43 			; <UNDEFINED> instruction: 0x73253a43
    a710:	3a73253a 	bcc	1cd3c00 <__bss_end__+0x1cc8e18>
    a714:	663a6425 	ldrtvs	r6, [sl], -r5, lsr #8
    a718:	74616f6c 	strbtvc	r6, [r1], #-3948	; 0xfffff094
    a71c:	746f6e20 	strbtvc	r6, [pc], #-3616	; a724 <__FUNCTION__.4112+0xf4>
    a720:	616e6520 	cmnvs	lr, r0, lsr #10
    a724:	64656c62 	strbtvs	r6, [r5], #-3170	; 0xfffff39e
    a728:	0a212121 	beq	852bb4 <__bss_end__+0x847dcc>
    a72c:	00000000 	andeq	r0, r0, r0
    a730:	6e697270 	mcrvs	2, 3, r7, cr9, cr0, {3}
    a734:	203a6b74 	eorscs	r6, sl, r4, ror fp
    a738:	20746f6e 	rsbscs	r6, r4, lr, ror #30
    a73c:	646e6168 	strbtvs	r6, [lr], #-360	; 0xfffffe98
    a740:	676e696c 	strbvs	r6, [lr, -ip, ror #18]!
    a744:	65707320 	ldrbvs	r7, [r0, #-800]!	; 0xfffffce0
    a748:	69666963 	stmdbvs	r6!, {r0, r1, r5, r6, r8, fp, sp, lr}^
    a74c:	27207265 	strcs	r7, [r0, -r5, ror #4]!
    a750:	20276325 	eorcs	r6, r7, r5, lsr #6
    a754:	63736128 	cmnvs	r3, #10
    a758:	253d6969 	ldrcs	r6, [sp, #-2409]!	; 0xfffff697
    a75c:	000a2964 	andeq	r2, sl, r4, ror #18
    a760:	494e4150 	stmdbmi	lr, {r4, r6, r8, lr}^
    a764:	73253a43 			; <UNDEFINED> instruction: 0x73253a43
    a768:	3a73253a 	bcc	1cd3c58 <__bss_end__+0x1cc8e70>
    a76c:	703a6425 	eorsvc	r6, sl, r5, lsr #8
    a770:	746e6972 	strbtvc	r6, [lr], #-2418	; 0xfffff68e
    a774:	7265206b 	rsbvc	r2, r5, #107, 0	; 0x6b
    a778:	0a726f72 	beq	1ca6548 <__bss_end__+0x1c9b760>
    a77c:	0000000a 	andeq	r0, r0, sl

0000a780 <__FUNCTION__.4004>:
    a780:	74696d65 	strbtvc	r6, [r9], #-3429	; 0xfffff29b
    a784:	00000000 	andeq	r0, r0, r0

0000a788 <__FUNCTION__.3952>:
    a788:	5f697072 	svcpl	0x00697072
    a78c:	5f746573 	svcpl	0x00746573
    a790:	7074756f 	rsbsvc	r7, r4, pc, ror #10
    a794:	00007475 	andeq	r7, r0, r5, ror r4

0000a798 <__FUNCTION__.4030>:
    a798:	705f6176 	subsvc	r6, pc, r6, ror r1	; <UNPREDICTABLE>
    a79c:	746e6972 	strbtvc	r6, [lr], #-2418	; 0xfffff68e
    a7a0:	0000006b 	andeq	r0, r0, fp, rrx
    a7a4:	454e4f44 	strbmi	r4, [lr, #-3908]	; 0xfffff0bc
    a7a8:	0a212121 	beq	852c34 <__bss_end__+0x847e4c>
    a7ac:	00000000 	andeq	r0, r0, r0
    a7b0:	6c616d6b 	stclvs	13, cr6, [r1], #-428	; 0xfffffe54
    a7b4:	2e636f6c 	cdpcs	15, 6, cr6, cr3, cr12, {3}
    a7b8:	00000063 	andeq	r0, r0, r3, rrx
    a7bc:	5f78616d 	svcpl	0x0078616d
    a7c0:	7479626e 	ldrbtvc	r6, [r9], #-622	; 0xfffffd92
    a7c4:	00007365 	andeq	r7, r0, r5, ror #6
    a7c8:	494e4150 	stmdbmi	lr, {r4, r6, r8, lr}^
    a7cc:	73253a43 			; <UNDEFINED> instruction: 0x73253a43
    a7d0:	3a73253a 	bcc	1cd3cc0 <__bss_end__+0x1cc8ed8>
    a7d4:	733a6425 	teqvc	sl, #620756992	; 0x25000000
    a7d8:	69747465 	ldmdbvs	r4!, {r0, r2, r5, r6, sl, ip, sp, lr}^
    a7dc:	6820676e 	stmdavs	r0!, {r1, r2, r3, r5, r6, r8, r9, sl, sp, lr}
    a7e0:	20706165 	rsbscs	r6, r0, r5, ror #2
    a7e4:	25206f74 	strcs	r6, [r0, #-3956]!	; 0xfffff08c
    a7e8:	77203a70 			; <UNDEFINED> instruction: 0x77203a70
    a7ec:	206c6c69 	rsbcs	r6, ip, r9, ror #24
    a7f0:	20746968 	rsbscs	r6, r4, r8, ror #18
    a7f4:	20656874 	rsbcs	r6, r5, r4, ror r8
    a7f8:	20646c6f 	rsbcs	r6, r4, pc, ror #24
    a7fc:	70616568 	rsbvc	r6, r1, r8, ror #10
    a800:	20746120 	rsbscs	r6, r4, r0, lsr #2
    a804:	0a0a7025 	beq	2a68a0 <__bss_end__+0x29bab8>
    a808:	00000000 	andeq	r0, r0, r0
    a80c:	494e4150 	stmdbmi	lr, {r4, r6, r8, lr}^
    a810:	73253a43 			; <UNDEFINED> instruction: 0x73253a43
    a814:	3a73253a 	bcc	1cd3d04 <__bss_end__+0x1cc8f1c>
    a818:	613a6425 	teqvs	sl, r5, lsr #8
    a81c:	6165726c 	cmnvs	r5, ip, ror #4
    a820:	63207964 			; <UNDEFINED> instruction: 0x63207964
    a824:	656c6c61 	strbvs	r6, [ip, #-3169]!	; 0xfffff39f
    a828:	6d6b2064 	stclvs	0, cr2, [fp, #-400]!	; 0xfffffe70
    a82c:	6f6c6c61 	svcvs	0x006c6c61
    a830:	6e695f63 	cdpvs	15, 6, cr5, cr9, cr3, {3}
    a834:	0a0a7469 	beq	2a79e0 <__bss_end__+0x29cbf8>
    a838:	00000000 	andeq	r0, r0, r0
    a83c:	494e4150 	stmdbmi	lr, {r4, r6, r8, lr}^
    a840:	73253a43 			; <UNDEFINED> instruction: 0x73253a43
    a844:	3a73253a 	bcc	1cd3d34 <__bss_end__+0x1cc8f4c>
    a848:	253a6425 	ldrcs	r6, [sl, #-1061]!	; 0xfffffbdb
    a84c:	626e2064 	rsbvs	r2, lr, #100, 0	; 0x64
    a850:	73657479 	cmnvc	r5, #2030043136	; 0x79000000
    a854:	63786520 	cmnvs	r8, #32, 10	; 0x8000000
    a858:	65646565 	strbvs	r6, [r4, #-1381]!	; 0xfffffa9b
    a85c:	69732064 	ldmdbvs	r3!, {r2, r5, r6, sp}^
    a860:	6f20657a 	svcvs	0x0020657a
    a864:	65682066 	strbvs	r2, [r8, #-102]!	; 0xffffff9a
    a868:	62207061 	eorvs	r7, r0, #97, 0	; 0x61
    a86c:	75252079 	strvc	r2, [r5, #-121]!	; 0xffffff87
    a870:	79626e20 	stmdbvc	r2!, {r5, r9, sl, fp, sp, lr}^
    a874:	0a736574 	beq	1ce3e4c <__bss_end__+0x1cd9064>
    a878:	0000000a 	andeq	r0, r0, sl
    a87c:	4f525245 	svcmi	0x00525245
    a880:	73253a52 			; <UNDEFINED> instruction: 0x73253a52
    a884:	3a73253a 	bcc	1cd3d74 <__bss_end__+0x1cc8f8c>
    a888:	203a6425 	eorscs	r6, sl, r5, lsr #8
    a88c:	534c4146 	movtpl	r4, #49478	; 0xc146
    a890:	253c2845 	ldrcs	r2, [ip, #-2117]!	; 0xfffff7bb
    a894:	3a293e73 	bcc	a5a268 <__bss_end__+0xa4f480>
    a898:	73736120 	cmnvc	r3, #8
    a89c:	6e696d75 	mcrvs	13, 3, r6, cr9, cr5, {3}
    a8a0:	6f702067 	svcvs	0x00702067
    a8a4:	20726577 	rsbscs	r6, r2, r7, ror r5
    a8a8:	7420666f 	strtvc	r6, [r0], #-1647	; 0xfffff991
    a8ac:	000a6f77 	andeq	r6, sl, r7, ror pc
    a8b0:	705f7369 	subsvc	r7, pc, r9, ror #6
    a8b4:	2832776f 	ldmdacs	r2!, {r0, r1, r2, r3, r5, r6, r8, r9, sl, ip, sp, lr}
    a8b8:	67696c61 	strbvs	r6, [r9, -r1, ror #24]!
    a8bc:	6e656d6e 	cdpvs	13, 6, cr6, cr5, cr14, {3}
    a8c0:	00002974 	andeq	r2, r0, r4, ror r9
    a8c4:	705f7369 	subsvc	r7, pc, r9, ror #6
    a8c8:	2832776f 	ldmdacs	r2!, {r0, r1, r2, r3, r5, r6, r8, r9, sl, ip, sp, lr}
    a8cc:	0000296e 	andeq	r2, r0, lr, ror #18
    a8d0:	4f525245 	svcmi	0x00525245
    a8d4:	73253a52 			; <UNDEFINED> instruction: 0x73253a52
    a8d8:	3a73253a 	bcc	1cd3dc8 <__bss_end__+0x1cc8fe0>
    a8dc:	203a6425 	eorscs	r6, sl, r5, lsr #8
    a8e0:	534c4146 	movtpl	r4, #49478	; 0xc146
    a8e4:	253c2845 	ldrcs	r2, [ip, #-2117]!	; 0xfffff7bb
    a8e8:	3a293e73 	bcc	a5a2bc <__bss_end__+0xa4f4d4>
    a8ec:	706d6920 	rsbvc	r6, sp, r0, lsr #18
    a8f0:	6973736f 	ldmdbvs	r3!, {r0, r1, r2, r3, r5, r6, r8, r9, ip, sp, lr}^
    a8f4:	0a656c62 	beq	1965a84 <__bss_end__+0x195ac9c>
    a8f8:	00000000 	andeq	r0, r0, r0
    a8fc:	615f7369 	cmpvs	pc, r9, ror #6
    a900:	6e67696c 	vnmulvs.f16	s13, s14, s25	; <UNPREDICTABLE>
    a904:	68286465 	stmdavs	r8!, {r0, r2, r5, r6, sl, sp, lr}
    a908:	6c61202c 	stclvs	0, cr2, [r1], #-176	; 0xffffff50
    a90c:	6d6e6769 	stclvs	7, cr6, [lr, #-420]!	; 0xfffffe5c
    a910:	29746e65 	ldmdbcs	r4!, {r0, r2, r5, r6, r9, sl, fp, sp, lr}^
    a914:	00000000 	andeq	r0, r0, r0
    a918:	494e4150 	stmdbmi	lr, {r4, r6, r8, lr}^
    a91c:	73253a43 			; <UNDEFINED> instruction: 0x73253a43
    a920:	3a73253a 	bcc	1cd3e10 <__bss_end__+0x1cc9028>
    a924:	703a6425 	eorsvc	r6, sl, r5, lsr #8
    a928:	746e696f 	strbtvc	r6, [lr], #-2415	; 0xfffff691
    a92c:	25207265 	strcs	r7, [r0, #-613]!	; 0xfffffd9b
    a930:	61772070 	cmnvs	r7, r0, ror r0
    a934:	656e2073 	strbvs	r2, [lr, #-115]!	; 0xffffff8d
    a938:	20726576 	rsbscs	r6, r2, r6, ror r5
    a93c:	6f6c6c61 	svcvs	0x006c6c61
    a940:	65746163 	ldrbvs	r6, [r4, #-355]!	; 0xfffffe9d
    a944:	000a0a64 	andeq	r0, sl, r4, ror #20

0000a948 <__FUNCTION__.7>:
    a948:	6c616d6b 	stclvs	13, cr6, [r1], #-428	; 0xfffffe54
    a94c:	5f636f6c 	svcpl	0x00636f6c
    a950:	74696e69 	strbtvc	r6, [r9], #-3689	; 0xfffff197
    a954:	7465735f 	strbtvc	r7, [r5], #-863	; 0xfffffca1
    a958:	6174735f 	cmnvs	r4, pc, asr r3
    a95c:	00007472 	andeq	r7, r0, r2, ror r4

0000a960 <__FUNCTION__.5>:
    a960:	6c616d6b 	stclvs	13, cr6, [r1], #-428	; 0xfffffe54
    a964:	5f636f6c 	svcpl	0x00636f6c
    a968:	74696e69 	strbtvc	r6, [r9], #-3689	; 0xfffff197
    a96c:	00000000 	andeq	r0, r0, r0

0000a970 <__FUNCTION__.4>:
    a970:	6c616d6b 	stclvs	13, cr6, [r1], #-428	; 0xfffffe54
    a974:	5f636f6c 	svcpl	0x00636f6c
    a978:	7a746f6e 	bvc	1d26738 <__bss_end__+0x1d1b950>
    a97c:	006f7265 	rsbeq	r7, pc, r5, ror #4

0000a980 <__FUNCTION__.2>:
    a980:	6c616d6b 	stclvs	13, cr6, [r1], #-428	; 0xfffffe54
    a984:	00636f6c 	rsbeq	r6, r3, ip, ror #30

0000a988 <__FUNCTION__.1>:
    a988:	6c616d6b 	stclvs	13, cr6, [r1], #-428	; 0xfffffe54
    a98c:	5f636f6c 	svcpl	0x00636f6c
    a990:	67696c61 	strbvs	r6, [r9, -r1, ror #24]!
    a994:	0064656e 	rsbeq	r6, r4, lr, ror #10

0000a998 <__FUNCTION__.3>:
    a998:	6e756f72 	mrcvs	15, 3, r6, cr5, cr2, {3}
    a99c:	00707564 	rsbseq	r7, r0, r4, ror #10

0000a9a0 <__FUNCTION__.0>:
    a9a0:	6572666b 	ldrbvs	r6, [r2, #-1643]!	; 0xfffff995
    a9a4:	6f705f65 	svcvs	0x00705f65
    a9a8:	Address 0x000000000000a9a8 is out of bounds.


Disassembly of section .data:

0000a9ac <putk>:
    a9ac:	00008c14 	andeq	r8, r0, r4, lsl ip

0000a9b0 <heap>:
    a9b0:	0000ade8 	andeq	sl, r0, r8, ror #27

0000a9b4 <heap_start>:
    a9b4:	0000ade8 	andeq	sl, r0, r8, ror #27

0000a9b8 <heap_end>:
    a9b8:	0020ade8 	eoreq	sl, r0, r8, ror #27

0000a9bc <rpi_putchar>:
    a9bc:	0000a008 	andeq	sl, r0, r8

Disassembly of section .bss:

0000a9c0 <__bss_start__>:
	...

0000a9c8 <freep>:
	...

0000a9d0 <base>:
	...

0000a9d8 <heap_start>:
    a9d8:	00000000 	andeq	r0, r0, r0

0000a9dc <heap_end>:
    a9dc:	00000000 	andeq	r0, r0, r0

0000a9e0 <init_p.4031>:
    a9e0:	00000000 	andeq	r0, r0, r0

0000a9e4 <buf.3944>:
	...

0000ade4 <init_p.6>:
    ade4:	00000000 	andeq	r0, r0, r0

Disassembly of section .ARM.attributes:

00000000 <.ARM.attributes>:
   0:	00002a41 	andeq	r2, r0, r1, asr #20
   4:	61656100 	cmnvs	r5, r0, lsl #2
   8:	01006962 	tsteq	r0, r2, ror #18
   c:	00000020 	andeq	r0, r0, r0, lsr #32
  10:	4b5a3605 	blmi	168d82c <__bss_end__+0x1682a44>
  14:	08070600 	stmdaeq	r7, {r9, sl}
  18:	12010901 	andne	r0, r1, #16384	; 0x4000
  1c:	15011404 	strne	r1, [r1, #-1028]	; 0xfffffbfc
  20:	18031701 	stmdane	r3, {r0, r8, r9, sl, ip}
  24:	22011a01 	andcs	r1, r1, #4096	; 0x1000
  28:	Address 0x0000000000000028 is out of bounds.


Disassembly of section .comment:

00000000 <.comment>:
   0:	3a434347 	bcc	10d0d24 <__bss_end__+0x10c5f3c>
   4:	4e472820 	cdpmi	8, 4, cr2, cr7, cr0, {1}
   8:	6f542055 	svcvs	0x00542055
   c:	20736c6f 	rsbscs	r6, r3, pc, ror #24
  10:	20726f66 	rsbscs	r6, r2, r6, ror #30
  14:	206d7241 	rsbcs	r7, sp, r1, asr #4
  18:	65626d45 	strbvs	r6, [r2, #-3397]!	; 0xfffff2bb
  1c:	64656464 	strbtvs	r6, [r5], #-1124	; 0xfffffb9c
  20:	6f725020 	svcvs	0x00725020
  24:	73736563 	cmnvc	r3, #415236096	; 0x18c00000
  28:	2073726f 	rsbscs	r7, r3, pc, ror #4
  2c:	30322d39 	eorscc	r2, r2, r9, lsr sp
  30:	712d3931 			; <UNDEFINED> instruction: 0x712d3931
  34:	616d2d34 	cmnvs	sp, r4, lsr sp
  38:	29726f6a 	ldmdbcs	r2!, {r1, r3, r5, r6, r8, r9, sl, fp, sp, lr}^
  3c:	322e3920 	eorcc	r3, lr, #32, 18	; 0x80000
  40:	3220312e 	eorcc	r3, r0, #-2147483637	; 0x8000000b
  44:	31393130 	teqcc	r9, r0, lsr r1
  48:	20353230 	eorscs	r3, r5, r0, lsr r2
  4c:	6c657228 	sfmvs	f7, 2, [r5], #-160	; 0xffffff60
  50:	65736165 	ldrbvs	r6, [r3, #-357]!	; 0xfffffe9b
  54:	415b2029 	cmpmi	fp, r9, lsr #32
  58:	612f4d52 			; <UNDEFINED> instruction: 0x612f4d52
  5c:	392d6d72 	pushcc	{r1, r4, r5, r6, r8, sl, fp, sp, lr}
  60:	6172622d 	cmnvs	r2, sp, lsr #4
  64:	2068636e 	rsbcs	r6, r8, lr, ror #6
  68:	69766572 	ldmdbvs	r6!, {r1, r4, r5, r6, r8, sl, sp, lr}^
  6c:	6e6f6973 			; <UNDEFINED> instruction: 0x6e6f6973
  70:	37373220 	ldrcc	r3, [r7, -r0, lsr #4]!
  74:	5d393935 			; <UNDEFINED> instruction: 0x5d393935
  78:	43434700 	movtmi	r4, #14080	; 0x3700
  7c:	4728203a 			; <UNDEFINED> instruction: 0x4728203a
  80:	4120554e 			; <UNDEFINED> instruction: 0x4120554e
  84:	45206d72 	strmi	r6, [r0, #-3442]!	; 0xfffff28e
  88:	6465626d 	strbtvs	r6, [r5], #-621	; 0xfffffd93
  8c:	20646564 	rsbcs	r6, r4, r4, ror #10
  90:	6c6f6f54 	stclvs	15, cr6, [pc], #-336	; ffffff48 <__bss_end__+0xffff5160>
  94:	69616863 	stmdbvs	r1!, {r0, r1, r5, r6, fp, sp, lr}^
  98:	3031206e 	eorscc	r2, r1, lr, rrx
  9c:	322d332e 	eorcc	r3, sp, #-1207959552	; 0xb8000000
  a0:	2e313230 	mrccs	2, 1, r3, cr1, cr0, {1}
  a4:	20293031 	eorcs	r3, r9, r1, lsr r0
  a8:	332e3031 			; <UNDEFINED> instruction: 0x332e3031
  ac:	3220312e 	eorcc	r3, r0, #-2147483637	; 0x8000000b
  b0:	30313230 	eorscc	r3, r1, r0, lsr r2
  b4:	20343238 	eorscs	r3, r4, r8, lsr r2
  b8:	6c657228 	sfmvs	f7, 2, [r5], #-160	; 0xffffff60
  bc:	65736165 	ldrbvs	r6, [r3, #-357]!	; 0xfffffe9b
  c0:	Address 0x00000000000000c0 is out of bounds.


Disassembly of section .debug_info:

00000000 <.debug_info>:
       0:	0000050d 	andeq	r0, r0, sp, lsl #10
       4:	00000004 	andeq	r0, r0, r4
       8:	01040000 	mrseq	r0, (UNDEF: 4)
       c:	0000016a 	andeq	r0, r0, sl, ror #2
      10:	0000690c 	andeq	r6, r0, ip, lsl #18
      14:	0000da00 	andeq	sp, r0, r0, lsl #20
      18:	00803800 	addeq	r3, r0, r0, lsl #16
      1c:	00010800 	andeq	r0, r1, r0, lsl #16
      20:	00000000 	andeq	r0, r0, r0
      24:	05040200 	streq	r0, [r4, #-512]	; 0xfffffe00
      28:	00746e69 	rsbseq	r6, r4, r9, ror #28
      2c:	2b070403 	blcs	1c1040 <__bss_end__+0x1b6258>
      30:	03000001 	movweq	r0, #1
      34:	00c30601 	sbceq	r0, r3, r1, lsl #12
      38:	02030000 	andeq	r0, r3, #0, 0
      3c:	00002105 	andeq	r2, r0, r5, lsl #2
      40:	05040300 	streq	r0, [r4, #-768]	; 0xfffffd00
      44:	00000056 	andeq	r0, r0, r6, asr r0
      48:	51050803 	tstpl	r5, r3, lsl #16
      4c:	04000000 	streq	r0, [r0], #-0
      50:	00000044 	andeq	r0, r0, r4, asr #32
      54:	5b182e04 	blpl	60b86c <__bss_end__+0x600a84>
      58:	03000000 	movweq	r0, #0
      5c:	00c10801 	sbceq	r0, r1, r1, lsl #16
      60:	41040000 	mrsmi	r0, (UNDEF: 4)
      64:	04000001 	streq	r0, [r0], #-1
      68:	006e1931 	rsbeq	r1, lr, r1, lsr r9
      6c:	02030000 	andeq	r0, r3, #0, 0
      70:	00015207 	andeq	r5, r1, r7, lsl #4
      74:	01380400 	teqeq	r8, r0, lsl #8
      78:	34040000 	strcc	r0, [r4], #-0
      7c:	00008119 	andeq	r8, r0, r9, lsl r1
      80:	07040300 	streq	r0, [r4, -r0, lsl #6]
      84:	00000126 	andeq	r0, r0, r6, lsr #2
      88:	21070803 	tstcs	r7, r3, lsl #16
      8c:	05000001 	streq	r0, [r0, #-1]
      90:	00000025 	andeq	r0, r0, r5, lsr #32
      94:	0000009e 	muleq	r0, lr, r0
      98:	00002506 	andeq	r2, r0, r6, lsl #10
      9c:	2b070000 	blcs	1c00a4 <__bss_end__+0x1b52bc>
      a0:	05000000 	streq	r0, [r0, #-0]
      a4:	00aa0e1c 	adceq	r0, sl, ip, lsl lr
      a8:	04080000 	streq	r0, [r8], #-0
      ac:	0000008f 	andeq	r0, r0, pc, lsl #1
      b0:	00002505 	andeq	r2, r0, r5, lsl #10
      b4:	0000bf00 	andeq	fp, r0, r0, lsl #30
      b8:	00bf0600 	adcseq	r0, pc, r0, lsl #12
      bc:	08000000 	stmdaeq	r0, {}	; <UNPREDICTABLE>
      c0:	0000cc04 	andeq	ip, r0, r4, lsl #24
      c4:	08010300 	stmdaeq	r1, {r8, r9}
      c8:	000000ca 	andeq	r0, r0, sl, asr #1
      cc:	0000c509 	andeq	ip, r0, r9, lsl #10
      d0:	051e0700 	ldreq	r0, [lr, #-1792]	; 0xfffff900
      d4:	21050000 	mrscs	r0, (UNDEF: 5)
      d8:	0000dd0e 	andeq	sp, r0, lr, lsl #26
      dc:	b0040800 	andlt	r0, r4, r0, lsl #16
      e0:	0a000000 	beq	e8 <__code_start__-0x7f18>
      e4:	0904020c 	stmdbeq	r4, {r2, r3, r9}
      e8:	00000114 	andeq	r0, r0, r4, lsl r1
      ec:	00003f0b 	andeq	r3, r0, fp, lsl #30
      f0:	11060200 	mrsne	r0, LR_usr
      f4:	000000bf 	strheq	r0, [r0], -pc	; <UNPREDICTABLE>
      f8:	004c0b00 	subeq	r0, ip, r0, lsl #22
      fc:	07020000 	streq	r0, [r2, -r0]
     100:	0000bf11 	andeq	fp, r0, r1, lsl pc
     104:	1a0b0400 	bne	2c110c <__bss_end__+0x2b6324>
     108:	02000001 	andeq	r0, r0, #1, 0
     10c:	002c0e08 	eoreq	r0, ip, r8, lsl #28
     110:	00080000 	andeq	r0, r8, r0
     114:	00024b04 	andeq	r4, r2, r4, lsl #22
     118:	03090200 	movweq	r0, #37376	; 0x9200
     11c:	000000e3 	andeq	r0, r0, r3, ror #1
     120:	0000890c 	andeq	r8, r0, ip, lsl #18
     124:	0d03a800 	stceq	8, cr10, [r3, #-0]
     128:	0001a310 	andeq	sl, r1, r0, lsl r3
     12c:	02460b00 	subeq	r0, r6, #0, 22
     130:	0e030000 	cdpeq	0, 0, cr0, cr3, cr0, {0}
     134:	0001a314 	andeq	sl, r1, r4, lsl r3
     138:	220b0000 	andcs	r0, fp, #0, 0
     13c:	03000002 	movweq	r0, #2
     140:	00750e0f 	rsbseq	r0, r5, pc, lsl #28
     144:	0b040000 	bleq	10014c <__bss_end__+0xf5364>
     148:	0000000f 	andeq	r0, r0, pc
     14c:	750e1003 	strvc	r1, [lr, #-3]
     150:	08000000 	stmdaeq	r0, {}	; <UNPREDICTABLE>
     154:	0000060b 	andeq	r0, r0, fp, lsl #12
     158:	0e140300 	cdpeq	3, 1, cr0, cr4, cr0, {0}
     15c:	00000075 	andeq	r0, r0, r5, ror r0
     160:	009d0b0c 	addseq	r0, sp, ip, lsl #22
     164:	16030000 	strne	r0, [r3], -r0
     168:	0001140f 	andeq	r1, r1, pc, lsl #8
     16c:	cf0b1000 	svcgt	0x000b1000
     170:	03000000 	movweq	r0, #0
     174:	00750e19 	rsbseq	r0, r5, r9, lsl lr
     178:	0b1c0000 	bleq	700180 <__bss_end__+0x6f5398>
     17c:	00000015 	andeq	r0, r0, r5, lsl r0
     180:	750e1a03 	strvc	r1, [lr, #-2563]	; 0xfffff5fd
     184:	20000000 	andcs	r0, r0, r0
     188:	0003b70b 	andeq	fp, r3, fp, lsl #14
     18c:	0e1c0300 	cdpeq	3, 1, cr0, cr12, cr0, {0}
     190:	00000062 	andeq	r0, r0, r2, rrx
     194:	7a720d24 	bvc	1c8362c <__bss_end__+0x1c78844>
     198:	1e030031 	mcrne	0, 0, r0, cr3, cr1, {1}
     19c:	0001a90d 	andeq	sl, r1, sp, lsl #18
     1a0:	08002600 	stmdaeq	r0, {r9, sl, sp}
     1a4:	00012004 	andeq	r2, r1, r4
     1a8:	004f0e00 	subeq	r0, pc, r0, lsl #28
     1ac:	01b90000 			; <UNDEFINED> instruction: 0x01b90000
     1b0:	2c0f0000 	stccs	0, cr0, [pc], {-0}
     1b4:	7f000000 	svcvc	0x00000000
     1b8:	00000400 	andeq	r0, r0, r0, lsl #8
     1bc:	1f030000 	svcne	0x00030000
     1c0:	00012003 	andeq	r2, r1, r3
     1c4:	07041000 	streq	r1, [r4, -r0]
     1c8:	000000b4 	strheq	r0, [r0], -r4
     1cc:	2c11a503 	cfldr32cs	mvfx10, [r1], {3}
     1d0:	11000000 	mrsne	r0, (UNDEF: 0)
     1d4:	0000014a 	andeq	r0, r0, sl, asr #2
     1d8:	14062401 	strne	r2, [r6], #-1025	; 0xfffffbff
     1dc:	2c000081 	stccs	0, cr0, [r0], {129}	; 0x81
     1e0:	01000000 	mrseq	r0, (UNDEF: 0)
     1e4:	0002639c 	muleq	r2, ip, r3
     1e8:	00701200 	rsbseq	r1, r0, r0, lsl #4
     1ec:	c50b2801 	strgt	r2, [fp, #-2049]	; 0xfffff7ff
     1f0:	04000001 	streq	r0, [r0], #-1
     1f4:	00000000 	andeq	r0, r0, r0
     1f8:	13000000 	movwne	r0, #0
     1fc:	00000354 	andeq	r0, r0, r4, asr r3
     200:	0000812c 	andeq	r8, r0, ip, lsr #2
     204:	00812c02 	addeq	r2, r1, r2, lsl #24
     208:	00000000 	andeq	r0, r0, r0
     20c:	05290100 	streq	r0, [r9, #-256]!	; 0xffffff00
     210:	0000022f 	andeq	r0, r0, pc, lsr #4
     214:	00036514 	andeq	r6, r3, r4, lsl r5
     218:	00002400 	andeq	r2, r0, r0, lsl #8
     21c:	00002200 	andeq	r2, r0, r0, lsl #4
     220:	036f1500 	cmneq	pc, #0, 10
     224:	003b0000 	eorseq	r0, fp, r0
     228:	00370000 	eorseq	r0, r7, r0
     22c:	16000000 	strne	r0, [r0], -r0
     230:	00008120 	andeq	r8, r0, r0, lsr #2
     234:	000004cb 	andeq	r0, r0, fp, asr #9
     238:	00000246 	andeq	r0, r0, r6, asr #4
     23c:	05500117 	ldrbeq	r0, [r0, #-279]	; 0xfffffee9
     240:	00a15803 	adceq	r5, r1, r3, lsl #16
     244:	24180000 	ldrcs	r0, [r8], #-0
     248:	63000081 	movwvs	r0, #129	; 0x81
     24c:	19000002 	stmdbne	r0, {r1}
     250:	00008138 	andeq	r8, r0, r8, lsr r1
     254:	000004cb 	andeq	r0, r0, fp, asr #9
     258:	05500117 	ldrbeq	r0, [r0, #-279]	; 0xfffffee9
     25c:	00a19403 	adceq	r9, r1, r3, lsl #8
     260:	1a000000 	bne	268 <__code_start__-0x7d98>
     264:	00000165 	andeq	r0, r0, r5, ror #2
     268:	c5070801 	strgt	r0, [r7, #-2049]	; 0xfffff7ff
     26c:	01000001 	tsteq	r0, r1
     270:	00000339 	andeq	r0, r0, r9, lsr r3
     274:	0005100c 	andeq	r1, r5, ip
     278:	09010c00 	stmdbeq	r1, {sl, fp}
     27c:	0002a70c 	andeq	sl, r2, ip, lsl #14
     280:	00780d00 	rsbseq	r0, r8, r0, lsl #26
     284:	250d0a01 	strcs	r0, [sp, #-2561]	; 0xfffff5ff
     288:	00000000 	andeq	r0, r0, r0
     28c:	0002460b 	andeq	r4, r2, fp, lsl #12
     290:	160b0100 	strne	r0, [fp], -r0, lsl #2
     294:	00000339 	andeq	r0, r0, r9, lsr r3
     298:	02360b04 	eorseq	r0, r6, #4, 22	; 0x1000
     29c:	0c010000 	stceq	0, cr0, [r1], {-0}
     2a0:	00033916 	andeq	r3, r3, r6, lsl r9
     2a4:	1b000800 	blne	22ac <__code_start__-0x5d54>
     2a8:	0d010068 	stceq	0, cr0, [r1, #-416]	; 0xfffffe60
     2ac:	00033908 	andeq	r3, r3, r8, lsl #18
     2b0:	00901c00 	addseq	r1, r0, r0, lsl #24
     2b4:	034f0000 	movteq	r0, #61440	; 0xf000
     2b8:	03050000 	movweq	r0, #20480	; 0x5000
     2bc:	0000a1c0 	andeq	sl, r0, r0, asr #3
     2c0:	00691b1d 	rsbeq	r1, r9, sp, lsl fp
     2c4:	250d0f01 	strcs	r0, [sp, #-3841]	; 0xfffff0ff
     2c8:	1d000000 	stcne	0, cr0, [r0, #-0]
     2cc:	0100651b 	tsteq	r0, fp, lsl r5
     2d0:	03391610 	teqeq	r9, #16, 12	; 0x1000000
     2d4:	68160000 	ldmdavs	r6, {}	; <UNPREDICTABLE>
     2d8:	d7000080 	strle	r0, [r0, -r0, lsl #1]
     2dc:	e9000004 	stmdb	r0, {r2}
     2e0:	17000002 	strne	r0, [r0, -r2]
     2e4:	3c015001 	stccc	0, cr5, [r1], {1}
     2e8:	807c1600 	rsbshi	r1, ip, r0, lsl #12
     2ec:	04e30000 	strbteq	r0, [r3], #0
     2f0:	03080000 	movweq	r0, #32768	; 0x8000
     2f4:	01170000 	tsteq	r7, r0
     2f8:	00750250 	rsbseq	r0, r5, r0, asr r2
     2fc:	02510117 	subseq	r0, r1, #-1073741819	; 0xc0000005
     300:	01170078 	tsteq	r7, r8, ror r0
     304:	003c0152 	eorseq	r0, ip, r2, asr r1
     308:	0080a016 	addeq	sl, r0, r6, lsl r0
     30c:	0004d700 	andeq	sp, r4, r0, lsl #14
     310:	00031b00 	andeq	r1, r3, r0, lsl #22
     314:	50011700 	andpl	r1, r1, r0, lsl #14
     318:	1e003c01 	cdpne	12, 0, cr3, cr0, cr1, {0}
     31c:	000080b0 	strheq	r8, [r0], -r0
     320:	000004e3 	andeq	r0, r0, r3, ror #9
     324:	02500117 	subseq	r0, r0, #-1073741819	; 0xc0000005
     328:	01170074 	tsteq	r7, r4, ror r0
     32c:	00780251 	rsbseq	r0, r8, r1, asr r2
     330:	01520117 	cmpeq	r2, r7, lsl r1
     334:	0000003c 	andeq	r0, r0, ip, lsr r0
     338:	74040800 	strvc	r0, [r4], #-2048	; 0xfffff800
     33c:	0e000002 	cdpeq	0, 0, cr0, cr0, cr2, {0}
     340:	000000cc 	andeq	r0, r0, ip, asr #1
     344:	0000034f 	andeq	r0, r0, pc, asr #6
     348:	00002c0f 	andeq	r2, r0, pc, lsl #24
     34c:	09000400 	stmdbeq	r0, {sl}
     350:	0000033f 	andeq	r0, r0, pc, lsr r3
     354:	00005f1f 	andeq	r5, r0, pc, lsl pc
     358:	11220300 			; <UNDEFINED> instruction: 0x11220300
     35c:	0000002c 	andeq	r0, r0, ip, lsr #32
     360:	00037a01 	andeq	r7, r3, r1, lsl #20
     364:	00702000 	rsbseq	r2, r0, r0
     368:	c5212203 	strgt	r2, [r1, #-515]!	; 0xfffffdfd
     36c:	1b000001 	blne	378 <__code_start__-0x7c88>
     370:	23030068 	movwcs	r0, #12392	; 0x3068
     374:	00037a0c 	andeq	r7, r3, ip, lsl #20
     378:	04080000 	streq	r0, [r8], #-0
     37c:	000001b9 			; <UNDEFINED> instruction: 0x000001b9
     380:	00023b1f 	andeq	r3, r2, pc, lsl fp
     384:	0b0c0200 	bleq	300b8c <__bss_end__+0x2f5da4>
     388:	00000114 	andeq	r0, r0, r4, lsl r1
     38c:	0003b603 	andeq	fp, r3, r3, lsl #12
     390:	003f2100 	eorseq	r2, pc, r0, lsl #2
     394:	0c020000 	stceq	0, cr0, [r2], {-0}
     398:	0000bf22 	andeq	fp, r0, r2, lsr #30
     39c:	004c2100 	subeq	r2, ip, r0, lsl #2
     3a0:	0c020000 	stceq	0, cr0, [r2], {-0}
     3a4:	0000bf34 	andeq	fp, r0, r4, lsr pc
     3a8:	011a2100 	tsteq	sl, r0, lsl #2
     3ac:	0c020000 	stceq	0, cr0, [r2], {-0}
     3b0:	00002c43 	andeq	r2, r0, r3, asr #24
     3b4:	63220000 			; <UNDEFINED> instruction: 0x63220000
     3b8:	38000002 	stmdacc	r0, {r1}
     3bc:	dc000080 	stcle	0, cr0, [r0], {128}	; 0x80
     3c0:	01000000 	mrseq	r0, (UNDEF: 0)
     3c4:	0004cb9c 	muleq	r4, ip, fp
     3c8:	02a71500 	adceq	r1, r7, #0, 10
     3cc:	005f0000 	subseq	r0, pc, r0
     3d0:	00590000 	subseq	r0, r9, r0
     3d4:	c0230000 	eorgt	r0, r3, r0
     3d8:	00000002 	andeq	r0, r0, r2
     3dc:	41000000 	mrsmi	r0, (UNDEF: 0)
     3e0:	15000004 	strne	r0, [r0, #-4]
     3e4:	000002c1 	andeq	r0, r0, r1, asr #5
     3e8:	0000008b 	andeq	r0, r0, fp, lsl #1
     3ec:	00000089 	andeq	r0, r0, r9, lsl #1
     3f0:	0002cb24 	andeq	ip, r2, r4, lsr #22
     3f4:	00002000 	andeq	r2, r0, r0
     3f8:	02cc1500 	sbceq	r1, ip, #0, 10
     3fc:	00ab0000 	adceq	r0, fp, r0
     400:	009f0000 	addseq	r0, pc, r0
     404:	80250000 	eorhi	r0, r5, r0
     408:	38000003 	stmdacc	r0, {r0, r1}
     40c:	06000080 	streq	r0, [r0], -r0, lsl #1
     410:	00000040 	andeq	r0, r0, r0, asr #32
     414:	141a1001 	ldrne	r1, [sl], #-1
     418:	000003a9 	andeq	r0, r0, r9, lsr #7
     41c:	000000f9 	strdeq	r0, [r0], -r9
     420:	000000f5 	strdeq	r0, [r0], -r5
     424:	00039d14 	andeq	r9, r3, r4, lsl sp
     428:	00011d00 	andeq	r1, r1, r0, lsl #26
     42c:	00011900 	andeq	r1, r1, r0, lsl #18
     430:	03911400 	orrseq	r1, r1, #0, 8
     434:	01490000 	mrseq	r0, (UNDEF: 73)
     438:	01450000 	mrseq	r0, (UNDEF: 69)
     43c:	00000000 	andeq	r0, r0, r0
     440:	02631300 	rsbeq	r1, r3, #0, 6
     444:	80e40000 	rschi	r0, r4, r0
     448:	e4000000 	str	r0, [r0], #-0
     44c:	30000080 	andcc	r0, r0, r0, lsl #1
     450:	01000000 	mrseq	r0, (UNDEF: 0)
     454:	04c10708 	strbeq	r0, [r1], #1800	; 0x708
     458:	a7260000 	strge	r0, [r6, -r0]!
     45c:	27000002 	strcs	r0, [r0, -r2]
     460:	000002c0 	andeq	r0, r0, r0, asr #5
     464:	000080e4 	andeq	r8, r0, r4, ror #1
     468:	00000030 	andeq	r0, r0, r0, lsr r0
     46c:	0002c126 	andeq	ip, r2, r6, lsr #2
     470:	02cb2700 	sbceq	r2, fp, #0, 14
     474:	80e40000 	rschi	r0, r4, r0
     478:	00300000 	eorseq	r0, r0, r0
     47c:	cc260000 	stcgt	0, cr0, [r6], #-0
     480:	16000002 	strne	r0, [r0], -r2
     484:	00008100 	andeq	r8, r0, r0, lsl #2
     488:	000004cb 	andeq	r0, r0, fp, asr #9
     48c:	000004b5 			; <UNDEFINED> instruction: 0x000004b5
     490:	05500117 	ldrbeq	r0, [r0, #-279]	; 0xfffffee9
     494:	00a13803 	adceq	r3, r1, r3, lsl #16
     498:	51011700 	tstpl	r1, r0, lsl #14
     49c:	17007b02 	strne	r7, [r0, -r2, lsl #22]
     4a0:	7a025201 	bvc	94cac <__bss_end__+0x89ec4>
     4a4:	53011700 	movwpl	r1, #5888	; 0x1700
     4a8:	02174401 	andseq	r4, r7, #16777216	; 0x1000000
     4ac:	0305007d 	movweq	r0, #20605	; 0x507d
     4b0:	0000a14c 	andeq	sl, r0, ip, asr #2
     4b4:	81041800 	tsthi	r4, r0, lsl #16
     4b8:	04f80000 	ldrbteq	r0, [r8], #0
     4bc:	00000000 	andeq	r0, r0, r0
     4c0:	80d81800 	sbcshi	r1, r8, r0, lsl #16
     4c4:	05040000 	streq	r0, [r4, #-0]
     4c8:	28000000 	stmdacs	r0, {}	; <UNPREDICTABLE>
     4cc:	000004e0 	andeq	r0, r0, r0, ror #9
     4d0:	000004e0 	andeq	r0, r0, r0, ror #9
     4d4:	28062805 	stmdacs	r6, {r0, r2, fp, sp}
     4d8:	00000037 	andeq	r0, r0, r7, lsr r0
     4dc:	00000037 	andeq	r0, r0, r7, lsr r0
     4e0:	28084903 	stmdacs	r8, {r0, r1, r8, fp, lr}
     4e4:	0000022f 	andeq	r0, r0, pc, lsr #4
     4e8:	0000022f 	andeq	r0, r0, pc, lsr #4
     4ec:	2907f205 	stmdbcs	r7, {r0, r2, r9, ip, sp, lr, pc}
     4f0:	74059e07 	strvc	r9, [r5], #-3591	; 0xfffff1f9
     4f4:	00747365 	rsbseq	r7, r4, r5, ror #6
     4f8:	0000a728 	andeq	sl, r0, r8, lsr #14
     4fc:	0000a700 	andeq	sl, r0, r0, lsl #14
     500:	066e0500 	strbteq	r0, [lr], -r0, lsl #10
     504:	00010c28 	andeq	r0, r1, r8, lsr #24
     508:	00010c00 	andeq	r0, r1, r0, lsl #24
     50c:	066c0300 	strbteq	r0, [ip], -r0, lsl #6
     510:	0009af00 	andeq	sl, r9, r0, lsl #30
     514:	37000400 	strcc	r0, [r0, -r0, lsl #8]
     518:	04000002 	streq	r0, [r0], #-2
     51c:	00016a01 	andeq	r6, r1, r1, lsl #20
     520:	02d70c00 	sbcseq	r0, r7, #0, 24
     524:	00da0000 	sbcseq	r0, sl, r0
     528:	81400000 	mrshi	r0, (UNDEF: 64)
     52c:	02f00000 	rscseq	r0, r0, #0, 0
     530:	020c0000 	andeq	r0, ip, #0, 0
     534:	04020000 	streq	r0, [r2], #-0
     538:	746e6905 	strbtvc	r6, [lr], #-2309	; 0xfffff6fb
     53c:	07040300 	streq	r0, [r4, -r0, lsl #6]
     540:	0000012b 	andeq	r0, r0, fp, lsr #2
     544:	c3060103 	movwgt	r0, #24835	; 0x6103
     548:	03000000 	movweq	r0, #0
     54c:	00210502 	eoreq	r0, r1, r2, lsl #10
     550:	04030000 	streq	r0, [r3], #-0
     554:	00005605 	andeq	r5, r0, r5, lsl #12
     558:	05080300 	streq	r0, [r8, #-768]	; 0xfffffd00
     55c:	00000051 	andeq	r0, r0, r1, asr r0
     560:	00004404 	andeq	r4, r0, r4, lsl #8
     564:	182e0300 	stmdane	lr!, {r8, r9}
     568:	0000005b 	andeq	r0, r0, fp, asr r0
     56c:	c1080103 	tstgt	r8, r3, lsl #2
     570:	04000000 	streq	r0, [r0], #-0
     574:	00000141 	andeq	r0, r0, r1, asr #2
     578:	6e193103 	mufvse	f3, f1, f3
     57c:	03000000 	movweq	r0, #0
     580:	01520702 	cmpeq	r2, r2, lsl #14
     584:	38040000 	stmdacc	r4, {}	; <UNPREDICTABLE>
     588:	03000001 	movweq	r0, #1
     58c:	00811934 	addeq	r1, r1, r4, lsr r9
     590:	04030000 	streq	r0, [r3], #-0
     594:	00012607 	andeq	r2, r1, r7, lsl #12
     598:	07080300 	streq	r0, [r8, -r0, lsl #6]
     59c:	00000121 	andeq	r0, r0, r1, lsr #2
     5a0:	00002505 	andeq	r2, r0, r5, lsl #10
     5a4:	00009e00 	andeq	r9, r0, r0, lsl #28
     5a8:	00250600 	eoreq	r0, r5, r0, lsl #12
     5ac:	07000000 	streq	r0, [r0, -r0]
     5b0:	0000002b 	andeq	r0, r0, fp, lsr #32
     5b4:	aa0e1c04 	bge	3875cc <__bss_end__+0x37c7e4>
     5b8:	08000000 	stmdaeq	r0, {}	; <UNPREDICTABLE>
     5bc:	00008f04 	andeq	r8, r0, r4, lsl #30
     5c0:	00250500 	eoreq	r0, r5, r0, lsl #10
     5c4:	00bf0000 	adcseq	r0, pc, r0
     5c8:	bf060000 	svclt	0x00060000
     5cc:	00000000 	andeq	r0, r0, r0
     5d0:	00cc0408 	sbceq	r0, ip, r8, lsl #8
     5d4:	01030000 	mrseq	r0, (UNDEF: 3)
     5d8:	0000ca08 	andeq	ip, r0, r8, lsl #20
     5dc:	00c50900 	sbceq	r0, r5, r0, lsl #18
     5e0:	1e070000 	cdpne	0, 0, cr0, cr7, cr0, {0}
     5e4:	04000005 	streq	r0, [r0], #-5
     5e8:	00dd0e21 	sbcseq	r0, sp, r1, lsr #28
     5ec:	04080000 	streq	r0, [r8], #-0
     5f0:	000000b0 	strheq	r0, [r0], -r0	; <UNPREDICTABLE>
     5f4:	04050c0a 	streq	r0, [r5], #-3082	; 0xfffff3f6
     5f8:	00011409 	andeq	r1, r1, r9, lsl #8
     5fc:	003f0b00 	eorseq	r0, pc, r0, lsl #22
     600:	06050000 	streq	r0, [r5], -r0
     604:	0000bf11 	andeq	fp, r0, r1, lsl pc
     608:	4c0b0000 	stcmi	0, cr0, [fp], {-0}
     60c:	05000000 	streq	r0, [r0, #-0]
     610:	00bf1107 	adcseq	r1, pc, r7, lsl #2
     614:	0b040000 	bleq	10061c <__bss_end__+0xf5834>
     618:	0000011a 	andeq	r0, r0, sl, lsl r1
     61c:	2c0e0805 	stccs	8, cr0, [lr], {5}
     620:	08000000 	stmdaeq	r0, {}	; <UNPREDICTABLE>
     624:	024b0400 	subeq	r0, fp, #0, 8
     628:	09050000 	stmdbeq	r5, {}	; <UNPREDICTABLE>
     62c:	0000e303 	andeq	lr, r0, r3, lsl #6
     630:	01070c00 	tsteq	r7, r0, lsl #24
     634:	0000005b 	andeq	r0, r0, fp, asr r0
     638:	3b0e0902 	blcc	382a48 <__bss_end__+0x377c60>
     63c:	0d000001 	stceq	0, cr0, [r0, #-4]
     640:	000002e1 	andeq	r0, r0, r1, ror #5
     644:	02650d0b 	rsbeq	r0, r5, #704	; 0x2c0
     648:	000c0000 	andeq	r0, ip, r0
     64c:	5b01070c 	blpl	42284 <__bss_end__+0x3749c>
     650:	02000000 	andeq	r0, r0, #0, 0
     654:	0156060a 	cmpeq	r6, sl, lsl #12
     658:	7f0d0000 	svcvc	0x000d0000
     65c:	80000002 	andhi	r0, r0, r2
     660:	00026b0d 	andeq	r6, r2, sp, lsl #22
     664:	0e00fe00 	cdpeq	14, 0, cr15, cr0, cr0, {0}
     668:	00000089 	andeq	r0, r0, r9, lsl #1
     66c:	100d02a8 	andne	r0, sp, r8, lsr #5
     670:	000001d9 	ldrdeq	r0, [r0], -r9
     674:	0002460b 	andeq	r4, r2, fp, lsl #12
     678:	140e0200 	strne	r0, [lr], #-512	; 0xfffffe00
     67c:	000001d9 	ldrdeq	r0, [r0], -r9
     680:	02220b00 	eoreq	r0, r2, #0, 22
     684:	0f020000 	svceq	0x00020000
     688:	0000750e 	andeq	r7, r0, lr, lsl #10
     68c:	0f0b0400 	svceq	0x000b0400
     690:	02000000 	andeq	r0, r0, #0, 0
     694:	00750e10 	rsbseq	r0, r5, r0, lsl lr
     698:	0b080000 	bleq	2006a0 <__bss_end__+0x1f58b8>
     69c:	00000006 	andeq	r0, r0, r6
     6a0:	750e1402 	strvc	r1, [lr, #-1026]	; 0xfffffbfe
     6a4:	0c000000 	stceq	0, cr0, [r0], {-0}
     6a8:	00009d0b 	andeq	r9, r0, fp, lsl #26
     6ac:	0f160200 	svceq	0x00160200
     6b0:	00000114 	andeq	r0, r0, r4, lsl r1
     6b4:	00cf0b10 	sbceq	r0, pc, r0, lsl fp	; <UNPREDICTABLE>
     6b8:	19020000 	stmdbne	r2, {}	; <UNPREDICTABLE>
     6bc:	0000750e 	andeq	r7, r0, lr, lsl #10
     6c0:	150b1c00 	strne	r1, [fp, #-3072]	; 0xfffff400
     6c4:	02000000 	andeq	r0, r0, #0, 0
     6c8:	00750e1a 	rsbseq	r0, r5, sl, lsl lr
     6cc:	0b200000 	bleq	8006d4 <__bss_end__+0x7f58ec>
     6d0:	000003b7 			; <UNDEFINED> instruction: 0x000003b7
     6d4:	620e1c02 	andvs	r1, lr, #512	; 0x200
     6d8:	24000000 	strcs	r0, [r0], #-0
     6dc:	317a720f 	cmncc	sl, pc, lsl #4
     6e0:	0d1e0200 	lfmeq	f0, 4, [lr, #-0]
     6e4:	000001df 	ldrdeq	r0, [r0], -pc	; <UNPREDICTABLE>
     6e8:	04080026 	streq	r0, [r8], #-38	; 0xffffffda
     6ec:	00000156 	andeq	r0, r0, r6, asr r1
     6f0:	00004f10 	andeq	r4, r0, r0, lsl pc
     6f4:	0001ef00 	andeq	lr, r1, r0, lsl #30
     6f8:	002c1100 	eoreq	r1, ip, r0, lsl #2
     6fc:	007f0000 	rsbseq	r0, pc, r0
     700:	00000004 	andeq	r0, r0, r4
     704:	031f0200 	tsteq	pc, #0, 4
     708:	00000156 	andeq	r0, r0, r6, asr r1
     70c:	b4070412 	strlt	r0, [r7], #-1042	; 0xfffffbee
     710:	02000000 	andeq	r0, r0, #0, 0
     714:	002c11a5 	eoreq	r1, ip, r5, lsr #3
     718:	a2130000 	andsge	r0, r3, #0, 0
     71c:	01000002 	tsteq	r0, r2
     720:	021b0f08 	andseq	r0, fp, #8, 30
     724:	03050000 	movweq	r0, #20480	; 0x5000
     728:	0000a9c0 	andeq	sl, r0, r0, asr #19
     72c:	01ef0408 	mvneq	r0, r8, lsl #8
     730:	37140000 	ldrcc	r0, [r4, -r0]
     734:	01000000 	mrseq	r0, (UNDEF: 0)
     738:	01fb0866 	mvnseq	r0, r6, ror #16
     73c:	83a40000 			; <UNDEFINED> instruction: 0x83a40000
     740:	008c0000 	addeq	r0, ip, r0
     744:	9c010000 	stcls	0, cr0, [r1], {-0}
     748:	000002ee 	andeq	r0, r0, lr, ror #5
     74c:	00030415 	andeq	r0, r3, r5, lsl r4
     750:	1a660100 	bne	1980b58 <__bss_end__+0x1975d70>
     754:	00000075 	andeq	r0, r0, r5, ror r0
     758:	00000177 	andeq	r0, r0, r7, ror r1
     75c:	00000171 	andeq	r0, r0, r1, ror r1
     760:	01006c16 	tsteq	r0, r6, lsl ip
     764:	01142c66 	tsteq	r4, r6, ror #24
     768:	91020000 	mrsls	r0, (UNDEF: 2)
     76c:	00681764 	rsbeq	r1, r8, r4, ror #14
     770:	1b0c6801 	blne	31a77c <__bss_end__+0x30f994>
     774:	a9000002 	stmdbge	r0, {r1}
     778:	a3000001 	movwge	r0, #1
     77c:	18000001 	stmdane	r0, {r0}
     780:	000083c0 	andeq	r8, r0, r0, asr #7
     784:	00000976 	andeq	r0, r0, r6, ror r9
     788:	00000283 	andeq	r0, r0, r3, lsl #5
     78c:	03500119 	cmpeq	r0, #1073741830	; 0x40000006
     790:	0001a876 	andeq	sl, r1, r6, ror r8
     794:	0083d018 	addeq	sp, r3, r8, lsl r0
     798:	00098200 	andeq	r8, r9, r0, lsl #4
     79c:	0002a200 	andeq	sl, r2, r0, lsl #4
     7a0:	50011900 	andpl	r1, r1, r0, lsl #18
     7a4:	19007402 	stmdbne	r0, {r1, sl, ip, sp, lr}
     7a8:	30015101 	andcc	r5, r1, r1, lsl #2
     7ac:	02520119 	subseq	r0, r2, #1073741830	; 0x40000006
     7b0:	1800a808 	stmdane	r0, {r3, fp, sp, pc}
     7b4:	000083f8 	strdeq	r8, [r0], -r8	; <UNPREDICTABLE>
     7b8:	0000098e 	andeq	r0, r0, lr, lsl #19
     7bc:	000002ce 	andeq	r0, r0, lr, asr #5
     7c0:	05500119 	ldrbeq	r0, [r0, #-281]	; 0xfffffee7
     7c4:	00a1d803 	adceq	sp, r1, r3, lsl #16
     7c8:	51011900 	tstpl	r1, r0, lsl #18
     7cc:	065c9103 	ldrbeq	r9, [ip], -r3, lsl #2
     7d0:	03520119 	cmpeq	r2, #1073741830	; 0x40000006
     7d4:	19066091 	stmdbne	r6, {r0, r4, r7, sp, lr}
     7d8:	91035301 	tstls	r3, r1, lsl #6
     7dc:	1a000664 	bne	2174 <__code_start__-0x5e8c>
     7e0:	00008408 	andeq	r8, r0, r8, lsl #8
     7e4:	0000098e 	andeq	r0, r0, lr, lsl #19
     7e8:	05500119 	ldrbeq	r0, [r0, #-281]	; 0xfffffee7
     7ec:	00a28403 	adceq	r8, r2, r3, lsl #8
     7f0:	51011900 	tstpl	r1, r0, lsl #18
     7f4:	19007502 	stmdbne	r0, {r1, r8, sl, ip, sp, lr}
     7f8:	76025201 	strvc	r5, [r2], -r1, lsl #4
     7fc:	1b000000 	blne	804 <__code_start__-0x77fc>
     800:	0000029b 	muleq	r0, fp, r2
     804:	10065301 	andne	r5, r6, r1, lsl #6
     808:	94000082 	strls	r0, [r0], #-130	; 0xffffff7e
     80c:	01000001 	tsteq	r0, r1
     810:	0006049c 	muleq	r6, ip, r4
     814:	099d1500 	ldmibeq	sp, {r8, sl, ip}
     818:	53010000 	movwpl	r0, #4096	; 0x1000
     81c:	0001fb14 	andeq	pc, r1, r4, lsl fp	; <UNPREDICTABLE>
     820:	0001e000 	andeq	lr, r1, r0
     824:	0001d600 	andeq	sp, r1, r0, lsl #12
     828:	006c1c00 	rsbeq	r1, ip, r0, lsl #24
     82c:	14245301 	strtne	r5, [r4], #-769	; 0xfffffcff
     830:	2b000001 	blcs	83c <__code_start__-0x77c4>
     834:	25000002 	strcs	r0, [r0, #-2]
     838:	17000002 	strne	r0, [r0, -r2]
     83c:	55010068 	strpl	r0, [r1, #-104]	; 0xffffff98
     840:	00021b0c 	andeq	r1, r2, ip, lsl #22
     844:	00027900 	andeq	r7, r2, r0, lsl #18
     848:	00026b00 	andeq	r6, r2, r0, lsl #22
     84c:	00901d00 	addseq	r1, r0, r0, lsl #26
     850:	06140000 	ldreq	r0, [r4], -r0
     854:	03050000 	movweq	r0, #20480	; 0x5000
     858:	0000a2ac 	andeq	sl, r0, ip, lsr #5
     85c:	00067b1e 	andeq	r7, r6, lr, lsl fp
     860:	00826400 	addeq	r6, r2, r0, lsl #8
     864:	01680200 	cmneq	r8, r0, lsl #4
     868:	5d010000 	stcpl	0, cr0, [r1, #-0]
     86c:	00046805 	andeq	r6, r4, r5, lsl #16
     870:	068c1f00 	streq	r1, [ip], r0, lsl #30
     874:	02dc0000 	sbcseq	r0, ip, #0, 0
     878:	02da0000 	sbcseq	r0, sl, #0, 0
     87c:	98200000 	stmdals	r0!, {}	; <UNPREDICTABLE>
     880:	90000006 	andls	r0, r0, r6
     884:	21000001 	tstcs	r0, r1
     888:	00000699 	muleq	r0, r9, r6
     88c:	000002f1 	strdeq	r0, [r0], -r1
     890:	000002ef 	andeq	r0, r0, pc, ror #5
     894:	00075922 	andeq	r5, r7, r2, lsr #18
     898:	00826400 	addeq	r6, r2, r0, lsl #8
     89c:	01b00500 	lslseq	r0, r0, #10
     8a0:	2e010000 	cdpcs	0, 0, cr0, cr1, cr0, {0}
     8a4:	073d2315 			; <UNDEFINED> instruction: 0x073d2315
     8a8:	82780000 	rsbshi	r0, r8, #0, 0
     8ac:	78010000 	stmdavc	r1, {}	; <UNPREDICTABLE>
     8b0:	04000082 	streq	r0, [r0], #-130	; 0xffffff7e
     8b4:	01000000 	mrseq	r0, (UNDEF: 0)
     8b8:	03bb2c2e 			; <UNDEFINED> instruction: 0x03bb2c2e
     8bc:	4e1f0000 	cdpmi	0, 1, cr0, cr15, cr0, {0}
     8c0:	06000007 	streq	r0, [r0], -r7
     8c4:	04000003 	streq	r0, [r0], #-3
     8c8:	00000003 	andeq	r0, r0, r3
     8cc:	0006c51e 	andeq	ip, r6, lr, lsl r5
     8d0:	00828400 	addeq	r8, r2, r0, lsl #8
     8d4:	01c80100 	biceq	r0, r8, r0, lsl #2
     8d8:	31010000 	mrscc	r0, (UNDEF: 1)
     8dc:	00044d0d 	andeq	r4, r4, sp, lsl #26
     8e0:	06e01f00 	strbteq	r1, [r0], r0, lsl #30
     8e4:	031b0000 	tsteq	fp, #0, 0
     8e8:	03190000 	tsteq	r9, #0, 0
     8ec:	d61f0000 	ldrle	r0, [pc], -r0
     8f0:	30000006 	andcc	r0, r0, r6
     8f4:	2e000003 	cdpcs	0, 0, cr0, cr0, cr3, {0}
     8f8:	24000003 	strcs	r0, [r0], #-3
     8fc:	000001c8 	andeq	r0, r0, r8, asr #3
     900:	0006ec21 	andeq	lr, r6, r1, lsr #24
     904:	00034900 	andeq	r4, r3, r0, lsl #18
     908:	00034300 	andeq	r4, r3, r0, lsl #6
     90c:	06f82100 	ldrbteq	r2, [r8], r0, lsl #2
     910:	037a0000 	cmneq	sl, #0, 0
     914:	03780000 	cmneq	r8, #0, 0
     918:	211e0000 	tstcs	lr, r0
     91c:	84000007 	strhi	r0, [r0], #-7
     920:	03000082 	movweq	r0, #130	; 0x82
     924:	000001e0 	andeq	r0, r0, r0, ror #3
     928:	2c112601 	ldccs	6, cr2, [r1], {1}
     92c:	1f000004 	svcne	0x00000004
     930:	00000732 	andeq	r0, r0, r2, lsr r7
     934:	00000398 	muleq	r0, r8, r3
     938:	00000396 	muleq	r0, r6, r3
     93c:	07052500 	streq	r2, [r5, -r0, lsl #10]
     940:	82840000 	addhi	r0, r4, #0, 0
     944:	f8070000 			; <UNDEFINED> instruction: 0xf8070000
     948:	01000001 	tsteq	r0, r1
     94c:	161f1127 	ldrne	r1, [pc], -r7, lsr #2
     950:	ad000007 	stcge	0, cr0, [r0, #-28]	; 0xffffffe4
     954:	ab000003 	blge	968 <__code_start__-0x7698>
     958:	00000003 	andeq	r0, r0, r3
     95c:	bc1a0000 	ldclt	0, cr0, [sl], {-0}
     960:	8e000082 	cdphi	0, 0, cr0, cr0, cr2, {4}
     964:	19000009 	stmdbne	r0, {r0, r3}
     968:	03055001 	movweq	r5, #20481	; 0x5001
     96c:	0000a1c8 	andeq	sl, r0, r8, asr #3
     970:	02510119 	subseq	r0, r1, #1073741830	; 0x40000006
     974:	00000074 	andeq	r0, r0, r4, ror r0
     978:	06191e00 	ldreq	r1, [r9], -r0, lsl #28
     97c:	82bc0000 	adcshi	r0, ip, #0, 0
     980:	18050000 	stmdane	r5, {}	; <UNPREDICTABLE>
     984:	01000002 	tsteq	r0, r2
     988:	051a055f 	ldreq	r0, [sl, #-1375]	; 0xfffffaa1
     98c:	261f0000 	ldrcs	r0, [pc], -r0
     990:	c4000006 	strgt	r0, [r0], #-6
     994:	c0000003 	andgt	r0, r0, r3
     998:	1f000003 	svcne	0x00000003
     99c:	00000630 	andeq	r0, r0, r0, lsr r6
     9a0:	000003f0 	strdeq	r0, [r0], -r0	; <UNPREDICTABLE>
     9a4:	000003ec 	andeq	r0, r0, ip, ror #7
     9a8:	00021824 	andeq	r1, r2, r4, lsr #16
     9ac:	06492100 	strbeq	r2, [r9], -r0, lsl #2
     9b0:	041a0000 	ldreq	r0, [sl], #-0
     9b4:	040e0000 	streq	r0, [lr], #-0
     9b8:	55210000 	strpl	r0, [r1, #-0]!
     9bc:	6e000006 	cdpvs	0, 0, cr0, cr0, cr6, {0}
     9c0:	68000004 	stmdavs	r0, {r2}
     9c4:	1e000004 	cdpne	0, 0, cr0, cr0, cr4, {0}
     9c8:	0000073d 	andeq	r0, r0, sp, lsr r7
     9cc:	000082c8 	andeq	r8, r0, r8, asr #5
     9d0:	00023001 	andeq	r3, r2, r1
     9d4:	11460100 	mrsne	r0, (UNDEF: 86)
     9d8:	000004d9 	ldrdeq	r0, [r0], -r9
     9dc:	00074e1f 	andeq	r4, r7, pc, lsl lr
     9e0:	00049c00 	andeq	r9, r4, r0, lsl #24
     9e4:	00049800 	andeq	r9, r4, r0, lsl #16
     9e8:	08180000 	ldmdaeq	r8, {}	; <UNPREDICTABLE>
     9ec:	8e000083 	cdphi	0, 0, cr0, cr0, cr3, {4}
     9f0:	0f000009 	svceq	0x00000009
     9f4:	19000005 	stmdbne	r0, {r0, r2}
     9f8:	03055001 	movweq	r5, #20481	; 0x5001
     9fc:	0000a240 	andeq	sl, r0, r0, asr #4
     a00:	05510119 	ldrbeq	r0, [r1, #-281]	; 0xfffffee7
     a04:	00a23403 	adceq	r3, r2, r3, lsl #8
     a08:	52011900 	andpl	r1, r1, #0, 18
     a0c:	a2a00305 	adcge	r0, r0, #335544320	; 0x14000000
     a10:	01190000 	tsteq	r9, r0
     a14:	4f080253 	svcmi	0x00080253
     a18:	007d0219 	rsbseq	r0, sp, r9, lsl r2
     a1c:	00007502 	andeq	r7, r0, r2, lsl #10
     a20:	00830c26 	addeq	r0, r3, r6, lsr #24
     a24:	00099a00 	andeq	r9, r9, r0, lsl #20
     a28:	18000000 	stmdane	r0, {}	; <UNPREDICTABLE>
     a2c:	00008240 	andeq	r8, r0, r0, asr #4
     a30:	0000098e 	andeq	r0, r0, lr, lsl #19
     a34:	00000543 	andeq	r0, r0, r3, asr #10
     a38:	05500119 	ldrbeq	r0, [r0, #-281]	; 0xfffffee7
     a3c:	00a1d803 	adceq	sp, r1, r3, lsl #16
     a40:	51011900 	tstpl	r1, r0, lsl #18
     a44:	19007602 	stmdbne	r0, {r1, r9, sl, ip, sp, lr}
     a48:	77025201 	strvc	r5, [r2, -r1, lsl #4]
     a4c:	53011900 	movwpl	r1, #6400	; 0x1900
     a50:	00007802 	andeq	r7, r0, r2, lsl #16
     a54:	00824c18 	addeq	r4, r2, r8, lsl ip
     a58:	00098e00 	andeq	r8, r9, r0, lsl #28
     a5c:	00056000 	andeq	r6, r5, r0
     a60:	50011900 	andpl	r1, r1, r0, lsl #18
     a64:	a1e40305 	mvnge	r0, r5, lsl #6
     a68:	01190000 	tsteq	r9, r0
     a6c:	00740251 	rsbseq	r0, r4, r1, asr r2
     a70:	83242700 			; <UNDEFINED> instruction: 0x83242700
     a74:	09a60000 	stmibeq	r6!, {}	; <UNPREDICTABLE>
     a78:	05780000 	ldrbeq	r0, [r8, #-0]!
     a7c:	01190000 	tsteq	r9, r0
     a80:	01f30650 	mvnseq	r0, r0, asr r6
     a84:	1ca80850 	stcne	8, cr0, [r8], #320	; 0x140
     a88:	83441800 	movthi	r1, #18432	; 0x4800
     a8c:	098e0000 	stmibeq	lr, {}	; <UNPREDICTABLE>
     a90:	05a10000 	streq	r0, [r1, #0]!
     a94:	01190000 	tsteq	r9, r0
     a98:	f4030550 	vst3.16	{d0,d2,d4}, [r3 :64], r0
     a9c:	190000a1 	stmdbne	r0, {r0, r5, r7}
     aa0:	76025101 	strvc	r5, [r2], -r1, lsl #2
     aa4:	52011900 	andpl	r1, r1, #0, 18
     aa8:	19007702 	stmdbne	r0, {r1, r8, r9, sl, ip, sp, lr}
     aac:	78025301 	stmdavc	r2, {r0, r8, r9, ip, lr}
     ab0:	50180000 	andspl	r0, r8, r0
     ab4:	8e000083 	cdphi	0, 0, cr0, cr0, cr3, {4}
     ab8:	b8000009 	stmdalt	r0, {r0, r3}
     abc:	19000005 	stmdbne	r0, {r0, r2}
     ac0:	03055001 	movweq	r5, #20481	; 0x5001
     ac4:	0000a20c 	andeq	sl, r0, ip, lsl #4
     ac8:	83542600 	cmphi	r4, #0, 12
     acc:	099a0000 	ldmibeq	sl, {}	; <UNPREDICTABLE>
     ad0:	70180000 	andsvc	r0, r8, r0
     ad4:	8e000083 	cdphi	0, 0, cr0, cr0, cr3, {4}
     ad8:	fa000009 	blx	b04 <__code_start__-0x74fc>
     adc:	19000005 	stmdbne	r0, {r0, r2}
     ae0:	03055001 	movweq	r5, #20481	; 0x5001
     ae4:	0000a138 	andeq	sl, r0, r8, lsr r1
     ae8:	05510119 	ldrbeq	r0, [r1, #-281]	; 0xfffffee7
     aec:	00a23403 	adceq	r3, r2, r3, lsl #8
     af0:	52011900 	andpl	r1, r1, #0, 18
     af4:	a2ac0305 	adcge	r0, ip, #335544320	; 0x14000000
     af8:	01190000 	tsteq	r9, r0
     afc:	5d080253 	sfmpl	f0, 4, [r8, #-332]	; 0xfffffeb4
     b00:	007d0219 	rsbseq	r0, sp, r9, lsl r2
     b04:	a26c0305 	rsbge	r0, ip, #335544320	; 0x14000000
     b08:	26000000 	strcs	r0, [r0], -r0
     b0c:	00008374 	andeq	r8, r0, r4, ror r3
     b10:	0000099a 	muleq	r0, sl, r9
     b14:	00cc1000 	sbceq	r1, ip, r0
     b18:	06140000 	ldreq	r0, [r4], -r0
     b1c:	2c110000 	ldccs	0, cr0, [r1], {-0}
     b20:	06000000 	streq	r0, [r0], -r0
     b24:	06040900 	streq	r0, [r4], -r0, lsl #18
     b28:	ad280000 	stcge	0, cr0, [r8, #-0]
     b2c:	01000002 	tsteq	r0, r2
     b30:	60010d3a 	andvs	r0, r1, sl, lsr sp
     b34:	29000006 	stmdbcs	r0, {r1, r2}
     b38:	3a01006c 	bcc	40cf0 <__bss_end__+0x35f08>
     b3c:	00066021 	andeq	r6, r6, r1, lsr #32
     b40:	00682900 	rsbeq	r2, r8, r0, lsl #18
     b44:	1b2b3a01 	blne	acf350 <__bss_end__+0xac4568>
     b48:	1d000002 	stcne	0, cr0, [r0, #-8]
     b4c:	00000090 	muleq	r0, r0, r0
     b50:	00000676 	andeq	r0, r0, r6, ror r6
     b54:	a2a00305 	adcge	r0, r0, #335544320	; 0x14000000
     b58:	362a0000 	strtcc	r0, [sl], -r0
     b5c:	01000002 	tsteq	r0, r2
     b60:	021b0c3d 	andseq	r0, fp, #15616	; 0x3d00
     b64:	702b0000 	eorvc	r0, fp, r0
     b68:	0c450100 	stfeqe	f0, [r5], {-0}
     b6c:	0000021b 	andeq	r0, r0, fp, lsl r2
     b70:	1b040800 	blne	102b78 <__bss_end__+0xf7d90>
     b74:	10000002 	andne	r0, r0, r2
     b78:	000000cc 	andeq	r0, r0, ip, asr #1
     b7c:	00000676 	andeq	r0, r0, r6, ror r6
     b80:	00002c11 	andeq	r2, r0, r1, lsl ip
     b84:	09000b00 	stmdbeq	r0, {r8, r9, fp}
     b88:	00000666 	andeq	r0, r0, r6, ror #12
     b8c:	0002b92c 	andeq	fp, r2, ip, lsr #18
     b90:	082b0100 	stmdaeq	fp!, {r8}
     b94:	0000021b 	andeq	r0, r0, fp, lsl r2
     b98:	0006c501 	andeq	ip, r6, r1, lsl #10
     b9c:	74702900 	ldrbtvc	r2, [r0], #-2304	; 0xfffff700
     ba0:	2b010072 	blcs	40d70 <__bss_end__+0x35f88>
     ba4:	0001fb20 	andeq	pc, r1, r0, lsr #22
     ba8:	682b2d00 	stmdavs	fp!, {r8, sl, fp, sp}
     bac:	112e0100 			; <UNDEFINED> instruction: 0x112e0100
     bb0:	0000021b 	andeq	r0, r0, fp, lsl r2
     bb4:	0082001a 	addeq	r0, r2, sl, lsl r0
     bb8:	00098e00 	andeq	r8, r9, r0, lsl #28
     bbc:	50011900 	andpl	r1, r1, r0, lsl #18
     bc0:	a1c80305 	bicge	r0, r8, r5, lsl #6
     bc4:	01190000 	tsteq	r9, r0
     bc8:	01f30351 	mvnseq	r0, r1, asr r3
     bcc:	52011950 	andpl	r1, r1, #80, 18	; 0x140000
     bd0:	00007402 	andeq	r7, r0, r2, lsl #8
     bd4:	552c0000 	strpl	r0, [ip, #-0]!
     bd8:	01000002 	tsteq	r0, r2
     bdc:	002c0a24 	eoreq	r0, ip, r4, lsr #20
     be0:	05010000 	streq	r0, [r1, #-0]
     be4:	29000007 	stmdbcs	r0, {r0, r1, r2}
     be8:	24010068 	strcs	r0, [r1], #-104	; 0xffffff98
     bec:	00021b21 	andeq	r1, r2, r1, lsr #22
     bf0:	74702900 	ldrbtvc	r2, [r0], #-2304	; 0xfffff700
     bf4:	24010072 	strcs	r0, [r1], #-114	; 0xffffff8e
     bf8:	0001fb2a 	andeq	pc, r1, sl, lsr #22
     bfc:	696d2b00 	stmdbvs	sp!, {r8, r9, fp, sp}^
     c00:	2601006e 	strcs	r0, [r1], -lr, rrx
     c04:	0001fb0b 	andeq	pc, r1, fp, lsl #22
     c08:	616d2b00 	cmnvs	sp, r0, lsl #22
     c0c:	27010078 	smlsdxcs	r1, r8, r0, r0
     c10:	0001fb0b 	andeq	pc, r1, fp, lsl #22
     c14:	f62c0000 			; <UNDEFINED> instruction: 0xf62c0000
     c18:	01000002 	tsteq	r0, r2
     c1c:	01fb071e 	mvnseq	r0, lr, lsl r7
     c20:	21010000 	mrscs	r0, (UNDEF: 1)
     c24:	29000007 	stmdbcs	r0, {r0, r1, r2}
     c28:	1e010068 	cdpne	0, 0, cr0, cr1, cr8, {3}
     c2c:	00021b19 	andeq	r1, r2, r9, lsl fp
     c30:	e92c0000 	stmdb	ip!, {}	; <UNPREDICTABLE>
     c34:	01000002 	tsteq	r0, r2
     c38:	01fb0718 	mvnseq	r0, r8, lsl r7
     c3c:	3d010000 	stccc	0, cr0, [r1, #-0]
     c40:	29000007 	stmdbcs	r0, {r0, r1, r2}
     c44:	18010068 	stmdane	r1, {r3, r5, r6}
     c48:	00021b1b 	andeq	r1, r2, fp, lsl fp
     c4c:	cb2c0000 	blgt	b00c54 <__bss_end__+0xaf5e6c>
     c50:	01000002 	tsteq	r0, r2
     c54:	021b0811 	andseq	r0, fp, #1114112	; 0x110000
     c58:	59010000 	stmdbpl	r1, {}	; <UNPREDICTABLE>
     c5c:	29000007 	stmdbcs	r0, {r0, r1, r2}
     c60:	11010070 	tstne	r1, r0, ror r0
     c64:	00021b1b 	andeq	r1, r2, fp, lsl fp
     c68:	8e2e0000 	cdphi	0, 2, cr0, cr14, cr0, {0}
     c6c:	01000002 	tsteq	r0, r2
     c70:	021b080b 	andseq	r0, fp, #720896	; 0xb0000
     c74:	2f010000 	svccs	0x00010000
     c78:	00000301 	andeq	r0, r0, r1, lsl #6
     c7c:	2c182e02 	ldccs	14, cr2, [r8], {2}
     c80:	03000000 	movweq	r0, #0
     c84:	00000782 	andeq	r0, r0, r2, lsl #15
     c88:	02006829 	andeq	r6, r0, #2686976	; 0x290000
     c8c:	021b292e 	andseq	r2, fp, #753664	; 0xb8000
     c90:	30000000 	andcc	r0, r0, r0
     c94:	00000759 	andeq	r0, r0, r9, asr r7
     c98:	00008140 	andeq	r8, r0, r0, asr #2
     c9c:	00000010 	andeq	r0, r0, r0, lsl r0
     ca0:	3d319c01 	ldccc	12, cr9, [r1, #-4]!
     ca4:	50000007 	andpl	r0, r0, r7
     ca8:	0c000081 	stceq	0, cr0, [r0], {129}	; 0x81
     cac:	01000000 	mrseq	r0, (UNDEF: 0)
     cb0:	0007b29c 	muleq	r7, ip, r2
     cb4:	074e1f00 	strbeq	r1, [lr, -r0, lsl #30]
     cb8:	04be0000 	ldrteq	r0, [lr], #0
     cbc:	04ba0000 	ldrteq	r0, [sl], #0
     cc0:	31000000 	mrscc	r0, (UNDEF: 0)
     cc4:	00000721 	andeq	r0, r0, r1, lsr #14
     cc8:	0000815c 	andeq	r8, r0, ip, asr r1
     ccc:	00000008 	andeq	r0, r0, r8
     cd0:	07d39c01 	ldrbeq	r9, [r3, r1, lsl #24]
     cd4:	321f0000 	andscc	r0, pc, #0, 0
     cd8:	e3000007 	movw	r0, #7
     cdc:	df000004 	svcle	0x00000004
     ce0:	00000004 	andeq	r0, r0, r4
     ce4:	00070531 	andeq	r0, r7, r1, lsr r5
     ce8:	00816400 	addeq	r6, r1, r0, lsl #8
     cec:	00001000 	andeq	r1, r0, r0
     cf0:	f49c0100 			; <UNDEFINED> instruction: 0xf49c0100
     cf4:	1f000007 	svcne	0x00000007
     cf8:	00000716 	andeq	r0, r0, r6, lsl r7
     cfc:	00000508 	andeq	r0, r0, r8, lsl #10
     d00:	00000504 	andeq	r0, r0, r4, lsl #10
     d04:	06c53100 	strbeq	r3, [r5], r0, lsl #2
     d08:	81740000 	cmnhi	r4, r0
     d0c:	00240000 	eoreq	r0, r4, r0
     d10:	9c010000 	stcls	0, cr0, [r1], {-0}
     d14:	00000878 	andeq	r0, r0, r8, ror r8
     d18:	0006d61f 	andeq	sp, r6, pc, lsl r6
     d1c:	00052d00 	andeq	r2, r5, r0, lsl #26
     d20:	00052900 	andeq	r2, r5, r0, lsl #18
     d24:	06e03200 	strbteq	r3, [r0], r0, lsl #4
     d28:	51010000 	mrspl	r0, (UNDEF: 1)
     d2c:	0006ec21 	andeq	lr, r6, r1, lsr #24
     d30:	00055200 	andeq	r5, r5, r0, lsl #4
     d34:	00054e00 	andeq	r4, r5, r0, lsl #28
     d38:	06f82100 	ldrbteq	r2, [r8], r0, lsl #2
     d3c:	05770000 	ldrbeq	r0, [r7, #-0]!
     d40:	05730000 	ldrbeq	r0, [r3, #-0]!
     d44:	211e0000 	tstcs	lr, r0
     d48:	74000007 	strvc	r0, [r0], #-7
     d4c:	02000081 	andeq	r0, r0, #129, 0	; 0x81
     d50:	00000068 	andeq	r0, r0, r8, rrx
     d54:	58112601 	ldmdapl	r1, {r0, r9, sl, sp}
     d58:	1f000008 	svcne	0x00000008
     d5c:	00000732 	andeq	r0, r0, r2, lsr r7
     d60:	000005a7 	andeq	r0, r0, r7, lsr #11
     d64:	000005a5 	andeq	r0, r0, r5, lsr #11
     d68:	07052500 	streq	r2, [r5, -r0, lsl #10]
     d6c:	81740000 	cmnhi	r4, r0
     d70:	80060000 	andhi	r0, r6, r0
     d74:	01000000 	mrseq	r0, (UNDEF: 0)
     d78:	161f1127 	ldrne	r1, [pc], -r7, lsr #2
     d7c:	bc000007 	stclt	0, cr0, [r0], {7}
     d80:	ba000005 	blt	d9c <__code_start__-0x7264>
     d84:	00000005 	andeq	r0, r0, r5
     d88:	067b3100 	ldrbteq	r3, [fp], -r0, lsl #2
     d8c:	81980000 	orrshi	r0, r8, r0
     d90:	00780000 	rsbseq	r0, r8, r0
     d94:	9c010000 	stcls	0, cr0, [r1], {-0}
     d98:	00000976 	andeq	r0, r0, r6, ror r9
     d9c:	00068c1f 	andeq	r8, r6, pc, lsl ip
     da0:	0005d500 	andeq	sp, r5, r0, lsl #10
     da4:	0005cf00 	andeq	ip, r5, r0, lsl #30
     da8:	06982000 	ldreq	r2, [r8], r0
     dac:	00a00000 	adceq	r0, r0, r0
     db0:	99210000 	stmdbls	r1!, {}	; <UNPREDICTABLE>
     db4:	05000006 	streq	r0, [r0, #-6]
     db8:	01000006 	tsteq	r0, r6
     dbc:	22000006 	andcs	r0, r0, #6, 0
     dc0:	00000759 	andeq	r0, r0, r9, asr r7
     dc4:	00008198 	muleq	r0, r8, r1
     dc8:	0000c803 	andeq	ip, r0, r3, lsl #16
     dcc:	152e0100 	strne	r0, [lr, #-256]!	; 0xffffff00
     dd0:	0006c51e 	andeq	ip, r6, lr, lsl r5
     dd4:	0081ac00 	addeq	sl, r1, r0, lsl #24
     dd8:	00e00100 	rsceq	r0, r0, r0, lsl #2
     ddc:	31010000 	mrscc	r0, (UNDEF: 1)
     de0:	0009510d 	andeq	r5, r9, sp, lsl #2
     de4:	06e01f00 	strbteq	r1, [r0], r0, lsl #30
     de8:	06270000 	strteq	r0, [r7], -r0
     dec:	06230000 	strteq	r0, [r3], -r0
     df0:	d61f0000 	ldrle	r0, [pc], -r0
     df4:	49000006 	stmdbmi	r0, {r1, r2}
     df8:	45000006 	strmi	r0, [r0, #-6]
     dfc:	24000006 	strcs	r0, [r0], #-6
     e00:	000000e0 	andeq	r0, r0, r0, ror #1
     e04:	0006ec21 	andeq	lr, r6, r1, lsr #24
     e08:	00067100 	andeq	r7, r6, r0, lsl #2
     e0c:	00066700 	andeq	r6, r6, r0, lsl #14
     e10:	06f82100 	ldrbteq	r2, [r8], r0, lsl #2
     e14:	06c50000 	strbeq	r0, [r5], r0
     e18:	06bf0000 	ldrteq	r0, [pc], r0
     e1c:	211e0000 	tstcs	lr, r0
     e20:	ac000007 	stcge	0, cr0, [r0], {7}
     e24:	03000081 	movweq	r0, #129	; 0x81
     e28:	00000118 	andeq	r0, r0, r8, lsl r1
     e2c:	30112601 	andscc	r2, r1, r1, lsl #12
     e30:	1f000009 	svcne	0x00000009
     e34:	00000732 	andeq	r0, r0, r2, lsr r7
     e38:	00000717 	andeq	r0, r0, r7, lsl r7
     e3c:	00000713 	andeq	r0, r0, r3, lsl r7
     e40:	07052500 	streq	r2, [r5, -r0, lsl #10]
     e44:	81ac0000 			; <UNDEFINED> instruction: 0x81ac0000
     e48:	40070000 	andmi	r0, r7, r0
     e4c:	01000001 	tsteq	r0, r1
     e50:	161f1127 	ldrne	r1, [pc], -r7, lsr #2
     e54:	39000007 	stmdbcc	r0, {r0, r1, r2}
     e58:	35000007 	strcc	r0, [r0, #-7]
     e5c:	00000007 	andeq	r0, r0, r7
     e60:	3d330000 	ldccc	0, cr0, [r3, #-0]
     e64:	b8000007 	stmdalt	r0, {r0, r1, r2}
     e68:	03000081 	movweq	r0, #129	; 0x81
     e6c:	000081b8 			; <UNDEFINED> instruction: 0x000081b8
     e70:	00000004 	andeq	r0, r0, r4
     e74:	1f2c2e01 	svcne	0x002c2e01
     e78:	0000074e 	andeq	r0, r0, lr, asr #14
     e7c:	00000759 	andeq	r0, r0, r9, asr r7
     e80:	00000757 	andeq	r0, r0, r7, asr r7
     e84:	34000000 	strcc	r0, [r0], #-0
     e88:	0000030b 	andeq	r0, r0, fp, lsl #6
     e8c:	0000030b 	andeq	r0, r0, fp, lsl #6
     e90:	34071e06 	strcc	r1, [r7], #-3590	; 0xfffff1fa
     e94:	0000022f 	andeq	r0, r0, pc, lsr #4
     e98:	0000022f 	andeq	r0, r0, pc, lsr #4
     e9c:	3407f204 	strcc	pc, [r7], #-516	; 0xfffffdfc
     ea0:	000004e0 	andeq	r0, r0, r0, ror #9
     ea4:	000004e0 	andeq	r0, r0, r0, ror #9
     ea8:	34062804 	strcc	r2, [r6], #-2052	; 0xfffff7fc
     eac:	000000a7 	andeq	r0, r0, r7, lsr #1
     eb0:	000000a7 	andeq	r0, r0, r7, lsr #1
     eb4:	34066e04 	strcc	r6, [r6], #-3588	; 0xfffff1fc
     eb8:	00000277 	andeq	r0, r0, r7, ror r2
     ebc:	00000277 	andeq	r0, r0, r7, ror r2
     ec0:	00061f06 	andeq	r1, r6, r6, lsl #30
     ec4:	000002fb 	strdeq	r0, [r0], -fp
     ec8:	05580004 	ldrbeq	r0, [r8, #-4]
     ecc:	01040000 	mrseq	r0, (UNDEF: 4)
     ed0:	0000016a 	andeq	r0, r0, sl, ror #2
     ed4:	0003350c 	andeq	r3, r3, ip, lsl #10
     ed8:	0000da00 	andeq	sp, r0, r0, lsl #20
     edc:	00843000 	addeq	r3, r4, r0
     ee0:	00018800 	andeq	r8, r1, r0, lsl #16
     ee4:	00063100 	andeq	r3, r6, r0, lsl #2
     ee8:	05040200 	streq	r0, [r4, #-512]	; 0xfffffe00
     eec:	00746e69 	rsbseq	r6, r4, r9, ror #28
     ef0:	2b070403 	blcs	1c1f04 <__bss_end__+0x1b711c>
     ef4:	03000001 	movweq	r0, #1
     ef8:	00c30601 	sbceq	r0, r3, r1, lsl #12
     efc:	02030000 	andeq	r0, r3, #0, 0
     f00:	00002105 	andeq	r2, r0, r5, lsl #2
     f04:	05040300 	streq	r0, [r4, #-768]	; 0xfffffd00
     f08:	00000056 	andeq	r0, r0, r6, asr r0
     f0c:	51050803 	tstpl	r5, r3, lsl #16
     f10:	03000000 	movweq	r0, #0
     f14:	00c10801 	sbceq	r0, r1, r1, lsl #16
     f18:	02030000 	andeq	r0, r3, #0, 0
     f1c:	00015207 	andeq	r5, r1, r7, lsl #4
     f20:	07040300 	streq	r0, [r4, -r0, lsl #6]
     f24:	00000126 	andeq	r0, r0, r6, lsr #2
     f28:	21070803 	tstcs	r7, r3, lsl #16
     f2c:	04000001 	streq	r0, [r0], #-1
     f30:	00000025 	andeq	r0, r0, r5, lsr #32
     f34:	0000007a 	andeq	r0, r0, sl, ror r0
     f38:	00002505 	andeq	r2, r0, r5, lsl #10
     f3c:	2b060000 	blcs	180f44 <__bss_end__+0x17615c>
     f40:	02000000 	andeq	r0, r0, #0, 0
     f44:	00860e1c 	addeq	r0, r6, ip, lsl lr
     f48:	04070000 	streq	r0, [r7], #-0
     f4c:	0000006b 	andeq	r0, r0, fp, rrx
     f50:	00002504 	andeq	r2, r0, r4, lsl #10
     f54:	00009b00 	andeq	r9, r0, r0, lsl #22
     f58:	009b0500 	addseq	r0, fp, r0, lsl #10
     f5c:	07000000 	streq	r0, [r0, -r0]
     f60:	0000a804 	andeq	sl, r0, r4, lsl #16
     f64:	08010300 	stmdaeq	r1, {r8, r9}
     f68:	000000ca 	andeq	r0, r0, sl, asr #1
     f6c:	0000a108 	andeq	sl, r0, r8, lsl #2
     f70:	051e0600 	ldreq	r0, [lr, #-1536]	; 0xfffffa00
     f74:	21020000 	mrscs	r0, (UNDEF: 2)
     f78:	0000b90e 	andeq	fp, r0, lr, lsl #18
     f7c:	8c040700 	stchi	7, cr0, [r4], {-0}
     f80:	09000000 	stmdbeq	r0, {}	; <UNPREDICTABLE>
     f84:	00000322 	andeq	r0, r0, r2, lsr #6
     f88:	07050108 	streq	r0, [r5, -r8, lsl #2]
     f8c:	000000ec 	andeq	r0, r0, ip, ror #1
     f90:	0100640a 	tsteq	r0, sl, lsl #8
     f94:	00ec0907 	rsceq	r0, ip, r7, lsl #18
     f98:	700a0000 	andvc	r0, sl, r0
     f9c:	08080100 	stmdaeq	r8, {r8}
     fa0:	000000f3 	strdeq	r0, [r0], -r3
     fa4:	0070660a 	rsbseq	r6, r0, sl, lsl #12
     fa8:	f6090901 			; <UNDEFINED> instruction: 0xf6090901
     fac:	00000000 	andeq	r0, r0, r0
     fb0:	41040803 	tstmi	r4, r3, lsl #16
     fb4:	0b000003 	bleq	fc8 <__code_start__-0x7038>
     fb8:	04070c04 	streq	r0, [r7], #-3076	; 0xfffff3fc
     fbc:	000000f5 	strdeq	r0, [r0], -r5
     fc0:	0e01080d 	cdpeq	8, 0, cr0, cr1, cr13, {0}
     fc4:	00012002 	andeq	r2, r1, r2
     fc8:	74700e00 	ldrbtvc	r0, [r0], #-3584	; 0xfffff200
     fcc:	10010072 	andne	r0, r1, r2, ror r0
     fd0:	00014211 	andeq	r4, r1, r1, lsl r2
     fd4:	5b0f0000 	blpl	3c0fdc <__bss_end__+0x3b61f4>
     fd8:	01000003 	tsteq	r0, r3
     fdc:	002c0c11 	eoreq	r0, ip, r1, lsl ip
     fe0:	00040000 	andeq	r0, r4, r0
     fe4:	00031509 	andeq	r1, r3, r9, lsl #10
     fe8:	0c010800 	stceq	8, cr0, [r1], {-0}
     fec:	0001420f 	andeq	r4, r1, pc, lsl #4
     ff0:	00730a00 	rsbseq	r0, r3, r0, lsl #20
     ff4:	fc041201 	stc2	2, cr1, [r4], {1}
     ff8:	0a000000 	beq	1000 <__code_start__-0x7000>
     ffc:	13010078 	movwne	r0, #4216	; 0x1078
    1000:	0000bf0e 	andeq	fp, r0, lr, lsl #30
    1004:	04070000 	streq	r0, [r7], #-0
    1008:	00000120 	andeq	r0, r0, r0, lsr #2
    100c:	00036010 	andeq	r6, r3, r0, lsl r0
    1010:	03140100 	tsteq	r4, #0
    1014:	00000120 	andeq	r0, r0, r0, lsr #2
    1018:	00034811 	andeq	r4, r3, r1, lsl r8
    101c:	0f180100 	svceq	0x00180100
    1020:	00000148 	andeq	r0, r0, r8, asr #2
    1024:	a9d00305 	ldmibge	r0, {r0, r2, r8, r9}^
    1028:	28110000 	ldmdacs	r1, {}	; <UNPREDICTABLE>
    102c:	01000003 	tsteq	r0, r3
    1030:	01781019 	cmneq	r8, r9, lsl r0
    1034:	03050000 	movweq	r0, #20480	; 0x5000
    1038:	0000a9c8 	andeq	sl, r0, r8, asr #19
    103c:	01480407 	cmpeq	r8, r7, lsl #8
    1040:	77120000 	ldrvc	r0, [r2, -r0]
    1044:	01000002 	tsteq	r0, r2
    1048:	84300653 	ldrthi	r0, [r0], #-1619	; 0xfffff9ad
    104c:	00880000 	addeq	r0, r8, r0
    1050:	9c010000 	stcls	0, cr0, [r1], {-0}
    1054:	000001cd 	andeq	r0, r0, sp, asr #3
    1058:	00706113 	rsbseq	r6, r0, r3, lsl r1
    105c:	f3145301 	vcgt.u16	d5, d4, d1
    1060:	72000000 	andvc	r0, r0, #0, 0
    1064:	6c000007 	stcvs	0, cr0, [r0], {7}
    1068:	14000007 	strne	r0, [r0], #-7
    106c:	01007062 	tsteq	r0, r2, rrx
    1070:	01780a55 	cmneq	r8, r5, asr sl
    1074:	07a40000 	streq	r0, [r4, r0]!
    1078:	07a00000 	streq	r0, [r0, r0]!
    107c:	70140000 	andsvc	r0, r4, r0
    1080:	0f550100 	svceq	0x00550100
    1084:	00000178 	andeq	r0, r0, r8, ror r1
    1088:	000007c9 	andeq	r0, r0, r9, asr #15
    108c:	000007c7 	andeq	r0, r0, r7, asr #15
    1090:	030b1500 	movweq	r1, #46336	; 0xb500
    1094:	2b010000 	blcs	4109c <__bss_end__+0x362b4>
    1098:	0000f307 	andeq	pc, r0, r7, lsl #6
    109c:	0084b800 	addeq	fp, r4, r0, lsl #16
    10a0:	00010000 	andeq	r0, r1, r0
    10a4:	ad9c0100 	ldfges	f0, [ip]
    10a8:	16000002 	strne	r0, [r0], -r2
    10ac:	00000304 	andeq	r0, r0, r4, lsl #6
    10b0:	2c1a2b01 			; <UNDEFINED> instruction: 0x2c1a2b01
    10b4:	e4000000 	str	r0, [r0], #-0
    10b8:	dc000007 	stcle	0, cr0, [r0], {7}
    10bc:	14000007 	strne	r0, [r0], #-7
    10c0:	2d010070 	stccs	0, cr0, [r1, #-448]	; 0xfffffe40
    10c4:	0001780a 	andeq	r7, r1, sl, lsl #16
    10c8:	00082e00 	andeq	r2, r8, r0, lsl #28
    10cc:	00081e00 	andeq	r1, r8, r0, lsl #28
    10d0:	031c1700 	tsteq	ip, #0, 14
    10d4:	2d010000 	stccs	0, cr0, [r1, #-0]
    10d8:	0001780e 	andeq	r7, r1, lr, lsl #16
    10dc:	0008a600 	andeq	sl, r8, r0, lsl #12
    10e0:	00089a00 	andeq	r9, r8, r0, lsl #20
    10e4:	032e1700 			; <UNDEFINED> instruction: 0x032e1700
    10e8:	2e010000 	cdpcs	0, 0, cr0, cr1, cr0, {0}
    10ec:	00002c0b 	andeq	r2, r0, fp, lsl #24
    10f0:	0008f700 	andeq	pc, r8, r0, lsl #14
    10f4:	0008f500 	andeq	pc, r8, r0, lsl #10
    10f8:	02ad1800 	adceq	r1, sp, #0, 16
    10fc:	85100000 	ldrhi	r0, [r0, #-0]
    1100:	48010000 	stmdami	r1, {}	; <UNPREDICTABLE>
    1104:	01000002 	tsteq	r0, r2
    1108:	be190d4a 	cdplt	13, 1, cr0, cr9, cr10, {2}
    110c:	0c000002 	stceq	0, cr0, [r0], {2}
    1110:	0a000009 	beq	113c <__code_start__-0x6ec4>
    1114:	1a000009 	bne	1140 <__code_start__-0x6ec0>
    1118:	00000248 	andeq	r0, r0, r8, asr #4
    111c:	0002c91b 	andeq	ip, r2, fp, lsl r9
    1120:	00092600 	andeq	r2, r9, r0, lsl #12
    1124:	00092200 	andeq	r2, r9, r0, lsl #4
    1128:	02d41b00 	sbcseq	r1, r4, #0, 22
    112c:	09480000 	stmdbeq	r8, {}^	; <UNPREDICTABLE>
    1130:	09440000 	stmdbeq	r4, {}^	; <UNPREDICTABLE>
    1134:	1c1c0000 	ldcne	0, cr0, [ip], {-0}
    1138:	e6000085 	str	r0, [r0], -r5, lsl #1
    113c:	8c000002 	stchi	0, cr0, [r0], {2}
    1140:	1d000002 	stcne	0, cr0, [r0, #-8]
    1144:	76025001 	strvc	r5, [r2], -r1
    1148:	51011d00 	tstpl	r1, r0, lsl #26
    114c:	00007702 	andeq	r7, r0, r2, lsl #14
    1150:	0085241c 	addeq	r2, r5, ip, lsl r4
    1154:	0002f200 	andeq	pc, r2, r0, lsl #4
    1158:	0002a100 	andeq	sl, r2, r0, lsl #2
    115c:	50011d00 	andpl	r1, r1, r0, lsl #26
    1160:	243e4003 	ldrtcs	r4, [lr], #-3
    1164:	853c1e00 	ldrhi	r1, [ip, #-3584]!	; 0xfffff200
    1168:	017e0000 	cmneq	lr, r0
    116c:	00000000 	andeq	r0, r0, r0
    1170:	03521f00 	cmpeq	r2, #0, 30
    1174:	1c010000 	stcne	0, cr0, [r1], {-0}
    1178:	00017810 	andeq	r7, r1, r0, lsl r8
    117c:	02e00100 	rsceq	r0, r0, #0
    1180:	6e200000 	cdpvs	0, 2, cr0, cr0, cr0, {0}
    1184:	1c010075 	stcne	0, cr0, [r1], {117}	; 0x75
    1188:	00002c22 	andeq	r2, r0, r2, lsr #24
    118c:	70632100 	rsbvc	r2, r3, r0, lsl #2
    1190:	08210100 	stmdaeq	r1!, {r8}
    1194:	000002e0 	andeq	r0, r0, r0, ror #5
    1198:	00707521 	rsbseq	r7, r0, r1, lsr #10
    119c:	780a2401 	stmdavc	sl, {r0, sl, sp}
    11a0:	00000001 	andeq	r0, r0, r1
    11a4:	00a10407 	adceq	r0, r1, r7, lsl #8
    11a8:	e0220000 	eor	r0, r2, r0
    11ac:	e0000004 	and	r0, r0, r4
    11b0:	02000004 	andeq	r0, r0, #4, 0
    11b4:	4d220628 	stcmi	6, cr0, [r2, #-160]!	; 0xffffff60
    11b8:	4d000003 	stcmi	0, cr0, [r0, #-12]
    11bc:	03000003 	movweq	r0, #3
    11c0:	70000b1a 	andvc	r0, r0, sl, lsl fp
    11c4:	0400000d 	streq	r0, [r0], #-13
    11c8:	00075d00 	andeq	r5, r7, r0, lsl #26
    11cc:	6a010400 	bvs	421d4 <__bss_end__+0x373ec>
    11d0:	0c000001 	stceq	0, cr0, [r0], {1}
    11d4:	00000421 	andeq	r0, r0, r1, lsr #8
    11d8:	000000da 	ldrdeq	r0, [r0], -sl
    11dc:	000085b8 			; <UNDEFINED> instruction: 0x000085b8
    11e0:	00000584 	andeq	r0, r0, r4, lsl #11
    11e4:	00000871 	andeq	r0, r0, r1, ror r8
    11e8:	69050402 	stmdbvs	r5, {r1, sl}
    11ec:	0300746e 	movweq	r7, #1134	; 0x46e
    11f0:	012b0704 			; <UNDEFINED> instruction: 0x012b0704
    11f4:	01030000 	mrseq	r0, (UNDEF: 3)
    11f8:	0000c306 	andeq	ip, r0, r6, lsl #6
    11fc:	05020300 	streq	r0, [r2, #-768]	; 0xfffffd00
    1200:	00000021 	andeq	r0, r0, r1, lsr #32
    1204:	56050403 	strpl	r0, [r5], -r3, lsl #8
    1208:	03000000 	movweq	r0, #0
    120c:	00510508 	subseq	r0, r1, r8, lsl #10
    1210:	44040000 	strmi	r0, [r4], #-0
    1214:	03000000 	movweq	r0, #0
    1218:	005b182e 	subseq	r1, fp, lr, lsr #16
    121c:	01030000 	mrseq	r0, (UNDEF: 3)
    1220:	0000c108 	andeq	ip, r0, r8, lsl #2
    1224:	01410400 	cmpeq	r1, r0, lsl #8
    1228:	31030000 	mrscc	r0, (UNDEF: 3)
    122c:	00006e19 	andeq	r6, r0, r9, lsl lr
    1230:	07020300 	streq	r0, [r2, -r0, lsl #6]
    1234:	00000152 	andeq	r0, r0, r2, asr r1
    1238:	00013804 	andeq	r3, r1, r4, lsl #16
    123c:	19340300 	ldmdbne	r4!, {r8, r9}
    1240:	00000081 	andeq	r0, r0, r1, lsl #1
    1244:	26070403 	strcs	r0, [r7], -r3, lsl #8
    1248:	03000001 	movweq	r0, #1
    124c:	01210708 			; <UNDEFINED> instruction: 0x01210708
    1250:	25050000 	strcs	r0, [r5, #-0]
    1254:	9e000000 	cdpls	0, 0, cr0, cr0, cr0, {0}
    1258:	06000000 	streq	r0, [r0], -r0
    125c:	00000025 	andeq	r0, r0, r5, lsr #32
    1260:	002b0700 	eoreq	r0, fp, r0, lsl #14
    1264:	1c040000 	stcne	0, cr0, [r4], {-0}
    1268:	0000aa0e 	andeq	sl, r0, lr, lsl #20
    126c:	8f040800 	svchi	0x00040800
    1270:	05000000 	streq	r0, [r0, #-0]
    1274:	00000025 	andeq	r0, r0, r5, lsr #32
    1278:	000000bf 	strheq	r0, [r0], -pc	; <UNPREDICTABLE>
    127c:	0000bf06 	andeq	fp, r0, r6, lsl #30
    1280:	04080000 	streq	r0, [r8], #-0
    1284:	000000cc 	andeq	r0, r0, ip, asr #1
    1288:	ca080103 	bgt	20169c <__bss_end__+0x1f68b4>
    128c:	09000000 	stmdbeq	r0, {}	; <UNPREDICTABLE>
    1290:	000000c5 	andeq	r0, r0, r5, asr #1
    1294:	00051e07 	andeq	r1, r5, r7, lsl #28
    1298:	0e210400 	cdpeq	4, 2, cr0, cr1, cr0, {0}
    129c:	000000dd 	ldrdeq	r0, [r0], -sp
    12a0:	00b00408 	adcseq	r0, r0, r8, lsl #8
    12a4:	0c0a0000 	stceq	0, cr0, [sl], {-0}
    12a8:	14090402 	strne	r0, [r9], #-1026	; 0xfffffbfe
    12ac:	0b000001 	bleq	12b8 <__code_start__-0x6d48>
    12b0:	0000003f 	andeq	r0, r0, pc, lsr r0
    12b4:	bf110602 	svclt	0x00110602
    12b8:	00000000 	andeq	r0, r0, r0
    12bc:	00004c0b 	andeq	r4, r0, fp, lsl #24
    12c0:	11070200 	mrsne	r0, (UNDEF: 39)
    12c4:	000000bf 	strheq	r0, [r0], -pc	; <UNPREDICTABLE>
    12c8:	011a0b04 	tsteq	sl, r4, lsl #22
    12cc:	08020000 	stmdaeq	r2, {}	; <UNPREDICTABLE>
    12d0:	00002c0e 	andeq	r2, r0, lr, lsl #24
    12d4:	04000800 	streq	r0, [r0], #-2048	; 0xfffff800
    12d8:	0000024b 	andeq	r0, r0, fp, asr #4
    12dc:	e3030902 	movw	r0, #14594	; 0x3902
    12e0:	0c000000 	stceq	0, cr0, [r0], {-0}
    12e4:	005b0107 	subseq	r0, fp, r7, lsl #2
    12e8:	0a050000 	beq	1412f0 <__bss_end__+0x136508>
    12ec:	00013b06 	andeq	r3, r1, r6, lsl #22
    12f0:	027f0d00 	rsbseq	r0, pc, #0, 26
    12f4:	0d800000 	stceq	0, cr0, [r0]
    12f8:	0000026b 	andeq	r0, r0, fp, ror #4
    12fc:	890e00fe 	stmdbhi	lr, {r1, r2, r3, r4, r5, r6, r7}
    1300:	a8000000 	stmdage	r0, {}	; <UNPREDICTABLE>
    1304:	be100d05 	cdplt	13, 1, cr0, cr0, cr5, {0}
    1308:	0b000001 	bleq	1314 <__code_start__-0x6cec>
    130c:	00000246 	andeq	r0, r0, r6, asr #4
    1310:	be140e05 	cdplt	14, 1, cr0, cr4, cr5, {0}
    1314:	00000001 	andeq	r0, r0, r1
    1318:	0002220b 	andeq	r2, r2, fp, lsl #4
    131c:	0e0f0500 	cfsh32eq	mvfx0, mvfx15, #0
    1320:	00000075 	andeq	r0, r0, r5, ror r0
    1324:	000f0b04 	andeq	r0, pc, r4, lsl #22
    1328:	10050000 	andne	r0, r5, r0
    132c:	0000750e 	andeq	r7, r0, lr, lsl #10
    1330:	060b0800 	streq	r0, [fp], -r0, lsl #16
    1334:	05000000 	streq	r0, [r0, #-0]
    1338:	00750e14 	rsbseq	r0, r5, r4, lsl lr
    133c:	0b0c0000 	bleq	301344 <__bss_end__+0x2f655c>
    1340:	0000009d 	muleq	r0, sp, r0
    1344:	140f1605 	strne	r1, [pc], #-1541	; 134c <__code_start__-0x6cb4>
    1348:	10000001 	andne	r0, r0, r1
    134c:	0000cf0b 	andeq	ip, r0, fp, lsl #30
    1350:	0e190500 	cfmul32eq	mvfx0, mvfx9, mvfx0
    1354:	00000075 	andeq	r0, r0, r5, ror r0
    1358:	00150b1c 	andseq	r0, r5, ip, lsl fp
    135c:	1a050000 	bne	141364 <__bss_end__+0x13657c>
    1360:	0000750e 	andeq	r7, r0, lr, lsl #10
    1364:	b70b2000 	strlt	r2, [fp, -r0]
    1368:	05000003 	streq	r0, [r0, #-3]
    136c:	00620e1c 	rsbeq	r0, r2, ip, lsl lr
    1370:	0f240000 	svceq	0x00240000
    1374:	00317a72 	eorseq	r7, r1, r2, ror sl
    1378:	c40d1e05 	strgt	r1, [sp], #-3589	; 0xfffff1fb
    137c:	26000001 	strcs	r0, [r0], -r1
    1380:	3b040800 	blcc	103388 <__bss_end__+0xf85a0>
    1384:	10000001 	andne	r0, r0, r1
    1388:	0000004f 	andeq	r0, r0, pc, asr #32
    138c:	000001d4 	ldrdeq	r0, [r0], -r4
    1390:	00002c11 	andeq	r2, r0, r1, lsl ip
    1394:	04007f00 	streq	r7, [r0], #-3840	; 0xfffff100
    1398:	00000000 	andeq	r0, r0, r0
    139c:	3b031f05 	blcc	c8fb8 <__bss_end__+0xbe1d0>
    13a0:	12000001 	andne	r0, r0, #1, 0
    13a4:	00b40704 	adcseq	r0, r4, r4, lsl #14
    13a8:	a5050000 	strge	r0, [r5, #-0]
    13ac:	00002c11 	andeq	r2, r0, r1, lsl ip
    13b0:	09861300 	stmibeq	r6, {r8, r9, ip}
    13b4:	10010000 	andne	r0, r1, r0
    13b8:	0001e00e 	andeq	lr, r1, lr
    13bc:	d8030500 	stmdale	r3, {r8, sl}
    13c0:	130000a9 	movwne	r0, #169	; 0xa9
    13c4:	000009e7 	andeq	r0, r0, r7, ror #19
    13c8:	e00e1101 	and	r1, lr, r1, lsl #2
    13cc:	05000001 	streq	r0, [r0, #-1]
    13d0:	00a9dc03 	adceq	sp, r9, r3, lsl #24
    13d4:	037a1400 	cmneq	sl, #0, 8
    13d8:	15010000 	strne	r0, [r1, #-0]
    13dc:	8b100601 	blhi	402be8 <__bss_end__+0x3f7e00>
    13e0:	002c0000 	eoreq	r0, ip, r0
    13e4:	9c010000 	stcls	0, cr0, [r1], {-0}
    13e8:	00000272 	andeq	r0, r0, r2, ror r2
    13ec:	00009015 	andeq	r9, r0, r5, lsl r0
    13f0:	00028200 	andeq	r8, r2, r0, lsl #4
    13f4:	30030500 	andcc	r0, r3, r0, lsl #10
    13f8:	160000a6 	strne	r0, [r0], -r6, lsr #1
    13fc:	00008b28 	andeq	r8, r0, r8, lsr #22
    1400:	00000cec 	andeq	r0, r0, ip, ror #25
    1404:	00000268 	andeq	r0, r0, r8, ror #4
    1408:	05500117 	ldrbeq	r0, [r0, #-279]	; 0xfffffee9
    140c:	00a5c003 	adceq	ip, r5, r3
    1410:	51011700 	tstpl	r1, r0, lsl #14
    1414:	a2d80305 	sbcsge	r0, r8, #335544320	; 0x14000000
    1418:	01170000 	tsteq	r7, r0
    141c:	30030552 	andcc	r0, r3, r2, asr r5
    1420:	170000a6 	strne	r0, [r0, -r6, lsr #1]
    1424:	0a035301 	beq	d6030 <__bss_end__+0xcb248>
    1428:	18000117 	stmdane	r0, {r0, r1, r2, r4, r8}
    142c:	00008b2c 	andeq	r8, r0, ip, lsr #22
    1430:	00000cf8 	strdeq	r0, [r0], -r8
    1434:	00cc1000 	sbceq	r1, ip, r0
    1438:	02820000 	addeq	r0, r2, #0, 0
    143c:	2c110000 	ldccs	0, cr0, [r1], {-0}
    1440:	0e000000 	cdpeq	0, 0, cr0, cr0, cr0, {0}
    1444:	02720900 	rsbseq	r0, r2, #0, 18
    1448:	d7190000 	ldrle	r0, [r9, -r0]
    144c:	01000003 	tsteq	r0, r3
    1450:	2c0a010b 	stfcss	f0, [sl], {11}
    1454:	10000000 	andne	r0, r0, r0
    1458:	0000008a 	andeq	r0, r0, sl, lsl #1
    145c:	01000001 	tsteq	r0, r1
    1460:	0004159c 	muleq	r4, ip, r5
    1464:	03041a00 	movweq	r1, #18944	; 0x4a00
    1468:	0e010000 	cdpeq	0, 0, cr0, cr1, cr0, {0}
    146c:	002c0e01 	eoreq	r0, ip, r1, lsl #28
    1470:	09680000 	stmdbeq	r8!, {}^	; <UNPREDICTABLE>
    1474:	09660000 	stmdbeq	r6!, {}^	; <UNPREDICTABLE>
    1478:	151b0000 	ldrne	r0, [fp, #-0]
    147c:	1c000004 	stcne	0, cr0, [r0], {4}
    1480:	0100008a 	smlabbeq	r0, sl, r0, r0
    1484:	00000370 	andeq	r0, r0, r0, ror r3
    1488:	17010e01 	strne	r0, [r1, -r1, lsl #28]
    148c:	0000040b 	andeq	r0, r0, fp, lsl #8
    1490:	0003701c 	andeq	r7, r3, ip, lsl r0
    1494:	04261d00 	strteq	r1, [r6], #-3328	; 0xfffff300
    1498:	09830000 	stmibeq	r3, {}	; <UNPREDICTABLE>
    149c:	097b0000 	ldmdbeq	fp!, {}^	; <UNPREDICTABLE>
    14a0:	321d0000 	andscc	r0, sp, #0, 0
    14a4:	c1000004 	tstgt	r0, r4
    14a8:	b9000009 	stmdblt	r0, {r0, r3}
    14ac:	1d000009 	stcne	0, cr0, [r0, #-36]	; 0xffffffdc
    14b0:	0000043e 	andeq	r0, r0, lr, lsr r4
    14b4:	00000a01 	andeq	r0, r0, r1, lsl #20
    14b8:	000009f7 	strdeq	r0, [r0], -r7
    14bc:	0004591e 	andeq	r5, r4, lr, lsl r9
    14c0:	00038800 	andeq	r8, r3, r0, lsl #16
    14c4:	0003ad00 	andeq	sl, r3, r0, lsl #26
    14c8:	045a1d00 	ldrbeq	r1, [sl], #-3328	; 0xfffff300
    14cc:	0a4e0000 	beq	13814d4 <__bss_end__+0x13766ec>
    14d0:	0a420000 	beq	10814d8 <__bss_end__+0x10766f0>
    14d4:	dc1b0000 	ldcle	0, cr0, [fp], {-0}
    14d8:	dc00000a 	stcle	0, cr0, [r0], {10}
    14dc:	0200008a 	andeq	r0, r0, #138, 0	; 0x8a
    14e0:	000003a8 	andeq	r0, r0, r8, lsr #7
    14e4:	0d010101 	stfeqs	f0, [r1, #-4]
    14e8:	00000351 	andeq	r0, r0, r1, asr r3
    14ec:	000b051f 	andeq	r0, fp, pc, lsl r5
    14f0:	000a9d00 	andeq	r9, sl, r0, lsl #26
    14f4:	000a9b00 	andeq	r9, sl, r0, lsl #22
    14f8:	0af91f00 	beq	ffe49100 <__bss_end__+0xffe3e318>
    14fc:	0ab50000 	beq	fed41504 <__bss_end__+0xfed3671c>
    1500:	0ab30000 	beq	fecc1508 <__bss_end__+0xfecb6720>
    1504:	ed1f0000 	ldc	0, cr0, [pc, #-0]	; 150c <__code_start__-0x6af4>
    1508:	cf00000a 	svcgt	0x0000000a
    150c:	cd00000a 	stcgt	0, cr0, [r0, #-40]	; 0xffffffd8
    1510:	0000000a 	andeq	r0, r0, sl
    1514:	008a3418 	addeq	r3, sl, r8, lsl r4
    1518:	000d1300 	andeq	r1, sp, r0, lsl #6
    151c:	8a6c1600 	bhi	1b06d24 <__bss_end__+0x1afbf3c>
    1520:	0d1f0000 	ldceq	0, cr0, [pc, #-0]	; 1528 <__code_start__-0x6ad8>
    1524:	036e0000 	cmneq	lr, #0, 0
    1528:	01170000 	tsteq	r7, r0
    152c:	00740250 	rsbseq	r0, r4, r0, asr r2
    1530:	8ac01600 	bhi	ff006d38 <__bss_end__+0xfeffbf50>
    1534:	0d2b0000 	stceq	0, cr0, [fp, #-0]
    1538:	03820000 	orreq	r0, r2, #0, 0
    153c:	01170000 	tsteq	r7, r0
    1540:	007b0250 	rsbseq	r0, fp, r0, asr r2
    1544:	8acc1600 	bhi	ff306d4c <__bss_end__+0xff2fbf64>
    1548:	0cec0000 	stcleq	0, cr0, [ip]
    154c:	039c0000 	orrseq	r0, ip, #0, 0
    1550:	01170000 	tsteq	r7, r0
    1554:	00780250 	rsbseq	r0, r8, r0, asr r2
    1558:	02510117 	subseq	r0, r1, #-1073741819	; 0xc0000005
    155c:	2000007b 	andcs	r0, r0, fp, ror r0
    1560:	00008ad4 	ldrdeq	r8, [r0], -r4
    1564:	00000d1f 	andeq	r0, r0, pc, lsl sp
    1568:	02500117 	subseq	r0, r0, #-1073741819	; 0xc0000005
    156c:	00000074 	andeq	r0, r0, r4, ror r0
    1570:	008a2416 	addeq	r2, sl, r6, lsl r4
    1574:	000cec00 	andeq	lr, ip, r0, lsl #24
    1578:	0003c400 	andeq	ip, r3, r0, lsl #8
    157c:	50011700 	andpl	r1, r1, r0, lsl #14
    1580:	a3700305 	cmnge	r0, #335544320	; 0x14000000
    1584:	16000000 	strne	r0, [r0], -r0
    1588:	00008a2c 	andeq	r8, r0, ip, lsr #20
    158c:	00000cec 	andeq	r0, r0, ip, ror #25
    1590:	000003db 	ldrdeq	r0, [r0], -fp
    1594:	05500117 	ldrbeq	r0, [r0, #-279]	; 0xfffffee9
    1598:	00a56c03 	adceq	r6, r5, r3, lsl #24
    159c:	30180000 	andscc	r0, r8, r0
    15a0:	ef00008a 	svc	0x0000008a
    15a4:	20000007 	andcs	r0, r0, r7
    15a8:	00008a88 	andeq	r8, r0, r8, lsl #21
    15ac:	00000cec 	andeq	r0, r0, ip, ror #25
    15b0:	05500117 	ldrbeq	r0, [r0, #-279]	; 0xfffffee9
    15b4:	00a58c03 	adceq	r8, r5, r3, lsl #24
    15b8:	51011700 	tstpl	r1, r0, lsl #14
    15bc:	17007602 	strne	r7, [r0, -r2, lsl #12]
    15c0:	77025201 	strvc	r5, [r2, -r1, lsl #4]
    15c4:	53011700 	movwpl	r1, #5888	; 0x1700
    15c8:	00007502 	andeq	r7, r0, r2, lsl #10
    15cc:	1c180000 	ldcne	0, cr0, [r8], {-0}
    15d0:	ef00008a 	svc	0x0000008a
    15d4:	00000007 	andeq	r0, r0, r7
    15d8:	00048021 	andeq	r8, r4, r1, lsr #32
    15dc:	11f30100 	mvnsne	r0, r0, lsl #2
    15e0:	0000002c 	andeq	r0, r0, ip, lsr #32
    15e4:	00046601 	andeq	r6, r4, r1, lsl #12
    15e8:	03972200 	orrseq	r2, r7, #0, 4
    15ec:	f5010000 			; <UNDEFINED> instruction: 0xf5010000
    15f0:	00002c0e 	andeq	r2, r0, lr, lsl #24
    15f4:	040c2200 	streq	r2, [ip], #-512	; 0xfffffe00
    15f8:	f5010000 			; <UNDEFINED> instruction: 0xf5010000
    15fc:	00002c1b 	andeq	r2, r0, fp, lsl ip
    1600:	03a62200 			; <UNDEFINED> instruction: 0x03a62200
    1604:	f5010000 			; <UNDEFINED> instruction: 0xf5010000
    1608:	00002c27 	andeq	r2, r0, r7, lsr #24
    160c:	00901500 	addseq	r1, r0, r0, lsl #10
    1610:	04760000 	ldrbteq	r0, [r6], #-0
    1614:	03050000 	movweq	r0, #20480	; 0x5000
    1618:	0000a624 	andeq	sl, r0, r4, lsr #12
    161c:	00682423 	rsbeq	r2, r8, r3, lsr #8
    1620:	7b11fa01 	blvc	47fe2c <__bss_end__+0x475044>
    1624:	00000004 	andeq	r0, r0, r4
    1628:	00cc1000 	sbceq	r1, ip, r0
    162c:	04760000 	ldrbteq	r0, [r6], #-0
    1630:	2c110000 	ldccs	0, cr0, [r1], {-0}
    1634:	0a000000 	beq	163c <__code_start__-0x69c4>
    1638:	04660900 	strbteq	r0, [r6], #-2304	; 0xfffff700
    163c:	04080000 	streq	r0, [r8], #-0
    1640:	000001d4 	ldrdeq	r0, [r0], -r4
    1644:	00042925 	andeq	r2, r4, r5, lsr #18
    1648:	0ae30100 	beq	ff8c1a50 <__bss_end__+0xff8b6c68>
    164c:	0000002c 	andeq	r0, r0, ip, lsr #32
    1650:	000089c0 	andeq	r8, r0, r0, asr #19
    1654:	00000050 	andeq	r0, r0, r0, asr r0
    1658:	054a9c01 	strbeq	r9, [sl, #-3073]	; 0xfffff3ff
    165c:	e7260000 	str	r0, [r6, -r0]!
    1660:	01000003 	tsteq	r0, r3
    1664:	002c0ee9 	eoreq	r0, ip, r9, ror #29
    1668:	0aed0000 	beq	ffb41670 <__bss_end__+0xffb36888>
    166c:	0ae70000 	beq	ff9c1674 <__bss_end__+0xff9b688c>
    1670:	90150000 	andsls	r0, r5, r0
    1674:	5a000000 	bpl	167c <__code_start__-0x6984>
    1678:	05000005 	streq	r0, [r0, #-5]
    167c:	00a61003 	adceq	r1, r6, r3
    1680:	061f2700 	ldreq	r2, [pc], -r0, lsl #14
    1684:	89c40000 	stmibhi	r4, {}^	; <UNPREDICTABLE>
    1688:	c4020000 	strgt	r0, [r2], #-0
    168c:	08000089 	stmdaeq	r0, {r0, r3, r7}
    1690:	01000000 	mrseq	r0, (UNDEF: 0)
    1694:	04f417e9 	ldrbteq	r1, [r4], #2025	; 0x7e9
    1698:	301f0000 	andscc	r0, pc, r0
    169c:	18000006 	stmdane	r0, {r1, r2}
    16a0:	1600000b 	strne	r0, [r0], -fp
    16a4:	2000000b 	andcs	r0, r0, fp
    16a8:	000089cc 	andeq	r8, r0, ip, asr #19
    16ac:	0000063d 	andeq	r0, r0, sp, lsr r6
    16b0:	01500117 	cmpeq	r0, r7, lsl r1
    16b4:	16000031 			; <UNDEFINED> instruction: 0x16000031
    16b8:	000089e0 	andeq	r8, r0, r0, ror #19
    16bc:	00000cec 	andeq	r0, r0, ip, ror #25
    16c0:	00000511 	andeq	r0, r0, r1, lsl r5
    16c4:	05500117 	ldrbeq	r0, [r0, #-279]	; 0xfffffee9
    16c8:	00a54803 	adceq	r4, r5, r3, lsl #16
    16cc:	51011700 	tstpl	r1, r0, lsl #14
    16d0:	00007402 	andeq	r7, r0, r2, lsl #8
    16d4:	0089fc16 	addeq	pc, r9, r6, lsl ip	; <UNPREDICTABLE>
    16d8:	000cec00 	andeq	lr, ip, r0, lsl #24
    16dc:	00054000 	andeq	r4, r5, r0
    16e0:	50011700 	andpl	r1, r1, r0, lsl #14
    16e4:	a5200305 	strge	r0, [r0, #-773]!	; 0xfffffcfb
    16e8:	01170000 	tsteq	r7, r0
    16ec:	d8030551 	stmdale	r3, {r0, r4, r6, r8, sl}
    16f0:	170000a2 	strne	r0, [r0, -r2, lsr #1]
    16f4:	03055201 	movweq	r5, #20993	; 0x5201
    16f8:	0000a610 	andeq	sl, r0, r0, lsl r6
    16fc:	02530117 	subseq	r0, r3, #-1073741819	; 0xc0000005
    1700:	1800eb08 	stmdane	r0, {r3, r8, r9, fp, sp, lr, pc}
    1704:	00008a00 	andeq	r8, r0, r0, lsl #20
    1708:	00000cf8 	strdeq	r0, [r0], -r8
    170c:	00cc1000 	sbceq	r1, ip, r0
    1710:	055a0000 	ldrbeq	r0, [sl, #-0]
    1714:	2c110000 	ldccs	0, cr0, [r1], {-0}
    1718:	11000000 	mrsne	r0, (UNDEF: 0)
    171c:	054a0900 	strbeq	r0, [sl, #-2304]	; 0xfffff700
    1720:	0c280000 	stceq	0, cr0, [r8], #-0
    1724:	01000001 	tsteq	r0, r1
    1728:	897806d5 	ldmdbhi	r8!, {r0, r2, r4, r6, r7, r9, sl}^
    172c:	00480000 	subeq	r0, r8, r0
    1730:	9c010000 	stcls	0, cr0, [r1], {-0}
    1734:	0000060a 	andeq	r0, r0, sl, lsl #12
    1738:	00009015 	andeq	r9, r0, r5, lsl r0
    173c:	00061a00 	andeq	r1, r6, r0, lsl #20
    1740:	00030500 	andeq	r0, r3, r0, lsl #10
    1744:	270000a6 	strcs	r0, [r0, -r6, lsr #1]
    1748:	0000061f 	andeq	r0, r0, pc, lsl r6
    174c:	0000897c 	andeq	r8, r0, ip, ror r9
    1750:	00897c02 	addeq	r7, r9, r2, lsl #24
    1754:	00000800 	andeq	r0, r0, r0, lsl #16
    1758:	09db0100 	ldmibeq	fp, {r8}^
    175c:	000005ba 			; <UNDEFINED> instruction: 0x000005ba
    1760:	0006301f 	andeq	r3, r6, pc, lsl r0
    1764:	000b2e00 	andeq	r2, fp, r0, lsl #28
    1768:	000b2c00 	andeq	r2, fp, r0, lsl #24
    176c:	89842000 	stmibhi	r4, {sp}
    1770:	063d0000 	ldrteq	r0, [sp], -r0
    1774:	01170000 	tsteq	r7, r0
    1778:	00310150 	eorseq	r0, r1, r0, asr r1
    177c:	89941600 	ldmibhi	r4, {r9, sl, ip}
    1780:	0cec0000 	stcleq	0, cr0, [ip]
    1784:	05d10000 	ldrbeq	r0, [r1]
    1788:	01170000 	tsteq	r7, r0
    178c:	00030550 	andeq	r0, r3, r0, asr r5
    1790:	000000a5 	andeq	r0, r0, r5, lsr #1
    1794:	0089ac16 	addeq	sl, r9, r6, lsl ip
    1798:	000cec00 	andeq	lr, ip, r0, lsl #24
    179c:	00060000 	andeq	r0, r6, r0
    17a0:	50011700 	andpl	r1, r1, r0, lsl #14
    17a4:	a4d40305 	ldrbge	r0, [r4], #773	; 0x305
    17a8:	01170000 	tsteq	r7, r0
    17ac:	d8030551 	stmdale	r3, {r0, r4, r6, r8, sl}
    17b0:	170000a2 	strne	r0, [r0, -r2, lsr #1]
    17b4:	03055201 	movweq	r5, #20993	; 0x5201
    17b8:	0000a600 	andeq	sl, r0, r0, lsl #12
    17bc:	02530117 	subseq	r0, r3, #-1073741819	; 0xc0000005
    17c0:	1800dc08 	stmdane	r0, {r3, sl, fp, ip, lr, pc}
    17c4:	000089b0 			; <UNDEFINED> instruction: 0x000089b0
    17c8:	00000cf8 	strdeq	r0, [r0], -r8
    17cc:	00cc1000 	sbceq	r1, ip, r0
    17d0:	061a0000 	ldreq	r0, [sl], -r0
    17d4:	2c110000 	ldccs	0, cr0, [r1], {-0}
    17d8:	0d000000 	stceq	0, cr0, [r0, #-0]
    17dc:	060a0900 	streq	r0, [sl], -r0, lsl #18
    17e0:	bc290000 	stclt	0, cr0, [r9], #-0
    17e4:	01000003 	tsteq	r0, r3
    17e8:	002c0ace 	eoreq	r0, ip, lr, asr #21
    17ec:	3d010000 	stccc	0, cr0, [r1, #-0]
    17f0:	2a000006 	bcs	1810 <__code_start__-0x67f0>
    17f4:	0000048b 	andeq	r0, r0, fp, lsl #9
    17f8:	251cce01 	ldrcs	ip, [ip, #-3585]	; 0xfffff1ff
    17fc:	00000000 	andeq	r0, r0, r0
    1800:	0004662b 	andeq	r6, r4, fp, lsr #12
    1804:	11a50100 			; <UNDEFINED> instruction: 0x11a50100
    1808:	0000002c 	andeq	r0, r0, ip, lsr #32
    180c:	000087b8 			; <UNDEFINED> instruction: 0x000087b8
    1810:	00000120 	andeq	r0, r0, r0, lsr #2
    1814:	07ef9c01 	strbeq	r9, [pc, r1, lsl #24]!
    1818:	8b2c0000 	blhi	b01820 <__bss_end__+0xaf6a38>
    181c:	01000004 	tsteq	r0, r4
    1820:	002520a5 	eoreq	r2, r5, r5, lsr #1
    1824:	0b460000 	bleq	118182c <__bss_end__+0x1176a44>
    1828:	0b420000 	bleq	1081830 <__bss_end__+0x1076a48>
    182c:	97260000 	strls	r0, [r6, -r0]!
    1830:	01000003 	tsteq	r0, r3
    1834:	002c0ea7 	eoreq	r0, ip, r7, lsr #29
    1838:	0b6c0000 	bleq	1b01840 <__bss_end__+0x1af6a58>
    183c:	0b640000 	bleq	1901844 <__bss_end__+0x18f6a5c>
    1840:	d0260000 	eorle	r0, r6, r0
    1844:	01000003 	tsteq	r0, r3
    1848:	002c1ba7 	eoreq	r1, ip, r7, lsr #23
    184c:	0baa0000 	bleq	fea81854 <__bss_end__+0xfea76a6c>
    1850:	0ba20000 	bleq	fe881858 <__bss_end__+0xfe876a70>
    1854:	ca260000 	bgt	98185c <__bss_end__+0x976a74>
    1858:	01000003 	tsteq	r0, r3
    185c:	002c27a7 	eoreq	r2, ip, r7, lsr #15
    1860:	0be80000 	bleq	ffa01868 <__bss_end__+0xff9f6a80>
    1864:	0be00000 	bleq	ff80186c <__bss_end__+0xff7f6a84>
    1868:	302d0000 	eorcc	r0, sp, r0
    186c:	30000003 	andcc	r0, r0, r3
    1870:	2e000007 	cdpcs	0, 0, cr0, cr0, cr7, {0}
    1874:	ac010068 	stcge	0, cr0, [r1], {104}	; 0x68
    1878:	00047b11 	andeq	r7, r4, r1, lsl fp
    187c:	000c3400 	andeq	r3, ip, r0, lsl #8
    1880:	000c1e00 	andeq	r1, ip, r0, lsl #28
    1884:	87d81800 	ldrbhi	r1, [r8, r0, lsl #16]
    1888:	0d130000 	ldceq	0, cr0, [r3, #-0]
    188c:	08160000 	ldmdaeq	r6, {}	; <UNPREDICTABLE>
    1890:	1f000088 	svcne	0x00000088
    1894:	df00000d 	svcle	0x0000000d
    1898:	17000006 	strne	r0, [r0, -r6]
    189c:	74025001 	strvc	r5, [r2], #-1
    18a0:	30160000 	andscc	r0, r6, r0
    18a4:	ec000088 	stc	0, cr0, [r0], {136}	; 0x88
    18a8:	ff00000c 			; <UNDEFINED> instruction: 0xff00000c
    18ac:	17000006 	strne	r0, [r0, -r6]
    18b0:	79025001 	stmdbvc	r2, {r0, ip, lr}
    18b4:	51011700 	tstpl	r1, r0, lsl #14
    18b8:	17007502 	strne	r7, [r0, -r2, lsl #10]
    18bc:	74025201 	strvc	r5, [r2], #-513	; 0xfffffdff
    18c0:	38160000 	ldmdacc	r6, {}	; <UNPREDICTABLE>
    18c4:	1f000088 	svcne	0x00000088
    18c8:	1300000d 	movwne	r0, #13
    18cc:	17000007 	strne	r0, [r0, -r7]
    18d0:	74025001 	strvc	r5, [r2], #-1
    18d4:	94200000 	strtls	r0, [r0], #-0
    18d8:	ec000088 	stc	0, cr0, [r0], {136}	; 0x88
    18dc:	1700000c 	strne	r0, [r0, -ip]
    18e0:	7a025001 	bvc	958ec <__bss_end__+0x8ab04>
    18e4:	51011700 	tstpl	r1, r0, lsl #14
    18e8:	17007502 	strne	r7, [r0, -r2, lsl #10]
    18ec:	74025201 	strvc	r5, [r2], #-513	; 0xfffffdff
    18f0:	16000000 	strne	r0, [r0], -r0
    18f4:	000087c8 	andeq	r8, r0, r8, asr #15
    18f8:	00000cec 	andeq	r0, r0, ip, ror #25
    18fc:	00000747 	andeq	r0, r0, r7, asr #14
    1900:	05500117 	ldrbeq	r0, [r0, #-279]	; 0xfffffee9
    1904:	00a37003 	adceq	r7, r3, r3
    1908:	d0160000 	andsle	r0, r6, r0
    190c:	ec000087 	stc	0, cr0, [r0], {135}	; 0x87
    1910:	5e00000c 	cdppl	0, 0, cr0, cr0, cr12, {0}
    1914:	17000007 	strne	r0, [r0, -r7]
    1918:	03055001 	movweq	r5, #20481	; 0x5001
    191c:	0000a3ac 	andeq	sl, r0, ip, lsr #7
    1920:	87d41800 	ldrbhi	r1, [r4, r0, lsl #16]
    1924:	07ef0000 	strbeq	r0, [pc, r0]!
    1928:	50160000 	andspl	r0, r6, r0
    192c:	ec000088 	stc	0, cr0, [r0], {136}	; 0x88
    1930:	8400000c 	strhi	r0, [r0], #-12
    1934:	17000007 	strne	r0, [r0, -r7]
    1938:	03055001 	movweq	r5, #20481	; 0x5001
    193c:	0000a3f0 	strdeq	sl, [r0], -r0
    1940:	02510117 	subseq	r0, r1, #-1073741819	; 0xc0000005
    1944:	16000075 			; <UNDEFINED> instruction: 0x16000075
    1948:	00008868 	andeq	r8, r0, r8, ror #16
    194c:	00000cec 	andeq	r0, r0, ip, ror #25
    1950:	000007a7 	andeq	r0, r0, r7, lsr #15
    1954:	05500117 	ldrbeq	r0, [r0, #-279]	; 0xfffffee9
    1958:	00a43803 	adceq	r3, r4, r3, lsl #16
    195c:	51011700 	tstpl	r1, r0, lsl #14
    1960:	17007602 	strne	r7, [r0, -r2, lsl #12]
    1964:	77025201 	strvc	r5, [r2, -r1, lsl #4]
    1968:	70160000 	andsvc	r0, r6, r0
    196c:	ec000088 	stc	0, cr0, [r0], {136}	; 0x88
    1970:	be00000c 	cdplt	0, 0, cr0, cr0, cr12, {0}
    1974:	17000007 	strne	r0, [r0, -r7]
    1978:	03055001 	movweq	r5, #20481	; 0x5001
    197c:	0000a468 	andeq	sl, r0, r8, ror #8
    1980:	88a41600 	stmiahi	r4!, {r9, sl, ip}
    1984:	0cec0000 	stcleq	0, cr0, [ip]
    1988:	07db0000 	ldrbeq	r0, [fp, r0]
    198c:	01170000 	tsteq	r7, r0
    1990:	f0030550 			; <UNDEFINED> instruction: 0xf0030550
    1994:	170000a3 	strne	r0, [r0, -r3, lsr #1]
    1998:	74025101 	strvc	r5, [r2], #-257	; 0xfffffeff
    199c:	b4200000 	strtlt	r0, [r0], #-0
    19a0:	ec000088 	stc	0, cr0, [r0], {136}	; 0x88
    19a4:	1700000c 	strne	r0, [r0, -ip]
    19a8:	03055001 	movweq	r5, #20481	; 0x5001
    19ac:	0000a410 	andeq	sl, r0, r0, lsl r4
    19b0:	712f0000 			; <UNDEFINED> instruction: 0x712f0000
    19b4:	01000003 	tsteq	r0, r3
    19b8:	87140d79 			; <UNDEFINED> instruction: 0x87140d79
    19bc:	00a40000 	adceq	r0, r4, r0
    19c0:	9c010000 	stcls	0, cr0, [r1], {-0}
    19c4:	000008f7 	strdeq	r0, [r0], -r7
    19c8:	0003e213 	andeq	lr, r3, r3, lsl r2
    19cc:	0e850100 	rmfeqs	f0, f5, f0
    19d0:	000008f7 	strdeq	r0, [r0], -r7
    19d4:	7fb89103 	svcvc	0x00b89103
    19d8:	00036730 	andeq	r6, r3, r0, lsr r7
    19dc:	0f960100 	svceq	0x00960100
    19e0:	00000907 	andeq	r0, r0, r7, lsl #18
    19e4:	08000000 	stmdaeq	r0, {}	; <UNPREDICTABLE>
    19e8:	00038907 	andeq	r8, r3, r7, lsl #18
    19ec:	159b0100 	ldrne	r0, [fp, #256]	; 0x100
    19f0:	00000075 	andeq	r0, r0, r5, ror r0
    19f4:	00043b07 	andeq	r3, r4, r7, lsl #22
    19f8:	249b0100 	ldrcs	r0, [fp], #256	; 0x100
    19fc:	00000075 	andeq	r0, r0, r5, ror r0
    1a00:	00047107 	andeq	r7, r4, r7, lsl #2
    1a04:	159e0100 	ldrne	r0, [lr, #256]	; 0x100
    1a08:	00000075 	andeq	r0, r0, r5, ror r0
    1a0c:	0003f807 	andeq	pc, r3, r7, lsl #16
    1a10:	259e0100 	ldrcs	r0, [lr, #256]	; 0x100
    1a14:	00000075 	andeq	r0, r0, r5, ror r0
    1a18:	0003182d 	andeq	r1, r3, sp, lsr #16
    1a1c:	00088300 	andeq	r8, r8, r0, lsl #6
    1a20:	00682e00 	rsbeq	r2, r8, r0, lsl #28
    1a24:	7b117e01 	blvc	461230 <__bss_end__+0x456448>
    1a28:	b9000004 	stmdblt	r0, {r2}
    1a2c:	b500000c 	strlt	r0, [r0, #-12]
    1a30:	1800000c 	stmdane	r0, {r2, r3}
    1a34:	00008720 	andeq	r8, r0, r0, lsr #14
    1a38:	00000d13 	andeq	r0, r0, r3, lsl sp
    1a3c:	00873c18 	addeq	r3, r7, r8, lsl ip
    1a40:	000d1f00 	andeq	r1, sp, r0, lsl #30
    1a44:	4c160000 	ldcmi	0, cr0, [r6], {-0}
    1a48:	37000087 	strcc	r0, [r0, -r7, lsl #1]
    1a4c:	9700000d 	strls	r0, [r0, -sp]
    1a50:	17000008 	strne	r0, [r0, -r8]
    1a54:	7d025001 	stcvc	0, cr5, [r2, #-4]
    1a58:	68160000 	ldmdavs	r6, {}	; <UNPREDICTABLE>
    1a5c:	0d000087 	stceq	0, cr0, [r0, #-540]	; 0xfffffde4
    1a60:	b1000009 	tstlt	r0, r9
    1a64:	17000008 	strne	r0, [r0, -r8]
    1a68:	7d025001 	stcvc	0, cr5, [r2, #-4]
    1a6c:	51011700 	tstpl	r1, r0, lsl #14
    1a70:	00689102 	rsbeq	r9, r8, r2, lsl #2
    1a74:	00877816 	addeq	r7, r7, r6, lsl r8
    1a78:	000cec00 	andeq	lr, ip, r0, lsl #24
    1a7c:	0008cf00 	andeq	ip, r8, r0, lsl #30
    1a80:	50011700 	andpl	r1, r1, r0, lsl #14
    1a84:	a3540305 	cmpge	r4, #335544320	; 0x14000000
    1a88:	01170000 	tsteq	r7, r0
    1a8c:	47400352 	smlsldmi	r0, r0, r2, r3	; <UNPREDICTABLE>
    1a90:	84160024 	ldrhi	r0, [r6], #-36	; 0xffffffdc
    1a94:	0d000087 	stceq	0, cr0, [r0, #-540]	; 0xfffffde4
    1a98:	e4000009 	str	r0, [r0], #-9
    1a9c:	17000008 	strne	r0, [r0, -r8]
    1aa0:	40035101 	andmi	r5, r3, r1, lsl #2
    1aa4:	18002447 	stmdane	r0, {r0, r1, r2, r6, sl, sp}
    1aa8:	00008790 	muleq	r0, r0, r7
    1aac:	0000090d 	andeq	r0, r0, sp, lsl #18
    1ab0:	00879c18 	addeq	r9, r7, r8, lsl ip
    1ab4:	00090d00 	andeq	r0, r9, r0, lsl #26
    1ab8:	75100000 	ldrvc	r0, [r0, #-0]
    1abc:	07000000 	streq	r0, [r0, -r0]
    1ac0:	11000009 	tstne	r0, r9
    1ac4:	0000002c 	andeq	r0, r0, ip, lsr #32
    1ac8:	0408000f 	streq	r0, [r8], #-15
    1acc:	00000075 	andeq	r0, r0, r5, ror r0
    1ad0:	0003b731 	andeq	fp, r3, r1, lsr r7
    1ad4:	0d500100 	ldfeqe	f0, [r0, #-0]
    1ad8:	00097001 	andeq	r7, r9, r1
    1adc:	00703200 	rsbseq	r3, r0, r0, lsl #4
    1ae0:	071c5001 	ldreq	r5, [ip, -r1]
    1ae4:	32000009 	andcc	r0, r0, #9, 0
    1ae8:	50010065 	andpl	r0, r1, r5, rrx
    1aec:	00090729 	andeq	r0, r9, r9, lsr #14
    1af0:	00901500 	addseq	r1, r0, r0, lsl #10
    1af4:	09800000 	stmibeq	r0, {}	; <UNPREDICTABLE>
    1af8:	03050000 	movweq	r0, #20480	; 0x5000
    1afc:	0000a5f0 	strdeq	sl, [r0], -r0
    1b00:	00692423 	rsbeq	r2, r9, r3, lsr #8
    1b04:	07145801 	ldreq	r5, [r4, -r1, lsl #16]
    1b08:	23000009 	movwcs	r0, #9
    1b0c:	01006224 	tsteq	r0, r4, lsr #4
    1b10:	047b105a 	ldrbteq	r1, [fp], #-90	; 0xffffffa6
    1b14:	24230000 	strtcs	r0, [r3], #-0
    1b18:	00707865 	rsbseq	r7, r0, r5, ror #16
    1b1c:	75165d01 	ldrvc	r5, [r6, #-3329]	; 0xfffff2ff
    1b20:	22000000 	andcs	r0, r0, #0, 0
    1b24:	000003b3 			; <UNDEFINED> instruction: 0x000003b3
    1b28:	62165e01 	andsvs	r5, r6, #1, 28
    1b2c:	00000000 	andeq	r0, r0, r0
    1b30:	10000000 	andne	r0, r0, r0
    1b34:	000000cc 	andeq	r0, r0, ip, asr #1
    1b38:	00000980 	andeq	r0, r0, r0, lsl #19
    1b3c:	00002c11 	andeq	r2, r0, r1, lsl ip
    1b40:	09000400 	stmdbeq	r0, {sl}
    1b44:	00000970 	andeq	r0, r0, r0, ror r9
    1b48:	00040521 	andeq	r0, r4, r1, lsr #10
    1b4c:	0f3c0100 	svceq	0x003c0100
    1b50:	0000047b 	andeq	r0, r0, fp, ror r4
    1b54:	0009ad01 	andeq	sl, r9, r1, lsl #26
    1b58:	099d2a00 	ldmibeq	sp, {r9, fp, sp}
    1b5c:	3c010000 	stccc	0, cr0, [r1], {-0}
    1b60:	0000751f 	andeq	r7, r0, pc, lsl r5
    1b64:	00702400 	rsbseq	r2, r0, r0, lsl #8
    1b68:	e00b3e01 	and	r3, fp, r1, lsl #28
    1b6c:	00000001 	andeq	r0, r0, r1
    1b70:	00041321 	andeq	r1, r4, r1, lsr #6
    1b74:	0c2b0100 	stfeqs	f0, [fp], #-0
    1b78:	00000025 	andeq	r0, r0, r5, lsr #32
    1b7c:	0009c901 	andeq	ip, r9, r1, lsl #18
    1b80:	00703200 	rsbseq	r3, r0, r0, lsl #4
    1b84:	e01a2b01 	ands	r2, sl, r1, lsl #22
    1b88:	00000001 	andeq	r0, r0, r1
    1b8c:	00034d25 	andeq	r4, r3, r5, lsr #26
    1b90:	07130100 	ldreq	r0, [r3, -r0, lsl #2]
    1b94:	000001e0 	andeq	r0, r0, r0, ror #3
    1b98:	000088d8 	ldrdeq	r8, [r0], -r8	; <UNPREDICTABLE>
    1b9c:	0000009c 	muleq	r0, ip, r0
    1ba0:	0adc9c01 	beq	ff728bac <__bss_end__+0xff71ddc4>
    1ba4:	ee2c0000 	cdp	0, 2, cr0, cr12, cr0, {0}
    1ba8:	01000003 	tsteq	r0, r3
    1bac:	00411113 	subeq	r1, r1, r3, lsl r1
    1bb0:	0ce70000 	stcleq	0, cr0, [r7]
    1bb4:	0cd70000 	ldcleq	0, cr0, [r7], {0}
    1bb8:	9f130000 	svcls	0x00130000
    1bbc:	01000003 	tsteq	r0, r3
    1bc0:	00251015 	eoreq	r1, r5, r5, lsl r0
    1bc4:	03050000 	movweq	r0, #20480	; 0x5000
    1bc8:	0000a9e0 	andeq	sl, r0, r0, ror #19
    1bcc:	00009015 	andeq	r9, r0, r5, lsl r0
    1bd0:	00098000 	andeq	r8, r9, r0
    1bd4:	f8030500 			; <UNDEFINED> instruction: 0xf8030500
    1bd8:	2d0000a5 	stccs	0, cr0, [r0, #-660]	; 0xfffffd6c
    1bdc:	00000358 	andeq	r0, r0, r8, asr r3
    1be0:	00000a4e 	andeq	r0, r0, lr, asr #20
    1be4:	00041b26 	andeq	r1, r4, r6, lsr #22
    1be8:	121c0100 	andsne	r0, ip, #0
    1bec:	0000002c 	andeq	r0, r0, ip, lsr #32
    1bf0:	00000d4c 	andeq	r0, r0, ip, asr #26
    1bf4:	00000d4a 	andeq	r0, r0, sl, asr #26
    1bf8:	00890c20 	addeq	r0, r9, r0, lsr #24
    1bfc:	000d4300 	andeq	r4, sp, r0, lsl #6
    1c00:	50011700 	andpl	r1, r1, r0, lsl #14
    1c04:	24404003 	strbcs	r4, [r0], #-3
    1c08:	03510117 	cmpeq	r1, #-1073741819	; 0xc0000005
    1c0c:	00244040 	eoreq	r4, r4, r0, asr #32
    1c10:	89243300 	stmdbhi	r4!, {r8, r9, ip, sp}
    1c14:	0d4f0000 	stcleq	0, cr0, [pc, #-0]	; 1c1c <__code_start__-0x63e4>
    1c18:	0a630000 	beq	18c1c20 <__bss_end__+0x18b6e38>
    1c1c:	01170000 	tsteq	r7, r0
    1c20:	01f30350 	mvnseq	r0, r0, asr r3
    1c24:	40160050 	andsmi	r0, r6, r0, asr r0
    1c28:	ec000089 	stc	0, cr0, [r0], {137}	; 0x89
    1c2c:	9b00000c 	blls	1c64 <__code_start__-0x639c>
    1c30:	1700000a 	strne	r0, [r0, -sl]
    1c34:	03055001 	movweq	r5, #20481	; 0x5001
    1c38:	0000a138 	andeq	sl, r0, r8, lsr r1
    1c3c:	05510117 	ldrbeq	r0, [r1, #-279]	; 0xfffffee9
    1c40:	00a2d803 	adceq	sp, r2, r3, lsl #16
    1c44:	52011700 	andpl	r1, r1, #0, 14
    1c48:	a5f80305 	ldrbge	r0, [r8, #773]!	; 0x305
    1c4c:	01170000 	tsteq	r7, r0
    1c50:	17470153 	smlsldne	r0, r7, r3, r1
    1c54:	05007d02 	streq	r7, [r0, #-3330]	; 0xfffff2fe
    1c58:	00a4a403 	adceq	sl, r4, r3, lsl #8
    1c5c:	44180000 	ldrmi	r0, [r8], #-0
    1c60:	f8000089 			; <UNDEFINED> instruction: 0xf8000089
    1c64:	1600000c 	strne	r0, [r0], -ip
    1c68:	00008958 	andeq	r8, r0, r8, asr r9
    1c6c:	00000cec 	andeq	r0, r0, ip, ror #25
    1c70:	00000ad2 	ldrdeq	r0, [r0], -r2
    1c74:	05500117 	ldrbeq	r0, [r0, #-279]	; 0xfffffee9
    1c78:	00a4b403 	adceq	fp, r4, r3, lsl #8
    1c7c:	51011700 	tstpl	r1, r0, lsl #14
    1c80:	a2d80305 	sbcsge	r0, r8, #335544320	; 0x14000000
    1c84:	01170000 	tsteq	r7, r0
    1c88:	f8030552 			; <UNDEFINED> instruction: 0xf8030552
    1c8c:	170000a5 	strne	r0, [r0, -r5, lsr #1]
    1c90:	49015301 	stmdbmi	r1, {r0, r8, r9, ip, lr}
    1c94:	895c1800 	ldmdbhi	ip, {fp, ip}^
    1c98:	0cf80000 	ldcleq	0, cr0, [r8]
    1c9c:	21000000 	mrscs	r0, (UNDEF: 0)
    1ca0:	0000023b 	andeq	r0, r0, fp, lsr r2
    1ca4:	140b0c02 	strne	r0, [fp], #-3074	; 0xfffff3fe
    1ca8:	03000001 	movweq	r0, #1
    1cac:	00000b12 	andeq	r0, r0, r2, lsl fp
    1cb0:	00003f2a 	andeq	r3, r0, sl, lsr #30
    1cb4:	220c0200 	andcs	r0, ip, #0, 4
    1cb8:	000000bf 	strheq	r0, [r0], -pc	; <UNPREDICTABLE>
    1cbc:	00004c2a 	andeq	r4, r0, sl, lsr #24
    1cc0:	340c0200 	strcc	r0, [ip], #-512	; 0xfffffe00
    1cc4:	000000bf 	strheq	r0, [r0], -pc	; <UNPREDICTABLE>
    1cc8:	00011a2a 	andeq	r1, r1, sl, lsr #20
    1ccc:	430c0200 	movwmi	r0, #49664	; 0xc200
    1cd0:	0000002c 	andeq	r0, r0, ip, lsr #32
    1cd4:	090d3400 	stmdbeq	sp, {sl, ip, sp}
    1cd8:	85b80000 	ldrhi	r0, [r8, #0]!
    1cdc:	015c0000 	cmpeq	ip, r0
    1ce0:	9c010000 	stcls	0, cr0, [r1], {-0}
    1ce4:	00000cba 			; <UNDEFINED> instruction: 0x00000cba
    1ce8:	00091a1f 	andeq	r1, r9, pc, lsl sl
    1cec:	000d6a00 	andeq	r6, sp, r0, lsl #20
    1cf0:	000d6200 	andeq	r6, sp, r0, lsl #4
    1cf4:	09241f00 	stmdbeq	r4!, {r8, r9, sl, fp, ip}
    1cf8:	0dac0000 	stceq	0, cr0, [ip]
    1cfc:	0da40000 	stceq	0, cr0, [r4]
    1d00:	0d350000 	ldceq	0, cr0, [r5, #-0]
    1d04:	60000009 	andvs	r0, r0, r9
    1d08:	01000002 	tsteq	r0, r2
    1d0c:	0c870d50 	stceq	13, cr0, [r7], {80}	; 0x50
    1d10:	24360000 	ldrtcs	r0, [r6], #-0
    1d14:	36000009 	strcc	r0, [r0], -r9
    1d18:	0000091a 	andeq	r0, r0, sl, lsl r9
    1d1c:	0002601c 	andeq	r6, r2, ip, lsl r0
    1d20:	093d3700 	ldmdbeq	sp!, {r8, r9, sl, ip, sp}
    1d24:	02600000 	rsbeq	r0, r0, #0, 0
    1d28:	3e1d0000 	cdpcc	0, 1, cr0, cr13, cr0, {0}
    1d2c:	f4000009 	vst4.8	{d0-d3}, [r0], r9
    1d30:	e600000d 	str	r0, [r0], -sp
    1d34:	3700000d 	strcc	r0, [r0, -sp]
    1d38:	00000948 	andeq	r0, r0, r8, asr #18
    1d3c:	00000278 	andeq	r0, r0, r8, ror r2
    1d40:	0009491d 	andeq	r4, r9, sp, lsl r9
    1d44:	000e5100 	andeq	r5, lr, r0, lsl #2
    1d48:	000e4900 	andeq	r4, lr, r0, lsl #18
    1d4c:	09531e00 	ldmdbeq	r3, {r9, sl, fp, ip}^
    1d50:	02980000 	addseq	r0, r8, #0, 0
    1d54:	0c250000 	stceq	0, cr0, [r5], #-0
    1d58:	541d0000 	ldrpl	r0, [sp], #-0
    1d5c:	89000009 	stmdbhi	r0, {r0, r3}
    1d60:	8500000e 	strhi	r0, [r0, #-14]
    1d64:	1d00000e 	stcne	0, cr0, [r0, #-56]	; 0xffffffc8
    1d68:	00000960 	andeq	r0, r0, r0, ror #18
    1d6c:	00000eab 	andeq	r0, r0, fp, lsr #29
    1d70:	00000ea7 	andeq	r0, r0, r7, lsr #29
    1d74:	00863c16 	addeq	r3, r6, r6, lsl ip
    1d78:	000d5b00 	andeq	r5, sp, r0, lsl #22
    1d7c:	000bc500 	andeq	ip, fp, r0, lsl #10
    1d80:	50011700 	andpl	r1, r1, r0, lsl #14
    1d84:	00007602 	andeq	r7, r0, r2, lsl #12
    1d88:	00865816 	addeq	r5, r6, r6, lsl r8
    1d8c:	000cec00 	andeq	lr, ip, r0, lsl #24
    1d90:	000be600 	andeq	lr, fp, r0, lsl #12
    1d94:	50011700 	andpl	r1, r1, r0, lsl #14
    1d98:	17007a02 	strne	r7, [r0, -r2, lsl #20]
    1d9c:	78025201 	stmdavc	r2, {r0, r9, ip, lr}
    1da0:	7d021700 	stcvc	7, cr1, [r2, #-0]
    1da4:	007b0200 	rsbseq	r0, fp, r0, lsl #4
    1da8:	86801600 	strhi	r1, [r0], r0, lsl #12
    1dac:	0cec0000 	stcleq	0, cr0, [ip]
    1db0:	0bfd0000 	bleq	fff41db8 <__bss_end__+0xfff36fd0>
    1db4:	01170000 	tsteq	r7, r0
    1db8:	34030550 	strcc	r0, [r3], #-1360	; 0xfffffab0
    1dbc:	000000a3 	andeq	r0, r0, r3, lsr #1
    1dc0:	0086a016 	addeq	sl, r6, r6, lsl r0
    1dc4:	000cec00 	andeq	lr, ip, r0, lsl #24
    1dc8:	000c1400 	andeq	r1, ip, r0, lsl #8
    1dcc:	50011700 	andpl	r1, r1, r0, lsl #14
    1dd0:	a3440305 	movtge	r0, #17157	; 0x4305
    1dd4:	20000000 	andcs	r0, r0, r0
    1dd8:	000086c0 	andeq	r8, r0, r0, asr #13
    1ddc:	0000090d 	andeq	r0, r0, sp, lsl #18
    1de0:	02500117 	subseq	r0, r0, #-1073741819	; 0xc0000005
    1de4:	00000476 	andeq	r0, r0, r6, ror r4
    1de8:	00098538 	andeq	r8, r9, r8, lsr r5
    1dec:	00861800 	addeq	r1, r6, r0, lsl #16
    1df0:	02c00100 	sbceq	r0, r0, #0
    1df4:	5a010000 	bpl	41dfc <__bss_end__+0x37014>
    1df8:	09961f14 	ldmibeq	r6, {r2, r4, r8, r9, sl, fp, ip}
    1dfc:	0ecb0000 	cdpeq	0, 12, cr0, cr11, cr0, {0}
    1e00:	0ec90000 	cdpeq	0, 12, cr0, cr9, cr0, {0}
    1e04:	d81c0000 	ldmdale	ip, {}	; <UNPREDICTABLE>
    1e08:	1d000002 	stcne	0, cr0, [r0, #-8]
    1e0c:	000009a2 	andeq	r0, r0, r2, lsr #19
    1e10:	00000ee0 	andeq	r0, r0, r0, ror #29
    1e14:	00000ede 	ldrdeq	r0, [r0], -lr
    1e18:	0009ad39 	andeq	sl, r9, r9, lsr sp
    1e1c:	00861800 	addeq	r1, r6, r0, lsl #16
    1e20:	02f80400 	rscseq	r0, r8, #0, 8
    1e24:	40010000 	andmi	r0, r1, r0
    1e28:	000c780a 	andeq	r7, ip, sl, lsl #16
    1e2c:	09be1f00 	ldmibeq	lr!, {r8, r9, sl, fp, ip}
    1e30:	0ef50000 	cdpeq	0, 15, cr0, cr5, cr0, {0}
    1e34:	0ef30000 	cdpeq	0, 15, cr0, cr3, cr0, {0}
    1e38:	18000000 	stmdane	r0, {}	; <UNPREDICTABLE>
    1e3c:	0000862c 	andeq	r8, r0, ip, lsr #12
    1e40:	00000d67 	andeq	r0, r0, r7, ror #26
    1e44:	00000000 	andeq	r0, r0, r0
    1e48:	e8160000 	ldmda	r6, {}	; <UNPREDICTABLE>
    1e4c:	ec000086 	stc	0, cr0, [r0], {134}	; 0x86
    1e50:	b000000c 	andlt	r0, r0, ip
    1e54:	1700000c 	strne	r0, [r0, -ip]
    1e58:	03055001 	movweq	r5, #20481	; 0x5001
    1e5c:	0000a138 	andeq	sl, r0, r8, lsr r1
    1e60:	05510117 	ldrbeq	r0, [r1, #-279]	; 0xfffffee9
    1e64:	00a2d803 	adceq	sp, r2, r3, lsl #16
    1e68:	52011700 	andpl	r1, r1, #0, 14
    1e6c:	a5f00305 	ldrbge	r0, [r0, #773]!	; 0x305
    1e70:	18000000 	stmdane	r0, {}	; <UNPREDICTABLE>
    1e74:	000086ec 	andeq	r8, r0, ip, ror #13
    1e78:	00000cf8 	strdeq	r0, [r0], -r8
    1e7c:	061f3400 	ldreq	r3, [pc], -r0, lsl #8
    1e80:	89740000 	ldmdbhi	r4!, {}^	; <UNPREDICTABLE>
    1e84:	00040000 	andeq	r0, r4, r0
    1e88:	9c010000 	stcls	0, cr0, [r1], {-0}
    1e8c:	00000cec 	andeq	r0, r0, ip, ror #25
    1e90:	0006301f 	andeq	r3, r6, pc, lsl r0
    1e94:	000f0c00 	andeq	r0, pc, r0, lsl #24
    1e98:	000f0800 	andeq	r0, pc, r0, lsl #16
    1e9c:	89783a00 	ldmdbhi	r8!, {r9, fp, ip, sp}^
    1ea0:	063d0000 	ldrteq	r0, [sp], -r0
    1ea4:	01170000 	tsteq	r7, r0
    1ea8:	01f30350 	mvnseq	r0, r0, asr r3
    1eac:	3b000050 	blcc	1ff4 <__code_start__-0x600c>
    1eb0:	000004e0 	andeq	r0, r0, r0, ror #9
    1eb4:	000004e0 	andeq	r0, r0, r0, ror #9
    1eb8:	3b062804 	blcc	18bed0 <__bss_end__+0x1810e8>
    1ebc:	000000a7 	andeq	r0, r0, r7, lsr #1
    1ec0:	000000a7 	andeq	r0, r0, r7, lsr #1
    1ec4:	3c066e04 	stccc	14, cr6, [r6], {4}
    1ec8:	730b9e0d 	movwvc	r9, #48653	; 0xbe0d
    1ecc:	70656577 	rsbvc	r6, r5, r7, ror r5
    1ed0:	6572665f 	ldrbvs	r6, [r2, #-1631]!	; 0xfffff9a1
    1ed4:	8e3b0065 	cdphi	0, 3, cr0, cr11, cr5, {3}
    1ed8:	8e000002 	cdphi	0, 0, cr0, cr0, cr2, {0}
    1edc:	05000002 	streq	r0, [r0, #-2]
    1ee0:	cb3b0828 	blgt	ec3f88 <__bss_end__+0xeb91a0>
    1ee4:	cb000002 	blgt	1ef4 <__code_start__-0x610c>
    1ee8:	05000002 	streq	r0, [r0, #-2]
    1eec:	9b3b082b 	blls	ec3fa0 <__bss_end__+0xeb91b8>
    1ef0:	9b000002 	blls	1f00 <__code_start__-0x6100>
    1ef4:	05000002 	streq	r0, [r0, #-2]
    1ef8:	dd3b074a 	ldcle	7, cr0, [fp, #-296]!	; 0xfffffed8
    1efc:	dd000003 	stcle	0, cr0, [r0, #-12]
    1f00:	01000003 	tsteq	r0, r3
    1f04:	4f3b0676 	svcmi	0x003b0676
    1f08:	4f000004 	svcmi	0x00000004
    1f0c:	04000004 	streq	r0, [r0], #-4
    1f10:	473b0682 	ldrmi	r0, [fp, -r2, lsl #13]!
    1f14:	47000004 	strmi	r0, [r0, -r4]
    1f18:	04000004 	streq	r0, [r0], #-4
    1f1c:	e93b077b 	ldmdb	fp!, {r0, r1, r3, r4, r5, r6, r8, r9, sl}
    1f20:	e9000002 	stmdb	r0, {r1}
    1f24:	05000002 	streq	r0, [r0, #-2]
    1f28:	b93b0732 	ldmdblt	fp!, {r1, r4, r5, r8, r9, sl}
    1f2c:	b9000002 	stmdblt	r0, {r1}
    1f30:	05000002 	streq	r0, [r0, #-2]
    1f34:	40000845 	andmi	r0, r0, r5, asr #16
    1f38:	04000001 	streq	r0, [r0], #-1
    1f3c:	000b1000 	andeq	r1, fp, r0
    1f40:	6a010400 	bvs	42f48 <__bss_end__+0x38160>
    1f44:	0c000001 	stceq	0, cr0, [r0], {1}
    1f48:	000004a6 	andeq	r0, r0, r6, lsr #9
    1f4c:	000004b6 			; <UNDEFINED> instruction: 0x000004b6
    1f50:	00008b44 	andeq	r8, r0, r4, asr #22
    1f54:	00000078 	andeq	r0, r0, r8, ror r0
    1f58:	00000e11 	andeq	r0, r0, r1, lsl lr
    1f5c:	69050402 	stmdbvs	r5, {r1, sl}
    1f60:	0300746e 	movweq	r7, #1134	; 0x46e
    1f64:	0000049f 	muleq	r0, pc, r4	; <UNPREDICTABLE>
    1f68:	3817d103 	ldmdacc	r7, {r0, r1, r8, ip, lr, pc}
    1f6c:	04000000 	streq	r0, [r0], #-0
    1f70:	012b0704 			; <UNDEFINED> instruction: 0x012b0704
    1f74:	01040000 	mrseq	r0, (UNDEF: 4)
    1f78:	0000c306 	andeq	ip, r0, r6, lsl #6
    1f7c:	05020400 	streq	r0, [r2, #-1024]	; 0xfffffc00
    1f80:	00000021 	andeq	r0, r0, r1, lsr #32
    1f84:	56050404 	strpl	r0, [r5], -r4, lsl #8
    1f88:	04000000 	streq	r0, [r0], #-0
    1f8c:	00510508 	subseq	r0, r1, r8, lsl #10
    1f90:	01040000 	mrseq	r0, (UNDEF: 4)
    1f94:	0000c108 	andeq	ip, r0, r8, lsl #2
    1f98:	07020400 	streq	r0, [r2, -r0, lsl #8]
    1f9c:	00000152 	andeq	r0, r0, r2, asr r1
    1fa0:	26070404 	strcs	r0, [r7], -r4, lsl #8
    1fa4:	04000001 	streq	r0, [r0], #-1
    1fa8:	01210708 			; <UNDEFINED> instruction: 0x01210708
    1fac:	25050000 	strcs	r0, [r5, #-0]
    1fb0:	86000000 	strhi	r0, [r0], -r0
    1fb4:	06000000 	streq	r0, [r0], -r0
    1fb8:	00000025 	andeq	r0, r0, r5, lsr #32
    1fbc:	002b0700 	eoreq	r0, fp, r0, lsl #14
    1fc0:	1c020000 	stcne	0, cr0, [r2], {-0}
    1fc4:	0000920e 	andeq	r9, r0, lr, lsl #4
    1fc8:	77040800 	strvc	r0, [r4, -r0, lsl #16]
    1fcc:	05000000 	streq	r0, [r0, #-0]
    1fd0:	00000025 	andeq	r0, r0, r5, lsr #32
    1fd4:	000000a7 	andeq	r0, r0, r7, lsr #1
    1fd8:	0000a706 	andeq	sl, r0, r6, lsl #14
    1fdc:	04080000 	streq	r0, [r8], #-0
    1fe0:	000000b4 	strheq	r0, [r0], -r4
    1fe4:	ca080104 	bgt	2023fc <__bss_end__+0x1f7614>
    1fe8:	09000000 	stmdbeq	r0, {}	; <UNPREDICTABLE>
    1fec:	000000ad 	andeq	r0, r0, sp, lsr #1
    1ff0:	00051e07 	andeq	r1, r5, r7, lsl #28
    1ff4:	0e210200 	cdpeq	2, 2, cr0, cr1, cr0, {0}
    1ff8:	000000c5 	andeq	r0, r0, r5, asr #1
    1ffc:	00980408 	addseq	r0, r8, r8, lsl #8
    2000:	2f0a0000 	svccs	0x000a0000
    2004:	01000002 	tsteq	r0, r2
    2008:	013b0704 	teqeq	fp, r4, lsl #14
    200c:	8b440000 	blhi	1102014 <__bss_end__+0x10f722c>
    2010:	00780000 	rsbseq	r0, r8, r0
    2014:	9c010000 	stcls	0, cr0, [r1], {-0}
    2018:	0000013b 	andeq	r0, r0, fp, lsr r1
    201c:	00705f0b 	rsbseq	r5, r0, fp, lsl #30
    2020:	3b140401 	blcc	50302c <__bss_end__+0x4f8244>
    2024:	01000001 	tsteq	r0, r1
    2028:	00630c50 	rsbeq	r0, r3, r0, asr ip
    202c:	251c0401 	ldrcs	r0, [ip, #-1025]	; 0xfffffbff
    2030:	31000000 	mrscc	r0, (UNDEF: 0)
    2034:	2d00000f 	stccs	0, cr0, [r0, #-60]	; 0xffffffc4
    2038:	0c00000f 	stceq	0, cr0, [r0], {15}
    203c:	0401006e 	streq	r0, [r1], #-110	; 0xffffff92
    2040:	00002c26 	andeq	r2, r0, r6, lsr #24
    2044:	000f5600 	andeq	r5, pc, r0, lsl #12
    2048:	000f5200 	andeq	r5, pc, r0, lsl #4
    204c:	00700d00 	rsbseq	r0, r0, r0, lsl #26
    2050:	3d0b0501 	cfstr32cc	mvfx0, [fp, #-4]
    2054:	85000001 	strhi	r0, [r0, #-1]
    2058:	7700000f 	strvc	r0, [r0, -pc]
    205c:	0d00000f 	stceq	0, cr0, [r0, #-60]	; 0xffffffc4
    2060:	05010065 	streq	r0, [r1, #-101]	; 0xffffff9b
    2064:	00013d14 	andeq	r3, r1, r4, lsl sp
    2068:	000fe200 	andeq	lr, pc, r0, lsl #4
    206c:	000fe000 	andeq	lr, pc, r0
    2070:	040e0000 	streq	r0, [lr], #-0
    2074:	00ad0408 	adceq	r0, sp, r8, lsl #8
    2078:	9d000000 	stcls	0, cr0, [r0, #-0]
    207c:	04000001 	streq	r0, [r0], #-1
    2080:	000bdc00 	andeq	sp, fp, r0, lsl #24
    2084:	6a010400 	bvs	4308c <__bss_end__+0x382a4>
    2088:	0c000001 	stceq	0, cr0, [r0], {1}
    208c:	000004fb 	strdeq	r0, [r0], -fp
    2090:	000004b6 			; <UNDEFINED> instruction: 0x000004b6
    2094:	00008bbc 			; <UNDEFINED> instruction: 0x00008bbc
    2098:	00000058 	andeq	r0, r0, r8, asr r0
    209c:	00000f36 	andeq	r0, r0, r6, lsr pc
    20a0:	0004e702 	andeq	lr, r4, r2, lsl #14
    20a4:	1b280200 	blne	a028ac <__bss_end__+0x9f7ac4>
    20a8:	00000031 	andeq	r0, r0, r1, lsr r0
    20ac:	00050b03 	andeq	r0, r5, r3, lsl #22
    20b0:	00040400 	andeq	r0, r4, r0, lsl #8
    20b4:	00000048 	andeq	r0, r0, r8, asr #32
    20b8:	0004f604 	andeq	pc, r4, r4, lsl #12
    20bc:	00004800 	andeq	r4, r0, r0, lsl #16
    20c0:	05000000 	streq	r0, [r0, #-0]
    20c4:	050d0204 	streq	r0, [sp, #-516]	; 0xfffffdfc
    20c8:	63020000 	movwvs	r0, #8192	; 0x2000
    20cc:	00002518 	andeq	r2, r0, r8, lsl r5
    20d0:	05040600 	streq	r0, [r4, #-1536]	; 0xfffffa00
    20d4:	00746e69 	rsbseq	r6, r4, r9, ror #28
    20d8:	2b070407 	blcs	1c30fc <__bss_end__+0x1b8314>
    20dc:	07000001 	streq	r0, [r0, -r1]
    20e0:	00c30601 	sbceq	r0, r3, r1, lsl #12
    20e4:	02070000 	andeq	r0, r7, #0, 0
    20e8:	00002105 	andeq	r2, r0, r5, lsl #2
    20ec:	05040700 	streq	r0, [r4, #-1792]	; 0xfffff900
    20f0:	00000056 	andeq	r0, r0, r6, asr r0
    20f4:	51050807 	tstpl	r5, r7, lsl #16
    20f8:	07000000 	streq	r0, [r0, -r0]
    20fc:	00c10801 	sbceq	r0, r1, r1, lsl #16
    2100:	02070000 	andeq	r0, r7, #0, 0
    2104:	00015207 	andeq	r5, r1, r7, lsl #4
    2108:	07040700 	streq	r0, [r4, -r0, lsl #14]
    210c:	00000126 	andeq	r0, r0, r6, lsr #2
    2110:	21070807 	tstcs	r7, r7, lsl #16
    2114:	08000001 	stmdaeq	r0, {r0}
    2118:	00000056 	andeq	r0, r0, r6, asr r0
    211c:	000000ab 	andeq	r0, r0, fp, lsr #1
    2120:	00005609 	andeq	r5, r0, r9, lsl #12
    2124:	2b0a0000 	blcs	28212c <__bss_end__+0x277344>
    2128:	03000000 	movweq	r0, #0
    212c:	00b70e1c 	adcseq	r0, r7, ip, lsl lr
    2130:	040b0000 	streq	r0, [fp], #-0
    2134:	0000009c 	muleq	r0, ip, r0
    2138:	00005608 	andeq	r5, r0, r8, lsl #12
    213c:	0000cc00 	andeq	ip, r0, r0, lsl #24
    2140:	00cc0900 	sbceq	r0, ip, r0, lsl #18
    2144:	0b000000 	bleq	214c <__code_start__-0x5eb4>
    2148:	0000d904 	andeq	sp, r0, r4, lsl #18
    214c:	08010700 	stmdaeq	r1, {r8, r9, sl}
    2150:	000000ca 	andeq	r0, r0, sl, asr #1
    2154:	0000d20c 	andeq	sp, r0, ip, lsl #4
    2158:	051e0a00 	ldreq	r0, [lr, #-2560]	; 0xfffff600
    215c:	21030000 	mrscs	r0, (UNDEF: 3)
    2160:	0000ea0e 	andeq	lr, r0, lr, lsl #20
    2164:	bd040b00 	vstrlt	d0, [r4, #-0]
    2168:	0d000000 	stceq	0, cr0, [r0, #-0]
    216c:	000004e0 	andeq	r0, r0, r0, ror #9
    2170:	56050601 	strpl	r0, [r5], -r1, lsl #12
    2174:	bc000000 	stclt	0, cr0, [r0], {-0}
    2178:	5800008b 	stmdapl	r0, {r0, r1, r3, r7}
    217c:	01000000 	mrseq	r0, (UNDEF: 0)
    2180:	0001839c 	muleq	r1, ip, r3
    2184:	6d660e00 	stclvs	14, cr0, [r6, #-0]
    2188:	06010074 			; <UNDEFINED> instruction: 0x06010074
    218c:	0000cc18 	andeq	ip, r0, r8, lsl ip
    2190:	70910200 	addsvc	r0, r1, r0, lsl #4
    2194:	7562100f 	strbvc	r1, [r2, #-15]!
    2198:	08010066 	stmdaeq	r1, {r1, r2, r5, r6}
    219c:	00018311 	andeq	r8, r1, r1, lsl r3
    21a0:	e4030500 	str	r0, [r3], #-1280	; 0xfffffb00
    21a4:	110000a9 	smlatbne	r0, r9, r0, r0
    21a8:	000004d8 	ldrdeq	r0, [r0], -r8
    21ac:	4a0d0901 	bmi	3445b8 <__bss_end__+0x3397d0>
    21b0:	02000000 	andeq	r0, r0, #0, 0
    21b4:	73125c91 	tstvc	r2, #37120	; 0x9100
    21b8:	0c01007a 	stceq	0, cr0, [r1], {122}	; 0x7a
    21bc:	0000560d 	andeq	r5, r0, sp, lsl #12
    21c0:	000ffb00 	andeq	pc, pc, r0, lsl #22
    21c4:	000ff500 	andeq	pc, pc, r0, lsl #10
    21c8:	8be41300 	blhi	ff906dd0 <__bss_end__+0xff8fbfe8>
    21cc:	01940000 	orrseq	r0, r4, r0
    21d0:	01760000 	cmneq	r6, r0
    21d4:	01140000 	tsteq	r4, r0
    21d8:	00750250 	rsbseq	r0, r5, r0, asr r2
    21dc:	03510114 	cmpeq	r1, #5
    21e0:	1404000a 	strne	r0, [r4], #-10
    21e4:	91035201 	tstls	r3, r1, lsl #4
    21e8:	01140648 	tsteq	r4, r8, asr #12
    21ec:	4c910253 	lfmmi	f0, 4, [r1], {83}	; 0x53
    21f0:	8bf81500 	blhi	ffe075f8 <__bss_end__+0xffdfc810>
    21f4:	01140000 	tsteq	r4, r0
    21f8:	00750250 	rsbseq	r0, r5, r0, asr r2
    21fc:	d2160000 	andsle	r0, r6, #0, 0
    2200:	94000000 	strls	r0, [r0], #-0
    2204:	17000001 	strne	r0, [r0, -r1]
    2208:	0000005d 	andeq	r0, r0, sp, asr r0
    220c:	180003ff 	stmdane	r0, {r0, r1, r2, r3, r4, r5, r6, r7, r8, r9}
    2210:	000004dd 	ldrdeq	r0, [r0], -sp
    2214:	000004dd 	ldrdeq	r0, [r0], -sp
    2218:	00050205 	andeq	r0, r5, r5, lsl #4
    221c:	000000f3 	strdeq	r0, [r0], -r3
    2220:	0d1e0004 	ldceq	0, cr0, [lr, #-16]
    2224:	01040000 	mrseq	r0, (UNDEF: 4)
    2228:	0000016a 	andeq	r0, r0, sl, ror #2
    222c:	0005230c 	andeq	r2, r5, ip, lsl #6
    2230:	0004b600 	andeq	fp, r4, r0, lsl #12
    2234:	008c1400 	addeq	r1, ip, r0, lsl #8
    2238:	00003800 	andeq	r3, r0, r0, lsl #16
    223c:	00105a00 	andseq	r5, r0, r0, lsl #20
    2240:	05040200 	streq	r0, [r4, #-512]	; 0xfffffe00
    2244:	00746e69 	rsbseq	r6, r4, r9, ror #28
    2248:	2b070403 	blcs	1c325c <__bss_end__+0x1b8474>
    224c:	03000001 	movweq	r0, #1
    2250:	00c30601 	sbceq	r0, r3, r1, lsl #12
    2254:	02030000 	andeq	r0, r3, #0, 0
    2258:	00002105 	andeq	r2, r0, r5, lsl #2
    225c:	05040300 	streq	r0, [r4, #-768]	; 0xfffffd00
    2260:	00000056 	andeq	r0, r0, r6, asr r0
    2264:	51050803 	tstpl	r5, r3, lsl #16
    2268:	03000000 	movweq	r0, #0
    226c:	00c10801 	sbceq	r0, r1, r1, lsl #16
    2270:	02030000 	andeq	r0, r3, #0, 0
    2274:	00015207 	andeq	r5, r1, r7, lsl #4
    2278:	07040300 	streq	r0, [r4, -r0, lsl #6]
    227c:	00000126 	andeq	r0, r0, r6, lsr #2
    2280:	21070803 	tstcs	r7, r3, lsl #16
    2284:	04000001 	streq	r0, [r0], #-1
    2288:	00000025 	andeq	r0, r0, r5, lsr #32
    228c:	0000007a 	andeq	r0, r0, sl, ror r0
    2290:	00002505 	andeq	r2, r0, r5, lsl #10
    2294:	2b060000 	blcs	18229c <__bss_end__+0x1774b4>
    2298:	02000000 	andeq	r0, r0, #0, 0
    229c:	00860e1c 	addeq	r0, r6, ip, lsl lr
    22a0:	04070000 	streq	r0, [r7], #-0
    22a4:	0000006b 	andeq	r0, r0, fp, rrx
    22a8:	00002504 	andeq	r2, r0, r4, lsl #10
    22ac:	00009b00 	andeq	r9, r0, r0, lsl #22
    22b0:	009b0500 	addseq	r0, fp, r0, lsl #10
    22b4:	07000000 	streq	r0, [r0, -r0]
    22b8:	0000a804 	andeq	sl, r0, r4, lsl #16
    22bc:	08010300 	stmdaeq	r1, {r8, r9}
    22c0:	000000ca 	andeq	r0, r0, sl, asr #1
    22c4:	0000a108 	andeq	sl, r0, r8, lsl #2
    22c8:	051e0600 	ldreq	r0, [lr, #-1536]	; 0xfffffa00
    22cc:	21020000 	mrscs	r0, (UNDEF: 2)
    22d0:	0000b90e 	andeq	fp, r0, lr, lsl #18
    22d4:	8c040700 	stchi	7, cr0, [r4], {-0}
    22d8:	09000000 	stmdbeq	r0, {}	; <UNPREDICTABLE>
    22dc:	000000ad 	andeq	r0, r0, sp, lsr #1
    22e0:	05070c01 	streq	r0, [r7, #-3073]	; 0xfffff3ff
    22e4:	00a9ac03 	adceq	sl, r9, r3, lsl #24
    22e8:	05150a00 	ldreq	r0, [r5, #-2560]	; 0xfffff600
    22ec:	04010000 	streq	r0, [r1], #-0
    22f0:	00002505 	andeq	r2, r0, r5, lsl #10
    22f4:	008c1400 	addeq	r1, ip, r0, lsl #8
    22f8:	00003800 	andeq	r3, r0, r0, lsl #16
    22fc:	0b9c0100 	bleq	fe702704 <__bss_end__+0xfe6f791c>
    2300:	04010070 	streq	r0, [r1], #-112	; 0xffffff90
    2304:	00009b1f 	andeq	r9, r0, pc, lsl fp
    2308:	00102c00 	andseq	r2, r0, r0, lsl #24
    230c:	00102400 	andseq	r2, r0, r0, lsl #8
    2310:	7f000000 	svcvc	0x00000000
    2314:	0400000c 	streq	r0, [r0], #-12
    2318:	000dbc00 	andeq	fp, sp, r0, lsl #24
    231c:	6a010400 	bvs	43324 <__bss_end__+0x3853c>
    2320:	0c000001 	stceq	0, cr0, [r0], {1}
    2324:	00000542 	andeq	r0, r0, r2, asr #10
    2328:	000004b6 			; <UNDEFINED> instruction: 0x000004b6
    232c:	00008c4c 	andeq	r8, r0, ip, asr #24
    2330:	000009b4 			; <UNDEFINED> instruction: 0x000009b4
    2334:	000010fe 	strdeq	r1, [r0], -lr
    2338:	21070802 	tstcs	r7, r2, lsl #16
    233c:	02000001 	andeq	r0, r0, #1, 0
    2340:	012b0704 			; <UNDEFINED> instruction: 0x012b0704
    2344:	04030000 	streq	r0, [r3], #-0
    2348:	746e6905 	strbtvc	r6, [lr], #-2309	; 0xfffff6fb
    234c:	06010200 	streq	r0, [r1], -r0, lsl #4
    2350:	000000c3 	andeq	r0, r0, r3, asr #1
    2354:	21050202 	tstcs	r5, r2, lsl #4
    2358:	02000000 	andeq	r0, r0, #0, 0
    235c:	00560504 	subseq	r0, r6, r4, lsl #10
    2360:	08020000 	stmdaeq	r2, {}	; <UNPREDICTABLE>
    2364:	00005105 	andeq	r5, r0, r5, lsl #2
    2368:	08010200 	stmdaeq	r1, {r9}
    236c:	000000c1 	andeq	r0, r0, r1, asr #1
    2370:	52070202 	andpl	r0, r7, #536870912	; 0x20000000
    2374:	04000001 	streq	r0, [r0], #-1
    2378:	00000138 	andeq	r0, r0, r8, lsr r1
    237c:	70193402 	andsvc	r3, r9, r2, lsl #8
    2380:	02000000 	andeq	r0, r0, #0, 0
    2384:	01260704 			; <UNDEFINED> instruction: 0x01260704
    2388:	39040000 	stmdbcc	r4, {}	; <UNPREDICTABLE>
    238c:	02000005 	andeq	r0, r0, #5, 0
    2390:	00251937 	eoreq	r1, r5, r7, lsr r9
    2394:	33050000 	movwcc	r0, #20480	; 0x5000
    2398:	92000000 	andls	r0, r0, #0, 0
    239c:	06000000 	streq	r0, [r0], -r0
    23a0:	00000033 	andeq	r0, r0, r3, lsr r0
    23a4:	002b0700 	eoreq	r0, fp, r0, lsl #14
    23a8:	1c030000 	stcne	0, cr0, [r3], {-0}
    23ac:	00009e0e 	andeq	r9, r0, lr, lsl #28
    23b0:	83040800 	movwhi	r0, #18432	; 0x4800
    23b4:	05000000 	streq	r0, [r0, #-0]
    23b8:	00000033 	andeq	r0, r0, r3, lsr r0
    23bc:	000000b3 	strheq	r0, [r0], -r3
    23c0:	0000b306 	andeq	fp, r0, r6, lsl #6
    23c4:	04080000 	streq	r0, [r8], #-0
    23c8:	000000c0 	andeq	r0, r0, r0, asr #1
    23cc:	ca080102 	bgt	2027dc <__bss_end__+0x1f79f4>
    23d0:	09000000 	stmdbeq	r0, {}	; <UNPREDICTABLE>
    23d4:	000000b9 	strheq	r0, [r0], -r9
    23d8:	00051e07 	andeq	r1, r5, r7, lsl #28
    23dc:	0e210300 	cdpeq	3, 2, cr0, cr1, cr0, {0}
    23e0:	000000d1 	ldrdeq	r0, [r0], -r1
    23e4:	00a40408 	adceq	r0, r4, r8, lsl #8
    23e8:	55070000 	strpl	r0, [r7, #-0]
    23ec:	04000005 	streq	r0, [r0], #-5
    23f0:	00b90d0b 	adcseq	r0, r9, fp, lsl #26
    23f4:	ae070000 	cdpge	0, 0, cr0, cr7, cr0, {0}
    23f8:	04000005 	streq	r0, [r0], #-5
    23fc:	00b90d0c 	adcseq	r0, r9, ip, lsl #26
    2400:	89070000 	stmdbhi	r7, {}	; <UNPREDICTABLE>
    2404:	04000003 	streq	r0, [r0], #-3
    2408:	00b90d0d 	adcseq	r0, r9, sp, lsl #26
    240c:	3b070000 	blcc	1c2414 <__bss_end__+0x1b762c>
    2410:	04000004 	streq	r0, [r0], #-4
    2414:	00b90d0e 	adcseq	r0, r9, lr, lsl #26
    2418:	71070000 	mrsvc	r0, (UNDEF: 7)
    241c:	04000004 	streq	r0, [r0], #-4
    2420:	00b90d0f 	adcseq	r0, r9, pc, lsl #26
    2424:	f8070000 			; <UNDEFINED> instruction: 0xf8070000
    2428:	04000003 	streq	r0, [r0], #-3
    242c:	00b90d10 	adcseq	r0, r9, r0, lsl sp
    2430:	d7070000 	strle	r0, [r7, -r0]
    2434:	04000005 	streq	r0, [r0], #-5
    2438:	00b90d11 	adcseq	r0, r9, r1, lsl sp
    243c:	72070000 	andvc	r0, r7, #0, 0
    2440:	04000005 	streq	r0, [r0], #-5
    2444:	00b90d12 	adcseq	r0, r9, r2, lsl sp
    2448:	e7040000 	str	r0, [r4, -r0]
    244c:	05000004 	streq	r0, [r0, #-4]
    2450:	01431b28 	cmpeq	r3, r8, lsr #22
    2454:	0b0a0000 	bleq	28245c <__bss_end__+0x277674>
    2458:	04000005 	streq	r0, [r0], #-5
    245c:	015a0006 	cmpeq	sl, r6
    2460:	f60b0000 			; <UNDEFINED> instruction: 0xf60b0000
    2464:	5a000004 	bpl	247c <__code_start__-0x5b84>
    2468:	00000001 	andeq	r0, r0, r1
    246c:	04040c00 	streq	r0, [r4], #-3072	; 0xfffff400
    2470:	0000050d 	andeq	r0, r0, sp, lsl #10
    2474:	37186305 	ldrcc	r6, [r8, -r5, lsl #6]
    2478:	0d000001 	stceq	0, cr0, [r0, #-4]
    247c:	000004dd 	ldrdeq	r0, [r0], -sp
    2480:	33058101 	movwcc	r8, #20737	; 0x5101
    2484:	d4000000 	strle	r0, [r0], #-0
    2488:	2c00008f 	stccs	0, cr0, [r0], {143}	; 0x8f
    248c:	01000006 	tsteq	r0, r6
    2490:	00086a9c 	muleq	r8, ip, sl
    2494:	75620e00 	strbvc	r0, [r2, #-3584]!	; 0xfffff200
    2498:	81010066 	tsthi	r1, r6, rrx
    249c:	00086a15 	andeq	r6, r8, r5, lsl sl
    24a0:	00106c00 	andseq	r6, r0, r0, lsl #24
    24a4:	00106200 	andseq	r6, r0, r0, lsl #4
    24a8:	006e0e00 	rsbeq	r0, lr, r0, lsl #28
    24ac:	331e8101 	tstcc	lr, #1073741824	; 0x40000000
    24b0:	b9000000 	stmdblt	r0, {}	; <UNPREDICTABLE>
    24b4:	b1000010 	tstlt	r0, r0, lsl r0
    24b8:	0e000010 	mcreq	0, 0, r0, cr0, cr0, {0}
    24bc:	00746d66 	rsbseq	r6, r4, r6, ror #26
    24c0:	b32d8101 			; <UNDEFINED> instruction: 0xb32d8101
    24c4:	0b000000 	bleq	24cc <__code_start__-0x5b34>
    24c8:	f3000011 	vqadd.u8	d0, d0, d1
    24cc:	0f000010 	svceq	0x00000010
    24d0:	000004d8 	ldrdeq	r0, [r0], -r8
    24d4:	5c3a8101 	ldfpld	f0, [sl], #-4
    24d8:	cd000001 	stcgt	0, cr0, [r0, #-4]
    24dc:	9f000011 	svcls	0x00000011
    24e0:	10000011 	andne	r0, r0, r1, lsl r0
    24e4:	82010070 	andhi	r0, r1, #112, 0	; 0x70
    24e8:	00086a08 	andeq	r6, r8, r8, lsl #20
    24ec:	00132000 	andseq	r2, r3, r0
    24f0:	00130a00 	andseq	r0, r3, r0, lsl #20
    24f4:	00651000 	rsbeq	r1, r5, r0
    24f8:	6a128201 	bvs	4a2d04 <__bss_end__+0x497f1c>
    24fc:	a9000008 	stmdbge	r0, {r3}
    2500:	a7000013 	smladge	r0, r3, r0, r0
    2504:	10000013 	andne	r0, r0, r3, lsl r0
    2508:	01003078 	tsteq	r0, r8, ror r0
    250c:	00640e83 	rsbeq	r0, r4, r3, lsl #29
    2510:	13c20000 	bicne	r0, r2, #0, 0
    2514:	13bc0000 			; <UNDEFINED> instruction: 0x13bc0000
    2518:	78100000 	ldmdavc	r0, {}	; <UNPREDICTABLE>
    251c:	83010031 	movwhi	r0, #4145	; 0x1031
    2520:	00006411 	andeq	r6, r0, r1, lsl r4
    2524:	0013f100 	andseq	pc, r3, r0, lsl #2
    2528:	0013eb00 	andseq	lr, r3, r0, lsl #22
    252c:	05901100 	ldreq	r1, [r0, #256]	; 0x100
    2530:	86010000 	strhi	r0, [r1], -r0
    2534:	0000b311 	andeq	fp, r0, r1, lsl r3
    2538:	00142200 	andseq	r2, r4, r0, lsl #4
    253c:	00141a00 	andseq	r1, r4, r0, lsl #20
    2540:	00901200 	addseq	r1, r0, r0, lsl #4
    2544:	08800000 	stmeq	r0, {}	; <UNPREDICTABLE>
    2548:	03050000 	movweq	r0, #20480	; 0x5000
    254c:	0000a798 	muleq	r0, r8, r7
    2550:	00044013 	andeq	r4, r4, r3, lsl r0
    2554:	00731000 	rsbseq	r1, r3, r0
    2558:	6a0a9101 	bvs	2a6964 <__bss_end__+0x29bb7c>
    255c:	68000008 	stmdavs	r0, {r3}
    2560:	5c000014 	stcpl	0, cr0, [r0], {20}
    2564:	14000014 	strne	r0, [r0], #-20	; 0xffffffec
    2568:	006d756e 	rsbeq	r7, sp, lr, ror #10
    256c:	850d9101 	strhi	r9, [sp, #-257]	; 0xfffffeff
    2570:	03000008 	movweq	r0, #8
    2574:	157dd891 	ldrbne	sp, [sp, #-2193]!	; 0xfffff76f
    2578:	000005e4 	andeq	r0, r0, r4, ror #11
    257c:	85179101 	ldrhi	r9, [r7, #-257]	; 0xfffffeff
    2580:	03000008 	movweq	r0, #8
    2584:	117ed891 			; <UNDEFINED> instruction: 0x117ed891
    2588:	00000564 	andeq	r0, r0, r4, ror #10
    258c:	2c0d9201 	sfmcs	f1, 1, [sp], {1}
    2590:	ba000000 	blt	2598 <__code_start__-0x5a68>
    2594:	b2000014 	andlt	r0, r0, #20, 0
    2598:	16000014 			; <UNDEFINED> instruction: 0x16000014
    259c:	00000468 	andeq	r0, r0, r8, ror #8
    25a0:	000004f1 	strdeq	r0, [r0], -r1
    25a4:	00797410 	rsbseq	r7, r9, r0, lsl r4
    25a8:	b31d9e01 	tstlt	sp, #1, 28
    25ac:	fb000000 	blx	25b6 <__code_start__-0x5a4a>
    25b0:	ef000014 	svc	0x00000014
    25b4:	14000014 	strne	r0, [r0], #-20	; 0xffffffec
    25b8:	01007878 	tsteq	r0, r8, ror r8
    25bc:	00771aa2 	rsbseq	r1, r7, r2, lsr #21
    25c0:	59060000 	stmdbpl	r6, {}	; <UNPREDICTABLE>
    25c4:	935b0493 	cmpls	fp, #-1828716544	; 0x93000000
    25c8:	91601704 	cmnls	r0, r4, lsl #14
    25cc:	0c3a0000 	ldceq	0, cr0, [sl], #-0
    25d0:	02d80000 	sbcseq	r0, r8, #0, 0
    25d4:	01180000 	tsteq	r8, r0
    25d8:	00760250 	rsbseq	r0, r6, r0, asr r2
    25dc:	05510118 	ldrbeq	r0, [r1, #-280]	; 0xfffffee8
    25e0:	00a68c03 	adceq	r8, r6, r3, lsl #24
    25e4:	52011800 	andpl	r1, r1, #0, 16
    25e8:	17003301 	strne	r3, [r0, -r1, lsl #6]
    25ec:	00009178 	andeq	r9, r0, r8, ror r1
    25f0:	00000c3a 	andeq	r0, r0, sl, lsr ip
    25f4:	000002fa 	strdeq	r0, [r0], -sl
    25f8:	02500118 	subseq	r0, r0, #6
    25fc:	01180076 	tsteq	r8, r6, ror r0
    2600:	a0030551 	andge	r0, r3, r1, asr r5
    2604:	180000a6 	stmdane	r0, {r1, r2, r5, r7}
    2608:	33015201 	movwcc	r5, #4609	; 0x1201
    260c:	919c1700 	orrsls	r1, ip, r0, lsl #14
    2610:	0c460000 	mareq	acc0, r0, r6
    2614:	03170000 	tsteq	r7, #0, 0
    2618:	01180000 	tsteq	r8, r0
    261c:	90030550 	andls	r0, r3, r0, asr r5
    2620:	180000a6 	stmdane	r0, {r1, r2, r5, r7}
    2624:	7b025101 	blvc	96a30 <__bss_end__+0x8bc48>
    2628:	a8170000 	ldmdage	r7, {}	; <UNPREDICTABLE>
    262c:	46000091 			; <UNDEFINED> instruction: 0x46000091
    2630:	3400000c 	strcc	r0, [r0], #-12
    2634:	18000003 	stmdane	r0, {r0, r1}
    2638:	03055001 	movweq	r5, #20481	; 0x5001
    263c:	0000a698 	muleq	r0, r8, r6
    2640:	02510118 	subseq	r0, r1, #6
    2644:	17000079 	smlsdxne	r0, r9, r0, r0
    2648:	000091b8 			; <UNDEFINED> instruction: 0x000091b8
    264c:	00000c3a 	andeq	r0, r0, sl, lsr ip
    2650:	00000356 	andeq	r0, r0, r6, asr r3
    2654:	02500118 	subseq	r0, r0, #6
    2658:	01180076 	tsteq	r8, r6, ror r0
    265c:	8c030551 	cfstr32hi	mvfx0, [r3], {81}	; 0x51
    2660:	180000a6 	stmdane	r0, {r1, r2, r5, r7}
    2664:	33015201 	movwcc	r5, #4609	; 0x1201
    2668:	91e81700 	mvnls	r1, r0, lsl #14
    266c:	0aa40000 	beq	fe902674 <__bss_end__+0xfe8f788c>
    2670:	03830000 	orreq	r0, r3, #0, 0
    2674:	01180000 	tsteq	r8, r0
    2678:	18400150 	stmdane	r0, {r4, r6, r8}^
    267c:	91035101 	tstls	r3, r1, lsl #2
    2680:	01187dd0 			; <UNDEFINED> instruction: 0x01187dd0
    2684:	007b0252 	rsbseq	r0, fp, r2, asr r2
    2688:	02530118 	subseq	r0, r3, #6
    268c:	02180075 	andseq	r0, r8, #117, 0	; 0x75
    2690:	7602007d 			; <UNDEFINED> instruction: 0x7602007d
    2694:	08170000 	ldmdaeq	r7, {}	; <UNPREDICTABLE>
    2698:	a4000092 	strge	r0, [r0], #-146	; 0xffffff6e
    269c:	aa00000a 	bge	26cc <__code_start__-0x5934>
    26a0:	18000003 	stmdane	r0, {r0, r1}
    26a4:	40015001 	andmi	r5, r1, r1
    26a8:	03510118 	cmpeq	r1, #6
    26ac:	187ed091 	ldmdane	lr!, {r0, r4, r7, ip, lr, pc}^
    26b0:	79025201 	stmdbvc	r2, {r0, r9, ip, lr}
    26b4:	7d021800 	stcvc	8, cr1, [r2, #-0]
    26b8:	00760200 	rsbseq	r0, r6, r0, lsl #4
    26bc:	92181700 	andsls	r1, r8, #0, 14
    26c0:	0c520000 	mraeq	r0, r2, acc0
    26c4:	03c60000 	biceq	r0, r6, #0, 0
    26c8:	01180000 	tsteq	r8, r0
    26cc:	d0910350 	addsle	r0, r1, r0, asr r3
    26d0:	5101187d 	tstpl	r1, sp, ror r8
    26d4:	7ed29103 	atnvcs	f1, f3
    26d8:	945c1700 	ldrbls	r1, [ip], #-1792	; 0xfffff900
    26dc:	0c3a0000 	ldceq	0, cr0, [sl], #-0
    26e0:	03e80000 	mvneq	r0, #0, 0
    26e4:	01180000 	tsteq	r8, r0
    26e8:	00760250 	rsbseq	r0, r6, r0, asr r2
    26ec:	05510118 	ldrbeq	r0, [r1, #-280]	; 0xfffffee8
    26f0:	00a6a003 	adceq	sl, r6, r3
    26f4:	52011800 	andpl	r1, r1, #0, 16
    26f8:	17003301 	strne	r3, [r0, -r1, lsl #6]
    26fc:	00009480 	andeq	r9, r0, r0, lsl #9
    2700:	00000aa4 	andeq	r0, r0, r4, lsr #21
    2704:	00000415 	andeq	r0, r0, r5, lsl r4
    2708:	01500118 	cmpeq	r0, r8, lsl r1
    270c:	5101183a 	tstpl	r1, sl, lsr r8
    2710:	7dd09103 	ldfvcp	f1, [r0, #12]
    2714:	02520118 	subseq	r0, r2, #6
    2718:	0118007b 	tsteq	r8, fp, ror r0
    271c:	00750253 	rsbseq	r0, r5, r3, asr r2
    2720:	007d0218 	rsbseq	r0, sp, r8, lsl r2
    2724:	00007602 	andeq	r7, r0, r2, lsl #12
    2728:	0094a017 	addseq	sl, r4, r7, lsl r0
    272c:	000aa400 	andeq	sl, sl, r0, lsl #8
    2730:	00043c00 	andeq	r3, r4, r0, lsl #24
    2734:	50011800 	andpl	r1, r1, r0, lsl #16
    2738:	01183a01 	tsteq	r8, r1, lsl #20
    273c:	d0910351 	addsle	r0, r1, r1, asr r3
    2740:	5201187e 	andpl	r1, r1, #8257536	; 0x7e0000
    2744:	18007902 	stmdane	r0, {r1, r8, fp, ip, sp, lr}
    2748:	02007d02 	andeq	r7, r0, #128	; 0x80
    274c:	17000076 	smlsdxne	r0, r6, r0, r0
    2750:	000094ac 	andeq	r9, r0, ip, lsr #9
    2754:	00000c5e 	andeq	r0, r0, lr, asr ip
    2758:	0000045a 	andeq	r0, r0, sl, asr r4
    275c:	03500118 	cmpeq	r0, #6
    2760:	187dd091 	ldmdane	sp!, {r0, r4, r7, ip, lr, pc}^
    2764:	03055101 	movweq	r5, #20737	; 0x5101
    2768:	0000a4b0 			; <UNDEFINED> instruction: 0x0000a4b0
    276c:	94c01700 	strbls	r1, [r0], #1792	; 0x700
    2770:	0c6a0000 	stcleq	0, cr0, [sl], #-0
    2774:	04760000 	ldrbteq	r0, [r6], #-0
    2778:	01180000 	tsteq	r8, r0
    277c:	d0910350 	addsle	r0, r1, r0, asr r3
    2780:	5101187d 	tstpl	r1, sp, ror r8
    2784:	7ed09103 	atnvcs	f1, f3
    2788:	94cc1900 	strbls	r1, [ip], #2304	; 0x900
    278c:	0c520000 	mraeq	r0, r2, acc0
    2790:	90170000 	andsls	r0, r7, r0
    2794:	46000095 			; <UNDEFINED> instruction: 0x46000095
    2798:	a800000c 	stmdage	r0, {r2, r3}
    279c:	18000004 	stmdane	r0, {r2}
    27a0:	03055001 	movweq	r5, #20481	; 0x5001
    27a4:	0000a138 	andeq	sl, r0, r8, lsr r1
    27a8:	05510118 	ldrbeq	r0, [r1, #-280]	; 0xfffffee8
    27ac:	00a64003 	adceq	r4, r6, r3
    27b0:	52011800 	andpl	r1, r1, #0, 16
    27b4:	a7980305 	ldrge	r0, [r8, r5, lsl #6]
    27b8:	19000000 	stmdbne	r0, {}	; <UNPREDICTABLE>
    27bc:	00009594 	muleq	r0, r4, r5
    27c0:	00000c76 	andeq	r0, r0, r6, ror ip
    27c4:	0095ac17 	addseq	sl, r5, r7, lsl ip
    27c8:	000c4600 	andeq	r4, ip, r0, lsl #12
    27cc:	0004e700 	andeq	lr, r4, r0, lsl #14
    27d0:	50011800 	andpl	r1, r1, r0, lsl #16
    27d4:	a6e00305 	strbtge	r0, [r0], r5, lsl #6
    27d8:	01180000 	tsteq	r8, r0
    27dc:	40030551 	andmi	r0, r3, r1, asr r5
    27e0:	180000a6 	stmdane	r0, {r1, r2, r5, r7}
    27e4:	03055201 	movweq	r5, #20993	; 0x5201
    27e8:	0000a798 	muleq	r0, r8, r7
    27ec:	02530118 	subseq	r0, r3, #6
    27f0:	0218b608 	andseq	fp, r8, #8, 12	; 0x800000
    27f4:	7602007d 			; <UNDEFINED> instruction: 0x7602007d
    27f8:	b0190000 	andslt	r0, r9, r0
    27fc:	76000095 			; <UNDEFINED> instruction: 0x76000095
    2800:	0000000c 	andeq	r0, r0, ip
    2804:	0009e31a 	andeq	lr, r9, sl, lsl r3
    2808:	00906000 	addseq	r6, r0, r0
    280c:	90000400 	andls	r0, r0, r0, lsl #8
    2810:	01000004 	tsteq	r0, r4
    2814:	05150a94 	ldreq	r0, [r5, #-2708]	; 0xfffff56c
    2818:	f41b0000 			; <UNDEFINED> instruction: 0xf41b0000
    281c:	57000009 	strpl	r0, [r0, -r9]
    2820:	53000015 	movwpl	r0, #21
    2824:	00000015 	andeq	r0, r0, r5, lsl r0
    2828:	0008951a 	andeq	r9, r8, sl, lsl r5
    282c:	00924800 	addseq	r4, r2, r0, lsl #16
    2830:	b0000100 	andlt	r0, r0, r0, lsl #2
    2834:	01000004 	tsteq	r0, r4
    2838:	064b09dc 			; <UNDEFINED> instruction: 0x064b09dc
    283c:	be1b0000 	cdplt	0, 1, cr0, cr11, cr0, {0}
    2840:	85000008 	strhi	r0, [r0, #-8]
    2844:	7f000015 	svcvc	0x00000015
    2848:	1b000015 	blne	28a4 <__code_start__-0x575c>
    284c:	000008e0 	andeq	r0, r0, r0, ror #17
    2850:	000015ba 			; <UNDEFINED> instruction: 0x000015ba
    2854:	000015b4 			; <UNDEFINED> instruction: 0x000015b4
    2858:	0008d41b 	andeq	sp, r8, fp, lsl r4
    285c:	0015ec00 	andseq	lr, r5, r0, lsl #24
    2860:	0015e600 	andseq	lr, r5, r0, lsl #12
    2864:	08c81c00 	stmiaeq	r8, {sl, fp, ip}^
    2868:	b21b0000 	andslt	r0, fp, #0, 0
    286c:	1d000008 	stcne	0, cr0, [r0, #-32]	; 0xffffffe0
    2870:	15000016 	strne	r0, [r0, #-22]	; 0xffffffea
    2874:	1b000016 	blne	28d4 <__code_start__-0x572c>
    2878:	000008a6 	andeq	r0, r0, r6, lsr #17
    287c:	00001660 	andeq	r1, r0, r0, ror #12
    2880:	0000165a 	andeq	r1, r0, sl, asr r6
    2884:	0004b013 	andeq	fp, r4, r3, lsl r0
    2888:	08ec1d00 	stmiaeq	ip!, {r8, sl, fp, ip}^
    288c:	91030000 	mrsls	r0, (UNDEF: 3)
    2890:	f81e7ed8 			; <UNDEFINED> instruction: 0xf81e7ed8
    2894:	9a000008 	bls	28bc <__code_start__-0x5744>
    2898:	8c000016 	stchi	0, cr0, [r0], {22}
    289c:	1f000016 	svcne	0x00000016
    28a0:	00000902 	andeq	r0, r0, r2, lsl #18
    28a4:	0009a31a 	andeq	sl, r9, sl, lsl r3
    28a8:	00925400 	addseq	r5, r2, r0, lsl #8
    28ac:	e0000400 	and	r0, r0, r0, lsl #8
    28b0:	01000004 	tsteq	r0, r4
    28b4:	05e2097c 	strbeq	r0, [r2, #2428]!	; 0x97c
    28b8:	ca1b0000 	bgt	6c28c0 <__bss_end__+0x6b7ad8>
    28bc:	04000009 	streq	r0, [r0], #-9
    28c0:	fe000017 	mcr2	0, 0, r0, cr0, cr7, {0}
    28c4:	1b000016 	blne	2924 <__code_start__-0x56dc>
    28c8:	000009be 			; <UNDEFINED> instruction: 0x000009be
    28cc:	00001739 	andeq	r1, r0, r9, lsr r7
    28d0:	0000172d 	andeq	r1, r0, sp, lsr #14
    28d4:	0009b41b 	andeq	fp, r9, fp, lsl r4
    28d8:	00179f00 	andseq	r9, r7, r0, lsl #30
    28dc:	00178f00 	andseq	r8, r7, r0, lsl #30
    28e0:	04e01300 	strbteq	r1, [r0], #768	; 0x300
    28e4:	d61e0000 	ldrle	r0, [lr], -r0
    28e8:	1c000009 	stcne	0, cr0, [r0], {9}
    28ec:	0e000018 	mcreq	0, 0, r0, cr0, cr8, {0}
    28f0:	00000018 	andeq	r0, r0, r8, lsl r0
    28f4:	094f2000 	stmdbeq	pc, {sp}^	; <UNPREDICTABLE>
    28f8:	931c0000 	tstls	ip, #0, 0
    28fc:	00020000 	andeq	r0, r2, r0
    2900:	00000510 	andeq	r0, r0, r0, lsl r5
    2904:	1b097c01 	blne	261910 <__bss_end__+0x256b28>
    2908:	00000980 	andeq	r0, r0, r0, lsl #19
    290c:	0000187c 	andeq	r1, r0, ip, ror r8
    2910:	00001876 	andeq	r1, r0, r6, ror r8
    2914:	0009761b 	andeq	r7, r9, fp, lsl r6
    2918:	0018b200 	andseq	fp, r8, r0, lsl #4
    291c:	0018a800 	andseq	sl, r8, r0, lsl #16
    2920:	096c1b00 	stmdbeq	ip!, {r8, r9, fp, ip}^
    2924:	19010000 	stmdbne	r1, {}	; <UNPREDICTABLE>
    2928:	18fd0000 	ldmne	sp!, {}^	; <UNPREDICTABLE>
    292c:	601b0000 	andsvs	r0, fp, r0
    2930:	31000009 	tstcc	r0, r9
    2934:	23000019 	movwcs	r0, #25
    2938:	13000019 	movwne	r0, #25
    293c:	00000510 	andeq	r0, r0, r0, lsl r5
    2940:	00098c1e 	andeq	r8, r9, lr, lsl ip
    2944:	00199600 	andseq	r9, r9, r0, lsl #12
    2948:	00199400 	andseq	r9, r9, r0, lsl #8
    294c:	09981e00 	ldmibeq	r8, {r9, sl, fp, ip}
    2950:	19b00000 	ldmibne	r0!, {}	; <UNPREDICTABLE>
    2954:	19aa0000 	stmibne	sl!, {}	; <UNPREDICTABLE>
    2958:	00000000 	andeq	r0, r0, r0
    295c:	951a0000 	ldrls	r0, [sl, #-0]
    2960:	58000008 	stmdapl	r0, {r3}
    2964:	00000093 	muleq	r0, r3, r0
    2968:	00054000 	andeq	r4, r5, r0
    296c:	09d60100 	ldmibeq	r6, {r8}^
    2970:	00000789 	andeq	r0, r0, r9, lsl #15
    2974:	0008be1b 	andeq	fp, r8, fp, lsl lr
    2978:	0019e300 	andseq	lr, r9, r0, lsl #6
    297c:	0019df00 	andseq	sp, r9, r0, lsl #30
    2980:	08e01b00 	stmiaeq	r0!, {r8, r9, fp, ip}^
    2984:	1a090000 	bne	24298c <__bss_end__+0x237ba4>
    2988:	1a050000 	bne	142990 <__bss_end__+0x137ba8>
    298c:	d41b0000 	ldrle	r0, [fp], #-0
    2990:	2d000008 	stccs	0, cr0, [r0, #-32]	; 0xffffffe0
    2994:	2900001a 	stmdbcs	r0, {r1, r3, r4}
    2998:	1c00001a 	stcne	0, cr0, [r0], {26}
    299c:	000008c8 	andeq	r0, r0, r8, asr #17
    29a0:	0008b21b 	andeq	fp, r8, fp, lsl r2
    29a4:	001a5100 	andseq	r5, sl, r0, lsl #2
    29a8:	001a4b00 	andseq	r4, sl, r0, lsl #22
    29ac:	08a61b00 	stmiaeq	r6!, {r8, r9, fp, ip}
    29b0:	1a840000 	bne	fe1029b8 <__bss_end__+0xfe0f7bd0>
    29b4:	1a800000 	bne	fe0029bc <__bss_end__+0xfdff7bd4>
    29b8:	40130000 	andsmi	r0, r3, r0
    29bc:	1d000005 	stcne	0, cr0, [r0, #-20]	; 0xffffffec
    29c0:	000008ec 	andeq	r0, r0, ip, ror #17
    29c4:	7ed89103 	atnvce	f1, f3
    29c8:	0008f81e 	andeq	pc, r8, lr, lsl r8	; <UNPREDICTABLE>
    29cc:	001aae00 	andseq	sl, sl, r0, lsl #28
    29d0:	001aa400 	andseq	sl, sl, r0, lsl #8
    29d4:	09021e00 	stmdbeq	r2, {r9, sl, fp, ip}
    29d8:	1af30000 	bne	ffcc29e0 <__bss_end__+0xffcb7bf8>
    29dc:	1aef0000 	bne	ffbc29e4 <__bss_end__+0xffbb7bfc>
    29e0:	a31a0000 	tstge	sl, #0, 0
    29e4:	74000009 	strvc	r0, [r0], #-9
    29e8:	03000093 	movweq	r0, #147	; 0x93
    29ec:	00056000 	andeq	r6, r5, r0
    29f0:	097c0100 	ldmdbeq	ip!, {r8}^
    29f4:	00000720 	andeq	r0, r0, r0, lsr #14
    29f8:	0009ca1b 	andeq	ip, r9, fp, lsl sl
    29fc:	001b1500 	andseq	r1, fp, r0, lsl #10
    2a00:	001b1100 	andseq	r1, fp, r0, lsl #2
    2a04:	09be1b00 	ldmibeq	lr!, {r8, r9, fp, ip}
    2a08:	1b370000 	blne	dc2a10 <__bss_end__+0xdb7c28>
    2a0c:	1b330000 	blne	cc2a14 <__bss_end__+0xcb7c2c>
    2a10:	b41b0000 	ldrlt	r0, [fp], #-0
    2a14:	61000009 	tstvs	r0, r9
    2a18:	5500001b 	strpl	r0, [r0, #-27]	; 0xffffffe5
    2a1c:	1300001b 	movwne	r0, #27
    2a20:	00000560 	andeq	r0, r0, r0, ror #10
    2a24:	0009d61e 	andeq	sp, r9, lr, lsl r6
    2a28:	001bbd00 	andseq	fp, fp, r0, lsl #26
    2a2c:	001bb100 	andseq	fp, fp, r0, lsl #2
    2a30:	20000000 	andcs	r0, r0, r0
    2a34:	0000094f 	andeq	r0, r0, pc, asr #18
    2a38:	000093fc 	strdeq	r9, [r0], -ip
    2a3c:	05880002 	streq	r0, [r8, #2]
    2a40:	7c010000 	stcvc	0, cr0, [r1], {-0}
    2a44:	09801b09 	stmibeq	r0, {r0, r3, r8, r9, fp, ip}
    2a48:	1c0d0000 	stcne	0, cr0, [sp], {-0}
    2a4c:	1c090000 	stcne	0, cr0, [r9], {-0}
    2a50:	761b0000 	ldrvc	r0, [fp], -r0
    2a54:	35000009 	strcc	r0, [r0, #-9]
    2a58:	2b00001c 	blcs	2ad0 <__code_start__-0x5530>
    2a5c:	1b00001c 	blne	2ad4 <__code_start__-0x552c>
    2a60:	0000096c 	andeq	r0, r0, ip, ror #18
    2a64:	00001c81 	andeq	r1, r0, r1, lsl #25
    2a68:	00001c7d 	andeq	r1, r0, sp, ror ip
    2a6c:	0009601b 	andeq	r6, r9, fp, lsl r0
    2a70:	001caf00 	andseq	sl, ip, r0, lsl #30
    2a74:	001ca300 	andseq	sl, ip, r0, lsl #6
    2a78:	05881300 	streq	r1, [r8, #768]	; 0x300
    2a7c:	8c1e0000 	ldchi	0, cr0, [lr], {-0}
    2a80:	09000009 	stmdbeq	r0, {r0, r3}
    2a84:	0500001d 	streq	r0, [r0, #-29]	; 0xffffffe3
    2a88:	1e00001d 	mcrne	0, 0, r0, cr0, cr13, {0}
    2a8c:	00000998 	muleq	r0, r8, r9
    2a90:	00001d2f 	andeq	r1, r0, pc, lsr #26
    2a94:	00001d2b 	andeq	r1, r0, fp, lsr #26
    2a98:	00000000 	andeq	r0, r0, r0
    2a9c:	00912817 	addseq	r2, r1, r7, lsl r8
    2aa0:	000aa400 	andeq	sl, sl, r0, lsl #8
    2aa4:	0007af00 	andeq	sl, r7, r0, lsl #30
    2aa8:	50011800 	andpl	r1, r1, r0, lsl #16
    2aac:	01184001 	tsteq	r8, r1
    2ab0:	d0910351 	addsle	r0, r1, r1, asr r3
    2ab4:	5301187d 	movwpl	r1, #6269	; 0x187d
    2ab8:	18007502 	stmdane	r0, {r1, r8, sl, ip, sp, lr}
    2abc:	01007d02 	tsteq	r0, r2, lsl #26
    2ac0:	38170030 	ldmdacc	r7, {r4, r5}
    2ac4:	a4000092 	strge	r0, [r0], #-146	; 0xffffff6e
    2ac8:	cf00000a 	svcgt	0x0000000a
    2acc:	18000007 	stmdane	r0, {r0, r1, r2}
    2ad0:	3a015001 	bcc	56adc <__bss_end__+0x4bcf4>
    2ad4:	03510118 	cmpeq	r1, #6
    2ad8:	187dd091 	ldmdane	sp!, {r0, r4, r7, ip, lr, pc}^
    2adc:	75025301 	strvc	r5, [r2, #-769]	; 0xfffffcff
    2ae0:	1c170000 	ldcne	0, cr0, [r7], {-0}
    2ae4:	46000095 			; <UNDEFINED> instruction: 0x46000095
    2ae8:	e600000c 	str	r0, [r0], -ip
    2aec:	18000007 	stmdane	r0, {r0, r1, r2}
    2af0:	03055001 	movweq	r5, #20481	; 0x5001
    2af4:	0000a730 	andeq	sl, r0, r0, lsr r7
    2af8:	952c2100 	strls	r2, [ip, #-256]!	; 0xffffff00
    2afc:	07f80000 	ldrbeq	r0, [r8, r0]!
    2b00:	01180000 	tsteq	r8, r0
    2b04:	c8910450 	ldmgt	r1, {r4, r6, sl}
    2b08:	1700067d 	smlsdxne	r0, sp, r6, r0
    2b0c:	00009540 	andeq	r9, r0, r0, asr #10
    2b10:	00000c46 	andeq	r0, r0, r6, asr #24
    2b14:	00000827 	andeq	r0, r0, r7, lsr #16
    2b18:	05500118 	ldrbeq	r0, [r0, #-280]	; 0xfffffee8
    2b1c:	00a76003 	adceq	r6, r7, r3
    2b20:	51011800 	tstpl	r1, r0, lsl #16
    2b24:	a6400305 	strbge	r0, [r0], -r5, lsl #6
    2b28:	01180000 	tsteq	r8, r0
    2b2c:	98030552 	stmdals	r3, {r1, r4, r6, r8, sl}
    2b30:	180000a7 	stmdane	r0, {r0, r1, r2, r5, r7}
    2b34:	08025301 	stmdaeq	r2, {r0, r8, r9, ip, lr}
    2b38:	441900e2 	ldrmi	r0, [r9], #-226	; 0xffffff1e
    2b3c:	76000095 			; <UNDEFINED> instruction: 0x76000095
    2b40:	1700000c 	strne	r0, [r0, -ip]
    2b44:	00009558 	andeq	r9, r0, r8, asr r5
    2b48:	00000c46 	andeq	r0, r0, r6, asr #24
    2b4c:	0000085f 	andeq	r0, r0, pc, asr r8
    2b50:	05500118 	ldrbeq	r0, [r0, #-280]	; 0xfffffee8
    2b54:	00a70803 	adceq	r0, r7, r3, lsl #16
    2b58:	51011800 	tstpl	r1, r0, lsl #16
    2b5c:	a6400305 	strbge	r0, [r0], -r5, lsl #6
    2b60:	01180000 	tsteq	r8, r0
    2b64:	98030552 	stmdals	r3, {r1, r4, r6, r8, sl}
    2b68:	180000a7 	stmdane	r0, {r0, r1, r2, r5, r7}
    2b6c:	08025301 	stmdaeq	r2, {r0, r8, r9, ip, lr}
    2b70:	5c1900be 	ldcpl	0, cr0, [r9], {190}	; 0xbe
    2b74:	76000095 			; <UNDEFINED> instruction: 0x76000095
    2b78:	0000000c 	andeq	r0, r0, ip
    2b7c:	b9040800 	stmdblt	r4, {fp}
    2b80:	22000000 	andcs	r0, r0, #0, 0
    2b84:	000000c0 	andeq	r0, r0, r0, asr #1
    2b88:	00000880 	andeq	r0, r0, r0, lsl #17
    2b8c:	00002c23 	andeq	r2, r0, r3, lsr #24
    2b90:	09000900 	stmdbeq	r0, {r8, fp}
    2b94:	00000870 	andeq	r0, r0, r0, ror r8
    2b98:	0000b922 	andeq	fp, r0, r2, lsr #18
    2b9c:	00089500 	andeq	r9, r8, r0, lsl #10
    2ba0:	002c2300 	eoreq	r2, ip, r0, lsl #6
    2ba4:	007f0000 	rsbseq	r0, pc, r0
    2ba8:	0005bb24 	andeq	fp, r5, r4, lsr #22
    2bac:	01490100 	mrseq	r0, (UNDEF: 89)
    2bb0:	0000086a 	andeq	r0, r0, sl, ror #16
    2bb4:	00092a01 	andeq	r2, r9, r1, lsl #20
    2bb8:	03482500 	movteq	r2, #34048	; 0x8500
    2bbc:	49010000 	stmdbmi	r1, {}	; <UNPREDICTABLE>
    2bc0:	00002c0f 	andeq	r2, r0, pc, lsl #24
    2bc4:	73642600 	cmnvc	r4, #0, 12
    2bc8:	49010074 	stmdbmi	r1, {r2, r4, r5, r6}
    2bcc:	00086a1b 	andeq	r6, r8, fp, lsl sl
    2bd0:	006e2600 	rsbeq	r2, lr, r0, lsl #12
    2bd4:	33244901 			; <UNDEFINED> instruction: 0x33244901
    2bd8:	26000000 	strcs	r0, [r0], -r0
    2bdc:	006c6176 	rsbeq	r6, ip, r6, ror r1
    2be0:	332b4901 			; <UNDEFINED> instruction: 0x332b4901
    2be4:	25000000 	strcs	r0, [r0, #-0]
    2be8:	00000564 	andeq	r0, r0, r4, ror #10
    2bec:	33344901 	teqcc	r4, #16384	; 0x4000
    2bf0:	25000000 	strcs	r0, [r0, #-0]
    2bf4:	000005f1 	strdeq	r0, [r0], -r1
    2bf8:	333f4901 	teqcc	pc, #16384	; 0x4000
    2bfc:	27000000 	strcs	r0, [r0, -r0]
    2c00:	00667562 	rsbeq	r7, r6, r2, ror #10
    2c04:	2a074e01 	bcs	1d6410 <__bss_end__+0x1cb628>
    2c08:	27000009 	strcs	r0, [r0, -r9]
    2c0c:	4e010070 	mcrmi	0, 0, r0, cr1, cr0, {3}
    2c10:	00086a11 	andeq	r6, r8, r1, lsl sl
    2c14:	00752700 	rsbseq	r2, r5, r0, lsl #14
    2c18:	2c0b4f01 	stccs	15, cr4, [fp], {1}
    2c1c:	12000000 	andne	r0, r0, #0, 0
    2c20:	00000090 	muleq	r0, r0, r0
    2c24:	0000094a 	andeq	r0, r0, sl, asr #18
    2c28:	a7800305 	strge	r0, [r0, r5, lsl #6]
    2c2c:	29280000 	stmdbcs	r8!, {}	; <UNPREDICTABLE>
    2c30:	000005a8 	andeq	r0, r0, r8, lsr #11
    2c34:	2c0d5401 	cfstrscs	mvf5, [sp], {1}
    2c38:	00000000 	andeq	r0, r0, r0
    2c3c:	00b92200 	adcseq	r2, r9, r0, lsl #4
    2c40:	093a0000 	ldmdbeq	sl!, {}	; <UNPREDICTABLE>
    2c44:	2c230000 	stccs	0, cr0, [r3], #-0
    2c48:	3f000000 	svccc	0x00000000
    2c4c:	00c02200 	sbceq	r2, r0, r0, lsl #4
    2c50:	094a0000 	stmdbeq	sl, {}^	; <UNPREDICTABLE>
    2c54:	2c230000 	stccs	0, cr0, [r3], #-0
    2c58:	04000000 	streq	r0, [r0], #-0
    2c5c:	093a0900 	ldmdbeq	sl!, {r8, fp}
    2c60:	c0240000 	eorgt	r0, r4, r0
    2c64:	01000005 	tsteq	r0, r5
    2c68:	086a0e38 	stmdaeq	sl!, {r3, r4, r5, r9, sl, fp}^
    2c6c:	a3010000 	movwge	r0, #4096	; 0x1000
    2c70:	26000009 	strcs	r0, [r0], -r9
    2c74:	00747364 	rsbseq	r7, r4, r4, ror #6
    2c78:	6a1c3801 	bvs	710c84 <__bss_end__+0x705e9c>
    2c7c:	26000008 	strcs	r0, [r0], -r8
    2c80:	3801006e 	stmdacc	r1, {r1, r2, r3, r5, r6}
    2c84:	00003325 	andeq	r3, r0, r5, lsr #6
    2c88:	00702600 	rsbseq	r2, r0, r0, lsl #12
    2c8c:	6a2e3801 	bvs	b90c98 <__bss_end__+0xb85eb0>
    2c90:	25000008 	strcs	r0, [r0, #-8]
    2c94:	0000098b 	andeq	r0, r0, fp, lsl #19
    2c98:	6a373801 	bvs	dd0ca4 <__bss_end__+0xdc5ebc>
    2c9c:	27000008 	strcs	r0, [r0, -r8]
    2ca0:	006e656c 	rsbeq	r6, lr, ip, ror #10
    2ca4:	33063a01 	movwcc	r3, #27137	; 0x6a01
    2ca8:	27000000 	strcs	r0, [r0, -r0]
    2cac:	3e010073 	mcrcc	0, 0, r0, cr1, cr3, {3}
    2cb0:	00086a08 	andeq	r6, r8, r8, lsl #20
    2cb4:	702a0000 	eorvc	r0, sl, r0
    2cb8:	01006461 	tsteq	r0, r1, ror #8
    2cbc:	086a0e2e 	stmdaeq	sl!, {r1, r2, r3, r5, r9, sl, fp}^
    2cc0:	e3010000 	movw	r0, #4096	; 0x1000
    2cc4:	26000009 	strcs	r0, [r0], -r9
    2cc8:	2e010070 	mcrcs	0, 0, r0, cr1, cr0, {3}
    2ccc:	00086a18 	andeq	r6, r8, r8, lsl sl
    2cd0:	03482500 	movteq	r2, #34048	; 0x8500
    2cd4:	2e010000 	cdpcs	0, 0, cr0, cr1, cr0, {0}
    2cd8:	00086a22 	andeq	r6, r8, r2, lsr #20
    2cdc:	05642500 	strbeq	r2, [r4, #-1280]!	; 0xfffffb00
    2ce0:	2e010000 	cdpcs	0, 0, cr0, cr1, cr0, {0}
    2ce4:	0000332c 	andeq	r3, r0, ip, lsr #6
    2ce8:	656c2700 	strbvs	r2, [ip, #-1792]!	; 0xfffff900
    2cec:	2f01006e 	svccs	0x0001006e
    2cf0:	00003306 	andeq	r3, r0, r6, lsl #6
    2cf4:	31240000 			; <UNDEFINED> instruction: 0x31240000
    2cf8:	01000005 	tsteq	r0, r5
    2cfc:	00330c27 	eorseq	r0, r3, r7, lsr #24
    2d00:	ff010000 			; <UNDEFINED> instruction: 0xff010000
    2d04:	26000009 	strcs	r0, [r0], -r9
    2d08:	27010063 	strcs	r0, [r1, -r3, rrx]
    2d0c:	00003318 	andeq	r3, r0, r8, lsl r3
    2d10:	812b0000 			; <UNDEFINED> instruction: 0x812b0000
    2d14:	01000005 	tsteq	r0, r5
    2d18:	8f74061f 	svchi	0x0074061f
    2d1c:	00600000 	rsbeq	r0, r0, r0
    2d20:	9c010000 	stcls	0, cr0, [r1], {-0}
    2d24:	00000a8f 	andeq	r0, r0, pc, lsl #21
    2d28:	00056a0f 	andeq	r6, r5, pc, lsl #20
    2d2c:	1b1f0100 	blne	7c3134 <__bss_end__+0x7b834c>
    2d30:	0000009e 	muleq	r0, lr, r0
    2d34:	00001d54 	andeq	r1, r0, r4, asr sp
    2d38:	00001d50 	andeq	r1, r0, r0, asr sp
    2d3c:	0005cf0f 	andeq	ip, r5, pc, lsl #30
    2d40:	301f0100 	andscc	r0, pc, r0, lsl #2
    2d44:	000000d1 	ldrdeq	r0, [r0], -r1
    2d48:	00001d79 	andeq	r1, r0, r9, ror sp
    2d4c:	00001d75 	andeq	r1, r0, r5, ror sp
    2d50:	00009012 	andeq	r9, r0, r2, lsl r0
    2d54:	000a9f00 	andeq	r9, sl, r0, lsl #30
    2d58:	88030500 	stmdahi	r3, {r8, sl}
    2d5c:	170000a7 	strne	r0, [r0, -r7, lsr #1]
    2d60:	00008fb8 			; <UNDEFINED> instruction: 0x00008fb8
    2d64:	00000c46 	andeq	r0, r0, r6, asr #24
    2d68:	00000a85 	andeq	r0, r0, r5, lsl #21
    2d6c:	05500118 	ldrbeq	r0, [r0, #-280]	; 0xfffffee8
    2d70:	00a13803 	adceq	r3, r1, r3, lsl #16
    2d74:	51011800 	tstpl	r1, r0, lsl #16
    2d78:	a6400305 	strbge	r0, [r0], -r5, lsl #6
    2d7c:	01180000 	tsteq	r8, r0
    2d80:	88030552 	stmdahi	r3, {r1, r4, r6, r8, sl}
    2d84:	180000a7 	stmdane	r0, {r0, r1, r2, r5, r7}
    2d88:	08025301 	stmdaeq	r2, {r0, r8, r9, ip, lr}
    2d8c:	7d021820 	stcvc	8, cr1, [r2, #-128]	; 0xffffff80
    2d90:	78030500 	stmdavc	r3, {r8, sl}
    2d94:	000000a6 	andeq	r0, r0, r6, lsr #1
    2d98:	008fbc19 	addeq	fp, pc, r9, lsl ip	; <UNPREDICTABLE>
    2d9c:	000c7600 	andeq	r7, ip, r0, lsl #12
    2da0:	c0220000 	eorgt	r0, r2, r0
    2da4:	9f000000 	svcls	0x00000000
    2da8:	2300000a 	movwcs	r0, #10
    2dac:	0000002c 	andeq	r0, r0, ip, lsr #32
    2db0:	8f09000e 	svchi	0x0009000e
    2db4:	2c00000a 	stccs	0, cr0, [r0], {10}
    2db8:	00000895 	muleq	r0, r5, r8
    2dbc:	00008c4c 	andeq	r8, r0, ip, asr #24
    2dc0:	00000328 	andeq	r0, r0, r8, lsr #6
    2dc4:	0c3a9c01 	ldceq	12, cr9, [sl], #-4
    2dc8:	a61b0000 	ldrge	r0, [fp], -r0
    2dcc:	b2000008 	andlt	r0, r0, #8, 0
    2dd0:	9a00001d 	bls	2e4c <__code_start__-0x51b4>
    2dd4:	1b00001d 	blne	2e50 <__code_start__-0x51b0>
    2dd8:	000008b2 			; <UNDEFINED> instruction: 0x000008b2
    2ddc:	00001e5c 	andeq	r1, r0, ip, asr lr
    2de0:	00001e54 	andeq	r1, r0, r4, asr lr
    2de4:	0008c81b 	andeq	ip, r8, fp, lsl r8
    2de8:	001eb300 	andseq	fp, lr, r0, lsl #6
    2dec:	001e9300 	andseq	r9, lr, r0, lsl #6
    2df0:	08d41b00 	ldmeq	r4, {r8, r9, fp, ip}^
    2df4:	1f890000 	svcne	0x00890000
    2df8:	1f7b0000 	svcne	0x007b0000
    2dfc:	e02d0000 	eor	r0, sp, r0
    2e00:	02000008 	andeq	r0, r0, #8, 0
    2e04:	ec1d0091 	ldc	0, cr0, [sp], {145}	; 0x91
    2e08:	03000008 	movweq	r0, #8
    2e0c:	1e7fa891 	mrcne	8, 3, sl, cr15, cr1, {4}
    2e10:	000008f8 	strdeq	r0, [r0], -r8
    2e14:	0000201d 	andeq	r2, r0, sp, lsl r0
    2e18:	00001fe9 	andeq	r1, r0, r9, ror #31
    2e1c:	0009021e 	andeq	r0, r9, lr, lsl r2
    2e20:	00218400 	eoreq	r8, r1, r0, lsl #8
    2e24:	00216200 	eoreq	r6, r1, r0, lsl #4
    2e28:	08be2e00 	ldmeq	lr!, {r9, sl, fp, sp}
    2e2c:	1a800000 	bne	fe002e34 <__bss_end__+0xfdff804c>
    2e30:	000009a3 	andeq	r0, r0, r3, lsr #19
    2e34:	00008cf0 	strdeq	r8, [r0], -r0
    2e38:	03d80004 	bicseq	r0, r8, #4, 0
    2e3c:	7c010000 	stcvc	0, cr0, [r1], {-0}
    2e40:	000b6d09 	andeq	r6, fp, r9, lsl #26
    2e44:	09ca1b00 	stmibeq	sl, {r8, r9, fp, ip}^
    2e48:	226c0000 	rsbcs	r0, ip, #0, 0
    2e4c:	22620000 	rsbcs	r0, r2, #0, 0
    2e50:	be1b0000 	cdplt	0, 1, cr0, cr11, cr0, {0}
    2e54:	c0000009 	andgt	r0, r0, r9
    2e58:	b0000022 	andlt	r0, r0, r2, lsr #32
    2e5c:	1b000022 	blne	2eec <__code_start__-0x5114>
    2e60:	000009b4 			; <UNDEFINED> instruction: 0x000009b4
    2e64:	00002340 	andeq	r2, r0, r0, asr #6
    2e68:	0000232c 	andeq	r2, r0, ip, lsr #6
    2e6c:	0003d813 	andeq	sp, r3, r3, lsl r8
    2e70:	09d61e00 	ldmibeq	r6, {r9, sl, fp, ip}^
    2e74:	23d20000 	bicscs	r0, r2, #0, 0
    2e78:	23c20000 	biccs	r0, r2, #0, 0
    2e7c:	00000000 	andeq	r0, r0, r0
    2e80:	00094f1a 	andeq	r4, r9, sl, lsl pc
    2e84:	008da800 	addeq	sl, sp, r0, lsl #16
    2e88:	20000200 	andcs	r0, r0, r0, lsl #4
    2e8c:	01000004 	tsteq	r0, r4
    2e90:	0bd8097c 	bleq	ff605488 <__bss_end__+0xff5fa6a0>
    2e94:	801b0000 	andshi	r0, fp, r0
    2e98:	3e000009 	cdpcc	0, 0, cr0, cr0, cr9, {0}
    2e9c:	36000024 	strcc	r0, [r0], -r4, lsr #32
    2ea0:	1b000024 	blne	2f38 <__code_start__-0x50c8>
    2ea4:	00000976 	andeq	r0, r0, r6, ror r9
    2ea8:	0000247d 	andeq	r2, r0, sp, ror r4
    2eac:	00002475 	andeq	r2, r0, r5, ror r4
    2eb0:	00096c1b 	andeq	r6, r9, fp, lsl ip
    2eb4:	0024bc00 	eoreq	fp, r4, r0, lsl #24
    2eb8:	0024b800 	eoreq	fp, r4, r0, lsl #16
    2ebc:	09601b00 	stmdbeq	r0!, {r8, r9, fp, ip}^
    2ec0:	24ec0000 	strbtcs	r0, [ip], #0
    2ec4:	24de0000 	ldrbcs	r0, [lr], #0
    2ec8:	20130000 	andscs	r0, r3, r0
    2ecc:	1e000004 	cdpne	0, 0, cr0, cr0, cr4, {0}
    2ed0:	0000098c 	andeq	r0, r0, ip, lsl #19
    2ed4:	00002551 	andeq	r2, r0, r1, asr r5
    2ed8:	0000254b 	andeq	r2, r0, fp, asr #10
    2edc:	0009981e 	andeq	r9, r9, lr, lsl r8
    2ee0:	00258300 	eoreq	r8, r5, r0, lsl #6
    2ee4:	00257f00 	eoreq	r7, r5, r0, lsl #30
    2ee8:	2f000000 	svccs	0x00000000
    2eec:	0000091b 	andeq	r0, r0, fp, lsl r9
    2ef0:	00008e60 	andeq	r8, r0, r0, ror #28
    2ef4:	00000060 	andeq	r0, r0, r0, rrx
    2ef8:	00000bf7 	strdeq	r0, [r0], -r7
    2efc:	00091c1e 	andeq	r1, r9, lr, lsl ip
    2f00:	0025a500 	eoreq	sl, r5, r0, lsl #10
    2f04:	0025a100 	eoreq	sl, r5, r0, lsl #2
    2f08:	34170000 	ldrcc	r0, [r7], #-0
    2f0c:	4600008f 	strmi	r0, [r0], -pc, lsl #1
    2f10:	3000000c 	andcc	r0, r0, ip
    2f14:	1800000c 	stmdane	r0, {r2, r3}
    2f18:	03055001 	movweq	r5, #20481	; 0x5001
    2f1c:	0000a138 	andeq	sl, r0, r8, lsr r1
    2f20:	05510118 	ldrbeq	r0, [r1, #-280]	; 0xfffffee8
    2f24:	00a64003 	adceq	r4, r6, r3
    2f28:	52011800 	andpl	r1, r1, #0, 16
    2f2c:	a7800305 	strge	r0, [r0, r5, lsl #6]
    2f30:	01180000 	tsteq	r8, r0
    2f34:	79080253 	stmdbvc	r8, {r0, r1, r4, r6, r9}
    2f38:	007d0218 	rsbseq	r0, sp, r8, lsl r2
    2f3c:	a4b00305 	ldrtge	r0, [r0], #773	; 0x305
    2f40:	19000000 	stmdbne	r0, {}	; <UNPREDICTABLE>
    2f44:	00008f38 	andeq	r8, r0, r8, lsr pc
    2f48:	00000c76 	andeq	r0, r0, r6, ror ip
    2f4c:	05e93000 	strbeq	r3, [r9, #0]!
    2f50:	05e90000 	strbeq	r0, [r9, #0]!
    2f54:	eb030000 	bl	c2f5c <__bss_end__+0xb8174>
    2f58:	04e03005 	strbteq	r3, [r0], #5
    2f5c:	04e00000 	strbteq	r0, [r0], #0
    2f60:	28030000 	stmdacs	r3, {}	; <UNPREDICTABLE>
    2f64:	059a3006 	ldreq	r3, [sl, #6]
    2f68:	059a0000 	ldreq	r0, [sl]
    2f6c:	ee030000 	cdp	0, 0, cr0, cr3, cr0, {0}
    2f70:	05c83007 	strbeq	r3, [r8, #7]
    2f74:	05c80000 	strbeq	r0, [r8]
    2f78:	ea030000 	b	c2f80 <__bss_end__+0xb8198>
    2f7c:	05a13005 	streq	r3, [r1, #5]!
    2f80:	05a10000 	streq	r0, [r1, #0]!
    2f84:	ed030000 	stc	0, cr0, [r3, #-0]
    2f88:	00a73007 	adceq	r3, r7, r7
    2f8c:	00a70000 	adceq	r0, r7, r0
    2f90:	6e030000 	cdpvs	0, 0, cr0, cr3, cr0, {0}
    2f94:	012f0006 			; <UNDEFINED> instruction: 0x012f0006
    2f98:	00040000 	andeq	r0, r4, r0
    2f9c:	0000105f 	andeq	r1, r0, pc, asr r0
    2fa0:	016a0104 	cmneq	sl, r4, lsl #2
    2fa4:	0e0c0000 	cdpeq	0, 0, cr0, cr12, cr0, {0}
    2fa8:	b6000006 	strlt	r0, [r0], -r6
    2fac:	00000004 	andeq	r0, r0, r4
    2fb0:	2c000096 	stccs	0, cr0, [r0], {150}	; 0x96
    2fb4:	fc000000 	stc2	0, cr0, [r0], {-0}
    2fb8:	02000019 	andeq	r0, r0, #25, 0
    2fbc:	6e690504 	cdpvs	5, 6, cr0, cr9, cr4, {0}
    2fc0:	04030074 	streq	r0, [r3], #-116	; 0xffffff8c
    2fc4:	00012b07 	andeq	r2, r1, r7, lsl #22
    2fc8:	06010300 	streq	r0, [r1], -r0, lsl #6
    2fcc:	000000c3 	andeq	r0, r0, r3, asr #1
    2fd0:	21050203 	tstcs	r5, r3, lsl #4
    2fd4:	03000000 	movweq	r0, #0
    2fd8:	00560504 	subseq	r0, r6, r4, lsl #10
    2fdc:	08030000 	stmdaeq	r3, {}	; <UNPREDICTABLE>
    2fe0:	00005105 	andeq	r5, r0, r5, lsl #2
    2fe4:	08010300 	stmdaeq	r1, {r8, r9}
    2fe8:	000000c1 	andeq	r0, r0, r1, asr #1
    2fec:	52070203 	andpl	r0, r7, #805306368	; 0x30000000
    2ff0:	03000001 	movweq	r0, #1
    2ff4:	01260704 			; <UNDEFINED> instruction: 0x01260704
    2ff8:	08030000 	stmdaeq	r3, {}	; <UNPREDICTABLE>
    2ffc:	00012107 	andeq	r2, r1, r7, lsl #2
    3000:	00250400 	eoreq	r0, r5, r0, lsl #8
    3004:	007a0000 	rsbseq	r0, sl, r0
    3008:	25050000 	strcs	r0, [r5, #-0]
    300c:	00000000 	andeq	r0, r0, r0
    3010:	00002b06 	andeq	r2, r0, r6, lsl #22
    3014:	0e1c0200 	cdpeq	2, 1, cr0, cr12, cr0, {0}
    3018:	00000086 	andeq	r0, r0, r6, lsl #1
    301c:	006b0407 	rsbeq	r0, fp, r7, lsl #8
    3020:	25040000 	strcs	r0, [r4, #-0]
    3024:	9b000000 	blls	302c <__code_start__-0x4fd4>
    3028:	05000000 	streq	r0, [r0, #-0]
    302c:	0000009b 	muleq	r0, fp, r0
    3030:	a8040700 	stmdage	r4, {r8, r9, sl}
    3034:	03000000 	movweq	r0, #0
    3038:	00ca0801 	sbceq	r0, sl, r1, lsl #16
    303c:	a1080000 	mrsge	r0, (UNDEF: 8)
    3040:	06000000 	streq	r0, [r0], -r0
    3044:	0000051e 	andeq	r0, r0, lr, lsl r5
    3048:	b90e2102 	stmdblt	lr, {r1, r8, sp}
    304c:	07000000 	streq	r0, [r0, -r0]
    3050:	00008c04 	andeq	r8, r0, r4, lsl #24
    3054:	00a70900 	adceq	r0, r7, r0, lsl #18
    3058:	04010000 	streq	r0, [r1], #-0
    305c:	00960006 	addseq	r0, r6, r6
    3060:	00002c00 	andeq	r2, r0, r0, lsl #24
    3064:	0e9c0100 	fmleqe	f0, f4, f0
    3068:	0a000001 	beq	3074 <__code_start__-0x4f8c>
    306c:	00009614 	andeq	r9, r0, r4, lsl r6
    3070:	000000e8 	andeq	r0, r0, r8, ror #1
    3074:	0550010b 	ldrbeq	r0, [r0, #-267]	; 0xfffffef5
    3078:	00a7a403 	adceq	sl, r7, r3, lsl #8
    307c:	180c0000 	stmdane	ip, {}	; <UNPREDICTABLE>
    3080:	0e000096 	mcreq	0, 0, r0, cr0, cr6, {4}
    3084:	0d000001 	stceq	0, cr0, [r0, #-4]
    3088:	00009620 	andeq	r9, r0, r0, lsr #12
    308c:	0000011a 	andeq	r0, r0, sl, lsl r1
    3090:	00000104 	andeq	r0, r0, r4, lsl #2
    3094:	0150010b 	cmpeq	r0, fp, lsl #2
    3098:	240c003a 	strcs	r0, [ip], #-58	; 0xffffffc6
    309c:	26000096 			; <UNDEFINED> instruction: 0x26000096
    30a0:	00000001 	andeq	r0, r0, r1
    30a4:	0006290e 	andeq	r2, r6, lr, lsl #18
    30a8:	00062900 	andeq	r2, r6, r0, lsl #18
    30ac:	064d0200 	strbeq	r0, [sp], -r0, lsl #4
    30b0:	0006050e 	andeq	r0, r6, lr, lsl #10
    30b4:	00060500 	andeq	r0, r6, r0, lsl #10
    30b8:	06580200 	ldrbeq	r0, [r8], -r0, lsl #4
    30bc:	0005fa0e 	andeq	pc, r5, lr, lsl #20
    30c0:	0005fa00 	andeq	pc, r5, r0, lsl #20
    30c4:	066b0200 	strbteq	r0, [fp], -r0, lsl #4
    30c8:	00019000 	andeq	r9, r1, r0
    30cc:	1f000400 	svcne	0x00000400
    30d0:	04000011 	streq	r0, [r0], #-17	; 0xffffffef
    30d4:	00016a01 	andeq	r6, r1, r1, lsl #20
    30d8:	065f0c00 	ldrbeq	r0, [pc], -r0, lsl #24
    30dc:	04b60000 	ldrteq	r0, [r6], #0
    30e0:	962c0000 	strtls	r0, [ip], -r0
    30e4:	00f80000 	rscseq	r0, r8, r0
    30e8:	1a870000 	bne	fe1c30f0 <__bss_end__+0xfe1b8308>
    30ec:	04020000 	streq	r0, [r2], #-0
    30f0:	746e6905 	strbtvc	r6, [lr], #-2309	; 0xfffff6fb
    30f4:	07040300 	streq	r0, [r4, -r0, lsl #6]
    30f8:	0000012b 	andeq	r0, r0, fp, lsr #2
    30fc:	c3060103 	movwgt	r0, #24835	; 0x6103
    3100:	03000000 	movweq	r0, #0
    3104:	00210502 	eoreq	r0, r1, r2, lsl #10
    3108:	04030000 	streq	r0, [r3], #-0
    310c:	00005605 	andeq	r5, r0, r5, lsl #12
    3110:	05080300 	streq	r0, [r8, #-768]	; 0xfffffd00
    3114:	00000051 	andeq	r0, r0, r1, asr r0
    3118:	c1080103 	tstgt	r8, r3, lsl #2
    311c:	03000000 	movweq	r0, #0
    3120:	01520702 	cmpeq	r2, r2, lsl #14
    3124:	04030000 	streq	r0, [r3], #-0
    3128:	00012607 	andeq	r2, r1, r7, lsl #12
    312c:	07080300 	streq	r0, [r8, -r0, lsl #6]
    3130:	00000121 	andeq	r0, r0, r1, lsr #2
    3134:	00002504 	andeq	r2, r0, r4, lsl #10
    3138:	00007a00 	andeq	r7, r0, r0, lsl #20
    313c:	00250500 	eoreq	r0, r5, r0, lsl #10
    3140:	06000000 	streq	r0, [r0], -r0
    3144:	0000002b 	andeq	r0, r0, fp, lsr #32
    3148:	860e1c02 	strhi	r1, [lr], -r2, lsl #24
    314c:	07000000 	streq	r0, [r0, -r0]
    3150:	00006b04 	andeq	r6, r0, r4, lsl #22
    3154:	00250400 	eoreq	r0, r5, r0, lsl #8
    3158:	009b0000 	addseq	r0, fp, r0
    315c:	9b050000 	blls	143164 <__bss_end__+0x13837c>
    3160:	00000000 	andeq	r0, r0, r0
    3164:	00a80407 	adceq	r0, r8, r7, lsl #8
    3168:	01030000 	mrseq	r0, (UNDEF: 3)
    316c:	0000ca08 	andeq	ip, r0, r8, lsl #20
    3170:	00a10800 	adceq	r0, r1, r0, lsl #16
    3174:	1e060000 	cdpne	0, 0, cr0, cr6, cr0, {0}
    3178:	02000005 	andeq	r0, r0, #5, 0
    317c:	00b90e21 	adcseq	r0, r9, r1, lsr #28
    3180:	04070000 	streq	r0, [r7], #-0
    3184:	0000008c 	andeq	r0, r0, ip, lsl #1
    3188:	00063709 	andeq	r3, r6, r9, lsl #14
    318c:	06040100 	streq	r0, [r4], -r0, lsl #2
    3190:	0000962c 	andeq	r9, r0, ip, lsr #12
    3194:	000000f8 	strdeq	r0, [r0], -r8
    3198:	015b9c01 	cmpeq	fp, r1, lsl #24
    319c:	89060000 	stmdbhi	r6, {}	; <UNPREDICTABLE>
    31a0:	01000003 	tsteq	r0, r3
    31a4:	00251005 	eoreq	r1, r5, r5
    31a8:	3b060000 	blcc	1831b0 <__bss_end__+0x1783c8>
    31ac:	01000004 	tsteq	r0, r4
    31b0:	00251f05 	eoreq	r1, r5, r5, lsl #30
    31b4:	4a0a0000 	bmi	2831bc <__bss_end__+0x2783d4>
    31b8:	01000001 	tsteq	r0, r1
    31bc:	620b0706 	andvs	r0, fp, #1572864	; 0x180000
    31c0:	01007373 	tsteq	r0, r3, ror r3
    31c4:	015b0a0a 	cmpeq	fp, sl, lsl #20
    31c8:	25dd0000 	ldrbcs	r0, [sp]
    31cc:	25c50000 	strbcs	r0, [r5]
    31d0:	3f0c0000 	svccc	0x000c0000
    31d4:	01000006 	tsteq	r0, r6
    31d8:	015b0a0b 	cmpeq	fp, fp, lsl #20
    31dc:	040d0000 	streq	r0, [sp], #-0
    31e0:	08000097 	stmdaeq	r0, {r0, r1, r2, r4, r7}
    31e4:	36000000 	strcc	r0, [r0], -r0
    31e8:	0b000001 	bleq	31f4 <__code_start__-0x4e0c>
    31ec:	01006e69 	tsteq	r0, r9, ror #28
    31f0:	002c0514 	eoreq	r0, ip, r4, lsl r5
    31f4:	26770000 	ldrbtcs	r0, [r7], -r0
    31f8:	26750000 	ldrbtcs	r0, [r5], -r0
    31fc:	0e000000 	cdpeq	0, 0, cr0, cr0, cr0, {0}
    3200:	00009634 	andeq	r9, r0, r4, lsr r6
    3204:	00000161 	andeq	r0, r0, r1, ror #2
    3208:	0097040e 	addseq	r0, r7, lr, lsl #8
    320c:	00016e00 	andeq	r6, r1, r0, lsl #28
    3210:	97100e00 	ldrls	r0, [r0, -r0, lsl #28]
    3214:	017a0000 	cmneq	sl, r0
    3218:	140e0000 	strne	r0, [lr], #-0
    321c:	87000097 			; <UNDEFINED> instruction: 0x87000097
    3220:	00000001 	andeq	r0, r0, r1
    3224:	00250407 	eoreq	r0, r5, r7, lsl #8
    3228:	510f0000 	mrspl	r0, CPSR
    322c:	51000006 	tstpl	r0, r6
    3230:	02000006 	andeq	r0, r0, #6, 0
    3234:	10060131 	andne	r0, r6, r1, lsr r1
    3238:	00000647 	andeq	r0, r0, r7, asr #12
    323c:	00000647 	andeq	r0, r0, r7, asr #12
    3240:	0f063b02 	svceq	0x00063b02
    3244:	0000014a 	andeq	r0, r0, sl, asr #2
    3248:	0000014a 	andeq	r0, r0, sl, asr #2
    324c:	06010502 	streq	r0, [r1], -r2, lsl #10
    3250:	0000a710 	andeq	sl, r0, r0, lsl r7
    3254:	0000a700 	andeq	sl, r0, r0, lsl #14
    3258:	066e0200 	strbteq	r0, [lr], -r0, lsl #4
    325c:	0000ce00 	andeq	ip, r0, r0, lsl #28
    3260:	0a000400 	beq	4268 <__code_start__-0x3d98>
    3264:	04000012 	streq	r0, [r0], #-18	; 0xffffffee
    3268:	00016a01 	andeq	r6, r1, r1, lsl #20
    326c:	06740c00 	ldrbteq	r0, [r4], -r0, lsl #24
    3270:	04b60000 	ldrteq	r0, [r6], #0
    3274:	97240000 	strls	r0, [r4, -r0]!
    3278:	00040000 	andeq	r0, r4, r0
    327c:	1b9d0000 	blne	fe743284 <__bss_end__+0xfe73849c>
    3280:	04020000 	streq	r0, [r2], #-0
    3284:	746e6905 	strbtvc	r6, [lr], #-2309	; 0xfffff6fb
    3288:	07040300 	streq	r0, [r4, -r0, lsl #6]
    328c:	0000012b 	andeq	r0, r0, fp, lsr #2
    3290:	c3060103 	movwgt	r0, #24835	; 0x6103
    3294:	03000000 	movweq	r0, #0
    3298:	00210502 	eoreq	r0, r1, r2, lsl #10
    329c:	04030000 	streq	r0, [r3], #-0
    32a0:	00005605 	andeq	r5, r0, r5, lsl #12
    32a4:	05080300 	streq	r0, [r8, #-768]	; 0xfffffd00
    32a8:	00000051 	andeq	r0, r0, r1, asr r0
    32ac:	c1080103 	tstgt	r8, r3, lsl #2
    32b0:	03000000 	movweq	r0, #0
    32b4:	01520702 	cmpeq	r2, r2, lsl #14
    32b8:	04030000 	streq	r0, [r3], #-0
    32bc:	00012607 	andeq	r2, r1, r7, lsl #12
    32c0:	07080300 	streq	r0, [r8, -r0, lsl #6]
    32c4:	00000121 	andeq	r0, r0, r1, lsr #2
    32c8:	00002504 	andeq	r2, r0, r4, lsl #10
    32cc:	00007a00 	andeq	r7, r0, r0, lsl #20
    32d0:	00250500 	eoreq	r0, r5, r0, lsl #10
    32d4:	06000000 	streq	r0, [r0], -r0
    32d8:	0000002b 	andeq	r0, r0, fp, lsr #32
    32dc:	860e1c02 	strhi	r1, [lr], -r2, lsl #24
    32e0:	07000000 	streq	r0, [r0, -r0]
    32e4:	00006b04 	andeq	r6, r0, r4, lsl #22
    32e8:	00250400 	eoreq	r0, r5, r0, lsl #8
    32ec:	009b0000 	addseq	r0, fp, r0
    32f0:	9b050000 	blls	1432f8 <__bss_end__+0x138510>
    32f4:	00000000 	andeq	r0, r0, r0
    32f8:	00a80407 	adceq	r0, r8, r7, lsl #8
    32fc:	01030000 	mrseq	r0, (UNDEF: 3)
    3300:	0000ca08 	andeq	ip, r0, r8, lsl #20
    3304:	00a10800 	adceq	r0, r1, r0, lsl #16
    3308:	1e060000 	cdpne	0, 0, cr0, cr6, cr0, {0}
    330c:	02000005 	andeq	r0, r0, #5, 0
    3310:	00b90e21 	adcseq	r0, r9, r1, lsr #28
    3314:	04070000 	streq	r0, [r7], #-0
    3318:	0000008c 	andeq	r0, r0, ip, lsl #1
    331c:	00065109 	andeq	r5, r6, r9, lsl #2
    3320:	06040100 	streq	r0, [r4], -r0, lsl #2
    3324:	00009724 	andeq	r9, r0, r4, lsr #14
    3328:	00000004 	andeq	r0, r0, r4
    332c:	7d009c01 	stcvc	12, cr9, [r0, #-4]
    3330:	04000002 	streq	r0, [r0], #-2
    3334:	00128300 	andseq	r8, r2, r0, lsl #6
    3338:	6a010400 	bvs	44340 <__bss_end__+0x39558>
    333c:	0c000001 	stceq	0, cr0, [r0], {1}
    3340:	000006bc 			; <UNDEFINED> instruction: 0x000006bc
    3344:	000004b6 			; <UNDEFINED> instruction: 0x000004b6
    3348:	000005c8 	andeq	r0, r0, r8, asr #11
    334c:	00000000 	andeq	r0, r0, r0
    3350:	00001c1e 	andeq	r1, r0, lr, lsl ip
    3354:	69050402 	stmdbvs	r5, {r1, sl}
    3358:	0300746e 	movweq	r7, #1134	; 0x46e
    335c:	00000025 	andeq	r0, r0, r5, lsr #32
    3360:	2b070404 	blcs	1c4378 <__bss_end__+0x1b9590>
    3364:	04000001 	streq	r0, [r0], #-1
    3368:	00c30601 	sbceq	r0, r3, r1, lsl #12
    336c:	02040000 	andeq	r0, r4, #0, 0
    3370:	00002105 	andeq	r2, r0, r5, lsl #2
    3374:	05040400 	streq	r0, [r4, #-1024]	; 0xfffffc00
    3378:	00000056 	andeq	r0, r0, r6, asr r0
    337c:	51050804 	tstpl	r5, r4, lsl #16
    3380:	04000000 	streq	r0, [r0], #-0
    3384:	00c10801 	sbceq	r0, r1, r1, lsl #16
    3388:	02040000 	andeq	r0, r4, #0, 0
    338c:	00015207 	andeq	r5, r1, r7, lsl #4
    3390:	07040400 	streq	r0, [r4, -r0, lsl #8]
    3394:	00000126 	andeq	r0, r0, r6, lsr #2
    3398:	21070804 	tstcs	r7, r4, lsl #16
    339c:	05000001 	streq	r0, [r0, #-1]
    33a0:	00000025 	andeq	r0, r0, r5, lsr #32
    33a4:	0000007f 	andeq	r0, r0, pc, ror r0
    33a8:	00002506 	andeq	r2, r0, r6, lsl #10
    33ac:	2b070000 	blcs	1c33b4 <__bss_end__+0x1b85cc>
    33b0:	02000000 	andeq	r0, r0, #0, 0
    33b4:	008b0e1c 	addeq	r0, fp, ip, lsl lr
    33b8:	04080000 	streq	r0, [r8], #-0
    33bc:	00000070 	andeq	r0, r0, r0, ror r0
    33c0:	00002505 	andeq	r2, r0, r5, lsl #10
    33c4:	0000a000 	andeq	sl, r0, r0
    33c8:	00a00600 	adceq	r0, r0, r0, lsl #12
    33cc:	08000000 	stmdaeq	r0, {}	; <UNPREDICTABLE>
    33d0:	0000ad04 	andeq	sl, r0, r4, lsl #26
    33d4:	08010400 	stmdaeq	r1, {sl}
    33d8:	000000ca 	andeq	r0, r0, sl, asr #1
    33dc:	0000a603 	andeq	sl, r0, r3, lsl #12
    33e0:	051e0700 	ldreq	r0, [lr, #-1792]	; 0xfffff900
    33e4:	21020000 	mrscs	r0, (UNDEF: 2)
    33e8:	0000be0e 	andeq	fp, r0, lr, lsl #28
    33ec:	91040800 	tstls	r4, r0, lsl #16
    33f0:	09000000 	stmdbeq	r0, {}	; <UNPREDICTABLE>
    33f4:	000006e0 	andeq	r0, r0, r0, ror #13
    33f8:	31110d01 	tstcc	r1, r1, lsl #26
    33fc:	0a000000 	beq	3404 <__code_start__-0x4bfc>
    3400:	000005fa 	strdeq	r0, [r0], -sl
    3404:	54061f01 	strpl	r1, [r6], #-3841	; 0xfffff0ff
    3408:	60000097 	mulvs	r0, r7, r0
    340c:	01000000 	mrseq	r0, (UNDEF: 0)
    3410:	0001d59c 	muleq	r1, ip, r5
    3414:	07040b00 	streq	r0, [r4, -r0, lsl #22]
    3418:	2c010000 	stccs	0, cr0, [r1], {-0}
    341c:	00002c0f 	andeq	r2, r0, pc, lsl #24
    3420:	10001c00 	andne	r1, r0, r0, lsl #24
    3424:	069f0b20 	ldreq	r0, [pc], r0, lsr #22
    3428:	2d010000 	stccs	0, cr0, [r1, #-0]
    342c:	00002c0f 	andeq	r2, r0, pc, lsl #24
    3430:	10002400 	andne	r2, r0, r0, lsl #8
    3434:	06d10b20 	ldrbeq	r0, [r1], r0, lsr #22
    3438:	2e010000 	cdpcs	0, 0, cr0, cr1, cr0, {0}
    343c:	00002c0f 	andeq	r2, r0, pc, lsl #24
    3440:	00000000 	andeq	r0, r0, r0
    3444:	06eb0c5a 	usateq	r0, #11, sl, asr #24
    3448:	2f010000 	svccs	0x00010000
    344c:	00002c0f 	andeq	r2, r0, pc, lsl #24
    3450:	ef0d2000 	svc	0x000d2000
    3454:	54000001 	strpl	r0, [r0], #-1
    3458:	02000097 	andeq	r0, r0, #151, 0	; 0x97
    345c:	000005b0 			; <UNDEFINED> instruction: 0x000005b0
    3460:	4c082001 	stcmi	0, cr2, [r8], {1}
    3464:	0e000001 	cdpeq	0, 0, cr0, cr0, cr1, {0}
    3468:	000005b0 			; <UNDEFINED> instruction: 0x000005b0
    346c:	0002000f 	andeq	r0, r2, pc
    3470:	00268f00 	eoreq	r8, r6, r0, lsl #30
    3474:	00268b00 	eoreq	r8, r6, r0, lsl #22
    3478:	10000000 	andne	r0, r0, r0
    347c:	000001d5 	ldrdeq	r0, [r0], -r5
    3480:	00009768 	andeq	r9, r0, r8, ror #14
    3484:	00976801 	addseq	r6, r7, r1, lsl #16
    3488:	00001000 	andeq	r1, r0, r0
    348c:	09210100 	stmdbeq	r1!, {r8}
    3490:	00000173 	andeq	r0, r0, r3, ror r1
    3494:	0001e20f 	andeq	lr, r1, pc, lsl #4
    3498:	0026b600 	eoreq	fp, r6, r0, lsl #12
    349c:	0026ae00 	eoreq	sl, r6, r0, lsl #28
    34a0:	7c110000 	ldcvc	0, cr0, [r1], {-0}
    34a4:	4f000097 	svcmi	0x00000097
    34a8:	11000002 	tstne	r0, r2
    34ac:	00009780 	andeq	r9, r0, r0, lsl #15
    34b0:	0000025c 	andeq	r0, r0, ip, asr r2
    34b4:	00978812 	addseq	r8, r7, r2, lsl r8
    34b8:	00026800 	andeq	r6, r2, r0, lsl #16
    34bc:	00019800 	andeq	r9, r1, r0, lsl #16
    34c0:	50011300 	andpl	r1, r1, r0, lsl #6
    34c4:	12003a01 	andne	r3, r0, #4096	; 0x1000
    34c8:	00009794 	muleq	r0, r4, r7
    34cc:	00000274 	andeq	r0, r0, r4, ror r2
    34d0:	000001b8 			; <UNDEFINED> instruction: 0x000001b8
    34d4:	05500113 	ldrbeq	r0, [r0, #-275]	; 0xfffffeed
    34d8:	1000240c 	andne	r2, r0, ip, lsl #8
    34dc:	51011320 	tstpl	r1, r0, lsr #6
    34e0:	00010c05 	andeq	r0, r1, r5, lsl #24
    34e4:	14005a00 	strne	r5, [r0], #-2560	; 0xfffff600
    34e8:	000097a0 	andeq	r9, r0, r0, lsr #15
    34ec:	00000274 	andeq	r0, r0, r4, ror r2
    34f0:	05500113 	ldrbeq	r0, [r0, #-275]	; 0xfffffeed
    34f4:	10001c0c 	andne	r1, r0, ip, lsl #24
    34f8:	51011320 	tstpl	r1, r0, lsr #6
    34fc:	00200c05 	eoreq	r0, r0, r5, lsl #24
    3500:	00005a00 	andeq	r5, r0, r0, lsl #20
    3504:	0006ad15 	andeq	sl, r6, r5, lsl sp
    3508:	06170100 	ldreq	r0, [r7], -r0, lsl #2
    350c:	0001ef01 	andeq	lr, r1, r1, lsl #30
    3510:	070c0900 	streq	r0, [ip, -r0, lsl #18]
    3514:	18010000 	stmdane	r1, {}	; <UNPREDICTABLE>
    3518:	0000310e 	andeq	r3, r0, lr, lsl #2
    351c:	dd160000 	ldcle	0, cr0, [r6, #-0]
    3520:	01000006 	tsteq	r0, r6
    3524:	0025050e 	eoreq	r0, r5, lr, lsl #10
    3528:	0d010000 	stceq	0, cr0, [r1, #-0]
    352c:	09000002 	stmdbeq	r0, {r1}
    3530:	0000070c 	andeq	r0, r0, ip, lsl #14
    3534:	310e0f01 	tstcc	lr, r1, lsl #30
    3538:	00000000 	andeq	r0, r0, r0
    353c:	0001ef17 	andeq	lr, r1, r7, lsl pc
    3540:	00972800 	addseq	r2, r7, r0, lsl #16
    3544:	00001800 	andeq	r1, r0, r0, lsl #16
    3548:	2e9c0100 	fmlcse	f0, f4, f0
    354c:	0f000002 	svceq	0x00000002
    3550:	00000200 	andeq	r0, r0, r0, lsl #4
    3554:	000026f3 	strdeq	r2, [r0], -r3
    3558:	000026ef 	andeq	r2, r0, pc, ror #13
    355c:	01d51700 	bicseq	r1, r5, r0, lsl #14
    3560:	97400000 	strbls	r0, [r0, -r0]
    3564:	00140000 	andseq	r0, r4, r0
    3568:	9c010000 	stcls	0, cr0, [r1], {-0}
    356c:	0000024f 	andeq	r0, r0, pc, asr #4
    3570:	0001e20f 	andeq	lr, r1, pc, lsl #4
    3574:	00271a00 	eoreq	r1, r7, r0, lsl #20
    3578:	00271200 	eoreq	r1, r7, r0, lsl #4
    357c:	90180000 	andsls	r0, r8, r0
    3580:	90000006 	andls	r0, r0, r6
    3584:	02000006 	andeq	r0, r0, #6, 0
    3588:	19060136 	stmdbne	r6, {r1, r2, r4, r5, r8}
    358c:	00000629 	andeq	r0, r0, r9, lsr #12
    3590:	00000629 	andeq	r0, r0, r9, lsr #12
    3594:	19064d02 	stmdbne	r6, {r1, r8, sl, fp, lr}
    3598:	00000605 	andeq	r0, r0, r5, lsl #12
    359c:	00000605 	andeq	r0, r0, r5, lsl #12
    35a0:	19065802 	stmdbne	r6, {r1, fp, ip, lr}
    35a4:	000006a7 	andeq	r0, r0, r7, lsr #13
    35a8:	000006a7 	andeq	r0, r0, r7, lsr #13
    35ac:	0006ad02 	andeq	sl, r6, r2, lsl #26
    35b0:	0000053f 	andeq	r0, r0, pc, lsr r5
    35b4:	14060004 	strne	r0, [r6], #-4
    35b8:	01040000 	mrseq	r0, (UNDEF: 4)
    35bc:	0000016a 	andeq	r0, r0, sl, ror #2
    35c0:	0007270c 	andeq	r2, r7, ip, lsl #14
    35c4:	0004b600 	andeq	fp, r4, r0, lsl #12
    35c8:	0097b400 	addseq	fp, r7, r0, lsl #8
    35cc:	00011c00 	andeq	r1, r1, r0, lsl #24
    35d0:	001d3600 	andseq	r3, sp, r0, lsl #12
    35d4:	05040200 	streq	r0, [r4, #-512]	; 0xfffffe00
    35d8:	00746e69 	rsbseq	r6, r4, r9, ror #28
    35dc:	2b070403 	blcs	1c45f0 <__bss_end__+0x1b9808>
    35e0:	03000001 	movweq	r0, #1
    35e4:	00c30601 	sbceq	r0, r3, r1, lsl #12
    35e8:	02030000 	andeq	r0, r3, #0, 0
    35ec:	00002105 	andeq	r2, r0, r5, lsl #2
    35f0:	05040300 	streq	r0, [r4, #-768]	; 0xfffffd00
    35f4:	00000056 	andeq	r0, r0, r6, asr r0
    35f8:	51050803 	tstpl	r5, r3, lsl #16
    35fc:	03000000 	movweq	r0, #0
    3600:	00c10801 	sbceq	r0, r1, r1, lsl #16
    3604:	02030000 	andeq	r0, r3, #0, 0
    3608:	00015207 	andeq	r5, r1, r7, lsl #4
    360c:	07040300 	streq	r0, [r4, -r0, lsl #6]
    3610:	00000126 	andeq	r0, r0, r6, lsr #2
    3614:	21070803 	tstcs	r7, r3, lsl #16
    3618:	04000001 	streq	r0, [r0], #-1
    361c:	00000025 	andeq	r0, r0, r5, lsr #32
    3620:	0000007a 	andeq	r0, r0, sl, ror r0
    3624:	00002505 	andeq	r2, r0, r5, lsl #10
    3628:	2b060000 	blcs	183630 <__bss_end__+0x178848>
    362c:	02000000 	andeq	r0, r0, #0, 0
    3630:	00860e1c 	addeq	r0, r6, ip, lsl lr
    3634:	04070000 	streq	r0, [r7], #-0
    3638:	0000006b 	andeq	r0, r0, fp, rrx
    363c:	00002504 	andeq	r2, r0, r4, lsl #10
    3640:	00009b00 	andeq	r9, r0, r0, lsl #22
    3644:	009b0500 	addseq	r0, fp, r0, lsl #10
    3648:	07000000 	streq	r0, [r0, -r0]
    364c:	0000a804 	andeq	sl, r0, r4, lsl #16
    3650:	08010300 	stmdaeq	r1, {r8, r9}
    3654:	000000ca 	andeq	r0, r0, sl, asr #1
    3658:	0000a108 	andeq	sl, r0, r8, lsl #2
    365c:	051e0600 	ldreq	r0, [lr, #-1536]	; 0xfffffa00
    3660:	21020000 	mrscs	r0, (UNDEF: 2)
    3664:	0000b90e 	andeq	fp, r0, lr, lsl #18
    3668:	8c040700 	stchi	7, cr0, [r4], {-0}
    366c:	09000000 	stmdbeq	r0, {}	; <UNPREDICTABLE>
    3670:	0000071d 	andeq	r0, r0, sp, lsl r7
    3674:	7c061e01 	stcvc	14, cr1, [r6], {1}
    3678:	54000098 	strpl	r0, [r0], #-152	; 0xffffff68
    367c:	01000000 	mrseq	r0, (UNDEF: 0)
    3680:	00020b9c 	muleq	r2, ip, fp
    3684:	65730a00 	ldrbvs	r0, [r3, #-2560]!	; 0xfffff600
    3688:	1e010063 	cdpne	0, 0, cr0, cr1, cr3, {3}
    368c:	00002c19 	andeq	r2, r0, r9, lsl ip
    3690:	00275700 	eoreq	r5, r7, r0, lsl #14
    3694:	00275300 	eoreq	r5, r7, r0, lsl #6
    3698:	020b0b00 	andeq	r0, fp, #0, 22
    369c:	987c0000 	ldmdals	ip!, {}^	; <UNPREDICTABLE>
    36a0:	90020000 	andls	r0, r2, r0
    36a4:	01000006 	tsteq	r0, r6
    36a8:	180c051f 	stmdane	ip, {r0, r1, r2, r3, r4, r8, sl}
    36ac:	7c000002 	stcvc	0, cr0, [r0], {2}
    36b0:	78000027 	stmdavc	r0, {r0, r1, r2, r5}
    36b4:	0d000027 	stceq	0, cr0, [r0, #-156]	; 0xffffff64
    36b8:	00000224 	andeq	r0, r0, r4, lsr #4
    36bc:	00009890 	muleq	r0, r0, r8
    36c0:	00989000 	addseq	r9, r8, r0
    36c4:	00004000 	andeq	r4, r0, r0
    36c8:	051c0100 	ldreq	r0, [ip, #-256]	; 0xffffff00
    36cc:	0002310c 	andeq	r3, r2, ip, lsl #2
    36d0:	0027a900 	eoreq	sl, r7, r0, lsl #18
    36d4:	0027a700 	eoreq	sl, r7, r0, lsl #14
    36d8:	023c0e00 	eorseq	r0, ip, #0, 28
    36dc:	27be0000 	ldrcs	r0, [lr, r0]!
    36e0:	27bc0000 	ldrcs	r0, [ip, r0]!
    36e4:	550f0000 	strpl	r0, [pc, #-0]	; 36ec <__code_start__-0x4914>
    36e8:	90000002 	andls	r0, r0, r2
    36ec:	02000098 	andeq	r0, r0, #152, 0	; 0x98
    36f0:	00009890 	muleq	r0, r0, r8
    36f4:	00000014 	andeq	r0, r0, r4, lsl r0
    36f8:	9c131301 	ldcls	3, cr1, [r3], {1}
    36fc:	0e000001 	cdpeq	0, 0, cr0, cr0, cr1, {0}
    3700:	00000266 	andeq	r0, r0, r6, ror #4
    3704:	000027d5 	ldrdeq	r2, [r0], -r5
    3708:	000027d1 	ldrdeq	r2, [r0], -r1
    370c:	0002710f 	andeq	r7, r2, pc, lsl #2
    3710:	00989400 	addseq	r9, r8, r0, lsl #8
    3714:	98940100 	ldmls	r4, {r8}
    3718:	000c0000 	andeq	r0, ip, r0
    371c:	0d010000 	stceq	0, cr0, [r1, #-0]
    3720:	00018912 	andeq	r8, r1, r2, lsl r9
    3724:	989c1000 	ldmls	ip, {ip}
    3728:	052a0000 	streq	r0, [sl, #-0]!
    372c:	01110000 	tsteq	r1, r0
    3730:	040c0550 	streq	r0, [ip], #-1360	; 0xfffffab0
    3734:	00200030 	eoreq	r0, r0, r0, lsr r0
    3738:	98941200 	ldmls	r4, {r9, ip}
    373c:	05360000 	ldreq	r0, [r6, #-0]!
    3740:	a4120000 	ldrge	r0, [r2], #-0
    3744:	36000098 			; <UNDEFINED> instruction: 0x36000098
    3748:	00000005 	andeq	r0, r0, r5
    374c:	00024713 	andeq	r4, r2, r3, lsl r7
    3750:	0006a800 	andeq	sl, r6, r0, lsl #16
    3754:	02481400 	subeq	r1, r8, #0, 8
    3758:	550b0000 	strpl	r0, [fp, #-0]
    375c:	a8000002 	stmdage	r0, {r1}
    3760:	02000098 	andeq	r0, r0, #152, 0	; 0x98
    3764:	000006c0 	andeq	r0, r0, r0, asr #13
    3768:	15171501 	ldrne	r1, [r7, #-1281]	; 0xfffffaff
    376c:	000006c0 	andeq	r0, r0, r0, asr #13
    3770:	0002660e 	andeq	r6, r2, lr, lsl #12
    3774:	0027f500 	eoreq	pc, r7, r0, lsl #10
    3778:	0027f300 	eoreq	pc, r7, r0, lsl #6
    377c:	02711600 	rsbseq	r1, r1, #0, 12
    3780:	98ac0000 	stmials	ip!, {}	; <UNPREDICTABLE>
    3784:	e0010000 	and	r0, r1, r0
    3788:	01000006 	tsteq	r0, r6
    378c:	01f3120d 	mvnseq	r1, sp, lsl #4
    3790:	b4100000 	ldrlt	r0, [r0], #-0
    3794:	2a000098 	bcs	39fc <__code_start__-0x4604>
    3798:	11000005 	tstne	r0, r5
    379c:	77025001 	strvc	r5, [r2, -r1]
    37a0:	12000000 	andne	r0, r0, #0, 0
    37a4:	000098ac 	andeq	r9, r0, ip, lsr #17
    37a8:	00000536 	andeq	r0, r0, r6, lsr r5
    37ac:	0098c012 	addseq	ip, r8, r2, lsl r0
    37b0:	00053600 	andeq	r3, r5, r0, lsl #12
    37b4:	00000000 	andeq	r0, r0, r0
    37b8:	17000000 	strne	r0, [r0, -r0]
    37bc:	00000605 	andeq	r0, r0, r5, lsl #12
    37c0:	01061b01 	tsteq	r6, r1, lsl #22
    37c4:	00000224 	andeq	r0, r0, r4, lsr #4
    37c8:	00736d18 	rsbseq	r6, r3, r8, lsl sp
    37cc:	2c181b01 			; <UNDEFINED> instruction: 0x2c181b01
    37d0:	00000000 	andeq	r0, r0, r0
    37d4:	00075017 	andeq	r5, r7, r7, lsl r0
    37d8:	06120100 	ldreq	r0, [r2], -r0, lsl #2
    37dc:	00025501 	andeq	r5, r2, r1, lsl #10
    37e0:	73751800 	cmnvc	r5, #0, 16
    37e4:	18120100 	ldmdane	r2, {r8}
    37e8:	0000002c 	andeq	r0, r0, ip, lsr #32
    37ec:	00627219 	rsbeq	r7, r2, r9, lsl r2
    37f0:	2c0e1301 	stccs	3, cr1, [lr], {1}
    37f4:	1a000000 	bne	37fc <__code_start__-0x4804>
    37f8:	00617219 	rsbeq	r7, r1, r9, lsl r2
    37fc:	2c121501 	cfldr32cs	mvfx1, [r2], {1}
    3800:	00000000 	andeq	r0, r0, r0
    3804:	07411b00 	strbeq	r1, [r1, -r0, lsl #22]
    3808:	09010000 	stmdbeq	r1, {}	; <UNPREDICTABLE>
    380c:	00002c0a 	andeq	r2, r0, sl, lsl #24
    3810:	02710100 	rsbseq	r0, r1, #0
    3814:	75190000 	ldrvc	r0, [r9, #-0]
    3818:	0e0d0100 	adfeqe	f0, f5, f0
    381c:	0000002c 	andeq	r0, r0, ip, lsr #32
    3820:	07591c00 	ldrbeq	r1, [r9, -r0, lsl #24]
    3824:	04010000 	streq	r0, [r1], #-0
    3828:	00002c0a 	andeq	r2, r0, sl, lsl #24
    382c:	711d0100 	tstvc	sp, r0, lsl #2
    3830:	b4000002 	strlt	r0, [r0], #-2
    3834:	0c000097 	stceq	0, cr0, [r0], {151}	; 0x97
    3838:	01000000 	mrseq	r0, (UNDEF: 0)
    383c:	0002a59c 	muleq	r2, ip, r5
    3840:	97bc1e00 	ldrls	r1, [ip, r0, lsl #28]!
    3844:	052a0000 	streq	r0, [sl, #-0]!
    3848:	01110000 	tsteq	r1, r0
    384c:	040c0550 	streq	r0, [ip], #-1360	; 0xfffffab0
    3850:	00200030 	eoreq	r0, r0, r0, lsr r0
    3854:	02551d00 	subseq	r1, r5, #0, 26
    3858:	97c00000 	strbls	r0, [r0, r0]
    385c:	00240000 	eoreq	r0, r4, r0
    3860:	9c010000 	stcls	0, cr0, [r1], {-0}
    3864:	00000305 	andeq	r0, r0, r5, lsl #6
    3868:	0002660e 	andeq	r6, r2, lr, lsl #12
    386c:	00280c00 	eoreq	r0, r8, r0, lsl #24
    3870:	00280800 	eoreq	r0, r8, r0, lsl #16
    3874:	02710f00 	rsbseq	r0, r1, #0, 30
    3878:	97c80000 	strbls	r0, [r8, r0]
    387c:	c8010000 	stmdagt	r1, {}	; <UNPREDICTABLE>
    3880:	0c000097 	stceq	0, cr0, [r0], {151}	; 0x97
    3884:	01000000 	mrseq	r0, (UNDEF: 0)
    3888:	02f2120d 	rscseq	r1, r2, #-805306368	; 0xd0000000
    388c:	d0100000 	andsle	r0, r0, r0
    3890:	2a000097 	bcs	3af4 <__code_start__-0x450c>
    3894:	11000005 	tstne	r0, r5
    3898:	0c055001 	stceq	0, cr5, [r5], {1}
    389c:	20003004 	andcs	r3, r0, r4
    38a0:	c8120000 	ldmdagt	r2, {}	; <UNPREDICTABLE>
    38a4:	36000097 			; <UNDEFINED> instruction: 0x36000097
    38a8:	12000005 	andne	r0, r0, #5, 0
    38ac:	000097d8 	ldrdeq	r9, [r0], -r8
    38b0:	00000536 	andeq	r0, r0, r6, lsr r5
    38b4:	02241d00 	eoreq	r1, r4, #0, 26
    38b8:	97e40000 	strbls	r0, [r4, r0]!
    38bc:	00480000 	subeq	r0, r8, r0
    38c0:	9c010000 	stcls	0, cr0, [r1], {-0}
    38c4:	00000407 	andeq	r0, r0, r7, lsl #8
    38c8:	0002310c 	andeq	r3, r2, ip, lsl #2
    38cc:	00282e00 	eoreq	r2, r8, r0, lsl #28
    38d0:	00282a00 	eoreq	r2, r8, r0, lsl #20
    38d4:	023c0e00 	eorseq	r0, ip, #0, 28
    38d8:	284e0000 	stmdacs	lr, {}^	; <UNPREDICTABLE>
    38dc:	284c0000 	stmdacs	ip, {}^	; <UNPREDICTABLE>
    38e0:	55160000 	ldrpl	r0, [r6, #-0]
    38e4:	e4000002 	str	r0, [r0], #-2
    38e8:	02000097 	andeq	r0, r0, #151, 0	; 0x97
    38ec:	000005d8 	ldrdeq	r0, [r0], -r8
    38f0:	9a131301 	bls	4c84fc <__bss_end__+0x4bd714>
    38f4:	15000003 	strne	r0, [r0, #-3]
    38f8:	000005d8 	ldrdeq	r0, [r0], -r8
    38fc:	0002660e 	andeq	r6, r2, lr, lsl #12
    3900:	00286500 	eoreq	r6, r8, r0, lsl #10
    3904:	00286100 	eoreq	r6, r8, r0, lsl #2
    3908:	02710f00 	rsbseq	r0, r1, #0, 30
    390c:	97f00000 	ldrbls	r0, [r0, r0]!
    3910:	f0010000 			; <UNDEFINED> instruction: 0xf0010000
    3914:	0c000097 	stceq	0, cr0, [r0], {151}	; 0x97
    3918:	01000000 	mrseq	r0, (UNDEF: 0)
    391c:	0386120d 	orreq	r1, r6, #-805306368	; 0xd0000000
    3920:	f8100000 			; <UNDEFINED> instruction: 0xf8100000
    3924:	2a000097 	bcs	3b88 <__code_start__-0x4478>
    3928:	11000005 	tstne	r0, r5
    392c:	0c055001 	stceq	0, cr5, [r5], {1}
    3930:	20003004 	andcs	r3, r0, r4
    3934:	f0120000 			; <UNDEFINED> instruction: 0xf0120000
    3938:	36000097 			; <UNDEFINED> instruction: 0x36000097
    393c:	12000005 	andne	r0, r0, #5, 0
    3940:	00009800 	andeq	r9, r0, r0, lsl #16
    3944:	00000536 	andeq	r0, r0, r6, lsr r5
    3948:	47130000 	ldrmi	r0, [r3, -r0]
    394c:	f0000002 			; <UNDEFINED> instruction: 0xf0000002
    3950:	14000005 	strne	r0, [r0], #-5
    3954:	00000248 	andeq	r0, r0, r8, asr #4
    3958:	0002550b 	andeq	r5, r2, fp, lsl #10
    395c:	00980400 	addseq	r0, r8, r0, lsl #8
    3960:	06080200 	streq	r0, [r8], -r0, lsl #4
    3964:	15010000 	strne	r0, [r1, #-0]
    3968:	06081517 			; <UNDEFINED> instruction: 0x06081517
    396c:	660e0000 	strvs	r0, [lr], -r0
    3970:	85000002 	strhi	r0, [r0, #-2]
    3974:	83000028 	movwhi	r0, #40	; 0x28
    3978:	16000028 	strne	r0, [r0], -r8, lsr #32
    397c:	00000271 	andeq	r0, r0, r1, ror r2
    3980:	00009808 	andeq	r9, r0, r8, lsl #16
    3984:	00062801 	andeq	r2, r6, r1, lsl #16
    3988:	120d0100 	andne	r0, sp, #0
    398c:	000003f1 	strdeq	r0, [r0], -r1
    3990:	00981010 	addseq	r1, r8, r0, lsl r0
    3994:	00052a00 	andeq	r2, r5, r0, lsl #20
    3998:	50011100 	andpl	r1, r1, r0, lsl #2
    399c:	00007702 	andeq	r7, r0, r2, lsl #14
    39a0:	98081200 	stmdals	r8, {r9, ip}
    39a4:	05360000 	ldreq	r0, [r6, #-0]!
    39a8:	1c120000 	ldcne	0, cr0, [r2], {-0}
    39ac:	36000098 			; <UNDEFINED> instruction: 0x36000098
    39b0:	00000005 	andeq	r0, r0, r5
    39b4:	1d000000 	stcne	0, cr0, [r0, #-0]
    39b8:	0000020b 	andeq	r0, r0, fp, lsl #4
    39bc:	0000982c 	andeq	r9, r0, ip, lsr #16
    39c0:	00000050 	andeq	r0, r0, r0, asr r0
    39c4:	052a9c01 	streq	r9, [sl, #-3073]!	; 0xfffff3ff
    39c8:	180c0000 	stmdane	ip, {}	; <UNPREDICTABLE>
    39cc:	9c000002 	stcls	0, cr0, [r0], {2}
    39d0:	98000028 	stmdals	r0, {r3, r5}
    39d4:	0d000028 	stceq	0, cr0, [r0, #-160]	; 0xffffff60
    39d8:	00000224 	andeq	r0, r0, r4, lsr #4
    39dc:	0000983c 	andeq	r9, r0, ip, lsr r8
    39e0:	00983c00 	addseq	r3, r8, r0, lsl #24
    39e4:	00004000 	andeq	r4, r0, r0
    39e8:	051c0100 	ldreq	r0, [ip, #-256]	; 0xffffff00
    39ec:	0002310c 	andeq	r3, r2, ip, lsl #2
    39f0:	0028bf00 	eoreq	fp, r8, r0, lsl #30
    39f4:	0028bd00 	eoreq	fp, r8, r0, lsl #26
    39f8:	023c0e00 	eorseq	r0, ip, #0, 28
    39fc:	28d40000 	ldmcs	r4, {}^	; <UNPREDICTABLE>
    3a00:	28d20000 	ldmcs	r2, {}^	; <UNPREDICTABLE>
    3a04:	550f0000 	strpl	r0, [pc, #-0]	; 3a0c <__code_start__-0x45f4>
    3a08:	3c000002 	stccc	0, cr0, [r0], {2}
    3a0c:	02000098 	andeq	r0, r0, #152, 0	; 0x98
    3a10:	0000983c 	andeq	r9, r0, ip, lsr r8
    3a14:	00000014 	andeq	r0, r0, r4, lsl r0
    3a18:	bc131301 	ldclt	3, cr1, [r3], {1}
    3a1c:	0e000004 	cdpeq	0, 0, cr0, cr0, cr4, {0}
    3a20:	00000266 	andeq	r0, r0, r6, ror #4
    3a24:	000028eb 	andeq	r2, r0, fp, ror #17
    3a28:	000028e7 	andeq	r2, r0, r7, ror #17
    3a2c:	0002710f 	andeq	r7, r2, pc, lsl #2
    3a30:	00984000 	addseq	r4, r8, r0
    3a34:	98400100 	stmdals	r0, {r8}^
    3a38:	000c0000 	andeq	r0, ip, r0
    3a3c:	0d010000 	stceq	0, cr0, [r1, #-0]
    3a40:	0004a912 	andeq	sl, r4, r2, lsl r9
    3a44:	98481000 	stmdals	r8, {ip}^
    3a48:	052a0000 	streq	r0, [sl, #-0]!
    3a4c:	01110000 	tsteq	r1, r0
    3a50:	040c0550 	streq	r0, [ip], #-1360	; 0xfffffab0
    3a54:	00200030 	eoreq	r0, r0, r0, lsr r0
    3a58:	98401200 	stmdals	r0, {r9, ip}^
    3a5c:	05360000 	ldreq	r0, [r6, #-0]!
    3a60:	50120000 	andspl	r0, r2, r0
    3a64:	36000098 			; <UNDEFINED> instruction: 0x36000098
    3a68:	00000005 	andeq	r0, r0, r5
    3a6c:	00024713 	andeq	r4, r2, r3, lsl r7
    3a70:	00064000 	andeq	r4, r6, r0
    3a74:	02481400 	subeq	r1, r8, #0, 8
    3a78:	550b0000 	strpl	r0, [fp, #-0]
    3a7c:	54000002 	strpl	r0, [r0], #-2
    3a80:	02000098 	andeq	r0, r0, #152, 0	; 0x98
    3a84:	00000658 	andeq	r0, r0, r8, asr r6
    3a88:	15171501 	ldrne	r1, [r7, #-1281]	; 0xfffffaff
    3a8c:	00000658 	andeq	r0, r0, r8, asr r6
    3a90:	0002660e 	andeq	r6, r2, lr, lsl #12
    3a94:	00290b00 	eoreq	r0, r9, r0, lsl #22
    3a98:	00290900 	eoreq	r0, r9, r0, lsl #18
    3a9c:	02711600 	rsbseq	r1, r1, #0, 12
    3aa0:	98580000 	ldmdals	r8, {}^	; <UNPREDICTABLE>
    3aa4:	78010000 	stmdavc	r1, {}	; <UNPREDICTABLE>
    3aa8:	01000006 	tsteq	r0, r6
    3aac:	0513120d 	ldreq	r1, [r3, #-525]	; 0xfffffdf3
    3ab0:	60100000 	andsvs	r0, r0, r0
    3ab4:	2a000098 	bcs	3d1c <__code_start__-0x42e4>
    3ab8:	11000005 	tstne	r0, r5
    3abc:	77025001 	strvc	r5, [r2, -r1]
    3ac0:	12000000 	andne	r0, r0, #0, 0
    3ac4:	00009858 	andeq	r9, r0, r8, asr r8
    3ac8:	00000536 	andeq	r0, r0, r6, lsr r5
    3acc:	00986c12 	addseq	r6, r8, r2, lsl ip
    3ad0:	00053600 	andeq	r3, r5, r0, lsl #12
    3ad4:	00000000 	andeq	r0, r0, r0
    3ad8:	3b1f0000 	blcc	7c3ae0 <__bss_end__+0x7b8cf8>
    3adc:	3b000007 	blcc	3b00 <__code_start__-0x4500>
    3ae0:	02000007 	andeq	r0, r0, #7, 0
    3ae4:	111f0ac2 	tstne	pc, r2, asr #21
    3ae8:	11000007 	tstne	r0, r7
    3aec:	02000007 	andeq	r0, r0, #7, 0
    3af0:	cd00069c 	stcgt	6, cr0, [r0, #-624]	; 0xfffffd90
    3af4:	04000005 	streq	r0, [r0], #-5
    3af8:	0015d500 	andseq	sp, r5, r0, lsl #10
    3afc:	6c010400 	cfstrsvs	mvf0, [r1], {-0}
    3b00:	0c000008 	stceq	0, cr0, [r0], {8}
    3b04:	000007ab 	andeq	r0, r0, fp, lsr #15
    3b08:	0000081c 	andeq	r0, r0, ip, lsl r8
    3b0c:	000098d0 	ldrdeq	r9, [r0], -r0
    3b10:	000001f0 	strdeq	r0, [r0], -r0	; <UNPREDICTABLE>
    3b14:	00001f34 	andeq	r1, r0, r4, lsr pc
    3b18:	69050402 	stmdbvs	r5, {r1, sl}
    3b1c:	0300746e 	movweq	r7, #1134	; 0x46e
    3b20:	012b0704 			; <UNDEFINED> instruction: 0x012b0704
    3b24:	2c040000 	stccs	0, cr0, [r4], {-0}
    3b28:	03000000 	movweq	r0, #0
    3b2c:	00c30601 	sbceq	r0, r3, r1, lsl #12
    3b30:	02030000 	andeq	r0, r3, #0, 0
    3b34:	00002105 	andeq	r2, r0, r5, lsl #2
    3b38:	05040300 	streq	r0, [r4, #-768]	; 0xfffffd00
    3b3c:	00000056 	andeq	r0, r0, r6, asr r0
    3b40:	51050803 	tstpl	r5, r3, lsl #16
    3b44:	03000000 	movweq	r0, #0
    3b48:	00c10801 	sbceq	r0, r1, r1, lsl #16
    3b4c:	02030000 	andeq	r0, r3, #0, 0
    3b50:	00015207 	andeq	r5, r1, r7, lsl #4
    3b54:	01380500 	teqeq	r8, r0, lsl #10
    3b58:	34050000 	strcc	r0, [r5], #-0
    3b5c:	00006e19 	andeq	r6, r0, r9, lsl lr
    3b60:	07040300 	streq	r0, [r4, -r0, lsl #6]
    3b64:	00000126 	andeq	r0, r0, r6, lsr #2
    3b68:	21070803 	tstcs	r7, r3, lsl #16
    3b6c:	03000001 	movweq	r0, #1
    3b70:	00ca0801 	sbceq	r0, sl, r1, lsl #16
    3b74:	07060000 	streq	r0, [r6, -r0]
    3b78:	00005401 	andeq	r5, r0, r1, lsl #8
    3b7c:	0e0c0400 	cfcpyseq	mvf0, mvf12
    3b80:	000000c2 	andeq	r0, r0, r2, asr #1
    3b84:	00095607 	andeq	r5, r9, r7, lsl #12
    3b88:	8e070000 	cdphi	0, 0, cr0, cr7, cr0, {0}
    3b8c:	01000007 	tsteq	r0, r7
    3b90:	0007d107 	andeq	sp, r7, r7, lsl #2
    3b94:	e0070400 	and	r0, r7, r0, lsl #8
    3b98:	05000007 	streq	r0, [r0, #-7]
    3b9c:	0007ef07 	andeq	lr, r7, r7, lsl #30
    3ba0:	fe070600 	cdp2	6, 0, cr0, cr7, cr0, {0}
    3ba4:	07000007 	streq	r0, [r0, -r7]
    3ba8:	00091f07 	andeq	r1, r9, r7, lsl #30
    3bac:	0d070300 	stceq	3, cr0, [r7, #-0]
    3bb0:	02000008 	andeq	r0, r0, #8, 0
    3bb4:	079f0800 	ldreq	r0, [pc, r0, lsl #16]
    3bb8:	022c0000 	eoreq	r0, ip, #0, 0
    3bbc:	015e0806 	cmpeq	lr, r6, lsl #16
    3bc0:	69090000 	stmdbvs	r9, {}	; <UNPREDICTABLE>
    3bc4:	0902006f 	stmdbeq	r2, {r0, r1, r2, r3, r5, r6}
    3bc8:	00003309 	andeq	r3, r0, r9, lsl #6
    3bcc:	69090000 	stmdbvs	r9, {}	; <UNPREDICTABLE>
    3bd0:	02007265 	andeq	r7, r0, #1342177286	; 0x50000006
    3bd4:	0033090a 	eorseq	r0, r3, sl, lsl #18
    3bd8:	09040000 	stmdbeq	r4, {}	; <UNPREDICTABLE>
    3bdc:	00726969 	rsbseq	r6, r2, r9, ror #18
    3be0:	33091102 	movwcc	r1, #37122	; 0x9102
    3be4:	08000000 	stmdaeq	r0, {}	; <UNPREDICTABLE>
    3be8:	72636c09 	rsbvc	r6, r3, #2304	; 0x900
    3bec:	09130200 	ldmdbeq	r3, {r9}
    3bf0:	00000033 	andeq	r0, r0, r3, lsr r0
    3bf4:	636d090c 	cmnvs	sp, #12, 18	; 0x30000
    3bf8:	14020072 	strne	r0, [r2], #-114	; 0xffffff8e
    3bfc:	00003309 	andeq	r3, r0, r9, lsl #6
    3c00:	6c091000 	stcvs	0, cr1, [r9], {-0}
    3c04:	02007273 	andeq	r7, r0, #805306375	; 0x30000007
    3c08:	00330915 	eorseq	r0, r3, r5, lsl r9
    3c0c:	09140000 	ldmdbeq	r4, {}	; <UNPREDICTABLE>
    3c10:	0072736d 	rsbseq	r7, r2, sp, ror #6
    3c14:	33091602 	movwcc	r1, #38402	; 0x9602
    3c18:	18000000 	stmdane	r0, {}	; <UNPREDICTABLE>
    3c1c:	0009360a 	andeq	r3, r9, sl, lsl #12
    3c20:	09170200 	ldmdbeq	r7, {r9}
    3c24:	00000033 	andeq	r0, r0, r3, lsr r0
    3c28:	08ff0a1c 	ldmeq	pc!, {r2, r3, r4, r9, fp}^	; <UNPREDICTABLE>
    3c2c:	1b020000 	blne	83c34 <__bss_end__+0x78e4c>
    3c30:	00003309 	andeq	r3, r0, r9, lsl #6
    3c34:	7b0a2000 	blvc	28bc3c <__bss_end__+0x280e54>
    3c38:	02000007 	andeq	r0, r0, #7, 0
    3c3c:	0033091d 	eorseq	r0, r3, sp, lsl r9
    3c40:	0a240000 	beq	903c48 <__bss_end__+0x8f8e60>
    3c44:	00000851 	andeq	r0, r0, r1, asr r8
    3c48:	33091e02 	movwcc	r1, #40450	; 0x9e02
    3c4c:	28000000 	stmdacs	r0, {}	; <UNPREDICTABLE>
    3c50:	08560b00 	ldmdaeq	r6, {r8, r9, fp}^
    3c54:	08010000 	stmdaeq	r1, {}	; <UNPREDICTABLE>
    3c58:	00017409 	andeq	r7, r1, r9, lsl #8
    3c5c:	21500400 	cmpcs	r0, r0, lsl #8
    3c60:	33040c20 	movwcc	r0, #19488	; 0x4c20
    3c64:	0d000000 	stceq	0, cr0, [r0, #-0]
    3c68:	0000016e 	andeq	r0, r0, lr, ror #2
    3c6c:	00093e0b 	andeq	r3, r9, fp, lsl #28
    3c70:	23290100 			; <UNDEFINED> instruction: 0x23290100
    3c74:	0000018f 	andeq	r0, r0, pc, lsl #3
    3c78:	20215040 	eorcs	r5, r1, r0, asr #32
    3c7c:	00c2040c 	sbceq	r0, r2, ip, lsl #8
    3c80:	890d0000 	stmdbhi	sp, {}	; <UNPREDICTABLE>
    3c84:	0e000001 	cdpeq	0, 0, cr0, cr0, cr1, {0}
    3c88:	00000629 	andeq	r0, r0, r9, lsr #12
    3c8c:	8806cc01 	stmdahi	r6, {r0, sl, fp, lr, pc}
    3c90:	1400009a 	strne	r0, [r0], #-154	; 0xffffff66
    3c94:	01000000 	mrseq	r0, (UNDEF: 0)
    3c98:	0001b49c 	muleq	r1, ip, r4
    3c9c:	9a900f00 	bls	fe4078a4 <__bss_end__+0xfe3fcabc>
    3ca0:	01b40000 			; <UNDEFINED> instruction: 0x01b40000
    3ca4:	10000000 	andne	r0, r0, r0
    3ca8:	000007c0 	andeq	r0, r0, r0, asr #15
    3cac:	2505b601 	strcs	fp, [r5, #-1537]	; 0xfffff9ff
    3cb0:	68000000 	stmdavs	r0, {}	; <UNPREDICTABLE>
    3cb4:	2000009a 	mulcs	r0, sl, r0
    3cb8:	01000000 	mrseq	r0, (UNDEF: 0)
    3cbc:	0001eb9c 	muleq	r1, ip, fp
    3cc0:	9a700f00 	bls	1c078c8 <__bss_end__+0x1bfcae0>
    3cc4:	05a00000 	streq	r0, [r0, #0]!
    3cc8:	78110000 	ldmdavc	r1, {}	; <UNPREDICTABLE>
    3ccc:	ac00009a 	stcge	0, cr0, [r0], {154}	; 0x9a
    3cd0:	12000005 	andne	r0, r0, #5, 0
    3cd4:	0c055001 	stceq	0, cr5, [r5], {1}
    3cd8:	20215064 	eorcs	r5, r1, r4, rrx
    3cdc:	11100000 	tstne	r0, r0
    3ce0:	01000009 	tsteq	r0, r9
    3ce4:	002505b3 	strhteq	r0, [r5], -r3
    3ce8:	9a580000 	bls	1603cf0 <__bss_end__+0x15f8f08>
    3cec:	00100000 	andseq	r0, r0, r0
    3cf0:	9c010000 	stcls	0, cr0, [r1], {-0}
    3cf4:	00000218 	andeq	r0, r0, r8, lsl r2
    3cf8:	009a600f 	addseq	r6, sl, pc
    3cfc:	0005a000 	andeq	sl, r5, r0
    3d00:	9a640f00 	bls	1907908 <__bss_end__+0x18fcb20>
    3d04:	03090000 	movweq	r0, #36864	; 0x9000
    3d08:	0e000000 	cdpeq	0, 0, cr0, cr0, cr0, {0}
    3d0c:	0000094c 	andeq	r0, r0, ip, asr #18
    3d10:	2806ab01 	stmdacs	r6, {r0, r8, r9, fp, sp, pc}
    3d14:	3000009a 	mulcc	r0, sl, r0
    3d18:	01000000 	mrseq	r0, (UNDEF: 0)
    3d1c:	00027c9c 	muleq	r2, ip, ip
    3d20:	00631300 	rsbeq	r1, r3, r0, lsl #6
    3d24:	2c19ab01 			; <UNDEFINED> instruction: 0x2c19ab01
    3d28:	22000000 	andcs	r0, r0, #0, 0
    3d2c:	1e000029 	cdpne	0, 0, cr0, cr0, cr9, {1}
    3d30:	0f000029 	svceq	0x00000029
    3d34:	00009a34 	andeq	r9, r0, r4, lsr sl
    3d38:	000005a0 	andeq	r0, r0, r0, lsr #11
    3d3c:	009a380f 	addseq	r3, sl, pc, lsl #16
    3d40:	0002db00 	andeq	sp, r2, r0, lsl #22
    3d44:	9a4c1400 	bls	1308d4c <__bss_end__+0x12fdf64>
    3d48:	05b80000 	ldreq	r0, [r8, #0]!
    3d4c:	02720000 	rsbseq	r0, r2, #0, 0
    3d50:	01120000 	tsteq	r2, r0
    3d54:	400c0550 	andmi	r0, ip, r0, asr r5
    3d58:	12202150 	eorne	r2, r0, #20
    3d5c:	74055101 	strvc	r5, [r5], #-257	; 0xfffffeff
    3d60:	1aff0800 	bne	fffc5d68 <__bss_end__+0xfffbaf80>
    3d64:	9a500f00 	bls	140796c <__bss_end__+0x13fcb84>
    3d68:	05a00000 	streq	r0, [r0, #0]!
    3d6c:	10000000 	andne	r0, r0, r0
    3d70:	00000862 	andeq	r0, r0, r2, ror #16
    3d74:	2505a301 	strcs	sl, [r5, #-769]	; 0xfffffcff
    3d78:	f8000000 			; <UNDEFINED> instruction: 0xf8000000
    3d7c:	30000099 	mulcc	r0, r9, r0
    3d80:	01000000 	mrseq	r0, (UNDEF: 0)
    3d84:	0002db9c 	muleq	r2, ip, fp
    3d88:	00631500 	rsbeq	r1, r3, r0, lsl #10
    3d8c:	2509a701 	strcs	sl, [r9, #-1793]	; 0xfffff8ff
    3d90:	42000000 	andmi	r0, r0, #0, 0
    3d94:	40000029 	andmi	r0, r0, r9, lsr #32
    3d98:	0f000029 	svceq	0x00000029
    3d9c:	00009a00 	andeq	r9, r0, r0, lsl #20
    3da0:	000005a0 	andeq	r0, r0, r0, lsr #11
    3da4:	009a040f 	addseq	r0, sl, pc, lsl #8
    3da8:	00030900 	andeq	r0, r3, r0, lsl #18
    3dac:	9a141400 	bls	508db4 <__bss_end__+0x4fdfcc>
    3db0:	05ac0000 	streq	r0, [ip, #0]!
    3db4:	02d10000 	sbcseq	r0, r1, #0, 0
    3db8:	01120000 	tsteq	r2, r0
    3dbc:	400c0550 	andmi	r0, ip, r0, asr r5
    3dc0:	00202150 	eoreq	r2, r0, r0, asr r1
    3dc4:	009a1c0f 	addseq	r1, sl, pc, lsl #24
    3dc8:	0005a000 	andeq	sl, r5, r0
    3dcc:	b2100000 	andslt	r0, r0, #0, 0
    3dd0:	01000007 	tsteq	r0, r7
    3dd4:	00250594 	mlaeq	r5, r4, r5, r0
    3dd8:	99d80000 	ldmibls	r8, {}^	; <UNPREDICTABLE>
    3ddc:	00200000 	eoreq	r0, r0, r0
    3de0:	9c010000 	stcls	0, cr0, [r1], {-0}
    3de4:	00000309 	andeq	r0, r0, r9, lsl #6
    3de8:	0099e411 	addseq	lr, r9, r1, lsl r4
    3dec:	0005ac00 	andeq	sl, r5, r0, lsl #24
    3df0:	50011200 	andpl	r1, r1, r0, lsl #4
    3df4:	50640c05 	rsbpl	r0, r4, r5, lsl #24
    3df8:	00002021 	andeq	r2, r0, r1, lsr #32
    3dfc:	00078010 	andeq	r8, r7, r0, lsl r0
    3e00:	058b0100 	streq	r0, [fp, #256]	; 0x100
    3e04:	00000025 	andeq	r0, r0, r5, lsr #32
    3e08:	000099c0 	andeq	r9, r0, r0, asr #19
    3e0c:	00000018 	andeq	r0, r0, r8, lsl r0
    3e10:	03379c01 	teqeq	r7, #256	; 0x100
    3e14:	cc110000 	ldcgt	0, cr0, [r1], {-0}
    3e18:	ac000099 	stcge	0, cr0, [r0], {153}	; 0x99
    3e1c:	12000005 	andne	r0, r0, #5, 0
    3e20:	0c055001 	stceq	0, cr5, [r5], {1}
    3e24:	20215064 	eorcs	r5, r1, r4, rrx
    3e28:	470e0000 	strmi	r0, [lr, -r0]
    3e2c:	01000006 	tsteq	r0, r6
    3e30:	99100645 	ldmdbls	r0, {r0, r2, r6, r9, sl}
    3e34:	00b00000 	adcseq	r0, r0, r0
    3e38:	9c010000 	stcls	0, cr0, [r1], {-0}
    3e3c:	00000484 	andeq	r0, r0, r4, lsl #9
    3e40:	00077216 	andeq	r7, r7, r6, lsl r2
    3e44:	0e7e0100 	rpweqe	f0, f6, f0
    3e48:	00000062 	andeq	r0, r0, r2, rrx
    3e4c:	2014010e 	andscs	r0, r4, lr, lsl #2
    3e50:	c4000099 	strgt	r0, [r0], #-153	; 0xffffff67
    3e54:	73000005 	movwvc	r0, #5
    3e58:	12000003 	andne	r0, r0, #3, 0
    3e5c:	3e015001 	cdpcc	0, 0, cr5, cr1, cr1, {0}
    3e60:	01510112 	cmpeq	r1, r2, lsl r1
    3e64:	2c140032 	ldccs	0, cr0, [r4], {50}	; 0x32
    3e68:	c4000099 	strgt	r0, [r0], #-153	; 0xffffff67
    3e6c:	8b000005 	blhi	3e88 <__code_start__-0x4178>
    3e70:	12000003 	andne	r0, r0, #3, 0
    3e74:	3f015001 	svccc	0x00015001
    3e78:	01510112 	cmpeq	r1, r2, lsl r1
    3e7c:	300f0032 	andcc	r0, pc, r2, lsr r0	; <UNPREDICTABLE>
    3e80:	a0000099 	mulge	r0, r9, r0
    3e84:	14000005 	strne	r0, [r0], #-5
    3e88:	0000993c 	andeq	r9, r0, ip, lsr r9
    3e8c:	0000053d 	andeq	r0, r0, sp, lsr r5
    3e90:	000003b0 			; <UNDEFINED> instruction: 0x000003b0
    3e94:	05500112 	ldrbeq	r0, [r0, #-274]	; 0xfffffeee
    3e98:	2150040c 	cmpcs	r0, ip, lsl #8
    3e9c:	51011220 	tstpl	r1, r0, lsr #4
    3ea0:	0f003101 	svceq	0x00003101
    3ea4:	00009940 	andeq	r9, r0, r0, asr #18
    3ea8:	000005a0 	andeq	r0, r0, r0, lsr #11
    3eac:	00995014 	addseq	r5, r9, r4, lsl r0
    3eb0:	0005b800 	andeq	fp, r5, r0, lsl #16
    3eb4:	0003d200 	andeq	sp, r3, r0, lsl #4
    3eb8:	50011200 	andpl	r1, r1, r0, lsl #4
    3ebc:	12007402 	andne	r7, r0, #33554432	; 0x2000000
    3ec0:	30015101 	andcc	r5, r1, r1, lsl #2
    3ec4:	995c1400 	ldmdbls	ip, {sl, ip}^
    3ec8:	05b80000 	ldreq	r0, [r8, #0]!
    3ecc:	03ee0000 	mvneq	r0, #0, 0
    3ed0:	01120000 	tsteq	r2, r0
    3ed4:	440c0550 	strmi	r0, [ip], #-1360	; 0xfffffab0
    3ed8:	12202150 	eorne	r2, r0, #20
    3edc:	30015101 	andcc	r5, r1, r1, lsl #2
    3ee0:	99681400 	stmdbls	r8!, {sl, ip}^
    3ee4:	05b80000 	ldreq	r0, [r8, #0]!
    3ee8:	040a0000 	streq	r0, [sl], #-0
    3eec:	01120000 	tsteq	r2, r0
    3ef0:	4c0c0550 	cfstr32mi	mvfx0, [ip], {80}	; 0x50
    3ef4:	12202150 	eorne	r2, r0, #20
    3ef8:	33015101 	movwcc	r5, #4353	; 0x1101
    3efc:	99741400 	ldmdbls	r4!, {sl, ip}^
    3f00:	05b80000 	ldreq	r0, [r8, #0]!
    3f04:	04260000 	strteq	r0, [r6], #-0
    3f08:	01120000 	tsteq	r2, r0
    3f0c:	500c0550 	andpl	r0, ip, r0, asr r5
    3f10:	12202150 	eorne	r2, r0, #20
    3f14:	30015101 	andcc	r5, r1, r1, lsl #2
    3f18:	99801400 	stmibls	r0, {sl, ip}
    3f1c:	05b80000 	ldreq	r0, [r8, #0]!
    3f20:	04430000 	strbeq	r0, [r3], #-0
    3f24:	01120000 	tsteq	r2, r0
    3f28:	480c0550 	stmdami	ip, {r4, r6, r8, sl}
    3f2c:	12202150 	eorne	r2, r0, #20
    3f30:	08025101 	stmdaeq	r2, {r0, r8, ip, lr}
    3f34:	8c1400c7 	ldchi	0, cr0, [r4], {199}	; 0xc7
    3f38:	b8000099 	stmdalt	r0, {r0, r3, r4, r7}
    3f3c:	61000005 	tstvs	r0, r5
    3f40:	12000004 	andne	r0, r0, #4, 0
    3f44:	0c055001 	stceq	0, cr5, [r5], {1}
    3f48:	20215068 	eorcs	r5, r1, r8, rrx
    3f4c:	03510112 	cmpeq	r1, #-2147483644	; 0x80000004
    3f50:	00010e0a 	andeq	r0, r1, sl, lsl #28
    3f54:	00999814 	addseq	r9, r9, r4, lsl r8
    3f58:	0005b800 	andeq	fp, r5, r0, lsl #16
    3f5c:	00047a00 	andeq	r7, r4, r0, lsl #20
    3f60:	50011200 	andpl	r1, r1, r0, lsl #4
    3f64:	12007402 	andne	r7, r0, #33554432	; 0x2000000
    3f68:	33015101 	movwcc	r5, #4353	; 0x1101
    3f6c:	999c0f00 	ldmibls	ip, {r8, r9, sl, fp}
    3f70:	05a00000 	streq	r0, [r0, #0]!
    3f74:	0e000000 	cdpeq	0, 0, cr0, cr0, cr0, {0}
    3f78:	00000904 	andeq	r0, r0, r4, lsl #18
    3f7c:	9c063501 	cfstr32ls	mvfx3, [r6], {1}
    3f80:	2400009a 	strcs	r0, [r0], #-154	; 0xffffff66
    3f84:	01000000 	mrseq	r0, (UNDEF: 0)
    3f88:	0004d39c 	muleq	r4, ip, r3
    3f8c:	9aa40f00 	bls	fe907b94 <__bss_end__+0xfe8fcdac>
    3f90:	01940000 	orrseq	r0, r4, r0
    3f94:	a80f0000 	stmdage	pc, {}	; <UNPREDICTABLE>
    3f98:	a000009a 	mulge	r0, sl, r0
    3f9c:	14000005 	strne	r0, [r0], #-5
    3fa0:	00009ab4 			; <UNDEFINED> instruction: 0x00009ab4
    3fa4:	000004d3 	ldrdeq	r0, [r0], -r3
    3fa8:	000004c9 	andeq	r0, r0, r9, asr #9
    3fac:	05500112 	ldrbeq	r0, [r0, #-274]	; 0xfffffeee
    3fb0:	2150040c 	cmpcs	r0, ip, lsl #8
    3fb4:	51011220 	tstpl	r1, r0, lsr #4
    3fb8:	00fe0902 	rscseq	r0, lr, r2, lsl #18
    3fbc:	009ab80f 	addseq	fp, sl, pc, lsl #16
    3fc0:	0005a000 	andeq	sl, r5, r0
    3fc4:	43170000 	tstmi	r7, #0, 0
    3fc8:	01000009 	tsteq	r0, r9
    3fcc:	98d00d31 	ldmls	r0, {r0, r4, r5, r8, sl, fp}^
    3fd0:	00200000 	eoreq	r0, r0, r0
    3fd4:	9c010000 	stcls	0, cr0, [r1], {-0}
    3fd8:	00000536 	andeq	r0, r0, r6, lsr r5
    3fdc:	00099d18 	andeq	r9, r9, r8, lsl sp
    3fe0:	25310100 	ldrcs	r0, [r1, #-256]!	; 0xffffff00
    3fe4:	00000536 	andeq	r0, r0, r6, lsr r5
    3fe8:	00002959 	andeq	r2, r0, r9, asr r9
    3fec:	00002955 	andeq	r2, r0, r5, asr r9
    3ff0:	6c617613 	stclvs	6, cr7, [r1], #-76	; 0xffffffb4
    3ff4:	34310100 	ldrtcc	r0, [r1], #-256	; 0xffffff00
    3ff8:	0000002c 	andeq	r0, r0, ip, lsr #32
    3ffc:	0000297b 	andeq	r2, r0, fp, ror r9
    4000:	00002977 	andeq	r2, r0, r7, ror r9
    4004:	0098e014 	addseq	lr, r8, r4, lsl r0
    4008:	0005ac00 	andeq	sl, r5, r0, lsl #24
    400c:	00052500 	andeq	r2, r5, r0, lsl #10
    4010:	50011200 	andpl	r1, r1, r0, lsl #4
    4014:	00007402 	andeq	r7, r0, r2, lsl #8
    4018:	0098ec11 	addseq	lr, r8, r1, lsl ip
    401c:	0005b800 	andeq	fp, r5, r0, lsl #16
    4020:	50011200 	andpl	r1, r1, r0, lsl #4
    4024:	00007402 	andeq	r7, r0, r2, lsl #8
    4028:	3c040c00 	stccc	12, cr0, [r4], {-0}
    402c:	19000005 	stmdbne	r0, {r0, r2}
    4030:	00092e17 	andeq	r2, r9, r7, lsl lr
    4034:	0d2e0100 	stfeqs	f0, [lr, #-0]
    4038:	000098f0 	strdeq	r9, [r0], -r0
    403c:	00000020 	andeq	r0, r0, r0, lsr #32
    4040:	05a09c01 	streq	r9, [r0, #3073]!	; 0xc01
    4044:	9d180000 	ldcls	0, cr0, [r8, #-0]
    4048:	01000009 	tsteq	r0, r9
    404c:	0536242e 	ldreq	r2, [r6, #-1070]!	; 0xfffffbd2
    4050:	299d0000 	ldmibcs	sp, {}	; <UNPREDICTABLE>
    4054:	29990000 	ldmibcs	r9, {}	; <UNPREDICTABLE>
    4058:	76130000 	ldrvc	r0, [r3], -r0
    405c:	01006c61 	tsteq	r0, r1, ror #24
    4060:	002c332e 	eoreq	r3, ip, lr, lsr #6
    4064:	29bf0000 	ldmibcs	pc!, {}	; <UNPREDICTABLE>
    4068:	29bb0000 	ldmibcs	fp!, {}	; <UNPREDICTABLE>
    406c:	00140000 	andseq	r0, r4, r0
    4070:	ac000099 	stcge	0, cr0, [r0], {153}	; 0x99
    4074:	8f000005 	svchi	0x00000005
    4078:	12000005 	andne	r0, r0, #5, 0
    407c:	74025001 	strvc	r5, [r2], #-1
    4080:	0c110000 	ldceq	0, cr0, [r1], {-0}
    4084:	b8000099 	stmdalt	r0, {r0, r3, r4, r7}
    4088:	12000005 	andne	r0, r0, #5, 0
    408c:	74025001 	strvc	r5, [r2], #-1
    4090:	1a000000 	bne	4098 <__code_start__-0x3f68>
    4094:	00000711 	andeq	r0, r0, r1, lsl r7
    4098:	00000711 	andeq	r0, r0, r1, lsl r7
    409c:	1a069c03 	bne	1ab0b0 <__bss_end__+0x1a02c8>
    40a0:	00000978 	andeq	r0, r0, r8, ror r9
    40a4:	00000978 	andeq	r0, r0, r8, ror r9
    40a8:	1a0bc303 	bne	2f4cbc <__bss_end__+0x2e9ed4>
    40ac:	0000076c 	andeq	r0, r0, ip, ror #14
    40b0:	0000076c 	andeq	r0, r0, ip, ror #14
    40b4:	1a06ae03 	bne	1af8c8 <__bss_end__+0x1a4ae0>
    40b8:	00000966 	andeq	r0, r0, r6, ror #18
    40bc:	00000966 	andeq	r0, r0, r6, ror #18
    40c0:	00061904 	andeq	r1, r6, r4, lsl #18
    40c4:	000008e9 	andeq	r0, r0, r9, ror #17
    40c8:	176d0004 	strbne	r0, [sp, -r4]!
    40cc:	01040000 	mrseq	r0, (UNDEF: 4)
    40d0:	0000086c 	andeq	r0, r0, ip, ror #16
    40d4:	000a080c 	andeq	r0, sl, ip, lsl #16
    40d8:	00081c00 	andeq	r1, r8, r0, lsl #24
    40dc:	009ac000 	addseq	ip, sl, r0
    40e0:	0003b000 	andeq	fp, r3, r0
    40e4:	00213c00 	eoreq	r3, r1, r0, lsl #24
    40e8:	05040200 	streq	r0, [r4, #-512]	; 0xfffffe00
    40ec:	00746e69 	rsbseq	r6, r4, r9, ror #28
    40f0:	2b070403 	blcs	1c5104 <__bss_end__+0x1ba31c>
    40f4:	03000001 	movweq	r0, #1
    40f8:	00c30601 	sbceq	r0, r3, r1, lsl #12
    40fc:	02030000 	andeq	r0, r3, #0, 0
    4100:	00002105 	andeq	r2, r0, r5, lsl #2
    4104:	05040300 	streq	r0, [r4, #-768]	; 0xfffffd00
    4108:	00000056 	andeq	r0, r0, r6, asr r0
    410c:	51050803 	tstpl	r5, r3, lsl #16
    4110:	03000000 	movweq	r0, #0
    4114:	00c10801 	sbceq	r0, r1, r1, lsl #16
    4118:	02030000 	andeq	r0, r3, #0, 0
    411c:	00015207 	andeq	r5, r1, r7, lsl #4
    4120:	01380400 	teqeq	r8, r0, lsl #8
    4124:	34030000 	strcc	r0, [r3], #-0
    4128:	00006919 	andeq	r6, r0, r9, lsl r9
    412c:	07040300 	streq	r0, [r4, -r0, lsl #6]
    4130:	00000126 	andeq	r0, r0, r6, lsr #2
    4134:	21070803 	tstcs	r7, r3, lsl #16
    4138:	03000001 	movweq	r0, #1
    413c:	00ca0801 	sbceq	r0, sl, r1, lsl #16
    4140:	77050000 	strvc	r0, [r5, -r0]
    4144:	03000000 	movweq	r0, #0
    4148:	03410408 	movteq	r0, #5128	; 0x1408
    414c:	04060000 	streq	r0, [r6], #-0
    4150:	2c040707 	stccs	7, cr0, [r4], {7}
    4154:	01000000 	mrseq	r0, (UNDEF: 0)
    4158:	00a4061f 	adceq	r0, r4, pc, lsl r6
    415c:	a2080000 	andge	r0, r8, #0, 0
    4160:	00000009 	andeq	r0, r0, r9
    4164:	00002000 	andeq	r2, r0, r0
    4168:	00057209 	andeq	r7, r5, r9, lsl #4
    416c:	0d220100 	stfeqs	f0, [r2, #-0]
    4170:	00000077 	andeq	r0, r0, r7, ror r0
    4174:	0004160a 	andeq	r1, r4, sl, lsl #12
    4178:	0e230100 	sufeqs	f0, f3, f0
    417c:	000000c2 	andeq	r0, r0, r2, asr #1
    4180:	a9b00305 	ldmibge	r0!, {r0, r2, r8, r9}
    4184:	040b0000 	streq	r0, [fp], #-0
    4188:	00000077 	andeq	r0, r0, r7, ror r0
    418c:	0009860a 	andeq	r8, r9, sl, lsl #12
    4190:	0e240100 	sufeqs	f0, f4, f0
    4194:	000000c2 	andeq	r0, r0, r2, asr #1
    4198:	a9b40305 	ldmibge	r4!, {r0, r2, r8, r9}
    419c:	e70a0000 	str	r0, [sl, -r0]
    41a0:	01000009 	tsteq	r0, r9
    41a4:	00c20e25 	sbceq	r0, r2, r5, lsr #28
    41a8:	03050000 	movweq	r0, #20480	; 0x5000
    41ac:	0000a9b8 			; <UNDEFINED> instruction: 0x0000a9b8
    41b0:	0009bd0c 	andeq	fp, r9, ip, lsl #26
    41b4:	06750100 	ldrbteq	r0, [r5], -r0, lsl #2
    41b8:	00009e10 	andeq	r9, r0, r0, lsl lr
    41bc:	00000060 	andeq	r0, r0, r0, rrx
    41c0:	01649c01 	cmneq	r4, r1, lsl #24
    41c4:	700d0000 	andvc	r0, sp, r0
    41c8:	16750100 	ldrbtne	r0, [r5], -r0, lsl #2
    41cc:	0000008a 	andeq	r0, r0, sl, lsl #1
    41d0:	000029e3 	andeq	r2, r0, r3, ror #19
    41d4:	000029dd 	ldrdeq	r2, [r0], -sp
    41d8:	0000900e 	andeq	r9, r0, lr
    41dc:	00017400 	andeq	r7, r1, r0, lsl #8
    41e0:	a0030500 	andge	r0, r3, r0, lsl #10
    41e4:	0f0000a9 	svceq	0x000000a9
    41e8:	00009e5c 	andeq	r9, r0, ip, asr lr
    41ec:	000008bc 			; <UNDEFINED> instruction: 0x000008bc
    41f0:	0000015a 	andeq	r0, r0, sl, asr r1
    41f4:	05500110 	ldrbeq	r0, [r0, #-272]	; 0xfffffef0
    41f8:	00a91803 	adceq	r1, r9, r3, lsl #16
    41fc:	51011000 	mrspl	r1, (UNDEF: 1)
    4200:	a7b00305 	ldrge	r0, [r0, r5, lsl #6]!
    4204:	01100000 	tsteq	r0, r0
    4208:	a0030552 	andge	r0, r3, r2, asr r5
    420c:	100000a9 	andne	r0, r0, r9, lsr #1
    4210:	08025301 	stmdaeq	r2, {r0, r8, r9, ip, lr}
    4214:	7d021077 	stcvc	0, cr1, [r2, #-476]	; 0xfffffe24
    4218:	01f30300 	mvnseq	r0, r0, lsl #6
    421c:	60110050 	andsvs	r0, r1, r0, asr r0
    4220:	c800009e 	stmdagt	r0, {r1, r2, r3, r4, r7}
    4224:	00000008 	andeq	r0, r0, r8
    4228:	00007e12 	andeq	r7, r0, r2, lsl lr
    422c:	00017400 	andeq	r7, r1, r0, lsl #8
    4230:	002c1300 	eoreq	r1, ip, r0, lsl #6
    4234:	00090000 	andeq	r0, r9, r0
    4238:	00016405 	andeq	r6, r1, r5, lsl #8
    423c:	09ab1400 	stmibeq	fp!, {sl, ip}
    4240:	72010000 	andvc	r0, r1, #0, 0
    4244:	009dfc06 	addseq	pc, sp, r6, lsl #24
    4248:	00001400 	andeq	r1, r0, r0, lsl #8
    424c:	0c9c0100 	ldfeqs	f0, [ip], {0}
    4250:	0000029c 	muleq	r0, ip, r2
    4254:	f8066f01 			; <UNDEFINED> instruction: 0xf8066f01
    4258:	0400009d 	streq	r0, [r0], #-157	; 0xffffff63
    425c:	01000000 	mrseq	r0, (UNDEF: 0)
    4260:	0001ae9c 	muleq	r1, ip, lr
    4264:	00701500 	rsbseq	r1, r0, r0, lsl #10
    4268:	8a126f01 	bhi	49fe74 <__bss_end__+0x49508c>
    426c:	01000000 	mrseq	r0, (UNDEF: 0)
    4270:	4a160050 	bmi	5843b8 <__bss_end__+0x5795d0>
    4274:	0100000a 	tsteq	r0, sl
    4278:	008a075e 	addeq	r0, sl, lr, asr r7
    427c:	9ce00000 	stclls	0, cr0, [r0]
    4280:	01180000 	tsteq	r8, r0
    4284:	9c010000 	stcls	0, cr0, [r1], {-0}
    4288:	0000042c 	andeq	r0, r0, ip, lsr #8
    428c:	00030417 	andeq	r0, r3, r7, lsl r4
    4290:	205e0100 	subscs	r0, lr, r0, lsl #2
    4294:	0000002c 	andeq	r0, r0, ip, lsr #32
    4298:	00002a24 	andeq	r2, r0, r4, lsr #20
    429c:	00002a10 	andeq	r2, r0, r0, lsl sl
    42a0:	0009c717 	andeq	ip, r9, r7, lsl r7
    42a4:	315e0100 	cmpcc	lr, r0, lsl #2
    42a8:	0000002c 	andeq	r0, r0, ip, lsr #32
    42ac:	00002abd 			; <UNDEFINED> instruction: 0x00002abd
    42b0:	00002aa9 	andeq	r2, r0, r9, lsr #21
    42b4:	0000900e 	andeq	r9, r0, lr
    42b8:	00043c00 	andeq	r3, r4, r0, lsl #24
    42bc:	88030500 	stmdahi	r3, {r8, sl}
    42c0:	180000a9 	stmdane	r0, {r0, r3, r5, r7}
    42c4:	66010068 	strvs	r0, [r1], -r8, rrx
    42c8:	00002c0e 	andeq	r2, r0, lr, lsl #24
    42cc:	002b7300 	eoreq	r7, fp, r0, lsl #6
    42d0:	002b6700 	eoreq	r6, fp, r0, lsl #14
    42d4:	08541900 	ldmdaeq	r4, {r8, fp, ip}^
    42d8:	9cf00000 	ldclls	0, cr0, [r0]
    42dc:	f0040000 			; <UNDEFINED> instruction: 0xf0040000
    42e0:	0400009c 	streq	r0, [r0], #-156	; 0xffffff64
    42e4:	01000000 	mrseq	r0, (UNDEF: 0)
    42e8:	02380560 	eorseq	r0, r8, #96, 10	; 0x18000000
    42ec:	651a0000 	ldrvs	r0, [sl, #-0]
    42f0:	c7000008 	strgt	r0, [r0, -r8]
    42f4:	c500002b 	strgt	r0, [r0, #-43]	; 0xffffffd5
    42f8:	0000002b 	andeq	r0, r0, fp, lsr #32
    42fc:	00089619 	andeq	r9, r8, r9, lsl r6
    4300:	009cfc00 	addseq	pc, ip, r0, lsl #24
    4304:	9cfc0200 	lfmls	f0, 2, [ip]
    4308:	00080000 	andeq	r0, r8, r0
    430c:	61010000 	mrsvs	r0, (UNDEF: 1)
    4310:	00026c11 	andeq	r6, r2, r1, lsl ip
    4314:	08b11a00 	ldmeq	r1!, {r9, fp, ip}
    4318:	2bdc0000 	blcs	ff704320 <__bss_end__+0xff6f9538>
    431c:	2bda0000 	blcs	ff684324 <__bss_end__+0xff67953c>
    4320:	a71a0000 	ldrge	r0, [sl, -r0]
    4324:	f2000008 	vhadd.s8	d0, d0, d8
    4328:	f000002b 			; <UNDEFINED> instruction: 0xf000002b
    432c:	0000002b 	andeq	r0, r0, fp, lsr #32
    4330:	00081f1b 	andeq	r1, r8, fp, lsl pc
    4334:	009d0c00 	addseq	r0, sp, r0, lsl #24
    4338:	07100100 	ldreq	r0, [r0, -r0, lsl #2]
    433c:	67010000 	strvs	r0, [r1, -r0]
    4340:	00030a09 	andeq	r0, r3, r9, lsl #20
    4344:	083a1a00 	ldmdaeq	sl!, {r9, fp, ip}
    4348:	2c0b0000 	stccs	0, cr0, [fp], {-0}
    434c:	2c050000 	stccs	0, cr0, [r5], {-0}
    4350:	301a0000 	andscc	r0, sl, r0
    4354:	52000008 	andpl	r0, r0, #8, 0
    4358:	4a00002c 	bmi	4410 <__code_start__-0x3bf0>
    435c:	1c00002c 	stcne	0, cr0, [r0], {44}	; 0x2c
    4360:	00000710 	andeq	r0, r0, r0, lsl r7
    4364:	00085419 	andeq	r5, r8, r9, lsl r4
    4368:	009d0c00 	addseq	r0, sp, r0, lsl #24
    436c:	9d0c0400 	cfstrsls	mvf0, [ip, #-0]
    4370:	00040000 	andeq	r0, r4, r0
    4374:	11010000 	mrsne	r0, (UNDEF: 1)
    4378:	0002c705 	andeq	ip, r2, r5, lsl #14
    437c:	08651a00 	stmdaeq	r5!, {r9, fp, ip}^
    4380:	2c900000 	ldccs	0, cr0, [r0], {0}
    4384:	2c8e0000 	stccs	0, cr0, [lr], {0}
    4388:	0f000000 	svceq	0x00000000
    438c:	00009da4 	andeq	r9, r0, r4, lsr #27
    4390:	000008bc 			; <UNDEFINED> instruction: 0x000008bc
    4394:	000002ff 	strdeq	r0, [r0], -pc	; <UNPREDICTABLE>
    4398:	05500110 	ldrbeq	r0, [r0, #-272]	; 0xfffffef0
    439c:	00a13803 	adceq	r3, r1, r3, lsl #16
    43a0:	51011000 	mrspl	r1, (UNDEF: 1)
    43a4:	a7b00305 	ldrge	r0, [r0, r5, lsl #6]!
    43a8:	01100000 	tsteq	r0, r0
    43ac:	98030552 	stmdals	r3, {r1, r4, r6, r8, sl}
    43b0:	100000a9 	andne	r0, r0, r9, lsr #1
    43b4:	41015301 	tstmi	r1, r1, lsl #6
    43b8:	007d0210 	rsbseq	r0, sp, r0, lsl r2
    43bc:	a8c40305 	stmiage	r4, {r0, r2, r8, r9}^
    43c0:	11000000 	mrsne	r0, (UNDEF: 0)
    43c4:	00009da8 	andeq	r9, r0, r8, lsr #27
    43c8:	000008c8 	andeq	r0, r0, r8, asr #17
    43cc:	70190000 	andsvc	r0, r9, r0
    43d0:	24000008 	strcs	r0, [r0], #-8
    43d4:	0300009d 	movweq	r0, #157	; 0x9d
    43d8:	00009d24 	andeq	r9, r0, r4, lsr #26
    43dc:	00000004 	andeq	r0, r0, r4
    43e0:	3e056801 	cdpcc	8, 0, cr6, cr5, cr1, {0}
    43e4:	1a000003 	bne	43f8 <__code_start__-0x3c08>
    43e8:	0000088b 	andeq	r0, r0, fp, lsl #17
    43ec:	00002ca5 	andeq	r2, r0, r5, lsr #25
    43f0:	00002ca3 	andeq	r2, r0, r3, lsr #25
    43f4:	0008811a 	andeq	r8, r8, sl, lsl r1
    43f8:	002cba00 	eoreq	fp, ip, r0, lsl #20
    43fc:	002cb800 	eoreq	fp, ip, r0, lsl #16
    4400:	3c0f0000 	stccc	0, cr0, [pc], {-0}
    4404:	4100009d 	swpmi	r0, sp, [r0]	; <UNPREDICTABLE>
    4408:	53000004 	movwpl	r0, #4
    440c:	10000003 	andne	r0, r0, r3
    4410:	f3035001 	vhadd.u8	d5, d3, d1
    4414:	0f005001 	svceq	0x00005001
    4418:	00009d60 	andeq	r9, r0, r0, ror #26
    441c:	000008bc 			; <UNDEFINED> instruction: 0x000008bc
    4420:	0000038c 	andeq	r0, r0, ip, lsl #7
    4424:	05500110 	ldrbeq	r0, [r0, #-272]	; 0xfffffef0
    4428:	00a13803 	adceq	r3, r1, r3, lsl #16
    442c:	51011000 	mrspl	r1, (UNDEF: 1)
    4430:	a7b00305 	ldrge	r0, [r0, r5, lsl #6]!
    4434:	01100000 	tsteq	r0, r0
    4438:	88030552 	stmdahi	r3, {r1, r4, r6, r8, sl}
    443c:	100000a9 	andne	r0, r0, r9, lsr #1
    4440:	08025301 	stmdaeq	r2, {r0, r8, r9, ip, lr}
    4444:	7d02105f 	stcvc	0, cr1, [r2, #-380]	; 0xfffffe84
    4448:	c0030500 	andgt	r0, r3, r0, lsl #10
    444c:	000000a7 	andeq	r0, r0, r7, lsr #1
    4450:	009d6411 	addseq	r6, sp, r1, lsl r4
    4454:	0008c800 	andeq	ip, r8, r0, lsl #16
    4458:	9d681100 	stflse	f1, [r8, #-0]
    445c:	08d40000 	ldmeq	r4, {}^	; <UNPREDICTABLE>
    4460:	840f0000 	strhi	r0, [pc], #-0	; 4468 <__code_start__-0x3b98>
    4464:	bc00009d 	stclt	0, cr0, [r0], {157}	; 0x9d
    4468:	d7000008 	strle	r0, [r0, -r8]
    446c:	10000003 	andne	r0, r0, r3
    4470:	03055001 	movweq	r5, #20481	; 0x5001
    4474:	0000a87c 	andeq	sl, r0, ip, ror r8
    4478:	05510110 	ldrbeq	r0, [r1, #-272]	; 0xfffffef0
    447c:	00a7b003 	adceq	fp, r7, r3
    4480:	52011000 	andpl	r1, r1, #0, 0
    4484:	a9880305 	stmibge	r8, {r0, r2, r8, r9}
    4488:	01100000 	tsteq	r0, r0
    448c:	60080253 	andvs	r0, r8, r3, asr r2
    4490:	007d0210 	rsbseq	r0, sp, r0, lsl r2
    4494:	a8b00305 	ldmge	r0!, {r0, r2, r8, r9}
    4498:	11000000 	mrsne	r0, (UNDEF: 0)
    449c:	00009d88 	andeq	r9, r0, r8, lsl #27
    44a0:	000008c8 	andeq	r0, r0, r8, asr #17
    44a4:	009dac11 	addseq	sl, sp, r1, lsl ip
    44a8:	0008d400 	andeq	sp, r8, r0, lsl #8
    44ac:	9dc80f00 	stclls	15, cr0, [r8]
    44b0:	08bc0000 	ldmeq	ip!, {}	; <UNPREDICTABLE>
    44b4:	04220000 	strteq	r0, [r2], #-0
    44b8:	01100000 	tsteq	r0, r0
    44bc:	d0030550 	andle	r0, r3, r0, asr r5
    44c0:	100000a8 	andne	r0, r0, r8, lsr #1
    44c4:	03055101 	movweq	r5, #20737	; 0x5101
    44c8:	0000a7b0 			; <UNDEFINED> instruction: 0x0000a7b0
    44cc:	05520110 	ldrbeq	r0, [r2, #-272]	; 0xfffffef0
    44d0:	00a98803 	adceq	r8, r9, r3, lsl #16
    44d4:	53011000 	movwpl	r1, #4096	; 0x1000
    44d8:	10680802 	rsbne	r0, r8, r2, lsl #16
    44dc:	05007d02 	streq	r7, [r0, #-3330]	; 0xfffff2fe
    44e0:	00a8fc03 	adceq	pc, r8, r3, lsl #24
    44e4:	cc110000 	ldcgt	0, cr0, [r1], {-0}
    44e8:	c800009d 	stmdagt	r0, {r0, r2, r3, r4, r7}
    44ec:	00000008 	andeq	r0, r0, r8
    44f0:	00007e12 	andeq	r7, r0, r2, lsl lr
    44f4:	00043c00 	andeq	r3, r4, r0, lsl #24
    44f8:	002c1300 	eoreq	r1, ip, r0, lsl #6
    44fc:	000f0000 	andeq	r0, pc, r0
    4500:	00042c05 	andeq	r2, r4, r5, lsl #24
    4504:	04471600 	strbeq	r1, [r7], #-1536	; 0xfffffa00
    4508:	53010000 	movwpl	r0, #4096	; 0x1000
    450c:	00008a07 	andeq	r8, r0, r7, lsl #20
    4510:	009c7c00 	addseq	r7, ip, r0, lsl #24
    4514:	00006400 	andeq	r6, r0, r0, lsl #8
    4518:	089c0100 	ldmeq	ip, {r8}
    451c:	17000005 	strne	r0, [r0, -r5]
    4520:	00000304 	andeq	r0, r0, r4, lsl #6
    4524:	2c185301 	ldccs	3, cr5, [r8], {1}
    4528:	d5000000 	strle	r0, [r0, #-0]
    452c:	cd00002c 	stcgt	0, cr0, [r0, #-176]	; 0xffffff50
    4530:	0e00002c 	cdpeq	0, 0, cr0, cr0, cr12, {1}
    4534:	00000090 	muleq	r0, r0, r0
    4538:	00000518 	andeq	r0, r0, r8, lsl r5
    453c:	a9800305 	stmibge	r0, {r0, r2, r8, r9}
    4540:	9d1d0000 	ldcls	0, cr0, [sp, #-0]
    4544:	01000009 	tsteq	r0, r9
    4548:	008a0b55 	addeq	r0, sl, r5, asr fp
    454c:	2d0d0000 	stccs	0, cr0, [sp, #-0]
    4550:	2d090000 	stccs	0, cr0, [r9, #-0]
    4554:	940f0000 	strls	r0, [pc], #-0	; 455c <__code_start__-0x3aa4>
    4558:	1d00009c 	stcne	0, cr0, [r0, #-624]	; 0xfffffd90
    455c:	a6000005 	strge	r0, [r0], -r5
    4560:	10000004 	andne	r0, r0, r4
    4564:	74025001 	strvc	r5, [r2], #-1
    4568:	a40f0000 	strge	r0, [pc], #-0	; 4570 <__code_start__-0x3a90>
    456c:	e000009c 	mul	r0, ip, r0
    4570:	c5000008 	strgt	r0, [r0, #-8]
    4574:	10000004 	andne	r0, r0, r4
    4578:	75025001 	strvc	r5, [r2, #-1]
    457c:	51011000 	mrspl	r1, (UNDEF: 1)
    4580:	01103001 	tsteq	r0, r1
    4584:	00740252 	rsbseq	r0, r4, r2, asr r2
    4588:	9ccc0f00 	stclls	15, cr0, [ip], {0}
    458c:	08bc0000 	ldmeq	ip!, {}	; <UNPREDICTABLE>
    4590:	04fe0000 	ldrbteq	r0, [lr], #0
    4594:	01100000 	tsteq	r0, r0
    4598:	38030550 	stmdacc	r3, {r4, r6, r8, sl}
    459c:	100000a1 	andne	r0, r0, r1, lsr #1
    45a0:	03055101 	movweq	r5, #20737	; 0x5101
    45a4:	0000a7b0 			; <UNDEFINED> instruction: 0x0000a7b0
    45a8:	05520110 	ldrbeq	r0, [r2, #-272]	; 0xfffffef0
    45ac:	00a98003 	adceq	r8, r9, r3
    45b0:	53011000 	movwpl	r1, #4096	; 0x1000
    45b4:	10540802 	subsne	r0, r4, r2, lsl #16
    45b8:	05007d02 	streq	r7, [r0, #-3330]	; 0xfffff2fe
    45bc:	00a7c003 	adceq	ip, r7, r3
    45c0:	d0110000 	andsle	r0, r1, r0
    45c4:	c800009c 	stmdagt	r0, {r2, r3, r4, r7}
    45c8:	00000008 	andeq	r0, r0, r8
    45cc:	00007e12 	andeq	r7, r0, r2, lsl lr
    45d0:	00051800 	andeq	r1, r5, r0, lsl #16
    45d4:	002c1300 	eoreq	r1, ip, r0, lsl #6
    45d8:	00070000 	andeq	r0, r7, r0
    45dc:	00050805 	andeq	r0, r5, r5, lsl #16
    45e0:	09f01600 	ldmibeq	r0!, {r9, sl, ip}^
    45e4:	47010000 	strmi	r0, [r1, -r0]
    45e8:	00008a07 	andeq	r8, r0, r7, lsl #20
    45ec:	009be400 	addseq	lr, fp, r0, lsl #8
    45f0:	00009800 	andeq	r9, r0, r0, lsl #16
    45f4:	2b9c0100 	blcs	fe7049fc <__bss_end__+0xfe6f9c14>
    45f8:	17000006 	strne	r0, [r0, -r6]
    45fc:	00000304 	andeq	r0, r0, r4, lsl #6
    4600:	2c204701 	stccs	7, cr4, [r0], #-4
    4604:	3b000000 	blcc	460c <__code_start__-0x39f4>
    4608:	2b00002d 	blcs	46c4 <__code_start__-0x393c>
    460c:	0e00002d 	cdpeq	0, 0, cr0, cr0, cr13, {1}
    4610:	00000090 	muleq	r0, r0, r0
    4614:	0000043c 	andeq	r0, r0, ip, lsr r4
    4618:	a9700305 	ldmdbge	r0!, {r0, r2, r8, r9}^
    461c:	9d1d0000 	ldcls	0, cr0, [sp, #-0]
    4620:	01000009 	tsteq	r0, r9
    4624:	008a0b4b 	addeq	r0, sl, fp, asr #22
    4628:	2dad0000 	stccs	0, cr0, [sp]
    462c:	2da90000 	stccs	0, cr0, [r9]
    4630:	1f1b0000 	svcne	0x001b0000
    4634:	f4000008 	vst4.8	{d0-d3}, [r0], r8
    4638:	0300009b 	movweq	r0, #155	; 0x9b
    463c:	000006f8 	strdeq	r0, [r0], -r8
    4640:	a30e4901 	movwge	r4, #59649	; 0xe901
    4644:	1a000005 	bne	4660 <__code_start__-0x39a0>
    4648:	0000083a 	andeq	r0, r0, sl, lsr r8
    464c:	00002dcd 	andeq	r2, r0, sp, asr #27
    4650:	00002dcb 	andeq	r2, r0, fp, asr #27
    4654:	0008301a 	andeq	r3, r8, sl, lsl r0
    4658:	002de500 	eoreq	lr, sp, r0, lsl #10
    465c:	002de100 	eoreq	lr, sp, r0, lsl #2
    4660:	06f81e00 	ldrbteq	r1, [r8], r0, lsl #28
    4664:	0f000000 	svceq	0x00000000
    4668:	00009c3c 	andeq	r9, r0, ip, lsr ip
    466c:	000008bc 			; <UNDEFINED> instruction: 0x000008bc
    4670:	000005dc 	ldrdeq	r0, [r0], -ip
    4674:	05500110 	ldrbeq	r0, [r0, #-272]	; 0xfffffef0
    4678:	00a13803 	adceq	r3, r1, r3, lsl #16
    467c:	51011000 	mrspl	r1, (UNDEF: 1)
    4680:	a7b00305 	ldrge	r0, [r0, r5, lsl #6]!
    4684:	01100000 	tsteq	r0, r0
    4688:	70030552 	andvc	r0, r3, r2, asr r5
    468c:	100000a9 	andne	r0, r0, r9, lsr #1
    4690:	08025301 	stmdaeq	r2, {r0, r8, r9, ip, lr}
    4694:	7d021048 	stcvc	0, cr1, [r2, #-288]	; 0xfffffee0
    4698:	c0030500 	andgt	r0, r3, r0, lsl #10
    469c:	000000a7 	andeq	r0, r0, r7, lsr #1
    46a0:	009c4011 	addseq	r4, ip, r1, lsl r0
    46a4:	0008c800 	andeq	ip, r8, r0, lsl #16
    46a8:	9c600f00 	stclls	15, cr0, [r0], #-0
    46ac:	08bc0000 	ldmeq	ip!, {}	; <UNPREDICTABLE>
    46b0:	06210000 	strteq	r0, [r1], -r0
    46b4:	01100000 	tsteq	r0, r0
    46b8:	3c030550 	cfstr32cc	mvfx0, [r3], {80}	; 0x50
    46bc:	100000a8 	andne	r0, r0, r8, lsr #1
    46c0:	03055101 	movweq	r5, #20737	; 0x5101
    46c4:	0000a7b0 			; <UNDEFINED> instruction: 0x0000a7b0
    46c8:	05520110 	ldrbeq	r0, [r2, #-272]	; 0xfffffef0
    46cc:	00a97003 	adceq	r7, r9, r3
    46d0:	53011000 	movwpl	r1, #4096	; 0x1000
    46d4:	104e0802 	subne	r0, lr, r2, lsl #16
    46d8:	08007d02 	stmdaeq	r0, {r1, r8, sl, fp, ip, sp, lr}
    46dc:	235001f3 	cmpcs	r0, #-1073741764	; 0xc000003c
    46e0:	1af80907 	bne	ffe06b04 <__bss_end__+0xffdfbd1c>
    46e4:	9c641100 	stflse	f1, [r4], #-0
    46e8:	08c80000 	stmiaeq	r8, {}^	; <UNPREDICTABLE>
    46ec:	0c000000 	stceq	0, cr0, [r0], {-0}
    46f0:	00000a12 	andeq	r0, r0, r2, lsl sl
    46f4:	8c063c01 	stchi	12, cr3, [r6], {1}
    46f8:	5800009b 	stmdapl	r0, {r0, r1, r3, r4, r7}
    46fc:	01000000 	mrseq	r0, (UNDEF: 0)
    4700:	0006cf9c 	muleq	r6, ip, pc	; <UNPREDICTABLE>
    4704:	039f0a00 	orrseq	r0, pc, #0, 20
    4708:	3d010000 	stccc	0, cr0, [r1, #-0]
    470c:	00002510 	andeq	r2, r0, r0, lsl r5
    4710:	e4030500 	str	r0, [r3], #-1280	; 0xfffffb00
    4714:	0e0000ad 	cdpeq	0, 0, cr0, cr0, cr13, {5}
    4718:	00000090 	muleq	r0, r0, r0
    471c:	000006df 	ldrdeq	r0, [r0], -pc	; <UNPREDICTABLE>
    4720:	a9600305 	stmdbge	r0!, {r0, r2, r8, r9}^
    4724:	07070000 	streq	r0, [r7, -r0]
    4728:	00002c04 	andeq	r2, r0, r4, lsl #24
    472c:	0a420100 	beq	1084b34 <__bss_end__+0x1079d4c>
    4730:	0000067a 	andeq	r0, r0, sl, ror r6
    4734:	0009d908 	andeq	sp, r9, r8, lsl #18
    4738:	10000000 	andne	r0, r0, r0
    473c:	b80f0000 	stmdalt	pc, {}	; <UNPREDICTABLE>
    4740:	e400009b 	str	r0, [r0], #-155	; 0xffffff65
    4744:	96000006 	strls	r0, [r0], -r6
    4748:	10000006 	andne	r0, r0, r6
    474c:	40035001 	andmi	r5, r3, r1
    4750:	01102440 	tsteq	r0, r0, asr #8
    4754:	48400351 	stmdami	r0, {r0, r4, r6, r8, r9}^
    4758:	d00f0024 	andle	r0, pc, r4, lsr #32
    475c:	bc00009b 	stclt	0, cr0, [r0], {155}	; 0x9b
    4760:	c5000008 	strgt	r0, [r0, #-8]
    4764:	10000006 	andne	r0, r0, r6
    4768:	03055001 	movweq	r5, #20481	; 0x5001
    476c:	0000a80c 	andeq	sl, r0, ip, lsl #16
    4770:	05510110 	ldrbeq	r0, [r1, #-272]	; 0xfffffef0
    4774:	00a7b003 	adceq	fp, r7, r3
    4778:	52011000 	andpl	r1, r1, #0, 0
    477c:	a9600305 	stmdbge	r0!, {r0, r2, r8, r9}^
    4780:	01100000 	tsteq	r0, r0
    4784:	40080253 	andmi	r0, r8, r3, asr r2
    4788:	9bd41100 	blls	ff508b90 <__bss_end__+0xff4fdda8>
    478c:	08c80000 	stmiaeq	r8, {}^	; <UNPREDICTABLE>
    4790:	12000000 	andne	r0, r0, #0, 0
    4794:	0000007e 	andeq	r0, r0, lr, ror r0
    4798:	000006df 	ldrdeq	r0, [r0], -pc	; <UNPREDICTABLE>
    479c:	00002c13 	andeq	r2, r0, r3, lsl ip
    47a0:	05000c00 	streq	r0, [r0, #-3072]	; 0xfffff400
    47a4:	000006cf 	andeq	r0, r0, pc, asr #13
    47a8:	00044f0c 	andeq	r4, r4, ip, lsl #30
    47ac:	062d0100 	strteq	r0, [sp], -r0, lsl #2
    47b0:	00009af0 	strdeq	r9, [r0], -r0
    47b4:	0000009c 	muleq	r0, ip, r0
    47b8:	07c89c01 	strbeq	r9, [r8, r1, lsl #24]
    47bc:	9c170000 	ldcls	0, cr0, [r7], {-0}
    47c0:	01000009 	tsteq	r0, r9
    47c4:	002c262d 	eoreq	r2, ip, sp, lsr #12
    47c8:	2e130000 	cdpcs	0, 1, cr0, cr3, cr0, {0}
    47cc:	2e050000 	cdpcs	0, 0, cr0, cr5, cr0, {0}
    47d0:	91170000 	tstls	r7, r0
    47d4:	01000009 	tsteq	r0, r9
    47d8:	002c362d 	eoreq	r3, ip, sp, lsr #12
    47dc:	2e7b0000 	cdpcs	0, 7, cr0, cr11, cr0, {0}
    47e0:	2e730000 	cdpcs	0, 7, cr0, cr3, cr0, {0}
    47e4:	9d1d0000 	ldcls	0, cr0, [sp, #-0]
    47e8:	01000009 	tsteq	r0, r9
    47ec:	00c20b2e 	sbceq	r0, r2, lr, lsr #22
    47f0:	2ec30000 	cdpcs	0, 12, cr0, cr3, cr0, {0}
    47f4:	2eb50000 	cdpcs	0, 11, cr0, cr5, cr0, {0}
    47f8:	900e0000 	andls	r0, lr, r0
    47fc:	d8000000 	stmdale	r0, {}	; <UNPREDICTABLE>
    4800:	05000007 	streq	r0, [r0, #-7]
    4804:	00a94803 	adceq	r4, r9, r3, lsl #16
    4808:	9b480f00 	blls	1208410 <__bss_end__+0x11fd628>
    480c:	08bc0000 	ldmeq	ip!, {}	; <UNPREDICTABLE>
    4810:	077e0000 	ldrbeq	r0, [lr, -r0]!
    4814:	01100000 	tsteq	r0, r0
    4818:	38030550 	stmdacc	r3, {r4, r6, r8, sl}
    481c:	100000a1 	andne	r0, r0, r1, lsr #1
    4820:	03055101 	movweq	r5, #20737	; 0x5101
    4824:	0000a7b0 			; <UNDEFINED> instruction: 0x0000a7b0
    4828:	05520110 	ldrbeq	r0, [r2, #-272]	; 0xfffffef0
    482c:	00a94803 	adceq	r4, r9, r3, lsl #16
    4830:	53011000 	movwpl	r1, #4096	; 0x1000
    4834:	10300802 	eorsne	r0, r0, r2, lsl #16
    4838:	05007d02 	streq	r7, [r0, #-3330]	; 0xfffff2fe
    483c:	00a7bc03 	adceq	fp, r7, r3, lsl #24
    4840:	4c110000 	ldcmi	0, cr0, [r1], {-0}
    4844:	c800009b 	stmdagt	r0, {r0, r1, r3, r4, r7}
    4848:	0f000008 	svceq	0x00000008
    484c:	00009b70 	andeq	r9, r0, r0, ror fp
    4850:	000008bc 			; <UNDEFINED> instruction: 0x000008bc
    4854:	000007be 			; <UNDEFINED> instruction: 0x000007be
    4858:	05500110 	ldrbeq	r0, [r0, #-272]	; 0xfffffef0
    485c:	00a7c803 	adceq	ip, r7, r3, lsl #16
    4860:	51011000 	mrspl	r1, (UNDEF: 1)
    4864:	a7b00305 	ldrge	r0, [r0, r5, lsl #6]!
    4868:	01100000 	tsteq	r0, r0
    486c:	48030552 	stmdami	r3, {r1, r4, r6, r8, sl}
    4870:	100000a9 	andne	r0, r0, r9, lsr #1
    4874:	08025301 	stmdaeq	r2, {r0, r8, r9, ip, lr}
    4878:	7d021034 	stcvc	0, cr1, [r2, #-208]	; 0xffffff30
    487c:	01f30300 	mvnseq	r0, r0, lsl #6
    4880:	74110050 	ldrvc	r0, [r1], #-80	; 0xffffffb0
    4884:	c800009b 	stmdagt	r0, {r0, r1, r3, r4, r7}
    4888:	00000008 	andeq	r0, r0, r8
    488c:	00007e12 	andeq	r7, r0, r2, lsl lr
    4890:	0007d800 	andeq	sp, r7, r0, lsl #16
    4894:	002c1300 	eoreq	r1, ip, r0, lsl #6
    4898:	00160000 	andseq	r0, r6, r0
    489c:	0007c805 	andeq	ip, r7, r5, lsl #16
    48a0:	0a2a1f00 	beq	a8c4a8 <__bss_end__+0xa816c0>
    48a4:	2a010000 	bcs	448ac <__bss_end__+0x39ac4>
    48a8:	00008a07 	andeq	r8, r0, r7, lsl #20
    48ac:	009ae000 	addseq	lr, sl, r0
    48b0:	00001000 	andeq	r1, r0, r0
    48b4:	1f9c0100 	svcne	0x009c0100
    48b8:	0000097e 	andeq	r0, r0, lr, ror r9
    48bc:	8a072901 	bhi	1cecc8 <__bss_end__+0x1c3ee0>
    48c0:	d0000000 	andle	r0, r0, r0
    48c4:	1000009a 	mulne	r0, sl, r0
    48c8:	01000000 	mrseq	r0, (UNDEF: 0)
    48cc:	09df1f9c 	ldmibeq	pc, {r2, r3, r4, r7, r8, r9, sl, fp, ip}^	; <UNPREDICTABLE>
    48d0:	28010000 	stmdacs	r1, {}	; <UNPREDICTABLE>
    48d4:	00008a07 	andeq	r8, r0, r7, lsl #20
    48d8:	009ac000 	addseq	ip, sl, r0
    48dc:	00001000 	andeq	r1, r0, r0
    48e0:	209c0100 	addscs	r0, ip, r0, lsl #2
    48e4:	000009b5 			; <UNDEFINED> instruction: 0x000009b5
    48e8:	2c181001 	ldccs	0, cr1, [r8], {1}
    48ec:	03000000 	movweq	r0, #0
    48f0:	00000854 	andeq	r0, r0, r4, asr r8
    48f4:	01007821 	tsteq	r0, r1, lsr #16
    48f8:	002c2910 	eoreq	r2, ip, r0, lsl r9
    48fc:	6e210000 	cdpvs	0, 2, cr0, cr1, cr0, {0}
    4900:	35100100 	ldrcc	r0, [r0, #-256]	; 0xffffff00
    4904:	0000002c 	andeq	r0, r0, ip, lsr #32
    4908:	0000900e 	andeq	r9, r0, lr
    490c:	00051800 	andeq	r1, r5, r0, lsl #16
    4910:	98030500 	stmdals	r3, {r8, sl}
    4914:	000000a9 	andeq	r0, r0, r9, lsr #1
    4918:	000a0020 	andeq	r0, sl, r0, lsr #32
    491c:	180d0100 	stmdane	sp, {r8}
    4920:	0000002c 	andeq	r0, r0, ip, lsr #32
    4924:	00087003 	andeq	r7, r8, r3
    4928:	00782100 	rsbseq	r2, r8, r0, lsl #2
    492c:	2c290d01 	stccs	13, cr0, [r9], #-4
    4930:	00000000 	andeq	r0, r0, r0
    4934:	000a1f20 	andeq	r1, sl, r0, lsr #30
    4938:	18070100 	stmdane	r7, {r8}
    493c:	0000002c 	andeq	r0, r0, ip, lsr #32
    4940:	00089603 	andeq	r9, r8, r3, lsl #12
    4944:	00782100 	rsbseq	r2, r8, r0, lsl #2
    4948:	2c2c0701 	stccs	7, cr0, [ip], #-4
    494c:	21000000 	mrscs	r0, (UNDEF: 0)
    4950:	0701006e 	streq	r0, [r1, -lr, rrx]
    4954:	00002c38 	andeq	r2, r0, r8, lsr ip
    4958:	d1200000 			; <UNDEFINED> instruction: 0xd1200000
    495c:	01000009 	tsteq	r0, r9
    4960:	005d1804 	subseq	r1, sp, r4, lsl #16
    4964:	bc030000 	stclt	0, cr0, [r3], {-0}
    4968:	21000008 	tstcs	r0, r8
    496c:	04010078 	streq	r0, [r1], #-120	; 0xffffff88
    4970:	00005d29 	andeq	r5, r0, r9, lsr #26
    4974:	00792100 	rsbseq	r2, r9, r0, lsl #2
    4978:	5d350401 	cfldrspl	mvf0, [r5, #-4]!
    497c:	00000000 	andeq	r0, r0, r0
    4980:	0004e022 	andeq	lr, r4, r2, lsr #32
    4984:	0004e000 	andeq	lr, r4, r0
    4988:	06280200 	strteq	r0, [r8], -r0, lsl #4
    498c:	0000a722 	andeq	sl, r0, r2, lsr #14
    4990:	0000a700 	andeq	sl, r0, r0, lsl #14
    4994:	066e0200 	strbteq	r0, [lr], -r0, lsl #4
    4998:	000a3b22 	andeq	r3, sl, r2, lsr #22
    499c:	000a3b00 	andeq	r3, sl, r0, lsl #22
    49a0:	061d0200 	ldreq	r0, [sp], -r0, lsl #4
    49a4:	00022f22 	andeq	r2, r2, r2, lsr #30
    49a8:	00022f00 	andeq	r2, r2, r0, lsl #30
    49ac:	07f20200 	ldrbeq	r0, [r2, r0, lsl #4]!
    49b0:	00067300 	andeq	r7, r6, r0, lsl #6
    49b4:	90000400 	andls	r0, r0, r0, lsl #8
    49b8:	04000019 	streq	r0, [r0], #-25	; 0xffffffe7
    49bc:	00016a01 	andeq	r6, r1, r1, lsl #20
    49c0:	0a8d0c00 	beq	fe3479c8 <__bss_end__+0xfe33cbe0>
    49c4:	04b60000 	ldrteq	r0, [r6], #0
    49c8:	9e700000 	cdpls	0, 7, cr0, cr0, cr0, {0}
    49cc:	01980000 	orrseq	r0, r8, r0
    49d0:	24d20000 	ldrbcs	r0, [r2], #0
    49d4:	08020000 	stmdaeq	r2, {}	; <UNPREDICTABLE>
    49d8:	00012107 	andeq	r2, r1, r7, lsl #2
    49dc:	07040200 	streq	r0, [r4, -r0, lsl #4]
    49e0:	0000012b 	andeq	r0, r0, fp, lsr #2
    49e4:	69050403 	stmdbvs	r5, {r0, r1, sl}
    49e8:	0400746e 	streq	r7, [r0], #-1134	; 0xfffffb92
    49ec:	0000002c 	andeq	r0, r0, ip, lsr #32
    49f0:	c3060102 	movwgt	r0, #24834	; 0x6102
    49f4:	02000000 	andeq	r0, r0, #0, 0
    49f8:	00210502 	eoreq	r0, r1, r2, lsl #10
    49fc:	04020000 	streq	r0, [r2], #-0
    4a00:	00005605 	andeq	r5, r0, r5, lsl #12
    4a04:	05080200 	streq	r0, [r8, #-512]	; 0xfffffe00
    4a08:	00000051 	andeq	r0, r0, r1, asr r0
    4a0c:	c1080102 	tstgt	r8, r2, lsl #2
    4a10:	02000000 	andeq	r0, r0, #0, 0
    4a14:	01520702 	cmpeq	r2, r2, lsl #14
    4a18:	38050000 	stmdacc	r5, {}	; <UNPREDICTABLE>
    4a1c:	03000001 	movweq	r0, #1
    4a20:	00751934 	rsbseq	r1, r5, r4, lsr r9
    4a24:	04020000 	streq	r0, [r2], #-0
    4a28:	00012607 	andeq	r2, r1, r7, lsl #12
    4a2c:	00330600 	eorseq	r0, r3, r0, lsl #12
    4a30:	008b0000 	addeq	r0, fp, r0
    4a34:	33070000 	movwcc	r0, #28672	; 0x7000
    4a38:	00000000 	andeq	r0, r0, r0
    4a3c:	00002b08 	andeq	r2, r0, r8, lsl #22
    4a40:	0e1c0200 	cdpeq	2, 1, cr0, cr12, cr0, {0}
    4a44:	00000097 	muleq	r0, r7, r0
    4a48:	007c0409 	rsbseq	r0, ip, r9, lsl #8
    4a4c:	33060000 	movwcc	r0, #24576	; 0x6000
    4a50:	ac000000 	stcge	0, cr0, [r0], {-0}
    4a54:	07000000 	streq	r0, [r0, -r0]
    4a58:	000000ac 	andeq	r0, r0, ip, lsr #1
    4a5c:	b9040900 	stmdblt	r4, {r8, fp}
    4a60:	02000000 	andeq	r0, r0, #0, 0
    4a64:	00ca0801 	sbceq	r0, sl, r1, lsl #16
    4a68:	b2040000 	andlt	r0, r4, #0, 0
    4a6c:	08000000 	stmdaeq	r0, {}	; <UNPREDICTABLE>
    4a70:	0000051e 	andeq	r0, r0, lr, lsl r5
    4a74:	ca0e2102 	bgt	38ce84 <__bss_end__+0x38209c>
    4a78:	09000000 	stmdbeq	r0, {}	; <UNPREDICTABLE>
    4a7c:	00009d04 	andeq	r9, r0, r4, lsl #26
    4a80:	01070a00 	tsteq	r7, r0, lsl #20
    4a84:	0000005b 	andeq	r0, r0, fp, asr r0
    4a88:	0f0e0c04 	svceq	0x000e0c04
    4a8c:	0b000001 	bleq	4a98 <__code_start__-0x3568>
    4a90:	00000956 	andeq	r0, r0, r6, asr r9
    4a94:	078e0b00 	streq	r0, [lr, r0, lsl #22]
    4a98:	0b010000 	bleq	44aa0 <__bss_end__+0x39cb8>
    4a9c:	000007d1 	ldrdeq	r0, [r0], -r1
    4aa0:	07e00b04 	strbeq	r0, [r0, r4, lsl #22]!
    4aa4:	0b050000 	bleq	144aac <__bss_end__+0x139cc4>
    4aa8:	000007ef 	andeq	r0, r0, pc, ror #15
    4aac:	07fe0b06 	ldrbeq	r0, [lr, r6, lsl #22]!
    4ab0:	0b070000 	bleq	1c4ab8 <__bss_end__+0x1b9cd0>
    4ab4:	0000091f 	andeq	r0, r0, pc, lsl r9
    4ab8:	080d0b03 	stmdaeq	sp, {r0, r1, r8, r9, fp}
    4abc:	00020000 	andeq	r0, r2, r0
    4ac0:	000ac605 	andeq	ip, sl, r5, lsl #12
    4ac4:	03150400 	tsteq	r5, #0, 8
    4ac8:	000000d0 	ldrdeq	r0, [r0], -r0	; <UNPREDICTABLE>
    4acc:	000a640c 	andeq	r6, sl, ip, lsl #8
    4ad0:	171d0100 	ldrne	r0, [sp, -r0, lsl #2]
    4ad4:	0000003a 	andeq	r0, r0, sl, lsr r0
    4ad8:	2020001c 	eorcs	r0, r0, ip, lsl r0
    4adc:	000a5a0c 	andeq	r5, sl, ip, lsl #20
    4ae0:	171e0100 	ldrne	r0, [lr, -r0, lsl #2]
    4ae4:	0000003a 	andeq	r0, r0, sl, lsr r0
    4ae8:	20200028 	eorcs	r0, r0, r8, lsr #32
    4aec:	000ad20c 	andeq	sp, sl, ip, lsl #4
    4af0:	171f0100 	ldrne	r0, [pc, -r0, lsl #2]
    4af4:	0000003a 	andeq	r0, r0, sl, lsr r0
    4af8:	20200034 	eorcs	r0, r0, r4, lsr r0
    4afc:	000a830d 	andeq	r8, sl, sp, lsl #6
    4b00:	05510100 	ldrbeq	r0, [r1, #-256]	; 0xffffff00
    4b04:	00000033 	andeq	r0, r0, r3, lsr r0
    4b08:	00009fe0 	andeq	r9, r0, r0, ror #31
    4b0c:	00000028 	andeq	r0, r0, r8, lsr #32
    4b10:	01ba9c01 			; <UNDEFINED> instruction: 0x01ba9c01
    4b14:	700e0000 	andvc	r0, lr, r0
    4b18:	01006e69 	tsteq	r0, r9, ror #28
    4b1c:	002c1851 	eoreq	r1, ip, r1, asr r8
    4b20:	2f290000 	svccs	0x00290000
    4b24:	2f230000 	svccs	0x00230000
    4b28:	dc0f0000 	stcle	0, cr0, [pc], {-0}
    4b2c:	0100000a 	tsteq	r0, sl
    4b30:	002c0e52 	eoreq	r0, ip, r2, asr lr
    4b34:	2f5f0000 	svccs	0x005f0000
    4b38:	2f550000 	svccs	0x00550000
    4b3c:	6f100000 	svcvs	0x00100000
    4b40:	01006666 	tsteq	r0, r6, ror #12
    4b44:	002c0e53 	eoreq	r0, ip, r3, asr lr
    4b48:	2fcd0000 	svccs	0x00cd0000
    4b4c:	2fc70000 	svccs	0x00c70000
    4b50:	f4110000 			; <UNDEFINED> instruction: 0xf4110000
    4b54:	5e00009f 	mcrpl	0, 0, r0, cr0, cr15, {4}
    4b58:	12000006 	andne	r0, r0, #6, 0
    4b5c:	740a5001 	strvc	r5, [sl], #-1
    4b60:	23253500 			; <UNDEFINED> instruction: 0x23253500
    4b64:	818080b4 	strhhi	r8, [r0, r4]
    4b68:	13000002 	movwne	r0, #2
    4b6c:	00000a6e 	andeq	r0, r0, lr, ror #20
    4b70:	b0064a01 	andlt	r4, r6, r1, lsl #20
    4b74:	3000009f 	mulcc	r0, pc, r0	; <UNPREDICTABLE>
    4b78:	01000000 	mrseq	r0, (UNDEF: 0)
    4b7c:	0002759c 	muleq	r2, ip, r5
    4b80:	69700e00 	ldmdbvs	r0!, {r9, sl, fp}^
    4b84:	4a01006e 	bmi	44d44 <__bss_end__+0x39f5c>
    4b88:	00002c1a 	andeq	r2, r0, sl, lsl ip
    4b8c:	00300a00 	eorseq	r0, r0, r0, lsl #20
    4b90:	002ffe00 	eoreq	pc, pc, r0, lsl #28
    4b94:	00760e00 	rsbseq	r0, r6, r0, lsl #28
    4b98:	2c284a01 			; <UNDEFINED> instruction: 0x2c284a01
    4b9c:	5e000000 	cdppl	0, 0, cr0, cr0, cr0, {0}
    4ba0:	5a000030 	bpl	4c68 <__code_start__-0x3398>
    4ba4:	14000030 	strne	r0, [r0], #-48	; 0xffffffd0
    4ba8:	0000038d 	andeq	r0, r0, sp, lsl #7
    4bac:	00009fc0 	andeq	r9, r0, r0, asr #31
    4bb0:	0007c801 	andeq	ip, r7, r1, lsl #16
    4bb4:	094c0100 	stmdbeq	ip, {r8}^
    4bb8:	00000235 	andeq	r0, r0, r5, lsr r2
    4bbc:	00039a15 	andeq	r9, r3, r5, lsl sl
    4bc0:	00308500 	eorseq	r8, r0, r0, lsl #10
    4bc4:	00307f00 	eorseq	r7, r0, r0, lsl #30
    4bc8:	9fcc1600 	svcls	0x00cc1600
    4bcc:	066a0000 	strbteq	r0, [sl], -r0
    4bd0:	01120000 	tsteq	r2, r0
    4bd4:	1c0c0550 	cfstr32ne	mvfx0, [ip], {80}	; 0x50
    4bd8:	12202000 	eorne	r2, r0, #0, 0
    4bdc:	31055101 	tstcc	r5, r1, lsl #2
    4be0:	245001f3 	ldrbcs	r0, [r0], #-499	; 0xfffffe0d
    4be4:	73170000 	tstvc	r7, #0, 0
    4be8:	cc000003 	stcgt	0, cr0, [r0], {3}
    4bec:	0200009f 	andeq	r0, r0, #159, 0	; 0x9f
    4bf0:	00009fcc 	andeq	r9, r0, ip, asr #31
    4bf4:	00000014 	andeq	r0, r0, r4, lsl r0
    4bf8:	15094e01 	strne	r4, [r9, #-3585]	; 0xfffff1ff
    4bfc:	00000380 	andeq	r0, r0, r0, lsl #7
    4c00:	000030b7 	strheq	r3, [r0], -r7
    4c04:	000030b1 	strheq	r3, [r0], -r1
    4c08:	009fd816 	addseq	sp, pc, r6, lsl r8	; <UNPREDICTABLE>
    4c0c:	00066a00 	andeq	r6, r6, r0, lsl #20
    4c10:	50011200 	andpl	r1, r1, r0, lsl #4
    4c14:	00280c05 	eoreq	r0, r8, r5, lsl #24
    4c18:	01122020 	tsteq	r2, r0, lsr #32
    4c1c:	f3310551 	vqrshl.u64	q0, <illegal reg q0.5>, <illegal reg q0.5>
    4c20:	00245001 	eoreq	r5, r4, r1
    4c24:	9a130000 	bls	4c4c2c <__bss_end__+0x4b9e44>
    4c28:	0100000a 	tsteq	r0, sl
    4c2c:	9f580645 	svcls	0x00580645
    4c30:	00580000 	subseq	r0, r8, r0
    4c34:	9c010000 	stcls	0, cr0, [r1], {-0}
    4c38:	00000373 	andeq	r0, r0, r3, ror r3
    4c3c:	6e69700e 	cdpvs	0, 6, cr7, cr9, cr14, {0}
    4c40:	1e450100 	dvfnes	f0, f5, f0
    4c44:	0000002c 	andeq	r0, r0, ip, lsr #32
    4c48:	000030e9 	andeq	r3, r0, r9, ror #1
    4c4c:	000030e3 	andeq	r3, r0, r3, ror #1
    4c50:	0004a518 	andeq	sl, r4, r8, lsl r5
    4c54:	009f5800 	addseq	r5, pc, r0, lsl #16
    4c58:	07880200 	streq	r0, [r8, r0, lsl #4]
    4c5c:	46010000 	strmi	r0, [r1], -r0
    4c60:	04be1905 	ldrteq	r1, [lr], #2309	; 0x905
    4c64:	15000000 	strne	r0, [r0, #-0]
    4c68:	000004b2 			; <UNDEFINED> instruction: 0x000004b2
    4c6c:	0000311b 	andeq	r3, r0, fp, lsl r1
    4c70:	00003115 	andeq	r3, r0, r5, lsl r1
    4c74:	0007881a 	andeq	r8, r7, sl, lsl r8
    4c78:	04ca1b00 	strbeq	r1, [sl], #2816	; 0xb00
    4c7c:	d61b0000 	ldrle	r0, [fp], -r0
    4c80:	1b000004 	blne	4c98 <__code_start__-0x3368>
    4c84:	000004e0 	andeq	r0, r0, r0, ror #9
    4c88:	0004a518 	andeq	sl, r4, r8, lsl r5
    4c8c:	009f6000 	addseq	r6, pc, r0
    4c90:	07a80000 	streq	r0, [r8, r0]!
    4c94:	28010000 	stmdacs	r1, {}	; <UNPREDICTABLE>
    4c98:	04be1906 	ldrteq	r1, [lr], #2310	; 0x906
    4c9c:	15000000 	strne	r0, [r0, #-0]
    4ca0:	000004b2 			; <UNDEFINED> instruction: 0x000004b2
    4ca4:	0000314d 	andeq	r3, r0, sp, asr #2
    4ca8:	00003147 	andeq	r3, r0, r7, asr #2
    4cac:	0007a81a 	andeq	sl, r7, sl, lsl r8
    4cb0:	04ca1c00 	strbeq	r1, [sl], #3072	; 0xc00
    4cb4:	317f0000 	cmncc	pc, r0
    4cb8:	31790000 	cmncc	r9, r0
    4cbc:	d61c0000 	ldrle	r0, [ip], -r0
    4cc0:	c1000004 	tstgt	r0, r4
    4cc4:	bb000031 	bllt	4d90 <__code_start__-0x3270>
    4cc8:	1c000031 	stcne	0, cr0, [r0], {49}	; 0x31
    4ccc:	000004e0 	andeq	r0, r0, r0, ror #9
    4cd0:	00003217 	andeq	r3, r0, r7, lsl r2
    4cd4:	0000320f 	andeq	r3, r0, pc, lsl #4
    4cd8:	009f881d 	addseq	r8, pc, sp, lsl r8	; <UNPREDICTABLE>
    4cdc:	00065e00 	andeq	r5, r6, r0, lsl #28
    4ce0:	00033b00 	andeq	r3, r3, r0, lsl #22
    4ce4:	50011200 	andpl	r1, r1, r0, lsl #4
    4ce8:	00007602 	andeq	r7, r0, r2, lsl #12
    4cec:	009fac16 	addseq	sl, pc, r6, lsl ip	; <UNPREDICTABLE>
    4cf0:	00066a00 	andeq	r6, r6, r0, lsl #20
    4cf4:	50011200 	andpl	r1, r1, r0, lsl #4
    4cf8:	5001f325 	andpl	pc, r1, r5, lsr #6
    4cfc:	25f72cf7 	ldrbcs	r2, [r7, #3319]!	; 0xcf7
    4d00:	cd0825f4 	cfstr32gt	mvfx2, [r8, #-976]	; 0xfffffc30
    4d04:	00cccccc 	sbceq	ip, ip, ip, asr #25
    4d08:	1e000000 	cdpne	0, 0, cr0, cr0, cr0, {0}
    4d0c:	25f72008 	ldrbcs	r2, [r7, #8]!
    4d10:	f72cf725 			; <UNDEFINED> instruction: 0xf72cf725
    4d14:	23253300 			; <UNDEFINED> instruction: 0x23253300
    4d18:	40a08080 	adcmi	r8, r0, r0, lsl #1
    4d1c:	00002432 	andeq	r2, r0, r2, lsr r4
    4d20:	00000000 	andeq	r0, r0, r0
    4d24:	000aa91e 	andeq	sl, sl, lr, lsl r9
    4d28:	0d400100 	stfeqe	f0, [r0, #-0]
    4d2c:	00038d03 	andeq	r8, r3, r3, lsl #26
    4d30:	69701f00 	ldmdbvs	r0!, {r8, r9, sl, fp, ip}^
    4d34:	4001006e 	andmi	r0, r1, lr, rrx
    4d38:	00002c23 	andeq	r2, r0, r3, lsr #24
    4d3c:	e11e0000 	tst	lr, r0
    4d40:	0100000a 	tsteq	r0, sl
    4d44:	a7030d3b 	smladxge	r3, fp, sp, r0
    4d48:	1f000003 	svcne	0x00000003
    4d4c:	006e6970 	rsbeq	r6, lr, r0, ror r9
    4d50:	2c223b01 			; <UNDEFINED> instruction: 0x2c223b01
    4d54:	00000000 	andeq	r0, r0, r0
    4d58:	000ab613 	andeq	fp, sl, r3, lsl r6
    4d5c:	06360100 	ldrteq	r0, [r6], -r0, lsl #2
    4d60:	00009ed0 	ldrdeq	r9, [r0], -r0
    4d64:	00000058 	andeq	r0, r0, r8, asr r0
    4d68:	04a59c01 	strteq	r9, [r5], #3073	; 0xc01
    4d6c:	700e0000 	andvc	r0, lr, r0
    4d70:	01006e69 	tsteq	r0, r9, ror #28
    4d74:	002c1f36 	eoreq	r1, ip, r6, lsr pc
    4d78:	32750000 	rsbscc	r0, r5, #0, 0
    4d7c:	32710000 	rsbscc	r0, r1, #0, 0
    4d80:	a5180000 	ldrge	r0, [r8, #-0]
    4d84:	d0000004 	andle	r0, r0, r4
    4d88:	0200009e 	andeq	r0, r0, #158, 0	; 0x9e
    4d8c:	00000748 	andeq	r0, r0, r8, asr #14
    4d90:	19053701 	stmdbne	r5, {r0, r8, r9, sl, ip, sp}
    4d94:	000004be 			; <UNDEFINED> instruction: 0x000004be
    4d98:	04b21501 	ldrteq	r1, [r2], #1281	; 0x501
    4d9c:	329a0000 	addscc	r0, sl, #0, 0
    4da0:	32960000 	addscc	r0, r6, #0, 0
    4da4:	481a0000 	ldmdami	sl, {}	; <UNPREDICTABLE>
    4da8:	1b000007 	blne	4dcc <__code_start__-0x3234>
    4dac:	000004ca 	andeq	r0, r0, sl, asr #9
    4db0:	0004d61b 	andeq	sp, r4, fp, lsl r6
    4db4:	04e01b00 	strbteq	r1, [r0], #2816	; 0xb00
    4db8:	a5180000 	ldrge	r0, [r8, #-0]
    4dbc:	d8000004 	stmdale	r0, {r2}
    4dc0:	0000009e 	muleq	r0, lr, r0
    4dc4:	00000768 	andeq	r0, r0, r8, ror #14
    4dc8:	19062801 	stmdbne	r6, {r0, fp, sp}
    4dcc:	000004be 			; <UNDEFINED> instruction: 0x000004be
    4dd0:	04b21501 	ldrteq	r1, [r2], #1281	; 0x501
    4dd4:	32bf0000 	adcscc	r0, pc, #0, 0
    4dd8:	32bb0000 	adcscc	r0, fp, #0, 0
    4ddc:	681a0000 	ldmdavs	sl, {}	; <UNPREDICTABLE>
    4de0:	1c000007 	stcne	0, cr0, [r0], {7}
    4de4:	000004ca 	andeq	r0, r0, sl, asr #9
    4de8:	000032e4 	andeq	r3, r0, r4, ror #5
    4dec:	000032e0 	andeq	r3, r0, r0, ror #5
    4df0:	0004d61c 	andeq	sp, r4, ip, lsl r6
    4df4:	00333000 	eorseq	r3, r3, r0
    4df8:	00332a00 	eorseq	r2, r3, r0, lsl #20
    4dfc:	04e01c00 	strbteq	r1, [r0], #3072	; 0xc00
    4e00:	33860000 	orrcc	r0, r6, #0, 0
    4e04:	337e0000 	cmncc	lr, #0, 0
    4e08:	041d0000 	ldreq	r0, [sp], #-0
    4e0c:	5e00009f 	mcrpl	0, 0, r0, cr0, cr15, {4}
    4e10:	6d000006 	stcvs	0, cr0, [r0, #-24]	; 0xffffffe8
    4e14:	12000004 	andne	r0, r0, #4, 0
    4e18:	75025001 	strvc	r5, [r2, #-1]
    4e1c:	24160000 	ldrcs	r0, [r6], #-0
    4e20:	6a00009f 	bvs	50a4 <__code_start__-0x2f5c>
    4e24:	12000006 	andne	r0, r0, #6, 0
    4e28:	f3255001 	vhadd.u32	d5, d5, d1
    4e2c:	2cf75001 	ldclcs	0, cr5, [r7], #4
    4e30:	25f425f7 	ldrbcs	r2, [r4, #1527]!	; 0x5f7
    4e34:	cccccd08 	stclgt	13, cr12, [ip], {8}
    4e38:	000000cc 	andeq	r0, r0, ip, asr #1
    4e3c:	20081e00 	andcs	r1, r8, r0, lsl #28
    4e40:	f72525f7 			; <UNDEFINED> instruction: 0xf72525f7
    4e44:	3300f72c 	movwcc	pc, #1836	; 0x72c	; <UNPREDICTABLE>
    4e48:	80802325 	addhi	r2, r0, r5, lsr #6
    4e4c:	243240a0 	ldrtcs	r4, [r2], #-160	; 0xffffff60
    4e50:	00000000 	andeq	r0, r0, r0
    4e54:	661e0000 	ldrvs	r0, [lr], -r0
    4e58:	01000009 	tsteq	r0, r9
    4e5c:	eb010628 	bl	46704 <__bss_end__+0x3b91c>
    4e60:	1f000004 	svcne	0x00000004
    4e64:	006e6970 	rsbeq	r6, lr, r0, ror r9
    4e68:	2c212801 	stccs	8, cr2, [r1], #-4
    4e6c:	20000000 	andcs	r0, r0, r0
    4e70:	0000004c 	andeq	r0, r0, ip, asr #32
    4e74:	0f322801 	svceq	0x00322801
    4e78:	21000001 	tstcs	r0, r1
    4e7c:	0066666f 	rsbeq	r6, r6, pc, ror #12
    4e80:	2c0e2d01 	stccs	13, cr2, [lr], {1}
    4e84:	21000000 	mrscs	r0, (UNDEF: 0)
    4e88:	2e010067 	cdpcs	0, 0, cr0, cr1, cr7, {3}
    4e8c:	00002c0e 	andeq	r2, r0, lr, lsl #24
    4e90:	00762100 	rsbseq	r2, r6, r0, lsl #2
    4e94:	2c0e3001 	stccs	0, cr3, [lr], {1}
    4e98:	00000000 	andeq	r0, r0, r0
    4e9c:	000a7922 	andeq	r7, sl, r2, lsr #18
    4ea0:	18b10200 	ldmne	r1!, {r9}
    4ea4:	00000069 	andeq	r0, r0, r9, rrx
    4ea8:	00050703 	andeq	r0, r5, r3, lsl #14
    4eac:	00781f00 	rsbseq	r1, r8, r0, lsl #30
    4eb0:	692bb102 	stmdbvs	fp!, {r1, r8, ip, sp, pc}
    4eb4:	00000000 	andeq	r0, r0, r0
    4eb8:	0004a523 	andeq	sl, r4, r3, lsr #10
    4ebc:	009e7000 	addseq	r7, lr, r0
    4ec0:	00006000 	andeq	r6, r0, r0
    4ec4:	e49c0100 	ldr	r0, [ip], #256	; 0x100
    4ec8:	15000005 	strne	r0, [r0, #-5]
    4ecc:	000004b2 			; <UNDEFINED> instruction: 0x000004b2
    4ed0:	000033c5 	andeq	r3, r0, r5, asr #7
    4ed4:	000033c1 	andeq	r3, r0, r1, asr #7
    4ed8:	0004be15 	andeq	fp, r4, r5, lsl lr
    4edc:	0033ea00 	eorseq	lr, r3, r0, lsl #20
    4ee0:	0033e600 	eorseq	lr, r3, r0, lsl #12
    4ee4:	04ca1b00 	strbeq	r1, [sl], #2816	; 0xb00
    4ee8:	d61b0000 	ldrle	r0, [fp], -r0
    4eec:	1b000004 	blne	4f04 <__code_start__-0x30fc>
    4ef0:	000004e0 	andeq	r0, r0, r0, ror #9
    4ef4:	0004a518 	andeq	sl, r4, r8, lsl r5
    4ef8:	009e7800 	addseq	r7, lr, r0, lsl #16
    4efc:	07280000 	streq	r0, [r8, -r0]!
    4f00:	28010000 	stmdacs	r1, {}	; <UNPREDICTABLE>
    4f04:	04be1506 	ldrteq	r1, [lr], #1286	; 0x506
    4f08:	340f0000 	strcc	r0, [pc], #-0	; 4f10 <__code_start__-0x30f0>
    4f0c:	340b0000 	strcc	r0, [fp], #-0
    4f10:	b2150000 	andslt	r0, r5, #0, 0
    4f14:	34000004 	strcc	r0, [r0], #-4
    4f18:	30000034 	andcc	r0, r0, r4, lsr r0
    4f1c:	1a000034 	bne	4ff4 <__code_start__-0x300c>
    4f20:	00000728 	andeq	r0, r0, r8, lsr #14
    4f24:	0004ca1c 	andeq	ip, r4, ip, lsl sl
    4f28:	00345900 	eorseq	r5, r4, r0, lsl #18
    4f2c:	00345500 	eorseq	r5, r4, r0, lsl #10
    4f30:	04d61c00 	ldrbeq	r1, [r6], #3072	; 0xc00
    4f34:	34a50000 	strtcc	r0, [r5], #0
    4f38:	349f0000 	ldrcc	r0, [pc], #0	; 4f40 <__code_start__-0x30c0>
    4f3c:	e01c0000 	ands	r0, ip, r0
    4f40:	fb000004 	blx	4f5a <__code_start__-0x30a6>
    4f44:	f3000034 	vqadd.u8	d0, d0, d20
    4f48:	1d000034 	stcne	0, cr0, [r0, #-208]	; 0xffffff30
    4f4c:	00009eb0 			; <UNDEFINED> instruction: 0x00009eb0
    4f50:	0000065e 	andeq	r0, r0, lr, asr r6
    4f54:	000005ae 	andeq	r0, r0, lr, lsr #11
    4f58:	02500112 	subseq	r0, r0, #-2147483644	; 0x80000004
    4f5c:	16000076 			; <UNDEFINED> instruction: 0x16000076
    4f60:	00009ecc 	andeq	r9, r0, ip, asr #29
    4f64:	0000066a 	andeq	r0, r0, sl, ror #12
    4f68:	25500112 	ldrbcs	r0, [r0, #-274]	; 0xfffffeee
    4f6c:	f75001f3 			; <UNDEFINED> instruction: 0xf75001f3
    4f70:	f425f72c 	vld1.8	{d15}, [r5 :128], ip
    4f74:	cccd0825 	stclgt	8, cr0, [sp], {37}	; 0x25
    4f78:	0000cccc 	andeq	ip, r0, ip, asr #25
    4f7c:	081e0000 	ldmdaeq	lr, {}	; <UNPREDICTABLE>
    4f80:	2525f720 	strcs	pc, [r5, #-1824]!	; 0xfffff8e0
    4f84:	00f72cf7 	ldrshteq	r2, [r7], #199	; 0xc7
    4f88:	80232533 	eorhi	r2, r3, r3, lsr r5
    4f8c:	3240a080 	subcc	sl, r0, #128, 0	; 0x80
    4f90:	00000024 	andeq	r0, r0, r4, lsr #32
    4f94:	038d2300 	orreq	r2, sp, #0, 6
    4f98:	9f280000 	svcls	0x00280000
    4f9c:	00180000 	andseq	r0, r8, r0
    4fa0:	9c010000 	stcls	0, cr0, [r1], {-0}
    4fa4:	00000621 	andeq	r0, r0, r1, lsr #12
    4fa8:	00039a15 	andeq	r9, r3, r5, lsl sl
    4fac:	00355100 	eorseq	r5, r5, r0, lsl #2
    4fb0:	00354b00 	eorseq	r4, r5, r0, lsl #22
    4fb4:	9f3c1600 	svcls	0x003c1600
    4fb8:	066a0000 	strbteq	r0, [sl], -r0
    4fbc:	01120000 	tsteq	r2, r0
    4fc0:	1c0c0550 	cfstr32ne	mvfx0, [ip], {80}	; 0x50
    4fc4:	12202000 	eorne	r2, r0, #0, 0
    4fc8:	31055101 	tstcc	r5, r1, lsl #2
    4fcc:	245001f3 	ldrbcs	r0, [r0], #-499	; 0xfffffe0d
    4fd0:	73230000 			; <UNDEFINED> instruction: 0x73230000
    4fd4:	40000003 	andmi	r0, r0, r3
    4fd8:	1800009f 	stmdane	r0, {r0, r1, r2, r3, r4, r7}
    4fdc:	01000000 	mrseq	r0, (UNDEF: 0)
    4fe0:	00065e9c 	muleq	r6, ip, lr
    4fe4:	03801500 	orreq	r1, r0, #0, 10
    4fe8:	35830000 	strcc	r0, [r3]
    4fec:	357d0000 	ldrbcc	r0, [sp, #-0]!
    4ff0:	54160000 	ldrpl	r0, [r6], #-0
    4ff4:	6a00009f 	bvs	5278 <__code_start__-0x2d88>
    4ff8:	12000006 	andne	r0, r0, #6, 0
    4ffc:	0c055001 	stceq	0, cr5, [r5], {1}
    5000:	20200028 	eorcs	r0, r0, r8, lsr #32
    5004:	05510112 	ldrbeq	r0, [r1, #-274]	; 0xfffffeee
    5008:	5001f331 	andpl	pc, r1, r1, lsr r3	; <UNPREDICTABLE>
    500c:	24000024 	strcs	r0, [r0], #-36	; 0xffffffdc
    5010:	0000073b 	andeq	r0, r0, fp, lsr r7
    5014:	0000073b 	andeq	r0, r0, fp, lsr r7
    5018:	240ac202 	strcs	ip, [sl], #-514	; 0xfffffdfe
    501c:	000006a7 	andeq	r0, r0, r7, lsr #13
    5020:	000006a7 	andeq	r0, r0, r7, lsr #13
    5024:	0006ad02 	andeq	sl, r6, r2, lsl #26
    5028:	00000149 	andeq	r0, r0, r9, asr #2
    502c:	1bbe0004 	blne	fef85044 <__bss_end__+0xfef7a25c>
    5030:	01040000 	mrseq	r0, (UNDEF: 4)
    5034:	0000016a 	andeq	r0, r0, sl, ror #2
    5038:	000b0b0c 	andeq	r0, fp, ip, lsl #22
    503c:	0004b600 	andeq	fp, r4, r0, lsl #12
    5040:	00a00800 	adceq	r0, r0, r0, lsl #16
    5044:	00003c00 	andeq	r3, r0, r0, lsl #24
    5048:	00275f00 	eoreq	r5, r7, r0, lsl #30
    504c:	05040200 	streq	r0, [r4, #-512]	; 0xfffffe00
    5050:	00746e69 	rsbseq	r6, r4, r9, ror #28
    5054:	2b070403 	blcs	1c6068 <__bss_end__+0x1bb280>
    5058:	03000001 	movweq	r0, #1
    505c:	00c30601 	sbceq	r0, r3, r1, lsl #12
    5060:	02030000 	andeq	r0, r3, #0, 0
    5064:	00002105 	andeq	r2, r0, r5, lsl #2
    5068:	05040300 	streq	r0, [r4, #-768]	; 0xfffffd00
    506c:	00000056 	andeq	r0, r0, r6, asr r0
    5070:	51050803 	tstpl	r5, r3, lsl #16
    5074:	03000000 	movweq	r0, #0
    5078:	00c10801 	sbceq	r0, r1, r1, lsl #16
    507c:	02030000 	andeq	r0, r3, #0, 0
    5080:	00015207 	andeq	r5, r1, r7, lsl #4
    5084:	07040300 	streq	r0, [r4, -r0, lsl #6]
    5088:	00000126 	andeq	r0, r0, r6, lsr #2
    508c:	21070803 	tstcs	r7, r3, lsl #16
    5090:	04000001 	streq	r0, [r0], #-1
    5094:	00000025 	andeq	r0, r0, r5, lsr #32
    5098:	0000007a 	andeq	r0, r0, sl, ror r0
    509c:	00002505 	andeq	r2, r0, r5, lsl #10
    50a0:	2b060000 	blcs	1850a8 <__bss_end__+0x17a2c0>
    50a4:	02000000 	andeq	r0, r0, #0, 0
    50a8:	00860e1c 	addeq	r0, r6, ip, lsl lr
    50ac:	04070000 	streq	r0, [r7], #-0
    50b0:	0000006b 	andeq	r0, r0, fp, rrx
    50b4:	00002504 	andeq	r2, r0, r4, lsl #10
    50b8:	00009b00 	andeq	r9, r0, r0, lsl #22
    50bc:	009b0500 	addseq	r0, fp, r0, lsl #10
    50c0:	07000000 	streq	r0, [r0, -r0]
    50c4:	0000a804 	andeq	sl, r0, r4, lsl #16
    50c8:	08010300 	stmdaeq	r1, {r8, r9}
    50cc:	000000ca 	andeq	r0, r0, sl, asr #1
    50d0:	0000a108 	andeq	sl, r0, r8, lsl #2
    50d4:	051e0600 	ldreq	r0, [lr, #-1536]	; 0xfffffa00
    50d8:	21020000 	mrscs	r0, (UNDEF: 2)
    50dc:	0000b90e 	andeq	fp, r0, lr, lsl #18
    50e0:	8c040700 	stchi	7, cr0, [r4], {-0}
    50e4:	09000000 	stmdbeq	r0, {}	; <UNPREDICTABLE>
    50e8:	0000007a 	andeq	r0, r0, sl, ror r0
    50ec:	05070601 	streq	r0, [r7, #-1537]	; 0xfffff9ff
    50f0:	00a9bc03 	adceq	fp, r9, r3, lsl #24
    50f4:	0afe0a00 	beq	fff878fc <__bss_end__+0xfff7cb14>
    50f8:	0b010000 	bleq	45100 <__bss_end__+0x3a318>
    50fc:	00a03406 	adceq	r3, r0, r6, lsl #8
    5100:	00001000 	andeq	r1, r0, r0
    5104:	f19c0100 			; <UNDEFINED> instruction: 0xf19c0100
    5108:	0b000000 	bleq	5110 <__code_start__-0x2ef0>
    510c:	01007066 	tsteq	r0, r6, rrx
    5110:	0086190b 	addeq	r1, r6, fp, lsl #18
    5114:	50010000 	andpl	r0, r1, r0
    5118:	0a3b0c00 	beq	ec8120 <__bss_end__+0xebd338>
    511c:	08010000 	stmdaeq	r1, {}	; <UNPREDICTABLE>
    5120:	00a01c06 	adceq	r1, r0, r6, lsl #24
    5124:	00001800 	andeq	r1, r0, r0, lsl #16
    5128:	0d9c0100 	ldfeqs	f0, [ip]
    512c:	00000aed 	andeq	r0, r0, sp, ror #21
    5130:	250c0301 	strcs	r0, [ip, #-769]	; 0xfffffcff
    5134:	08000000 	stmdaeq	r0, {}	; <UNPREDICTABLE>
    5138:	140000a0 	strne	r0, [r0], #-160	; 0xffffff60
    513c:	01000000 	mrseq	r0, (UNDEF: 0)
    5140:	0001409c 	muleq	r1, ip, r0
    5144:	00630e00 	rsbeq	r0, r3, r0, lsl #28
    5148:	25210301 	strcs	r0, [r1, #-769]!	; 0xfffffcff
    514c:	b3000000 	movwlt	r0, #0
    5150:	af000035 	svcge	0x00000035
    5154:	0f000035 	svceq	0x00000035
    5158:	0000a014 	andeq	sl, r0, r4, lsl r0
    515c:	00000140 	andeq	r0, r0, r0, asr #2
    5160:	02500110 	subseq	r0, r0, #4
    5164:	00000074 	andeq	r0, r0, r4, ror r0
    5168:	00094c11 	andeq	r4, r9, r1, lsl ip
    516c:	00094c00 	andeq	r4, r9, r0, lsl #24
    5170:	06420200 	strbeq	r0, [r2], -r0, lsl #4
    5174:	00013700 	andeq	r3, r1, r0, lsl #14
    5178:	cd000400 	cfstrsgt	mvf0, [r0, #-0]
    517c:	0400001c 	streq	r0, [r0], #-28	; 0xffffffe4
    5180:	00016a01 	andeq	r6, r1, r1, lsl #20
    5184:	0b1c0c00 	bleq	70818c <__bss_end__+0x6fd3a4>
    5188:	04b60000 	ldrteq	r0, [r6], #0
    518c:	a0440000 	subge	r0, r4, r0
    5190:	002c0000 	eoreq	r0, ip, r0
    5194:	28010000 	stmdacs	r1, {}	; <UNPREDICTABLE>
    5198:	04020000 	streq	r0, [r2], #-0
    519c:	746e6905 	strbtvc	r6, [lr], #-2309	; 0xfffff6fb
    51a0:	07040300 	streq	r0, [r4, -r0, lsl #6]
    51a4:	0000012b 	andeq	r0, r0, fp, lsr #2
    51a8:	c3060103 	movwgt	r0, #24835	; 0x6103
    51ac:	03000000 	movweq	r0, #0
    51b0:	00210502 	eoreq	r0, r1, r2, lsl #10
    51b4:	04030000 	streq	r0, [r3], #-0
    51b8:	00005605 	andeq	r5, r0, r5, lsl #12
    51bc:	05080300 	streq	r0, [r8, #-768]	; 0xfffffd00
    51c0:	00000051 	andeq	r0, r0, r1, asr r0
    51c4:	c1080103 	tstgt	r8, r3, lsl #2
    51c8:	03000000 	movweq	r0, #0
    51cc:	01520702 	cmpeq	r2, r2, lsl #14
    51d0:	04030000 	streq	r0, [r3], #-0
    51d4:	00012607 	andeq	r2, r1, r7, lsl #12
    51d8:	07080300 	streq	r0, [r8, -r0, lsl #6]
    51dc:	00000121 	andeq	r0, r0, r1, lsr #2
    51e0:	00002504 	andeq	r2, r0, r4, lsl #10
    51e4:	00007a00 	andeq	r7, r0, r0, lsl #20
    51e8:	00250500 	eoreq	r0, r5, r0, lsl #10
    51ec:	06000000 	streq	r0, [r0], -r0
    51f0:	0000002b 	andeq	r0, r0, fp, lsr #32
    51f4:	860e1c02 	strhi	r1, [lr], -r2, lsl #24
    51f8:	07000000 	streq	r0, [r0, -r0]
    51fc:	00006b04 	andeq	r6, r0, r4, lsl #22
    5200:	00250400 	eoreq	r0, r5, r0, lsl #8
    5204:	009b0000 	addseq	r0, fp, r0
    5208:	9b050000 	blls	145210 <__bss_end__+0x13a428>
    520c:	00000000 	andeq	r0, r0, r0
    5210:	00a80407 	adceq	r0, r8, r7, lsl #8
    5214:	01030000 	mrseq	r0, (UNDEF: 3)
    5218:	0000ca08 	andeq	ip, r0, r8, lsl #20
    521c:	00a10800 	adceq	r0, r1, r0, lsl #16
    5220:	1e060000 	cdpne	0, 0, cr0, cr6, cr0, {0}
    5224:	02000005 	andeq	r0, r0, #5, 0
    5228:	00b90e21 	adcseq	r0, r9, r1, lsr #28
    522c:	04070000 	streq	r0, [r7], #-0
    5230:	0000008c 	andeq	r0, r0, ip, lsl #1
    5234:	00059a09 	andeq	r9, r5, r9, lsl #20
    5238:	07040100 	streq	r0, [r4, -r0, lsl #2]
    523c:	00000134 	andeq	r0, r0, r4, lsr r1
    5240:	0000a044 	andeq	sl, r0, r4, asr #32
    5244:	0000002c 	andeq	r0, r0, ip, lsr #32
    5248:	01349c01 	teqeq	r4, r1, lsl #24
    524c:	2c0a0000 	stccs	0, cr0, [sl], {-0}
    5250:	0100000b 	tsteq	r0, fp
    5254:	01341504 	teqeq	r4, r4, lsl #10
    5258:	50010000 	andpl	r0, r1, r0
    525c:	6372730b 	cmnvs	r2, #738197504	; 0x2c000000
    5260:	27040100 	strcs	r0, [r4, -r0, lsl #2]
    5264:	0000009b 	muleq	r0, fp, r0
    5268:	000035d5 	ldrdeq	r3, [r0], -r5
    526c:	000035d1 	ldrdeq	r3, [r0], -r1
    5270:	0031730c 	eorseq	r7, r1, ip, lsl #6
    5274:	340b0501 	strcc	r0, [fp], #-1281	; 0xfffffaff
    5278:	04000001 	streq	r0, [r0], #-1
    527c:	f6000036 			; <UNDEFINED> instruction: 0xf6000036
    5280:	0c000035 	stceq	0, cr0, [r0], {53}	; 0x35
    5284:	01003273 	tsteq	r0, r3, ror r2
    5288:	009b1106 	addseq	r1, fp, r6, lsl #2
    528c:	36630000 	strbtcc	r0, [r3], -r0
    5290:	365d0000 	ldrbcc	r0, [sp], -r0
    5294:	630c0000 	movwvs	r0, #49152	; 0xc000
    5298:	0a070100 	beq	1c56a0 <__bss_end__+0x1ba8b8>
    529c:	000000a1 	andeq	r0, r0, r1, lsr #1
    52a0:	00003694 	muleq	r0, r4, r6
    52a4:	0000368e 	andeq	r3, r0, lr, lsl #13
    52a8:	a1040700 	tstge	r4, r0, lsl #14
    52ac:	00000000 	andeq	r0, r0, r0
    52b0:	000000f7 	strdeq	r0, [r0], -r7
    52b4:	1d830004 	stcne	0, cr0, [r3, #16]
    52b8:	01040000 	mrseq	r0, (UNDEF: 4)
    52bc:	0000016a 	andeq	r0, r0, sl, ror #2
    52c0:	000b310c 	andeq	r3, fp, ip, lsl #2
    52c4:	0004b600 	andeq	fp, r4, r0, lsl #12
    52c8:	00a07000 	adceq	r7, r0, r0
    52cc:	00004400 	andeq	r4, r0, r0, lsl #8
    52d0:	0028e700 	eoreq	lr, r8, r0, lsl #14
    52d4:	05040200 	streq	r0, [r4, #-512]	; 0xfffffe00
    52d8:	00746e69 	rsbseq	r6, r4, r9, ror #28
    52dc:	2b070403 	blcs	1c62f0 <__bss_end__+0x1bb508>
    52e0:	03000001 	movweq	r0, #1
    52e4:	00c30601 	sbceq	r0, r3, r1, lsl #12
    52e8:	02030000 	andeq	r0, r3, #0, 0
    52ec:	00002105 	andeq	r2, r0, r5, lsl #2
    52f0:	05040300 	streq	r0, [r4, #-768]	; 0xfffffd00
    52f4:	00000056 	andeq	r0, r0, r6, asr r0
    52f8:	51050803 	tstpl	r5, r3, lsl #16
    52fc:	03000000 	movweq	r0, #0
    5300:	00c10801 	sbceq	r0, r1, r1, lsl #16
    5304:	02030000 	andeq	r0, r3, #0, 0
    5308:	00015207 	andeq	r5, r1, r7, lsl #4
    530c:	07040300 	streq	r0, [r4, -r0, lsl #6]
    5310:	00000126 	andeq	r0, r0, r6, lsr #2
    5314:	21070803 	tstcs	r7, r3, lsl #16
    5318:	04000001 	streq	r0, [r0], #-1
    531c:	00000025 	andeq	r0, r0, r5, lsr #32
    5320:	0000007a 	andeq	r0, r0, sl, ror r0
    5324:	00002505 	andeq	r2, r0, r5, lsl #10
    5328:	2b060000 	blcs	185330 <__bss_end__+0x17a548>
    532c:	02000000 	andeq	r0, r0, #0, 0
    5330:	00860e1c 	addeq	r0, r6, ip, lsl lr
    5334:	04070000 	streq	r0, [r7], #-0
    5338:	0000006b 	andeq	r0, r0, fp, rrx
    533c:	00002504 	andeq	r2, r0, r4, lsl #10
    5340:	00009b00 	andeq	r9, r0, r0, lsl #22
    5344:	009b0500 	addseq	r0, fp, r0, lsl #10
    5348:	07000000 	streq	r0, [r0, -r0]
    534c:	0000a804 	andeq	sl, r0, r4, lsl #16
    5350:	08010300 	stmdaeq	r1, {r8, r9}
    5354:	000000ca 	andeq	r0, r0, sl, asr #1
    5358:	0000a108 	andeq	sl, r0, r8, lsl #2
    535c:	051e0600 	ldreq	r0, [lr, #-1536]	; 0xfffffa00
    5360:	21020000 	mrscs	r0, (UNDEF: 2)
    5364:	0000b90e 	andeq	fp, r0, lr, lsl #18
    5368:	8c040700 	stchi	7, cr0, [r4], {-0}
    536c:	09000000 	stmdbeq	r0, {}	; <UNPREDICTABLE>
    5370:	000005c8 	andeq	r0, r0, r8, asr #11
    5374:	25050301 	strcs	r0, [r5, #-769]	; 0xfffffcff
    5378:	70000000 	andvc	r0, r0, r0
    537c:	440000a0 	strmi	r0, [r0], #-160	; 0xffffff60
    5380:	01000000 	mrseq	r0, (UNDEF: 0)
    5384:	00610a9c 	mlseq	r1, ip, sl, r0
    5388:	9b180301 	blls	605f94 <__bss_end__+0x5fb1ac>
    538c:	cb000000 	blgt	5394 <__code_start__-0x2c6c>
    5390:	bf000036 	svclt	0x00000036
    5394:	0a000036 	beq	5474 <__code_start__-0x2b8c>
    5398:	03010062 	movweq	r0, #4194	; 0x1062
    539c:	00009b27 	andeq	r9, r0, r7, lsr #22
    53a0:	00371f00 	eorseq	r1, r7, r0, lsl #30
    53a4:	00371900 	eorseq	r1, r7, r0, lsl #18
    53a8:	0f000000 	svceq	0x00000000
    53ac:	04000001 	streq	r0, [r0], #-1
    53b0:	001e1200 	andseq	r1, lr, r0, lsl #4
    53b4:	6a010400 	bvs	463bc <__bss_end__+0x3b5d4>
    53b8:	0c000001 	stceq	0, cr0, [r0], {1}
    53bc:	00000b41 	andeq	r0, r0, r1, asr #22
    53c0:	000004b6 			; <UNDEFINED> instruction: 0x000004b6
    53c4:	0000a0b4 	strheq	sl, [r0], -r4
    53c8:	00000018 	andeq	r0, r0, r8, lsl r0
    53cc:	0000299d 	muleq	r0, sp, r9
    53d0:	69050402 	stmdbvs	r5, {r1, sl}
    53d4:	0300746e 	movweq	r7, #1134	; 0x46e
    53d8:	012b0704 			; <UNDEFINED> instruction: 0x012b0704
    53dc:	01030000 	mrseq	r0, (UNDEF: 3)
    53e0:	0000c306 	andeq	ip, r0, r6, lsl #6
    53e4:	05020300 	streq	r0, [r2, #-768]	; 0xfffffd00
    53e8:	00000021 	andeq	r0, r0, r1, lsr #32
    53ec:	56050403 	strpl	r0, [r5], -r3, lsl #8
    53f0:	03000000 	movweq	r0, #0
    53f4:	00510508 	subseq	r0, r1, r8, lsl #10
    53f8:	01030000 	mrseq	r0, (UNDEF: 3)
    53fc:	0000c108 	andeq	ip, r0, r8, lsl #2
    5400:	07020300 	streq	r0, [r2, -r0, lsl #6]
    5404:	00000152 	andeq	r0, r0, r2, asr r1
    5408:	26070403 	strcs	r0, [r7], -r3, lsl #8
    540c:	03000001 	movweq	r0, #1
    5410:	01210708 			; <UNDEFINED> instruction: 0x01210708
    5414:	25040000 	strcs	r0, [r4, #-0]
    5418:	7a000000 	bvc	5420 <__code_start__-0x2be0>
    541c:	05000000 	streq	r0, [r0, #-0]
    5420:	00000025 	andeq	r0, r0, r5, lsr #32
    5424:	002b0600 	eoreq	r0, fp, r0, lsl #12
    5428:	1c020000 	stcne	0, cr0, [r2], {-0}
    542c:	0000860e 	andeq	r8, r0, lr, lsl #12
    5430:	6b040700 	blvs	107038 <__bss_end__+0xfc250>
    5434:	04000000 	streq	r0, [r0], #-0
    5438:	00000025 	andeq	r0, r0, r5, lsr #32
    543c:	0000009b 	muleq	r0, fp, r0
    5440:	00009b05 	andeq	r9, r0, r5, lsl #22
    5444:	04070000 	streq	r0, [r7], #-0
    5448:	000000a8 	andeq	r0, r0, r8, lsr #1
    544c:	ca080103 	bgt	205860 <__bss_end__+0x1faa78>
    5450:	08000000 	stmdaeq	r0, {}	; <UNPREDICTABLE>
    5454:	000000a1 	andeq	r0, r0, r1, lsr #1
    5458:	00051e06 	andeq	r1, r5, r6, lsl #28
    545c:	0e210200 	cdpeq	2, 2, cr0, cr1, cr0, {0}
    5460:	000000b9 	strheq	r0, [r0], -r9
    5464:	008c0407 	addeq	r0, ip, r7, lsl #8
    5468:	a1090000 	mrsge	r0, (UNDEF: 9)
    546c:	01000005 	tsteq	r0, r5
    5470:	010c0703 	tsteq	ip, r3, lsl #14
    5474:	a0b40000 	adcsge	r0, r4, r0
    5478:	00180000 	andseq	r0, r8, r0
    547c:	9c010000 	stcls	0, cr0, [r1], {-0}
    5480:	0000010c 	andeq	r0, r0, ip, lsl #2
    5484:	0031730a 	eorseq	r7, r1, sl, lsl #6
    5488:	0c150301 	ldceq	3, cr0, [r5], {1}
    548c:	01000001 	tsteq	r0, r1
    5490:	32730b50 	rsbscc	r0, r3, #80, 22	; 0x14000
    5494:	26030100 	strcs	r0, [r3], -r0, lsl #2
    5498:	0000009b 	muleq	r0, fp, r0
    549c:	0000374e 	andeq	r3, r0, lr, asr #14
    54a0:	00003748 	andeq	r3, r0, r8, asr #14
    54a4:	0100730c 	tsteq	r0, ip, lsl #6
    54a8:	010c1404 	tsteq	ip, r4, lsl #8
    54ac:	377b0000 	ldrbcc	r0, [fp, -r0]!
    54b0:	37790000 	ldrbcc	r0, [r9, -r0]!
    54b4:	07000000 	streq	r0, [r0, -r0]
    54b8:	0000a104 	andeq	sl, r0, r4, lsl #2
    54bc:	014e0000 	mrseq	r0, (UNDEF: 78)
    54c0:	00040000 	andeq	r0, r4, r0
    54c4:	00001ec8 	andeq	r1, r0, r8, asr #29
    54c8:	016a0104 	cmneq	sl, r4, lsl #2
    54cc:	510c0000 	mrspl	r0, (UNDEF: 12)
    54d0:	b600000b 	strlt	r0, [r0], -fp
    54d4:	cc000004 	stcgt	0, cr0, [r0], {4}
    54d8:	300000a0 	andcc	r0, r0, r0, lsr #1
    54dc:	3e000000 	cdpcc	0, 0, cr0, cr0, cr0, {0}
    54e0:	0200002a 	andeq	r0, r0, #42, 0	; 0x2a
    54e4:	6e690504 	cdpvs	5, 6, cr0, cr9, cr4, {0}
    54e8:	9f030074 	svcls	0x00030074
    54ec:	03000004 	movweq	r0, #4
    54f0:	003817d1 	ldrsbteq	r1, [r8], -r1
    54f4:	04040000 	streq	r0, [r4], #-0
    54f8:	00012b07 	andeq	r2, r1, r7, lsl #22
    54fc:	06010400 	streq	r0, [r1], -r0, lsl #8
    5500:	000000c3 	andeq	r0, r0, r3, asr #1
    5504:	21050204 	tstcs	r5, r4, lsl #4
    5508:	04000000 	streq	r0, [r0], #-0
    550c:	00560504 	subseq	r0, r6, r4, lsl #10
    5510:	08040000 	stmdaeq	r4, {}	; <UNPREDICTABLE>
    5514:	00005105 	andeq	r5, r0, r5, lsl #2
    5518:	08010400 	stmdaeq	r1, {sl}
    551c:	000000c1 	andeq	r0, r0, r1, asr #1
    5520:	00005b05 	andeq	r5, r0, r5, lsl #22
    5524:	07020400 	streq	r0, [r2, -r0, lsl #8]
    5528:	00000152 	andeq	r0, r0, r2, asr r1
    552c:	26070404 	strcs	r0, [r7], -r4, lsl #8
    5530:	04000001 	streq	r0, [r0], #-1
    5534:	01210708 			; <UNDEFINED> instruction: 0x01210708
    5538:	25060000 	strcs	r0, [r6, #-0]
    553c:	8b000000 	blhi	5544 <__code_start__-0x2abc>
    5540:	07000000 	streq	r0, [r0, -r0]
    5544:	00000025 	andeq	r0, r0, r5, lsr #32
    5548:	002b0800 	eoreq	r0, fp, r0, lsl #16
    554c:	1c020000 	stcne	0, cr0, [r2], {-0}
    5550:	0000970e 	andeq	r9, r0, lr, lsl #14
    5554:	7c040900 			; <UNDEFINED> instruction: 0x7c040900
    5558:	06000000 	streq	r0, [r0], -r0
    555c:	00000025 	andeq	r0, r0, r5, lsr #32
    5560:	000000ac 	andeq	r0, r0, ip, lsr #1
    5564:	0000ac07 	andeq	sl, r0, r7, lsl #24
    5568:	04090000 	streq	r0, [r9], #-0
    556c:	000000b9 	strheq	r0, [r0], -r9
    5570:	ca080104 	bgt	205988 <__bss_end__+0x1faba0>
    5574:	05000000 	streq	r0, [r0, #-0]
    5578:	000000b2 	strheq	r0, [r0], -r2
    557c:	00051e08 	andeq	r1, r5, r8, lsl #28
    5580:	0e210200 	cdpeq	2, 2, cr0, cr1, cr0, {0}
    5584:	000000ca 	andeq	r0, r0, sl, asr #1
    5588:	009d0409 	addseq	r0, sp, r9, lsl #8
    558c:	e90a0000 	stmdb	sl, {}	; <UNPREDICTABLE>
    5590:	01000005 	tsteq	r0, r5
    5594:	00250504 	eoreq	r0, r5, r4, lsl #10
    5598:	a0cc0000 	sbcge	r0, ip, r0
    559c:	00300000 	eorseq	r0, r0, r0
    55a0:	9c010000 	stcls	0, cr0, [r1], {-0}
    55a4:	0000014b 	andeq	r0, r0, fp, asr #2
    55a8:	31735f0b 	cmncc	r3, fp, lsl #30
    55ac:	19040100 	stmdbne	r4, {r8}
    55b0:	000000ac 	andeq	r0, r0, ip, lsr #1
    55b4:	00003792 	muleq	r0, r2, r7
    55b8:	0000378e 	andeq	r3, r0, lr, lsl #15
    55bc:	32735f0b 	rsbscc	r5, r3, #11, 30	; 0x2c
    55c0:	2a040100 	bcs	1059c8 <__bss_end__+0xfabe0>
    55c4:	000000ac 	andeq	r0, r0, ip, lsr #1
    55c8:	000037b7 			; <UNDEFINED> instruction: 0x000037b7
    55cc:	000037b3 			; <UNDEFINED> instruction: 0x000037b3
    55d0:	01006e0b 	tsteq	r0, fp, lsl #28
    55d4:	002c3604 	eoreq	r3, ip, r4, lsl #12
    55d8:	37e20000 	strbcc	r0, [r2, r0]!
    55dc:	37d80000 	ldrbcc	r0, [r8, r0]
    55e0:	730c0000 	movwvc	r0, #49152	; 0xc000
    55e4:	05010031 	streq	r0, [r1, #-49]	; 0xffffffcf
    55e8:	00014b1a 	andeq	r4, r1, sl, lsl fp
    55ec:	00383900 	eorseq	r3, r8, r0, lsl #18
    55f0:	00383100 	eorseq	r3, r8, r0, lsl #2
    55f4:	32730c00 	rsbscc	r0, r3, #0, 24
    55f8:	2c050100 	stfcss	f0, [r5], {-0}
    55fc:	0000014b 	andeq	r0, r0, fp, asr #2
    5600:	00003877 	andeq	r3, r0, r7, ror r8
    5604:	00003871 	andeq	r3, r0, r1, ror r8
    5608:	62040900 	andvs	r0, r4, #0, 18
    560c:	00000000 	andeq	r0, r0, r0
    5610:	000000ce 	andeq	r0, r0, lr, asr #1
    5614:	1f7c0004 	svcne	0x007c0004
    5618:	01040000 	mrseq	r0, (UNDEF: 4)
    561c:	0000016a 	andeq	r0, r0, sl, ror #2
    5620:	000b620c 	andeq	r6, fp, ip, lsl #4
    5624:	0004b600 	andeq	fp, r4, r0, lsl #12
    5628:	00a0fc00 	adceq	pc, r0, r0, lsl #24
    562c:	00000400 	andeq	r0, r0, r0, lsl #8
    5630:	002b3f00 	eoreq	r3, fp, r0, lsl #30
    5634:	05040200 	streq	r0, [r4, #-512]	; 0xfffffe00
    5638:	00746e69 	rsbseq	r6, r4, r9, ror #28
    563c:	2b070403 	blcs	1c6650 <__bss_end__+0x1bb868>
    5640:	03000001 	movweq	r0, #1
    5644:	00c30601 	sbceq	r0, r3, r1, lsl #12
    5648:	02030000 	andeq	r0, r3, #0, 0
    564c:	00002105 	andeq	r2, r0, r5, lsl #2
    5650:	05040300 	streq	r0, [r4, #-768]	; 0xfffffd00
    5654:	00000056 	andeq	r0, r0, r6, asr r0
    5658:	51050803 	tstpl	r5, r3, lsl #16
    565c:	03000000 	movweq	r0, #0
    5660:	00c10801 	sbceq	r0, r1, r1, lsl #16
    5664:	02030000 	andeq	r0, r3, #0, 0
    5668:	00015207 	andeq	r5, r1, r7, lsl #4
    566c:	07040300 	streq	r0, [r4, -r0, lsl #6]
    5670:	00000126 	andeq	r0, r0, r6, lsr #2
    5674:	21070803 	tstcs	r7, r3, lsl #16
    5678:	04000001 	streq	r0, [r0], #-1
    567c:	00000025 	andeq	r0, r0, r5, lsr #32
    5680:	0000007a 	andeq	r0, r0, sl, ror r0
    5684:	00002505 	andeq	r2, r0, r5, lsl #10
    5688:	2b060000 	blcs	185690 <__bss_end__+0x17a8a8>
    568c:	02000000 	andeq	r0, r0, #0, 0
    5690:	00860e1c 	addeq	r0, r6, ip, lsl lr
    5694:	04070000 	streq	r0, [r7], #-0
    5698:	0000006b 	andeq	r0, r0, fp, rrx
    569c:	00002504 	andeq	r2, r0, r4, lsl #10
    56a0:	00009b00 	andeq	r9, r0, r0, lsl #22
    56a4:	009b0500 	addseq	r0, fp, r0, lsl #10
    56a8:	07000000 	streq	r0, [r0, -r0]
    56ac:	0000a804 	andeq	sl, r0, r4, lsl #16
    56b0:	08010300 	stmdaeq	r1, {r8, r9}
    56b4:	000000ca 	andeq	r0, r0, sl, asr #1
    56b8:	0000a108 	andeq	sl, r0, r8, lsl #2
    56bc:	051e0600 	ldreq	r0, [lr, #-1536]	; 0xfffffa00
    56c0:	21020000 	mrscs	r0, (UNDEF: 2)
    56c4:	0000b90e 	andeq	fp, r0, lr, lsl #18
    56c8:	8c040700 	stchi	7, cr0, [r4], {-0}
    56cc:	09000000 	stmdbeq	r0, {}	; <UNPREDICTABLE>
    56d0:	00000690 	muleq	r0, r0, r6
    56d4:	fc060301 	stc2	3, cr0, [r6], {1}
    56d8:	040000a0 	streq	r0, [r0], #-160	; 0xffffff60
    56dc:	01000000 	mrseq	r0, (UNDEF: 0)
    56e0:	Address 0x00000000000056e0 is out of bounds.


Disassembly of section .debug_abbrev:

00000000 <.debug_abbrev>:
       0:	25011101 	strcs	r1, [r1, #-257]	; 0xfffffeff
       4:	030b130e 	movweq	r1, #45838	; 0xb30e
       8:	110e1b0e 	tstne	lr, lr, lsl #22
       c:	10061201 	andne	r1, r6, r1, lsl #4
      10:	02000017 	andeq	r0, r0, #23, 0
      14:	0b0b0024 	bleq	2c00ac <__bss_end__+0x2b52c4>
      18:	08030b3e 	stmdaeq	r3, {r1, r2, r3, r4, r5, r8, r9, fp}
      1c:	24030000 	strcs	r0, [r3], #-0
      20:	3e0b0b00 	vmlacc.f64	d0, d11, d0
      24:	000e030b 	andeq	r0, lr, fp, lsl #6
      28:	00160400 	andseq	r0, r6, r0, lsl #8
      2c:	0b3a0e03 	bleq	e83840 <__bss_end__+0xe78a58>
      30:	0b390b3b 	bleq	e42d24 <__bss_end__+0xe37f3c>
      34:	00001349 	andeq	r1, r0, r9, asr #6
      38:	27011505 	strcs	r1, [r1, -r5, lsl #10]
      3c:	01134919 	tsteq	r3, r9, lsl r9
      40:	06000013 			; <UNDEFINED> instruction: 0x06000013
      44:	13490005 	movtne	r0, #36869	; 0x9005
      48:	34070000 	strcc	r0, [r7], #-0
      4c:	3a0e0300 	bcc	380c54 <__bss_end__+0x375e6c>
      50:	390b3b0b 	stmdbcc	fp, {r0, r1, r3, r8, r9, fp, ip, sp}
      54:	3f13490b 	svccc	0x0013490b
      58:	00193c19 	andseq	r3, r9, r9, lsl ip
      5c:	000f0800 	andeq	r0, pc, r0, lsl #16
      60:	13490b0b 	movtne	r0, #39691	; 0x9b0b
      64:	26090000 	strcs	r0, [r9], -r0
      68:	00134900 	andseq	r4, r3, r0, lsl #18
      6c:	01130a00 	tsteq	r3, r0, lsl #20
      70:	0b3a0b0b 	bleq	e82ca4 <__bss_end__+0xe77ebc>
      74:	0b390b3b 	bleq	e42d68 <__bss_end__+0xe37f80>
      78:	00001301 	andeq	r1, r0, r1, lsl #6
      7c:	03000d0b 	movweq	r0, #3339	; 0xd0b
      80:	3b0b3a0e 	blcc	2ce8c0 <__bss_end__+0x2c3ad8>
      84:	490b390b 	stmdbmi	fp, {r0, r1, r3, r8, fp, ip, sp}
      88:	000b3813 	andeq	r3, fp, r3, lsl r8
      8c:	01130c00 	tsteq	r3, r0, lsl #24
      90:	0b0b0e03 	bleq	2c38a4 <__bss_end__+0x2b8abc>
      94:	0b3b0b3a 	bleq	ec2d84 <__bss_end__+0xeb7f9c>
      98:	13010b39 	movwne	r0, #6969	; 0x1b39
      9c:	0d0d0000 	stceq	0, cr0, [sp, #-0]
      a0:	3a080300 	bcc	200ca8 <__bss_end__+0x1f5ec0>
      a4:	390b3b0b 	stmdbcc	fp, {r0, r1, r3, r8, r9, fp, ip, sp}
      a8:	3813490b 	ldmdacc	r3, {r0, r1, r3, r8, fp, lr}
      ac:	0e00000b 	cdpeq	0, 0, cr0, cr0, cr11, {0}
      b0:	13490101 	movtne	r0, #37121	; 0x9101
      b4:	00001301 	andeq	r1, r0, r1, lsl #6
      b8:	4900210f 	stmdbmi	r0, {r0, r1, r2, r3, r8, sp}
      bc:	000b2f13 	andeq	r2, fp, r3, lsl pc
      c0:	000f1000 	andeq	r1, pc, r0
      c4:	00000b0b 	andeq	r0, r0, fp, lsl #22
      c8:	3f012e11 	svccc	0x00012e11
      cc:	3a0e0319 	bcc	380d38 <__bss_end__+0x375f50>
      d0:	390b3b0b 	stmdbcc	fp, {r0, r1, r3, r8, r9, fp, ip, sp}
      d4:	1119270b 	tstne	r9, fp, lsl #14
      d8:	40061201 	andmi	r1, r6, r1, lsl #4
      dc:	19429718 	stmdbne	r2, {r3, r4, r8, r9, sl, ip, pc}^
      e0:	00001301 	andeq	r1, r0, r1, lsl #6
      e4:	03003412 	movweq	r3, #1042	; 0x412
      e8:	3b0b3a08 	blcc	2ce910 <__bss_end__+0x2c3b28>
      ec:	490b390b 	stmdbmi	fp, {r0, r1, r3, r8, fp, ip, sp}
      f0:	b7170213 			; <UNDEFINED> instruction: 0xb7170213
      f4:	00001742 	andeq	r1, r0, r2, asr #14
      f8:	31011d13 	tstcc	r1, r3, lsl sp
      fc:	b8015213 	stmdalt	r1, {r0, r1, r4, r9, ip, lr}
     100:	01110b42 	tsteq	r1, r2, asr #22
     104:	0b580612 	bleq	1601954 <__bss_end__+0x15f6b6c>
     108:	0b570b59 	bleq	15c2e74 <__bss_end__+0x15b808c>
     10c:	00001301 	andeq	r1, r0, r1, lsl #6
     110:	31000514 	tstcc	r0, r4, lsl r5
     114:	b7170213 			; <UNDEFINED> instruction: 0xb7170213
     118:	00001742 	andeq	r1, r0, r2, asr #14
     11c:	31003415 	tstcc	r0, r5, lsl r4
     120:	b7170213 			; <UNDEFINED> instruction: 0xb7170213
     124:	00001742 	andeq	r1, r0, r2, asr #14
     128:	01828916 	orreq	r8, r2, r6, lsl r9
     12c:	31011101 	tstcc	r1, r1, lsl #2
     130:	00130113 	andseq	r0, r3, r3, lsl r1
     134:	828a1700 	addhi	r1, sl, #0, 14
     138:	18020001 	stmdane	r2, {r0}
     13c:	00184291 	mulseq	r8, r1, r2
     140:	82891800 	addhi	r1, r9, #0, 16
     144:	01110001 	tsteq	r1, r1
     148:	00001331 	andeq	r1, r0, r1, lsr r3
     14c:	01828919 	orreq	r8, r2, r9, lsl r9
     150:	95011101 	strls	r1, [r1, #-257]	; 0xfffffeff
     154:	13311942 	teqne	r1, #1081344	; 0x108000
     158:	2e1a0000 	cdpcs	0, 1, cr0, cr10, cr0, {0}
     15c:	03193f01 	tsteq	r9, #1, 30
     160:	3b0b3a0e 	blcc	2ce9a0 <__bss_end__+0x2c3bb8>
     164:	270b390b 	strcs	r3, [fp, -fp, lsl #18]
     168:	20134919 	andscs	r4, r3, r9, lsl r9
     16c:	0013010b 	andseq	r0, r3, fp, lsl #2
     170:	00341b00 	eorseq	r1, r4, r0, lsl #22
     174:	0b3a0803 	bleq	e82188 <__bss_end__+0xe773a0>
     178:	0b390b3b 	bleq	e42e6c <__bss_end__+0xe38084>
     17c:	00001349 	andeq	r1, r0, r9, asr #6
     180:	0300341c 	movweq	r3, #1052	; 0x41c
     184:	3413490e 	ldrcc	r4, [r3], #-2318	; 0xfffff6f2
     188:	00180219 	andseq	r0, r8, r9, lsl r2
     18c:	010b1d00 	tsteq	fp, r0, lsl #26
     190:	891e0000 	ldmdbhi	lr, {}	; <UNPREDICTABLE>
     194:	11010182 	smlabbne	r1, r2, r1, r0
     198:	00133101 	andseq	r3, r3, r1, lsl #2
     19c:	012e1f00 			; <UNDEFINED> instruction: 0x012e1f00
     1a0:	0b3a0e03 	bleq	e839b4 <__bss_end__+0xe78bcc>
     1a4:	0b390b3b 	bleq	e42e98 <__bss_end__+0xe380b0>
     1a8:	13491927 	movtne	r1, #39207	; 0x9927
     1ac:	13010b20 	movwne	r0, #6944	; 0x1b20
     1b0:	05200000 	streq	r0, [r0, #-0]!
     1b4:	3a080300 	bcc	200dbc <__bss_end__+0x1f5fd4>
     1b8:	390b3b0b 	stmdbcc	fp, {r0, r1, r3, r8, r9, fp, ip, sp}
     1bc:	0013490b 	andseq	r4, r3, fp, lsl #18
     1c0:	00052100 	andeq	r2, r5, r0, lsl #2
     1c4:	0b3a0e03 	bleq	e839d8 <__bss_end__+0xe78bf0>
     1c8:	0b390b3b 	bleq	e42ebc <__bss_end__+0xe380d4>
     1cc:	00001349 	andeq	r1, r0, r9, asr #6
     1d0:	31012e22 	tstcc	r1, r2, lsr #28
     1d4:	12011113 	andne	r1, r1, #-1073741820	; 0xc0000004
     1d8:	97184006 	ldrls	r4, [r8, -r6]
     1dc:	13011942 	movwne	r1, #6466	; 0x1942
     1e0:	0b230000 	bleq	8c01e8 <__bss_end__+0x8b5400>
     1e4:	55133101 	ldrpl	r3, [r3, #-257]	; 0xfffffeff
     1e8:	00130117 	andseq	r0, r3, r7, lsl r1
     1ec:	010b2400 	tsteq	fp, r0, lsl #8
     1f0:	17551331 	smmlarne	r5, r1, r3, r1
     1f4:	1d250000 	stcne	0, cr0, [r5, #-0]
     1f8:	52133101 	andspl	r3, r3, #1073741824	; 0x40000000
     1fc:	0b42b801 	bleq	10ae208 <__bss_end__+0x10a3420>
     200:	0b581755 	bleq	1605f5c <__bss_end__+0x15fb174>
     204:	0b570b59 	bleq	15c2f70 <__bss_end__+0x15b8188>
     208:	34260000 	strtcc	r0, [r6], #-0
     20c:	00133100 	andseq	r3, r3, r0, lsl #2
     210:	010b2700 	tsteq	fp, r0, lsl #14
     214:	01111331 	tsteq	r1, r1, lsr r3
     218:	00000612 	andeq	r0, r0, r2, lsl r6
     21c:	3f002e28 	svccc	0x00002e28
     220:	6e193c19 	mrcvs	12, 0, r3, cr9, cr9, {0}
     224:	3a0e030e 	bcc	380e64 <__bss_end__+0x37607c>
     228:	390b3b0b 	stmdbcc	fp, {r0, r1, r3, r8, r9, fp, ip, sp}
     22c:	2900000b 	stmdbcs	r0, {r0, r1, r3}
     230:	18020036 	stmdane	r2, {r1, r2, r4, r5}
     234:	01000000 	mrseq	r0, (UNDEF: 0)
     238:	0e250111 	mcreq	1, 1, r0, cr5, cr1, {0}
     23c:	0e030b13 	vmoveq.32	d3[0], r0
     240:	01110e1b 	tsteq	r1, fp, lsl lr
     244:	17100612 			; <UNDEFINED> instruction: 0x17100612
     248:	24020000 	strcs	r0, [r2], #-0
     24c:	3e0b0b00 	vmlacc.f64	d0, d11, d0
     250:	0008030b 	andeq	r0, r8, fp, lsl #6
     254:	00240300 	eoreq	r0, r4, r0, lsl #6
     258:	0b3e0b0b 	bleq	f82e8c <__bss_end__+0xf780a4>
     25c:	00000e03 	andeq	r0, r0, r3, lsl #28
     260:	03001604 	movweq	r1, #1540	; 0x604
     264:	3b0b3a0e 	blcc	2ceaa4 <__bss_end__+0x2c3cbc>
     268:	490b390b 	stmdbmi	fp, {r0, r1, r3, r8, fp, ip, sp}
     26c:	05000013 	streq	r0, [r0, #-19]	; 0xffffffed
     270:	19270115 	stmdbne	r7!, {r0, r2, r4, r8}
     274:	13011349 	movwne	r1, #4937	; 0x1349
     278:	05060000 	streq	r0, [r6, #-0]
     27c:	00134900 	andseq	r4, r3, r0, lsl #18
     280:	00340700 	eorseq	r0, r4, r0, lsl #14
     284:	0b3a0e03 	bleq	e83a98 <__bss_end__+0xe78cb0>
     288:	0b390b3b 	bleq	e42f7c <__bss_end__+0xe38194>
     28c:	193f1349 	ldmdbne	pc!, {r0, r3, r6, r8, r9, ip}	; <UNPREDICTABLE>
     290:	0000193c 	andeq	r1, r0, ip, lsr r9
     294:	0b000f08 	bleq	3ebc <__code_start__-0x4144>
     298:	0013490b 	andseq	r4, r3, fp, lsl #18
     29c:	00260900 	eoreq	r0, r6, r0, lsl #18
     2a0:	00001349 	andeq	r1, r0, r9, asr #6
     2a4:	0b01130a 	bleq	44ed4 <__bss_end__+0x3a0ec>
     2a8:	3b0b3a0b 	blcc	2ceadc <__bss_end__+0x2c3cf4>
     2ac:	010b390b 	tsteq	fp, fp, lsl #18
     2b0:	0b000013 	bleq	304 <__code_start__-0x7cfc>
     2b4:	0e03000d 	cdpeq	0, 0, cr0, cr3, cr13, {0}
     2b8:	0b3b0b3a 	bleq	ec2fa8 <__bss_end__+0xeb81c0>
     2bc:	13490b39 	movtne	r0, #39737	; 0x9b39
     2c0:	00000b38 	andeq	r0, r0, r8, lsr fp
     2c4:	3e01040c 	cdpcc	4, 0, cr0, cr1, cr12, {0}
     2c8:	490b0b0b 	stmdbmi	fp, {r0, r1, r3, r8, r9, fp}
     2cc:	3b0b3a13 	blcc	2ceb20 <__bss_end__+0x2c3d38>
     2d0:	010b390b 	tsteq	fp, fp, lsl #18
     2d4:	0d000013 	stceq	0, cr0, [r0, #-76]	; 0xffffffb4
     2d8:	0e030028 	cdpeq	0, 0, cr0, cr3, cr8, {1}
     2dc:	00000b1c 	andeq	r0, r0, ip, lsl fp
     2e0:	0301130e 	movweq	r1, #4878	; 0x130e
     2e4:	3a0b0b0e 	bcc	2c2f24 <__bss_end__+0x2b813c>
     2e8:	390b3b0b 	stmdbcc	fp, {r0, r1, r3, r8, r9, fp, ip, sp}
     2ec:	0013010b 	andseq	r0, r3, fp, lsl #2
     2f0:	000d0f00 	andeq	r0, sp, r0, lsl #30
     2f4:	0b3a0803 	bleq	e82308 <__bss_end__+0xe77520>
     2f8:	0b390b3b 	bleq	e42fec <__bss_end__+0xe38204>
     2fc:	0b381349 	bleq	e05028 <__bss_end__+0xdfa240>
     300:	01100000 	tsteq	r0, r0
     304:	01134901 	tsteq	r3, r1, lsl #18
     308:	11000013 	tstne	r0, r3, lsl r0
     30c:	13490021 	movtne	r0, #36897	; 0x9021
     310:	00000b2f 	andeq	r0, r0, pc, lsr #22
     314:	0b000f12 	bleq	3f64 <__code_start__-0x409c>
     318:	1300000b 	movwne	r0, #11
     31c:	0e030034 	mcreq	0, 0, r0, cr3, cr4, {1}
     320:	0b3b0b3a 	bleq	ec3010 <__bss_end__+0xeb8228>
     324:	13490b39 	movtne	r0, #39737	; 0x9b39
     328:	00001802 	andeq	r1, r0, r2, lsl #16
     32c:	3f012e14 	svccc	0x00012e14
     330:	3a0e0319 	bcc	380f9c <__bss_end__+0x3761b4>
     334:	390b3b0b 	stmdbcc	fp, {r0, r1, r3, r8, r9, fp, ip, sp}
     338:	4919270b 	ldmdbmi	r9, {r0, r1, r3, r8, r9, sl, sp}
     33c:	12011113 	andne	r1, r1, #-1073741820	; 0xc0000004
     340:	97184006 	ldrls	r4, [r8, -r6]
     344:	13011942 	movwne	r1, #6466	; 0x1942
     348:	05150000 	ldreq	r0, [r5, #-0]
     34c:	3a0e0300 	bcc	380f54 <__bss_end__+0x37616c>
     350:	390b3b0b 	stmdbcc	fp, {r0, r1, r3, r8, r9, fp, ip, sp}
     354:	0213490b 	andseq	r4, r3, #180224	; 0x2c000
     358:	1742b717 	smlaldne	fp, r2, r7, r7
     35c:	05160000 	ldreq	r0, [r6, #-0]
     360:	3a080300 	bcc	200f68 <__bss_end__+0x1f6180>
     364:	390b3b0b 	stmdbcc	fp, {r0, r1, r3, r8, r9, fp, ip, sp}
     368:	0213490b 	andseq	r4, r3, #180224	; 0x2c000
     36c:	17000018 	smladne	r0, r8, r0, r0
     370:	08030034 	stmdaeq	r3, {r2, r4, r5}
     374:	0b3b0b3a 	bleq	ec3064 <__bss_end__+0xeb827c>
     378:	13490b39 	movtne	r0, #39737	; 0x9b39
     37c:	42b71702 	adcsmi	r1, r7, #524288	; 0x80000
     380:	18000017 	stmdane	r0, {r0, r1, r2, r4}
     384:	01018289 	smlabbeq	r1, r9, r2, r8
     388:	13310111 	teqne	r1, #1073741828	; 0x40000004
     38c:	00001301 	andeq	r1, r0, r1, lsl #6
     390:	01828a19 	orreq	r8, r2, r9, lsl sl
     394:	91180200 	tstls	r8, r0, lsl #4
     398:	00001842 	andeq	r1, r0, r2, asr #16
     39c:	0182891a 	orreq	r8, r2, sl, lsl r9
     3a0:	31011101 	tstcc	r1, r1, lsl #2
     3a4:	1b000013 	blne	3f8 <__code_start__-0x7c08>
     3a8:	193f012e 	ldmdbne	pc!, {r1, r2, r3, r5, r8}	; <UNPREDICTABLE>
     3ac:	0b3a0e03 	bleq	e83bc0 <__bss_end__+0xe78dd8>
     3b0:	0b390b3b 	bleq	e430a4 <__bss_end__+0xe382bc>
     3b4:	01111927 	tsteq	r1, r7, lsr #18
     3b8:	18400612 	stmdane	r0, {r1, r4, r9, sl}^
     3bc:	01194297 			; <UNDEFINED> instruction: 0x01194297
     3c0:	1c000013 	stcne	0, cr0, [r0], {19}
     3c4:	08030005 	stmdaeq	r3, {r0, r2}
     3c8:	0b3b0b3a 	bleq	ec30b8 <__bss_end__+0xeb82d0>
     3cc:	13490b39 	movtne	r0, #39737	; 0x9b39
     3d0:	42b71702 	adcsmi	r1, r7, #524288	; 0x80000
     3d4:	1d000017 	stcne	0, cr0, [r0, #-92]	; 0xffffffa4
     3d8:	0e030034 	mcreq	0, 0, r0, cr3, cr4, {1}
     3dc:	19341349 	ldmdbne	r4!, {r0, r3, r6, r8, r9, ip}
     3e0:	00001802 	andeq	r1, r0, r2, lsl #16
     3e4:	31011d1e 	tstcc	r1, lr, lsl sp
     3e8:	b8015213 	stmdalt	r1, {r0, r1, r4, r9, ip, lr}
     3ec:	17550b42 	ldrbne	r0, [r5, -r2, asr #22]
     3f0:	0b590b58 	bleq	1643158 <__bss_end__+0x1638370>
     3f4:	13010b57 	movwne	r0, #6999	; 0x1b57
     3f8:	051f0000 	ldreq	r0, [pc, #-0]	; 400 <__code_start__-0x7c00>
     3fc:	02133100 	andseq	r3, r3, #0
     400:	1742b717 	smlaldne	fp, r2, r7, r7
     404:	0b200000 	bleq	80040c <__bss_end__+0x7f5624>
     408:	55133101 	ldrpl	r3, [r3, #-257]	; 0xfffffeff
     40c:	21000017 	tstcs	r0, r7, lsl r0
     410:	13310034 	teqne	r1, #52, 0	; 0x34
     414:	42b71702 	adcsmi	r1, r7, #524288	; 0x80000
     418:	22000017 	andcs	r0, r0, #23, 0
     41c:	1331001d 	teqne	r1, #29, 0
     420:	42b80152 	adcsmi	r0, r8, #-2147483628	; 0x80000014
     424:	5817550b 	ldmdapl	r7, {r0, r1, r3, r8, sl, ip, lr}
     428:	570b590b 	strpl	r5, [fp, -fp, lsl #18]
     42c:	2300000b 	movwcs	r0, #11
     430:	1331011d 	teqne	r1, #1073741831	; 0x40000007
     434:	42b80152 	adcsmi	r0, r8, #-2147483628	; 0x80000014
     438:	1201110b 	andne	r1, r1, #-1073741822	; 0xc0000002
     43c:	590b5806 	stmdbpl	fp, {r1, r2, fp, ip, lr}
     440:	010b570b 	tsteq	fp, fp, lsl #14
     444:	24000013 	strcs	r0, [r0], #-19	; 0xffffffed
     448:	1755010b 	ldrbne	r0, [r5, -fp, lsl #2]
     44c:	1d250000 	stcne	0, cr0, [r5, #-0]
     450:	52133101 	andspl	r3, r3, #1073741824	; 0x40000000
     454:	0b42b801 	bleq	10ae460 <__bss_end__+0x10a3678>
     458:	0b581755 	bleq	16061b4 <__bss_end__+0x15fb3cc>
     45c:	0b570b59 	bleq	15c31c8 <__bss_end__+0x15b83e0>
     460:	89260000 	stmdbhi	r6!, {}	; <UNPREDICTABLE>
     464:	11000182 	smlabbne	r0, r2, r1, r0
     468:	00133101 	andseq	r3, r3, r1, lsl #2
     46c:	82892700 	addhi	r2, r9, #0, 14
     470:	01110101 	tsteq	r1, r1, lsl #2
     474:	31194295 			; <UNDEFINED> instruction: 0x31194295
     478:	00130113 	andseq	r0, r3, r3, lsl r1
     47c:	012e2800 			; <UNDEFINED> instruction: 0x012e2800
     480:	0b3a0e03 	bleq	e83c94 <__bss_end__+0xe78eac>
     484:	0b390b3b 	bleq	e43178 <__bss_end__+0xe38390>
     488:	0b201927 	bleq	80692c <__bss_end__+0x7fbb44>
     48c:	00001301 	andeq	r1, r0, r1, lsl #6
     490:	03000529 	movweq	r0, #1321	; 0x529
     494:	3b0b3a08 	blcc	2cecbc <__bss_end__+0x2c3ed4>
     498:	490b390b 	stmdbmi	fp, {r0, r1, r3, r8, fp, ip, sp}
     49c:	2a000013 	bcs	4f0 <__code_start__-0x7b10>
     4a0:	0e030034 	mcreq	0, 0, r0, cr3, cr4, {1}
     4a4:	0b3b0b3a 	bleq	ec3194 <__bss_end__+0xeb83ac>
     4a8:	13490b39 	movtne	r0, #39737	; 0x9b39
     4ac:	342b0000 	strtcc	r0, [fp], #-0
     4b0:	3a080300 	bcc	2010b8 <__bss_end__+0x1f62d0>
     4b4:	390b3b0b 	stmdbcc	fp, {r0, r1, r3, r8, r9, fp, ip, sp}
     4b8:	0013490b 	andseq	r4, r3, fp, lsl #18
     4bc:	012e2c00 			; <UNDEFINED> instruction: 0x012e2c00
     4c0:	0e03193f 			; <UNDEFINED> instruction: 0x0e03193f
     4c4:	0b3b0b3a 	bleq	ec31b4 <__bss_end__+0xeb83cc>
     4c8:	19270b39 	stmdbne	r7!, {r0, r3, r4, r5, r8, r9, fp}
     4cc:	0b201349 	bleq	8051f8 <__bss_end__+0x7fa410>
     4d0:	00001301 	andeq	r1, r0, r1, lsl #6
     4d4:	00010b2d 	andeq	r0, r1, sp, lsr #22
     4d8:	002e2e00 	eoreq	r2, lr, r0, lsl #28
     4dc:	0e03193f 			; <UNDEFINED> instruction: 0x0e03193f
     4e0:	0b3b0b3a 	bleq	ec31d0 <__bss_end__+0xeb83e8>
     4e4:	19270b39 	stmdbne	r7!, {r0, r3, r4, r5, r8, r9, fp}
     4e8:	0b201349 	bleq	805214 <__bss_end__+0x7fa42c>
     4ec:	2e2f0000 	cdpcs	0, 2, cr0, cr15, cr0, {0}
     4f0:	3a0e0301 	bcc	3810fc <__bss_end__+0x376314>
     4f4:	390b3b0b 	stmdbcc	fp, {r0, r1, r3, r8, r9, fp, ip, sp}
     4f8:	4919270b 	ldmdbmi	r9, {r0, r1, r3, r8, r9, sl, sp}
     4fc:	010b2013 	tsteq	fp, r3, lsl r0
     500:	30000013 	andcc	r0, r0, r3, lsl r0
     504:	1331002e 	teqne	r1, #46, 0	; 0x2e
     508:	06120111 			; <UNDEFINED> instruction: 0x06120111
     50c:	42971840 	addsmi	r1, r7, #64, 16	; 0x400000
     510:	31000019 	tstcc	r0, r9, lsl r0
     514:	1331012e 	teqne	r1, #-2147483637	; 0x8000000b
     518:	06120111 			; <UNDEFINED> instruction: 0x06120111
     51c:	42971840 	addsmi	r1, r7, #64, 16	; 0x400000
     520:	00130119 	andseq	r0, r3, r9, lsl r1
     524:	00053200 	andeq	r3, r5, r0, lsl #4
     528:	18021331 	stmdane	r2, {r0, r4, r5, r8, r9, ip}
     52c:	1d330000 	ldcne	0, cr0, [r3, #-0]
     530:	52133101 	andspl	r3, r3, #1073741824	; 0x40000000
     534:	0b42b801 	bleq	10ae540 <__bss_end__+0x10a3758>
     538:	06120111 			; <UNDEFINED> instruction: 0x06120111
     53c:	0b590b58 	bleq	16432a4 <__bss_end__+0x16384bc>
     540:	00000b57 	andeq	r0, r0, r7, asr fp
     544:	3f002e34 	svccc	0x00002e34
     548:	6e193c19 	mrcvs	12, 0, r3, cr9, cr9, {0}
     54c:	3a0e030e 	bcc	38118c <__bss_end__+0x3763a4>
     550:	390b3b0b 	stmdbcc	fp, {r0, r1, r3, r8, r9, fp, ip, sp}
     554:	0000000b 	andeq	r0, r0, fp
     558:	25011101 	strcs	r1, [r1, #-257]	; 0xfffffeff
     55c:	030b130e 	movweq	r1, #45838	; 0xb30e
     560:	110e1b0e 	tstne	lr, lr, lsl #22
     564:	10061201 	andne	r1, r6, r1, lsl #4
     568:	02000017 	andeq	r0, r0, #23, 0
     56c:	0b0b0024 	bleq	2c0604 <__bss_end__+0x2b581c>
     570:	08030b3e 	stmdaeq	r3, {r1, r2, r3, r4, r5, r8, r9, fp}
     574:	24030000 	strcs	r0, [r3], #-0
     578:	3e0b0b00 	vmlacc.f64	d0, d11, d0
     57c:	000e030b 	andeq	r0, lr, fp, lsl #6
     580:	01150400 	tsteq	r5, r0, lsl #8
     584:	13491927 	movtne	r1, #39207	; 0x9927
     588:	00001301 	andeq	r1, r0, r1, lsl #6
     58c:	49000505 	stmdbmi	r0, {r0, r2, r8, sl}
     590:	06000013 			; <UNDEFINED> instruction: 0x06000013
     594:	0e030034 	mcreq	0, 0, r0, cr3, cr4, {1}
     598:	0b3b0b3a 	bleq	ec3288 <__bss_end__+0xeb84a0>
     59c:	13490b39 	movtne	r0, #39737	; 0x9b39
     5a0:	193c193f 	ldmdbne	ip!, {r0, r1, r2, r3, r4, r5, r8, fp, ip}
     5a4:	0f070000 	svceq	0x00070000
     5a8:	490b0b00 	stmdbmi	fp, {r8, r9, fp}
     5ac:	08000013 	stmdaeq	r0, {r0, r1, r4}
     5b0:	13490026 	movtne	r0, #36902	; 0x9026
     5b4:	17090000 	strne	r0, [r9, -r0]
     5b8:	0b0e0301 	bleq	3811c4 <__bss_end__+0x3763dc>
     5bc:	3b0b3a0b 	blcc	2cedf0 <__bss_end__+0x2c4008>
     5c0:	010b390b 	tsteq	fp, fp, lsl #18
     5c4:	0a000013 	beq	618 <__code_start__-0x79e8>
     5c8:	0803000d 	stmdaeq	r3, {r0, r2, r3}
     5cc:	0b3b0b3a 	bleq	ec32bc <__bss_end__+0xeb84d4>
     5d0:	13490b39 	movtne	r0, #39737	; 0x9b39
     5d4:	0f0b0000 	svceq	0x000b0000
     5d8:	000b0b00 	andeq	r0, fp, r0, lsl #22
     5dc:	00150c00 	andseq	r0, r5, r0, lsl #24
     5e0:	00001927 	andeq	r1, r0, r7, lsr #18
     5e4:	0b01130d 	bleq	45220 <__bss_end__+0x3a438>
     5e8:	3b0b3a0b 	blcc	2cee1c <__bss_end__+0x2c4034>
     5ec:	010b390b 	tsteq	fp, fp, lsl #18
     5f0:	0e000013 	mcreq	0, 0, r0, cr0, cr3, {0}
     5f4:	0803000d 	stmdaeq	r3, {r0, r2, r3}
     5f8:	0b3b0b3a 	bleq	ec32e8 <__bss_end__+0xeb8500>
     5fc:	13490b39 	movtne	r0, #39737	; 0x9b39
     600:	00000b38 	andeq	r0, r0, r8, lsr fp
     604:	03000d0f 	movweq	r0, #3343	; 0xd0f
     608:	3b0b3a0e 	blcc	2cee48 <__bss_end__+0x2c4060>
     60c:	490b390b 	stmdbmi	fp, {r0, r1, r3, r8, fp, ip, sp}
     610:	000b3813 	andeq	r3, fp, r3, lsl r8
     614:	00161000 	andseq	r1, r6, r0
     618:	0b3a0e03 	bleq	e83e2c <__bss_end__+0xe79044>
     61c:	0b390b3b 	bleq	e43310 <__bss_end__+0xe38528>
     620:	00001349 	andeq	r1, r0, r9, asr #6
     624:	03003411 	movweq	r3, #1041	; 0x411
     628:	3b0b3a0e 	blcc	2cee68 <__bss_end__+0x2c4080>
     62c:	490b390b 	stmdbmi	fp, {r0, r1, r3, r8, fp, ip, sp}
     630:	00180213 	andseq	r0, r8, r3, lsl r2
     634:	012e1200 			; <UNDEFINED> instruction: 0x012e1200
     638:	0e03193f 			; <UNDEFINED> instruction: 0x0e03193f
     63c:	0b3b0b3a 	bleq	ec332c <__bss_end__+0xeb8544>
     640:	19270b39 	stmdbne	r7!, {r0, r3, r4, r5, r8, r9, fp}
     644:	06120111 			; <UNDEFINED> instruction: 0x06120111
     648:	42971840 	addsmi	r1, r7, #64, 16	; 0x400000
     64c:	00130119 	andseq	r0, r3, r9, lsl r1
     650:	00051300 	andeq	r1, r5, r0, lsl #6
     654:	0b3a0803 	bleq	e82668 <__bss_end__+0xe77880>
     658:	0b390b3b 	bleq	e4334c <__bss_end__+0xe38564>
     65c:	17021349 	strne	r1, [r2, -r9, asr #6]
     660:	001742b7 			; <UNDEFINED> instruction: 0x001742b7
     664:	00341400 	eorseq	r1, r4, r0, lsl #8
     668:	0b3a0803 	bleq	e8267c <__bss_end__+0xe77894>
     66c:	0b390b3b 	bleq	e43360 <__bss_end__+0xe38578>
     670:	17021349 	strne	r1, [r2, -r9, asr #6]
     674:	001742b7 			; <UNDEFINED> instruction: 0x001742b7
     678:	012e1500 			; <UNDEFINED> instruction: 0x012e1500
     67c:	0e03193f 			; <UNDEFINED> instruction: 0x0e03193f
     680:	0b3b0b3a 	bleq	ec3370 <__bss_end__+0xeb8588>
     684:	19270b39 	stmdbne	r7!, {r0, r3, r4, r5, r8, r9, fp}
     688:	01111349 	tsteq	r1, r9, asr #6
     68c:	18400612 	stmdane	r0, {r1, r4, r9, sl}^
     690:	01194297 			; <UNDEFINED> instruction: 0x01194297
     694:	16000013 			; <UNDEFINED> instruction: 0x16000013
     698:	0e030005 	cdpeq	0, 0, cr0, cr3, cr5, {0}
     69c:	0b3b0b3a 	bleq	ec338c <__bss_end__+0xeb85a4>
     6a0:	13490b39 	movtne	r0, #39737	; 0x9b39
     6a4:	42b71702 	adcsmi	r1, r7, #524288	; 0x80000
     6a8:	17000017 	smladne	r0, r7, r0, r0
     6ac:	0e030034 	mcreq	0, 0, r0, cr3, cr4, {1}
     6b0:	0b3b0b3a 	bleq	ec33a0 <__bss_end__+0xeb85b8>
     6b4:	13490b39 	movtne	r0, #39737	; 0x9b39
     6b8:	42b71702 	adcsmi	r1, r7, #524288	; 0x80000
     6bc:	18000017 	stmdane	r0, {r0, r1, r2, r4}
     6c0:	1331011d 	teqne	r1, #1073741831	; 0x40000007
     6c4:	42b80152 	adcsmi	r0, r8, #-2147483628	; 0x80000014
     6c8:	5817550b 	ldmdapl	r7, {r0, r1, r3, r8, sl, ip, lr}
     6cc:	570b590b 	strpl	r5, [fp, -fp, lsl #18]
     6d0:	1900000b 	stmdbne	r0, {r0, r1, r3}
     6d4:	13310005 	teqne	r1, #5, 0
     6d8:	42b71702 	adcsmi	r1, r7, #524288	; 0x80000
     6dc:	1a000017 	bne	740 <__code_start__-0x78c0>
     6e0:	1755010b 	ldrbne	r0, [r5, -fp, lsl #2]
     6e4:	341b0000 	ldrcc	r0, [fp], #-0
     6e8:	02133100 	andseq	r3, r3, #0
     6ec:	1742b717 	smlaldne	fp, r2, r7, r7
     6f0:	891c0000 	ldmdbhi	ip, {}	; <UNPREDICTABLE>
     6f4:	11010182 	smlabbne	r1, r2, r1, r0
     6f8:	01133101 	tsteq	r3, r1, lsl #2
     6fc:	1d000013 	stcne	0, cr0, [r0, #-76]	; 0xffffffb4
     700:	0001828a 	andeq	r8, r1, sl, lsl #5
     704:	42911802 	addsmi	r1, r1, #131072	; 0x20000
     708:	1e000018 	mcrne	0, 0, r0, cr0, cr8, {0}
     70c:	00018289 	andeq	r8, r1, r9, lsl #5
     710:	13310111 	teqne	r1, #1073741828	; 0x40000004
     714:	2e1f0000 	cdpcs	0, 1, cr0, cr15, cr0, {0}
     718:	3a0e0301 	bcc	381324 <__bss_end__+0x37653c>
     71c:	390b3b0b 	stmdbcc	fp, {r0, r1, r3, r8, r9, fp, ip, sp}
     720:	4919270b 	ldmdbmi	r9, {r0, r1, r3, r8, r9, sl, sp}
     724:	010b2013 	tsteq	fp, r3, lsl r0
     728:	20000013 	andcs	r0, r0, r3, lsl r0
     72c:	08030005 	stmdaeq	r3, {r0, r2}
     730:	0b3b0b3a 	bleq	ec3420 <__bss_end__+0xeb8638>
     734:	13490b39 	movtne	r0, #39737	; 0x9b39
     738:	34210000 	strtcc	r0, [r1], #-0
     73c:	3a080300 	bcc	201344 <__bss_end__+0x1f655c>
     740:	390b3b0b 	stmdbcc	fp, {r0, r1, r3, r8, r9, fp, ip, sp}
     744:	0013490b 	andseq	r4, r3, fp, lsl #18
     748:	002e2200 	eoreq	r2, lr, r0, lsl #4
     74c:	193c193f 	ldmdbne	ip!, {r0, r1, r2, r3, r4, r5, r8, fp, ip}
     750:	0e030e6e 	cdpeq	14, 0, cr0, cr3, cr14, {3}
     754:	0b3b0b3a 	bleq	ec3444 <__bss_end__+0xeb865c>
     758:	00000b39 	andeq	r0, r0, r9, lsr fp
     75c:	01110100 	tsteq	r1, r0, lsl #2
     760:	0b130e25 	bleq	4c3ffc <__bss_end__+0x4b9214>
     764:	0e1b0e03 	cdpeq	14, 1, cr0, cr11, cr3, {0}
     768:	06120111 			; <UNDEFINED> instruction: 0x06120111
     76c:	00001710 	andeq	r1, r0, r0, lsl r7
     770:	0b002402 	bleq	9780 <rpi_reboot+0x2c>
     774:	030b3e0b 	movweq	r3, #48651	; 0xbe0b
     778:	03000008 	movweq	r0, #8
     77c:	0b0b0024 	bleq	2c0814 <__bss_end__+0x2b5a2c>
     780:	0e030b3e 	vmoveq.16	d3[0], r0
     784:	16040000 	strne	r0, [r4], -r0
     788:	3a0e0300 	bcc	381390 <__bss_end__+0x3765a8>
     78c:	390b3b0b 	stmdbcc	fp, {r0, r1, r3, r8, r9, fp, ip, sp}
     790:	0013490b 	andseq	r4, r3, fp, lsl #18
     794:	01150500 	tsteq	r5, r0, lsl #10
     798:	13491927 	movtne	r1, #39207	; 0x9927
     79c:	00001301 	andeq	r1, r0, r1, lsl #6
     7a0:	49000506 	stmdbmi	r0, {r1, r2, r8, sl}
     7a4:	07000013 	smladeq	r0, r3, r0, r0
     7a8:	0e030034 	mcreq	0, 0, r0, cr3, cr4, {1}
     7ac:	0b3b0b3a 	bleq	ec349c <__bss_end__+0xeb86b4>
     7b0:	13490b39 	movtne	r0, #39737	; 0x9b39
     7b4:	193c193f 	ldmdbne	ip!, {r0, r1, r2, r3, r4, r5, r8, fp, ip}
     7b8:	0f080000 	svceq	0x00080000
     7bc:	490b0b00 	stmdbmi	fp, {r8, r9, fp}
     7c0:	09000013 	stmdbeq	r0, {r0, r1, r4}
     7c4:	13490026 	movtne	r0, #36902	; 0x9026
     7c8:	130a0000 	movwne	r0, #40960	; 0xa000
     7cc:	3a0b0b01 	bcc	2c33d8 <__bss_end__+0x2b85f0>
     7d0:	390b3b0b 	stmdbcc	fp, {r0, r1, r3, r8, r9, fp, ip, sp}
     7d4:	0013010b 	andseq	r0, r3, fp, lsl #2
     7d8:	000d0b00 	andeq	r0, sp, r0, lsl #22
     7dc:	0b3a0e03 	bleq	e83ff0 <__bss_end__+0xe79208>
     7e0:	0b390b3b 	bleq	e434d4 <__bss_end__+0xe386ec>
     7e4:	0b381349 	bleq	e05510 <__bss_end__+0xdfa728>
     7e8:	040c0000 	streq	r0, [ip], #-0
     7ec:	0b0b3e01 	bleq	2cfff8 <__bss_end__+0x2c5210>
     7f0:	3a13490b 	bcc	4d2c24 <__bss_end__+0x4c7e3c>
     7f4:	390b3b0b 	stmdbcc	fp, {r0, r1, r3, r8, r9, fp, ip, sp}
     7f8:	0013010b 	andseq	r0, r3, fp, lsl #2
     7fc:	00280d00 	eoreq	r0, r8, r0, lsl #26
     800:	0b1c0e03 	bleq	704014 <__bss_end__+0x6f922c>
     804:	130e0000 	movwne	r0, #57344	; 0xe000
     808:	0b0e0301 	bleq	381414 <__bss_end__+0x37662c>
     80c:	3b0b3a0b 	blcc	2cf040 <__bss_end__+0x2c4258>
     810:	010b390b 	tsteq	fp, fp, lsl #18
     814:	0f000013 	svceq	0x00000013
     818:	0803000d 	stmdaeq	r3, {r0, r2, r3}
     81c:	0b3b0b3a 	bleq	ec350c <__bss_end__+0xeb8724>
     820:	13490b39 	movtne	r0, #39737	; 0x9b39
     824:	00000b38 	andeq	r0, r0, r8, lsr fp
     828:	49010110 	stmdbmi	r1, {r4, r8}
     82c:	00130113 	andseq	r0, r3, r3, lsl r1
     830:	00211100 	eoreq	r1, r1, r0, lsl #2
     834:	0b2f1349 	bleq	bc5560 <__bss_end__+0xbba778>
     838:	0f120000 	svceq	0x00120000
     83c:	000b0b00 	andeq	r0, fp, r0, lsl #22
     840:	00341300 	eorseq	r1, r4, r0, lsl #6
     844:	0b3a0e03 	bleq	e84058 <__bss_end__+0xe79270>
     848:	0b390b3b 	bleq	e4353c <__bss_end__+0xe38754>
     84c:	18021349 	stmdane	r2, {r0, r3, r6, r8, r9, ip}
     850:	2e140000 	cdpcs	0, 1, cr0, cr4, cr0, {0}
     854:	03193f01 	tsteq	r9, #1, 30
     858:	3b0b3a0e 	blcc	2cf098 <__bss_end__+0x2c42b0>
     85c:	270b3905 	strcs	r3, [fp, -r5, lsl #18]
     860:	12011119 	andne	r1, r1, #1073741830	; 0x40000006
     864:	97184006 	ldrls	r4, [r8, -r6]
     868:	13011942 	movwne	r1, #6466	; 0x1942
     86c:	34150000 	ldrcc	r0, [r5], #-0
     870:	490e0300 	stmdbmi	lr, {r8, r9}
     874:	02193413 	andseq	r3, r9, #318767104	; 0x13000000
     878:	16000018 			; <UNDEFINED> instruction: 0x16000018
     87c:	01018289 	smlabbeq	r1, r9, r2, r8
     880:	13310111 	teqne	r1, #1073741828	; 0x40000004
     884:	00001301 	andeq	r1, r0, r1, lsl #6
     888:	01828a17 	orreq	r8, r2, r7, lsl sl
     88c:	91180200 	tstls	r8, r0, lsl #4
     890:	00001842 	andeq	r1, r0, r2, asr #16
     894:	01828918 	orreq	r8, r2, r8, lsl r9
     898:	31011100 	mrscc	r1, (UNDEF: 17)
     89c:	19000013 	stmdbne	r0, {r0, r1, r4}
     8a0:	193f012e 	ldmdbne	pc!, {r1, r2, r3, r5, r8}	; <UNPREDICTABLE>
     8a4:	0b3a0e03 	bleq	e840b8 <__bss_end__+0xe792d0>
     8a8:	0b39053b 	bleq	e41d9c <__bss_end__+0xe36fb4>
     8ac:	13491927 	movtne	r1, #39207	; 0x9927
     8b0:	06120111 			; <UNDEFINED> instruction: 0x06120111
     8b4:	42971840 	addsmi	r1, r7, #64, 16	; 0x400000
     8b8:	00130119 	andseq	r0, r3, r9, lsl r1
     8bc:	00341a00 	eorseq	r1, r4, r0, lsl #20
     8c0:	0b3a0e03 	bleq	e840d4 <__bss_end__+0xe792ec>
     8c4:	0b39053b 	bleq	e41db8 <__bss_end__+0xe36fd0>
     8c8:	17021349 	strne	r1, [r2, -r9, asr #6]
     8cc:	001742b7 			; <UNDEFINED> instruction: 0x001742b7
     8d0:	011d1b00 	tsteq	sp, r0, lsl #22
     8d4:	01521331 	cmpeq	r2, r1, lsr r3
     8d8:	550b42b8 	strpl	r4, [fp, #-696]	; 0xfffffd48
     8dc:	590b5817 	stmdbpl	fp, {r0, r1, r2, r4, fp, ip, lr}
     8e0:	010b5705 	tsteq	fp, r5, lsl #14
     8e4:	1c000013 	stcne	0, cr0, [r0], {19}
     8e8:	1755010b 	ldrbne	r0, [r5, -fp, lsl #2]
     8ec:	341d0000 	ldrcc	r0, [sp], #-0
     8f0:	02133100 	andseq	r3, r3, #0
     8f4:	1742b717 	smlaldne	fp, r2, r7, r7
     8f8:	0b1e0000 	bleq	780900 <__bss_end__+0x775b18>
     8fc:	55133101 	ldrpl	r3, [r3, #-257]	; 0xfffffeff
     900:	00130117 	andseq	r0, r3, r7, lsl r1
     904:	00051f00 	andeq	r1, r5, r0, lsl #30
     908:	17021331 	smladxne	r2, r1, r3, r1
     90c:	001742b7 			; <UNDEFINED> instruction: 0x001742b7
     910:	82892000 	addhi	r2, r9, #0, 0
     914:	01110101 	tsteq	r1, r1, lsl #2
     918:	00001331 	andeq	r1, r0, r1, lsr r3
     91c:	03012e21 	movweq	r2, #7713	; 0x1e21
     920:	3b0b3a0e 	blcc	2cf160 <__bss_end__+0x2c4378>
     924:	270b390b 	strcs	r3, [fp, -fp, lsl #18]
     928:	20134919 	andscs	r4, r3, r9, lsl r9
     92c:	0013010b 	andseq	r0, r3, fp, lsl #2
     930:	00342200 	eorseq	r2, r4, r0, lsl #4
     934:	0b3a0e03 	bleq	e84148 <__bss_end__+0xe79360>
     938:	0b390b3b 	bleq	e4362c <__bss_end__+0xe38844>
     93c:	00001349 	andeq	r1, r0, r9, asr #6
     940:	00010b23 	andeq	r0, r1, r3, lsr #22
     944:	00342400 	eorseq	r2, r4, r0, lsl #8
     948:	0b3a0803 	bleq	e8295c <__bss_end__+0xe77b74>
     94c:	0b390b3b 	bleq	e43640 <__bss_end__+0xe38858>
     950:	00001349 	andeq	r1, r0, r9, asr #6
     954:	3f012e25 	svccc	0x00012e25
     958:	3a0e0319 	bcc	3815c4 <__bss_end__+0x3767dc>
     95c:	390b3b0b 	stmdbcc	fp, {r0, r1, r3, r8, r9, fp, ip, sp}
     960:	4919270b 	ldmdbmi	r9, {r0, r1, r3, r8, r9, sl, sp}
     964:	12011113 	andne	r1, r1, #-1073741820	; 0xc0000004
     968:	97184006 	ldrls	r4, [r8, -r6]
     96c:	13011942 	movwne	r1, #6466	; 0x1942
     970:	34260000 	strtcc	r0, [r6], #-0
     974:	3a0e0300 	bcc	38157c <__bss_end__+0x376794>
     978:	390b3b0b 	stmdbcc	fp, {r0, r1, r3, r8, r9, fp, ip, sp}
     97c:	0213490b 	andseq	r4, r3, #180224	; 0x2c000
     980:	1742b717 	smlaldne	fp, r2, r7, r7
     984:	1d270000 	stcne	0, cr0, [r7, #-0]
     988:	52133101 	andspl	r3, r3, #1073741824	; 0x40000000
     98c:	0b42b801 	bleq	10ae998 <__bss_end__+0x10a3bb0>
     990:	06120111 			; <UNDEFINED> instruction: 0x06120111
     994:	0b590b58 	bleq	16436fc <__bss_end__+0x1638914>
     998:	13010b57 	movwne	r0, #6999	; 0x1b57
     99c:	2e280000 	cdpcs	0, 2, cr0, cr8, cr0, {0}
     9a0:	03193f01 	tsteq	r9, #1, 30
     9a4:	3b0b3a0e 	blcc	2cf1e4 <__bss_end__+0x2c43fc>
     9a8:	270b390b 	strcs	r3, [fp, -fp, lsl #18]
     9ac:	12011119 	andne	r1, r1, #1073741830	; 0x40000006
     9b0:	97184006 	ldrls	r4, [r8, -r6]
     9b4:	13011942 	movwne	r1, #6466	; 0x1942
     9b8:	2e290000 	cdpcs	0, 2, cr0, cr9, cr0, {0}
     9bc:	03193f01 	tsteq	r9, #1, 30
     9c0:	3b0b3a0e 	blcc	2cf200 <__bss_end__+0x2c4418>
     9c4:	270b390b 	strcs	r3, [fp, -fp, lsl #18]
     9c8:	20134919 	andscs	r4, r3, r9, lsl r9
     9cc:	0013010b 	andseq	r0, r3, fp, lsl #2
     9d0:	00052a00 	andeq	r2, r5, r0, lsl #20
     9d4:	0b3a0e03 	bleq	e841e8 <__bss_end__+0xe79400>
     9d8:	0b390b3b 	bleq	e436cc <__bss_end__+0xe388e4>
     9dc:	00001349 	andeq	r1, r0, r9, asr #6
     9e0:	03012e2b 	movweq	r2, #7723	; 0x1e2b
     9e4:	3b0b3a0e 	blcc	2cf224 <__bss_end__+0x2c443c>
     9e8:	270b390b 	strcs	r3, [fp, -fp, lsl #18]
     9ec:	11134919 	tstne	r3, r9, lsl r9
     9f0:	40061201 	andmi	r1, r6, r1, lsl #4
     9f4:	19429718 	stmdbne	r2, {r3, r4, r8, r9, sl, ip, pc}^
     9f8:	00001301 	andeq	r1, r0, r1, lsl #6
     9fc:	0300052c 	movweq	r0, #1324	; 0x52c
     a00:	3b0b3a0e 	blcc	2cf240 <__bss_end__+0x2c4458>
     a04:	490b390b 	stmdbmi	fp, {r0, r1, r3, r8, fp, ip, sp}
     a08:	b7170213 			; <UNDEFINED> instruction: 0xb7170213
     a0c:	00001742 	andeq	r1, r0, r2, asr #14
     a10:	55010b2d 	strpl	r0, [r1, #-2861]	; 0xfffff4d3
     a14:	00130117 	andseq	r0, r3, r7, lsl r1
     a18:	00342e00 	eorseq	r2, r4, r0, lsl #28
     a1c:	0b3a0803 	bleq	e82a30 <__bss_end__+0xe77c48>
     a20:	0b390b3b 	bleq	e43714 <__bss_end__+0xe3892c>
     a24:	17021349 	strne	r1, [r2, -r9, asr #6]
     a28:	001742b7 			; <UNDEFINED> instruction: 0x001742b7
     a2c:	012e2f00 			; <UNDEFINED> instruction: 0x012e2f00
     a30:	0b3a0e03 	bleq	e84244 <__bss_end__+0xe7945c>
     a34:	0b390b3b 	bleq	e43728 <__bss_end__+0xe38940>
     a38:	01111927 	tsteq	r1, r7, lsr #18
     a3c:	18400612 	stmdane	r0, {r1, r4, r9, sl}^
     a40:	01194297 			; <UNDEFINED> instruction: 0x01194297
     a44:	30000013 	andcc	r0, r0, r3, lsl r0
     a48:	0e030034 	mcreq	0, 0, r0, cr3, cr4, {1}
     a4c:	0b3b0b3a 	bleq	ec373c <__bss_end__+0xeb8954>
     a50:	13490b39 	movtne	r0, #39737	; 0x9b39
     a54:	0000061c 	andeq	r0, r0, ip, lsl r6
     a58:	03012e31 	movweq	r2, #7729	; 0x1e31
     a5c:	3b0b3a0e 	blcc	2cf29c <__bss_end__+0x2c44b4>
     a60:	270b390b 	strcs	r3, [fp, -fp, lsl #18]
     a64:	010b2019 	tsteq	fp, r9, lsl r0
     a68:	32000013 	andcc	r0, r0, #19, 0
     a6c:	08030005 	stmdaeq	r3, {r0, r2}
     a70:	0b3b0b3a 	bleq	ec3760 <__bss_end__+0xeb8978>
     a74:	13490b39 	movtne	r0, #39737	; 0x9b39
     a78:	89330000 	ldmdbhi	r3!, {}	; <UNPREDICTABLE>
     a7c:	11010182 	smlabbne	r1, r2, r1, r0
     a80:	19429501 	stmdbne	r2, {r0, r8, sl, ip, pc}^
     a84:	13011331 	movwne	r1, #4913	; 0x1331
     a88:	2e340000 	cdpcs	0, 3, cr0, cr4, cr0, {0}
     a8c:	11133101 	tstne	r3, r1, lsl #2
     a90:	40061201 	andmi	r1, r6, r1, lsl #4
     a94:	19429718 	stmdbne	r2, {r3, r4, r8, r9, sl, ip, pc}^
     a98:	00001301 	andeq	r1, r0, r1, lsl #6
     a9c:	31011d35 	tstcc	r1, r5, lsr sp
     aa0:	58175513 	ldmdapl	r7, {r0, r1, r4, r8, sl, ip, lr}
     aa4:	570b590b 	strpl	r5, [fp, -fp, lsl #18]
     aa8:	0013010b 	andseq	r0, r3, fp, lsl #2
     aac:	00053600 	andeq	r3, r5, r0, lsl #12
     ab0:	00001331 	andeq	r1, r0, r1, lsr r3
     ab4:	31010b37 	tstcc	r1, r7, lsr fp
     ab8:	00175513 	andseq	r5, r7, r3, lsl r5
     abc:	011d3800 	tsteq	sp, r0, lsl #16
     ac0:	01521331 	cmpeq	r2, r1, lsr r3
     ac4:	550b42b8 	strpl	r4, [fp, #-696]	; 0xfffffd48
     ac8:	590b5817 	stmdbpl	fp, {r0, r1, r2, r4, fp, ip, lr}
     acc:	000b570b 	andeq	r5, fp, fp, lsl #14
     ad0:	011d3900 	tsteq	sp, r0, lsl #18
     ad4:	01521331 	cmpeq	r2, r1, lsr r3
     ad8:	550b42b8 	strpl	r4, [fp, #-696]	; 0xfffffd48
     adc:	590b5817 	stmdbpl	fp, {r0, r1, r2, r4, fp, ip, lr}
     ae0:	010b570b 	tsteq	fp, fp, lsl #14
     ae4:	3a000013 	bcc	b38 <__code_start__-0x74c8>
     ae8:	01018289 	smlabbeq	r1, r9, r2, r8
     aec:	42950111 	addsmi	r0, r5, #1073741828	; 0x40000004
     af0:	00133119 	andseq	r3, r3, r9, lsl r1
     af4:	002e3b00 	eoreq	r3, lr, r0, lsl #22
     af8:	193c193f 	ldmdbne	ip!, {r0, r1, r2, r3, r4, r5, r8, fp, ip}
     afc:	0e030e6e 	cdpeq	14, 0, cr0, cr3, cr14, {3}
     b00:	0b3b0b3a 	bleq	ec37f0 <__bss_end__+0xeb8a08>
     b04:	00000b39 	andeq	r0, r0, r9, lsr fp
     b08:	0200363c 	andeq	r3, r0, #60, 12	; 0x3c00000
     b0c:	00000018 	andeq	r0, r0, r8, lsl r0
     b10:	25011101 	strcs	r1, [r1, #-257]	; 0xfffffeff
     b14:	030b130e 	movweq	r1, #45838	; 0xb30e
     b18:	110e1b0e 	tstne	lr, lr, lsl #22
     b1c:	10061201 	andne	r1, r6, r1, lsl #4
     b20:	02000017 	andeq	r0, r0, #23, 0
     b24:	0b0b0024 	bleq	2c0bbc <__bss_end__+0x2b5dd4>
     b28:	08030b3e 	stmdaeq	r3, {r1, r2, r3, r4, r5, r8, r9, fp}
     b2c:	16030000 	strne	r0, [r3], -r0
     b30:	3a0e0300 	bcc	381738 <__bss_end__+0x376950>
     b34:	390b3b0b 	stmdbcc	fp, {r0, r1, r3, r8, r9, fp, ip, sp}
     b38:	0013490b 	andseq	r4, r3, fp, lsl #18
     b3c:	00240400 	eoreq	r0, r4, r0, lsl #8
     b40:	0b3e0b0b 	bleq	f83774 <__bss_end__+0xf7898c>
     b44:	00000e03 	andeq	r0, r0, r3, lsl #28
     b48:	27011505 	strcs	r1, [r1, -r5, lsl #10]
     b4c:	01134919 	tsteq	r3, r9, lsl r9
     b50:	06000013 			; <UNDEFINED> instruction: 0x06000013
     b54:	13490005 	movtne	r0, #36869	; 0x9005
     b58:	34070000 	strcc	r0, [r7], #-0
     b5c:	3a0e0300 	bcc	381764 <__bss_end__+0x37697c>
     b60:	390b3b0b 	stmdbcc	fp, {r0, r1, r3, r8, r9, fp, ip, sp}
     b64:	3f13490b 	svccc	0x0013490b
     b68:	00193c19 	andseq	r3, r9, r9, lsl ip
     b6c:	000f0800 	andeq	r0, pc, r0, lsl #16
     b70:	13490b0b 	movtne	r0, #39691	; 0x9b0b
     b74:	26090000 	strcs	r0, [r9], -r0
     b78:	00134900 	andseq	r4, r3, r0, lsl #18
     b7c:	012e0a00 			; <UNDEFINED> instruction: 0x012e0a00
     b80:	0e03193f 			; <UNDEFINED> instruction: 0x0e03193f
     b84:	0b3b0b3a 	bleq	ec3874 <__bss_end__+0xeb8a8c>
     b88:	19270b39 	stmdbne	r7!, {r0, r3, r4, r5, r8, r9, fp}
     b8c:	01111349 	tsteq	r1, r9, asr #6
     b90:	18400612 	stmdane	r0, {r1, r4, r9, sl}^
     b94:	01194297 			; <UNDEFINED> instruction: 0x01194297
     b98:	0b000013 	bleq	bec <__code_start__-0x7414>
     b9c:	08030005 	stmdaeq	r3, {r0, r2}
     ba0:	0b3b0b3a 	bleq	ec3890 <__bss_end__+0xeb8aa8>
     ba4:	13490b39 	movtne	r0, #39737	; 0x9b39
     ba8:	00001802 	andeq	r1, r0, r2, lsl #16
     bac:	0300050c 	movweq	r0, #1292	; 0x50c
     bb0:	3b0b3a08 	blcc	2cf3d8 <__bss_end__+0x2c45f0>
     bb4:	490b390b 	stmdbmi	fp, {r0, r1, r3, r8, fp, ip, sp}
     bb8:	b7170213 			; <UNDEFINED> instruction: 0xb7170213
     bbc:	00001742 	andeq	r1, r0, r2, asr #14
     bc0:	0300340d 	movweq	r3, #1037	; 0x40d
     bc4:	3b0b3a08 	blcc	2cf3ec <__bss_end__+0x2c4604>
     bc8:	490b390b 	stmdbmi	fp, {r0, r1, r3, r8, fp, ip, sp}
     bcc:	b7170213 			; <UNDEFINED> instruction: 0xb7170213
     bd0:	00001742 	andeq	r1, r0, r2, asr #14
     bd4:	0b000f0e 	bleq	4814 <__code_start__-0x37ec>
     bd8:	0000000b 	andeq	r0, r0, fp
     bdc:	25011101 	strcs	r1, [r1, #-257]	; 0xfffffeff
     be0:	030b130e 	movweq	r1, #45838	; 0xb30e
     be4:	110e1b0e 	tstne	lr, lr, lsl #22
     be8:	10061201 	andne	r1, r6, r1, lsl #4
     bec:	02000017 	andeq	r0, r0, #23, 0
     bf0:	0e030016 	mcreq	0, 0, r0, cr3, cr6, {0}
     bf4:	0b3b0b3a 	bleq	ec38e4 <__bss_end__+0xeb8afc>
     bf8:	13490b39 	movtne	r0, #39737	; 0x9b39
     bfc:	13030000 	movwne	r0, #12288	; 0x3000
     c00:	0b0e0301 	bleq	38180c <__bss_end__+0x376a24>
     c04:	3b0b3a0b 	blcc	2cf438 <__bss_end__+0x2c4650>
     c08:	0013010b 	andseq	r0, r3, fp, lsl #2
     c0c:	000d0400 	andeq	r0, sp, r0, lsl #8
     c10:	13490e03 	movtne	r0, #40451	; 0x9e03
     c14:	19340b38 	ldmdbne	r4!, {r3, r4, r5, r8, r9, fp}
     c18:	0f050000 	svceq	0x00050000
     c1c:	000b0b00 	andeq	r0, fp, r0, lsl #22
     c20:	00240600 	eoreq	r0, r4, r0, lsl #12
     c24:	0b3e0b0b 	bleq	f83858 <__bss_end__+0xf78a70>
     c28:	00000803 	andeq	r0, r0, r3, lsl #16
     c2c:	0b002407 	bleq	9c50 <kmalloc_notzero+0x6c>
     c30:	030b3e0b 	movweq	r3, #48651	; 0xbe0b
     c34:	0800000e 	stmdaeq	r0, {r1, r2, r3}
     c38:	19270115 	stmdbne	r7!, {r0, r2, r4, r8}
     c3c:	13011349 	movwne	r1, #4937	; 0x1349
     c40:	05090000 	streq	r0, [r9, #-0]
     c44:	00134900 	andseq	r4, r3, r0, lsl #18
     c48:	00340a00 	eorseq	r0, r4, r0, lsl #20
     c4c:	0b3a0e03 	bleq	e84460 <__bss_end__+0xe79678>
     c50:	0b390b3b 	bleq	e43944 <__bss_end__+0xe38b5c>
     c54:	193f1349 	ldmdbne	pc!, {r0, r3, r6, r8, r9, ip}	; <UNPREDICTABLE>
     c58:	0000193c 	andeq	r1, r0, ip, lsr r9
     c5c:	0b000f0b 	bleq	4890 <__code_start__-0x3770>
     c60:	0013490b 	andseq	r4, r3, fp, lsl #18
     c64:	00260c00 	eoreq	r0, r6, r0, lsl #24
     c68:	00001349 	andeq	r1, r0, r9, asr #6
     c6c:	3f012e0d 	svccc	0x00012e0d
     c70:	3a0e0319 	bcc	3818dc <__bss_end__+0x376af4>
     c74:	390b3b0b 	stmdbcc	fp, {r0, r1, r3, r8, r9, fp, ip, sp}
     c78:	4919270b 	ldmdbmi	r9, {r0, r1, r3, r8, r9, sl, sp}
     c7c:	12011113 	andne	r1, r1, #-1073741820	; 0xc0000004
     c80:	97184006 	ldrls	r4, [r8, -r6]
     c84:	13011942 	movwne	r1, #6466	; 0x1942
     c88:	050e0000 	streq	r0, [lr, #-0]
     c8c:	3a080300 	bcc	201894 <__bss_end__+0x1f6aac>
     c90:	390b3b0b 	stmdbcc	fp, {r0, r1, r3, r8, r9, fp, ip, sp}
     c94:	0213490b 	andseq	r4, r3, #180224	; 0x2c000
     c98:	0f000018 	svceq	0x00000018
     c9c:	00000018 	andeq	r0, r0, r8, lsl r0
     ca0:	03003410 	movweq	r3, #1040	; 0x410
     ca4:	3b0b3a08 	blcc	2cf4cc <__bss_end__+0x2c46e4>
     ca8:	490b390b 	stmdbmi	fp, {r0, r1, r3, r8, fp, ip, sp}
     cac:	00180213 	andseq	r0, r8, r3, lsl r2
     cb0:	00341100 	eorseq	r1, r4, r0, lsl #2
     cb4:	0b3a0e03 	bleq	e844c8 <__bss_end__+0xe796e0>
     cb8:	0b390b3b 	bleq	e439ac <__bss_end__+0xe38bc4>
     cbc:	18021349 	stmdane	r2, {r0, r3, r6, r8, r9, ip}
     cc0:	34120000 	ldrcc	r0, [r2], #-0
     cc4:	3a080300 	bcc	2018cc <__bss_end__+0x1f6ae4>
     cc8:	390b3b0b 	stmdbcc	fp, {r0, r1, r3, r8, r9, fp, ip, sp}
     ccc:	0213490b 	andseq	r4, r3, #180224	; 0x2c000
     cd0:	1742b717 	smlaldne	fp, r2, r7, r7
     cd4:	89130000 	ldmdbhi	r3, {}	; <UNPREDICTABLE>
     cd8:	11010182 	smlabbne	r1, r2, r1, r0
     cdc:	01133101 	tsteq	r3, r1, lsl #2
     ce0:	14000013 	strne	r0, [r0], #-19	; 0xffffffed
     ce4:	0001828a 	andeq	r8, r1, sl, lsl #5
     ce8:	42911802 	addsmi	r1, r1, #131072	; 0x20000
     cec:	15000018 	strne	r0, [r0, #-24]	; 0xffffffe8
     cf0:	01018289 	smlabbeq	r1, r9, r2, r8
     cf4:	00000111 	andeq	r0, r0, r1, lsl r1
     cf8:	49010116 	stmdbmi	r1, {r1, r2, r4, r8}
     cfc:	00130113 	andseq	r0, r3, r3, lsl r1
     d00:	00211700 	eoreq	r1, r1, r0, lsl #14
     d04:	052f1349 	streq	r1, [pc, #-841]!	; 9c3 <__code_start__-0x763d>
     d08:	2e180000 	cdpcs	0, 1, cr0, cr8, cr0, {0}
     d0c:	3c193f00 	ldccc	15, cr3, [r9], {-0}
     d10:	030e6e19 	movweq	r6, #60953	; 0xee19
     d14:	3b0b3a0e 	blcc	2cf554 <__bss_end__+0x2c476c>
     d18:	000b390b 	andeq	r3, fp, fp, lsl #18
     d1c:	11010000 	mrsne	r0, (UNDEF: 1)
     d20:	130e2501 	movwne	r2, #58625	; 0xe501
     d24:	1b0e030b 	blne	381958 <__bss_end__+0x376b70>
     d28:	1201110e 	andne	r1, r1, #-2147483645	; 0x80000003
     d2c:	00171006 	andseq	r1, r7, r6
     d30:	00240200 	eoreq	r0, r4, r0, lsl #4
     d34:	0b3e0b0b 	bleq	f83968 <__bss_end__+0xf78b80>
     d38:	00000803 	andeq	r0, r0, r3, lsl #16
     d3c:	0b002403 	bleq	9d50 <kmalloc_aligned+0x70>
     d40:	030b3e0b 	movweq	r3, #48651	; 0xbe0b
     d44:	0400000e 	streq	r0, [r0], #-14
     d48:	19270115 	stmdbne	r7!, {r0, r2, r4, r8}
     d4c:	13011349 	movwne	r1, #4937	; 0x1349
     d50:	05050000 	streq	r0, [r5, #-0]
     d54:	00134900 	andseq	r4, r3, r0, lsl #18
     d58:	00340600 	eorseq	r0, r4, r0, lsl #12
     d5c:	0b3a0e03 	bleq	e84570 <__bss_end__+0xe79788>
     d60:	0b390b3b 	bleq	e43a54 <__bss_end__+0xe38c6c>
     d64:	193f1349 	ldmdbne	pc!, {r0, r3, r6, r8, r9, ip}	; <UNPREDICTABLE>
     d68:	0000193c 	andeq	r1, r0, ip, lsr r9
     d6c:	0b000f07 	bleq	4990 <__code_start__-0x3670>
     d70:	0013490b 	andseq	r4, r3, fp, lsl #18
     d74:	00260800 	eoreq	r0, r6, r0, lsl #16
     d78:	00001349 	andeq	r1, r0, r9, asr #6
     d7c:	47003409 	strmi	r3, [r0, -r9, lsl #8]
     d80:	3b0b3a13 	blcc	2cf5d4 <__bss_end__+0x2c47ec>
     d84:	020b390b 	andeq	r3, fp, #180224	; 0x2c000
     d88:	0a000018 	beq	df0 <__code_start__-0x7210>
     d8c:	193f012e 	ldmdbne	pc!, {r1, r2, r3, r5, r8}	; <UNPREDICTABLE>
     d90:	0b3a0e03 	bleq	e845a4 <__bss_end__+0xe797bc>
     d94:	0b390b3b 	bleq	e43a88 <__bss_end__+0xe38ca0>
     d98:	13491927 	movtne	r1, #39207	; 0x9927
     d9c:	06120111 			; <UNDEFINED> instruction: 0x06120111
     da0:	42961840 	addsmi	r1, r6, #64, 16	; 0x400000
     da4:	0b000019 	bleq	e10 <__code_start__-0x71f0>
     da8:	08030005 	stmdaeq	r3, {r0, r2}
     dac:	0b3b0b3a 	bleq	ec3a9c <__bss_end__+0xeb8cb4>
     db0:	13490b39 	movtne	r0, #39737	; 0x9b39
     db4:	42b71702 	adcsmi	r1, r7, #524288	; 0x80000
     db8:	00000017 	andeq	r0, r0, r7, lsl r0
     dbc:	25011101 	strcs	r1, [r1, #-257]	; 0xfffffeff
     dc0:	030b130e 	movweq	r1, #45838	; 0xb30e
     dc4:	110e1b0e 	tstne	lr, lr, lsl #22
     dc8:	10061201 	andne	r1, r6, r1, lsl #4
     dcc:	02000017 	andeq	r0, r0, #23, 0
     dd0:	0b0b0024 	bleq	2c0e68 <__bss_end__+0x2b6080>
     dd4:	0e030b3e 	vmoveq.16	d3[0], r0
     dd8:	24030000 	strcs	r0, [r3], #-0
     ddc:	3e0b0b00 	vmlacc.f64	d0, d11, d0
     de0:	0008030b 	andeq	r0, r8, fp, lsl #6
     de4:	00160400 	andseq	r0, r6, r0, lsl #8
     de8:	0b3a0e03 	bleq	e845fc <__bss_end__+0xe79814>
     dec:	0b390b3b 	bleq	e43ae0 <__bss_end__+0xe38cf8>
     df0:	00001349 	andeq	r1, r0, r9, asr #6
     df4:	27011505 	strcs	r1, [r1, -r5, lsl #10]
     df8:	01134919 	tsteq	r3, r9, lsl r9
     dfc:	06000013 			; <UNDEFINED> instruction: 0x06000013
     e00:	13490005 	movtne	r0, #36869	; 0x9005
     e04:	34070000 	strcc	r0, [r7], #-0
     e08:	3a0e0300 	bcc	381a10 <__bss_end__+0x376c28>
     e0c:	390b3b0b 	stmdbcc	fp, {r0, r1, r3, r8, r9, fp, ip, sp}
     e10:	3f13490b 	svccc	0x0013490b
     e14:	00193c19 	andseq	r3, r9, r9, lsl ip
     e18:	000f0800 	andeq	r0, pc, r0, lsl #16
     e1c:	13490b0b 	movtne	r0, #39691	; 0x9b0b
     e20:	26090000 	strcs	r0, [r9], -r0
     e24:	00134900 	andseq	r4, r3, r0, lsl #18
     e28:	01130a00 	tsteq	r3, r0, lsl #20
     e2c:	0b0b0e03 	bleq	2c4640 <__bss_end__+0x2b9858>
     e30:	0b3b0b3a 	bleq	ec3b20 <__bss_end__+0xeb8d38>
     e34:	00001301 	andeq	r1, r0, r1, lsl #6
     e38:	03000d0b 	movweq	r0, #3339	; 0xd0b
     e3c:	3813490e 	ldmdacc	r3, {r1, r2, r3, r8, fp, lr}
     e40:	0019340b 	andseq	r3, r9, fp, lsl #8
     e44:	000f0c00 	andeq	r0, pc, r0, lsl #24
     e48:	00000b0b 	andeq	r0, r0, fp, lsl #22
     e4c:	3f012e0d 	svccc	0x00012e0d
     e50:	3a0e0319 	bcc	381abc <__bss_end__+0x376cd4>
     e54:	390b3b0b 	stmdbcc	fp, {r0, r1, r3, r8, r9, fp, ip, sp}
     e58:	4919270b 	ldmdbmi	r9, {r0, r1, r3, r8, r9, sl, sp}
     e5c:	12011113 	andne	r1, r1, #-1073741820	; 0xc0000004
     e60:	97184006 	ldrls	r4, [r8, -r6]
     e64:	13011942 	movwne	r1, #6466	; 0x1942
     e68:	050e0000 	streq	r0, [lr, #-0]
     e6c:	3a080300 	bcc	201a74 <__bss_end__+0x1f6c8c>
     e70:	390b3b0b 	stmdbcc	fp, {r0, r1, r3, r8, r9, fp, ip, sp}
     e74:	0213490b 	andseq	r4, r3, #180224	; 0x2c000
     e78:	1742b717 	smlaldne	fp, r2, r7, r7
     e7c:	050f0000 	streq	r0, [pc, #-0]	; e84 <__code_start__-0x717c>
     e80:	3a0e0300 	bcc	381a88 <__bss_end__+0x376ca0>
     e84:	390b3b0b 	stmdbcc	fp, {r0, r1, r3, r8, r9, fp, ip, sp}
     e88:	0213490b 	andseq	r4, r3, #180224	; 0x2c000
     e8c:	1742b717 	smlaldne	fp, r2, r7, r7
     e90:	34100000 	ldrcc	r0, [r0], #-0
     e94:	3a080300 	bcc	201a9c <__bss_end__+0x1f6cb4>
     e98:	390b3b0b 	stmdbcc	fp, {r0, r1, r3, r8, r9, fp, ip, sp}
     e9c:	0213490b 	andseq	r4, r3, #180224	; 0x2c000
     ea0:	1742b717 	smlaldne	fp, r2, r7, r7
     ea4:	34110000 	ldrcc	r0, [r1], #-0
     ea8:	3a0e0300 	bcc	381ab0 <__bss_end__+0x376cc8>
     eac:	390b3b0b 	stmdbcc	fp, {r0, r1, r3, r8, r9, fp, ip, sp}
     eb0:	0213490b 	andseq	r4, r3, #180224	; 0x2c000
     eb4:	1742b717 	smlaldne	fp, r2, r7, r7
     eb8:	34120000 	ldrcc	r0, [r2], #-0
     ebc:	490e0300 	stmdbmi	lr, {r8, r9}
     ec0:	02193413 	andseq	r3, r9, #318767104	; 0x13000000
     ec4:	13000018 	movwne	r0, #24
     ec8:	1755010b 	ldrbne	r0, [r5, -fp, lsl #2]
     ecc:	34140000 	ldrcc	r0, [r4], #-0
     ed0:	3a080300 	bcc	201ad8 <__bss_end__+0x1f6cf0>
     ed4:	390b3b0b 	stmdbcc	fp, {r0, r1, r3, r8, r9, fp, ip, sp}
     ed8:	0213490b 	andseq	r4, r3, #180224	; 0x2c000
     edc:	15000018 	strne	r0, [r0, #-24]	; 0xffffffe8
     ee0:	0e030034 	mcreq	0, 0, r0, cr3, cr4, {1}
     ee4:	0b3b0b3a 	bleq	ec3bd4 <__bss_end__+0xeb8dec>
     ee8:	13490b39 	movtne	r0, #39737	; 0x9b39
     eec:	00001802 	andeq	r1, r0, r2, lsl #16
     ef0:	55010b16 	strpl	r0, [r1, #-2838]	; 0xfffff4ea
     ef4:	00130117 	andseq	r0, r3, r7, lsl r1
     ef8:	82891700 	addhi	r1, r9, #0, 14
     efc:	01110101 	tsteq	r1, r1, lsl #2
     f00:	13011331 	movwne	r1, #4913	; 0x1331
     f04:	8a180000 	bhi	600f0c <__bss_end__+0x5f6124>
     f08:	02000182 	andeq	r0, r0, #-2147483616	; 0x80000020
     f0c:	18429118 	stmdane	r2, {r3, r4, r8, ip, pc}^
     f10:	89190000 	ldmdbhi	r9, {}	; <UNPREDICTABLE>
     f14:	11000182 	smlabbne	r0, r2, r1, r0
     f18:	00133101 	andseq	r3, r3, r1, lsl #2
     f1c:	011d1a00 	tsteq	sp, r0, lsl #20
     f20:	01521331 	cmpeq	r2, r1, lsr r3
     f24:	550542b8 	strpl	r4, [r5, #-696]	; 0xfffffd48
     f28:	590b5817 	stmdbpl	fp, {r0, r1, r2, r4, fp, ip, lr}
     f2c:	010b570b 	tsteq	fp, fp, lsl #14
     f30:	1b000013 	blne	f84 <__code_start__-0x707c>
     f34:	13310005 	teqne	r1, #5, 0
     f38:	42b71702 	adcsmi	r1, r7, #524288	; 0x80000
     f3c:	1c000017 	stcne	0, cr0, [r0], {23}
     f40:	13310005 	teqne	r1, #5, 0
     f44:	341d0000 	ldrcc	r0, [sp], #-0
     f48:	02133100 	andseq	r3, r3, #0
     f4c:	1e000018 	mcrne	0, 0, r0, cr0, cr8, {0}
     f50:	13310034 	teqne	r1, #52, 0	; 0x34
     f54:	42b71702 	adcsmi	r1, r7, #524288	; 0x80000
     f58:	1f000017 	svcne	0x00000017
     f5c:	13310034 	teqne	r1, #52, 0	; 0x34
     f60:	1d200000 	stcne	0, cr0, [r0, #-0]
     f64:	52133101 	andspl	r3, r3, #1073741824	; 0x40000000
     f68:	0542b801 	strbeq	fp, [r2, #-2049]	; 0xfffff7ff
     f6c:	0b581755 	bleq	1606cc8 <__bss_end__+0x15fbee0>
     f70:	0b570b59 	bleq	15c3cdc <__bss_end__+0x15b8ef4>
     f74:	89210000 	stmdbhi	r1!, {}	; <UNPREDICTABLE>
     f78:	11010182 	smlabbne	r1, r2, r1, r0
     f7c:	00130101 	andseq	r0, r3, r1, lsl #2
     f80:	01012200 	mrseq	r2, R9_usr
     f84:	13011349 	movwne	r1, #4937	; 0x1349
     f88:	21230000 			; <UNDEFINED> instruction: 0x21230000
     f8c:	2f134900 	svccs	0x00134900
     f90:	2400000b 	strcs	r0, [r0], #-11
     f94:	0e03012e 	adfeqsp	f0, f3, #0.5
     f98:	0b3b0b3a 	bleq	ec3c88 <__bss_end__+0xeb8ea0>
     f9c:	19270b39 	stmdbne	r7!, {r0, r3, r4, r5, r8, r9, fp}
     fa0:	0b201349 	bleq	805ccc <__bss_end__+0x7faee4>
     fa4:	00001301 	andeq	r1, r0, r1, lsl #6
     fa8:	03000525 	movweq	r0, #1317	; 0x525
     fac:	3b0b3a0e 	blcc	2cf7ec <__bss_end__+0x2c4a04>
     fb0:	490b390b 	stmdbmi	fp, {r0, r1, r3, r8, fp, ip, sp}
     fb4:	26000013 			; <UNDEFINED> instruction: 0x26000013
     fb8:	08030005 	stmdaeq	r3, {r0, r2}
     fbc:	0b3b0b3a 	bleq	ec3cac <__bss_end__+0xeb8ec4>
     fc0:	13490b39 	movtne	r0, #39737	; 0x9b39
     fc4:	34270000 	strtcc	r0, [r7], #-0
     fc8:	3a080300 	bcc	201bd0 <__bss_end__+0x1f6de8>
     fcc:	390b3b0b 	stmdbcc	fp, {r0, r1, r3, r8, r9, fp, ip, sp}
     fd0:	0013490b 	andseq	r4, r3, fp, lsl #18
     fd4:	010b2800 	tsteq	fp, r0, lsl #16
     fd8:	34290000 	strtcc	r0, [r9], #-0
     fdc:	3a0e0300 	bcc	381be4 <__bss_end__+0x376dfc>
     fe0:	390b3b0b 	stmdbcc	fp, {r0, r1, r3, r8, r9, fp, ip, sp}
     fe4:	0013490b 	andseq	r4, r3, fp, lsl #18
     fe8:	012e2a00 			; <UNDEFINED> instruction: 0x012e2a00
     fec:	0b3a0803 	bleq	e83000 <__bss_end__+0xe78218>
     ff0:	0b390b3b 	bleq	e43ce4 <__bss_end__+0xe38efc>
     ff4:	13491927 	movtne	r1, #39207	; 0x9927
     ff8:	13010b20 	movwne	r0, #6944	; 0x1b20
     ffc:	2e2b0000 	cdpcs	0, 2, cr0, cr11, cr0, {0}
    1000:	03193f01 	tsteq	r9, #1, 30
    1004:	3b0b3a0e 	blcc	2cf844 <__bss_end__+0x2c4a5c>
    1008:	270b390b 	strcs	r3, [fp, -fp, lsl #18]
    100c:	12011119 	andne	r1, r1, #1073741830	; 0x40000006
    1010:	97184006 	ldrls	r4, [r8, -r6]
    1014:	13011942 	movwne	r1, #6466	; 0x1942
    1018:	2e2c0000 	cdpcs	0, 2, cr0, cr12, cr0, {0}
    101c:	11133101 	tstne	r3, r1, lsl #2
    1020:	40061201 	andmi	r1, r6, r1, lsl #4
    1024:	19429718 	stmdbne	r2, {r3, r4, r8, r9, sl, ip, pc}^
    1028:	00001301 	andeq	r1, r0, r1, lsl #6
    102c:	3100052d 	tstcc	r0, sp, lsr #10
    1030:	00180213 	andseq	r0, r8, r3, lsl r2
    1034:	00052e00 	andeq	r2, r5, r0, lsl #28
    1038:	0b1c1331 	bleq	705d04 <__bss_end__+0x6faf1c>
    103c:	0b2f0000 	bleq	bc1044 <__bss_end__+0xbb625c>
    1040:	11133101 	tstne	r3, r1, lsl #2
    1044:	01061201 	tsteq	r6, r1, lsl #4
    1048:	30000013 	andcc	r0, r0, r3, lsl r0
    104c:	193f002e 	ldmdbne	pc!, {r1, r2, r3, r5}	; <UNPREDICTABLE>
    1050:	0e6e193c 			; <UNDEFINED> instruction: 0x0e6e193c
    1054:	0b3a0e03 	bleq	e84868 <__bss_end__+0xe79a80>
    1058:	0b390b3b 	bleq	e43d4c <__bss_end__+0xe38f64>
    105c:	01000000 	mrseq	r0, (UNDEF: 0)
    1060:	0e250111 	mcreq	1, 1, r0, cr5, cr1, {0}
    1064:	0e030b13 	vmoveq.32	d3[0], r0
    1068:	01110e1b 	tsteq	r1, fp, lsl lr
    106c:	17100612 			; <UNDEFINED> instruction: 0x17100612
    1070:	24020000 	strcs	r0, [r2], #-0
    1074:	3e0b0b00 	vmlacc.f64	d0, d11, d0
    1078:	0008030b 	andeq	r0, r8, fp, lsl #6
    107c:	00240300 	eoreq	r0, r4, r0, lsl #6
    1080:	0b3e0b0b 	bleq	f83cb4 <__bss_end__+0xf78ecc>
    1084:	00000e03 	andeq	r0, r0, r3, lsl #28
    1088:	27011504 	strcs	r1, [r1, -r4, lsl #10]
    108c:	01134919 	tsteq	r3, r9, lsl r9
    1090:	05000013 	streq	r0, [r0, #-19]	; 0xffffffed
    1094:	13490005 	movtne	r0, #36869	; 0x9005
    1098:	34060000 	strcc	r0, [r6], #-0
    109c:	3a0e0300 	bcc	381ca4 <__bss_end__+0x376ebc>
    10a0:	390b3b0b 	stmdbcc	fp, {r0, r1, r3, r8, r9, fp, ip, sp}
    10a4:	3f13490b 	svccc	0x0013490b
    10a8:	00193c19 	andseq	r3, r9, r9, lsl ip
    10ac:	000f0700 	andeq	r0, pc, r0, lsl #14
    10b0:	13490b0b 	movtne	r0, #39691	; 0x9b0b
    10b4:	26080000 	strcs	r0, [r8], -r0
    10b8:	00134900 	andseq	r4, r3, r0, lsl #18
    10bc:	012e0900 			; <UNDEFINED> instruction: 0x012e0900
    10c0:	0e03193f 			; <UNDEFINED> instruction: 0x0e03193f
    10c4:	0b3b0b3a 	bleq	ec3db4 <__bss_end__+0xeb8fcc>
    10c8:	19270b39 	stmdbne	r7!, {r0, r3, r4, r5, r8, r9, fp}
    10cc:	11190187 	tstne	r9, r7, lsl #3
    10d0:	40061201 	andmi	r1, r6, r1, lsl #4
    10d4:	19429718 	stmdbne	r2, {r3, r4, r8, r9, sl, ip, pc}^
    10d8:	00001301 	andeq	r1, r0, r1, lsl #6
    10dc:	0182890a 	orreq	r8, r2, sl, lsl #18
    10e0:	01011101 	tsteq	r1, r1, lsl #2
    10e4:	0b000013 	bleq	1138 <__code_start__-0x6ec8>
    10e8:	0001828a 	andeq	r8, r1, sl, lsl #5
    10ec:	42911802 	addsmi	r1, r1, #131072	; 0x20000
    10f0:	0c000018 	stceq	0, cr0, [r0], {24}
    10f4:	00018289 	andeq	r8, r1, r9, lsl #5
    10f8:	13310111 	teqne	r1, #1073741828	; 0x40000004
    10fc:	890d0000 	stmdbhi	sp, {}	; <UNPREDICTABLE>
    1100:	11010182 	smlabbne	r1, r2, r1, r0
    1104:	01133101 	tsteq	r3, r1, lsl #2
    1108:	0e000013 	mcreq	0, 0, r0, cr0, cr3, {0}
    110c:	193f002e 	ldmdbne	pc!, {r1, r2, r3, r5}	; <UNPREDICTABLE>
    1110:	0e6e193c 			; <UNDEFINED> instruction: 0x0e6e193c
    1114:	0b3a0e03 	bleq	e84928 <__bss_end__+0xe79b40>
    1118:	0b390b3b 	bleq	e43e0c <__bss_end__+0xe39024>
    111c:	01000000 	mrseq	r0, (UNDEF: 0)
    1120:	0e250111 	mcreq	1, 1, r0, cr5, cr1, {0}
    1124:	0e030b13 	vmoveq.32	d3[0], r0
    1128:	01110e1b 	tsteq	r1, fp, lsl lr
    112c:	17100612 			; <UNDEFINED> instruction: 0x17100612
    1130:	24020000 	strcs	r0, [r2], #-0
    1134:	3e0b0b00 	vmlacc.f64	d0, d11, d0
    1138:	0008030b 	andeq	r0, r8, fp, lsl #6
    113c:	00240300 	eoreq	r0, r4, r0, lsl #6
    1140:	0b3e0b0b 	bleq	f83d74 <__bss_end__+0xf78f8c>
    1144:	00000e03 	andeq	r0, r0, r3, lsl #28
    1148:	27011504 	strcs	r1, [r1, -r4, lsl #10]
    114c:	01134919 	tsteq	r3, r9, lsl r9
    1150:	05000013 	streq	r0, [r0, #-19]	; 0xffffffed
    1154:	13490005 	movtne	r0, #36869	; 0x9005
    1158:	34060000 	strcc	r0, [r6], #-0
    115c:	3a0e0300 	bcc	381d64 <__bss_end__+0x376f7c>
    1160:	390b3b0b 	stmdbcc	fp, {r0, r1, r3, r8, r9, fp, ip, sp}
    1164:	3f13490b 	svccc	0x0013490b
    1168:	00193c19 	andseq	r3, r9, r9, lsl ip
    116c:	000f0700 	andeq	r0, pc, r0, lsl #14
    1170:	13490b0b 	movtne	r0, #39691	; 0x9b0b
    1174:	26080000 	strcs	r0, [r8], -r0
    1178:	00134900 	andseq	r4, r3, r0, lsl #18
    117c:	012e0900 			; <UNDEFINED> instruction: 0x012e0900
    1180:	0e03193f 			; <UNDEFINED> instruction: 0x0e03193f
    1184:	0b3b0b3a 	bleq	ec3e74 <__bss_end__+0xeb908c>
    1188:	01110b39 	tsteq	r1, r9, lsr fp
    118c:	18400612 	stmdane	r0, {r1, r4, r9, sl}^
    1190:	01194297 			; <UNDEFINED> instruction: 0x01194297
    1194:	0a000013 	beq	11e8 <__code_start__-0x6e18>
    1198:	193f002e 	ldmdbne	pc!, {r1, r2, r3, r5}	; <UNPREDICTABLE>
    119c:	0b3a0e03 	bleq	e849b0 <__bss_end__+0xe79bc8>
    11a0:	0b390b3b 	bleq	e43e94 <__bss_end__+0xe390ac>
    11a4:	193c1927 	ldmdbne	ip!, {r0, r1, r2, r5, r8, fp, ip}
    11a8:	340b0000 	strcc	r0, [fp], #-0
    11ac:	3a080300 	bcc	201db4 <__bss_end__+0x1f6fcc>
    11b0:	390b3b0b 	stmdbcc	fp, {r0, r1, r3, r8, r9, fp, ip, sp}
    11b4:	0213490b 	andseq	r4, r3, #180224	; 0x2c000
    11b8:	1742b717 	smlaldne	fp, r2, r7, r7
    11bc:	340c0000 	strcc	r0, [ip], #-0
    11c0:	3a0e0300 	bcc	381dc8 <__bss_end__+0x376fe0>
    11c4:	390b3b0b 	stmdbcc	fp, {r0, r1, r3, r8, r9, fp, ip, sp}
    11c8:	0013490b 	andseq	r4, r3, fp, lsl #18
    11cc:	010b0d00 	tsteq	fp, r0, lsl #26
    11d0:	06120111 			; <UNDEFINED> instruction: 0x06120111
    11d4:	00001301 	andeq	r1, r0, r1, lsl #6
    11d8:	0182890e 	orreq	r8, r2, lr, lsl #18
    11dc:	31011100 	mrscc	r1, (UNDEF: 17)
    11e0:	0f000013 	svceq	0x00000013
    11e4:	193f002e 	ldmdbne	pc!, {r1, r2, r3, r5}	; <UNPREDICTABLE>
    11e8:	0e6e193c 			; <UNDEFINED> instruction: 0x0e6e193c
    11ec:	0b3a0e03 	bleq	e84a00 <__bss_end__+0xe79c18>
    11f0:	0b39053b 	bleq	e426e4 <__bss_end__+0xe378fc>
    11f4:	2e100000 	cdpcs	0, 1, cr0, cr0, cr0, {0}
    11f8:	3c193f00 	ldccc	15, cr3, [r9], {-0}
    11fc:	030e6e19 	movweq	r6, #60953	; 0xee19
    1200:	3b0b3a0e 	blcc	2cfa40 <__bss_end__+0x2c4c58>
    1204:	000b390b 	andeq	r3, fp, fp, lsl #18
    1208:	11010000 	mrsne	r0, (UNDEF: 1)
    120c:	130e2501 	movwne	r2, #58625	; 0xe501
    1210:	1b0e030b 	blne	381e44 <__bss_end__+0x37705c>
    1214:	1201110e 	andne	r1, r1, #-2147483645	; 0x80000003
    1218:	00171006 	andseq	r1, r7, r6
    121c:	00240200 	eoreq	r0, r4, r0, lsl #4
    1220:	0b3e0b0b 	bleq	f83e54 <__bss_end__+0xf7906c>
    1224:	00000803 	andeq	r0, r0, r3, lsl #16
    1228:	0b002403 	bleq	a23c <__FUNCTION__.4030+0x7c>
    122c:	030b3e0b 	movweq	r3, #48651	; 0xbe0b
    1230:	0400000e 	streq	r0, [r0], #-14
    1234:	19270115 	stmdbne	r7!, {r0, r2, r4, r8}
    1238:	13011349 	movwne	r1, #4937	; 0x1349
    123c:	05050000 	streq	r0, [r5, #-0]
    1240:	00134900 	andseq	r4, r3, r0, lsl #18
    1244:	00340600 	eorseq	r0, r4, r0, lsl #12
    1248:	0b3a0e03 	bleq	e84a5c <__bss_end__+0xe79c74>
    124c:	0b390b3b 	bleq	e43f40 <__bss_end__+0xe39158>
    1250:	193f1349 	ldmdbne	pc!, {r0, r3, r6, r8, r9, ip}	; <UNPREDICTABLE>
    1254:	0000193c 	andeq	r1, r0, ip, lsr r9
    1258:	0b000f07 	bleq	4e7c <__code_start__-0x3184>
    125c:	0013490b 	andseq	r4, r3, fp, lsl #18
    1260:	00260800 	eoreq	r0, r6, r0, lsl #16
    1264:	00001349 	andeq	r1, r0, r9, asr #6
    1268:	3f002e09 	svccc	0x00002e09
    126c:	3a0e0319 	bcc	381ed8 <__bss_end__+0x3770f0>
    1270:	390b3b0b 	stmdbcc	fp, {r0, r1, r3, r8, r9, fp, ip, sp}
    1274:	1119270b 	tstne	r9, fp, lsl #14
    1278:	40061201 	andmi	r1, r6, r1, lsl #4
    127c:	19429718 	stmdbne	r2, {r3, r4, r8, r9, sl, ip, pc}^
    1280:	01000000 	mrseq	r0, (UNDEF: 0)
    1284:	0e250111 	mcreq	1, 1, r0, cr5, cr1, {0}
    1288:	0e030b13 	vmoveq.32	d3[0], r0
    128c:	17550e1b 	smmlane	r5, fp, lr, r0
    1290:	17100111 			; <UNDEFINED> instruction: 0x17100111
    1294:	24020000 	strcs	r0, [r2], #-0
    1298:	3e0b0b00 	vmlacc.f64	d0, d11, d0
    129c:	0008030b 	andeq	r0, r8, fp, lsl #6
    12a0:	00260300 	eoreq	r0, r6, r0, lsl #6
    12a4:	00001349 	andeq	r1, r0, r9, asr #6
    12a8:	0b002404 	bleq	a2c0 <__FUNCTION__.4069+0x14>
    12ac:	030b3e0b 	movweq	r3, #48651	; 0xbe0b
    12b0:	0500000e 	streq	r0, [r0, #-14]
    12b4:	19270115 	stmdbne	r7!, {r0, r2, r4, r8}
    12b8:	13011349 	movwne	r1, #4937	; 0x1349
    12bc:	05060000 	streq	r0, [r6, #-0]
    12c0:	00134900 	andseq	r4, r3, r0, lsl #18
    12c4:	00340700 	eorseq	r0, r4, r0, lsl #14
    12c8:	0b3a0e03 	bleq	e84adc <__bss_end__+0xe79cf4>
    12cc:	0b390b3b 	bleq	e43fc0 <__bss_end__+0xe391d8>
    12d0:	193f1349 	ldmdbne	pc!, {r0, r3, r6, r8, r9, ip}	; <UNPREDICTABLE>
    12d4:	0000193c 	andeq	r1, r0, ip, lsr r9
    12d8:	0b000f08 	bleq	4f00 <__code_start__-0x3100>
    12dc:	0013490b 	andseq	r4, r3, fp, lsl #18
    12e0:	00340900 	eorseq	r0, r4, r0, lsl #18
    12e4:	0b3a0e03 	bleq	e84af8 <__bss_end__+0xe79d10>
    12e8:	0b390b3b 	bleq	e43fdc <__bss_end__+0xe391f4>
    12ec:	00001349 	andeq	r1, r0, r9, asr #6
    12f0:	3f012e0a 	svccc	0x00012e0a
    12f4:	3a0e0319 	bcc	381f60 <__bss_end__+0x377178>
    12f8:	390b3b0b 	stmdbcc	fp, {r0, r1, r3, r8, r9, fp, ip, sp}
    12fc:	8719270b 	ldrhi	r2, [r9, -fp, lsl #14]
    1300:	01111901 	tsteq	r1, r1, lsl #18
    1304:	18400612 	stmdane	r0, {r1, r4, r9, sl}^
    1308:	01194297 			; <UNDEFINED> instruction: 0x01194297
    130c:	0b000013 	bleq	1360 <__code_start__-0x6ca0>
    1310:	0e030034 	mcreq	0, 0, r0, cr3, cr4, {1}
    1314:	0b3b0b3a 	bleq	ec4004 <__bss_end__+0xeb921c>
    1318:	13490b39 	movtne	r0, #39737	; 0x9b39
    131c:	0000061c 	andeq	r0, r0, ip, lsl r6
    1320:	0300340c 	movweq	r3, #1036	; 0x40c
    1324:	3b0b3a0e 	blcc	2cfb64 <__bss_end__+0x2c4d7c>
    1328:	490b390b 	stmdbmi	fp, {r0, r1, r3, r8, fp, ip, sp}
    132c:	000b1c13 	andeq	r1, fp, r3, lsl ip
    1330:	011d0d00 	tsteq	sp, r0, lsl #26
    1334:	01521331 	cmpeq	r2, r1, lsr r3
    1338:	550b42b8 	strpl	r4, [fp, #-696]	; 0xfffffd48
    133c:	590b5817 	stmdbpl	fp, {r0, r1, r2, r4, fp, ip, lr}
    1340:	010b570b 	tsteq	fp, fp, lsl #14
    1344:	0e000013 	mcreq	0, 0, r0, cr0, cr3, {0}
    1348:	1755010b 	ldrbne	r0, [r5, -fp, lsl #2]
    134c:	340f0000 	strcc	r0, [pc], #-0	; 1354 <__code_start__-0x6cac>
    1350:	02133100 	andseq	r3, r3, #0
    1354:	1742b717 	smlaldne	fp, r2, r7, r7
    1358:	1d100000 	ldcne	0, cr0, [r0, #-0]
    135c:	52133101 	andspl	r3, r3, #1073741824	; 0x40000000
    1360:	0b42b801 	bleq	10af36c <__bss_end__+0x10a4584>
    1364:	06120111 			; <UNDEFINED> instruction: 0x06120111
    1368:	0b590b58 	bleq	16440d0 <__bss_end__+0x16392e8>
    136c:	13010b57 	movwne	r0, #6999	; 0x1b57
    1370:	89110000 	ldmdbhi	r1, {}	; <UNPREDICTABLE>
    1374:	11000182 	smlabbne	r0, r2, r1, r0
    1378:	00133101 	andseq	r3, r3, r1, lsl #2
    137c:	82891200 	addhi	r1, r9, #0, 4
    1380:	01110101 	tsteq	r1, r1, lsl #2
    1384:	13011331 	movwne	r1, #4913	; 0x1331
    1388:	8a130000 	bhi	4c1390 <__bss_end__+0x4b65a8>
    138c:	02000182 	andeq	r0, r0, #-2147483616	; 0x80000020
    1390:	18429118 	stmdane	r2, {r3, r4, r8, ip, pc}^
    1394:	89140000 	ldmdbhi	r4, {}	; <UNPREDICTABLE>
    1398:	11010182 	smlabbne	r1, r2, r1, r0
    139c:	00133101 	andseq	r3, r3, r1, lsl #2
    13a0:	012e1500 			; <UNDEFINED> instruction: 0x012e1500
    13a4:	0e03193f 			; <UNDEFINED> instruction: 0x0e03193f
    13a8:	0b3b0b3a 	bleq	ec4098 <__bss_end__+0xeb92b0>
    13ac:	19270b39 	stmdbne	r7!, {r0, r3, r4, r5, r8, r9, fp}
    13b0:	13010b20 	movwne	r0, #6944	; 0x1b20
    13b4:	2e160000 	cdpcs	0, 1, cr0, cr6, cr0, {0}
    13b8:	03193f01 	tsteq	r9, #1, 30
    13bc:	3b0b3a0e 	blcc	2cfbfc <__bss_end__+0x2c4e14>
    13c0:	270b390b 	strcs	r3, [fp, -fp, lsl #18]
    13c4:	20134919 	andscs	r4, r3, r9, lsl r9
    13c8:	0013010b 	andseq	r0, r3, fp, lsl #2
    13cc:	012e1700 			; <UNDEFINED> instruction: 0x012e1700
    13d0:	01111331 	tsteq	r1, r1, lsr r3
    13d4:	18400612 	stmdane	r0, {r1, r4, r9, sl}^
    13d8:	01194297 			; <UNDEFINED> instruction: 0x01194297
    13dc:	18000013 	stmdane	r0, {r0, r1, r4}
    13e0:	193f002e 	ldmdbne	pc!, {r1, r2, r3, r5}	; <UNPREDICTABLE>
    13e4:	0e6e193c 			; <UNDEFINED> instruction: 0x0e6e193c
    13e8:	0b3a0e03 	bleq	e84bfc <__bss_end__+0xe79e14>
    13ec:	0b39053b 	bleq	e428e0 <__bss_end__+0xe37af8>
    13f0:	2e190000 	cdpcs	0, 1, cr0, cr9, cr0, {0}
    13f4:	3c193f00 	ldccc	15, cr3, [r9], {-0}
    13f8:	030e6e19 	movweq	r6, #60953	; 0xee19
    13fc:	3b0b3a0e 	blcc	2cfc3c <__bss_end__+0x2c4e54>
    1400:	000b390b 	andeq	r3, fp, fp, lsl #18
    1404:	11010000 	mrsne	r0, (UNDEF: 1)
    1408:	130e2501 	movwne	r2, #58625	; 0xe501
    140c:	1b0e030b 	blne	382040 <__bss_end__+0x377258>
    1410:	1201110e 	andne	r1, r1, #-2147483645	; 0x80000003
    1414:	00171006 	andseq	r1, r7, r6
    1418:	00240200 	eoreq	r0, r4, r0, lsl #4
    141c:	0b3e0b0b 	bleq	f84050 <__bss_end__+0xf79268>
    1420:	00000803 	andeq	r0, r0, r3, lsl #16
    1424:	0b002403 	bleq	a438 <__FUNCTION__.4069+0x18c>
    1428:	030b3e0b 	movweq	r3, #48651	; 0xbe0b
    142c:	0400000e 	streq	r0, [r0], #-14
    1430:	19270115 	stmdbne	r7!, {r0, r2, r4, r8}
    1434:	13011349 	movwne	r1, #4937	; 0x1349
    1438:	05050000 	streq	r0, [r5, #-0]
    143c:	00134900 	andseq	r4, r3, r0, lsl #18
    1440:	00340600 	eorseq	r0, r4, r0, lsl #12
    1444:	0b3a0e03 	bleq	e84c58 <__bss_end__+0xe79e70>
    1448:	0b390b3b 	bleq	e4413c <__bss_end__+0xe39354>
    144c:	193f1349 	ldmdbne	pc!, {r0, r3, r6, r8, r9, ip}	; <UNPREDICTABLE>
    1450:	0000193c 	andeq	r1, r0, ip, lsr r9
    1454:	0b000f07 	bleq	5078 <__code_start__-0x2f88>
    1458:	0013490b 	andseq	r4, r3, fp, lsl #18
    145c:	00260800 	eoreq	r0, r6, r0, lsl #16
    1460:	00001349 	andeq	r1, r0, r9, asr #6
    1464:	3f012e09 	svccc	0x00012e09
    1468:	3a0e0319 	bcc	3820d4 <__bss_end__+0x3772ec>
    146c:	390b3b0b 	stmdbcc	fp, {r0, r1, r3, r8, r9, fp, ip, sp}
    1470:	1119270b 	tstne	r9, fp, lsl #14
    1474:	40061201 	andmi	r1, r6, r1, lsl #4
    1478:	19429718 	stmdbne	r2, {r3, r4, r8, r9, sl, ip, pc}^
    147c:	00001301 	andeq	r1, r0, r1, lsl #6
    1480:	0300050a 	movweq	r0, #1290	; 0x50a
    1484:	3b0b3a08 	blcc	2cfcac <__bss_end__+0x2c4ec4>
    1488:	490b390b 	stmdbmi	fp, {r0, r1, r3, r8, fp, ip, sp}
    148c:	b7170213 			; <UNDEFINED> instruction: 0xb7170213
    1490:	00001742 	andeq	r1, r0, r2, asr #14
    1494:	31011d0b 	tstcc	r1, fp, lsl #26
    1498:	b8015213 	stmdalt	r1, {r0, r1, r4, r9, ip, lr}
    149c:	17550b42 	ldrbne	r0, [r5, -r2, asr #22]
    14a0:	0b590b58 	bleq	1644208 <__bss_end__+0x1639420>
    14a4:	00000b57 	andeq	r0, r0, r7, asr fp
    14a8:	3100050c 	tstcc	r0, ip, lsl #10
    14ac:	b7170213 			; <UNDEFINED> instruction: 0xb7170213
    14b0:	00001742 	andeq	r1, r0, r2, asr #14
    14b4:	31011d0d 	tstcc	r1, sp, lsl #26
    14b8:	b8015213 	stmdalt	r1, {r0, r1, r4, r9, ip, lr}
    14bc:	01110b42 	tsteq	r1, r2, asr #22
    14c0:	0b580612 	bleq	1602d10 <__bss_end__+0x15f7f28>
    14c4:	0b570b59 	bleq	15c4230 <__bss_end__+0x15b9448>
    14c8:	340e0000 	strcc	r0, [lr], #-0
    14cc:	02133100 	andseq	r3, r3, #0
    14d0:	1742b717 	smlaldne	fp, r2, r7, r7
    14d4:	1d0f0000 	stcne	0, cr0, [pc, #-0]	; 14dc <__code_start__-0x6b24>
    14d8:	52133101 	andspl	r3, r3, #1073741824	; 0x40000000
    14dc:	0b42b801 	bleq	10af4e8 <__bss_end__+0x10a4700>
    14e0:	06120111 			; <UNDEFINED> instruction: 0x06120111
    14e4:	0b590b58 	bleq	164424c <__bss_end__+0x1639464>
    14e8:	13010b57 	movwne	r0, #6999	; 0x1b57
    14ec:	89100000 	ldmdbhi	r0, {}	; <UNPREDICTABLE>
    14f0:	11010182 	smlabbne	r1, r2, r1, r0
    14f4:	00133101 	andseq	r3, r3, r1, lsl #2
    14f8:	828a1100 	addhi	r1, sl, #0
    14fc:	18020001 	stmdane	r2, {r0}
    1500:	00184291 	mulseq	r8, r1, r2
    1504:	82891200 	addhi	r1, r9, #0, 4
    1508:	01110001 	tsteq	r1, r1
    150c:	00001331 	andeq	r1, r0, r1, lsr r3
    1510:	31010b13 	tstcc	r1, r3, lsl fp
    1514:	00175513 	andseq	r5, r7, r3, lsl r5
    1518:	00341400 	eorseq	r1, r4, r0, lsl #8
    151c:	00001331 	andeq	r1, r0, r1, lsr r3
    1520:	55010b15 	strpl	r0, [r1, #-2837]	; 0xfffff4eb
    1524:	16000017 			; <UNDEFINED> instruction: 0x16000017
    1528:	1331011d 	teqne	r1, #1073741831	; 0x40000007
    152c:	42b80152 	adcsmi	r0, r8, #-2147483628	; 0x80000014
    1530:	5817550b 	ldmdapl	r7, {r0, r1, r3, r8, sl, ip, lr}
    1534:	570b590b 	strpl	r5, [fp, -fp, lsl #18]
    1538:	0013010b 	andseq	r0, r3, fp, lsl #2
    153c:	012e1700 			; <UNDEFINED> instruction: 0x012e1700
    1540:	0e03193f 			; <UNDEFINED> instruction: 0x0e03193f
    1544:	0b3b0b3a 	bleq	ec4234 <__bss_end__+0xeb944c>
    1548:	19270b39 	stmdbne	r7!, {r0, r3, r4, r5, r8, r9, fp}
    154c:	13010b20 	movwne	r0, #6944	; 0x1b20
    1550:	05180000 	ldreq	r0, [r8, #-0]
    1554:	3a080300 	bcc	20215c <__bss_end__+0x1f7374>
    1558:	390b3b0b 	stmdbcc	fp, {r0, r1, r3, r8, r9, fp, ip, sp}
    155c:	0013490b 	andseq	r4, r3, fp, lsl #18
    1560:	00341900 	eorseq	r1, r4, r0, lsl #18
    1564:	0b3a0803 	bleq	e83578 <__bss_end__+0xe78790>
    1568:	0b390b3b 	bleq	e4425c <__bss_end__+0xe39474>
    156c:	00001349 	andeq	r1, r0, r9, asr #6
    1570:	00010b1a 	andeq	r0, r1, sl, lsl fp
    1574:	012e1b00 			; <UNDEFINED> instruction: 0x012e1b00
    1578:	0e03193f 			; <UNDEFINED> instruction: 0x0e03193f
    157c:	0b3b0b3a 	bleq	ec426c <__bss_end__+0xeb9484>
    1580:	19270b39 	stmdbne	r7!, {r0, r3, r4, r5, r8, r9, fp}
    1584:	0b201349 	bleq	8062b0 <__bss_end__+0x7fb4c8>
    1588:	00001301 	andeq	r1, r0, r1, lsl #6
    158c:	3f002e1c 	svccc	0x00002e1c
    1590:	3a0e0319 	bcc	3821fc <__bss_end__+0x377414>
    1594:	390b3b0b 	stmdbcc	fp, {r0, r1, r3, r8, r9, fp, ip, sp}
    1598:	4919270b 	ldmdbmi	r9, {r0, r1, r3, r8, r9, sl, sp}
    159c:	000b2013 	andeq	r2, fp, r3, lsl r0
    15a0:	012e1d00 			; <UNDEFINED> instruction: 0x012e1d00
    15a4:	01111331 	tsteq	r1, r1, lsr r3
    15a8:	18400612 	stmdane	r0, {r1, r4, r9, sl}^
    15ac:	01194297 			; <UNDEFINED> instruction: 0x01194297
    15b0:	1e000013 	mcrne	0, 0, r0, cr0, cr3, {0}
    15b4:	01018289 	smlabbeq	r1, r9, r2, r8
    15b8:	42950111 	addsmi	r0, r5, #1073741828	; 0x40000004
    15bc:	00133119 	andseq	r3, r3, r9, lsl r1
    15c0:	002e1f00 	eoreq	r1, lr, r0, lsl #30
    15c4:	193c193f 	ldmdbne	ip!, {r0, r1, r2, r3, r4, r5, r8, fp, ip}
    15c8:	0e030e6e 	cdpeq	14, 0, cr0, cr3, cr14, {3}
    15cc:	0b3b0b3a 	bleq	ec42bc <__bss_end__+0xeb94d4>
    15d0:	00000b39 	andeq	r0, r0, r9, lsr fp
    15d4:	01110100 	tsteq	r1, r0, lsl #2
    15d8:	0b130e25 	bleq	4c4e74 <__bss_end__+0x4ba08c>
    15dc:	0e1b0e03 	cdpeq	14, 1, cr0, cr11, cr3, {0}
    15e0:	06120111 			; <UNDEFINED> instruction: 0x06120111
    15e4:	00001710 	andeq	r1, r0, r0, lsl r7
    15e8:	0b002402 	bleq	a5f8 <__FUNCTION__.4032>
    15ec:	030b3e0b 	movweq	r3, #48651	; 0xbe0b
    15f0:	03000008 	movweq	r0, #8
    15f4:	0b0b0024 	bleq	2c168c <__bss_end__+0x2b68a4>
    15f8:	0e030b3e 	vmoveq.16	d3[0], r0
    15fc:	35040000 	strcc	r0, [r4, #-0]
    1600:	00134900 	andseq	r4, r3, r0, lsl #18
    1604:	00160500 	andseq	r0, r6, r0, lsl #10
    1608:	0b3a0e03 	bleq	e84e1c <__bss_end__+0xe7a034>
    160c:	0b390b3b 	bleq	e44300 <__bss_end__+0xe39518>
    1610:	00001349 	andeq	r1, r0, r9, asr #6
    1614:	3e010406 	cdpcc	4, 0, cr0, cr1, cr6, {0}
    1618:	490b0b0b 	stmdbmi	fp, {r0, r1, r3, r8, r9, fp}
    161c:	3b0b3a13 	blcc	2cfe70 <__bss_end__+0x2c5088>
    1620:	010b390b 	tsteq	fp, fp, lsl #18
    1624:	07000013 	smladeq	r0, r3, r0, r0
    1628:	0e030028 	cdpeq	0, 0, cr0, cr3, cr8, {1}
    162c:	00000b1c 	andeq	r0, r0, ip, lsl fp
    1630:	03011308 	movweq	r1, #4872	; 0x1308
    1634:	3a0b0b0e 	bcc	2c4274 <__bss_end__+0x2b948c>
    1638:	390b3b0b 	stmdbcc	fp, {r0, r1, r3, r8, r9, fp, ip, sp}
    163c:	0013010b 	andseq	r0, r3, fp, lsl #2
    1640:	000d0900 	andeq	r0, sp, r0, lsl #18
    1644:	0b3a0803 	bleq	e83658 <__bss_end__+0xe78870>
    1648:	0b390b3b 	bleq	e4433c <__bss_end__+0xe39554>
    164c:	0b381349 	bleq	e06378 <__bss_end__+0xdfb590>
    1650:	0d0a0000 	stceq	0, cr0, [sl, #-0]
    1654:	3a0e0300 	bcc	38225c <__bss_end__+0x377474>
    1658:	390b3b0b 	stmdbcc	fp, {r0, r1, r3, r8, r9, fp, ip, sp}
    165c:	3813490b 	ldmdacc	r3, {r0, r1, r3, r8, fp, lr}
    1660:	0b00000b 	bleq	1694 <__code_start__-0x696c>
    1664:	0e030034 	mcreq	0, 0, r0, cr3, cr4, {1}
    1668:	0b3b0b3a 	bleq	ec4358 <__bss_end__+0xeb9570>
    166c:	13490b39 	movtne	r0, #39737	; 0x9b39
    1670:	0000061c 	andeq	r0, r0, ip, lsl r6
    1674:	0b000f0c 	bleq	52ac <__code_start__-0x2d54>
    1678:	0013490b 	andseq	r4, r3, fp, lsl #18
    167c:	00260d00 	eoreq	r0, r6, r0, lsl #26
    1680:	00001349 	andeq	r1, r0, r9, asr #6
    1684:	3f012e0e 	svccc	0x00012e0e
    1688:	3a0e0319 	bcc	3822f4 <__bss_end__+0x37750c>
    168c:	390b3b0b 	stmdbcc	fp, {r0, r1, r3, r8, r9, fp, ip, sp}
    1690:	1119270b 	tstne	r9, fp, lsl #14
    1694:	40061201 	andmi	r1, r6, r1, lsl #4
    1698:	19429718 	stmdbne	r2, {r3, r4, r8, r9, sl, ip, pc}^
    169c:	00001301 	andeq	r1, r0, r1, lsl #6
    16a0:	0182890f 	orreq	r8, r2, pc, lsl #18
    16a4:	31011100 	mrscc	r1, (UNDEF: 17)
    16a8:	10000013 	andne	r0, r0, r3, lsl r0
    16ac:	193f012e 	ldmdbne	pc!, {r1, r2, r3, r5, r8}	; <UNPREDICTABLE>
    16b0:	0b3a0e03 	bleq	e84ec4 <__bss_end__+0xe7a0dc>
    16b4:	0b390b3b 	bleq	e443a8 <__bss_end__+0xe395c0>
    16b8:	13491927 	movtne	r1, #39207	; 0x9927
    16bc:	06120111 			; <UNDEFINED> instruction: 0x06120111
    16c0:	42971840 	addsmi	r1, r7, #64, 16	; 0x400000
    16c4:	00130119 	andseq	r0, r3, r9, lsl r1
    16c8:	82891100 	addhi	r1, r9, #0
    16cc:	01110101 	tsteq	r1, r1, lsl #2
    16d0:	00001331 	andeq	r1, r0, r1, lsr r3
    16d4:	01828a12 	orreq	r8, r2, r2, lsl sl
    16d8:	91180200 	tstls	r8, r0, lsl #4
    16dc:	00001842 	andeq	r1, r0, r2, asr #16
    16e0:	03000513 	movweq	r0, #1299	; 0x513
    16e4:	3b0b3a08 	blcc	2cff0c <__bss_end__+0x2c5124>
    16e8:	490b390b 	stmdbmi	fp, {r0, r1, r3, r8, fp, ip, sp}
    16ec:	b7170213 			; <UNDEFINED> instruction: 0xb7170213
    16f0:	00001742 	andeq	r1, r0, r2, asr #14
    16f4:	01828914 	orreq	r8, r2, r4, lsl r9
    16f8:	31011101 	tstcc	r1, r1, lsl #2
    16fc:	00130113 	andseq	r0, r3, r3, lsl r1
    1700:	00341500 	eorseq	r1, r4, r0, lsl #10
    1704:	0b3a0803 	bleq	e83718 <__bss_end__+0xe78930>
    1708:	0b390b3b 	bleq	e443fc <__bss_end__+0xe39614>
    170c:	17021349 	strne	r1, [r2, -r9, asr #6]
    1710:	001742b7 			; <UNDEFINED> instruction: 0x001742b7
    1714:	00341600 	eorseq	r1, r4, r0, lsl #12
    1718:	0b3a0e03 	bleq	e84f2c <__bss_end__+0xe7a144>
    171c:	0b390b3b 	bleq	e44410 <__bss_end__+0xe39628>
    1720:	051c1349 	ldreq	r1, [ip, #-841]	; 0xfffffcb7
    1724:	2e170000 	cdpcs	0, 1, cr0, cr7, cr0, {0}
    1728:	3a0e0301 	bcc	382334 <__bss_end__+0x37754c>
    172c:	390b3b0b 	stmdbcc	fp, {r0, r1, r3, r8, r9, fp, ip, sp}
    1730:	1119270b 	tstne	r9, fp, lsl #14
    1734:	40061201 	andmi	r1, r6, r1, lsl #4
    1738:	19429718 	stmdbne	r2, {r3, r4, r8, r9, sl, ip, pc}^
    173c:	00001301 	andeq	r1, r0, r1, lsl #6
    1740:	03000518 	movweq	r0, #1304	; 0x518
    1744:	3b0b3a0e 	blcc	2cff84 <__bss_end__+0x2c519c>
    1748:	490b390b 	stmdbmi	fp, {r0, r1, r3, r8, fp, ip, sp}
    174c:	b7170213 			; <UNDEFINED> instruction: 0xb7170213
    1750:	00001742 	andeq	r1, r0, r2, asr #14
    1754:	00003519 	andeq	r3, r0, r9, lsl r5
    1758:	002e1a00 	eoreq	r1, lr, r0, lsl #20
    175c:	193c193f 	ldmdbne	ip!, {r0, r1, r2, r3, r4, r5, r8, fp, ip}
    1760:	0e030e6e 	cdpeq	14, 0, cr0, cr3, cr14, {3}
    1764:	0b3b0b3a 	bleq	ec4454 <__bss_end__+0xeb966c>
    1768:	00000b39 	andeq	r0, r0, r9, lsr fp
    176c:	01110100 	tsteq	r1, r0, lsl #2
    1770:	0b130e25 	bleq	4c500c <__bss_end__+0x4ba224>
    1774:	0e1b0e03 	cdpeq	14, 1, cr0, cr11, cr3, {0}
    1778:	06120111 			; <UNDEFINED> instruction: 0x06120111
    177c:	00001710 	andeq	r1, r0, r0, lsl r7
    1780:	0b002402 	bleq	a790 <__FUNCTION__.3952+0x8>
    1784:	030b3e0b 	movweq	r3, #48651	; 0xbe0b
    1788:	03000008 	movweq	r0, #8
    178c:	0b0b0024 	bleq	2c1824 <__bss_end__+0x2b6a3c>
    1790:	0e030b3e 	vmoveq.16	d3[0], r0
    1794:	16040000 	strne	r0, [r4], -r0
    1798:	3a0e0300 	bcc	3823a0 <__bss_end__+0x3775b8>
    179c:	390b3b0b 	stmdbcc	fp, {r0, r1, r3, r8, r9, fp, ip, sp}
    17a0:	0013490b 	andseq	r4, r3, fp, lsl #18
    17a4:	00260500 	eoreq	r0, r6, r0, lsl #10
    17a8:	00001349 	andeq	r1, r0, r9, asr #6
    17ac:	0b000f06 	bleq	53cc <__code_start__-0x2c34>
    17b0:	0700000b 	streq	r0, [r0, -fp]
    17b4:	0b3e0104 	bleq	f81bcc <__bss_end__+0xf76de4>
    17b8:	13490b0b 	movtne	r0, #39691	; 0x9b0b
    17bc:	0b3b0b3a 	bleq	ec44ac <__bss_end__+0xeb96c4>
    17c0:	13010b39 	movwne	r0, #6969	; 0x1b39
    17c4:	28080000 	stmdacs	r8, {}	; <UNPREDICTABLE>
    17c8:	1c0e0300 	stcne	3, cr0, [lr], {-0}
    17cc:	09000006 	stmdbeq	r0, {r1, r2}
    17d0:	0e030034 	mcreq	0, 0, r0, cr3, cr4, {1}
    17d4:	0b3b0b3a 	bleq	ec44c4 <__bss_end__+0xeb96dc>
    17d8:	13490b39 	movtne	r0, #39737	; 0x9b39
    17dc:	193c193f 	ldmdbne	ip!, {r0, r1, r2, r3, r4, r5, r8, fp, ip}
    17e0:	340a0000 	strcc	r0, [sl], #-0
    17e4:	3a0e0300 	bcc	3823ec <__bss_end__+0x377604>
    17e8:	390b3b0b 	stmdbcc	fp, {r0, r1, r3, r8, r9, fp, ip, sp}
    17ec:	0213490b 	andseq	r4, r3, #180224	; 0x2c000
    17f0:	0b000018 	bleq	1858 <__code_start__-0x67a8>
    17f4:	0b0b000f 	bleq	2c1838 <__bss_end__+0x2b6a50>
    17f8:	00001349 	andeq	r1, r0, r9, asr #6
    17fc:	3f012e0c 	svccc	0x00012e0c
    1800:	3a0e0319 	bcc	38246c <__bss_end__+0x377684>
    1804:	390b3b0b 	stmdbcc	fp, {r0, r1, r3, r8, r9, fp, ip, sp}
    1808:	1119270b 	tstne	r9, fp, lsl #14
    180c:	40061201 	andmi	r1, r6, r1, lsl #4
    1810:	19429718 	stmdbne	r2, {r3, r4, r8, r9, sl, ip, pc}^
    1814:	00001301 	andeq	r1, r0, r1, lsl #6
    1818:	0300050d 	movweq	r0, #1293	; 0x50d
    181c:	3b0b3a08 	blcc	2d0044 <__bss_end__+0x2c525c>
    1820:	490b390b 	stmdbmi	fp, {r0, r1, r3, r8, fp, ip, sp}
    1824:	b7170213 			; <UNDEFINED> instruction: 0xb7170213
    1828:	00001742 	andeq	r1, r0, r2, asr #14
    182c:	0300340e 	movweq	r3, #1038	; 0x40e
    1830:	3413490e 	ldrcc	r4, [r3], #-2318	; 0xfffff6f2
    1834:	00180219 	andseq	r0, r8, r9, lsl r2
    1838:	82890f00 	addhi	r0, r9, #0, 30
    183c:	01110101 	tsteq	r1, r1, lsl #2
    1840:	13011331 	movwne	r1, #4913	; 0x1331
    1844:	8a100000 	bhi	40184c <__bss_end__+0x3f6a64>
    1848:	02000182 	andeq	r0, r0, #-2147483616	; 0x80000020
    184c:	18429118 	stmdane	r2, {r3, r4, r8, ip, pc}^
    1850:	89110000 	ldmdbhi	r1, {}	; <UNPREDICTABLE>
    1854:	11000182 	smlabbne	r0, r2, r1, r0
    1858:	00133101 	andseq	r3, r3, r1, lsl #2
    185c:	01011200 	mrseq	r1, R9_usr
    1860:	13011349 	movwne	r1, #4937	; 0x1349
    1864:	21130000 	tstcs	r3, r0
    1868:	2f134900 	svccs	0x00134900
    186c:	1400000b 	strne	r0, [r0], #-11
    1870:	193f002e 	ldmdbne	pc!, {r1, r2, r3, r5}	; <UNPREDICTABLE>
    1874:	0b3a0e03 	bleq	e85088 <__bss_end__+0xe7a2a0>
    1878:	0b390b3b 	bleq	e4456c <__bss_end__+0xe39784>
    187c:	01111927 	tsteq	r1, r7, lsr #18
    1880:	18400612 	stmdane	r0, {r1, r4, r9, sl}^
    1884:	00194297 	mulseq	r9, r7, r2
    1888:	00051500 	andeq	r1, r5, r0, lsl #10
    188c:	0b3a0803 	bleq	e838a0 <__bss_end__+0xe78ab8>
    1890:	0b390b3b 	bleq	e44584 <__bss_end__+0xe3979c>
    1894:	18021349 	stmdane	r2, {r0, r3, r6, r8, r9, ip}
    1898:	2e160000 	cdpcs	0, 1, cr0, cr6, cr0, {0}
    189c:	03193f01 	tsteq	r9, #1, 30
    18a0:	3b0b3a0e 	blcc	2d00e0 <__bss_end__+0x2c52f8>
    18a4:	270b390b 	strcs	r3, [fp, -fp, lsl #18]
    18a8:	11134919 	tstne	r3, r9, lsl r9
    18ac:	40061201 	andmi	r1, r6, r1, lsl #4
    18b0:	19429718 	stmdbne	r2, {r3, r4, r8, r9, sl, ip, pc}^
    18b4:	00001301 	andeq	r1, r0, r1, lsl #6
    18b8:	03000517 	movweq	r0, #1303	; 0x517
    18bc:	3b0b3a0e 	blcc	2d00fc <__bss_end__+0x2c5314>
    18c0:	490b390b 	stmdbmi	fp, {r0, r1, r3, r8, fp, ip, sp}
    18c4:	b7170213 			; <UNDEFINED> instruction: 0xb7170213
    18c8:	00001742 	andeq	r1, r0, r2, asr #14
    18cc:	03003418 	movweq	r3, #1048	; 0x418
    18d0:	3b0b3a08 	blcc	2d00f8 <__bss_end__+0x2c5310>
    18d4:	490b390b 	stmdbmi	fp, {r0, r1, r3, r8, fp, ip, sp}
    18d8:	b7170213 			; <UNDEFINED> instruction: 0xb7170213
    18dc:	00001742 	andeq	r1, r0, r2, asr #14
    18e0:	31011d19 	tstcc	r1, r9, lsl sp
    18e4:	b8015213 	stmdalt	r1, {r0, r1, r4, r9, ip, lr}
    18e8:	01110b42 	tsteq	r1, r2, asr #22
    18ec:	0b580612 	bleq	160313c <__bss_end__+0x15f8354>
    18f0:	0b570b59 	bleq	15c465c <__bss_end__+0x15b9874>
    18f4:	00001301 	andeq	r1, r0, r1, lsl #6
    18f8:	3100051a 	tstcc	r0, sl, lsl r5
    18fc:	b7170213 			; <UNDEFINED> instruction: 0xb7170213
    1900:	00001742 	andeq	r1, r0, r2, asr #14
    1904:	31011d1b 	tstcc	r1, fp, lsl sp
    1908:	b8015213 	stmdalt	r1, {r0, r1, r4, r9, ip, lr}
    190c:	17550b42 	ldrbne	r0, [r5, -r2, asr #22]
    1910:	0b590b58 	bleq	1644678 <__bss_end__+0x1639890>
    1914:	13010b57 	movwne	r0, #6999	; 0x1b57
    1918:	0b1c0000 	bleq	701920 <__bss_end__+0x6f6b38>
    191c:	00175501 	andseq	r5, r7, r1, lsl #10
    1920:	00341d00 	eorseq	r1, r4, r0, lsl #26
    1924:	0b3a0e03 	bleq	e85138 <__bss_end__+0xe7a350>
    1928:	0b390b3b 	bleq	e4461c <__bss_end__+0xe39834>
    192c:	17021349 	strne	r1, [r2, -r9, asr #6]
    1930:	001742b7 			; <UNDEFINED> instruction: 0x001742b7
    1934:	000b1e00 	andeq	r1, fp, r0, lsl #28
    1938:	00001755 	andeq	r1, r0, r5, asr r7
    193c:	3f002e1f 	svccc	0x00002e1f
    1940:	3a0e0319 	bcc	3825ac <__bss_end__+0x3777c4>
    1944:	390b3b0b 	stmdbcc	fp, {r0, r1, r3, r8, r9, fp, ip, sp}
    1948:	4919270b 	ldmdbmi	r9, {r0, r1, r3, r8, r9, sl, sp}
    194c:	12011113 	andne	r1, r1, #-1073741820	; 0xc0000004
    1950:	97184006 	ldrls	r4, [r8, -r6]
    1954:	00001942 	andeq	r1, r0, r2, asr #18
    1958:	03012e20 	movweq	r2, #7712	; 0x1e20
    195c:	3b0b3a0e 	blcc	2d019c <__bss_end__+0x2c53b4>
    1960:	270b390b 	strcs	r3, [fp, -fp, lsl #18]
    1964:	20134919 	andscs	r4, r3, r9, lsl r9
    1968:	0013010b 	andseq	r0, r3, fp, lsl #2
    196c:	00052100 	andeq	r2, r5, r0, lsl #2
    1970:	0b3a0803 	bleq	e83984 <__bss_end__+0xe78b9c>
    1974:	0b390b3b 	bleq	e44668 <__bss_end__+0xe39880>
    1978:	00001349 	andeq	r1, r0, r9, asr #6
    197c:	3f002e22 	svccc	0x00002e22
    1980:	6e193c19 	mrcvs	12, 0, r3, cr9, cr9, {0}
    1984:	3a0e030e 	bcc	3825c4 <__bss_end__+0x3777dc>
    1988:	390b3b0b 	stmdbcc	fp, {r0, r1, r3, r8, r9, fp, ip, sp}
    198c:	0000000b 	andeq	r0, r0, fp
    1990:	25011101 	strcs	r1, [r1, #-257]	; 0xfffffeff
    1994:	030b130e 	movweq	r1, #45838	; 0xb30e
    1998:	110e1b0e 	tstne	lr, lr, lsl #22
    199c:	10061201 	andne	r1, r6, r1, lsl #4
    19a0:	02000017 	andeq	r0, r0, #23, 0
    19a4:	0b0b0024 	bleq	2c1a3c <__bss_end__+0x2b6c54>
    19a8:	0e030b3e 	vmoveq.16	d3[0], r0
    19ac:	24030000 	strcs	r0, [r3], #-0
    19b0:	3e0b0b00 	vmlacc.f64	d0, d11, d0
    19b4:	0008030b 	andeq	r0, r8, fp, lsl #6
    19b8:	00260400 	eoreq	r0, r6, r0, lsl #8
    19bc:	00001349 	andeq	r1, r0, r9, asr #6
    19c0:	03001605 	movweq	r1, #1541	; 0x605
    19c4:	3b0b3a0e 	blcc	2d0204 <__bss_end__+0x2c541c>
    19c8:	490b390b 	stmdbmi	fp, {r0, r1, r3, r8, fp, ip, sp}
    19cc:	06000013 			; <UNDEFINED> instruction: 0x06000013
    19d0:	19270115 	stmdbne	r7!, {r0, r2, r4, r8}
    19d4:	13011349 	movwne	r1, #4937	; 0x1349
    19d8:	05070000 	streq	r0, [r7, #-0]
    19dc:	00134900 	andseq	r4, r3, r0, lsl #18
    19e0:	00340800 	eorseq	r0, r4, r0, lsl #16
    19e4:	0b3a0e03 	bleq	e851f8 <__bss_end__+0xe7a410>
    19e8:	0b390b3b 	bleq	e446dc <__bss_end__+0xe398f4>
    19ec:	193f1349 	ldmdbne	pc!, {r0, r3, r6, r8, r9, ip}	; <UNPREDICTABLE>
    19f0:	0000193c 	andeq	r1, r0, ip, lsr r9
    19f4:	0b000f09 	bleq	5620 <__code_start__-0x29e0>
    19f8:	0013490b 	andseq	r4, r3, fp, lsl #18
    19fc:	01040a00 	tsteq	r4, r0, lsl #20
    1a00:	0b0b0b3e 	bleq	2c4700 <__bss_end__+0x2b9918>
    1a04:	0b3a1349 	bleq	e86730 <__bss_end__+0xe7b948>
    1a08:	0b390b3b 	bleq	e446fc <__bss_end__+0xe39914>
    1a0c:	00001301 	andeq	r1, r0, r1, lsl #6
    1a10:	0300280b 	movweq	r2, #2059	; 0x80b
    1a14:	000b1c0e 	andeq	r1, fp, lr, lsl #24
    1a18:	00340c00 	eorseq	r0, r4, r0, lsl #24
    1a1c:	0b3a0e03 	bleq	e85230 <__bss_end__+0xe7a448>
    1a20:	0b390b3b 	bleq	e44714 <__bss_end__+0xe3992c>
    1a24:	061c1349 	ldreq	r1, [ip], -r9, asr #6
    1a28:	2e0d0000 	cdpcs	0, 0, cr0, cr13, cr0, {0}
    1a2c:	03193f01 	tsteq	r9, #1, 30
    1a30:	3b0b3a0e 	blcc	2d0270 <__bss_end__+0x2c5488>
    1a34:	270b390b 	strcs	r3, [fp, -fp, lsl #18]
    1a38:	11134919 	tstne	r3, r9, lsl r9
    1a3c:	40061201 	andmi	r1, r6, r1, lsl #4
    1a40:	19429718 	stmdbne	r2, {r3, r4, r8, r9, sl, ip, pc}^
    1a44:	00001301 	andeq	r1, r0, r1, lsl #6
    1a48:	0300050e 	movweq	r0, #1294	; 0x50e
    1a4c:	3b0b3a08 	blcc	2d0274 <__bss_end__+0x2c548c>
    1a50:	490b390b 	stmdbmi	fp, {r0, r1, r3, r8, fp, ip, sp}
    1a54:	b7170213 			; <UNDEFINED> instruction: 0xb7170213
    1a58:	00001742 	andeq	r1, r0, r2, asr #14
    1a5c:	0300340f 	movweq	r3, #1039	; 0x40f
    1a60:	3b0b3a0e 	blcc	2d02a0 <__bss_end__+0x2c54b8>
    1a64:	490b390b 	stmdbmi	fp, {r0, r1, r3, r8, fp, ip, sp}
    1a68:	b7170213 			; <UNDEFINED> instruction: 0xb7170213
    1a6c:	00001742 	andeq	r1, r0, r2, asr #14
    1a70:	03003410 	movweq	r3, #1040	; 0x410
    1a74:	3b0b3a08 	blcc	2d029c <__bss_end__+0x2c54b4>
    1a78:	490b390b 	stmdbmi	fp, {r0, r1, r3, r8, fp, ip, sp}
    1a7c:	b7170213 			; <UNDEFINED> instruction: 0xb7170213
    1a80:	00001742 	andeq	r1, r0, r2, asr #14
    1a84:	01828911 	orreq	r8, r2, r1, lsl r9
    1a88:	31011101 	tstcc	r1, r1, lsl #2
    1a8c:	12000013 	andne	r0, r0, #19, 0
    1a90:	0001828a 	andeq	r8, r1, sl, lsl #5
    1a94:	42911802 	addsmi	r1, r1, #131072	; 0x20000
    1a98:	13000018 	movwne	r0, #24
    1a9c:	193f012e 	ldmdbne	pc!, {r1, r2, r3, r5, r8}	; <UNPREDICTABLE>
    1aa0:	0b3a0e03 	bleq	e852b4 <__bss_end__+0xe7a4cc>
    1aa4:	0b390b3b 	bleq	e44798 <__bss_end__+0xe399b0>
    1aa8:	01111927 	tsteq	r1, r7, lsr #18
    1aac:	18400612 	stmdane	r0, {r1, r4, r9, sl}^
    1ab0:	01194297 			; <UNDEFINED> instruction: 0x01194297
    1ab4:	14000013 	strne	r0, [r0], #-19	; 0xffffffed
    1ab8:	1331011d 	teqne	r1, #1073741831	; 0x40000007
    1abc:	42b80152 	adcsmi	r0, r8, #-2147483628	; 0x80000014
    1ac0:	5817550b 	ldmdapl	r7, {r0, r1, r3, r8, sl, ip, lr}
    1ac4:	570b590b 	strpl	r5, [fp, -fp, lsl #18]
    1ac8:	0013010b 	andseq	r0, r3, fp, lsl #2
    1acc:	00051500 	andeq	r1, r5, r0, lsl #10
    1ad0:	17021331 	smladxne	r2, r1, r3, r1
    1ad4:	001742b7 			; <UNDEFINED> instruction: 0x001742b7
    1ad8:	82891600 	addhi	r1, r9, #0, 12
    1adc:	01110101 	tsteq	r1, r1, lsl #2
    1ae0:	31194295 			; <UNDEFINED> instruction: 0x31194295
    1ae4:	17000013 	smladne	r0, r3, r0, r0
    1ae8:	1331011d 	teqne	r1, #1073741831	; 0x40000007
    1aec:	42b80152 	adcsmi	r0, r8, #-2147483628	; 0x80000014
    1af0:	1201110b 	andne	r1, r1, #-1073741822	; 0xc0000002
    1af4:	590b5806 	stmdbpl	fp, {r1, r2, fp, ip, lr}
    1af8:	000b570b 	andeq	r5, fp, fp, lsl #14
    1afc:	011d1800 	tsteq	sp, r0, lsl #16
    1b00:	01521331 	cmpeq	r2, r1, lsr r3
    1b04:	550b42b8 	strpl	r4, [fp, #-696]	; 0xfffffd48
    1b08:	590b5817 	stmdbpl	fp, {r0, r1, r2, r4, fp, ip, lr}
    1b0c:	000b570b 	andeq	r5, fp, fp, lsl #14
    1b10:	00051900 	andeq	r1, r5, r0, lsl #18
    1b14:	0b1c1331 	bleq	7067e0 <__bss_end__+0x6fb9f8>
    1b18:	0b1a0000 	bleq	681b20 <__bss_end__+0x676d38>
    1b1c:	00175501 	andseq	r5, r7, r1, lsl #10
    1b20:	00341b00 	eorseq	r1, r4, r0, lsl #22
    1b24:	00001331 	andeq	r1, r0, r1, lsr r3
    1b28:	3100341c 	tstcc	r0, ip, lsl r4
    1b2c:	b7170213 			; <UNDEFINED> instruction: 0xb7170213
    1b30:	00001742 	andeq	r1, r0, r2, asr #14
    1b34:	0182891d 	orreq	r8, r2, sp, lsl r9
    1b38:	31011101 	tstcc	r1, r1, lsl #2
    1b3c:	00130113 	andseq	r0, r3, r3, lsl r1
    1b40:	012e1e00 			; <UNDEFINED> instruction: 0x012e1e00
    1b44:	0e03193f 			; <UNDEFINED> instruction: 0x0e03193f
    1b48:	0b3b0b3a 	bleq	ec4838 <__bss_end__+0xeb9a50>
    1b4c:	19270b39 	stmdbne	r7!, {r0, r3, r4, r5, r8, r9, fp}
    1b50:	13010b20 	movwne	r0, #6944	; 0x1b20
    1b54:	051f0000 	ldreq	r0, [pc, #-0]	; 1b5c <__code_start__-0x64a4>
    1b58:	3a080300 	bcc	202760 <__bss_end__+0x1f7978>
    1b5c:	390b3b0b 	stmdbcc	fp, {r0, r1, r3, r8, r9, fp, ip, sp}
    1b60:	0013490b 	andseq	r4, r3, fp, lsl #18
    1b64:	00052000 	andeq	r2, r5, r0
    1b68:	0b3a0e03 	bleq	e8537c <__bss_end__+0xe7a594>
    1b6c:	0b390b3b 	bleq	e44860 <__bss_end__+0xe39a78>
    1b70:	00001349 	andeq	r1, r0, r9, asr #6
    1b74:	03003421 	movweq	r3, #1057	; 0x421
    1b78:	3b0b3a08 	blcc	2d03a0 <__bss_end__+0x2c55b8>
    1b7c:	490b390b 	stmdbmi	fp, {r0, r1, r3, r8, fp, ip, sp}
    1b80:	22000013 	andcs	r0, r0, #19, 0
    1b84:	0e03012e 	adfeqsp	f0, f3, #0.5
    1b88:	0b3b0b3a 	bleq	ec4878 <__bss_end__+0xeb9a90>
    1b8c:	19270b39 	stmdbne	r7!, {r0, r3, r4, r5, r8, r9, fp}
    1b90:	0b201349 	bleq	8068bc <__bss_end__+0x7fbad4>
    1b94:	00001301 	andeq	r1, r0, r1, lsl #6
    1b98:	31012e23 	tstcc	r1, r3, lsr #28
    1b9c:	12011113 	andne	r1, r1, #-1073741820	; 0xc0000004
    1ba0:	97184006 	ldrls	r4, [r8, -r6]
    1ba4:	13011942 	movwne	r1, #6466	; 0x1942
    1ba8:	2e240000 	cdpcs	0, 2, cr0, cr4, cr0, {0}
    1bac:	3c193f00 	ldccc	15, cr3, [r9], {-0}
    1bb0:	030e6e19 	movweq	r6, #60953	; 0xee19
    1bb4:	3b0b3a0e 	blcc	2d03f4 <__bss_end__+0x2c560c>
    1bb8:	000b390b 	andeq	r3, fp, fp, lsl #18
    1bbc:	11010000 	mrsne	r0, (UNDEF: 1)
    1bc0:	130e2501 	movwne	r2, #58625	; 0xe501
    1bc4:	1b0e030b 	blne	3827f8 <__bss_end__+0x377a10>
    1bc8:	1201110e 	andne	r1, r1, #-2147483645	; 0x80000003
    1bcc:	00171006 	andseq	r1, r7, r6
    1bd0:	00240200 	eoreq	r0, r4, r0, lsl #4
    1bd4:	0b3e0b0b 	bleq	f84808 <__bss_end__+0xf79a20>
    1bd8:	00000803 	andeq	r0, r0, r3, lsl #16
    1bdc:	0b002403 	bleq	abf0 <buf.3944+0x20c>
    1be0:	030b3e0b 	movweq	r3, #48651	; 0xbe0b
    1be4:	0400000e 	streq	r0, [r0], #-14
    1be8:	19270115 	stmdbne	r7!, {r0, r2, r4, r8}
    1bec:	13011349 	movwne	r1, #4937	; 0x1349
    1bf0:	05050000 	streq	r0, [r5, #-0]
    1bf4:	00134900 	andseq	r4, r3, r0, lsl #18
    1bf8:	00340600 	eorseq	r0, r4, r0, lsl #12
    1bfc:	0b3a0e03 	bleq	e85410 <__bss_end__+0xe7a628>
    1c00:	0b390b3b 	bleq	e448f4 <__bss_end__+0xe39b0c>
    1c04:	193f1349 	ldmdbne	pc!, {r0, r3, r6, r8, r9, ip}	; <UNPREDICTABLE>
    1c08:	0000193c 	andeq	r1, r0, ip, lsr r9
    1c0c:	0b000f07 	bleq	5830 <__code_start__-0x27d0>
    1c10:	0013490b 	andseq	r4, r3, fp, lsl #18
    1c14:	00260800 	eoreq	r0, r6, r0, lsl #16
    1c18:	00001349 	andeq	r1, r0, r9, asr #6
    1c1c:	47003409 	strmi	r3, [r0, -r9, lsl #8]
    1c20:	3b0b3a13 	blcc	2d0474 <__bss_end__+0x2c568c>
    1c24:	020b390b 	andeq	r3, fp, #180224	; 0x2c000
    1c28:	0a000018 	beq	1c90 <__code_start__-0x6370>
    1c2c:	193f012e 	ldmdbne	pc!, {r1, r2, r3, r5, r8}	; <UNPREDICTABLE>
    1c30:	0b3a0e03 	bleq	e85444 <__bss_end__+0xe7a65c>
    1c34:	0b390b3b 	bleq	e44928 <__bss_end__+0xe39b40>
    1c38:	01111927 	tsteq	r1, r7, lsr #18
    1c3c:	18400612 	stmdane	r0, {r1, r4, r9, sl}^
    1c40:	01194297 			; <UNDEFINED> instruction: 0x01194297
    1c44:	0b000013 	bleq	1c98 <__code_start__-0x6368>
    1c48:	08030005 	stmdaeq	r3, {r0, r2}
    1c4c:	0b3b0b3a 	bleq	ec493c <__bss_end__+0xeb9b54>
    1c50:	13490b39 	movtne	r0, #39737	; 0x9b39
    1c54:	00001802 	andeq	r1, r0, r2, lsl #16
    1c58:	3f002e0c 	svccc	0x00002e0c
    1c5c:	3a0e0319 	bcc	3828c8 <__bss_end__+0x377ae0>
    1c60:	390b3b0b 	stmdbcc	fp, {r0, r1, r3, r8, r9, fp, ip, sp}
    1c64:	1119270b 	tstne	r9, fp, lsl #14
    1c68:	40061201 	andmi	r1, r6, r1, lsl #4
    1c6c:	19429718 	stmdbne	r2, {r3, r4, r8, r9, sl, ip, pc}^
    1c70:	2e0d0000 	cdpcs	0, 0, cr0, cr13, cr0, {0}
    1c74:	3a0e0301 	bcc	382880 <__bss_end__+0x377a98>
    1c78:	390b3b0b 	stmdbcc	fp, {r0, r1, r3, r8, r9, fp, ip, sp}
    1c7c:	4919270b 	ldmdbmi	r9, {r0, r1, r3, r8, r9, sl, sp}
    1c80:	12011113 	andne	r1, r1, #-1073741820	; 0xc0000004
    1c84:	97184006 	ldrls	r4, [r8, -r6]
    1c88:	13011942 	movwne	r1, #6466	; 0x1942
    1c8c:	050e0000 	streq	r0, [lr, #-0]
    1c90:	3a080300 	bcc	202898 <__bss_end__+0x1f7ab0>
    1c94:	390b3b0b 	stmdbcc	fp, {r0, r1, r3, r8, r9, fp, ip, sp}
    1c98:	0213490b 	andseq	r4, r3, #180224	; 0x2c000
    1c9c:	1742b717 	smlaldne	fp, r2, r7, r7
    1ca0:	890f0000 	stmdbhi	pc, {}	; <UNPREDICTABLE>
    1ca4:	11010182 	smlabbne	r1, r2, r1, r0
    1ca8:	00133101 	andseq	r3, r3, r1, lsl #2
    1cac:	828a1000 	addhi	r1, sl, #0, 0
    1cb0:	18020001 	stmdane	r2, {r0}
    1cb4:	00184291 	mulseq	r8, r1, r2
    1cb8:	002e1100 	eoreq	r1, lr, r0, lsl #2
    1cbc:	193c193f 	ldmdbne	ip!, {r0, r1, r2, r3, r4, r5, r8, fp, ip}
    1cc0:	0e030e6e 	cdpeq	14, 0, cr0, cr3, cr14, {3}
    1cc4:	0b3b0b3a 	bleq	ec49b4 <__bss_end__+0xeb9bcc>
    1cc8:	00000b39 	andeq	r0, r0, r9, lsr fp
    1ccc:	01110100 	tsteq	r1, r0, lsl #2
    1cd0:	0b130e25 	bleq	4c556c <__bss_end__+0x4ba784>
    1cd4:	0e1b0e03 	cdpeq	14, 1, cr0, cr11, cr3, {0}
    1cd8:	06120111 			; <UNDEFINED> instruction: 0x06120111
    1cdc:	00001710 	andeq	r1, r0, r0, lsl r7
    1ce0:	0b002402 	bleq	acf0 <buf.3944+0x30c>
    1ce4:	030b3e0b 	movweq	r3, #48651	; 0xbe0b
    1ce8:	03000008 	movweq	r0, #8
    1cec:	0b0b0024 	bleq	2c1d84 <__bss_end__+0x2b6f9c>
    1cf0:	0e030b3e 	vmoveq.16	d3[0], r0
    1cf4:	15040000 	strne	r0, [r4, #-0]
    1cf8:	49192701 	ldmdbmi	r9, {r0, r8, r9, sl, sp}
    1cfc:	00130113 	andseq	r0, r3, r3, lsl r1
    1d00:	00050500 	andeq	r0, r5, r0, lsl #10
    1d04:	00001349 	andeq	r1, r0, r9, asr #6
    1d08:	03003406 	movweq	r3, #1030	; 0x406
    1d0c:	3b0b3a0e 	blcc	2d054c <__bss_end__+0x2c5764>
    1d10:	490b390b 	stmdbmi	fp, {r0, r1, r3, r8, fp, ip, sp}
    1d14:	3c193f13 	ldccc	15, cr3, [r9], {19}
    1d18:	07000019 	smladeq	r0, r9, r0, r0
    1d1c:	0b0b000f 	bleq	2c1d60 <__bss_end__+0x2b6f78>
    1d20:	00001349 	andeq	r1, r0, r9, asr #6
    1d24:	49002608 	stmdbmi	r0, {r3, r9, sl, sp}
    1d28:	09000013 	stmdbeq	r0, {r0, r1, r4}
    1d2c:	193f012e 	ldmdbne	pc!, {r1, r2, r3, r5, r8}	; <UNPREDICTABLE>
    1d30:	0b3a0e03 	bleq	e85544 <__bss_end__+0xe7a75c>
    1d34:	0b390b3b 	bleq	e44a28 <__bss_end__+0xe39c40>
    1d38:	13491927 	movtne	r1, #39207	; 0x9927
    1d3c:	06120111 			; <UNDEFINED> instruction: 0x06120111
    1d40:	42971840 	addsmi	r1, r7, #64, 16	; 0x400000
    1d44:	00130119 	andseq	r0, r3, r9, lsl r1
    1d48:	00050a00 	andeq	r0, r5, r0, lsl #20
    1d4c:	0b3a0e03 	bleq	e85560 <__bss_end__+0xe7a778>
    1d50:	0b390b3b 	bleq	e44a44 <__bss_end__+0xe39c5c>
    1d54:	18021349 	stmdane	r2, {r0, r3, r6, r8, r9, ip}
    1d58:	050b0000 	streq	r0, [fp, #-0]
    1d5c:	3a080300 	bcc	202964 <__bss_end__+0x1f7b7c>
    1d60:	390b3b0b 	stmdbcc	fp, {r0, r1, r3, r8, r9, fp, ip, sp}
    1d64:	0213490b 	andseq	r4, r3, #180224	; 0x2c000
    1d68:	1742b717 	smlaldne	fp, r2, r7, r7
    1d6c:	340c0000 	strcc	r0, [ip], #-0
    1d70:	3a080300 	bcc	202978 <__bss_end__+0x1f7b90>
    1d74:	390b3b0b 	stmdbcc	fp, {r0, r1, r3, r8, r9, fp, ip, sp}
    1d78:	0213490b 	andseq	r4, r3, #180224	; 0x2c000
    1d7c:	1742b717 	smlaldne	fp, r2, r7, r7
    1d80:	01000000 	mrseq	r0, (UNDEF: 0)
    1d84:	0e250111 	mcreq	1, 1, r0, cr5, cr1, {0}
    1d88:	0e030b13 	vmoveq.32	d3[0], r0
    1d8c:	01110e1b 	tsteq	r1, fp, lsl lr
    1d90:	17100612 			; <UNDEFINED> instruction: 0x17100612
    1d94:	24020000 	strcs	r0, [r2], #-0
    1d98:	3e0b0b00 	vmlacc.f64	d0, d11, d0
    1d9c:	0008030b 	andeq	r0, r8, fp, lsl #6
    1da0:	00240300 	eoreq	r0, r4, r0, lsl #6
    1da4:	0b3e0b0b 	bleq	f849d8 <__bss_end__+0xf79bf0>
    1da8:	00000e03 	andeq	r0, r0, r3, lsl #28
    1dac:	27011504 	strcs	r1, [r1, -r4, lsl #10]
    1db0:	01134919 	tsteq	r3, r9, lsl r9
    1db4:	05000013 	streq	r0, [r0, #-19]	; 0xffffffed
    1db8:	13490005 	movtne	r0, #36869	; 0x9005
    1dbc:	34060000 	strcc	r0, [r6], #-0
    1dc0:	3a0e0300 	bcc	3829c8 <__bss_end__+0x377be0>
    1dc4:	390b3b0b 	stmdbcc	fp, {r0, r1, r3, r8, r9, fp, ip, sp}
    1dc8:	3f13490b 	svccc	0x0013490b
    1dcc:	00193c19 	andseq	r3, r9, r9, lsl ip
    1dd0:	000f0700 	andeq	r0, pc, r0, lsl #14
    1dd4:	13490b0b 	movtne	r0, #39691	; 0x9b0b
    1dd8:	26080000 	strcs	r0, [r8], -r0
    1ddc:	00134900 	andseq	r4, r3, r0, lsl #18
    1de0:	012e0900 			; <UNDEFINED> instruction: 0x012e0900
    1de4:	0e03193f 			; <UNDEFINED> instruction: 0x0e03193f
    1de8:	0b3b0b3a 	bleq	ec4ad8 <__bss_end__+0xeb9cf0>
    1dec:	19270b39 	stmdbne	r7!, {r0, r3, r4, r5, r8, r9, fp}
    1df0:	01111349 	tsteq	r1, r9, asr #6
    1df4:	18400612 	stmdane	r0, {r1, r4, r9, sl}^
    1df8:	00194297 	mulseq	r9, r7, r2
    1dfc:	00050a00 	andeq	r0, r5, r0, lsl #20
    1e00:	0b3a0803 	bleq	e83e14 <__bss_end__+0xe7902c>
    1e04:	0b390b3b 	bleq	e44af8 <__bss_end__+0xe39d10>
    1e08:	17021349 	strne	r1, [r2, -r9, asr #6]
    1e0c:	001742b7 			; <UNDEFINED> instruction: 0x001742b7
    1e10:	11010000 	mrsne	r0, (UNDEF: 1)
    1e14:	130e2501 	movwne	r2, #58625	; 0xe501
    1e18:	1b0e030b 	blne	382a4c <__bss_end__+0x377c64>
    1e1c:	1201110e 	andne	r1, r1, #-2147483645	; 0x80000003
    1e20:	00171006 	andseq	r1, r7, r6
    1e24:	00240200 	eoreq	r0, r4, r0, lsl #4
    1e28:	0b3e0b0b 	bleq	f84a5c <__bss_end__+0xf79c74>
    1e2c:	00000803 	andeq	r0, r0, r3, lsl #16
    1e30:	0b002403 	bleq	ae44 <__bss_end__+0x5c>
    1e34:	030b3e0b 	movweq	r3, #48651	; 0xbe0b
    1e38:	0400000e 	streq	r0, [r0], #-14
    1e3c:	19270115 	stmdbne	r7!, {r0, r2, r4, r8}
    1e40:	13011349 	movwne	r1, #4937	; 0x1349
    1e44:	05050000 	streq	r0, [r5, #-0]
    1e48:	00134900 	andseq	r4, r3, r0, lsl #18
    1e4c:	00340600 	eorseq	r0, r4, r0, lsl #12
    1e50:	0b3a0e03 	bleq	e85664 <__bss_end__+0xe7a87c>
    1e54:	0b390b3b 	bleq	e44b48 <__bss_end__+0xe39d60>
    1e58:	193f1349 	ldmdbne	pc!, {r0, r3, r6, r8, r9, ip}	; <UNPREDICTABLE>
    1e5c:	0000193c 	andeq	r1, r0, ip, lsr r9
    1e60:	0b000f07 	bleq	5a84 <__code_start__-0x257c>
    1e64:	0013490b 	andseq	r4, r3, fp, lsl #18
    1e68:	00260800 	eoreq	r0, r6, r0, lsl #16
    1e6c:	00001349 	andeq	r1, r0, r9, asr #6
    1e70:	3f012e09 	svccc	0x00012e09
    1e74:	3a0e0319 	bcc	382ae0 <__bss_end__+0x377cf8>
    1e78:	390b3b0b 	stmdbcc	fp, {r0, r1, r3, r8, r9, fp, ip, sp}
    1e7c:	4919270b 	ldmdbmi	r9, {r0, r1, r3, r8, r9, sl, sp}
    1e80:	12011113 	andne	r1, r1, #-1073741820	; 0xc0000004
    1e84:	97184006 	ldrls	r4, [r8, -r6]
    1e88:	13011942 	movwne	r1, #6466	; 0x1942
    1e8c:	050a0000 	streq	r0, [sl, #-0]
    1e90:	3a080300 	bcc	202a98 <__bss_end__+0x1f7cb0>
    1e94:	390b3b0b 	stmdbcc	fp, {r0, r1, r3, r8, r9, fp, ip, sp}
    1e98:	0213490b 	andseq	r4, r3, #180224	; 0x2c000
    1e9c:	0b000018 	bleq	1f04 <__code_start__-0x60fc>
    1ea0:	08030005 	stmdaeq	r3, {r0, r2}
    1ea4:	0b3b0b3a 	bleq	ec4b94 <__bss_end__+0xeb9dac>
    1ea8:	13490b39 	movtne	r0, #39737	; 0x9b39
    1eac:	42b71702 	adcsmi	r1, r7, #524288	; 0x80000
    1eb0:	0c000017 	stceq	0, cr0, [r0], {23}
    1eb4:	08030034 	stmdaeq	r3, {r2, r4, r5}
    1eb8:	0b3b0b3a 	bleq	ec4ba8 <__bss_end__+0xeb9dc0>
    1ebc:	13490b39 	movtne	r0, #39737	; 0x9b39
    1ec0:	42b71702 	adcsmi	r1, r7, #524288	; 0x80000
    1ec4:	00000017 	andeq	r0, r0, r7, lsl r0
    1ec8:	25011101 	strcs	r1, [r1, #-257]	; 0xfffffeff
    1ecc:	030b130e 	movweq	r1, #45838	; 0xb30e
    1ed0:	110e1b0e 	tstne	lr, lr, lsl #22
    1ed4:	10061201 	andne	r1, r6, r1, lsl #4
    1ed8:	02000017 	andeq	r0, r0, #23, 0
    1edc:	0b0b0024 	bleq	2c1f74 <__bss_end__+0x2b718c>
    1ee0:	08030b3e 	stmdaeq	r3, {r1, r2, r3, r4, r5, r8, r9, fp}
    1ee4:	16030000 	strne	r0, [r3], -r0
    1ee8:	3a0e0300 	bcc	382af0 <__bss_end__+0x377d08>
    1eec:	390b3b0b 	stmdbcc	fp, {r0, r1, r3, r8, r9, fp, ip, sp}
    1ef0:	0013490b 	andseq	r4, r3, fp, lsl #18
    1ef4:	00240400 	eoreq	r0, r4, r0, lsl #8
    1ef8:	0b3e0b0b 	bleq	f84b2c <__bss_end__+0xf79d44>
    1efc:	00000e03 	andeq	r0, r0, r3, lsl #28
    1f00:	49002605 	stmdbmi	r0, {r0, r2, r9, sl, sp}
    1f04:	06000013 			; <UNDEFINED> instruction: 0x06000013
    1f08:	19270115 	stmdbne	r7!, {r0, r2, r4, r8}
    1f0c:	13011349 	movwne	r1, #4937	; 0x1349
    1f10:	05070000 	streq	r0, [r7, #-0]
    1f14:	00134900 	andseq	r4, r3, r0, lsl #18
    1f18:	00340800 	eorseq	r0, r4, r0, lsl #16
    1f1c:	0b3a0e03 	bleq	e85730 <__bss_end__+0xe7a948>
    1f20:	0b390b3b 	bleq	e44c14 <__bss_end__+0xe39e2c>
    1f24:	193f1349 	ldmdbne	pc!, {r0, r3, r6, r8, r9, ip}	; <UNPREDICTABLE>
    1f28:	0000193c 	andeq	r1, r0, ip, lsr r9
    1f2c:	0b000f09 	bleq	5b58 <__code_start__-0x24a8>
    1f30:	0013490b 	andseq	r4, r3, fp, lsl #18
    1f34:	012e0a00 			; <UNDEFINED> instruction: 0x012e0a00
    1f38:	0e03193f 			; <UNDEFINED> instruction: 0x0e03193f
    1f3c:	0b3b0b3a 	bleq	ec4c2c <__bss_end__+0xeb9e44>
    1f40:	19270b39 	stmdbne	r7!, {r0, r3, r4, r5, r8, r9, fp}
    1f44:	01111349 	tsteq	r1, r9, asr #6
    1f48:	18400612 	stmdane	r0, {r1, r4, r9, sl}^
    1f4c:	01194297 			; <UNDEFINED> instruction: 0x01194297
    1f50:	0b000013 	bleq	1fa4 <__code_start__-0x605c>
    1f54:	08030005 	stmdaeq	r3, {r0, r2}
    1f58:	0b3b0b3a 	bleq	ec4c48 <__bss_end__+0xeb9e60>
    1f5c:	13490b39 	movtne	r0, #39737	; 0x9b39
    1f60:	42b71702 	adcsmi	r1, r7, #524288	; 0x80000
    1f64:	0c000017 	stceq	0, cr0, [r0], {23}
    1f68:	08030034 	stmdaeq	r3, {r2, r4, r5}
    1f6c:	0b3b0b3a 	bleq	ec4c5c <__bss_end__+0xeb9e74>
    1f70:	13490b39 	movtne	r0, #39737	; 0x9b39
    1f74:	42b71702 	adcsmi	r1, r7, #524288	; 0x80000
    1f78:	00000017 	andeq	r0, r0, r7, lsl r0
    1f7c:	25011101 	strcs	r1, [r1, #-257]	; 0xfffffeff
    1f80:	030b130e 	movweq	r1, #45838	; 0xb30e
    1f84:	110e1b0e 	tstne	lr, lr, lsl #22
    1f88:	10061201 	andne	r1, r6, r1, lsl #4
    1f8c:	02000017 	andeq	r0, r0, #23, 0
    1f90:	0b0b0024 	bleq	2c2028 <__bss_end__+0x2b7240>
    1f94:	08030b3e 	stmdaeq	r3, {r1, r2, r3, r4, r5, r8, r9, fp}
    1f98:	24030000 	strcs	r0, [r3], #-0
    1f9c:	3e0b0b00 	vmlacc.f64	d0, d11, d0
    1fa0:	000e030b 	andeq	r0, lr, fp, lsl #6
    1fa4:	01150400 	tsteq	r5, r0, lsl #8
    1fa8:	13491927 	movtne	r1, #39207	; 0x9927
    1fac:	00001301 	andeq	r1, r0, r1, lsl #6
    1fb0:	49000505 	stmdbmi	r0, {r0, r2, r8, sl}
    1fb4:	06000013 			; <UNDEFINED> instruction: 0x06000013
    1fb8:	0e030034 	mcreq	0, 0, r0, cr3, cr4, {1}
    1fbc:	0b3b0b3a 	bleq	ec4cac <__bss_end__+0xeb9ec4>
    1fc0:	13490b39 	movtne	r0, #39737	; 0x9b39
    1fc4:	193c193f 	ldmdbne	ip!, {r0, r1, r2, r3, r4, r5, r8, fp, ip}
    1fc8:	0f070000 	svceq	0x00070000
    1fcc:	490b0b00 	stmdbmi	fp, {r8, r9, fp}
    1fd0:	08000013 	stmdaeq	r0, {r0, r1, r4}
    1fd4:	13490026 	movtne	r0, #36902	; 0x9026
    1fd8:	2e090000 	cdpcs	0, 0, cr0, cr9, cr0, {0}
    1fdc:	03193f00 	tsteq	r9, #0, 30
    1fe0:	3b0b3a0e 	blcc	2d0820 <__bss_end__+0x2c5a38>
    1fe4:	270b390b 	strcs	r3, [fp, -fp, lsl #18]
    1fe8:	12011119 	andne	r1, r1, #1073741830	; 0x40000006
    1fec:	97184006 	ldrls	r4, [r8, -r6]
    1ff0:	00001942 	andeq	r1, r0, r2, asr #18
	...

Disassembly of section .debug_loc:

00000000 <.debug_loc>:
       0:	00000000 	andeq	r0, r0, r0
       4:	000000f4 	strdeq	r0, [r0], -r4
       8:	000000f8 	strdeq	r0, [r0], -r8
       c:	f8500001 			; <UNDEFINED> instruction: 0xf8500001
      10:	ff000000 			; <UNDEFINED> instruction: 0xff000000
      14:	01000000 	mrseq	r0, (UNDEF: 0)
      18:	00005200 	andeq	r5, r0, r0, lsl #4
      1c:	00000000 	andeq	r0, r0, r0
      20:	05020000 	streq	r0, [r2, #-0]
      24:	000000f4 	strdeq	r0, [r0], -r4
      28:	000000f4 	strdeq	r0, [r0], -r4
      2c:	00500001 	subseq	r0, r0, r1
      30:	00000000 	andeq	r0, r0, r0
      34:	04000000 	streq	r0, [r0], #-0
      38:	f4000000 	vst4.8	{d0-d3}, [r0], r0
      3c:	f8000000 			; <UNDEFINED> instruction: 0xf8000000
      40:	01000000 	mrseq	r0, (UNDEF: 0)
      44:	00f85000 	rscseq	r5, r8, r0
      48:	00ff0000 	rscseq	r0, pc, r0
      4c:	00010000 	andeq	r0, r1, r0
      50:	00000052 	andeq	r0, r0, r2, asr r0
      54:	00000000 	andeq	r0, r0, r0
      58:	00000200 	andeq	r0, r0, r0, lsl #4
      5c:	00000100 	andeq	r0, r0, r0, lsl #2
      60:	50000000 	andpl	r0, r0, r0
      64:	02000000 	andeq	r0, r0, #0, 0
      68:	509f3000 	addspl	r3, pc, r0
      6c:	94000000 	strls	r0, [r0], #-0
      70:	01000000 	mrseq	r0, (UNDEF: 0)
      74:	00945500 	addseq	r5, r4, r0, lsl #10
      78:	00dc0000 	sbcseq	r0, ip, r0
      7c:	00010000 	andeq	r0, r1, r0
      80:	00000055 	andeq	r0, r0, r5, asr r0
      84:	00000000 	andeq	r0, r0, r0
      88:	00000400 	andeq	r0, r0, r0, lsl #8
      8c:	50000000 	andpl	r0, r0, r0
      90:	02000000 	andeq	r0, r0, #0, 0
      94:	009f3000 	addseq	r3, pc, r0
	...
      a8:	38000000 	stmdacc	r0, {}	; <UNPREDICTABLE>
      ac:	43000000 	movwmi	r0, #0
      b0:	01000000 	mrseq	r0, (UNDEF: 0)
      b4:	00435000 	subeq	r5, r3, r0
      b8:	006c0000 	rsbeq	r0, ip, r0
      bc:	00010000 	andeq	r0, r1, r0
      c0:	00006c55 	andeq	r6, r0, r5, asr ip
      c4:	00007700 	andeq	r7, r0, r0, lsl #14
      c8:	50000100 	andpl	r0, r0, r0, lsl #2
      cc:	00000077 	andeq	r0, r0, r7, ror r0
      d0:	00000094 	muleq	r0, r4, r0
      d4:	94540001 	ldrbls	r0, [r4], #-1
      d8:	ac000000 	stcge	0, cr0, [r0], {-0}
      dc:	01000000 	mrseq	r0, (UNDEF: 0)
      e0:	00ac5500 	adceq	r5, ip, r0, lsl #10
      e4:	00dc0000 	sbcseq	r0, ip, r0
      e8:	00010000 	andeq	r0, r1, r0
      ec:	00000054 	andeq	r0, r0, r4, asr r0
      f0:	00000000 	andeq	r0, r0, r0
      f4:	01000600 	tsteq	r0, r0, lsl #12
      f8:	00000000 	andeq	r0, r0, r0
      fc:	00001800 	andeq	r1, r0, r0, lsl #16
     100:	40000200 	andmi	r0, r0, r0, lsl #4
     104:	0000509f 	muleq	r0, pc, r0	; <UNPREDICTABLE>
     108:	00005c00 	andeq	r5, r0, r0, lsl #24
     10c:	40000200 	andmi	r0, r0, r0, lsl #4
     110:	0000009f 	muleq	r0, pc, r0	; <UNPREDICTABLE>
     114:	00000000 	andeq	r0, r0, r0
     118:	01000600 	tsteq	r0, r0, lsl #12
     11c:	00000000 	andeq	r0, r0, r0
     120:	00001800 	andeq	r1, r0, r0, lsl #16
     124:	f2000600 	vmax.s8	d0, d0, d0
     128:	000004ef 	andeq	r0, r0, pc, ror #9
     12c:	00005000 	andeq	r5, r0, r0
     130:	00005c00 	andeq	r5, r0, r0, lsl #24
     134:	f2000600 	vmax.s8	d0, d0, d0
     138:	000004ef 	andeq	r0, r0, pc, ror #9
	...
     144:	01000600 	tsteq	r0, r0, lsl #12
     148:	00000000 	andeq	r0, r0, r0
     14c:	00001800 	andeq	r1, r0, r0, lsl #16
     150:	03000600 	movweq	r0, #1536	; 0x600
     154:	0000a118 	andeq	sl, r0, r8, lsl r1
     158:	0000509f 	muleq	r0, pc, r0	; <UNPREDICTABLE>
     15c:	00005c00 	andeq	r5, r0, r0, lsl #24
     160:	03000600 	movweq	r0, #1536	; 0x600
     164:	0000a118 	andeq	sl, r0, r8, lsl r1
     168:	0000009f 	muleq	r0, pc, r0	; <UNPREDICTABLE>
	...
     174:	64000000 	strvs	r0, [r0], #-0
     178:	78000002 	stmdavc	r0, {r1}
     17c:	01000002 	tsteq	r0, r2
     180:	02785000 	rsbseq	r5, r8, #0, 0
     184:	02e40000 	rsceq	r0, r4, #0, 0
     188:	00010000 	andeq	r0, r1, r0
     18c:	0002e456 	andeq	lr, r2, r6, asr r4
     190:	0002f000 	andeq	pc, r2, r0
     194:	f3000400 	vshl.u8	d0, d0, d0
     198:	009f5001 	addseq	r5, pc, r1
	...
     1a8:	00028800 	andeq	r8, r2, r0, lsl #16
     1ac:	00028f00 	andeq	r8, r2, r0, lsl #30
     1b0:	50000100 	andpl	r0, r0, r0, lsl #2
     1b4:	0000028f 	andeq	r0, r0, pc, lsl #5
     1b8:	000002e4 	andeq	r0, r0, r4, ror #5
     1bc:	e4540001 	ldrb	r0, [r4], #-1
     1c0:	f0000002 			; <UNDEFINED> instruction: 0xf0000002
     1c4:	05000002 	streq	r0, [r0, #-2]
     1c8:	a9c00300 	stmibge	r0, {r8, r9}^
	...
     1e0:	000000d0 	ldrdeq	r0, [r0], -r0	; <UNPREDICTABLE>
     1e4:	000000e0 	andeq	r0, r0, r0, ror #1
     1e8:	e0500001 	subs	r0, r0, r1
     1ec:	e0000000 	and	r0, r0, r0
     1f0:	01000001 	tsteq	r0, r1
     1f4:	01e05400 	mvneq	r5, r0, lsl #8
     1f8:	01e30000 	mvneq	r0, r0
     1fc:	00040000 	andeq	r0, r4, r0
     200:	9f01a870 	svcls	0x0001a870
     204:	000001e3 	andeq	r0, r0, r3, ror #3
     208:	000001e4 	andeq	r0, r0, r4, ror #3
     20c:	01f30004 	mvnseq	r0, r4
     210:	01e49f50 	mvneq	r9, r0, asr pc
     214:	02640000 	rsbeq	r0, r4, #0, 0
     218:	00010000 	andeq	r0, r1, r0
     21c:	00000054 	andeq	r0, r0, r4, asr r0
	...
     228:	ec000000 	stc	0, cr0, [r0], {-0}
     22c:	e0000000 	and	r0, r0, r0
     230:	08000001 	stmdaeq	r0, {r0}
     234:	57049300 	strpl	r9, [r4, -r0, lsl #6]
     238:	93580493 	cmpls	r8, #-1828716544	; 0x93000000
     23c:	0001e004 	andeq	lr, r1, r4
     240:	0001e400 	andeq	lr, r1, r0, lsl #8
     244:	93000a00 	movwls	r0, #2560	; 0xa00
     248:	93589104 	cmpls	r8, #1
     24c:	935c9104 	cmpls	ip, #1
     250:	0001e404 	andeq	lr, r1, r4, lsl #8
     254:	00026400 	andeq	r6, r2, r0, lsl #8
     258:	93000800 	movwls	r0, #2048	; 0x800
     25c:	04935704 	ldreq	r5, [r3], #1796	; 0x704
     260:	00049358 	andeq	r9, r4, r8, asr r3
     264:	00000000 	andeq	r0, r0, r0
     268:	01000000 	mrseq	r0, (UNDEF: 0)
	...
     278:	0000ec00 	andeq	lr, r0, r0, lsl #24
     27c:	00011000 	andeq	r1, r1, r0
     280:	54000100 	strpl	r0, [r0], #-256	; 0xffffff00
     284:	00000110 	andeq	r0, r0, r0, lsl r1
     288:	00000134 	andeq	r0, r0, r4, lsr r1
     28c:	d8740004 	ldmdale	r4!, {r2}^
     290:	01349f7e 	teqeq	r4, lr, ror pc
     294:	01e00000 	mvneq	r0, r0
     298:	00010000 	andeq	r0, r1, r0
     29c:	0001e055 	andeq	lr, r1, r5, asr r0
     2a0:	0001e300 	andeq	lr, r1, r0, lsl #6
     2a4:	50000100 	andpl	r0, r0, r0, lsl #2
     2a8:	000001e3 	andeq	r0, r0, r3, ror #3
     2ac:	000001e4 	andeq	r0, r0, r4, ror #3
     2b0:	01f30007 	mvnseq	r0, r7
     2b4:	1ca80850 	stcne	8, cr0, [r8], #320	; 0x140
     2b8:	0001e49f 	muleq	r1, pc, r4	; <UNPREDICTABLE>
     2bc:	0001f000 	andeq	pc, r1, r0
     2c0:	55000100 	strpl	r0, [r0, #-256]	; 0xffffff00
     2c4:	000001f0 	strdeq	r0, [r0], -r0	; <UNPREDICTABLE>
     2c8:	00000264 	andeq	r0, r0, r4, ror #4
     2cc:	d8740004 	ldmdale	r4!, {r2}^
     2d0:	00009f7e 	andeq	r9, r0, lr, ror pc
     2d4:	00000000 	andeq	r0, r0, r0
     2d8:	01020000 	mrseq	r0, (UNDEF: 2)
     2dc:	00000124 	andeq	r0, r0, r4, lsr #2
     2e0:	0000017c 	andeq	r0, r0, ip, ror r1
     2e4:	00540001 	subseq	r0, r4, r1
	...
     2f0:	00012800 	andeq	r2, r1, r0, lsl #16
     2f4:	00017b00 	andeq	r7, r1, r0, lsl #22
     2f8:	52000100 	andpl	r0, r0, #0
	...
     304:	01380001 	teqeq	r8, r1
     308:	013c0000 	teqeq	ip, r0
     30c:	00010000 	andeq	r0, r1, r0
     310:	00000052 	andeq	r0, r0, r2, asr r0
     314:	00000000 	andeq	r0, r0, r0
     318:	440d0100 	strmi	r0, [sp], #-256	; 0xffffff00
     31c:	44000001 	strmi	r0, [r0], #-1
     320:	01000001 	tsteq	r0, r1
     324:	00005400 	andeq	r5, r0, r0, lsl #8
     328:	00000000 	andeq	r0, r0, r0
     32c:	0d010000 	stceq	0, cr0, [r1, #-0]
     330:	00000144 	andeq	r0, r0, r4, asr #2
     334:	00000144 	andeq	r0, r0, r4, asr #2
     338:	00520001 	subseq	r0, r2, r1
     33c:	00000000 	andeq	r0, r0, r0
     340:	05000000 	streq	r0, [r0, #-0]
     344:	00000000 	andeq	r0, r0, r0
     348:	00014400 	andeq	r4, r1, r0, lsl #8
     34c:	00014c00 	andeq	r4, r1, r0, lsl #24
     350:	72000400 	andvc	r0, r0, #0, 8
     354:	4c9f01a8 	ldfmis	f0, [pc], {168}	; 0xa8
     358:	74000001 	strvc	r0, [r0], #-1
     35c:	01000001 	tsteq	r0, r1
     360:	01745100 	cmneq	r4, r0, lsl #2
     364:	017b0000 	cmneq	fp, r0
     368:	00040000 	andeq	r0, r4, r0
     36c:	9f01a872 	svcls	0x0001a872
	...
     378:	0144000c 	cmpeq	r4, ip
     37c:	017b0000 	cmneq	fp, r0
     380:	000a0000 	andeq	r0, sl, r0
     384:	04720072 	ldrbteq	r0, [r2], #-114	; 0xffffff8e
     388:	a8232206 	stmdage	r3!, {r1, r2, r9, sp}
     38c:	00009f01 	andeq	r9, r0, r1, lsl #30
     390:	00000000 	andeq	r0, r0, r0
     394:	05030000 	streq	r0, [r3, #-0]
     398:	00000144 	andeq	r0, r0, r4, asr #2
     39c:	00000144 	andeq	r0, r0, r4, asr #2
     3a0:	00520001 	subseq	r0, r2, r1
     3a4:	00000000 	andeq	r0, r0, r0
     3a8:	07000000 	streq	r0, [r0, -r0]
     3ac:	0001440c 	andeq	r4, r1, ip, lsl #8
     3b0:	00014400 	andeq	r4, r1, r0, lsl #8
     3b4:	52000100 	andpl	r0, r0, #0
	...
     3c0:	00000206 	andeq	r0, r0, r6, lsl #4
     3c4:	0000017c 	andeq	r0, r0, ip, ror r1
     3c8:	000001d4 	ldrdeq	r0, [r0], -r4
     3cc:	c0030006 	andgt	r0, r3, r6
     3d0:	9f0000a9 	svcls	0x000000a9
     3d4:	000001e4 	andeq	r0, r0, r4, ror #3
     3d8:	000001f0 	strdeq	r0, [r0], -r0	; <UNPREDICTABLE>
     3dc:	c0030006 	andgt	r0, r3, r6
     3e0:	9f0000a9 	svcls	0x000000a9
	...
     3ec:	00000205 	andeq	r0, r0, r5, lsl #4
     3f0:	0000017c 	andeq	r0, r0, ip, ror r1
     3f4:	000001d4 	ldrdeq	r0, [r0], -r4
     3f8:	e4550001 	ldrb	r0, [r5], #-1
     3fc:	f0000001 			; <UNDEFINED> instruction: 0xf0000001
     400:	01000001 	tsteq	r0, r1
     404:	00005500 	andeq	r5, r0, r0, lsl #10
	...
     418:	01800000 	orreq	r0, r0, r0
     41c:	01a80000 			; <UNDEFINED> instruction: 0x01a80000
     420:	00010000 	andeq	r0, r1, r0
     424:	0001a853 	andeq	sl, r1, r3, asr r8
     428:	0001b000 	andeq	fp, r1, r0
     42c:	52000100 	andpl	r0, r0, #0
     430:	000001b0 			; <UNDEFINED> instruction: 0x000001b0
     434:	000001b4 			; <UNDEFINED> instruction: 0x000001b4
     438:	cc530001 	mrrcgt	0, 0, r0, r3, cr1
     43c:	d0000001 	andle	r0, r0, r1
     440:	01000001 	tsteq	r0, r1
     444:	01d05300 	bicseq	r5, r0, r0, lsl #6
     448:	01d40000 	bicseq	r0, r4, r0
     44c:	00050000 	andeq	r0, r5, r0
     450:	00a9c003 	adceq	ip, r9, r3
     454:	0001e400 	andeq	lr, r1, r0, lsl #8
     458:	0001f000 	andeq	pc, r1, r0
     45c:	53000100 	movwpl	r0, #256	; 0x100
	...
     46c:	01940000 	orrseq	r0, r4, r0
     470:	01b00000 	movseq	r0, r0
     474:	00010000 	andeq	r0, r1, r0
     478:	0001e452 	andeq	lr, r1, r2, asr r4
     47c:	0001e800 	andeq	lr, r1, r0, lsl #16
     480:	52000100 	andpl	r0, r0, #0
     484:	000001e8 	andeq	r0, r0, r8, ror #3
     488:	000001ec 	andeq	r0, r0, ip, ror #3
     48c:	00730002 	rsbseq	r0, r3, r2
	...
     498:	00010001 	andeq	r0, r1, r1
     49c:	00000188 	andeq	r0, r0, r8, lsl #3
     4a0:	00000194 	muleq	r0, r4, r1
     4a4:	a8530001 	ldmdage	r3, {r0}^
     4a8:	b0000001 	andlt	r0, r0, r1
     4ac:	01000001 	tsteq	r0, r1
     4b0:	00005200 	andeq	r5, r0, r0, lsl #4
	...
     4bc:	00100000 	andseq	r0, r0, r0
     4c0:	00180000 	andseq	r0, r8, r0
     4c4:	00010000 	andeq	r0, r1, r0
     4c8:	00001850 	andeq	r1, r0, r0, asr r8
     4cc:	00001c00 	andeq	r1, r0, r0, lsl #24
     4d0:	f3000400 	vshl.u8	d0, d0, d0
     4d4:	009f5001 	addseq	r5, pc, r1
	...
     4e0:	1c000000 	stcne	0, cr0, [r0], {-0}
     4e4:	20000000 	andcs	r0, r0, r0
     4e8:	01000000 	mrseq	r0, (UNDEF: 0)
     4ec:	00205000 	eoreq	r5, r0, r0
     4f0:	00240000 	eoreq	r0, r4, r0
     4f4:	00040000 	andeq	r0, r4, r0
     4f8:	9f7ed870 	svcls	0x007ed870
	...
     508:	00000024 	andeq	r0, r0, r4, lsr #32
     50c:	00000030 	andeq	r0, r0, r0, lsr r0
     510:	30500001 	subscc	r0, r0, r1
     514:	34000000 	strcc	r0, [r0], #-0
     518:	04000000 	streq	r0, [r0], #-0
     51c:	5001f300 	andpl	pc, r1, r0, lsl #6
     520:	0000009f 	muleq	r0, pc, r0	; <UNPREDICTABLE>
	...
     52c:	00003400 	andeq	r3, r0, r0, lsl #8
     530:	00004400 	andeq	r4, r0, r0, lsl #8
     534:	50000100 	andpl	r0, r0, r0, lsl #2
     538:	00000044 	andeq	r0, r0, r4, asr #32
     53c:	00000058 	andeq	r0, r0, r8, asr r0
     540:	d8720004 	ldmdale	r2!, {r2}^
     544:	00009f7e 	andeq	r9, r0, lr, ror pc
     548:	00000000 	andeq	r0, r0, r0
     54c:	00040000 	andeq	r0, r4, r0
     550:	00340000 	eorseq	r0, r4, r0
     554:	003c0000 	eorseq	r0, ip, r0
     558:	00040000 	andeq	r0, r4, r0
     55c:	9f01a870 	svcls	0x0001a870
     560:	0000003c 	andeq	r0, r0, ip, lsr r0
     564:	00000058 	andeq	r0, r0, r8, asr r0
     568:	00520001 	subseq	r0, r2, r1
     56c:	00000000 	andeq	r0, r0, r0
     570:	0b000000 	bleq	578 <__code_start__-0x7a88>
     574:	34000000 	strcc	r0, [r0], #-0
     578:	44000000 	strmi	r0, [r0], #-0
     57c:	0a000000 	beq	584 <__code_start__-0x7a7c>
     580:	70007000 	andvc	r7, r0, r0
     584:	23220604 			; <UNDEFINED> instruction: 0x23220604
     588:	449f01a8 	ldrmi	r0, [pc], #424	; 590 <__code_start__-0x7a70>
     58c:	58000000 	stmdapl	r0, {}	; <UNPREDICTABLE>
     590:	08000000 	stmdaeq	r0, {}	; <UNPREDICTABLE>
     594:	72007200 	andvc	r7, r0, #0, 4
     598:	22067edc 	andcs	r7, r6, #220, 28	; 0xdc0
     59c:	0000009f 	muleq	r0, pc, r0	; <UNPREDICTABLE>
     5a0:	00000000 	andeq	r0, r0, r0
     5a4:	34040200 	strcc	r0, [r4], #-512	; 0xfffffe00
     5a8:	34000000 	strcc	r0, [r0], #-0
     5ac:	01000000 	mrseq	r0, (UNDEF: 0)
     5b0:	00005000 	andeq	r5, r0, r0
     5b4:	00000000 	andeq	r0, r0, r0
     5b8:	0b060000 	bleq	1805c0 <__bss_end__+0x1757d8>
     5bc:	00000034 	andeq	r0, r0, r4, lsr r0
     5c0:	00000034 	andeq	r0, r0, r4, lsr r0
     5c4:	00500001 	subseq	r0, r0, r1
	...
     5d4:	00005800 	andeq	r5, r0, r0, lsl #16
     5d8:	0000bc00 	andeq	fp, r0, r0, lsl #24
     5dc:	50000100 	andpl	r0, r0, r0, lsl #2
     5e0:	000000bc 	strheq	r0, [r0], -ip
     5e4:	000000bf 	strheq	r0, [r0], -pc	; <UNPREDICTABLE>
     5e8:	bf510001 	svclt	0x00510001
     5ec:	d0000000 	andle	r0, r0, r0
     5f0:	04000000 	streq	r0, [r0], #-0
     5f4:	5001f300 	andpl	pc, r1, r0, lsl #6
     5f8:	0000009f 	muleq	r0, pc, r0	; <UNPREDICTABLE>
     5fc:	00000000 	andeq	r0, r0, r0
     600:	0d000000 	stceq	0, cr0, [r0, #-0]
     604:	00006400 	andeq	r6, r0, r0, lsl #8
     608:	00007c00 	andeq	r7, r0, r0, lsl #24
     60c:	54000100 	strpl	r0, [r0], #-256	; 0xffffff00
     610:	0000007c 	andeq	r0, r0, ip, ror r0
     614:	000000d0 	ldrdeq	r0, [r0], -r0	; <UNPREDICTABLE>
     618:	00540001 	subseq	r0, r4, r1
     61c:	00000000 	andeq	r0, r0, r0
     620:	01000000 	mrseq	r0, (UNDEF: 0)
     624:	6c0d000d 	stcvs	0, cr0, [sp], {13}
     628:	6c000000 	stcvs	0, cr0, [r0], {-0}
     62c:	01000000 	mrseq	r0, (UNDEF: 0)
     630:	007c5000 	rsbseq	r5, ip, r0
     634:	007c0000 	rsbseq	r0, ip, r0
     638:	00010000 	andeq	r0, r1, r0
     63c:	00000050 	andeq	r0, r0, r0, asr r0
     640:	00000000 	andeq	r0, r0, r0
     644:	000d0100 	andeq	r0, sp, r0, lsl #2
     648:	00006c0d 	andeq	r6, r0, sp, lsl #24
     64c:	00006c00 	andeq	r6, r0, r0, lsl #24
     650:	54000100 	strpl	r0, [r0], #-256	; 0xffffff00
     654:	0000007c 	andeq	r0, r0, ip, ror r0
     658:	0000007c 	andeq	r0, r0, ip, ror r0
     65c:	00540001 	subseq	r0, r4, r1
     660:	00000000 	andeq	r0, r0, r0
     664:	05000000 	streq	r0, [r0, #-0]
     668:	02020000 	andeq	r0, r2, #0, 0
     66c:	00000505 	andeq	r0, r0, r5, lsl #10
     670:	00006c00 	andeq	r6, r0, r0, lsl #24
     674:	00007400 	andeq	r7, r0, r0, lsl #8
     678:	74000400 	strvc	r0, [r0], #-1024	; 0xfffffc00
     67c:	749f01a8 	ldrvc	r0, [pc], #424	; 684 <__code_start__-0x797c>
     680:	78000000 	stmdavc	r0, {}	; <UNPREDICTABLE>
     684:	01000000 	mrseq	r0, (UNDEF: 0)
     688:	00785200 	rsbseq	r5, r8, r0, lsl #4
     68c:	007c0000 	rsbseq	r0, ip, r0
     690:	000a0000 	andeq	r0, sl, r0
     694:	00a9c003 	adceq	ip, r9, r3
     698:	a8230600 	stmdage	r3!, {r9, sl}
     69c:	007c9f01 	rsbseq	r9, ip, r1, lsl #30
     6a0:	00840000 	addeq	r0, r4, r0
     6a4:	00040000 	andeq	r0, r4, r0
     6a8:	9f01a874 	svcls	0x0001a874
     6ac:	00000084 	andeq	r0, r0, r4, lsl #1
     6b0:	000000b8 	strheq	r0, [r0], -r8
     6b4:	00520001 	subseq	r0, r2, r1
     6b8:	00000000 	andeq	r0, r0, r0
     6bc:	0c000000 	stceq	0, cr0, [r0], {-0}
     6c0:	0c0c0200 	sfmeq	f0, 4, [ip], {-0}
     6c4:	00006c00 	andeq	r6, r0, r0, lsl #24
     6c8:	00007800 	andeq	r7, r0, r0, lsl #16
     6cc:	74000a00 	strvc	r0, [r0], #-2560	; 0xfffff600
     6d0:	06047400 	streq	r7, [r4], -r0, lsl #8
     6d4:	01a82322 			; <UNDEFINED> instruction: 0x01a82322
     6d8:	0000789f 	muleq	r0, pc, r8	; <UNPREDICTABLE>
     6dc:	00007c00 	andeq	r7, r0, r0, lsl #24
     6e0:	03001400 	movweq	r1, #1024	; 0x400
     6e4:	0000a9c0 	andeq	sl, r0, r0, asr #19
     6e8:	a9c00306 	stmibge	r0, {r1, r2, r8, r9}^
     6ec:	23060000 	movwcs	r0, #24576	; 0x6000
     6f0:	23220604 			; <UNDEFINED> instruction: 0x23220604
     6f4:	7c9f01a8 	ldfvcs	f0, [pc], {168}	; 0xa8
     6f8:	8c000000 	stchi	0, cr0, [r0], {-0}
     6fc:	0a000000 	beq	704 <__code_start__-0x78fc>
     700:	74007400 	strvc	r7, [r0], #-1024	; 0xfffffc00
     704:	23220604 			; <UNDEFINED> instruction: 0x23220604
     708:	009f01a8 	addseq	r0, pc, r8, lsr #3
     70c:	00000000 	andeq	r0, r0, r0
     710:	03000000 	movweq	r0, #0
     714:	6c050305 	stcvs	3, cr0, [r5], {5}
     718:	6c000000 	stcvs	0, cr0, [r0], {-0}
     71c:	01000000 	mrseq	r0, (UNDEF: 0)
     720:	007c5400 	rsbseq	r5, ip, r0, lsl #8
     724:	007c0000 	rsbseq	r0, ip, r0
     728:	00010000 	andeq	r0, r1, r0
     72c:	00000054 	andeq	r0, r0, r4, asr r0
     730:	00000000 	andeq	r0, r0, r0
     734:	070c0700 	streq	r0, [ip, -r0, lsl #14]
     738:	00006c0c 	andeq	r6, r0, ip, lsl #24
     73c:	00006c00 	andeq	r6, r0, r0, lsl #24
     740:	54000100 	strpl	r0, [r0], #-256	; 0xffffff00
     744:	0000007c 	andeq	r0, r0, ip, ror r0
     748:	0000007c 	andeq	r0, r0, ip, ror r0
     74c:	00540001 	subseq	r0, r4, r1
     750:	00000000 	andeq	r0, r0, r0
     754:	03000000 	movweq	r0, #0
     758:	00007800 	andeq	r7, r0, r0, lsl #16
     75c:	00007c00 	andeq	r7, r0, r0, lsl #24
     760:	54000100 	strpl	r0, [r0], #-256	; 0xffffff00
	...
     774:	006c0000 	rsbeq	r0, ip, r0
     778:	00010000 	andeq	r0, r1, r0
     77c:	00006c50 	andeq	r6, r0, r0, asr ip
     780:	00007400 	andeq	r7, r0, r0, lsl #8
     784:	71000300 	mrsvc	r0, LR_irq
     788:	00749f08 	rsbseq	r9, r4, r8, lsl #30
     78c:	00880000 	addeq	r0, r8, r0
     790:	00040000 	andeq	r0, r4, r0
     794:	9f5001f3 	svcls	0x005001f3
	...
     7a4:	0000000c 	andeq	r0, r0, ip
     7a8:	00000074 	andeq	r0, r0, r4, ror r0
     7ac:	74510001 	ldrbvc	r0, [r1], #-1
     7b0:	88000000 	stmdahi	r0, {}	; <UNPREDICTABLE>
     7b4:	06000000 	streq	r0, [r0], -r0
     7b8:	5001f300 	andpl	pc, r1, r0, lsl #6
     7bc:	009f1c38 	addseq	r1, pc, r8, lsr ip	; <UNPREDICTABLE>
	...
     7c8:	00001000 	andeq	r1, r0, r0
     7cc:	00008800 	andeq	r8, r0, r0, lsl #16
     7d0:	53000100 	movwpl	r0, #256	; 0x100
	...
     7e4:	00000088 	andeq	r0, r0, r8, lsl #1
     7e8:	000000ac 	andeq	r0, r0, ip, lsr #1
     7ec:	ac500001 	mrrcge	0, 0, r0, r0, cr1	; <UNPREDICTABLE>
     7f0:	5c000000 	stcpl	0, cr0, [r0], {-0}
     7f4:	04000001 	streq	r0, [r0], #-1
     7f8:	5001f300 	andpl	pc, r1, r0, lsl #6
     7fc:	00015c9f 	muleq	r1, pc, ip	; <UNPREDICTABLE>
     800:	00016800 	andeq	r6, r1, r0, lsl #16
     804:	50000100 	andpl	r0, r0, r0, lsl #2
     808:	00000168 	andeq	r0, r0, r8, ror #2
     80c:	00000188 	andeq	r0, r0, r8, lsl #3
     810:	01f30004 	mvnseq	r0, r4
     814:	00009f50 	andeq	r9, r0, r0, asr pc
	...
     824:	01010100 	mrseq	r0, (UNDEF: 17)
     828:	00020001 	andeq	r0, r2, r1
     82c:	00ac0000 	adceq	r0, ip, r0
     830:	00b80000 	adcseq	r0, r8, r0
     834:	00010000 	andeq	r0, r1, r0
     838:	0000c450 	andeq	ip, r0, r0, asr r4
     83c:	0000c800 	andeq	ip, r0, r0, lsl #16
     840:	53000100 	movwpl	r0, #256	; 0x100
     844:	000000c8 	andeq	r0, r0, r8, asr #1
     848:	000000d4 	ldrdeq	r0, [r0], -r4
     84c:	10500001 	subsne	r0, r0, r1
     850:	20000001 	andcs	r0, r0, r1
     854:	01000001 	tsteq	r0, r1
     858:	01205300 			; <UNDEFINED> instruction: 0x01205300
     85c:	013c0000 	teqeq	ip, r0
     860:	00010000 	andeq	r0, r1, r0
     864:	00013c50 	andeq	r3, r1, r0, asr ip
     868:	00014000 	andeq	r4, r1, r0
     86c:	72000800 	andvc	r0, r0, #0, 16
     870:	70243300 	eorvc	r3, r4, r0, lsl #6
     874:	749f2200 	ldrvc	r2, [pc], #512	; 87c <__code_start__-0x7784>
     878:	78000001 	stmdavc	r0, {r0}
     87c:	06000001 	streq	r0, [r0], -r1
     880:	a9d00300 	ldmibge	r0, {r8, r9}^
     884:	789f0000 	ldmvc	pc, {}	; <UNPREDICTABLE>
     888:	88000001 	stmdahi	r0, {r0}
     88c:	01000001 	tsteq	r0, r1
     890:	00005000 	andeq	r5, r0, r0
     894:	00000000 	andeq	r0, r0, r0
     898:	00010000 	andeq	r0, r1, r0
     89c:	00010002 	andeq	r0, r1, r2
     8a0:	00010100 	andeq	r0, r1, r0, lsl #2
     8a4:	00a40000 	adceq	r0, r4, r0
     8a8:	00b80000 	adcseq	r0, r8, r0
     8ac:	00010000 	andeq	r0, r1, r0
     8b0:	0000c451 	andeq	ip, r0, r1, asr r4
     8b4:	0000d400 	andeq	sp, r0, r0, lsl #8
     8b8:	53000100 	movwpl	r0, #256	; 0x100
     8bc:	00000120 	andeq	r0, r0, r0, lsr #2
     8c0:	0000012c 	andeq	r0, r0, ip, lsr #2
     8c4:	5c530001 	mrrcpl	0, 0, r0, r3, cr1
     8c8:	5c000001 	stcpl	0, cr0, [r0], {1}
     8cc:	01000001 	tsteq	r0, r1
     8d0:	015c5100 	cmpeq	ip, r0, lsl #2
     8d4:	01780000 	cmneq	r8, r0
     8d8:	00060000 	andeq	r0, r6, r0
     8dc:	00a9d003 	adceq	sp, r9, r3
     8e0:	01789f00 	cmneq	r8, r0, lsl #30
     8e4:	01880000 	orreq	r0, r8, r0
     8e8:	00010000 	andeq	r0, r1, r0
     8ec:	00000051 	andeq	r0, r0, r1, asr r0
     8f0:	00000000 	andeq	r0, r0, r0
     8f4:	a4000000 	strge	r0, [r0], #-0
     8f8:	88000000 	stmdahi	r0, {}	; <UNPREDICTABLE>
     8fc:	01000001 	tsteq	r0, r1
     900:	00005400 	andeq	r5, r0, r0, lsl #8
     904:	00000000 	andeq	r0, r0, r0
     908:	00020000 	andeq	r0, r2, r0
     90c:	000000e0 	andeq	r0, r0, r0, ror #1
     910:	00000110 	andeq	r0, r0, r0, lsl r1
     914:	000a0004 	andeq	r0, sl, r4
     918:	00009f80 	andeq	r9, r0, r0, lsl #31
	...
     924:	00f80000 	rscseq	r0, r8, r0
     928:	01000000 	mrseq	r0, (UNDEF: 0)
     92c:	00010000 	andeq	r0, r1, r0
     930:	00010050 	andeq	r0, r1, r0, asr r0
     934:	00010b00 	andeq	r0, r1, r0, lsl #22
     938:	53000100 	movwpl	r0, #256	; 0x100
	...
     944:	00000001 	andeq	r0, r0, r1
     948:	000000f8 	strdeq	r0, [r0], -r8
     94c:	00000100 	andeq	r0, r0, r0, lsl #2
     950:	00500001 	subseq	r0, r0, r1
     954:	0b000001 	bleq	960 <__code_start__-0x76a0>
     958:	01000001 	tsteq	r0, r1
     95c:	00005300 	andeq	r5, r0, r0, lsl #6
     960:	00000000 	andeq	r0, r0, r0
     964:	00020000 	andeq	r0, r2, r0
     968:	000004d0 	ldrdeq	r0, [r0], -r0	; <UNPREDICTABLE>
     96c:	000004dc 	ldrdeq	r0, [r0], -ip
     970:	00550001 	subseq	r0, r5, r1
     974:	00000000 	andeq	r0, r0, r0
     978:	03000000 	movweq	r0, #0
     97c:	00000000 	andeq	r0, r0, r0
     980:	64000000 	strvs	r0, [r0], #-0
     984:	9c000004 	stcls	0, cr0, [r0], {4}
     988:	02000004 	andeq	r0, r0, #4, 0
     98c:	9c9f3000 	ldcls	0, cr3, [pc], {0}
     990:	bc000004 	stclt	0, cr0, [r0], {4}
     994:	01000004 	tsteq	r0, r4
     998:	04dc5600 	ldrbeq	r5, [ip], #1536	; 0x600
     99c:	052c0000 	streq	r0, [ip, #-0]!
     9a0:	00010000 	andeq	r0, r1, r0
     9a4:	00052c56 	andeq	r2, r5, r6, asr ip
     9a8:	00055800 	andeq	r5, r5, r0, lsl #16
     9ac:	30000200 	andcc	r0, r0, r0, lsl #4
     9b0:	0000009f 	muleq	r0, pc, r0	; <UNPREDICTABLE>
     9b4:	00000000 	andeq	r0, r0, r0
     9b8:	00000300 	andeq	r0, r0, r0, lsl #6
     9bc:	00000000 	andeq	r0, r0, r0
     9c0:	00046400 	andeq	r6, r4, r0, lsl #8
     9c4:	00049c00 	andeq	r9, r4, r0, lsl #24
     9c8:	30000200 	andcc	r0, r0, r0, lsl #4
     9cc:	00049c9f 	muleq	r4, pc, ip	; <UNPREDICTABLE>
     9d0:	0004bc00 	andeq	fp, r4, r0, lsl #24
     9d4:	57000100 	strpl	r0, [r0, -r0, lsl #2]
     9d8:	000004dc 	ldrdeq	r0, [r0], -ip
     9dc:	0000052c 	andeq	r0, r0, ip, lsr #10
     9e0:	2c570001 	mrrccs	0, 0, r0, r7, cr1
     9e4:	58000005 	stmdapl	r0, {r0, r2}
     9e8:	02000005 	andeq	r0, r0, #5, 0
     9ec:	009f3000 	addseq	r3, pc, r0
     9f0:	00000000 	andeq	r0, r0, r0
     9f4:	03000000 	movweq	r0, #0
     9f8:	00000000 	andeq	r0, r0, r0
     9fc:	00000100 	andeq	r0, r0, r0, lsl #2
     a00:	00046400 	andeq	r6, r4, r0, lsl #8
     a04:	00049c00 	andeq	r9, r4, r0, lsl #24
     a08:	30000200 	andcc	r0, r0, r0, lsl #4
     a0c:	00049c9f 	muleq	r4, pc, ip	; <UNPREDICTABLE>
     a10:	0004bc00 	andeq	fp, r4, r0, lsl #24
     a14:	55000100 	strpl	r0, [r0, #-256]	; 0xffffff00
     a18:	000004dc 	ldrdeq	r0, [r0], -ip
     a1c:	00000504 	andeq	r0, r0, r4, lsl #10
     a20:	24550001 	ldrbcs	r0, [r5], #-1
     a24:	2c000005 	stccs	0, cr0, [r0], {5}
     a28:	01000005 	tsteq	r0, r5
     a2c:	052c5500 	streq	r5, [ip, #-1280]!	; 0xfffffb00
     a30:	05580000 	ldrbeq	r0, [r8, #-0]
     a34:	00020000 	andeq	r0, r2, r0
     a38:	00009f30 	andeq	r9, r0, r0, lsr pc
	...
     a48:	07000000 	streq	r0, [r0, -r0]
     a4c:	047c0007 	ldrbteq	r0, [ip], #-7
     a50:	049c0000 	ldreq	r0, [ip], #0
     a54:	00010000 	andeq	r0, r1, r0
     a58:	00049c50 	andeq	r9, r4, r0, asr ip
     a5c:	0004b400 	andeq	fp, r4, r0, lsl #8
     a60:	54000100 	strpl	r0, [r0], #-256	; 0xffffff00
     a64:	000004b4 			; <UNDEFINED> instruction: 0x000004b4
     a68:	000004bc 			; <UNDEFINED> instruction: 0x000004bc
     a6c:	dc500001 	mrrcle	0, 0, r0, r0, cr1	; <UNPREDICTABLE>
     a70:	20000004 	andcs	r0, r0, r4
     a74:	01000005 	tsteq	r0, r5
     a78:	05205400 	streq	r5, [r0, #-1024]!	; 0xfffffc00
     a7c:	05240000 	streq	r0, [r4, #-0]!
     a80:	00040000 	andeq	r0, r4, r0
     a84:	9f7ed87b 	svcls	0x007ed87b
     a88:	00000524 	andeq	r0, r0, r4, lsr #10
     a8c:	00000558 	andeq	r0, r0, r8, asr r5
     a90:	00500001 	subseq	r0, r0, r1
     a94:	00000000 	andeq	r0, r0, r0
     a98:	02000000 	andeq	r0, r0, #0, 0
     a9c:	00052404 	andeq	r2, r5, r4, lsl #8
     aa0:	00052400 	andeq	r2, r5, r0, lsl #8
     aa4:	0a000400 	beq	1aac <__code_start__-0x6554>
     aa8:	009f0101 	addseq	r0, pc, r1, lsl #2
     aac:	00000000 	andeq	r0, r0, r0
     ab0:	02000000 	andeq	r0, r0, #0, 0
     ab4:	00052404 	andeq	r2, r5, r4, lsl #8
     ab8:	00052400 	andeq	r2, r5, r0, lsl #8
     abc:	f2000600 	vmax.s8	d0, d0, d0
     ac0:	00001ec7 	andeq	r1, r0, r7, asr #29
	...
     acc:	24040200 	strcs	r0, [r4], #-512	; 0xfffffe00
     ad0:	24000005 	strcs	r0, [r0], #-5
     ad4:	06000005 	streq	r0, [r0], -r5
     ad8:	a2d80300 	sbcsge	r0, r8, #0, 6
     adc:	009f0000 	addseq	r0, pc, r0
	...
     aec:	00041400 	andeq	r1, r4, r0, lsl #8
     af0:	00042400 	andeq	r2, r4, r0, lsl #8
     af4:	50000100 	andpl	r0, r0, r0, lsl #2
     af8:	00000424 	andeq	r0, r0, r4, lsr #8
     afc:	00000427 	andeq	r0, r0, r7, lsr #8
     b00:	27510001 	ldrbcs	r0, [r1, -r1]
     b04:	58000004 	stmdapl	r0, {r2}
     b08:	01000004 	tsteq	r0, r4
     b0c:	00005400 	andeq	r5, r0, r0, lsl #8
     b10:	00000000 	andeq	r0, r0, r0
     b14:	00020000 	andeq	r0, r2, r0
     b18:	0000040c 	andeq	r0, r0, ip, lsl #8
     b1c:	00000414 	andeq	r0, r0, r4, lsl r4
     b20:	9f310002 	svcls	0x00310002
	...
     b2c:	03c40002 	biceq	r0, r4, #2, 0
     b30:	03cc0000 	biceq	r0, ip, #0, 0
     b34:	00020000 	andeq	r0, r2, r0
     b38:	00009f31 	andeq	r9, r0, r1, lsr pc
	...
     b44:	02000000 	andeq	r0, r0, #0, 0
     b48:	020c0000 	andeq	r0, ip, #0, 0
     b4c:	00010000 	andeq	r0, r1, r0
     b50:	00020c50 	andeq	r0, r2, r0, asr ip
     b54:	00032000 	andeq	r2, r3, r0
     b58:	58000100 	stmdapl	r0, {r8}
	...
     b64:	00000002 	andeq	r0, r0, r2
     b68:	02000000 	andeq	r0, r0, #0, 0
     b6c:	00000200 	andeq	r0, r0, r0, lsl #4
     b70:	00000240 	andeq	r0, r0, r0, asr #4
     b74:	9f300002 	svcls	0x00300002
     b78:	00000240 	andeq	r0, r0, r0, asr #4
     b7c:	000002b0 			; <UNDEFINED> instruction: 0x000002b0
     b80:	c8550001 	ldmdagt	r5, {r0}^
     b84:	e0000002 	and	r0, r0, r2
     b88:	01000002 	tsteq	r0, r2
     b8c:	02e05500 	rsceq	r5, r0, #0, 10
     b90:	02ec0000 	rsceq	r0, ip, #0, 0
     b94:	00020000 	andeq	r0, r2, r0
     b98:	00009f30 	andeq	r9, r0, r0, lsr pc
     b9c:	00000000 	andeq	r0, r0, r0
     ba0:	00020000 	andeq	r0, r2, r0
     ba4:	00000000 	andeq	r0, r0, r0
     ba8:	02000200 	andeq	r0, r0, #0, 4
     bac:	02400000 	subeq	r0, r0, #0, 0
     bb0:	00020000 	andeq	r0, r2, r0
     bb4:	02409f30 	subeq	r9, r0, #48, 30	; 0xc0
     bb8:	02b00000 	adcseq	r0, r0, #0, 0
     bbc:	00010000 	andeq	r0, r1, r0
     bc0:	0002c856 	andeq	ip, r2, r6, asr r8
     bc4:	0002e000 	andeq	lr, r2, r0
     bc8:	56000100 	strpl	r0, [r0], -r0, lsl #2
     bcc:	000002e0 	andeq	r0, r0, r0, ror #5
     bd0:	000002ec 	andeq	r0, r0, ip, ror #5
     bd4:	9f300002 	svcls	0x00300002
	...
     be0:	00000002 	andeq	r0, r0, r2
     be4:	02000000 	andeq	r0, r0, #0, 0
     be8:	00000200 	andeq	r0, r0, r0, lsl #4
     bec:	00000240 	andeq	r0, r0, r0, asr #4
     bf0:	9f300002 	svcls	0x00300002
     bf4:	00000240 	andeq	r0, r0, r0, asr #4
     bf8:	000002b0 			; <UNDEFINED> instruction: 0x000002b0
     bfc:	c8570001 	ldmdagt	r7, {r0}^
     c00:	e0000002 	and	r0, r0, r2
     c04:	01000002 	tsteq	r0, r2
     c08:	02e05700 	rsceq	r5, r0, #0, 14
     c0c:	02ec0000 	rsceq	r0, ip, #0, 0
     c10:	00020000 	andeq	r0, r2, r0
     c14:	00009f30 	andeq	r9, r0, r0, lsr pc
	...
     c28:	00000002 	andeq	r0, r0, r2
	...
     c34:	00000220 	andeq	r0, r0, r0, lsr #4
     c38:	00000248 	andeq	r0, r0, r8, asr #4
     c3c:	48500001 	ldmdami	r0, {r0}^
     c40:	50000002 	andpl	r0, r0, r2
     c44:	01000002 	tsteq	r0, r2
     c48:	02505400 	subseq	r5, r0, #0, 8
     c4c:	02740000 	rsbseq	r0, r4, #0, 0
     c50:	00010000 	andeq	r0, r1, r0
     c54:	00027450 	andeq	r7, r2, r0, asr r4
     c58:	00027700 	andeq	r7, r2, r0, lsl #14
     c5c:	52000100 	andpl	r0, r0, #0
     c60:	00000277 	andeq	r0, r0, r7, ror r2
     c64:	00000284 	andeq	r0, r0, r4, lsl #5
     c68:	88540001 	ldmdahi	r4, {r0}^
     c6c:	94000002 	strls	r0, [r0], #-2
     c70:	01000002 	tsteq	r0, r2
     c74:	02945000 	addseq	r5, r4, #0, 0
     c78:	02c80000 	sbceq	r0, r8, #0, 0
     c7c:	00010000 	andeq	r0, r1, r0
     c80:	0002c854 	andeq	ip, r2, r4, asr r8
     c84:	0002d400 	andeq	sp, r2, r0, lsl #8
     c88:	50000100 	andpl	r0, r0, r0, lsl #2
     c8c:	000002d4 	ldrdeq	r0, [r0], -r4
     c90:	000002e0 	andeq	r0, r0, r0, ror #5
     c94:	e0540001 	subs	r0, r4, r1
     c98:	e8000002 	stmda	r0, {r1}
     c9c:	01000002 	tsteq	r0, r2
     ca0:	02e85000 	rsceq	r5, r8, #0, 0
     ca4:	03200000 	nopeq	{0}	; <UNPREDICTABLE>
     ca8:	00010000 	andeq	r0, r1, r0
     cac:	00000054 	andeq	r0, r0, r4, asr r0
	...
     cb8:	00016800 	andeq	r6, r1, r0, lsl #16
     cbc:	00018300 	andeq	r8, r1, r0, lsl #6
     cc0:	50000100 	andpl	r0, r0, r0, lsl #2
     cc4:	00000184 	andeq	r0, r0, r4, lsl #3
     cc8:	00000190 	muleq	r0, r0, r1
     ccc:	00500001 	subseq	r0, r0, r1
	...
     ce4:	20000000 	andcs	r0, r0, r0
     ce8:	4c000003 	stcmi	0, cr0, [r0], {3}
     cec:	01000003 	tsteq	r0, r3
     cf0:	034c5000 	movteq	r5, #49152	; 0xc000
     cf4:	03680000 	cmneq	r8, #0, 0
     cf8:	00010000 	andeq	r0, r1, r0
     cfc:	00036854 	andeq	r6, r3, r4, asr r8
     d00:	00036b00 	andeq	r6, r3, r0, lsl #22
     d04:	50000100 	andpl	r0, r0, r0, lsl #2
     d08:	0000036b 	andeq	r0, r0, fp, ror #6
     d0c:	0000036c 	andeq	r0, r0, ip, ror #6
     d10:	01f30004 	mvnseq	r0, r4
     d14:	036c9f50 	cmneq	ip, #80, 30	; 0x140
     d18:	03800000 	orreq	r0, r0, #0, 0
     d1c:	00010000 	andeq	r0, r1, r0
     d20:	00038050 	andeq	r8, r3, r0, asr r0
     d24:	00038c00 	andeq	r8, r3, r0, lsl #24
     d28:	54000100 	strpl	r0, [r0], #-256	; 0xffffff00
     d2c:	0000038c 	andeq	r0, r0, ip, lsl #7
     d30:	0000039c 	muleq	r0, ip, r3
     d34:	9c500001 	mrrcls	0, 0, r0, r0, cr1	; <UNPREDICTABLE>
     d38:	bc000003 	stclt	0, cr0, [r0], {3}
     d3c:	01000003 	tsteq	r0, r3
     d40:	00005400 	andeq	r5, r0, r0, lsl #8
     d44:	00000000 	andeq	r0, r0, r0
     d48:	00020000 	andeq	r0, r2, r0
     d4c:	00000340 	andeq	r0, r0, r0, asr #6
     d50:	0000036c 	andeq	r0, r0, ip, ror #6
     d54:	40400004 	submi	r0, r0, r4
     d58:	00009f24 	andeq	r9, r0, r4, lsr #30
	...
     d6c:	004c0000 	subeq	r0, ip, r0
     d70:	00010000 	andeq	r0, r1, r0
     d74:	00004c50 	andeq	r4, r0, r0, asr ip
     d78:	00011400 	andeq	r1, r1, r0, lsl #8
     d7c:	f3000400 	vshl.u8	d0, d0, d0
     d80:	149f5001 	ldrne	r5, [pc], #1	; d88 <__code_start__-0x7278>
     d84:	28000001 	stmdacs	r0, {r0}
     d88:	01000001 	tsteq	r0, r1
     d8c:	01285000 			; <UNDEFINED> instruction: 0x01285000
     d90:	015c0000 	cmpeq	ip, r0
     d94:	00040000 	andeq	r0, r4, r0
     d98:	9f5001f3 	svcls	0x005001f3
	...
     db0:	00000038 	andeq	r0, r0, r8, lsr r0
     db4:	38510001 	ldmdacc	r1, {r0}^
     db8:	14000000 	strne	r0, [r0], #-0
     dbc:	04000001 	streq	r0, [r0], #-1
     dc0:	5101f300 	mrspl	pc, SP_irq	; <UNPREDICTABLE>
     dc4:	0001149f 	muleq	r1, pc, r4	; <UNPREDICTABLE>
     dc8:	00012000 	andeq	r2, r1, r0
     dcc:	51000100 	mrspl	r0, (UNDEF: 16)
     dd0:	00000120 	andeq	r0, r0, r0, lsr #2
     dd4:	0000015c 	andeq	r0, r0, ip, asr r1
     dd8:	01f30004 	mvnseq	r0, r4
     ddc:	00009f51 	andeq	r9, r0, r1, asr pc
	...
     de8:	00020200 	andeq	r0, r2, r0, lsl #4
     dec:	00020200 	andeq	r0, r2, r0, lsl #4
     df0:	00020200 	andeq	r0, r2, r0, lsl #4
     df4:	00000058 	andeq	r0, r0, r8, asr r0
     df8:	00000060 	andeq	r0, r0, r0, rrx
     dfc:	60540001 	subsvs	r0, r4, r1
     e00:	d0000000 	andle	r0, r0, r0
     e04:	01000000 	mrseq	r0, (UNDEF: 0)
     e08:	00d05800 	sbcseq	r5, r0, r0, lsl #16
     e0c:	00e00000 	rsceq	r0, r0, r0
     e10:	00010000 	andeq	r0, r1, r0
     e14:	0000e054 	andeq	lr, r0, r4, asr r0
     e18:	0000e800 	andeq	lr, r0, r0, lsl #16
     e1c:	58000100 	stmdapl	r0, {r8}
     e20:	000000e8 	andeq	r0, r0, r8, ror #1
     e24:	000000f4 	strdeq	r0, [r0], -r4
     e28:	f4540001 			; <UNDEFINED> instruction: 0xf4540001
     e2c:	08000000 	stmdaeq	r0, {}	; <UNPREDICTABLE>
     e30:	01000001 	tsteq	r0, r1
     e34:	01085800 	tsteq	r8, r0, lsl #16
     e38:	01140000 	tsteq	r4, r0
     e3c:	00010000 	andeq	r0, r1, r0
     e40:	00000054 	andeq	r0, r0, r4, asr r0
	...
     e50:	00007400 	andeq	r7, r0, r0, lsl #8
     e54:	00008300 	andeq	r8, r0, r0, lsl #6
     e58:	50000100 	andpl	r0, r0, r0, lsl #2
     e5c:	00000083 	andeq	r0, r0, r3, lsl #1
     e60:	000000d0 	ldrdeq	r0, [r0], -r0	; <UNPREDICTABLE>
     e64:	e0560001 	subs	r0, r6, r1
     e68:	e8000000 	stmda	r0, {}	; <UNPREDICTABLE>
     e6c:	01000000 	mrseq	r0, (UNDEF: 0)
     e70:	00f45600 	rscseq	r5, r4, r0, lsl #12
     e74:	01080000 	mrseq	r0, (UNDEF: 8)
     e78:	00010000 	andeq	r0, r1, r0
     e7c:	00000056 	andeq	r0, r0, r6, asr r0
	...
     e88:	00008800 	andeq	r8, r0, r0, lsl #16
     e8c:	0000d000 	andeq	sp, r0, r0
     e90:	5b000100 	blpl	1298 <__code_start__-0x6d68>
     e94:	000000e0 	andeq	r0, r0, r0, ror #1
     e98:	00000114 	andeq	r0, r0, r4, lsl r1
     e9c:	005b0001 	subseq	r0, fp, r1
     ea0:	00000000 	andeq	r0, r0, r0
     ea4:	01000000 	mrseq	r0, (UNDEF: 0)
     ea8:	88000000 	stmdahi	r0, {}	; <UNPREDICTABLE>
     eac:	d0000000 	andle	r0, r0, r0
     eb0:	01000000 	mrseq	r0, (UNDEF: 0)
     eb4:	00e05900 	rsceq	r5, r0, r0, lsl #18
     eb8:	01140000 	tsteq	r4, r0
     ebc:	00010000 	andeq	r0, r1, r0
     ec0:	00000059 	andeq	r0, r0, r9, asr r0
     ec4:	00000000 	andeq	r0, r0, r0
     ec8:	60000000 	andvs	r0, r0, r0
     ecc:	73000000 	movwvc	r0, #0
     ed0:	01000000 	mrseq	r0, (UNDEF: 0)
     ed4:	00005000 	andeq	r5, r0, r0
     ed8:	00000000 	andeq	r0, r0, r0
     edc:	00030000 	andeq	r0, r3, r0
     ee0:	00000060 	andeq	r0, r0, r0, rrx
     ee4:	00000073 	andeq	r0, r0, r3, ror r0
     ee8:	00500001 	subseq	r0, r0, r1
     eec:	00000000 	andeq	r0, r0, r0
     ef0:	04000000 	streq	r0, [r0], #-0
     ef4:	00006000 	andeq	r6, r0, r0
     ef8:	00007000 	andeq	r7, r0, r0
     efc:	50000100 	andpl	r0, r0, r0, lsl #2
	...
     f0c:	000003bc 			; <UNDEFINED> instruction: 0x000003bc
     f10:	000003bf 			; <UNDEFINED> instruction: 0x000003bf
     f14:	bf500001 	svclt	0x00500001
     f18:	c0000003 	andgt	r0, r0, r3
     f1c:	04000003 	streq	r0, [r0], #-3
     f20:	5001f300 	andpl	pc, r1, r0, lsl #6
     f24:	0000009f 	muleq	r0, pc, r0	; <UNPREDICTABLE>
	...
     f34:	00001c00 	andeq	r1, r0, r0, lsl #24
     f38:	51000100 	mrspl	r0, (UNDEF: 16)
     f3c:	0000001c 	andeq	r0, r0, ip, lsl r0
     f40:	00000078 	andeq	r0, r0, r8, ror r0
     f44:	01f30004 	mvnseq	r0, r4
     f48:	00009f51 	andeq	r9, r0, r1, asr pc
	...
     f58:	00580000 	subseq	r0, r8, r0
     f5c:	00010000 	andeq	r0, r1, r0
     f60:	00005852 	andeq	r5, r0, r2, asr r8
     f64:	00007800 	andeq	r7, r0, r0, lsl #16
     f68:	f3000400 	vshl.u8	d0, d0, d0
     f6c:	009f5201 	addseq	r5, pc, r1, lsl #4
     f70:	00000000 	andeq	r0, r0, r0
     f74:	02000000 	andeq	r0, r0, #0, 0
     f78:	01010000 	mrseq	r0, (UNDEF: 1)
     f7c:	01010000 	mrseq	r0, (UNDEF: 1)
     f80:	01010000 	mrseq	r0, (UNDEF: 1)
     f84:	00000000 	andeq	r0, r0, r0
     f88:	00003800 	andeq	r3, r0, r0, lsl #16
     f8c:	50000100 	andpl	r0, r0, r0, lsl #2
     f90:	00000054 	andeq	r0, r0, r4, asr r0
     f94:	00000054 	andeq	r0, r0, r4, asr r0
     f98:	54530001 	ldrbpl	r0, [r3], #-1
     f9c:	5c000000 	stcpl	0, cr0, [r0], {-0}
     fa0:	03000000 	movweq	r0, #0
     fa4:	9f017300 	svcls	0x00017300
     fa8:	0000005c 	andeq	r0, r0, ip, asr r0
     fac:	00000064 	andeq	r0, r0, r4, rrx
     fb0:	64520001 	ldrbvs	r0, [r2], #-1
     fb4:	68000000 	stmdavs	r0, {}	; <UNPREDICTABLE>
     fb8:	03000000 	movweq	r0, #0
     fbc:	9f027300 	svcls	0x00027300
     fc0:	00000068 	andeq	r0, r0, r8, rrx
     fc4:	00000074 	andeq	r0, r0, r4, ror r0
     fc8:	74520001 	ldrbvc	r0, [r2], #-1
     fcc:	78000000 	stmdavc	r0, {}	; <UNPREDICTABLE>
     fd0:	03000000 	movweq	r0, #0
     fd4:	9f017200 	svcls	0x00017200
	...
     fe0:	00080000 	andeq	r0, r8, r0
     fe4:	00780000 	rsbseq	r0, r8, r0
     fe8:	00010000 	andeq	r0, r1, r0
     fec:	00000054 	andeq	r0, r0, r4, asr r0
	...
     ff8:	2c000000 	stccs	0, cr0, [r0], {-0}
     ffc:	34000000 	strcc	r0, [r0], #-0
    1000:	01000000 	mrseq	r0, (UNDEF: 0)
    1004:	00345000 	eorseq	r5, r4, r0
    1008:	00480000 	subeq	r0, r8, r0
    100c:	00010000 	andeq	r0, r1, r0
    1010:	00004854 	andeq	r4, r0, r4, asr r8
    1014:	00005800 	andeq	r5, r0, r0, lsl #16
    1018:	50000100 	andpl	r0, r0, r0, lsl #2
	...
    1024:	01000000 	mrseq	r0, (UNDEF: 0)
    1028:	00000001 	andeq	r0, r0, r1
    102c:	00000000 	andeq	r0, r0, r0
    1030:	0000000c 	andeq	r0, r0, ip
    1034:	0c500001 	mrrceq	0, 0, r0, r0, cr1	; <UNPREDICTABLE>
    1038:	20000000 	andcs	r0, r0, r0
    103c:	01000000 	mrseq	r0, (UNDEF: 0)
    1040:	00205400 	eoreq	r5, r0, r0, lsl #8
    1044:	00240000 	eoreq	r0, r4, r0
    1048:	00030000 	andeq	r0, r3, r0
    104c:	249f0174 	ldrcs	r0, [pc], #372	; 1054 <__code_start__-0x6fac>
    1050:	38000000 	stmdacc	r0, {}	; <UNPREDICTABLE>
    1054:	01000000 	mrseq	r0, (UNDEF: 0)
    1058:	00005400 	andeq	r5, r0, r0, lsl #8
	...
    106c:	00000388 	andeq	r0, r0, r8, lsl #7
    1070:	00000394 	muleq	r0, r4, r3
    1074:	94500001 	ldrbls	r0, [r0], #-1
    1078:	d0000003 	andle	r0, r0, r3
    107c:	01000003 	tsteq	r0, r3
    1080:	03d05b00 	bicseq	r5, r0, #0, 22
    1084:	09200000 	stmdbeq	r0!, {}	; <UNPREDICTABLE>
    1088:	00040000 	andeq	r0, r4, r0
    108c:	9f5001f3 	svcls	0x005001f3
    1090:	00000920 	andeq	r0, r0, r0, lsr #18
    1094:	00000928 	andeq	r0, r0, r8, lsr #18
    1098:	285b0001 	ldmdacs	fp, {r0}^
    109c:	b4000009 	strlt	r0, [r0], #-9
    10a0:	04000009 	streq	r0, [r0], #-9
    10a4:	5001f300 	andpl	pc, r1, r0, lsl #6
    10a8:	0000009f 	muleq	r0, pc, r0	; <UNPREDICTABLE>
	...
    10b8:	00038800 	andeq	r8, r3, r0, lsl #16
    10bc:	0003d000 	andeq	sp, r3, r0
    10c0:	51000100 	mrspl	r0, (UNDEF: 16)
    10c4:	000003d0 	ldrdeq	r0, [r0], -r0	; <UNPREDICTABLE>
    10c8:	00000920 	andeq	r0, r0, r0, lsr #18
    10cc:	01f30004 	mvnseq	r0, r4
    10d0:	09209f51 	stmdbeq	r0!, {r0, r4, r6, r8, r9, sl, fp, ip, pc}
    10d4:	09280000 	stmdbeq	r8!, {}	; <UNPREDICTABLE>
    10d8:	00010000 	andeq	r0, r1, r0
    10dc:	00092851 	andeq	r2, r9, r1, asr r8
    10e0:	0009b400 	andeq	fp, r9, r0, lsl #8
    10e4:	f3000400 	vshl.u8	d0, d0, d0
    10e8:	009f5101 	addseq	r5, pc, r1, lsl #2
	...
    10f8:	00010000 	andeq	r0, r1, r0
    10fc:	00000100 	andeq	r0, r0, r0, lsl #2
	...
    1108:	88000000 	stmdahi	r0, {}	; <UNPREDICTABLE>
    110c:	d0000003 	andle	r0, r0, r3
    1110:	01000003 	tsteq	r0, r3
    1114:	03d05200 	bicseq	r5, r0, #0, 4
    1118:	04000000 	streq	r0, [r0], #-0
    111c:	00010000 	andeq	r0, r1, r0
    1120:	00041456 	andeq	r1, r4, r6, asr r4
    1124:	00042400 	andeq	r2, r4, r0, lsl #8
    1128:	56000100 	strpl	r0, [r0], -r0, lsl #2
    112c:	00000424 	andeq	r0, r0, r4, lsr #8
    1130:	00000428 	andeq	r0, r0, r8, lsr #8
    1134:	7f760003 	svcvc	0x00760003
    1138:	0004a89f 	muleq	r4, pc, r8	; <UNPREDICTABLE>
    113c:	0004ac00 	andeq	sl, r4, r0, lsl #24
    1140:	56000100 	strpl	r0, [r0], -r0, lsl #2
    1144:	000004e0 	andeq	r0, r0, r0, ror #9
    1148:	00000504 	andeq	r0, r0, r4, lsl #10
    114c:	7c560001 	mrrcvc	0, 0, r0, r6, cr1
    1150:	88000005 	stmdahi	r0, {r0, r2}
    1154:	01000005 	tsteq	r0, r5
    1158:	05885300 	streq	r5, [r8, #768]	; 0x300
    115c:	05d00000 	ldrbeq	r0, [r0]
    1160:	00030000 	andeq	r0, r3, r0
    1164:	007dcc91 			; <UNDEFINED> instruction: 0x007dcc91
    1168:	0f000008 	svceq	0x00000008
    116c:	01000008 	tsteq	r0, r8
    1170:	080f5300 	stmdaeq	pc, {r8, r9, ip, lr}	; <UNPREDICTABLE>
    1174:	08880000 	stmeq	r8, {}	; <UNPREDICTABLE>
    1178:	00030000 	andeq	r0, r3, r0
    117c:	207dcc91 			; <UNDEFINED> instruction: 0x207dcc91
    1180:	28000009 	stmdacs	r0, {r0, r3}
    1184:	01000009 	tsteq	r0, r9
    1188:	09485200 	stmdbeq	r8, {r9, ip, lr}^
    118c:	09640000 	stmdbeq	r4!, {}^	; <UNPREDICTABLE>
    1190:	00030000 	andeq	r0, r3, r0
    1194:	007dcc91 			; <UNDEFINED> instruction: 0x007dcc91
	...
    11a8:	00000101 	andeq	r0, r0, r1, lsl #2
    11ac:	00000101 	andeq	r0, r0, r1, lsl #2
    11b0:	02020000 	andeq	r0, r2, #0, 0
    11b4:	02020000 	andeq	r0, r2, #0, 0
    11b8:	01010000 	mrseq	r0, (UNDEF: 1)
    11bc:	02020000 	andeq	r0, r2, #0, 0
    11c0:	01010000 	mrseq	r0, (UNDEF: 1)
	...
    11cc:	00038800 	andeq	r8, r3, r0, lsl #16
    11d0:	0003ac00 	andeq	sl, r3, r0, lsl #24
    11d4:	53000100 	movwpl	r0, #256	; 0x100
    11d8:	000003ac 	andeq	r0, r0, ip, lsr #7
    11dc:	000003c0 	andeq	r0, r0, r0, asr #7
    11e0:	93530003 	cmpls	r3, #3, 0
    11e4:	0003d004 	andeq	sp, r3, r4
    11e8:	0003e800 	andeq	lr, r3, r0, lsl #16
    11ec:	58000300 	stmdapl	r0, {r8, r9}
    11f0:	03e80493 	mvneq	r0, #-1828716544	; 0x93000000
    11f4:	04ac0000 	strteq	r0, [ip], #0
    11f8:	00030000 	andeq	r0, r3, r0
    11fc:	c0049358 	andgt	r9, r4, r8, asr r3
    1200:	c0000004 	andgt	r0, r0, r4
    1204:	03000004 	movweq	r0, #4
    1208:	04935800 	ldreq	r5, [r3], #2048	; 0x800
    120c:	000004c0 	andeq	r0, r0, r0, asr #9
    1210:	000004cc 	andeq	r0, r0, ip, asr #9
    1214:	04780005 	ldrbteq	r0, [r8], #-5
    1218:	cc04939f 	stcgt	3, cr9, [r4], {159}	; 0x9f
    121c:	e0000004 	and	r0, r0, r4
    1220:	03000004 	movweq	r0, #4
    1224:	04935800 	ldreq	r5, [r3], #2048	; 0x800
    1228:	000004e0 	andeq	r0, r0, r0, ror #9
    122c:	00000538 	andeq	r0, r0, r8, lsr r5
    1230:	93580003 	cmpls	r8, #3, 0
    1234:	00053804 	andeq	r3, r5, r4, lsl #16
    1238:	00053c00 	andeq	r3, r5, r0, lsl #24
    123c:	78000500 	stmdavc	r0, {r8, sl}
    1240:	04939f79 	ldreq	r9, [r3], #3961	; 0xf79
    1244:	000005d0 	ldrdeq	r0, [r0], -r0	; <UNPREDICTABLE>
    1248:	000005d0 	ldrdeq	r0, [r0], -r0	; <UNPREDICTABLE>
    124c:	93580003 	cmpls	r8, #3, 0
    1250:	0005d004 	andeq	sp, r5, r4
    1254:	0005d400 	andeq	sp, r5, r0, lsl #8
    1258:	78000500 	stmdavc	r0, {r8, sl}
    125c:	04939f04 	ldreq	r9, [r3], #3844	; 0xf04
    1260:	000005f4 	strdeq	r0, [r0], -r4
    1264:	000005f4 	strdeq	r0, [r0], -r4
    1268:	93580003 	cmpls	r8, #3, 0
    126c:	0005f404 	andeq	pc, r5, r4, lsl #8
    1270:	0005fc00 	andeq	pc, r5, r0, lsl #24
    1274:	78000500 	stmdavc	r0, {r8, sl}
    1278:	04939f04 	ldreq	r9, [r3], #3844	; 0xf04
    127c:	000005fc 	strdeq	r0, [r0], -ip
    1280:	000005fc 	strdeq	r0, [r0], -ip
    1284:	93580003 	cmpls	r8, #3, 0
    1288:	0005fc04 	andeq	pc, r5, r4, lsl #24
    128c:	00060000 	andeq	r0, r6, r0
    1290:	78000500 	stmdavc	r0, {r8, sl}
    1294:	04939f04 	ldreq	r9, [r3], #3844	; 0xf04
    1298:	00000600 	andeq	r0, r0, r0, lsl #12
    129c:	00000700 	andeq	r0, r0, r0, lsl #14
    12a0:	93580003 	cmpls	r8, #3, 0
    12a4:	00070004 	andeq	r0, r7, r4
    12a8:	00070c00 	andeq	r0, r7, r0, lsl #24
    12ac:	78000500 	stmdavc	r0, {r8, sl}
    12b0:	04939f04 	ldreq	r9, [r3], #3844	; 0xf04
    12b4:	0000070c 	andeq	r0, r0, ip, lsl #14
    12b8:	000007f8 	strdeq	r0, [r0], -r8
    12bc:	93580003 	cmpls	r8, #3, 0
    12c0:	0007f804 	andeq	pc, r7, r4, lsl #16
    12c4:	0007fc00 	andeq	pc, r7, r0, lsl #24
    12c8:	78000500 	stmdavc	r0, {r8, sl}
    12cc:	04939f04 	ldreq	r9, [r3], #3844	; 0xf04
    12d0:	000007fc 	strdeq	r0, [r0], -ip
    12d4:	00000800 	andeq	r0, r0, r0, lsl #16
    12d8:	93580003 	cmpls	r8, #3, 0
    12dc:	00088804 	andeq	r8, r8, r4, lsl #16
    12e0:	00092000 	andeq	r2, r9, r0
    12e4:	58000300 	stmdapl	r0, {r8, r9}
    12e8:	09200493 	stmdbeq	r0!, {r0, r1, r4, r7, sl}
    12ec:	09280000 	stmdbeq	r8!, {}	; <UNPREDICTABLE>
    12f0:	00010000 	andeq	r0, r1, r0
    12f4:	00096453 	andeq	r6, r9, r3, asr r4
    12f8:	0009b400 	andeq	fp, r9, r0, lsl #8
    12fc:	58000300 	stmdapl	r0, {r8, r9}
    1300:	00000493 	muleq	r0, r3, r4
    1304:	00000000 	andeq	r0, r0, r0
    1308:	00010000 	andeq	r0, r1, r0
    130c:	00000000 	andeq	r0, r0, r0
    1310:	02000000 	andeq	r0, r0, #0, 0
    1314:	00000002 	andeq	r0, r0, r2
    1318:	00010101 	andeq	r0, r1, r1, lsl #2
    131c:	00000000 	andeq	r0, r0, r0
    1320:	000003ac 	andeq	r0, r0, ip, lsr #7
    1324:	000003d0 	ldrdeq	r0, [r0], -r0	; <UNPREDICTABLE>
    1328:	d05b0001 	subsle	r0, fp, r1
    132c:	d4000003 	strle	r0, [r0], #-3
    1330:	01000003 	tsteq	r0, r3
    1334:	03d45400 	bicseq	r5, r4, #0, 8
    1338:	03d80000 	bicseq	r0, r8, #0, 0
    133c:	00030000 	andeq	r0, r3, r0
    1340:	d89f7f74 	ldmle	pc, {r2, r4, r5, r6, r8, r9, sl, fp, ip, sp, lr}	; <UNPREDICTABLE>
    1344:	fc000003 	stc2	0, cr0, [r0], {3}
    1348:	01000003 	tsteq	r0, r3
    134c:	04a85400 	strteq	r5, [r8], #1024	; 0x400
    1350:	04ac0000 	strteq	r0, [ip], #0
    1354:	00010000 	andeq	r0, r1, r0
    1358:	0004ac54 	andeq	sl, r4, r4, asr ip
    135c:	0004b400 	andeq	fp, r4, r0, lsl #8
    1360:	74000300 	strvc	r0, [r0], #-768	; 0xfffffd00
    1364:	04b49f01 	ldrteq	r9, [r4], #3841	; 0xf01
    1368:	04c00000 	strbeq	r0, [r0], #0
    136c:	00010000 	andeq	r0, r1, r0
    1370:	0004e454 	andeq	lr, r4, r4, asr r4
    1374:	0004f400 	andeq	pc, r4, r0, lsl #8
    1378:	54000100 	strpl	r0, [r0], #-256	; 0xffffff00
    137c:	000004f4 	strdeq	r0, [r0], -r4
    1380:	000004f8 	strdeq	r0, [r0], -r8
    1384:	01740003 	cmneq	r4, r3
    1388:	0004f89f 	muleq	r4, pc, r8	; <UNPREDICTABLE>
    138c:	00050400 	andeq	r0, r5, r0, lsl #8
    1390:	54000100 	strpl	r0, [r0], #-256	; 0xffffff00
    1394:	00000920 	andeq	r0, r0, r0, lsr #18
    1398:	00000928 	andeq	r0, r0, r8, lsr #18
    139c:	005b0001 	subseq	r0, fp, r1
    13a0:	00000000 	andeq	r0, r0, r0
    13a4:	01000000 	mrseq	r0, (UNDEF: 0)
    13a8:	0003ac00 	andeq	sl, r3, r0, lsl #24
    13ac:	0009b400 	andeq	fp, r9, r0, lsl #8
    13b0:	57000100 	strpl	r0, [r0, -r0, lsl #2]
	...
    13bc:	00000002 	andeq	r0, r0, r2
    13c0:	057c0000 	ldrbeq	r0, [ip, #-0]!
    13c4:	05d00000 	ldrbeq	r0, [r0]
    13c8:	00010000 	andeq	r0, r1, r0
    13cc:	0008005b 	andeq	r0, r8, fp, asr r0
    13d0:	00088800 	andeq	r8, r8, r0, lsl #16
    13d4:	5b000100 	blpl	17dc <__code_start__-0x6824>
    13d8:	00000948 	andeq	r0, r0, r8, asr #18
    13dc:	00000964 	andeq	r0, r0, r4, ror #18
    13e0:	005b0001 	subseq	r0, fp, r1
    13e4:	00000000 	andeq	r0, r0, r0
    13e8:	03000000 	movweq	r0, #0
    13ec:	00000000 	andeq	r0, r0, r0
    13f0:	00057c00 	andeq	r7, r5, r0, lsl #24
    13f4:	0005d000 	andeq	sp, r5, r0
    13f8:	59000100 	stmdbpl	r0, {r8}
    13fc:	00000800 	andeq	r0, r0, r0, lsl #16
    1400:	00000888 	andeq	r0, r0, r8, lsl #17
    1404:	48590001 	ldmdami	r9, {r0}^
    1408:	64000009 	strvs	r0, [r0], #-9
    140c:	01000009 	tsteq	r0, r9
    1410:	00005900 	andeq	r5, r0, r0, lsl #18
    1414:	00000000 	andeq	r0, r0, r0
    1418:	00040000 	andeq	r0, r4, r0
    141c:	00000000 	andeq	r0, r0, r0
    1420:	03ac0000 			; <UNDEFINED> instruction: 0x03ac0000
    1424:	03d00000 	bicseq	r0, r0, #0, 0
    1428:	00010000 	andeq	r0, r1, r0
    142c:	0003d052 	andeq	sp, r3, r2, asr r0
    1430:	00092000 	andeq	r2, r9, r0
    1434:	f3000400 	vshl.u8	d0, d0, d0
    1438:	209f5201 	addscs	r5, pc, r1, lsl #4
    143c:	28000009 	stmdacs	r0, {r0, r3}
    1440:	01000009 	tsteq	r0, r9
    1444:	09285200 	stmdbeq	r8!, {r9, ip, lr}
    1448:	09b40000 	ldmibeq	r4!, {}	; <UNPREDICTABLE>
    144c:	00040000 	andeq	r0, r4, r0
    1450:	9f5201f3 	svcls	0x005201f3
	...
    145c:	00010100 	andeq	r0, r1, r0, lsl #2
    1460:	00000000 	andeq	r0, r0, r0
    1464:	00000001 	andeq	r0, r0, r1
    1468:	000004e0 	andeq	r0, r0, r0, ror #9
    146c:	000004e0 	andeq	r0, r0, r0, ror #9
    1470:	e0500001 	subs	r0, r0, r1
    1474:	e8000004 	stmda	r0, {r2}
    1478:	01000004 	tsteq	r0, r4
    147c:	05b85500 	ldreq	r5, [r8, #1280]!	; 0x500
    1480:	05d00000 	ldrbeq	r0, [r0]
    1484:	00010000 	andeq	r0, r1, r0
    1488:	0005f055 	andeq	pc, r5, r5, asr r0	; <UNPREDICTABLE>
    148c:	0005f400 	andeq	pc, r5, r0, lsl #8
    1490:	50000100 	andpl	r0, r0, r0, lsl #2
    1494:	000007f4 	strdeq	r0, [r0], -r4
    1498:	000007f8 	strdeq	r0, [r0], -r8
    149c:	50550001 	subspl	r0, r5, r1
    14a0:	88000008 	stmdahi	r0, {r3}
    14a4:	01000008 	tsteq	r0, r8
    14a8:	00005500 	andeq	r5, r0, r0, lsl #10
    14ac:	00000000 	andeq	r0, r0, r0
    14b0:	00020000 	andeq	r0, r2, r0
    14b4:	00000000 	andeq	r0, r0, r0
    14b8:	04140000 	ldreq	r0, [r4], #-0
    14bc:	04180000 	ldreq	r0, [r8], #-0
    14c0:	00020000 	andeq	r0, r2, r0
    14c4:	04189f30 	ldreq	r9, [r8], #-3888	; 0xfffff0d0
    14c8:	041c0000 	ldreq	r0, [ip], #-0
    14cc:	00010000 	andeq	r0, r1, r0
    14d0:	00042855 	andeq	r2, r4, r5, asr r8
    14d4:	00043c00 	andeq	r3, r4, r0, lsl #24
    14d8:	55000100 	strpl	r0, [r0, #-256]	; 0xffffff00
    14dc:	00000928 	andeq	r0, r0, r8, lsr #18
    14e0:	00000930 	andeq	r0, r0, r0, lsr r9
    14e4:	00550001 	subseq	r0, r5, r1
    14e8:	00000000 	andeq	r0, r0, r0
    14ec:	01000000 	mrseq	r0, (UNDEF: 0)
	...
    14f8:	04000000 	streq	r0, [r0], #-0
    14fc:	84000005 	strhi	r0, [r0], #-5
    1500:	01000005 	tsteq	r0, r5
    1504:	05845600 	streq	r5, [r4, #1536]	; 0x600
    1508:	05880000 	streq	r0, [r8]
    150c:	00030000 	andeq	r0, r3, r0
    1510:	889f7e73 	ldmhi	pc, {r0, r1, r4, r5, r6, r9, sl, fp, ip, sp, lr}	; <UNPREDICTABLE>
    1514:	d0000005 	andle	r0, r0, r5
    1518:	07000005 	streq	r0, [r0, -r5]
    151c:	7dcc9100 	stfvcp	f1, [ip]
    1520:	9f1c3206 	svcls	0x001c3206
    1524:	00000800 	andeq	r0, r0, r0, lsl #16
    1528:	0000081c 	andeq	r0, r0, ip, lsl r8
    152c:	1c560001 	mrrcne	0, 0, r0, r6, cr1
    1530:	88000008 	stmdahi	r0, {r3}
    1534:	07000008 	streq	r0, [r0, -r8]
    1538:	7dcc9100 	stfvcp	f1, [ip]
    153c:	9f1c3206 	svcls	0x001c3206
    1540:	00000948 	andeq	r0, r0, r8, asr #18
    1544:	000009b4 			; <UNDEFINED> instruction: 0x000009b4
    1548:	00560001 	subseq	r0, r6, r1
    154c:	00000000 	andeq	r0, r0, r0
    1550:	04000000 	streq	r0, [r0], #-0
    1554:	14040206 	strne	r0, [r4], #-518	; 0xfffffdfa
    1558:	14000004 	strne	r0, [r0], #-4
    155c:	06000004 	streq	r0, [r0], -r4
    1560:	08007200 	stmdaeq	r0, {r9, ip, sp, lr}
    1564:	289f1aff 	ldmcs	pc, {r0, r1, r2, r3, r4, r5, r6, r7, r9, fp, ip}	; <UNPREDICTABLE>
    1568:	28000004 	stmdacs	r0, {r2}
    156c:	06000004 	streq	r0, [r0], -r4
    1570:	08007200 	stmdaeq	r0, {r9, ip, sp, lr}
    1574:	009f1aff 			; <UNDEFINED> instruction: 0x009f1aff
    1578:	00000000 	andeq	r0, r0, r0
    157c:	02000000 	andeq	r0, r0, #0, 0
    1580:	00000000 	andeq	r0, r0, r0
    1584:	0005fc00 	andeq	pc, r5, r0, lsl #24
    1588:	00070000 	andeq	r0, r7, r0
    158c:	08000300 	stmdaeq	r0, {r8, r9}
    1590:	08a89f80 	stmiaeq	r8!, {r7, r8, r9, sl, fp, ip, pc}
    1594:	08bc0000 	ldmeq	ip!, {}	; <UNPREDICTABLE>
    1598:	00030000 	andeq	r0, r3, r0
    159c:	109f8008 	addsne	r8, pc, r8
    15a0:	20000009 	andcs	r0, r0, r9
    15a4:	03000009 	movweq	r0, #9
    15a8:	9f800800 	svcls	0x00800800
	...
    15b4:	00000001 	andeq	r0, r0, r1
    15b8:	05fc0000 	ldrbeq	r0, [ip, #0]!
    15bc:	07000000 	streq	r0, [r0, -r0]
    15c0:	00020000 	andeq	r0, r2, r0
    15c4:	08a89f30 	stmiaeq	r8!, {r4, r5, r8, r9, sl, fp, ip, pc}
    15c8:	08bc0000 	ldmeq	ip!, {}	; <UNPREDICTABLE>
    15cc:	00020000 	andeq	r0, r2, r0
    15d0:	09109f30 	ldmdbeq	r0, {r4, r5, r8, r9, sl, fp, ip, pc}
    15d4:	09200000 	stmdbeq	r0!, {}	; <UNPREDICTABLE>
    15d8:	00020000 	andeq	r0, r2, r0
    15dc:	00009f30 	andeq	r9, r0, r0, lsr pc
    15e0:	00000000 	andeq	r0, r0, r0
    15e4:	00010000 	andeq	r0, r1, r0
    15e8:	00000000 	andeq	r0, r0, r0
    15ec:	000005fc 	strdeq	r0, [r0], -ip
    15f0:	000006e0 	andeq	r0, r0, r0, ror #13
    15f4:	a8550001 	ldmdage	r5, {r0}^
    15f8:	bc000008 	stclt	0, cr0, [r0], {8}
    15fc:	01000008 	tsteq	r0, r8
    1600:	09105500 	ldmdbeq	r0, {r8, sl, ip, lr}
    1604:	09200000 	stmdbeq	r0!, {}	; <UNPREDICTABLE>
    1608:	00010000 	andeq	r0, r1, r0
    160c:	00000055 	andeq	r0, r0, r5, asr r0
    1610:	00000000 	andeq	r0, r0, r0
    1614:	00000100 	andeq	r0, r0, r0, lsl #2
    1618:	00000000 	andeq	r0, r0, r0
    161c:	0005fc00 	andeq	pc, r5, r0, lsl #24
    1620:	0006e000 	andeq	lr, r6, r0
    1624:	91000400 	tstls	r0, r0, lsl #8
    1628:	e09f7dd0 			; <UNDEFINED> instruction: 0xe09f7dd0
    162c:	00000006 	andeq	r0, r0, r6
    1630:	01000007 	tsteq	r0, r7
    1634:	08a85500 	stmiaeq	r8!, {r8, sl, ip, lr}
    1638:	08bc0000 	ldmeq	ip!, {}	; <UNPREDICTABLE>
    163c:	00040000 	andeq	r0, r4, r0
    1640:	9f7dd091 	svcls	0x007dd091
    1644:	00000910 	andeq	r0, r0, r0, lsl r9
    1648:	00000920 	andeq	r0, r0, r0, lsr #18
    164c:	d0910004 	addsle	r0, r1, r4
    1650:	00009f7d 	andeq	r9, r0, sp, ror pc
    1654:	00000000 	andeq	r0, r0, r0
    1658:	00010000 	andeq	r0, r1, r0
    165c:	00000000 	andeq	r0, r0, r0
    1660:	000005fc 	strdeq	r0, [r0], -ip
    1664:	00000700 	andeq	r0, r0, r0, lsl #14
    1668:	9f380002 	svcls	0x00380002
    166c:	000008a8 	andeq	r0, r0, r8, lsr #17
    1670:	000008bc 			; <UNDEFINED> instruction: 0x000008bc
    1674:	9f380002 	svcls	0x00380002
    1678:	00000910 	andeq	r0, r0, r0, lsl r9
    167c:	00000920 	andeq	r0, r0, r0, lsr #18
    1680:	9f380002 	svcls	0x00380002
	...
    168c:	00070704 	andeq	r0, r7, r4, lsl #14
	...
    1698:	05fc0000 	ldrbeq	r0, [ip, #0]!
    169c:	05fc0000 	ldrbeq	r0, [ip, #0]!
    16a0:	00040000 	andeq	r0, r4, r0
    16a4:	9f7ed091 	svcls	0x007ed091
    16a8:	000005fc 	strdeq	r0, [r0], -ip
    16ac:	00000678 	andeq	r0, r0, r8, ror r6
    16b0:	d1910004 	orrsle	r0, r1, r4
    16b4:	06789f7e 	uhsub16eq	r9, r8, lr
    16b8:	06d40000 	ldrbeq	r0, [r4], r0
    16bc:	00010000 	andeq	r0, r1, r0
    16c0:	0006d45c 	andeq	sp, r6, ip, asr r4
    16c4:	00070000 	andeq	r0, r7, r0
    16c8:	91000400 	tstls	r0, r0, lsl #8
    16cc:	a89f7ed1 	ldmge	pc, {r0, r4, r6, r7, r9, sl, fp, ip, sp, lr}	; <UNPREDICTABLE>
    16d0:	bc000008 	stclt	0, cr0, [r0], {8}
    16d4:	04000008 	streq	r0, [r0], #-8
    16d8:	7ed19100 	atnvcs	f1, f0
    16dc:	0009109f 	muleq	r9, pc, r0	; <UNPREDICTABLE>
    16e0:	00091400 	andeq	r1, r9, r0, lsl #8
    16e4:	91000400 	tstls	r0, r0, lsl #8
    16e8:	149f7ed1 	ldrne	r7, [pc], #3793	; 16f0 <__code_start__-0x6910>
    16ec:	20000009 	andcs	r0, r0, r9
    16f0:	01000009 	tsteq	r0, r9
    16f4:	00005c00 	andeq	r5, r0, r0, lsl #24
    16f8:	00000000 	andeq	r0, r0, r0
    16fc:	01040000 	mrseq	r0, (UNDEF: 4)
    1700:	00000100 	andeq	r0, r0, r0, lsl #2
    1704:	00000608 	andeq	r0, r0, r8, lsl #12
    1708:	000006d0 	ldrdeq	r0, [r0], -r0	; <UNPREDICTABLE>
    170c:	a8550001 	ldmdage	r5, {r0}^
    1710:	b8000008 	stmdalt	r0, {r3}
    1714:	01000008 	tsteq	r0, r8
    1718:	09105500 	ldmdbeq	r0, {r8, sl, ip, lr}
    171c:	09200000 	stmdbeq	r0!, {}	; <UNPREDICTABLE>
    1720:	00010000 	andeq	r0, r1, r0
    1724:	00000055 	andeq	r0, r0, r5, asr r0
    1728:	00000000 	andeq	r0, r0, r0
    172c:	00000400 	andeq	r0, r0, r0, lsl #8
    1730:	00010000 	andeq	r0, r1, r0
    1734:	00010000 	andeq	r0, r1, r0
    1738:	00060800 	andeq	r0, r6, r0, lsl #16
    173c:	0006b000 	andeq	fp, r6, r0
    1740:	91000400 	tstls	r0, r0, lsl #8
    1744:	b09f7ed0 			; <UNDEFINED> instruction: 0xb09f7ed0
    1748:	c8000006 	stmdagt	r0, {r1, r2}
    174c:	01000006 	tsteq	r0, r6
    1750:	06c85000 	strbeq	r5, [r8], r0
    1754:	06d00000 	ldrbeq	r0, [r0], r0
    1758:	00040000 	andeq	r0, r4, r0
    175c:	9f7ed091 	svcls	0x007ed091
    1760:	000008a8 	andeq	r0, r0, r8, lsr #17
    1764:	000008b0 			; <UNDEFINED> instruction: 0x000008b0
    1768:	d0910004 	addsle	r0, r1, r4
    176c:	08b09f7e 	ldmeq	r0!, {r1, r2, r3, r4, r5, r6, r8, r9, sl, fp, ip, pc}
    1770:	08b80000 	ldmeq	r8!, {}	; <UNPREDICTABLE>
    1774:	00010000 	andeq	r0, r1, r0
    1778:	00091053 	andeq	r1, r9, r3, asr r0
    177c:	00092000 	andeq	r2, r9, r0
    1780:	91000400 	tstls	r0, r0, lsl #8
    1784:	009f7ed0 			; <UNDEFINED> instruction: 0x009f7ed0
    1788:	00000000 	andeq	r0, r0, r0
    178c:	04000000 	streq	r0, [r0], #-0
    1790:	01010000 	mrseq	r0, (UNDEF: 1)
    1794:	03030101 	movweq	r0, #12545	; 0x3101
    1798:	00010002 	andeq	r0, r1, r2
    179c:	08000000 	stmdaeq	r0, {}	; <UNPREDICTABLE>
    17a0:	24000006 	strcs	r0, [r0], #-6
    17a4:	04000006 	streq	r0, [r0], #-6
    17a8:	7ed19100 	atnvcs	f1, f0
    17ac:	0006849f 	muleq	r6, pc, r4	; <UNPREDICTABLE>
    17b0:	00068400 	andeq	r8, r6, r0, lsl #8
    17b4:	50000100 	andpl	r0, r0, r0, lsl #2
    17b8:	00000684 	andeq	r0, r0, r4, lsl #13
    17bc:	00000698 	muleq	r0, r8, r6
    17c0:	01700003 	cmneq	r0, r3
    17c4:	0006989f 	muleq	r6, pc, r8	; <UNPREDICTABLE>
    17c8:	0006a400 	andeq	sl, r6, r0, lsl #8
    17cc:	70000300 	andvc	r0, r0, r0, lsl #6
    17d0:	06a49f02 	strteq	r9, [r4], r2, lsl #30
    17d4:	06a80000 	strteq	r0, [r8], r0
    17d8:	00030000 	andeq	r0, r3, r0
    17dc:	a89f0370 	ldmge	pc, {r4, r5, r6, r8, r9}	; <UNPREDICTABLE>
    17e0:	b8000008 	stmdalt	r0, {r3}
    17e4:	04000008 	streq	r0, [r0], #-8
    17e8:	7ed19100 	atnvcs	f1, f0
    17ec:	0009109f 	muleq	r9, pc, r0	; <UNPREDICTABLE>
    17f0:	00091400 	andeq	r1, r9, r0, lsl #8
    17f4:	91000400 	tstls	r0, r0, lsl #8
    17f8:	149f7ed1 	ldrne	r7, [pc], #3793	; 1800 <__code_start__-0x6800>
    17fc:	20000009 	andcs	r0, r0, r9
    1800:	01000009 	tsteq	r0, r9
    1804:	00005c00 	andeq	r5, r0, r0, lsl #24
    1808:	00000000 	andeq	r0, r0, r0
    180c:	00060000 	andeq	r0, r6, r0
    1810:	01010100 	mrseq	r0, (UNDEF: 17)
    1814:	02010101 	andeq	r0, r1, #1073741824	; 0x40000000
    1818:	00000100 	andeq	r0, r0, r0, lsl #2
    181c:	00000608 	andeq	r0, r0, r8, lsl #12
    1820:	00000624 	andeq	r0, r0, r4, lsr #12
    1824:	9f310002 	svcls	0x00310002
    1828:	00000684 	andeq	r0, r0, r4, lsl #13
    182c:	00000694 	muleq	r0, r4, r6
    1830:	94520001 	ldrbls	r0, [r2], #-1
    1834:	a4000006 	strge	r0, [r0], #-6
    1838:	01000006 	tsteq	r0, r6
    183c:	06a45900 	strteq	r5, [r4], r0, lsl #18
    1840:	06a80000 	strteq	r0, [r8], r0
    1844:	00010000 	andeq	r0, r1, r0
    1848:	0006a852 	andeq	sl, r6, r2, asr r8
    184c:	0006a800 	andeq	sl, r6, r0, lsl #16
    1850:	72000300 	andvc	r0, r0, #0, 6
    1854:	08a89f01 	stmiaeq	r8!, {r0, r8, r9, sl, fp, ip, pc}
    1858:	08b80000 	ldmeq	r8!, {}	; <UNPREDICTABLE>
    185c:	00020000 	andeq	r0, r2, r0
    1860:	09109f31 	ldmdbeq	r0, {r0, r4, r5, r8, r9, sl, fp, ip, pc}
    1864:	09200000 	stmdbeq	r0!, {}	; <UNPREDICTABLE>
    1868:	00020000 	andeq	r0, r2, r0
    186c:	00009f31 	andeq	r9, r0, r1, lsr pc
    1870:	00000000 	andeq	r0, r0, r0
    1874:	06010000 	streq	r0, [r1], -r0
    1878:	00010006 	andeq	r0, r1, r6
    187c:	000006d0 	ldrdeq	r0, [r0], -r0	; <UNPREDICTABLE>
    1880:	000006d0 	ldrdeq	r0, [r0], -r0	; <UNPREDICTABLE>
    1884:	d0910004 	addsle	r0, r1, r4
    1888:	06d09f7e 			; <UNDEFINED> instruction: 0x06d09f7e
    188c:	07000000 	streq	r0, [r0, -r0]
    1890:	00010000 	andeq	r0, r1, r0
    1894:	0008b850 	andeq	fp, r8, r0, asr r8
    1898:	0008bc00 	andeq	fp, r8, r0, lsl #24
    189c:	53000100 	movwpl	r0, #256	; 0x100
	...
    18a8:	00000801 	andeq	r0, r0, r1, lsl #16
    18ac:	00010100 	andeq	r0, r1, r0, lsl #2
    18b0:	06d00701 	ldrbeq	r0, [r0], r1, lsl #14
    18b4:	06d00000 	ldrbeq	r0, [r0], r0
    18b8:	00060000 	andeq	r0, r6, r0
    18bc:	0071007c 	rsbseq	r0, r1, ip, ror r0
    18c0:	06e49f22 	strbteq	r9, [r4], r2, lsr #30
    18c4:	06e80000 	strbteq	r0, [r8], r0
    18c8:	00030000 	andeq	r0, r3, r0
    18cc:	e89f7f73 	ldm	pc, {r0, r1, r4, r5, r6, r8, r9, sl, fp, ip, sp, lr}	; <UNPREDICTABLE>
    18d0:	f0000006 			; <UNDEFINED> instruction: 0xf0000006
    18d4:	01000006 	tsteq	r0, r6
    18d8:	06f05300 	ldrbteq	r5, [r0], r0, lsl #6
    18dc:	06f80000 	ldrbteq	r0, [r8], r0
    18e0:	00030000 	andeq	r0, r3, r0
    18e4:	b89f7f73 	ldmlt	pc, {r0, r1, r4, r5, r6, r8, r9, sl, fp, ip, sp, lr}	; <UNPREDICTABLE>
    18e8:	b8000008 	stmdalt	r0, {r3}
    18ec:	04000008 	streq	r0, [r0], #-8
    18f0:	7ed19100 	atnvcs	f1, f0
    18f4:	0000009f 	muleq	r0, pc, r0	; <UNPREDICTABLE>
    18f8:	00000000 	andeq	r0, r0, r0
    18fc:	01000100 	mrseq	r0, (UNDEF: 16)
    1900:	0006d000 	andeq	sp, r6, r0
    1904:	00070000 	andeq	r0, r7, r0
    1908:	08000300 	stmdaeq	r0, {r8, r9}
    190c:	08b89f80 	ldmeq	r8!, {r7, r8, r9, sl, fp, ip, pc}
    1910:	08bc0000 	ldmeq	ip!, {}	; <UNPREDICTABLE>
    1914:	00030000 	andeq	r0, r3, r0
    1918:	009f8008 	addseq	r8, pc, r8
    191c:	00000000 	andeq	r0, r0, r0
    1920:	01000000 	mrseq	r0, (UNDEF: 0)
    1924:	00000000 	andeq	r0, r0, r0
    1928:	00000101 	andeq	r0, r0, r1, lsl #2
    192c:	01010200 	mrseq	r0, R9_usr
    1930:	0006d000 	andeq	sp, r6, r0
    1934:	0006e000 	andeq	lr, r6, r0
    1938:	91000400 	tstls	r0, r0, lsl #8
    193c:	e09f7dd0 			; <UNDEFINED> instruction: 0xe09f7dd0
    1940:	e4000006 	str	r0, [r0], #-6
    1944:	01000006 	tsteq	r0, r6
    1948:	06e45500 	strbteq	r5, [r4], r0, lsl #10
    194c:	06e40000 	strbteq	r0, [r4], r0
    1950:	00030000 	andeq	r0, r3, r0
    1954:	e49f0172 	ldr	r0, [pc], #370	; 195c <__code_start__-0x66a4>
    1958:	f0000006 			; <UNDEFINED> instruction: 0xf0000006
    195c:	03000006 	movweq	r0, #6
    1960:	9f027200 	svcls	0x00027200
    1964:	000006f0 	strdeq	r0, [r0], -r0	; <UNPREDICTABLE>
    1968:	00000700 	andeq	r0, r0, r0, lsl #14
    196c:	01720003 	cmneq	r2, r3
    1970:	0007ec9f 	muleq	r7, pc, ip	; <UNPREDICTABLE>
    1974:	0007f400 	andeq	pc, r7, r0, lsl #8
    1978:	73000300 	movwvc	r0, #768	; 0x300
    197c:	08b89f01 	ldmeq	r8!, {r0, r8, r9, sl, fp, ip, pc}
    1980:	08bc0000 	ldmeq	ip!, {}	; <UNPREDICTABLE>
    1984:	00040000 	andeq	r0, r4, r0
    1988:	9f7dd091 	svcls	0x007dd091
	...
    1994:	08b80004 	ldmeq	r8!, {r2}
    1998:	08bc0000 	ldmeq	ip!, {}	; <UNPREDICTABLE>
    199c:	00020000 	andeq	r0, r2, r0
    19a0:	00009f32 	andeq	r9, r0, r2, lsr pc
    19a4:	00000000 	andeq	r0, r0, r0
    19a8:	00070000 	andeq	r0, r7, r0
    19ac:	00060000 	andeq	r0, r6, r0
    19b0:	000006d0 	ldrdeq	r0, [r0], -r0	; <UNPREDICTABLE>
    19b4:	000006e0 	andeq	r0, r0, r0, ror #13
    19b8:	d0910004 	addsle	r0, r1, r4
    19bc:	06e09f7d 			; <UNDEFINED> instruction: 0x06e09f7d
    19c0:	07000000 	streq	r0, [r0, -r0]
    19c4:	00010000 	andeq	r0, r1, r0
    19c8:	0008b855 	andeq	fp, r8, r5, asr r8
    19cc:	0008bc00 	andeq	fp, r8, r0, lsl #24
    19d0:	91000400 	tstls	r0, r0, lsl #8
    19d4:	009f7dd0 			; <UNDEFINED> instruction: 0x009f7dd0
    19d8:	00000000 	andeq	r0, r0, r0
    19dc:	01000000 	mrseq	r0, (UNDEF: 0)
    19e0:	0c000000 	stceq	0, cr0, [r0], {-0}
    19e4:	ec000007 	stc	0, cr0, [r0], {7}
    19e8:	03000007 	movweq	r0, #7
    19ec:	9f800800 	svcls	0x00800800
    19f0:	00000894 	muleq	r0, r4, r8
    19f4:	000008a8 	andeq	r0, r0, r8, lsr #17
    19f8:	80080003 	andhi	r0, r8, r3
    19fc:	0000009f 	muleq	r0, pc, r0	; <UNPREDICTABLE>
	...
    1a08:	00070c00 	andeq	r0, r7, r0, lsl #24
    1a0c:	0007ec00 	andeq	lr, r7, r0, lsl #24
    1a10:	30000200 	andcc	r0, r0, r0, lsl #4
    1a14:	0008949f 	muleq	r8, pc, r4	; <UNPREDICTABLE>
    1a18:	0008a800 	andeq	sl, r8, r0, lsl #16
    1a1c:	30000200 	andcc	r0, r0, r0, lsl #4
    1a20:	0000009f 	muleq	r0, pc, r0	; <UNPREDICTABLE>
	...
    1a2c:	00070c00 	andeq	r0, r7, r0, lsl #24
    1a30:	0007d000 	andeq	sp, r7, r0
    1a34:	55000100 	strpl	r0, [r0, #-256]	; 0xffffff00
    1a38:	00000894 	muleq	r0, r4, r8
    1a3c:	000008a8 	andeq	r0, r0, r8, lsr #17
    1a40:	00550001 	subseq	r0, r5, r1
	...
    1a50:	00070c00 	andeq	r0, r7, r0, lsl #24
    1a54:	0007d000 	andeq	sp, r7, r0
    1a58:	91000400 	tstls	r0, r0, lsl #8
    1a5c:	d09f7dd0 			; <UNDEFINED> instruction: 0xd09f7dd0
    1a60:	ec000007 	stc	0, cr0, [r0], {7}
    1a64:	01000007 	tsteq	r0, r7
    1a68:	08945500 	ldmeq	r4, {r8, sl, ip, lr}
    1a6c:	08a80000 	stmiaeq	r8!, {}	; <UNPREDICTABLE>
    1a70:	00040000 	andeq	r0, r4, r0
    1a74:	9f7dd091 	svcls	0x007dd091
	...
    1a84:	0000070c 	andeq	r0, r0, ip, lsl #14
    1a88:	000007ec 	andeq	r0, r0, ip, ror #15
    1a8c:	9f320002 	svcls	0x00320002
    1a90:	00000894 	muleq	r0, r4, r8
    1a94:	000008a8 	andeq	r0, r0, r8, lsr #17
    1a98:	9f320002 	svcls	0x00320002
	...
    1aa4:	00050503 	andeq	r0, r5, r3, lsl #10
    1aa8:	00000000 	andeq	r0, r0, r0
    1aac:	070c0000 	streq	r0, [ip, -r0]
    1ab0:	070c0000 	streq	r0, [ip, -r0]
    1ab4:	00010000 	andeq	r0, r1, r0
    1ab8:	00070c51 	andeq	r0, r7, r1, asr ip
    1abc:	00071c00 	andeq	r1, r7, r0, lsl #24
    1ac0:	53000100 	movwpl	r0, #256	; 0x100
    1ac4:	0000071c 	andeq	r0, r0, ip, lsl r7
    1ac8:	00000724 	andeq	r0, r0, r4, lsr #14
    1acc:	01720003 	cmneq	r2, r3
    1ad0:	0007249f 	muleq	r7, pc, r4	; <UNPREDICTABLE>
    1ad4:	0007cc00 	andeq	ip, r7, r0, lsl #24
    1ad8:	53000100 	movwpl	r0, #256	; 0x100
    1adc:	00000894 	muleq	r0, r4, r8
    1ae0:	000008a8 	andeq	r0, r0, r8, lsr #17
    1ae4:	00530001 	subseq	r0, r3, r1
    1ae8:	00000000 	andeq	r0, r0, r0
    1aec:	05000000 	streq	r0, [r0, #-0]
    1af0:	0c000100 	stfeqs	f0, [r0], {-0}
    1af4:	20000007 	andcs	r0, r0, r7
    1af8:	01000007 	tsteq	r0, r7
    1afc:	07245000 	streq	r5, [r4, -r0]!
    1b00:	072c0000 	streq	r0, [ip, -r0]!
    1b04:	00010000 	andeq	r0, r1, r0
    1b08:	00000050 	andeq	r0, r0, r0, asr r0
    1b0c:	00000000 	andeq	r0, r0, r0
    1b10:	00010300 	andeq	r0, r1, r0, lsl #6
    1b14:	00072801 	andeq	r2, r7, r1, lsl #16
    1b18:	0007b000 	andeq	fp, r7, r0
    1b1c:	55000100 	strpl	r0, [r0, #-256]	; 0xffffff00
    1b20:	00000894 	muleq	r0, r4, r8
    1b24:	000008a0 	andeq	r0, r0, r0, lsr #17
    1b28:	00550001 	subseq	r0, r5, r1
    1b2c:	00000000 	andeq	r0, r0, r0
    1b30:	03000000 	movweq	r0, #0
    1b34:	28010001 	stmdacs	r1, {r0}
    1b38:	b0000007 	andlt	r0, r0, r7
    1b3c:	01000007 	tsteq	r0, r7
    1b40:	08945100 	ldmeq	r4, {r8, ip, lr}
    1b44:	08a00000 	stmiaeq	r0!, {}	; <UNPREDICTABLE>
    1b48:	00010000 	andeq	r0, r1, r0
    1b4c:	00000051 	andeq	r0, r0, r1, asr r0
    1b50:	00000000 	andeq	r0, r0, r0
    1b54:	00000300 	andeq	r0, r0, r0, lsl #6
    1b58:	01010101 	tsteq	r1, r1, lsl #2
    1b5c:	00020303 	andeq	r0, r2, r3, lsl #6
    1b60:	00072801 	andeq	r2, r7, r1, lsl #16
    1b64:	00075000 	andeq	r5, r7, r0
    1b68:	53000100 	movwpl	r0, #256	; 0x100
    1b6c:	00000774 	andeq	r0, r0, r4, ror r7
    1b70:	00000774 	andeq	r0, r0, r4, ror r7
    1b74:	745e0001 	ldrbvc	r0, [lr], #-1
    1b78:	88000007 	stmdahi	r0, {r0, r1, r2}
    1b7c:	03000007 	movweq	r0, #7
    1b80:	9f017e00 	svcls	0x00017e00
    1b84:	00000788 	andeq	r0, r0, r8, lsl #15
    1b88:	00000794 	muleq	r0, r4, r7
    1b8c:	027e0003 	rsbseq	r0, lr, #3, 0
    1b90:	0007949f 	muleq	r7, pc, r4	; <UNPREDICTABLE>
    1b94:	00079800 	andeq	r9, r7, r0, lsl #16
    1b98:	7e000300 	cdpvc	3, 0, cr0, cr0, cr0, {0}
    1b9c:	08949f03 	ldmeq	r4, {r0, r1, r8, r9, sl, fp, ip, pc}
    1ba0:	08a00000 	stmiaeq	r0!, {}	; <UNPREDICTABLE>
    1ba4:	00010000 	andeq	r0, r1, r0
    1ba8:	00000053 	andeq	r0, r0, r3, asr r0
	...
    1bb4:	01010101 	tsteq	r1, r1, lsl #2
    1bb8:	00020101 	andeq	r0, r2, r1, lsl #2
    1bbc:	00072c01 	andeq	r2, r7, r1, lsl #24
    1bc0:	00075000 	andeq	r5, r7, r0
    1bc4:	50000100 	andpl	r0, r0, r0, lsl #2
    1bc8:	00000774 	andeq	r0, r0, r4, ror r7
    1bcc:	00000784 	andeq	r0, r0, r4, lsl #15
    1bd0:	84500001 	ldrbhi	r0, [r0], #-1
    1bd4:	94000007 	strls	r0, [r0], #-7
    1bd8:	01000007 	tsteq	r0, r7
    1bdc:	07945b00 	ldreq	r5, [r4, r0, lsl #22]
    1be0:	07980000 	ldreq	r0, [r8, r0]
    1be4:	00010000 	andeq	r0, r1, r0
    1be8:	00079850 	andeq	r9, r7, r0, asr r8
    1bec:	00079800 	andeq	r9, r7, r0, lsl #16
    1bf0:	70000300 	andvc	r0, r0, r0, lsl #6
    1bf4:	08949f01 	ldmeq	r4, {r0, r8, r9, sl, fp, ip, pc}
    1bf8:	08a00000 	stmiaeq	r0!, {}	; <UNPREDICTABLE>
    1bfc:	00010000 	andeq	r0, r1, r0
    1c00:	00000050 	andeq	r0, r0, r0, asr r0
    1c04:	00000000 	andeq	r0, r0, r0
    1c08:	01000100 	mrseq	r0, (UNDEF: 16)
    1c0c:	0007b000 	andeq	fp, r7, r0
    1c10:	0007ec00 	andeq	lr, r7, r0, lsl #24
    1c14:	51000100 	mrspl	r0, (UNDEF: 16)
    1c18:	000008a0 	andeq	r0, r0, r0, lsr #17
    1c1c:	000008a8 	andeq	r0, r0, r8, lsr #17
    1c20:	00510001 	subseq	r0, r1, r1
    1c24:	00000000 	andeq	r0, r0, r0
    1c28:	01000000 	mrseq	r0, (UNDEF: 0)
    1c2c:	00000000 	andeq	r0, r0, r0
    1c30:	01000101 	tsteq	r0, r1, lsl #2
    1c34:	0007b000 	andeq	fp, r7, r0
    1c38:	0007b400 	andeq	fp, r7, r0, lsl #8
    1c3c:	73000600 	movwvc	r0, #1536	; 0x600
    1c40:	22007c00 	andcs	r7, r0, #0, 24
    1c44:	0007d49f 	muleq	r7, pc, r4	; <UNPREDICTABLE>
    1c48:	0007d800 	andeq	sp, r7, r0, lsl #16
    1c4c:	73000300 	movwvc	r0, #768	; 0x300
    1c50:	07d89f7f 			; <UNDEFINED> instruction: 0x07d89f7f
    1c54:	07e00000 	strbeq	r0, [r0, r0]!
    1c58:	00010000 	andeq	r0, r1, r0
    1c5c:	0007e053 	andeq	lr, r7, r3, asr r0
    1c60:	0007e800 	andeq	lr, r7, r0, lsl #16
    1c64:	73000300 	movwvc	r0, #768	; 0x300
    1c68:	08a09f7f 	stmiaeq	r0!, {r0, r1, r2, r3, r4, r5, r6, r8, r9, sl, fp, ip, pc}
    1c6c:	08a80000 	stmiaeq	r8!, {}	; <UNPREDICTABLE>
    1c70:	00010000 	andeq	r0, r1, r0
    1c74:	00000053 	andeq	r0, r0, r3, asr r0
    1c78:	00000000 	andeq	r0, r0, r0
    1c7c:	01000100 	mrseq	r0, (UNDEF: 16)
    1c80:	0007b000 	andeq	fp, r7, r0
    1c84:	0007ec00 	andeq	lr, r7, r0, lsl #24
    1c88:	08000300 	stmdaeq	r0, {r8, r9}
    1c8c:	08a09f80 	stmiaeq	r0!, {r7, r8, r9, sl, fp, ip, pc}
    1c90:	08a80000 	stmiaeq	r8!, {}	; <UNPREDICTABLE>
    1c94:	00030000 	andeq	r0, r3, r0
    1c98:	009f8008 	addseq	r8, pc, r8
    1c9c:	00000000 	andeq	r0, r0, r0
    1ca0:	01000000 	mrseq	r0, (UNDEF: 0)
    1ca4:	00000000 	andeq	r0, r0, r0
    1ca8:	00000101 	andeq	r0, r0, r1, lsl #2
    1cac:	b0000100 	andlt	r0, r0, r0, lsl #2
    1cb0:	d0000007 	andle	r0, r0, r7
    1cb4:	04000007 	streq	r0, [r0], #-7
    1cb8:	7dd09100 	ldfvcp	f1, [r0]
    1cbc:	0007d09f 	muleq	r7, pc, r0	; <UNPREDICTABLE>
    1cc0:	0007d400 	andeq	sp, r7, r0, lsl #8
    1cc4:	55000100 	strpl	r0, [r0, #-256]	; 0xffffff00
    1cc8:	000007d4 	ldrdeq	r0, [r0], -r4
    1ccc:	000007d4 	ldrdeq	r0, [r0], -r4
    1cd0:	017c0003 	cmneq	ip, r3
    1cd4:	0007d49f 	muleq	r7, pc, r4	; <UNPREDICTABLE>
    1cd8:	0007e000 	andeq	lr, r7, r0
    1cdc:	7c000300 	stcvc	3, cr0, [r0], {-0}
    1ce0:	07e09f02 	strbeq	r9, [r0, r2, lsl #30]!
    1ce4:	07ec0000 	strbeq	r0, [ip, r0]!
    1ce8:	00030000 	andeq	r0, r3, r0
    1cec:	a09f017c 	addsge	r0, pc, ip, ror r1	; <UNPREDICTABLE>
    1cf0:	a8000008 	stmdage	r0, {r3}
    1cf4:	04000008 	streq	r0, [r0], #-8
    1cf8:	7dd09100 	ldfvcp	f1, [r0]
    1cfc:	0000009f 	muleq	r0, pc, r0	; <UNPREDICTABLE>
    1d00:	00000000 	andeq	r0, r0, r0
    1d04:	04000400 	streq	r0, [r0], #-1024	; 0xfffffc00
    1d08:	0007b000 	andeq	fp, r7, r0
    1d0c:	0007b400 	andeq	fp, r7, r0, lsl #8
    1d10:	70000300 	andvc	r0, r0, r0, lsl #6
    1d14:	08a09f01 	stmiaeq	r0!, {r0, r8, r9, sl, fp, ip, pc}
    1d18:	08a80000 	stmiaeq	r8!, {}	; <UNPREDICTABLE>
    1d1c:	00030000 	andeq	r0, r3, r0
    1d20:	009f0170 	addseq	r0, pc, r0, ror r1	; <UNPREDICTABLE>
    1d24:	00000000 	andeq	r0, r0, r0
    1d28:	01000000 	mrseq	r0, (UNDEF: 0)
    1d2c:	bc000000 	stclt	0, cr0, [r0], {-0}
    1d30:	d0000007 	andle	r0, r0, r7
    1d34:	04000007 	streq	r0, [r0], #-7
    1d38:	7dd09100 	ldfvcp	f1, [r0]
    1d3c:	0007d09f 	muleq	r7, pc, r0	; <UNPREDICTABLE>
    1d40:	0007ec00 	andeq	lr, r7, r0, lsl #24
    1d44:	55000100 	strpl	r0, [r0, #-256]	; 0xffffff00
	...
    1d54:	00000328 	andeq	r0, r0, r8, lsr #6
    1d58:	00000364 	andeq	r0, r0, r4, ror #6
    1d5c:	64500001 	ldrbvs	r0, [r0], #-1
    1d60:	88000003 	stmdahi	r0, {r0, r1}
    1d64:	04000003 	streq	r0, [r0], #-3
    1d68:	5001f300 	andpl	pc, r1, r0, lsl #6
    1d6c:	0000009f 	muleq	r0, pc, r0	; <UNPREDICTABLE>
	...
    1d78:	00032800 	andeq	r2, r3, r0, lsl #16
    1d7c:	00035c00 	andeq	r5, r3, r0, lsl #24
    1d80:	51000100 	mrspl	r0, (UNDEF: 16)
    1d84:	0000035c 	andeq	r0, r0, ip, asr r3
    1d88:	00000388 	andeq	r0, r0, r8, lsl #7
    1d8c:	01f30004 	mvnseq	r0, r4
    1d90:	00009f51 	andeq	r9, r0, r1, asr pc
	...
    1db4:	00140000 	andseq	r0, r4, r0
    1db8:	00010000 	andeq	r0, r1, r0
    1dbc:	00001450 	andeq	r1, r0, r0, asr r4
    1dc0:	00002000 	andeq	r2, r0, r0
    1dc4:	5c000100 	stfpls	f0, [r0], {-0}
    1dc8:	00000020 	andeq	r0, r0, r0, lsr #32
    1dcc:	00000068 	andeq	r0, r0, r8, rrx
    1dd0:	02710003 	rsbseq	r0, r1, #3, 0
    1dd4:	0000689f 	muleq	r0, pc, r8	; <UNPREDICTABLE>
    1dd8:	00006c00 	andeq	r6, r0, r0, lsl #24
    1ddc:	73000300 	movwvc	r0, #768	; 0x300
    1de0:	006c9f02 	rsbeq	r9, ip, r2, lsl #30
    1de4:	01940000 	orrseq	r0, r4, r0
    1de8:	00040000 	andeq	r0, r4, r0
    1dec:	9f5001f3 	svcls	0x005001f3
    1df0:	00000194 	muleq	r0, r4, r1
    1df4:	00000198 	muleq	r0, r8, r1
    1df8:	02730003 	rsbseq	r0, r3, #3, 0
    1dfc:	0001989f 	muleq	r1, pc, r8	; <UNPREDICTABLE>
    1e00:	0001c000 	andeq	ip, r1, r0
    1e04:	f3000400 	vshl.u8	d0, d0, d0
    1e08:	c09f5001 	addsgt	r5, pc, r1
    1e0c:	c8000001 	stmdagt	r0, {r0}
    1e10:	01000001 	tsteq	r0, r1
    1e14:	01c85c00 	biceq	r5, r8, r0, lsl #24
    1e18:	02140000 	andseq	r0, r4, #0, 0
    1e1c:	00030000 	andeq	r0, r3, r0
    1e20:	149f0273 	ldrne	r0, [pc], #627	; 1e28 <__code_start__-0x61d8>
    1e24:	ec000002 	stc	0, cr0, [r0], {2}
    1e28:	04000002 	streq	r0, [r0], #-2
    1e2c:	5001f300 	andpl	pc, r1, r0, lsl #6
    1e30:	0002ec9f 	muleq	r2, pc, ip	; <UNPREDICTABLE>
    1e34:	0002f400 	andeq	pc, r2, r0, lsl #8
    1e38:	73000300 	movwvc	r0, #768	; 0x300
    1e3c:	02f49f02 	rscseq	r9, r4, #2, 30
    1e40:	03280000 			; <UNDEFINED> instruction: 0x03280000
    1e44:	00040000 	andeq	r0, r4, r0
    1e48:	9f5001f3 	svcls	0x005001f3
	...
    1e60:	0000001c 	andeq	r0, r0, ip, lsl r0
    1e64:	1c510001 	mrrcne	0, 0, r0, r1, cr1
    1e68:	e0000000 	and	r0, r0, r0
    1e6c:	01000002 	tsteq	r0, r2
    1e70:	02e05000 	rsceq	r5, r0, #0, 0
    1e74:	02ec0000 	rsceq	r0, ip, #0, 0
    1e78:	00040000 	andeq	r0, r4, r0
    1e7c:	9f5101f3 	svcls	0x005101f3
    1e80:	000002ec 	andeq	r0, r0, ip, ror #5
    1e84:	00000328 	andeq	r0, r0, r8, lsr #6
    1e88:	00500001 	subseq	r0, r0, r1
	...
    1e98:	00000001 	andeq	r0, r0, r1
    1e9c:	00000000 	andeq	r0, r0, r0
    1ea0:	00000202 	andeq	r0, r0, r2, lsl #4
	...
    1eb4:	70000000 	andvc	r0, r0, r0
    1eb8:	01000000 	mrseq	r0, (UNDEF: 0)
    1ebc:	00705200 	rsbseq	r5, r0, r0, lsl #4
    1ec0:	00780000 	rsbseq	r0, r8, r0
    1ec4:	00010000 	andeq	r0, r1, r0
    1ec8:	0000785c 	andeq	r7, r0, ip, asr r8
    1ecc:	0000a400 	andeq	sl, r0, r0, lsl #8
    1ed0:	f3000400 	vshl.u8	d0, d0, d0
    1ed4:	949f5201 	ldrls	r5, [pc], #513	; 1edc <__code_start__-0x6124>
    1ed8:	9c000001 	stcls	0, cr0, [r0], {1}
    1edc:	01000001 	tsteq	r0, r1
    1ee0:	019c5200 	orrseq	r5, ip, r0, lsl #4
    1ee4:	01a40000 			; <UNDEFINED> instruction: 0x01a40000
    1ee8:	00010000 	andeq	r0, r1, r0
    1eec:	0001a45c 	andeq	sl, r1, ip, asr r4
    1ef0:	0001c000 	andeq	ip, r1, r0
    1ef4:	f3000400 	vshl.u8	d0, d0, d0
    1ef8:	c09f5201 	addsgt	r5, pc, r1, lsl #4
    1efc:	20000001 	andcs	r0, r0, r1
    1f00:	01000002 	tsteq	r0, r2
    1f04:	02205200 	eoreq	r5, r0, #0, 4
    1f08:	02280000 	eoreq	r0, r8, #0, 0
    1f0c:	00040000 	andeq	r0, r4, r0
    1f10:	9f1f0072 	svcls	0x001f0072
    1f14:	00000228 	andeq	r0, r0, r8, lsr #4
    1f18:	00000274 	andeq	r0, r0, r4, ror r2
    1f1c:	01f30005 	mvnseq	r0, r5
    1f20:	749f1f52 	ldrvc	r1, [pc], #3922	; 1f28 <__code_start__-0x60d8>
    1f24:	88000002 	stmdahi	r0, {r1}
    1f28:	01000002 	tsteq	r0, r2
    1f2c:	02885200 	addeq	r5, r8, #0, 4
    1f30:	02a00000 	adceq	r0, r0, #0, 0
    1f34:	00010000 	andeq	r0, r1, r0
    1f38:	0002cc5c 	andeq	ip, r2, ip, asr ip
    1f3c:	0002d000 	andeq	sp, r2, r0
    1f40:	52000100 	andpl	r0, r0, #0
    1f44:	000002d0 	ldrdeq	r0, [r0], -r0	; <UNPREDICTABLE>
    1f48:	000002e7 	andeq	r0, r0, r7, ror #5
    1f4c:	e75c0001 	ldrb	r0, [ip, -r1]
    1f50:	ec000002 	stc	0, cr0, [r0], {2}
    1f54:	04000002 	streq	r0, [r0], #-2
    1f58:	5201f300 	andpl	pc, r1, #0, 6
    1f5c:	0002ec9f 	muleq	r2, pc, ip	; <UNPREDICTABLE>
    1f60:	00030000 	andeq	r0, r3, r0
    1f64:	52000100 	andpl	r0, r0, #0
    1f68:	00000300 	andeq	r0, r0, r0, lsl #6
    1f6c:	00000328 	andeq	r0, r0, r8, lsr #6
    1f70:	005c0001 	subseq	r0, ip, r1
	...
    1f8c:	00006800 	andeq	r6, r0, r0, lsl #16
    1f90:	53000100 	movwpl	r0, #256	; 0x100
    1f94:	00000068 	andeq	r0, r0, r8, rrx
    1f98:	0000006c 	andeq	r0, r0, ip, rrx
    1f9c:	7f080003 	svcvc	0x00080003
    1fa0:	0001949f 	muleq	r1, pc, r4	; <UNPREDICTABLE>
    1fa4:	00019800 	andeq	r9, r1, r0, lsl #16
    1fa8:	08000300 	stmdaeq	r0, {r8, r9}
    1fac:	01c09f7f 	biceq	r9, r0, pc, ror pc
    1fb0:	02140000 	andseq	r0, r4, #0, 0
    1fb4:	00030000 	andeq	r0, r3, r0
    1fb8:	749f7f08 	ldrvc	r7, [pc], #3848	; 1fc0 <__code_start__-0x6040>
    1fbc:	90000002 	andls	r0, r0, r2
    1fc0:	01000002 	tsteq	r0, r2
    1fc4:	02905300 	addseq	r5, r0, #0, 6
    1fc8:	02a00000 	adceq	r0, r0, #0, 0
    1fcc:	00040000 	andeq	r0, r4, r0
    1fd0:	9f5301f3 	svcls	0x005301f3
    1fd4:	000002ec 	andeq	r0, r0, ip, ror #5
    1fd8:	00000328 	andeq	r0, r0, r8, lsr #6
    1fdc:	7f080003 	svcvc	0x00080003
    1fe0:	0000009f 	muleq	r0, pc, r0	; <UNPREDICTABLE>
    1fe4:	00000000 	andeq	r0, r0, r0
    1fe8:	00000100 	andeq	r0, r0, r0, lsl #2
    1fec:	02020000 	andeq	r0, r2, #0, 0
    1ff0:	01010000 	mrseq	r0, (UNDEF: 1)
	...
    1ffc:	00000202 	andeq	r0, r0, r2, lsl #4
    2000:	00000100 	andeq	r0, r0, r0, lsl #2
    2004:	00000000 	andeq	r0, r0, r0
    2008:	01010000 	mrseq	r0, (UNDEF: 1)
    200c:	00000000 	andeq	r0, r0, r0
    2010:	00000202 	andeq	r0, r0, r2, lsl #4
    2014:	00000000 	andeq	r0, r0, r0
    2018:	00000101 	andeq	r0, r0, r1, lsl #2
    201c:	00001800 	andeq	r1, r0, r0, lsl #16
    2020:	00007000 	andeq	r7, r0, r0
    2024:	91000400 	tstls	r0, r0, lsl #8
    2028:	709f7fa0 	addsvc	r7, pc, r0, lsr #31
    202c:	78000000 	stmdavc	r0, {}	; <UNPREDICTABLE>
    2030:	01000000 	mrseq	r0, (UNDEF: 0)
    2034:	00785200 	rsbseq	r5, r8, r0, lsl #4
    2038:	00780000 	rsbseq	r0, r8, r0
    203c:	00010000 	andeq	r0, r1, r0
    2040:	00007854 	andeq	r7, r0, r4, asr r8
    2044:	00008800 	andeq	r8, r0, r0, lsl #16
    2048:	74000300 	strvc	r0, [r0], #-768	; 0xfffffd00
    204c:	00889f01 	addeq	r9, r8, r1, lsl #30
    2050:	00900000 	addseq	r0, r0, r0
    2054:	00010000 	andeq	r0, r1, r0
    2058:	00009054 	andeq	r9, r0, r4, asr r0
    205c:	0000a000 	andeq	sl, r0, r0
    2060:	74000300 	strvc	r0, [r0], #-768	; 0xfffffd00
    2064:	00a09f02 	adceq	r9, r0, r2, lsl #30
    2068:	00b00000 	adcseq	r0, r0, r0
    206c:	00010000 	andeq	r0, r1, r0
    2070:	0001945e 	andeq	r9, r1, lr, asr r4
    2074:	00019c00 	andeq	r9, r1, r0, lsl #24
    2078:	91000400 	tstls	r0, r0, lsl #8
    207c:	9c9f7fa0 	ldcls	15, cr7, [pc], {160}	; 0xa0
    2080:	a4000001 	strge	r0, [r0], #-1
    2084:	01000001 	tsteq	r0, r1
    2088:	01a45200 			; <UNDEFINED> instruction: 0x01a45200
    208c:	01a40000 			; <UNDEFINED> instruction: 0x01a40000
    2090:	00010000 	andeq	r0, r1, r0
    2094:	0001a45e 	andeq	sl, r1, lr, asr r4
    2098:	0001b400 	andeq	fp, r1, r0, lsl #8
    209c:	7e000300 	cdpvc	3, 0, cr0, cr0, cr0, {0}
    20a0:	01b49f01 			; <UNDEFINED> instruction: 0x01b49f01
    20a4:	01c00000 	biceq	r0, r0, r0
    20a8:	00010000 	andeq	r0, r1, r0
    20ac:	0001c05e 	andeq	ip, r1, lr, asr r0
    20b0:	00022800 	andeq	r2, r2, r0, lsl #16
    20b4:	91000400 	tstls	r0, r0, lsl #8
    20b8:	289f7fa0 	ldmcs	pc, {r5, r7, r8, r9, sl, fp, ip, sp, lr}	; <UNPREDICTABLE>
    20bc:	34000002 	strcc	r0, [r0], #-2
    20c0:	01000002 	tsteq	r0, r2
    20c4:	02345200 	eorseq	r5, r4, #0, 4
    20c8:	02580000 	subseq	r0, r8, #0, 0
    20cc:	00010000 	andeq	r0, r1, r0
    20d0:	0002585e 	andeq	r5, r2, lr, asr r8
    20d4:	00025c00 	andeq	r5, r2, r0, lsl #24
    20d8:	7e000300 	cdpvc	3, 0, cr0, cr0, cr0, {0}
    20dc:	025c9f01 	subseq	r9, ip, #1, 30
    20e0:	02640000 	rsbeq	r0, r4, #0, 0
    20e4:	00010000 	andeq	r0, r1, r0
    20e8:	0002645e 	andeq	r6, r2, lr, asr r4
    20ec:	00027000 	andeq	r7, r2, r0
    20f0:	71000300 	mrsvc	r0, LR_irq
    20f4:	02709f02 	rsbseq	r9, r0, #2, 30
    20f8:	02740000 	rsbseq	r0, r4, #0, 0
    20fc:	00010000 	andeq	r0, r1, r0
    2100:	0002745e 	andeq	r7, r2, lr, asr r4
    2104:	00027400 	andeq	r7, r2, r0, lsl #8
    2108:	91000400 	tstls	r0, r0, lsl #8
    210c:	749f7fa0 	ldrvc	r7, [pc], #4000	; 2114 <__code_start__-0x5eec>
    2110:	a0000002 	andge	r0, r0, r2
    2114:	04000002 	streq	r0, [r0], #-2
    2118:	7fa19100 	svcvc	0x00a19100
    211c:	0002c09f 	muleq	r2, pc, r0	; <UNPREDICTABLE>
    2120:	0002c800 	andeq	ip, r2, r0, lsl #16
    2124:	5e000100 	adfpls	f0, f0, f0
    2128:	000002c8 	andeq	r0, r0, r8, asr #5
    212c:	000002cc 	andeq	r0, r0, ip, asr #5
    2130:	cc560001 	mrrcgt	0, 0, r0, r6, cr1
    2134:	ec000002 	stc	0, cr0, [r0], {2}
    2138:	04000002 	streq	r0, [r0], #-2
    213c:	7fa09100 	svcvc	0x00a09100
    2140:	0002ec9f 	muleq	r2, pc, ip	; <UNPREDICTABLE>
    2144:	0002fc00 	andeq	pc, r2, r0, lsl #24
    2148:	91000400 	tstls	r0, r0, lsl #8
    214c:	fc9f7fa1 	ldc2	15, cr7, [pc], {161}	; 0xa1
    2150:	28000002 	stmdacs	r0, {r1}
    2154:	01000003 	tsteq	r0, r3
    2158:	00005e00 	andeq	r5, r0, r0, lsl #28
	...
    2170:	00010100 	andeq	r0, r1, r0, lsl #2
	...
    2184:	00000020 	andeq	r0, r0, r0, lsr #32
    2188:	00000070 	andeq	r0, r0, r0, ror r0
    218c:	70520001 	subsvc	r0, r2, r1
    2190:	94000000 	strls	r0, [r0], #-0
    2194:	01000000 	mrseq	r0, (UNDEF: 0)
    2198:	01945c00 	orrseq	r5, r4, r0, lsl #24
    219c:	019c0000 	orrseq	r0, ip, r0
    21a0:	00010000 	andeq	r0, r1, r0
    21a4:	00019c52 	andeq	r9, r1, r2, asr ip
    21a8:	0001c000 	andeq	ip, r1, r0
    21ac:	5c000100 	stfpls	f0, [r0], {-0}
    21b0:	000001c8 	andeq	r0, r0, r8, asr #3
    21b4:	00000210 	andeq	r0, r0, r0, lsl r2
    21b8:	105c0001 	subsne	r0, ip, r1
    21bc:	24000002 	strcs	r0, [r0], #-2
    21c0:	01000002 	tsteq	r0, r2
    21c4:	02245200 	eoreq	r5, r4, #0, 4
    21c8:	02480000 	subeq	r0, r8, #0, 0
    21cc:	00010000 	andeq	r0, r1, r0
    21d0:	0002485c 	andeq	r4, r2, ip, asr r8
    21d4:	00025c00 	andeq	r5, r2, r0, lsl #24
    21d8:	55000100 	strpl	r0, [r0, #-256]	; 0xffffff00
    21dc:	0000025c 	andeq	r0, r0, ip, asr r2
    21e0:	00000268 	andeq	r0, r0, r8, ror #4
    21e4:	685c0001 	ldmdavs	ip, {r0}^
    21e8:	74000002 	strvc	r0, [r0], #-2
    21ec:	19000002 	stmdbne	r0, {r1}
    21f0:	f7007500 			; <UNDEFINED> instruction: 0xf7007500
    21f4:	7625f72c 	strtvc	pc, [r5], -ip, lsr #14
    21f8:	f72cf700 			; <UNDEFINED> instruction: 0xf72cf700
    21fc:	20081e25 	andcs	r1, r8, r5, lsr #28
    2200:	f72525f7 			; <UNDEFINED> instruction: 0xf72525f7
    2204:	3300f72c 	movwcc	pc, #1836	; 0x72c	; <UNPREDICTABLE>
    2208:	02749f25 	rsbseq	r9, r4, #148	; 0x94
    220c:	02880000 	addeq	r0, r8, #0, 0
    2210:	00010000 	andeq	r0, r1, r0
    2214:	00028852 	andeq	r8, r2, r2, asr r8
    2218:	0002a000 	andeq	sl, r2, r0
    221c:	5c000100 	stfpls	f0, [r0], {-0}
    2220:	000002cc 	andeq	r0, r0, ip, asr #5
    2224:	000002d0 	ldrdeq	r0, [r0], -r0	; <UNPREDICTABLE>
    2228:	d0520001 	subsle	r0, r2, r1
    222c:	e7000002 	str	r0, [r0, -r2]
    2230:	01000002 	tsteq	r0, r2
    2234:	02e75c00 	rsceq	r5, r7, #0, 24
    2238:	02ec0000 	rsceq	r0, ip, #0, 0
    223c:	00040000 	andeq	r0, r4, r0
    2240:	9f5201f3 	svcls	0x005201f3
    2244:	000002ec 	andeq	r0, r0, ip, ror #5
    2248:	00000300 	andeq	r0, r0, r0, lsl #6
    224c:	00520001 	subseq	r0, r2, r1
    2250:	28000003 	stmdacs	r0, {r0, r1}
    2254:	01000003 	tsteq	r0, r3
    2258:	00005c00 	andeq	r5, r0, r0, lsl #24
    225c:	00000000 	andeq	r0, r0, r0
    2260:	00040000 	andeq	r0, r4, r0
    2264:	01000004 	tsteq	r0, r4
    2268:	00040000 	andeq	r0, r4, r0
    226c:	000000a4 	andeq	r0, r0, r4, lsr #1
    2270:	000000b0 	strheq	r0, [r0], -r0	; <UNPREDICTABLE>
    2274:	7c530001 	mrrcvc	0, 0, r0, r3, cr1
    2278:	90000002 	andls	r0, r0, r2
    227c:	01000002 	tsteq	r0, r2
    2280:	02905300 	addseq	r5, r0, #0, 6
    2284:	029c0000 	addseq	r0, ip, #0, 0
    2288:	00040000 	andeq	r0, r4, r0
    228c:	9f5301f3 	svcls	0x005301f3
    2290:	000002c0 	andeq	r0, r0, r0, asr #5
    2294:	000002cc 	andeq	r0, r0, ip, asr #5
    2298:	f0530001 			; <UNDEFINED> instruction: 0xf0530001
    229c:	28000002 	stmdacs	r0, {r1}
    22a0:	03000003 	movweq	r0, #3
    22a4:	9f7f0800 	svcls	0x007f0800
	...
    22b0:	01000004 	tsteq	r0, r4
    22b4:	01000004 	tsteq	r0, r4
    22b8:	00000000 	andeq	r0, r0, r0
    22bc:	00000004 	andeq	r0, r0, r4
    22c0:	000000a4 	andeq	r0, r0, r4, lsr #1
    22c4:	000000b0 	strheq	r0, [r0], -r0	; <UNPREDICTABLE>
    22c8:	b0520001 	subslt	r0, r2, r1
    22cc:	5c000000 	stcpl	0, cr0, [r0], {-0}
    22d0:	04000001 	streq	r0, [r0], #-1
    22d4:	7fa09100 	svcvc	0x00a09100
    22d8:	00027c9f 	muleq	r2, pc, ip	; <UNPREDICTABLE>
    22dc:	00029400 	andeq	r9, r2, r0, lsl #8
    22e0:	91000400 	tstls	r0, r0, lsl #8
    22e4:	949f7fa0 	ldrls	r7, [pc], #4000	; 22ec <__code_start__-0x5d14>
    22e8:	9c000002 	stcls	0, cr0, [r0], {2}
    22ec:	01000002 	tsteq	r0, r2
    22f0:	02b45e00 	adcseq	r5, r4, #0, 28
    22f4:	02c00000 	sbceq	r0, r0, #0, 0
    22f8:	00040000 	andeq	r0, r4, r0
    22fc:	9f7fa091 	svcls	0x007fa091
    2300:	000002c0 	andeq	r0, r0, r0, asr #5
    2304:	000002cc 	andeq	r0, r0, ip, asr #5
    2308:	f0520001 			; <UNDEFINED> instruction: 0xf0520001
    230c:	00000002 	andeq	r0, r0, r2
    2310:	04000003 	streq	r0, [r0], #-3
    2314:	7fa09100 	svcvc	0x00a09100
    2318:	0003009f 	muleq	r3, pc, r0	; <UNPREDICTABLE>
    231c:	00032800 	andeq	r2, r3, r0, lsl #16
    2320:	52000100 	andpl	r0, r0, #0
	...
    232c:	01000004 	tsteq	r0, r4
    2330:	03010101 	movweq	r0, #4353	; 0x1101
    2334:	01040203 	tsteq	r4, r3, lsl #4
    2338:	00000000 	andeq	r0, r0, r0
    233c:	00000004 	andeq	r0, r0, r4
    2340:	000000a4 	andeq	r0, r0, r4, lsr #1
    2344:	000000b0 	strheq	r0, [r0], -r0	; <UNPREDICTABLE>
    2348:	0c5e0001 	mrrceq	0, 0, r0, lr, cr1
    234c:	0c000001 	stceq	0, cr0, [r0], {1}
    2350:	01000001 	tsteq	r0, r1
    2354:	010c5500 	tsteq	ip, r0, lsl #10
    2358:	01200000 			; <UNDEFINED> instruction: 0x01200000
    235c:	00030000 	andeq	r0, r3, r0
    2360:	209f0175 	addscs	r0, pc, r5, ror r1	; <UNPREDICTABLE>
    2364:	2c000001 	stccs	0, cr0, [r0], {1}
    2368:	03000001 	movweq	r0, #1
    236c:	9f027500 	svcls	0x00027500
    2370:	0000012c 	andeq	r0, r0, ip, lsr #2
    2374:	00000130 	andeq	r0, r0, r0, lsr r1
    2378:	03750003 	cmneq	r5, #3, 0
    237c:	00027c9f 	muleq	r2, pc, ip	; <UNPREDICTABLE>
    2380:	00029c00 	andeq	r9, r2, r0, lsl #24
    2384:	91000400 	tstls	r0, r0, lsl #8
    2388:	c09f7fa1 	addsgt	r7, pc, r1, lsr #31
    238c:	c8000002 	stmdagt	r0, {r1}
    2390:	01000002 	tsteq	r0, r2
    2394:	02c85e00 	sbceq	r5, r8, #0, 28
    2398:	02cc0000 	sbceq	r0, ip, #0, 0
    239c:	00010000 	andeq	r0, r1, r0
    23a0:	0002f056 	andeq	pc, r2, r6, asr r0	; <UNPREDICTABLE>
    23a4:	0002fc00 	andeq	pc, r2, r0, lsl #24
    23a8:	91000400 	tstls	r0, r0, lsl #8
    23ac:	fc9f7fa1 	ldc2	15, cr7, [pc], {161}	; 0xa1
    23b0:	28000002 	stmdacs	r0, {r1}
    23b4:	01000003 	tsteq	r0, r3
    23b8:	00005e00 	andeq	r5, r0, r0, lsl #28
	...
    23c4:	01010100 	mrseq	r0, (UNDEF: 17)
    23c8:	02010101 	andeq	r0, r1, #1073741824	; 0x40000000
    23cc:	00000106 	andeq	r0, r0, r6, lsl #2
    23d0:	00a80006 	adceq	r0, r8, r6
    23d4:	00b00000 	adcseq	r0, r0, r0
    23d8:	00010000 	andeq	r0, r1, r0
    23dc:	00010c51 	andeq	r0, r1, r1, asr ip
    23e0:	00011c00 	andeq	r1, r1, r0, lsl #24
    23e4:	5c000100 	stfpls	f0, [r0], {-0}
    23e8:	0000011c 	andeq	r0, r0, ip, lsl r1
    23ec:	0000012c 	andeq	r0, r0, ip, lsr #2
    23f0:	2c580001 	mrrccs	0, 0, r0, r8, cr1
    23f4:	30000001 	andcc	r0, r0, r1
    23f8:	01000001 	tsteq	r0, r1
    23fc:	01305c00 	teqeq	r0, r0, lsl #24
    2400:	01300000 	teqeq	r0, r0
    2404:	00030000 	andeq	r0, r3, r0
    2408:	7c9f017c 	ldfvcs	f0, [pc], {124}	; 0x7c
    240c:	9c000002 	stcls	0, cr0, [r0], {2}
    2410:	02000002 	andeq	r0, r0, #2, 0
    2414:	c09f3100 	addsgt	r3, pc, r0, lsl #2
    2418:	cc000002 	stcgt	0, cr0, [r0], {2}
    241c:	01000002 	tsteq	r0, r2
    2420:	02f05100 	rscseq	r5, r0, #0
    2424:	03280000 			; <UNDEFINED> instruction: 0x03280000
    2428:	00020000 	andeq	r0, r2, r0
    242c:	00009f31 	andeq	r9, r0, r1, lsr pc
    2430:	00000000 	andeq	r0, r0, r0
    2434:	06010000 	streq	r0, [r1], -r0
    2438:	00010106 	andeq	r0, r1, r6, lsl #2
    243c:	015c0100 	cmpeq	ip, r0, lsl #2
    2440:	015c0000 	cmpeq	ip, r0
    2444:	00040000 	andeq	r0, r4, r0
    2448:	9f7fa091 	svcls	0x007fa091
    244c:	0000015c 	andeq	r0, r0, ip, asr r1
    2450:	0000018c 	andeq	r0, r0, ip, lsl #3
    2454:	9c520001 	mrrcls	0, 0, r0, r2, cr1
    2458:	a0000002 	andge	r0, r0, r2
    245c:	01000002 	tsteq	r0, r2
    2460:	02a05e00 	adceq	r5, r0, #0, 28
    2464:	02ac0000 	adceq	r0, ip, #0, 0
    2468:	00010000 	andeq	r0, r1, r0
    246c:	00000052 	andeq	r0, r0, r2, asr r0
	...
    2478:	01000101 	tsteq	r0, r1, lsl #2
    247c:	00016c07 	andeq	r6, r1, r7, lsl #24
    2480:	00017000 	andeq	r7, r1, r0
    2484:	73000300 	movwvc	r0, #768	; 0x300
    2488:	01709f7f 	cmneq	r0, pc, ror pc
    248c:	01780000 	cmneq	r8, r0
    2490:	00010000 	andeq	r0, r1, r0
    2494:	00017853 	andeq	r7, r1, r3, asr r8
    2498:	00018400 	andeq	r8, r1, r0, lsl #8
    249c:	73000300 	movwvc	r0, #768	; 0x300
    24a0:	029c9f7f 	addseq	r9, ip, #508	; 0x1fc
    24a4:	029c0000 	addseq	r0, ip, #0, 0
    24a8:	00040000 	andeq	r0, r4, r0
    24ac:	9f7fa191 	svcls	0x007fa191
	...
    24b8:	01010101 	tsteq	r1, r1, lsl #2
    24bc:	0000015c 	andeq	r0, r0, ip, asr r1
    24c0:	0000018c 	andeq	r0, r0, ip, lsl #3
    24c4:	80080003 	andhi	r0, r8, r3
    24c8:	00029c9f 	muleq	r2, pc, ip	; <UNPREDICTABLE>
    24cc:	0002ac00 	andeq	sl, r2, r0, lsl #24
    24d0:	08000300 	stmdaeq	r0, {r8, r9}
    24d4:	00009f80 	andeq	r9, r0, r0, lsl #31
    24d8:	00000000 	andeq	r0, r0, r0
    24dc:	00010000 	andeq	r0, r1, r0
    24e0:	00010100 	andeq	r0, r1, r0, lsl #2
    24e4:	01010100 	mrseq	r0, (UNDEF: 17)
    24e8:	01010101 	tsteq	r1, r1, lsl #2
    24ec:	0000015c 	andeq	r0, r0, ip, asr r1
    24f0:	0000016c 	andeq	r0, r0, ip, ror #2
    24f4:	6c500001 	mrrcvs	0, 0, r0, r0, cr1	; <UNPREDICTABLE>
    24f8:	6c000001 	stcvs	0, cr0, [r0], {1}
    24fc:	03000001 	movweq	r0, #1
    2500:	9f017c00 	svcls	0x00017c00
    2504:	0000016c 	andeq	r0, r0, ip, ror #2
    2508:	00000178 	andeq	r0, r0, r8, ror r1
    250c:	027c0003 	rsbseq	r0, ip, #3, 0
    2510:	0001789f 	muleq	r1, pc, r8	; <UNPREDICTABLE>
    2514:	00018800 	andeq	r8, r1, r0, lsl #16
    2518:	7c000300 	stcvc	3, cr0, [r0], {-0}
    251c:	01889f01 	orreq	r9, r8, r1, lsl #30
    2520:	018c0000 	orreq	r0, ip, r0
    2524:	00030000 	andeq	r0, r3, r0
    2528:	9c9f017e 	ldflss	f0, [pc], {126}	; 0x7e
    252c:	a4000002 	strge	r0, [r0], #-2
    2530:	01000002 	tsteq	r0, r2
    2534:	02a45000 	adceq	r5, r4, #0, 0
    2538:	02ac0000 	adceq	r0, ip, #0, 0
    253c:	00030000 	andeq	r0, r3, r0
    2540:	009f017e 	addseq	r0, pc, lr, ror r1	; <UNPREDICTABLE>
    2544:	00000000 	andeq	r0, r0, r0
    2548:	04000000 	streq	r0, [r0], #-0
    254c:	00000400 	andeq	r0, r0, r0, lsl #8
    2550:	00015c01 	andeq	r5, r1, r1, lsl #24
    2554:	00016000 	andeq	r6, r1, r0
    2558:	71000300 	mrsvc	r0, LR_irq
    255c:	029c9f01 	addseq	r9, ip, #1, 30
    2560:	02a00000 	adceq	r0, r0, #0, 0
    2564:	00020000 	andeq	r0, r2, r0
    2568:	02a09f32 	adceq	r9, r0, #200	; 0xc8
    256c:	02ac0000 	adceq	r0, ip, #0, 0
    2570:	00030000 	andeq	r0, r3, r0
    2574:	009f0171 	addseq	r0, pc, r1, ror r1	; <UNPREDICTABLE>
    2578:	00000000 	andeq	r0, r0, r0
    257c:	07000000 	streq	r0, [r0, -r0]
    2580:	5c000600 	stcpl	6, cr0, [r0], {-0}
    2584:	94000001 	strls	r0, [r0], #-1
    2588:	01000001 	tsteq	r0, r1
    258c:	029c5000 	addseq	r5, ip, #0, 0
    2590:	02b40000 	adcseq	r0, r4, #0, 0
    2594:	00010000 	andeq	r0, r1, r0
    2598:	00000050 	andeq	r0, r0, r0, asr r0
    259c:	00000000 	andeq	r0, r0, r0
    25a0:	01010100 	mrseq	r0, (UNDEF: 17)
    25a4:	00021400 	andeq	r1, r2, r0, lsl #8
    25a8:	00022000 	andeq	r2, r2, r0
    25ac:	30000200 	andcc	r0, r0, r0, lsl #4
    25b0:	0002209f 	muleq	r2, pc, r0	; <UNPREDICTABLE>
    25b4:	00023400 	andeq	r3, r2, r0, lsl #8
    25b8:	31000200 	mrscc	r0, R8_usr
    25bc:	0000009f 	muleq	r0, pc, r0	; <UNPREDICTABLE>
    25c0:	00000000 	andeq	r0, r0, r0
    25c4:	01010000 	mrseq	r0, (UNDEF: 1)
    25c8:	01010000 	mrseq	r0, (UNDEF: 1)
    25cc:	01010000 	mrseq	r0, (UNDEF: 1)
    25d0:	01010000 	mrseq	r0, (UNDEF: 1)
    25d4:	01010000 	mrseq	r0, (UNDEF: 1)
    25d8:	02020000 	andeq	r0, r2, #0, 0
    25dc:	00008001 	andeq	r8, r0, r1
    25e0:	00008000 	andeq	r8, r0, r0
    25e4:	53000100 	movwpl	r0, #256	; 0x100
    25e8:	00000080 	andeq	r0, r0, r0, lsl #1
    25ec:	0000008c 	andeq	r0, r0, ip, lsl #1
    25f0:	04730003 	ldrbteq	r0, [r3], #-3
    25f4:	00008c9f 	muleq	r0, pc, ip	; <UNPREDICTABLE>
    25f8:	00009400 	andeq	r9, r0, r0, lsl #8
    25fc:	51000100 	mrspl	r0, (UNDEF: 16)
    2600:	00000094 	muleq	r0, r4, r0
    2604:	00000098 	muleq	r0, r8, r0
    2608:	08730003 	ldmdaeq	r3!, {r0, r1}^
    260c:	0000989f 	muleq	r0, pc, r8	; <UNPREDICTABLE>
    2610:	0000a400 	andeq	sl, r0, r0, lsl #8
    2614:	51000100 	mrspl	r0, (UNDEF: 16)
    2618:	000000a4 	andeq	r0, r0, r4, lsr #1
    261c:	000000a8 	andeq	r0, r0, r8, lsr #1
    2620:	0c730003 	ldcleq	0, cr0, [r3], #-12
    2624:	0000a89f 	muleq	r0, pc, r8	; <UNPREDICTABLE>
    2628:	0000b400 	andeq	fp, r0, r0, lsl #8
    262c:	51000100 	mrspl	r0, (UNDEF: 16)
    2630:	000000b4 	strheq	r0, [r0], -r4
    2634:	000000b8 	strheq	r0, [r0], -r8
    2638:	10730003 	rsbsne	r0, r3, r3
    263c:	0000b89f 	muleq	r0, pc, r8	; <UNPREDICTABLE>
    2640:	0000c400 	andeq	ip, r0, r0, lsl #8
    2644:	51000100 	mrspl	r0, (UNDEF: 16)
    2648:	000000c4 	andeq	r0, r0, r4, asr #1
    264c:	000000c8 	andeq	r0, r0, r8, asr #1
    2650:	14730003 	ldrbtne	r0, [r3], #-3
    2654:	0000c89f 	muleq	r0, pc, r8	; <UNPREDICTABLE>
    2658:	0000d000 	andeq	sp, r0, r0
    265c:	51000100 	mrspl	r0, (UNDEF: 16)
    2660:	000000d0 	ldrdeq	r0, [r0], -r0	; <UNPREDICTABLE>
    2664:	000000d4 	ldrdeq	r0, [r0], -r4
    2668:	04710003 	ldrbteq	r0, [r1], #-3
    266c:	0000009f 	muleq	r0, pc, r0	; <UNPREDICTABLE>
    2670:	00000000 	andeq	r0, r0, r0
    2674:	d8000200 	stmdale	r0, {r9}
    2678:	e8000000 	stmda	r0, {}	; <UNPREDICTABLE>
    267c:	02000000 	andeq	r0, r0, #0, 0
    2680:	009f3100 	addseq	r3, pc, r0, lsl #2
    2684:	00000000 	andeq	r0, r0, r0
    2688:	04000000 	streq	r0, [r0], #-0
    268c:	54010000 	strpl	r0, [r1], #-0
    2690:	5c000097 	stcpl	0, cr0, [r0], {151}	; 0x97
    2694:	02000097 	andeq	r0, r0, #151, 0	; 0x97
    2698:	5c9f3000 	ldcpl	0, cr3, [pc], {0}
    269c:	5c000097 	stcpl	0, cr0, [r0], {151}	; 0x97
    26a0:	01000097 	swpeq	r0, r7, [r0]	; <UNPREDICTABLE>
    26a4:	00005300 	andeq	r5, r0, r0, lsl #6
    26a8:	00000000 	andeq	r0, r0, r0
    26ac:	00030000 	andeq	r0, r3, r0
    26b0:	00000000 	andeq	r0, r0, r0
    26b4:	97680000 	strbls	r0, [r8, -r0]!
    26b8:	976c0000 	strbls	r0, [ip, -r0]!
    26bc:	00020000 	andeq	r0, r2, r0
    26c0:	976c9f30 			; <UNDEFINED> instruction: 0x976c9f30
    26c4:	97700000 	ldrbls	r0, [r0, -r0]!
    26c8:	00010000 	andeq	r0, r1, r0
    26cc:	00977053 	addseq	r7, r7, r3, asr r0
    26d0:	00977400 	addseq	r7, r7, r0, lsl #8
    26d4:	73000500 	movwvc	r0, #1280	; 0x500
    26d8:	9f214000 	svcls	0x00214000
    26dc:	00009774 	andeq	r9, r0, r4, ror r7
    26e0:	00009778 	andeq	r9, r0, r8, ror r7
    26e4:	00530001 	subseq	r0, r3, r1
    26e8:	00000000 	andeq	r0, r0, r0
    26ec:	02000000 	andeq	r0, r0, #0, 0
    26f0:	28000000 	stmdacs	r0, {}	; <UNPREDICTABLE>
    26f4:	2c000097 	stccs	0, cr0, [r0], {151}	; 0x97
    26f8:	02000097 	andeq	r0, r0, #151, 0	; 0x97
    26fc:	2c9f3000 	ldccs	0, cr3, [pc], {0}
    2700:	30000097 	mulcc	r0, r7, r0
    2704:	01000097 	swpeq	r0, r7, [r0]	; <UNPREDICTABLE>
    2708:	00005000 	andeq	r5, r0, r0
    270c:	00000000 	andeq	r0, r0, r0
    2710:	00020000 	andeq	r0, r2, r0
    2714:	00000000 	andeq	r0, r0, r0
    2718:	97400000 	strbls	r0, [r0, -r0]
    271c:	97440000 	strbls	r0, [r4, -r0]
    2720:	00020000 	andeq	r0, r2, r0
    2724:	97449f30 	smlaldxls	r9, r4, r0, pc	; <UNPREDICTABLE>
    2728:	97480000 	strbls	r0, [r8, -r0]
    272c:	00010000 	andeq	r0, r1, r0
    2730:	00974853 	addseq	r4, r7, r3, asr r8
    2734:	00974c00 	addseq	r4, r7, r0, lsl #24
    2738:	73000500 	movwvc	r0, #1280	; 0x500
    273c:	9f214000 	svcls	0x00214000
    2740:	0000974c 	andeq	r9, r0, ip, asr #14
    2744:	00009754 	andeq	r9, r0, r4, asr r7
    2748:	00530001 	subseq	r0, r3, r1
	...
    2754:	c8000000 	stmdagt	r0, {}	; <UNPREDICTABLE>
    2758:	d8000000 	stmdale	r0, {}	; <UNPREDICTABLE>
    275c:	01000000 	mrseq	r0, (UNDEF: 0)
    2760:	00d85000 	sbcseq	r5, r8, r0
    2764:	011c0000 	tsteq	ip, r0
    2768:	00040000 	andeq	r0, r4, r0
    276c:	9f5001f3 	svcls	0x005001f3
	...
    2778:	00000002 	andeq	r0, r0, r2
    277c:	000000c8 	andeq	r0, r0, r8, asr #1
    2780:	000000d8 	ldrdeq	r0, [r0], -r8
    2784:	00700007 	rsbseq	r0, r0, r7
    2788:	1e03e80a 	cdpne	8, 0, cr14, cr3, cr10, {0}
    278c:	0000d89f 	muleq	r0, pc, r8	; <UNPREDICTABLE>
    2790:	00011c00 	andeq	r1, r1, r0, lsl #24
    2794:	f3000800 	vsub.i8	d0, d0, d0
    2798:	e80a5001 	stmda	sl, {r0, ip, lr}
    279c:	009f1e03 	addseq	r1, pc, r3, lsl #28
	...
    27a8:	0000dc00 	andeq	sp, r0, r0, lsl #24
    27ac:	00011c00 	andeq	r1, r1, r0, lsl #24
    27b0:	54000100 	strpl	r0, [r0], #-256	; 0xffffff00
	...
    27bc:	00f00001 	rscseq	r0, r0, r1
    27c0:	011c0000 	tsteq	ip, r0
    27c4:	00010000 	andeq	r0, r1, r0
    27c8:	00000056 	andeq	r0, r0, r6, asr r0
	...
    27d4:	0000ec00 	andeq	lr, r0, r0, lsl #24
    27d8:	0000ef00 	andeq	lr, r0, r0, lsl #30
    27dc:	50000100 	andpl	r0, r0, r0, lsl #2
    27e0:	000000ef 	andeq	r0, r0, pc, ror #1
    27e4:	0000011c 	andeq	r0, r0, ip, lsl r1
    27e8:	00560001 	subseq	r0, r6, r1
	...
    27f4:	00010400 	andeq	r0, r1, r0, lsl #8
    27f8:	00010b00 	andeq	r0, r1, r0, lsl #22
    27fc:	50000100 	andpl	r0, r0, r0, lsl #2
	...
    280c:	00000020 	andeq	r0, r0, r0, lsr #32
    2810:	00000023 	andeq	r0, r0, r3, lsr #32
    2814:	23500001 	cmpcs	r0, #1, 0
    2818:	30000000 	andcc	r0, r0, r0
    281c:	01000000 	mrseq	r0, (UNDEF: 0)
    2820:	00005400 	andeq	r5, r0, r0, lsl #8
	...
    282c:	00300000 	eorseq	r0, r0, r0
    2830:	003b0000 	eorseq	r0, fp, r0
    2834:	00010000 	andeq	r0, r1, r0
    2838:	00003b50 	andeq	r3, r0, r0, asr fp
    283c:	00007800 	andeq	r7, r0, r0, lsl #16
    2840:	56000100 	strpl	r0, [r0], -r0, lsl #2
	...
    284c:	004c0001 	subeq	r0, ip, r1
    2850:	00780000 	rsbseq	r0, r8, r0
    2854:	00010000 	andeq	r0, r1, r0
    2858:	00000055 	andeq	r0, r0, r5, asr r0
	...
    2864:	00004800 	andeq	r4, r0, r0, lsl #16
    2868:	00004b00 	andeq	r4, r0, r0, lsl #22
    286c:	50000100 	andpl	r0, r0, r0, lsl #2
    2870:	0000004b 	andeq	r0, r0, fp, asr #32
    2874:	00000078 	andeq	r0, r0, r8, ror r0
    2878:	00550001 	subseq	r0, r5, r1
	...
    2884:	00006000 	andeq	r6, r0, r0
    2888:	00006700 	andeq	r6, r0, r0, lsl #14
    288c:	50000100 	andpl	r0, r0, r0, lsl #2
	...
    289c:	00000078 	andeq	r0, r0, r8, ror r0
    28a0:	00000084 	andeq	r0, r0, r4, lsl #1
    28a4:	84500001 	ldrbhi	r0, [r0], #-1
    28a8:	c8000000 	stmdagt	r0, {}	; <UNPREDICTABLE>
    28ac:	04000000 	streq	r0, [r0], #-0
    28b0:	5001f300 	andpl	pc, r1, r0, lsl #6
    28b4:	0000009f 	muleq	r0, pc, r0	; <UNPREDICTABLE>
    28b8:	00000000 	andeq	r0, r0, r0
    28bc:	88000000 	stmdahi	r0, {}	; <UNPREDICTABLE>
    28c0:	c8000000 	stmdagt	r0, {}	; <UNPREDICTABLE>
    28c4:	01000000 	mrseq	r0, (UNDEF: 0)
    28c8:	00005400 	andeq	r5, r0, r0, lsl #8
    28cc:	00000000 	andeq	r0, r0, r0
    28d0:	00010000 	andeq	r0, r1, r0
    28d4:	0000009c 	muleq	r0, ip, r0
    28d8:	000000c8 	andeq	r0, r0, r8, asr #1
    28dc:	00560001 	subseq	r0, r6, r1
	...
    28e8:	98000000 	stmdals	r0, {}	; <UNPREDICTABLE>
    28ec:	9b000000 	blls	28f4 <__code_start__-0x570c>
    28f0:	01000000 	mrseq	r0, (UNDEF: 0)
    28f4:	009b5000 	addseq	r5, fp, r0
    28f8:	00c80000 	sbceq	r0, r8, r0
    28fc:	00010000 	andeq	r0, r1, r0
    2900:	00000056 	andeq	r0, r0, r6, asr r0
    2904:	00000000 	andeq	r0, r0, r0
    2908:	b0000000 	andlt	r0, r0, r0
    290c:	b7000000 	strlt	r0, [r0, -r0]
    2910:	01000000 	mrseq	r0, (UNDEF: 0)
    2914:	00005000 	andeq	r5, r0, r0
	...
    2920:	01580000 	cmpeq	r8, r0
    2924:	01630000 	cmneq	r3, r0
    2928:	00010000 	andeq	r0, r1, r0
    292c:	00016350 	andeq	r6, r1, r0, asr r3
    2930:	00018800 	andeq	r8, r1, r0, lsl #16
    2934:	54000100 	strpl	r0, [r0], #-256	; 0xffffff00
	...
    2940:	01480000 	mrseq	r0, (UNDEF: 72)
    2944:	01580000 	cmpeq	r8, r0
    2948:	00010000 	andeq	r0, r1, r0
    294c:	00000054 	andeq	r0, r0, r4, asr r0
	...
    295c:	00000f00 	andeq	r0, r0, r0, lsl #30
    2960:	50000100 	andpl	r0, r0, r0, lsl #2
    2964:	0000000f 	andeq	r0, r0, pc
    2968:	00000020 	andeq	r0, r0, r0, lsr #32
    296c:	00540001 	subseq	r0, r4, r1
	...
    297c:	0f000000 	svceq	0x00000000
    2980:	01000000 	mrseq	r0, (UNDEF: 0)
    2984:	000f5100 	andeq	r5, pc, r0, lsl #2
    2988:	00200000 	eoreq	r0, r0, r0
    298c:	00010000 	andeq	r0, r1, r0
    2990:	00000055 	andeq	r0, r0, r5, asr r0
	...
    299c:	00002000 	andeq	r2, r0, r0
    29a0:	00002f00 	andeq	r2, r0, r0, lsl #30
    29a4:	50000100 	andpl	r0, r0, r0, lsl #2
    29a8:	0000002f 	andeq	r0, r0, pc, lsr #32
    29ac:	00000040 	andeq	r0, r0, r0, asr #32
    29b0:	00540001 	subseq	r0, r4, r1
	...
    29bc:	20000000 	andcs	r0, r0, r0
    29c0:	2f000000 	svccs	0x00000000
    29c4:	01000000 	mrseq	r0, (UNDEF: 0)
    29c8:	002f5100 	eoreq	r5, pc, r0, lsl #2
    29cc:	00400000 	subeq	r0, r0, r0
    29d0:	00010000 	andeq	r0, r1, r0
    29d4:	00000055 	andeq	r0, r0, r5, asr r0
	...
    29e0:	50000000 	andpl	r0, r0, r0
    29e4:	98000003 	stmdals	r0, {r0, r1}
    29e8:	01000003 	tsteq	r0, r3
    29ec:	03985000 	orrseq	r5, r8, #0, 0
    29f0:	039b0000 	orrseq	r0, fp, #0, 0
    29f4:	00020000 	andeq	r0, r2, r0
    29f8:	039b6891 	orrseq	r6, fp, #9502720	; 0x910000
    29fc:	03b00000 	movseq	r0, #0, 0
    2a00:	00040000 	andeq	r0, r4, r0
    2a04:	9f5001f3 	svcls	0x005001f3
	...
    2a24:	00000220 	andeq	r0, r0, r0, lsr #4
    2a28:	0000027b 	andeq	r0, r0, fp, ror r2
    2a2c:	7b500001 	blvc	1402a38 <__bss_end__+0x13f7c50>
    2a30:	84000002 	strhi	r0, [r0], #-2
    2a34:	04000002 	streq	r0, [r0], #-2
    2a38:	5001f300 	andpl	pc, r1, r0, lsl #6
    2a3c:	0002849f 	muleq	r2, pc, r4	; <UNPREDICTABLE>
    2a40:	00029c00 	andeq	r9, r2, r0, lsl #24
    2a44:	50000100 	andpl	r0, r0, r0, lsl #2
    2a48:	0000029c 	muleq	r0, ip, r2
    2a4c:	000002a4 	andeq	r0, r0, r4, lsr #5
    2a50:	01f30004 	mvnseq	r0, r4
    2a54:	02a49f50 	adceq	r9, r4, #80, 30	; 0x140
    2a58:	02a70000 	adceq	r0, r7, #0, 0
    2a5c:	00010000 	andeq	r0, r1, r0
    2a60:	0002a750 	andeq	sl, r2, r0, asr r7
    2a64:	0002c800 	andeq	ip, r2, r0, lsl #16
    2a68:	f3000400 	vshl.u8	d0, d0, d0
    2a6c:	c89f5001 	ldmgt	pc, {r0, ip, lr}	; <UNPREDICTABLE>
    2a70:	e0000002 	and	r0, r0, r2
    2a74:	01000002 	tsteq	r0, r2
    2a78:	02e05000 	rsceq	r5, r0, #0, 0
    2a7c:	02e80000 	rsceq	r0, r8, #0, 0
    2a80:	00040000 	andeq	r0, r4, r0
    2a84:	9f5001f3 	svcls	0x005001f3
    2a88:	000002e8 	andeq	r0, r0, r8, ror #5
    2a8c:	000002eb 	andeq	r0, r0, fp, ror #5
    2a90:	eb500001 	bl	1402a9c <__bss_end__+0x13f7cb4>
    2a94:	38000002 	stmdacc	r0, {r1}
    2a98:	04000003 	streq	r0, [r0], #-3
    2a9c:	5001f300 	andpl	pc, r1, r0, lsl #6
    2aa0:	0000009f 	muleq	r0, pc, r0	; <UNPREDICTABLE>
	...
    2abc:	00022000 	andeq	r2, r2, r0
    2ac0:	00024400 	andeq	r4, r2, r0, lsl #8
    2ac4:	51000100 	mrspl	r0, (UNDEF: 16)
    2ac8:	00000244 	andeq	r0, r0, r4, asr #4
    2acc:	00000268 	andeq	r0, r0, r8, ror #4
    2ad0:	68510001 	ldmdavs	r1, {r0}^
    2ad4:	7b000002 	blvc	2ae4 <__code_start__-0x551c>
    2ad8:	03000002 	movweq	r0, #2
    2adc:	9f017100 	svcls	0x00017100
    2ae0:	0000027b 	andeq	r0, r0, fp, ror r2
    2ae4:	00000284 	andeq	r0, r0, r4, lsl #5
    2ae8:	f3380017 	vqadd.u64	d0, d8, d7
    2aec:	01f35101 	mvnseq	r5, r1, lsl #2
    2af0:	244b4051 	strbcs	r4, [fp], #-81	; 0xffffffaf
    2af4:	00080c22 	andeq	r0, r8, r2, lsr #24
    2af8:	282d8000 	stmdacs	sp!, {pc}
    2afc:	13160001 	tstne	r6, #1, 0
    2b00:	0002849f 	muleq	r2, pc, r4	; <UNPREDICTABLE>
    2b04:	00029800 	andeq	r9, r2, r0, lsl #16
    2b08:	51000100 	mrspl	r0, (UNDEF: 16)
    2b0c:	00000298 	muleq	r0, r8, r2
    2b10:	000002a4 	andeq	r0, r0, r4, lsr #5
    2b14:	01f30004 	mvnseq	r0, r4
    2b18:	02a49f51 	adceq	r9, r4, #324	; 0x144
    2b1c:	02a70000 	adceq	r0, r7, #0, 0
    2b20:	00010000 	andeq	r0, r1, r0
    2b24:	0002a751 	andeq	sl, r2, r1, asr r7
    2b28:	0002c800 	andeq	ip, r2, r0, lsl #16
    2b2c:	f3000400 	vshl.u8	d0, d0, d0
    2b30:	c89f5101 	ldmgt	pc, {r0, r8, ip, lr}	; <UNPREDICTABLE>
    2b34:	dc000002 	stcle	0, cr0, [r0], {2}
    2b38:	01000002 	tsteq	r0, r2
    2b3c:	02dc5100 	sbcseq	r5, ip, #0
    2b40:	03380000 	teqeq	r8, #0, 0
    2b44:	00170000 	andseq	r0, r7, r0
    2b48:	5101f338 	tstpl	r1, r8, lsr r3	; <UNPREDICTABLE>
    2b4c:	405101f3 	ldrshmi	r0, [r1], #-19	; 0xffffffed
    2b50:	0c22244b 	cfstrseq	mvf2, [r2], #-300	; 0xfffffed4
    2b54:	80000008 	andhi	r0, r0, r8
    2b58:	0001282d 	andeq	r2, r1, sp, lsr #16
    2b5c:	009f1316 	addseq	r1, pc, r6, lsl r3	; <UNPREDICTABLE>
	...
    2b70:	4c000000 	stcmi	0, cr0, [r0], {-0}
    2b74:	5c000002 	stcpl	0, cr0, [r0], {2}
    2b78:	01000002 	tsteq	r0, r2
    2b7c:	025c5200 	subseq	r5, ip, #0, 4
    2b80:	02640000 	rsbeq	r0, r4, #0, 0
    2b84:	00050000 	andeq	r0, r5, r0
    2b88:	00a9b003 	adceq	fp, r9, r3
    2b8c:	00026400 	andeq	r6, r2, r0, lsl #8
    2b90:	00027b00 	andeq	r7, r2, r0, lsl #22
    2b94:	53000100 	movwpl	r0, #256	; 0x100
    2b98:	000002c8 	andeq	r0, r0, r8, asr #5
    2b9c:	000002d8 	ldrdeq	r0, [r0], -r8
    2ba0:	d8520001 	ldmdale	r2, {r0}^
    2ba4:	e3000002 	movw	r0, #2
    2ba8:	05000002 	streq	r0, [r0, #-2]
    2bac:	a9b00300 	ldmibge	r0!, {r8, r9}
    2bb0:	02e80000 	rsceq	r0, r8, #0, 0
    2bb4:	02eb0000 	rsceq	r0, fp, #0, 0
    2bb8:	00010000 	andeq	r0, r1, r0
    2bbc:	00000053 	andeq	r0, r0, r3, asr r0
    2bc0:	00000000 	andeq	r0, r0, r0
    2bc4:	30000400 	andcc	r0, r0, r0, lsl #8
    2bc8:	34000002 	strcc	r0, [r0], #-2
    2bcc:	01000002 	tsteq	r0, r2
    2bd0:	00005100 	andeq	r5, r0, r0, lsl #2
    2bd4:	00000000 	andeq	r0, r0, r0
    2bd8:	00020000 	andeq	r0, r2, r0
    2bdc:	0000023c 	andeq	r0, r0, ip, lsr r2
    2be0:	00000244 	andeq	r0, r0, r4, asr #4
    2be4:	9f380002 	svcls	0x00380002
	...
    2bf0:	023c0002 	eorseq	r0, ip, #2, 0
    2bf4:	02440000 	subeq	r0, r4, #0, 0
    2bf8:	00010000 	andeq	r0, r1, r0
    2bfc:	00000051 	andeq	r0, r0, r1, asr r0
    2c00:	00000000 	andeq	r0, r0, r0
    2c04:	00000100 	andeq	r0, r0, r0, lsl #2
    2c08:	4c000000 	stcmi	0, cr0, [r0], {-0}
    2c0c:	64000002 	strvs	r0, [r0], #-2
    2c10:	01000002 	tsteq	r0, r2
    2c14:	02c85100 	sbceq	r5, r8, #0
    2c18:	02dc0000 	sbcseq	r0, ip, #0, 0
    2c1c:	00010000 	andeq	r0, r1, r0
    2c20:	0002dc51 	andeq	sp, r2, r1, asr ip
    2c24:	0002e800 	andeq	lr, r2, r0, lsl #16
    2c28:	38001700 	stmdacc	r0, {r8, r9, sl, ip}
    2c2c:	f35101f3 	vbsl	q8, <illegal reg q8.5>, <illegal reg q9.5>
    2c30:	4b405101 	blmi	101703c <__bss_end__+0x100c254>
    2c34:	080c2224 	stmdaeq	ip, {r2, r5, r9, sp}
    2c38:	2d800000 	stccs	0, cr0, [r0]
    2c3c:	16000128 	strne	r0, [r0], -r8, lsr #2
    2c40:	00009f13 	andeq	r9, r0, r3, lsl pc
    2c44:	00000000 	andeq	r0, r0, r0
    2c48:	00010000 	andeq	r0, r1, r0
    2c4c:	00000000 	andeq	r0, r0, r0
    2c50:	024c0000 	subeq	r0, ip, #0, 0
    2c54:	025c0000 	subseq	r0, ip, #0, 0
    2c58:	00010000 	andeq	r0, r1, r0
    2c5c:	00025c52 	andeq	r5, r2, r2, asr ip
    2c60:	00026400 	andeq	r6, r2, r0, lsl #8
    2c64:	03000500 	movweq	r0, #1280	; 0x500
    2c68:	0000a9b0 			; <UNDEFINED> instruction: 0x0000a9b0
    2c6c:	000002c8 	andeq	r0, r0, r8, asr #5
    2c70:	000002d8 	ldrdeq	r0, [r0], -r8
    2c74:	d8520001 	ldmdale	r2, {r0}^
    2c78:	e3000002 	movw	r0, #2
    2c7c:	05000002 	streq	r0, [r0, #-2]
    2c80:	a9b00300 	ldmibge	r0!, {r8, r9}
	...
    2c8c:	00040000 	andeq	r0, r4, r0
    2c90:	0000024c 	andeq	r0, r0, ip, asr #4
    2c94:	00000250 	andeq	r0, r0, r0, asr r2
    2c98:	00510001 	subseq	r0, r1, r1
    2c9c:	00000000 	andeq	r0, r0, r0
    2ca0:	03000000 	movweq	r0, #0
    2ca4:	00026400 	andeq	r6, r2, r0, lsl #8
    2ca8:	00026800 	andeq	r6, r2, r0, lsl #16
    2cac:	51000100 	mrspl	r0, (UNDEF: 16)
	...
    2cb8:	02640003 	rsbeq	r0, r4, #3, 0
    2cbc:	02680000 	rsbeq	r0, r8, #0, 0
    2cc0:	00010000 	andeq	r0, r1, r0
    2cc4:	00000053 	andeq	r0, r0, r3, asr r0
	...
    2cd4:	0001bc00 	andeq	fp, r1, r0, lsl #24
    2cd8:	0001d300 	andeq	sp, r1, r0, lsl #6
    2cdc:	50000100 	andpl	r0, r0, r0, lsl #2
    2ce0:	000001d3 	ldrdeq	r0, [r0], -r3
    2ce4:	000001f0 	strdeq	r0, [r0], -r0	; <UNPREDICTABLE>
    2ce8:	f0540001 			; <UNDEFINED> instruction: 0xf0540001
    2cec:	08000001 	stmdaeq	r0, {r0}
    2cf0:	01000002 	tsteq	r0, r2
    2cf4:	02085000 	andeq	r5, r8, #0, 0
    2cf8:	02200000 	eoreq	r0, r0, #0, 0
    2cfc:	00010000 	andeq	r0, r1, r0
    2d00:	00000054 	andeq	r0, r0, r4, asr r0
	...
    2d0c:	0001d800 	andeq	sp, r1, r0, lsl #16
    2d10:	0001e300 	andeq	lr, r1, r0, lsl #6
    2d14:	50000100 	andpl	r0, r0, r0, lsl #2
    2d18:	000001e3 	andeq	r0, r0, r3, ror #3
    2d1c:	000001f0 	strdeq	r0, [r0], -r0	; <UNPREDICTABLE>
    2d20:	00550001 	subseq	r0, r5, r1
	...
    2d38:	24000000 	strcs	r0, [r0], #-0
    2d3c:	38000001 	stmdacc	r0, {r0}
    2d40:	01000001 	tsteq	r0, r1
    2d44:	01385000 	teqeq	r8, r0
    2d48:	013c0000 	teqeq	ip, r0
    2d4c:	00030000 	andeq	r0, r3, r0
    2d50:	3c9f7970 			; <UNDEFINED> instruction: 0x3c9f7970
    2d54:	60000001 	andvs	r0, r0, r1
    2d58:	01000001 	tsteq	r0, r1
    2d5c:	01605300 	cmneq	r0, r0, lsl #6
    2d60:	01780000 	cmneq	r8, r0
    2d64:	00010000 	andeq	r0, r1, r0
    2d68:	00017850 	andeq	r7, r1, r0, asr r8
    2d6c:	00018000 	andeq	r8, r1, r0
    2d70:	f3000400 	vshl.u8	d0, d0, d0
    2d74:	809f5001 	addshi	r5, pc, r1
    2d78:	90000001 	andls	r0, r0, r1
    2d7c:	01000001 	tsteq	r0, r1
    2d80:	01905300 	orrseq	r5, r0, r0, lsl #6
    2d84:	019f0000 	orrseq	r0, pc, r0
    2d88:	00020000 	andeq	r0, r2, r0
    2d8c:	019f6891 			; <UNDEFINED> instruction: 0x019f6891
    2d90:	01bc0000 			; <UNDEFINED> instruction: 0x01bc0000
    2d94:	00090000 	andeq	r0, r9, r0
    2d98:	235001f3 	cmpcs	r0, #-1073741764	; 0xc000003c
    2d9c:	1af80907 	bne	ffe051c0 <__bss_end__+0xffdfa3d8>
    2da0:	0000009f 	muleq	r0, pc, r0	; <UNPREDICTABLE>
	...
    2dac:	00014400 	andeq	r4, r1, r0, lsl #8
    2db0:	00016000 	andeq	r6, r1, r0
    2db4:	50000100 	andpl	r0, r0, r0, lsl #2
    2db8:	00000180 	andeq	r0, r0, r0, lsl #3
    2dbc:	0000019c 	muleq	r0, ip, r1
    2dc0:	00500001 	subseq	r0, r0, r1
    2dc4:	00000000 	andeq	r0, r0, r0
    2dc8:	03000000 	movweq	r0, #0
    2dcc:	00013400 	andeq	r3, r1, r0, lsl #8
    2dd0:	00013c00 	andeq	r3, r1, r0, lsl #24
    2dd4:	38000200 	stmdacc	r0, {r9}
    2dd8:	0000009f 	muleq	r0, pc, r0	; <UNPREDICTABLE>
    2ddc:	00000000 	andeq	r0, r0, r0
    2de0:	00000300 	andeq	r0, r0, r0, lsl #6
    2de4:	00013400 	andeq	r3, r1, r0, lsl #8
    2de8:	00013800 	andeq	r3, r1, r0, lsl #16
    2dec:	50000100 	andpl	r0, r0, r0, lsl #2
    2df0:	00000138 	andeq	r0, r0, r8, lsr r1
    2df4:	0000013c 	andeq	r0, r0, ip, lsr r1
    2df8:	79700003 	ldmdbvc	r0!, {r0, r1}^
    2dfc:	0000009f 	muleq	r0, pc, r0	; <UNPREDICTABLE>
	...
    2e10:	30000000 	andcc	r0, r0, r0
    2e14:	60000000 	andvs	r0, r0, r0
    2e18:	01000000 	mrseq	r0, (UNDEF: 0)
    2e1c:	00605000 	rsbeq	r5, r0, r0
    2e20:	006c0000 	rsbeq	r0, ip, r0
    2e24:	00050000 	andeq	r0, r5, r0
    2e28:	00a9b003 	adceq	fp, r9, r3
    2e2c:	00006c00 	andeq	r6, r0, r0, lsl #24
    2e30:	00008400 	andeq	r8, r0, r0, lsl #8
    2e34:	50000100 	andpl	r0, r0, r0, lsl #2
    2e38:	00000084 	andeq	r0, r0, r4, lsl #1
    2e3c:	0000008c 	andeq	r0, r0, ip, lsl #1
    2e40:	01f30004 	mvnseq	r0, r4
    2e44:	008c9f50 	addeq	r9, ip, r0, asr pc
    2e48:	00ac0000 	adceq	r0, ip, r0
    2e4c:	00010000 	andeq	r0, r1, r0
    2e50:	0000ac50 	andeq	sl, r0, r0, asr ip
    2e54:	0000af00 	andeq	sl, r0, r0, lsl #30
    2e58:	91000200 	mrsls	r0, R8_usr
    2e5c:	0000af68 	andeq	sl, r0, r8, ror #30
    2e60:	0000cc00 	andeq	ip, r0, r0, lsl #24
    2e64:	f3000400 	vshl.u8	d0, d0, d0
    2e68:	009f5001 	addseq	r5, pc, r1
	...
    2e78:	30000000 	andcc	r0, r0, r0
    2e7c:	80000000 	andhi	r0, r0, r0
    2e80:	01000000 	mrseq	r0, (UNDEF: 0)
    2e84:	00805100 	addeq	r5, r0, r0, lsl #2
    2e88:	008c0000 	addeq	r0, ip, r0
    2e8c:	00040000 	andeq	r0, r4, r0
    2e90:	9f5101f3 	svcls	0x005101f3
    2e94:	0000008c 	andeq	r0, r0, ip, lsl #1
    2e98:	000000a8 	andeq	r0, r0, r8, lsr #1
    2e9c:	a8510001 	ldmdage	r1, {r0}^
    2ea0:	cc000000 	stcgt	0, cr0, [r0], {-0}
    2ea4:	04000000 	streq	r0, [r0], #-0
    2ea8:	5101f300 	mrspl	pc, SP_irq	; <UNPREDICTABLE>
    2eac:	0000009f 	muleq	r0, pc, r0	; <UNPREDICTABLE>
    2eb0:	00000000 	andeq	r0, r0, r0
    2eb4:	00000100 	andeq	r0, r0, r0, lsl #2
	...
    2ec0:	38000000 	stmdacc	r0, {}	; <UNPREDICTABLE>
    2ec4:	60000000 	andvs	r0, r0, r0
    2ec8:	01000000 	mrseq	r0, (UNDEF: 0)
    2ecc:	00605000 	rsbeq	r5, r0, r0
    2ed0:	006c0000 	rsbeq	r0, ip, r0
    2ed4:	00050000 	andeq	r0, r5, r0
    2ed8:	00a9b003 	adceq	fp, r9, r3
    2edc:	00006c00 	andeq	r6, r0, r0, lsl #24
    2ee0:	00008400 	andeq	r8, r0, r0, lsl #8
    2ee4:	50000100 	andpl	r0, r0, r0, lsl #2
    2ee8:	00000084 	andeq	r0, r0, r4, lsl #1
    2eec:	0000008c 	andeq	r0, r0, ip, lsl #1
    2ef0:	01f30004 	mvnseq	r0, r4
    2ef4:	008c9f50 	addeq	r9, ip, r0, asr pc
    2ef8:	00ac0000 	adceq	r0, ip, r0
    2efc:	00010000 	andeq	r0, r1, r0
    2f00:	0000ac50 	andeq	sl, r0, r0, asr ip
    2f04:	0000af00 	andeq	sl, r0, r0, lsl #30
    2f08:	91000200 	mrsls	r0, R8_usr
    2f0c:	0000af68 	andeq	sl, r0, r8, ror #30
    2f10:	0000cc00 	andeq	ip, r0, r0, lsl #24
    2f14:	f3000400 	vshl.u8	d0, d0, d0
    2f18:	009f5001 	addseq	r5, pc, r1
	...
    2f28:	00017000 	andeq	r7, r1, r0
    2f2c:	00017c00 	andeq	r7, r1, r0, lsl #24
    2f30:	50000100 	andpl	r0, r0, r0, lsl #2
    2f34:	0000017c 	andeq	r0, r0, ip, ror r1
    2f38:	00000188 	andeq	r0, r0, r8, lsl #3
    2f3c:	88540001 	ldmdahi	r4, {r0}^
    2f40:	98000001 	stmdals	r0, {r0}
    2f44:	04000001 	streq	r0, [r0], #-1
    2f48:	5001f300 	andpl	pc, r1, r0, lsl #6
    2f4c:	0000009f 	muleq	r0, pc, r0	; <UNPREDICTABLE>
	...
    2f5c:	78000000 	stmdavc	r0, {}	; <UNPREDICTABLE>
    2f60:	7c000001 	stcvc	0, cr0, [r0], {1}
    2f64:	0b000001 	bleq	2f70 <__code_start__-0x5090>
    2f68:	35007000 	strcc	r7, [r0, #-0]
    2f6c:	80b42325 	adcshi	r2, r4, r5, lsr #6
    2f70:	9f028180 	svcls	0x00028180
    2f74:	0000017c 	andeq	r0, r0, ip, ror r1
    2f78:	00000180 	andeq	r0, r0, r0, lsl #3
    2f7c:	0074000b 	rsbseq	r0, r4, fp
    2f80:	b4232535 	strtlt	r2, [r3], #-1333	; 0xfffffacb
    2f84:	02818080 	addeq	r8, r1, #128, 0	; 0x80
    2f88:	0001809f 	muleq	r1, pc, r0	; <UNPREDICTABLE>
    2f8c:	00018300 	andeq	r8, r1, r0, lsl #6
    2f90:	50000100 	andpl	r0, r0, r0, lsl #2
    2f94:	00000183 	andeq	r0, r0, r3, lsl #3
    2f98:	00000188 	andeq	r0, r0, r8, lsl #3
    2f9c:	0074000b 	rsbseq	r0, r4, fp
    2fa0:	b4232535 	strtlt	r2, [r3], #-1333	; 0xfffffacb
    2fa4:	02818080 	addeq	r8, r1, #128, 0	; 0x80
    2fa8:	0001889f 	muleq	r1, pc, r8	; <UNPREDICTABLE>
    2fac:	00019800 	andeq	r9, r1, r0, lsl #16
    2fb0:	f3000c00 			; <UNDEFINED> instruction: 0xf3000c00
    2fb4:	25355001 	ldrcs	r5, [r5, #-1]!
    2fb8:	8080b423 	addhi	fp, r0, r3, lsr #8
    2fbc:	009f0281 	addseq	r0, pc, r1, lsl #5
    2fc0:	00000000 	andeq	r0, r0, r0
    2fc4:	01000000 	mrseq	r0, (UNDEF: 0)
    2fc8:	00000000 	andeq	r0, r0, r0
    2fcc:	00017800 	andeq	r7, r1, r0, lsl #16
    2fd0:	00017c00 	andeq	r7, r1, r0, lsl #24
    2fd4:	70000500 	andvc	r0, r0, r0, lsl #10
    2fd8:	9f1a4f00 	svcls	0x001a4f00
    2fdc:	0000017c 	andeq	r0, r0, ip, ror r1
    2fe0:	00000188 	andeq	r0, r0, r8, lsl #3
    2fe4:	00740005 	rsbseq	r0, r4, r5
    2fe8:	889f1a4f 	ldmhi	pc, {r0, r1, r2, r3, r6, r9, fp, ip}	; <UNPREDICTABLE>
    2fec:	98000001 	stmdals	r0, {r0}
    2ff0:	01000001 	tsteq	r0, r1
    2ff4:	00005400 	andeq	r5, r0, r0, lsl #8
	...
    3008:	01400000 	mrseq	r0, (UNDEF: 64)
    300c:	01540000 	cmpeq	r4, r0
    3010:	00010000 	andeq	r0, r1, r0
    3014:	00015450 	andeq	r5, r1, r0, asr r4
    3018:	00015800 	andeq	r5, r1, r0, lsl #16
    301c:	51000100 	mrspl	r0, (UNDEF: 16)
    3020:	00000158 	andeq	r0, r0, r8, asr r1
    3024:	0000015c 	andeq	r0, r0, ip, asr r1
    3028:	01f30004 	mvnseq	r0, r4
    302c:	015c9f50 	cmpeq	ip, r0, asr pc
    3030:	01600000 	cmneq	r0, r0
    3034:	00010000 	andeq	r0, r1, r0
    3038:	00016050 	andeq	r6, r1, r0, asr r0
    303c:	00016400 	andeq	r6, r1, r0, lsl #8
    3040:	51000100 	mrspl	r0, (UNDEF: 16)
    3044:	00000164 	andeq	r0, r0, r4, ror #2
    3048:	00000170 	andeq	r0, r0, r0, ror r1
    304c:	01f30004 	mvnseq	r0, r4
    3050:	00009f50 	andeq	r9, r0, r0, asr pc
	...
    305c:	01400000 	mrseq	r0, (UNDEF: 64)
    3060:	014c0000 	mrseq	r0, (UNDEF: 76)
    3064:	00010000 	andeq	r0, r1, r0
    3068:	00014c51 	andeq	r4, r1, r1, asr ip
    306c:	00017000 	andeq	r7, r1, r0
    3070:	f3000400 	vshl.u8	d0, d0, d0
    3074:	009f5101 	addseq	r5, pc, r1, lsl #2
    3078:	00000000 	andeq	r0, r0, r0
    307c:	01000000 	mrseq	r0, (UNDEF: 0)
    3080:	00000000 	andeq	r0, r0, r0
    3084:	00015000 	andeq	r5, r1, r0
    3088:	00015400 	andeq	r5, r1, r0, lsl #8
    308c:	50000100 	andpl	r0, r0, r0, lsl #2
    3090:	00000154 	andeq	r0, r0, r4, asr r1
    3094:	00000158 	andeq	r0, r0, r8, asr r1
    3098:	58510001 	ldmdapl	r1, {r0}^
    309c:	5c000001 	stcpl	0, cr0, [r0], {1}
    30a0:	04000001 	streq	r0, [r0], #-1
    30a4:	5001f300 	andpl	pc, r1, r0, lsl #6
    30a8:	0000009f 	muleq	r0, pc, r0	; <UNPREDICTABLE>
    30ac:	00000000 	andeq	r0, r0, r0
    30b0:	00000200 	andeq	r0, r0, r0, lsl #4
    30b4:	5c000000 	stcpl	0, cr0, [r0], {-0}
    30b8:	60000001 	andvs	r0, r0, r1
    30bc:	01000001 	tsteq	r0, r1
    30c0:	01605000 	cmneq	r0, r0
    30c4:	01640000 	cmneq	r4, r0
    30c8:	00010000 	andeq	r0, r1, r0
    30cc:	00016451 	andeq	r6, r1, r1, asr r4
    30d0:	00017000 	andeq	r7, r1, r0
    30d4:	f3000400 	vshl.u8	d0, d0, d0
    30d8:	009f5001 	addseq	r5, pc, r1
	...
    30e8:	0000e800 	andeq	lr, r0, r0, lsl #16
    30ec:	00010800 	andeq	r0, r1, r0, lsl #16
    30f0:	50000100 	andpl	r0, r0, r0, lsl #2
    30f4:	00000108 	andeq	r0, r0, r8, lsl #2
    30f8:	00000128 	andeq	r0, r0, r8, lsr #2
    30fc:	28540001 	ldmdacs	r4, {r0}^
    3100:	40000001 	andmi	r0, r0, r1
    3104:	04000001 	streq	r0, [r0], #-1
    3108:	5001f300 	andpl	pc, r1, r0, lsl #6
    310c:	0000009f 	muleq	r0, pc, r0	; <UNPREDICTABLE>
    3110:	00000000 	andeq	r0, r0, r0
    3114:	00000200 	andeq	r0, r0, r0, lsl #4
    3118:	e8000000 	stmda	r0, {}	; <UNPREDICTABLE>
    311c:	08000000 	stmdaeq	r0, {}	; <UNPREDICTABLE>
    3120:	01000001 	tsteq	r0, r1
    3124:	01085000 	mrseq	r5, (UNDEF: 8)
    3128:	01280000 			; <UNDEFINED> instruction: 0x01280000
    312c:	00010000 	andeq	r0, r1, r0
    3130:	00012854 	andeq	r2, r1, r4, asr r8
    3134:	00014000 	andeq	r4, r1, r0
    3138:	f3000400 	vshl.u8	d0, d0, d0
    313c:	009f5001 	addseq	r5, pc, r1
	...
    314c:	0000f000 	andeq	pc, r0, r0
    3150:	00010800 	andeq	r0, r1, r0, lsl #16
    3154:	50000100 	andpl	r0, r0, r0, lsl #2
    3158:	00000108 	andeq	r0, r0, r8, lsl #2
    315c:	00000128 	andeq	r0, r0, r8, lsr #2
    3160:	28540001 	ldmdacs	r4, {r0}^
    3164:	40000001 	andmi	r0, r0, r1
    3168:	04000001 	streq	r0, [r0], #-1
    316c:	5001f300 	andpl	pc, r1, r0, lsl #6
    3170:	0000009f 	muleq	r0, pc, r0	; <UNPREDICTABLE>
    3174:	00000000 	andeq	r0, r0, r0
    3178:	00000300 	andeq	r0, r0, r0, lsl #6
    317c:	f0000000 			; <UNDEFINED> instruction: 0xf0000000
    3180:	08000000 	stmdaeq	r0, {}	; <UNPREDICTABLE>
    3184:	07000001 	streq	r0, [r0, -r1]
    3188:	3a007000 	bcc	1f190 <__bss_end__+0x143a8>
    318c:	9f1e331d 	svcls	0x001e331d
    3190:	00000108 	andeq	r0, r0, r8, lsl #2
    3194:	00000128 	andeq	r0, r0, r8, lsr #2
    3198:	00740007 	rsbseq	r0, r4, r7
    319c:	1e331d3a 	mrcne	13, 1, r1, cr3, cr10, {1}
    31a0:	0001289f 	muleq	r1, pc, r8	; <UNPREDICTABLE>
    31a4:	00014000 	andeq	r4, r1, r0
    31a8:	f3000800 	vsub.i8	d0, d0, d0
    31ac:	1d3a5001 	ldcne	0, cr5, [sl, #-4]!
    31b0:	009f1e33 	addseq	r1, pc, r3, lsr lr	; <UNPREDICTABLE>
	...
    31c0:	00011000 	andeq	r1, r1, r0
    31c4:	00013800 	andeq	r3, r1, r0, lsl #16
    31c8:	56000100 	strpl	r0, [r0], -r0, lsl #2
    31cc:	00000138 	andeq	r0, r0, r8, lsr r1
    31d0:	0000013b 	andeq	r0, r0, fp, lsr r1
    31d4:	3b500001 	blcc	14031e0 <__bss_end__+0x13f83f8>
    31d8:	40000001 	andmi	r0, r0, r1
    31dc:	26000001 	strcs	r0, [r0], -r1
    31e0:	5001f300 	andpl	pc, r1, r0, lsl #6
    31e4:	25f72cf7 	ldrbcs	r2, [r7, #3319]!	; 0xcf7
    31e8:	cd0825f4 	cfstr32gt	mvfx2, [r8, #-976]	; 0xfffffc30
    31ec:	00cccccc 	sbceq	ip, ip, ip, asr #25
    31f0:	1e000000 	cdpne	0, 0, cr0, cr0, cr0, {0}
    31f4:	25f72008 	ldrbcs	r2, [r7, #8]!
    31f8:	f72cf725 			; <UNDEFINED> instruction: 0xf72cf725
    31fc:	23253300 			; <UNDEFINED> instruction: 0x23253300
    3200:	40a08080 	adcmi	r8, r0, r0, lsl #1
    3204:	009f2432 	addseq	r2, pc, r2, lsr r4	; <UNPREDICTABLE>
	...
    3210:	00000101 	andeq	r0, r0, r1, lsl #2
    3214:	20000000 	andcs	r0, r0, r0
    3218:	20000001 	andcs	r0, r0, r1
    321c:	01000001 	tsteq	r0, r1
    3220:	01205000 			; <UNDEFINED> instruction: 0x01205000
    3224:	01280000 			; <UNDEFINED> instruction: 0x01280000
    3228:	000d0000 	andeq	r0, sp, r0
    322c:	3a007437 	bcc	20310 <__bss_end__+0x15528>
    3230:	241e331d 	ldrcs	r3, [lr], #-797	; 0xfffffce3
    3234:	1a007020 	bne	1f2bc <__bss_end__+0x144d4>
    3238:	0001289f 	muleq	r1, pc, r8	; <UNPREDICTABLE>
    323c:	00013000 	andeq	r3, r1, r0
    3240:	37000e00 	strcc	r0, [r0, -r0, lsl #28]
    3244:	3a5001f3 	bcc	1403a18 <__bss_end__+0x13f8c30>
    3248:	241e331d 	ldrcs	r3, [lr], #-797	; 0xfffffce3
    324c:	1a007020 	bne	1f2d4 <__bss_end__+0x144ec>
    3250:	0001309f 	muleq	r1, pc, r0	; <UNPREDICTABLE>
    3254:	00013b00 	andeq	r3, r1, r0, lsl #22
    3258:	37000e00 	strcc	r0, [r0, -r0, lsl #28]
    325c:	3a5001f3 	bcc	1403a30 <__bss_end__+0x13f8c48>
    3260:	241e331d 	ldrcs	r3, [lr], #-797	; 0xfffffce3
    3264:	1a007320 	bne	1feec <__bss_end__+0x15104>
    3268:	0000009f 	muleq	r0, pc, r0	; <UNPREDICTABLE>
	...
    3274:	00006000 	andeq	r6, r0, r0
    3278:	00009000 	andeq	r9, r0, r0
    327c:	50000100 	andpl	r0, r0, r0, lsl #2
    3280:	00000090 	muleq	r0, r0, r0
    3284:	000000b8 	strheq	r0, [r0], -r8
    3288:	01f30004 	mvnseq	r0, r4
    328c:	00009f50 	andeq	r9, r0, r0, asr pc
    3290:	00000000 	andeq	r0, r0, r0
    3294:	00020000 	andeq	r0, r2, r0
    3298:	00600000 	rsbeq	r0, r0, r0
    329c:	00900000 	addseq	r0, r0, r0
    32a0:	00010000 	andeq	r0, r1, r0
    32a4:	00009050 	andeq	r9, r0, r0, asr r0
    32a8:	0000b800 	andeq	fp, r0, r0, lsl #16
    32ac:	f3000400 	vshl.u8	d0, d0, d0
    32b0:	009f5001 	addseq	r5, pc, r1
	...
    32bc:	68000000 	stmdavs	r0, {}	; <UNPREDICTABLE>
    32c0:	90000000 	andls	r0, r0, r0
    32c4:	01000000 	mrseq	r0, (UNDEF: 0)
    32c8:	00905000 	addseq	r5, r0, r0
    32cc:	00b80000 	adcseq	r0, r8, r0
    32d0:	00040000 	andeq	r0, r4, r0
    32d4:	9f5001f3 	svcls	0x005001f3
	...
    32e4:	000000a0 	andeq	r0, r0, r0, lsr #1
    32e8:	000000b0 	strheq	r0, [r0], -r0	; <UNPREDICTABLE>
    32ec:	b0540001 	subslt	r0, r4, r1
    32f0:	b8000000 	stmdalt	r0, {}	; <UNPREDICTABLE>
    32f4:	29000000 	stmdbcs	r0, {}	; <UNPREDICTABLE>
    32f8:	5001f300 	andpl	pc, r1, r0, lsl #6
    32fc:	f75001f3 			; <UNDEFINED> instruction: 0xf75001f3
    3300:	f425f72c 	vld1.8	{d15}, [r5 :128], ip
    3304:	cccd0825 	stclgt	8, cr0, [sp], {37}	; 0x25
    3308:	0000cccc 	andeq	ip, r0, ip, asr #25
    330c:	081e0000 	ldmdaeq	lr, {}	; <UNPREDICTABLE>
    3310:	2525f720 	strcs	pc, [r5, #-1824]!	; 0xfffff8e0
    3314:	00f72cf7 	ldrshteq	r2, [r7], #199	; 0xc7
    3318:	1e352533 	mrcne	5, 1, r2, cr5, cr3, {1}
    331c:	331c2431 	tstcc	ip, #822083584	; 0x31000000
    3320:	00009f1e 	andeq	r9, r0, lr, lsl pc
    3324:	00000000 	andeq	r0, r0, r0
    3328:	00010000 	andeq	r0, r1, r0
    332c:	00000000 	andeq	r0, r0, r0
    3330:	000000a0 	andeq	r0, r0, r0, lsr #1
    3334:	000000b0 	strheq	r0, [r0], -r0	; <UNPREDICTABLE>
    3338:	b0550001 	subslt	r0, r5, r1
    333c:	b3000000 	movwlt	r0, #0
    3340:	01000000 	mrseq	r0, (UNDEF: 0)
    3344:	00b35000 	adcseq	r5, r3, r0
    3348:	00b80000 	adcseq	r0, r8, r0
    334c:	00260000 	eoreq	r0, r6, r0
    3350:	f75001f3 			; <UNDEFINED> instruction: 0xf75001f3
    3354:	f425f72c 	vld1.8	{d15}, [r5 :128], ip
    3358:	cccd0825 	stclgt	8, cr0, [sp], {37}	; 0x25
    335c:	0000cccc 	andeq	ip, r0, ip, asr #25
    3360:	081e0000 	ldmdaeq	lr, {}	; <UNPREDICTABLE>
    3364:	2525f720 	strcs	pc, [r5, #-1824]!	; 0xfffff8e0
    3368:	00f72cf7 	ldrshteq	r2, [r7], #199	; 0xc7
    336c:	80232533 	eorhi	r2, r3, r3, lsr r5
    3370:	3240a080 	subcc	sl, r0, #128, 0	; 0x80
    3374:	00009f24 	andeq	r9, r0, r4, lsr #30
    3378:	00000000 	andeq	r0, r0, r0
    337c:	00020000 	andeq	r0, r2, r0
    3380:	00010100 	andeq	r0, r1, r0, lsl #2
    3384:	00a00000 	adceq	r0, r0, r0
    3388:	00a40000 	adceq	r0, r4, r0
    338c:	00010000 	andeq	r0, r1, r0
    3390:	0000a450 	andeq	sl, r0, r0, asr r4
    3394:	0000a400 	andeq	sl, r0, r0, lsl #8
    3398:	53000100 	movwpl	r0, #256	; 0x100
    339c:	000000a4 	andeq	r0, r0, r4, lsr #1
    33a0:	000000a8 	andeq	r0, r0, r8, lsr #1
    33a4:	74310008 	ldrtvc	r0, [r1], #-8
    33a8:	00732400 	rsbseq	r2, r3, r0, lsl #8
    33ac:	00a89f21 	adceq	r9, r8, r1, lsr #30
    33b0:	00b30000 	adcseq	r0, r3, r0
    33b4:	00010000 	andeq	r0, r1, r0
    33b8:	00000051 	andeq	r0, r0, r1, asr r0
	...
    33c8:	00003c00 	andeq	r3, r0, r0, lsl #24
    33cc:	50000100 	andpl	r0, r0, r0, lsl #2
    33d0:	0000003c 	andeq	r0, r0, ip, lsr r0
    33d4:	00000060 	andeq	r0, r0, r0, rrx
    33d8:	01f30004 	mvnseq	r0, r4
    33dc:	00009f50 	andeq	r9, r0, r0, asr pc
	...
    33ec:	003f0000 	eorseq	r0, pc, r0
    33f0:	00010000 	andeq	r0, r1, r0
    33f4:	00003f51 	andeq	r3, r0, r1, asr pc
    33f8:	00006000 	andeq	r6, r0, r0
    33fc:	f3000400 	vshl.u8	d0, d0, d0
    3400:	009f5101 	addseq	r5, pc, r1, lsl #2
	...
    340c:	08000000 	stmdaeq	r0, {}	; <UNPREDICTABLE>
    3410:	3f000000 	svccc	0x00000000
    3414:	01000000 	mrseq	r0, (UNDEF: 0)
    3418:	003f5100 	eorseq	r5, pc, r0, lsl #2
    341c:	00600000 	rsbeq	r0, r0, r0
    3420:	00040000 	andeq	r0, r4, r0
    3424:	9f5101f3 	svcls	0x005101f3
	...
    3434:	00000008 	andeq	r0, r0, r8
    3438:	0000003c 	andeq	r0, r0, ip, lsr r0
    343c:	3c500001 	mrrccc	0, 0, r0, r0, cr1	; <UNPREDICTABLE>
    3440:	60000000 	andvs	r0, r0, r0
    3444:	04000000 	streq	r0, [r0], #-0
    3448:	5001f300 	andpl	pc, r1, r0, lsl #6
    344c:	0000009f 	muleq	r0, pc, r0	; <UNPREDICTABLE>
	...
    3458:	00004800 	andeq	r4, r0, r0, lsl #16
    345c:	00005800 	andeq	r5, r0, r0, lsl #16
    3460:	54000100 	strpl	r0, [r0], #-256	; 0xffffff00
    3464:	00000058 	andeq	r0, r0, r8, asr r0
    3468:	00000060 	andeq	r0, r0, r0, rrx
    346c:	01f30029 	mvnseq	r0, r9, lsr #32
    3470:	5001f350 	andpl	pc, r1, r0, asr r3	; <UNPREDICTABLE>
    3474:	25f72cf7 	ldrbcs	r2, [r7, #3319]!	; 0xcf7
    3478:	cd0825f4 	cfstr32gt	mvfx2, [r8, #-976]	; 0xfffffc30
    347c:	00cccccc 	sbceq	ip, ip, ip, asr #25
    3480:	1e000000 	cdpne	0, 0, cr0, cr0, cr0, {0}
    3484:	25f72008 	ldrbcs	r2, [r7, #8]!
    3488:	f72cf725 			; <UNDEFINED> instruction: 0xf72cf725
    348c:	35253300 	strcc	r3, [r5, #-768]!	; 0xfffffd00
    3490:	1c24311e 	stfnes	f3, [r4], #-120	; 0xffffff88
    3494:	009f1e33 	addseq	r1, pc, r3, lsr lr	; <UNPREDICTABLE>
    3498:	00000000 	andeq	r0, r0, r0
    349c:	01000000 	mrseq	r0, (UNDEF: 0)
    34a0:	00000000 	andeq	r0, r0, r0
    34a4:	00004800 	andeq	r4, r0, r0, lsl #16
    34a8:	00005800 	andeq	r5, r0, r0, lsl #16
    34ac:	56000100 	strpl	r0, [r0], -r0, lsl #2
    34b0:	00000058 	andeq	r0, r0, r8, asr r0
    34b4:	0000005b 	andeq	r0, r0, fp, asr r0
    34b8:	5b500001 	blpl	14034c4 <__bss_end__+0x13f86dc>
    34bc:	60000000 	andvs	r0, r0, r0
    34c0:	26000000 	strcs	r0, [r0], -r0
    34c4:	5001f300 	andpl	pc, r1, r0, lsl #6
    34c8:	25f72cf7 	ldrbcs	r2, [r7, #3319]!	; 0xcf7
    34cc:	cd0825f4 	cfstr32gt	mvfx2, [r8, #-976]	; 0xfffffc30
    34d0:	00cccccc 	sbceq	ip, ip, ip, asr #25
    34d4:	1e000000 	cdpne	0, 0, cr0, cr0, cr0, {0}
    34d8:	25f72008 	ldrbcs	r2, [r7, #8]!
    34dc:	f72cf725 			; <UNDEFINED> instruction: 0xf72cf725
    34e0:	23253300 			; <UNDEFINED> instruction: 0x23253300
    34e4:	40a08080 	adcmi	r8, r0, r0, lsl #1
    34e8:	009f2432 	addseq	r2, pc, r2, lsr r4	; <UNPREDICTABLE>
    34ec:	00000000 	andeq	r0, r0, r0
    34f0:	02000000 	andeq	r0, r0, #0, 0
    34f4:	01010000 	mrseq	r0, (UNDEF: 1)
    34f8:	48000000 	stmdami	r0, {}	; <UNPREDICTABLE>
    34fc:	4c000000 	stcmi	0, cr0, [r0], {-0}
    3500:	01000000 	mrseq	r0, (UNDEF: 0)
    3504:	004c5000 	subeq	r5, ip, r0
    3508:	004c0000 	subeq	r0, ip, r0
    350c:	00010000 	andeq	r0, r1, r0
    3510:	00004c51 	andeq	r4, r0, r1, asr ip
    3514:	00005000 	andeq	r5, r0, r0
    3518:	75000c00 	strvc	r0, [r0, #-3072]	; 0xfffff400
    351c:	1aff0800 	bne	fffc5524 <__bss_end__+0xfffba73c>
    3520:	71240074 			; <UNDEFINED> instruction: 0x71240074
    3524:	509f2100 	addspl	r2, pc, r0, lsl #2
    3528:	54000000 	strpl	r0, [r0], #-0
    352c:	12000000 	andne	r0, r0, #0, 0
    3530:	00743700 	rsbseq	r3, r4, r0, lsl #14
    3534:	00702024 	rsbseq	r2, r0, r4, lsr #32
    3538:	0800751a 	stmdaeq	r0, {r1, r3, r4, r8, sl, ip, sp, lr}
    353c:	00741aff 	ldrshteq	r1, [r4], #-175	; 0xffffff51
    3540:	009f2124 	addseq	r2, pc, r4, lsr #2
	...
    3550:	0000b800 	andeq	fp, r0, r0, lsl #16
    3554:	0000c400 	andeq	ip, r0, r0, lsl #8
    3558:	50000100 	andpl	r0, r0, r0, lsl #2
    355c:	000000c4 	andeq	r0, r0, r4, asr #1
    3560:	000000cb 	andeq	r0, r0, fp, asr #1
    3564:	cb530001 	blgt	14c3570 <__bss_end__+0x14b8788>
    3568:	d0000000 	andle	r0, r0, r0
    356c:	04000000 	streq	r0, [r0], #-0
    3570:	5001f300 	andpl	pc, r1, r0, lsl #6
    3574:	0000009f 	muleq	r0, pc, r0	; <UNPREDICTABLE>
	...
    3580:	d0000000 	andle	r0, r0, r0
    3584:	dc000000 	stcle	0, cr0, [r0], {-0}
    3588:	01000000 	mrseq	r0, (UNDEF: 0)
    358c:	00dc5000 	sbcseq	r5, ip, r0
    3590:	00e30000 	rsceq	r0, r3, r0
    3594:	00010000 	andeq	r0, r1, r0
    3598:	0000e353 	andeq	lr, r0, r3, asr r3
    359c:	0000e800 	andeq	lr, r0, r0, lsl #16
    35a0:	f3000400 	vshl.u8	d0, d0, d0
    35a4:	009f5001 	addseq	r5, pc, r1
	...
    35b4:	0b000000 	bleq	35bc <__code_start__-0x4a44>
    35b8:	01000000 	mrseq	r0, (UNDEF: 0)
    35bc:	000b5000 	andeq	r5, fp, r0
    35c0:	00140000 	andseq	r0, r4, r0
    35c4:	00010000 	andeq	r0, r1, r0
    35c8:	00000054 	andeq	r0, r0, r4, asr r0
	...
    35d8:	00001800 	andeq	r1, r0, r0, lsl #16
    35dc:	51000100 	mrspl	r0, (UNDEF: 16)
    35e0:	00000018 	andeq	r0, r0, r8, lsl r0
    35e4:	0000002c 	andeq	r0, r0, ip, lsr #32
    35e8:	01f30004 	mvnseq	r0, r4
    35ec:	00009f51 	andeq	r9, r0, r1, asr pc
    35f0:	00000000 	andeq	r0, r0, r0
    35f4:	00020000 	andeq	r0, r2, r0
    35f8:	00000000 	andeq	r0, r0, r0
    35fc:	01000000 	mrseq	r0, (UNDEF: 0)
    3600:	00000001 	andeq	r0, r0, r1
    3604:	00000000 	andeq	r0, r0, r0
    3608:	00000004 	andeq	r0, r0, r4
    360c:	04500001 	ldrbeq	r0, [r0], #-1
    3610:	08000000 	stmdaeq	r0, {}	; <UNPREDICTABLE>
    3614:	01000000 	mrseq	r0, (UNDEF: 0)
    3618:	00085200 	andeq	r5, r8, r0, lsl #4
    361c:	000c0000 	andeq	r0, ip, r0
    3620:	00030000 	andeq	r0, r3, r0
    3624:	0c9f0172 	ldfeqs	f0, [pc], {114}	; 0x72
    3628:	18000000 	stmdane	r0, {}	; <UNPREDICTABLE>
    362c:	01000000 	mrseq	r0, (UNDEF: 0)
    3630:	00185200 	andseq	r5, r8, r0, lsl #4
    3634:	001c0000 	andseq	r0, ip, r0
    3638:	00010000 	andeq	r0, r1, r0
    363c:	00001c53 	andeq	r1, r0, r3, asr ip
    3640:	00002400 	andeq	r2, r0, r0, lsl #8
    3644:	73000300 	movwvc	r0, #768	; 0x300
    3648:	00249f01 	eoreq	r9, r4, r1, lsl #30
    364c:	002c0000 	eoreq	r0, ip, r0
    3650:	00010000 	andeq	r0, r1, r0
    3654:	00000053 	andeq	r0, r0, r3, asr r0
    3658:	00000000 	andeq	r0, r0, r0
    365c:	02020300 	andeq	r0, r2, #0, 6
    3660:	00000000 	andeq	r0, r0, r0
    3664:	18000000 	stmdane	r0, {}	; <UNPREDICTABLE>
    3668:	01000000 	mrseq	r0, (UNDEF: 0)
    366c:	00185100 	andseq	r5, r8, r0, lsl #2
    3670:	001c0000 	andseq	r0, ip, r0
    3674:	00030000 	andeq	r0, r3, r0
    3678:	1c9f0171 	ldfnes	f0, [pc], {113}	; 0x71
    367c:	2c000000 	stccs	0, cr0, [r0], {-0}
    3680:	01000000 	mrseq	r0, (UNDEF: 0)
    3684:	00005100 	andeq	r5, r0, r0, lsl #2
	...
    3694:	00000008 	andeq	r0, r0, r8
    3698:	0000000c 	andeq	r0, r0, ip
    369c:	00720002 	rsbseq	r0, r2, r2
    36a0:	0000000c 	andeq	r0, r0, ip
    36a4:	00000018 	andeq	r0, r0, r8, lsl r0
    36a8:	00730002 	rsbseq	r0, r3, r2
    36ac:	0000001c 	andeq	r0, r0, ip, lsl r0
    36b0:	0000002c 	andeq	r0, r0, ip, lsr #32
    36b4:	00520001 	subseq	r0, r2, r1
	...
    36cc:	14000000 	strne	r0, [r0], #-0
    36d0:	01000000 	mrseq	r0, (UNDEF: 0)
    36d4:	00145000 	andseq	r5, r4, r0
    36d8:	00180000 	andseq	r0, r8, r0
    36dc:	00030000 	andeq	r0, r3, r0
    36e0:	189f0170 	ldmne	pc, {r4, r5, r6, r8}	; <UNPREDICTABLE>
    36e4:	20000000 	andcs	r0, r0, r0
    36e8:	01000000 	mrseq	r0, (UNDEF: 0)
    36ec:	00245000 	eoreq	r5, r4, r0
    36f0:	00280000 	eoreq	r0, r8, r0
    36f4:	00010000 	andeq	r0, r1, r0
    36f8:	00002850 	andeq	r2, r0, r0, asr r8
    36fc:	00003000 	andeq	r3, r0, r0
    3700:	70000300 	andvc	r0, r0, r0, lsl #6
    3704:	00389f01 	eorseq	r9, r8, r1, lsl #30
    3708:	00400000 	subeq	r0, r0, r0
    370c:	00010000 	andeq	r0, r1, r0
    3710:	00000050 	andeq	r0, r0, r0, asr r0
	...
    3720:	24000000 	strcs	r0, [r0], #-0
    3724:	01000000 	mrseq	r0, (UNDEF: 0)
    3728:	00245100 	eoreq	r5, r4, r0, lsl #2
    372c:	00280000 	eoreq	r0, r8, r0
    3730:	00010000 	andeq	r0, r1, r0
    3734:	0000285c 	andeq	r2, r0, ip, asr r8
    3738:	00004400 	andeq	r4, r0, r0, lsl #8
    373c:	51000100 	mrspl	r0, (UNDEF: 16)
	...
    3748:	00020200 	andeq	r0, r2, r0, lsl #4
    374c:	00000000 	andeq	r0, r0, r0
    3750:	00040000 	andeq	r0, r4, r0
    3754:	00010000 	andeq	r0, r1, r0
    3758:	00000451 	andeq	r0, r0, r1, asr r4
    375c:	00000800 	andeq	r0, r0, r0, lsl #16
    3760:	71000300 	mrsvc	r0, LR_irq
    3764:	00089f01 	andeq	r9, r8, r1, lsl #30
    3768:	00180000 	andseq	r0, r8, r0
    376c:	00010000 	andeq	r0, r1, r0
    3770:	00000051 	andeq	r0, r0, r1, asr r0
    3774:	00000000 	andeq	r0, r0, r0
    3778:	00000200 	andeq	r0, r0, r0, lsl #4
    377c:	04000000 	streq	r0, [r0], #-0
    3780:	01000000 	mrseq	r0, (UNDEF: 0)
    3784:	00005000 	andeq	r5, r0, r0
	...
    3794:	00080000 	andeq	r0, r8, r0
    3798:	00010000 	andeq	r0, r1, r0
    379c:	00000850 	andeq	r0, r0, r0, asr r8
    37a0:	00003000 	andeq	r3, r0, r0
    37a4:	f3000400 	vshl.u8	d0, d0, d0
    37a8:	009f5001 	addseq	r5, pc, r1
	...
    37b8:	08000000 	stmdaeq	r0, {}	; <UNPREDICTABLE>
    37bc:	01000000 	mrseq	r0, (UNDEF: 0)
    37c0:	00085100 	andeq	r5, r8, r0, lsl #2
    37c4:	00300000 	eorseq	r0, r0, r0
    37c8:	00040000 	andeq	r0, r4, r0
    37cc:	9f5101f3 	svcls	0x005101f3
	...
    37dc:	02010000 	andeq	r0, r1, #0, 0
    37e0:	00000002 	andeq	r0, r0, r2
    37e4:	00040000 	andeq	r0, r4, r0
    37e8:	00010000 	andeq	r0, r1, r0
    37ec:	00000452 	andeq	r0, r0, r2, asr r4
    37f0:	00000800 	andeq	r0, r0, r0, lsl #16
    37f4:	f3000400 	vshl.u8	d0, d0, d0
    37f8:	089f5201 	ldmeq	pc, {r0, r9, ip, lr}	; <UNPREDICTABLE>
    37fc:	18000000 	stmdane	r0, {}	; <UNPREDICTABLE>
    3800:	06000000 	streq	r0, [r0], -r0
    3804:	5201f300 	andpl	pc, r1, #0, 6
    3808:	189f1c31 	ldmne	pc, {r0, r4, r5, sl, fp, ip}	; <UNPREDICTABLE>
    380c:	18000000 	stmdane	r0, {}	; <UNPREDICTABLE>
    3810:	04000000 	streq	r0, [r0], #-0
    3814:	5201f300 	andpl	pc, r1, #0, 6
    3818:	0000189f 	muleq	r0, pc, r8	; <UNPREDICTABLE>
    381c:	00003000 	andeq	r3, r0, r0
    3820:	f3000600 	vmax.u8	d0, d0, d0
    3824:	1c315201 	lfmne	f5, 4, [r1], #-4
    3828:	0000009f 	muleq	r0, pc, r0	; <UNPREDICTABLE>
    382c:	00000000 	andeq	r0, r0, r0
    3830:	00000200 	andeq	r0, r0, r0, lsl #4
    3834:	00000100 	andeq	r0, r0, r0, lsl #2
    3838:	00000000 	andeq	r0, r0, r0
    383c:	00000c00 	andeq	r0, r0, r0, lsl #24
    3840:	50000100 	andpl	r0, r0, r0, lsl #2
    3844:	0000000c 	andeq	r0, r0, ip
    3848:	00000018 	andeq	r0, r0, r8, lsl r0
    384c:	7f700003 	svcvc	0x00700003
    3850:	0000189f 	muleq	r0, pc, r8	; <UNPREDICTABLE>
    3854:	00002400 	andeq	r2, r0, r0, lsl #8
    3858:	50000100 	andpl	r0, r0, r0, lsl #2
    385c:	00000028 	andeq	r0, r0, r8, lsr #32
    3860:	0000002c 	andeq	r0, r0, ip, lsr #32
    3864:	7f700003 	svcvc	0x00700003
    3868:	0000009f 	muleq	r0, pc, r0	; <UNPREDICTABLE>
    386c:	00000000 	andeq	r0, r0, r0
    3870:	00000200 	andeq	r0, r0, r0, lsl #4
    3874:	00000000 	andeq	r0, r0, r0
    3878:	0c000000 	stceq	0, cr0, [r0], {-0}
    387c:	01000000 	mrseq	r0, (UNDEF: 0)
    3880:	000c5100 	andeq	r5, ip, r0, lsl #2
    3884:	00100000 	andseq	r0, r0, r0
    3888:	00030000 	andeq	r0, r3, r0
    388c:	109f0171 	addsne	r0, pc, r1, ror r1	; <UNPREDICTABLE>
    3890:	30000000 	andcc	r0, r0, r0
    3894:	01000000 	mrseq	r0, (UNDEF: 0)
    3898:	00005100 	andeq	r5, r0, r0, lsl #2
    389c:	00000000 	andeq	r0, r0, r0
	...

Disassembly of section .debug_aranges:

00000000 <.debug_aranges>:
   0:	0000001c 	andeq	r0, r0, ip, lsl r0
   4:	00000002 	andeq	r0, r0, r2
   8:	00040000 	andeq	r0, r4, r0
   c:	00000000 	andeq	r0, r0, r0
  10:	00008038 	andeq	r8, r0, r8, lsr r0
  14:	00000108 	andeq	r0, r0, r8, lsl #2
	...
  20:	0000001c 	andeq	r0, r0, ip, lsl r0
  24:	05110002 	ldreq	r0, [r1, #-2]
  28:	00040000 	andeq	r0, r4, r0
  2c:	00000000 	andeq	r0, r0, r0
  30:	00008140 	andeq	r8, r0, r0, asr #2
  34:	000002f0 	strdeq	r0, [r0], -r0	; <UNPREDICTABLE>
	...
  40:	0000001c 	andeq	r0, r0, ip, lsl r0
  44:	0ec40002 	cdpeq	0, 12, cr0, cr4, cr2, {0}
  48:	00040000 	andeq	r0, r4, r0
  4c:	00000000 	andeq	r0, r0, r0
  50:	00008430 	andeq	r8, r0, r0, lsr r4
  54:	00000188 	andeq	r0, r0, r8, lsl #3
	...
  60:	0000001c 	andeq	r0, r0, ip, lsl r0
  64:	11c30002 	bicne	r0, r3, r2
  68:	00040000 	andeq	r0, r4, r0
  6c:	00000000 	andeq	r0, r0, r0
  70:	000085b8 			; <UNDEFINED> instruction: 0x000085b8
  74:	00000584 	andeq	r0, r0, r4, lsl #11
	...
  80:	0000001c 	andeq	r0, r0, ip, lsl r0
  84:	1f370002 	svcne	0x00370002
  88:	00040000 	andeq	r0, r4, r0
  8c:	00000000 	andeq	r0, r0, r0
  90:	00008b44 	andeq	r8, r0, r4, asr #22
  94:	00000078 	andeq	r0, r0, r8, ror r0
	...
  a0:	0000001c 	andeq	r0, r0, ip, lsl r0
  a4:	207b0002 	rsbscs	r0, fp, r2
  a8:	00040000 	andeq	r0, r4, r0
  ac:	00000000 	andeq	r0, r0, r0
  b0:	00008bbc 			; <UNDEFINED> instruction: 0x00008bbc
  b4:	00000058 	andeq	r0, r0, r8, asr r0
	...
  c0:	0000001c 	andeq	r0, r0, ip, lsl r0
  c4:	221c0002 	andscs	r0, ip, #2, 0
  c8:	00040000 	andeq	r0, r4, r0
  cc:	00000000 	andeq	r0, r0, r0
  d0:	00008c14 	andeq	r8, r0, r4, lsl ip
  d4:	00000038 	andeq	r0, r0, r8, lsr r0
	...
  e0:	0000001c 	andeq	r0, r0, ip, lsl r0
  e4:	23130002 	tstcs	r3, #2, 0
  e8:	00040000 	andeq	r0, r4, r0
  ec:	00000000 	andeq	r0, r0, r0
  f0:	00008c4c 	andeq	r8, r0, ip, asr #24
  f4:	000009b4 			; <UNDEFINED> instruction: 0x000009b4
	...
 100:	0000001c 	andeq	r0, r0, ip, lsl r0
 104:	2f960002 	svccs	0x00960002
 108:	00040000 	andeq	r0, r4, r0
 10c:	00000000 	andeq	r0, r0, r0
 110:	00009600 	andeq	r9, r0, r0, lsl #12
 114:	0000002c 	andeq	r0, r0, ip, lsr #32
	...
 120:	0000001c 	andeq	r0, r0, ip, lsl r0
 124:	30c90002 	sbccc	r0, r9, r2
 128:	00040000 	andeq	r0, r4, r0
 12c:	00000000 	andeq	r0, r0, r0
 130:	0000962c 	andeq	r9, r0, ip, lsr #12
 134:	000000f8 	strdeq	r0, [r0], -r8
	...
 140:	0000001c 	andeq	r0, r0, ip, lsl r0
 144:	325d0002 	subscc	r0, sp, #2, 0
 148:	00040000 	andeq	r0, r4, r0
 14c:	00000000 	andeq	r0, r0, r0
 150:	00009724 	andeq	r9, r0, r4, lsr #14
 154:	00000004 	andeq	r0, r0, r4
	...
 160:	0000001c 	andeq	r0, r0, ip, lsl r0
 164:	332f0002 			; <UNDEFINED> instruction: 0x332f0002
 168:	00040000 	andeq	r0, r4, r0
 16c:	00000000 	andeq	r0, r0, r0
 170:	00009728 	andeq	r9, r0, r8, lsr #14
 174:	0000008c 	andeq	r0, r0, ip, lsl #1
	...
 180:	0000001c 	andeq	r0, r0, ip, lsl r0
 184:	35b00002 	ldrcc	r0, [r0, #2]!
 188:	00040000 	andeq	r0, r4, r0
 18c:	00000000 	andeq	r0, r0, r0
 190:	000097b4 			; <UNDEFINED> instruction: 0x000097b4
 194:	0000011c 	andeq	r0, r0, ip, lsl r1
	...
 1a0:	0000001c 	andeq	r0, r0, ip, lsl r0
 1a4:	3af30002 	bcc	ffcc01b4 <__bss_end__+0xffcb53cc>
 1a8:	00040000 	andeq	r0, r4, r0
 1ac:	00000000 	andeq	r0, r0, r0
 1b0:	000098d0 	ldrdeq	r9, [r0], -r0
 1b4:	000001f0 	strdeq	r0, [r0], -r0	; <UNPREDICTABLE>
	...
 1c0:	0000001c 	andeq	r0, r0, ip, lsl r0
 1c4:	40c40002 	sbcmi	r0, r4, r2
 1c8:	00040000 	andeq	r0, r4, r0
 1cc:	00000000 	andeq	r0, r0, r0
 1d0:	00009ac0 	andeq	r9, r0, r0, asr #21
 1d4:	000003b0 			; <UNDEFINED> instruction: 0x000003b0
	...
 1e0:	0000001c 	andeq	r0, r0, ip, lsl r0
 1e4:	49b10002 	ldmibmi	r1!, {r1}
 1e8:	00040000 	andeq	r0, r4, r0
 1ec:	00000000 	andeq	r0, r0, r0
 1f0:	00009e70 	andeq	r9, r0, r0, ror lr
 1f4:	00000198 	muleq	r0, r8, r1
	...
 200:	0000001c 	andeq	r0, r0, ip, lsl r0
 204:	50280002 	eorpl	r0, r8, r2
 208:	00040000 	andeq	r0, r4, r0
 20c:	00000000 	andeq	r0, r0, r0
 210:	0000a008 	andeq	sl, r0, r8
 214:	0000003c 	andeq	r0, r0, ip, lsr r0
	...
 220:	0000001c 	andeq	r0, r0, ip, lsl r0
 224:	51750002 	cmnpl	r5, r2
 228:	00040000 	andeq	r0, r4, r0
 22c:	00000000 	andeq	r0, r0, r0
 230:	0000a044 	andeq	sl, r0, r4, asr #32
 234:	0000002c 	andeq	r0, r0, ip, lsr #32
	...
 240:	0000001c 	andeq	r0, r0, ip, lsl r0
 244:	52b00002 	adcspl	r0, r0, #2, 0
 248:	00040000 	andeq	r0, r4, r0
 24c:	00000000 	andeq	r0, r0, r0
 250:	0000a070 	andeq	sl, r0, r0, ror r0
 254:	00000044 	andeq	r0, r0, r4, asr #32
	...
 260:	0000001c 	andeq	r0, r0, ip, lsl r0
 264:	53ab0002 			; <UNDEFINED> instruction: 0x53ab0002
 268:	00040000 	andeq	r0, r4, r0
 26c:	00000000 	andeq	r0, r0, r0
 270:	0000a0b4 	strheq	sl, [r0], -r4
 274:	00000018 	andeq	r0, r0, r8, lsl r0
	...
 280:	0000001c 	andeq	r0, r0, ip, lsl r0
 284:	54be0002 	ldrtpl	r0, [lr], #2
 288:	00040000 	andeq	r0, r4, r0
 28c:	00000000 	andeq	r0, r0, r0
 290:	0000a0cc 	andeq	sl, r0, ip, asr #1
 294:	00000030 	andeq	r0, r0, r0, lsr r0
	...
 2a0:	0000001c 	andeq	r0, r0, ip, lsl r0
 2a4:	56100002 	ldrpl	r0, [r0], -r2
 2a8:	00040000 	andeq	r0, r4, r0
 2ac:	00000000 	andeq	r0, r0, r0
 2b0:	0000a0fc 	strdeq	sl, [r0], -ip
 2b4:	00000004 	andeq	r0, r0, r4
	...

Disassembly of section .debug_ranges:

00000000 <.debug_ranges>:
	...
   8:	00000004 	andeq	r0, r0, r4
   c:	00000010 	andeq	r0, r0, r0, lsl r0
  10:	00000014 	andeq	r0, r0, r4, lsl r0
  14:	0000009c 	muleq	r0, ip, r0
	...
  28:	00000004 	andeq	r0, r0, r4
  2c:	00000010 	andeq	r0, r0, r0, lsl r0
  30:	00000014 	andeq	r0, r0, r4, lsl r0
  34:	00000094 	muleq	r0, r4, r0
	...
  48:	00000004 	andeq	r0, r0, r4
  4c:	00000010 	andeq	r0, r0, r0, lsl r0
  50:	00000014 	andeq	r0, r0, r4, lsl r0
  54:	00000020 	andeq	r0, r0, r0, lsr #32
  58:	00000050 	andeq	r0, r0, r0, asr r0
  5c:	0000005c 	andeq	r0, r0, ip, asr r0
	...
  68:	00000034 	andeq	r0, r0, r4, lsr r0
  6c:	00000034 	andeq	r0, r0, r4, lsr r0
  70:	00000038 	andeq	r0, r0, r8, lsr r0
  74:	0000003c 	andeq	r0, r0, ip, lsr r0
	...
  80:	00000034 	andeq	r0, r0, r4, lsr r0
  84:	00000034 	andeq	r0, r0, r4, lsr r0
  88:	00000034 	andeq	r0, r0, r4, lsr r0
  8c:	00000038 	andeq	r0, r0, r8, lsr r0
  90:	0000003c 	andeq	r0, r0, ip, lsr r0
  94:	00000044 	andeq	r0, r0, r4, asr #32
	...
  a0:	00000058 	andeq	r0, r0, r8, asr r0
  a4:	0000005c 	andeq	r0, r0, ip, asr r0
  a8:	00000060 	andeq	r0, r0, r0, rrx
  ac:	0000006c 	andeq	r0, r0, ip, rrx
  b0:	0000006c 	andeq	r0, r0, ip, rrx
  b4:	0000007c 	andeq	r0, r0, ip, ror r0
  b8:	0000007c 	andeq	r0, r0, ip, ror r0
  bc:	000000c0 	andeq	r0, r0, r0, asr #1
	...
  c8:	00000058 	andeq	r0, r0, r8, asr r0
  cc:	0000005c 	andeq	r0, r0, ip, asr r0
  d0:	00000060 	andeq	r0, r0, r0, rrx
  d4:	00000064 	andeq	r0, r0, r4, rrx
	...
  e0:	0000006c 	andeq	r0, r0, ip, rrx
  e4:	0000006c 	andeq	r0, r0, ip, rrx
  e8:	0000006c 	andeq	r0, r0, ip, rrx
  ec:	00000078 	andeq	r0, r0, r8, ror r0
  f0:	0000007c 	andeq	r0, r0, ip, ror r0
  f4:	0000007c 	andeq	r0, r0, ip, ror r0
  f8:	0000007c 	andeq	r0, r0, ip, ror r0
  fc:	0000007c 	andeq	r0, r0, ip, ror r0
 100:	00000080 	andeq	r0, r0, r0, lsl #1
 104:	00000084 	andeq	r0, r0, r4, lsl #1
 108:	00000088 	andeq	r0, r0, r8, lsl #1
 10c:	00000094 	muleq	r0, r4, r0
	...
 118:	0000006c 	andeq	r0, r0, ip, rrx
 11c:	0000006c 	andeq	r0, r0, ip, rrx
 120:	00000070 	andeq	r0, r0, r0, ror r0
 124:	00000078 	andeq	r0, r0, r8, ror r0
 128:	0000007c 	andeq	r0, r0, ip, ror r0
 12c:	0000007c 	andeq	r0, r0, ip, ror r0
 130:	00000080 	andeq	r0, r0, r0, lsl #1
 134:	00000084 	andeq	r0, r0, r4, lsl #1
	...
 140:	0000006c 	andeq	r0, r0, ip, rrx
 144:	0000006c 	andeq	r0, r0, ip, rrx
 148:	0000006c 	andeq	r0, r0, ip, rrx
 14c:	00000070 	andeq	r0, r0, r0, ror r0
 150:	0000007c 	andeq	r0, r0, ip, ror r0
 154:	0000007c 	andeq	r0, r0, ip, ror r0
 158:	00000088 	andeq	r0, r0, r8, lsl #1
 15c:	00000094 	muleq	r0, r4, r0
	...
 168:	0000011c 	andeq	r0, r0, ip, lsl r1
 16c:	00000120 	andeq	r0, r0, r0, lsr #2
 170:	00000124 	andeq	r0, r0, r4, lsr #2
 174:	00000124 	andeq	r0, r0, r4, lsr #2
 178:	00000124 	andeq	r0, r0, r4, lsr #2
 17c:	00000144 	andeq	r0, r0, r4, asr #2
 180:	00000144 	andeq	r0, r0, r4, asr #2
 184:	0000017c 	andeq	r0, r0, ip, ror r1
	...
 190:	0000011c 	andeq	r0, r0, ip, lsl r1
 194:	00000120 	andeq	r0, r0, r0, lsr #2
 198:	00000124 	andeq	r0, r0, r4, lsr #2
 19c:	00000144 	andeq	r0, r0, r4, asr #2
 1a0:	00000144 	andeq	r0, r0, r4, asr #2
 1a4:	0000017c 	andeq	r0, r0, ip, ror r1
	...
 1b0:	0000011c 	andeq	r0, r0, ip, lsl r1
 1b4:	00000120 	andeq	r0, r0, r0, lsr #2
 1b8:	00000124 	andeq	r0, r0, r4, lsr #2
 1bc:	00000128 	andeq	r0, r0, r8, lsr #2
	...
 1c8:	00000144 	andeq	r0, r0, r4, asr #2
 1cc:	00000144 	andeq	r0, r0, r4, asr #2
 1d0:	00000144 	andeq	r0, r0, r4, asr #2
 1d4:	00000154 	andeq	r0, r0, r4, asr r1
	...
 1e0:	00000144 	andeq	r0, r0, r4, asr #2
 1e4:	00000144 	andeq	r0, r0, r4, asr #2
 1e8:	00000148 	andeq	r0, r0, r8, asr #2
 1ec:	0000014c 	andeq	r0, r0, ip, asr #2
	...
 1f8:	00000144 	andeq	r0, r0, r4, asr #2
 1fc:	00000144 	andeq	r0, r0, r4, asr #2
 200:	00000144 	andeq	r0, r0, r4, asr #2
 204:	00000148 	andeq	r0, r0, r8, asr #2
 208:	0000014c 	andeq	r0, r0, ip, asr #2
 20c:	00000154 	andeq	r0, r0, r4, asr r1
	...
 218:	0000017c 	andeq	r0, r0, ip, ror r1
 21c:	000001d4 	ldrdeq	r0, [r0], -r4
 220:	000001e4 	andeq	r0, r0, r4, ror #3
 224:	000001f0 	strdeq	r0, [r0], -r0	; <UNPREDICTABLE>
	...
 230:	00000188 	andeq	r0, r0, r8, lsl #3
 234:	00000194 	muleq	r0, r4, r1
 238:	000001a8 	andeq	r0, r0, r8, lsr #3
 23c:	000001b0 			; <UNDEFINED> instruction: 0x000001b0
	...
 248:	000000b8 	strheq	r0, [r0], -r8
 24c:	000000c4 	andeq	r0, r0, r4, asr #1
 250:	000000e0 	andeq	r0, r0, r0, ror #1
 254:	00000110 	andeq	r0, r0, r0, lsl r1
	...
 260:	00000044 	andeq	r0, r0, r4, asr #32
 264:	000000d8 	ldrdeq	r0, [r0], -r8
 268:	000000e0 	andeq	r0, r0, r0, ror #1
 26c:	00000114 	andeq	r0, r0, r4, lsl r1
	...
 278:	00000044 	andeq	r0, r0, r4, asr #32
 27c:	000000d0 	ldrdeq	r0, [r0], -r0	; <UNPREDICTABLE>
 280:	000000e0 	andeq	r0, r0, r0, ror #1
 284:	000000e8 	andeq	r0, r0, r8, ror #1
 288:	000000f4 	strdeq	r0, [r0], -r4
 28c:	00000108 	andeq	r0, r0, r8, lsl #2
	...
 298:	00000044 	andeq	r0, r0, r4, asr #32
 29c:	0000004c 	andeq	r0, r0, ip, asr #32
 2a0:	0000007c 	andeq	r0, r0, ip, ror r0
 2a4:	000000d0 	ldrdeq	r0, [r0], -r0	; <UNPREDICTABLE>
 2a8:	000000e0 	andeq	r0, r0, r0, ror #1
 2ac:	000000e8 	andeq	r0, r0, r8, ror #1
 2b0:	000000f4 	strdeq	r0, [r0], -r4
 2b4:	00000108 	andeq	r0, r0, r8, lsl #2
	...
 2c0:	0000004c 	andeq	r0, r0, ip, asr #32
 2c4:	00000058 	andeq	r0, r0, r8, asr r0
 2c8:	00000058 	andeq	r0, r0, r8, asr r0
 2cc:	00000074 	andeq	r0, r0, r4, ror r0
	...
 2d8:	0000004c 	andeq	r0, r0, ip, asr #32
 2dc:	00000058 	andeq	r0, r0, r8, asr r0
 2e0:	00000058 	andeq	r0, r0, r8, asr r0
 2e4:	00000060 	andeq	r0, r0, r0, rrx
 2e8:	00000060 	andeq	r0, r0, r0, rrx
 2ec:	00000074 	andeq	r0, r0, r4, ror r0
	...
 2f8:	00000050 	andeq	r0, r0, r0, asr r0
 2fc:	00000058 	andeq	r0, r0, r8, asr r0
 300:	00000058 	andeq	r0, r0, r8, asr r0
 304:	00000060 	andeq	r0, r0, r0, rrx
 308:	00000060 	andeq	r0, r0, r0, rrx
 30c:	00000070 	andeq	r0, r0, r0, ror r0
	...
 318:	0000015c 	andeq	r0, r0, ip, asr r1
 31c:	0000015c 	andeq	r0, r0, ip, asr r1
 320:	00000164 	andeq	r0, r0, r4, ror #2
 324:	0000018c 	andeq	r0, r0, ip, lsl #3
	...
 330:	0000021c 	andeq	r0, r0, ip, lsl r2
 334:	00000228 	andeq	r0, r0, r8, lsr #4
 338:	0000022c 	andeq	r0, r0, ip, lsr #4
 33c:	00000230 	andeq	r0, r0, r0, lsr r2
 340:	00000238 	andeq	r0, r0, r8, lsr r2
 344:	0000028c 	andeq	r0, r0, ip, lsl #5
 348:	000002c8 	andeq	r0, r0, r8, asr #5
 34c:	000002e0 	andeq	r0, r0, r0, ror #5
	...
 358:	00000340 	andeq	r0, r0, r0, asr #6
 35c:	00000358 	andeq	r0, r0, r8, asr r3
 360:	0000035c 	andeq	r0, r0, ip, asr r3
 364:	00000360 	andeq	r0, r0, r0, ror #6
	...
 370:	00000464 	andeq	r0, r0, r4, ror #8
 374:	000004d0 	ldrdeq	r0, [r0], -r0	; <UNPREDICTABLE>
 378:	000004dc 	ldrdeq	r0, [r0], -ip
 37c:	00000558 	andeq	r0, r0, r8, asr r5
	...
 388:	00000478 	andeq	r0, r0, r8, ror r4
 38c:	00000484 	andeq	r0, r0, r4, lsl #9
 390:	00000490 	muleq	r0, r0, r4
 394:	000004bc 			; <UNDEFINED> instruction: 0x000004bc
 398:	000004dc 	ldrdeq	r0, [r0], -ip
 39c:	0000052c 	andeq	r0, r0, ip, lsr #10
	...
 3a8:	00000490 	muleq	r0, r0, r4
 3ac:	00000498 	muleq	r0, r8, r4
 3b0:	000004dc 	ldrdeq	r0, [r0], -ip
 3b4:	000004e0 	andeq	r0, r0, r0, ror #9
 3b8:	000004e4 	andeq	r0, r0, r4, ror #9
 3bc:	000004e8 	andeq	r0, r0, r8, ror #9
 3c0:	000004ec 	andeq	r0, r0, ip, ror #9
 3c4:	000004f4 	strdeq	r0, [r0], -r4
 3c8:	00000524 	andeq	r0, r0, r4, lsr #10
 3cc:	00000524 	andeq	r0, r0, r4, lsr #10
	...
 3d8:	000000a4 	andeq	r0, r0, r4, lsr #1
 3dc:	00000148 	andeq	r0, r0, r8, asr #2
 3e0:	00000158 	andeq	r0, r0, r8, asr r1
 3e4:	0000015c 	andeq	r0, r0, ip, asr r1
 3e8:	00000274 	andeq	r0, r0, r4, ror r2
 3ec:	00000278 	andeq	r0, r0, r8, ror r2
 3f0:	0000027c 	andeq	r0, r0, ip, ror r2
 3f4:	00000280 	andeq	r0, r0, r0, lsl #5
 3f8:	00000288 	andeq	r0, r0, r8, lsl #5
 3fc:	0000029c 	muleq	r0, ip, r2
 400:	000002c0 	andeq	r0, r0, r0, asr #5
 404:	000002cc 	andeq	r0, r0, ip, asr #5
 408:	000002f0 	strdeq	r0, [r0], -r0	; <UNPREDICTABLE>
 40c:	000002f0 	strdeq	r0, [r0], -r0	; <UNPREDICTABLE>
 410:	000002f4 	strdeq	r0, [r0], -r4
 414:	000002f8 	strdeq	r0, [r0], -r8
	...
 420:	00000148 	andeq	r0, r0, r8, asr #2
 424:	00000158 	andeq	r0, r0, r8, asr r1
 428:	0000015c 	andeq	r0, r0, ip, asr r1
 42c:	0000018c 	andeq	r0, r0, ip, lsl #3
 430:	0000029c 	muleq	r0, ip, r2
 434:	000002ac 	andeq	r0, r0, ip, lsr #5
	...
 440:	000003c8 	andeq	r0, r0, r8, asr #7
 444:	000003d0 	ldrdeq	r0, [r0], -r0	; <UNPREDICTABLE>
 448:	00000404 	andeq	r0, r0, r4, lsl #8
 44c:	000004ac 	andeq	r0, r0, ip, lsr #9
 450:	000004c0 	andeq	r0, r0, r0, asr #9
 454:	00000920 	andeq	r0, r0, r0, lsr #18
 458:	00000928 	andeq	r0, r0, r8, lsr #18
 45c:	000009b4 			; <UNDEFINED> instruction: 0x000009b4
	...
 468:	000003c8 	andeq	r0, r0, r8, asr #7
 46c:	000003d0 	ldrdeq	r0, [r0], -r0	; <UNPREDICTABLE>
 470:	00000504 	andeq	r0, r0, r4, lsl #10
 474:	000005d0 	ldrdeq	r0, [r0], -r0	; <UNPREDICTABLE>
 478:	00000800 	andeq	r0, r0, r0, lsl #16
 47c:	00000888 	andeq	r0, r0, r8, lsl #17
 480:	00000930 	andeq	r0, r0, r0, lsr r9
 484:	000009b4 			; <UNDEFINED> instruction: 0x000009b4
	...
 490:	00000404 	andeq	r0, r0, r4, lsl #8
 494:	00000408 	andeq	r0, r0, r8, lsl #8
 498:	00000414 	andeq	r0, r0, r4, lsl r4
 49c:	00000414 	andeq	r0, r0, r4, lsl r4
 4a0:	00000428 	andeq	r0, r0, r8, lsr #8
 4a4:	0000042c 	andeq	r0, r0, ip, lsr #8
	...
 4b0:	000005fc 	strdeq	r0, [r0], -ip
 4b4:	00000700 	andeq	r0, r0, r0, lsl #14
 4b8:	000007ec 	andeq	r0, r0, ip, ror #15
 4bc:	000007f4 	strdeq	r0, [r0], -r4
 4c0:	00000888 	andeq	r0, r0, r8, lsl #17
 4c4:	00000894 	muleq	r0, r4, r8
 4c8:	000008a8 	andeq	r0, r0, r8, lsr #17
 4cc:	000008bc 			; <UNDEFINED> instruction: 0x000008bc
 4d0:	00000910 	andeq	r0, r0, r0, lsl r9
 4d4:	00000920 	andeq	r0, r0, r0, lsr #18
	...
 4e0:	00000600 	andeq	r0, r0, r0, lsl #12
 4e4:	00000604 	andeq	r0, r0, r4, lsl #12
 4e8:	00000608 	andeq	r0, r0, r8, lsl #12
 4ec:	000006b4 			; <UNDEFINED> instruction: 0x000006b4
 4f0:	000006cc 	andeq	r0, r0, ip, asr #13
 4f4:	000006d0 	ldrdeq	r0, [r0], -r0	; <UNPREDICTABLE>
 4f8:	000008a8 	andeq	r0, r0, r8, lsr #17
 4fc:	000008b8 			; <UNDEFINED> instruction: 0x000008b8
 500:	00000910 	andeq	r0, r0, r0, lsl r9
 504:	00000920 	andeq	r0, r0, r0, lsr #18
	...
 510:	000006b4 			; <UNDEFINED> instruction: 0x000006b4
 514:	000006cc 	andeq	r0, r0, ip, asr #13
 518:	000006d0 	ldrdeq	r0, [r0], -r0	; <UNPREDICTABLE>
 51c:	00000700 	andeq	r0, r0, r0, lsl #14
 520:	000007ec 	andeq	r0, r0, ip, ror #15
 524:	000007f4 	strdeq	r0, [r0], -r4
 528:	00000888 	andeq	r0, r0, r8, lsl #17
 52c:	00000894 	muleq	r0, r4, r8
 530:	000008b8 			; <UNDEFINED> instruction: 0x000008b8
 534:	000008bc 			; <UNDEFINED> instruction: 0x000008bc
	...
 540:	00000700 	andeq	r0, r0, r0, lsl #14
 544:	00000708 	andeq	r0, r0, r8, lsl #14
 548:	0000070c 	andeq	r0, r0, ip, lsl #14
 54c:	000007ec 	andeq	r0, r0, ip, ror #15
 550:	00000894 	muleq	r0, r4, r8
 554:	000008a8 	andeq	r0, r0, r8, lsr #17
	...
 560:	00000728 	andeq	r0, r0, r8, lsr #14
 564:	000007a4 	andeq	r0, r0, r4, lsr #15
 568:	000007ac 	andeq	r0, r0, ip, lsr #15
 56c:	000007b0 			; <UNDEFINED> instruction: 0x000007b0
 570:	00000894 	muleq	r0, r4, r8
 574:	00000898 	muleq	r0, r8, r8
 578:	0000089c 	muleq	r0, ip, r8
 57c:	000008a0 	andeq	r0, r0, r0, lsr #17
	...
 588:	000007a4 	andeq	r0, r0, r4, lsr #15
 58c:	000007ac 	andeq	r0, r0, ip, lsr #15
 590:	000007b0 			; <UNDEFINED> instruction: 0x000007b0
 594:	000007ec 	andeq	r0, r0, ip, ror #15
 598:	00000898 	muleq	r0, r8, r8
 59c:	0000089c 	muleq	r0, ip, r8
 5a0:	000008a0 	andeq	r0, r0, r0, lsr #17
 5a4:	000008a8 	andeq	r0, r0, r8, lsr #17
	...
 5b0:	00009754 	andeq	r9, r0, r4, asr r7
 5b4:	00009754 	andeq	r9, r0, r4, asr r7
 5b8:	00009758 	andeq	r9, r0, r8, asr r7
 5bc:	00009760 	andeq	r9, r0, r0, ror #14
	...
 5c8:	00009728 	andeq	r9, r0, r8, lsr #14
 5cc:	000097b4 			; <UNDEFINED> instruction: 0x000097b4
	...
 5d8:	00000030 	andeq	r0, r0, r0, lsr r0
 5dc:	00000030 	andeq	r0, r0, r0, lsr r0
 5e0:	00000038 	andeq	r0, r0, r8, lsr r0
 5e4:	0000004c 	andeq	r0, r0, ip, asr #32
	...
 5f0:	0000004c 	andeq	r0, r0, ip, asr #32
 5f4:	00000050 	andeq	r0, r0, r0, asr r0
 5f8:	00000050 	andeq	r0, r0, r0, asr r0
 5fc:	00000078 	andeq	r0, r0, r8, ror r0
	...
 608:	0000004c 	andeq	r0, r0, ip, asr #32
 60c:	00000050 	andeq	r0, r0, r0, asr r0
 610:	00000050 	andeq	r0, r0, r0, asr r0
 614:	00000060 	andeq	r0, r0, r0, rrx
 618:	00000064 	andeq	r0, r0, r4, rrx
 61c:	00000068 	andeq	r0, r0, r8, rrx
	...
 628:	0000004c 	andeq	r0, r0, ip, asr #32
 62c:	00000050 	andeq	r0, r0, r0, asr r0
 630:	00000054 	andeq	r0, r0, r4, asr r0
 634:	00000060 	andeq	r0, r0, r0, rrx
	...
 640:	0000009c 	muleq	r0, ip, r0
 644:	000000a0 	andeq	r0, r0, r0, lsr #1
 648:	000000a0 	andeq	r0, r0, r0, lsr #1
 64c:	000000c8 	andeq	r0, r0, r8, asr #1
	...
 658:	0000009c 	muleq	r0, ip, r0
 65c:	000000a0 	andeq	r0, r0, r0, lsr #1
 660:	000000a0 	andeq	r0, r0, r0, lsr #1
 664:	000000b0 	strheq	r0, [r0], -r0	; <UNPREDICTABLE>
 668:	000000b4 	strheq	r0, [r0], -r4
 66c:	000000b8 	strheq	r0, [r0], -r8
	...
 678:	0000009c 	muleq	r0, ip, r0
 67c:	000000a0 	andeq	r0, r0, r0, lsr #1
 680:	000000a4 	andeq	r0, r0, r4, lsr #1
 684:	000000b0 	strheq	r0, [r0], -r0	; <UNPREDICTABLE>
	...
 690:	000000c8 	andeq	r0, r0, r8, asr #1
 694:	000000c8 	andeq	r0, r0, r8, asr #1
 698:	000000cc 	andeq	r0, r0, ip, asr #1
 69c:	0000011c 	andeq	r0, r0, ip, lsl r1
	...
 6a8:	000000f0 	strdeq	r0, [r0], -r0	; <UNPREDICTABLE>
 6ac:	000000f4 	strdeq	r0, [r0], -r4
 6b0:	000000f4 	strdeq	r0, [r0], -r4
 6b4:	0000011c 	andeq	r0, r0, ip, lsl r1
	...
 6c0:	000000f0 	strdeq	r0, [r0], -r0	; <UNPREDICTABLE>
 6c4:	000000f4 	strdeq	r0, [r0], -r4
 6c8:	000000f4 	strdeq	r0, [r0], -r4
 6cc:	00000104 	andeq	r0, r0, r4, lsl #2
 6d0:	00000108 	andeq	r0, r0, r8, lsl #2
 6d4:	0000010c 	andeq	r0, r0, ip, lsl #2
	...
 6e0:	000000f0 	strdeq	r0, [r0], -r0	; <UNPREDICTABLE>
 6e4:	000000f4 	strdeq	r0, [r0], -r4
 6e8:	000000f8 	strdeq	r0, [r0], -r8
 6ec:	00000104 	andeq	r0, r0, r4, lsl #2
	...
 6f8:	00000134 	andeq	r0, r0, r4, lsr r1
 6fc:	00000134 	andeq	r0, r0, r4, lsr r1
 700:	00000134 	andeq	r0, r0, r4, lsr r1
 704:	0000013c 	andeq	r0, r0, ip, lsr r1
	...
 710:	0000024c 	andeq	r0, r0, ip, asr #4
 714:	00000264 	andeq	r0, r0, r4, ror #4
 718:	000002c8 	andeq	r0, r0, r8, asr #5
 71c:	000002e8 	andeq	r0, r0, r8, ror #5
	...
 728:	00000008 	andeq	r0, r0, r8
 72c:	0000000c 	andeq	r0, r0, ip
 730:	00000014 	andeq	r0, r0, r4, lsl r0
 734:	00000054 	andeq	r0, r0, r4, asr r0
 738:	00000058 	andeq	r0, r0, r8, asr r0
 73c:	00000060 	andeq	r0, r0, r0, rrx
	...
 748:	00000060 	andeq	r0, r0, r0, rrx
 74c:	00000068 	andeq	r0, r0, r8, rrx
 750:	0000006c 	andeq	r0, r0, ip, rrx
 754:	000000ac 	andeq	r0, r0, ip, lsr #1
 758:	000000b0 	strheq	r0, [r0], -r0	; <UNPREDICTABLE>
 75c:	000000b8 	strheq	r0, [r0], -r8
	...
 768:	00000068 	andeq	r0, r0, r8, rrx
 76c:	00000068 	andeq	r0, r0, r8, rrx
 770:	0000006c 	andeq	r0, r0, ip, rrx
 774:	000000ac 	andeq	r0, r0, ip, lsr #1
 778:	000000b0 	strheq	r0, [r0], -r0	; <UNPREDICTABLE>
 77c:	000000b8 	strheq	r0, [r0], -r8
	...
 788:	000000e8 	andeq	r0, r0, r8, ror #1
 78c:	000000f0 	strdeq	r0, [r0], -r0	; <UNPREDICTABLE>
 790:	000000f4 	strdeq	r0, [r0], -r4
 794:	00000134 	andeq	r0, r0, r4, lsr r1
 798:	00000138 	andeq	r0, r0, r8, lsr r1
 79c:	00000140 	andeq	r0, r0, r0, asr #2
	...
 7a8:	000000f0 	strdeq	r0, [r0], -r0	; <UNPREDICTABLE>
 7ac:	000000f0 	strdeq	r0, [r0], -r0	; <UNPREDICTABLE>
 7b0:	000000f4 	strdeq	r0, [r0], -r4
 7b4:	00000134 	andeq	r0, r0, r4, lsr r1
 7b8:	00000138 	andeq	r0, r0, r8, lsr r1
 7bc:	00000140 	andeq	r0, r0, r0, asr #2
	...
 7c8:	00000144 	andeq	r0, r0, r4, asr #2
 7cc:	00000148 	andeq	r0, r0, r8, asr #2
 7d0:	00000150 	andeq	r0, r0, r0, asr r1
 7d4:	0000015c 	andeq	r0, r0, ip, asr r1
	...

Disassembly of section .debug_line:

00000000 <.debug_line>:
       0:	00000208 	andeq	r0, r0, r8, lsl #4
       4:	00ee0003 	rsceq	r0, lr, r3
       8:	01020000 	mrseq	r0, (UNDEF: 2)
       c:	000d0efb 	strdeq	r0, [sp], -fp
      10:	01010101 	tsteq	r1, r1, lsl #2
      14:	01000000 	mrseq	r0, (UNDEF: 0)
      18:	74010000 	strvc	r0, [r1], #-0
      1c:	73747365 	cmnvc	r4, #-1811939327	; 0x94000001
      20:	302e322d 	eorcc	r3, lr, sp, lsr #4
      24:	2f002e00 	svccs	0x00002e00
      28:	2f74706f 	svccs	0x0074706f
      2c:	656d6f68 	strbvs	r6, [sp, #-3944]!	; 0xfffff098
      30:	77657262 	strbvc	r7, [r5, -r2, ror #4]!
      34:	6c65432f 	stclvs	3, cr4, [r5], #-188	; 0xffffff44
      38:	2f72616c 	svccs	0x0072616c
      3c:	2d6d7261 	sfmcs	f7, 2, [sp, #-388]!	; 0xfffffe7c
      40:	656e6f6e 	strbvs	r6, [lr, #-3950]!	; 0xfffff092
      44:	6261652d 	rsbvs	r6, r1, #188743680	; 0xb400000
      48:	2f392d69 	svccs	0x00392d69
      4c:	30322d39 	eorscc	r2, r2, r9, lsr sp
      50:	34713931 	ldrbtcc	r3, [r1], #-2353	; 0xfffff6cf
      54:	3173632d 	cmncc	r3, sp, lsr #6
      58:	2f653730 	svccs	0x00653730
      5c:	2f62696c 	svccs	0x0062696c
      60:	2f636367 	svccs	0x00636367
      64:	2d6d7261 	sfmcs	f7, 2, [sp, #-388]!	; 0xfffffe7c
      68:	656e6f6e 	strbvs	r6, [lr, #-3950]!	; 0xfffff092
      6c:	6261652d 	rsbvs	r6, r1, #188743680	; 0xb400000
      70:	2e392f69 	cdpcs	15, 3, cr2, cr9, cr9, {3}
      74:	2f312e32 	svccs	0x00312e32
      78:	6c636e69 	stclvs	14, cr6, [r3], #-420	; 0xfffffe5c
      7c:	00656475 	rsbeq	r6, r5, r5, ror r4
      80:	6573552f 	ldrbvs	r5, [r3, #-1327]!	; 0xfffffad1
      84:	6d2f7372 	stcvs	3, cr7, [pc, #-456]!	; fffffec4 <__bss_end__+0xffff50dc>
      88:	73656c69 	cmnvc	r5, #26880	; 0x6900
      8c:	756f532f 	strbvc	r5, [pc, #-815]!	; fffffd65 <__bss_end__+0xffff4f7d>
      90:	2f656372 	svccs	0x00656372
      94:	34327363 	ldrtcc	r7, [r2], #-867	; 0xfffffc9d
      98:	2f786c30 	svccs	0x00786c30
      9c:	7062696c 	rsbvc	r6, r2, ip, ror #18
      a0:	6e692f69 	cdpvs	15, 6, cr2, cr9, cr9, {3}
      a4:	64756c63 	ldrbtvs	r6, [r5], #-3171	; 0xfffff39d
      a8:	70000065 	andvc	r0, r0, r5, rrx
      ac:	32747261 	rsbscc	r7, r4, #268435462	; 0x10000006
      b0:	7365742d 	cmnvc	r5, #754974720	; 0x2d000000
      b4:	6e2d3474 	mcrvs	4, 1, r3, cr13, cr4, {3}
      b8:	656c2d6f 	strbvs	r2, [ip, #-3439]!	; 0xfffff291
      bc:	632e6b61 			; <UNDEFINED> instruction: 0x632e6b61
      c0:	00000100 	andeq	r0, r0, r0, lsl #2
      c4:	2d637273 	sfmcs	f7, 2, [r3, #-460]!	; 0xfffffe34
      c8:	2e636f6c 	cdpcs	15, 6, cr6, cr3, cr12, {3}
      cc:	00020068 	andeq	r0, r2, r8, rrx
      d0:	616b6300 	cmnvs	fp, r0, lsl #6
      d4:	636f6c6c 	cmnvs	pc, #108, 24	; 0x6c00
      d8:	0200682e 	andeq	r6, r0, #3014656	; 0x2e0000
      dc:	74730000 	ldrbtvc	r0, [r3], #-0
      e0:	746e6964 	strbtvc	r6, [lr], #-2404	; 0xfffff69c
      e4:	6363672d 	cmnvs	r3, #11796480	; 0xb40000
      e8:	0300682e 	movweq	r6, #2094	; 0x82e
      ec:	70720000 	rsbsvc	r0, r2, r0
      f0:	00682e69 	rsbeq	r2, r8, r9, ror #28
      f4:	00000004 	andeq	r0, r0, r4
      f8:	05001205 	streq	r1, [r0, #-517]	; 0xfffffdfb
      fc:	00803802 	addeq	r3, r0, r2, lsl #16
     100:	05051900 	streq	r1, [r5, #-2304]	; 0xfffff700
     104:	09051813 	stmdbeq	r5, {r0, r1, r4, fp, ip}
     108:	01140501 	tsteq	r4, r1, lsl #10
     10c:	04130905 	ldreq	r0, [r3], #-2309	; 0xfffff6fb
     110:	0e0b0502 	cfsh32eq	mvfx0, mvfx11, #2
     114:	04130505 	ldreq	r0, [r3], #-1285	; 0xfffffafb
     118:	06120501 	ldreq	r0, [r2], -r1, lsl #10
     11c:	0502040d 	streq	r0, [r2, #-1037]	; 0xfffffbf3
     120:	0104330c 	tsteq	r4, ip, lsl #6
     124:	04611205 	strbteq	r1, [r1], #-517	; 0xfffffdfb
     128:	330c0502 	movwcc	r0, #50434	; 0xc502
     12c:	0501042e 	streq	r0, [r1, #-1070]	; 0xfffffbd2
     130:	0e054d1a 	mcreq	13, 0, r4, cr5, cr10, {0}
     134:	2c1a0584 	cfldr32cs	mvfx0, [sl], {132}	; 0x84
     138:	2f060905 	svccs	0x00060905
     13c:	060e0567 	streq	r0, [lr], -r7, ror #10
     140:	06090501 	streq	r0, [r9], -r1, lsl #10
     144:	02042b4b 	andeq	r2, r4, #76800	; 0x12c00
     148:	050e0b05 	streq	r0, [lr, #-2821]	; 0xfffff4fb
     14c:	0c051305 	stceq	3, cr1, [r5], {5}
     150:	04660106 	strbteq	r0, [r6], #-262	; 0xfffffefa
     154:	151a0501 	ldrne	r0, [sl, #-1281]	; 0xfffffaff
     158:	83060905 	movwhi	r0, #26885	; 0x6905
     15c:	060d0567 	streq	r0, [sp], -r7, ror #10
     160:	2c0e0514 	cfstr32cs	mvfx0, [lr], {20}
     164:	2f060905 	svccs	0x00060905
     168:	01130d05 	tsteq	r3, r5, lsl #26
     16c:	02040200 	andeq	r0, r4, #0, 4
     170:	0402004a 	streq	r0, [r2], #-74	; 0xffffffb6
     174:	02000102 	andeq	r0, r0, #-2147483648	; 0x80000000
     178:	05130204 	ldreq	r0, [r3, #-516]	; 0xfffffdfc
     17c:	04020015 	streq	r0, [r2], #-21	; 0xffffffeb
     180:	05010602 	streq	r0, [r1, #-1538]	; 0xfffff9fe
     184:	0402000d 	streq	r0, [r2], #-13
     188:	052f0602 	streq	r0, [pc, #-1538]!	; fffffb8e <__bss_end__+0xffff4da6>
     18c:	04020015 	streq	r0, [r2], #-21	; 0xffffffeb
     190:	05010602 	streq	r0, [r1, #-1538]	; 0xfffff9fe
     194:	04020009 	streq	r0, [r2], #-9
     198:	004c0602 	subeq	r0, ip, r2, lsl #12
     19c:	06020402 	streq	r0, [r2], -r2, lsl #8
     1a0:	001d0501 	andseq	r0, sp, r1, lsl #10
     1a4:	06020402 	streq	r0, [r2], -r2, lsl #8
     1a8:	05017703 	streq	r7, [r1, #-1795]	; 0xfffff8fd
     1ac:	04020014 	streq	r0, [r2], #-20	; 0xffffffec
     1b0:	05050102 	streq	r0, [r5, #-258]	; 0xfffffefe
     1b4:	02040200 	andeq	r0, r4, #0, 4
     1b8:	02000106 	andeq	r0, r0, #-2147483647	; 0x80000001
     1bc:	064a0204 	strbeq	r0, [sl], -r4, lsl #4
     1c0:	30011003 	andcc	r1, r1, r3
     1c4:	13060105 	movwne	r0, #24837	; 0x6105
     1c8:	03060705 	movweq	r0, #26373	; 0x6705
     1cc:	0d056666 	stceq	6, cr6, [r5, #-408]	; 0xfffffe68
     1d0:	01010c03 	tsteq	r1, r3, lsl #24
     1d4:	031405d6 	tsteq	r4, #897581056	; 0x35800000
     1d8:	05059e10 	streq	r9, [r5, #-3600]	; 0xfffff1f0
     1dc:	06140513 			; <UNDEFINED> instruction: 0x06140513
     1e0:	2f050511 	svccs	0x00050511
     1e4:	0f054d06 	svceq	0x00054d06
     1e8:	01050106 	tsteq	r5, r6, lsl #2
     1ec:	2c0f0530 	cfstr32cs	mvfx0, [pc], {48}	; 0x30
     1f0:	2f060505 	svccs	0x00060505
     1f4:	05030401 	streq	r0, [r3, #-1025]	; 0xfffffbff
     1f8:	01790311 	cmneq	r9, r1, lsl r3
     1fc:	13130505 	tstne	r3, #20971520	; 0x1400000
     200:	01040106 	tsteq	r4, r6, lsl #2
     204:	024a2e17 	subeq	r2, sl, #368	; 0x170
     208:	01010004 	tsteq	r1, r4
     20c:	00000421 	andeq	r0, r0, r1, lsr #8
     210:	00e50003 	rsceq	r0, r5, r3
     214:	01020000 	mrseq	r0, (UNDEF: 2)
     218:	000d0efb 	strdeq	r0, [sp], -fp
     21c:	01010101 	tsteq	r1, r1, lsl #2
     220:	01000000 	mrseq	r0, (UNDEF: 0)
     224:	2f010000 	svccs	0x00010000
     228:	2f74706f 	svccs	0x0074706f
     22c:	656d6f68 	strbvs	r6, [sp, #-3944]!	; 0xfffff098
     230:	77657262 	strbvc	r7, [r5, -r2, ror #4]!
     234:	6c65432f 	stclvs	3, cr4, [r5], #-188	; 0xffffff44
     238:	2f72616c 	svccs	0x0072616c
     23c:	2d6d7261 	sfmcs	f7, 2, [sp, #-388]!	; 0xfffffe7c
     240:	656e6f6e 	strbvs	r6, [lr, #-3950]!	; 0xfffff092
     244:	6261652d 	rsbvs	r6, r1, #188743680	; 0xb400000
     248:	2f392d69 	svccs	0x00392d69
     24c:	30322d39 	eorscc	r2, r2, r9, lsr sp
     250:	34713931 	ldrbtcc	r3, [r1], #-2353	; 0xfffff6cf
     254:	3173632d 	cmncc	r3, sp, lsr #6
     258:	2f653730 	svccs	0x00653730
     25c:	2f62696c 	svccs	0x0062696c
     260:	2f636367 	svccs	0x00636367
     264:	2d6d7261 	sfmcs	f7, 2, [sp, #-388]!	; 0xfffffe7c
     268:	656e6f6e 	strbvs	r6, [lr, #-3950]!	; 0xfffff092
     26c:	6261652d 	rsbvs	r6, r1, #188743680	; 0xb400000
     270:	2e392f69 	cdpcs	15, 3, cr2, cr9, cr9, {3}
     274:	2f312e32 	svccs	0x00312e32
     278:	6c636e69 	stclvs	14, cr6, [r3], #-420	; 0xfffffe5c
     27c:	00656475 	rsbeq	r6, r5, r5, ror r4
     280:	6573552f 	ldrbvs	r5, [r3, #-1327]!	; 0xfffffad1
     284:	6d2f7372 	stcvs	3, cr7, [pc, #-456]!	; c4 <__code_start__-0x7f3c>
     288:	73656c69 	cmnvc	r5, #26880	; 0x6900
     28c:	756f532f 	strbvc	r5, [pc, #-815]!	; ffffff65 <__bss_end__+0xffff517d>
     290:	2f656372 	svccs	0x00656372
     294:	34327363 	ldrtcc	r7, [r2], #-867	; 0xfffffc9d
     298:	2f786c30 	svccs	0x00786c30
     29c:	7062696c 	rsbvc	r6, r2, ip, ror #18
     2a0:	6e692f69 	cdpvs	15, 6, cr2, cr9, cr9, {3}
     2a4:	64756c63 	ldrbtvs	r6, [r5], #-3171	; 0xfffff39d
     2a8:	63000065 	movwvs	r0, #101	; 0x65
     2ac:	6c6c616b 	stfvse	f6, [ip], #-428	; 0xfffffe54
     2b0:	632e636f 			; <UNDEFINED> instruction: 0x632e636f
     2b4:	00000000 	andeq	r0, r0, r0
     2b8:	6c616b63 			; <UNDEFINED> instruction: 0x6c616b63
     2bc:	2e636f6c 	cdpcs	15, 6, cr6, cr3, cr12, {3}
     2c0:	00000068 	andeq	r0, r0, r8, rrx
     2c4:	64747300 	ldrbtvs	r7, [r4], #-768	; 0xfffffd00
     2c8:	2d746e69 	ldclcs	14, cr6, [r4, #-420]!	; 0xfffffe5c
     2cc:	2e636367 	cdpcs	3, 6, cr6, cr3, cr7, {3}
     2d0:	00010068 	andeq	r0, r1, r8, rrx
     2d4:	69707200 	ldmdbvs	r0!, {r9, ip, sp, lr}^
     2d8:	0200682e 	andeq	r6, r0, #3014656	; 0x2e0000
     2dc:	72730000 	rsbsvc	r0, r3, #0, 0
     2e0:	6f6c2d63 	svcvs	0x006c2d63
     2e4:	00682e63 	rsbeq	r2, r8, r3, ror #28
     2e8:	6b000000 	blvs	2f0 <__code_start__-0x7d10>
     2ec:	616d2d72 	smcvs	53970	; 0xd2d2
     2f0:	636f6c6c 	cmnvs	pc, #108, 24	; 0x6c00
     2f4:	0000682e 	andeq	r6, r0, lr, lsr #16
     2f8:	05000000 	streq	r0, [r0, #-0]
     2fc:	02050001 	andeq	r0, r5, #1, 0
     300:	00008140 	andeq	r8, r0, r0, asr #2
     304:	05010b03 	streq	r0, [r1, #-2819]	; 0xfffff4fd
     308:	0c051305 	stceq	3, cr1, [r5], {5}
     30c:	01050106 	tsteq	r5, r6, lsl #2
     310:	056a062f 	strbeq	r0, [sl, #-1583]!	; 0xfffff9d1
     314:	08051305 	stmdaeq	r5, {r0, r2, r8, r9, ip}
     318:	09050106 	stmdbeq	r5, {r1, r2, r8}
     31c:	11052f06 	tstne	r5, r6, lsl #30
     320:	01050106 	tsteq	r5, r6, lsl #2
     324:	05310630 	ldreq	r0, [r1, #-1584]!	; 0xfffff9d0
     328:	01051305 	tsteq	r5, r5, lsl #6
     32c:	062e1306 	strteq	r1, [lr], -r6, lsl #6
     330:	13050532 	movwne	r0, #21810	; 0x5532
     334:	04017a03 	streq	r7, [r1], #-2563	; 0xfffff5fd
     338:	01150302 	tsteq	r5, r2, lsl #6
     33c:	24050104 	strcs	r0, [r5], #-260	; 0xfffffefc
     340:	01710306 	cmneq	r1, r6, lsl #6
     344:	2e4b0105 	dvfcse	f0, f3, f5
     348:	05053206 	streq	r3, [r5, #-518]	; 0xfffffdfa
     34c:	03070513 	movweq	r0, #29971	; 0x7513
     350:	05050172 	streq	r0, [r5, #-370]	; 0xfffffe8e
     354:	06010614 			; <UNDEFINED> instruction: 0x06010614
     358:	05010d03 	streq	r0, [r1, #-3331]	; 0xfffff2fd
     35c:	01770307 	cmneq	r7, r7, lsl #6
     360:	06140505 	ldreq	r0, [r4], -r5, lsl #10
     364:	7a030601 	bvc	c1b70 <__bss_end__+0xb6d88>
     368:	03020401 	movweq	r0, #9217	; 0x2401
     36c:	01040115 	tsteq	r4, r5, lsl r1
     370:	05017903 	streq	r7, [r1, #-2307]	; 0xfffff6fd
     374:	78030624 	stmdavc	r3, {r2, r5, r9, sl}
     378:	030c0501 	movweq	r0, #50433	; 0xc501
     37c:	052e2e7a 	streq	r2, [lr, #-3706]!	; 0xfffff186
     380:	054a1824 	strbeq	r1, [sl, #-2084]	; 0xfffff7dc
     384:	01090301 	tsteq	r9, r1, lsl #6
     388:	0505a106 	streq	sl, [r5, #-262]	; 0xfffffefa
     38c:	010a0514 	tsteq	sl, r4, lsl r5
     390:	5d030805 	stcpl	8, cr0, [r3, #-20]	; 0xffffffec
     394:	14050501 	strne	r0, [r5], #-1281	; 0xfffffaff
     398:	01060c05 	tsteq	r6, r5, lsl #24
     39c:	1f030105 	svcne	0x00030105
     3a0:	030c052e 	movweq	r0, #50478	; 0xc52e
     3a4:	052e2e61 	streq	r2, [lr, #-3681]!	; 0xfffff19f
     3a8:	21030625 	tstcs	r3, r5, lsr #12
     3ac:	06050501 	streq	r0, [r5], -r1, lsl #10
     3b0:	06090501 	streq	r0, [r9], -r1, lsl #10
     3b4:	030a054d 	movweq	r0, #42317	; 0xa54d
     3b8:	05050173 	streq	r0, [r5, #-371]	; 0xfffffe8d
     3bc:	03070514 	movweq	r0, #29972	; 0x7514
     3c0:	05050172 	streq	r0, [r5, #-370]	; 0xfffffe8e
     3c4:	06010614 			; <UNDEFINED> instruction: 0x06010614
     3c8:	05010d03 	streq	r0, [r1, #-3331]	; 0xfffff2fd
     3cc:	01770307 	cmneq	r7, r7, lsl #6
     3d0:	06140505 	ldreq	r0, [r4], -r5, lsl #10
     3d4:	7a030601 	bvc	c1be0 <__bss_end__+0xb6df8>
     3d8:	03020401 	movweq	r0, #9217	; 0x2401
     3dc:	01040115 	tsteq	r4, r5, lsl r1
     3e0:	05017903 	streq	r7, [r1, #-2307]	; 0xfffff6fd
     3e4:	78030624 	stmdavc	r3, {r2, r5, r9, sl}
     3e8:	030c0501 	movweq	r0, #50433	; 0xc501
     3ec:	2e2e2e7a 	mcrcs	14, 1, r2, cr14, cr10, {3}
     3f0:	03060905 	movweq	r0, #26885	; 0x6905
     3f4:	28050117 	stmdacs	r5, {r0, r1, r2, r4, r8}
     3f8:	0308050f 	movweq	r0, #34063	; 0x850f
     3fc:	05050163 	streq	r0, [r5, #-355]	; 0xfffffe9d
     400:	13090514 	movwne	r0, #38164	; 0x9514
     404:	01061105 	tsteq	r6, r5, lsl #2
     408:	060a052e 	streq	r0, [sl], -lr, lsr #10
     40c:	05011003 	streq	r1, [r1, #-3]
     410:	07051405 	streq	r1, [r5, -r5, lsl #8]
     414:	05017203 	streq	r7, [r1, #-515]	; 0xfffffdfd
     418:	01061405 	tsteq	r6, r5, lsl #8
     41c:	010d0306 	tsteq	sp, r6, lsl #6
     420:	77030705 	strvc	r0, [r3, -r5, lsl #14]
     424:	14050501 	strne	r0, [r5], #-1281	; 0xfffffaff
     428:	03060106 	movweq	r0, #24838	; 0x6106
     42c:	0204017a 	andeq	r0, r4, #-2147483618	; 0x8000001e
     430:	04011503 	streq	r1, [r1], #-1283	; 0xfffffafd
     434:	01790301 	cmneq	r9, r1, lsl #6
     438:	25050106 	strcs	r0, [r5, #-262]	; 0xfffffefa
     43c:	05051806 	streq	r1, [r5, #-2054]	; 0xfffff7fa
     440:	0c050106 	stfeqs	f0, [r5], {6}
     444:	2e2e6c03 	cdpcs	12, 2, cr6, cr14, cr3, {0}
     448:	14030505 	strne	r0, [r3], #-1285	; 0xfffffafb
     44c:	03240501 			; <UNDEFINED> instruction: 0x03240501
     450:	052e2e72 	streq	r2, [lr, #-3698]!	; 0xfffff18e
     454:	4a11030c 	bmi	44108c <__bss_end__+0x4362a4>
     458:	d8060d05 	stmdale	r6, {r0, r2, r8, sl, fp}
     45c:	062e4a06 	strteq	r4, [lr], -r6, lsl #20
     460:	0501062f 	streq	r0, [r1, #-1583]	; 0xfffff9d1
     464:	03061601 	movweq	r1, #26113	; 0x6601
     468:	0106821c 	tsteq	r6, ip, lsl r2
     46c:	05052e66 	streq	r2, [r5, #-3686]	; 0xfffff19a
     470:	06136706 	ldreq	r6, [r3], -r6, lsl #14
     474:	f3080514 	vqrshl.u8	d0, d4, d8
     478:	2d060505 	cfstr32cs	mvfx0, [r6, #-20]	; 0xffffffec
     47c:	13010101 	movwne	r0, #4353	; 0x1101
     480:	01060805 	tsteq	r6, r5, lsl #16
     484:	4b060905 	blmi	1828a0 <__bss_end__+0x177ab8>
     488:	05140505 	ldreq	r0, [r4, #-1285]	; 0xfffffafb
     48c:	0501060e 	streq	r0, [r1, #-1550]	; 0xfffff9f2
     490:	7fb1030c 	svcvc	0x00b1030c
     494:	030e052e 	movweq	r0, #58670	; 0xe52e
     498:	052e00cf 	streq	r0, [lr, #-207]!	; 0xffffff31
     49c:	012f0605 			; <UNDEFINED> instruction: 0x012f0605
     4a0:	4e030805 	cdpmi	8, 0, cr0, cr3, cr5, {0}
     4a4:	15050501 	strne	r0, [r5, #-1281]	; 0xfffffaff
     4a8:	05010a05 	streq	r0, [r1, #-2565]	; 0xfffff5fb
     4ac:	015d0308 	cmpeq	sp, r8, lsl #6
     4b0:	05140505 	ldreq	r0, [r4, #-1285]	; 0xfffffafb
     4b4:	2e01060c 	cfmadd32cs	mvax0, mvfx0, mvfx1, mvfx12
     4b8:	03062505 	movweq	r2, #25861	; 0x6505
     4bc:	05050121 	streq	r0, [r5, #-289]	; 0xfffffedf
     4c0:	05660106 	strbeq	r0, [r6, #-262]!	; 0xfffffefa
     4c4:	052e0628 	streq	r0, [lr, #-1576]!	; 0xfffff9d8
     4c8:	01630308 	cmneq	r3, r8, lsl #6
     4cc:	05140505 	ldreq	r0, [r4, #-1285]	; 0xfffffafb
     4d0:	11051309 	tstne	r5, r9, lsl #6
     4d4:	052e0106 	streq	r0, [lr, #-262]!	; 0xfffffefa
     4d8:	1a030625 	bne	c1d74 <__bss_end__+0xb6f8c>
     4dc:	06050501 	streq	r0, [r5], -r1, lsl #10
     4e0:	06090501 	streq	r0, [r9], -r1, lsl #10
     4e4:	030a054d 	movweq	r0, #42317	; 0xa54d
     4e8:	05050173 	streq	r0, [r5, #-371]	; 0xfffffe8d
     4ec:	03070514 	movweq	r0, #29972	; 0x7514
     4f0:	05050172 	streq	r0, [r5, #-370]	; 0xfffffe8e
     4f4:	06010614 			; <UNDEFINED> instruction: 0x06010614
     4f8:	05010d03 	streq	r0, [r1, #-3331]	; 0xfffff2fd
     4fc:	01770307 	cmneq	r7, r7, lsl #6
     500:	06140505 	ldreq	r0, [r4], -r5, lsl #10
     504:	7a030601 	bvc	c1d10 <__bss_end__+0xb6f28>
     508:	03020401 	movweq	r0, #9217	; 0x2401
     50c:	01040115 	tsteq	r4, r5, lsl r1
     510:	05017903 	streq	r7, [r1, #-2307]	; 0xfffff6fd
     514:	78030624 	stmdavc	r3, {r2, r5, r9, sl}
     518:	030c0501 	movweq	r0, #50433	; 0xc501
     51c:	052e2e7a 	streq	r2, [lr, #-3706]!	; 0xfffff186
     520:	0c051824 	stceq	8, cr1, [r5], {36}	; 0x24
     524:	054a1103 	strbeq	r1, [sl, #-259]	; 0xfffffefd
     528:	06d8060d 	ldrbeq	r0, [r8], sp, lsl #12
     52c:	064b062e 	strbeq	r0, [fp], -lr, lsr #12
     530:	06050501 	streq	r0, [r5], -r1, lsl #10
     534:	01012903 	tsteq	r1, r3, lsl #18
     538:	030d0514 	movweq	r0, #54548	; 0xd514
     53c:	0505015b 	streq	r0, [r5, #-347]	; 0xfffffea5
     540:	01010114 	tsteq	r1, r4, lsl r1
     544:	060c0513 			; <UNDEFINED> instruction: 0x060c0513
     548:	06050501 	streq	r0, [r5], -r1, lsl #10
     54c:	06080530 			; <UNDEFINED> instruction: 0x06080530
     550:	060b0501 	streq	r0, [fp], -r1, lsl #10
     554:	03080551 	movweq	r0, #34129	; 0x8551
     558:	0505014b 	streq	r0, [r5, #-331]	; 0xfffffeb5
     55c:	06080514 			; <UNDEFINED> instruction: 0x06080514
     560:	06090501 	streq	r0, [r9], -r1, lsl #10
     564:	0611054b 	ldreq	r0, [r1], -fp, asr #10
     568:	0b052e01 	bleq	14bd74 <__bss_end__+0x140f8c>
     56c:	05013203 	streq	r3, [r1, #-515]	; 0xfffffdfd
     570:	054c0609 	strbeq	r0, [ip, #-1545]	; 0xfffff9f7
     574:	0501060c 	streq	r0, [r1, #-1548]	; 0xfffff9f4
     578:	0564060b 	strbeq	r0, [r4, #-1547]!	; 0xfffff9f5
     57c:	014b0308 	cmpeq	fp, r8, lsl #6
     580:	05140505 	ldreq	r0, [r4, #-1285]	; 0xfffffafb
     584:	4a010608 	bmi	41dac <__bss_end__+0x36fc4>
     588:	03060505 	movweq	r0, #25861	; 0x6505
     58c:	0601013c 			; <UNDEFINED> instruction: 0x0601013c
     590:	059e062e 	ldreq	r0, [lr, #1582]	; 0x62e
     594:	2e720309 	cdpcs	3, 7, cr0, cr2, cr9, {0}
     598:	01060c05 	tsteq	r6, r5, lsl #24
     59c:	0609052e 	streq	r0, [r9], -lr, lsr #10
     5a0:	0305052f 	movweq	r0, #21807	; 0x552f
     5a4:	0106010d 	tsteq	r6, sp, lsl #2
     5a8:	01110306 	tsteq	r1, r6, lsl #6
     5ac:	2f060105 	svccs	0x00060105
     5b0:	05490505 	strbeq	r0, [r9, #-1285]	; 0xfffffafb
     5b4:	6a03060d 	bvs	c1df0 <__bss_end__+0xb7008>
     5b8:	061b052e 	ldreq	r0, [fp], -lr, lsr #10
     5bc:	2e180501 	cfmul32cs	mvfx0, mvfx8, mvfx1
     5c0:	2f060d05 	svccs	0x00060d05
     5c4:	09052e06 	stmdbeq	r5, {r1, r2, r9, sl, fp, sp}
     5c8:	010f0306 	tsteq	pc, r6, lsl #6
     5cc:	05669e01 	strbeq	r9, [r6, #-3585]!	; 0xfffff1ff
     5d0:	d6013105 	strle	r3, [r1], -r5, lsl #2
     5d4:	0a030105 	beq	c09f0 <__bss_end__+0xb5c08>
     5d8:	05059008 	streq	r9, [r5, #-8]
     5dc:	06010513 			; <UNDEFINED> instruction: 0x06010513
     5e0:	10054a11 	andne	r4, r5, r1, lsl sl
     5e4:	2d01054b 	cfstr32cs	mvfx0, [r1, #-300]	; 0xfffffed4
     5e8:	052f1005 	streq	r1, [pc, #-5]!	; 5eb <__code_start__-0x7a15>
     5ec:	10052f05 	andne	r2, r5, r5, lsl #30
     5f0:	0605052d 	streq	r0, [r5], -sp, lsr #10
     5f4:	12054c2f 	andne	r4, r5, #12032	; 0x2f00
     5f8:	0e051406 	cdpeq	4, 0, cr1, cr5, cr6, {0}
     5fc:	2f12052d 	svccs	0x0012052d
     600:	052d0e05 	streq	r0, [sp, #-3589]!	; 0xfffff1fb
     604:	062f0605 	strteq	r0, [pc], -r5, lsl #12
     608:	2c120514 	cfldr32cs	mvfx0, [r2], {20}
     60c:	30060505 	andcc	r0, r6, r5, lsl #10
     610:	14828201 	strne	r8, [r2], #513	; 0x201
     614:	16060105 	strne	r0, [r6], -r5, lsl #2
     618:	052a0d05 	streq	r0, [sl, #-3333]!	; 0xfffff2fb
     61c:	05670605 	strbeq	r0, [r7, #-1541]!	; 0xfffff9fb
     620:	05010610 	streq	r0, [r1, #-1552]	; 0xfffff9f0
     624:	05300605 	ldreq	r0, [r0, #-1541]!	; 0xfffff9fb
     628:	4a130601 	bmi	4c1e34 <__bss_end__+0x4b704c>
     62c:	01000602 	tsteq	r0, r2, lsl #12
     630:	00023c01 	andeq	r3, r2, r1, lsl #24
     634:	64000300 	strvs	r0, [r0], #-768	; 0xfffffd00
     638:	02000000 	andeq	r0, r0, #0, 0
     63c:	0d0efb01 	vstreq	d15, [lr, #-4]
     640:	01010100 	mrseq	r0, (UNDEF: 17)
     644:	00000001 	andeq	r0, r0, r1
     648:	01000001 	tsteq	r0, r1
     64c:	6573552f 	ldrbvs	r5, [r3, #-1327]!	; 0xfffffad1
     650:	6d2f7372 	stcvs	3, cr7, [pc, #-456]!	; 490 <__code_start__-0x7b70>
     654:	73656c69 	cmnvc	r5, #26880	; 0x6900
     658:	756f532f 	strbvc	r5, [pc, #-815]!	; 331 <__code_start__-0x7ccf>
     65c:	2f656372 	svccs	0x00656372
     660:	34327363 	ldrtcc	r7, [r2], #-867	; 0xfffffc9d
     664:	2f786c30 	svccs	0x00786c30
     668:	7062696c 	rsbvc	r6, r2, ip, ror #18
     66c:	6e692f69 	cdpvs	15, 6, cr2, cr9, cr9, {3}
     670:	64756c63 	ldrbtvs	r6, [r5], #-3171	; 0xfffff39d
     674:	6b000065 	blvs	810 <__code_start__-0x77f0>
     678:	616d2d72 	smcvs	53970	; 0xd2d2
     67c:	636f6c6c 	cmnvs	pc, #108, 24	; 0x6c00
     680:	0000632e 	andeq	r6, r0, lr, lsr #6
     684:	70720000 	rsbsvc	r0, r2, r0
     688:	00682e69 	rsbeq	r2, r8, r9, ror #28
     68c:	6b000001 	blvs	698 <__code_start__-0x7968>
     690:	616d2d72 	smcvs	53970	; 0xd2d2
     694:	636f6c6c 	cmnvs	pc, #108, 24	; 0x6c00
     698:	0000682e 	andeq	r6, r0, lr, lsr #16
     69c:	05000000 	streq	r0, [r0, #-0]
     6a0:	02050001 	andeq	r0, r5, #1, 0
     6a4:	00008430 	andeq	r8, r0, r0, lsr r4
     6a8:	0100d303 	tsteq	r0, r3, lsl #6
     6ac:	13130205 	tstne	r3, #1342177280	; 0x50000000
     6b0:	10060105 	andne	r0, r6, r5, lsl #2
     6b4:	05310905 	ldreq	r0, [r1, #-2309]!	; 0xfffff6fb
     6b8:	02052d05 	andeq	r2, r5, #320	; 0x140
     6bc:	09052f06 	stmdbeq	r5, {r1, r2, r8, r9, sl, fp, sp}
     6c0:	02050106 	andeq	r0, r5, #-2147483647	; 0x80000001
     6c4:	0012052e 	andseq	r0, r2, lr, lsr #10
     6c8:	2e030402 	cdpcs	4, 0, cr0, cr3, cr2, {0}
     6cc:	054b0605 	strbeq	r0, [fp, #-1541]	; 0xfffff9fb
     6d0:	04020001 	streq	r0, [r2], #-1
     6d4:	12054601 	andne	r4, r5, #1048576	; 0x100000
     6d8:	01040200 	mrseq	r0, R12_usr
     6dc:	03053106 	movweq	r3, #20742	; 0x5106
     6e0:	01040200 	mrseq	r0, R12_usr
     6e4:	04020013 	streq	r0, [r2], #-19	; 0xffffffed
     6e8:	02050101 	andeq	r0, r5, #1073741824	; 0x40000000
     6ec:	01040200 	mrseq	r0, R12_usr
     6f0:	10051106 	andne	r1, r5, r6, lsl #2
     6f4:	01040200 	mrseq	r0, R12_usr
     6f8:	0002052f 	andeq	r0, r2, pc, lsr #10
     6fc:	2d010402 	cfstrscs	mvf0, [r1, #-8]
     700:	052f0605 	streq	r0, [pc, #-1541]!	; 103 <__code_start__-0x7efd>
     704:	04020020 	streq	r0, [r2], #-32	; 0xffffffe0
     708:	02054a02 	andeq	r4, r5, #8192	; 0x2000
     70c:	10054c06 	andne	r4, r5, r6, lsl #24
     710:	08050106 	stmdaeq	r5, {r1, r2, r8}
     714:	052e0e03 	streq	r0, [lr, #-3587]!	; 0xfffff1fd
     718:	2e720309 	cdpcs	3, 7, cr0, cr2, cr9, {0}
     71c:	052e0505 	streq	r0, [lr, #-1285]!	; 0xfffffafb
     720:	05300603 	ldreq	r0, [r0, #-1539]!	; 0xfffff9fd
     724:	0513061a 	ldreq	r0, [r3, #-1562]	; 0xfffff9e6
     728:	03052d0e 	movweq	r2, #23822	; 0x5d0e
     72c:	0e054b06 	vmlaeq.f64	d4, d5, d6
     730:	02051606 	andeq	r1, r5, #6291456	; 0x600000
     734:	08054a06 	stmdaeq	r5, {r1, r2, r9, fp, lr}
     738:	05050106 	streq	r0, [r5, #-262]	; 0xfffffefa
     73c:	0603052e 	streq	r0, [r3], -lr, lsr #10
     740:	060c0530 			; <UNDEFINED> instruction: 0x060c0530
     744:	2d0d0513 	cfstr32cs	mvfx0, [sp, #-76]	; 0xffffffb4
     748:	4b060305 	blmi	181364 <__bss_end__+0x17657c>
     74c:	05320205 	ldreq	r0, [r2, #-517]!	; 0xfffffdfb
     750:	06130601 	ldreq	r0, [r3], -r1, lsl #12
     754:	054a4303 	strbeq	r4, [sl, #-771]	; 0xfffffcfd
     758:	14131302 	ldrne	r1, [r3], #-770	; 0xfffffcfe
     75c:	0e060105 	adfeqs	f0, f6, f5
     760:	05330d05 	ldreq	r0, [r3, #-3333]!	; 0xfffff2fb
     764:	0d052d24 	stceq	13, cr2, [r5, #-144]	; 0xffffff70
     768:	2d29052f 	cfstr32cs	mvfx0, [r9, #-188]!	; 0xffffff44
     76c:	052f0505 	streq	r0, [pc, #-1285]!	; 26f <__code_start__-0x7d91>
     770:	02052d09 	andeq	r2, r5, #576	; 0x240
     774:	05052f06 	streq	r2, [r5, #-3846]	; 0xfffff0fa
     778:	02050106 	andeq	r0, r5, #-2147483647	; 0x80000001
     77c:	09053406 	stmdbeq	r5, {r1, r2, sl, ip, sp}
     780:	03050106 	movweq	r0, #20742	; 0x5106
     784:	0b053006 	bleq	14c7a4 <__bss_end__+0x1419bc>
     788:	06050106 	streq	r0, [r5], -r6, lsl #2
     78c:	0302052e 	movweq	r0, #9518	; 0x252e
     790:	05664a67 	strbeq	r4, [r6, #-2663]!	; 0xfffff599
     794:	1703061a 	smladne	r3, sl, r6, r0
     798:	06270501 	strteq	r0, [r7], -r1, lsl #10
     79c:	06180501 	ldreq	r0, [r8], -r1, lsl #10
     7a0:	1403052e 	strne	r0, [r3], #-1326	; 0xfffffad2
     7a4:	01060b05 	tsteq	r6, r5, lsl #22
     7a8:	052e0605 	streq	r0, [lr, #-1541]!	; 0xfffff9fb
     7ac:	0f030603 	svceq	0x00030603
     7b0:	0606054a 	streq	r0, [r6], -sl, asr #10
     7b4:	06040501 	streq	r0, [r4], -r1, lsl #10
     7b8:	03100568 	tsteq	r0, #104, 10	; 0x1a000000
     7bc:	02050152 	andeq	r0, r5, #-2147483628	; 0x80000014
     7c0:	05671414 	strbeq	r1, [r7, #-1044]!	; 0xfffffbec
     7c4:	0501060d 	streq	r0, [r1, #-1549]	; 0xfffff9f3
     7c8:	054d0602 	strbeq	r0, [sp, #-1538]	; 0xfffff9fe
     7cc:	050f060d 	streq	r0, [pc, #-1549]	; 1c7 <__code_start__-0x7e39>
     7d0:	152f0602 	strne	r0, [pc, #-1538]!	; 1d6 <__code_start__-0x7e2a>
     7d4:	0f060505 	svceq	0x00060505
     7d8:	05320205 	ldreq	r0, [r2, #-517]!	; 0xfffffdfb
     7dc:	0d052a05 	vstreq	s4, [r5, #-20]	; 0xffffffec
     7e0:	06020531 			; <UNDEFINED> instruction: 0x06020531
     7e4:	09052f2f 	stmdbeq	r5, {r0, r1, r2, r3, r5, r8, r9, sl, fp, sp}
     7e8:	052e0106 	streq	r0, [lr, #-262]!	; 0xfffffefa
     7ec:	01230307 			; <UNDEFINED> instruction: 0x01230307
     7f0:	6d032705 	stcvs	7, cr2, [r3, #-20]	; 0xffffffec
     7f4:	061a054a 	ldreq	r0, [sl], -sl, asr #10
     7f8:	0118054a 	tsteq	r8, sl, asr #10
     7fc:	05140305 	ldreq	r0, [r4, #-773]	; 0xfffffcfb
     800:	0501060b 	streq	r0, [r1, #-1547]	; 0xfffff9f5
     804:	04052e06 	streq	r2, [r5], #-3590	; 0xfffff1fa
     808:	07054c06 	streq	r4, [r5, -r6, lsl #24]
     80c:	05050106 	streq	r0, [r5, #-262]	; 0xfffffefa
     810:	05163006 	ldreq	r3, [r6, #-6]
     814:	050e0618 	streq	r0, [lr, #-1560]	; 0xfffff9e8
     818:	0505320f 	streq	r3, [r5, #-527]	; 0xfffffdf1
     81c:	07054b06 	streq	r4, [r5, -r6, lsl #22]
     820:	05050106 	streq	r0, [r5, #-262]	; 0xfffffefa
     824:	0f052f06 	svceq	0x00052f06
     828:	04050106 	streq	r0, [r5], #-262	; 0xfffffefa
     82c:	12053006 	andne	r3, r5, #6, 0
     830:	01780306 	cmneq	r8, r6, lsl #6
     834:	05360a05 	ldreq	r0, [r6, #-2565]!	; 0xfffff5fb
     838:	052f0604 	streq	r0, [pc, #-1540]!	; 23c <__code_start__-0x7dc4>
     83c:	0501060b 	streq	r0, [r1, #-1547]	; 0xfffff9f5
     840:	0105500c 	tsteq	r5, ip
     844:	06030532 			; <UNDEFINED> instruction: 0x06030532
     848:	052e6303 	streq	r6, [lr, #-771]!	; 0xfffffcfd
     84c:	05010616 	streq	r0, [r1, #-1558]	; 0xfffff9ea
     850:	09052f0f 	stmdbeq	r5, {r0, r1, r2, r3, r8, r9, sl, fp, sp}
     854:	2b0f0531 	blcs	3c1d20 <__bss_end__+0x3b6f38>
     858:	052d1605 	streq	r1, [sp, #-1541]!	; 0xfffff9fb
     85c:	03052e0e 	movweq	r2, #24078	; 0x5e0e
     860:	02052f06 	andeq	r2, r5, #6, 30
     864:	14030515 	strne	r0, [r3], #-1301	; 0xfffffaeb
     868:	2e060605 	cfmadd32cs	mvax0, mvfx0, mvfx6, mvfx5
     86c:	01000802 	tsteq	r0, r2, lsl #16
     870:	00059c01 	andeq	r9, r5, r1, lsl #24
     874:	d4000300 	strle	r0, [r0], #-768	; 0xfffffd00
     878:	02000000 	andeq	r0, r0, #0, 0
     87c:	0d0efb01 	vstreq	d15, [lr, #-4]
     880:	01010100 	mrseq	r0, (UNDEF: 17)
     884:	00000001 	andeq	r0, r0, r1
     888:	01000001 	tsteq	r0, r1
     88c:	74706f2f 	ldrbtvc	r6, [r0], #-3887	; 0xfffff0d1
     890:	6d6f682f 	stclvs	8, cr6, [pc, #-188]!	; 7dc <__code_start__-0x7824>
     894:	65726265 	ldrbvs	r6, [r2, #-613]!	; 0xfffffd9b
     898:	65432f77 	strbvs	r2, [r3, #-3959]	; 0xfffff089
     89c:	72616c6c 	rsbvc	r6, r1, #108, 24	; 0x6c00
     8a0:	6d72612f 	ldfvse	f6, [r2, #-188]!	; 0xffffff44
     8a4:	6e6f6e2d 	cdpvs	14, 6, cr6, cr15, cr13, {1}
     8a8:	61652d65 	cmnvs	r5, r5, ror #26
     8ac:	392d6962 	pushcc	{r1, r5, r6, r8, fp, sp, lr}
     8b0:	322d392f 	eorcc	r3, sp, #770048	; 0xbc000
     8b4:	71393130 	teqvc	r9, r0, lsr r1
     8b8:	73632d34 	cmnvc	r3, #52, 26	; 0xd00
     8bc:	65373031 	ldrvs	r3, [r7, #-49]!	; 0xffffffcf
     8c0:	62696c2f 	rsbvs	r6, r9, #12032	; 0x2f00
     8c4:	6363672f 	cmnvs	r3, #12320768	; 0xbc0000
     8c8:	6d72612f 	ldfvse	f6, [r2, #-188]!	; 0xffffff44
     8cc:	6e6f6e2d 	cdpvs	14, 6, cr6, cr15, cr13, {1}
     8d0:	61652d65 	cmnvs	r5, r5, ror #26
     8d4:	392f6962 	stmdbcc	pc!, {r1, r5, r6, r8, fp, sp, lr}	; <UNPREDICTABLE>
     8d8:	312e322e 			; <UNDEFINED> instruction: 0x312e322e
     8dc:	636e692f 	cmnvs	lr, #770048	; 0xbc000
     8e0:	6564756c 	strbvs	r7, [r4, #-1388]!	; 0xfffffa94
     8e4:	73552f00 	cmpvc	r5, #0, 30
     8e8:	2f737265 	svccs	0x00737265
     8ec:	656c696d 	strbvs	r6, [ip, #-2413]!	; 0xfffff693
     8f0:	6f532f73 	svcvs	0x00532f73
     8f4:	65637275 	strbvs	r7, [r3, #-629]!	; 0xfffffd8b
     8f8:	3273632f 	rsbscc	r6, r3, #-1140850688	; 0xbc000000
     8fc:	786c3034 	stmdavc	ip!, {r2, r4, r5, ip, sp}^
     900:	62696c2f 	rsbvs	r6, r9, #12032	; 0x2f00
     904:	692f6970 	stmdbvs	pc!, {r4, r5, r6, r8, fp, sp, lr}	; <UNPREDICTABLE>
     908:	756c636e 	strbvc	r6, [ip, #-878]!	; 0xfffffc92
     90c:	00006564 	andeq	r6, r0, r4, ror #10
     910:	672d6b63 	strvs	r6, [sp, -r3, ror #22]!
     914:	00632e63 	rsbeq	r2, r3, r3, ror #28
     918:	73000000 	movwvc	r0, #0
     91c:	6c2d6372 	stcvs	3, cr6, [sp], #-456	; 0xfffffe38
     920:	682e636f 	stmdavs	lr!, {r0, r1, r2, r3, r5, r6, r8, r9, sp, lr}
     924:	00000000 	andeq	r0, r0, r0
     928:	69647473 	stmdbvs	r4!, {r0, r1, r4, r5, r6, sl, ip, sp, lr}^
     92c:	672d746e 	strvs	r7, [sp, -lr, ror #8]!
     930:	682e6363 	stmdavs	lr!, {r0, r1, r5, r6, r8, r9, sp, lr}
     934:	00000100 	andeq	r0, r0, r0, lsl #2
     938:	2e697072 	mcrcs	0, 3, r7, cr9, cr2, {3}
     93c:	00020068 	andeq	r0, r2, r8, rrx
     940:	616b6300 	cmnvs	fp, r0, lsl #6
     944:	636f6c6c 	cmnvs	pc, #108, 24	; 0x6c00
     948:	0000682e 	andeq	r6, r0, lr, lsr #16
     94c:	05000000 	streq	r0, [r0, #-0]
     950:	02050001 	andeq	r0, r5, #1, 0
     954:	000085b8 			; <UNDEFINED> instruction: 0x000085b8
     958:	0100d003 	tsteq	r0, r3
     95c:	01130505 	tsteq	r3, r5, lsl #10
     960:	11060105 	tstne	r6, r5, lsl #2
     964:	052f0505 	streq	r0, [pc, #-1285]!	; 467 <__code_start__-0x7b99>
     968:	05056501 	streq	r6, [r5, #-1281]	; 0xfffffaff
     96c:	0402002f 	streq	r0, [r2], #-47	; 0xffffffd1
     970:	002e0602 	eoreq	r0, lr, r2, lsl #12
     974:	01020402 	tsteq	r2, r2, lsl #8
     978:	02040200 	andeq	r0, r4, #0, 4
     97c:	04020015 	streq	r0, [r2], #-21	; 0xffffffeb
     980:	02000102 	andeq	r0, r0, #-2147483648	; 0x80000000
     984:	00660204 	rsbeq	r0, r6, r4, lsl #4
     988:	01020402 	tsteq	r2, r2, lsl #8
     98c:	02040200 	andeq	r0, r4, #0, 4
     990:	04020013 	streq	r0, [r2], #-19	; 0xffffffed
     994:	02000102 	andeq	r0, r0, #-2147483648	; 0x80000000
     998:	9e060204 	cdpls	2, 0, cr0, cr6, cr4, {0}
     99c:	09030d05 	stmdbeq	r3, {r0, r2, r8, sl, fp}
     9a0:	0b054a66 	bleq	153340 <__bss_end__+0x148558>
     9a4:	05015f03 	streq	r5, [r1, #-3843]	; 0xfffff0fd
     9a8:	2e700308 	cdpcs	3, 7, cr0, cr0, cr8, {0}
     9ac:	0609054a 	streq	r0, [r9], -sl, asr #10
     9b0:	05012c03 	streq	r2, [r1, #-3075]	; 0xfffff3fd
     9b4:	54030608 	strpl	r0, [r3], #-1544	; 0xfffff9f8
     9b8:	0f054a01 	svceq	0x00054a01
     9bc:	010e0306 	tsteq	lr, r6, lsl #6
     9c0:	14140505 	ldrne	r0, [r4], #-1285	; 0xfffffafb
     9c4:	6b030c05 	blvs	c39e0 <__bss_end__+0xb8bf8>
     9c8:	15050501 	strne	r0, [r5, #-1281]	; 0xfffffaff
     9cc:	01060805 	tsteq	r6, r5, lsl #16
     9d0:	662e1805 	strtvs	r1, [lr], -r5, lsl #16
     9d4:	03060505 	movweq	r0, #25861	; 0x6505
     9d8:	0c050114 	stfeqs	f0, [r5], {20}
     9dc:	052e0106 	streq	r0, [lr, #-262]!	; 0xfffffefa
     9e0:	19030609 	stmdbne	r3, {r0, r3, r9, sl}
     9e4:	060c0501 	streq	r0, [ip], -r1, lsl #10
     9e8:	060d0501 	streq	r0, [sp], -r1, lsl #10
     9ec:	0616054c 	ldreq	r0, [r6], -ip, asr #10
     9f0:	2f0d0513 	svccs	0x000d0513
     9f4:	052c2905 	streq	r2, [ip, #-2309]!	; 0xfffff6fb
     9f8:	132f060d 			; <UNDEFINED> instruction: 0x132f060d
     9fc:	061005bb 			; <UNDEFINED> instruction: 0x061005bb
     a00:	06110501 	ldreq	r0, [r1], -r1, lsl #10
     a04:	0619054c 	ldreq	r0, [r9], -ip, asr #10
     a08:	2f110501 	svccs	0x00110501
     a0c:	052d1905 	streq	r1, [sp, #-2309]!	; 0xfffff6fb
     a10:	69066711 	stmdbvs	r6, {r0, r4, r8, r9, sl, sp, lr}
     a14:	01061405 	tsteq	r6, r5, lsl #8
     a18:	0623054a 	strteq	r0, [r3], -sl, asr #10
     a1c:	05017203 	streq	r7, [r1, #-515]	; 0xfffffdfd
     a20:	0505011b 	streq	r0, [r5, #-283]	; 0xfffffee5
     a24:	054a0106 	strbeq	r0, [sl, #-262]	; 0xfffffefa
     a28:	01190301 	tsteq	r9, r1, lsl #6
     a2c:	46061105 	strmi	r1, [r6], -r5, lsl #2
     a30:	23054a06 	movwcs	r4, #23046	; 0x5a06
     a34:	016b0306 	cmneq	fp, r6, lsl #6
     a38:	05011b05 	streq	r1, [r1, #-2821]	; 0xfffff4fb
     a3c:	05010605 	streq	r0, [r1, #-1541]	; 0xfffff9fb
     a40:	10030615 	andne	r0, r3, r5, lsl r6
     a44:	059e0666 	ldreq	r0, [lr, #1638]	; 0x666
     a48:	70030623 	andvc	r0, r3, r3, lsr #12
     a4c:	011b0501 	tsteq	fp, r1, lsl #10
     a50:	01060505 	tsteq	r6, r5, lsl #10
     a54:	04020066 	streq	r0, [r2], #-102	; 0xffffff9a
     a58:	000f0601 	andeq	r0, pc, r1, lsl #12
     a5c:	01010402 	tsteq	r1, r2, lsl #8
     a60:	01040200 	mrseq	r0, R12_usr
     a64:	02004a06 	andeq	r4, r0, #24576	; 0x6000
     a68:	002e0104 	eoreq	r0, lr, r4, lsl #2
     a6c:	4a010402 	bmi	41a7c <__bss_end__+0x36c94>
     a70:	01040200 	mrseq	r0, R12_usr
     a74:	01054a06 	tsteq	r5, r6, lsl #20
     a78:	58082503 	stmdapl	r8, {r0, r1, r8, sl, sp}
     a7c:	05160505 	ldreq	r0, [r6, #-1285]	; 0xfffffafb
     a80:	0105010a 	tsteq	r5, sl, lsl #2
     a84:	15050e06 	strne	r0, [r5, #-3590]	; 0xfffff1fa
     a88:	0625054e 	strteq	r0, [r5], -lr, asr #10
     a8c:	0605052e 	streq	r0, [r5], -lr, lsr #10
     a90:	32052e01 	andcc	r2, r5, #1, 28
     a94:	00090530 	andeq	r0, r9, r0, lsr r5
     a98:	06030402 	streq	r0, [r3], -r2, lsl #8
     a9c:	0032052e 	eorseq	r0, r2, lr, lsr #10
     aa0:	06030402 	streq	r0, [r3], -r2, lsl #8
     aa4:	00210501 	eoreq	r0, r1, r1, lsl #10
     aa8:	2e030402 	cdpcs	4, 0, cr0, cr3, cr2, {0}
     aac:	02001105 	andeq	r1, r0, #1073741825	; 0x40000001
     ab0:	052e0304 	streq	r0, [lr, #-772]!	; 0xfffffcfc
     ab4:	04020028 	streq	r0, [r2], #-40	; 0xffffffd8
     ab8:	052c0603 	streq	r0, [ip, #-1539]!	; 0xfffff9fd
     abc:	0402002c 	streq	r0, [r2], #-44	; 0xffffffd4
     ac0:	05010603 	streq	r0, [r1, #-1539]	; 0xfffff9fd
     ac4:	04020025 	streq	r0, [r2], #-37	; 0xffffffdb
     ac8:	052e0603 	streq	r0, [lr, #-1539]!	; 0xfffff9fd
     acc:	04020005 	streq	r0, [r2], #-5
     ad0:	00010603 	andeq	r0, r1, r3, lsl #12
     ad4:	2e030402 	cdpcs	4, 0, cr0, cr3, cr2, {0}
     ad8:	03040200 	movweq	r0, #16896	; 0x4200
     adc:	1319062e 	tstne	r9, #48234496	; 0x2e00000
     ae0:	30062e06 	andcc	r2, r6, r6, lsl #28
     ae4:	05131313 	ldreq	r1, [r3, #-787]	; 0xfffffced
     ae8:	050f060d 	streq	r0, [pc, #-1549]	; 4e3 <__code_start__-0x7b1d>
     aec:	4a0a0305 	bmi	281708 <__bss_end__+0x276920>
     af0:	76030d05 	strvc	r0, [r3], -r5, lsl #26
     af4:	0605054a 	streq	r0, [r5], -sl, asr #10
     af8:	324a0a03 	subcc	r0, sl, #12288	; 0x3000
     afc:	13698313 	cmnne	r9, #1275068416	; 0x4c000000
     b00:	01051368 	tsteq	r5, r8, ror #6
     b04:	dc066706 	stcle	7, cr6, [r6], {6}
     b08:	13130505 	tstne	r3, #20971520	; 0x1400000
     b0c:	10060105 	andne	r0, r6, r5, lsl #2
     b10:	3005052e 	andcc	r0, r5, lr, lsr #10
     b14:	4c2f062e 	stcmi	6, cr0, [pc], #-184	; a64 <__code_start__-0x759c>
     b18:	010a052f 	tsteq	sl, pc, lsr #10
     b1c:	01061505 	tsteq	r6, r5, lsl #10
     b20:	2e062505 	cfsh32cs	mvfx2, mvfx6, #5
     b24:	01060505 	tsteq	r6, r5, lsl #10
     b28:	05452705 	strbeq	r2, [r5, #-1797]	; 0xfffff8fb
     b2c:	2e10030d 	cdpcs	3, 1, cr0, cr0, cr13, {0}
     b30:	70031b05 	andvc	r1, r3, r5, lsl #22
     b34:	2e0e052e 	cfsh32cs	mvfx0, mvfx14, #30
     b38:	0b030d05 	bleq	c3f54 <__bss_end__+0xb916c>
     b3c:	4c11052e 	cfldr32mi	mvfx0, [r1], {46}	; 0x2e
     b40:	02002805 	andeq	r2, r0, #327680	; 0x50000
     b44:	03060204 	movweq	r0, #25092	; 0x6204
     b48:	2c054a78 			; <UNDEFINED> instruction: 0x2c054a78
     b4c:	02040200 	andeq	r0, r4, #0, 4
     b50:	25050106 	strcs	r0, [r5, #-262]	; 0xfffffefa
     b54:	02040200 	andeq	r0, r4, #0, 4
     b58:	05054a06 	streq	r4, [r5, #-2566]	; 0xfffff5fa
     b5c:	02040200 	andeq	r0, r4, #0, 4
     b60:	09050106 	stmdbeq	r5, {r1, r2, r8}
     b64:	0e054c06 	cdpeq	12, 0, cr4, cr5, cr6, {0}
     b68:	050d0618 	streq	r0, [sp, #-1560]	; 0xfffff9e8
     b6c:	09052d10 	stmdbeq	r5, {r4, r8, sl, fp, sp}
     b70:	0c052f06 	stceq	15, cr2, [r5], {6}
     b74:	0d050106 	stfeqs	f0, [r5, #-24]	; 0xffffffe8
     b78:	13064c06 	movwne	r4, #27654	; 0x6c06
     b7c:	032c0566 			; <UNDEFINED> instruction: 0x032c0566
     b80:	05052e7a 	streq	r2, [r5, #-3706]	; 0xfffff186
     b84:	3313054a 	tstcc	r3, #310378496	; 0x12800000
     b88:	2f060d05 	svccs	0x00060d05
     b8c:	7a032805 	bvc	caba8 <__bss_end__+0xbfdc0>
     b90:	01250501 			; <UNDEFINED> instruction: 0x01250501
     b94:	01060505 	tsteq	r6, r5, lsl #10
     b98:	0f03062e 	svceq	0x0003062e
     b9c:	4a060101 	bmi	180fa8 <__bss_end__+0x1761c0>
     ba0:	05132e06 	ldreq	r2, [r3, #-3590]	; 0xfffff1fa
     ba4:	05010608 	streq	r0, [r1, #-1544]	; 0xfffff9f8
     ba8:	014d0609 	cmpeq	sp, r9, lsl #12
     bac:	01040200 	mrseq	r0, R12_usr
     bb0:	00050582 	andeq	r0, r5, r2, lsl #11
     bb4:	14010402 	strne	r0, [r1], #-1026	; 0xfffffbfe
     bb8:	01040200 	mrseq	r0, R12_usr
     bbc:	0008054b 	andeq	r0, r8, fp, asr #10
     bc0:	06010402 	streq	r0, [r1], -r2, lsl #8
     bc4:	00170501 	andseq	r0, r7, r1, lsl #10
     bc8:	30010402 	andcc	r0, r1, r2, lsl #8
     bcc:	02000105 	andeq	r0, r0, #1073741825	; 0x40000001
     bd0:	05340104 	ldreq	r0, [r4, #-260]!	; 0xfffffefc
     bd4:	6c03060d 	stcvs	6, cr0, [r3], {13}
     bd8:	0513064a 	ldreq	r0, [r3, #-1610]	; 0xfffff9b6
     bdc:	0d056519 	cfstr32eq	mvfx6, [r5, #-100]	; 0xffffff9c
     be0:	4a062f06 	bmi	18c800 <__bss_end__+0x181a18>
     be4:	16060505 	strne	r0, [r6], -r5, lsl #10
     be8:	064a0601 	strbeq	r0, [sl], -r1, lsl #12
     bec:	0905132e 	stmdbeq	r5, {r1, r2, r3, r5, r8, r9, ip}
     bf0:	05820113 	streq	r0, [r2, #275]	; 0x113
     bf4:	7ed70301 	cdpvc	3, 13, cr0, cr7, cr1, {0}
     bf8:	05052008 	streq	r2, [r5, #-8]
     bfc:	05011413 	streq	r1, [r1, #-1043]	; 0xfffffbed
     c00:	050f0601 	streq	r0, [pc, #-1537]	; 607 <__code_start__-0x79f9>
     c04:	01053105 	tsteq	r5, r5, lsl #2
     c08:	3105052b 	tstcc	r5, fp, lsr #10
     c0c:	02040200 	andeq	r0, r4, #0, 4
     c10:	02002e06 	andeq	r2, r0, #96	; 0x60
     c14:	00010204 	andeq	r0, r1, r4, lsl #4
     c18:	13020402 	movwne	r0, #9218	; 0x2402
     c1c:	02000905 	andeq	r0, r0, #81920	; 0x14000
     c20:	01060204 	tsteq	r6, r4, lsl #4
     c24:	02000805 	andeq	r0, r0, #327680	; 0x50000
     c28:	052e0204 	streq	r0, [lr, #-516]!	; 0xfffffdfc
     c2c:	15670609 	strbne	r0, [r7, #-1545]!	; 0xfffff9f7
     c30:	06140513 			; <UNDEFINED> instruction: 0x06140513
     c34:	2f120501 	svccs	0x00120501
     c38:	052f0905 	streq	r0, [pc, #-2309]!	; 33b <__code_start__-0x7cc5>
     c3c:	09052d12 	stmdbeq	r5, {r1, r4, r8, sl, fp, sp}
     c40:	052f2f06 	streq	r2, [pc, #-3846]!	; fffffd42 <__bss_end__+0xffff4f5a>
     c44:	05010610 	streq	r0, [r1, #-1552]	; 0xfffff9f0
     c48:	1005300c 	andne	r3, r5, ip
     c4c:	0605052c 	streq	r0, [r5], -ip, lsr #10
     c50:	06010530 			; <UNDEFINED> instruction: 0x06010530
     c54:	490c0513 	stmdbmi	ip, {r0, r1, r4, r8, sl}
     c58:	02000505 	andeq	r0, r0, #20971520	; 0x1400000
     c5c:	03060104 	movweq	r0, #24836	; 0x6104
     c60:	02002e75 	andeq	r2, r0, #1872	; 0x750
     c64:	00010104 	andeq	r0, r1, r4, lsl #2
     c68:	06010402 	streq	r0, [r1], -r2, lsl #8
     c6c:	0402009e 	streq	r0, [r2], #-158	; 0xffffff62
     c70:	054a0601 	strbeq	r0, [sl, #-1537]	; 0xfffff9ff
     c74:	06013009 	streq	r3, [r1], -r9
     c78:	052e0682 	streq	r0, [lr, #-1666]!	; 0xfffff97e
     c7c:	01b60301 			; <UNDEFINED> instruction: 0x01b60301
     c80:	140505d6 	strne	r0, [r5], #-1494	; 0xfffffa2a
     c84:	01060c05 	tsteq	r6, r5, lsl #24
     c88:	0601052e 	streq	r0, [r1], -lr, lsr #10
     c8c:	78020500 	stmdavc	r2, {r8, sl}
     c90:	17000089 	strne	r0, [r0, -r9, lsl #1]
     c94:	05160505 	ldreq	r0, [r6, #-1285]	; 0xfffffafb
     c98:	050e0601 	streq	r0, [lr, #-1537]	; 0xfffff9ff
     c9c:	13063205 	movwne	r3, #25093	; 0x6205
     ca0:	73030a05 	movwvc	r0, #14853	; 0x3a05
     ca4:	15050501 	strne	r0, [r5, #-1281]	; 0xfffffaff
     ca8:	01060c05 	tsteq	r6, r5, lsl #24
     cac:	0308054a 	movweq	r0, #34122	; 0x854a
     cb0:	0905010a 	stmdbeq	r5, {r1, r3, r8}
     cb4:	01144b06 	tsteq	r4, r6, lsl #22
     cb8:	1305054a 	movwne	r0, #21834	; 0x554a
     cbc:	13060105 	movwne	r0, #24837	; 0x6105
     cc0:	2a060905 	bcs	1830dc <__bss_end__+0x1782f4>
     cc4:	01059e01 	tsteq	r5, r1, lsl #28
     cc8:	160505a6 	strne	r0, [r5], -r6, lsr #11
     ccc:	0e060105 	adfeqs	f0, f6, f5
     cd0:	06320505 	ldrteq	r0, [r2], -r5, lsl #10
     cd4:	030a0513 	movweq	r0, #42259	; 0xa513
     cd8:	05050165 	streq	r0, [r5, #-357]	; 0xfffffe9b
     cdc:	060c0515 			; <UNDEFINED> instruction: 0x060c0515
     ce0:	05054a01 	streq	r4, [r5, #-2561]	; 0xfffff5ff
     ce4:	01190306 	tsteq	r9, r6, lsl #6
     ce8:	01060805 	tsteq	r6, r5, lsl #16
     cec:	4b060905 	blmi	183108 <__bss_end__+0x178320>
     cf0:	4a060114 	bmi	181148 <__bss_end__+0x176360>
     cf4:	05052e06 	streq	r2, [r5, #-3590]	; 0xfffff1fa
     cf8:	01051313 	tsteq	r5, r3, lsl r3
     cfc:	09051306 	stmdbeq	r5, {r1, r2, r8, r9, ip}
     d00:	9e014506 	cfsh32ls	mvfx4, mvfx1, #6
     d04:	21030105 	tstcs	r3, r5, lsl #2
     d08:	1305059e 	movwne	r0, #21918	; 0x559e
     d0c:	11060105 	tstne	r6, r5, lsl #2
     d10:	064b0505 	strbeq	r0, [fp], -r5, lsl #10
     d14:	0311052f 	tsteq	r1, #197132288	; 0xbc00000
     d18:	05050165 	streq	r0, [r5, #-357]	; 0xfffffe9b
     d1c:	4c4b1314 	mcrrmi	3, 1, r1, fp, cr4
     d20:	010a052f 	tsteq	sl, pc, lsr #10
     d24:	01061505 	tsteq	r6, r5, lsl #10
     d28:	2e062505 	cfsh32cs	mvfx2, mvfx6, #5
     d2c:	01060505 	tsteq	r6, r5, lsl #10
     d30:	05452705 	strbeq	r2, [r5, #-1797]	; 0xfffff8fb
     d34:	0e052e1b 	mcreq	14, 0, r2, cr5, cr11, {0}
     d38:	0502042e 	streq	r0, [r2, #-1070]	; 0xfffffbd2
     d3c:	7e98030c 	cdpvc	3, 9, cr0, cr8, cr12, {0}
     d40:	0501042e 	streq	r0, [r1, #-1070]	; 0xfffffbd2
     d44:	01f5030d 	mvnseq	r0, sp, lsl #6
     d48:	0609054a 	streq	r0, [r9], -sl, asr #10
     d4c:	052e7a03 	streq	r7, [lr, #-2563]!	; 0xfffff5fd
     d50:	0c051028 	stceq	0, cr1, [r5], {40}	; 0x28
     d54:	10051506 	andne	r1, r5, r6, lsl #10
     d58:	0609052d 	streq	r0, [r9], -sp, lsr #10
     d5c:	060c052f 	streq	r0, [ip], -pc, lsr #10
     d60:	472c0501 	strmi	r0, [ip, -r1, lsl #10]!
     d64:	4a062505 	bmi	18a180 <__bss_end__+0x17f398>
     d68:	01060505 	tsteq	r6, r5, lsl #10
     d6c:	0c03064a 	stceq	6, cr0, [r3], {74}	; 0x4a
     d70:	149e0101 	ldrne	r0, [lr], #257	; 0x101
     d74:	03060106 	movweq	r0, #24838	; 0x6106
     d78:	0105010a 	tsteq	r5, sl, lsl #2
     d7c:	0d051306 	stceq	3, cr1, [r5, #-24]	; 0xffffffe8
     d80:	666c0306 	strbtvs	r0, [ip], -r6, lsl #6
     d84:	0c050204 	sfmeq	f0, 4, [r5], {4}
     d88:	7e8e0306 	cdpvc	3, 8, cr0, cr14, cr6, {0}
     d8c:	05010401 	streq	r0, [r1, #-1025]	; 0xfffffbff
     d90:	01f3031a 	mvnseq	r0, sl, lsl r3
     d94:	0502042e 	streq	r0, [r2, #-1070]	; 0xfffffbd2
     d98:	7e8d030c 	cdpvc	3, 8, cr0, cr13, cr12, {0}
     d9c:	0501042e 	streq	r0, [r1, #-1070]	; 0xfffffbd2
     da0:	01f4030d 	mvnseq	r0, sp, lsl #6
     da4:	0502042e 	streq	r0, [r2, #-1070]	; 0xfffffbd2
     da8:	7e8c030c 	cdpvc	3, 8, cr0, cr12, cr12, {0}
     dac:	0501042e 	streq	r0, [r1, #-1070]	; 0xfffffbd2
     db0:	01f4030d 	mvnseq	r0, sp, lsl #6
     db4:	651a054a 	ldrvs	r0, [sl, #-1354]	; 0xfffffab6
     db8:	2f2f0d05 	svccs	0x002f0d05
     dbc:	78032c05 	stmdavc	r3, {r0, r2, sl, fp, sp}
     dc0:	4a050566 	bmi	142360 <__bss_end__+0x137578>
     dc4:	05331305 	ldreq	r1, [r3, #-773]!	; 0xfffffcfb
     dc8:	132f060d 			; <UNDEFINED> instruction: 0x132f060d
     dcc:	0b050204 	bleq	1415e4 <__bss_end__+0x1367fc>
     dd0:	017e8b03 	cmneq	lr, r3, lsl #22
     dd4:	06130505 	ldreq	r0, [r3], -r5, lsl #10
     dd8:	05010401 	streq	r0, [r1, #-1025]	; 0xfffffbff
     ddc:	f503060d 			; <UNDEFINED> instruction: 0xf503060d
     de0:	28050101 	stmdacs	r5, {r0, r8}
     de4:	05017803 	streq	r7, [r1, #-2051]	; 0xfffff7fd
     de8:	05050125 	streq	r0, [r5, #-293]	; 0xfffffedb
     dec:	054a0106 	strbeq	r0, [sl, #-262]	; 0xfffffefa
     df0:	1b050d27 	blne	144294 <__bss_end__+0x1394ac>
     df4:	2e0e052e 	cfsh32cs	mvfx0, mvfx14, #30
     df8:	03060105 	movweq	r0, #24837	; 0x6105
     dfc:	05200821 	streq	r0, [r0, #-2081]!	; 0xfffff7df
     e00:	05011305 	streq	r1, [r1, #-773]	; 0xfffffcfb
     e04:	05110601 	ldreq	r0, [r1, #-1537]	; 0xfffff9ff
     e08:	9e062f05 	cdpls	15, 0, cr2, cr6, cr5, {0}
     e0c:	01000a02 	tsteq	r0, r2, lsl #20
     e10:	00012101 	andeq	r2, r1, r1, lsl #2
     e14:	be000300 	cdplt	3, 0, cr0, cr0, cr0, {0}
     e18:	02000000 	andeq	r0, r0, #0, 0
     e1c:	0d0efb01 	vstreq	d15, [lr, #-4]
     e20:	01010100 	mrseq	r0, (UNDEF: 17)
     e24:	00000001 	andeq	r0, r0, r1
     e28:	01000001 	tsteq	r0, r1
     e2c:	696c2f2e 	stmdbvs	ip!, {r1, r2, r3, r5, r8, r9, sl, fp, sp}^
     e30:	2f006362 	svccs	0x00006362
     e34:	72657355 	rsbvc	r7, r5, #1409286145	; 0x54000001
     e38:	696d2f73 	stmdbvs	sp!, {r0, r1, r4, r5, r6, r8, r9, sl, fp, sp}^
     e3c:	2f73656c 	svccs	0x0073656c
     e40:	72756f53 	rsbsvc	r6, r5, #332	; 0x14c
     e44:	632f6563 			; <UNDEFINED> instruction: 0x632f6563
     e48:	30343273 	eorscc	r3, r4, r3, ror r2
     e4c:	6c2f786c 	stcvs	8, cr7, [pc], #-432	; ca4 <__code_start__-0x735c>
     e50:	69706269 	ldmdbvs	r0!, {r0, r3, r5, r6, r9, sp, lr}^
     e54:	636e692f 	cmnvs	lr, #770048	; 0xbc000
     e58:	6564756c 	strbvs	r7, [r4, #-1388]!	; 0xfffffa94
     e5c:	706f2f00 	rsbvc	r2, pc, r0, lsl #30
     e60:	6f682f74 	svcvs	0x00682f74
     e64:	7262656d 	rsbvc	r6, r2, #457179136	; 0x1b400000
     e68:	432f7765 			; <UNDEFINED> instruction: 0x432f7765
     e6c:	616c6c65 	cmnvs	ip, r5, ror #24
     e70:	72612f72 	rsbvc	r2, r1, #456	; 0x1c8
     e74:	6f6e2d6d 	svcvs	0x006e2d6d
     e78:	652d656e 	strvs	r6, [sp, #-1390]!	; 0xfffffa92
     e7c:	2d696261 	sfmcs	f6, 2, [r9, #-388]!	; 0xfffffe7c
     e80:	2d392f39 	ldccs	15, cr2, [r9, #-228]!	; 0xffffff1c
     e84:	39313032 	ldmdbcc	r1!, {r1, r4, r5, ip, sp}
     e88:	632d3471 			; <UNDEFINED> instruction: 0x632d3471
     e8c:	37303173 			; <UNDEFINED> instruction: 0x37303173
     e90:	696c2f65 	stmdbvs	ip!, {r0, r2, r5, r6, r8, r9, sl, fp, sp}^
     e94:	63672f62 	cmnvs	r7, #392	; 0x188
     e98:	72612f63 	rsbvc	r2, r1, #396	; 0x18c
     e9c:	6f6e2d6d 	svcvs	0x006e2d6d
     ea0:	652d656e 	strvs	r6, [sp, #-1390]!	; 0xfffffa92
     ea4:	2f696261 	svccs	0x00696261
     ea8:	2e322e39 	mrccs	14, 1, r2, cr2, cr9, {1}
     eac:	6e692f31 	mcrvs	15, 3, r2, cr9, cr1, {1}
     eb0:	64756c63 	ldrbtvs	r6, [r5], #-3171	; 0xfffff39d
     eb4:	6d000065 	stcvs	0, cr0, [r0, #-404]	; 0xfffffe6c
     eb8:	65736d65 	ldrbvs	r6, [r3, #-3429]!	; 0xfffff29b
     ebc:	00632e74 	rsbeq	r2, r3, r4, ror lr
     ec0:	72000001 	andvc	r0, r0, #1, 0
     ec4:	682e6970 	stmdavs	lr!, {r4, r5, r6, r8, fp, sp, lr}
     ec8:	00000200 	andeq	r0, r0, r0, lsl #4
     ecc:	64647473 	strbtvs	r7, [r4], #-1139	; 0xfffffb8d
     ed0:	682e6665 	stmdavs	lr!, {r0, r2, r5, r6, r9, sl, sp, lr}
     ed4:	00000300 	andeq	r0, r0, r0, lsl #6
     ed8:	00290500 	eoreq	r0, r9, r0, lsl #10
     edc:	8b440205 	blhi	11016f8 <__bss_end__+0x10f6910>
     ee0:	05150000 	ldreq	r0, [r5, #-0]
     ee4:	29051305 	stmdbcs	r5, {r0, r2, r8, r9, ip}
     ee8:	14051106 	strne	r1, [r5], #-262	; 0xfffffefa
     eec:	0605052f 	streq	r0, [r5], -pc, lsr #10
     ef0:	010a0530 	tsteq	sl, r0, lsr r5
     ef4:	09059e06 	stmdbeq	r5, {r1, r2, r9, sl, fp, ip, pc}
     ef8:	0e05d706 	cdpeq	7, 0, cr13, cr5, cr6, {0}
     efc:	0a050106 	beq	14131c <__bss_end__+0x136534>
     f00:	09052d06 	stmdbeq	r5, {r1, r2, r8, sl, fp, sp}
     f04:	060e05bb 			; <UNDEFINED> instruction: 0x060e05bb
     f08:	0a052e01 	beq	14c714 <__bss_end__+0x14192c>
     f0c:	09052d06 	stmdbeq	r5, {r1, r2, r8, sl, fp, sp}
     f10:	060b054b 	streq	r0, [fp], -fp, asr #10
     f14:	2d0a0501 	cfstr32cs	mvfx0, [sl, #-4]
     f18:	052f0e05 	streq	r0, [pc, #-3589]!	; 11b <__code_start__-0x7ee5>
     f1c:	052d060a 	streq	r0, [sp, #-1546]!	; 0xfffff9f6
     f20:	0513060e 	ldreq	r0, [r3, #-1550]	; 0xfffff9f2
     f24:	052e0609 	streq	r0, [lr, #-1545]!	; 0xfffff9f7
     f28:	0505110a 	streq	r1, [r5, #-266]	; 0xfffffef6
     f2c:	06010514 			; <UNDEFINED> instruction: 0x06010514
     f30:	00020213 	andeq	r0, r2, r3, lsl r2
     f34:	01200101 			; <UNDEFINED> instruction: 0x01200101
     f38:	00030000 	andeq	r0, r3, r0
     f3c:	000000db 	ldrdeq	r0, [r0], -fp
     f40:	0efb0102 	cdpeq	1, 15, cr0, cr11, cr2, {0}
     f44:	0101000d 	tsteq	r1, sp
     f48:	00000101 	andeq	r0, r0, r1, lsl #2
     f4c:	00000100 	andeq	r0, r0, r0, lsl #2
     f50:	6c2f2e01 	stcvs	14, cr2, [pc], #-4	; f54 <__code_start__-0x70ac>
     f54:	00636269 	rsbeq	r6, r3, r9, ror #4
     f58:	74706f2f 	ldrbtvc	r6, [r0], #-3887	; 0xfffff0d1
     f5c:	6d6f682f 	stclvs	8, cr6, [pc, #-188]!	; ea8 <__code_start__-0x7158>
     f60:	65726265 	ldrbvs	r6, [r2, #-613]!	; 0xfffffd9b
     f64:	65432f77 	strbvs	r2, [r3, #-3959]	; 0xfffff089
     f68:	72616c6c 	rsbvc	r6, r1, #108, 24	; 0x6c00
     f6c:	6d72612f 	ldfvse	f6, [r2, #-188]!	; 0xffffff44
     f70:	6e6f6e2d 	cdpvs	14, 6, cr6, cr15, cr13, {1}
     f74:	61652d65 	cmnvs	r5, r5, ror #26
     f78:	392d6962 	pushcc	{r1, r5, r6, r8, fp, sp, lr}
     f7c:	322d392f 	eorcc	r3, sp, #770048	; 0xbc000
     f80:	71393130 	teqvc	r9, r0, lsr r1
     f84:	73632d34 	cmnvc	r3, #52, 26	; 0xd00
     f88:	65373031 	ldrvs	r3, [r7, #-49]!	; 0xffffffcf
     f8c:	62696c2f 	rsbvs	r6, r9, #12032	; 0x2f00
     f90:	6363672f 	cmnvs	r3, #12320768	; 0xbc0000
     f94:	6d72612f 	ldfvse	f6, [r2, #-188]!	; 0xffffff44
     f98:	6e6f6e2d 	cdpvs	14, 6, cr6, cr15, cr13, {1}
     f9c:	61652d65 	cmnvs	r5, r5, ror #26
     fa0:	392f6962 	stmdbcc	pc!, {r1, r5, r6, r8, fp, sp, lr}	; <UNPREDICTABLE>
     fa4:	312e322e 			; <UNDEFINED> instruction: 0x312e322e
     fa8:	636e692f 	cmnvs	lr, #770048	; 0xbc000
     fac:	6564756c 	strbvs	r7, [r4, #-1388]!	; 0xfffffa94
     fb0:	73552f00 	cmpvc	r5, #0, 30
     fb4:	2f737265 	svccs	0x00737265
     fb8:	656c696d 	strbvs	r6, [ip, #-2413]!	; 0xfffff693
     fbc:	6f532f73 	svcvs	0x00532f73
     fc0:	65637275 	strbvs	r7, [r3, #-629]!	; 0xfffffd8b
     fc4:	3273632f 	rsbscc	r6, r3, #-1140850688	; 0xbc000000
     fc8:	786c3034 	stmdavc	ip!, {r2, r4, r5, ip, sp}^
     fcc:	62696c2f 	rsbvs	r6, r9, #12032	; 0x2f00
     fd0:	692f6970 	stmdbvs	pc!, {r4, r5, r6, r8, fp, sp, lr}	; <UNPREDICTABLE>
     fd4:	756c636e 	strbvc	r6, [ip, #-878]!	; 0xfffffc92
     fd8:	00006564 	andeq	r6, r0, r4, ror #10
     fdc:	6e697270 	mcrvs	2, 3, r7, cr9, cr0, {3}
     fe0:	632e6b74 			; <UNDEFINED> instruction: 0x632e6b74
     fe4:	00000100 	andeq	r0, r0, r0, lsl #2
     fe8:	61647473 	smcvs	18243	; 0x4743
     fec:	682e6772 	stmdavs	lr!, {r1, r4, r5, r6, r8, r9, sl, sp, lr}
     ff0:	00000200 	andeq	r0, r0, r0, lsl #4
     ff4:	2e697072 	mcrcs	0, 3, r7, cr9, cr2, {3}
     ff8:	00030068 	andeq	r0, r3, r8, rrx
     ffc:	75623c00 	strbvc	r3, [r2, #-3072]!	; 0xfffff400
    1000:	2d746c69 	ldclcs	12, cr6, [r4, #-420]!	; 0xfffffe5c
    1004:	003e6e69 	eorseq	r6, lr, r9, ror #28
    1008:	76000000 	strvc	r0, [r0], -r0
    100c:	72702d61 	rsbsvc	r2, r0, #6208	; 0x1840
    1010:	6b746e69 	blvs	1d1c9bc <__bss_end__+0x1d11bd4>
    1014:	0100682e 	tsteq	r0, lr, lsr #16
    1018:	05000000 	streq	r0, [r0, #-0]
    101c:	02050022 	andeq	r0, r5, #34, 0	; 0x22
    1020:	00008bbc 			; <UNDEFINED> instruction: 0x00008bbc
    1024:	14050517 	strne	r0, [r5], #-1303	; 0xfffffae9
    1028:	22051413 	andcs	r1, r5, #318767104	; 0x13000000
    102c:	12050d06 	andne	r0, r5, #384	; 0x180
    1030:	03220550 			; <UNDEFINED> instruction: 0x03220550
    1034:	05052e7a 	streq	r2, [r5, #-3706]	; 0xfffff186
    1038:	2f120533 	svccs	0x00120533
    103c:	05650505 	strbeq	r0, [r5, #-1285]!	; 0xfffffafb
    1040:	052f0609 	streq	r0, [pc, #-1545]!	; a3f <__code_start__-0x75c1>
    1044:	05010612 	streq	r0, [r1, #-1554]	; 0xfffff9ee
    1048:	164b0605 	strbne	r0, [fp], -r5, lsl #12
    104c:	50064a06 	andpl	r4, r6, r6, lsl #20
    1050:	13060105 	movwne	r0, #24837	; 0x6105
    1054:	00080266 	andeq	r0, r8, r6, ror #4
    1058:	00a00101 	adceq	r0, r0, r1, lsl #2
    105c:	00030000 	andeq	r0, r3, r0
    1060:	00000057 	andeq	r0, r0, r7, asr r0
    1064:	0efb0102 	cdpeq	1, 15, cr0, cr11, cr2, {0}
    1068:	0101000d 	tsteq	r1, sp
    106c:	00000101 	andeq	r0, r0, r1, lsl #2
    1070:	00000100 	andeq	r0, r0, r0, lsl #2
    1074:	6c2f2e01 	stcvs	14, cr2, [pc], #-4	; 1078 <__code_start__-0x6f88>
    1078:	00636269 	rsbeq	r6, r3, r9, ror #4
    107c:	6573552f 	ldrbvs	r5, [r3, #-1327]!	; 0xfffffad1
    1080:	6d2f7372 	stcvs	3, cr7, [pc, #-456]!	; ec0 <__code_start__-0x7140>
    1084:	73656c69 	cmnvc	r5, #26880	; 0x6900
    1088:	756f532f 	strbvc	r5, [pc, #-815]!	; d61 <__code_start__-0x729f>
    108c:	2f656372 	svccs	0x00656372
    1090:	34327363 	ldrtcc	r7, [r2], #-867	; 0xfffffc9d
    1094:	2f786c30 	svccs	0x00786c30
    1098:	7062696c 	rsbvc	r6, r2, ip, ror #18
    109c:	6e692f69 	cdpvs	15, 6, cr2, cr9, cr9, {3}
    10a0:	64756c63 	ldrbtvs	r6, [r5], #-3171	; 0xfffff39d
    10a4:	70000065 	andvc	r0, r0, r5, rrx
    10a8:	2e6b7475 	mcrcs	4, 3, r7, cr11, cr5, {3}
    10ac:	00010063 	andeq	r0, r1, r3, rrx
    10b0:	69707200 	ldmdbvs	r0!, {r9, ip, sp, lr}^
    10b4:	0200682e 	andeq	r6, r0, #3014656	; 0x2e0000
    10b8:	05000000 	streq	r0, [r0, #-0]
    10bc:	02050022 	andeq	r0, r5, #34, 0	; 0x22
    10c0:	00008c14 	andeq	r8, r0, r4, lsl ip
    10c4:	13050515 	movwne	r0, #21781	; 0x5515
    10c8:	11062205 	tstne	r6, r5, lsl #4
    10cc:	060b052e 	streq	r0, [fp], -lr, lsr #10
    10d0:	0605052f 	streq	r0, [r5], -pc, lsr #10
    10d4:	0009052e 	andeq	r0, r9, lr, lsr #10
    10d8:	06020402 	streq	r0, [r2], -r2, lsl #8
    10dc:	000f0567 	andeq	r0, pc, r7, ror #10
    10e0:	49020402 	stmdbmi	r2, {r1, sl}
    10e4:	02000b05 	andeq	r0, r0, #5120	; 0x1400
    10e8:	05010204 	streq	r0, [r1, #-516]	; 0xfffffdfc
    10ec:	04020005 	streq	r0, [r2], #-5
    10f0:	062e0602 	strteq	r0, [lr], -r2, lsl #12
    10f4:	0601054e 	streq	r0, [r1], -lr, asr #10
    10f8:	00060213 	andeq	r0, r6, r3, lsl r2
    10fc:	08fa0101 	ldmeq	sl!, {r0, r8}^
    1100:	00030000 	andeq	r0, r3, r0
    1104:	000000f1 	strdeq	r0, [r0], -r1
    1108:	0efb0102 	cdpeq	1, 15, cr0, cr11, cr2, {0}
    110c:	0101000d 	tsteq	r1, sp
    1110:	00000101 	andeq	r0, r0, r1, lsl #2
    1114:	00000100 	andeq	r0, r0, r0, lsl #2
    1118:	6c2f2e01 	stcvs	14, cr2, [pc], #-4	; 111c <__code_start__-0x6ee4>
    111c:	00636269 	rsbeq	r6, r3, r9, ror #4
    1120:	74706f2f 	ldrbtvc	r6, [r0], #-3887	; 0xfffff0d1
    1124:	6d6f682f 	stclvs	8, cr6, [pc, #-188]!	; 1070 <__code_start__-0x6f90>
    1128:	65726265 	ldrbvs	r6, [r2, #-613]!	; 0xfffffd9b
    112c:	65432f77 	strbvs	r2, [r3, #-3959]	; 0xfffff089
    1130:	72616c6c 	rsbvc	r6, r1, #108, 24	; 0x6c00
    1134:	6d72612f 	ldfvse	f6, [r2, #-188]!	; 0xffffff44
    1138:	6e6f6e2d 	cdpvs	14, 6, cr6, cr15, cr13, {1}
    113c:	61652d65 	cmnvs	r5, r5, ror #26
    1140:	392d6962 	pushcc	{r1, r5, r6, r8, fp, sp, lr}
    1144:	322d392f 	eorcc	r3, sp, #770048	; 0xbc000
    1148:	71393130 	teqvc	r9, r0, lsr r1
    114c:	73632d34 	cmnvc	r3, #52, 26	; 0xd00
    1150:	65373031 	ldrvs	r3, [r7, #-49]!	; 0xffffffcf
    1154:	62696c2f 	rsbvs	r6, r9, #12032	; 0x2f00
    1158:	6363672f 	cmnvs	r3, #12320768	; 0xbc0000
    115c:	6d72612f 	ldfvse	f6, [r2, #-188]!	; 0xffffff44
    1160:	6e6f6e2d 	cdpvs	14, 6, cr6, cr15, cr13, {1}
    1164:	61652d65 	cmnvs	r5, r5, ror #26
    1168:	392f6962 	stmdbcc	pc!, {r1, r5, r6, r8, fp, sp, lr}	; <UNPREDICTABLE>
    116c:	312e322e 			; <UNDEFINED> instruction: 0x312e322e
    1170:	636e692f 	cmnvs	lr, #770048	; 0xbc000
    1174:	6564756c 	strbvs	r7, [r4, #-1388]!	; 0xfffffa94
    1178:	73552f00 	cmpvc	r5, #0, 30
    117c:	2f737265 	svccs	0x00737265
    1180:	656c696d 	strbvs	r6, [ip, #-2413]!	; 0xfffff693
    1184:	6f532f73 	svcvs	0x00532f73
    1188:	65637275 	strbvs	r7, [r3, #-629]!	; 0xfffffd8b
    118c:	3273632f 	rsbscc	r6, r3, #-1140850688	; 0xbc000000
    1190:	786c3034 	stmdavc	ip!, {r2, r4, r5, ip, sp}^
    1194:	62696c2f 	rsbvs	r6, r9, #12032	; 0x2f00
    1198:	692f6970 	stmdbvs	pc!, {r4, r5, r6, r8, fp, sp, lr}	; <UNPREDICTABLE>
    119c:	756c636e 	strbvc	r6, [ip, #-878]!	; 0xfffffc92
    11a0:	00006564 	andeq	r6, r0, r4, ror #10
    11a4:	702d6176 	eorvc	r6, sp, r6, ror r1
    11a8:	746e6972 	strbtvc	r6, [lr], #-2418	; 0xfffff68e
    11ac:	00632e6b 	rsbeq	r2, r3, fp, ror #28
    11b0:	73000001 	movwvc	r0, #1
    11b4:	6e696474 	mcrvs	4, 3, r6, cr9, cr4, {3}
    11b8:	63672d74 	cmnvs	r7, #116, 26	; 0x1d00
    11bc:	00682e63 	rsbeq	r2, r8, r3, ror #28
    11c0:	72000002 	andvc	r0, r0, #2, 0
    11c4:	682e6970 	stmdavs	lr!, {r4, r5, r6, r8, fp, sp, lr}
    11c8:	00000300 	andeq	r0, r0, r0, lsl #6
    11cc:	2d697072 	stclcs	0, cr7, [r9, #-456]!	; 0xfffffe38
    11d0:	65746e69 	ldrbvs	r6, [r4, #-3689]!	; 0xfffff197
    11d4:	6c616e72 	stclvs	14, cr6, [r1], #-456	; 0xfffffe38
    11d8:	0300682e 	movweq	r6, #2094	; 0x82e
    11dc:	74730000 	ldrbtvc	r0, [r3], #-0
    11e0:	67726164 	ldrbvs	r6, [r2, -r4, ror #2]!
    11e4:	0200682e 	andeq	r6, r0, #3014656	; 0x2e0000
    11e8:	623c0000 	eorsvs	r0, ip, #0, 0
    11ec:	746c6975 	strbtvc	r6, [ip], #-2421	; 0xfffff68b
    11f0:	3e6e692d 	vmulcc.f16	s13, s28, s27	; <UNPREDICTABLE>
    11f4:	00000000 	andeq	r0, r0, r0
    11f8:	00010500 	andeq	r0, r1, r0, lsl #10
    11fc:	8c4c0205 	sfmhi	f0, 2, [ip], {5}
    1200:	c8030000 	stmdagt	r3, {}	; <UNPREDICTABLE>
    1204:	02050100 	andeq	r0, r5, #0
    1208:	06010514 			; <UNDEFINED> instruction: 0x06010514
    120c:	30040510 	andcc	r0, r4, r0, lsl r5
    1210:	4a2c0105 	bmi	b0162c <__bss_end__+0xaf6844>
    1214:	05300405 	ldreq	r0, [r0, #-1029]!	; 0xfffffbfb
    1218:	13310602 	teqne	r1, #2097152	; 0x200000
    121c:	2e060b05 	vmlacs.f64	d0, d6, d5
    1220:	30060205 	andcc	r0, r6, r5, lsl #4
    1224:	02060905 	andeq	r0, r6, #81920	; 0x14000
    1228:	2e2e0d24 	cdpcs	13, 2, cr0, cr14, cr4, {1}
    122c:	03060d05 	movweq	r0, #27909	; 0x6d05
    1230:	11054a17 	tstne	r5, r7, lsl sl
    1234:	062d0513 			; <UNDEFINED> instruction: 0x062d0513
    1238:	2e160501 	cfmul32cs	mvfx0, mvfx6, mvfx1
    123c:	052f0d05 	streq	r0, [pc, #-3333]!	; 53f <__code_start__-0x7ac1>
    1240:	14052d16 	strne	r2, [r5], #-3350	; 0xfffff2ea
    1244:	17052f06 	strne	r2, [r5, -r6, lsl #30]
    1248:	0d050106 	stfeqs	f0, [r5, #-24]	; 0xffffffe8
    124c:	052f062e 	streq	r0, [pc, #-1582]!	; c26 <__code_start__-0x73da>
    1250:	2e010612 	mcrcs	6, 0, r0, cr1, cr2, {0}
    1254:	0d052d2f 	stceq	13, cr2, [r5, #-188]	; 0xffffff44
    1258:	12052f06 	andne	r2, r5, #6, 30
    125c:	19050106 	stmdbne	r5, {r1, r2, r8}
    1260:	04052f06 	streq	r2, [r5], #-3846	; 0xfffff0fa
    1264:	01011103 	tsteq	r1, r3, lsl #2
    1268:	05150205 	ldreq	r0, [r5, #-517]	; 0xfffffdfb
    126c:	7fb2030e 	svcvc	0x00b2030e
    1270:	13020501 	movwne	r0, #9473	; 0x2501
    1274:	01060605 	tsteq	r6, r5, lsl #12
    1278:	30060205 	andcc	r0, r6, r5, lsl #4
    127c:	05010805 	streq	r0, [r1, #-2053]	; 0xfffff7fb
    1280:	4a010602 	bmi	42a90 <__bss_end__+0x37ca8>
    1284:	91080805 	tstls	r8, r5, lsl #16
    1288:	4a060305 	bmi	181ea4 <__bss_end__+0x1770bc>
    128c:	01060805 	tsteq	r6, r5, lsl #16
    1290:	2d061505 	cfstr32cs	mvfx1, [r6, #-20]	; 0xffffffec
    1294:	05010805 	streq	r0, [r1, #-2053]	; 0xfffff7fb
    1298:	0805d703 	stmdaeq	r5, {r0, r1, r8, r9, sl, ip, lr, pc}
    129c:	18050106 	stmdane	r5, {r1, r2, r8}
    12a0:	2e02052d 	cfsh32cs	mvfx0, mvfx2, #29
    12a4:	052f0805 	streq	r0, [pc, #-2053]!	; aa7 <__code_start__-0x7559>
    12a8:	052d0615 	streq	r0, [sp, #-1557]!	; 0xfffff9eb
    12ac:	02050108 	andeq	r0, r5, #2
    12b0:	03050106 	movweq	r0, #20742	; 0x5106
    12b4:	18052f06 	stmdane	r5, {r1, r2, r8, r9, sl, fp, sp}
    12b8:	02051106 	andeq	r1, r5, #-2147483647	; 0x80000001
    12bc:	2f08052e 	svccs	0x0008052e
    12c0:	2d061505 	cfstr32cs	mvfx1, [r6, #-20]	; 0xffffffec
    12c4:	05010805 	streq	r0, [r1, #-2053]	; 0xfffff7fb
    12c8:	08051303 	stmdaeq	r5, {r0, r1, r8, r9, ip}
    12cc:	15050106 	strne	r0, [r5, #-262]	; 0xfffffefa
    12d0:	08052d06 	stmdaeq	r5, {r1, r2, r8, sl, fp, sp}
    12d4:	05010601 	streq	r0, [r1, #-1537]	; 0xfffff9ff
    12d8:	05a00602 	streq	r0, [r0, #1538]!	; 0x602
    12dc:	05010605 	streq	r0, [r1, #-1541]	; 0xfffff9fb
    12e0:	11053604 	tstne	r5, r4, lsl #12
    12e4:	2e09052f 	cfsh32cs	mvfx0, mvfx9, #31
    12e8:	05330205 	ldreq	r0, [r3, #-517]!	; 0xfffffdfb
    12ec:	2e720305 	cdpcs	3, 7, cr0, cr2, cr5, {0}
    12f0:	2f060205 	svccs	0x00060205
    12f4:	0e050106 	adfeqs	f0, f5, f6
    12f8:	02051606 	andeq	r1, r5, #6291456	; 0x600000
    12fc:	03051314 	movweq	r1, #21268	; 0x5314
    1300:	14020513 	strne	r0, [r2], #-1299	; 0xfffffaed
    1304:	010b0515 	tsteq	fp, r5, lsl r5
    1308:	01060205 	tsteq	r6, r5, lsl #4
    130c:	0603052e 	streq	r0, [r3], -lr, lsr #10
    1310:	060a0567 	streq	r0, [sl], -r7, ror #10
    1314:	2d020501 	cfstr32cs	mvfx0, [r2, #-4]
    1318:	052f0a05 	streq	r0, [pc, #-2565]!	; 91b <__code_start__-0x76e5>
    131c:	052d0617 	streq	r0, [sp, #-1559]!	; 0xfffff9e9
    1320:	0205010b 	andeq	r0, r5, #-1073741822	; 0xc0000002
    1324:	09050106 	stmdbeq	r5, {r1, r2, r8}
    1328:	02052e4c 	andeq	r2, r5, #76, 28	; 0x4c0
    132c:	09052e06 	stmdbeq	r5, {r1, r2, r9, sl, fp, sp}
    1330:	02050106 	andeq	r0, r5, #-2147483647	; 0x80000001
    1334:	01063006 	tsteq	r6, r6
    1338:	38030105 	stmdacc	r3, {r0, r2, r8}
    133c:	03090501 	movweq	r0, #38145	; 0x9501
    1340:	2e2e4a4f 	vnmulcs.f32	s8, s28, s30
    1344:	03061905 	movweq	r1, #26885	; 0x6905
    1348:	1a054a27 	bne	153bec <__bss_end__+0x148e04>
    134c:	06280513 			; <UNDEFINED> instruction: 0x06280513
    1350:	2e1f0501 	cfmul32cs	mvfx0, mvfx15, mvfx1
    1354:	052f0405 	streq	r0, [pc, #-1029]!	; f57 <__code_start__-0x70a9>
    1358:	0b052d1f 	bleq	14c7dc <__bss_end__+0x1419f4>
    135c:	0e052f06 	cdpeq	15, 0, cr2, cr5, cr6, {0}
    1360:	04050106 	streq	r0, [r5], #-262	; 0xfffffefa
    1364:	0602052e 	streq	r0, [r2], -lr, lsr #10
    1368:	134a5903 	movtne	r5, #43267	; 0xa903
    136c:	2e060b05 	vmlacs.f64	d0, d6, d5
    1370:	30060205 	andcc	r0, r6, r5, lsl #4
    1374:	02060905 	andeq	r0, r6, #81920	; 0x14000
    1378:	04050d24 	streq	r0, [r5], #-3364	; 0xfffff2dc
    137c:	05133606 	ldreq	r3, [r3, #-1542]	; 0xfffff9fa
    1380:	05010606 	streq	r0, [r1, #-1542]	; 0xfffff9fa
    1384:	13670605 	cmnne	r7, #5242880	; 0x500000
    1388:	06090513 			; <UNDEFINED> instruction: 0x06090513
    138c:	2b0d0511 	blcs	3427d8 <__bss_end__+0x3379f0>
    1390:	05300b05 	ldreq	r0, [r0, #-2821]!	; 0xfffff4fb
    1394:	1b052c0d 	blne	14c3d0 <__bss_end__+0x1415e8>
    1398:	06040535 			; <UNDEFINED> instruction: 0x06040535
    139c:	1305052d 	movwne	r0, #21805	; 0x552d
    13a0:	2e061b05 	vmlacs.f64	d1, d6, d5
    13a4:	05820a05 	streq	r0, [r2, #2565]	; 0xa05
    13a8:	0e052f04 	cdpeq	15, 0, cr2, cr5, cr4, {0}
    13ac:	490a052e 	stmdbmi	sl, {r1, r2, r3, r5, r8, sl}
    13b0:	2f060b05 	svccs	0x00060b05
    13b4:	01060405 	tsteq	r6, r5, lsl #8
    13b8:	06052f06 	streq	r2, [r5], -r6, lsl #30
    13bc:	05050106 	streq	r0, [r5, #-262]	; 0xfffffefa
    13c0:	0a052f06 	beq	14cfe0 <__bss_end__+0x1421f8>
    13c4:	052e0106 	streq	r0, [lr, #-262]!	; 0xfffffefa
    13c8:	2e2e2e07 	cdpcs	14, 2, cr2, cr14, cr7, {0}
    13cc:	03060405 	movweq	r0, #25605	; 0x6405
    13d0:	0205010d 	andeq	r0, r5, #1073741827	; 0x40000003
    13d4:	01460306 	cmpeq	r6, r6, lsl #6
    13d8:	3a030905 	bcc	c37f4 <__bss_end__+0xb8a0c>
    13dc:	0604052e 	streq	r0, [r4], -lr, lsr #10
    13e0:	010d032f 	tsteq	sp, pc, lsr #6
    13e4:	15020501 	strne	r0, [r2, #-1281]	; 0xfffffaff
    13e8:	b2030e05 	andlt	r0, r3, #80	; 0x50
    13ec:	0205017f 	andeq	r0, r5, #-1073741793	; 0xc000001f
    13f0:	08051413 	stmdaeq	r5, {r0, r1, r4, sl, ip}
    13f4:	06060501 	streq	r0, [r6], -r1, lsl #10
    13f8:	2e3c0310 	mrccs	3, 1, r0, cr12, cr0, {0}
    13fc:	46030205 	strmi	r0, [r3], -r5, lsl #4
    1400:	0530064a 	ldreq	r0, [r0, #-1610]!	; 0xfffff9b6
    1404:	2e010605 	cfmadd32cs	mvax0, mvfx0, mvfx1, mvfx5
    1408:	0602052e 	streq	r0, [r2], -lr, lsr #10
    140c:	0501064b 	streq	r0, [r1, #-1611]	; 0xfffff9b5
    1410:	0516060e 	ldreq	r0, [r6, #-1550]	; 0xfffff9f2
    1414:	15131402 	ldrne	r1, [r3, #-1026]	; 0xfffffbfe
    1418:	010b0515 	tsteq	fp, r5, lsl r5
    141c:	2e060205 	cdpcs	2, 0, cr0, cr6, cr5, {0}
    1420:	09053006 	stmdbeq	r5, {r1, r2, ip, sp}
    1424:	02050106 	andeq	r0, r5, #-2147483647	; 0x80000001
    1428:	01064c06 	tsteq	r6, r6, lsl #24
    142c:	38030105 	stmdacc	r3, {r0, r2, r8}
    1430:	03060501 	movweq	r0, #25857	; 0x6501
    1434:	02054a6e 	andeq	r4, r5, #450560	; 0x6e000
    1438:	4a664603 	bmi	1992c4c <__bss_end__+0x1987e64>
    143c:	0604052e 	streq	r0, [r4], -lr, lsr #10
    1440:	0100c803 	tsteq	r0, r3, lsl #16
    1444:	06010101 	streq	r0, [r1], -r1, lsl #2
    1448:	4a06822e 	bmi	1a1d08 <__bss_end__+0x196f20>
    144c:	052e7203 	streq	r7, [lr, #-515]!	; 0xfffffdfd
    1450:	05010609 	streq	r0, [r1, #-1545]	; 0xfffff9f7
    1454:	032f0604 			; <UNDEFINED> instruction: 0x032f0604
    1458:	0501010d 	streq	r0, [r1, #-269]	; 0xfffffef3
    145c:	0e051502 	cfsh32eq	mvfx1, mvfx5, #2
    1460:	017fb203 	cmneq	pc, r3, lsl #4
    1464:	14130205 	ldrne	r0, [r3], #-517	; 0xfffffdfb
    1468:	05010805 	streq	r0, [r1, #-2053]	; 0xfffff7fb
    146c:	1b030609 	blne	c2c98 <__bss_end__+0xb7eb0>
    1470:	03060501 	movweq	r0, #25857	; 0x6501
    1474:	3c032e63 	stccc	14, cr2, [r3], {99}	; 0x63
    1478:	052e2e2e 	streq	r2, [lr, #-3630]!	; 0xfffff1d2
    147c:	b4030648 	strlt	r0, [r3], #-1608	; 0xfffff9b8
    1480:	053c087f 	ldreq	r0, [ip, #-2175]!	; 0xfffff781
    1484:	06011305 	streq	r1, [r1], -r5, lsl #6
    1488:	0402002e 	streq	r0, [r2], #-46	; 0xffffffd2
    148c:	002e0602 	eoreq	r0, lr, r2, lsl #12
    1490:	01020402 	tsteq	r2, r2, lsl #8
    1494:	02040200 	andeq	r0, r4, #0, 4
    1498:	00110513 	andseq	r0, r1, r3, lsl r5
    149c:	06020402 	streq	r0, [r2], -r2, lsl #8
    14a0:	00070501 	andeq	r0, r7, r1, lsl #10
    14a4:	2f020402 	svccs	0x00020402
    14a8:	02001105 	andeq	r1, r0, #1073741825	; 0x40000001
    14ac:	052d0204 	streq	r0, [sp, #-516]!	; 0xfffffdfc
    14b0:	04020005 	streq	r0, [r2], #-5
    14b4:	052f0602 	streq	r0, [pc, #-1538]!	; eba <__code_start__-0x7146>
    14b8:	04020009 	streq	r0, [r2], #-9
    14bc:	0e051302 	cdpeq	3, 0, cr1, cr5, cr2, {0}
    14c0:	02040200 	andeq	r0, r4, #0, 4
    14c4:	05050106 	streq	r0, [r5, #-262]	; 0xfffffefa
    14c8:	01040200 	mrseq	r0, R12_usr
    14cc:	02006306 	andeq	r6, r0, #402653184	; 0x18000000
    14d0:	05010104 	streq	r0, [r1, #-260]	; 0xfffffefc
    14d4:	04020048 	streq	r0, [r2], #-72	; 0xffffffb8
    14d8:	05110601 	ldreq	r0, [r1, #-1537]	; 0xfffff9ff
    14dc:	04020005 	streq	r0, [r2], #-5
    14e0:	48052f01 	stmdami	r5, {r0, r8, r9, sl, fp, sp}
    14e4:	01040200 	mrseq	r0, R12_usr
    14e8:	0005052d 	andeq	r0, r5, sp, lsr #10
    14ec:	2f010402 	svccs	0x00010402
    14f0:	01040200 	mrseq	r0, R12_usr
    14f4:	0402004a 	streq	r0, [r2], #-74	; 0xffffffb6
    14f8:	02004a01 	andeq	r4, r0, #4096	; 0x1000
    14fc:	4a060104 	bmi	181914 <__bss_end__+0x176b2c>
    1500:	e1034005 	tst	r3, r5
    1504:	0106d600 	tsteq	r6, r0, lsl #12
    1508:	2e4e0905 	vmlacs.f16	s1, s28, s10	; <UNPREDICTABLE>
    150c:	05300805 	ldreq	r0, [r0, #-2053]!	; 0xfffff7fb
    1510:	1205291e 	andne	r2, r5, #491520	; 0x78000
    1514:	330d052e 	movwcc	r0, #54574	; 0xd52e
    1518:	45060205 	strmi	r0, [r6, #-517]	; 0xfffffdfb
    151c:	05130505 	ldreq	r0, [r3, #-1285]	; 0xfffffafb
    1520:	05051402 	streq	r1, [r5, #-1026]	; 0xfffffbfe
    1524:	13020513 	movwne	r0, #9491	; 0x2513
    1528:	05010805 	streq	r0, [r1, #-2053]	; 0xfffff7fb
    152c:	7a030640 	bvc	c2e34 <__bss_end__+0xb804c>
    1530:	0d052e01 	stceq	14, cr2, [r5, #-4]
    1534:	11056634 	tstne	r5, r4, lsr r6
    1538:	4a4a2003 	bmi	128954c <__bss_end__+0x127e764>
    153c:	03060405 	movweq	r0, #25605	; 0x6405
    1540:	09050162 	stmdbeq	r5, {r1, r5, r6, r8}
    1544:	0f050106 	svceq	0x00050106
    1548:	0608052e 	streq	r0, [r8], -lr, lsr #10
    154c:	060d052c 	streq	r0, [sp], -ip, lsr #10
    1550:	0603052e 	streq	r0, [r3], -lr, lsr #10
    1554:	06050567 	streq	r0, [r5], -r7, ror #10
    1558:	06080501 	streq	r0, [r8], -r1, lsl #10
    155c:	060e054d 	streq	r0, [lr], -sp, asr #10
    1560:	2e0a0501 	cfsh32cs	mvfx0, mvfx10, #1
    1564:	052f0905 	streq	r0, [pc, #-2309]!	; c67 <__code_start__-0x7399>
    1568:	052f0604 	streq	r0, [pc, #-1540]!	; f6c <__code_start__-0x7094>
    156c:	05010607 	streq	r0, [r1, #-1543]	; 0xfffff9f9
    1570:	04052c0a 	streq	r2, [r5], #-3082	; 0xfffff3f6
    1574:	2d053206 	sfmcs	f3, 4, [r5, #-24]	; 0xffffffe8
    1578:	7f980306 	svcvc	0x00980306
    157c:	03090501 	movweq	r0, #38145	; 0x9501
    1580:	052e00ed 	streq	r0, [lr, #-237]!	; 0xffffff13
    1584:	07052c0d 	streq	r2, [r5, -sp, lsl #24]
    1588:	0604052b 	streq	r0, [r4], -fp, lsr #10
    158c:	05141330 	ldreq	r1, [r4, #-816]	; 0xfffffcd0
    1590:	0c050109 	stfeqs	f0, [r5], {9}
    1594:	017f9303 	cmneq	pc, r3, lsl #6
    1598:	06011d05 	streq	r1, [r1], -r5, lsl #26
    159c:	03090501 	movweq	r0, #38145	; 0x9501
    15a0:	050100ed 	streq	r0, [r1, #-237]	; 0xffffff13
    15a4:	052f0605 	streq	r0, [pc, #-1541]!	; fa7 <__code_start__-0x7059>
    15a8:	2e010612 	mcrcs	6, 0, r0, cr1, cr2, {0}
    15ac:	2f0b052d 	svccs	0x000b052d
    15b0:	2f060505 	svccs	0x00060505
    15b4:	05100905 	ldreq	r0, [r0, #-2309]	; 0xfffff6fb
    15b8:	7f93030c 	svcvc	0x0093030c
    15bc:	011d0501 	tsteq	sp, r1, lsl #10
    15c0:	01062d05 	tsteq	r6, r5, lsl #26
    15c4:	ed030905 	vstr.16	s0, [r3, #-10]
    15c8:	04052e00 	streq	r2, [r5], #-3584	; 0xfffff200
    15cc:	00014e06 	andeq	r4, r1, r6, lsl #28
    15d0:	4a020402 	bmi	825e0 <__bss_end__+0x777f8>
    15d4:	02040200 	andeq	r0, r4, #0, 4
    15d8:	04020001 	streq	r0, [r2], #-1
    15dc:	02001502 	andeq	r1, r0, #8388608	; 0x800000
    15e0:	02060204 	andeq	r0, r6, #4, 4	; 0x40000000
    15e4:	02001236 	andeq	r1, r0, #1610612739	; 0x60000003
    15e8:	052e0204 	streq	r0, [lr, #-516]!	; 0xfffffdfc
    15ec:	d1030602 	tstle	r3, r2, lsl #12
    15f0:	07050100 	streq	r0, [r5, -r0, lsl #2]
    15f4:	052e0106 	streq	r0, [lr, #-262]!	; 0xfffffefa
    15f8:	052f0602 	streq	r0, [pc, #-1538]!	; ffe <__code_start__-0x7002>
    15fc:	0501060b 	streq	r0, [r1, #-1547]	; 0xfffff9f5
    1600:	05052f01 	streq	r2, [r5, #-3841]	; 0xfffff0ff
    1604:	4a650306 	bmi	1942224 <__bss_end__+0x193743c>
    1608:	01060905 	tsteq	r6, r5, lsl #18
    160c:	06050566 	streq	r0, [r5], -r6, ror #10
    1610:	0304059f 	movweq	r0, #17823	; 0x459f
    1614:	07050111 	smladeq	r5, r1, r1, r0
    1618:	04050106 	streq	r0, [r5], #-262	; 0xfffffefa
    161c:	0a053106 	beq	14da3c <__bss_end__+0x142c54>
    1620:	00130501 	andseq	r0, r3, r1, lsl #10
    1624:	06010402 	streq	r0, [r1], -r2, lsl #8
    1628:	0010052e 	andseq	r0, r0, lr, lsr #10
    162c:	2e010402 	cdpcs	4, 0, cr0, cr1, cr2, {0}
    1630:	4b060505 	blmi	182a4c <__bss_end__+0x177c64>
    1634:	01060a05 	tsteq	r6, r5, lsl #20
    1638:	04052d06 	streq	r2, [r5], #-3334	; 0xfffff2fa
    163c:	11050106 	tstne	r5, r6, lsl #2
    1640:	7fb60306 	svcvc	0x00b60306
    1644:	00011366 	andeq	r1, r1, r6, ror #6
    1648:	06020402 	streq	r0, [r2], -r2, lsl #8
    164c:	01ba06ba 			; <UNDEFINED> instruction: 0x01ba06ba
    1650:	061a0514 			; <UNDEFINED> instruction: 0x061a0514
    1654:	052e2e13 	streq	r2, [lr, #-3603]!	; 0xfffff1ed
    1658:	05674e11 	strbeq	r4, [r7, #-3601]!	; 0xfffff1ef
    165c:	13056814 	movwne	r6, #22548	; 0x5814
    1660:	03150582 	tsteq	r5, #545259520	; 0x20800000
    1664:	11054a78 	tstne	r5, r8, ror sl
    1668:	13134b06 	tstne	r3, #6144	; 0x1800
    166c:	05141314 	ldreq	r1, [r4, #-788]	; 0xfffffcec
    1670:	05010613 	streq	r0, [r1, #-1555]	; 0xfffff9ed
    1674:	052f0609 	streq	r0, [pc, #-1545]!	; 1073 <__code_start__-0x6f8d>
    1678:	2e01060d 	cfmadd32cs	mvax0, mvfx0, mvfx1, mvfx13
    167c:	bb09052e 	bllt	242b3c <__bss_end__+0x237d54>
    1680:	059d0d05 	ldreq	r0, [sp, #3333]	; 0xd05
    1684:	052f0609 	streq	r0, [pc, #-1545]!	; 1083 <__code_start__-0x6f7d>
    1688:	03062f15 	movweq	r2, #28437	; 0x6f15
    168c:	0b034a75 	bleq	d4068 <__bss_end__+0xc9280>
    1690:	05054a2e 	streq	r4, [r5, #-2606]	; 0xfffff5d2
    1694:	01230306 			; <UNDEFINED> instruction: 0x01230306
    1698:	01060905 	tsteq	r6, r5, lsl #18
    169c:	0605052e 	streq	r0, [r5], -lr, lsr #10
    16a0:	2e6e03d7 	mcrcs	3, 3, r0, cr14, cr7, {6}
    16a4:	05010e03 	streq	r0, [r1, #-3587]	; 0xfffff1fd
    16a8:	05010609 	streq	r0, [r1, #-1545]	; 0xfffff9f7
    16ac:	10030605 	andne	r0, r3, r5, lsl #12
    16b0:	0301054a 	movweq	r0, #5450	; 0x154a
    16b4:	05017eed 	streq	r7, [r1, #-3821]	; 0xfffff113
    16b8:	13151402 	tstne	r5, #33554432	; 0x2000000
    16bc:	03040514 	movweq	r0, #17684	; 0x4514
    16c0:	0905011a 	stmdbeq	r5, {r1, r3, r4, r8}
    16c4:	02050106 	andeq	r0, r5, #-2147483647	; 0x80000001
    16c8:	052e4603 	streq	r4, [lr, #-1539]!	; 0xfffff9fd
    16cc:	2e3a0309 	cdpcs	3, 3, cr0, cr10, cr9, {0}
    16d0:	2f060405 	svccs	0x00060405
    16d4:	01010d03 	tsteq	r1, r3, lsl #26
    16d8:	05150205 	ldreq	r0, [r5, #-517]	; 0xfffffdfb
    16dc:	7fb2030e 	svcvc	0x00b2030e
    16e0:	13020501 	movwne	r0, #9473	; 0x2501
    16e4:	01080514 	tsteq	r8, r4, lsl r5
    16e8:	01060205 	tsteq	r6, r5, lsl #4
    16ec:	059f0805 	ldreq	r0, [pc, #2053]	; 1ef9 <__code_start__-0x6107>
    16f0:	064a0603 	strbeq	r0, [sl], -r3, lsl #12
    16f4:	2e080501 	cfsh32cs	mvfx0, mvfx8, #1
    16f8:	2d061505 	cfstr32cs	mvfx1, [r6, #-20]	; 0xffffffec
    16fc:	05010805 	streq	r0, [r1, #-2053]	; 0xfffff7fb
    1700:	01062f03 	tsteq	r6, r3, lsl #30
    1704:	052e0805 	streq	r0, [lr, #-2053]!	; 0xfffff7fb
    1708:	052d0615 	streq	r0, [sp, #-1557]!	; 0xfffff9eb
    170c:	03050108 	movweq	r0, #20744	; 0x5108
    1710:	0501062f 	streq	r0, [r1, #-1583]	; 0xfffff9d1
    1714:	15052e08 	strne	r2, [r5, #-3592]	; 0xfffff1f8
    1718:	08052d06 	stmdaeq	r5, {r1, r2, r8, sl, fp, sp}
    171c:	2f030501 	svccs	0x00030501
    1720:	08050106 	stmdaeq	r5, {r1, r2, r8}
    1724:	0615052e 	ldreq	r0, [r5], -lr, lsr #10
    1728:	0108052d 	tsteq	r8, sp, lsr #10
    172c:	062f0305 	strteq	r0, [pc], -r5, lsl #6
    1730:	2e080501 	cfsh32cs	mvfx0, mvfx8, #1
    1734:	2d061505 	cfstr32cs	mvfx1, [r6, #-20]	; 0xffffffec
    1738:	05010805 	streq	r0, [r1, #-2053]	; 0xfffff7fb
    173c:	01062f03 	tsteq	r6, r3, lsl #30
    1740:	052e0805 	streq	r0, [lr, #-2053]!	; 0xfffff7fb
    1744:	052d0615 	streq	r0, [sp, #-1557]!	; 0xfffff9eb
    1748:	03050108 	movweq	r0, #20744	; 0x5108
    174c:	06080513 			; <UNDEFINED> instruction: 0x06080513
    1750:	06150501 	ldreq	r0, [r5], -r1, lsl #10
    1754:	0108052d 	tsteq	r8, sp, lsr #10
    1758:	03056606 	movweq	r6, #22022	; 0x5606
    175c:	08056706 	stmdaeq	r5, {r1, r2, r8, r9, sl, sp, lr}
    1760:	18050106 	stmdane	r5, {r1, r2, r8}
    1764:	2e02052d 	cfsh32cs	mvfx0, mvfx2, #29
    1768:	052f0805 	streq	r0, [pc, #-2053]!	; f6b <__code_start__-0x7095>
    176c:	052d0615 	streq	r0, [sp, #-1557]!	; 0xfffff9eb
    1770:	02050108 	andeq	r0, r5, #2
    1774:	03050106 	movweq	r0, #20742	; 0x5106
    1778:	18052f06 	stmdane	r5, {r1, r2, r8, r9, sl, fp, sp}
    177c:	02051106 	andeq	r1, r5, #-2147483647	; 0x80000001
    1780:	2f08052e 	svccs	0x0008052e
    1784:	2d061505 	cfstr32cs	mvfx1, [r6, #-20]	; 0xffffffec
    1788:	05010805 	streq	r0, [r1, #-2053]	; 0xfffff7fb
    178c:	08051303 	stmdaeq	r5, {r0, r1, r8, r9, ip}
    1790:	15050106 	strne	r0, [r5, #-262]	; 0xfffffefa
    1794:	08052d06 	stmdaeq	r5, {r1, r2, r8, sl, fp, sp}
    1798:	06050501 	streq	r0, [r5], -r1, lsl #10
    179c:	02054a14 	andeq	r4, r5, #20, 20	; 0x14000
    17a0:	0e052e06 	cdpeq	14, 0, cr2, cr5, cr6, {0}
    17a4:	04051906 	streq	r1, [r5], #-2310	; 0xfffff6fa
    17a8:	2f11052f 	svccs	0x0011052f
    17ac:	054a0905 	strbeq	r0, [sl, #-2309]	; 0xfffff6fb
    17b0:	05053302 	streq	r3, [r5, #-770]	; 0xfffffcfe
    17b4:	052e7203 	streq	r7, [lr, #-515]!	; 0xfffffdfd
    17b8:	062f0602 	strteq	r0, [pc], -r2, lsl #12
    17bc:	060e0501 	streq	r0, [lr], -r1, lsl #10
    17c0:	14020516 	strne	r0, [r2], #-1302	; 0xfffffaea
    17c4:	13030513 	movwne	r0, #13587	; 0x3513
    17c8:	15140205 	ldrne	r0, [r4, #-517]	; 0xfffffdfb
    17cc:	05010b05 	streq	r0, [r1, #-2821]	; 0xfffff4fb
    17d0:	2e010602 	cfmadd32cs	mvax0, mvfx0, mvfx1, mvfx2
    17d4:	06030566 	streq	r0, [r3], -r6, ror #10
    17d8:	060a052f 	streq	r0, [sl], -pc, lsr #10
    17dc:	2d020501 	cfstr32cs	mvfx0, [r2, #-4]
    17e0:	052f0a05 	streq	r0, [pc, #-2565]!	; de3 <__code_start__-0x721d>
    17e4:	052d0617 	streq	r0, [sp, #-1559]!	; 0xfffff9e9
    17e8:	0205010b 	andeq	r0, r5, #-1073741822	; 0xc0000002
    17ec:	4a4a0106 	bmi	1281c0c <__bss_end__+0x1276e24>
    17f0:	03060505 	movweq	r0, #25861	; 0x6505
    17f4:	05010195 	streq	r0, [r1, #-405]	; 0xfffffe6b
    17f8:	f8030611 			; <UNDEFINED> instruction: 0xf8030611
    17fc:	1b05017e 	blne	141dfc <__bss_end__+0x137014>
    1800:	4a018803 	bmi	63814 <__bss_end__+0x58a2c>
    1804:	03060105 	movweq	r0, #24837	; 0x6105
    1808:	052e7ef3 	streq	r7, [lr, #-3827]!	; 0xfffff10d
    180c:	13151402 	tstne	r5, #33554432	; 0x2000000
    1810:	03190514 	tsteq	r9, #20, 10	; 0x5000000
    1814:	1a050122 	bne	141ca4 <__bss_end__+0x136ebc>
    1818:	06280513 			; <UNDEFINED> instruction: 0x06280513
    181c:	2e1f0501 	cfmul32cs	mvfx0, mvfx15, mvfx1
    1820:	052f0405 	streq	r0, [pc, #-1029]!	; 1423 <__code_start__-0x6bdd>
    1824:	1f054a0e 	svcne	0x00054a0e
    1828:	060b052d 	streq	r0, [fp], -sp, lsr #10
    182c:	0604052f 	streq	r0, [r4], -pc, lsr #10
    1830:	01320601 	teqeq	r2, r1, lsl #12
    1834:	05150205 	ldreq	r0, [r5, #-517]	; 0xfffffdfb
    1838:	7fb2030e 	svcvc	0x00b2030e
    183c:	13020501 	movwne	r0, #9473	; 0x2501
    1840:	01060605 	tsteq	r6, r5, lsl #12
    1844:	30060205 	andcc	r0, r6, r5, lsl #4
    1848:	05010805 	streq	r0, [r1, #-2053]	; 0xfffff7fb
    184c:	05010602 	streq	r0, [r1, #-1538]	; 0xfffff9fe
    1850:	21080603 	tstcs	r8, r3, lsl #12
    1854:	01060805 	tsteq	r6, r5, lsl #16
    1858:	49061505 	stmdbmi	r6, {r0, r2, r8, sl, ip}
    185c:	05010805 	streq	r0, [r1, #-2053]	; 0xfffff7fb
    1860:	0805d703 	stmdaeq	r5, {r0, r1, r8, r9, sl, ip, lr, pc}
    1864:	18050106 	stmdane	r5, {r1, r2, r8}
    1868:	2e02052d 	cfsh32cs	mvfx0, mvfx2, #29
    186c:	052f0805 	streq	r0, [pc, #-2053]!	; 106f <__code_start__-0x6f91>
    1870:	052d0615 	streq	r0, [sp, #-1557]!	; 0xfffff9eb
    1874:	02050108 	andeq	r0, r5, #2
    1878:	03050106 	movweq	r0, #20742	; 0x5106
    187c:	18052f06 	stmdane	r5, {r1, r2, r8, r9, sl, fp, sp}
    1880:	02051106 	andeq	r1, r5, #-2147483647	; 0x80000001
    1884:	2f08052e 	svccs	0x0008052e
    1888:	2d061505 	cfstr32cs	mvfx1, [r6, #-20]	; 0xffffffec
    188c:	05010805 	streq	r0, [r1, #-2053]	; 0xfffff7fb
    1890:	08051303 	stmdaeq	r5, {r0, r1, r8, r9, ip}
    1894:	15050106 	strne	r0, [r5, #-262]	; 0xfffffefa
    1898:	08052d06 	stmdaeq	r5, {r1, r2, r8, sl, fp, sp}
    189c:	06050501 	streq	r0, [r5], -r1, lsl #10
    18a0:	06020514 			; <UNDEFINED> instruction: 0x06020514
    18a4:	06040566 	streq	r0, [r4], -r6, ror #10
    18a8:	0305051a 	movweq	r0, #21786	; 0x551a
    18ac:	02054a78 	andeq	r4, r5, #120, 20	; 0x78000
    18b0:	01062f06 	tsteq	r6, r6, lsl #30
    18b4:	16060e05 	strne	r0, [r6], -r5, lsl #28
    18b8:	13140205 	tstne	r4, #1342177280	; 0x50000000
    18bc:	01060405 	tsteq	r6, r5, lsl #8
    18c0:	2f060305 	svccs	0x00060305
    18c4:	01061105 	tsteq	r6, r5, lsl #2
    18c8:	052e0905 	streq	r0, [lr, #-2309]!	; 0xfffff6fb
    18cc:	15300602 	ldrne	r0, [r0, #-1538]!	; 0xfffff9fe
    18d0:	05010b05 	streq	r0, [r1, #-2821]	; 0xfffff4fb
    18d4:	4a010602 	bmi	430e4 <__bss_end__+0x382fc>
    18d8:	03052e4a 	movweq	r2, #24138	; 0x5e4a
    18dc:	0a052f06 	beq	14d4fc <__bss_end__+0x142714>
    18e0:	02050106 	andeq	r0, r5, #-2147483647	; 0x80000001
    18e4:	2f0a052d 	svccs	0x000a052d
    18e8:	2d061705 	stccs	7, cr1, [r6, #-20]	; 0xffffffec
    18ec:	05010b05 	streq	r0, [r1, #-2821]	; 0xfffff4fb
    18f0:	4a010602 	bmi	43100 <__bss_end__+0x38318>
    18f4:	0514062e 	ldreq	r0, [r4, #-1582]	; 0xfffff9d2
    18f8:	05010609 	streq	r0, [r1, #-1545]	; 0xfffff9f7
    18fc:	064c0602 	strbeq	r0, [ip], -r2, lsl #12
    1900:	06050501 	streq	r0, [r5], -r1, lsl #10
    1904:	01019803 	tsteq	r1, r3, lsl #16
    1908:	0607052a 	streq	r0, [r7], -sl, lsr #10
    190c:	06050501 	streq	r0, [r5], -r1, lsl #10
    1910:	0318052f 	tsteq	r8, #197132288	; 0xbc00000
    1914:	1b052e53 	blne	14d268 <__bss_end__+0x142480>
    1918:	1a050106 	bne	141d38 <__bss_end__+0x136f50>
    191c:	06090582 	streq	r0, [r9], -r2, lsl #11
    1920:	060d054b 	streq	r0, [sp], -fp, asr #10
    1924:	09052e01 	stmdbeq	r5, {r0, r9, sl, fp, sp}
    1928:	9d0d05d7 	cfstr32ls	mvfx0, [sp, #-860]	; 0xfffffca4
    192c:	2f060905 	svccs	0x00060905
    1930:	05301505 	ldreq	r1, [r0, #-1285]!	; 0xfffffafb
    1934:	05010618 	streq	r0, [r1, #-1560]	; 0xfffff9e8
    1938:	19056617 	stmdbne	r5, {r0, r1, r2, r4, r9, sl, sp, lr}
    193c:	4917052f 	ldmdbmi	r7, {r0, r1, r2, r3, r5, r8, sl}
    1940:	2f061905 	svccs	0x00061905
    1944:	03061505 	movweq	r1, #25861	; 0x6505
    1948:	19052e6f 	stmdbne	r5, {r0, r1, r2, r3, r5, r6, r9, sl, fp, sp}
    194c:	4a130306 	bmi	4c256c <__bss_end__+0x4b7784>
    1950:	03061505 	movweq	r1, #25861	; 0x6505
    1954:	054a2e6d 	strbeq	r2, [sl, #-3693]	; 0xfffff193
    1958:	7fa00302 	svcvc	0x00a00302
    195c:	03066601 	movweq	r6, #26113	; 0x6601
    1960:	05050172 	streq	r0, [r5, #-370]	; 0xfffffe8e
    1964:	04050106 	streq	r0, [r5], #-262	; 0xfffffefa
    1968:	03050536 	movweq	r0, #21814	; 0x5536
    196c:	02052e78 	andeq	r2, r5, #120, 28	; 0x780
    1970:	01062f06 	tsteq	r6, r6, lsl #30
    1974:	16060e05 	strne	r0, [r6], -r5, lsl #28
    1978:	13140205 	tstne	r4, #1342177280	; 0x50000000
    197c:	01060405 	tsteq	r6, r5, lsl #8
    1980:	0602054a 	streq	r0, [r2], -sl, asr #10
    1984:	05017803 	streq	r7, [r1, #-2051]	; 0xfffff7fd
    1988:	4a010605 	bmi	431a4 <__bss_end__+0x383bc>
    198c:	4b060205 	blmi	1821a8 <__bss_end__+0x1773c0>
    1990:	0e050106 	adfeqs	f0, f5, f6
    1994:	02051606 	andeq	r1, r5, #6291456	; 0x600000
    1998:	15151314 	ldrne	r1, [r5, #-788]	; 0xfffffcec
    199c:	06010b05 	streq	r0, [r1], -r5, lsl #22
    19a0:	0611052e 	ldreq	r0, [r1], -lr, lsr #10
    19a4:	01019e03 	tsteq	r1, r3, lsl #28
    19a8:	01062205 	tsteq	r6, r5, lsl #4
    19ac:	052f0505 	streq	r0, [pc, #-1285]!	; 14af <__code_start__-0x6b51>
    19b0:	05052d22 	streq	r2, [r5, #-3362]	; 0xfffff2de
    19b4:	11052f06 	tstne	r5, r6, lsl #30
    19b8:	8305054b 	movwhi	r0, #21835	; 0x554b
    19bc:	5c039e01 	stcpl	14, cr9, [r3], {1}
    19c0:	059e012e 	ldreq	r0, [lr, #302]	; 0x12e
    19c4:	f3030602 	vmax.u8	d0, d3, d2
    19c8:	052e2e7e 	streq	r2, [lr, #-3710]!	; 0xfffff182
    19cc:	054a2c06 	strbeq	r2, [sl, #-3078]	; 0xfffff3fa
    19d0:	00d8030d 	sbcseq	r0, r8, sp, lsl #6
    19d4:	00040501 	andeq	r0, r4, r1, lsl #10
    19d8:	06010402 	streq	r0, [r1], -r2, lsl #8
    19dc:	004a1103 	subeq	r1, sl, r3, lsl #2
    19e0:	01010402 	tsteq	r1, r2, lsl #8
    19e4:	51061105 	tstpl	r6, r5, lsl #2
    19e8:	15059e06 	strne	r9, [r5, #-3590]	; 0xfffff1fa
    19ec:	012e1703 			; <UNDEFINED> instruction: 0x012e1703
    19f0:	031105ba 	tsteq	r1, #780140544	; 0x2e800000
    19f4:	02012e69 	andeq	r2, r1, #1680	; 0x690
    19f8:	01010028 	tsteq	r1, r8, lsr #32
    19fc:	00000087 	andeq	r0, r0, r7, lsl #1
    1a00:	00640003 	rsbeq	r0, r4, r3
    1a04:	01020000 	mrseq	r0, (UNDEF: 2)
    1a08:	000d0efb 	strdeq	r0, [sp], -fp
    1a0c:	01010101 	tsteq	r1, r1, lsl #2
    1a10:	01000000 	mrseq	r0, (UNDEF: 0)
    1a14:	2e010000 	cdpcs	0, 0, cr0, cr1, cr0, {0}
    1a18:	6174732f 	cmnvs	r4, pc, lsr #6
    1a1c:	732d6666 			; <UNDEFINED> instruction: 0x732d6666
    1a20:	2f006372 	svccs	0x00006372
    1a24:	72657355 	rsbvc	r7, r5, #1409286145	; 0x54000001
    1a28:	696d2f73 	stmdbvs	sp!, {r0, r1, r4, r5, r6, r8, r9, sl, fp, sp}^
    1a2c:	2f73656c 	svccs	0x0073656c
    1a30:	72756f53 	rsbsvc	r6, r5, #332	; 0x14c
    1a34:	632f6563 			; <UNDEFINED> instruction: 0x632f6563
    1a38:	30343273 	eorscc	r3, r4, r3, ror r2
    1a3c:	6c2f786c 	stcvs	8, cr7, [pc], #-432	; 1894 <__code_start__-0x676c>
    1a40:	69706269 	ldmdbvs	r0!, {r0, r3, r5, r6, r9, sp, lr}^
    1a44:	636e692f 	cmnvs	lr, #770048	; 0xbc000
    1a48:	6564756c 	strbvs	r7, [r4, #-1388]!	; 0xfffffa94
    1a4c:	6c630000 	stclvs	0, cr0, [r3], #-0
    1a50:	2d6e6165 	stfcse	f6, [lr, #-404]!	; 0xfffffe6c
    1a54:	6f626572 	svcvs	0x00626572
    1a58:	632e746f 			; <UNDEFINED> instruction: 0x632e746f
    1a5c:	00000100 	andeq	r0, r0, r0, lsl #2
    1a60:	2e697072 	mcrcs	0, 3, r7, cr9, cr2, {3}
    1a64:	00020068 	andeq	r0, r2, r8, rrx
    1a68:	19050000 	stmdbne	r5, {}	; <UNPREDICTABLE>
    1a6c:	00020500 	andeq	r0, r2, r0, lsl #10
    1a70:	15000096 	strne	r0, [r0, #-150]	; 0xffffff6a
    1a74:	05130505 	ldreq	r0, [r3, #-1285]	; 0xfffffafb
    1a78:	052d0619 	streq	r0, [sp, #-1561]!	; 0xfffff9e7
    1a7c:	67062f05 	strvs	r2, [r6, -r5, lsl #30]
    1a80:	06024b2f 	streq	r4, [r2], -pc, lsr #22
    1a84:	12010100 	andne	r0, r1, #0
    1a88:	03000001 	movweq	r0, #1
    1a8c:	00005e00 	andeq	r5, r0, r0, lsl #28
    1a90:	fb010200 	blx	4229a <__bss_end__+0x374b2>
    1a94:	01000d0e 	tsteq	r0, lr, lsl #26
    1a98:	00010101 	andeq	r0, r1, r1, lsl #2
    1a9c:	00010000 	andeq	r0, r1, r0
    1aa0:	2f2e0100 	svccs	0x002e0100
    1aa4:	66617473 			; <UNDEFINED> instruction: 0x66617473
    1aa8:	72732d66 	rsbsvc	r2, r3, #6528	; 0x1980
    1aac:	552f0063 	strpl	r0, [pc, #-99]!	; 1a51 <__code_start__-0x65af>
    1ab0:	73726573 	cmnvc	r2, #482344960	; 0x1cc00000
    1ab4:	6c696d2f 	stclvs	13, cr6, [r9], #-188	; 0xffffff44
    1ab8:	532f7365 			; <UNDEFINED> instruction: 0x532f7365
    1abc:	6372756f 	cmnvs	r2, #465567744	; 0x1bc00000
    1ac0:	73632f65 	cmnvc	r3, #404	; 0x194
    1ac4:	6c303432 	cfldrsvs	mvf3, [r0], #-200	; 0xffffff38
    1ac8:	696c2f78 	stmdbvs	ip!, {r3, r4, r5, r6, r8, r9, sl, fp, sp}^
    1acc:	2f697062 	svccs	0x00697062
    1ad0:	6c636e69 	stclvs	14, cr6, [r3], #-420	; 0xfffffe5c
    1ad4:	00656475 	rsbeq	r6, r5, r5, ror r4
    1ad8:	74736300 	ldrbtvc	r6, [r3], #-768	; 0xfffffd00
    1adc:	2e747261 	cdpcs	2, 7, cr7, cr4, cr1, {3}
    1ae0:	00010063 	andeq	r0, r1, r3, rrx
    1ae4:	69707200 	ldmdbvs	r0!, {r9, ip, sp, lr}^
    1ae8:	0200682e 	andeq	r6, r0, #3014656	; 0x2e0000
    1aec:	05000000 	streq	r0, [r0, #-0]
    1af0:	02050010 	andeq	r0, r5, #16, 0
    1af4:	0000962c 	andeq	r9, r0, ip, lsr #12
    1af8:	13050515 	movwne	r0, #21781	; 0x5515
    1afc:	05130205 	ldreq	r0, [r3, #-517]	; 0xfffffdfb
    1b00:	10051405 	andne	r1, r5, r5, lsl #8
    1b04:	05050e06 	streq	r0, [r5, #-3590]	; 0xfffff1fa
    1b08:	13300632 	teqne	r0, #52428800	; 0x3200000
    1b0c:	010a0514 	tsteq	sl, r4, lsl r5
    1b10:	91080905 	tstls	r8, r5, lsl #18
    1b14:	01061005 	tsteq	r6, r5
    1b18:	059a0a05 	ldreq	r0, [sl, #2565]	; 0xa05
    1b1c:	0a056a10 	beq	15c364 <__bss_end__+0x15157c>
    1b20:	09052d06 	stmdbeq	r5, {r1, r2, r8, sl, fp, sp}
    1b24:	0610052f 	ldreq	r0, [r0], -pc, lsr #10
    1b28:	060a0501 	streq	r0, [sl], -r1, lsl #10
    1b2c:	bb09052d 	bllt	242fe8 <__bss_end__+0x238200>
    1b30:	01061005 	tsteq	r6, r5
    1b34:	65060a05 	strvs	r0, [r6, #-2565]	; 0xfffff5fb
    1b38:	054b0905 	strbeq	r0, [fp, #-2309]	; 0xfffff6fb
    1b3c:	0501060d 	streq	r0, [r1, #-1549]	; 0xfffff9f3
    1b40:	10052d0a 	andne	r2, r5, sl, lsl #26
    1b44:	060a052f 	streq	r0, [sl], -pc, lsr #10
    1b48:	2f09052d 	svccs	0x0009052d
    1b4c:	01060d05 	tsteq	r6, r5, lsl #26
    1b50:	052d0a05 	streq	r0, [sp, #-2565]!	; 0xfffff5fb
    1b54:	0a052f10 	beq	14d79c <__bss_end__+0x1429b4>
    1b58:	09052d06 	stmdbeq	r5, {r1, r2, r8, sl, fp, sp}
    1b5c:	060d052f 	streq	r0, [sp], -pc, lsr #10
    1b60:	2d0a0501 	cfstr32cs	mvfx0, [sl, #-4]
    1b64:	052f1005 	streq	r1, [pc, #-5]!	; 1b67 <__code_start__-0x6499>
    1b68:	052d060a 	streq	r0, [sp, #-1546]!	; 0xfffff9f6
    1b6c:	0d052f09 	stceq	15, cr2, [r5, #-36]	; 0xffffffdc
    1b70:	0a050106 	beq	141f90 <__bss_end__+0x1371a8>
    1b74:	2f10052d 	svccs	0x0010052d
    1b78:	2d060a05 	vstrcs	s0, [r6, #-20]	; 0xffffffec
    1b7c:	05130905 	ldreq	r0, [r3, #-2309]	; 0xfffff6fb
    1b80:	05010610 	streq	r0, [r1, #-1552]	; 0xfffff9f0
    1b84:	052d060a 	streq	r0, [sp, #-1546]!	; 0xfffff9f6
    1b88:	01321505 	teqeq	r2, r5, lsl #10
    1b8c:	05144a01 	ldreq	r4, [r4, #-2561]	; 0xfffff5ff
    1b90:	0a052f02 	beq	14d7a0 <__bss_end__+0x1429b8>
    1b94:	2e730306 	cdpcs	3, 7, cr0, cr3, cr6, {0}
    1b98:	01000802 	tsteq	r0, r2, lsl #16
    1b9c:	00007d01 	andeq	r7, r0, r1, lsl #26
    1ba0:	65000300 	strvs	r0, [r0, #-768]	; 0xfffffd00
    1ba4:	02000000 	andeq	r0, r0, #0, 0
    1ba8:	0d0efb01 	vstreq	d15, [lr, #-4]
    1bac:	01010100 	mrseq	r0, (UNDEF: 17)
    1bb0:	00000001 	andeq	r0, r0, r1
    1bb4:	01000001 	tsteq	r0, r1
    1bb8:	74732f2e 	ldrbtvc	r2, [r3], #-3886	; 0xfffff0d2
    1bbc:	2d666661 	stclcs	6, cr6, [r6, #-388]!	; 0xfffffe7c
    1bc0:	00637273 	rsbeq	r7, r3, r3, ror r2
    1bc4:	6573552f 	ldrbvs	r5, [r3, #-1327]!	; 0xfffffad1
    1bc8:	6d2f7372 	stcvs	3, cr7, [pc, #-456]!	; 1a08 <__code_start__-0x65f8>
    1bcc:	73656c69 	cmnvc	r5, #26880	; 0x6900
    1bd0:	756f532f 	strbvc	r5, [pc, #-815]!	; 18a9 <__code_start__-0x6757>
    1bd4:	2f656372 	svccs	0x00656372
    1bd8:	34327363 	ldrtcc	r7, [r2], #-867	; 0xfffffc9d
    1bdc:	2f786c30 	svccs	0x00786c30
    1be0:	7062696c 	rsbvc	r6, r2, ip, ror #18
    1be4:	6e692f69 	cdpvs	15, 6, cr2, cr9, cr9, {3}
    1be8:	64756c63 	ldrbtvs	r6, [r5], #-3171	; 0xfffff39d
    1bec:	63000065 	movwvs	r0, #101	; 0x65
    1bf0:	6f747375 	svcvs	0x00747375
    1bf4:	6f6c2d6d 	svcvs	0x006c2d6d
    1bf8:	72656461 	rsbvc	r6, r5, #1627389952	; 0x61000000
    1bfc:	0100632e 	tsteq	r0, lr, lsr #6
    1c00:	70720000 	rsbsvc	r0, r2, r0
    1c04:	00682e69 	rsbeq	r2, r8, r9, ror #28
    1c08:	00000002 	andeq	r0, r0, r2
    1c0c:	05001a05 	streq	r1, [r0, #-2565]	; 0xfffff5fb
    1c10:	00972402 	addseq	r2, r7, r2, lsl #8
    1c14:	01051500 	tsteq	r5, r0, lsl #10
    1c18:	00020214 	andeq	r0, r2, r4, lsl r2
    1c1c:	01140101 	tsteq	r4, r1, lsl #2
    1c20:	00030000 	andeq	r0, r3, r0
    1c24:	0000005e 	andeq	r0, r0, lr, asr r0
    1c28:	0efb0102 	cdpeq	1, 15, cr0, cr11, cr2, {0}
    1c2c:	0101000d 	tsteq	r1, sp
    1c30:	00000101 	andeq	r0, r0, r1, lsl #2
    1c34:	00000100 	andeq	r0, r0, r0, lsl #2
    1c38:	732f2e01 			; <UNDEFINED> instruction: 0x732f2e01
    1c3c:	66666174 			; <UNDEFINED> instruction: 0x66666174
    1c40:	6372732d 	cmnvs	r2, #-1275068416	; 0xb4000000
    1c44:	73552f00 	cmpvc	r5, #0, 30
    1c48:	2f737265 	svccs	0x00737265
    1c4c:	656c696d 	strbvs	r6, [ip, #-2413]!	; 0xfffff693
    1c50:	6f532f73 	svcvs	0x00532f73
    1c54:	65637275 	strbvs	r7, [r3, #-629]!	; 0xfffffd8b
    1c58:	3273632f 	rsbscc	r6, r3, #-1140850688	; 0xbc000000
    1c5c:	786c3034 	stmdavc	ip!, {r2, r4, r5, ip, sp}^
    1c60:	62696c2f 	rsbvs	r6, r9, #12032	; 0x2f00
    1c64:	692f6970 	stmdbvs	pc!, {r4, r5, r6, r8, fp, sp, lr}	; <UNPREDICTABLE>
    1c68:	756c636e 	strbvc	r6, [ip, #-878]!	; 0xfffffc92
    1c6c:	00006564 	andeq	r6, r0, r4, ror #10
    1c70:	6f626572 	svcvs	0x00626572
    1c74:	632e746f 			; <UNDEFINED> instruction: 0x632e746f
    1c78:	00000100 	andeq	r0, r0, r0, lsl #2
    1c7c:	2e697072 	mcrcs	0, 3, r7, cr9, cr2, {3}
    1c80:	00020068 	andeq	r0, r2, r8, rrx
    1c84:	19050000 	stmdbne	r5, {}	; <UNPREDICTABLE>
    1c88:	28020500 	stmdacs	r2, {r8, sl}
    1c8c:	03000097 	movweq	r0, #151	; 0x97
    1c90:	0505010d 	streq	r0, [r5, #-269]	; 0xfffffef3
    1c94:	05311313 	ldreq	r1, [r1, #-787]!	; 0xfffffced
    1c98:	05010613 	streq	r0, [r1, #-1555]	; 0xfffff9ed
    1c9c:	1b052f01 	blne	14d8a8 <__bss_end__+0x142ac0>
    1ca0:	05058506 	streq	r8, [r5, #-1286]	; 0xfffffafa
    1ca4:	09051413 	stmdbeq	r5, {r0, r1, r4, sl, ip}
    1ca8:	0616052f 	ldreq	r0, [r6], -pc, lsr #10
    1cac:	06050501 	streq	r0, [r5], -r1, lsl #10
    1cb0:	060e052f 	streq	r0, [lr], -pc, lsr #10
    1cb4:	2f050511 	svccs	0x00050511
    1cb8:	052f0105 	streq	r0, [pc, #-261]!	; 1bbb <__code_start__-0x6445>
    1cbc:	05300617 	ldreq	r0, [r0, #-1559]!	; 0xfffff9e9
    1cc0:	6e031305 	cdpvs	3, 0, cr1, cr3, cr5, {0}
    1cc4:	05131301 	ldreq	r1, [r3, #-769]	; 0xfffffcff
    1cc8:	0f030617 	svceq	0x00030617
    1ccc:	03050501 	movweq	r0, #21761	; 0x5501
    1cd0:	31062e71 	tstcc	r6, r1, ror lr
    1cd4:	01061305 	tsteq	r6, r5, lsl #6
    1cd8:	0d030705 	stceq	7, cr0, [r3, #-20]	; 0xffffffec
    1cdc:	0609052e 	streq	r0, [r9], -lr, lsr #10
    1ce0:	0306054b 	movweq	r0, #25931	; 0x654b
    1ce4:	05050176 	streq	r0, [r5, #-374]	; 0xfffffe8a
    1ce8:	09051413 	stmdbeq	r5, {r0, r1, r4, sl, ip}
    1cec:	0616052f 	ldreq	r0, [r6], -pc, lsr #10
    1cf0:	06050501 	streq	r0, [r5], -r1, lsl #10
    1cf4:	060e052f 	streq	r0, [lr], -pc, lsr #10
    1cf8:	2f050511 	svccs	0x00050511
    1cfc:	0a03062e 	beq	c35bc <__bss_end__+0xb87d4>
    1d00:	4d2f3001 	stcmi	0, cr3, [pc, #-4]!	; 1d04 <__code_start__-0x62fc>
    1d04:	15131313 	ldrne	r1, [r3, #-787]	; 0xfffffced
    1d08:	04020067 	streq	r0, [r2], #-103	; 0xffffff99
    1d0c:	0d056701 	stceq	7, cr6, [r5, #-4]
    1d10:	01040200 	mrseq	r0, R12_usr
    1d14:	000a0501 	andeq	r0, sl, r1, lsl #10
    1d18:	01010402 	tsteq	r1, r2, lsl #8
    1d1c:	02000505 	andeq	r0, r0, #20971520	; 0x1400000
    1d20:	05010104 	streq	r0, [r1, #-260]	; 0xfffffefc
    1d24:	0402000d 	streq	r0, [r2], #-13
    1d28:	0a050101 	beq	142134 <__bss_end__+0x13734c>
    1d2c:	01040200 	mrseq	r0, R12_usr
    1d30:	000a0201 	andeq	r0, sl, r1, lsl #4
    1d34:	01fa0101 	mvnseq	r0, r1, lsl #2
    1d38:	00030000 	andeq	r0, r3, r0
    1d3c:	0000005d 	andeq	r0, r0, sp, asr r0
    1d40:	0efb0102 	cdpeq	1, 15, cr0, cr11, cr2, {0}
    1d44:	0101000d 	tsteq	r1, sp
    1d48:	00000101 	andeq	r0, r0, r1, lsl #2
    1d4c:	00000100 	andeq	r0, r0, r0, lsl #2
    1d50:	732f2e01 			; <UNDEFINED> instruction: 0x732f2e01
    1d54:	66666174 			; <UNDEFINED> instruction: 0x66666174
    1d58:	6372732d 	cmnvs	r2, #-1275068416	; 0xb4000000
    1d5c:	73552f00 	cmpvc	r5, #0, 30
    1d60:	2f737265 	svccs	0x00737265
    1d64:	656c696d 	strbvs	r6, [ip, #-2413]!	; 0xfffff693
    1d68:	6f532f73 	svcvs	0x00532f73
    1d6c:	65637275 	strbvs	r7, [r3, #-629]!	; 0xfffffd8b
    1d70:	3273632f 	rsbscc	r6, r3, #-1140850688	; 0xbc000000
    1d74:	786c3034 	stmdavc	ip!, {r2, r4, r5, ip, sp}^
    1d78:	62696c2f 	rsbvs	r6, r9, #12032	; 0x2f00
    1d7c:	692f6970 	stmdbvs	pc!, {r4, r5, r6, r8, fp, sp, lr}	; <UNPREDICTABLE>
    1d80:	756c636e 	strbvc	r6, [ip, #-878]!	; 0xfffffc92
    1d84:	00006564 	andeq	r6, r0, r4, ror #10
    1d88:	656d6974 	strbvs	r6, [sp, #-2420]!	; 0xfffff68c
    1d8c:	00632e72 	rsbeq	r2, r3, r2, ror lr
    1d90:	72000001 	andvc	r0, r0, #1, 0
    1d94:	682e6970 	stmdavs	lr!, {r4, r5, r6, r8, fp, sp, lr}
    1d98:	00000200 	andeq	r0, r0, r0, lsl #4
    1d9c:	00230500 	eoreq	r0, r3, r0, lsl #10
    1da0:	97b40205 	ldrls	r0, [r4, r5, lsl #4]!
    1da4:	05150000 	ldreq	r0, [r5, #-0]
    1da8:	0c051305 	stceq	3, cr1, [r5], {5}
    1dac:	1f050106 	svcne	0x00050106
    1db0:	05056a06 	streq	r6, [r5, #-2566]	; 0xfffff5fa
    1db4:	061f0515 			; <UNDEFINED> instruction: 0x061f0515
    1db8:	3105050f 	tstcc	r5, pc, lsl #10
    1dbc:	0a052f06 	beq	14d9dc <__bss_end__+0x142bf4>
    1dc0:	05017703 	streq	r7, [r1, #-1795]	; 0xfffff8fd
    1dc4:	0c051305 	stceq	3, cr1, [r5], {5}
    1dc8:	05660106 	strbeq	r0, [r6, #-262]!	; 0xfffffefa
    1dcc:	09030605 	stmdbeq	r3, {r0, r2, r9, sl}
    1dd0:	01052f01 	tsteq	r5, r1, lsl #30
    1dd4:	1c051306 	stcne	3, cr1, [r5], {6}
    1dd8:	05056806 	streq	r6, [r5, #-2054]	; 0xfffff7fa
    1ddc:	030a0513 	movweq	r0, #42259	; 0xa513
    1de0:	05050176 	streq	r0, [r5, #-374]	; 0xfffffe8a
    1de4:	061c0515 			; <UNDEFINED> instruction: 0x061c0515
    1de8:	05052e18 	streq	r2, [r5, #-3608]	; 0xfffff1e8
    1dec:	062e7a03 	strteq	r7, [lr], -r3, lsl #20
    1df0:	030a052f 	movweq	r0, #42287	; 0xa52f
    1df4:	05050177 	streq	r0, [r5, #-375]	; 0xfffffe89
    1df8:	060c0513 			; <UNDEFINED> instruction: 0x060c0513
    1dfc:	05056601 	streq	r6, [r5, #-1537]	; 0xfffff9ff
    1e00:	01090306 	tsteq	r9, r6, lsl #6
    1e04:	0501062f 	streq	r0, [r1, #-1583]	; 0xfffff9d1
    1e08:	0176030c 	cmneq	r6, ip, lsl #6
    1e0c:	03060505 	movweq	r0, #25861	; 0x6505
    1e10:	09052e0f 	stmdbeq	r5, {r0, r1, r2, r3, r9, sl, fp, sp}
    1e14:	030a0513 	movweq	r0, #42259	; 0xa513
    1e18:	05050174 	streq	r0, [r5, #-372]	; 0xfffffe8c
    1e1c:	0a052f15 	beq	14da78 <__bss_end__+0x142c90>
    1e20:	05017703 	streq	r7, [r1, #-1795]	; 0xfffff8fd
    1e24:	0c051305 	stceq	3, cr1, [r5], {5}
    1e28:	05660106 	strbeq	r0, [r6, #-262]!	; 0xfffffefa
    1e2c:	09030605 	stmdbeq	r3, {r0, r2, r9, sl}
    1e30:	06110501 	ldreq	r0, [r1], -r1, lsl #10
    1e34:	0305051a 	movweq	r0, #21786	; 0x551a
    1e38:	2f062e78 	svccs	0x00062e78
    1e3c:	05190905 	ldreq	r0, [r9, #-2309]	; 0xfffff6fb
    1e40:	0501060c 	streq	r0, [r1, #-1548]	; 0xfffff9f4
    1e44:	0587061c 	streq	r0, [r7, #1564]	; 0x61c
    1e48:	1c051305 	stcne	3, cr1, [r5], {5}
    1e4c:	05051106 	streq	r1, [r5, #-262]	; 0xfffffefa
    1e50:	06054a2f 	streq	r4, [r5], -pc, lsr #20
    1e54:	2e760306 	cdpcs	3, 7, cr0, cr6, cr6, {0}
    1e58:	05130505 	ldreq	r0, [r3, #-1285]	; 0xfffffafb
    1e5c:	0176030a 	cmneq	r6, sl, lsl #6
    1e60:	2f150505 	svccs	0x00150505
    1e64:	77030a05 	strvc	r0, [r3, -r5, lsl #20]
    1e68:	13050501 	movwne	r0, #21761	; 0x5501
    1e6c:	01060c05 	tsteq	r6, r5, lsl #24
    1e70:	06050566 	streq	r0, [r5], -r6, ror #10
    1e74:	2f010903 	svccs	0x00010903
    1e78:	0c050106 	stfeqs	f0, [r5], {6}
    1e7c:	05017603 	streq	r7, [r1, #-1539]	; 0xfffff9fd
    1e80:	0f030605 	svceq	0x00030605
    1e84:	1309052e 	movwne	r0, #38190	; 0x952e
    1e88:	74030a05 	strvc	r0, [r3], #-2565	; 0xfffff5fb
    1e8c:	15050501 	strne	r0, [r5, #-1281]	; 0xfffffaff
    1e90:	030a052f 	movweq	r0, #42287	; 0xa52f
    1e94:	05050177 	streq	r0, [r5, #-375]	; 0xfffffe89
    1e98:	060c0513 			; <UNDEFINED> instruction: 0x060c0513
    1e9c:	05056601 	streq	r6, [r5, #-1537]	; 0xfffff9ff
    1ea0:	01090306 	tsteq	r9, r6, lsl #6
    1ea4:	1a061105 	bne	1862c0 <__bss_end__+0x17b4d8>
    1ea8:	78030505 	stmdavc	r3, {r0, r2, r8, sl}
    1eac:	052f062e 	streq	r0, [pc, #-1582]!	; 1886 <__code_start__-0x677a>
    1eb0:	0c051909 			; <UNDEFINED> instruction: 0x0c051909
    1eb4:	1e050106 	adfnes	f0, f5, f6
    1eb8:	05058a06 	streq	r8, [r5, #-2566]	; 0xfffff5fa
    1ebc:	0e060513 	mcreq	5, 0, r0, cr6, cr3, {0}
    1ec0:	05130505 	ldreq	r0, [r3, #-1285]	; 0xfffffafb
    1ec4:	0514061e 	ldreq	r0, [r4, #-1566]	; 0xfffff9e2
    1ec8:	05662c05 	strbeq	r2, [r6, #-3077]!	; 0xfffff3fb
    1ecc:	76030606 	strvc	r0, [r3], -r6, lsl #12
    1ed0:	1305052e 	movwne	r0, #21806	; 0x552e
    1ed4:	76030a05 	strvc	r0, [r3], -r5, lsl #20
    1ed8:	15050501 	strne	r0, [r5, #-1281]	; 0xfffffaff
    1edc:	030a052f 	movweq	r0, #42287	; 0xa52f
    1ee0:	05050177 	streq	r0, [r5, #-375]	; 0xfffffe89
    1ee4:	060c0513 			; <UNDEFINED> instruction: 0x060c0513
    1ee8:	05056601 	streq	r6, [r5, #-1537]	; 0xfffff9ff
    1eec:	01090306 	tsteq	r9, r6, lsl #6
    1ef0:	0501062f 	streq	r0, [r1, #-1583]	; 0xfffff9d1
    1ef4:	0176030c 	cmneq	r6, ip, lsl #6
    1ef8:	03060505 	movweq	r0, #25861	; 0x6505
    1efc:	09052e0f 	stmdbeq	r5, {r0, r1, r2, r3, r9, sl, fp, sp}
    1f00:	030a0513 	movweq	r0, #42259	; 0xa513
    1f04:	05050174 	streq	r0, [r5, #-372]	; 0xfffffe8c
    1f08:	0a052f15 	beq	14db64 <__bss_end__+0x142d7c>
    1f0c:	05017703 	streq	r7, [r1, #-1795]	; 0xfffff8fd
    1f10:	0c051305 	stceq	3, cr1, [r5], {5}
    1f14:	05660106 	strbeq	r0, [r6, #-262]!	; 0xfffffefa
    1f18:	09030605 	stmdbeq	r3, {r0, r2, r9, sl}
    1f1c:	06110501 	ldreq	r0, [r1], -r1, lsl #10
    1f20:	0305051a 	movweq	r0, #21786	; 0x551a
    1f24:	2f062e78 	svccs	0x00062e78
    1f28:	05190905 	ldreq	r0, [r9, #-2309]	; 0xfffff6fb
    1f2c:	0201060c 	andeq	r0, r1, #12, 12	; 0xc00000
    1f30:	01010008 	tsteq	r1, r8
    1f34:	00000204 	andeq	r0, r0, r4, lsl #4
    1f38:	00c80003 	sbceq	r0, r8, r3
    1f3c:	01020000 	mrseq	r0, (UNDEF: 2)
    1f40:	000d0efb 	strdeq	r0, [sp], -fp
    1f44:	01010101 	tsteq	r1, r1, lsl #2
    1f48:	01000000 	mrseq	r0, (UNDEF: 0)
    1f4c:	2f010000 	svccs	0x00010000
    1f50:	656d6f68 	strbvs	r6, [sp, #-3944]!	; 0xfffff098
    1f54:	676e652f 	strbvs	r6, [lr, -pc, lsr #10]!
    1f58:	2f72656c 	svccs	0x0072656c
    1f5c:	73616c63 	cmnvc	r1, #25344	; 0x6300
    1f60:	73632f73 	cmnvc	r3, #460	; 0x1cc
    1f64:	65303431 	ldrvs	r3, [r0, #-1073]!	; 0xfffffbcf
    1f68:	7732322d 	ldrvc	r3, [r2, -sp, lsr #4]!
    1f6c:	2f2f6e69 	svccs	0x002f6e69
    1f70:	7062696c 	rsbvc	r6, r2, ip, ror #18
    1f74:	6e692f69 	cdpvs	15, 6, cr2, cr9, cr9, {3}
    1f78:	64756c63 	ldrbtvs	r6, [r5], #-3171	; 0xfffff39d
    1f7c:	752f0065 	strvc	r0, [pc, #-101]!	; 1f1f <__code_start__-0x60e1>
    1f80:	732f7273 			; <UNDEFINED> instruction: 0x732f7273
    1f84:	65726168 	ldrbvs	r6, [r2, #-360]!	; 0xfffffe98
    1f88:	6363672f 	cmnvs	r3, #12320768	; 0xbc0000
    1f8c:	6d72612d 	ldfvse	f6, [r2, #-180]!	; 0xffffff4c
    1f90:	6e6f6e2d 	cdpvs	14, 6, cr6, cr15, cr13, {1}
    1f94:	61652d65 	cmnvs	r5, r5, ror #26
    1f98:	312d6962 			; <UNDEFINED> instruction: 0x312d6962
    1f9c:	2d332e30 	ldccs	14, cr2, [r3, #-192]!	; 0xffffff40
    1fa0:	31323032 	teqcc	r2, r2, lsr r0
    1fa4:	2f30312e 	svccs	0x0030312e
    1fa8:	2f62696c 	svccs	0x0062696c
    1fac:	2f636367 	svccs	0x00636367
    1fb0:	2d6d7261 	sfmcs	f7, 2, [sp, #-388]!	; 0xfffffe7c
    1fb4:	656e6f6e 	strbvs	r6, [lr, #-3950]!	; 0xfffff092
    1fb8:	6261652d 	rsbvs	r6, r1, #188743680	; 0xb400000
    1fbc:	30312f69 	eorscc	r2, r1, r9, ror #30
    1fc0:	312e332e 			; <UNDEFINED> instruction: 0x312e332e
    1fc4:	636e692f 	cmnvs	lr, #770048	; 0xbc000
    1fc8:	6564756c 	strbvs	r7, [r4, #-1388]!	; 0xfffffa94
    1fcc:	61750000 	cmnvs	r5, r0
    1fd0:	632e7472 			; <UNDEFINED> instruction: 0x632e7472
    1fd4:	00000000 	andeq	r0, r0, r0
    1fd8:	74726175 	ldrbtvc	r6, [r2], #-373	; 0xfffffe8b
    1fdc:	0100682e 	tsteq	r0, lr, lsr #16
    1fe0:	70720000 	rsbsvc	r0, r2, r0
    1fe4:	00682e69 	rsbeq	r2, r8, r9, ror #28
    1fe8:	67000001 	strvs	r0, [r0, -r1]
    1fec:	2e6f6970 			; <UNDEFINED> instruction: 0x2e6f6970
    1ff0:	00010068 	andeq	r0, r1, r8, rrx
    1ff4:	64747300 	ldrbtvs	r7, [r4], #-768	; 0xfffffd00
    1ff8:	2d746e69 	ldclcs	14, cr6, [r4, #-420]!	; 0xfffffe5c
    1ffc:	2e636367 	cdpcs	3, 6, cr6, cr3, cr7, {3}
    2000:	00020068 	andeq	r0, r2, r8, rrx
    2004:	39050000 	stmdbcc	r5, {}	; <UNPREDICTABLE>
    2008:	d0020500 	andle	r0, r2, r0, lsl #10
    200c:	03000098 	movweq	r0, #152	; 0x98
    2010:	01060130 	tsteq	r6, r0, lsr r1
    2014:	67060505 	strvs	r0, [r6, -r5, lsl #10]
    2018:	01061105 	tsteq	r6, r5, lsl #2
    201c:	052e0505 	streq	r0, [lr, #-1285]!	; 0xfffffafb
    2020:	38056701 	stmdacc	r5, {r0, r8, r9, sl, sp, lr}
    2024:	01062906 	tsteq	r6, r6, lsl #18
    2028:	67060505 	strvs	r0, [r6, -r5, lsl #10]
    202c:	01061105 	tsteq	r6, r5, lsl #2
    2030:	052e0505 	streq	r0, [lr, #-1285]!	; 0xfffffafb
    2034:	16056701 	strne	r6, [r5], -r1, lsl #14
    2038:	2e150306 	cdpcs	3, 1, cr0, cr5, cr6, {0}
    203c:	67350505 	ldrvs	r0, [r5, -r5, lsl #10]!
    2040:	03683568 	cmneq	r8, #104, 10	; 0x1a000000
    2044:	6b852e0c 	blvs	fe14d87c <__bss_end__+0xfe142a94>
    2048:	0c036969 			; <UNDEFINED> instruction: 0x0c036969
    204c:	676b1366 	strbvs	r1, [fp, -r6, ror #6]!
    2050:	2f060105 	svccs	0x00060105
    2054:	08061905 	stmdaeq	r6, {r0, r2, r8, fp, ip}
    2058:	34050525 	strcc	r0, [r5], #-1317	; 0xfffffadb
    205c:	01060d05 	tsteq	r6, r5, lsl #26
    2060:	054c0105 	strbeq	r0, [ip, #-261]	; 0xfffffefb
    2064:	05670619 	strbeq	r0, [r7, #-1561]!	; 0xfffff9e7
    2068:	0d053605 	stceq	6, cr3, [r5, #-20]	; 0xffffffec
    206c:	28050106 	stmdacs	r5, {r1, r2, r8}
    2070:	3001054a 	andcc	r0, r1, sl, asr #10
    2074:	87061505 	strhi	r1, [r6, -r5, lsl #10]
    2078:	2f2f0505 	svccs	0x002f0505
    207c:	02000905 	andeq	r0, r0, #81920	; 0x14000
    2080:	05130104 	ldreq	r0, [r3, #-260]	; 0xfffffefc
    2084:	0402000a 	streq	r0, [r2], #-10
    2088:	0c051101 	stfeqs	f1, [r5], {1}
    208c:	01040200 	mrseq	r0, R12_usr
    2090:	0a050106 	beq	1424b0 <__bss_end__+0x1376c8>
    2094:	01040200 	mrseq	r0, R12_usr
    2098:	0605052e 	streq	r0, [r5], -lr, lsr #10
    209c:	060e054c 	streq	r0, [lr], -ip, asr #10
    20a0:	4a090501 	bmi	2434ac <__bss_end__+0x2386c4>
    20a4:	2f060505 	svccs	0x00060505
    20a8:	0601052f 	streq	r0, [r1], -pc, lsr #10
    20ac:	061c0513 			; <UNDEFINED> instruction: 0x061c0513
    20b0:	05010667 	streq	r0, [r1, #-1639]	; 0xfffff999
    20b4:	2f4b0605 	svccs	0x004b0605
    20b8:	02000905 	andeq	r0, r0, #81920	; 0x14000
    20bc:	05130104 	ldreq	r0, [r3, #-260]	; 0xfffffefc
    20c0:	0402000a 	streq	r0, [r2], #-10
    20c4:	0c051101 	stfeqs	f1, [r5], {1}
    20c8:	01040200 	mrseq	r0, R12_usr
    20cc:	0a050106 	beq	1424ec <__bss_end__+0x137704>
    20d0:	01040200 	mrseq	r0, R12_usr
    20d4:	0605052e 	streq	r0, [r5], -lr, lsr #10
    20d8:	0105674c 	tsteq	r5, ip, asr #14
    20dc:	19052f06 	stmdbne	r5, {r1, r2, r8, r9, sl, fp, sp}
    20e0:	1b054c06 	blne	155100 <__bss_end__+0x14a318>
    20e4:	2e2a052e 	cfsh64cs	mvdx0, mvdx10, #30
    20e8:	01063105 	tsteq	r6, r5, lsl #2
    20ec:	052e4205 	streq	r4, [lr, #-517]!	; 0xfffffdfb
    20f0:	0531061c 	ldreq	r0, [r1, #-1564]!	; 0xfffff9e4
    20f4:	09032f05 	stmdbeq	r3, {r0, r2, r8, r9, sl, fp, sp}
    20f8:	060e052e 	streq	r0, [lr], -lr, lsr #10
    20fc:	4a210501 	bmi	843508 <__bss_end__+0x838720>
    2100:	0a030105 	beq	c251c <__bss_end__+0xb7734>
    2104:	061a052e 	ldreq	r0, [sl], -lr, lsr #10
    2108:	00090568 	andeq	r0, r9, r8, ror #10
    210c:	30010402 	andcc	r0, r1, r2, lsl #8
    2110:	02000a05 	andeq	r0, r0, #20480	; 0x5000
    2114:	05110104 	ldreq	r0, [r1, #-260]	; 0xfffffefc
    2118:	0402000c 	streq	r0, [r2], #-12
    211c:	05010601 	streq	r0, [r1, #-1537]	; 0xfffff9ff
    2120:	0402000a 	streq	r0, [r2], #-10
    2124:	19052e01 	stmdbne	r5, {r0, r9, sl, fp, sp}
    2128:	7ee80306 	cdpvc	3, 14, cr0, cr8, cr6, {0}
    212c:	2f050566 	svccs	0x00050566
    2130:	05672f2f 	strbeq	r2, [r7, #-3887]!	; 0xfffff0d1
    2134:	022f0601 	eoreq	r0, pc, #1048576	; 0x100000
    2138:	01010004 	tsteq	r1, r4
    213c:	00000392 	muleq	r0, r2, r3
    2140:	00b70003 	adcseq	r0, r7, r3
    2144:	01020000 	mrseq	r0, (UNDEF: 2)
    2148:	000d0efb 	strdeq	r0, [sp], -fp
    214c:	01010101 	tsteq	r1, r1, lsl #2
    2150:	01000000 	mrseq	r0, (UNDEF: 0)
    2154:	2f010000 	svccs	0x00010000
    2158:	656d6f68 	strbvs	r6, [sp, #-3944]!	; 0xfffff098
    215c:	676e652f 	strbvs	r6, [lr, -pc, lsr #10]!
    2160:	2f72656c 	svccs	0x0072656c
    2164:	73616c63 	cmnvc	r1, #25344	; 0x6300
    2168:	73632f73 	cmnvc	r3, #460	; 0x1cc
    216c:	65303431 	ldrvs	r3, [r0, #-1073]!	; 0xfffffbcf
    2170:	7732322d 	ldrvc	r3, [r2, -sp, lsr #4]!
    2174:	2f2f6e69 	svccs	0x002f6e69
    2178:	7062696c 	rsbvc	r6, r2, ip, ror #18
    217c:	6e692f69 	cdpvs	15, 6, cr2, cr9, cr9, {3}
    2180:	64756c63 	ldrbtvs	r6, [r5], #-3171	; 0xfffff39d
    2184:	752f0065 	strvc	r0, [pc, #-101]!	; 2127 <__code_start__-0x5ed9>
    2188:	732f7273 			; <UNDEFINED> instruction: 0x732f7273
    218c:	65726168 	ldrbvs	r6, [r2, #-360]!	; 0xfffffe98
    2190:	6363672f 	cmnvs	r3, #12320768	; 0xbc0000
    2194:	6d72612d 	ldfvse	f6, [r2, #-180]!	; 0xffffff4c
    2198:	6e6f6e2d 	cdpvs	14, 6, cr6, cr15, cr13, {1}
    219c:	61652d65 	cmnvs	r5, r5, ror #26
    21a0:	312d6962 			; <UNDEFINED> instruction: 0x312d6962
    21a4:	2d332e30 	ldccs	14, cr2, [r3, #-192]!	; 0xffffff40
    21a8:	31323032 	teqcc	r2, r2, lsr r0
    21ac:	2f30312e 	svccs	0x0030312e
    21b0:	2f62696c 	svccs	0x0062696c
    21b4:	2f636367 	svccs	0x00636367
    21b8:	2d6d7261 	sfmcs	f7, 2, [sp, #-388]!	; 0xfffffe7c
    21bc:	656e6f6e 	strbvs	r6, [lr, #-3950]!	; 0xfffff092
    21c0:	6261652d 	rsbvs	r6, r1, #188743680	; 0xb400000
    21c4:	30312f69 	eorscc	r2, r1, r9, ror #30
    21c8:	312e332e 			; <UNDEFINED> instruction: 0x312e332e
    21cc:	636e692f 	cmnvs	lr, #770048	; 0xbc000
    21d0:	6564756c 	strbvs	r7, [r4, #-1388]!	; 0xfffffa94
    21d4:	6d6b0000 	stclvs	0, cr0, [fp, #-0]
    21d8:	6f6c6c61 	svcvs	0x006c6c61
    21dc:	00632e63 	rsbeq	r2, r3, r3, ror #28
    21e0:	72000000 	andvc	r0, r0, #0, 0
    21e4:	682e6970 	stmdavs	lr!, {r4, r5, r6, r8, fp, sp, lr}
    21e8:	00000100 	andeq	r0, r0, r0, lsl #2
    21ec:	69647473 	stmdbvs	r4!, {r0, r1, r4, r5, r6, sl, ip, sp, lr}^
    21f0:	672d746e 	strvs	r7, [sp, -lr, ror #8]!
    21f4:	682e6363 	stmdavs	lr!, {r0, r1, r5, r6, r8, r9, sp, lr}
    21f8:	00000200 	andeq	r0, r0, r0, lsl #4
    21fc:	001e0500 	andseq	r0, lr, r0, lsl #10
    2200:	9ac00205 	bls	ff002a1c <__bss_end__+0xfeff7c34>
    2204:	27030000 	strcs	r0, [r3, -r0]
    2208:	01200501 			; <UNDEFINED> instruction: 0x01200501
    220c:	01062d05 	tsteq	r6, r5, lsl #26
    2210:	83062005 	movwhi	r2, #24581	; 0x6005
    2214:	05012205 	streq	r2, [r1, #-517]	; 0xfffffdfb
    2218:	05010635 	streq	r0, [r1, #-1589]	; 0xfffff9cb
    221c:	0583061e 	streq	r0, [r3, #1566]	; 0x61e
    2220:	2d050120 	stfcss	f0, [r5, #-128]	; 0xffffff80
    2224:	42050106 	andmi	r0, r5, #-2147483647	; 0x80000001
    2228:	01068506 	tsteq	r6, r6, lsl #10
    222c:	4b060505 	blmi	183648 <__bss_end__+0x178860>
    2230:	2e060114 	mcrcs	1, 0, r0, cr6, cr4, {0}
    2234:	02040200 	andeq	r0, r4, #0, 4
    2238:	02002e06 	andeq	r2, r0, #96	; 0x60
    223c:	00010204 	andeq	r0, r1, r4, lsl #4
    2240:	15020402 	strne	r0, [r2, #-1026]	; 0xfffffbfe
    2244:	02000d05 	andeq	r0, r0, #320	; 0x140
    2248:	01060204 	tsteq	r6, r4, lsl #4
    224c:	02000705 	andeq	r0, r0, #1310720	; 0x140000
    2250:	054a0204 	strbeq	r0, [sl, #-516]	; 0xfffffdfc
    2254:	054b0609 	strbeq	r0, [fp, #-1545]	; 0xfffff9f7
    2258:	17051505 	strne	r1, [r5, -r5, lsl #10]
    225c:	10050106 	andne	r0, r5, r6, lsl #2
    2260:	0605054a 	streq	r0, [r5], -sl, asr #10
    2264:	061b052f 	ldreq	r0, [fp], -pc, lsr #10
    2268:	2e0e0501 	cfsh32cs	mvfx0, mvfx14, #1
    226c:	052f0105 	streq	r0, [pc, #-261]!	; 216f <__code_start__-0x5e91>
    2270:	04020005 	streq	r0, [r2], #-5
    2274:	77030601 	strvc	r0, [r3, -r1, lsl #12]
    2278:	0402004a 	streq	r0, [r2], #-74	; 0xffffffb6
    227c:	02000101 	andeq	r0, r0, #1073741824	; 0x40000000
    2280:	9e060104 	adflss	f0, f6, f4
    2284:	01040200 	mrseq	r0, R12_usr
    2288:	0402002e 	streq	r0, [r2], #-46	; 0xffffffd2
    228c:	052e0601 	streq	r0, [lr, #-1537]!	; 0xfffff9ff
    2290:	06013209 	streq	r3, [r1], -r9, lsl #4
    2294:	2e062ed6 	mcrcs	14, 0, r2, cr6, cr6, {6}
    2298:	05de1905 	ldrbeq	r1, [lr, #2309]	; 0x905
    229c:	05142f05 	ldreq	r2, [r4, #-3845]	; 0xfffff0fb
    22a0:	05010608 	streq	r0, [r1, #-1544]	; 0xfffff9f8
    22a4:	09054a07 	stmdbeq	r5, {r0, r1, r2, r9, fp, lr}
    22a8:	05054b06 	streq	r4, [r5, #-2822]	; 0xfffff4fa
    22ac:	060c0513 			; <UNDEFINED> instruction: 0x060c0513
    22b0:	06050501 	streq	r0, [r5], -r1, lsl #10
    22b4:	01051367 	tsteq	r5, r7, ror #6
    22b8:	09056706 	stmdbeq	r5, {r1, r2, r8, r9, sl, sp, lr}
    22bc:	9e012a06 	vmlals.f32	s4, s2, s12
    22c0:	06a52805 	strteq	r2, [r5], r5, lsl #16
    22c4:	06050501 	streq	r0, [r5], -r1, lsl #10
    22c8:	2e06014b 	adfcssm	f0, f6, #3.0
    22cc:	13012e06 	movwne	r2, #7686	; 0x1e06
    22d0:	47031805 	strmi	r1, [r3, -r5, lsl #16]
    22d4:	13050501 	movwne	r0, #21761	; 0x5501
    22d8:	06010601 	streq	r0, [r1], -r1, lsl #12
    22dc:	1301150f 	movwne	r1, #5391	; 0x150f
    22e0:	01060e05 	tsteq	r6, r5, lsl #28
    22e4:	2e2e1605 	cfmadda32cs	mvax0, mvax1, mvfx14, mvfx5
    22e8:	03060505 	movweq	r0, #25861	; 0x6505
    22ec:	0b050139 	bleq	1427d8 <__bss_end__+0x1379f0>
    22f0:	05050106 	streq	r0, [r5, #-262]	; 0xfffffefa
    22f4:	0a054b06 	beq	154f14 <__bss_end__+0x14a12c>
    22f8:	05050106 	streq	r0, [r5, #-262]	; 0xfffffefa
    22fc:	0d054b06 	vstreq	d4, [r5, #-24]	; 0xffffffe8
    2300:	07050106 	streq	r0, [r5, -r6, lsl #2]
    2304:	4d01052e 	cfstr32mi	mvfx0, [r1, #-184]	; 0xffffff48
    2308:	02000505 	andeq	r0, r0, #20971520	; 0x1400000
    230c:	03060104 	movweq	r0, #24836	; 0x6104
    2310:	02004a78 	andeq	r4, r0, #120, 20	; 0x78000
    2314:	00010104 	andeq	r0, r1, r4, lsl #2
    2318:	06010402 	streq	r0, [r1], -r2, lsl #8
    231c:	040200ba 	streq	r0, [r2], #-186	; 0xffffff46
    2320:	052e0601 	streq	r0, [lr, #-1537]!	; 0xfffff9ff
    2324:	06013409 	streq	r3, [r1], -r9, lsl #8
    2328:	2e066682 	cfmadd32cs	mvax4, mvfx6, mvfx6, mvfx2
    232c:	06db2005 	ldrbeq	r2, [fp], r5
    2330:	06050501 	streq	r0, [r5], -r1, lsl #10
    2334:	0200014b 	andeq	r0, r0, #-1073741806	; 0xc0000012
    2338:	004a0204 	subeq	r0, sl, r4, lsl #4
    233c:	01020402 	tsteq	r2, r2, lsl #8
    2340:	02040200 	andeq	r0, r4, #0, 4
    2344:	00120513 	andseq	r0, r2, r3, lsl r5
    2348:	06020402 	streq	r0, [r2], -r2, lsl #8
    234c:	04020001 	streq	r0, [r2], #-1
    2350:	02002e02 	andeq	r2, r0, #2, 28
    2354:	052e0204 	streq	r0, [lr, #-516]!	; 0xfffffdfc
    2358:	04020005 	streq	r0, [r2], #-5
    235c:	002f0602 	eoreq	r0, pc, r2, lsl #12
    2360:	67020402 	strvs	r0, [r2, -r2, lsl #8]
    2364:	02000105 	andeq	r0, r0, #1073741825	; 0x40000001
    2368:	13060204 	movwne	r0, #25092	; 0x6204
    236c:	02000505 	andeq	r0, r0, #20971520	; 0x1400000
    2370:	62060104 	andvs	r0, r6, #1
    2374:	01040200 	mrseq	r0, R12_usr
    2378:	04020001 	streq	r0, [r2], #-1
    237c:	00ba0601 	adcseq	r0, sl, r1, lsl #12
    2380:	06010402 	streq	r0, [r1], -r2, lsl #8
    2384:	033c052e 	teqeq	ip, #192937984	; 0xb800000
    2388:	01069e0a 	tsteq	r6, sl, lsl #28
    238c:	4b060505 	blmi	1837a8 <__bss_end__+0x1789c0>
    2390:	062e0601 	strteq	r0, [lr], -r1, lsl #12
    2394:	0113012e 	tsteq	r3, lr, lsr #2
    2398:	ad031805 	stcge	8, cr1, [r3, #-20]	; 0xffffffec
    239c:	0505017f 	streq	r0, [r5, #-383]	; 0xfffffe81
    23a0:	06110513 			; <UNDEFINED> instruction: 0x06110513
    23a4:	05052e01 	streq	r2, [r5, #-3585]	; 0xfffff1ff
    23a8:	0100d203 	tsteq	r0, r3, lsl #4
    23ac:	05134a06 	ldreq	r4, [r3, #-2566]	; 0xfffff5fa
    23b0:	7fa30318 	svcvc	0x00a30318
    23b4:	13050501 	movwne	r0, #21761	; 0x5501
    23b8:	01061605 	tsteq	r6, r5, lsl #12
    23bc:	0605054a 	streq	r0, [r5], -sl, asr #10
    23c0:	0100e103 	tsteq	r0, r3, lsl #2
    23c4:	01061205 	tsteq	r6, r5, lsl #4
    23c8:	4b060505 	blmi	1837e4 <__bss_end__+0x1789fc>
    23cc:	a9031805 	stmdbge	r3, {r0, r2, fp, ip}
    23d0:	0505017f 	streq	r0, [r5, #-383]	; 0xfffffe81
    23d4:	18050113 	stmdane	r5, {r0, r1, r4, r8}
    23d8:	1305050e 	movwne	r0, #21774	; 0x550e
    23dc:	01061105 	tsteq	r6, r5, lsl #2
    23e0:	1505052e 	strne	r0, [r5, #-1326]	; 0xfffffad2
    23e4:	13014a06 	movwne	r4, #6662	; 0x1a06
    23e8:	01060e05 	tsteq	r6, r5, lsl #28
    23ec:	2e16052e 	cfmul64cs	mvdx0, mvdx6, mvdx14
    23f0:	0605052e 	streq	r0, [r5], -lr, lsr #10
    23f4:	0100d603 	tsteq	r0, r3, lsl #12
    23f8:	03180501 	tsteq	r8, #4194304	; 0x400000
    23fc:	05017f9f 	streq	r7, [r1, #-3999]	; 0xfffff061
    2400:	19051305 	stmdbne	r5, {r0, r2, r8, r9, ip}
    2404:	052e0106 	streq	r0, [lr, #-262]!	; 0xfffffefa
    2408:	00e00305 	rsceq	r0, r0, r5, lsl #6
    240c:	04020001 	streq	r0, [r2], #-1
    2410:	004a0602 	subeq	r0, sl, r2, lsl #12
    2414:	14020402 	strne	r0, [r2], #-1026	; 0xfffffbfe
    2418:	02000a05 	andeq	r0, r0, #20480	; 0x5000
    241c:	01060204 	tsteq	r6, r4, lsl #4
    2420:	02000505 	andeq	r0, r0, #20971520	; 0x1400000
    2424:	4b060204 	blmi	182c3c <__bss_end__+0x177e54>
    2428:	02000c05 	andeq	r0, r0, #1280	; 0x500
    242c:	01060204 	tsteq	r6, r4, lsl #4
    2430:	02000105 	andeq	r0, r0, #1073741825	; 0x40000001
    2434:	052f0204 	streq	r0, [pc, #-516]!	; 2238 <__code_start__-0x5dc8>
    2438:	04020005 	streq	r0, [r2], #-5
    243c:	73030601 	movwvc	r0, #13825	; 0x3601
    2440:	0402004a 	streq	r0, [r2], #-74	; 0xffffffb6
    2444:	02000101 	andeq	r0, r0, #1073741824	; 0x40000000
    2448:	9e060104 	adflss	f0, f6, f4
    244c:	01040200 	mrseq	r0, R12_usr
    2450:	0402002e 	streq	r0, [r2], #-46	; 0xffffffd2
    2454:	002e0601 	eoreq	r0, lr, r1, lsl #12
    2458:	2f010402 	svccs	0x00010402
    245c:	01040200 	mrseq	r0, R12_usr
    2460:	0402002e 	streq	r0, [r2], #-46	; 0xffffffd2
    2464:	b103d601 	tstlt	r3, r1, lsl #12
    2468:	06012e7f 			; <UNDEFINED> instruction: 0x06012e7f
    246c:	062e2e82 	strteq	r2, [lr], -r2, lsl #29
    2470:	002e062e 	eoreq	r0, lr, lr, lsr #12
    2474:	06010402 	streq	r0, [r1], -r2, lsl #8
    2478:	0100d703 	tsteq	r0, r3, lsl #14
    247c:	01040200 	mrseq	r0, R12_usr
    2480:	0402002e 	streq	r0, [r2], #-46	; 0xffffffd2
    2484:	1505d601 	strne	sp, [r5, #-1537]	; 0xfffff9ff
    2488:	17057b08 	strne	r7, [r5, -r8, lsl #22]
    248c:	31160501 	tstcc	r6, r1, lsl #10
    2490:	05011805 	streq	r1, [r1, #-2053]	; 0xfffff7fb
    2494:	0501061d 	streq	r0, [r1, #-1565]	; 0xfffff9e3
    2498:	1905662b 	stmdbne	r5, {r0, r1, r3, r5, r9, sl, sp, lr}
    249c:	05054d06 	streq	r4, [r5, #-3334]	; 0xfffff2fa
    24a0:	060c0513 			; <UNDEFINED> instruction: 0x060c0513
    24a4:	4a070501 	bmi	1c38b0 <__bss_end__+0x1b8ac8>
    24a8:	02002505 	andeq	r2, r0, #20971520	; 0x1400000
    24ac:	054a0104 	strbeq	r0, [sl, #-260]	; 0xfffffefc
    24b0:	0402001e 	streq	r0, [r2], #-30	; 0xffffffe2
    24b4:	09054a01 	stmdbeq	r5, {r0, r9, fp, lr}
    24b8:	05054b06 	streq	r4, [r5, #-2822]	; 0xfffff4fa
    24bc:	060a0513 			; <UNDEFINED> instruction: 0x060a0513
    24c0:	63190501 	tstvs	r9, #4194304	; 0x400000
    24c4:	4c060905 			; <UNDEFINED> instruction: 0x4c060905
    24c8:	069e0601 	ldreq	r0, [lr], r1, lsl #12
    24cc:	000a022e 	andeq	r0, sl, lr, lsr #4
    24d0:	02890101 	addeq	r0, r9, #1073741824	; 0x40000000
    24d4:	00030000 	andeq	r0, r3, r0
    24d8:	000000c9 	andeq	r0, r0, r9, asr #1
    24dc:	0efb0102 	cdpeq	1, 15, cr0, cr11, cr2, {0}
    24e0:	0101000d 	tsteq	r1, sp
    24e4:	00000101 	andeq	r0, r0, r1, lsl #2
    24e8:	00000100 	andeq	r0, r0, r0, lsl #2
    24ec:	732f2e01 			; <UNDEFINED> instruction: 0x732f2e01
    24f0:	2f006372 	svccs	0x00006372
    24f4:	72657355 	rsbvc	r7, r5, #1409286145	; 0x54000001
    24f8:	696d2f73 	stmdbvs	sp!, {r0, r1, r4, r5, r6, r8, r9, sl, fp, sp}^
    24fc:	2f73656c 	svccs	0x0073656c
    2500:	72756f53 	rsbsvc	r6, r5, #332	; 0x14c
    2504:	632f6563 			; <UNDEFINED> instruction: 0x632f6563
    2508:	30343273 	eorscc	r3, r4, r3, ror r2
    250c:	6c2f786c 	stcvs	8, cr7, [pc], #-432	; 2364 <__code_start__-0x5c9c>
    2510:	69706269 	ldmdbvs	r0!, {r0, r3, r5, r6, r9, sp, lr}^
    2514:	636e692f 	cmnvs	lr, #770048	; 0xbc000
    2518:	6564756c 	strbvs	r7, [r4, #-1388]!	; 0xfffffa94
    251c:	706f2f00 	rsbvc	r2, pc, r0, lsl #30
    2520:	6f682f74 	svcvs	0x00682f74
    2524:	7262656d 	rsbvc	r6, r2, #457179136	; 0x1b400000
    2528:	432f7765 			; <UNDEFINED> instruction: 0x432f7765
    252c:	616c6c65 	cmnvs	ip, r5, ror #24
    2530:	72612f72 	rsbvc	r2, r1, #456	; 0x1c8
    2534:	6f6e2d6d 	svcvs	0x006e2d6d
    2538:	652d656e 	strvs	r6, [sp, #-1390]!	; 0xfffffa92
    253c:	2d696261 	sfmcs	f6, 2, [r9, #-388]!	; 0xfffffe7c
    2540:	2d392f39 	ldccs	15, cr2, [r9, #-228]!	; 0xffffff1c
    2544:	39313032 	ldmdbcc	r1!, {r1, r4, r5, ip, sp}
    2548:	632d3471 			; <UNDEFINED> instruction: 0x632d3471
    254c:	37303173 			; <UNDEFINED> instruction: 0x37303173
    2550:	696c2f65 	stmdbvs	ip!, {r0, r2, r5, r6, r8, r9, sl, fp, sp}^
    2554:	63672f62 	cmnvs	r7, #392	; 0x188
    2558:	72612f63 	rsbvc	r2, r1, #396	; 0x18c
    255c:	6f6e2d6d 	svcvs	0x006e2d6d
    2560:	652d656e 	strvs	r6, [sp, #-1390]!	; 0xfffffa92
    2564:	2f696261 	svccs	0x00696261
    2568:	2e322e39 	mrccs	14, 1, r2, cr2, cr9, {1}
    256c:	6e692f31 	mcrvs	15, 3, r2, cr9, cr1, {1}
    2570:	64756c63 	ldrbtvs	r6, [r5], #-3171	; 0xfffff39d
    2574:	67000065 	strvs	r0, [r0, -r5, rrx]
    2578:	2e6f6970 			; <UNDEFINED> instruction: 0x2e6f6970
    257c:	00010063 	andeq	r0, r1, r3, rrx
    2580:	69707200 	ldmdbvs	r0!, {r9, ip, sp, lr}^
    2584:	0200682e 	andeq	r6, r0, #3014656	; 0x2e0000
    2588:	74730000 	ldrbtvc	r0, [r3], #-0
    258c:	746e6964 	strbtvc	r6, [lr], #-2404	; 0xfffff69c
    2590:	6363672d 	cmnvs	r3, #11796480	; 0xb40000
    2594:	0300682e 	movweq	r6, #2094	; 0x82e
    2598:	70670000 	rsbvc	r0, r7, r0
    259c:	682e6f69 	stmdavs	lr!, {r0, r3, r5, r6, r8, r9, sl, fp, sp, lr}
    25a0:	00000200 	andeq	r0, r0, r0, lsl #4
    25a4:	00380500 	eorseq	r0, r8, r0, lsl #10
    25a8:	9e700205 	cdpls	2, 7, cr0, cr0, cr5, {0}
    25ac:	27030000 	strcs	r0, [r3, -r0]
    25b0:	13050501 	movwne	r0, #21761	; 0x5501
    25b4:	01060705 	tsteq	r6, r5, lsl #14
    25b8:	49060605 	stmdbmi	r6, {r0, r2, r9, sl}
    25bc:	05150505 	ldreq	r0, [r5, #-1285]	; 0xfffffafb
    25c0:	05010607 	streq	r0, [r1, #-1543]	; 0xfffff9f9
    25c4:	07052b38 	smladxeq	r5, r8, fp, r2
    25c8:	0605054d 	streq	r0, [r5], -sp, asr #10
    25cc:	06180530 			; <UNDEFINED> instruction: 0x06180530
    25d0:	671c0501 	ldrvs	r0, [ip, -r1, lsl #10]
    25d4:	054a0e05 	strbeq	r0, [sl, #-3589]	; 0xfffff1fb
    25d8:	12052d18 	andne	r2, r5, #24, 26	; 0x600
    25dc:	052f2e4d 	streq	r2, [pc, #-3661]!	; 1797 <__code_start__-0x6869>
    25e0:	05052a0e 	streq	r2, [r5, #-2574]	; 0xfffff5f2
    25e4:	13142f06 	tstne	r4, #6, 30
    25e8:	01060705 	tsteq	r6, r5, lsl #14
    25ec:	2f060505 	svccs	0x00060505
    25f0:	2e2e0613 	mcrcs	6, 1, r0, cr14, cr3, {0}
    25f4:	05130105 	ldreq	r0, [r3, #-261]	; 0xfffffefb
    25f8:	052e2d05 	streq	r2, [lr, #-3333]!	; 0xfffff2fb
    25fc:	05000624 	streq	r0, [r0, #-1572]	; 0xfffff9dc
    2600:	009ed002 	addseq	sp, lr, r2
    2604:	05051500 	streq	r1, [r5, #-1280]	; 0xfffffb00
    2608:	03060513 	movweq	r0, #25875	; 0x6513
    260c:	05050171 	streq	r0, [r5, #-369]	; 0xfffffe8f
    2610:	06070513 			; <UNDEFINED> instruction: 0x06070513
    2614:	06060501 	streq	r0, [r6], -r1, lsl #10
    2618:	15050549 	strne	r0, [r5, #-1353]	; 0xfffffab7
    261c:	06240514 			; <UNDEFINED> instruction: 0x06240514
    2620:	05010903 	streq	r0, [r1, #-2307]	; 0xfffff6fd
    2624:	2e770318 	mrccs	3, 3, r0, cr7, cr8, {0}
    2628:	05671c05 	strbeq	r1, [r7, #-3077]!	; 0xfffff3fb
    262c:	18054a0e 	stmdane	r5, {r1, r2, r3, r9, fp, lr}
    2630:	4d12052d 	cfldr32mi	mvfx0, [r2, #-180]	; 0xffffff4c
    2634:	0f052f2e 	svceq	0x00052f2e
    2638:	290e052f 	stmdbcs	lr, {r0, r1, r2, r3, r5, r8, sl}
    263c:	2f060505 	svccs	0x00060505
    2640:	07051314 	smladeq	r5, r4, r3, r1
    2644:	05050106 	streq	r0, [r5, #-262]	; 0xfffffefa
    2648:	06132f06 	ldreq	r2, [r3], -r6, lsl #30
    264c:	3301052e 	movwcc	r0, #5422	; 0x152e
    2650:	2e290505 	cfsh64cs	mvdx0, mvdx9, #5
    2654:	00062705 	andeq	r2, r6, r5, lsl #14
    2658:	9f280205 	svcls	0x00280205
    265c:	051a0000 	ldreq	r0, [sl, #-0]
    2660:	27051305 	strcs	r1, [r5, -r5, lsl #6]
    2664:	18051106 	stmdane	r5, {r1, r2, r8, ip}
    2668:	2e05052f 	cfsh32cs	mvfx0, mvfx5, #31
    266c:	28054a2e 	stmdacs	r5, {r1, r2, r3, r5, r9, fp, lr}
    2670:	02050006 	andeq	r0, r5, #6, 0
    2674:	00009f40 	andeq	r9, r0, r0, asr #30
    2678:	13050516 	movwne	r0, #21782	; 0x5516
    267c:	11062805 	tstne	r6, r5, lsl #16
    2680:	052f1805 	streq	r1, [pc, #-2053]!	; 1e83 <__code_start__-0x617d>
    2684:	4a2e2e05 	bmi	b8dea0 <__bss_end__+0xb830b8>
    2688:	00062305 	andeq	r2, r6, r5, lsl #6
    268c:	9f580205 	svcls	0x00580205
    2690:	05160000 	ldreq	r0, [r6, #-0]
    2694:	06051305 	streq	r1, [r5], -r5, lsl #6
    2698:	05016203 	streq	r6, [r1, #-515]	; 0xfffffdfd
    269c:	07051305 	streq	r1, [r5, -r5, lsl #6]
    26a0:	06050106 	streq	r0, [r5], -r6, lsl #2
    26a4:	05054906 	streq	r4, [r5, #-2310]	; 0xfffff6fa
    26a8:	05131415 	ldreq	r1, [r3, #-1045]	; 0xfffffbeb
    26ac:	17030623 	strne	r0, [r3, -r3, lsr #12]
    26b0:	03220501 			; <UNDEFINED> instruction: 0x03220501
    26b4:	1c052e69 	stcne	14, cr2, [r5], {105}	; 0x69
    26b8:	0e052e82 	cdpeq	14, 0, cr2, cr5, cr2, {4}
    26bc:	0605052e 	streq	r0, [r5], -lr, lsr #10
    26c0:	06120530 			; <UNDEFINED> instruction: 0x06120530
    26c4:	052d4b01 	streq	r4, [sp, #-2817]!	; 0xfffff4ff
    26c8:	132f0605 			; <UNDEFINED> instruction: 0x132f0605
    26cc:	06180513 			; <UNDEFINED> instruction: 0x06180513
    26d0:	05017a03 	streq	r7, [r1, #-2563]	; 0xfffff5fd
    26d4:	05054a0e 	streq	r4, [r5, #-2574]	; 0xfffff5f2
    26d8:	01052e34 	tsteq	r5, r4, lsr lr
    26dc:	052e1403 	streq	r1, [lr, #-1027]!	; 0xfffffbfd
    26e0:	2e6c0305 	cdpcs	3, 6, cr0, cr12, cr5, {0}
    26e4:	062b052e 	strteq	r0, [fp], -lr, lsr #10
    26e8:	b0020500 	andlt	r0, r2, r0, lsl #10
    26ec:	0300009f 	movweq	r0, #159	; 0x9f
    26f0:	05050117 	streq	r0, [r5, #-279]	; 0xfffffee9
    26f4:	06070513 			; <UNDEFINED> instruction: 0x06070513
    26f8:	03180501 	tsteq	r8, #4194304	; 0x400000
    26fc:	2b052e71 	blcs	14e0c8 <__bss_end__+0x1432e0>
    2700:	052e0e03 	streq	r0, [lr, #-3587]!	; 0xfffff1fd
    2704:	09052f07 	stmdbeq	r5, {r0, r1, r2, r8, r9, sl, fp, sp}
    2708:	0d052f06 	stceq	15, cr2, [r5, #-24]	; 0xffffffe8
    270c:	05016f03 	streq	r6, [r1, #-3843]	; 0xfffff0fd
    2710:	2e061305 	cdpcs	3, 0, cr1, cr6, cr5, {0}
    2714:	09052e2e 	stmdbeq	r5, {r1, r2, r3, r5, r9, sl, fp, sp}
    2718:	01120306 	tsteq	r2, r6, lsl #6
    271c:	72030d05 	andvc	r0, r3, #320	; 0x140
    2720:	13050501 	movwne	r0, #21761	; 0x5501
    2724:	052e2e06 	streq	r2, [lr, #-3590]!	; 0xfffff1fa
    2728:	1003061d 	andne	r0, r3, sp, lsl r6
    272c:	13050566 	movwne	r0, #21862	; 0x5566
    2730:	11061d05 	tstne	r6, r5, lsl #26
    2734:	0605052e 	streq	r0, [r5], -lr, lsr #10
    2738:	0e051330 	mcreq	3, 0, r1, cr5, cr0, {1}
    273c:	17051006 	strne	r1, [r5, -r6]
    2740:	02042e30 	andeq	r2, r4, #48, 28	; 0x300
    2744:	03063005 	movweq	r3, #24581	; 0x6005
    2748:	042e00dd 	strteq	r0, [lr], #-221	; 0xffffff23
    274c:	060e0501 	streq	r0, [lr], -r1, lsl #10
    2750:	017fa203 	cmneq	pc, r3, lsl #4
    2754:	052f2305 	streq	r2, [pc, #-773]!	; 2457 <__code_start__-0x5ba9>
    2758:	06022f01 	streq	r2, [r2], -r1, lsl #30
    275c:	9e010100 	adflss	f0, f1, f0
    2760:	03000000 	movweq	r0, #0
    2764:	00005a00 	andeq	r5, r0, r0, lsl #20
    2768:	fb010200 	blx	42f72 <__bss_end__+0x3818a>
    276c:	01000d0e 	tsteq	r0, lr, lsl #26
    2770:	00010101 	andeq	r0, r1, r1, lsl #2
    2774:	00010000 	andeq	r0, r1, r0
    2778:	2f2e0100 	svccs	0x002e0100
    277c:	6362696c 	cmnvs	r2, #108, 18	; 0x1b0000
    2780:	73552f00 	cmpvc	r5, #0, 30
    2784:	2f737265 	svccs	0x00737265
    2788:	656c696d 	strbvs	r6, [ip, #-2413]!	; 0xfffff693
    278c:	6f532f73 	svcvs	0x00532f73
    2790:	65637275 	strbvs	r7, [r3, #-629]!	; 0xfffffd8b
    2794:	3273632f 	rsbscc	r6, r3, #-1140850688	; 0xbc000000
    2798:	786c3034 	stmdavc	ip!, {r2, r4, r5, ip, sp}^
    279c:	62696c2f 	rsbvs	r6, r9, #12032	; 0x2f00
    27a0:	692f6970 	stmdbvs	pc!, {r4, r5, r6, r8, fp, sp, lr}	; <UNPREDICTABLE>
    27a4:	756c636e 	strbvc	r6, [ip, #-878]!	; 0xfffffc92
    27a8:	00006564 	andeq	r6, r0, r4, ror #10
    27ac:	63747570 	cmnvs	r4, #112, 10	; 0x1c000000
    27b0:	2e726168 	rpwcssz	f6, f2, #0.0
    27b4:	00010063 	andeq	r0, r1, r3, rrx
    27b8:	69707200 	ldmdbvs	r0!, {r9, ip, sp, lr}^
    27bc:	0200682e 	andeq	r6, r0, #3014656	; 0x2e0000
    27c0:	05000000 	streq	r0, [r0, #-0]
    27c4:	02050024 	andeq	r0, r5, #36, 0	; 0x24
    27c8:	0000a008 	andeq	sl, r0, r8
    27cc:	01260514 			; <UNDEFINED> instruction: 0x01260514
    27d0:	01062405 	tsteq	r6, r5, lsl #8
    27d4:	2e26052e 	cfsh64cs	mvdx0, mvdx6, #30
    27d8:	2e063405 	cdpcs	4, 0, cr3, cr6, cr5, {0}
    27dc:	01060105 	tsteq	r6, r5, lsl #2
    27e0:	4f061b05 	svcmi	0x00061b05
    27e4:	05130505 	ldreq	r0, [r3, #-1285]	; 0xfffffafb
    27e8:	05010611 	streq	r0, [r1, #-1553]	; 0xfffff9ef
    27ec:	23056701 	movwcs	r6, #22273	; 0x5701
    27f0:	05056706 	streq	r6, [r5, #-1798]	; 0xfffff8fa
    27f4:	06110513 			; <UNDEFINED> instruction: 0x06110513
    27f8:	4b010501 	blmi	43c04 <__bss_end__+0x38e1c>
    27fc:	01000402 	tsteq	r0, r2, lsl #8
    2800:	0000e201 	andeq	lr, r0, r1, lsl #4
    2804:	59000300 	stmdbpl	r0, {r8, r9}
    2808:	02000000 	andeq	r0, r0, #0, 0
    280c:	0d0efb01 	vstreq	d15, [lr, #-4]
    2810:	01010100 	mrseq	r0, (UNDEF: 17)
    2814:	00000001 	andeq	r0, r0, r1
    2818:	01000001 	tsteq	r0, r1
    281c:	696c2f2e 	stmdbvs	ip!, {r1, r2, r3, r5, r8, r9, sl, fp, sp}^
    2820:	2f006362 	svccs	0x00006362
    2824:	72657355 	rsbvc	r7, r5, #1409286145	; 0x54000001
    2828:	696d2f73 	stmdbvs	sp!, {r0, r1, r4, r5, r6, r8, r9, sl, fp, sp}^
    282c:	2f73656c 	svccs	0x0073656c
    2830:	72756f53 	rsbsvc	r6, r5, #332	; 0x14c
    2834:	632f6563 			; <UNDEFINED> instruction: 0x632f6563
    2838:	30343273 	eorscc	r3, r4, r3, ror r2
    283c:	6c2f786c 	stcvs	8, cr7, [pc], #-432	; 2694 <__code_start__-0x596c>
    2840:	69706269 	ldmdbvs	r0!, {r0, r3, r5, r6, r9, sp, lr}^
    2844:	636e692f 	cmnvs	lr, #770048	; 0xbc000
    2848:	6564756c 	strbvs	r7, [r4, #-1388]!	; 0xfffffa94
    284c:	74730000 	ldrbtvc	r0, [r3], #-0
    2850:	74616372 	strbtvc	r6, [r1], #-882	; 0xfffffc8e
    2854:	0100632e 	tsteq	r0, lr, lsr #6
    2858:	70720000 	rsbsvc	r0, r2, r0
    285c:	00682e69 	rsbeq	r2, r8, r9, ror #28
    2860:	00000002 	andeq	r0, r0, r2
    2864:	05002c05 	streq	r2, [r0, #-3077]	; 0xfffff3fb
    2868:	00a04402 	adceq	r4, r0, r2, lsl #8
    286c:	05051500 	streq	r1, [r5, #-1280]	; 0xfffffb00
    2870:	0b051313 	bleq	1474c4 <__bss_end__+0x13c6dc>
    2874:	05051106 	streq	r1, [r5, #-262]	; 0xfffffefa
    2878:	01040200 	mrseq	r0, R12_usr
    287c:	02003006 	andeq	r3, r0, #6, 0
    2880:	05150104 	ldreq	r0, [r5, #-260]	; 0xfffffefc
    2884:	04020009 	streq	r0, [r2], #-9
    2888:	0b051301 	bleq	147494 <__bss_end__+0x13c6ac>
    288c:	01040200 	mrseq	r0, R12_usr
    2890:	0005052f 	andeq	r0, r5, pc, lsr #10
    2894:	06010402 	streq	r0, [r1], -r2, lsl #8
    2898:	04020001 	streq	r0, [r2], #-1
    289c:	4e062e01 	cdpmi	14, 0, cr2, cr6, cr1, {0}
    28a0:	01060805 	tsteq	r6, r5, lsl #16
    28a4:	02000505 	andeq	r0, r0, #20971520	; 0x1400000
    28a8:	2f060104 	svccs	0x00060104
    28ac:	02000905 	andeq	r0, r0, #81920	; 0x14000
    28b0:	05130104 	ldreq	r0, [r3, #-260]	; 0xfffffefc
    28b4:	0402000b 	streq	r0, [r2], #-11
    28b8:	05010601 	streq	r0, [r1, #-1537]	; 0xfffff9ff
    28bc:	04020009 	streq	r0, [r2], #-9
    28c0:	052f0601 	streq	r0, [pc, #-1537]!	; 22c7 <__code_start__-0x5d39>
    28c4:	04020005 	streq	r0, [r2], #-5
    28c8:	05130601 	ldreq	r0, [r3, #-1537]	; 0xfffff9ff
    28cc:	0402000f 	streq	r0, [r2], #-15
    28d0:	0d052d01 	stceq	13, cr2, [r5, #-4]
    28d4:	01040200 	mrseq	r0, R12_usr
    28d8:	05052f06 	streq	r2, [r5, #-3846]	; 0xfffff0fa
    28dc:	01040200 	mrseq	r0, R12_usr
    28e0:	04020106 	streq	r0, [r2], #-262	; 0xfffffefa
    28e4:	b2010100 	andlt	r0, r1, #0
    28e8:	03000000 	movweq	r0, #0
    28ec:	00005900 	andeq	r5, r0, r0, lsl #18
    28f0:	fb010200 	blx	430fa <__bss_end__+0x38312>
    28f4:	01000d0e 	tsteq	r0, lr, lsl #26
    28f8:	00010101 	andeq	r0, r1, r1, lsl #2
    28fc:	00010000 	andeq	r0, r1, r0
    2900:	2f2e0100 	svccs	0x002e0100
    2904:	6362696c 	cmnvs	r2, #108, 18	; 0x1b0000
    2908:	73552f00 	cmpvc	r5, #0, 30
    290c:	2f737265 	svccs	0x00737265
    2910:	656c696d 	strbvs	r6, [ip, #-2413]!	; 0xfffff693
    2914:	6f532f73 	svcvs	0x00532f73
    2918:	65637275 	strbvs	r7, [r3, #-629]!	; 0xfffffd8b
    291c:	3273632f 	rsbscc	r6, r3, #-1140850688	; 0xbc000000
    2920:	786c3034 	stmdavc	ip!, {r2, r4, r5, ip, sp}^
    2924:	62696c2f 	rsbvs	r6, r9, #12032	; 0x2f00
    2928:	692f6970 	stmdbvs	pc!, {r4, r5, r6, r8, fp, sp, lr}	; <UNPREDICTABLE>
    292c:	756c636e 	strbvc	r6, [ip, #-878]!	; 0xfffffc92
    2930:	00006564 	andeq	r6, r0, r4, ror #10
    2934:	63727473 	cmnvs	r2, #1929379840	; 0x73000000
    2938:	632e706d 			; <UNDEFINED> instruction: 0x632e706d
    293c:	00000100 	andeq	r0, r0, r0, lsl #2
    2940:	2e697072 	mcrcs	0, 3, r7, cr9, cr2, {3}
    2944:	00020068 	andeq	r0, r2, r8, rrx
    2948:	2a050000 	bcs	142950 <__bss_end__+0x137b68>
    294c:	70020500 	andvc	r0, r2, r0, lsl #10
    2950:	140000a0 	strne	r0, [r0], #-160	; 0xffffff60
    2954:	05130905 	ldreq	r0, [r3, #-2309]	; 0xfffff6fb
    2958:	05010610 	streq	r0, [r1, #-1552]	; 0xfffff9f0
    295c:	052e060f 	streq	r0, [lr, #-1551]!	; 0xfffff9f1
    2960:	05820610 	streq	r0, [r2, #1552]	; 0x610
    2964:	11052e0f 	tstne	r5, pc, lsl #28
    2968:	01040200 	mrseq	r0, R12_usr
    296c:	1c054b06 			; <UNDEFINED> instruction: 0x1c054b06
    2970:	01040200 	mrseq	r0, R12_usr
    2974:	0f052d06 	svceq	0x00052d06
    2978:	01040200 	mrseq	r0, R12_usr
    297c:	13052e06 	movwne	r2, #24070	; 0x5e06
    2980:	01040200 	mrseq	r0, R12_usr
    2984:	09050106 	stmdbeq	r5, {r1, r2, r8}
    2988:	01054c06 	tsteq	r5, r6, lsl #24
    298c:	054a1306 	strbeq	r1, [sl, #-774]	; 0xfffffcfa
    2990:	052d0609 	streq	r0, [sp, #-1545]!	; 0xfffff9f7
    2994:	2e130601 	cfmsub32cs	mvax0, mvfx0, mvfx3, mvfx1
    2998:	01000202 	tsteq	r0, r2, lsl #4
    299c:	00009d01 	andeq	r9, r0, r1, lsl #26
    29a0:	59000300 	stmdbpl	r0, {r8, r9}
    29a4:	02000000 	andeq	r0, r0, #0, 0
    29a8:	0d0efb01 	vstreq	d15, [lr, #-4]
    29ac:	01010100 	mrseq	r0, (UNDEF: 17)
    29b0:	00000001 	andeq	r0, r0, r1
    29b4:	01000001 	tsteq	r0, r1
    29b8:	696c2f2e 	stmdbvs	ip!, {r1, r2, r3, r5, r8, r9, sl, fp, sp}^
    29bc:	2f006362 	svccs	0x00006362
    29c0:	72657355 	rsbvc	r7, r5, #1409286145	; 0x54000001
    29c4:	696d2f73 	stmdbvs	sp!, {r0, r1, r4, r5, r6, r8, r9, sl, fp, sp}^
    29c8:	2f73656c 	svccs	0x0073656c
    29cc:	72756f53 	rsbsvc	r6, r5, #332	; 0x14c
    29d0:	632f6563 			; <UNDEFINED> instruction: 0x632f6563
    29d4:	30343273 	eorscc	r3, r4, r3, ror r2
    29d8:	6c2f786c 	stcvs	8, cr7, [pc], #-432	; 2830 <__code_start__-0x57d0>
    29dc:	69706269 	ldmdbvs	r0!, {r0, r3, r5, r6, r9, sp, lr}^
    29e0:	636e692f 	cmnvs	lr, #770048	; 0xbc000
    29e4:	6564756c 	strbvs	r7, [r4, #-1388]!	; 0xfffffa94
    29e8:	74730000 	ldrbtvc	r0, [r3], #-0
    29ec:	79706372 	ldmdbvc	r0!, {r1, r4, r5, r6, r8, r9, sp, lr}^
    29f0:	0100632e 	tsteq	r0, lr, lsr #6
    29f4:	70720000 	rsbsvc	r0, r2, r0
    29f8:	00682e69 	rsbeq	r2, r8, r9, ror #28
    29fc:	00000002 	andeq	r0, r0, r2
    2a00:	05002a05 	streq	r2, [r0, #-2565]	; 0xfffff5fb
    2a04:	00a0b402 	adceq	fp, r0, r2, lsl #8
    2a08:	05051400 	streq	r1, [r5, #-1024]	; 0xfffffc00
    2a0c:	22051313 	andcs	r1, r5, #1275068416	; 0x4c000000
    2a10:	01040200 	mrseq	r0, R12_usr
    2a14:	000b052e 	andeq	r0, fp, lr, lsr #10
    2a18:	01010402 	tsteq	r1, r2, lsl #8
    2a1c:	02001505 	andeq	r1, r0, #20971520	; 0x1400000
    2a20:	01060104 	tsteq	r6, r4, lsl #2
    2a24:	02000b05 	andeq	r0, r0, #5120	; 0x1400
    2a28:	052e0104 	streq	r0, [lr, #-260]!	; 0xfffffefc
    2a2c:	04020013 	streq	r0, [r2], #-19	; 0xffffffed
    2a30:	0b052e01 	bleq	14e23c <__bss_end__+0x143454>
    2a34:	01040200 	mrseq	r0, R12_usr
    2a38:	0004022e 	andeq	r0, r4, lr, lsr #4
    2a3c:	00fd0101 	rscseq	r0, sp, r1, lsl #2
    2a40:	00030000 	andeq	r0, r3, r0
    2a44:	000000bf 	strheq	r0, [r0], -pc	; <UNPREDICTABLE>
    2a48:	0efb0102 	cdpeq	1, 15, cr0, cr11, cr2, {0}
    2a4c:	0101000d 	tsteq	r1, sp
    2a50:	00000101 	andeq	r0, r0, r1, lsl #2
    2a54:	00000100 	andeq	r0, r0, r0, lsl #2
    2a58:	6c2f2e01 	stcvs	14, cr2, [pc], #-4	; 2a5c <__code_start__-0x55a4>
    2a5c:	00636269 	rsbeq	r6, r3, r9, ror #4
    2a60:	6573552f 	ldrbvs	r5, [r3, #-1327]!	; 0xfffffad1
    2a64:	6d2f7372 	stcvs	3, cr7, [pc, #-456]!	; 28a4 <__code_start__-0x575c>
    2a68:	73656c69 	cmnvc	r5, #26880	; 0x6900
    2a6c:	756f532f 	strbvc	r5, [pc, #-815]!	; 2745 <__code_start__-0x58bb>
    2a70:	2f656372 	svccs	0x00656372
    2a74:	34327363 	ldrtcc	r7, [r2], #-867	; 0xfffffc9d
    2a78:	2f786c30 	svccs	0x00786c30
    2a7c:	7062696c 	rsbvc	r6, r2, ip, ror #18
    2a80:	6e692f69 	cdpvs	15, 6, cr2, cr9, cr9, {3}
    2a84:	64756c63 	ldrbtvs	r6, [r5], #-3171	; 0xfffff39d
    2a88:	6f2f0065 	svcvs	0x002f0065
    2a8c:	682f7470 	stmdavs	pc!, {r4, r5, r6, sl, ip, sp, lr}	; <UNPREDICTABLE>
    2a90:	62656d6f 	rsbvs	r6, r5, #7104	; 0x1bc0
    2a94:	2f776572 	svccs	0x00776572
    2a98:	6c6c6543 	cfstr64vs	mvdx6, [ip], #-268	; 0xfffffef4
    2a9c:	612f7261 			; <UNDEFINED> instruction: 0x612f7261
    2aa0:	6e2d6d72 	mcrvs	13, 1, r6, cr13, cr2, {3}
    2aa4:	2d656e6f 	stclcs	14, cr6, [r5, #-444]!	; 0xfffffe44
    2aa8:	69626165 	stmdbvs	r2!, {r0, r2, r5, r6, r8, sp, lr}^
    2aac:	392f392d 	stmdbcc	pc!, {r0, r2, r3, r5, r8, fp, ip, sp}	; <UNPREDICTABLE>
    2ab0:	3130322d 	teqcc	r0, sp, lsr #4
    2ab4:	2d347139 	ldfcss	f7, [r4, #-228]!	; 0xffffff1c
    2ab8:	30317363 	eorscc	r7, r1, r3, ror #6
    2abc:	6c2f6537 	cfstr32vs	mvfx6, [pc], #-220	; 29e8 <__code_start__-0x5618>
    2ac0:	672f6269 	strvs	r6, [pc, -r9, ror #4]!
    2ac4:	612f6363 			; <UNDEFINED> instruction: 0x612f6363
    2ac8:	6e2d6d72 	mcrvs	13, 1, r6, cr13, cr2, {3}
    2acc:	2d656e6f 	stclcs	14, cr6, [r5, #-444]!	; 0xfffffe44
    2ad0:	69626165 	stmdbvs	r2!, {r0, r2, r5, r6, r8, sp, lr}^
    2ad4:	322e392f 	eorcc	r3, lr, #770048	; 0xbc000
    2ad8:	692f312e 	stmdbvs	pc!, {r1, r2, r3, r5, r8, ip, sp}	; <UNPREDICTABLE>
    2adc:	756c636e 	strbvc	r6, [ip, #-878]!	; 0xfffffc92
    2ae0:	00006564 	andeq	r6, r0, r4, ror #10
    2ae4:	6e727473 	mrcvs	4, 3, r7, cr2, cr3, {3}
    2ae8:	2e706d63 	cdpcs	13, 7, cr6, cr0, cr3, {3}
    2aec:	00010063 	andeq	r0, r1, r3, rrx
    2af0:	69707200 	ldmdbvs	r0!, {r9, ip, sp, lr}^
    2af4:	0200682e 	andeq	r6, r0, #3014656	; 0x2e0000
    2af8:	74730000 	ldrbtvc	r0, [r3], #-0
    2afc:	66656464 	strbtvs	r6, [r5], -r4, ror #8
    2b00:	0300682e 	movweq	r6, #2094	; 0x82e
    2b04:	05000000 	streq	r0, [r0, #-0]
    2b08:	02050039 	andeq	r0, r5, #57, 0	; 0x39
    2b0c:	0000a0cc 	andeq	sl, r0, ip, asr #1
    2b10:	13050515 	movwne	r0, #21781	; 0x5515
    2b14:	060a0513 			; <UNDEFINED> instruction: 0x060a0513
    2b18:	2f0c052e 	svccs	0x000c052e
    2b1c:	052e1305 	streq	r1, [lr, #-773]!	; 0xfffffcfb
    2b20:	09052e0b 	stmdbeq	r5, {r0, r1, r3, r9, sl, fp, sp}
    2b24:	0a054a06 	beq	155344 <__bss_end__+0x14a55c>
    2b28:	05010611 	streq	r0, [r1, #-1553]	; 0xfffff9ef
    2b2c:	01054e0c 	tsteq	r5, ip, lsl #28
    2b30:	060d052f 	streq	r0, [sp], -pc, lsr #10
    2b34:	061b052b 	ldreq	r0, [fp], -fp, lsr #10
    2b38:	02022e01 	andeq	r2, r2, #1, 28
    2b3c:	8a010100 	bhi	42f44 <__bss_end__+0x3815c>
    2b40:	03000000 	movweq	r0, #0
    2b44:	00006e00 	andeq	r6, r0, r0, lsl #28
    2b48:	fb010200 	blx	43352 <__bss_end__+0x3856a>
    2b4c:	01000d0e 	tsteq	r0, lr, lsl #26
    2b50:	00010101 	andeq	r0, r1, r1, lsl #2
    2b54:	00010000 	andeq	r0, r1, r0
    2b58:	2f2e0100 	svccs	0x002e0100
    2b5c:	66617473 			; <UNDEFINED> instruction: 0x66617473
    2b60:	72732d66 	rsbsvc	r2, r3, #6528	; 0x1980
    2b64:	552f0063 	strpl	r0, [pc, #-99]!	; 2b09 <__code_start__-0x54f7>
    2b68:	73726573 	cmnvc	r2, #482344960	; 0x1cc00000
    2b6c:	6c696d2f 	stclvs	13, cr6, [r9], #-188	; 0xffffff44
    2b70:	532f7365 			; <UNDEFINED> instruction: 0x532f7365
    2b74:	6372756f 	cmnvs	r2, #465567744	; 0x1bc00000
    2b78:	73632f65 	cmnvc	r3, #404	; 0x194
    2b7c:	6c303432 	cfldrsvs	mvf3, [r0], #-200	; 0xffffff38
    2b80:	696c2f78 	stmdbvs	ip!, {r3, r4, r5, r6, r8, r9, sl, fp, sp}^
    2b84:	2f697062 	svccs	0x00697062
    2b88:	6c636e69 	stclvs	14, cr6, [r3], #-420	; 0xfffffe5c
    2b8c:	00656475 	rsbeq	r6, r5, r5, ror r4
    2b90:	66656400 	strbtvs	r6, [r5], -r0, lsl #8
    2b94:	746c7561 	strbtvc	r7, [ip], #-1377	; 0xfffffa9f
    2b98:	6265722d 	rsbvs	r7, r5, #-805306366	; 0xd0000002
    2b9c:	2d746f6f 	ldclcs	15, cr6, [r4, #-444]!	; 0xfffffe44
    2ba0:	6c6c6163 	stfvse	f6, [ip], #-396	; 0xfffffe74
    2ba4:	2e74756f 	cdpcs	5, 7, cr7, cr4, cr15, {3}
    2ba8:	00010063 	andeq	r0, r1, r3, rrx
    2bac:	69707200 	ldmdbvs	r0!, {r9, ip, sp, lr}^
    2bb0:	0200682e 	andeq	r6, r0, #3014656	; 0x2e0000
    2bb4:	05000000 	streq	r0, [r0, #-0]
    2bb8:	0205001b 	andeq	r0, r5, #27, 0
    2bbc:	0000a0fc 	strdeq	sl, [r0], -ip
    2bc0:	011c0514 	tsteq	ip, r4, lsl r5
    2bc4:	01060105 	tsteq	r6, r5, lsl #2
    2bc8:	01000202 	tsteq	r0, r2, lsl #4
    2bcc:	Address 0x0000000000002bcc is out of bounds.


Disassembly of section .debug_str:

00000000 <.debug_str>:
   0:	5f726468 	svcpl	0x00726468
   4:	6c620074 	stclvs	0, cr0, [r2], #-464	; 0xfffffe30
   8:	5f6b636f 	svcpl	0x006b636f
   c:	73006469 	movwvc	r6, #1129	; 0x469
  10:	65746174 	ldrbvs	r6, [r4, #-372]!	; 0xfffffe8c
  14:	66657200 	strbtvs	r7, [r5], -r0, lsl #4
  18:	696d5f73 	stmdbvs	sp!, {r0, r1, r4, r5, r6, r8, r9, sl, fp, ip, lr}^
  1c:	656c6464 	strbvs	r6, [ip, #-1124]!	; 0xfffffb9c
  20:	6f687300 	svcvs	0x00687300
  24:	69207472 	stmdbvs	r0!, {r1, r4, r5, r6, sl, ip, sp, lr}
  28:	7200746e 	andvc	r7, r0, #1845493760	; 0x6e000000
  2c:	705f6970 	subsvc	r6, pc, r0, ror r9	; <UNPREDICTABLE>
  30:	68637475 	stmdavs	r3!, {r0, r2, r4, r5, r6, sl, ip, sp, lr}^
  34:	63007261 	movwvs	r7, #609	; 0x261
  38:	6c6c616b 	stfvse	f6, [ip], #-428	; 0xfffffe54
  3c:	6600636f 	strvs	r6, [r0], -pc, ror #6
  40:	00656c69 	rsbeq	r6, r5, r9, ror #24
  44:	746e6975 	strbtvc	r6, [lr], #-2421	; 0xfffff68b
  48:	00745f38 	rsbseq	r5, r4, r8, lsr pc
  4c:	636e7566 	cmnvs	lr, #427819008	; 0x19800000
  50:	6e6f6c00 	cdpvs	12, 6, cr6, cr15, cr0, {0}
  54:	6f6c2067 	svcvs	0x006c2067
  58:	6920676e 	stmdbvs	r0!, {r1, r2, r3, r5, r6, r8, r9, sl, sp, lr}
  5c:	6300746e 	movwvs	r7, #1134	; 0x46e
  60:	6c625f6b 	stclvs	15, cr5, [r2], #-428	; 0xfffffe54
  64:	64695f6b 	strbtvs	r5, [r9], #-3947	; 0xfffff095
  68:	73657400 	cmnvc	r5, #0, 8
  6c:	322d7374 	eorcc	r7, sp, #116, 6	; 0xd0000001
  70:	702f302e 	eorvc	r3, pc, lr, lsr #32
  74:	32747261 	rsbscc	r7, r4, #268435462	; 0x10000006
  78:	7365742d 	cmnvc	r5, #754974720	; 0x2d000000
  7c:	6e2d3474 	mcrvs	4, 1, r3, cr13, cr4, {3}
  80:	656c2d6f 	strbvs	r2, [ip, #-3439]!	; 0xfffff291
  84:	632e6b61 			; <UNDEFINED> instruction: 0x632e6b61
  88:	5f6b6300 	svcpl	0x006b6300
  8c:	00726468 	rsbseq	r6, r2, r8, ror #8
  90:	55465f5f 	strbpl	r5, [r6, #-3935]	; 0xfffff0a1
  94:	4954434e 	ldmdbmi	r4, {r1, r2, r3, r6, r8, r9, lr}^
  98:	5f5f4e4f 	svcpl	0x005f4e4f
  9c:	6c6c6100 	stfvse	f6, [ip], #-0
  a0:	6c5f636f 	mrrcvs	3, 6, r6, pc, cr15	; <UNPREDICTABLE>
  a4:	6300636f 	movwvs	r6, #879	; 0x36f
  a8:	6e61656c 	cdpvs	5, 6, cr6, cr1, cr12, {3}
  ac:	6265725f 	rsbvs	r7, r5, #-268435451	; 0xf0000005
  b0:	00746f6f 	rsbseq	r6, r4, pc, ror #30
  b4:	765f6b63 	ldrbvc	r6, [pc], -r3, ror #22
  b8:	6f627265 	svcvs	0x00627265
  bc:	705f6573 	subsvc	r6, pc, r3, ror r5	; <UNPREDICTABLE>
  c0:	736e7500 	cmnvc	lr, #0, 10
  c4:	656e6769 	strbvs	r6, [lr, #-1897]!	; 0xfffff897
  c8:	68632064 	stmdavs	r3!, {r2, r5, r6, sp}^
  cc:	72007261 	andvc	r7, r0, #268435462	; 0x10000006
  d0:	5f736665 	svcpl	0x00736665
  d4:	72617473 	rsbvc	r7, r1, #1929379840	; 0x73000000
  d8:	552f0074 	strpl	r0, [pc, #-116]!	; 6c <__code_start__-0x7f94>
  dc:	73726573 	cmnvc	r2, #482344960	; 0x1cc00000
  e0:	6c696d2f 	stclvs	13, cr6, [r9], #-188	; 0xffffff44
  e4:	532f7365 			; <UNDEFINED> instruction: 0x532f7365
  e8:	6372756f 	cmnvs	r2, #465567744	; 0x1bc00000
  ec:	73632f65 	cmnvc	r3, #404	; 0x194
  f0:	6c303432 	cfldrsvs	mvf3, [r0], #-200	; 0xffffff38
  f4:	616c2f78 	smcvs	49912	; 0xc2f8
  f8:	352f7362 	strcc	r7, [pc, #-866]!	; fffffd9e <__bss_end__+0xffff4fb6>
  fc:	6c616d2d 	stclvs	13, cr6, [r1], #-180	; 0xffffff4c
 100:	2b636f6c 	blcs	18dbeb8 <__bss_end__+0x18d10d0>
 104:	632f6367 			; <UNDEFINED> instruction: 0x632f6367
 108:	0065646f 	rsbeq	r6, r5, pc, ror #8
 10c:	63656863 	cmnvs	r5, #6488064	; 0x630000
 110:	6f6e5f6b 	svcvs	0x006e5f6b
 114:	61656c5f 	cmnvs	r5, pc, asr ip
 118:	696c006b 	stmdbvs	ip!, {r0, r1, r3, r5, r6}^
 11c:	6f6e656e 	svcvs	0x006e656e
 120:	6e6f6c00 	cdpvs	12, 6, cr6, cr15, cr0, {0}
 124:	6f6c2067 	svcvs	0x006c2067
 128:	7520676e 	strvc	r6, [r0, #-1902]!	; 0xfffff892
 12c:	6769736e 	strbvs	r7, [r9, -lr, ror #6]!
 130:	2064656e 	rsbcs	r6, r4, lr, ror #10
 134:	00746e69 	rsbseq	r6, r4, r9, ror #28
 138:	746e6975 	strbtvc	r6, [lr], #-2421	; 0xfffff68b
 13c:	745f3233 	ldrbvc	r3, [pc], #-563	; 144 <__code_start__-0x7ebc>
 140:	6e697500 	cdpvs	5, 6, cr7, cr9, cr0, {0}
 144:	5f363174 	svcpl	0x00363174
 148:	6f6e0074 	svcvs	0x006e0074
 14c:	69616d74 	stmdbvs	r1!, {r2, r4, r5, r6, r8, sl, fp, sp, lr}^
 150:	6873006e 	ldmdavs	r3!, {r1, r2, r3, r5, r6}^
 154:	2074726f 	rsbscs	r7, r4, pc, ror #4
 158:	69736e75 	ldmdbvs	r3!, {r0, r2, r4, r5, r6, r9, sl, fp, sp, lr}^
 15c:	64656e67 	strbtvs	r6, [r5], #-3687	; 0xfffff199
 160:	746e6920 	strbtvc	r6, [lr], #-2336	; 0xfffff6e0
 164:	73657400 	cmnvc	r5, #0, 8
 168:	4e470074 	mcrmi	0, 2, r0, cr7, cr4, {3}
 16c:	39432055 	stmdbcc	r3, {r0, r2, r4, r6, sp}^
 170:	2e392039 	mrccs	0, 1, r2, cr9, cr9, {1}
 174:	20312e32 	eorscs	r2, r1, r2, lsr lr
 178:	39313032 	ldmdbcc	r1!, {r1, r4, r5, ip, sp}
 17c:	35323031 	ldrcc	r3, [r2, #-49]!	; 0xffffffcf
 180:	65722820 	ldrbvs	r2, [r2, #-2080]!	; 0xfffff7e0
 184:	7361656c 	cmnvc	r1, #108, 10	; 0x1b000000
 188:	5b202965 	blpl	80a724 <__bss_end__+0x7ff93c>
 18c:	2f4d5241 	svccs	0x004d5241
 190:	2d6d7261 	sfmcs	f7, 2, [sp, #-388]!	; 0xfffffe7c
 194:	72622d39 	rsbvc	r2, r2, #3648	; 0xe40
 198:	68636e61 	stmdavs	r3!, {r0, r5, r6, r9, sl, fp, sp, lr}^
 19c:	76657220 	strbtvc	r7, [r5], -r0, lsr #4
 1a0:	6f697369 	svcvs	0x00697369
 1a4:	3732206e 	ldrcc	r2, [r2, -lr, rrx]!
 1a8:	39393537 	ldmdbcc	r9!, {r0, r1, r2, r4, r5, r8, sl, ip, sp}
 1ac:	6d2d205d 	stcvs	0, cr2, [sp, #-372]!	; 0xfffffe8c
 1b0:	3d757063 	ldclcc	0, cr7, [r5, #-396]!	; 0xfffffe74
 1b4:	316d7261 	cmncc	sp, r1, ror #4
 1b8:	6a363731 	bvs	d8de84 <__bss_end__+0xd8309c>
 1bc:	732d667a 			; <UNDEFINED> instruction: 0x732d667a
 1c0:	746d2d20 	strbtvc	r2, [sp], #-3360	; 0xfffff2e0
 1c4:	3d656e75 	stclcc	14, cr6, [r5, #-468]!	; 0xfffffe2c
 1c8:	316d7261 	cmncc	sp, r1, ror #4
 1cc:	6a363731 	bvs	d8de98 <__bss_end__+0xd830b0>
 1d0:	732d667a 			; <UNDEFINED> instruction: 0x732d667a
 1d4:	666d2d20 	strbtvs	r2, [sp], -r0, lsr #26
 1d8:	74616f6c 	strbtvc	r6, [r1], #-3948	; 0xfffff094
 1dc:	6962612d 	stmdbvs	r2!, {r0, r2, r3, r5, r8, sp, lr}^
 1e0:	666f733d 			; <UNDEFINED> instruction: 0x666f733d
 1e4:	6d2d2074 	stcvs	0, cr2, [sp, #-464]!	; 0xfffffe30
 1e8:	206d7261 	rsbcs	r7, sp, r1, ror #4
 1ec:	72616d2d 	rsbvc	r6, r1, #2880	; 0xb40
 1f0:	613d6863 	teqvs	sp, r3, ror #16
 1f4:	36766d72 			; <UNDEFINED> instruction: 0x36766d72
 1f8:	2d207a6b 	vstmdbcs	r0!, {s14-s120}
 1fc:	62646767 	rsbvs	r6, r4, #27000832	; 0x19c0000
 200:	664f2d20 	strbvs	r2, [pc], -r0, lsr #26
 204:	20747361 	rsbscs	r7, r4, r1, ror #6
 208:	6474732d 	ldrbtvs	r7, [r4], #-813	; 0xfffffcd3
 20c:	756e673d 	strbvc	r6, [lr, #-1853]!	; 0xfffff8c3
 210:	2d203939 			; <UNDEFINED> instruction: 0x2d203939
 214:	65726666 	ldrbvs	r6, [r2, #-1638]!	; 0xfffff99a
 218:	61747365 	cmnvs	r4, r5, ror #6
 21c:	6e69646e 	cdpvs	4, 6, cr6, cr9, cr14, {3}
 220:	626e0067 	rsbvs	r0, lr, #103, 0	; 0x67
 224:	73657479 	cmnvc	r5, #2030043136	; 0x79000000
 228:	6c6c615f 	stfvse	f6, [ip], #-380	; 0xfffffe84
 22c:	6d00636f 	stcvs	3, cr6, [r0, #-444]	; 0xfffffe44
 230:	65736d65 	ldrbvs	r6, [r3, #-3429]!	; 0xfffff29b
 234:	72700074 	rsbsvc	r0, r0, #116, 0	; 0x74
 238:	73007665 	movwvc	r7, #1637	; 0x665
 23c:	6c5f6372 	mrrcvs	3, 7, r6, pc, cr2	; <UNPREDICTABLE>
 240:	6d5f636f 	ldclvs	3, cr6, [pc, #-444]	; 8c <__code_start__-0x7f74>
 244:	656e006b 	strbvs	r0, [lr, #-107]!	; 0xffffff95
 248:	73007478 	movwvc	r7, #1144	; 0x478
 24c:	6c5f6372 	mrrcvs	3, 7, r6, pc, cr2	; <UNPREDICTABLE>
 250:	745f636f 	ldrbvc	r6, [pc], #-879	; 258 <__code_start__-0x7da8>
 254:	5f6b6300 	svcpl	0x006b6300
 258:	5f727470 	svcpl	0x00727470
 25c:	625f6e69 	subsvs	r6, pc, #1680	; 0x690
 260:	6b636f6c 	blvs	18dc018 <__bss_end__+0x18d1230>
 264:	45524600 	ldrbmi	r4, [r2, #-1536]	; 0xfffffa00
 268:	52004445 	andpl	r4, r0, #1157627904	; 0x45000000
 26c:	4f5a4445 	svcmi	0x005a4445
 270:	565f454e 	ldrbpl	r4, [pc], -lr, asr #10
 274:	6b004c41 	blvs	13380 <__bss_end__+0x8598>
 278:	72665f72 	rsbvc	r5, r6, #456	; 0x1c8
 27c:	52006565 	andpl	r6, r0, #423624704	; 0x19400000
 280:	4f5a4445 	svcmi	0x005a4445
 284:	4e5f454e 	cdpmi	5, 5, cr4, cr15, cr14, {2}
 288:	45545942 	ldrbmi	r5, [r4, #-2370]	; 0xfffff6be
 28c:	6b630053 	blvs	18c03e0 <__bss_end__+0x18b55f8>
 290:	7269665f 	rsbvc	r6, r9, #99614720	; 0x5f00000
 294:	685f7473 	ldmdavs	pc, {r0, r1, r4, r5, r6, sl, ip, sp, lr}^	; <UNPREDICTABLE>
 298:	63007264 	movwvs	r7, #612	; 0x264
 29c:	6572666b 	ldrbvs	r6, [r2, #-1643]!	; 0xfffff995
 2a0:	6c610065 	stclvs	0, cr0, [r1], #-404	; 0xfffffe6c
 2a4:	5f636f6c 	svcpl	0x00636f6c
 2a8:	7473696c 	ldrbtvc	r6, [r3], #-2412	; 0xfffff694
 2ac:	73696c00 	cmnvc	r9, #0, 24
 2b0:	65725f74 	ldrbvs	r5, [r2, #-3956]!	; 0xfffff08c
 2b4:	65766f6d 	ldrbvs	r6, [r6, #-3949]!	; 0xfffff093
 2b8:	5f6b6300 	svcpl	0x006b6300
 2bc:	5f727470 	svcpl	0x00727470
 2c0:	615f7369 	cmpvs	pc, r9, ror #6
 2c4:	636f6c6c 	cmnvs	pc, #108, 24	; 0x6c00
 2c8:	63006465 	movwvs	r6, #1125	; 0x465
 2cc:	656e5f6b 	strbvs	r5, [lr, #-3947]!	; 0xfffff095
 2d0:	685f7478 	ldmdavs	pc, {r3, r4, r5, r6, sl, ip, sp, lr}^	; <UNPREDICTABLE>
 2d4:	63007264 	movwvs	r7, #612	; 0x264
 2d8:	6c6c616b 	stfvse	f6, [ip], #-428	; 0xfffffe54
 2dc:	632e636f 			; <UNDEFINED> instruction: 0x632e636f
 2e0:	4c4c4100 	stfmie	f4, [ip], {-0}
 2e4:	4445434f 	strbmi	r4, [r5], #-847	; 0xfffffcb1
 2e8:	5f6b6300 	svcpl	0x006b6300
 2ec:	5f726468 	svcpl	0x00726468
 2f0:	72617473 	rsbvc	r7, r1, #1929379840	; 0x73000000
 2f4:	6b630074 	blvs	18c04cc <__bss_end__+0x18b56e4>
 2f8:	7264685f 	rsbvc	r6, r4, #6225920	; 0x5f0000
 2fc:	646e655f 	strbtvs	r6, [lr], #-1375	; 0xfffffaa1
 300:	5f6b6300 	svcpl	0x006b6300
 304:	7479626e 	ldrbtvc	r6, [r9], #-622	; 0xfffffd92
 308:	6b007365 	blvs	1d0a4 <__bss_end__+0x122bc>
 30c:	616d5f72 	smcvs	54770	; 0xd5f2
 310:	636f6c6c 	cmnvs	pc, #108, 24	; 0x6c00
 314:	61656800 	cmnvs	r5, r0, lsl #16
 318:	00726564 	rsbseq	r6, r2, r4, ror #10
 31c:	76657270 			; <UNDEFINED> instruction: 0x76657270
 320:	6c610070 	stclvs	0, cr0, [r1], #-448	; 0xfffffe40
 324:	006e6769 	rsbeq	r6, lr, r9, ror #14
 328:	65657266 	strbvs	r7, [r5, #-614]!	; 0xfffffd9a
 32c:	756e0070 	strbvc	r0, [lr, #-112]!	; 0xffffff90
 330:	7374696e 	cmnvc	r4, #1802240	; 0x1b8000
 334:	2d726b00 	vldmdbcs	r2!, {d22-d21}
 338:	6c6c616d 	stfvse	f6, [ip], #-436	; 0xfffffe4c
 33c:	632e636f 			; <UNDEFINED> instruction: 0x632e636f
 340:	756f6400 	strbvc	r6, [pc, #-1024]!	; ffffff48 <__bss_end__+0xffff5160>
 344:	00656c62 	rsbeq	r6, r5, r2, ror #24
 348:	65736162 	ldrbvs	r6, [r3, #-354]!	; 0xfffffe9e
 34c:	72627300 	rsbvc	r7, r2, #0, 6
 350:	6f6d006b 	svcvs	0x006d006b
 354:	6f636572 	svcvs	0x00636572
 358:	73006572 	movwvc	r6, #1394	; 0x572
 35c:	00657a69 	rsbeq	r7, r5, r9, ror #20
 360:	64616548 	strbtvs	r6, [r1], #-1352	; 0xfffffab8
 364:	73007265 	movwvc	r7, #613	; 0x265
 368:	6b636174 	blvs	18d8940 <__bss_end__+0x18cdb58>
 36c:	706f745f 	rsbvc	r7, pc, pc, asr r4	; <UNPREDICTABLE>
 370:	72616d00 	rsbvc	r6, r1, #0, 26
 374:	6c615f6b 	stclvs	15, cr5, [r1], #-428	; 0xfffffe54
 378:	6d69006c 	stclvs	0, cr0, [r9, #-432]!	; 0xfffffe50
 37c:	6d656c70 	stclvs	12, cr6, [r5, #-448]!	; 0xfffffe40
 380:	5f746e65 	svcpl	0x00746e65
 384:	73696874 	cmnvc	r9, #116, 16	; 0x740000
 388:	625f5f00 	subsvs	r5, pc, #0, 30
 38c:	735f7373 	cmpvc	pc, #-872415231	; 0xcc000001
 390:	74726174 	ldrbtvc	r6, [r2], #-372	; 0xfffffe8c
 394:	6e005f5f 	mcrvs	15, 0, r5, cr0, cr15, {2}
 398:	636f6c62 	cmnvs	pc, #25088	; 0x6200
 39c:	6900736b 	stmdbvs	r0, {r0, r1, r3, r5, r6, r8, r9, ip, sp, lr}
 3a0:	5f74696e 	svcpl	0x0074696e
 3a4:	626e0070 	rsbvs	r0, lr, #112, 0	; 0x70
 3a8:	73657479 	cmnvc	r5, #2030043136	; 0x79000000
 3ac:	6572665f 	ldrbvs	r6, [r2, #-1631]!	; 0xfffff9a1
 3b0:	6f006465 	svcvs	0x00006465
 3b4:	6d5f646c 	cfldrdvs	mvd6, [pc, #-432]	; 20c <__code_start__-0x7df4>
 3b8:	006b7261 	rsbeq	r7, fp, r1, ror #4
 3bc:	665f6b63 	ldrbvs	r6, [pc], -r3, ror #22
 3c0:	5f646e69 	svcpl	0x00646e69
 3c4:	6b61656c 	blvs	185997c <__bss_end__+0x184eb94>
 3c8:	616d0073 	smcvs	53251	; 0xd003
 3cc:	5f656279 	svcpl	0x00656279
 3d0:	6f727265 	svcvs	0x00727265
 3d4:	63007372 	movwvs	r7, #882	; 0x372
 3d8:	63675f6b 	cmnvs	r7, #428	; 0x1ac
 3dc:	6d756400 	cfldrdvs	mvd6, [r5, #-0]
 3e0:	65725f70 	ldrbvs	r5, [r2, #-3952]!	; 0xfffff090
 3e4:	6e007367 	cdpvs	3, 0, cr7, cr0, cr7, {3}
 3e8:	6b61656c 	blvs	18599a0 <__bss_end__+0x184ebb8>
 3ec:	6e690073 	mcrvs	0, 3, r0, cr9, cr3, {3}
 3f0:	6d657263 	sfmvs	f7, 2, [r5, #-396]!	; 0xfffffe74
 3f4:	00746e65 	rsbseq	r6, r4, r5, ror #28
 3f8:	61645f5f 	cmnvs	r4, pc, asr pc
 3fc:	655f6174 	ldrbvs	r6, [pc, #-372]	; 290 <__code_start__-0x7d70>
 400:	5f5f646e 	svcpl	0x005f646e
 404:	5f736900 	svcpl	0x00736900
 408:	00727470 	rsbseq	r7, r2, r0, ror r4
 40c:	6572666e 	ldrbvs	r6, [r2, #-1646]!	; 0xfffff992
 410:	69006465 	stmdbvs	r0, {r0, r2, r5, r6, sl, sp, lr}
 414:	65685f6e 	strbvs	r5, [r8, #-3950]!	; 0xfffff092
 418:	6f007061 	svcvs	0x00007061
 41c:	626d656e 	rsbvs	r6, sp, #461373440	; 0x1b800000
 420:	2d6b6300 	stclcs	3, cr6, [fp, #-0]
 424:	632e6367 			; <UNDEFINED> instruction: 0x632e6367
 428:	65686300 	strbvs	r6, [r8, #-768]!	; 0xfffffd00
 42c:	735f6b63 	cmpvc	pc, #101376	; 0x18c00
 430:	6c756f68 	ldclvs	15, cr6, [r5], #-416	; 0xfffffe60
 434:	656c5f64 	strbvs	r5, [ip, #-3940]!	; 0xfffff09c
 438:	5f006b61 	svcpl	0x00006b61
 43c:	7373625f 	cmnvc	r3, #-268435451	; 0xf0000005
 440:	646e655f 	strbtvs	r6, [lr], #-1375	; 0xfffffaa1
 444:	6b005f5f 	blvs	181c8 <__bss_end__+0xd3e0>
 448:	6c6c616d 	stfvse	f6, [ip], #-436	; 0xfffffe4c
 44c:	6b00636f 	blvs	19210 <__bss_end__+0xe428>
 450:	6c6c616d 	stfvse	f6, [ip], #-436	; 0xfffffe4c
 454:	695f636f 	ldmdbvs	pc, {r0, r1, r2, r3, r5, r6, r8, r9, sp, lr}^	; <UNPREDICTABLE>
 458:	5f74696e 	svcpl	0x0074696e
 45c:	5f746573 	svcpl	0x00746573
 460:	72617473 	rsbvc	r7, r1, #1929379840	; 0x73000000
 464:	77730074 			; <UNDEFINED> instruction: 0x77730074
 468:	5f706565 	svcpl	0x00706565
 46c:	6b61656c 	blvs	1859a24 <__bss_end__+0x184ec3c>
 470:	645f5f00 	ldrbvs	r5, [pc], #-3840	; 478 <__code_start__-0x7b88>
 474:	5f617461 	svcpl	0x00617461
 478:	72617473 	rsbvc	r7, r1, #1929379840	; 0x73000000
 47c:	005f5f74 	subseq	r5, pc, r4, ror pc	; <UNPREDICTABLE>
 480:	65657773 	strbvs	r7, [r5, #-1907]!	; 0xfffff88d
 484:	72665f70 	rsbvc	r5, r6, #112, 30	; 0x1c0
 488:	77006565 	strvc	r6, [r0, -r5, ror #10]
 48c:	5f6e7261 	svcpl	0x006e7261
 490:	735f6f6e 	cmpvc	pc, #440	; 0x1b8
 494:	74726174 	ldrbtvc	r6, [r2], #-372	; 0xfffffe8c
 498:	6665725f 			; <UNDEFINED> instruction: 0x6665725f
 49c:	7300705f 	movwvc	r7, #95	; 0x5f
 4a0:	5f657a69 	svcpl	0x00657a69
 4a4:	2f2e0074 	svccs	0x002e0074
 4a8:	6362696c 	cmnvs	r2, #108, 18	; 0x1b0000
 4ac:	6d656d2f 	stclvs	13, cr6, [r5, #-188]!	; 0xffffff44
 4b0:	2e746573 	mrccs	5, 3, r6, cr4, cr3, {3}
 4b4:	552f0063 	strpl	r0, [pc, #-99]!	; 459 <__code_start__-0x7ba7>
 4b8:	73726573 	cmnvc	r2, #482344960	; 0x1cc00000
 4bc:	6c696d2f 	stclvs	13, cr6, [r9], #-188	; 0xffffff44
 4c0:	532f7365 			; <UNDEFINED> instruction: 0x532f7365
 4c4:	6372756f 	cmnvs	r2, #465567744	; 0x1bc00000
 4c8:	73632f65 	cmnvc	r3, #404	; 0x194
 4cc:	6c303432 	cfldrsvs	mvf3, [r0], #-200	; 0xffffff38
 4d0:	696c2f78 	stmdbvs	ip!, {r3, r4, r5, r6, r8, r9, sl, fp, sp}^
 4d4:	00697062 	rsbeq	r7, r9, r2, rrx
 4d8:	73677261 	cmnvc	r7, #268435462	; 0x10000006
 4dc:	5f617600 	svcpl	0x00617600
 4e0:	6e697270 	mcrvs	2, 3, r7, cr9, cr0, {3}
 4e4:	5f006b74 	svcpl	0x00006b74
 4e8:	756e675f 	strbvc	r6, [lr, #-1887]!	; 0xfffff8a1
 4ec:	61765f63 	cmnvs	r6, r3, ror #30
 4f0:	73696c5f 	cmnvc	r9, #24320	; 0x5f00
 4f4:	5f5f0074 	svcpl	0x005f0074
 4f8:	2e007061 	cdpcs	0, 0, cr7, cr0, cr1, {3}
 4fc:	62696c2f 	rsbvs	r6, r9, #12032	; 0x2f00
 500:	72702f63 	rsbsvc	r2, r0, #396	; 0x18c
 504:	6b746e69 	blvs	1d1beb0 <__bss_end__+0x1d110c8>
 508:	5f00632e 	svcpl	0x0000632e
 50c:	5f61765f 	svcpl	0x0061765f
 510:	7473696c 	ldrbtvc	r6, [r3], #-2412	; 0xfffff694
 514:	746e6900 	strbtvc	r6, [lr], #-2304	; 0xfffff700
 518:	616e7265 	cmnvs	lr, r5, ror #4
 51c:	75705f6c 	ldrbvc	r5, [r0, #-3948]!	; 0xfffff094
 520:	2e006b74 	vmovcs.16	d0[1], r6
 524:	62696c2f 	rsbvs	r6, r9, #12032	; 0x2f00
 528:	75702f63 	ldrbvc	r2, [r0, #-3939]!	; 0xfffff09d
 52c:	632e6b74 			; <UNDEFINED> instruction: 0x632e6b74
 530:	64736900 	ldrbtvs	r6, [r3], #-2304	; 0xfffff700
 534:	74696769 	strbtvc	r6, [r9], #-1897	; 0xfffff897
 538:	6e697500 	cdpvs	5, 6, cr7, cr9, cr0, {0}
 53c:	5f343674 	svcpl	0x00343674
 540:	2f2e0074 	svccs	0x002e0074
 544:	6362696c 	cmnvs	r2, #108, 18	; 0x1b0000
 548:	2d61762f 	stclcs	6, cr7, [r1, #-188]!	; 0xffffff44
 54c:	6e697270 	mcrvs	2, 3, r7, cr9, cr0, {3}
 550:	632e6b74 			; <UNDEFINED> instruction: 0x632e6b74
 554:	635f5f00 	cmpvs	pc, #0, 30
 558:	5f65646f 	svcpl	0x0065646f
 55c:	72617473 	rsbvc	r7, r1, #1929379840	; 0x73000000
 560:	005f5f74 	subseq	r5, pc, r4, ror pc	; <UNPREDICTABLE>
 564:	74646977 	strbtvc	r6, [r4], #-2423	; 0xfffff689
 568:	75700068 	ldrbvc	r0, [r0, #-104]!	; 0xffffff98
 56c:	665f6374 			; <UNDEFINED> instruction: 0x665f6374
 570:	5f5f0070 	svcpl	0x005f0070
 574:	70616568 	rsbvc	r6, r1, r8, ror #10
 578:	6174735f 	cmnvs	r4, pc, asr r3
 57c:	5f5f7472 	svcpl	0x005f7472
 580:	69707200 	ldmdbvs	r0!, {r9, ip, sp, lr}^
 584:	7465735f 	strbtvc	r7, [r5], #-863	; 0xfffffca1
 588:	74756f5f 	ldrbtvc	r6, [r5], #-3935	; 0xfffff0a1
 58c:	00747570 	rsbseq	r7, r4, r0, ror r5
 590:	5f746d66 	svcpl	0x00746d66
 594:	72617473 	rsbvc	r7, r1, #1929379840	; 0x73000000
 598:	74730074 	ldrbtvc	r0, [r3], #-116	; 0xffffff8c
 59c:	74616372 	strbtvc	r6, [r1], #-882	; 0xfffffc8e
 5a0:	72747300 	rsbsvc	r7, r4, #0, 6
 5a4:	00797063 	rsbseq	r7, r9, r3, rrx
 5a8:	5f67656e 	svcpl	0x0067656e
 5ac:	5f5f0070 	svcpl	0x005f0070
 5b0:	65646f63 	strbvs	r6, [r4, #-3939]!	; 0xfffff09d
 5b4:	646e655f 	strbtvs	r6, [lr], #-1375	; 0xfffffaa1
 5b8:	65005f5f 	strvs	r5, [r0, #-3935]	; 0xfffff0a1
 5bc:	0074696d 	rsbseq	r6, r4, sp, ror #18
 5c0:	65766572 	ldrbvs	r6, [r6, #-1394]!	; 0xfffffa8e
 5c4:	00657372 	rsbeq	r7, r5, r2, ror r3
 5c8:	63727473 	cmnvs	r2, #1929379840	; 0x73000000
 5cc:	7000706d 	andvc	r7, r0, sp, rrx
 5d0:	5f737475 	svcpl	0x00737475
 5d4:	5f007066 	svcpl	0x00007066
 5d8:	6f72705f 	svcvs	0x0072705f
 5dc:	6e655f67 	cdpvs	15, 6, cr5, cr5, cr7, {3}
 5e0:	005f5f64 	subseq	r5, pc, r4, ror #30
 5e4:	316d756e 	cmncc	sp, lr, ror #10
 5e8:	72747300 	rsbsvc	r7, r4, #0, 6
 5ec:	706d636e 	rsbvc	r6, sp, lr, ror #6
 5f0:	67697300 	strbvs	r7, [r9, -r0, lsl #6]!
 5f4:	5f64656e 	svcpl	0x0064656e
 5f8:	70720070 	rsbsvc	r0, r2, r0, ror r0
 5fc:	65725f69 	ldrbvs	r5, [r2, #-3945]!	; 0xfffff097
 600:	746f6f62 	strbtvc	r6, [pc], #-3938	; 608 <__code_start__-0x79f8>
 604:	6c656400 	cfstrdvs	mvd6, [r5], #-0
 608:	6d5f7961 	vldrvs.16	s15, [pc, #-194]	; 54e <__code_start__-0x7ab2>	; <UNPREDICTABLE>
 60c:	2f2e0073 	svccs	0x002e0073
 610:	66617473 			; <UNDEFINED> instruction: 0x66617473
 614:	72732d66 	rsbsvc	r2, r3, #6528	; 0x1980
 618:	6c632f63 	stclvs	15, cr2, [r3], #-396	; 0xfffffe74
 61c:	2d6e6165 	stfcse	f6, [lr, #-404]!	; 0xfffffe6c
 620:	6f626572 	svcvs	0x00626572
 624:	632e746f 			; <UNDEFINED> instruction: 0x632e746f
 628:	72617500 	rsbvc	r7, r1, #0, 10
 62c:	6c665f74 	stclvs	15, cr5, [r6], #-464	; 0xfffffe30
 630:	5f687375 	svcpl	0x00687375
 634:	5f007874 	svcpl	0x00007874
 638:	61747363 	cmnvs	r4, r3, ror #6
 63c:	62007472 	andvs	r7, r0, #1912602624	; 0x72000000
 640:	655f7373 	ldrbvs	r7, [pc, #-883]	; 2d5 <__code_start__-0x7d2b>
 644:	7500646e 	strvc	r6, [r0, #-1134]	; 0xfffffb92
 648:	5f747261 	svcpl	0x00747261
 64c:	74696e69 	strbtvc	r6, [r9], #-3689	; 0xfffff197
 650:	73756300 	cmnvc	r5, #0, 6
 654:	5f6d6f74 	svcpl	0x006d6f74
 658:	64616f6c 	strbtvs	r6, [r1], #-3948	; 0xfffff094
 65c:	2e007265 	cdpcs	2, 0, cr7, cr0, cr5, {3}
 660:	6174732f 	cmnvs	r4, pc, lsr #6
 664:	732d6666 			; <UNDEFINED> instruction: 0x732d6666
 668:	632f6372 			; <UNDEFINED> instruction: 0x632f6372
 66c:	72617473 	rsbvc	r7, r1, #1929379840	; 0x73000000
 670:	00632e74 	rsbeq	r2, r3, r4, ror lr
 674:	74732f2e 	ldrbtvc	r2, [r3], #-3886	; 0xfffff0d2
 678:	2d666661 	stclcs	6, cr6, [r6, #-388]!	; 0xfffffe7c
 67c:	2f637273 	svccs	0x00637273
 680:	74737563 	ldrbtvc	r7, [r3], #-1379	; 0xfffffa9d
 684:	6c2d6d6f 	stcvs	13, cr6, [sp], #-444	; 0xfffffe44
 688:	6564616f 	strbvs	r6, [r4, #-367]!	; 0xfffffe91
 68c:	00632e72 	rsbeq	r2, r3, r2, ror lr
 690:	6f626572 	svcvs	0x00626572
 694:	635f746f 	cmpvs	pc, #1862270976	; 0x6f000000
 698:	6f6c6c61 	svcvs	0x006c6c61
 69c:	50007475 	andpl	r7, r0, r5, ror r4
 6a0:	44575f4d 	ldrbmi	r5, [r7], #-3917	; 0xfffff0b3
 6a4:	5000474f 	andpl	r4, r0, pc, asr #14
 6a8:	32335455 	eorscc	r5, r3, #1426063360	; 0x55000000
 6ac:	74657300 	strbtvc	r7, [r5], #-768	; 0xfffffd00
 6b0:	6573755f 	ldrbvs	r7, [r3, #-1375]!	; 0xfffffaa1
 6b4:	656c5f72 	strbvs	r5, [ip, #-3954]!	; 0xfffff08e
 6b8:	006c6576 	rsbeq	r6, ip, r6, ror r5
 6bc:	74732f2e 	ldrbtvc	r2, [r3], #-3886	; 0xfffff0d2
 6c0:	2d666661 	stclcs	6, cr6, [r6, #-388]!	; 0xfffffe7c
 6c4:	2f637273 	svccs	0x00637273
 6c8:	6f626572 	svcvs	0x00626572
 6cc:	632e746f 			; <UNDEFINED> instruction: 0x632e746f
 6d0:	5f4d5000 	svcpl	0x004d5000
 6d4:	53534150 	cmppl	r3, #20
 6d8:	44524f57 	ldrbmi	r4, [r2], #-3927	; 0xfffff0a9
 6dc:	5f746100 	svcpl	0x00746100
 6e0:	72657375 	rsbvc	r7, r5, #-738197503	; 0xd4000001
 6e4:	76656c5f 			; <UNDEFINED> instruction: 0x76656c5f
 6e8:	50006c65 	andpl	r6, r0, r5, ror #24
 6ec:	53525f4d 	cmppl	r2, #308	; 0x134
 6f0:	575f4354 			; <UNDEFINED> instruction: 0x575f4354
 6f4:	47464352 	smlsldmi	r4, r6, r2, r3
 6f8:	4c55465f 	mrrcmi	6, 5, r4, r5, cr15
 6fc:	45525f4c 	ldrbmi	r5, [r2, #-3916]	; 0xfffff0b4
 700:	00544553 	subseq	r4, r4, r3, asr r5
 704:	525f4d50 	subspl	r4, pc, #80, 26	; 0x1400
 708:	00435453 	subeq	r5, r3, r3, asr r4
 70c:	72737063 	rsbsvc	r7, r3, #99, 0	; 0x63
 710:	76656400 	strbtvc	r6, [r5], -r0, lsl #8
 714:	7261625f 	rsbvc	r6, r1, #-268435451	; 0xf0000005
 718:	72656972 	rsbvc	r6, r5, #1867776	; 0x1c8000
 71c:	6c656400 	cfstrdvs	mvd6, [r5], #-0
 720:	735f7961 	cmpvc	pc, #1589248	; 0x184000
 724:	2e006365 	cdpcs	3, 0, cr6, cr0, cr5, {3}
 728:	6174732f 	cmnvs	r4, pc, lsr #6
 72c:	732d6666 			; <UNDEFINED> instruction: 0x732d6666
 730:	742f6372 	strtvc	r6, [pc], #-882	; 738 <__code_start__-0x78c8>
 734:	72656d69 	rsbvc	r6, r5, #6720	; 0x1a40
 738:	4700632e 	strmi	r6, [r0, -lr, lsr #6]
 73c:	32335445 	eorscc	r5, r3, #1157627904	; 0x45000000
 740:	6d697400 	cfstrdvs	mvd7, [r9, #-0]
 744:	675f7265 	ldrbvs	r7, [pc, -r5, ror #4]
 748:	755f7465 	ldrbvc	r7, [pc, #-1125]	; 2eb <__code_start__-0x7d15>
 74c:	00636573 	rsbeq	r6, r3, r3, ror r5
 750:	616c6564 	cmnvs	ip, r4, ror #10
 754:	73755f79 	cmnvc	r5, #484	; 0x1e4
 758:	6d697400 	cfstrdvs	mvd7, [r9, #-0]
 75c:	675f7265 	ldrbvs	r7, [pc, -r5, ror #4]
 760:	755f7465 	ldrbvc	r7, [pc, #-1125]	; 303 <__code_start__-0x7cfd>
 764:	5f636573 	svcpl	0x00636573
 768:	00776172 	rsbseq	r6, r7, r2, ror r1
 76c:	33747570 	cmncc	r4, #112, 10	; 0x1c000000
 770:	61620032 	cmnvs	r2, r2, lsr r0
 774:	765f6475 			; <UNDEFINED> instruction: 0x765f6475
 778:	73006c61 	movwvc	r6, #3169	; 0xc61
 77c:	00746174 	rsbseq	r6, r4, r4, ror r1
 780:	74726175 	ldrbtvc	r6, [r2], #-373	; 0xfffffe8b
 784:	6e61635f 	mcrvs	3, 3, r6, cr1, cr15, {2}
 788:	7465675f 	strbtvc	r6, [r5], #-1887	; 0xfffff8a1
 78c:	50470063 	subpl	r0, r7, r3, rrx
 790:	465f4f49 	ldrbmi	r4, [pc], -r9, asr #30
 794:	5f434e55 	svcpl	0x00434e55
 798:	5054554f 	subspl	r5, r4, pc, asr #10
 79c:	61005455 	tstvs	r0, r5, asr r4
 7a0:	705f7875 	subsvc	r7, pc, r5, ror r8	; <UNPREDICTABLE>
 7a4:	70697265 	rsbvc	r7, r9, r5, ror #4
 7a8:	75007368 	strvc	r7, [r0, #-872]	; 0xfffffc98
 7ac:	2e747261 	cdpcs	2, 7, cr7, cr4, cr1, {3}
 7b0:	61750063 	cmnvs	r5, r3, rrx
 7b4:	635f7472 	cmpvs	pc, #1912602624	; 0x72000000
 7b8:	705f6e61 	subsvc	r6, pc, r1, ror #28
 7bc:	00637475 	rsbeq	r7, r3, r5, ror r4
 7c0:	74726175 	ldrbtvc	r6, [r2], #-373	; 0xfffffe8b
 7c4:	5f78745f 	svcpl	0x0078745f
 7c8:	655f7369 	ldrbvs	r7, [pc, #-873]	; 467 <__code_start__-0x7b99>
 7cc:	7974706d 	ldmdbvc	r4!, {r0, r2, r3, r5, r6, ip, sp, lr}^
 7d0:	49504700 	ldmdbmi	r0, {r8, r9, sl, lr}^
 7d4:	55465f4f 	strbpl	r5, [r6, #-3919]	; 0xfffff0b1
 7d8:	415f434e 	cmpmi	pc, lr, asr #6
 7dc:	0030544c 	eorseq	r5, r0, ip, asr #8
 7e0:	4f495047 	svcmi	0x00495047
 7e4:	4e55465f 	mrcmi	6, 2, r4, cr5, cr15, {2}
 7e8:	4c415f43 	mcrrmi	15, 4, r5, r1, cr3
 7ec:	47003154 	smlsdmi	r0, r4, r1, r3
 7f0:	5f4f4950 	svcpl	0x004f4950
 7f4:	434e5546 	movtmi	r5, #58694	; 0xe546
 7f8:	544c415f 	strbpl	r4, [ip], #-351	; 0xfffffea1
 7fc:	50470032 	subpl	r0, r7, r2, lsr r0
 800:	465f4f49 	ldrbmi	r4, [pc], -r9, asr #30
 804:	5f434e55 	svcpl	0x00434e55
 808:	33544c41 	cmpcc	r4, #16640	; 0x4100
 80c:	49504700 	ldmdbmi	r0, {r8, r9, sl, lr}^
 810:	55465f4f 	strbpl	r5, [r6, #-3919]	; 0xfffff0b1
 814:	415f434e 	cmpmi	pc, lr, asr #6
 818:	0035544c 	eorseq	r5, r5, ip, asr #8
 81c:	6d6f682f 	stclvs	8, cr6, [pc, #-188]!	; 768 <__code_start__-0x7898>
 820:	6e652f65 	cdpvs	15, 6, cr2, cr5, cr5, {3}
 824:	72656c67 	rsbvc	r6, r5, #26368	; 0x6700
 828:	616c632f 	cmnvs	ip, pc, lsr #6
 82c:	632f7373 			; <UNDEFINED> instruction: 0x632f7373
 830:	30343273 	eorscc	r3, r4, r3, ror r2
 834:	322d786c 	eorcc	r7, sp, #108, 16	; 0x6c0000
 838:	72707332 	rsbsvc	r7, r0, #-939524096	; 0xc8000000
 83c:	62696c2f 	rsbvs	r6, r9, #12032	; 0x2f00
 840:	732f6970 			; <UNDEFINED> instruction: 0x732f6970
 844:	66666174 			; <UNDEFINED> instruction: 0x66666174
 848:	6972702d 	ldmdbvs	r2!, {r0, r2, r3, r5, ip, sp, lr}^
 84c:	65746176 	ldrbvs	r6, [r4, #-374]!	; 0xfffffe8a
 850:	75616200 	strbvc	r6, [r1, #-512]!	; 0xfffffe00
 854:	75610064 	strbvc	r0, [r1, #-100]!	; 0xffffff9c
 858:	6e655f78 	mcrvs	15, 3, r5, cr5, cr8, {3}
 85c:	656c6261 	strbvs	r6, [ip, #-609]!	; 0xfffffd9f
 860:	61750073 	cmnvs	r5, r3, ror r0
 864:	675f7472 			; <UNDEFINED> instruction: 0x675f7472
 868:	00637465 	rsbeq	r7, r3, r5, ror #8
 86c:	20554e47 	subscs	r4, r5, r7, asr #28
 870:	20393943 	eorscs	r3, r9, r3, asr #18
 874:	332e3031 			; <UNDEFINED> instruction: 0x332e3031
 878:	3220312e 	eorcc	r3, r0, #-2147483637	; 0x8000000b
 87c:	30313230 	eorscc	r3, r1, r0, lsr r2
 880:	20343238 	eorscs	r3, r4, r8, lsr r2
 884:	6c657228 	sfmvs	f7, 2, [r5], #-160	; 0xffffff60
 888:	65736165 	ldrbvs	r6, [r3, #-357]!	; 0xfffffe9b
 88c:	6d2d2029 	stcvs	0, cr2, [sp, #-164]!	; 0xffffff5c
 890:	3d757063 	ldclcc	0, cr7, [r5, #-396]!	; 0xfffffe74
 894:	316d7261 	cmncc	sp, r1, ror #4
 898:	6a363731 	bvs	d8e564 <__bss_end__+0xd8377c>
 89c:	732d667a 			; <UNDEFINED> instruction: 0x732d667a
 8a0:	746d2d20 	strbtvc	r2, [sp], #-3360	; 0xfffff2e0
 8a4:	3d656e75 	stclcc	14, cr6, [r5, #-468]!	; 0xfffffe2c
 8a8:	316d7261 	cmncc	sp, r1, ror #4
 8ac:	6a363731 	bvs	d8e578 <__bss_end__+0xd83790>
 8b0:	732d667a 			; <UNDEFINED> instruction: 0x732d667a
 8b4:	666d2d20 	strbtvs	r2, [sp], -r0, lsr #26
 8b8:	74616f6c 	strbtvc	r6, [r1], #-3948	; 0xfffff094
 8bc:	6962612d 	stmdbvs	r2!, {r0, r2, r3, r5, r8, sp, lr}^
 8c0:	666f733d 			; <UNDEFINED> instruction: 0x666f733d
 8c4:	6d2d2074 	stcvs	0, cr2, [sp, #-464]!	; 0xfffffe30
 8c8:	206d7261 	rsbcs	r7, sp, r1, ror #4
 8cc:	72616d2d 	rsbvc	r6, r1, #2880	; 0xb40
 8d0:	613d6863 	teqvs	sp, r3, ror #16
 8d4:	36766d72 			; <UNDEFINED> instruction: 0x36766d72
 8d8:	2d207a6b 	vstmdbcs	r0!, {s14-s120}
 8dc:	62646767 	rsbvs	r6, r4, #27000832	; 0x19c0000
 8e0:	674f2d20 	strbvs	r2, [pc, -r0, lsr #26]
 8e4:	74732d20 	ldrbtvc	r2, [r3], #-3360	; 0xfffff2e0
 8e8:	6e673d64 	cdpvs	13, 6, cr3, cr7, cr4, {3}
 8ec:	20393975 	eorscs	r3, r9, r5, ror r9
 8f0:	7266662d 	rsbvc	r6, r6, #47185920	; 0x2d00000
 8f4:	74736565 	ldrbtvc	r6, [r3], #-1381	; 0xfffffa9b
 8f8:	69646e61 	stmdbvs	r4!, {r0, r5, r6, r9, sl, fp, sp, lr}^
 8fc:	6300676e 	movwvs	r6, #1902	; 0x76e
 900:	006c746e 	rsbeq	r7, ip, lr, ror #8
 904:	74726175 	ldrbtvc	r6, [r2], #-373	; 0xfffffe8b
 908:	7369645f 	cmnvc	r9, #1593835520	; 0x5f000000
 90c:	656c6261 	strbvs	r6, [ip, #-609]!	; 0xfffffd9f
 910:	72617500 	rsbvc	r7, r1, #0, 10
 914:	61685f74 	smcvs	34292	; 0x85f4
 918:	61645f73 	smcvs	17907	; 0x45f3
 91c:	47006174 	smlsdxmi	r0, r4, r1, r6
 920:	5f4f4950 	svcpl	0x004f4950
 924:	434e5546 	movtmi	r5, #58694	; 0xe546
 928:	544c415f 	strbpl	r4, [ip], #-351	; 0xfffffea1
 92c:	726f0034 	rsbvc	r0, pc, #52, 0	; 0x34
 930:	336e695f 	cmncc	lr, #1556480	; 0x17c000
 934:	63730032 	cmnvs	r3, #50, 0	; 0x32
 938:	63746172 	cmnvs	r4, #-2147483620	; 0x8000001c
 93c:	61750068 	cmnvs	r5, r8, rrx
 940:	61007472 	tstvs	r0, r2, ror r4
 944:	695f646e 	ldmdbvs	pc, {r1, r2, r3, r5, r6, sl, sp, lr}^	; <UNPREDICTABLE>
 948:	0032336e 	eorseq	r3, r2, lr, ror #6
 94c:	74726175 	ldrbtvc	r6, [r2], #-373	; 0xfffffe8b
 950:	7475705f 	ldrbtvc	r7, [r5], #-95	; 0xffffffa1
 954:	50470063 	subpl	r0, r7, r3, rrx
 958:	465f4f49 	ldrbmi	r4, [pc], -r9, asr #30
 95c:	5f434e55 	svcpl	0x00434e55
 960:	55504e49 	ldrbpl	r4, [r0, #-3657]	; 0xfffff1b7
 964:	70670054 	rsbvc	r0, r7, r4, asr r0
 968:	735f6f69 	cmpvc	pc, #420	; 0x1a4
 96c:	665f7465 	ldrbvs	r7, [pc], -r5, ror #8
 970:	74636e75 	strbtvc	r6, [r3], #-3701	; 0xfffff18b
 974:	006e6f69 	rsbeq	r6, lr, r9, ror #30
 978:	33746567 	cmncc	r4, #432013312	; 0x19c00000
 97c:	6d6b0032 	stclvs	0, cr0, [fp, #-200]!	; 0xffffff38
 980:	6f6c6c61 	svcvs	0x006c6c61
 984:	65685f63 	strbvs	r5, [r8, #-3939]!	; 0xfffff09d
 988:	735f7061 	cmpvc	pc, #97, 0	; 0x61
 98c:	74726174 	ldrbtvc	r6, [r2], #-372	; 0xfffffe8c
 990:	78616d00 	stmdavc	r1!, {r8, sl, fp, sp, lr}^
 994:	79626e5f 	stmdbvc	r2!, {r0, r1, r2, r3, r4, r6, r9, sl, fp, sp, lr}^
 998:	00736574 	rsbseq	r6, r3, r4, ror r5
 99c:	6464615f 	strbtvs	r6, [r4], #-351	; 0xfffffea1
 9a0:	65680072 	strbvs	r0, [r8, #-114]!	; 0xffffff8e
 9a4:	6d5f7061 	ldclvs	0, cr7, [pc, #-388]	; 828 <__code_start__-0x77d8>
 9a8:	6b007861 	blvs	1eb34 <__bss_end__+0x13d4c>
 9ac:	65657266 	strbvs	r7, [r5, #-614]!	; 0xfffffd9a
 9b0:	6c6c615f 	stfvse	f6, [ip], #-380	; 0xfffffe84
 9b4:	756f7200 	strbvc	r7, [pc, #-512]!	; 7bc <__code_start__-0x7844>
 9b8:	7075646e 	rsbsvc	r6, r5, lr, ror #8
 9bc:	72666b00 	rsbvc	r6, r6, #0, 22
 9c0:	705f6565 	subsvc	r6, pc, r5, ror #10
 9c4:	6100706f 	tstvs	r0, pc, rrx
 9c8:	6e67696c 	vnmulvs.f16	s13, s14, s25	; <UNPREDICTABLE>
 9cc:	746e656d 	strbtvc	r6, [lr], #-1389	; 0xfffffa93
 9d0:	78616d00 	stmdavc	r1!, {r8, sl, fp, sp, lr}^
 9d4:	3233755f 	eorscc	r7, r3, #398458880	; 0x17c00000
 9d8:	656e4f00 	strbvs	r4, [lr, #-3840]!	; 0xfffff100
 9dc:	6b00424d 	blvs	11318 <__bss_end__+0x6530>
 9e0:	6c6c616d 	stfvse	f6, [ip], #-436	; 0xfffffe4c
 9e4:	685f636f 	ldmdavs	pc, {r0, r1, r2, r3, r5, r6, r8, r9, sp, lr}^	; <UNPREDICTABLE>
 9e8:	5f706165 	svcpl	0x00706165
 9ec:	00646e65 	rsbeq	r6, r4, r5, ror #28
 9f0:	6c616d6b 	stclvs	13, cr6, [r1], #-428	; 0xfffffe54
 9f4:	5f636f6c 	svcpl	0x00636f6c
 9f8:	7a746f6e 	bvc	1d1c7b8 <__bss_end__+0x1d119d0>
 9fc:	006f7265 	rsbeq	r7, pc, r5, ror #4
 a00:	705f7369 	subsvc	r7, pc, r9, ror #6
 a04:	0032776f 	eorseq	r7, r2, pc, ror #14
 a08:	6c616d6b 	stclvs	13, cr6, [r1], #-428	; 0xfffffe54
 a0c:	2e636f6c 	cdpcs	15, 6, cr6, cr3, cr12, {3}
 a10:	6d6b0063 	stclvs	0, cr0, [fp, #-396]!	; 0xfffffe74
 a14:	6f6c6c61 	svcvs	0x006c6c61
 a18:	6e695f63 	cdpvs	15, 6, cr5, cr9, cr3, {3}
 a1c:	69007469 	stmdbvs	r0, {r0, r3, r5, r6, sl, ip, sp, lr}
 a20:	6c615f73 	stclvs	15, cr5, [r1], #-460	; 0xfffffe34
 a24:	656e6769 	strbvs	r6, [lr, #-1897]!	; 0xfffff897
 a28:	6d6b0064 	stclvs	0, cr0, [fp, #-400]!	; 0xfffffe70
 a2c:	6f6c6c61 	svcvs	0x006c6c61
 a30:	65685f63 	strbvs	r5, [r8, #-3939]!	; 0xfffff09d
 a34:	705f7061 	subsvc	r7, pc, r1, rrx
 a38:	72007274 	andvc	r7, r0, #116, 4	; 0x40000007
 a3c:	725f6970 	subsvc	r6, pc, #112, 18	; 0x1c0000
 a40:	74657365 	strbtvc	r7, [r5], #-869	; 0xfffffc9b
 a44:	7475705f 	ldrbtvc	r7, [r5], #-95	; 0xffffffa1
 a48:	6d6b0063 	stclvs	0, cr0, [fp, #-396]!	; 0xfffffe74
 a4c:	6f6c6c61 	svcvs	0x006c6c61
 a50:	6c615f63 	stclvs	15, cr5, [r1], #-396	; 0xfffffe74
 a54:	656e6769 	strbvs	r6, [lr, #-1897]!	; 0xfffff897
 a58:	70670064 	rsbvc	r0, r7, r4, rrx
 a5c:	635f6f69 	cmpvs	pc, #420	; 0x1a4
 a60:	0030726c 	eorseq	r7, r0, ip, ror #4
 a64:	6f697067 	svcvs	0x00697067
 a68:	7465735f 	strbtvc	r7, [r5], #-863	; 0xfffffca1
 a6c:	70670030 	rsbvc	r0, r7, r0, lsr r0
 a70:	775f6f69 	ldrbvc	r6, [pc, -r9, ror #30]
 a74:	65746972 	ldrbvs	r6, [r4, #-2418]!	; 0xfffff68e
 a78:	56454400 	strbpl	r4, [r5], -r0, lsl #8
 a7c:	4c41565f 	mcrrmi	6, 5, r5, r1, cr15
 a80:	67003233 	smladxvs	r0, r3, r2, r3
 a84:	5f6f6970 	svcpl	0x006f6970
 a88:	64616572 	strbtvs	r6, [r1], #-1394	; 0xfffffa8e
 a8c:	732f2e00 			; <UNDEFINED> instruction: 0x732f2e00
 a90:	672f6372 			; <UNDEFINED> instruction: 0x672f6372
 a94:	2e6f6970 			; <UNDEFINED> instruction: 0x2e6f6970
 a98:	70670063 	rsbvc	r0, r7, r3, rrx
 a9c:	735f6f69 	cmpvc	pc, #420	; 0x1a4
 aa0:	695f7465 	ldmdbvs	pc, {r0, r2, r5, r6, sl, ip, sp, lr}^	; <UNPREDICTABLE>
 aa4:	7475706e 	ldrbtvc	r7, [r5], #-110	; 0xffffff92
 aa8:	69706700 	ldmdbvs	r0!, {r8, r9, sl, sp, lr}^
 aac:	65735f6f 	ldrbvs	r5, [r3, #-3951]!	; 0xfffff091
 ab0:	666f5f74 	uqsub16vs	r5, pc, r4	; <UNPREDICTABLE>
 ab4:	70670066 	rsbvc	r0, r7, r6, rrx
 ab8:	735f6f69 	cmpvc	pc, #420	; 0x1a4
 abc:	6f5f7465 	svcvs	0x005f7465
 ac0:	75707475 	ldrbvc	r7, [r0, #-1141]!	; 0xfffffb8b
 ac4:	70670074 	rsbvc	r0, r7, r4, ror r0
 ac8:	665f6f69 	ldrbvs	r6, [pc], -r9, ror #30
 acc:	5f636e75 	svcpl	0x00636e75
 ad0:	70670074 	rsbvc	r0, r7, r4, ror r0
 ad4:	6c5f6f69 	mrrcvs	15, 6, r6, pc, cr9	; <UNPREDICTABLE>
 ad8:	00307665 	eorseq	r7, r0, r5, ror #12
 adc:	6b6e6162 	blvs	1b9906c <__bss_end__+0x1b8e284>
 ae0:	69706700 	ldmdbvs	r0!, {r8, r9, sl, sp, lr}^
 ae4:	65735f6f 	ldrbvs	r5, [r3, #-3951]!	; 0xfffff091
 ae8:	6e6f5f74 	mcrvs	15, 3, r5, cr15, cr4, {3}
 aec:	746e6900 	strbtvc	r6, [lr], #-2304	; 0xfffff700
 af0:	616e7265 	cmnvs	lr, r5, ror #4
 af4:	75705f6c 	ldrbvc	r5, [r0, #-3948]!	; 0xfffff094
 af8:	61686374 	smcvs	34356	; 0x8634
 afc:	70720072 	rsbsvc	r0, r2, r2, ror r0
 b00:	65735f69 	ldrbvs	r5, [r3, #-3945]!	; 0xfffff097
 b04:	75705f74 	ldrbvc	r5, [r0, #-3956]!	; 0xfffff08c
 b08:	2e006374 	mcrcs	3, 0, r6, cr0, cr4, {3}
 b0c:	62696c2f 	rsbvs	r6, r9, #12032	; 0x2f00
 b10:	75702f63 	ldrbvc	r2, [r0, #-3939]!	; 0xfffff09d
 b14:	61686374 	smcvs	34356	; 0x8634
 b18:	00632e72 	rsbeq	r2, r3, r2, ror lr
 b1c:	696c2f2e 	stmdbvs	ip!, {r1, r2, r3, r5, r8, r9, sl, fp, sp}^
 b20:	732f6362 			; <UNDEFINED> instruction: 0x732f6362
 b24:	61637274 	smcvs	14116	; 0x3724
 b28:	00632e74 	rsbeq	r2, r3, r4, ror lr
 b2c:	74736564 	ldrbtvc	r6, [r3], #-1380	; 0xfffffa9c
 b30:	6c2f2e00 	stcvs	14, cr2, [pc], #-0	; b38 <__code_start__-0x74c8>
 b34:	2f636269 	svccs	0x00636269
 b38:	63727473 	cmnvs	r2, #1929379840	; 0x73000000
 b3c:	632e706d 			; <UNDEFINED> instruction: 0x632e706d
 b40:	6c2f2e00 	stcvs	14, cr2, [pc], #-0	; b48 <__code_start__-0x74b8>
 b44:	2f636269 	svccs	0x00636269
 b48:	63727473 	cmnvs	r2, #1929379840	; 0x73000000
 b4c:	632e7970 			; <UNDEFINED> instruction: 0x632e7970
 b50:	6c2f2e00 	stcvs	14, cr2, [pc], #-0	; b58 <__code_start__-0x74a8>
 b54:	2f636269 	svccs	0x00636269
 b58:	6e727473 	mrcvs	4, 3, r7, cr2, cr3, {3}
 b5c:	2e706d63 	cdpcs	13, 7, cr6, cr0, cr3, {3}
 b60:	2f2e0063 	svccs	0x002e0063
 b64:	66617473 			; <UNDEFINED> instruction: 0x66617473
 b68:	72732d66 	rsbsvc	r2, r3, #6528	; 0x1980
 b6c:	65642f63 	strbvs	r2, [r4, #-3939]!	; 0xfffff09d
 b70:	6c756166 	ldfvse	f6, [r5], #-408	; 0xfffffe68
 b74:	65722d74 	ldrbvs	r2, [r2, #-3444]!	; 0xfffff28c
 b78:	746f6f62 	strbtvc	r6, [pc], #-3938	; b80 <__code_start__-0x7480>
 b7c:	6c61632d 	stclvs	3, cr6, [r1], #-180	; 0xffffff4c
 b80:	74756f6c 	ldrbtvc	r6, [r5], #-3948	; 0xfffff094
 b84:	Address 0x0000000000000b84 is out of bounds.


Disassembly of section .debug_frame:

00000000 <.debug_frame>:
   0:	0000000c 	andeq	r0, r0, ip
   4:	ffffffff 			; <UNDEFINED> instruction: 0xffffffff
   8:	7c020001 	stcvc	0, cr0, [r2], {1}
   c:	000d0c0e 	andeq	r0, sp, lr, lsl #24
  10:	0000002c 	andeq	r0, r0, ip, lsr #32
  14:	00000000 	andeq	r0, r0, r0
  18:	00008038 	andeq	r8, r0, r8, lsr r0
  1c:	000000dc 	ldrdeq	r0, [r0], -ip
  20:	84240e42 	strthi	r0, [r4], #-3650	; 0xfffff1be
  24:	86088509 	strhi	r8, [r8], -r9, lsl #10
  28:	88068707 	stmdahi	r6, {r0, r1, r2, r8, r9, sl, pc}
  2c:	8a048905 	bhi	122448 <__bss_end__+0x117660>
  30:	8e028b03 	vmlahi.f64	d8, d2, d3
  34:	400e4801 	andmi	r4, lr, r1, lsl #16
  38:	0e0a4a02 	vmlaeq.f32	s8, s20, s4
  3c:	000b4224 	andeq	r4, fp, r4, lsr #4
  40:	00000018 	andeq	r0, r0, r8, lsl r0
  44:	00000000 	andeq	r0, r0, r0
  48:	00008114 	andeq	r8, r0, r4, lsl r1
  4c:	0000002c 	andeq	r0, r0, ip, lsr #32
  50:	84080e42 	strhi	r0, [r8], #-3650	; 0xfffff1be
  54:	48018e02 	stmdami	r1, {r1, r9, sl, fp, pc}
  58:	000ec4ce 	andeq	ip, lr, lr, asr #9
  5c:	0000000c 	andeq	r0, r0, ip
  60:	ffffffff 			; <UNDEFINED> instruction: 0xffffffff
  64:	7c020001 	stcvc	0, cr0, [r2], {1}
  68:	000d0c0e 	andeq	r0, sp, lr, lsl #24
  6c:	0000000c 	andeq	r0, r0, ip
  70:	0000005c 	andeq	r0, r0, ip, asr r0
  74:	00008140 	andeq	r8, r0, r0, asr #2
  78:	00000010 	andeq	r0, r0, r0, lsl r0
  7c:	0000000c 	andeq	r0, r0, ip
  80:	0000005c 	andeq	r0, r0, ip, asr r0
  84:	00008150 	andeq	r8, r0, r0, asr r1
  88:	0000000c 	andeq	r0, r0, ip
  8c:	0000000c 	andeq	r0, r0, ip
  90:	0000005c 	andeq	r0, r0, ip, asr r0
  94:	0000815c 	andeq	r8, r0, ip, asr r1
  98:	00000008 	andeq	r0, r0, r8
  9c:	0000000c 	andeq	r0, r0, ip
  a0:	0000005c 	andeq	r0, r0, ip, asr r0
  a4:	00008164 	andeq	r8, r0, r4, ror #2
  a8:	00000010 	andeq	r0, r0, r0, lsl r0
  ac:	0000000c 	andeq	r0, r0, ip
  b0:	0000005c 	andeq	r0, r0, ip, asr r0
  b4:	00008174 	andeq	r8, r0, r4, ror r1
  b8:	00000024 	andeq	r0, r0, r4, lsr #32
  bc:	00000014 	andeq	r0, r0, r4, lsl r0
  c0:	0000005c 	andeq	r0, r0, ip, asr r0
  c4:	00008198 	muleq	r0, r8, r1
  c8:	00000078 	andeq	r0, r0, r8, ror r0
  cc:	84080e44 	strhi	r0, [r8], #-3652	; 0xfffff1bc
  d0:	00018e02 	andeq	r8, r1, r2, lsl #28
  d4:	00000030 	andeq	r0, r0, r0, lsr r0
  d8:	0000005c 	andeq	r0, r0, ip, asr r0
  dc:	00008210 	andeq	r8, r0, r0, lsl r2
  e0:	00000194 	muleq	r0, r4, r1
  e4:	84180e42 	ldrhi	r0, [r8], #-3650	; 0xfffff1be
  e8:	86058506 	strhi	r8, [r5], -r6, lsl #10
  ec:	88038704 	stmdahi	r3, {r2, r8, r9, sl, pc}
  f0:	44018e02 	strmi	r8, [r1], #-3586	; 0xfffff1fe
  f4:	8002300e 	andhi	r3, r2, lr
  f8:	42180e0a 	andsmi	r0, r8, #160	; 0xa0
  fc:	c6c7c8ce 	strbgt	ip, [r7], lr, asr #17
 100:	000ec4c5 	andeq	ip, lr, r5, asr #9
 104:	00000b42 	andeq	r0, r0, r2, asr #22
 108:	00000020 	andeq	r0, r0, r0, lsr #32
 10c:	0000005c 	andeq	r0, r0, ip, asr r0
 110:	000083a4 	andeq	r8, r0, r4, lsr #7
 114:	0000008c 	andeq	r0, r0, ip, lsl #1
 118:	84100e42 	ldrhi	r0, [r0], #-3650	; 0xfffff1be
 11c:	86038504 	strhi	r8, [r3], -r4, lsl #10
 120:	42018e02 	andmi	r8, r1, #2, 28
 124:	0e7a200e 	cdpeq	0, 7, cr2, cr10, cr14, {0}
 128:	00000010 	andeq	r0, r0, r0, lsl r0
 12c:	0000000c 	andeq	r0, r0, ip
 130:	ffffffff 			; <UNDEFINED> instruction: 0xffffffff
 134:	7c020001 	stcvc	0, cr0, [r2], {1}
 138:	000d0c0e 	andeq	r0, sp, lr, lsl #24
 13c:	00000014 	andeq	r0, r0, r4, lsl r0
 140:	0000012c 	andeq	r0, r0, ip, lsr #2
 144:	00008430 	andeq	r8, r0, r0, lsr r4
 148:	00000088 	andeq	r0, r0, r8, lsl #1
 14c:	84080e42 	strhi	r0, [r8], #-3650	; 0xfffff1be
 150:	00018e02 	andeq	r8, r1, r2, lsl #28
 154:	0000001c 	andeq	r0, r0, ip, lsl r0
 158:	0000012c 	andeq	r0, r0, ip, lsr #2
 15c:	000084b8 			; <UNDEFINED> instruction: 0x000084b8
 160:	00000100 	andeq	r0, r0, r0, lsl #2
 164:	84180e42 	ldrhi	r0, [r8], #-3650	; 0xfffff1be
 168:	86058506 	strhi	r8, [r5], -r6, lsl #10
 16c:	88038704 	stmdahi	r3, {r2, r8, r9, sl, pc}
 170:	00018e02 	andeq	r8, r1, r2, lsl #28
 174:	0000000c 	andeq	r0, r0, ip
 178:	ffffffff 			; <UNDEFINED> instruction: 0xffffffff
 17c:	7c020001 	stcvc	0, cr0, [r2], {1}
 180:	000d0c0e 	andeq	r0, sp, lr, lsl #24
 184:	0000002c 	andeq	r0, r0, ip, lsr #32
 188:	00000174 	andeq	r0, r0, r4, ror r1
 18c:	000085b8 			; <UNDEFINED> instruction: 0x000085b8
 190:	0000015c 	andeq	r0, r0, ip, asr r1
 194:	84240e42 	strthi	r0, [r4], #-3650	; 0xfffff1be
 198:	86088509 	strhi	r8, [r8], -r9, lsl #10
 19c:	88068707 	stmdahi	r6, {r0, r1, r2, r8, r9, sl, pc}
 1a0:	8a048905 	bhi	1225bc <__bss_end__+0x1177d4>
 1a4:	8e028b03 	vmlahi.f64	d8, d2, d3
 1a8:	300e4801 	andcc	r4, lr, r1, lsl #16
 1ac:	0e0a6402 	cdpeq	4, 0, cr6, cr10, cr2, {0}
 1b0:	000b4224 	andeq	r4, fp, r4, lsr #4
 1b4:	0000001c 	andeq	r0, r0, ip, lsl r0
 1b8:	00000174 	andeq	r0, r0, r4, ror r1
 1bc:	00008714 	andeq	r8, r0, r4, lsl r7
 1c0:	000000a4 	andeq	r0, r0, r4, lsr #1
 1c4:	84080e42 	strhi	r0, [r8], #-3650	; 0xfffff1be
 1c8:	42018e02 	andmi	r8, r1, #2, 28
 1cc:	4202480e 	andmi	r4, r2, #917504	; 0xe0000
 1d0:	0000080e 	andeq	r0, r0, lr, lsl #16
 1d4:	00000020 	andeq	r0, r0, r0, lsr #32
 1d8:	00000174 	andeq	r0, r0, r4, ror r1
 1dc:	000087b8 			; <UNDEFINED> instruction: 0x000087b8
 1e0:	00000120 	andeq	r0, r0, r0, lsr #2
 1e4:	84200e42 	strthi	r0, [r0], #-3650	; 0xfffff1be
 1e8:	86078508 	strhi	r8, [r7], -r8, lsl #10
 1ec:	88058706 	stmdahi	r5, {r1, r2, r8, r9, sl, pc}
 1f0:	8a038904 	bhi	e2608 <__bss_end__+0xd7820>
 1f4:	00018e02 	andeq	r8, r1, r2, lsl #28
 1f8:	00000024 	andeq	r0, r0, r4, lsr #32
 1fc:	00000174 	andeq	r0, r0, r4, ror r1
 200:	000088d8 	ldrdeq	r8, [r0], -r8	; <UNPREDICTABLE>
 204:	0000009c 	muleq	r0, ip, r0
 208:	840c0e42 	strhi	r0, [ip], #-3650	; 0xfffff1be
 20c:	8e028503 	cfsh32hi	mvfx8, mvfx2, #3
 210:	180e4401 	stmdane	lr, {r0, sl, lr}
 214:	0c0e0a5c 			; <UNDEFINED> instruction: 0x0c0e0a5c
 218:	c4c5ce42 	strbgt	ip, [r5], #3650	; 0xe42
 21c:	0b42000e 	bleq	108025c <__bss_end__+0x1075474>
 220:	0000000c 	andeq	r0, r0, ip
 224:	00000174 	andeq	r0, r0, r4, ror r1
 228:	00008974 	andeq	r8, r0, r4, ror r9
 22c:	00000004 	andeq	r0, r0, r4
 230:	00000014 	andeq	r0, r0, r4, lsl r0
 234:	00000174 	andeq	r0, r0, r4, ror r1
 238:	00008978 	andeq	r8, r0, r8, ror r9
 23c:	00000048 	andeq	r0, r0, r8, asr #32
 240:	84080e42 	strhi	r0, [r8], #-3650	; 0xfffff1be
 244:	00018e02 	andeq	r8, r1, r2, lsl #28
 248:	00000014 	andeq	r0, r0, r4, lsl r0
 24c:	00000174 	andeq	r0, r0, r4, ror r1
 250:	000089c0 	andeq	r8, r0, r0, asr #19
 254:	00000050 	andeq	r0, r0, r0, asr r0
 258:	84080e42 	strhi	r0, [r8], #-3650	; 0xfffff1be
 25c:	00018e02 	andeq	r8, r1, r2, lsl #28
 260:	0000002c 	andeq	r0, r0, ip, lsr #32
 264:	00000174 	andeq	r0, r0, r4, ror r1
 268:	00008a10 	andeq	r8, r0, r0, lsl sl
 26c:	00000100 	andeq	r0, r0, r0, lsl #2
 270:	84240e42 	strthi	r0, [r4], #-3650	; 0xfffff1be
 274:	86088509 	strhi	r8, [r8], -r9, lsl #10
 278:	88068707 	stmdahi	r6, {r0, r1, r2, r8, r9, sl, pc}
 27c:	8a048905 	bhi	122698 <__bss_end__+0x1178b0>
 280:	8e028b03 	vmlahi.f64	d8, d2, d3
 284:	380e4201 	stmdacc	lr, {r0, r9, lr}
 288:	240e0a7c 	strcs	r0, [lr], #-2684	; 0xfffff584
 28c:	00000b42 	andeq	r0, r0, r2, asr #22
 290:	00000014 	andeq	r0, r0, r4, lsl r0
 294:	00000174 	andeq	r0, r0, r4, ror r1
 298:	00008b10 	andeq	r8, r0, r0, lsl fp
 29c:	0000002c 	andeq	r0, r0, ip, lsr #32
 2a0:	84080e42 	strhi	r0, [r8], #-3650	; 0xfffff1be
 2a4:	00018e02 	andeq	r8, r1, r2, lsl #28
 2a8:	0000000c 	andeq	r0, r0, ip
 2ac:	ffffffff 			; <UNDEFINED> instruction: 0xffffffff
 2b0:	7c020001 	stcvc	0, cr0, [r2], {1}
 2b4:	000d0c0e 	andeq	r0, sp, lr, lsl #24
 2b8:	00000014 	andeq	r0, r0, r4, lsl r0
 2bc:	000002a8 	andeq	r0, r0, r8, lsr #5
 2c0:	00008b44 	andeq	r8, r0, r4, asr #22
 2c4:	00000078 	andeq	r0, r0, r8, ror r0
 2c8:	84080e42 	strhi	r0, [r8], #-3650	; 0xfffff1be
 2cc:	00018e02 	andeq	r8, r1, r2, lsl #28
 2d0:	0000000c 	andeq	r0, r0, ip
 2d4:	ffffffff 			; <UNDEFINED> instruction: 0xffffffff
 2d8:	7c020001 	stcvc	0, cr0, [r2], {1}
 2dc:	000d0c0e 	andeq	r0, sp, lr, lsl #24
 2e0:	00000034 	andeq	r0, r0, r4, lsr r0
 2e4:	000002d0 	ldrdeq	r0, [r0], -r0	; <UNPREDICTABLE>
 2e8:	00008bbc 			; <UNDEFINED> instruction: 0x00008bbc
 2ec:	00000058 	andeq	r0, r0, r8, asr r0
 2f0:	80100e42 	andshi	r0, r0, r2, asr #28
 2f4:	82038104 	andhi	r8, r3, #1
 2f8:	42018302 	andmi	r8, r1, #134217728	; 0x8000000
 2fc:	07841c0e 	streq	r1, [r4, lr, lsl #24]
 300:	058e0685 	streq	r0, [lr, #1669]	; 0x685
 304:	5a280e44 	bpl	a03c1c <__bss_end__+0x9f8e34>
 308:	ce421c0e 	cdpgt	12, 4, cr1, cr2, cr14, {0}
 30c:	100ec4c5 	andne	ip, lr, r5, asr #9
 310:	c1c2c342 	bicgt	ip, r2, r2, asr #6
 314:	00000ec0 	andeq	r0, r0, r0, asr #29
 318:	0000000c 	andeq	r0, r0, ip
 31c:	ffffffff 			; <UNDEFINED> instruction: 0xffffffff
 320:	7c020001 	stcvc	0, cr0, [r2], {1}
 324:	000d0c0e 	andeq	r0, sp, lr, lsl #24
 328:	00000018 	andeq	r0, r0, r8, lsl r0
 32c:	00000318 	andeq	r0, r0, r8, lsl r3
 330:	00008c14 	andeq	r8, r0, r4, lsl ip
 334:	00000038 	andeq	r0, r0, r8, lsr r0
 338:	84100e42 	ldrhi	r0, [r0], #-3650	; 0xfffff1be
 33c:	86038504 	strhi	r8, [r3], -r4, lsl #10
 340:	00018e02 	andeq	r8, r1, r2, lsl #28
 344:	0000000c 	andeq	r0, r0, ip
 348:	ffffffff 			; <UNDEFINED> instruction: 0xffffffff
 34c:	7c020001 	stcvc	0, cr0, [r2], {1}
 350:	000d0c0e 	andeq	r0, sp, lr, lsl #24
 354:	0000002c 	andeq	r0, r0, ip, lsr #32
 358:	00000344 	andeq	r0, r0, r4, asr #6
 35c:	00008c4c 	andeq	r8, r0, ip, asr #24
 360:	00000328 	andeq	r0, r0, r8, lsr #6
 364:	84180e42 	ldrhi	r0, [r8], #-3650	; 0xfffff1be
 368:	86058506 	strhi	r8, [r5], -r6, lsl #10
 36c:	88038704 	stmdahi	r3, {r2, r8, r9, sl, pc}
 370:	46018e02 	strmi	r8, [r1], -r2, lsl #28
 374:	c002600e 	andgt	r6, r2, lr
 378:	42180e0a 	andsmi	r0, r8, #160	; 0xa0
 37c:	0a8e020b 	beq	fe380bb0 <__bss_end__+0xfe375dc8>
 380:	0b42180e 	bleq	10863c0 <__bss_end__+0x107b5d8>
 384:	00000014 	andeq	r0, r0, r4, lsl r0
 388:	00000344 	andeq	r0, r0, r4, asr #6
 38c:	00008f74 	andeq	r8, r0, r4, ror pc
 390:	00000060 	andeq	r0, r0, r0, rrx
 394:	8e040e52 	mcrhi	14, 0, r0, cr4, cr2, {2}
 398:	100e4401 	andne	r4, lr, r1, lsl #8
 39c:	0000002c 	andeq	r0, r0, ip, lsr #32
 3a0:	00000344 	andeq	r0, r0, r4, asr #6
 3a4:	00008fd4 	ldrdeq	r8, [r0], -r4
 3a8:	0000062c 	andeq	r0, r0, ip, lsr #12
 3ac:	84240e42 	strthi	r0, [r4], #-3650	; 0xfffff1be
 3b0:	86088509 	strhi	r8, [r8], -r9, lsl #10
 3b4:	88068707 	stmdahi	r6, {r0, r1, r2, r8, r9, sl, pc}
 3b8:	8a048905 	bhi	1227d4 <__bss_end__+0x1179ec>
 3bc:	8e028b03 	vmlahi.f64	d8, d2, d3
 3c0:	c00e5201 	andgt	r5, lr, r1, lsl #4
 3c4:	0a860202 	beq	fe180bd4 <__bss_end__+0xfe175dec>
 3c8:	0b42240e 	bleq	1089408 <__bss_end__+0x107e620>
 3cc:	0000000c 	andeq	r0, r0, ip
 3d0:	ffffffff 			; <UNDEFINED> instruction: 0xffffffff
 3d4:	7c020001 	stcvc	0, cr0, [r2], {1}
 3d8:	000d0c0e 	andeq	r0, sp, lr, lsl #24
 3dc:	00000014 	andeq	r0, r0, r4, lsl r0
 3e0:	000003cc 	andeq	r0, r0, ip, asr #7
 3e4:	00009600 	andeq	r9, r0, r0, lsl #12
 3e8:	0000002c 	andeq	r0, r0, ip, lsr #32
 3ec:	84080e44 	strhi	r0, [r8], #-3652	; 0xfffff1bc
 3f0:	00018e02 	andeq	r8, r1, r2, lsl #28
 3f4:	0000000c 	andeq	r0, r0, ip
 3f8:	ffffffff 			; <UNDEFINED> instruction: 0xffffffff
 3fc:	7c020001 	stcvc	0, cr0, [r2], {1}
 400:	000d0c0e 	andeq	r0, sp, lr, lsl #24
 404:	00000018 	andeq	r0, r0, r8, lsl r0
 408:	000003f4 	strdeq	r0, [r0], -r4
 40c:	0000962c 	andeq	r9, r0, ip, lsr #12
 410:	000000f8 	strdeq	r0, [r0], -r8
 414:	84100e42 	ldrhi	r0, [r0], #-3650	; 0xfffff1be
 418:	86038504 	strhi	r8, [r3], -r4, lsl #10
 41c:	00018e02 	andeq	r8, r1, r2, lsl #28
 420:	0000000c 	andeq	r0, r0, ip
 424:	ffffffff 			; <UNDEFINED> instruction: 0xffffffff
 428:	7c020001 	stcvc	0, cr0, [r2], {1}
 42c:	000d0c0e 	andeq	r0, sp, lr, lsl #24
 430:	0000000c 	andeq	r0, r0, ip
 434:	00000420 	andeq	r0, r0, r0, lsr #8
 438:	00009724 	andeq	r9, r0, r4, lsr #14
 43c:	00000004 	andeq	r0, r0, r4
 440:	0000000c 	andeq	r0, r0, ip
 444:	ffffffff 			; <UNDEFINED> instruction: 0xffffffff
 448:	7c020001 	stcvc	0, cr0, [r2], {1}
 44c:	000d0c0e 	andeq	r0, sp, lr, lsl #24
 450:	0000000c 	andeq	r0, r0, ip
 454:	00000440 	andeq	r0, r0, r0, asr #8
 458:	00009728 	andeq	r9, r0, r8, lsr #14
 45c:	00000018 	andeq	r0, r0, r8, lsl r0
 460:	0000000c 	andeq	r0, r0, ip
 464:	00000440 	andeq	r0, r0, r0, asr #8
 468:	00009740 	andeq	r9, r0, r0, asr #14
 46c:	00000014 	andeq	r0, r0, r4, lsl r0
 470:	00000014 	andeq	r0, r0, r4, lsl r0
 474:	00000440 	andeq	r0, r0, r0, asr #8
 478:	00009754 	andeq	r9, r0, r4, asr r7
 47c:	00000060 	andeq	r0, r0, r0, rrx
 480:	84080e42 	strhi	r0, [r8], #-3650	; 0xfffff1be
 484:	00018e02 	andeq	r8, r1, r2, lsl #28
 488:	0000000c 	andeq	r0, r0, ip
 48c:	ffffffff 			; <UNDEFINED> instruction: 0xffffffff
 490:	7c020001 	stcvc	0, cr0, [r2], {1}
 494:	000d0c0e 	andeq	r0, sp, lr, lsl #24
 498:	0000000c 	andeq	r0, r0, ip
 49c:	00000488 	andeq	r0, r0, r8, lsl #9
 4a0:	000097b4 			; <UNDEFINED> instruction: 0x000097b4
 4a4:	0000000c 	andeq	r0, r0, ip
 4a8:	00000014 	andeq	r0, r0, r4, lsl r0
 4ac:	00000488 	andeq	r0, r0, r8, lsl #9
 4b0:	000097c0 	andeq	r9, r0, r0, asr #15
 4b4:	00000024 	andeq	r0, r0, r4, lsr #32
 4b8:	84080e42 	strhi	r0, [r8], #-3650	; 0xfffff1be
 4bc:	00018e02 	andeq	r8, r1, r2, lsl #28
 4c0:	0000001c 	andeq	r0, r0, ip, lsl r0
 4c4:	00000488 	andeq	r0, r0, r8, lsl #9
 4c8:	000097e4 	andeq	r9, r0, r4, ror #15
 4cc:	00000048 	andeq	r0, r0, r8, asr #32
 4d0:	84180e42 	ldrhi	r0, [r8], #-3650	; 0xfffff1be
 4d4:	86058506 	strhi	r8, [r5], -r6, lsl #10
 4d8:	88038704 	stmdahi	r3, {r2, r8, r9, sl, pc}
 4dc:	00018e02 	andeq	r8, r1, r2, lsl #28
 4e0:	0000001c 	andeq	r0, r0, ip, lsl r0
 4e4:	00000488 	andeq	r0, r0, r8, lsl #9
 4e8:	0000982c 	andeq	r9, r0, ip, lsr #16
 4ec:	00000050 	andeq	r0, r0, r0, asr r0
 4f0:	84180e42 	ldrhi	r0, [r8], #-3650	; 0xfffff1be
 4f4:	86058506 	strhi	r8, [r5], -r6, lsl #10
 4f8:	88038704 	stmdahi	r3, {r2, r8, r9, sl, pc}
 4fc:	00018e02 	andeq	r8, r1, r2, lsl #28
 500:	0000001c 	andeq	r0, r0, ip, lsl r0
 504:	00000488 	andeq	r0, r0, r8, lsl #9
 508:	0000987c 	andeq	r9, r0, ip, ror r8
 50c:	00000054 	andeq	r0, r0, r4, asr r0
 510:	84180e42 	ldrhi	r0, [r8], #-3650	; 0xfffff1be
 514:	86058506 	strhi	r8, [r5], -r6, lsl #10
 518:	88038704 	stmdahi	r3, {r2, r8, r9, sl, pc}
 51c:	00018e02 	andeq	r8, r1, r2, lsl #28
 520:	0000000c 	andeq	r0, r0, ip
 524:	ffffffff 			; <UNDEFINED> instruction: 0xffffffff
 528:	7c020001 	stcvc	0, cr0, [r2], {1}
 52c:	000d0c0e 	andeq	r0, sp, lr, lsl #24
 530:	00000018 	andeq	r0, r0, r8, lsl r0
 534:	00000520 	andeq	r0, r0, r0, lsr #10
 538:	000098d0 	ldrdeq	r9, [r0], -r0
 53c:	00000020 	andeq	r0, r0, r0, lsr #32
 540:	84100e42 	ldrhi	r0, [r0], #-3650	; 0xfffff1be
 544:	86038504 	strhi	r8, [r3], -r4, lsl #10
 548:	00018e02 	andeq	r8, r1, r2, lsl #28
 54c:	00000018 	andeq	r0, r0, r8, lsl r0
 550:	00000520 	andeq	r0, r0, r0, lsr #10
 554:	000098f0 	strdeq	r9, [r0], -r0
 558:	00000020 	andeq	r0, r0, r0, lsr #32
 55c:	84100e42 	ldrhi	r0, [r0], #-3650	; 0xfffff1be
 560:	86038504 	strhi	r8, [r3], -r4, lsl #10
 564:	00018e02 	andeq	r8, r1, r2, lsl #28
 568:	00000014 	andeq	r0, r0, r4, lsl r0
 56c:	00000520 	andeq	r0, r0, r0, lsr #10
 570:	00009910 	andeq	r9, r0, r0, lsl r9
 574:	000000b0 	strheq	r0, [r0], -r0	; <UNPREDICTABLE>
 578:	84080e42 	strhi	r0, [r8], #-3650	; 0xfffff1be
 57c:	00018e02 	andeq	r8, r1, r2, lsl #28
 580:	00000014 	andeq	r0, r0, r4, lsl r0
 584:	00000520 	andeq	r0, r0, r0, lsr #10
 588:	000099c0 	andeq	r9, r0, r0, asr #19
 58c:	00000018 	andeq	r0, r0, r8, lsl r0
 590:	84080e42 	strhi	r0, [r8], #-3650	; 0xfffff1be
 594:	00018e02 	andeq	r8, r1, r2, lsl #28
 598:	00000014 	andeq	r0, r0, r4, lsl r0
 59c:	00000520 	andeq	r0, r0, r0, lsr #10
 5a0:	000099d8 	ldrdeq	r9, [r0], -r8
 5a4:	00000020 	andeq	r0, r0, r0, lsr #32
 5a8:	84080e42 	strhi	r0, [r8], #-3650	; 0xfffff1be
 5ac:	00018e02 	andeq	r8, r1, r2, lsl #28
 5b0:	00000014 	andeq	r0, r0, r4, lsl r0
 5b4:	00000520 	andeq	r0, r0, r0, lsr #10
 5b8:	000099f8 	strdeq	r9, [r0], -r8
 5bc:	00000030 	andeq	r0, r0, r0, lsr r0
 5c0:	84080e42 	strhi	r0, [r8], #-3650	; 0xfffff1be
 5c4:	00018e02 	andeq	r8, r1, r2, lsl #28
 5c8:	00000014 	andeq	r0, r0, r4, lsl r0
 5cc:	00000520 	andeq	r0, r0, r0, lsr #10
 5d0:	00009a28 	andeq	r9, r0, r8, lsr #20
 5d4:	00000030 	andeq	r0, r0, r0, lsr r0
 5d8:	84080e42 	strhi	r0, [r8], #-3650	; 0xfffff1be
 5dc:	00018e02 	andeq	r8, r1, r2, lsl #28
 5e0:	00000014 	andeq	r0, r0, r4, lsl r0
 5e4:	00000520 	andeq	r0, r0, r0, lsr #10
 5e8:	00009a58 	andeq	r9, r0, r8, asr sl
 5ec:	00000010 	andeq	r0, r0, r0, lsl r0
 5f0:	84080e42 	strhi	r0, [r8], #-3650	; 0xfffff1be
 5f4:	00018e02 	andeq	r8, r1, r2, lsl #28
 5f8:	00000014 	andeq	r0, r0, r4, lsl r0
 5fc:	00000520 	andeq	r0, r0, r0, lsr #10
 600:	00009a68 	andeq	r9, r0, r8, ror #20
 604:	00000020 	andeq	r0, r0, r0, lsr #32
 608:	84080e42 	strhi	r0, [r8], #-3650	; 0xfffff1be
 60c:	00018e02 	andeq	r8, r1, r2, lsl #28
 610:	00000014 	andeq	r0, r0, r4, lsl r0
 614:	00000520 	andeq	r0, r0, r0, lsr #10
 618:	00009a88 	andeq	r9, r0, r8, lsl #21
 61c:	00000014 	andeq	r0, r0, r4, lsl r0
 620:	84080e42 	strhi	r0, [r8], #-3650	; 0xfffff1be
 624:	00018e02 	andeq	r8, r1, r2, lsl #28
 628:	00000014 	andeq	r0, r0, r4, lsl r0
 62c:	00000520 	andeq	r0, r0, r0, lsr #10
 630:	00009a9c 	muleq	r0, ip, sl
 634:	00000024 	andeq	r0, r0, r4, lsr #32
 638:	84080e42 	strhi	r0, [r8], #-3650	; 0xfffff1be
 63c:	00018e02 	andeq	r8, r1, r2, lsl #28
 640:	0000000c 	andeq	r0, r0, ip
 644:	ffffffff 			; <UNDEFINED> instruction: 0xffffffff
 648:	7c020001 	stcvc	0, cr0, [r2], {1}
 64c:	000d0c0e 	andeq	r0, sp, lr, lsl #24
 650:	0000000c 	andeq	r0, r0, ip
 654:	00000640 	andeq	r0, r0, r0, asr #12
 658:	00009ac0 	andeq	r9, r0, r0, asr #21
 65c:	00000010 	andeq	r0, r0, r0, lsl r0
 660:	0000000c 	andeq	r0, r0, ip
 664:	00000640 	andeq	r0, r0, r0, asr #12
 668:	00009ad0 	ldrdeq	r9, [r0], -r0
 66c:	00000010 	andeq	r0, r0, r0, lsl r0
 670:	0000000c 	andeq	r0, r0, ip
 674:	00000640 	andeq	r0, r0, r0, asr #12
 678:	00009ae0 	andeq	r9, r0, r0, ror #21
 67c:	00000010 	andeq	r0, r0, r0, lsl r0
 680:	0000001c 	andeq	r0, r0, ip, lsl r0
 684:	00000640 	andeq	r0, r0, r0, asr #12
 688:	00009af0 	strdeq	r9, [r0], -r0
 68c:	0000009c 	muleq	r0, ip, r0
 690:	8e040e42 	cdphi	14, 0, cr0, cr4, cr2, {2}
 694:	100e4201 	andne	r4, lr, r1, lsl #4
 698:	040e0a58 	streq	r0, [lr], #-2648	; 0xfffff5a8
 69c:	00000b42 	andeq	r0, r0, r2, asr #22
 6a0:	00000014 	andeq	r0, r0, r4, lsl r0
 6a4:	00000640 	andeq	r0, r0, r0, asr #12
 6a8:	00009b8c 	andeq	r9, r0, ip, lsl #23
 6ac:	00000058 	andeq	r0, r0, r8, asr r0
 6b0:	84080e42 	strhi	r0, [r8], #-3650	; 0xfffff1be
 6b4:	00018e02 	andeq	r8, r1, r2, lsl #28
 6b8:	0000001c 	andeq	r0, r0, ip, lsl r0
 6bc:	00000640 	andeq	r0, r0, r0, asr #12
 6c0:	00009be4 	andeq	r9, r0, r4, ror #23
 6c4:	00000098 	muleq	r0, r8, r0
 6c8:	8e040e42 	cdphi	14, 0, cr0, cr4, cr2, {2}
 6cc:	100e4201 	andne	r4, lr, r1, lsl #4
 6d0:	040e0a58 	streq	r0, [lr], #-2648	; 0xfffff5a8
 6d4:	00000b42 	andeq	r0, r0, r2, asr #22
 6d8:	00000020 	andeq	r0, r0, r0, lsr #32
 6dc:	00000640 	andeq	r0, r0, r0, asr #12
 6e0:	00009c7c 	andeq	r9, r0, ip, ror ip
 6e4:	00000064 	andeq	r0, r0, r4, rrx
 6e8:	840c0e42 	strhi	r0, [ip], #-3650	; 0xfffff1be
 6ec:	8e028503 	cfsh32hi	mvfx8, mvfx2, #3
 6f0:	180e4201 	stmdane	lr, {r0, r9, lr}
 6f4:	0c0e0a54 			; <UNDEFINED> instruction: 0x0c0e0a54
 6f8:	00000b42 	andeq	r0, r0, r2, asr #22
 6fc:	0000001c 	andeq	r0, r0, ip, lsl r0
 700:	00000640 	andeq	r0, r0, r0, asr #12
 704:	00009ce0 	andeq	r9, r0, r0, ror #25
 708:	00000118 	andeq	r0, r0, r8, lsl r1
 70c:	8e040e42 	cdphi	14, 0, cr0, cr4, cr2, {2}
 710:	100e4201 	andne	r4, lr, r1, lsl #4
 714:	040e0a6c 	streq	r0, [lr], #-2668	; 0xfffff594
 718:	00000b42 	andeq	r0, r0, r2, asr #22
 71c:	0000000c 	andeq	r0, r0, ip
 720:	00000640 	andeq	r0, r0, r0, asr #12
 724:	00009df8 	strdeq	r9, [r0], -r8
 728:	00000004 	andeq	r0, r0, r4
 72c:	0000000c 	andeq	r0, r0, ip
 730:	00000640 	andeq	r0, r0, r0, asr #12
 734:	00009dfc 	strdeq	r9, [r0], -ip
 738:	00000014 	andeq	r0, r0, r4, lsl r0
 73c:	00000014 	andeq	r0, r0, r4, lsl r0
 740:	00000640 	andeq	r0, r0, r0, asr #12
 744:	00009e10 	andeq	r9, r0, r0, lsl lr
 748:	00000060 	andeq	r0, r0, r0, rrx
 74c:	8e040e58 	mcrhi	14, 0, r0, cr4, cr8, {2}
 750:	100e4201 	andne	r4, lr, r1, lsl #4
 754:	0000000c 	andeq	r0, r0, ip
 758:	ffffffff 			; <UNDEFINED> instruction: 0xffffffff
 75c:	7c020001 	stcvc	0, cr0, [r2], {1}
 760:	000d0c0e 	andeq	r0, sp, lr, lsl #24
 764:	00000020 	andeq	r0, r0, r0, lsr #32
 768:	00000754 	andeq	r0, r0, r4, asr r7
 76c:	00009e70 	andeq	r9, r0, r0, ror lr
 770:	00000060 	andeq	r0, r0, r0, rrx
 774:	84100e48 	ldrhi	r0, [r0], #-3656	; 0xfffff1b8
 778:	86038504 	strhi	r8, [r3], -r4, lsl #10
 77c:	64018e02 	strvs	r8, [r1], #-3586	; 0xfffff1fe
 780:	c4c5c6ce 	strbgt	ip, [r5], #1742	; 0x6ce
 784:	0000000e 	andeq	r0, r0, lr
 788:	00000020 	andeq	r0, r0, r0, lsr #32
 78c:	00000754 	andeq	r0, r0, r4, asr r7
 790:	00009ed0 	ldrdeq	r9, [r0], -r0
 794:	00000058 	andeq	r0, r0, r8, asr r0
 798:	84100e46 	ldrhi	r0, [r0], #-3654	; 0xfffff1ba
 79c:	86038504 	strhi	r8, [r3], -r4, lsl #10
 7a0:	62018e02 	andvs	r8, r1, #2, 28
 7a4:	c4c5c6ce 	strbgt	ip, [r5], #1742	; 0x6ce
 7a8:	0000000e 	andeq	r0, r0, lr
 7ac:	0000000c 	andeq	r0, r0, ip
 7b0:	00000754 	andeq	r0, r0, r4, asr r7
 7b4:	00009f28 	andeq	r9, r0, r8, lsr #30
 7b8:	00000018 	andeq	r0, r0, r8, lsl r0
 7bc:	0000000c 	andeq	r0, r0, ip
 7c0:	00000754 	andeq	r0, r0, r4, asr r7
 7c4:	00009f40 	andeq	r9, r0, r0, asr #30
 7c8:	00000018 	andeq	r0, r0, r8, lsl r0
 7cc:	00000020 	andeq	r0, r0, r0, lsr #32
 7d0:	00000754 	andeq	r0, r0, r4, asr r7
 7d4:	00009f58 	andeq	r9, r0, r8, asr pc
 7d8:	00000058 	andeq	r0, r0, r8, asr r0
 7dc:	84100e46 	ldrhi	r0, [r0], #-3654	; 0xfffff1ba
 7e0:	86038504 	strhi	r8, [r3], -r4, lsl #10
 7e4:	62018e02 	andvs	r8, r1, #2, 28
 7e8:	c4c5c6ce 	strbgt	ip, [r5], #1742	; 0x6ce
 7ec:	0000000e 	andeq	r0, r0, lr
 7f0:	0000000c 	andeq	r0, r0, ip
 7f4:	00000754 	andeq	r0, r0, r4, asr r7
 7f8:	00009fb0 			; <UNDEFINED> instruction: 0x00009fb0
 7fc:	00000030 	andeq	r0, r0, r0, lsr r0
 800:	00000014 	andeq	r0, r0, r4, lsl r0
 804:	00000754 	andeq	r0, r0, r4, asr r7
 808:	00009fe0 	andeq	r9, r0, r0, ror #31
 80c:	00000028 	andeq	r0, r0, r8, lsr #32
 810:	84080e42 	strhi	r0, [r8], #-3650	; 0xfffff1be
 814:	00018e02 	andeq	r8, r1, r2, lsl #28
 818:	0000000c 	andeq	r0, r0, ip
 81c:	ffffffff 			; <UNDEFINED> instruction: 0xffffffff
 820:	7c020001 	stcvc	0, cr0, [r2], {1}
 824:	000d0c0e 	andeq	r0, sp, lr, lsl #24
 828:	00000014 	andeq	r0, r0, r4, lsl r0
 82c:	00000818 	andeq	r0, r0, r8, lsl r8
 830:	0000a008 	andeq	sl, r0, r8
 834:	00000014 	andeq	r0, r0, r4, lsl r0
 838:	84080e42 	strhi	r0, [r8], #-3650	; 0xfffff1be
 83c:	00018e02 	andeq	r8, r1, r2, lsl #28
 840:	0000000c 	andeq	r0, r0, ip
 844:	00000818 	andeq	r0, r0, r8, lsl r8
 848:	0000a01c 	andeq	sl, r0, ip, lsl r0
 84c:	00000018 	andeq	r0, r0, r8, lsl r0
 850:	0000000c 	andeq	r0, r0, ip
 854:	00000818 	andeq	r0, r0, r8, lsl r8
 858:	0000a034 	andeq	sl, r0, r4, lsr r0
 85c:	00000010 	andeq	r0, r0, r0, lsl r0
 860:	0000000c 	andeq	r0, r0, ip
 864:	ffffffff 			; <UNDEFINED> instruction: 0xffffffff
 868:	7c020001 	stcvc	0, cr0, [r2], {1}
 86c:	000d0c0e 	andeq	r0, sp, lr, lsl #24
 870:	0000000c 	andeq	r0, r0, ip
 874:	00000860 	andeq	r0, r0, r0, ror #16
 878:	0000a044 	andeq	sl, r0, r4, asr #32
 87c:	0000002c 	andeq	r0, r0, ip, lsr #32
 880:	0000000c 	andeq	r0, r0, ip
 884:	ffffffff 			; <UNDEFINED> instruction: 0xffffffff
 888:	7c020001 	stcvc	0, cr0, [r2], {1}
 88c:	000d0c0e 	andeq	r0, sp, lr, lsl #24
 890:	0000000c 	andeq	r0, r0, ip
 894:	00000880 	andeq	r0, r0, r0, lsl #17
 898:	0000a070 	andeq	sl, r0, r0, ror r0
 89c:	00000044 	andeq	r0, r0, r4, asr #32
 8a0:	0000000c 	andeq	r0, r0, ip
 8a4:	ffffffff 			; <UNDEFINED> instruction: 0xffffffff
 8a8:	7c020001 	stcvc	0, cr0, [r2], {1}
 8ac:	000d0c0e 	andeq	r0, sp, lr, lsl #24
 8b0:	0000000c 	andeq	r0, r0, ip
 8b4:	000008a0 	andeq	r0, r0, r0, lsr #17
 8b8:	0000a0b4 	strheq	sl, [r0], -r4
 8bc:	00000018 	andeq	r0, r0, r8, lsl r0
 8c0:	0000000c 	andeq	r0, r0, ip
 8c4:	ffffffff 			; <UNDEFINED> instruction: 0xffffffff
 8c8:	7c020001 	stcvc	0, cr0, [r2], {1}
 8cc:	000d0c0e 	andeq	r0, sp, lr, lsl #24
 8d0:	0000000c 	andeq	r0, r0, ip
 8d4:	000008c0 	andeq	r0, r0, r0, asr #17
 8d8:	0000a0cc 	andeq	sl, r0, ip, asr #1
 8dc:	00000030 	andeq	r0, r0, r0, lsr r0
 8e0:	0000000c 	andeq	r0, r0, ip
 8e4:	ffffffff 			; <UNDEFINED> instruction: 0xffffffff
 8e8:	7c020001 	stcvc	0, cr0, [r2], {1}
 8ec:	000d0c0e 	andeq	r0, sp, lr, lsl #24
 8f0:	0000000c 	andeq	r0, r0, ip
 8f4:	000008e0 	andeq	r0, r0, r0, ror #17
 8f8:	0000a0fc 	strdeq	sl, [r0], -ip
 8fc:	00000004 	andeq	r0, r0, r4
