
tests-2.0/part1-test2-bug.elf:     file format elf32-littlearm


Disassembly of section .text:

00008000 <__code_start__>:
    8000:	e3a00013 	mov	r0, #19, 0
    8004:	e3800080 	orr	r0, r0, #128, 0	; 0x80
    8008:	e129f000 	msr	CPSR_fc, r0
    800c:	e3a01000 	mov	r1, #0, 0
    8010:	ee071f95 	mcr	15, 0, r1, cr7, cr5, {4}
    8014:	e3a0d302 	mov	sp, #134217728	; 0x8000000
    8018:	e3a0b000 	mov	fp, #0, 0
    801c:	eb0006a1 	bl	9aa8 <_cstart>
    8020:	eb0006f6 	bl	9c00 <rpi_reboot>

00008024 <PUT32>:
    8024:	e5801000 	str	r1, [r0]
    8028:	e12fff1e 	bx	lr

0000802c <GET32>:
    802c:	e5900000 	ldr	r0, [r0]
    8030:	e12fff1e 	bx	lr

00008034 <BRANCHTO>:
    8034:	e12fff10 	bx	r0
    8038:	6d746f6e 	ldclvs	15, cr6, [r4, #-440]!	; 0xfffffe48
    803c:	006e6961 	rsbeq	r6, lr, r1, ror #18
    8040:	ff000008 			; <UNDEFINED> instruction: 0xff000008

00008044 <notmain>:
    8044:	e1a0c00d 	mov	ip, sp
    8048:	e92dd870 	push	{r4, r5, r6, fp, ip, lr, pc}
    804c:	e24cb004 	sub	fp, ip, #4, 0
    8050:	e24dd01c 	sub	sp, sp, #28, 0
    8054:	e59f0078 	ldr	r0, [pc, #120]	; 80d4 <notmain+0x90>
    8058:	eb0003f6 	bl	9038 <printk>
    805c:	e59f5074 	ldr	r5, [pc, #116]	; 80d8 <notmain+0x94>
    8060:	e50b5034 	str	r5, [fp, #-52]	; 0xffffffcc
    8064:	e59f6070 	ldr	r6, [pc, #112]	; 80dc <notmain+0x98>
    8068:	e50b6030 	str	r6, [fp, #-48]	; 0xffffffd0
    806c:	e3a03007 	mov	r3, #7, 0
    8070:	e50b302c 	str	r3, [fp, #-44]	; 0xffffffd4
    8074:	e24b3034 	sub	r3, fp, #52, 0	; 0x34
    8078:	e893000e 	ldm	r3, {r1, r2, r3}
    807c:	e3a00004 	mov	r0, #4, 0
    8080:	eb0000e8 	bl	8428 <ckalloc>
    8084:	e1a04000 	mov	r4, r0
    8088:	e3a02004 	mov	r2, #4, 0
    808c:	e3a01000 	mov	r1, #0, 0
    8090:	eb0003ca 	bl	8fc0 <memset>
    8094:	e3a03001 	mov	r3, #1, 0
    8098:	e5c43004 	strb	r3, [r4, #4]
    809c:	e50b5028 	str	r5, [fp, #-40]	; 0xffffffd8
    80a0:	e50b6024 	str	r6, [fp, #-36]	; 0xffffffdc
    80a4:	e3a0300a 	mov	r3, #10, 0
    80a8:	e50b3020 	str	r3, [fp, #-32]	; 0xffffffe0
    80ac:	e24b301c 	sub	r3, fp, #28, 0
    80b0:	e913000e 	ldmdb	r3, {r1, r2, r3}
    80b4:	e1a00004 	mov	r0, r4
    80b8:	eb000070 	bl	8280 <ckfree>
    80bc:	e3a0300c 	mov	r3, #12, 0
    80c0:	e1a02006 	mov	r2, r6
    80c4:	e1a01005 	mov	r1, r5
    80c8:	e59f0010 	ldr	r0, [pc, #16]	; 80e0 <notmain+0x9c>
    80cc:	eb0003d9 	bl	9038 <printk>
    80d0:	eb000669 	bl	9a7c <clean_reboot>
    80d4:	0000a5c8 	andeq	sl, r0, r8, asr #11
    80d8:	0000a5ec 	andeq	sl, r0, ip, ror #11
    80dc:	0000a650 	andeq	sl, r0, r0, asr r6
    80e0:	0000a608 	andeq	sl, r0, r8, lsl #12
    80e4:	665f6b63 	ldrbvs	r6, [pc], -r3, ror #22
    80e8:	74737269 	ldrbtvc	r7, [r3], #-617	; 0xfffffd97
    80ec:	7264685f 	rsbvc	r6, r4, #6225920	; 0x5f0000
    80f0:	00000000 	andeq	r0, r0, r0
    80f4:	ff000010 			; <UNDEFINED> instruction: 0xff000010

000080f8 <ck_first_hdr>:
    80f8:	e1a0c00d 	mov	ip, sp
    80fc:	e92dd800 	push	{fp, ip, lr, pc}
    8100:	e24cb004 	sub	fp, ip, #4, 0
    8104:	e59f3004 	ldr	r3, [pc, #4]	; 8110 <ck_first_hdr+0x18>
    8108:	e5930000 	ldr	r0, [r3]
    810c:	e89da800 	ldm	sp, {fp, sp, pc}
    8110:	0000aed0 	ldrdeq	sl, [r0], -r0
    8114:	6e5f6b63 	vnmlavs.f64	d22, d15, d19
    8118:	5f747865 	svcpl	0x00747865
    811c:	00726468 	rsbseq	r6, r2, r8, ror #8
    8120:	ff00000c 			; <UNDEFINED> instruction: 0xff00000c

00008124 <ck_next_hdr>:
    8124:	e1a0c00d 	mov	ip, sp
    8128:	e92dd800 	push	{fp, ip, lr, pc}
    812c:	e24cb004 	sub	fp, ip, #4, 0
    8130:	e3500000 	cmp	r0, #0, 0
    8134:	089da800 	ldmeq	sp, {fp, sp, pc}
    8138:	e5900000 	ldr	r0, [r0]
    813c:	e89da800 	ldm	sp, {fp, sp, pc}
    8140:	685f6b63 	ldmdavs	pc, {r0, r1, r5, r6, r8, r9, fp, sp, lr}^	; <UNPREDICTABLE>
    8144:	735f7264 	cmpvc	pc, #100, 4	; 0x40000006
    8148:	74726174 	ldrbtvc	r6, [r2], #-372	; 0xfffffe8c
    814c:	00000000 	andeq	r0, r0, r0
    8150:	ff000010 			; <UNDEFINED> instruction: 0xff000010

00008154 <ck_hdr_start>:
    8154:	e1a0c00d 	mov	ip, sp
    8158:	e92dd800 	push	{fp, ip, lr, pc}
    815c:	e24cb004 	sub	fp, ip, #4, 0
    8160:	e28000b4 	add	r0, r0, #180, 0	; 0xb4
    8164:	e89da800 	ldm	sp, {fp, sp, pc}
    8168:	685f6b63 	ldmdavs	pc, {r0, r1, r5, r6, r8, r9, fp, sp, lr}^	; <UNPREDICTABLE>
    816c:	655f7264 	ldrbvs	r7, [pc, #-612]	; 7f10 <__code_start__-0xf0>
    8170:	0000646e 	andeq	r6, r0, lr, ror #8
    8174:	ff00000c 			; <UNDEFINED> instruction: 0xff00000c

00008178 <ck_hdr_end>:
    8178:	e1a0c00d 	mov	ip, sp
    817c:	e92dd830 	push	{r4, r5, fp, ip, lr, pc}
    8180:	e24cb004 	sub	fp, ip, #4, 0
    8184:	e1a04000 	mov	r4, r0
    8188:	ebfffff1 	bl	8154 <ck_hdr_start>
    818c:	e5943004 	ldr	r3, [r4, #4]
    8190:	e0800003 	add	r0, r0, r3
    8194:	e89da830 	ldm	sp, {r4, r5, fp, sp, pc}
    8198:	705f6b63 	subsvc	r6, pc, r3, ror #22
    819c:	695f7274 	ldmdbvs	pc, {r2, r4, r5, r6, r9, ip, sp, lr}^	; <UNPREDICTABLE>
    81a0:	6c625f6e 	stclvs	15, cr5, [r2], #-440	; 0xfffffe48
    81a4:	006b636f 	rsbeq	r6, fp, pc, ror #6
    81a8:	ff000010 			; <UNDEFINED> instruction: 0xff000010

000081ac <ck_ptr_in_block>:
    81ac:	e1a0c00d 	mov	ip, sp
    81b0:	e92dd8f0 	push	{r4, r5, r6, r7, fp, ip, lr, pc}
    81b4:	e24cb004 	sub	fp, ip, #4, 0
    81b8:	e1a06000 	mov	r6, r0
    81bc:	e1a04001 	mov	r4, r1
    81c0:	ebffffe3 	bl	8154 <ck_hdr_start>
    81c4:	e1a05000 	mov	r5, r0
    81c8:	e1a00006 	mov	r0, r6
    81cc:	ebffffe9 	bl	8178 <ck_hdr_end>
    81d0:	e1550004 	cmp	r5, r4
    81d4:	91540000 	cmpls	r4, r0
    81d8:	33a00001 	movcc	r0, #1, 0
    81dc:	23a00000 	movcs	r0, #0, 0
    81e0:	e89da8f0 	ldm	sp, {r4, r5, r6, r7, fp, sp, pc}
    81e4:	64616873 	strbtvs	r6, [r1], #-2163	; 0xfffff78d
    81e8:	6c5f776f 	mrrcvs	7, 6, r7, pc, cr15	; <UNPREDICTABLE>
    81ec:	7461636f 	strbtvc	r6, [r1], #-879	; 0xfffffc91
    81f0:	006e6f69 	rsbeq	r6, lr, r9, ror #30
    81f4:	ff000010 			; <UNDEFINED> instruction: 0xff000010

000081f8 <shadow_location>:
    81f8:	e1a0c00d 	mov	ip, sp
    81fc:	e92dd800 	push	{fp, ip, lr, pc}
    8200:	e24cb004 	sub	fp, ip, #4, 0
    8204:	e59f302c 	ldr	r3, [pc, #44]	; 8238 <shadow_location+0x40>
    8208:	e1500003 	cmp	r0, r3
    820c:	3a000005 	bcc	8228 <shadow_location+0x30>
    8210:	e2833101 	add	r3, r3, #1073741824	; 0x40000000
    8214:	e1500003 	cmp	r0, r3
    8218:	8a000004 	bhi	8230 <shadow_location+0x38>
    821c:	e2000003 	and	r0, r0, #3, 0
    8220:	e2800101 	add	r0, r0, #1073741824	; 0x40000000
    8224:	e89da800 	ldm	sp, {fp, sp, pc}
    8228:	e3a00000 	mov	r0, #0, 0
    822c:	e89da800 	ldm	sp, {fp, sp, pc}
    8230:	e3a00000 	mov	r0, #0, 0
    8234:	e89da800 	ldm	sp, {fp, sp, pc}
    8238:	0000b300 	andeq	fp, r0, r0, lsl #6
    823c:	705f6b63 	subsvc	r6, pc, r3, ror #22
    8240:	695f7274 	ldmdbvs	pc, {r2, r4, r5, r6, r9, ip, sp, lr}^	; <UNPREDICTABLE>
    8244:	6c615f73 	stclvs	15, cr5, [r1], #-460	; 0xfffffe34
    8248:	65636f6c 	strbvs	r6, [r3, #-3948]!	; 0xfffff094
    824c:	00000064 	andeq	r0, r0, r4, rrx
    8250:	ff000014 			; <UNDEFINED> instruction: 0xff000014

00008254 <ck_ptr_is_alloced>:
    8254:	e1a0c00d 	mov	ip, sp
    8258:	e92dd800 	push	{fp, ip, lr, pc}
    825c:	e24cb004 	sub	fp, ip, #4, 0
    8260:	ebffffe4 	bl	81f8 <shadow_location>
    8264:	e3500000 	cmp	r0, #0, 0
    8268:	089da800 	ldmeq	sp, {fp, sp, pc}
    826c:	e5900000 	ldr	r0, [r0]
    8270:	e89da800 	ldm	sp, {fp, sp, pc}
    8274:	72666b63 	rsbvc	r6, r6, #101376	; 0x18c00
    8278:	00006565 	andeq	r6, r0, r5, ror #10
    827c:	ff000008 			; <UNDEFINED> instruction: 0xff000008

00008280 <ckfree>:
    8280:	e1a0c00d 	mov	ip, sp
    8284:	e92dd8f0 	push	{r4, r5, r6, r7, fp, ip, lr, pc}
    8288:	e24cb004 	sub	fp, ip, #4, 0
    828c:	e24dd018 	sub	sp, sp, #24, 0
    8290:	e1a04000 	mov	r4, r0
    8294:	e24b0028 	sub	r0, fp, #40, 0	; 0x28
    8298:	e880000e 	stm	r0, {r1, r2, r3}
    829c:	e244c098 	sub	ip, r4, #152, 0	; 0x98
    82a0:	e8900007 	ldm	r0, {r0, r1, r2}
    82a4:	e88c000b 	stm	ip, {r0, r1, r3}
    82a8:	e1a05000 	mov	r5, r0
    82ac:	e51b6024 	ldr	r6, [fp, #-36]	; 0xffffffdc
    82b0:	e51b7020 	ldr	r7, [fp, #-32]	; 0xffffffe0
    82b4:	e1a03007 	mov	r3, r7
    82b8:	e1a02006 	mov	r2, r6
    82bc:	e1a01000 	mov	r1, r0
    82c0:	e59f012c 	ldr	r0, [pc, #300]	; 83f4 <ckfree+0x174>
    82c4:	eb00035b 	bl	9038 <printk>
    82c8:	e1a01004 	mov	r1, r4
    82cc:	e59f0124 	ldr	r0, [pc, #292]	; 83f8 <ckfree+0x178>
    82d0:	eb000358 	bl	9038 <printk>
    82d4:	e51430ac 	ldr	r3, [r4, #-172]	; 0xffffff54
    82d8:	e353000b 	cmp	r3, #11, 0
    82dc:	1a00000d 	bne	8318 <ckfree+0x98>
    82e0:	e3a03000 	mov	r3, #0, 0
    82e4:	e353007f 	cmp	r3, #127, 0	; 0x7f
    82e8:	ca000026 	bgt	8388 <ckfree+0x108>
    82ec:	e0842003 	add	r2, r4, r3
    82f0:	e5522082 	ldrb	r2, [r2, #-130]	; 0xffffff7e
    82f4:	e35200fe 	cmp	r2, #254, 0	; 0xfe
    82f8:	1a000010 	bne	8340 <ckfree+0xc0>
    82fc:	e51420b0 	ldr	r2, [r4, #-176]	; 0xffffff50
    8300:	e0832002 	add	r2, r3, r2
    8304:	e7d42002 	ldrb	r2, [r4, r2]
    8308:	e35200fe 	cmp	r2, #254, 0	; 0xfe
    830c:	1a000014 	bne	8364 <ckfree+0xe4>
    8310:	e2833001 	add	r3, r3, #1, 0
    8314:	eafffff2 	b	82e4 <ckfree+0x64>
    8318:	eb000300 	bl	8f20 <backtrace>
    831c:	e1a03007 	mov	r3, r7
    8320:	e1a02006 	mov	r2, r6
    8324:	e1a01005 	mov	r1, r5
    8328:	e59f00cc 	ldr	r0, [pc, #204]	; 83fc <ckfree+0x17c>
    832c:	eb000341 	bl	9038 <printk>
    8330:	e51410ac 	ldr	r1, [r4, #-172]	; 0xffffff54
    8334:	e59f00c4 	ldr	r0, [pc, #196]	; 8400 <ckfree+0x180>
    8338:	eb00033e 	bl	9038 <printk>
    833c:	eb0005ce 	bl	9a7c <clean_reboot>
    8340:	eb0002f6 	bl	8f20 <backtrace>
    8344:	e1a03007 	mov	r3, r7
    8348:	e1a02006 	mov	r2, r6
    834c:	e1a01005 	mov	r1, r5
    8350:	e59f00a4 	ldr	r0, [pc, #164]	; 83fc <ckfree+0x17c>
    8354:	eb000337 	bl	9038 <printk>
    8358:	e59f00a4 	ldr	r0, [pc, #164]	; 8404 <ckfree+0x184>
    835c:	eb000335 	bl	9038 <printk>
    8360:	eb0005c5 	bl	9a7c <clean_reboot>
    8364:	eb0002ed 	bl	8f20 <backtrace>
    8368:	e1a03007 	mov	r3, r7
    836c:	e1a02006 	mov	r2, r6
    8370:	e1a01005 	mov	r1, r5
    8374:	e59f0080 	ldr	r0, [pc, #128]	; 83fc <ckfree+0x17c>
    8378:	eb00032e 	bl	9038 <printk>
    837c:	e59f0084 	ldr	r0, [pc, #132]	; 8408 <ckfree+0x188>
    8380:	eb00032c 	bl	9038 <printk>
    8384:	eb0005bc 	bl	9a7c <clean_reboot>
    8388:	e3a03000 	mov	r3, #0, 0
    838c:	e51420b0 	ldr	r2, [r4, #-176]	; 0xffffff50
    8390:	e1520003 	cmp	r2, r3
    8394:	83e02001 	mvnhi	r2, #1, 0
    8398:	87c42003 	strbhi	r2, [r4, r3]
    839c:	82833001 	addhi	r3, r3, #1, 0
    83a0:	8afffff9 	bhi	838c <ckfree+0x10c>
    83a4:	e3a0300c 	mov	r3, #12, 0
    83a8:	e50430ac 	str	r3, [r4, #-172]	; 0xffffff54
    83ac:	e2443098 	sub	r3, r4, #152, 0	; 0x98
    83b0:	e24b201c 	sub	r2, fp, #28, 0
    83b4:	e9120007 	ldmdb	r2, {r0, r1, r2}
    83b8:	e8830007 	stm	r3, {r0, r1, r2}
    83bc:	e1a00004 	mov	r0, r4
    83c0:	ebffffa3 	bl	8254 <ck_ptr_is_alloced>
    83c4:	e3500000 	cmp	r0, #0, 0
    83c8:	0a000001 	beq	83d4 <ckfree+0x154>
    83cc:	e24bd01c 	sub	sp, fp, #28, 0
    83d0:	e89da8f0 	ldm	sp, {r4, r5, r6, r7, fp, sp, pc}
    83d4:	e59f3030 	ldr	r3, [pc, #48]	; 840c <ckfree+0x18c>
    83d8:	e58d3000 	str	r3, [sp]
    83dc:	e3a03077 	mov	r3, #119, 0	; 0x77
    83e0:	e59f2028 	ldr	r2, [pc, #40]	; 8410 <ckfree+0x190>
    83e4:	e59f1028 	ldr	r1, [pc, #40]	; 8414 <ckfree+0x194>
    83e8:	e59f0028 	ldr	r0, [pc, #40]	; 8418 <ckfree+0x198>
    83ec:	eb000311 	bl	9038 <printk>
    83f0:	eb0005a1 	bl	9a7c <clean_reboot>
    83f4:	0000a658 	andeq	sl, r0, r8, asr r6
    83f8:	0000a664 	andeq	sl, r0, r4, ror #12
    83fc:	0000a674 	andeq	sl, r0, r4, ror r6
    8400:	0000a68c 	andeq	sl, r0, ip, lsl #13
    8404:	0000a6b4 			; <UNDEFINED> instruction: 0x0000a6b4
    8408:	0000a6d0 	ldrdeq	sl, [r0], -r0
    840c:	0000a70c 	andeq	sl, r0, ip, lsl #14
    8410:	0000a740 	andeq	sl, r0, r0, asr #14
    8414:	0000a6ec 	andeq	sl, r0, ip, ror #13
    8418:	0000a6f8 	strdeq	sl, [r0], -r8
    841c:	6c616b63 			; <UNDEFINED> instruction: 0x6c616b63
    8420:	00636f6c 	rsbeq	r6, r3, ip, ror #30
    8424:	ff000008 			; <UNDEFINED> instruction: 0xff000008

00008428 <ckalloc>:
    8428:	e1a0c00d 	mov	ip, sp
    842c:	e92dd8f0 	push	{r4, r5, r6, r7, fp, ip, lr, pc}
    8430:	e24cb004 	sub	fp, ip, #4, 0
    8434:	e24dd010 	sub	sp, sp, #16, 0
    8438:	e1a05000 	mov	r5, r0
    843c:	e24b001c 	sub	r0, fp, #28, 0
    8440:	e900000e 	stmdb	r0, {r1, r2, r3}
    8444:	e2850f4d 	add	r0, r5, #308	; 0x134
    8448:	eb000085 	bl	8664 <kr_malloc>
    844c:	e1a04000 	mov	r4, r0
    8450:	e3a020b4 	mov	r2, #180, 0	; 0xb4
    8454:	e3a01000 	mov	r1, #0, 0
    8458:	eb0002d8 	bl	8fc0 <memset>
    845c:	e3a03000 	mov	r3, #0, 0
    8460:	e353007f 	cmp	r3, #127, 0	; 0x7f
    8464:	ca000007 	bgt	8488 <ckalloc+0x60>
    8468:	e0842003 	add	r2, r4, r3
    846c:	e3e01001 	mvn	r1, #1, 0
    8470:	e5c21032 	strb	r1, [r2, #50]	; 0x32
    8474:	e0832005 	add	r2, r3, r5
    8478:	e28220b4 	add	r2, r2, #180, 0	; 0xb4
    847c:	e7c41002 	strb	r1, [r4, r2]
    8480:	e2833001 	add	r3, r3, #1, 0
    8484:	eafffff5 	b	8460 <ckalloc+0x38>
    8488:	e5845004 	str	r5, [r4, #4]
    848c:	e3a0300b 	mov	r3, #11, 0
    8490:	e5843008 	str	r3, [r4, #8]
    8494:	e2843010 	add	r3, r4, #16, 0
    8498:	e24b201c 	sub	r2, fp, #28, 0
    849c:	e9120007 	ldmdb	r2, {r0, r1, r2}
    84a0:	e8830007 	stm	r3, {r0, r1, r2}
    84a4:	e51b3020 	ldr	r3, [fp, #-32]	; 0xffffffe0
    84a8:	e51b2024 	ldr	r2, [fp, #-36]	; 0xffffffdc
    84ac:	e51b1028 	ldr	r1, [fp, #-40]	; 0xffffffd8
    84b0:	e59f0054 	ldr	r0, [pc, #84]	; 850c <ckalloc+0xe4>
    84b4:	eb0002df 	bl	9038 <printk>
    84b8:	e28470b4 	add	r7, r4, #180, 0	; 0xb4
    84bc:	e1a02005 	mov	r2, r5
    84c0:	e1a01007 	mov	r1, r7
    84c4:	e59f0044 	ldr	r0, [pc, #68]	; 8510 <ckalloc+0xe8>
    84c8:	eb0002da 	bl	9038 <printk>
    84cc:	e3a06000 	mov	r6, #0, 0
    84d0:	e1560005 	cmp	r6, r5
    84d4:	2a000005 	bcs	84f0 <ckalloc+0xc8>
    84d8:	e28600b4 	add	r0, r6, #180, 0	; 0xb4
    84dc:	e0840000 	add	r0, r4, r0
    84e0:	ebffff44 	bl	81f8 <shadow_location>
    84e4:	e5804000 	str	r4, [r0]
    84e8:	e2866004 	add	r6, r6, #4, 0
    84ec:	eafffff7 	b	84d0 <ckalloc+0xa8>
    84f0:	e59f301c 	ldr	r3, [pc, #28]	; 8514 <ckalloc+0xec>
    84f4:	e5932000 	ldr	r2, [r3]
    84f8:	e5842000 	str	r2, [r4]
    84fc:	e5834000 	str	r4, [r3]
    8500:	e1a00007 	mov	r0, r7
    8504:	e24bd01c 	sub	sp, fp, #28, 0
    8508:	e89da8f0 	ldm	sp, {r4, r5, r6, r7, fp, sp, pc}
    850c:	0000a658 	andeq	sl, r0, r8, asr r6
    8510:	0000a724 	andeq	sl, r0, r4, lsr #14
    8514:	0000aed0 	ldrdeq	sl, [r0], -r0
    8518:	665f726b 	ldrbvs	r7, [pc], -fp, ror #4
    851c:	00656572 	rsbeq	r6, r5, r2, ror r5
    8520:	ff000008 			; <UNDEFINED> instruction: 0xff000008

00008524 <kr_free>:
    8524:	e1a0c00d 	mov	ip, sp
    8528:	e92dd800 	push	{fp, ip, lr, pc}
    852c:	e24cb004 	sub	fp, ip, #4, 0
    8530:	e2401008 	sub	r1, r0, #8, 0
    8534:	e59f30a8 	ldr	r3, [pc, #168]	; 85e4 <kr_free+0xc0>
    8538:	e5933000 	ldr	r3, [r3]
    853c:	ea000000 	b	8544 <kr_free+0x20>
    8540:	e1a03002 	mov	r3, r2
    8544:	e1530001 	cmp	r3, r1
    8548:	2a000002 	bcs	8558 <kr_free+0x34>
    854c:	e5932000 	ldr	r2, [r3]
    8550:	e1520001 	cmp	r2, r1
    8554:	8a000007 	bhi	8578 <kr_free+0x54>
    8558:	e5932000 	ldr	r2, [r3]
    855c:	e1520003 	cmp	r2, r3
    8560:	8afffff6 	bhi	8540 <kr_free+0x1c>
    8564:	e1530001 	cmp	r3, r1
    8568:	3a000002 	bcc	8578 <kr_free+0x54>
    856c:	e1520001 	cmp	r2, r1
    8570:	91a03002 	movls	r3, r2
    8574:	9afffff2 	bls	8544 <kr_free+0x20>
    8578:	e510c004 	ldr	ip, [r0, #-4]
    857c:	e081e18c 	add	lr, r1, ip, lsl #3
    8580:	e5932000 	ldr	r2, [r3]
    8584:	e15e0002 	cmp	lr, r2
    8588:	0a000008 	beq	85b0 <kr_free+0x8c>
    858c:	e5002008 	str	r2, [r0, #-8]
    8590:	e5932004 	ldr	r2, [r3, #4]
    8594:	e083c182 	add	ip, r3, r2, lsl #3
    8598:	e15c0001 	cmp	ip, r1
    859c:	0a00000a 	beq	85cc <kr_free+0xa8>
    85a0:	e5831000 	str	r1, [r3]
    85a4:	e59f2038 	ldr	r2, [pc, #56]	; 85e4 <kr_free+0xc0>
    85a8:	e5823000 	str	r3, [r2]
    85ac:	e89da800 	ldm	sp, {fp, sp, pc}
    85b0:	e5922004 	ldr	r2, [r2, #4]
    85b4:	e08cc002 	add	ip, ip, r2
    85b8:	e500c004 	str	ip, [r0, #-4]
    85bc:	e5932000 	ldr	r2, [r3]
    85c0:	e5922000 	ldr	r2, [r2]
    85c4:	e5002008 	str	r2, [r0, #-8]
    85c8:	eafffff0 	b	8590 <kr_free+0x6c>
    85cc:	e5101004 	ldr	r1, [r0, #-4]
    85d0:	e0822001 	add	r2, r2, r1
    85d4:	e5832004 	str	r2, [r3, #4]
    85d8:	e5102008 	ldr	r2, [r0, #-8]
    85dc:	e5832000 	str	r2, [r3]
    85e0:	eaffffef 	b	85a4 <kr_free+0x80>
    85e4:	0000aed8 	ldrdeq	sl, [r0], -r8
    85e8:	65726f6d 	ldrbvs	r6, [r2, #-3949]!	; 0xfffff093
    85ec:	65726f63 	ldrbvs	r6, [r2, #-3939]!	; 0xfffff09d
    85f0:	00000000 	andeq	r0, r0, r0
    85f4:	ff00000c 			; <UNDEFINED> instruction: 0xff00000c

000085f8 <morecore>:
    85f8:	e1a0c00d 	mov	ip, sp
    85fc:	e92dd830 	push	{r4, r5, fp, ip, lr, pc}
    8600:	e24cb004 	sub	fp, ip, #4, 0
    8604:	e1a04000 	mov	r4, r0
    8608:	e3500b01 	cmp	r0, #1024	; 0x400
    860c:	33a04b01 	movcc	r4, #1024	; 0x400
    8610:	e1a01004 	mov	r1, r4
    8614:	e59f0030 	ldr	r0, [pc, #48]	; 864c <morecore+0x54>
    8618:	eb000286 	bl	9038 <printk>
    861c:	e1a00184 	lsl	r0, r4, #3
    8620:	eb00016a 	bl	8bd0 <sbrk>
    8624:	e3700001 	cmn	r0, #1, 0
    8628:	0a000005 	beq	8644 <morecore+0x4c>
    862c:	e5804004 	str	r4, [r0, #4]
    8630:	e2800008 	add	r0, r0, #8, 0
    8634:	ebffffba 	bl	8524 <kr_free>
    8638:	e59f3010 	ldr	r3, [pc, #16]	; 8650 <morecore+0x58>
    863c:	e5930000 	ldr	r0, [r3]
    8640:	e89da830 	ldm	sp, {r4, r5, fp, sp, pc}
    8644:	e3a00000 	mov	r0, #0, 0
    8648:	e89da830 	ldm	sp, {r4, r5, fp, sp, pc}
    864c:	0000a748 	andeq	sl, r0, r8, asr #14
    8650:	0000aed8 	ldrdeq	sl, [r0], -r8
    8654:	6d5f726b 	lfmvs	f7, 2, [pc, #-428]	; 84b0 <ckalloc+0x88>
    8658:	6f6c6c61 	svcvs	0x006c6c61
    865c:	00000063 	andeq	r0, r0, r3, rrx
    8660:	ff00000c 			; <UNDEFINED> instruction: 0xff00000c

00008664 <kr_malloc>:
    8664:	e1a0c00d 	mov	ip, sp
    8668:	e92dd830 	push	{r4, r5, fp, ip, lr, pc}
    866c:	e24cb004 	sub	fp, ip, #4, 0
    8670:	e2804007 	add	r4, r0, #7, 0
    8674:	e1a041a4 	lsr	r4, r4, #3
    8678:	e2844001 	add	r4, r4, #1, 0
    867c:	e59f3090 	ldr	r3, [pc, #144]	; 8714 <kr_malloc+0xb0>
    8680:	e5932000 	ldr	r2, [r3]
    8684:	e3520000 	cmp	r2, #0, 0
    8688:	0a000001 	beq	8694 <kr_malloc+0x30>
    868c:	e5920000 	ldr	r0, [r2]
    8690:	ea000013 	b	86e4 <kr_malloc+0x80>
    8694:	e2832008 	add	r2, r3, #8, 0
    8698:	e5832000 	str	r2, [r3]
    869c:	e5832008 	str	r2, [r3, #8]
    86a0:	e3a01000 	mov	r1, #0, 0
    86a4:	e583100c 	str	r1, [r3, #12]
    86a8:	eafffff7 	b	868c <kr_malloc+0x28>
    86ac:	0a000007 	beq	86d0 <kr_malloc+0x6c>
    86b0:	e0433004 	sub	r3, r3, r4
    86b4:	e5803004 	str	r3, [r0, #4]
    86b8:	e0800183 	add	r0, r0, r3, lsl #3
    86bc:	e5804004 	str	r4, [r0, #4]
    86c0:	e59f304c 	ldr	r3, [pc, #76]	; 8714 <kr_malloc+0xb0>
    86c4:	e5832000 	str	r2, [r3]
    86c8:	e2800008 	add	r0, r0, #8, 0
    86cc:	e89da830 	ldm	sp, {r4, r5, fp, sp, pc}
    86d0:	e5903000 	ldr	r3, [r0]
    86d4:	e5823000 	str	r3, [r2]
    86d8:	eafffff8 	b	86c0 <kr_malloc+0x5c>
    86dc:	e1a02000 	mov	r2, r0
    86e0:	e5900000 	ldr	r0, [r0]
    86e4:	e5903004 	ldr	r3, [r0, #4]
    86e8:	e1530004 	cmp	r3, r4
    86ec:	2affffee 	bcs	86ac <kr_malloc+0x48>
    86f0:	e59f301c 	ldr	r3, [pc, #28]	; 8714 <kr_malloc+0xb0>
    86f4:	e5933000 	ldr	r3, [r3]
    86f8:	e1530000 	cmp	r3, r0
    86fc:	1afffff6 	bne	86dc <kr_malloc+0x78>
    8700:	e3a00902 	mov	r0, #32768	; 0x8000
    8704:	ebffffbb 	bl	85f8 <morecore>
    8708:	e3500000 	cmp	r0, #0, 0
    870c:	1afffff2 	bne	86dc <kr_malloc+0x78>
    8710:	e89da830 	ldm	sp, {r4, r5, fp, sp, pc}
    8714:	0000aed8 	ldrdeq	sl, [r0], -r8
    8718:	685f6e69 	ldmdavs	pc, {r0, r3, r5, r6, r9, sl, fp, sp, lr}^	; <UNPREDICTABLE>
    871c:	00706165 	rsbseq	r6, r0, r5, ror #2
    8720:	ff000008 			; <UNDEFINED> instruction: 0xff000008

00008724 <in_heap>:
    8724:	e1a0c00d 	mov	ip, sp
    8728:	e92dd800 	push	{fp, ip, lr, pc}
    872c:	e24cb004 	sub	fp, ip, #4, 0
    8730:	e59f3030 	ldr	r3, [pc, #48]	; 8768 <in_heap+0x44>
    8734:	e5933000 	ldr	r3, [r3]
    8738:	e1530000 	cmp	r3, r0
    873c:	8a000005 	bhi	8758 <in_heap+0x34>
    8740:	e59f3020 	ldr	r3, [pc, #32]	; 8768 <in_heap+0x44>
    8744:	e5933004 	ldr	r3, [r3, #4]
    8748:	e1530000 	cmp	r3, r0
    874c:	9a000003 	bls	8760 <in_heap+0x3c>
    8750:	e3a00001 	mov	r0, #1, 0
    8754:	e89da800 	ldm	sp, {fp, sp, pc}
    8758:	e3a00000 	mov	r0, #0, 0
    875c:	e89da800 	ldm	sp, {fp, sp, pc}
    8760:	e3a00000 	mov	r0, #0, 0
    8764:	e89da800 	ldm	sp, {fp, sp, pc}
    8768:	0000aee8 	andeq	sl, r0, r8, ror #29
    876c:	6b72616d 	blvs	1ca0d28 <__bss_end__+0x1c95a28>
    8770:	00000000 	andeq	r0, r0, r0
    8774:	ff000008 			; <UNDEFINED> instruction: 0xff000008

00008778 <mark>:
    8778:	e1a0c00d 	mov	ip, sp
    877c:	e92dd9f0 	push	{r4, r5, r6, r7, r8, fp, ip, lr, pc}
    8780:	e24cb004 	sub	fp, ip, #4, 0
    8784:	e24dd00c 	sub	sp, sp, #12, 0
    8788:	e1500001 	cmp	r0, r1
    878c:	2a00000d 	bcs	87c8 <mark+0x50>
    8790:	e1a04000 	mov	r4, r0
    8794:	e1a07001 	mov	r7, r1
    8798:	e3100003 	tst	r0, #3, 0
    879c:	1a000011 	bne	87e8 <mark+0x70>
    87a0:	e3110003 	tst	r1, #3, 0
    87a4:	0a000021 	beq	8830 <mark+0xb8>
    87a8:	e59f3134 	ldr	r3, [pc, #308]	; 88e4 <mark+0x16c>
    87ac:	e58d3000 	str	r3, [sp]
    87b0:	e3a03056 	mov	r3, #86, 0	; 0x56
    87b4:	e59f212c 	ldr	r2, [pc, #300]	; 88e8 <mark+0x170>
    87b8:	e59f112c 	ldr	r1, [pc, #300]	; 88ec <mark+0x174>
    87bc:	e59f012c 	ldr	r0, [pc, #300]	; 88f0 <mark+0x178>
    87c0:	eb00021c 	bl	9038 <printk>
    87c4:	eb0004ac 	bl	9a7c <clean_reboot>
    87c8:	e59f3124 	ldr	r3, [pc, #292]	; 88f4 <mark+0x17c>
    87cc:	e58d3000 	str	r3, [sp]
    87d0:	e3a03052 	mov	r3, #82, 0	; 0x52
    87d4:	e59f210c 	ldr	r2, [pc, #268]	; 88e8 <mark+0x170>
    87d8:	e59f110c 	ldr	r1, [pc, #268]	; 88ec <mark+0x174>
    87dc:	e59f010c 	ldr	r0, [pc, #268]	; 88f0 <mark+0x178>
    87e0:	eb000214 	bl	9038 <printk>
    87e4:	eb0004a4 	bl	9a7c <clean_reboot>
    87e8:	e59f3108 	ldr	r3, [pc, #264]	; 88f8 <mark+0x180>
    87ec:	e58d3000 	str	r3, [sp]
    87f0:	e3a03055 	mov	r3, #85, 0	; 0x55
    87f4:	e59f20ec 	ldr	r2, [pc, #236]	; 88e8 <mark+0x170>
    87f8:	e59f10ec 	ldr	r1, [pc, #236]	; 88ec <mark+0x174>
    87fc:	e59f00ec 	ldr	r0, [pc, #236]	; 88f0 <mark+0x178>
    8800:	eb00020c 	bl	9038 <printk>
    8804:	eb00049c 	bl	9a7c <clean_reboot>
    8808:	e3a05000 	mov	r5, #0, 0
    880c:	ea000011 	b	8858 <mark+0xe0>
    8810:	e3a03002 	mov	r3, #2, 0
    8814:	ea000021 	b	88a0 <mark+0x128>
    8818:	e3a01002 	mov	r1, #2, 0
    881c:	e59f00d8 	ldr	r0, [pc, #216]	; 88fc <mark+0x184>
    8820:	eb000204 	bl	9038 <printk>
    8824:	e3580000 	cmp	r8, #0, 0
    8828:	0a000022 	beq	88b8 <mark+0x140>
    882c:	e2844004 	add	r4, r4, #4, 0
    8830:	e1540007 	cmp	r4, r7
    8834:	8a000028 	bhi	88dc <mark+0x164>
    8838:	e5945000 	ldr	r5, [r4]
    883c:	e1a00005 	mov	r0, r5
    8840:	ebffffb7 	bl	8724 <in_heap>
    8844:	e3500000 	cmp	r0, #0, 0
    8848:	0affffee 	beq	8808 <mark+0x90>
    884c:	e1a00005 	mov	r0, r5
    8850:	ebfffe7f 	bl	8254 <ck_ptr_is_alloced>
    8854:	e1a05000 	mov	r5, r0
    8858:	e3550000 	cmp	r5, #0, 0
    885c:	0afffff2 	beq	882c <mark+0xb4>
    8860:	e28560b4 	add	r6, r5, #180, 0	; 0xb4
    8864:	e1d583b0 	ldrh	r8, [r5, #48]	; 0x30
    8868:	e1a00005 	mov	r0, r5
    886c:	ebfffe38 	bl	8154 <ck_hdr_start>
    8870:	e1a01000 	mov	r1, r0
    8874:	e58d6000 	str	r6, [sp]
    8878:	e5943000 	ldr	r3, [r4]
    887c:	e1a02004 	mov	r2, r4
    8880:	e59f0078 	ldr	r0, [pc, #120]	; 8900 <mark+0x188>
    8884:	eb0001eb 	bl	9038 <printk>
    8888:	e3580001 	cmp	r8, #1, 0
    888c:	8a00000f 	bhi	88d0 <mark+0x158>
    8890:	e5943000 	ldr	r3, [r4]
    8894:	e1530006 	cmp	r3, r6
    8898:	0affffdc 	beq	8810 <mark+0x98>
    889c:	e3a03001 	mov	r3, #1, 0
    88a0:	e1c533b0 	strh	r3, [r5, #48]	; 0x30
    88a4:	e5943000 	ldr	r3, [r4]
    88a8:	e1530006 	cmp	r3, r6
    88ac:	0affffd9 	beq	8818 <mark+0xa0>
    88b0:	e3a01001 	mov	r1, #1, 0
    88b4:	eaffffd8 	b	881c <mark+0xa4>
    88b8:	e5951004 	ldr	r1, [r5, #4]
    88bc:	e28110b4 	add	r1, r1, #180, 0	; 0xb4
    88c0:	e0851001 	add	r1, r5, r1
    88c4:	e2850004 	add	r0, r5, #4, 0
    88c8:	ebffffaa 	bl	8778 <mark>
    88cc:	eaffffd6 	b	882c <mark+0xb4>
    88d0:	e59f002c 	ldr	r0, [pc, #44]	; 8904 <mark+0x18c>
    88d4:	eb0001d7 	bl	9038 <printk>
    88d8:	eaffffd3 	b	882c <mark+0xb4>
    88dc:	e24bd020 	sub	sp, fp, #32, 0
    88e0:	e89da9f0 	ldm	sp, {r4, r5, r6, r7, r8, fp, sp, pc}
    88e4:	0000a78c 	andeq	sl, r0, ip, lsl #15
    88e8:	0000aacc 	andeq	sl, r0, ip, asr #21
    88ec:	0000a76c 	andeq	sl, r0, ip, ror #14
    88f0:	0000a6f8 	strdeq	sl, [r0], -r8
    88f4:	0000a774 	andeq	sl, r0, r4, ror r7
    88f8:	0000a77c 	andeq	sl, r0, ip, ror r7
    88fc:	0000a7c8 	andeq	sl, r0, r8, asr #15
    8900:	0000a79c 	muleq	r0, ip, r7
    8904:	0000a7d8 	ldrdeq	sl, [r0], -r8
    8908:	6b72616d 	blvs	1ca0ec4 <__bss_end__+0x1c95bc4>
    890c:	6c6c615f 	stfvse	f6, [ip], #-380	; 0xfffffe84
    8910:	00000000 	andeq	r0, r0, r0
    8914:	ff00000c 			; <UNDEFINED> instruction: 0xff00000c

00008918 <mark_all>:
    8918:	e1a0c00d 	mov	ip, sp
    891c:	e92dd800 	push	{fp, ip, lr, pc}
    8920:	e24cb004 	sub	fp, ip, #4, 0
    8924:	e24dd040 	sub	sp, sp, #64, 0	; 0x40
    8928:	ebfffdf2 	bl	80f8 <ck_first_hdr>
    892c:	e3500000 	cmp	r0, #0, 0
    8930:	0a000005 	beq	894c <mark_all+0x34>
    8934:	e3a03000 	mov	r3, #0, 0
    8938:	e580302c 	str	r3, [r0, #44]	; 0x2c
    893c:	e5803028 	str	r3, [r0, #40]	; 0x28
    8940:	e1c033b0 	strh	r3, [r0, #48]	; 0x30
    8944:	ebfffdf6 	bl	8124 <ck_next_hdr>
    8948:	eafffff7 	b	892c <mark_all+0x14>
    894c:	e24b004c 	sub	r0, fp, #76, 0	; 0x4c
    8950:	eb000170 	bl	8f18 <dump_regs>
    8954:	e3a03000 	mov	r3, #0, 0
    8958:	e50b304c 	str	r3, [fp, #-76]	; 0xffffffb4
    895c:	e50b3048 	str	r3, [fp, #-72]	; 0xffffffb8
    8960:	e50b3044 	str	r3, [fp, #-68]	; 0xffffffbc
    8964:	e50b3040 	str	r3, [fp, #-64]	; 0xffffffc0
    8968:	e24b1014 	sub	r1, fp, #20, 0
    896c:	e24b004c 	sub	r0, fp, #76, 0	; 0x4c
    8970:	ebffff80 	bl	8778 <mark>
    8974:	e3a02302 	mov	r2, #134217728	; 0x8000000
    8978:	e51b1018 	ldr	r1, [fp, #-24]	; 0xffffffe8
    897c:	e59f002c 	ldr	r0, [pc, #44]	; 89b0 <mark_all+0x98>
    8980:	eb0001ac 	bl	9038 <printk>
    8984:	e3a01302 	mov	r1, #134217728	; 0x8000000
    8988:	e51b0018 	ldr	r0, [fp, #-24]	; 0xffffffe8
    898c:	ebffff79 	bl	8778 <mark>
    8990:	e59f101c 	ldr	r1, [pc, #28]	; 89b4 <mark_all+0x9c>
    8994:	e59f001c 	ldr	r0, [pc, #28]	; 89b8 <mark_all+0xa0>
    8998:	ebffff76 	bl	8778 <mark>
    899c:	e59f1018 	ldr	r1, [pc, #24]	; 89bc <mark_all+0xa4>
    89a0:	e59f0018 	ldr	r0, [pc, #24]	; 89c0 <mark_all+0xa8>
    89a4:	ebffff73 	bl	8778 <mark>
    89a8:	e24bd00c 	sub	sp, fp, #12, 0
    89ac:	e89da800 	ldm	sp, {fp, sp, pc}
    89b0:	0000a7e8 	andeq	sl, r0, r8, ror #15
    89b4:	0000b300 	andeq	fp, r0, r0, lsl #6
    89b8:	0000aed0 	ldrdeq	sl, [r0], -r0
    89bc:	0000aecc 	andeq	sl, r0, ip, asr #29
    89c0:	0000aeb8 			; <UNDEFINED> instruction: 0x0000aeb8
    89c4:	65657773 	strbvs	r7, [r5, #-1907]!	; 0xfffff88d
    89c8:	656c5f70 	strbvs	r5, [ip, #-3952]!	; 0xfffff090
    89cc:	00006b61 	andeq	r6, r0, r1, ror #22
    89d0:	ff00000c 			; <UNDEFINED> instruction: 0xff00000c

000089d4 <sweep_leak>:
    89d4:	e1a0c00d 	mov	ip, sp
    89d8:	e92ddbf0 	push	{r4, r5, r6, r7, r8, r9, fp, ip, lr, pc}
    89dc:	e24cb004 	sub	fp, ip, #4, 0
    89e0:	e1a07000 	mov	r7, r0
    89e4:	e59f00c4 	ldr	r0, [pc, #196]	; 8ab0 <sweep_leak+0xdc>
    89e8:	eb000192 	bl	9038 <printk>
    89ec:	e59f00c0 	ldr	r0, [pc, #192]	; 8ab4 <sweep_leak+0xe0>
    89f0:	eb000190 	bl	9038 <printk>
    89f4:	ebffffc7 	bl	8918 <mark_all>
    89f8:	ebfffdbe 	bl	80f8 <ck_first_hdr>
    89fc:	e1a04000 	mov	r4, r0
    8a00:	e3a08000 	mov	r8, #0, 0
    8a04:	e1a06008 	mov	r6, r8
    8a08:	e1a05008 	mov	r5, r8
    8a0c:	ea000007 	b	8a30 <sweep_leak+0x5c>
    8a10:	e2866001 	add	r6, r6, #1, 0
    8a14:	e1a02004 	mov	r2, r4
    8a18:	e1a01005 	mov	r1, r5
    8a1c:	e59f0094 	ldr	r0, [pc, #148]	; 8ab8 <sweep_leak+0xe4>
    8a20:	eb000184 	bl	9038 <printk>
    8a24:	e1a00004 	mov	r0, r4
    8a28:	ebfffdbd 	bl	8124 <ck_next_hdr>
    8a2c:	e1a04000 	mov	r4, r0
    8a30:	e3540000 	cmp	r4, #0, 0
    8a34:	0a00000b 	beq	8a68 <sweep_leak+0x94>
    8a38:	e2855001 	add	r5, r5, #1, 0
    8a3c:	e1d433b0 	ldrh	r3, [r4, #48]	; 0x30
    8a40:	e3530000 	cmp	r3, #0, 0
    8a44:	0afffff1 	beq	8a10 <sweep_leak+0x3c>
    8a48:	e3530001 	cmp	r3, #1, 0
    8a4c:	1afffff4 	bne	8a24 <sweep_leak+0x50>
    8a50:	e2888001 	add	r8, r8, #1, 0
    8a54:	e1a02004 	mov	r2, r4
    8a58:	e1a01005 	mov	r1, r5
    8a5c:	e59f0058 	ldr	r0, [pc, #88]	; 8abc <sweep_leak+0xe8>
    8a60:	eb000174 	bl	9038 <printk>
    8a64:	eaffffee 	b	8a24 <sweep_leak+0x50>
    8a68:	e1a01005 	mov	r1, r5
    8a6c:	e59f004c 	ldr	r0, [pc, #76]	; 8ac0 <sweep_leak+0xec>
    8a70:	eb000170 	bl	9038 <printk>
    8a74:	e1963008 	orrs	r3, r6, r8
    8a78:	1a000007 	bne	8a9c <sweep_leak+0xc8>
    8a7c:	e59f0040 	ldr	r0, [pc, #64]	; 8ac4 <sweep_leak+0xf0>
    8a80:	eb00016c 	bl	9038 <printk>
    8a84:	e59f003c 	ldr	r0, [pc, #60]	; 8ac8 <sweep_leak+0xf4>
    8a88:	eb00016a 	bl	9038 <printk>
    8a8c:	e3570000 	cmp	r7, #0, 0
    8a90:	10866008 	addne	r6, r6, r8
    8a94:	e1a00006 	mov	r0, r6
    8a98:	e89dabf0 	ldm	sp, {r4, r5, r6, r7, r8, r9, fp, sp, pc}
    8a9c:	e1a02008 	mov	r2, r8
    8aa0:	e1a01006 	mov	r1, r6
    8aa4:	e59f0020 	ldr	r0, [pc, #32]	; 8acc <sweep_leak+0xf8>
    8aa8:	eb000162 	bl	9038 <printk>
    8aac:	eafffff4 	b	8a84 <sweep_leak+0xb0>
    8ab0:	0000a804 	andeq	sl, r0, r4, lsl #16
    8ab4:	0000a840 	andeq	sl, r0, r0, asr #16
    8ab8:	0000a858 	andeq	sl, r0, r8, asr r8
    8abc:	0000a86c 	andeq	sl, r0, ip, ror #16
    8ac0:	0000a884 	andeq	sl, r0, r4, lsl #17
    8ac4:	0000a8a4 	andeq	sl, r0, r4, lsr #17
    8ac8:	0000a8fc 	strdeq	sl, [r0], -ip
    8acc:	0000a8cc 	andeq	sl, r0, ip, asr #17
    8ad0:	65657773 	strbvs	r7, [r5, #-1907]!	; 0xfffff88d
    8ad4:	72665f70 	rsbvc	r5, r6, #112, 30	; 0x1c0
    8ad8:	00006565 	andeq	r6, r0, r5, ror #10
    8adc:	ff00000c 			; <UNDEFINED> instruction: 0xff00000c

00008ae0 <sweep_free>:
    8ae0:	e1a0c00d 	mov	ip, sp
    8ae4:	e92dd9f0 	push	{r4, r5, r6, r7, r8, fp, ip, lr, pc}
    8ae8:	e24cb004 	sub	fp, ip, #4, 0
    8aec:	e24dd014 	sub	sp, sp, #20, 0
    8af0:	e59f00b0 	ldr	r0, [pc, #176]	; 8ba8 <sweep_free+0xc8>
    8af4:	eb00014f 	bl	9038 <printk>
    8af8:	e59f00ac 	ldr	r0, [pc, #172]	; 8bac <sweep_free+0xcc>
    8afc:	eb00014d 	bl	9038 <printk>
    8b00:	ebffff84 	bl	8918 <mark_all>
    8b04:	ebfffd7b 	bl	80f8 <ck_first_hdr>
    8b08:	e1a04000 	mov	r4, r0
    8b0c:	e3a07000 	mov	r7, #0, 0
    8b10:	e1a08007 	mov	r8, r7
    8b14:	e1a05007 	mov	r5, r7
    8b18:	ea000013 	b	8b6c <sweep_free+0x8c>
    8b1c:	e2888001 	add	r8, r8, #1, 0
    8b20:	e5943004 	ldr	r3, [r4, #4]
    8b24:	e0877003 	add	r7, r7, r3
    8b28:	e28460b4 	add	r6, r4, #180, 0	; 0xb4
    8b2c:	e59f307c 	ldr	r3, [pc, #124]	; 8bb0 <sweep_free+0xd0>
    8b30:	e50b3030 	str	r3, [fp, #-48]	; 0xffffffd0
    8b34:	e59f3078 	ldr	r3, [pc, #120]	; 8bb4 <sweep_free+0xd4>
    8b38:	e50b302c 	str	r3, [fp, #-44]	; 0xffffffd4
    8b3c:	e59f3074 	ldr	r3, [pc, #116]	; 8bb8 <sweep_free+0xd8>
    8b40:	e50b3028 	str	r3, [fp, #-40]	; 0xffffffd8
    8b44:	e24b3024 	sub	r3, fp, #36, 0	; 0x24
    8b48:	e913000e 	ldmdb	r3, {r1, r2, r3}
    8b4c:	e1a00006 	mov	r0, r6
    8b50:	ebfffdca 	bl	8280 <ckfree>
    8b54:	e1a01006 	mov	r1, r6
    8b58:	e59f005c 	ldr	r0, [pc, #92]	; 8bbc <sweep_free+0xdc>
    8b5c:	eb000135 	bl	9038 <printk>
    8b60:	e1a00004 	mov	r0, r4
    8b64:	ebfffd6e 	bl	8124 <ck_next_hdr>
    8b68:	e1a04000 	mov	r4, r0
    8b6c:	e3540000 	cmp	r4, #0, 0
    8b70:	0a000004 	beq	8b88 <sweep_free+0xa8>
    8b74:	e2855001 	add	r5, r5, #1, 0
    8b78:	e1d433b0 	ldrh	r3, [r4, #48]	; 0x30
    8b7c:	e3530000 	cmp	r3, #0, 0
    8b80:	1afffff6 	bne	8b60 <sweep_free+0x80>
    8b84:	eaffffe4 	b	8b1c <sweep_free+0x3c>
    8b88:	e1a03007 	mov	r3, r7
    8b8c:	e1a02008 	mov	r2, r8
    8b90:	e1a01005 	mov	r1, r5
    8b94:	e59f0024 	ldr	r0, [pc, #36]	; 8bc0 <sweep_free+0xe0>
    8b98:	eb000126 	bl	9038 <printk>
    8b9c:	e1a00007 	mov	r0, r7
    8ba0:	e24bd020 	sub	sp, fp, #32, 0
    8ba4:	e89da9f0 	ldm	sp, {r4, r5, r6, r7, r8, fp, sp, pc}
    8ba8:	0000a804 	andeq	sl, r0, r4, lsl #16
    8bac:	0000a938 	andeq	sl, r0, r8, lsr r9
    8bb0:	0000a76c 	andeq	sl, r0, ip, ror #14
    8bb4:	0000aad4 	ldrdeq	sl, [r0], -r4
    8bb8:	0000011e 	andeq	r0, r0, lr, lsl r1
    8bbc:	0000a948 	andeq	sl, r0, r8, asr #18
    8bc0:	0000a958 	andeq	sl, r0, r8, asr r9
    8bc4:	6b726273 	blvs	1ca1598 <__bss_end__+0x1c96298>
    8bc8:	00000000 	andeq	r0, r0, r0
    8bcc:	ff000008 			; <UNDEFINED> instruction: 0xff000008

00008bd0 <sbrk>:
    8bd0:	e1a0c00d 	mov	ip, sp
    8bd4:	e92dd830 	push	{r4, r5, fp, ip, lr, pc}
    8bd8:	e24cb004 	sub	fp, ip, #4, 0
    8bdc:	e24dd008 	sub	sp, sp, #8, 0
    8be0:	e2504000 	subs	r4, r0, #0, 0
    8be4:	da000010 	ble	8c2c <sbrk+0x5c>
    8be8:	e59f3074 	ldr	r3, [pc, #116]	; 8c64 <sbrk+0x94>
    8bec:	e5933008 	ldr	r3, [r3, #8]
    8bf0:	e3530000 	cmp	r3, #0, 0
    8bf4:	1a000014 	bne	8c4c <sbrk+0x7c>
    8bf8:	e59f5064 	ldr	r5, [pc, #100]	; 8c64 <sbrk+0x94>
    8bfc:	e3a00601 	mov	r0, #1048576	; 0x100000
    8c00:	e5850000 	str	r0, [r5]
    8c04:	e3a03602 	mov	r3, #2097152	; 0x200000
    8c08:	e5853004 	str	r3, [r5, #4]
    8c0c:	e1a01000 	mov	r1, r0
    8c10:	eb0004e1 	bl	9f9c <kmalloc_init_set_start>
    8c14:	e3a03001 	mov	r3, #1, 0
    8c18:	e5853008 	str	r3, [r5, #8]
    8c1c:	e1a00004 	mov	r0, r4
    8c20:	eb000540 	bl	a128 <kmalloc>
    8c24:	e24bd014 	sub	sp, fp, #20, 0
    8c28:	e89da830 	ldm	sp, {r4, r5, fp, sp, pc}
    8c2c:	e59f3034 	ldr	r3, [pc, #52]	; 8c68 <sbrk+0x98>
    8c30:	e58d3000 	str	r3, [sp]
    8c34:	e3a03017 	mov	r3, #23, 0
    8c38:	e59f202c 	ldr	r2, [pc, #44]	; 8c6c <sbrk+0x9c>
    8c3c:	e59f102c 	ldr	r1, [pc, #44]	; 8c70 <sbrk+0xa0>
    8c40:	e59f002c 	ldr	r0, [pc, #44]	; 8c74 <sbrk+0xa4>
    8c44:	eb0000fb 	bl	9038 <printk>
    8c48:	eb00038b 	bl	9a7c <clean_reboot>
    8c4c:	e3a03019 	mov	r3, #25, 0
    8c50:	e59f2014 	ldr	r2, [pc, #20]	; 8c6c <sbrk+0x9c>
    8c54:	e59f1014 	ldr	r1, [pc, #20]	; 8c70 <sbrk+0xa0>
    8c58:	e59f0018 	ldr	r0, [pc, #24]	; 8c78 <sbrk+0xa8>
    8c5c:	eb0000f5 	bl	9038 <printk>
    8c60:	eb000385 	bl	9a7c <clean_reboot>
    8c64:	0000aee8 	andeq	sl, r0, r8, ror #29
    8c68:	0000a98c 	andeq	sl, r0, ip, lsl #19
    8c6c:	0000aae0 	andeq	sl, r0, r0, ror #21
    8c70:	0000a76c 	andeq	sl, r0, ip, ror #14
    8c74:	0000a6f8 	strdeq	sl, [r0], -r8
    8c78:	0000a99c 	muleq	r0, ip, r9
    8c7c:	7a646572 	bvc	192224c <__bss_end__+0x1916f4c>
    8c80:	5f656e6f 	svcpl	0x00656e6f
    8c84:	6f727265 	svcvs	0x00727265
    8c88:	00007372 	andeq	r7, r0, r2, ror r3
    8c8c:	ff000010 			; <UNDEFINED> instruction: 0xff000010

00008c90 <redzone_errors>:
    8c90:	e1a0c00d 	mov	ip, sp
    8c94:	e92dd800 	push	{fp, ip, lr, pc}
    8c98:	e24cb004 	sub	fp, ip, #4, 0
    8c9c:	e1a0c000 	mov	ip, r0
    8ca0:	e3a03000 	mov	r3, #0, 0
    8ca4:	e1a00003 	mov	r0, r3
    8ca8:	ea000001 	b	8cb4 <redzone_errors+0x24>
    8cac:	e2800001 	add	r0, r0, #1, 0
    8cb0:	e2833001 	add	r3, r3, #1, 0
    8cb4:	e1530001 	cmp	r3, r1
    8cb8:	a89da800 	ldmge	sp, {fp, sp, pc}
    8cbc:	e7dc2003 	ldrb	r2, [ip, r3]
    8cc0:	e35200fe 	cmp	r2, #254, 0	; 0xfe
    8cc4:	1afffff8 	bne	8cac <redzone_errors+0x1c>
    8cc8:	eafffff8 	b	8cb0 <redzone_errors+0x20>
    8ccc:	685f6b63 	ldmdavs	pc, {r0, r1, r5, r6, r8, r9, fp, sp, lr}^	; <UNPREDICTABLE>
    8cd0:	5f706165 	svcpl	0x00706165
    8cd4:	6f727265 	svcvs	0x00727265
    8cd8:	00007372 	andeq	r7, r0, r2, ror r3
    8cdc:	ff000010 			; <UNDEFINED> instruction: 0xff000010

00008ce0 <ck_heap_errors>:
    8ce0:	e1a0c00d 	mov	ip, sp
    8ce4:	e92dd8f0 	push	{r4, r5, r6, r7, fp, ip, lr, pc}
    8ce8:	e24cb004 	sub	fp, ip, #4, 0
    8cec:	ebfffd01 	bl	80f8 <ck_first_hdr>
    8cf0:	e1a04000 	mov	r4, r0
    8cf4:	e3a06000 	mov	r6, #0, 0
    8cf8:	ea00000a 	b	8d28 <ck_heap_errors+0x48>
    8cfc:	e5943024 	ldr	r3, [r4, #36]	; 0x24
    8d00:	e5942020 	ldr	r2, [r4, #32]
    8d04:	e594101c 	ldr	r1, [r4, #28]
    8d08:	e59f0098 	ldr	r0, [pc, #152]	; 8da8 <ck_heap_errors+0xc8>
    8d0c:	eb0000c9 	bl	9038 <printk>
    8d10:	e59f0094 	ldr	r0, [pc, #148]	; 8dac <ck_heap_errors+0xcc>
    8d14:	eb0000c7 	bl	9038 <printk>
    8d18:	e0866005 	add	r6, r6, r5
    8d1c:	e1a00004 	mov	r0, r4
    8d20:	ebfffcff 	bl	8124 <ck_next_hdr>
    8d24:	e1a04000 	mov	r4, r0
    8d28:	e3540000 	cmp	r4, #0, 0
    8d2c:	0a00001b 	beq	8da0 <ck_heap_errors+0xc0>
    8d30:	e3a01080 	mov	r1, #128, 0	; 0x80
    8d34:	e2840032 	add	r0, r4, #50, 0	; 0x32
    8d38:	ebffffd4 	bl	8c90 <redzone_errors>
    8d3c:	e1a05000 	mov	r5, r0
    8d40:	e28470b4 	add	r7, r4, #180, 0	; 0xb4
    8d44:	e5940004 	ldr	r0, [r4, #4]
    8d48:	e28000b4 	add	r0, r0, #180, 0	; 0xb4
    8d4c:	e3a01080 	mov	r1, #128, 0	; 0x80
    8d50:	e0840000 	add	r0, r4, r0
    8d54:	ebffffcd 	bl	8c90 <redzone_errors>
    8d58:	e0855000 	add	r5, r5, r0
    8d5c:	e5943018 	ldr	r3, [r4, #24]
    8d60:	e5942014 	ldr	r2, [r4, #20]
    8d64:	e5941010 	ldr	r1, [r4, #16]
    8d68:	e59f0038 	ldr	r0, [pc, #56]	; 8da8 <ck_heap_errors+0xc8>
    8d6c:	eb0000b1 	bl	9038 <printk>
    8d70:	e59f0038 	ldr	r0, [pc, #56]	; 8db0 <ck_heap_errors+0xd0>
    8d74:	eb0000af 	bl	9038 <printk>
    8d78:	e5943008 	ldr	r3, [r4, #8]
    8d7c:	e353000c 	cmp	r3, #12, 0
    8d80:	1affffe4 	bne	8d18 <ck_heap_errors+0x38>
    8d84:	e5941004 	ldr	r1, [r4, #4]
    8d88:	e1a00007 	mov	r0, r7
    8d8c:	ebffffbf 	bl	8c90 <redzone_errors>
    8d90:	e0855000 	add	r5, r5, r0
    8d94:	e3500000 	cmp	r0, #0, 0
    8d98:	0affffde 	beq	8d18 <ck_heap_errors+0x38>
    8d9c:	eaffffd6 	b	8cfc <ck_heap_errors+0x1c>
    8da0:	e1a00006 	mov	r0, r6
    8da4:	e89da8f0 	ldm	sp, {r4, r5, r6, r7, fp, sp, pc}
    8da8:	0000a658 	andeq	sl, r0, r8, asr r6
    8dac:	0000a9ec 	andeq	sl, r0, ip, ror #19
    8db0:	0000a9bc 			; <UNDEFINED> instruction: 0x0000a9bc
    8db4:	665f6b63 	ldrbvs	r6, [pc], -r3, ror #22
    8db8:	5f646e69 	svcpl	0x00646e69
    8dbc:	6b61656c 	blvs	1862374 <__bss_end__+0x1857074>
    8dc0:	00000073 	andeq	r0, r0, r3, ror r0
    8dc4:	ff000010 			; <UNDEFINED> instruction: 0xff000010

00008dc8 <ck_find_leaks>:
    8dc8:	e1a0c00d 	mov	ip, sp
    8dcc:	e92dd800 	push	{fp, ip, lr, pc}
    8dd0:	e24cb004 	sub	fp, ip, #4, 0
    8dd4:	ebfffefe 	bl	89d4 <sweep_leak>
    8dd8:	e89da800 	ldm	sp, {fp, sp, pc}
    8ddc:	63656863 	cmnvs	r5, #6488064	; 0x630000
    8de0:	6f6e5f6b 	svcvs	0x006e5f6b
    8de4:	61656c5f 	cmnvs	r5, pc, asr ip
    8de8:	0000006b 	andeq	r0, r0, fp, rrx
    8dec:	ff000010 			; <UNDEFINED> instruction: 0xff000010

00008df0 <check_no_leak>:
    8df0:	e1a0c00d 	mov	ip, sp
    8df4:	e92dd800 	push	{fp, ip, lr, pc}
    8df8:	e24cb004 	sub	fp, ip, #4, 0
    8dfc:	e3a00001 	mov	r0, #1, 0
    8e00:	ebfffff0 	bl	8dc8 <ck_find_leaks>
    8e04:	e3500000 	cmp	r0, #0, 0
    8e08:	1a000002 	bne	8e18 <check_no_leak+0x28>
    8e0c:	e59f001c 	ldr	r0, [pc, #28]	; 8e30 <check_no_leak+0x40>
    8e10:	eb000088 	bl	9038 <printk>
    8e14:	e89da800 	ldm	sp, {fp, sp, pc}
    8e18:	e3a030f9 	mov	r3, #249, 0	; 0xf9
    8e1c:	e59f2010 	ldr	r2, [pc, #16]	; 8e34 <check_no_leak+0x44>
    8e20:	e59f1010 	ldr	r1, [pc, #16]	; 8e38 <check_no_leak+0x48>
    8e24:	e59f0010 	ldr	r0, [pc, #16]	; 8e3c <check_no_leak+0x4c>
    8e28:	eb000082 	bl	9038 <printk>
    8e2c:	eb000312 	bl	9a7c <clean_reboot>
    8e30:	0000aa30 	andeq	sl, r0, r0, lsr sl
    8e34:	0000aae8 	andeq	sl, r0, r8, ror #21
    8e38:	0000a76c 	andeq	sl, r0, ip, ror #14
    8e3c:	0000aa04 	andeq	sl, r0, r4, lsl #20
    8e40:	63656863 	cmnvs	r5, #6488064	; 0x630000
    8e44:	68735f6b 	ldmdavs	r3!, {r0, r1, r3, r5, r6, r8, r9, sl, fp, ip, lr}^
    8e48:	646c756f 	strbtvs	r7, [ip], #-1391	; 0xfffffa91
    8e4c:	61656c5f 	cmnvs	r5, pc, asr ip
    8e50:	0000006b 	andeq	r0, r0, fp, rrx
    8e54:	ff000014 			; <UNDEFINED> instruction: 0xff000014

00008e58 <check_should_leak>:
    8e58:	e1a0c00d 	mov	ip, sp
    8e5c:	e92dd830 	push	{r4, r5, fp, ip, lr, pc}
    8e60:	e24cb004 	sub	fp, ip, #4, 0
    8e64:	e3a00001 	mov	r0, #1, 0
    8e68:	ebffffd6 	bl	8dc8 <ck_find_leaks>
    8e6c:	e2504000 	subs	r4, r0, #0, 0
    8e70:	0a000004 	beq	8e88 <check_should_leak+0x30>
    8e74:	e1a01004 	mov	r1, r4
    8e78:	e59f0020 	ldr	r0, [pc, #32]	; 8ea0 <check_should_leak+0x48>
    8e7c:	eb00006d 	bl	9038 <printk>
    8e80:	e1a00004 	mov	r0, r4
    8e84:	e89da830 	ldm	sp, {r4, r5, fp, sp, pc}
    8e88:	e3a03f42 	mov	r3, #264	; 0x108
    8e8c:	e59f2010 	ldr	r2, [pc, #16]	; 8ea4 <check_should_leak+0x4c>
    8e90:	e59f1010 	ldr	r1, [pc, #16]	; 8ea8 <check_should_leak+0x50>
    8e94:	e59f0010 	ldr	r0, [pc, #16]	; 8eac <check_should_leak+0x54>
    8e98:	eb000066 	bl	9038 <printk>
    8e9c:	eb0002f6 	bl	9a7c <clean_reboot>
    8ea0:	0000aa78 	andeq	sl, r0, r8, ror sl
    8ea4:	0000aaf8 	strdeq	sl, [r0], -r8
    8ea8:	0000a76c 	andeq	sl, r0, ip, ror #14
    8eac:	0000aa50 	andeq	sl, r0, r0, asr sl
    8eb0:	675f6b63 	ldrbvs	r6, [pc, -r3, ror #22]
    8eb4:	00000063 	andeq	r0, r0, r3, rrx
    8eb8:	ff000008 			; <UNDEFINED> instruction: 0xff000008

00008ebc <ck_gc>:
    8ebc:	e1a0c00d 	mov	ip, sp
    8ec0:	e92dd800 	push	{fp, ip, lr, pc}
    8ec4:	e24cb004 	sub	fp, ip, #4, 0
    8ec8:	ebfffe92 	bl	8918 <mark_all>
    8ecc:	ebffff03 	bl	8ae0 <sweep_free>
    8ed0:	e89da800 	ldm	sp, {fp, sp, pc}
    8ed4:	6c706d69 	ldclvs	13, cr6, [r0], #-420	; 0xfffffe5c
    8ed8:	6e656d65 	cdpvs	13, 6, cr6, cr5, cr5, {3}
    8edc:	68745f74 	ldmdavs	r4!, {r2, r4, r5, r6, r8, r9, sl, fp, ip, lr}^
    8ee0:	00007369 	andeq	r7, r0, r9, ror #6
    8ee4:	ff000010 			; <UNDEFINED> instruction: 0xff000010

00008ee8 <implement_this>:
    8ee8:	e1a0c00d 	mov	ip, sp
    8eec:	e92dd800 	push	{fp, ip, lr, pc}
    8ef0:	e24cb004 	sub	fp, ip, #4, 0
    8ef4:	e3a03f4d 	mov	r3, #308	; 0x134
    8ef8:	e59f200c 	ldr	r2, [pc, #12]	; 8f0c <implement_this+0x24>
    8efc:	e59f100c 	ldr	r1, [pc, #12]	; 8f10 <implement_this+0x28>
    8f00:	e59f000c 	ldr	r0, [pc, #12]	; 8f14 <implement_this+0x2c>
    8f04:	eb00004b 	bl	9038 <printk>
    8f08:	eb0002db 	bl	9a7c <clean_reboot>
    8f0c:	0000ab0c 	andeq	sl, r0, ip, lsl #22
    8f10:	0000a76c 	andeq	sl, r0, ip, ror #14
    8f14:	0000aa9c 	muleq	r0, ip, sl

00008f18 <dump_regs>:
    8f18:	e8a0ffff 	stmia	r0!, {r0, r1, r2, r3, r4, r5, r6, r7, r8, r9, sl, fp, ip, sp, lr, pc}
    8f1c:	e12fff1e 	bx	lr

00008f20 <backtrace>:
    8f20:	e92d41f0 	push	{r4, r5, r6, r7, r8, lr}
    8f24:	e1a0400b 	mov	r4, fp
    8f28:	e3540000 	cmp	r4, #0, 0
    8f2c:	0a000016 	beq	8f8c <backtrace+0x6c>
    8f30:	e3a07000 	mov	r7, #0, 0
    8f34:	e59f605c 	ldr	r6, [pc, #92]	; 8f98 <backtrace+0x78>
    8f38:	e59f505c 	ldr	r5, [pc, #92]	; 8f9c <backtrace+0x7c>
    8f3c:	ea000002 	b	8f4c <backtrace+0x2c>
    8f40:	e2877001 	add	r7, r7, #1, 0
    8f44:	e3570020 	cmp	r7, #32, 0
    8f48:	0a00000f 	beq	8f8c <backtrace+0x6c>
    8f4c:	e5940000 	ldr	r0, [r4]
    8f50:	e1a01007 	mov	r1, r7
    8f54:	e5103010 	ldr	r3, [r0, #-16]
    8f58:	e240200c 	sub	r2, r0, #12, 0
    8f5c:	e31304ff 	tst	r3, #-16777216	; 0xff000000
    8f60:	e2400010 	sub	r0, r0, #16, 0
    8f64:	e3c334ff 	bic	r3, r3, #-16777216	; 0xff000000
    8f68:	10403003 	subne	r3, r0, r3
    8f6c:	01a03006 	moveq	r3, r6
    8f70:	e1a00005 	mov	r0, r5
    8f74:	eb00002f 	bl	9038 <printk>
    8f78:	e514400c 	ldr	r4, [r4, #-12]
    8f7c:	e3540000 	cmp	r4, #0, 0
    8f80:	1affffee 	bne	8f40 <backtrace+0x20>
    8f84:	e1a00007 	mov	r0, r7
    8f88:	e8bd81f0 	pop	{r4, r5, r6, r7, r8, pc}
    8f8c:	e3e07000 	mvn	r7, #0, 0
    8f90:	e1a00007 	mov	r0, r7
    8f94:	e8bd81f0 	pop	{r4, r5, r6, r7, r8, pc}
    8f98:	0000ab1c 	andeq	sl, r0, ip, lsl fp
    8f9c:	0000ab20 	andeq	sl, r0, r0, lsr #22

00008fa0 <name_of>:
    8fa0:	e5103004 	ldr	r3, [r0, #-4]
    8fa4:	e2400004 	sub	r0, r0, #4, 0
    8fa8:	e31304ff 	tst	r3, #-16777216	; 0xff000000
    8fac:	13c334ff 	bicne	r3, r3, #-16777216	; 0xff000000
    8fb0:	10400003 	subne	r0, r0, r3
    8fb4:	059f0000 	ldreq	r0, [pc]	; 8fbc <name_of+0x1c>
    8fb8:	e12fff1e 	bx	lr
    8fbc:	0000ab1c 	andeq	sl, r0, ip, lsl fp

00008fc0 <memset>:
    8fc0:	e92d4010 	push	{r4, lr}
    8fc4:	e0804002 	add	r4, r0, r2
    8fc8:	e1500004 	cmp	r0, r4
    8fcc:	28bd8010 	popcs	{r4, pc}
    8fd0:	e2423001 	sub	r3, r2, #1, 0
    8fd4:	e3530002 	cmp	r3, #2, 0
    8fd8:	e6ef1071 	uxtb	r1, r1
    8fdc:	e1a03000 	mov	r3, r0
    8fe0:	9a00000b 	bls	9014 <memset+0x54>
    8fe4:	e181e401 	orr	lr, r1, r1, lsl #8
    8fe8:	e18ee801 	orr	lr, lr, r1, lsl #16
    8fec:	e3c2c003 	bic	ip, r2, #3, 0
    8ff0:	e18eec01 	orr	lr, lr, r1, lsl #24
    8ff4:	e08cc000 	add	ip, ip, r0
    8ff8:	e483e004 	str	lr, [r3], #4
    8ffc:	e153000c 	cmp	r3, ip
    9000:	1afffffc 	bne	8ff8 <memset+0x38>
    9004:	e3c23003 	bic	r3, r2, #3, 0
    9008:	e1520003 	cmp	r2, r3
    900c:	e0803003 	add	r3, r0, r3
    9010:	08bd8010 	popeq	{r4, pc}
    9014:	e1a02003 	mov	r2, r3
    9018:	e4c21001 	strb	r1, [r2], #1
    901c:	e1540002 	cmp	r4, r2
    9020:	98bd8010 	popls	{r4, pc}
    9024:	e2832002 	add	r2, r3, #2, 0
    9028:	e1540002 	cmp	r4, r2
    902c:	e5c31001 	strb	r1, [r3, #1]
    9030:	85c31002 	strbhi	r1, [r3, #2]
    9034:	e8bd8010 	pop	{r4, pc}

00009038 <printk>:
    9038:	e92d000f 	push	{r0, r1, r2, r3}
    903c:	e92d4030 	push	{r4, r5, lr}
    9040:	e59f5040 	ldr	r5, [pc, #64]	; 9088 <printk+0x50>
    9044:	e24dd00c 	sub	sp, sp, #12, 0
    9048:	e28d301c 	add	r3, sp, #28, 0
    904c:	e3a01b01 	mov	r1, #1024	; 0x400
    9050:	e59d2018 	ldr	r2, [sp, #24]
    9054:	e1a00005 	mov	r0, r5
    9058:	e58d3004 	str	r3, [sp, #4]
    905c:	eb0000fb 	bl	9450 <va_printk>
    9060:	e1a04000 	mov	r4, r0
    9064:	e59f3020 	ldr	r3, [pc, #32]	; 908c <printk+0x54>
    9068:	e1a00005 	mov	r0, r5
    906c:	e5933000 	ldr	r3, [r3]
    9070:	e12fff33 	blx	r3
    9074:	e1a00004 	mov	r0, r4
    9078:	e28dd00c 	add	sp, sp, #12, 0
    907c:	e8bd4030 	pop	{r4, r5, lr}
    9080:	e28dd010 	add	sp, sp, #16, 0
    9084:	e12fff1e 	bx	lr
    9088:	0000aef4 	strdeq	sl, [r0], -r4
    908c:	0000aeb8 			; <UNDEFINED> instruction: 0x0000aeb8

00009090 <internal_putk>:
    9090:	e92d4070 	push	{r4, r5, r6, lr}
    9094:	e1a04000 	mov	r4, r0
    9098:	e5d00000 	ldrb	r0, [r0]
    909c:	e3500000 	cmp	r0, #0, 0
    90a0:	0a000005 	beq	90bc <internal_putk+0x2c>
    90a4:	e59f5018 	ldr	r5, [pc, #24]	; 90c4 <internal_putk+0x34>
    90a8:	e5953000 	ldr	r3, [r5]
    90ac:	e12fff33 	blx	r3
    90b0:	e5f40001 	ldrb	r0, [r4, #1]!
    90b4:	e3500000 	cmp	r0, #0, 0
    90b8:	1afffffa 	bne	90a8 <internal_putk+0x18>
    90bc:	e3a00001 	mov	r0, #1, 0
    90c0:	e8bd8070 	pop	{r4, r5, r6, pc}
    90c4:	0000aec8 	andeq	sl, r0, r8, asr #29

000090c8 <emit.constprop.0>:
    90c8:	e92d41f0 	push	{r4, r5, r6, r7, r8, lr}
    90cc:	e3530080 	cmp	r3, #128, 0	; 0x80
    90d0:	e1a0c000 	mov	ip, r0
    90d4:	e24dd048 	sub	sp, sp, #72, 0	; 0x48
    90d8:	e1a00001 	mov	r0, r1
    90dc:	ca000069 	bgt	9288 <emit.constprop.0+0x1c0>
    90e0:	e24c1002 	sub	r1, ip, #2, 0
    90e4:	e1a0c002 	mov	ip, r2
    90e8:	e351000e 	cmp	r1, #14, 0
    90ec:	979ff101 	ldrls	pc, [pc, r1, lsl #2]
    90f0:	ea0000a7 	b	9394 <emit.constprop.0+0x2cc>
    90f4:	00009260 	andeq	r9, r0, r0, ror #4
    90f8:	00009394 	muleq	r0, r4, r3
    90fc:	00009394 	muleq	r0, r4, r3
    9100:	00009394 	muleq	r0, r4, r3
    9104:	00009394 	muleq	r0, r4, r3
    9108:	00009394 	muleq	r0, r4, r3
    910c:	0000933c 	andeq	r9, r0, ip, lsr r3
    9110:	00009394 	muleq	r0, r4, r3
    9114:	000092dc 	ldrdeq	r9, [r0], -ip
    9118:	00009394 	muleq	r0, r4, r3
    911c:	00009394 	muleq	r0, r4, r3
    9120:	00009394 	muleq	r0, r4, r3
    9124:	00009394 	muleq	r0, r4, r3
    9128:	00009394 	muleq	r0, r4, r3
    912c:	00009134 	andeq	r9, r0, r4, lsr r1
    9130:	e3a0307f 	mov	r3, #127, 0	; 0x7f
    9134:	e28d2008 	add	r2, sp, #8, 0
    9138:	e1a04002 	mov	r4, r2
    913c:	e59f1288 	ldr	r1, [pc, #648]	; 93cc <emit.constprop.0+0x304>
    9140:	e20ce00f 	and	lr, ip, #15, 0
    9144:	e7d1e00e 	ldrb	lr, [r1, lr]
    9148:	e35c000f 	cmp	ip, #15, 0
    914c:	e4c4e001 	strb	lr, [r4], #1
    9150:	e1a0c22c 	lsr	ip, ip, #4
    9154:	8afffff9 	bhi	9140 <emit.constprop.0+0x78>
    9158:	e3a0c078 	mov	ip, #120, 0	; 0x78
    915c:	e1a0e004 	mov	lr, r4
    9160:	e3a01030 	mov	r1, #48, 0	; 0x30
    9164:	e4cec002 	strb	ip, [lr], #2
    9168:	e5c41001 	strb	r1, [r4, #1]
    916c:	e04e1002 	sub	r1, lr, r2
    9170:	e1510003 	cmp	r1, r3
    9174:	aa000083 	bge	9388 <emit.constprop.0+0x2c0>
    9178:	e1510003 	cmp	r1, r3
    917c:	a3a0c001 	movge	ip, #1, 0
    9180:	b3a0c000 	movlt	ip, #0, 0
    9184:	e2434001 	sub	r4, r3, #1, 0
    9188:	e0444001 	sub	r4, r4, r1
    918c:	b0436001 	sublt	r6, r3, r1
    9190:	a3a06001 	movge	r6, #1, 0
    9194:	e3540002 	cmp	r4, #2, 0
    9198:	938cc001 	orrls	ip, ip, #1, 0
    919c:	e35c0000 	cmp	ip, #0, 0
    91a0:	1a000075 	bne	937c <emit.constprop.0+0x2b4>
    91a4:	e1a0c00e 	mov	ip, lr
    91a8:	e3c65003 	bic	r5, r6, #3, 0
    91ac:	e59f721c 	ldr	r7, [pc, #540]	; 93d0 <emit.constprop.0+0x308>
    91b0:	e085500e 	add	r5, r5, lr
    91b4:	e48c7004 	str	r7, [ip], #4
    91b8:	e15c0005 	cmp	ip, r5
    91bc:	1afffffc 	bne	91b4 <emit.constprop.0+0xec>
    91c0:	e3c6c003 	bic	ip, r6, #3, 0
    91c4:	e156000c 	cmp	r6, ip
    91c8:	e08e500c 	add	r5, lr, ip
    91cc:	e08cc001 	add	ip, ip, r1
    91d0:	0a000008 	beq	91f8 <emit.constprop.0+0x130>
    91d4:	e3a07020 	mov	r7, #32, 0
    91d8:	e28c8001 	add	r8, ip, #1, 0
    91dc:	e1580003 	cmp	r8, r3
    91e0:	e5c57000 	strb	r7, [r5]
    91e4:	aa000003 	bge	91f8 <emit.constprop.0+0x130>
    91e8:	e28cc002 	add	ip, ip, #2, 0
    91ec:	e15c0003 	cmp	ip, r3
    91f0:	e5c57001 	strb	r7, [r5, #1]
    91f4:	b5c57002 	strblt	r7, [r5, #2]
    91f8:	e1510003 	cmp	r1, r3
    91fc:	a3a04000 	movge	r4, #0, 0
    9200:	e08e6006 	add	r6, lr, r6
    9204:	e0461002 	sub	r1, r6, r2
    9208:	e08ee004 	add	lr, lr, r4
    920c:	e3a03000 	mov	r3, #0, 0
    9210:	e351007f 	cmp	r1, #127, 0	; 0x7f
    9214:	c241407f 	subgt	r4, r1, #127, 0	; 0x7f
    9218:	c0822004 	addgt	r2, r2, r4
    921c:	e152000e 	cmp	r2, lr
    9220:	e5c63000 	strb	r3, [r6]
    9224:	8a00004f 	bhi	9368 <emit.constprop.0+0x2a0>
    9228:	e28ee001 	add	lr, lr, #1, 0
    922c:	e1a0300e 	mov	r3, lr
    9230:	e240c001 	sub	ip, r0, #1, 0
    9234:	e5734001 	ldrb	r4, [r3, #-1]!
    9238:	e1530002 	cmp	r3, r2
    923c:	e5ec4001 	strb	r4, [ip, #1]!
    9240:	1afffffb 	bne	9234 <emit.constprop.0+0x16c>
    9244:	e04ee003 	sub	lr, lr, r3
    9248:	e3a03000 	mov	r3, #0, 0
    924c:	e080e00e 	add	lr, r0, lr
    9250:	e5ce3000 	strb	r3, [lr]
    9254:	e28dd048 	add	sp, sp, #72, 0	; 0x48
    9258:	e8bd81f0 	pop	{r4, r5, r6, r7, r8, pc}
    925c:	e3a0307f 	mov	r3, #127, 0	; 0x7f
    9260:	e28d2008 	add	r2, sp, #8, 0
    9264:	e1a0e002 	mov	lr, r2
    9268:	e59f1164 	ldr	r1, [pc, #356]	; 93d4 <emit.constprop.0+0x30c>
    926c:	e20c4001 	and	r4, ip, #1, 0
    9270:	e7d14004 	ldrb	r4, [r1, r4]
    9274:	e35c0001 	cmp	ip, #1, 0
    9278:	e4ce4001 	strb	r4, [lr], #1
    927c:	e1a0c0ac 	lsr	ip, ip, #1
    9280:	8afffff9 	bhi	926c <emit.constprop.0+0x1a4>
    9284:	eaffffb8 	b	916c <emit.constprop.0+0xa4>
    9288:	e24c3002 	sub	r3, ip, #2, 0
    928c:	e1a0c002 	mov	ip, r2
    9290:	e353000e 	cmp	r3, #14, 0
    9294:	979ff103 	ldrls	pc, [pc, r3, lsl #2]
    9298:	ea00003d 	b	9394 <emit.constprop.0+0x2cc>
    929c:	0000925c 	andeq	r9, r0, ip, asr r2
    92a0:	00009394 	muleq	r0, r4, r3
    92a4:	00009394 	muleq	r0, r4, r3
    92a8:	00009394 	muleq	r0, r4, r3
    92ac:	00009394 	muleq	r0, r4, r3
    92b0:	00009394 	muleq	r0, r4, r3
    92b4:	000093b4 			; <UNDEFINED> instruction: 0x000093b4
    92b8:	00009394 	muleq	r0, r4, r3
    92bc:	000092d8 	ldrdeq	r9, [r0], -r8
    92c0:	00009394 	muleq	r0, r4, r3
    92c4:	00009394 	muleq	r0, r4, r3
    92c8:	00009394 	muleq	r0, r4, r3
    92cc:	00009394 	muleq	r0, r4, r3
    92d0:	00009394 	muleq	r0, r4, r3
    92d4:	00009130 	andeq	r9, r0, r0, lsr r1
    92d8:	e3a0307f 	mov	r3, #127, 0	; 0x7f
    92dc:	e59d1060 	ldr	r1, [sp, #96]	; 0x60
    92e0:	e59f70f0 	ldr	r7, [pc, #240]	; 93d8 <emit.constprop.0+0x310>
    92e4:	e0118fa2 	ands	r8, r1, r2, lsr #31
    92e8:	1262c000 	rsbne	ip, r2, #0, 0
    92ec:	e28d2008 	add	r2, sp, #8, 0
    92f0:	13a08001 	movne	r8, #1, 0
    92f4:	e1a0e002 	mov	lr, r2
    92f8:	e59f60dc 	ldr	r6, [pc, #220]	; 93dc <emit.constprop.0+0x314>
    92fc:	e1a0500c 	mov	r5, ip
    9300:	e0814c96 	umull	r4, r1, r6, ip
    9304:	e1a011a1 	lsr	r1, r1, #3
    9308:	e0814101 	add	r4, r1, r1, lsl #2
    930c:	e04cc084 	sub	ip, ip, r4, lsl #1
    9310:	e7d7400c 	ldrb	r4, [r7, ip]
    9314:	e3550009 	cmp	r5, #9, 0
    9318:	e1a0c001 	mov	ip, r1
    931c:	e1a0100e 	mov	r1, lr
    9320:	e4ce4001 	strb	r4, [lr], #1
    9324:	8afffff4 	bhi	92fc <emit.constprop.0+0x234>
    9328:	e3580000 	cmp	r8, #0, 0
    932c:	13a0c02d 	movne	ip, #45, 0	; 0x2d
    9330:	15cec000 	strbne	ip, [lr]
    9334:	1281e002 	addne	lr, r1, #2, 0
    9338:	eaffff8b 	b	916c <emit.constprop.0+0xa4>
    933c:	e3530001 	cmp	r3, #1, 0
    9340:	e5cd2008 	strb	r2, [sp, #8]
    9344:	c3a01001 	movgt	r1, #1, 0
    9348:	c28de009 	addgt	lr, sp, #9, 0
    934c:	c28d2008 	addgt	r2, sp, #8, 0
    9350:	caffff88 	bgt	9178 <emit.constprop.0+0xb0>
    9354:	e3a03000 	mov	r3, #0, 0
    9358:	e28de008 	add	lr, sp, #8, 0
    935c:	e1a0200e 	mov	r2, lr
    9360:	e5cd3009 	strb	r3, [sp, #9]
    9364:	eaffffaf 	b	9228 <emit.constprop.0+0x160>
    9368:	e1a0e000 	mov	lr, r0
    936c:	e3a03000 	mov	r3, #0, 0
    9370:	e5ce3000 	strb	r3, [lr]
    9374:	e28dd048 	add	sp, sp, #72, 0	; 0x48
    9378:	e8bd81f0 	pop	{r4, r5, r6, r7, r8, pc}
    937c:	e1a0c001 	mov	ip, r1
    9380:	e1a0500e 	mov	r5, lr
    9384:	eaffff92 	b	91d4 <emit.constprop.0+0x10c>
    9388:	e1a0600e 	mov	r6, lr
    938c:	e24ee001 	sub	lr, lr, #1, 0
    9390:	eaffff9d 	b	920c <emit.constprop.0+0x144>
    9394:	e59f2044 	ldr	r2, [pc, #68]	; 93e0 <emit.constprop.0+0x318>
    9398:	e3a03079 	mov	r3, #121, 0	; 0x79
    939c:	e59f1040 	ldr	r1, [pc, #64]	; 93e4 <emit.constprop.0+0x31c>
    93a0:	e58d2000 	str	r2, [sp]
    93a4:	e59f003c 	ldr	r0, [pc, #60]	; 93e8 <emit.constprop.0+0x320>
    93a8:	e59f203c 	ldr	r2, [pc, #60]	; 93ec <emit.constprop.0+0x324>
    93ac:	ebffff21 	bl	9038 <printk>
    93b0:	eb0001b1 	bl	9a7c <clean_reboot>
    93b4:	e5cd2008 	strb	r2, [sp, #8]
    93b8:	e3a0307f 	mov	r3, #127, 0	; 0x7f
    93bc:	e3a01001 	mov	r1, #1, 0
    93c0:	e28de009 	add	lr, sp, #9, 0
    93c4:	e28d2008 	add	r2, sp, #8, 0
    93c8:	eaffff6a 	b	9178 <emit.constprop.0+0xb0>
    93cc:	0000ab44 	andeq	sl, r0, r4, asr #22
    93d0:	20202020 	eorcs	r2, r0, r0, lsr #32
    93d4:	0000ab58 	andeq	sl, r0, r8, asr fp
    93d8:	0000ab5c 	andeq	sl, r0, ip, asr fp
    93dc:	cccccccd 	stclgt	12, cr12, [ip], {205}	; 0xcd
    93e0:	0000a998 	muleq	r0, r8, r9
    93e4:	0000ab30 	andeq	sl, r0, r0, lsr fp
    93e8:	0000a6f8 	strdeq	sl, [r0], -r8
    93ec:	0000ac70 	andeq	sl, r0, r0, ror ip

000093f0 <rpi_set_output>:
    93f0:	e3500000 	cmp	r0, #0, 0
    93f4:	0a000005 	beq	9410 <rpi_set_output+0x20>
    93f8:	e59f3038 	ldr	r3, [pc, #56]	; 9438 <rpi_set_output+0x48>
    93fc:	e3510000 	cmp	r1, #0, 0
    9400:	e5830000 	str	r0, [r3]
    9404:	159f3030 	ldrne	r3, [pc, #48]	; 943c <rpi_set_output+0x4c>
    9408:	15831000 	strne	r1, [r3]
    940c:	e12fff1e 	bx	lr
    9410:	e52de004 	push	{lr}		; (str lr, [sp, #-4]!)
    9414:	e59f2024 	ldr	r2, [pc, #36]	; 9440 <rpi_set_output+0x50>
    9418:	e24dd00c 	sub	sp, sp, #12, 0
    941c:	e3a03020 	mov	r3, #32, 0
    9420:	e59f101c 	ldr	r1, [pc, #28]	; 9444 <rpi_set_output+0x54>
    9424:	e58d2000 	str	r2, [sp]
    9428:	e59f0018 	ldr	r0, [pc, #24]	; 9448 <rpi_set_output+0x58>
    942c:	e59f2018 	ldr	r2, [pc, #24]	; 944c <rpi_set_output+0x5c>
    9430:	ebffff00 	bl	9038 <printk>
    9434:	eb000190 	bl	9a7c <clean_reboot>
    9438:	0000aec8 	andeq	sl, r0, r8, asr #29
    943c:	0000aeb8 			; <UNDEFINED> instruction: 0x0000aeb8
    9440:	0000ab68 	andeq	sl, r0, r8, ror #22
    9444:	0000ab30 	andeq	sl, r0, r0, lsr fp
    9448:	0000a6f8 	strdeq	sl, [r0], -r8
    944c:	0000ac78 	andeq	sl, r0, r8, ror ip

00009450 <va_printk>:
    9450:	e92d4ff0 	push	{r4, r5, r6, r7, r8, r9, sl, fp, lr}
    9454:	e1a0b000 	mov	fp, r0
    9458:	e3a00000 	mov	r0, #0, 0
    945c:	e5cb0000 	strb	r0, [fp]
    9460:	e5d2c000 	ldrb	ip, [r2]
    9464:	e2417001 	sub	r7, r1, #1, 0
    9468:	e08b7007 	add	r7, fp, r7
    946c:	e15c0000 	cmp	ip, r0
    9470:	115b0007 	cmpne	fp, r7
    9474:	e24ddf47 	sub	sp, sp, #284	; 0x11c
    9478:	e58d2010 	str	r2, [sp, #16]
    947c:	2a000159 	bcs	99e8 <va_printk+0x598>
    9480:	e1a06002 	mov	r6, r2
    9484:	e1a08003 	mov	r8, r3
    9488:	e1a0400b 	mov	r4, fp
    948c:	e59fa5a4 	ldr	sl, [pc, #1444]	; 9a38 <va_printk+0x5e8>
    9490:	e58db00c 	str	fp, [sp, #12]
    9494:	ea000005 	b	94b0 <va_printk+0x60>
    9498:	e4c4c001 	strb	ip, [r4], #1
    949c:	e2866001 	add	r6, r6, #1, 0
    94a0:	e5d6c000 	ldrb	ip, [r6]
    94a4:	e35c0000 	cmp	ip, #0, 0
    94a8:	11570004 	cmpne	r7, r4
    94ac:	9a00002f 	bls	9570 <va_printk+0x120>
    94b0:	e35c0025 	cmp	ip, #37, 0	; 0x25
    94b4:	1afffff7 	bne	9498 <va_printk+0x48>
    94b8:	e5d62001 	ldrb	r2, [r6, #1]
    94bc:	e3520025 	cmp	r2, #37, 0	; 0x25
    94c0:	04c4c001 	strbeq	ip, [r4], #1
    94c4:	02866002 	addeq	r6, r6, #2, 0
    94c8:	0afffff4 	beq	94a0 <va_printk+0x50>
    94cc:	e2423030 	sub	r3, r2, #48, 0	; 0x30
    94d0:	e3530009 	cmp	r3, #9, 0
    94d4:	e3a05000 	mov	r5, #0, 0
    94d8:	e2866001 	add	r6, r6, #1, 0
    94dc:	8a000008 	bhi	9504 <va_printk+0xb4>
    94e0:	e0855105 	add	r5, r5, r5, lsl #2
    94e4:	e0825085 	add	r5, r2, r5, lsl #1
    94e8:	e5f62001 	ldrb	r2, [r6, #1]!
    94ec:	e2455030 	sub	r5, r5, #48, 0	; 0x30
    94f0:	e2423030 	sub	r3, r2, #48, 0	; 0x30
    94f4:	e3530009 	cmp	r3, #9, 0
    94f8:	9afffff8 	bls	94e0 <va_printk+0x90>
    94fc:	e355001f 	cmp	r5, #31, 0
    9500:	8a00013a 	bhi	99f0 <va_printk+0x5a0>
    9504:	e2423062 	sub	r3, r2, #98, 0	; 0x62
    9508:	e3530016 	cmp	r3, #22, 0
    950c:	979ff103 	ldrls	pc, [pc, r3, lsl #2]
    9510:	ea00011b 	b	9984 <va_printk+0x534>
    9514:	000097c8 	andeq	r9, r0, r8, asr #15
    9518:	000096c4 	andeq	r9, r0, r4, asr #13
    951c:	000096bc 			; <UNDEFINED> instruction: 0x000096bc
    9520:	00009984 	andeq	r9, r0, r4, lsl #19
    9524:	000099c0 	andeq	r9, r0, r0, asr #19
    9528:	00009984 	andeq	r9, r0, r4, lsl #19
    952c:	00009984 	andeq	r9, r0, r4, lsl #19
    9530:	00009984 	andeq	r9, r0, r4, lsl #19
    9534:	00009984 	andeq	r9, r0, r4, lsl #19
    9538:	00009984 	andeq	r9, r0, r4, lsl #19
    953c:	000095cc 	andeq	r9, r0, ip, asr #11
    9540:	00009984 	andeq	r9, r0, r4, lsl #19
    9544:	00009984 	andeq	r9, r0, r4, lsl #19
    9548:	00009984 	andeq	r9, r0, r4, lsl #19
    954c:	00009588 	andeq	r9, r0, r8, lsl #11
    9550:	00009984 	andeq	r9, r0, r4, lsl #19
    9554:	00009984 	andeq	r9, r0, r4, lsl #19
    9558:	000098c0 	andeq	r9, r0, r0, asr #17
    955c:	00009984 	andeq	r9, r0, r4, lsl #19
    9560:	00009698 	muleq	r0, r8, r6
    9564:	00009984 	andeq	r9, r0, r4, lsl #19
    9568:	00009984 	andeq	r9, r0, r4, lsl #19
    956c:	00009588 	andeq	r9, r0, r8, lsl #11
    9570:	e59db00c 	ldr	fp, [sp, #12]
    9574:	e3a03000 	mov	r3, #0, 0
    9578:	e4c43001 	strb	r3, [r4], #1
    957c:	e044000b 	sub	r0, r4, fp
    9580:	e28ddf47 	add	sp, sp, #284	; 0x11c
    9584:	e8bd8ff0 	pop	{r4, r5, r6, r7, r8, r9, sl, fp, pc}
    9588:	e3a01000 	mov	r1, #0, 0
    958c:	e1a03005 	mov	r3, r5
    9590:	e4982004 	ldr	r2, [r8], #4
    9594:	e3a00010 	mov	r0, #16, 0
    9598:	e58d1000 	str	r1, [sp]
    959c:	e28d1018 	add	r1, sp, #24, 0
    95a0:	ebfffec8 	bl	90c8 <emit.constprop.0>
    95a4:	e1a05000 	mov	r5, r0
    95a8:	e2866001 	add	r6, r6, #1, 0
    95ac:	e2455001 	sub	r5, r5, #1, 0
    95b0:	e5f53001 	ldrb	r3, [r5, #1]!
    95b4:	e3530000 	cmp	r3, #0, 0
    95b8:	0affffb8 	beq	94a0 <va_printk+0x50>
    95bc:	e4c43001 	strb	r3, [r4], #1
    95c0:	e1570004 	cmp	r7, r4
    95c4:	8afffff9 	bhi	95b0 <va_printk+0x160>
    95c8:	eaffffb4 	b	94a0 <va_printk+0x50>
    95cc:	e3a02003 	mov	r2, #3, 0
    95d0:	e1a00006 	mov	r0, r6
    95d4:	e59f1460 	ldr	r1, [pc, #1120]	; 9a3c <va_printk+0x5ec>
    95d8:	eb0003e6 	bl	a578 <strncmp>
    95dc:	e3500000 	cmp	r0, #0, 0
    95e0:	0a000005 	beq	95fc <va_printk+0x1ac>
    95e4:	e3a02003 	mov	r2, #3, 0
    95e8:	e1a00006 	mov	r0, r6
    95ec:	e59f144c 	ldr	r1, [pc, #1100]	; 9a40 <va_printk+0x5f0>
    95f0:	eb0003e0 	bl	a578 <strncmp>
    95f4:	e3500000 	cmp	r0, #0, 0
    95f8:	1a00010b 	bne	9a2c <va_printk+0x5dc>
    95fc:	e2888007 	add	r8, r8, #7, 0
    9600:	e3c88007 	bic	r8, r8, #7, 0
    9604:	e598b004 	ldr	fp, [r8, #4]
    9608:	e4989008 	ldr	r9, [r8], #8
    960c:	e1a0100b 	mov	r1, fp
    9610:	e59f042c 	ldr	r0, [pc, #1068]	; 9a44 <va_printk+0x5f4>
    9614:	ebfffe87 	bl	9038 <printk>
    9618:	e1a01009 	mov	r1, r9
    961c:	e59f0424 	ldr	r0, [pc, #1060]	; 9a48 <va_printk+0x5f8>
    9620:	ebfffe84 	bl	9038 <printk>
    9624:	e3a02003 	mov	r2, #3, 0
    9628:	e1a00006 	mov	r0, r6
    962c:	e59f1408 	ldr	r1, [pc, #1032]	; 9a3c <va_printk+0x5ec>
    9630:	eb0003d0 	bl	a578 <strncmp>
    9634:	e2503000 	subs	r3, r0, #0, 0
    9638:	e1a02003 	mov	r2, r3
    963c:	e2863002 	add	r3, r6, #2, 0
    9640:	e58d3014 	str	r3, [sp, #20]
    9644:	1a00009f 	bne	98c8 <va_printk+0x478>
    9648:	e1a06002 	mov	r6, r2
    964c:	e1a03005 	mov	r3, r5
    9650:	e58d2000 	str	r2, [sp]
    9654:	e28d1018 	add	r1, sp, #24, 0
    9658:	e1a0200b 	mov	r2, fp
    965c:	e3a00010 	mov	r0, #16, 0
    9660:	ebfffe98 	bl	90c8 <emit.constprop.0>
    9664:	e1a0c000 	mov	ip, r0
    9668:	e1a03005 	mov	r3, r5
    966c:	e58d6000 	str	r6, [sp]
    9670:	e28d1098 	add	r1, sp, #152, 0	; 0x98
    9674:	e1a02009 	mov	r2, r9
    9678:	e3a00010 	mov	r0, #16, 0
    967c:	e1a0500c 	mov	r5, ip
    9680:	ebfffe90 	bl	90c8 <emit.constprop.0>
    9684:	e28d0018 	add	r0, sp, #24, 0
    9688:	e28d109a 	add	r1, sp, #154, 0	; 0x9a
    968c:	e59d6014 	ldr	r6, [sp, #20]
    9690:	eb000396 	bl	a4f0 <strcat>
    9694:	eaffffc3 	b	95a8 <va_printk+0x158>
    9698:	e3a01000 	mov	r1, #0, 0
    969c:	e1a03005 	mov	r3, r5
    96a0:	e4982004 	ldr	r2, [r8], #4
    96a4:	e3a0000a 	mov	r0, #10, 0
    96a8:	e58d1000 	str	r1, [sp]
    96ac:	e28d1018 	add	r1, sp, #24, 0
    96b0:	ebfffe84 	bl	90c8 <emit.constprop.0>
    96b4:	e1a05000 	mov	r5, r0
    96b8:	eaffffba 	b	95a8 <va_printk+0x158>
    96bc:	e3a01001 	mov	r1, #1, 0
    96c0:	eafffff5 	b	969c <va_printk+0x24c>
    96c4:	e4983004 	ldr	r3, [r8], #4
    96c8:	e3550001 	cmp	r5, #1, 0
    96cc:	e5cd3098 	strb	r3, [sp, #152]	; 0x98
    96d0:	9a0000a6 	bls	9970 <va_printk+0x520>
    96d4:	e2453002 	sub	r3, r5, #2, 0
    96d8:	e3530002 	cmp	r3, #2, 0
    96dc:	e2451001 	sub	r1, r5, #1, 0
    96e0:	9a0000bc 	bls	99d8 <va_printk+0x588>
    96e4:	e59f0360 	ldr	r0, [pc, #864]	; 9a4c <va_printk+0x5fc>
    96e8:	e1a02121 	lsr	r2, r1, #2
    96ec:	e3520001 	cmp	r2, #1, 0
    96f0:	e58d0099 	str	r0, [sp, #153]	; 0x99
    96f4:	0a00000e 	beq	9734 <va_printk+0x2e4>
    96f8:	e3520002 	cmp	r2, #2, 0
    96fc:	e58d009d 	str	r0, [sp, #157]	; 0x9d
    9700:	0a00000b 	beq	9734 <va_printk+0x2e4>
    9704:	e3520003 	cmp	r2, #3, 0
    9708:	e58d00a1 	str	r0, [sp, #161]	; 0xa1
    970c:	0a000008 	beq	9734 <va_printk+0x2e4>
    9710:	e3520004 	cmp	r2, #4, 0
    9714:	e58d00a5 	str	r0, [sp, #165]	; 0xa5
    9718:	0a000005 	beq	9734 <va_printk+0x2e4>
    971c:	e3520005 	cmp	r2, #5, 0
    9720:	e58d00a9 	str	r0, [sp, #169]	; 0xa9
    9724:	0a000002 	beq	9734 <va_printk+0x2e4>
    9728:	e3520007 	cmp	r2, #7, 0
    972c:	e58d00ad 	str	r0, [sp, #173]	; 0xad
    9730:	058d00b1 	streq	r0, [sp, #177]	; 0xb1
    9734:	e3c12003 	bic	r2, r1, #3, 0
    9738:	e1510002 	cmp	r1, r2
    973c:	e28dc099 	add	ip, sp, #153, 0	; 0x99
    9740:	e08c0002 	add	r0, ip, r2
    9744:	e2822001 	add	r2, r2, #1, 0
    9748:	0a000008 	beq	9770 <va_printk+0x320>
    974c:	e3a0e020 	mov	lr, #32, 0
    9750:	e2829001 	add	r9, r2, #1, 0
    9754:	e1550009 	cmp	r5, r9
    9758:	e5c0e000 	strb	lr, [r0]
    975c:	da000003 	ble	9770 <va_printk+0x320>
    9760:	e2822002 	add	r2, r2, #2, 0
    9764:	e1550002 	cmp	r5, r2
    9768:	e5c0e001 	strb	lr, [r0, #1]
    976c:	c5c0e002 	strbgt	lr, [r0, #2]
    9770:	e3a0e000 	mov	lr, #0, 0
    9774:	e28d0098 	add	r0, sp, #152, 0	; 0x98
    9778:	e08c2001 	add	r2, ip, r1
    977c:	e0422000 	sub	r2, r2, r0
    9780:	e352007f 	cmp	r2, #127, 0	; 0x7f
    9784:	c242207f 	subgt	r2, r2, #127, 0	; 0x7f
    9788:	e08c3003 	add	r3, ip, r3
    978c:	c0800002 	addgt	r0, r0, r2
    9790:	e1530000 	cmp	r3, r0
    9794:	e7cce001 	strb	lr, [ip, r1]
    9798:	3a00006c 	bcc	9950 <va_printk+0x500>
    979c:	e283c001 	add	ip, r3, #1, 0
    97a0:	e1a0300c 	mov	r3, ip
    97a4:	e28d5018 	add	r5, sp, #24, 0
    97a8:	e2452001 	sub	r2, r5, #1, 0
    97ac:	e5731001 	ldrb	r1, [r3, #-1]!
    97b0:	e1500003 	cmp	r0, r3
    97b4:	e5e21001 	strb	r1, [r2, #1]!
    97b8:	1afffffb 	bne	97ac <va_printk+0x35c>
    97bc:	e04c3000 	sub	r3, ip, r0
    97c0:	e0853003 	add	r3, r5, r3
    97c4:	ea00003a 	b	98b4 <va_printk+0x464>
    97c8:	e28d1098 	add	r1, sp, #152, 0	; 0x98
    97cc:	e1a03001 	mov	r3, r1
    97d0:	e4980004 	ldr	r0, [r8], #4
    97d4:	e200c001 	and	ip, r0, #1, 0
    97d8:	e7dac00c 	ldrb	ip, [sl, ip]
    97dc:	e3500001 	cmp	r0, #1, 0
    97e0:	e1a02003 	mov	r2, r3
    97e4:	e1a000a0 	lsr	r0, r0, #1
    97e8:	e4c3c001 	strb	ip, [r3], #1
    97ec:	8afffff8 	bhi	97d4 <va_printk+0x384>
    97f0:	e0430001 	sub	r0, r3, r1
    97f4:	e1550000 	cmp	r5, r0
    97f8:	da000057 	ble	995c <va_printk+0x50c>
    97fc:	e045c000 	sub	ip, r5, r0
    9800:	e24ce001 	sub	lr, ip, #1, 0
    9804:	e35e0002 	cmp	lr, #2, 0
    9808:	e1a0e003 	mov	lr, r3
    980c:	9a00000a 	bls	983c <va_printk+0x3ec>
    9810:	e3cc9003 	bic	r9, ip, #3, 0
    9814:	e0899003 	add	r9, r9, r3
    9818:	e59fb22c 	ldr	fp, [pc, #556]	; 9a4c <va_printk+0x5fc>
    981c:	e48eb004 	str	fp, [lr], #4
    9820:	e15e0009 	cmp	lr, r9
    9824:	1afffffb 	bne	9818 <va_printk+0x3c8>
    9828:	e3cce003 	bic	lr, ip, #3, 0
    982c:	e15e000c 	cmp	lr, ip
    9830:	e080000e 	add	r0, r0, lr
    9834:	e083e00e 	add	lr, r3, lr
    9838:	0a000008 	beq	9860 <va_printk+0x410>
    983c:	e3a09020 	mov	r9, #32, 0
    9840:	e280b001 	add	fp, r0, #1, 0
    9844:	e155000b 	cmp	r5, fp
    9848:	e5ce9000 	strb	r9, [lr]
    984c:	da000003 	ble	9860 <va_printk+0x410>
    9850:	e2800002 	add	r0, r0, #2, 0
    9854:	e1550000 	cmp	r5, r0
    9858:	e5ce9001 	strb	r9, [lr, #1]
    985c:	c5ce9002 	strbgt	r9, [lr, #2]
    9860:	e3a0e000 	mov	lr, #0, 0
    9864:	e083000c 	add	r0, r3, ip
    9868:	e0400001 	sub	r0, r0, r1
    986c:	e350007f 	cmp	r0, #127, 0	; 0x7f
    9870:	e082200c 	add	r2, r2, ip
    9874:	e7c3e00c 	strb	lr, [r3, ip]
    9878:	da000001 	ble	9884 <va_printk+0x434>
    987c:	e240007f 	sub	r0, r0, #127, 0	; 0x7f
    9880:	e0811000 	add	r1, r1, r0
    9884:	e1510002 	cmp	r1, r2
    9888:	8a000030 	bhi	9950 <va_printk+0x500>
    988c:	e2822001 	add	r2, r2, #1, 0
    9890:	e1a03002 	mov	r3, r2
    9894:	e28d5018 	add	r5, sp, #24, 0
    9898:	e245c001 	sub	ip, r5, #1, 0
    989c:	e5730001 	ldrb	r0, [r3, #-1]!
    98a0:	e1530001 	cmp	r3, r1
    98a4:	e5ec0001 	strb	r0, [ip, #1]!
    98a8:	1afffffb 	bne	989c <va_printk+0x44c>
    98ac:	e0423003 	sub	r3, r2, r3
    98b0:	e0853003 	add	r3, r5, r3
    98b4:	e3a02000 	mov	r2, #0, 0
    98b8:	e5c32000 	strb	r2, [r3]
    98bc:	eaffff39 	b	95a8 <va_printk+0x158>
    98c0:	e4985004 	ldr	r5, [r8], #4
    98c4:	eaffff37 	b	95a8 <va_printk+0x158>
    98c8:	e3a02003 	mov	r2, #3, 0
    98cc:	e1a00006 	mov	r0, r6
    98d0:	e59f1168 	ldr	r1, [pc, #360]	; 9a40 <va_printk+0x5f0>
    98d4:	eb000327 	bl	a578 <strncmp>
    98d8:	e2503000 	subs	r3, r0, #0, 0
    98dc:	1a00004b 	bne	9a10 <va_printk+0x5c0>
    98e0:	e1a06003 	mov	r6, r3
    98e4:	e1a0200b 	mov	r2, fp
    98e8:	e58d3000 	str	r3, [sp]
    98ec:	e28d1018 	add	r1, sp, #24, 0
    98f0:	e1a03005 	mov	r3, r5
    98f4:	e3a0000a 	mov	r0, #10, 0
    98f8:	ebfffdf2 	bl	90c8 <emit.constprop.0>
    98fc:	e1a0c000 	mov	ip, r0
    9900:	e1a03005 	mov	r3, r5
    9904:	e1a02009 	mov	r2, r9
    9908:	e28d1098 	add	r1, sp, #152, 0	; 0x98
    990c:	e3a0000a 	mov	r0, #10, 0
    9910:	e58d6000 	str	r6, [sp]
    9914:	e1a0500c 	mov	r5, ip
    9918:	ebfffdea 	bl	90c8 <emit.constprop.0>
    991c:	e59f112c 	ldr	r1, [pc, #300]	; 9a50 <va_printk+0x600>
    9920:	e28d0018 	add	r0, sp, #24, 0
    9924:	eb0002fc 	bl	a51c <strcmp>
    9928:	e3500000 	cmp	r0, #0, 0
    992c:	e28d1098 	add	r1, sp, #152, 0	; 0x98
    9930:	e28d0018 	add	r0, sp, #24, 0
    9934:	1a000002 	bne	9944 <va_printk+0x4f4>
    9938:	eb000308 	bl	a560 <strcpy>
    993c:	e59d6014 	ldr	r6, [sp, #20]
    9940:	eaffff18 	b	95a8 <va_printk+0x158>
    9944:	eb0002e9 	bl	a4f0 <strcat>
    9948:	e59d6014 	ldr	r6, [sp, #20]
    994c:	eaffff15 	b	95a8 <va_printk+0x158>
    9950:	e28d5018 	add	r5, sp, #24, 0
    9954:	e1a03005 	mov	r3, r5
    9958:	eaffffd5 	b	98b4 <va_printk+0x464>
    995c:	e3a0c000 	mov	ip, #0, 0
    9960:	e350007f 	cmp	r0, #127, 0	; 0x7f
    9964:	e5c3c000 	strb	ip, [r3]
    9968:	caffffc3 	bgt	987c <va_printk+0x42c>
    996c:	eaffffc6 	b	988c <va_printk+0x43c>
    9970:	e3a02000 	mov	r2, #0, 0
    9974:	e28d3098 	add	r3, sp, #152, 0	; 0x98
    9978:	e1a00003 	mov	r0, r3
    997c:	e5cd2099 	strb	r2, [sp, #153]	; 0x99
    9980:	eaffff85 	b	979c <va_printk+0x34c>
    9984:	e3a03000 	mov	r3, #0, 0
    9988:	e1a01002 	mov	r1, r2
    998c:	e5c63001 	strb	r3, [r6, #1]
    9990:	e59f00bc 	ldr	r0, [pc, #188]	; 9a54 <va_printk+0x604>
    9994:	ebfffda7 	bl	9038 <printk>
    9998:	e59f30b8 	ldr	r3, [pc, #184]	; 9a58 <va_printk+0x608>
    999c:	e59d0010 	ldr	r0, [sp, #16]
    99a0:	e5933000 	ldr	r3, [r3]
    99a4:	e12fff33 	blx	r3
    99a8:	e3a030e2 	mov	r3, #226, 0	; 0xe2
    99ac:	e59f20a8 	ldr	r2, [pc, #168]	; 9a5c <va_printk+0x60c>
    99b0:	e59f10a8 	ldr	r1, [pc, #168]	; 9a60 <va_printk+0x610>
    99b4:	e59f00a8 	ldr	r0, [pc, #168]	; 9a64 <va_printk+0x614>
    99b8:	ebfffd9e 	bl	9038 <printk>
    99bc:	eb00002e 	bl	9a7c <clean_reboot>
    99c0:	e3a030be 	mov	r3, #190, 0	; 0xbe
    99c4:	e59f2090 	ldr	r2, [pc, #144]	; 9a5c <va_printk+0x60c>
    99c8:	e59f1090 	ldr	r1, [pc, #144]	; 9a60 <va_printk+0x610>
    99cc:	e59f0094 	ldr	r0, [pc, #148]	; 9a68 <va_printk+0x618>
    99d0:	ebfffd98 	bl	9038 <printk>
    99d4:	eb000028 	bl	9a7c <clean_reboot>
    99d8:	e28dc099 	add	ip, sp, #153, 0	; 0x99
    99dc:	e1a0000c 	mov	r0, ip
    99e0:	e3a02001 	mov	r2, #1, 0
    99e4:	eaffff58 	b	974c <va_printk+0x2fc>
    99e8:	e1a0400b 	mov	r4, fp
    99ec:	eafffee0 	b	9574 <va_printk+0x124>
    99f0:	e3a03098 	mov	r3, #152, 0	; 0x98
    99f4:	e59f2070 	ldr	r2, [pc, #112]	; 9a6c <va_printk+0x61c>
    99f8:	e59f1060 	ldr	r1, [pc, #96]	; 9a60 <va_printk+0x610>
    99fc:	e58d2000 	str	r2, [sp]
    9a00:	e59f0068 	ldr	r0, [pc, #104]	; 9a70 <va_printk+0x620>
    9a04:	e59f2050 	ldr	r2, [pc, #80]	; 9a5c <va_printk+0x60c>
    9a08:	ebfffd8a 	bl	9038 <printk>
    9a0c:	eb00001a 	bl	9a7c <clean_reboot>
    9a10:	e3a030b6 	mov	r3, #182, 0	; 0xb6
    9a14:	e59f2040 	ldr	r2, [pc, #64]	; 9a5c <va_printk+0x60c>
    9a18:	e59f1040 	ldr	r1, [pc, #64]	; 9a60 <va_printk+0x610>
    9a1c:	e59f0050 	ldr	r0, [pc, #80]	; 9a74 <va_printk+0x624>
    9a20:	e58d6000 	str	r6, [sp]
    9a24:	ebfffd83 	bl	9038 <printk>
    9a28:	eb000013 	bl	9a7c <clean_reboot>
    9a2c:	e3a0309f 	mov	r3, #159, 0	; 0x9f
    9a30:	e59f2040 	ldr	r2, [pc, #64]	; 9a78 <va_printk+0x628>
    9a34:	eaffffef 	b	99f8 <va_printk+0x5a8>
    9a38:	0000ab58 	andeq	sl, r0, r8, asr fp
    9a3c:	0000ab7c 	andeq	sl, r0, ip, ror fp
    9a40:	0000ab90 	muleq	r0, r0, fp
    9a44:	0000ab80 	andeq	sl, r0, r0, lsl #23
    9a48:	0000ab88 	andeq	sl, r0, r8, lsl #23
    9a4c:	20202020 	eorcs	r2, r0, r0, lsr #32
    9a50:	0000a998 	muleq	r0, r8, r9
    9a54:	0000ac20 	andeq	sl, r0, r0, lsr #24
    9a58:	0000aeb8 			; <UNDEFINED> instruction: 0x0000aeb8
    9a5c:	0000ac88 	andeq	sl, r0, r8, lsl #25
    9a60:	0000ab30 	andeq	sl, r0, r0, lsr fp
    9a64:	0000ac50 	andeq	sl, r0, r0, asr ip
    9a68:	0000abf8 	strdeq	sl, [r0], -r8
    9a6c:	0000ab70 	andeq	sl, r0, r0, ror fp
    9a70:	0000a6f8 	strdeq	sl, [r0], -r8
    9a74:	0000abd0 	ldrdeq	sl, [r0], -r0
    9a78:	0000ab94 	muleq	r0, r4, fp

00009a7c <clean_reboot>:
    9a7c:	e59f301c 	ldr	r3, [pc, #28]	; 9aa0 <clean_reboot+0x24>
    9a80:	e92d4010 	push	{r4, lr}
    9a84:	e5933000 	ldr	r3, [r3]
    9a88:	e59f0014 	ldr	r0, [pc, #20]	; 9aa4 <clean_reboot+0x28>
    9a8c:	e12fff33 	blx	r3
    9a90:	eb000127 	bl	9f34 <uart_flush_tx>
    9a94:	e3a0000a 	mov	r0, #10, 0
    9a98:	eb00008e 	bl	9cd8 <delay_ms>
    9a9c:	eb000057 	bl	9c00 <rpi_reboot>
    9aa0:	0000aeb8 			; <UNDEFINED> instruction: 0x0000aeb8
    9aa4:	0000ac94 	muleq	r0, r4, ip

00009aa8 <_cstart>:
    9aa8:	e92d4070 	push	{r4, r5, r6, lr}
    9aac:	eb000047 	bl	9bd0 <custom_loader>
    9ab0:	e59f2108 	ldr	r2, [pc, #264]	; 9bc0 <_cstart+0x118>
    9ab4:	e59fc108 	ldr	ip, [pc, #264]	; 9bc4 <_cstart+0x11c>
    9ab8:	e152000c 	cmp	r2, ip
    9abc:	2a00002e 	bcs	9b7c <_cstart+0xd4>
    9ac0:	e24c1001 	sub	r1, ip, #1, 0
    9ac4:	e0411002 	sub	r1, r1, r2
    9ac8:	e3510017 	cmp	r1, #23, 0
    9acc:	e1a03122 	lsr	r3, r2, #2
    9ad0:	e1a01121 	lsr	r1, r1, #2
    9ad4:	e2811001 	add	r1, r1, #1, 0
    9ad8:	e2033001 	and	r3, r3, #1, 0
    9adc:	9a000035 	bls	9bb8 <_cstart+0x110>
    9ae0:	e3530000 	cmp	r3, #0, 0
    9ae4:	11a00002 	movne	r0, r2
    9ae8:	13a0e000 	movne	lr, #0, 0
    9aec:	e3a04000 	mov	r4, #0, 0
    9af0:	e3a05000 	mov	r5, #0, 0
    9af4:	e0411003 	sub	r1, r1, r3
    9af8:	01a00002 	moveq	r0, r2
    9afc:	e0823103 	add	r3, r2, r3, lsl #2
    9b00:	e1a020a1 	lsr	r2, r1, #1
    9b04:	1480e004 	strne	lr, [r0], #4
    9b08:	e0832182 	add	r2, r3, r2, lsl #3
    9b0c:	e0c340f8 	strd	r4, [r3], #8
    9b10:	e1520003 	cmp	r2, r3
    9b14:	1afffffc 	bne	9b0c <_cstart+0x64>
    9b18:	e3c13001 	bic	r3, r1, #1, 0
    9b1c:	e1510003 	cmp	r1, r3
    9b20:	e0803103 	add	r3, r0, r3, lsl #2
    9b24:	0a000014 	beq	9b7c <_cstart+0xd4>
    9b28:	e1a01003 	mov	r1, r3
    9b2c:	e3a02000 	mov	r2, #0, 0
    9b30:	e4812004 	str	r2, [r1], #4
    9b34:	e151000c 	cmp	r1, ip
    9b38:	2a00000f 	bcs	9b7c <_cstart+0xd4>
    9b3c:	e2831008 	add	r1, r3, #8, 0
    9b40:	e151000c 	cmp	r1, ip
    9b44:	e5832004 	str	r2, [r3, #4]
    9b48:	2a00000b 	bcs	9b7c <_cstart+0xd4>
    9b4c:	e283100c 	add	r1, r3, #12, 0
    9b50:	e151000c 	cmp	r1, ip
    9b54:	e5832008 	str	r2, [r3, #8]
    9b58:	2a000007 	bcs	9b7c <_cstart+0xd4>
    9b5c:	e2831010 	add	r1, r3, #16, 0
    9b60:	e151000c 	cmp	r1, ip
    9b64:	e583200c 	str	r2, [r3, #12]
    9b68:	2a000003 	bcs	9b7c <_cstart+0xd4>
    9b6c:	e2831014 	add	r1, r3, #20, 0
    9b70:	e151000c 	cmp	r1, ip
    9b74:	e5832010 	str	r2, [r3, #16]
    9b78:	35832014 	strcc	r2, [r3, #20]
    9b7c:	eb00008e 	bl	9dbc <uart_init>
    9b80:	e3a03001 	mov	r3, #1, 0
    9b84:	ee0f3f1c 	mcr	15, 0, r3, cr15, cr12, {0}
    9b88:	ee1f3f3c 	mrc	15, 0, r3, cr15, cr12, {1}
    9b8c:	e59f4034 	ldr	r4, [pc, #52]	; 9bc8 <_cstart+0x120>
    9b90:	e5843000 	str	r3, [r4]
    9b94:	ebfff92a 	bl	8044 <notmain>
    9b98:	ee1f3f3c 	mrc	15, 0, r3, cr15, cr12, {1}
    9b9c:	e5941000 	ldr	r1, [r4]
    9ba0:	e59f0024 	ldr	r0, [pc, #36]	; 9bcc <_cstart+0x124>
    9ba4:	e3510000 	cmp	r1, #0, 0
    9ba8:	10431001 	subne	r1, r3, r1
    9bac:	e5843000 	str	r3, [r4]
    9bb0:	ebfffd20 	bl	9038 <printk>
    9bb4:	ebffffb0 	bl	9a7c <clean_reboot>
    9bb8:	e1a03002 	mov	r3, r2
    9bbc:	eaffffd9 	b	9b28 <_cstart+0x80>
    9bc0:	0000aed0 	ldrdeq	sl, [r0], -r0
    9bc4:	0000b300 	andeq	fp, r0, r0, lsl #6
    9bc8:	0000b2f4 	strdeq	fp, [r0], -r4
    9bcc:	0000aca0 	andeq	sl, r0, r0, lsr #25

00009bd0 <custom_loader>:
    9bd0:	e12fff1e 	bx	lr

00009bd4 <at_user_level>:
    9bd4:	e10f0000 	mrs	r0, CPSR
    9bd8:	e200001f 	and	r0, r0, #31, 0
    9bdc:	e2400010 	sub	r0, r0, #16, 0
    9be0:	e16f0f10 	clz	r0, r0
    9be4:	e1a002a0 	lsr	r0, r0, #5
    9be8:	e12fff1e 	bx	lr

00009bec <set_user_level>:
    9bec:	e10f3000 	mrs	r3, CPSR
    9bf0:	e3c3301f 	bic	r3, r3, #31, 0
    9bf4:	e3833010 	orr	r3, r3, #16, 0
    9bf8:	e129f003 	msr	CPSR_fc, r3
    9bfc:	e12fff1e 	bx	lr

00009c00 <rpi_reboot>:
    9c00:	e92d4010 	push	{r4, lr}
    9c04:	e10f3000 	mrs	r3, CPSR
    9c08:	e203301f 	and	r3, r3, #31, 0
    9c0c:	e3530010 	cmp	r3, #16, 0
    9c10:	1a000003 	bne	9c24 <rpi_reboot+0x24>
    9c14:	e10f3000 	mrs	r3, CPSR
    9c18:	e3c3301f 	bic	r3, r3, #31, 0
    9c1c:	e3833010 	orr	r3, r3, #16, 0
    9c20:	e129f003 	msr	CPSR_fc, r3
    9c24:	eb00025f 	bl	a5a8 <reboot_callout>
    9c28:	eb0000c1 	bl	9f34 <uart_flush_tx>
    9c2c:	e3a0000a 	mov	r0, #10, 0
    9c30:	eb000028 	bl	9cd8 <delay_ms>
    9c34:	e59f1014 	ldr	r1, [pc, #20]	; 9c50 <rpi_reboot+0x50>
    9c38:	e59f0014 	ldr	r0, [pc, #20]	; 9c54 <rpi_reboot+0x54>
    9c3c:	ebfff8f8 	bl	8024 <PUT32>
    9c40:	e59f1010 	ldr	r1, [pc, #16]	; 9c58 <rpi_reboot+0x58>
    9c44:	e59f0010 	ldr	r0, [pc, #16]	; 9c5c <rpi_reboot+0x5c>
    9c48:	ebfff8f5 	bl	8024 <PUT32>
    9c4c:	eafffffe 	b	9c4c <rpi_reboot+0x4c>
    9c50:	5a000001 	bpl	9c5c <rpi_reboot+0x5c>
    9c54:	20100024 	andscs	r0, r0, r4, lsr #32
    9c58:	5a000020 	bpl	9ce0 <delay_ms+0x8>
    9c5c:	2010001c 	andscs	r0, r0, ip, lsl r0

00009c60 <timer_get_usec_raw>:
    9c60:	e59f0000 	ldr	r0, [pc]	; 9c68 <timer_get_usec_raw+0x8>
    9c64:	eafff8f0 	b	802c <GET32>
    9c68:	20003004 	andcs	r3, r0, r4

00009c6c <timer_get_usec>:
    9c6c:	e92d4010 	push	{r4, lr}
    9c70:	eb00024d 	bl	a5ac <dev_barrier>
    9c74:	e59f0010 	ldr	r0, [pc, #16]	; 9c8c <timer_get_usec+0x20>
    9c78:	ebfff8eb 	bl	802c <GET32>
    9c7c:	e1a04000 	mov	r4, r0
    9c80:	eb000249 	bl	a5ac <dev_barrier>
    9c84:	e1a00004 	mov	r0, r4
    9c88:	e8bd8010 	pop	{r4, pc}
    9c8c:	20003004 	andcs	r3, r0, r4

00009c90 <delay_us>:
    9c90:	e92d41f0 	push	{r4, r5, r6, r7, r8, lr}
    9c94:	e1a06000 	mov	r6, r0
    9c98:	eb000243 	bl	a5ac <dev_barrier>
    9c9c:	e59f0030 	ldr	r0, [pc, #48]	; 9cd4 <delay_us+0x44>
    9ca0:	ebfff8e1 	bl	802c <GET32>
    9ca4:	e1a05000 	mov	r5, r0
    9ca8:	eb00023f 	bl	a5ac <dev_barrier>
    9cac:	e59f7020 	ldr	r7, [pc, #32]	; 9cd4 <delay_us+0x44>
    9cb0:	eb00023d 	bl	a5ac <dev_barrier>
    9cb4:	e1a00007 	mov	r0, r7
    9cb8:	ebfff8db 	bl	802c <GET32>
    9cbc:	e1a04000 	mov	r4, r0
    9cc0:	e0444005 	sub	r4, r4, r5
    9cc4:	eb000238 	bl	a5ac <dev_barrier>
    9cc8:	e1540006 	cmp	r4, r6
    9ccc:	3afffff7 	bcc	9cb0 <delay_us+0x20>
    9cd0:	e8bd81f0 	pop	{r4, r5, r6, r7, r8, pc}
    9cd4:	20003004 	andcs	r3, r0, r4

00009cd8 <delay_ms>:
    9cd8:	e92d41f0 	push	{r4, r5, r6, r7, r8, lr}
    9cdc:	e0604280 	rsb	r4, r0, r0, lsl #5
    9ce0:	e0800104 	add	r0, r0, r4, lsl #2
    9ce4:	e1a04180 	lsl	r4, r0, #3
    9ce8:	eb00022f 	bl	a5ac <dev_barrier>
    9cec:	e59f0030 	ldr	r0, [pc, #48]	; 9d24 <delay_ms+0x4c>
    9cf0:	ebfff8cd 	bl	802c <GET32>
    9cf4:	e1a06000 	mov	r6, r0
    9cf8:	eb00022b 	bl	a5ac <dev_barrier>
    9cfc:	e59f7020 	ldr	r7, [pc, #32]	; 9d24 <delay_ms+0x4c>
    9d00:	eb000229 	bl	a5ac <dev_barrier>
    9d04:	e1a00007 	mov	r0, r7
    9d08:	ebfff8c7 	bl	802c <GET32>
    9d0c:	e1a05000 	mov	r5, r0
    9d10:	e0455006 	sub	r5, r5, r6
    9d14:	eb000224 	bl	a5ac <dev_barrier>
    9d18:	e1540005 	cmp	r4, r5
    9d1c:	8afffff7 	bhi	9d00 <delay_ms+0x28>
    9d20:	e8bd81f0 	pop	{r4, r5, r6, r7, r8, pc}
    9d24:	20003004 	andcs	r3, r0, r4

00009d28 <delay_sec>:
    9d28:	e92d41f0 	push	{r4, r5, r6, r7, r8, lr}
    9d2c:	e0604280 	rsb	r4, r0, r0, lsl #5
    9d30:	e0644304 	rsb	r4, r4, r4, lsl #6
    9d34:	e0800184 	add	r0, r0, r4, lsl #3
    9d38:	e1a04300 	lsl	r4, r0, #6
    9d3c:	eb00021a 	bl	a5ac <dev_barrier>
    9d40:	e59f0030 	ldr	r0, [pc, #48]	; 9d78 <delay_sec+0x50>
    9d44:	ebfff8b8 	bl	802c <GET32>
    9d48:	e1a06000 	mov	r6, r0
    9d4c:	eb000216 	bl	a5ac <dev_barrier>
    9d50:	e59f7020 	ldr	r7, [pc, #32]	; 9d78 <delay_sec+0x50>
    9d54:	eb000214 	bl	a5ac <dev_barrier>
    9d58:	e1a00007 	mov	r0, r7
    9d5c:	ebfff8b2 	bl	802c <GET32>
    9d60:	e1a05000 	mov	r5, r0
    9d64:	e0455006 	sub	r5, r5, r6
    9d68:	eb00020f 	bl	a5ac <dev_barrier>
    9d6c:	e1540005 	cmp	r4, r5
    9d70:	8afffff7 	bhi	9d54 <delay_sec+0x2c>
    9d74:	e8bd81f0 	pop	{r4, r5, r6, r7, r8, pc}
    9d78:	20003004 	andcs	r3, r0, r4

00009d7c <and_in32>:
    9d7c:	e92d4070 	push	{r4, r5, r6, lr}
    9d80:	e1a04000 	mov	r4, r0
    9d84:	e1a05001 	mov	r5, r1
    9d88:	ebfff8a7 	bl	802c <GET32>
    9d8c:	e0001005 	and	r1, r0, r5
    9d90:	e1a00004 	mov	r0, r4
    9d94:	ebfff8a2 	bl	8024 <PUT32>
    9d98:	e8bd8070 	pop	{r4, r5, r6, pc}

00009d9c <or_in32>:
    9d9c:	e92d4070 	push	{r4, r5, r6, lr}
    9da0:	e1a04000 	mov	r4, r0
    9da4:	e1a05001 	mov	r5, r1
    9da8:	ebfff89f 	bl	802c <GET32>
    9dac:	e1801005 	orr	r1, r0, r5
    9db0:	e1a00004 	mov	r0, r4
    9db4:	ebfff89a 	bl	8024 <PUT32>
    9db8:	e8bd8070 	pop	{r4, r5, r6, pc}

00009dbc <uart_init>:
    9dbc:	e92d4010 	push	{r4, lr}
    9dc0:	e3a01002 	mov	r1, #2, 0
    9dc4:	e3a0000e 	mov	r0, #14, 0
    9dc8:	eb000153 	bl	a31c <gpio_set_function>
    9dcc:	e3a01002 	mov	r1, #2, 0
    9dd0:	e3a0000f 	mov	r0, #15, 0
    9dd4:	eb000150 	bl	a31c <gpio_set_function>
    9dd8:	eb0001f3 	bl	a5ac <dev_barrier>
    9ddc:	e3a01001 	mov	r1, #1, 0
    9de0:	e59f0064 	ldr	r0, [pc, #100]	; 9e4c <uart_init+0x90>
    9de4:	ebffffec 	bl	9d9c <or_in32>
    9de8:	eb0001ef 	bl	a5ac <dev_barrier>
    9dec:	e59f405c 	ldr	r4, [pc, #92]	; 9e50 <uart_init+0x94>
    9df0:	e3a01000 	mov	r1, #0, 0
    9df4:	e1a00004 	mov	r0, r4
    9df8:	ebfff889 	bl	8024 <PUT32>
    9dfc:	e3a01000 	mov	r1, #0, 0
    9e00:	e59f004c 	ldr	r0, [pc, #76]	; 9e54 <uart_init+0x98>
    9e04:	ebfff886 	bl	8024 <PUT32>
    9e08:	e3a01003 	mov	r1, #3, 0
    9e0c:	e59f0044 	ldr	r0, [pc, #68]	; 9e58 <uart_init+0x9c>
    9e10:	ebfff883 	bl	8024 <PUT32>
    9e14:	e3a01000 	mov	r1, #0, 0
    9e18:	e59f003c 	ldr	r0, [pc, #60]	; 9e5c <uart_init+0xa0>
    9e1c:	ebfff880 	bl	8024 <PUT32>
    9e20:	e3a010c7 	mov	r1, #199, 0	; 0xc7
    9e24:	e59f0034 	ldr	r0, [pc, #52]	; 9e60 <uart_init+0xa4>
    9e28:	ebfff87d 	bl	8024 <PUT32>
    9e2c:	e59f1030 	ldr	r1, [pc, #48]	; 9e64 <uart_init+0xa8>
    9e30:	e59f0030 	ldr	r0, [pc, #48]	; 9e68 <uart_init+0xac>
    9e34:	ebfff87a 	bl	8024 <PUT32>
    9e38:	e3a01003 	mov	r1, #3, 0
    9e3c:	e1a00004 	mov	r0, r4
    9e40:	ebfff877 	bl	8024 <PUT32>
    9e44:	eb0001d8 	bl	a5ac <dev_barrier>
    9e48:	e8bd8010 	pop	{r4, pc}
    9e4c:	20215004 	eorcs	r5, r1, r4
    9e50:	20215060 	eorcs	r5, r1, r0, rrx
    9e54:	20215044 	eorcs	r5, r1, r4, asr #32
    9e58:	2021504c 	eorcs	r5, r1, ip, asr #32
    9e5c:	20215050 	eorcs	r5, r1, r0, asr r0
    9e60:	20215048 	eorcs	r5, r1, r8, asr #32
    9e64:	0000010e 	andeq	r0, r0, lr, lsl #2
    9e68:	20215068 	eorcs	r5, r1, r8, rrx

00009e6c <uart_can_getc>:
    9e6c:	e92d4010 	push	{r4, lr}
    9e70:	e59f0008 	ldr	r0, [pc, #8]	; 9e80 <uart_can_getc+0x14>
    9e74:	ebfff86c 	bl	802c <GET32>
    9e78:	e2000001 	and	r0, r0, #1, 0
    9e7c:	e8bd8010 	pop	{r4, pc}
    9e80:	20215064 	eorcs	r5, r1, r4, rrx

00009e84 <uart_can_putc>:
    9e84:	e92d4010 	push	{r4, lr}
    9e88:	e59f0010 	ldr	r0, [pc, #16]	; 9ea0 <uart_can_putc+0x1c>
    9e8c:	ebfff866 	bl	802c <GET32>
    9e90:	e3100002 	tst	r0, #2, 0
    9e94:	13a00001 	movne	r0, #1, 0
    9e98:	03a00000 	moveq	r0, #0, 0
    9e9c:	e8bd8010 	pop	{r4, pc}
    9ea0:	20215064 	eorcs	r5, r1, r4, rrx

00009ea4 <uart_getc>:
    9ea4:	e92d4010 	push	{r4, lr}
    9ea8:	eb0001bf 	bl	a5ac <dev_barrier>
    9eac:	ebffffee 	bl	9e6c <uart_can_getc>
    9eb0:	e3500000 	cmp	r0, #0, 0
    9eb4:	0afffffc 	beq	9eac <uart_getc+0x8>
    9eb8:	e59f0010 	ldr	r0, [pc, #16]	; 9ed0 <uart_getc+0x2c>
    9ebc:	ebfff85a 	bl	802c <GET32>
    9ec0:	e6ef4070 	uxtb	r4, r0
    9ec4:	eb0001b8 	bl	a5ac <dev_barrier>
    9ec8:	e1a00004 	mov	r0, r4
    9ecc:	e8bd8010 	pop	{r4, pc}
    9ed0:	20215040 	eorcs	r5, r1, r0, asr #32

00009ed4 <uart_putc>:
    9ed4:	e92d4010 	push	{r4, lr}
    9ed8:	e1a04000 	mov	r4, r0
    9edc:	eb0001b2 	bl	a5ac <dev_barrier>
    9ee0:	ebffffe7 	bl	9e84 <uart_can_putc>
    9ee4:	e3500000 	cmp	r0, #0, 0
    9ee8:	0afffffc 	beq	9ee0 <uart_putc+0xc>
    9eec:	e6ef1074 	uxtb	r1, r4
    9ef0:	e59f0008 	ldr	r0, [pc, #8]	; 9f00 <uart_putc+0x2c>
    9ef4:	ebfff84a 	bl	8024 <PUT32>
    9ef8:	eb0001ab 	bl	a5ac <dev_barrier>
    9efc:	e8bd8010 	pop	{r4, pc}
    9f00:	20215040 	eorcs	r5, r1, r0, asr #32

00009f04 <uart_has_data>:
    9f04:	e92d4010 	push	{r4, lr}
    9f08:	eb0001a7 	bl	a5ac <dev_barrier>
    9f0c:	ebffffd6 	bl	9e6c <uart_can_getc>
    9f10:	e8bd8010 	pop	{r4, pc}

00009f14 <uart_tx_is_empty>:
    9f14:	e92d4010 	push	{r4, lr}
    9f18:	eb0001a3 	bl	a5ac <dev_barrier>
    9f1c:	e59f000c 	ldr	r0, [pc, #12]	; 9f30 <uart_tx_is_empty+0x1c>
    9f20:	ebfff841 	bl	802c <GET32>
    9f24:	e1a004a0 	lsr	r0, r0, #9
    9f28:	e2000001 	and	r0, r0, #1, 0
    9f2c:	e8bd8010 	pop	{r4, pc}
    9f30:	20215064 	eorcs	r5, r1, r4, rrx

00009f34 <uart_flush_tx>:
    9f34:	e92d4010 	push	{r4, lr}
    9f38:	ebfffff5 	bl	9f14 <uart_tx_is_empty>
    9f3c:	e3500000 	cmp	r0, #0, 0
    9f40:	0afffffc 	beq	9f38 <uart_flush_tx+0x4>
    9f44:	e8bd8010 	pop	{r4, pc}

00009f48 <uart_disable>:
    9f48:	e92d4010 	push	{r4, lr}
    9f4c:	ebfffff8 	bl	9f34 <uart_flush_tx>
    9f50:	eb000195 	bl	a5ac <dev_barrier>
    9f54:	e3e01001 	mvn	r1, #1, 0
    9f58:	e59f0008 	ldr	r0, [pc, #8]	; 9f68 <uart_disable+0x20>
    9f5c:	ebffff86 	bl	9d7c <and_in32>
    9f60:	eb000191 	bl	a5ac <dev_barrier>
    9f64:	e8bd8010 	pop	{r4, pc}
    9f68:	20215004 	eorcs	r5, r1, r4

00009f6c <kmalloc_heap_end>:
    9f6c:	e59f3004 	ldr	r3, [pc, #4]	; 9f78 <kmalloc_heap_end+0xc>
    9f70:	e5930000 	ldr	r0, [r3]
    9f74:	e12fff1e 	bx	lr
    9f78:	0000aebc 			; <UNDEFINED> instruction: 0x0000aebc

00009f7c <kmalloc_heap_start>:
    9f7c:	e59f3004 	ldr	r3, [pc, #4]	; 9f88 <kmalloc_heap_start+0xc>
    9f80:	e5930004 	ldr	r0, [r3, #4]
    9f84:	e12fff1e 	bx	lr
    9f88:	0000aebc 			; <UNDEFINED> instruction: 0x0000aebc

00009f8c <kmalloc_heap_ptr>:
    9f8c:	e59f3004 	ldr	r3, [pc, #4]	; 9f98 <kmalloc_heap_ptr+0xc>
    9f90:	e5930000 	ldr	r0, [r3]
    9f94:	e12fff1e 	bx	lr
    9f98:	0000aebc 			; <UNDEFINED> instruction: 0x0000aebc

00009f9c <kmalloc_init_set_start>:
    9f9c:	e52de004 	push	{lr}		; (str lr, [sp, #-4]!)
    9fa0:	e24dd00c 	sub	sp, sp, #12, 0
    9fa4:	e3510000 	cmp	r1, #0, 0
    9fa8:	0a00000a 	beq	9fd8 <kmalloc_init_set_start+0x3c>
    9fac:	e59f306c 	ldr	r3, [pc, #108]	; a020 <kmalloc_init_set_start+0x84>
    9fb0:	e5933000 	ldr	r3, [r3]
    9fb4:	e1530000 	cmp	r3, r0
    9fb8:	8a00000e 	bhi	9ff8 <kmalloc_init_set_start+0x5c>
    9fbc:	e59f305c 	ldr	r3, [pc, #92]	; a020 <kmalloc_init_set_start+0x84>
    9fc0:	e5830000 	str	r0, [r3]
    9fc4:	e5830004 	str	r0, [r3, #4]
    9fc8:	e0800001 	add	r0, r0, r1
    9fcc:	e5830008 	str	r0, [r3, #8]
    9fd0:	e28dd00c 	add	sp, sp, #12, 0
    9fd4:	e49df004 	pop	{pc}		; (ldr pc, [sp], #4)
    9fd8:	e59f3044 	ldr	r3, [pc, #68]	; a024 <kmalloc_init_set_start+0x88>
    9fdc:	e58d3000 	str	r3, [sp]
    9fe0:	e3a03030 	mov	r3, #48, 0	; 0x30
    9fe4:	e59f203c 	ldr	r2, [pc, #60]	; a028 <kmalloc_init_set_start+0x8c>
    9fe8:	e59f103c 	ldr	r1, [pc, #60]	; a02c <kmalloc_init_set_start+0x90>
    9fec:	e59f003c 	ldr	r0, [pc, #60]	; a030 <kmalloc_init_set_start+0x94>
    9ff0:	ebfffc10 	bl	9038 <printk>
    9ff4:	ebfffea0 	bl	9a7c <clean_reboot>
    9ff8:	e59f3020 	ldr	r3, [pc, #32]	; a020 <kmalloc_init_set_start+0x84>
    9ffc:	e5933008 	ldr	r3, [r3, #8]
    a000:	e58d3004 	str	r3, [sp, #4]
    a004:	e58d0000 	str	r0, [sp]
    a008:	e3a03034 	mov	r3, #52, 0	; 0x34
    a00c:	e59f2014 	ldr	r2, [pc, #20]	; a028 <kmalloc_init_set_start+0x8c>
    a010:	e59f1014 	ldr	r1, [pc, #20]	; a02c <kmalloc_init_set_start+0x90>
    a014:	e59f0018 	ldr	r0, [pc, #24]	; a034 <kmalloc_init_set_start+0x98>
    a018:	ebfffc06 	bl	9038 <printk>
    a01c:	ebfffe96 	bl	9a7c <clean_reboot>
    a020:	0000aebc 			; <UNDEFINED> instruction: 0x0000aebc
    a024:	0000acc8 	andeq	sl, r0, r8, asr #25
    a028:	0000ae54 	andeq	sl, r0, r4, asr lr
    a02c:	0000acbc 			; <UNDEFINED> instruction: 0x0000acbc
    a030:	0000a6f8 	strdeq	sl, [r0], -r8
    a034:	0000acd4 	ldrdeq	sl, [r0], -r4

0000a038 <kmalloc_init>:
    a038:	e92d4010 	push	{r4, lr}
    a03c:	e59f303c 	ldr	r3, [pc, #60]	; a080 <kmalloc_init+0x48>
    a040:	e5933000 	ldr	r3, [r3]
    a044:	e3530000 	cmp	r3, #0, 0
    a048:	1a000006 	bne	a068 <kmalloc_init+0x30>
    a04c:	e59f302c 	ldr	r3, [pc, #44]	; a080 <kmalloc_init+0x48>
    a050:	e3a02001 	mov	r2, #1, 0
    a054:	e5832000 	str	r2, [r3]
    a058:	e3a01201 	mov	r1, #268435456	; 0x10000000
    a05c:	e3a00601 	mov	r0, #1048576	; 0x100000
    a060:	ebffffcd 	bl	9f9c <kmalloc_init_set_start>
    a064:	e8bd8010 	pop	{r4, pc}
    a068:	e3a03040 	mov	r3, #64, 0	; 0x40
    a06c:	e59f2010 	ldr	r2, [pc, #16]	; a084 <kmalloc_init+0x4c>
    a070:	e59f1010 	ldr	r1, [pc, #16]	; a088 <kmalloc_init+0x50>
    a074:	e59f0010 	ldr	r0, [pc, #16]	; a08c <kmalloc_init+0x54>
    a078:	ebfffbee 	bl	9038 <printk>
    a07c:	ebfffe7e 	bl	9a7c <clean_reboot>
    a080:	0000b2f8 	strdeq	fp, [r0], -r8
    a084:	0000ae6c 	andeq	sl, r0, ip, ror #28
    a088:	0000acbc 			; <UNDEFINED> instruction: 0x0000acbc
    a08c:	0000ad18 	andeq	sl, r0, r8, lsl sp

0000a090 <kmalloc_notzero>:
    a090:	e52de004 	push	{lr}		; (str lr, [sp, #-4]!)
    a094:	e24dd00c 	sub	sp, sp, #12, 0
    a098:	e3500000 	cmp	r0, #0, 0
    a09c:	0a00000a 	beq	a0cc <kmalloc_notzero+0x3c>
    a0a0:	e2800007 	add	r0, r0, #7, 0
    a0a4:	e3c03007 	bic	r3, r0, #7, 0
    a0a8:	e59f2060 	ldr	r2, [pc, #96]	; a110 <kmalloc_notzero+0x80>
    a0ac:	e5920000 	ldr	r0, [r2]
    a0b0:	e0801003 	add	r1, r0, r3
    a0b4:	e5821000 	str	r1, [r2]
    a0b8:	e5922008 	ldr	r2, [r2, #8]
    a0bc:	e1510002 	cmp	r1, r2
    a0c0:	8a000009 	bhi	a0ec <kmalloc_notzero+0x5c>
    a0c4:	e28dd00c 	add	sp, sp, #12, 0
    a0c8:	e49df004 	pop	{pc}		; (ldr pc, [sp], #4)
    a0cc:	e59f3040 	ldr	r3, [pc, #64]	; a114 <kmalloc_notzero+0x84>
    a0d0:	e58d3000 	str	r3, [sp]
    a0d4:	e3a03048 	mov	r3, #72, 0	; 0x48
    a0d8:	e59f2038 	ldr	r2, [pc, #56]	; a118 <kmalloc_notzero+0x88>
    a0dc:	e59f1038 	ldr	r1, [pc, #56]	; a11c <kmalloc_notzero+0x8c>
    a0e0:	e59f0038 	ldr	r0, [pc, #56]	; a120 <kmalloc_notzero+0x90>
    a0e4:	ebfffbd3 	bl	9038 <printk>
    a0e8:	ebfffe63 	bl	9a7c <clean_reboot>
    a0ec:	e0422000 	sub	r2, r2, r0
    a0f0:	e58d2004 	str	r2, [sp, #4]
    a0f4:	e58d3000 	str	r3, [sp]
    a0f8:	e3a0304e 	mov	r3, #78, 0	; 0x4e
    a0fc:	e59f2014 	ldr	r2, [pc, #20]	; a118 <kmalloc_notzero+0x88>
    a100:	e59f1014 	ldr	r1, [pc, #20]	; a11c <kmalloc_notzero+0x8c>
    a104:	e59f0018 	ldr	r0, [pc, #24]	; a124 <kmalloc_notzero+0x94>
    a108:	ebfffbca 	bl	9038 <printk>
    a10c:	ebfffe5a 	bl	9a7c <clean_reboot>
    a110:	0000aebc 			; <UNDEFINED> instruction: 0x0000aebc
    a114:	0000accc 	andeq	sl, r0, ip, asr #25
    a118:	0000ae7c 	andeq	sl, r0, ip, ror lr
    a11c:	0000acbc 			; <UNDEFINED> instruction: 0x0000acbc
    a120:	0000a6f8 	strdeq	sl, [r0], -r8
    a124:	0000ad48 	andeq	sl, r0, r8, asr #26

0000a128 <kmalloc>:
    a128:	e92d4030 	push	{r4, r5, lr}
    a12c:	e24dd00c 	sub	sp, sp, #12, 0
    a130:	e2504000 	subs	r4, r0, #0, 0
    a134:	0a000008 	beq	a15c <kmalloc+0x34>
    a138:	e1a00004 	mov	r0, r4
    a13c:	ebffffd3 	bl	a090 <kmalloc_notzero>
    a140:	e1a05000 	mov	r5, r0
    a144:	e1a02004 	mov	r2, r4
    a148:	e3a01000 	mov	r1, #0, 0
    a14c:	ebfffb9b 	bl	8fc0 <memset>
    a150:	e1a00005 	mov	r0, r5
    a154:	e28dd00c 	add	sp, sp, #12, 0
    a158:	e8bd8030 	pop	{r4, r5, pc}
    a15c:	e59f3018 	ldr	r3, [pc, #24]	; a17c <kmalloc+0x54>
    a160:	e58d3000 	str	r3, [sp]
    a164:	e3a03054 	mov	r3, #84, 0	; 0x54
    a168:	e59f2010 	ldr	r2, [pc, #16]	; a180 <kmalloc+0x58>
    a16c:	e59f1010 	ldr	r1, [pc, #16]	; a184 <kmalloc+0x5c>
    a170:	e59f0010 	ldr	r0, [pc, #16]	; a188 <kmalloc+0x60>
    a174:	ebfffbaf 	bl	9038 <printk>
    a178:	ebfffe3f 	bl	9a7c <clean_reboot>
    a17c:	0000accc 	andeq	sl, r0, ip, asr #25
    a180:	0000ae8c 	andeq	sl, r0, ip, lsl #29
    a184:	0000acbc 			; <UNDEFINED> instruction: 0x0000acbc
    a188:	0000a6f8 	strdeq	sl, [r0], -r8

0000a18c <kmalloc_aligned>:
    a18c:	e52de004 	push	{lr}		; (str lr, [sp, #-4]!)
    a190:	e24dd00c 	sub	sp, sp, #12, 0
    a194:	e3500000 	cmp	r0, #0, 0
    a198:	0a000014 	beq	a1f0 <kmalloc_aligned+0x64>
    a19c:	e2613000 	rsb	r3, r1, #0, 0
    a1a0:	e1d13003 	bics	r3, r1, r3
    a1a4:	1a000019 	bne	a210 <kmalloc_aligned+0x84>
    a1a8:	e3510008 	cmp	r1, #8, 0
    a1ac:	33a01008 	movcc	r1, #8, 0
    a1b0:	e59f30c0 	ldr	r3, [pc, #192]	; a278 <kmalloc_aligned+0xec>
    a1b4:	e5932000 	ldr	r2, [r3]
    a1b8:	e2613000 	rsb	r3, r1, #0, 0
    a1bc:	e1d1c003 	bics	ip, r1, r3
    a1c0:	1a00001b 	bne	a234 <kmalloc_aligned+0xa8>
    a1c4:	e0822001 	add	r2, r2, r1
    a1c8:	e2422001 	sub	r2, r2, #1, 0
    a1cc:	e0033002 	and	r3, r3, r2
    a1d0:	e2411001 	sub	r1, r1, #1, 0
    a1d4:	e1110003 	tst	r1, r3
    a1d8:	1a00001d 	bne	a254 <kmalloc_aligned+0xc8>
    a1dc:	e59f2094 	ldr	r2, [pc, #148]	; a278 <kmalloc_aligned+0xec>
    a1e0:	e5823000 	str	r3, [r2]
    a1e4:	ebffffcf 	bl	a128 <kmalloc>
    a1e8:	e28dd00c 	add	sp, sp, #12, 0
    a1ec:	e49df004 	pop	{pc}		; (ldr pc, [sp], #4)
    a1f0:	e59f3084 	ldr	r3, [pc, #132]	; a27c <kmalloc_aligned+0xf0>
    a1f4:	e58d3000 	str	r3, [sp]
    a1f8:	e3a0305f 	mov	r3, #95, 0	; 0x5f
    a1fc:	e59f207c 	ldr	r2, [pc, #124]	; a280 <kmalloc_aligned+0xf4>
    a200:	e59f107c 	ldr	r1, [pc, #124]	; a284 <kmalloc_aligned+0xf8>
    a204:	e59f007c 	ldr	r0, [pc, #124]	; a288 <kmalloc_aligned+0xfc>
    a208:	ebfffb8a 	bl	9038 <printk>
    a20c:	ebfffe1a 	bl	9a7c <clean_reboot>
    a210:	eb0000ac 	bl	a4c8 <rpi_reset_putc>
    a214:	e59f3070 	ldr	r3, [pc, #112]	; a28c <kmalloc_aligned+0x100>
    a218:	e58d3000 	str	r3, [sp]
    a21c:	e3a03060 	mov	r3, #96, 0	; 0x60
    a220:	e59f2058 	ldr	r2, [pc, #88]	; a280 <kmalloc_aligned+0xf4>
    a224:	e59f1058 	ldr	r1, [pc, #88]	; a284 <kmalloc_aligned+0xf8>
    a228:	e59f0060 	ldr	r0, [pc, #96]	; a290 <kmalloc_aligned+0x104>
    a22c:	ebfffb81 	bl	9038 <printk>
    a230:	ebfffe11 	bl	9a7c <clean_reboot>
    a234:	e59f3058 	ldr	r3, [pc, #88]	; a294 <kmalloc_aligned+0x108>
    a238:	e58d3000 	str	r3, [sp]
    a23c:	e3a03011 	mov	r3, #17, 0
    a240:	e59f2050 	ldr	r2, [pc, #80]	; a298 <kmalloc_aligned+0x10c>
    a244:	e59f1038 	ldr	r1, [pc, #56]	; a284 <kmalloc_aligned+0xf8>
    a248:	e59f0038 	ldr	r0, [pc, #56]	; a288 <kmalloc_aligned+0xfc>
    a24c:	ebfffb79 	bl	9038 <printk>
    a250:	ebfffe09 	bl	9a7c <clean_reboot>
    a254:	eb00009b 	bl	a4c8 <rpi_reset_putc>
    a258:	e59f303c 	ldr	r3, [pc, #60]	; a29c <kmalloc_aligned+0x110>
    a25c:	e58d3000 	str	r3, [sp]
    a260:	e3a03068 	mov	r3, #104, 0	; 0x68
    a264:	e59f2014 	ldr	r2, [pc, #20]	; a280 <kmalloc_aligned+0xf4>
    a268:	e59f1014 	ldr	r1, [pc, #20]	; a284 <kmalloc_aligned+0xf8>
    a26c:	e59f002c 	ldr	r0, [pc, #44]	; a2a0 <kmalloc_aligned+0x114>
    a270:	ebfffb70 	bl	9038 <printk>
    a274:	ebfffe00 	bl	9a7c <clean_reboot>
    a278:	0000aebc 			; <UNDEFINED> instruction: 0x0000aebc
    a27c:	0000accc 	andeq	sl, r0, ip, asr #25
    a280:	0000ae94 	muleq	r0, r4, lr
    a284:	0000acbc 			; <UNDEFINED> instruction: 0x0000acbc
    a288:	0000a6f8 	strdeq	sl, [r0], -r8
    a28c:	0000adbc 			; <UNDEFINED> instruction: 0x0000adbc
    a290:	0000ad88 	andeq	sl, r0, r8, lsl #27
    a294:	0000add0 	ldrdeq	sl, [r0], -r0
    a298:	0000aea4 	andeq	sl, r0, r4, lsr #29
    a29c:	0000ae08 	andeq	sl, r0, r8, lsl #28
    a2a0:	0000addc 	ldrdeq	sl, [r0], -ip

0000a2a4 <kfree>:
    a2a4:	e12fff1e 	bx	lr

0000a2a8 <kfree_all>:
    a2a8:	e59f3008 	ldr	r3, [pc, #8]	; a2b8 <kfree_all+0x10>
    a2ac:	e5932004 	ldr	r2, [r3, #4]
    a2b0:	e5832000 	str	r2, [r3]
    a2b4:	e12fff1e 	bx	lr
    a2b8:	0000aebc 			; <UNDEFINED> instruction: 0x0000aebc

0000a2bc <kfree_pop>:
    a2bc:	e59f3048 	ldr	r3, [pc, #72]	; a30c <kfree_pop+0x50>
    a2c0:	e5933004 	ldr	r3, [r3, #4]
    a2c4:	e1530000 	cmp	r3, r0
    a2c8:	8a000006 	bhi	a2e8 <kfree_pop+0x2c>
    a2cc:	e59f3038 	ldr	r3, [pc, #56]	; a30c <kfree_pop+0x50>
    a2d0:	e5933008 	ldr	r3, [r3, #8]
    a2d4:	e1530000 	cmp	r3, r0
    a2d8:	3a000002 	bcc	a2e8 <kfree_pop+0x2c>
    a2dc:	e59f3028 	ldr	r3, [pc, #40]	; a30c <kfree_pop+0x50>
    a2e0:	e5830000 	str	r0, [r3]
    a2e4:	e12fff1e 	bx	lr
    a2e8:	e52de004 	push	{lr}		; (str lr, [sp, #-4]!)
    a2ec:	e24dd00c 	sub	sp, sp, #12, 0
    a2f0:	e58d0000 	str	r0, [sp]
    a2f4:	e3a03077 	mov	r3, #119, 0	; 0x77
    a2f8:	e59f2010 	ldr	r2, [pc, #16]	; a310 <kfree_pop+0x54>
    a2fc:	e59f1010 	ldr	r1, [pc, #16]	; a314 <kfree_pop+0x58>
    a300:	e59f0010 	ldr	r0, [pc, #16]	; a318 <kfree_pop+0x5c>
    a304:	ebfffb4b 	bl	9038 <printk>
    a308:	ebfffddb 	bl	9a7c <clean_reboot>
    a30c:	0000aebc 			; <UNDEFINED> instruction: 0x0000aebc
    a310:	0000aeac 	andeq	sl, r0, ip, lsr #29
    a314:	0000acbc 			; <UNDEFINED> instruction: 0x0000acbc
    a318:	0000ae24 	andeq	sl, r0, r4, lsr #28

0000a31c <gpio_set_function>:
    a31c:	e350001f 	cmp	r0, #31, 0
    a320:	812fff1e 	bxhi	lr
    a324:	e3d13007 	bics	r3, r1, #7, 0
    a328:	e92d4070 	push	{r4, r5, r6, lr}
    a32c:	e1a05001 	mov	r5, r1
    a330:	18bd8070 	popne	{r4, r5, r6, pc}
    a334:	e59f403c 	ldr	r4, [pc, #60]	; a378 <gpio_set_function+0x5c>
    a338:	e0843094 	umull	r3, r4, r4, r0
    a33c:	e1a041a4 	lsr	r4, r4, #3
    a340:	e2843302 	add	r3, r4, #134217728	; 0x8000000
    a344:	e2833702 	add	r3, r3, #524288	; 0x80000
    a348:	e1a06103 	lsl	r6, r3, #2
    a34c:	e0844104 	add	r4, r4, r4, lsl #2
    a350:	e0404084 	sub	r4, r0, r4, lsl #1
    a354:	e1a00006 	mov	r0, r6
    a358:	ebfff733 	bl	802c <GET32>
    a35c:	e3a01007 	mov	r1, #7, 0
    a360:	e0844084 	add	r4, r4, r4, lsl #1
    a364:	e1c01411 	bic	r1, r0, r1, lsl r4
    a368:	e1811415 	orr	r1, r1, r5, lsl r4
    a36c:	e1a00006 	mov	r0, r6
    a370:	e8bd4070 	pop	{r4, r5, r6, lr}
    a374:	eafff72a 	b	8024 <PUT32>
    a378:	cccccccd 	stclgt	12, cr12, [ip], {205}	; 0xcd

0000a37c <gpio_set_output>:
    a37c:	e350001f 	cmp	r0, #31, 0
    a380:	812fff1e 	bxhi	lr
    a384:	e92d4070 	push	{r4, r5, r6, lr}
    a388:	e59f4040 	ldr	r4, [pc, #64]	; a3d0 <gpio_set_output+0x54>
    a38c:	e0843094 	umull	r3, r4, r4, r0
    a390:	e1a041a4 	lsr	r4, r4, #3
    a394:	e2843302 	add	r3, r4, #134217728	; 0x8000000
    a398:	e2833702 	add	r3, r3, #524288	; 0x80000
    a39c:	e1a05103 	lsl	r5, r3, #2
    a3a0:	e0844104 	add	r4, r4, r4, lsl #2
    a3a4:	e0404084 	sub	r4, r0, r4, lsl #1
    a3a8:	e1a00005 	mov	r0, r5
    a3ac:	ebfff71e 	bl	802c <GET32>
    a3b0:	e3a03007 	mov	r3, #7, 0
    a3b4:	e3a01001 	mov	r1, #1, 0
    a3b8:	e0844084 	add	r4, r4, r4, lsl #1
    a3bc:	e1c03413 	bic	r3, r0, r3, lsl r4
    a3c0:	e1831411 	orr	r1, r3, r1, lsl r4
    a3c4:	e1a00005 	mov	r0, r5
    a3c8:	e8bd4070 	pop	{r4, r5, r6, lr}
    a3cc:	eafff714 	b	8024 <PUT32>
    a3d0:	cccccccd 	stclgt	12, cr12, [ip], {205}	; 0xcd

0000a3d4 <gpio_set_on>:
    a3d4:	e1a03000 	mov	r3, r0
    a3d8:	e3a01001 	mov	r1, #1, 0
    a3dc:	e59f0004 	ldr	r0, [pc, #4]	; a3e8 <gpio_set_on+0x14>
    a3e0:	e1a01311 	lsl	r1, r1, r3
    a3e4:	eafff70e 	b	8024 <PUT32>
    a3e8:	2020001c 	eorcs	r0, r0, ip, lsl r0

0000a3ec <gpio_set_off>:
    a3ec:	e1a03000 	mov	r3, r0
    a3f0:	e3a01001 	mov	r1, #1, 0
    a3f4:	e59f0004 	ldr	r0, [pc, #4]	; a400 <gpio_set_off+0x14>
    a3f8:	e1a01311 	lsl	r1, r1, r3
    a3fc:	eafff708 	b	8024 <PUT32>
    a400:	20200028 	eorcs	r0, r0, r8, lsr #32

0000a404 <gpio_set_input>:
    a404:	e350001f 	cmp	r0, #31, 0
    a408:	812fff1e 	bxhi	lr
    a40c:	e92d4070 	push	{r4, r5, r6, lr}
    a410:	e59f5040 	ldr	r5, [pc, #64]	; a458 <gpio_set_input+0x54>
    a414:	e1a04000 	mov	r4, r0
    a418:	e0853095 	umull	r3, r5, r5, r0
    a41c:	e1a051a5 	lsr	r5, r5, #3
    a420:	e2850302 	add	r0, r5, #134217728	; 0x8000000
    a424:	e2800702 	add	r0, r0, #524288	; 0x80000
    a428:	e1a06100 	lsl	r6, r0, #2
    a42c:	e1a00006 	mov	r0, r6
    a430:	ebfff6fd 	bl	802c <GET32>
    a434:	e3a01007 	mov	r1, #7, 0
    a438:	e1a03000 	mov	r3, r0
    a43c:	e0855105 	add	r5, r5, r5, lsl #2
    a440:	e0444085 	sub	r4, r4, r5, lsl #1
    a444:	e0844084 	add	r4, r4, r4, lsl #1
    a448:	e1a00006 	mov	r0, r6
    a44c:	e1c31411 	bic	r1, r3, r1, lsl r4
    a450:	e8bd4070 	pop	{r4, r5, r6, lr}
    a454:	eafff6f2 	b	8024 <PUT32>
    a458:	cccccccd 	stclgt	12, cr12, [ip], {205}	; 0xcd

0000a45c <gpio_write>:
    a45c:	e3510000 	cmp	r1, #0, 0
    a460:	e3a03001 	mov	r3, #1, 0
    a464:	e1a01000 	mov	r1, r0
    a468:	0a000002 	beq	a478 <gpio_write+0x1c>
    a46c:	e59f0010 	ldr	r0, [pc, #16]	; a484 <gpio_write+0x28>
    a470:	e1a01113 	lsl	r1, r3, r1
    a474:	eafff6ea 	b	8024 <PUT32>
    a478:	e59f0008 	ldr	r0, [pc, #8]	; a488 <gpio_write+0x2c>
    a47c:	e1a01113 	lsl	r1, r3, r1
    a480:	eafff6e7 	b	8024 <PUT32>
    a484:	2020001c 	eorcs	r0, r0, ip, lsl r0
    a488:	20200028 	eorcs	r0, r0, r8, lsr #32

0000a48c <gpio_read>:
    a48c:	e92d4010 	push	{r4, lr}
    a490:	e1a04000 	mov	r4, r0
    a494:	e59f0014 	ldr	r0, [pc, #20]	; a4b0 <gpio_read+0x24>
    a498:	e08002a4 	add	r0, r0, r4, lsr #5
    a49c:	ebfff6e2 	bl	802c <GET32>
    a4a0:	e204401f 	and	r4, r4, #31, 0
    a4a4:	e1a00430 	lsr	r0, r0, r4
    a4a8:	e2000001 	and	r0, r0, #1, 0
    a4ac:	e8bd8010 	pop	{r4, pc}
    a4b0:	20200034 	eorcs	r0, r0, r4, lsr r0

0000a4b4 <internal_putchar>:
    a4b4:	e92d4010 	push	{r4, lr}
    a4b8:	e1a04000 	mov	r4, r0
    a4bc:	ebfffe84 	bl	9ed4 <uart_putc>
    a4c0:	e1a00004 	mov	r0, r4
    a4c4:	e8bd8010 	pop	{r4, pc}

0000a4c8 <rpi_reset_putc>:
    a4c8:	e59f3008 	ldr	r3, [pc, #8]	; a4d8 <rpi_reset_putc+0x10>
    a4cc:	e59f2008 	ldr	r2, [pc, #8]	; a4dc <rpi_reset_putc+0x14>
    a4d0:	e5832000 	str	r2, [r3]
    a4d4:	e12fff1e 	bx	lr
    a4d8:	0000aec8 	andeq	sl, r0, r8, asr #29
    a4dc:	0000a4b4 			; <UNDEFINED> instruction: 0x0000a4b4

0000a4e0 <rpi_set_putc>:
    a4e0:	e59f3004 	ldr	r3, [pc, #4]	; a4ec <rpi_set_putc+0xc>
    a4e4:	e5830000 	str	r0, [r3]
    a4e8:	e12fff1e 	bx	lr
    a4ec:	0000aec8 	andeq	sl, r0, r8, asr #29

0000a4f0 <strcat>:
    a4f0:	e1a02000 	mov	r2, r0
    a4f4:	e1a03002 	mov	r3, r2
    a4f8:	e4d2c001 	ldrb	ip, [r2], #1
    a4fc:	e35c0000 	cmp	ip, #0, 0
    a500:	1afffffb 	bne	a4f4 <strcat+0x4>
    a504:	e2433001 	sub	r3, r3, #1, 0
    a508:	e4d12001 	ldrb	r2, [r1], #1
    a50c:	e3520000 	cmp	r2, #0, 0
    a510:	e5e32001 	strb	r2, [r3, #1]!
    a514:	1afffffb 	bne	a508 <strcat+0x18>
    a518:	e12fff1e 	bx	lr

0000a51c <strcmp>:
    a51c:	e5d03000 	ldrb	r3, [r0]
    a520:	e3530000 	cmp	r3, #0, 0
    a524:	05d12000 	ldrbeq	r2, [r1]
    a528:	1a000003 	bne	a53c <strcmp+0x20>
    a52c:	ea000006 	b	a54c <strcmp+0x30>
    a530:	e5f03001 	ldrb	r3, [r0, #1]!
    a534:	e3530000 	cmp	r3, #0, 0
    a538:	0a000005 	beq	a554 <strcmp+0x38>
    a53c:	e1a0c001 	mov	ip, r1
    a540:	e4d12001 	ldrb	r2, [r1], #1
    a544:	e1520003 	cmp	r2, r3
    a548:	0afffff8 	beq	a530 <strcmp+0x14>
    a54c:	e0430002 	sub	r0, r3, r2
    a550:	e12fff1e 	bx	lr
    a554:	e5dc2001 	ldrb	r2, [ip, #1]
    a558:	e0430002 	sub	r0, r3, r2
    a55c:	e12fff1e 	bx	lr

0000a560 <strcpy>:
    a560:	e2402001 	sub	r2, r0, #1, 0
    a564:	e4d13001 	ldrb	r3, [r1], #1
    a568:	e3530000 	cmp	r3, #0, 0
    a56c:	e5e23001 	strb	r3, [r2, #1]!
    a570:	1afffffb 	bne	a564 <strcpy+0x4>
    a574:	e12fff1e 	bx	lr

0000a578 <strncmp>:
    a578:	e0802002 	add	r2, r0, r2
    a57c:	ea000003 	b	a590 <strncmp+0x18>
    a580:	e4d03001 	ldrb	r3, [r0], #1
    a584:	e4d1c001 	ldrb	ip, [r1], #1
    a588:	e153000c 	cmp	r3, ip
    a58c:	1a000003 	bne	a5a0 <strncmp+0x28>
    a590:	e1500002 	cmp	r0, r2
    a594:	1afffff9 	bne	a580 <strncmp+0x8>
    a598:	e3a00000 	mov	r0, #0, 0
    a59c:	e12fff1e 	bx	lr
    a5a0:	e043000c 	sub	r0, r3, ip
    a5a4:	e12fff1e 	bx	lr

0000a5a8 <reboot_callout>:
    a5a8:	e12fff1e 	bx	lr

0000a5ac <dev_barrier>:
    a5ac:	ea000002 	b	a5bc <dsb>

0000a5b0 <dmb>:
    a5b0:	e3a00000 	mov	r0, #0, 0
    a5b4:	ee070fba 	mcr	15, 0, r0, cr7, cr10, {5}
    a5b8:	e12fff1e 	bx	lr

0000a5bc <dsb>:
    a5bc:	ee070f9a 	mcr	15, 0, r0, cr7, cr10, {4}
    a5c0:	e12fff1e 	bx	lr

0000a5c4 <__code_end__>:
    a5c4:	00000000 	andeq	r0, r0, r0

Disassembly of section .rodata:

0000a5c8 <__FUNCTION__.4030-0x88>:
    a5c8:	74736574 	ldrbtvc	r6, [r3], #-1396	; 0xfffffa8c
    a5cc:	6d203a32 	vstmdbvs	r0!, {s6-s55}
    a5d0:	726f6d65 	rsbvc	r6, pc, #6464	; 0x1940
    a5d4:	766f2079 			; <UNDEFINED> instruction: 0x766f2079
    a5d8:	6c667265 	sfmvs	f7, 2, [r6], #-404	; 0xfffffe6c
    a5dc:	6120776f 			; <UNDEFINED> instruction: 0x6120776f
    a5e0:	666f2074 			; <UNDEFINED> instruction: 0x666f2074
    a5e4:	74657366 	strbtvc	r7, [r5], #-870	; 0xfffffc9a
    a5e8:	000a3420 	andeq	r3, sl, r0, lsr #8
    a5ec:	74736574 	ldrbtvc	r6, [r3], #-1396	; 0xfffffa8c
    a5f0:	2e322d73 	mrccs	13, 1, r2, cr2, cr3, {3}
    a5f4:	61702f30 	cmnvs	r0, r0, lsr pc
    a5f8:	2d317472 	cfldrscs	mvf7, [r1, #-456]!	; 0xfffffe38
    a5fc:	74736574 	ldrbtvc	r6, [r3], #-1396	; 0xfffffa8c
    a600:	75622d32 	strbvc	r2, [r2, #-3378]!	; 0xfffff2ce
    a604:	00632e67 	rsbeq	r2, r3, r7, ror #28
    a608:	494e4150 	stmdbmi	lr, {r4, r6, r8, lr}^
    a60c:	73253a43 			; <UNDEFINED> instruction: 0x73253a43
    a610:	3a73253a 	bcc	1cd3b00 <__bss_end__+0x1cc8800>
    a614:	733a6425 	teqvc	sl, #620756992	; 0x25000000
    a618:	6c756f68 	ldclvs	15, cr6, [r5], #-416	; 0xfffffe60
    a61c:	6f6e2064 	svcvs	0x006e2064
    a620:	65672074 	strbvs	r2, [r7, #-116]!	; 0xffffff8c
    a624:	65682074 	strbvs	r2, [r8, #-116]!	; 0xffffff8c
    a628:	203a6572 	eorscs	r6, sl, r2, ror r5
    a62c:	756f6873 	strbvc	r6, [pc, #-2163]!	; 9dc1 <uart_init+0x5>
    a630:	6420646c 	strtvs	r6, [r0], #-1132	; 0xfffffb94
    a634:	63657465 	cmnvs	r5, #1694498816	; 0x65000000
    a638:	6e612074 	mcrvs	0, 3, r2, cr1, cr4, {3}
    a63c:	72726520 	rsbsvc	r6, r2, #32, 10	; 0x8000000
    a640:	6920726f 	stmdbvs	r0!, {r0, r1, r2, r3, r5, r6, r9, ip, sp, lr}
    a644:	6b63206e 	blvs	18d2804 <__bss_end__+0x18c7504>
    a648:	65657266 	strbvs	r7, [r5, #-614]!	; 0xfffffd9a
    a64c:	00000a0a 	andeq	r0, r0, sl, lsl #20

0000a650 <__FUNCTION__.4030>:
    a650:	6d746f6e 	ldclvs	15, cr6, [r4, #-440]!	; 0xfffffe48
    a654:	006e6961 	rsbeq	r6, lr, r1, ror #18
    a658:	253a7325 	ldrcs	r7, [sl, #-805]!	; 0xfffffcdb
    a65c:	64253a73 	strtvs	r3, [r5], #-2675	; 0xfffff58d
    a660:	0000003a 	andeq	r0, r0, sl, lsr r0
    a664:	65657266 	strbvs	r7, [r5, #-614]!	; 0xfffffd9a
    a668:	20676e69 	rsbcs	r6, r7, r9, ror #28
    a66c:	0a702509 	beq	1c13a98 <__bss_end__+0x1c08798>
    a670:	00000000 	andeq	r0, r0, r0
    a674:	5f434f4c 	svcpl	0x00434f4c
    a678:	494e4150 	stmdbmi	lr, {r4, r6, r8, lr}^
    a67c:	25203a43 	strcs	r3, [r0, #-2627]!	; 0xfffff5bd
    a680:	73253a73 			; <UNDEFINED> instruction: 0x73253a73
    a684:	3a64253a 	bcc	1913b74 <__bss_end__+0x1908874>
    a688:	00000000 	andeq	r0, r0, r0
    a68c:	65657266 	strbvs	r7, [r5, #-614]!	; 0xfffffd9a
    a690:	20676e69 	rsbcs	r6, r7, r9, ror #28
    a694:	6c616e75 	stclvs	14, cr6, [r1], #-468	; 0xfffffe2c
    a698:	61636f6c 	cmnvs	r3, ip, ror #30
    a69c:	20646574 	rsbcs	r6, r4, r4, ror r5
    a6a0:	6f6d656d 	svcvs	0x006d656d
    a6a4:	203a7972 	eorscs	r7, sl, r2, ror r9
    a6a8:	74617473 	strbtvc	r7, [r1], #-1139	; 0xfffffb8d
    a6ac:	64253d65 	strtvs	r3, [r5], #-3429	; 0xfffff29b
    a6b0:	0000000a 	andeq	r0, r0, sl
    a6b4:	7a646572 	bvc	1923c84 <__bss_end__+0x1918984>
    a6b8:	20656e6f 	rsbcs	r6, r5, pc, ror #28
    a6bc:	77203123 	strvc	r3, [r0, -r3, lsr #2]!
    a6c0:	63207361 			; <UNDEFINED> instruction: 0x63207361
    a6c4:	7572726f 	ldrbvc	r7, [r2, #-623]!	; 0xfffffd91
    a6c8:	64657470 	strbtvs	r7, [r5], #-1136	; 0xfffffb90
    a6cc:	00000a21 	andeq	r0, r0, r1, lsr #20
    a6d0:	7a646572 	bvc	1923ca0 <__bss_end__+0x19189a0>
    a6d4:	20656e6f 	rsbcs	r6, r5, pc, ror #28
    a6d8:	77203223 	strvc	r3, [r0, -r3, lsr #4]!
    a6dc:	63207361 			; <UNDEFINED> instruction: 0x63207361
    a6e0:	7572726f 	ldrbvc	r7, [r2, #-623]!	; 0xfffffd91
    a6e4:	64657470 	strbtvs	r7, [r5], #-1136	; 0xfffffb90
    a6e8:	00000a21 	andeq	r0, r0, r1, lsr #20
    a6ec:	6c616b63 			; <UNDEFINED> instruction: 0x6c616b63
    a6f0:	2e636f6c 	cdpcs	15, 6, cr6, cr3, cr12, {3}
    a6f4:	00000063 	andeq	r0, r0, r3, rrx
    a6f8:	494e4150 	stmdbmi	lr, {r4, r6, r8, lr}^
    a6fc:	73253a43 			; <UNDEFINED> instruction: 0x73253a43
    a700:	3a73253a 	bcc	1cd3bf0 <__bss_end__+0x1cc88f0>
    a704:	253a6425 	ldrcs	r6, [sl, #-1061]!	; 0xfffffbdb
    a708:	00000a73 	andeq	r0, r0, r3, ror sl
    a70c:	705f6b63 	subsvc	r6, pc, r3, ror #22
    a710:	695f7274 	ldmdbvs	pc, {r2, r4, r5, r6, r9, ip, sp, lr}^	; <UNPREDICTABLE>
    a714:	6c615f73 	stclvs	15, cr5, [r1], #-460	; 0xfffffe34
    a718:	65636f6c 	strbvs	r6, [r3, #-3948]!	; 0xfffff094
    a71c:	64612864 	strbtvs	r2, [r1], #-2148	; 0xfffff79c
    a720:	00297264 	eoreq	r7, r9, r4, ror #4
    a724:	6f6c6c61 	svcvs	0x006c6c61
    a728:	69746163 	ldmdbvs	r4!, {r0, r1, r5, r6, r8, sp, lr}^
    a72c:	2520676e 	strcs	r6, [r0, #-1902]!	; 0xfffff892
    a730:	25282070 	strcs	r2, [r8, #-112]!	; 0xffffff90
    a734:	79622064 	stmdbvc	r2!, {r2, r5, r6, sp}^
    a738:	29736574 	ldmdbcs	r3!, {r2, r4, r5, r6, r8, sl, sp, lr}^
    a73c:	0000000a 	andeq	r0, r0, sl

0000a740 <__FUNCTION__.4086>:
    a740:	72666b63 	rsbvc	r6, r6, #101376	; 0x18c00
    a744:	00006565 	andeq	r6, r0, r5, ror #10
    a748:	75716552 	ldrbvc	r6, [r1, #-1362]!	; 0xfffffaae
    a74c:	74737265 	ldrbtvc	r7, [r3], #-613	; 0xfffffd9b
    a750:	20676e69 	rsbcs	r6, r7, r9, ror #28
    a754:	65726f6d 	ldrbvs	r6, [r2, #-3949]!	; 0xfffff093
    a758:	6d656d20 	stclvs	13, cr6, [r5, #-128]!	; 0xffffff80
    a75c:	2079726f 	rsbscs	r7, r9, pc, ror #4
    a760:	29642528 	stmdbcs	r4!, {r3, r5, r8, sl, sp}^
    a764:	0a2e2e2e 	beq	b96024 <__bss_end__+0xb8ad24>
    a768:	00000000 	andeq	r0, r0, r0
    a76c:	672d6b63 	strvs	r6, [sp, -r3, ror #22]!
    a770:	00632e63 	rsbeq	r2, r3, r3, ror #28
    a774:	203c2070 	eorscs	r2, ip, r0, ror r0
    a778:	00000065 	andeq	r0, r0, r5, rrx
    a77c:	67696c61 	strbvs	r6, [r9, -r1, ror #24]!
    a780:	2864656e 	stmdacs	r4!, {r1, r2, r3, r5, r6, r8, sl, sp, lr}^
    a784:	34202c70 	strtcc	r2, [r0], #-3184	; 0xfffff390
    a788:	00000029 	andeq	r0, r0, r9, lsr #32
    a78c:	67696c61 	strbvs	r6, [r9, -r1, ror #24]!
    a790:	2864656e 	stmdacs	r4!, {r1, r2, r3, r5, r6, r8, sl, sp, lr}^
    a794:	34202c65 	strtcc	r2, [r0], #-3173	; 0xfffff39b
    a798:	00000029 	andeq	r0, r0, r9, lsr #32
    a79c:	6e696f67 	cdpvs	15, 6, cr6, cr9, cr7, {3}
    a7a0:	6f742067 	svcvs	0x00742067
    a7a4:	72616d20 	rsbvc	r6, r1, #32, 26	; 0x800
    a7a8:	7025206b 	eorvc	r2, r5, fp, rrx
    a7ac:	20692820 	rsbcs	r2, r9, r0, lsr #16
    a7b0:	70252040 	eorvc	r2, r5, r0, asr #32
    a7b4:	25203d20 	strcs	r3, [r0, #-3360]!	; 0xfffff2e0
    a7b8:	202c2970 	eorcs	r2, ip, r0, ror r9
    a7bc:	20707865 	rsbscs	r7, r0, r5, ror #16
    a7c0:	7025203d 	eorvc	r2, r5, sp, lsr r0
    a7c4:	0000000a 	andeq	r0, r0, sl
    a7c8:	6b72616d 	blvs	1ca2d84 <__bss_end__+0x1c97a84>
    a7cc:	20676e69 	rsbcs	r6, r7, r9, ror #28
    a7d0:	25207361 	strcs	r7, [r0, #-865]!	; 0xfffffc9f
    a7d4:	00000a64 	andeq	r0, r0, r4, ror #20
    a7d8:	20746f6e 	rsbscs	r6, r4, lr, ror #30
    a7dc:	6b72616d 	blvs	1ca2d98 <__bss_end__+0x1c97a98>
    a7e0:	21676e69 	cmncs	r7, r9, ror #28
    a7e4:	0000000a 	andeq	r0, r0, sl
    a7e8:	63656863 	cmnvs	r5, #6488064	; 0x630000
    a7ec:	676e696b 	strbvs	r6, [lr, -fp, ror #18]!
    a7f0:	61747320 	cmnvs	r4, r0, lsr #6
    a7f4:	203a6b63 	eorscs	r6, sl, r3, ror #22
    a7f8:	74207025 	strtvc	r7, [r0], #-37	; 0xffffffdb
    a7fc:	7025206f 	eorvc	r2, r5, pc, rrx
    a800:	0000000a 	andeq	r0, r0, sl
    a804:	2d2d2d2d 	stccs	13, cr2, [sp, #-180]!	; 0xffffff4c
    a808:	2d2d2d2d 	stccs	13, cr2, [sp, #-180]!	; 0xffffff4c
    a80c:	2d2d2d2d 	stccs	13, cr2, [sp, #-180]!	; 0xffffff4c
    a810:	2d2d2d2d 	stccs	13, cr2, [sp, #-180]!	; 0xffffff4c
    a814:	2d2d2d2d 	stccs	13, cr2, [sp, #-180]!	; 0xffffff4c
    a818:	2d2d2d2d 	stccs	13, cr2, [sp, #-180]!	; 0xffffff4c
    a81c:	2d2d2d2d 	stccs	13, cr2, [sp, #-180]!	; 0xffffff4c
    a820:	2d2d2d2d 	stccs	13, cr2, [sp, #-180]!	; 0xffffff4c
    a824:	2d2d2d2d 	stccs	13, cr2, [sp, #-180]!	; 0xffffff4c
    a828:	2d2d2d2d 	stccs	13, cr2, [sp, #-180]!	; 0xffffff4c
    a82c:	2d2d2d2d 	stccs	13, cr2, [sp, #-180]!	; 0xffffff4c
    a830:	2d2d2d2d 	stccs	13, cr2, [sp, #-180]!	; 0xffffff4c
    a834:	2d2d2d2d 	stccs	13, cr2, [sp, #-180]!	; 0xffffff4c
    a838:	2d2d2d2d 	stccs	13, cr2, [sp, #-180]!	; 0xffffff4c
    a83c:	00000a2d 	andeq	r0, r0, sp, lsr #20
    a840:	63656863 	cmnvs	r5, #6488064	; 0x630000
    a844:	676e696b 	strbvs	r6, [lr, -fp, ror #18]!
    a848:	726f6620 	rsbvc	r6, pc, #32, 12	; 0x2000000
    a84c:	61656c20 	cmnvs	r5, r0, lsr #24
    a850:	0a3a736b 	beq	ea7604 <__bss_end__+0xe9c304>
    a854:	00000000 	andeq	r0, r0, r0
    a858:	4c3a4347 	ldcmi	3, cr4, [sl], #-284	; 0xfffffee4
    a85c:	2054534f 	subscs	r5, r4, pc, asr #6
    a860:	2d206425 	cfstrscs	mvf6, [r0, #-148]!	; 0xffffff6c
    a864:	7025203e 	eorvc	r2, r5, lr, lsr r0
    a868:	0000000a 	andeq	r0, r0, sl
    a86c:	4d3a4347 	ldcmi	3, cr4, [sl, #-284]!	; 0xfffffee4
    a870:	45425941 	strbmi	r5, [r2, #-2369]	; 0xfffff6bf
    a874:	534f4c20 	movtpl	r4, #64544	; 0xfc20
    a878:	64252054 	strtvs	r2, [r5], #-84	; 0xffffffac
    a87c:	203e2d20 	eorscs	r2, lr, r0, lsr #26
    a880:	000a7025 	andeq	r7, sl, r5, lsr #32
    a884:	43415254 	movtmi	r5, #4692	; 0x1254
    a888:	47093a45 	strmi	r3, [r9, -r5, asr #20]
    a88c:	68433a43 	stmdavs	r3, {r0, r1, r6, r9, fp, ip, sp}^
    a890:	656b6365 	strbvs	r6, [fp, #-869]!	; 0xfffffc9b
    a894:	64252064 	strtvs	r2, [r5], #-100	; 0xffffff9c
    a898:	6f6c6220 	svcvs	0x006c6220
    a89c:	2e736b63 	vsubcs.f64	d22, d3, d19
    a8a0:	0000000a 	andeq	r0, r0, sl
    a8a4:	43415254 	movtmi	r5, #4692	; 0x1254
    a8a8:	09093a45 	stmdbeq	r9, {r0, r2, r6, r9, fp, ip, sp}
    a8ac:	533a4347 	teqpl	sl, #469762049	; 0x1c000001
    a8b0:	45434355 	strbmi	r4, [r3, #-853]	; 0xfffffcab
    a8b4:	203a5353 	eorscs	r5, sl, r3, asr r3
    a8b8:	6c206f4e 	stcvs	15, cr6, [r0], #-312	; 0xfffffec8
    a8bc:	736b6165 	cmnvc	fp, #1073741849	; 0x40000019
    a8c0:	756f6620 	strbvc	r6, [pc, #-1568]!	; a2a8 <kfree_all>
    a8c4:	0a21646e 	beq	863a84 <__bss_end__+0x858784>
    a8c8:	00000000 	andeq	r0, r0, r0
    a8cc:	43415254 	movtmi	r5, #4692	; 0x1254
    a8d0:	09093a45 	stmdbeq	r9, {r0, r2, r6, r9, fp, ip, sp}
    a8d4:	453a4347 	ldrmi	r4, [sl, #-839]!	; 0xfffffcb9
    a8d8:	524f5252 	subpl	r5, pc, #536870917	; 0x20000005
    a8dc:	25203a53 	strcs	r3, [r0, #-2643]!	; 0xfffff5ad
    a8e0:	72652064 	rsbvc	r2, r5, #100, 0	; 0x64
    a8e4:	73726f72 	cmnvc	r2, #456	; 0x1c8
    a8e8:	6425202c 	strtvs	r2, [r5], #-44	; 0xffffffd4
    a8ec:	79616d20 	stmdbvc	r1!, {r5, r8, sl, fp, sp, lr}^
    a8f0:	655f6562 	ldrbvs	r6, [pc, #-1378]	; a396 <gpio_set_output+0x1a>
    a8f4:	726f7272 	rsbvc	r7, pc, #536870919	; 0x20000007
    a8f8:	00000a73 	andeq	r0, r0, r3, ror sl
    a8fc:	2d2d2d2d 	stccs	13, cr2, [sp, #-180]!	; 0xffffff4c
    a900:	2d2d2d2d 	stccs	13, cr2, [sp, #-180]!	; 0xffffff4c
    a904:	2d2d2d2d 	stccs	13, cr2, [sp, #-180]!	; 0xffffff4c
    a908:	2d2d2d2d 	stccs	13, cr2, [sp, #-180]!	; 0xffffff4c
    a90c:	2d2d2d2d 	stccs	13, cr2, [sp, #-180]!	; 0xffffff4c
    a910:	2d2d2d2d 	stccs	13, cr2, [sp, #-180]!	; 0xffffff4c
    a914:	2d2d2d2d 	stccs	13, cr2, [sp, #-180]!	; 0xffffff4c
    a918:	2d2d2d2d 	stccs	13, cr2, [sp, #-180]!	; 0xffffff4c
    a91c:	2d2d2d2d 	stccs	13, cr2, [sp, #-180]!	; 0xffffff4c
    a920:	2d2d2d2d 	stccs	13, cr2, [sp, #-180]!	; 0xffffff4c
    a924:	2d2d2d2d 	stccs	13, cr2, [sp, #-180]!	; 0xffffff4c
    a928:	2d2d2d2d 	stccs	13, cr2, [sp, #-180]!	; 0xffffff4c
    a92c:	2d2d2d2d 	stccs	13, cr2, [sp, #-180]!	; 0xffffff4c
    a930:	2d2d2d2d 	stccs	13, cr2, [sp, #-180]!	; 0xffffff4c
    a934:	000a2d2d 	andeq	r2, sl, sp, lsr #26
    a938:	706d6f63 	rsbvc	r6, sp, r3, ror #30
    a93c:	69746361 	ldmdbvs	r4!, {r0, r5, r6, r8, r9, sp, lr}^
    a940:	0a3a676e 	beq	ea4700 <__bss_end__+0xe99400>
    a944:	00000000 	andeq	r0, r0, r0
    a948:	463a4347 	ldrtmi	r4, [sl], -r7, asr #6
    a94c:	44454552 	strbmi	r4, [r5], #-1362	; 0xfffffaae
    a950:	0a702520 	beq	1c13dd8 <__bss_end__+0x1c08ad8>
    a954:	00000000 	andeq	r0, r0, r0
    a958:	43415254 	movtmi	r5, #4692	; 0x1254
    a95c:	47093a45 	strmi	r3, [r9, -r5, asr #20]
    a960:	68433a43 	stmdavs	r3, {r0, r1, r6, r9, fp, ip, sp}^
    a964:	656b6365 	strbvs	r6, [fp, #-869]!	; 0xfffffc9b
    a968:	64252064 	strtvs	r2, [r5], #-100	; 0xffffff9c
    a96c:	6f6c6220 	svcvs	0x006c6220
    a970:	2c736b63 			; <UNDEFINED> instruction: 0x2c736b63
    a974:	65726620 	ldrbvs	r6, [r2, #-1568]!	; 0xfffff9e0
    a978:	25206465 	strcs	r6, [r0, #-1125]!	; 0xfffffb9b
    a97c:	25202c64 	strcs	r2, [r0, #-3172]!	; 0xfffff39c
    a980:	79622064 	stmdbvc	r2!, {r2, r5, r6, sp}^
    a984:	0a736574 	beq	1ce3f5c <__bss_end__+0x1cd8c5c>
    a988:	00000000 	andeq	r0, r0, r0
    a98c:	72636e69 	rsbvc	r6, r3, #1680	; 0x690
    a990:	6e656d65 	cdpvs	13, 6, cr6, cr5, cr5, {3}
    a994:	203e2074 	eorscs	r2, lr, r4, ror r0
    a998:	00000030 	andeq	r0, r0, r0, lsr r0
    a99c:	494e4150 	stmdbmi	lr, {r4, r6, r8, lr}^
    a9a0:	73253a43 			; <UNDEFINED> instruction: 0x73253a43
    a9a4:	3a73253a 	bcc	1cd3e94 <__bss_end__+0x1cc8b94>
    a9a8:	6e3a6425 	cdpvs	4, 3, cr6, cr10, cr5, {1}
    a9ac:	6820746f 	stmdavs	r0!, {r0, r1, r2, r3, r5, r6, sl, ip, sp, lr}
    a9b0:	6c646e61 	stclvs	14, cr6, [r4], #-388	; 0xfffffe7c
    a9b4:	0a676e69 	beq	19e6360 <__bss_end__+0x19db060>
    a9b8:	0000000a 	andeq	r0, r0, sl
    a9bc:	73696874 	cmnvc	r9, #116, 16	; 0x740000
    a9c0:	6c6c6120 	stfvse	f6, [ip], #-128	; 0xffffff80
    a9c4:	7461636f 	strbtvc	r6, [r1], #-879	; 0xfffffc91
    a9c8:	276e6f69 	strbcs	r6, [lr, -r9, ror #30]!
    a9cc:	65722073 	ldrbvs	r2, [r2, #-115]!	; 0xffffff8d
    a9d0:	6e6f7a64 	vnmulvs.f32	s15, s30, s9
    a9d4:	77207365 	strvc	r7, [r0, -r5, ror #6]!
    a9d8:	20657265 	rsbcs	r7, r5, r5, ror #4
    a9dc:	74697277 	strbtvc	r7, [r9], #-631	; 0xfffffd89
    a9e0:	206e6574 	rsbcs	r6, lr, r4, ror r5
    a9e4:	0a216f74 	beq	8667bc <__bss_end__+0x85b4bc>
    a9e8:	00000000 	andeq	r0, r0, r0
    a9ec:	20736177 	rsbscs	r6, r3, r7, ror r1
    a9f0:	64657375 	strbtvs	r7, [r5], #-885	; 0xfffffc8b
    a9f4:	74666120 	strbtvc	r6, [r6], #-288	; 0xfffffee0
    a9f8:	66207265 	strtvs	r7, [r0], -r5, ror #4
    a9fc:	21656572 	smccs	22098	; 0x5652
    aa00:	0000000a 	andeq	r0, r0, sl
    aa04:	494e4150 	stmdbmi	lr, {r4, r6, r8, lr}^
    aa08:	73253a43 			; <UNDEFINED> instruction: 0x73253a43
    aa0c:	3a73253a 	bcc	1cd3efc <__bss_end__+0x1cc8bfc>
    aa10:	473a6425 	ldrmi	r6, [sl, -r5, lsr #8]!
    aa14:	73203a43 			; <UNDEFINED> instruction: 0x73203a43
    aa18:	6c756f68 	ldclvs	15, cr6, [r5], #-416	; 0xfffffe60
    aa1c:	61682064 	cmnvs	r8, r4, rrx
    aa20:	6e206576 	mcrvs	5, 1, r6, cr0, cr6, {3}
    aa24:	656c206f 	strbvs	r2, [ip, #-111]!	; 0xffffff91
    aa28:	21736b61 	cmncs	r3, r1, ror #22
    aa2c:	00000a0a 	andeq	r0, r0, sl, lsl #20
    aa30:	43415254 	movtmi	r5, #4692	; 0x1254
    aa34:	43473a45 	movtmi	r3, #31301	; 0x7a45
    aa38:	5553203a 	ldrbpl	r2, [r3, #-58]	; 0xffffffc6
    aa3c:	53454343 	movtpl	r4, #21315	; 0x5343
    aa40:	6e203a53 			; <UNDEFINED> instruction: 0x6e203a53
    aa44:	656c206f 	strbvs	r2, [ip, #-111]!	; 0xffffff91
    aa48:	21736b61 	cmncs	r3, r1, ror #22
    aa4c:	0000000a 	andeq	r0, r0, sl
    aa50:	494e4150 	stmdbmi	lr, {r4, r6, r8, lr}^
    aa54:	73253a43 			; <UNDEFINED> instruction: 0x73253a43
    aa58:	3a73253a 	bcc	1cd3f48 <__bss_end__+0x1cc8c48>
    aa5c:	473a6425 	ldrmi	r6, [sl, -r5, lsr #8]!
    aa60:	73203a43 			; <UNDEFINED> instruction: 0x73203a43
    aa64:	6c756f68 	ldclvs	15, cr6, [r5], #-416	; 0xfffffe60
    aa68:	61682064 	cmnvs	r8, r4, rrx
    aa6c:	6c206576 	cfstr32vs	mvfx6, [r0], #-472	; 0xfffffe28
    aa70:	736b6165 	cmnvc	fp, #1073741849	; 0x40000019
    aa74:	000a0a21 	andeq	r0, sl, r1, lsr #20
    aa78:	43415254 	movtmi	r5, #4692	; 0x1254
    aa7c:	43473a45 	movtmi	r3, #31301	; 0x7a45
    aa80:	5553203a 	ldrbpl	r2, [r3, #-58]	; 0xffffffc6
    aa84:	53454343 	movtpl	r4, #21315	; 0x5343
    aa88:	66203a53 			; <UNDEFINED> instruction: 0x66203a53
    aa8c:	646e756f 	strbtvs	r7, [lr], #-1391	; 0xfffffa91
    aa90:	20642520 	rsbcs	r2, r4, r0, lsr #10
    aa94:	6b61656c 	blvs	186404c <__bss_end__+0x1858d4c>
    aa98:	000a2173 	andeq	r2, sl, r3, ror r1
    aa9c:	494e4150 	stmdbmi	lr, {r4, r6, r8, lr}^
    aaa0:	73253a43 			; <UNDEFINED> instruction: 0x73253a43
    aaa4:	3a73253a 	bcc	1cd3f94 <__bss_end__+0x1cc8c94>
    aaa8:	643a6425 	ldrtvs	r6, [sl], #-1061	; 0xfffffbdb
    aaac:	6e206469 	cdpvs	4, 2, cr6, cr0, cr9, {3}
    aab0:	6920746f 	stmdbvs	r0!, {r0, r1, r2, r3, r5, r6, sl, ip, sp, lr}
    aab4:	656c706d 	strbvs	r7, [ip, #-109]!	; 0xffffff93
    aab8:	746e656d 	strbtvc	r6, [lr], #-1389	; 0xfffffa93
    aabc:	6d756420 	cfldrdvs	mvd6, [r5, #-128]!	; 0xffffff80
    aac0:	65725f70 	ldrbvs	r5, [r2, #-3952]!	; 0xfffff090
    aac4:	0a217367 	beq	867868 <__bss_end__+0x85c568>
    aac8:	0000000a 	andeq	r0, r0, sl

0000aacc <__FUNCTION__.4051>:
    aacc:	6b72616d 	blvs	1ca3088 <__bss_end__+0x1c97d88>
    aad0:	00000000 	andeq	r0, r0, r0

0000aad4 <__FUNCTION__.4125>:
    aad4:	65657773 	strbvs	r7, [r5, #-1907]!	; 0xfffff88d
    aad8:	72665f70 	rsbvc	r5, r6, #112, 30	; 0x1c0
    aadc:	00006565 	andeq	r6, r0, r5, ror #10

0000aae0 <__FUNCTION__.4038>:
    aae0:	6b726273 	blvs	1ca34b4 <__bss_end__+0x1c981b4>
    aae4:	00000000 	andeq	r0, r0, r0

0000aae8 <__FUNCTION__.4112>:
    aae8:	63656863 	cmnvs	r5, #6488064	; 0x630000
    aaec:	6f6e5f6b 	svcvs	0x006e5f6b
    aaf0:	61656c5f 	cmnvs	r5, pc, asr ip
    aaf4:	0000006b 	andeq	r0, r0, fp, rrx

0000aaf8 <__FUNCTION__.4117>:
    aaf8:	63656863 	cmnvs	r5, #6488064	; 0x630000
    aafc:	68735f6b 	ldmdavs	r3!, {r0, r1, r3, r5, r6, r8, r9, sl, fp, ip, lr}^
    ab00:	646c756f 	strbtvs	r7, [ip], #-1391	; 0xfffffa91
    ab04:	61656c5f 	cmnvs	r5, pc, asr ip
    ab08:	0000006b 	andeq	r0, r0, fp, rrx

0000ab0c <__FUNCTION__.4136>:
    ab0c:	6c706d69 	ldclvs	13, cr6, [r0], #-420	; 0xfffffe5c
    ab10:	6e656d65 	cdpvs	13, 6, cr6, cr5, cr5, {3}
    ab14:	68745f74 	ldmdavs	r4!, {r2, r4, r5, r6, r8, r9, sl, fp, ip, lr}^
    ab18:	00007369 	andeq	r7, r0, r9, ror #6
    ab1c:	003f3f3f 	eorseq	r3, pc, pc, lsr pc	; <UNPREDICTABLE>
    ab20:	20642523 	rsbcs	r2, r4, r3, lsr #10
    ab24:	28207825 	stmdacs	r0!, {r0, r2, r5, fp, ip, sp, lr}
    ab28:	0a297325 	beq	a677c4 <__bss_end__+0xa5c4c4>
    ab2c:	00000000 	andeq	r0, r0, r0
    ab30:	696c2f2e 	stmdbvs	ip!, {r1, r2, r3, r5, r8, r9, sl, fp, sp}^
    ab34:	762f6362 	strtvc	r6, [pc], -r2, ror #6
    ab38:	72702d61 	rsbsvc	r2, r0, #6208	; 0x1840
    ab3c:	6b746e69 	blvs	1d264e8 <__bss_end__+0x1d1b1e8>
    ab40:	0000632e 	andeq	r6, r0, lr, lsr #6
    ab44:	33323130 	teqcc	r2, #12
    ab48:	37363534 			; <UNDEFINED> instruction: 0x37363534
    ab4c:	62613938 	rsbvs	r3, r1, #56, 18	; 0xe0000
    ab50:	66656463 	strbtvs	r6, [r5], -r3, ror #8
    ab54:	00000000 	andeq	r0, r0, r0
    ab58:	00003130 	andeq	r3, r0, r0, lsr r1
    ab5c:	33323130 	teqcc	r2, #12
    ab60:	37363534 			; <UNDEFINED> instruction: 0x37363534
    ab64:	00003938 	andeq	r3, r0, r8, lsr r9
    ab68:	63747570 	cmnvs	r4, #112, 10	; 0x1c000000
    ab6c:	0070665f 	rsbseq	r6, r0, pc, asr r6
    ab70:	74646977 	strbtvc	r6, [r4], #-2423	; 0xfffff689
    ab74:	203c2068 	eorscs	r2, ip, r8, rrx
    ab78:	00003233 	andeq	r3, r0, r3, lsr r2
    ab7c:	00786c6c 	rsbseq	r6, r8, ip, ror #24
    ab80:	253d3078 	ldrcs	r3, [sp, #-120]!	; 0xffffff88
    ab84:	00000a78 	andeq	r0, r0, r8, ror sl
    ab88:	253d3178 	ldrcs	r3, [sp, #-376]!	; 0xfffffe88
    ab8c:	00000a78 	andeq	r0, r0, r8, ror sl
    ab90:	00646c6c 	rsbeq	r6, r4, ip, ror #24
    ab94:	6e727473 	mrcvs	4, 3, r7, cr2, cr3, {3}
    ab98:	28706d63 	ldmdacs	r0!, {r0, r1, r5, r6, r8, sl, fp, sp, lr}^
    ab9c:	202c7974 	eorcs	r7, ip, r4, ror r9
    aba0:	786c6c22 	stmdavc	ip!, {r1, r5, sl, fp, sp, lr}^
    aba4:	33202c22 			; <UNDEFINED> instruction: 0x33202c22
    aba8:	3d3d2029 	ldccc	0, cr2, [sp, #-164]!	; 0xffffff5c
    abac:	7c203020 	stcvc	0, cr3, [r0], #-128	; 0xffffff80
    abb0:	7473207c 	ldrbtvc	r2, [r3], #-124	; 0xffffff84
    abb4:	6d636e72 	stclvs	14, cr6, [r3, #-456]!	; 0xfffffe38
    abb8:	79742870 	ldmdbvc	r4!, {r4, r5, r6, fp, sp}^
    abbc:	6c22202c 	stcvs	0, cr2, [r2], #-176	; 0xffffff50
    abc0:	2c22646c 	cfstrscs	mvf6, [r2], #-432	; 0xfffffe50
    abc4:	20293320 	eorcs	r3, r9, r0, lsr #6
    abc8:	30203d3d 	eorcc	r3, r0, sp, lsr sp
    abcc:	00000000 	andeq	r0, r0, r0
    abd0:	494e4150 	stmdbmi	lr, {r4, r6, r8, lr}^
    abd4:	73253a43 			; <UNDEFINED> instruction: 0x73253a43
    abd8:	3a73253a 	bcc	1cd40c8 <__bss_end__+0x1cc8dc8>
    abdc:	693a6425 	ldmdbvs	sl!, {r0, r2, r5, sl, sp, lr}
    abe0:	736f706d 	cmnvc	pc, #109, 0	; 0x6d
    abe4:	6c626973 			; <UNDEFINED> instruction: 0x6c626973
    abe8:	66203a65 	strtvs	r3, [r0], -r5, ror #20
    abec:	3c3d746d 	cfldrscc	mvf7, [sp], #-436	; 0xfffffe4c
    abf0:	0a3e7325 	beq	fa788c <__bss_end__+0xf9c58c>
    abf4:	0000000a 	andeq	r0, r0, sl
    abf8:	494e4150 	stmdbmi	lr, {r4, r6, r8, lr}^
    abfc:	73253a43 			; <UNDEFINED> instruction: 0x73253a43
    ac00:	3a73253a 	bcc	1cd40f0 <__bss_end__+0x1cc8df0>
    ac04:	663a6425 	ldrtvs	r6, [sl], -r5, lsr #8
    ac08:	74616f6c 	strbtvc	r6, [r1], #-3948	; 0xfffff094
    ac0c:	746f6e20 	strbtvc	r6, [pc], #-3616	; ac14 <__FUNCTION__.4136+0x108>
    ac10:	616e6520 	cmnvs	lr, r0, lsr #10
    ac14:	64656c62 	strbtvs	r6, [r5], #-3170	; 0xfffff39e
    ac18:	0a212121 	beq	8530a4 <__bss_end__+0x847da4>
    ac1c:	00000000 	andeq	r0, r0, r0
    ac20:	6e697270 	mcrvs	2, 3, r7, cr9, cr0, {3}
    ac24:	203a6b74 	eorscs	r6, sl, r4, ror fp
    ac28:	20746f6e 	rsbscs	r6, r4, lr, ror #30
    ac2c:	646e6168 	strbtvs	r6, [lr], #-360	; 0xfffffe98
    ac30:	676e696c 	strbvs	r6, [lr, -ip, ror #18]!
    ac34:	65707320 	ldrbvs	r7, [r0, #-800]!	; 0xfffffce0
    ac38:	69666963 	stmdbvs	r6!, {r0, r1, r5, r6, r8, fp, sp, lr}^
    ac3c:	27207265 	strcs	r7, [r0, -r5, ror #4]!
    ac40:	20276325 	eorcs	r6, r7, r5, lsr #6
    ac44:	63736128 	cmnvs	r3, #10
    ac48:	253d6969 	ldrcs	r6, [sp, #-2409]!	; 0xfffff697
    ac4c:	000a2964 	andeq	r2, sl, r4, ror #18
    ac50:	494e4150 	stmdbmi	lr, {r4, r6, r8, lr}^
    ac54:	73253a43 			; <UNDEFINED> instruction: 0x73253a43
    ac58:	3a73253a 	bcc	1cd4148 <__bss_end__+0x1cc8e48>
    ac5c:	703a6425 	eorsvc	r6, sl, r5, lsr #8
    ac60:	746e6972 	strbtvc	r6, [lr], #-2418	; 0xfffff68e
    ac64:	7265206b 	rsbvc	r2, r5, #107, 0	; 0x6b
    ac68:	0a726f72 	beq	1ca6a38 <__bss_end__+0x1c9b738>
    ac6c:	0000000a 	andeq	r0, r0, sl

0000ac70 <__FUNCTION__.4004>:
    ac70:	74696d65 	strbtvc	r6, [r9], #-3429	; 0xfffff29b
    ac74:	00000000 	andeq	r0, r0, r0

0000ac78 <__FUNCTION__.3952>:
    ac78:	5f697072 	svcpl	0x00697072
    ac7c:	5f746573 	svcpl	0x00746573
    ac80:	7074756f 	rsbsvc	r7, r4, pc, ror #10
    ac84:	00007475 	andeq	r7, r0, r5, ror r4

0000ac88 <__FUNCTION__.4030>:
    ac88:	705f6176 	subsvc	r6, pc, r6, ror r1	; <UNPREDICTABLE>
    ac8c:	746e6972 	strbtvc	r6, [lr], #-2418	; 0xfffff68e
    ac90:	0000006b 	andeq	r0, r0, fp, rrx
    ac94:	454e4f44 	strbmi	r4, [lr, #-3908]	; 0xfffff0bc
    ac98:	0a212121 	beq	853124 <__bss_end__+0x847e24>
    ac9c:	00000000 	andeq	r0, r0, r0
    aca0:	6e75525b 	mrcvs	2, 3, r5, cr5, cr11, {2}
    aca4:	676e696e 	strbvs	r6, [lr, -lr, ror #18]!
    aca8:	6f6f7420 	svcvs	0x006f7420
    acac:	6425206b 	strtvs	r2, [r5], #-107	; 0xffffff95
    acb0:	63796320 	cmnvs	r9, #32, 6	; 0x80000000
    acb4:	5d73656c 	cfldr64pl	mvdx6, [r3, #-432]!	; 0xfffffe50
    acb8:	0000000a 	andeq	r0, r0, sl
    acbc:	6c616d6b 	stclvs	13, cr6, [r1], #-428	; 0xfffffe54
    acc0:	2e636f6c 	cdpcs	15, 6, cr6, cr3, cr12, {3}
    acc4:	00000063 	andeq	r0, r0, r3, rrx
    acc8:	5f78616d 	svcpl	0x0078616d
    accc:	7479626e 	ldrbtvc	r6, [r9], #-622	; 0xfffffd92
    acd0:	00007365 	andeq	r7, r0, r5, ror #6
    acd4:	494e4150 	stmdbmi	lr, {r4, r6, r8, lr}^
    acd8:	73253a43 			; <UNDEFINED> instruction: 0x73253a43
    acdc:	3a73253a 	bcc	1cd41cc <__bss_end__+0x1cc8ecc>
    ace0:	733a6425 	teqvc	sl, #620756992	; 0x25000000
    ace4:	69747465 	ldmdbvs	r4!, {r0, r2, r5, r6, sl, ip, sp, lr}^
    ace8:	6820676e 	stmdavs	r0!, {r1, r2, r3, r5, r6, r8, r9, sl, sp, lr}
    acec:	20706165 	rsbscs	r6, r0, r5, ror #2
    acf0:	25206f74 	strcs	r6, [r0, #-3956]!	; 0xfffff08c
    acf4:	77203a70 			; <UNDEFINED> instruction: 0x77203a70
    acf8:	206c6c69 	rsbcs	r6, ip, r9, ror #24
    acfc:	20746968 	rsbscs	r6, r4, r8, ror #18
    ad00:	20656874 	rsbcs	r6, r5, r4, ror r8
    ad04:	20646c6f 	rsbcs	r6, r4, pc, ror #24
    ad08:	70616568 	rsbvc	r6, r1, r8, ror #10
    ad0c:	20746120 	rsbscs	r6, r4, r0, lsr #2
    ad10:	0a0a7025 	beq	2a6dac <__bss_end__+0x29baac>
    ad14:	00000000 	andeq	r0, r0, r0
    ad18:	494e4150 	stmdbmi	lr, {r4, r6, r8, lr}^
    ad1c:	73253a43 			; <UNDEFINED> instruction: 0x73253a43
    ad20:	3a73253a 	bcc	1cd4210 <__bss_end__+0x1cc8f10>
    ad24:	613a6425 	teqvs	sl, r5, lsr #8
    ad28:	6165726c 	cmnvs	r5, ip, ror #4
    ad2c:	63207964 			; <UNDEFINED> instruction: 0x63207964
    ad30:	656c6c61 	strbvs	r6, [ip, #-3169]!	; 0xfffff39f
    ad34:	6d6b2064 	stclvs	0, cr2, [fp, #-400]!	; 0xfffffe70
    ad38:	6f6c6c61 	svcvs	0x006c6c61
    ad3c:	6e695f63 	cdpvs	15, 6, cr5, cr9, cr3, {3}
    ad40:	0a0a7469 	beq	2a7eec <__bss_end__+0x29cbec>
    ad44:	00000000 	andeq	r0, r0, r0
    ad48:	494e4150 	stmdbmi	lr, {r4, r6, r8, lr}^
    ad4c:	73253a43 			; <UNDEFINED> instruction: 0x73253a43
    ad50:	3a73253a 	bcc	1cd4240 <__bss_end__+0x1cc8f40>
    ad54:	253a6425 	ldrcs	r6, [sl, #-1061]!	; 0xfffffbdb
    ad58:	626e2064 	rsbvs	r2, lr, #100, 0	; 0x64
    ad5c:	73657479 	cmnvc	r5, #2030043136	; 0x79000000
    ad60:	63786520 	cmnvs	r8, #32, 10	; 0x8000000
    ad64:	65646565 	strbvs	r6, [r4, #-1381]!	; 0xfffffa9b
    ad68:	69732064 	ldmdbvs	r3!, {r2, r5, r6, sp}^
    ad6c:	6f20657a 	svcvs	0x0020657a
    ad70:	65682066 	strbvs	r2, [r8, #-102]!	; 0xffffff9a
    ad74:	62207061 	eorvs	r7, r0, #97, 0	; 0x61
    ad78:	75252079 	strvc	r2, [r5, #-121]!	; 0xffffff87
    ad7c:	79626e20 	stmdbvc	r2!, {r5, r9, sl, fp, sp, lr}^
    ad80:	0a736574 	beq	1ce4358 <__bss_end__+0x1cd9058>
    ad84:	0000000a 	andeq	r0, r0, sl
    ad88:	4f525245 	svcmi	0x00525245
    ad8c:	73253a52 			; <UNDEFINED> instruction: 0x73253a52
    ad90:	3a73253a 	bcc	1cd4280 <__bss_end__+0x1cc8f80>
    ad94:	203a6425 	eorscs	r6, sl, r5, lsr #8
    ad98:	534c4146 	movtpl	r4, #49478	; 0xc146
    ad9c:	253c2845 	ldrcs	r2, [ip, #-2117]!	; 0xfffff7bb
    ada0:	3a293e73 	bcc	a5a774 <__bss_end__+0xa4f474>
    ada4:	73736120 	cmnvc	r3, #8
    ada8:	6e696d75 	mcrvs	13, 3, r6, cr9, cr5, {3}
    adac:	6f702067 	svcvs	0x00702067
    adb0:	20726577 	rsbscs	r6, r2, r7, ror r5
    adb4:	7420666f 	strtvc	r6, [r0], #-1647	; 0xfffff991
    adb8:	000a6f77 	andeq	r6, sl, r7, ror pc
    adbc:	705f7369 	subsvc	r7, pc, r9, ror #6
    adc0:	2832776f 	ldmdacs	r2!, {r0, r1, r2, r3, r5, r6, r8, r9, sl, ip, sp, lr}
    adc4:	67696c61 	strbvs	r6, [r9, -r1, ror #24]!
    adc8:	6e656d6e 	cdpvs	13, 6, cr6, cr5, cr14, {3}
    adcc:	00002974 	andeq	r2, r0, r4, ror r9
    add0:	705f7369 	subsvc	r7, pc, r9, ror #6
    add4:	2832776f 	ldmdacs	r2!, {r0, r1, r2, r3, r5, r6, r8, r9, sl, ip, sp, lr}
    add8:	0000296e 	andeq	r2, r0, lr, ror #18
    addc:	4f525245 	svcmi	0x00525245
    ade0:	73253a52 			; <UNDEFINED> instruction: 0x73253a52
    ade4:	3a73253a 	bcc	1cd42d4 <__bss_end__+0x1cc8fd4>
    ade8:	203a6425 	eorscs	r6, sl, r5, lsr #8
    adec:	534c4146 	movtpl	r4, #49478	; 0xc146
    adf0:	253c2845 	ldrcs	r2, [ip, #-2117]!	; 0xfffff7bb
    adf4:	3a293e73 	bcc	a5a7c8 <__bss_end__+0xa4f4c8>
    adf8:	706d6920 	rsbvc	r6, sp, r0, lsr #18
    adfc:	6973736f 	ldmdbvs	r3!, {r0, r1, r2, r3, r5, r6, r8, r9, ip, sp, lr}^
    ae00:	0a656c62 	beq	1965f90 <__bss_end__+0x195ac90>
    ae04:	00000000 	andeq	r0, r0, r0
    ae08:	615f7369 	cmpvs	pc, r9, ror #6
    ae0c:	6e67696c 	vnmulvs.f16	s13, s14, s25	; <UNPREDICTABLE>
    ae10:	68286465 	stmdavs	r8!, {r0, r2, r5, r6, sl, sp, lr}
    ae14:	6c61202c 	stclvs	0, cr2, [r1], #-176	; 0xffffff50
    ae18:	6d6e6769 	stclvs	7, cr6, [lr, #-420]!	; 0xfffffe5c
    ae1c:	29746e65 	ldmdbcs	r4!, {r0, r2, r5, r6, r9, sl, fp, sp, lr}^
    ae20:	00000000 	andeq	r0, r0, r0
    ae24:	494e4150 	stmdbmi	lr, {r4, r6, r8, lr}^
    ae28:	73253a43 			; <UNDEFINED> instruction: 0x73253a43
    ae2c:	3a73253a 	bcc	1cd431c <__bss_end__+0x1cc901c>
    ae30:	703a6425 	eorsvc	r6, sl, r5, lsr #8
    ae34:	746e696f 	strbtvc	r6, [lr], #-2415	; 0xfffff691
    ae38:	25207265 	strcs	r7, [r0, #-613]!	; 0xfffffd9b
    ae3c:	61772070 	cmnvs	r7, r0, ror r0
    ae40:	656e2073 	strbvs	r2, [lr, #-115]!	; 0xffffff8d
    ae44:	20726576 	rsbscs	r6, r2, r6, ror r5
    ae48:	6f6c6c61 	svcvs	0x006c6c61
    ae4c:	65746163 	ldrbvs	r6, [r4, #-355]!	; 0xfffffe9d
    ae50:	000a0a64 	andeq	r0, sl, r4, ror #20

0000ae54 <__FUNCTION__.7>:
    ae54:	6c616d6b 	stclvs	13, cr6, [r1], #-428	; 0xfffffe54
    ae58:	5f636f6c 	svcpl	0x00636f6c
    ae5c:	74696e69 	strbtvc	r6, [r9], #-3689	; 0xfffff197
    ae60:	7465735f 	strbtvc	r7, [r5], #-863	; 0xfffffca1
    ae64:	6174735f 	cmnvs	r4, pc, asr r3
    ae68:	00007472 	andeq	r7, r0, r2, ror r4

0000ae6c <__FUNCTION__.5>:
    ae6c:	6c616d6b 	stclvs	13, cr6, [r1], #-428	; 0xfffffe54
    ae70:	5f636f6c 	svcpl	0x00636f6c
    ae74:	74696e69 	strbtvc	r6, [r9], #-3689	; 0xfffff197
    ae78:	00000000 	andeq	r0, r0, r0

0000ae7c <__FUNCTION__.4>:
    ae7c:	6c616d6b 	stclvs	13, cr6, [r1], #-428	; 0xfffffe54
    ae80:	5f636f6c 	svcpl	0x00636f6c
    ae84:	7a746f6e 	bvc	1d26c44 <__bss_end__+0x1d1b944>
    ae88:	006f7265 	rsbeq	r7, pc, r5, ror #4

0000ae8c <__FUNCTION__.2>:
    ae8c:	6c616d6b 	stclvs	13, cr6, [r1], #-428	; 0xfffffe54
    ae90:	00636f6c 	rsbeq	r6, r3, ip, ror #30

0000ae94 <__FUNCTION__.1>:
    ae94:	6c616d6b 	stclvs	13, cr6, [r1], #-428	; 0xfffffe54
    ae98:	5f636f6c 	svcpl	0x00636f6c
    ae9c:	67696c61 	strbvs	r6, [r9, -r1, ror #24]!
    aea0:	0064656e 	rsbeq	r6, r4, lr, ror #10

0000aea4 <__FUNCTION__.3>:
    aea4:	6e756f72 	mrcvs	15, 3, r6, cr5, cr2, {3}
    aea8:	00707564 	rsbseq	r7, r0, r4, ror #10

0000aeac <__FUNCTION__.0>:
    aeac:	6572666b 	ldrbvs	r6, [r2, #-1643]!	; 0xfffff995
    aeb0:	6f705f65 	svcvs	0x00705f65
    aeb4:	Address 0x000000000000aeb4 is out of bounds.


Disassembly of section .data:

0000aeb8 <putk>:
    aeb8:	00009090 	muleq	r0, r0, r0

0000aebc <heap>:
    aebc:	0000b300 	andeq	fp, r0, r0, lsl #6

0000aec0 <heap_start>:
    aec0:	0000b300 	andeq	fp, r0, r0, lsl #6

0000aec4 <heap_end>:
    aec4:	0020b300 	eoreq	fp, r0, r0, lsl #6

0000aec8 <rpi_putchar>:
    aec8:	0000a4b4 			; <UNDEFINED> instruction: 0x0000a4b4

Disassembly of section .bss:

0000aed0 <__bss_start__>:
	...

0000aed8 <freep>:
	...

0000aee0 <base>:
	...

0000aee8 <heap_start>:
    aee8:	00000000 	andeq	r0, r0, r0

0000aeec <heap_end>:
    aeec:	00000000 	andeq	r0, r0, r0

0000aef0 <init_p.4037>:
    aef0:	00000000 	andeq	r0, r0, r0

0000aef4 <buf.3944>:
	...

0000b2f4 <last.3937>:
    b2f4:	00000000 	andeq	r0, r0, r0

0000b2f8 <init_p.6>:
	...

Disassembly of section .ARM.attributes:

00000000 <.ARM.attributes>:
   0:	00002a41 	andeq	r2, r0, r1, asr #20
   4:	61656100 	cmnvs	r5, r0, lsl #2
   8:	01006962 	tsteq	r0, r2, ror #18
   c:	00000020 	andeq	r0, r0, r0, lsr #32
  10:	4b5a3605 	blmi	168d82c <__bss_end__+0x168252c>
  14:	08070600 	stmdaeq	r7, {r9, sl}
  18:	12010901 	andne	r0, r1, #16384	; 0x4000
  1c:	15011404 	strne	r1, [r1, #-1028]	; 0xfffffbfc
  20:	18031701 	stmdane	r3, {r0, r8, r9, sl, ip}
  24:	22011a01 	andcs	r1, r1, #4096	; 0x1000
  28:	Address 0x0000000000000028 is out of bounds.


Disassembly of section .comment:

00000000 <.comment>:
   0:	3a434347 	bcc	10d0d24 <__bss_end__+0x10c5a24>
   4:	4e472820 	cdpmi	8, 4, cr2, cr7, cr0, {1}
   8:	6f542055 	svcvs	0x00542055
   c:	20736c6f 	rsbscs	r6, r3, pc, ror #24
  10:	20726f66 	rsbscs	r6, r2, r6, ror #30
  14:	206d7241 	rsbcs	r7, sp, r1, asr #4
  18:	65626d45 	strbvs	r6, [r2, #-3397]!	; 0xfffff2bb
  1c:	64656464 	strbtvs	r6, [r5], #-1124	; 0xfffffb9c
  20:	6f725020 	svcvs	0x00725020
  24:	73736563 	cmnvc	r3, #415236096	; 0x18c00000
  28:	2073726f 	rsbscs	r7, r3, pc, ror #4
  2c:	30322d39 	eorscc	r2, r2, r9, lsr sp
  30:	712d3931 			; <UNDEFINED> instruction: 0x712d3931
  34:	616d2d34 	cmnvs	sp, r4, lsr sp
  38:	29726f6a 	ldmdbcs	r2!, {r1, r3, r5, r6, r8, r9, sl, fp, sp, lr}^
  3c:	322e3920 	eorcc	r3, lr, #32, 18	; 0x80000
  40:	3220312e 	eorcc	r3, r0, #-2147483637	; 0x8000000b
  44:	31393130 	teqcc	r9, r0, lsr r1
  48:	20353230 	eorscs	r3, r5, r0, lsr r2
  4c:	6c657228 	sfmvs	f7, 2, [r5], #-160	; 0xffffff60
  50:	65736165 	ldrbvs	r6, [r3, #-357]!	; 0xfffffe9b
  54:	415b2029 	cmpmi	fp, r9, lsr #32
  58:	612f4d52 			; <UNDEFINED> instruction: 0x612f4d52
  5c:	392d6d72 	pushcc	{r1, r4, r5, r6, r8, sl, fp, sp, lr}
  60:	6172622d 	cmnvs	r2, sp, lsr #4
  64:	2068636e 	rsbcs	r6, r8, lr, ror #6
  68:	69766572 	ldmdbvs	r6!, {r1, r4, r5, r6, r8, sl, sp, lr}^
  6c:	6e6f6973 			; <UNDEFINED> instruction: 0x6e6f6973
  70:	37373220 	ldrcc	r3, [r7, -r0, lsr #4]!
  74:	5d393935 			; <UNDEFINED> instruction: 0x5d393935
  78:	43434700 	movtmi	r4, #14080	; 0x3700
  7c:	4728203a 			; <UNDEFINED> instruction: 0x4728203a
  80:	4120554e 			; <UNDEFINED> instruction: 0x4120554e
  84:	45206d72 	strmi	r6, [r0, #-3442]!	; 0xfffff28e
  88:	6465626d 	strbtvs	r6, [r5], #-621	; 0xfffffd93
  8c:	20646564 	rsbcs	r6, r4, r4, ror #10
  90:	6c6f6f54 	stclvs	15, cr6, [pc], #-336	; ffffff48 <__bss_end__+0xffff4c48>
  94:	69616863 	stmdbvs	r1!, {r0, r1, r5, r6, fp, sp, lr}^
  98:	3031206e 	eorscc	r2, r1, lr, rrx
  9c:	322d332e 	eorcc	r3, sp, #-1207959552	; 0xb8000000
  a0:	2e313230 	mrccs	2, 1, r3, cr1, cr0, {1}
  a4:	20293031 	eorcs	r3, r9, r1, lsr r0
  a8:	332e3031 			; <UNDEFINED> instruction: 0x332e3031
  ac:	3220312e 	eorcc	r3, r0, #-2147483637	; 0x8000000b
  b0:	30313230 	eorscc	r3, r1, r0, lsr r2
  b4:	20343238 	eorscs	r3, r4, r8, lsr r2
  b8:	6c657228 	sfmvs	f7, 2, [r5], #-160	; 0xffffff60
  bc:	65736165 	ldrbvs	r6, [r3, #-357]!	; 0xfffffe9b
  c0:	Address 0x00000000000000c0 is out of bounds.


Disassembly of section .debug_info:

00000000 <.debug_info>:
       0:	000002e5 	andeq	r0, r0, r5, ror #5
       4:	00000004 	andeq	r0, r0, r4
       8:	01040000 	mrseq	r0, (UNDEF: 4)
       c:	00000065 	andeq	r0, r0, r5, rrx
      10:	0000290c 	andeq	r2, r0, ip, lsl #18
      14:	00016000 	andeq	r6, r1, r0
      18:	00803800 	addeq	r3, r0, r0, lsl #16
      1c:	0000ac00 	andeq	sl, r0, r0, lsl #24
      20:	00000000 	andeq	r0, r0, r0
      24:	05040200 	streq	r0, [r4, #-512]	; 0xfffffe00
      28:	00746e69 	rsbseq	r6, r4, r9, ror #28
      2c:	b0070403 	andlt	r0, r7, r3, lsl #8
      30:	03000001 	movweq	r0, #1
      34:	01540601 	cmpeq	r4, r1, lsl #12
      38:	02030000 	andeq	r0, r3, #0, 0
      3c:	0001de05 	andeq	sp, r1, r5, lsl #28
      40:	05040300 	streq	r0, [r4, #-768]	; 0xfffffd00
      44:	000001c2 	andeq	r0, r0, r2, asr #3
      48:	bd050803 	stclt	8, cr0, [r5, #-12]
      4c:	03000001 	movweq	r0, #1
      50:	01520801 	cmpeq	r2, r1, lsl #16
      54:	02030000 	andeq	r0, r3, #0, 0
      58:	00005207 	andeq	r5, r0, r7, lsl #4
      5c:	07040300 	streq	r0, [r4, -r0, lsl #6]
      60:	000001ab 	andeq	r0, r0, fp, lsr #3
      64:	a6070803 	strge	r0, [r7], -r3, lsl #16
      68:	04000001 	streq	r0, [r0], #-1
      6c:	00000025 	andeq	r0, r0, r5, lsr #32
      70:	0000007a 	andeq	r0, r0, sl, ror r0
      74:	00002505 	andeq	r2, r0, r5, lsl #10
      78:	cb060000 	blgt	180080 <__bss_end__+0x174d80>
      7c:	03000001 	movweq	r0, #1
      80:	00860e1c 	addeq	r0, r6, ip, lsl lr
      84:	04070000 	streq	r0, [r7], #-0
      88:	0000006b 	andeq	r0, r0, fp, rrx
      8c:	00002504 	andeq	r2, r0, r4, lsl #10
      90:	00009b00 	andeq	r9, r0, r0, lsl #22
      94:	009b0500 	addseq	r0, fp, r0, lsl #10
      98:	07000000 	streq	r0, [r0, -r0]
      9c:	0000a804 	andeq	sl, r0, r4, lsl #16
      a0:	08010300 	stmdaeq	r1, {r8, r9}
      a4:	0000015b 	andeq	r0, r0, fp, asr r1
      a8:	0000a108 	andeq	sl, r0, r8, lsl #2
      ac:	06ba0600 	ldrteq	r0, [sl], r0, lsl #12
      b0:	21030000 	mrscs	r0, (UNDEF: 3)
      b4:	0000b90e 	andeq	fp, r0, lr, lsl #18
      b8:	8c040700 	stchi	7, cr0, [r4], {-0}
      bc:	09000000 	stmdbeq	r0, {}	; <UNPREDICTABLE>
      c0:	0905020c 	stmdbeq	r5, {r2, r3, r9}
      c4:	000000f0 	strdeq	r0, [r0], -r0	; <UNPREDICTABLE>
      c8:	0000240a 	andeq	r2, r0, sl, lsl #8
      cc:	11070200 	mrsne	r0, (UNDEF: 39)
      d0:	0000009b 	muleq	r0, fp, r0
      d4:	01940a00 	orrseq	r0, r4, r0, lsl #20
      d8:	08020000 	stmdaeq	r2, {}	; <UNPREDICTABLE>
      dc:	00009b11 	andeq	r9, r0, r1, lsl fp
      e0:	150a0400 	strne	r0, [sl, #-1024]	; 0xfffffc00
      e4:	02000000 	andeq	r0, r0, #0, 0
      e8:	002c0e09 	eoreq	r0, ip, r9, lsl #28
      ec:	00080000 	andeq	r0, r8, r0
      f0:	0001e80b 	andeq	lr, r1, fp, lsl #16
      f4:	030a0200 	movweq	r0, #41472	; 0xa200
      f8:	000000bf 	strheq	r0, [r0], -pc	; <UNPREDICTABLE>
      fc:	00000006 	andeq	r0, r0, r6
     100:	11a80400 			; <UNDEFINED> instruction: 0x11a80400
     104:	0000002c 	andeq	r0, r0, ip, lsr #32
     108:	00001c0c 	andeq	r1, r0, ip, lsl #24
     10c:	06050100 	streq	r0, [r5], -r0, lsl #2
     110:	00008044 	andeq	r8, r0, r4, asr #32
     114:	000000a0 	andeq	r0, r0, r0, lsr #1
     118:	024f9c01 	subeq	r9, pc, #256	; 0x100
     11c:	700d0000 	andvc	r0, sp, r0
     120:	0b070100 	bleq	1c0528 <__bss_end__+0x1b5228>
     124:	0000024f 	andeq	r0, r0, pc, asr #4
     128:	00000004 	andeq	r0, r0, r4
     12c:	00000000 	andeq	r0, r0, r0
     130:	0001990e 	andeq	r9, r1, lr, lsl #18
     134:	00026500 	andeq	r6, r2, r0, lsl #10
     138:	50030500 	andpl	r0, r3, r0, lsl #10
     13c:	0f0000a6 	svceq	0x000000a6
     140:	0000026a 	andeq	r0, r0, sl, ror #4
     144:	0000805c 	andeq	r8, r0, ip, asr r0
     148:	00805c01 	addeq	r5, r0, r1, lsl #24
     14c:	00001800 	andeq	r1, r0, r0, lsl #16
     150:	0f070100 	svceq	0x00070100
     154:	00000180 	andeq	r0, r0, r0, lsl #3
     158:	00029310 	andeq	r9, r2, r0, lsl r3
     15c:	00002400 	andeq	r2, r0, r0, lsl #8
     160:	00002200 	andeq	r2, r0, r0, lsl #4
     164:	02871000 	addeq	r1, r7, #0, 0
     168:	003a0000 	eorseq	r0, sl, r0
     16c:	00380000 	eorseq	r0, r8, r0
     170:	7b100000 	blvc	400178 <__bss_end__+0x3f4e78>
     174:	54000002 	strpl	r0, [r0], #-2
     178:	52000000 	andpl	r0, r0, #0, 0
     17c:	00000000 	andeq	r0, r0, r0
     180:	00026a0f 	andeq	r6, r2, pc, lsl #20
     184:	00809c00 	addeq	r9, r0, r0, lsl #24
     188:	809c0100 	addshi	r0, ip, r0, lsl #2
     18c:	00100000 	andseq	r0, r0, r0
     190:	0a010000 	beq	40198 <__bss_end__+0x34e98>
     194:	0001c105 	andeq	ip, r1, r5, lsl #2
     198:	02931000 	addseq	r1, r3, #0, 0
     19c:	006e0000 	rsbeq	r0, lr, r0
     1a0:	006c0000 	rsbeq	r0, ip, r0
     1a4:	87100000 	ldrhi	r0, [r0, -r0]
     1a8:	84000002 	strhi	r0, [r0], #-2
     1ac:	82000000 	andhi	r0, r0, #0, 0
     1b0:	10000000 	andne	r0, r0, r0
     1b4:	0000027b 	andeq	r0, r0, fp, ror r2
     1b8:	0000009e 	muleq	r0, lr, r0
     1bc:	0000009c 	muleq	r0, ip, r0
     1c0:	805c1100 	subshi	r1, ip, r0, lsl #2
     1c4:	02ac0000 	adceq	r0, ip, #0, 0
     1c8:	01d80000 	bicseq	r0, r8, r0
     1cc:	01120000 	tsteq	r2, r0
     1d0:	c8030550 	stmdagt	r3, {r4, r6, r8, sl}
     1d4:	000000a5 	andeq	r0, r0, r5, lsr #1
     1d8:	00808411 	addeq	r8, r0, r1, lsl r4
     1dc:	0002b800 	andeq	fp, r2, r0, lsl #16
     1e0:	0001eb00 	andeq	lr, r1, r0, lsl #22
     1e4:	50011200 	andpl	r1, r1, r0, lsl #4
     1e8:	11003401 	tstne	r0, r1, lsl #8
     1ec:	00008094 	muleq	r0, r4, r0
     1f0:	000002c4 	andeq	r0, r0, r4, asr #5
     1f4:	00000209 	andeq	r0, r0, r9, lsl #4
     1f8:	02500112 	subseq	r0, r0, #-2147483644	; 0x80000004
     1fc:	01120074 	tsteq	r2, r4, ror r0
     200:	12300151 	eorsne	r0, r0, #1073741844	; 0x40000014
     204:	34015201 	strcc	r5, [r1], #-513	; 0xfffffdff
     208:	80bc1100 	adcshi	r1, ip, r0, lsl #2
     20c:	02d00000 	sbcseq	r0, r0, #0, 0
     210:	021d0000 	andseq	r0, sp, #0, 0
     214:	01120000 	tsteq	r2, r0
     218:	00740250 	rsbseq	r0, r4, r0, asr r2
     21c:	80d01100 	sbcshi	r1, r0, r0, lsl #2
     220:	02ac0000 	adceq	r0, ip, #0, 0
     224:	02450000 	subeq	r0, r5, #0, 0
     228:	01120000 	tsteq	r2, r0
     22c:	08030550 	stmdaeq	r3, {r4, r6, r8, sl}
     230:	120000a6 	andne	r0, r0, #166, 0	; 0xa6
     234:	75025101 	strvc	r5, [r2, #-257]	; 0xfffffeff
     238:	52011200 	andpl	r1, r1, #0, 4
     23c:	12007602 	andne	r7, r0, #2097152	; 0x200000
     240:	3c015301 	stccc	3, cr5, [r1], {1}
     244:	80d41300 	sbcshi	r1, r4, r0, lsl #6
     248:	02dc0000 	sbcseq	r0, ip, #0, 0
     24c:	07000000 	streq	r0, [r0, -r0]
     250:	0000a104 	andeq	sl, r0, r4, lsl #2
     254:	00a81400 	adceq	r1, r8, r0, lsl #8
     258:	02650000 	rsbeq	r0, r5, #0, 0
     25c:	2c150000 	ldccs	0, cr0, [r5], {-0}
     260:	07000000 	streq	r0, [r0, -r0]
     264:	02550800 	subseq	r0, r5, #0, 16
     268:	47160000 	ldrmi	r0, [r6, -r0]
     26c:	02000001 	andeq	r0, r0, #1, 0
     270:	00f00b0d 	rscseq	r0, r0, sp, lsl #22
     274:	a0030000 	andge	r0, r3, r0
     278:	17000002 	strne	r0, [r0, -r2]
     27c:	00000024 	andeq	r0, r0, r4, lsr #32
     280:	9b220d02 	blls	883690 <__bss_end__+0x878390>
     284:	17000000 	strne	r0, [r0, -r0]
     288:	00000194 	muleq	r0, r4, r1
     28c:	9b340d02 	blls	d0369c <__bss_end__+0xcf839c>
     290:	17000000 	strne	r0, [r0, -r0]
     294:	00000015 	andeq	r0, r0, r5, lsl r0
     298:	2c430d02 	mcrrcs	13, 0, r0, r3, cr2
     29c:	00000000 	andeq	r0, r0, r0
     2a0:	089e0a18 	ldmeq	lr, {r3, r4, r9, fp}
     2a4:	6d746f6e 	ldclvs	15, cr6, [r4, #-440]!	; 0xfffffe48
     2a8:	006e6961 	rsbeq	r6, lr, r1, ror #18
     2ac:	00067c19 	andeq	r7, r6, r9, lsl ip
     2b0:	00067c00 	andeq	r7, r6, r0, lsl #24
     2b4:	06280300 	strteq	r0, [r8], -r0, lsl #6
     2b8:	00000d19 	andeq	r0, r0, r9, lsl sp
     2bc:	00000d00 	andeq	r0, r0, r0, lsl #26
     2c0:	084c0400 	stmdaeq	ip, {sl}^
     2c4:	0001f219 	andeq	pc, r1, r9, lsl r2	; <UNPREDICTABLE>
     2c8:	0001f200 	andeq	pc, r1, r0, lsl #4
     2cc:	07f20300 	ldrbeq	r0, [r2, r0, lsl #6]!
     2d0:	0001d719 	andeq	sp, r1, r9, lsl r7
     2d4:	0001d700 	andeq	sp, r1, r0, lsl #14
     2d8:	074d0400 	strbeq	r0, [sp, -r0, lsl #8]
     2dc:	00004519 	andeq	r4, r0, r9, lsl r5
     2e0:	00004500 	andeq	r4, r0, r0, lsl #10
     2e4:	066e0300 	strbteq	r0, [lr], -r0, lsl #6
     2e8:	00085200 	andeq	r5, r8, r0, lsl #4
     2ec:	63000400 	movwvs	r0, #1024	; 0x400
     2f0:	04000001 	streq	r0, [r0], #-1
     2f4:	00006501 	andeq	r6, r0, r1, lsl #10
     2f8:	03070c00 	movweq	r0, #31744	; 0x7c00
     2fc:	01600000 	cmneq	r0, r0
     300:	80e40000 	rschi	r0, r4, r0
     304:	04340000 	ldrteq	r0, [r4], #-0
     308:	00d50000 	sbcseq	r0, r5, r0
     30c:	04020000 	streq	r0, [r2], #-0
     310:	746e6905 	strbtvc	r6, [lr], #-2309	; 0xfffff6fb
     314:	07040300 	streq	r0, [r4, -r0, lsl #6]
     318:	000001b0 			; <UNDEFINED> instruction: 0x000001b0
     31c:	54060103 	strpl	r0, [r6], #-259	; 0xfffffefd
     320:	03000001 	movweq	r0, #1
     324:	01de0502 	bicseq	r0, lr, r2, lsl #10
     328:	04030000 	streq	r0, [r3], #-0
     32c:	0001c205 	andeq	ip, r1, r5, lsl #4
     330:	05080300 	streq	r0, [r8, #-768]	; 0xfffffd00
     334:	000001bd 			; <UNDEFINED> instruction: 0x000001bd
     338:	00026104 	andeq	r6, r2, r4, lsl #2
     33c:	182e0300 	stmdane	lr!, {r8, r9}
     340:	0000005b 	andeq	r0, r0, fp, asr r0
     344:	52080103 	andpl	r0, r8, #-1073741824	; 0xc0000000
     348:	04000001 	streq	r0, [r0], #-1
     34c:	000002d3 	ldrdeq	r0, [r0], -r3
     350:	6e193103 	mufvse	f3, f1, f3
     354:	03000000 	movweq	r0, #0
     358:	00520702 	subseq	r0, r2, r2, lsl #14
     35c:	ca040000 	bgt	100364 <__bss_end__+0xf5064>
     360:	03000002 	movweq	r0, #2
     364:	00811934 	addeq	r1, r1, r4, lsr r9
     368:	04030000 	streq	r0, [r3], #-0
     36c:	0001ab07 	andeq	sl, r1, r7, lsl #22
     370:	07080300 	streq	r0, [r8, -r0, lsl #6]
     374:	000001a6 	andeq	r0, r0, r6, lsr #3
     378:	00002505 	andeq	r2, r0, r5, lsl #10
     37c:	00009e00 	andeq	r9, r0, r0, lsl #28
     380:	00250600 	eoreq	r0, r5, r0, lsl #12
     384:	07000000 	streq	r0, [r0, -r0]
     388:	000001cb 	andeq	r0, r0, fp, asr #3
     38c:	aa0e1c04 	bge	3873a4 <__bss_end__+0x37c0a4>
     390:	08000000 	stmdaeq	r0, {}	; <UNPREDICTABLE>
     394:	00008f04 	andeq	r8, r0, r4, lsl #30
     398:	00250500 	eoreq	r0, r5, r0, lsl #10
     39c:	00bf0000 	adcseq	r0, pc, r0
     3a0:	bf060000 	svclt	0x00060000
     3a4:	00000000 	andeq	r0, r0, r0
     3a8:	00cc0408 	sbceq	r0, ip, r8, lsl #8
     3ac:	01030000 	mrseq	r0, (UNDEF: 3)
     3b0:	00015b08 	andeq	r5, r1, r8, lsl #22
     3b4:	00c50900 	sbceq	r0, r5, r0, lsl #18
     3b8:	ba070000 	blt	1c03c0 <__bss_end__+0x1b50c0>
     3bc:	04000006 	streq	r0, [r0], #-6
     3c0:	00dd0e21 	sbcseq	r0, sp, r1, lsr #28
     3c4:	04080000 	streq	r0, [r8], #-0
     3c8:	000000b0 	strheq	r0, [r0], -r0	; <UNPREDICTABLE>
     3cc:	05050c0a 	streq	r0, [r5, #-3082]	; 0xfffff3f6
     3d0:	00011409 	andeq	r1, r1, r9, lsl #8
     3d4:	00240b00 	eoreq	r0, r4, r0, lsl #22
     3d8:	07050000 	streq	r0, [r5, -r0]
     3dc:	0000bf11 	andeq	fp, r0, r1, lsl pc
     3e0:	940b0000 	strls	r0, [fp], #-0
     3e4:	05000001 	streq	r0, [r0, #-1]
     3e8:	00bf1108 	adcseq	r1, pc, r8, lsl #2
     3ec:	0b040000 	bleq	1003f4 <__bss_end__+0xf50f4>
     3f0:	00000015 	andeq	r0, r0, r5, lsl r0
     3f4:	2c0e0905 			; <UNDEFINED> instruction: 0x2c0e0905
     3f8:	08000000 	stmdaeq	r0, {}	; <UNPREDICTABLE>
     3fc:	01e80400 	mvneq	r0, r0, lsl #8
     400:	0a050000 	beq	140408 <__bss_end__+0x135108>
     404:	0000e303 	andeq	lr, r0, r3, lsl #6
     408:	01070c00 	tsteq	r7, r0, lsl #24
     40c:	0000005b 	andeq	r0, r0, fp, asr r0
     410:	3b0e0902 	blcc	382820 <__bss_end__+0x377520>
     414:	0d000001 	stceq	0, cr0, [r0, #-4]
     418:	0000031d 	andeq	r0, r0, sp, lsl r3
     41c:	02180d0b 	andseq	r0, r8, #704	; 0x2c0
     420:	000c0000 	andeq	r0, ip, r0
     424:	5b01070c 	blpl	4205c <__bss_end__+0x36d5c>
     428:	02000000 	andeq	r0, r0, #0, 0
     42c:	0156060a 	cmpeq	r6, sl, lsl #12
     430:	450d0000 	strmi	r0, [sp, #-0]
     434:	80000002 	andhi	r0, r0, r2
     438:	0002390d 	andeq	r3, r2, sp, lsl #18
     43c:	0e00fe00 	cdpeq	14, 0, cr15, cr0, cr0, {0}
     440:	0000027f 	andeq	r0, r0, pc, ror r2
     444:	100d02b4 			; <UNDEFINED> instruction: 0x100d02b4
     448:	000001e6 	andeq	r0, r0, r6, ror #3
     44c:	0003630b 	andeq	r6, r3, fp, lsl #6
     450:	140e0200 	strne	r0, [lr], #-512	; 0xfffffe00
     454:	000001e6 	andeq	r0, r0, r6, ror #3
     458:	021e0b00 	andseq	r0, lr, #0, 22
     45c:	0f020000 	svceq	0x00020000
     460:	0000750e 	andeq	r7, r0, lr, lsl #10
     464:	a00b0400 	andge	r0, fp, r0, lsl #8
     468:	02000002 	andeq	r0, r0, #2, 0
     46c:	00750e10 	rsbseq	r0, r5, r0, lsl lr
     470:	0b080000 	bleq	200478 <__bss_end__+0x1f5178>
     474:	0000020f 	andeq	r0, r0, pc, lsl #4
     478:	750e1402 	strvc	r1, [lr, #-1026]	; 0xfffffbfe
     47c:	0c000000 	stceq	0, cr0, [r0], {-0}
     480:	0002960b 	andeq	r9, r2, fp, lsl #12
     484:	0f160200 	svceq	0x00160200
     488:	00000114 	andeq	r0, r0, r4, lsl r1
     48c:	03460b10 	movteq	r0, #27408	; 0x6b10
     490:	17020000 	strne	r0, [r2, -r0]
     494:	0001140f 	andeq	r1, r1, pc, lsl #8
     498:	b00b1c00 	andlt	r1, fp, r0, lsl #24
     49c:	02000002 	andeq	r0, r0, #2, 0
     4a0:	00750e1a 	rsbseq	r0, r5, sl, lsl lr
     4a4:	0b280000 	bleq	a004ac <__bss_end__+0x9f51ac>
     4a8:	00000311 	andeq	r0, r0, r1, lsl r3
     4ac:	750e1b02 	strvc	r1, [lr, #-2818]	; 0xfffff4fe
     4b0:	2c000000 	stccs	0, cr0, [r0], {-0}
     4b4:	0004120b 	andeq	r1, r4, fp, lsl #4
     4b8:	0e1d0200 	cdpeq	2, 1, cr0, cr13, cr0, {0}
     4bc:	00000062 	andeq	r0, r0, r2, rrx
     4c0:	7a720f30 	bvc	1c84188 <__bss_end__+0x1c78e88>
     4c4:	1f020031 	svcne	0x00020031
     4c8:	0001ec0d 	andeq	lr, r1, sp, lsl #24
     4cc:	08003200 	stmdaeq	r0, {r9, ip, sp}
     4d0:	00015604 	andeq	r5, r1, r4, lsl #12
     4d4:	004f1000 	subeq	r1, pc, r0
     4d8:	01fc0000 	mvnseq	r0, r0
     4dc:	2c110000 	ldccs	0, cr0, [r1], {-0}
     4e0:	7f000000 	svcvc	0x00000000
     4e4:	02090400 	andeq	r0, r9, #0, 8
     4e8:	20020000 	andcs	r0, r2, r0
     4ec:	00015603 	andeq	r5, r1, r3, lsl #12
     4f0:	07041200 	streq	r1, [r4, -r0, lsl #4]
     4f4:	00000000 	andeq	r0, r0, r0
     4f8:	2c11a802 	ldccs	8, cr10, [r1], {2}
     4fc:	13000000 	movwne	r0, #0
     500:	00000274 	andeq	r0, r0, r4, ror r2
     504:	280f0801 	stmdacs	pc, {r0, fp}	; <UNPREDICTABLE>
     508:	05000002 	streq	r0, [r0, #-2]
     50c:	00aed003 	adceq	sp, lr, r3
     510:	fc040800 	stc2	8, cr0, [r4], {-0}
     514:	07000001 	streq	r0, [r0, -r1]
     518:	000002bb 			; <UNDEFINED> instruction: 0x000002bb
     51c:	c50d0a01 	strgt	r0, [sp, #-2561]	; 0xfffff5ff
     520:	14000000 	strne	r0, [r0], #-0
     524:	000002ee 	andeq	r0, r0, lr, ror #5
     528:	46120b01 	ldrmi	r0, [r2], -r1, lsl #22
     52c:	08000002 	stmdaeq	r0, {r1}
     530:	00002c04 	andeq	r2, r0, r4, lsl #24
     534:	000d1500 	andeq	r1, sp, r0, lsl #10
     538:	88010000 	stmdahi	r1, {}	; <UNPREDICTABLE>
     53c:	00020808 	andeq	r0, r2, r8, lsl #16
     540:	00842800 	addeq	r2, r4, r0, lsl #16
     544:	0000f000 	andeq	pc, r0, r0
     548:	ad9c0100 	ldfges	f0, [ip]
     54c:	16000003 	strne	r0, [r0], -r3
     550:	00000352 	andeq	r0, r0, r2, asr r3
     554:	751a8801 	ldrvc	r8, [sl, #-2049]	; 0xfffff7ff
     558:	bc000000 	stclt	0, cr0, [r0], {-0}
     55c:	b6000000 	strlt	r0, [r0], -r0
     560:	17000000 	strne	r0, [r0, -r0]
     564:	8801006c 	stmdahi	r1, {r2, r3, r5, r6}
     568:	0001142c 	andeq	r1, r1, ip, lsr #8
     56c:	54910200 	ldrpl	r0, [r1], #512	; 0x200
     570:	01006818 	tsteq	r0, r8, lsl r8
     574:	02280c8a 	eoreq	r0, r8, #35328	; 0x8a00
     578:	00ee0000 	rsceq	r0, lr, r0
     57c:	00e80000 	rsceq	r0, r8, r0
     580:	2b140000 	blcs	500588 <__bss_end__+0x4f5288>
     584:	01000002 	tsteq	r0, r2
     588:	002c0e9b 	mlaeq	ip, fp, lr, r0
     58c:	69190000 	ldmdbvs	r9, {}	; <UNPREDICTABLE>
     590:	01000002 	tsteq	r0, r2
     594:	02460f9c 	subeq	r0, r6, #156, 30	; 0x270
     598:	011e0000 	tsteq	lr, r0
     59c:	011a0000 	tsteq	sl, r0
     5a0:	5c1a0000 	ldcpl	0, cr0, [sl], {-0}
     5a4:	2c000084 	stccs	0, cr0, [r0], {132}	; 0x84
     5a8:	d9000000 	stmdble	r0, {}	; <UNPREDICTABLE>
     5ac:	18000002 	stmdane	r0, {r1}
     5b0:	90010069 	andls	r0, r1, r9, rrx
     5b4:	0000250d 	andeq	r2, r0, sp, lsl #10
     5b8:	00014000 	andeq	r4, r1, r0
     5bc:	00013c00 	andeq	r3, r1, r0, lsl #24
     5c0:	cc1a0000 	ldcgt	0, cr0, [sl], {-0}
     5c4:	24000084 	strcs	r0, [r0], #-132	; 0xffffff7c
     5c8:	2d000000 	stccs	0, cr0, [r0, #-0]
     5cc:	18000003 	stmdane	r0, {r0, r1}
     5d0:	9d010069 	stcls	0, cr0, [r1, #-420]	; 0xfffffe5c
     5d4:	0000250d 	andeq	r2, r0, sp, lsl #10
     5d8:	00016300 	andeq	r6, r1, r0, lsl #6
     5dc:	00015f00 	andeq	r5, r1, r0, lsl #30
     5e0:	84d81b00 	ldrbhi	r1, [r8], #2816	; 0xb00
     5e4:	00100000 	andseq	r0, r0, r0
     5e8:	6c180000 	ldcvs	0, cr0, [r8], {-0}
     5ec:	0100636f 	tsteq	r0, pc, ror #6
     5f0:	03ad119e 			; <UNDEFINED> instruction: 0x03ad119e
     5f4:	01840000 	orreq	r0, r4, r0
     5f8:	01820000 	orreq	r0, r2, r0
     5fc:	e41c0000 	ldr	r0, [ip], #-0
     600:	b3000084 	movwlt	r0, #132	; 0x84
     604:	1d000003 	stcne	0, cr0, [r0, #-12]
     608:	74085001 	strvc	r5, [r8], #-1
     60c:	22007600 	andcs	r7, r0, #0, 12
     610:	0001b423 	andeq	fp, r1, r3, lsr #8
     614:	4c1e0000 	ldcmi	0, cr0, [lr], {-0}
     618:	19000084 	stmdbne	r0, {r2, r7}
     61c:	42000008 	andmi	r0, r0, #8, 0
     620:	1d000003 	stcne	0, cr0, [r0, #-12]
     624:	75035001 	strvc	r5, [r3, #-1]
     628:	1e0002b4 	mcrne	2, 0, r0, cr0, cr4, {5}
     62c:	0000845c 	andeq	r8, r0, ip, asr r4
     630:	00000825 	andeq	r0, r0, r5, lsr #16
     634:	00000361 	andeq	r0, r0, r1, ror #6
     638:	0250011d 	subseq	r0, r0, #1073741831	; 0x40000007
     63c:	011d0074 	tsteq	sp, r4, ror r0
     640:	1d300151 	ldfnes	f0, [r0, #-324]!	; 0xfffffebc
     644:	08025201 	stmdaeq	r2, {r0, r9, ip, lr}
     648:	b81e00b4 	ldmdalt	lr, {r2, r4, r5, r7}
     64c:	31000084 	smlabbcc	r0, r4, r0, r0
     650:	8d000008 	stchi	0, cr0, [r0, #-32]	; 0xffffffe0
     654:	1d000003 	stcne	0, cr0, [r0, #-12]
     658:	03055001 	movweq	r5, #20481	; 0x5001
     65c:	0000a658 	andeq	sl, r0, r8, asr r6
     660:	0351011d 	cmpeq	r1, #1073741831	; 0x40000007
     664:	1d06587b 	stcne	8, cr5, [r6, #-492]	; 0xfffffe14
     668:	7b035201 	blvc	d4e74 <__bss_end__+0xc9b74>
     66c:	011d065c 	tsteq	sp, ip, asr r6
     670:	607b0353 	rsbsvs	r0, fp, r3, asr r3
     674:	cc1c0006 	ldcgt	0, cr0, [ip], {6}
     678:	31000084 	smlabbcc	r0, r4, r0, r0
     67c:	1d000008 	stcne	0, cr0, [r0, #-32]	; 0xffffffe0
     680:	03055001 	movweq	r5, #20481	; 0x5001
     684:	0000a724 	andeq	sl, r0, r4, lsr #14
     688:	0251011d 	subseq	r0, r1, #1073741831	; 0x40000007
     68c:	011d0077 	tsteq	sp, r7, ror r0
     690:	00750252 	rsbseq	r0, r5, r2, asr r2
     694:	04080000 	streq	r0, [r8], #-0
     698:	00000228 	andeq	r0, r0, r8, lsr #4
     69c:	00028615 	andeq	r8, r2, r5, lsl r6
     6a0:	097d0100 	ldmdbeq	sp!, {r8}^
     6a4:	000003ad 	andeq	r0, r0, sp, lsr #7
     6a8:	000081f8 	strdeq	r8, [r0], -r8	; <UNPREDICTABLE>
     6ac:	00000044 	andeq	r0, r0, r4, asr #32
     6b0:	03f69c01 	mvnseq	r9, #256	; 0x100
     6b4:	32160000 	andscc	r0, r6, #0, 0
     6b8:	01000003 	tsteq	r0, r3
     6bc:	03f61f7d 	mvnseq	r1, #500	; 0x1f4
     6c0:	01a30000 			; <UNDEFINED> instruction: 0x01a30000
     6c4:	01970000 	orrseq	r0, r7, r0
     6c8:	2b190000 	blcs	6406d0 <__bss_end__+0x6353d0>
     6cc:	01000002 	tsteq	r0, r2
     6d0:	002c0e81 	eoreq	r0, ip, r1, lsl #29
     6d4:	01f80000 	mvnseq	r0, r0
     6d8:	01f60000 	mvnseq	r0, r0
     6dc:	08000000 	stmdaeq	r0, {}	; <UNPREDICTABLE>
     6e0:	0000c504 	andeq	ip, r0, r4, lsl #10
     6e4:	01d71f00 	bicseq	r1, r7, r0, lsl #30
     6e8:	5d010000 	stcpl	0, cr0, [r1, #-0]
     6ec:	00828006 	addeq	r8, r2, r6
     6f0:	00019c00 	andeq	r9, r1, r0, lsl #24
     6f4:	239c0100 	orrscs	r0, ip, #0
     6f8:	16000006 	strne	r0, [r0], -r6
     6fc:	00000615 	andeq	r0, r0, r5, lsl r6
     700:	08145d01 	ldmdaeq	r4, {r0, r8, sl, fp, ip, lr}
     704:	12000002 	andne	r0, r0, #2, 0
     708:	0e000002 	cdpeq	0, 0, cr0, cr0, cr2, {0}
     70c:	17000002 	strne	r0, [r0, -r2]
     710:	5d01006c 	stcpl	0, cr0, [r1, #-432]	; 0xfffffe50
     714:	00011424 	andeq	r1, r1, r4, lsr #8
     718:	54910200 	ldrpl	r0, [r1], #512	; 0x200
     71c:	01006818 	tsteq	r0, r8, lsl r8
     720:	02280c5f 	eoreq	r0, r8, #24320	; 0x5f00
     724:	02340000 	eorseq	r0, r4, #0, 0
     728:	02300000 	eorseq	r0, r0, #0, 0
     72c:	99200000 	stmdbls	r0!, {}	; <UNPREDICTABLE>
     730:	33000001 	movwcc	r0, #1
     734:	05000006 	streq	r0, [r0, #-6]
     738:	00a74003 	adceq	r4, r7, r3
     73c:	00002100 	andeq	r2, r0, r0, lsl #2
     740:	05140000 	ldreq	r0, [r4, #-0]
     744:	69180000 	ldmdbvs	r8, {}	; <UNPREDICTABLE>
     748:	0d670100 	stfeqe	f0, [r7, #-0]
     74c:	00000025 	andeq	r0, r0, r5, lsr #32
     750:	0000025d 	andeq	r0, r0, sp, asr r2
     754:	00000255 	andeq	r0, r0, r5, asr r2
     758:	00834422 	addeq	r4, r3, r2, lsr #8
     75c:	00083d00 	andeq	r3, r8, r0, lsl #26
     760:	83581e00 	cmphi	r8, #0, 28
     764:	08310000 	ldmdaeq	r1!, {}	; <UNPREDICTABLE>
     768:	04a10000 	strteq	r0, [r1], #0
     76c:	011d0000 	tsteq	sp, r0
     770:	74030550 	strvc	r0, [r3], #-1360	; 0xfffffab0
     774:	1d0000a6 	stcne	0, cr0, [r0, #-664]	; 0xfffffd68
     778:	75025101 	strvc	r5, [r2, #-257]	; 0xfffffeff
     77c:	52011d00 	andpl	r1, r1, #0, 26
     780:	1d007602 	stcne	6, cr7, [r0, #-8]
     784:	77025301 	strvc	r5, [r2, -r1, lsl #6]
     788:	601e0000 	andsvs	r0, lr, r0
     78c:	31000083 	smlabbcc	r0, r3, r0, r0
     790:	b8000008 	stmdalt	r0, {r3}
     794:	1d000004 	stcne	0, cr0, [r0, #-16]
     798:	03055001 	movweq	r5, #20481	; 0x5001
     79c:	0000a6b4 			; <UNDEFINED> instruction: 0x0000a6b4
     7a0:	83642200 	cmnhi	r4, #0, 4
     7a4:	08490000 	stmdaeq	r9, {}^	; <UNPREDICTABLE>
     7a8:	68220000 	stmdavs	r2!, {}	; <UNPREDICTABLE>
     7ac:	3d000083 	stccc	0, cr0, [r0, #-524]	; 0xfffffdf4
     7b0:	1e000008 	cdpne	0, 0, cr0, cr0, cr8, {0}
     7b4:	0000837c 	andeq	r8, r0, ip, ror r3
     7b8:	00000831 	andeq	r0, r0, r1, lsr r8
     7bc:	000004f3 	strdeq	r0, [r0], -r3
     7c0:	0550011d 	ldrbeq	r0, [r0, #-285]	; 0xfffffee3
     7c4:	00a67403 	adceq	r7, r6, r3, lsl #8
     7c8:	51011d00 	tstpl	r1, r0, lsl #26
     7cc:	1d007502 	cfstr32ne	mvfx7, [r0, #-8]
     7d0:	76025201 	strvc	r5, [r2], -r1, lsl #4
     7d4:	53011d00 	movwpl	r1, #7424	; 0x1d00
     7d8:	00007702 	andeq	r7, r0, r2, lsl #14
     7dc:	0083841e 	addeq	r8, r3, lr, lsl r4
     7e0:	00083100 	andeq	r3, r8, r0, lsl #2
     7e4:	00050a00 	andeq	r0, r5, r0, lsl #20
     7e8:	50011d00 	andpl	r1, r1, r0, lsl #26
     7ec:	a6d00305 	ldrbge	r0, [r0], r5, lsl #6
     7f0:	22000000 	andcs	r0, r0, #0, 0
     7f4:	00008388 	andeq	r8, r0, r8, lsl #7
     7f8:	00000849 	andeq	r0, r0, r9, asr #16
     7fc:	83881a00 	orrhi	r1, r8, #0, 20
     800:	001c0000 	andseq	r0, ip, r0
     804:	05340000 	ldreq	r0, [r4, #-0]!
     808:	69180000 	ldmdbvs	r8, {}	; <UNPREDICTABLE>
     80c:	0d710100 	ldfeqe	f0, [r1, #-0]
     810:	00000025 	andeq	r0, r0, r5, lsr #32
     814:	00000293 	muleq	r0, r3, r2
     818:	00000291 	muleq	r0, r1, r2
     81c:	82c81e00 	sbchi	r1, r8, #0, 28
     820:	08310000 	ldmdaeq	r1!, {}	; <UNPREDICTABLE>
     824:	055d0000 	ldrbeq	r0, [sp, #-0]
     828:	011d0000 	tsteq	sp, r0
     82c:	58030550 	stmdapl	r3, {r4, r6, r8, sl}
     830:	1d0000a6 	stcne	0, cr0, [r0, #-664]	; 0xfffffd68
     834:	75025101 	strvc	r5, [r2, #-257]	; 0xfffffeff
     838:	52011d00 	andpl	r1, r1, #0, 26
     83c:	1d007602 	stcne	6, cr7, [r0, #-8]
     840:	77025301 	strvc	r5, [r2, -r1, lsl #6]
     844:	d41e0000 	ldrle	r0, [lr], #-0
     848:	31000082 	smlabbcc	r0, r2, r0, r0
     84c:	7a000008 	bvc	874 <__code_start__-0x778c>
     850:	1d000005 	stcne	0, cr0, [r0, #-20]	; 0xffffffec
     854:	03055001 	movweq	r5, #20481	; 0x5001
     858:	0000a664 	andeq	sl, r0, r4, ror #12
     85c:	0251011d 	subseq	r0, r1, #1073741831	; 0x40000007
     860:	22000074 	andcs	r0, r0, #116, 0	; 0x74
     864:	0000831c 	andeq	r8, r0, ip, lsl r3
     868:	0000083d 	andeq	r0, r0, sp, lsr r8
     86c:	0083301e 	addeq	r3, r3, lr, lsl r0
     870:	00083100 	andeq	r3, r8, r0, lsl #2
     874:	0005ac00 	andeq	sl, r5, r0, lsl #24
     878:	50011d00 	andpl	r1, r1, r0, lsl #26
     87c:	a6740305 	ldrbtge	r0, [r4], -r5, lsl #6
     880:	011d0000 	tsteq	sp, r0
     884:	00750251 	rsbseq	r0, r5, r1, asr r2
     888:	0252011d 	subseq	r0, r2, #1073741831	; 0x40000007
     88c:	011d0076 	tsteq	sp, r6, ror r0
     890:	00770253 	rsbseq	r0, r7, r3, asr r2
     894:	833c1e00 	teqhi	ip, #0, 28
     898:	08310000 	ldmdaeq	r1!, {}	; <UNPREDICTABLE>
     89c:	05c30000 	strbeq	r0, [r3]
     8a0:	011d0000 	tsteq	sp, r0
     8a4:	8c030550 	cfstr32hi	mvfx0, [r3], {80}	; 0x50
     8a8:	000000a6 	andeq	r0, r0, r6, lsr #1
     8ac:	00834022 	addeq	r4, r3, r2, lsr #32
     8b0:	00084900 	andeq	r4, r8, r0, lsl #18
     8b4:	83c41e00 	bichi	r1, r4, #0, 28
     8b8:	06380000 	ldrteq	r0, [r8], -r0
     8bc:	05e00000 	strbeq	r0, [r0, #0]!
     8c0:	011d0000 	tsteq	sp, r0
     8c4:	00740250 	rsbseq	r0, r4, r0, asr r2
     8c8:	83f01e00 	mvnshi	r1, #0, 28
     8cc:	08310000 	ldmdaeq	r1!, {}	; <UNPREDICTABLE>
     8d0:	06190000 	ldreq	r0, [r9], -r0
     8d4:	011d0000 	tsteq	sp, r0
     8d8:	f8030550 			; <UNDEFINED> instruction: 0xf8030550
     8dc:	1d0000a6 	stcne	0, cr0, [r0, #-664]	; 0xfffffd68
     8e0:	03055101 	movweq	r5, #20737	; 0x5101
     8e4:	0000a6ec 	andeq	sl, r0, ip, ror #13
     8e8:	0552011d 	ldrbeq	r0, [r2, #-285]	; 0xfffffee3
     8ec:	00a74003 	adceq	r4, r7, r3
     8f0:	53011d00 	movwpl	r1, #7424	; 0x1d00
     8f4:	1d770802 	ldclne	8, cr0, [r7, #-8]!
     8f8:	05007d02 	streq	r7, [r0, #-3330]	; 0xfffff2fe
     8fc:	00a70c03 	adceq	r0, r7, r3, lsl #24
     900:	f4220000 	vld4.8	{d0-d3}, [r2], r0
     904:	49000083 	stmdbmi	r0, {r0, r1, r7}
     908:	00000008 	andeq	r0, r0, r8
     90c:	0000cc10 	andeq	ip, r0, r0, lsl ip
     910:	00063300 	andeq	r3, r6, r0, lsl #6
     914:	002c1100 	eoreq	r1, ip, r0, lsl #2
     918:	00060000 	andeq	r0, r6, r0
     91c:	00062309 	andeq	r2, r6, r9, lsl #6
     920:	02dc1500 	sbcseq	r1, ip, #0, 10
     924:	2e010000 	cdpcs	0, 0, cr0, cr1, cr0, {0}
     928:	00022808 	andeq	r2, r2, r8, lsl #16
     92c:	00825400 	addeq	r5, r2, r0, lsl #8
     930:	00002000 	andeq	r2, r0, r0
     934:	9c9c0100 	ldflss	f0, [ip], {0}
     938:	23000006 	movwcs	r0, #6
     93c:	00727470 	rsbseq	r7, r2, r0, ror r4
     940:	08202e01 	stmdaeq	r0!, {r0, r9, sl, fp, sp}
     944:	aa000002 	bge	954 <__code_start__-0x76ac>
     948:	a6000002 	strge	r0, [r0], -r2
     94c:	18000002 	stmdane	r0, {r1}
     950:	0074756f 	rsbseq	r7, r4, pc, ror #10
     954:	ad0d3001 	stcge	0, cr3, [sp, #-4]
     958:	cd000003 	stcgt	0, cr0, [r0, #-12]
     95c:	cb000002 	blgt	96c <__code_start__-0x7694>
     960:	24000002 	strcs	r0, [r0], #-2
     964:	0000068a 	andeq	r0, r0, sl, lsl #13
     968:	01006825 	tsteq	r0, r5, lsr #16
     96c:	02281138 	eoreq	r1, r8, #14
     970:	1c000000 	stcne	0, cr0, [r0], {-0}
     974:	00008264 	andeq	r8, r0, r4, ror #4
     978:	000003b3 			; <UNDEFINED> instruction: 0x000003b3
     97c:	0350011d 	cmpeq	r0, #1073741831	; 0x40000007
     980:	005001f3 	ldrsheq	r0, [r0], #-19	; 0xffffffed
     984:	01f91500 	mvnseq	r1, r0, lsl #10
     988:	27010000 	strcs	r0, [r1, -r0]
     98c:	00002c0a 	andeq	r2, r0, sl, lsl #24
     990:	0081ac00 	addeq	sl, r1, r0, lsl #24
     994:	00003800 	andeq	r3, r0, r0, lsl #16
     998:	299c0100 	ldmibcs	ip, {r8}
     99c:	23000007 	movwcs	r0, #7
     9a0:	27010068 	strcs	r0, [r1, -r8, rrx]
     9a4:	00022821 	andeq	r2, r2, r1, lsr #16
     9a8:	0002e400 	andeq	lr, r2, r0, lsl #8
     9ac:	0002e000 	andeq	lr, r2, r0
     9b0:	74702300 	ldrbtvc	r2, [r0], #-768	; 0xfffffd00
     9b4:	27010072 	smlsdxcs	r1, r2, r0, r0
     9b8:	0002082a 	andeq	r0, r2, sl, lsr #16
     9bc:	00030600 	andeq	r0, r3, r0, lsl #12
     9c0:	00030200 	andeq	r0, r3, r0, lsl #4
     9c4:	696d1800 	stmdbvs	sp!, {fp, ip}^
     9c8:	2901006e 	stmdbcs	r1, {r1, r2, r3, r5, r6}
     9cc:	0002080b 	andeq	r0, r2, fp, lsl #16
     9d0:	00032800 	andeq	r2, r3, r0, lsl #16
     9d4:	00032400 	andeq	r2, r3, r0, lsl #8
     9d8:	616d1800 	cmnvs	sp, r0, lsl #16
     9dc:	2a010078 	bcs	40bc4 <__bss_end__+0x358c4>
     9e0:	0002080b 	andeq	r0, r2, fp, lsl #16
     9e4:	00034800 	andeq	r4, r3, r0, lsl #16
     9e8:	00034600 	andeq	r4, r3, r0, lsl #12
     9ec:	81c41e00 	bichi	r1, r4, r0, lsl #28
     9f0:	078d0000 	streq	r0, [sp, r0]
     9f4:	07180000 	ldreq	r0, [r8, -r0]
     9f8:	011d0000 	tsteq	sp, r0
     9fc:	00760250 	rsbseq	r0, r6, r0, asr r2
     a00:	81d01c00 	bicshi	r1, r0, r0, lsl #24
     a04:	07290000 	streq	r0, [r9, -r0]!
     a08:	011d0000 	tsteq	sp, r0
     a0c:	00760250 	rsbseq	r0, r6, r0, asr r2
     a10:	3b150000 	blcc	540a18 <__bss_end__+0x535718>
     a14:	01000003 	tsteq	r0, r3
     a18:	02080721 	andeq	r0, r8, #8650752	; 0x840000
     a1c:	81780000 	cmnhi	r8, r0
     a20:	00200000 	eoreq	r0, r0, r0
     a24:	9c010000 	stcls	0, cr0, [r1], {-0}
     a28:	0000078d 	andeq	r0, r0, sp, lsl #15
     a2c:	01006823 	tsteq	r0, r3, lsr #16
     a30:	02281921 	eoreq	r1, r8, #540672	; 0x84000
     a34:	035f0000 	cmpeq	pc, #0, 0
     a38:	035b0000 	cmpeq	fp, #0, 0
     a3c:	fd260000 	stc2	0, cr0, [r6, #-0]
     a40:	8c000007 	stchi	0, cr0, [r0], {7}
     a44:	00000081 	andeq	r0, r0, r1, lsl #1
     a48:	0000818c 	andeq	r8, r0, ip, lsl #3
     a4c:	00000004 	andeq	r0, r0, r4
     a50:	7c262301 	stcvc	3, cr2, [r6], #-4
     a54:	27000007 	strcs	r0, [r0, -r7]
     a58:	0000080e 	andeq	r0, r0, lr, lsl #16
     a5c:	0000037f 	andeq	r0, r0, pc, ror r3
     a60:	0000037d 	andeq	r0, r0, sp, ror r3
     a64:	818c1c00 	orrhi	r1, ip, r0, lsl #24
     a68:	078d0000 	streq	r0, [sp, r0]
     a6c:	011d0000 	tsteq	sp, r0
     a70:	00740250 	rsbseq	r0, r4, r0, asr r2
     a74:	25150000 	ldrcs	r0, [r5, #-0]
     a78:	01000003 	tsteq	r0, r3
     a7c:	0208071b 	andeq	r0, r8, #7077888	; 0x6c0000
     a80:	81540000 	cmphi	r4, r0
     a84:	00140000 	andseq	r0, r4, r0
     a88:	9c010000 	stcls	0, cr0, [r1], {-0}
     a8c:	000007ba 			; <UNDEFINED> instruction: 0x000007ba
     a90:	01006823 	tsteq	r0, r3, lsr #16
     a94:	02281b1b 	eoreq	r1, r8, #27648	; 0x6c00
     a98:	03960000 	orrseq	r0, r6, #0, 0
     a9c:	03920000 	orrseq	r0, r2, #0, 0
     aa0:	15000000 	strne	r0, [r0, #-0]
     aa4:	000002fb 	strdeq	r0, [r0], -fp
     aa8:	28081401 	stmdacs	r8, {r0, sl, ip}
     aac:	24000002 	strcs	r0, [r0], #-2
     ab0:	1c000081 	stcne	0, cr0, [r0], {129}	; 0x81
     ab4:	01000000 	mrseq	r0, (UNDEF: 0)
     ab8:	0007e79c 	muleq	r7, ip, r7
     abc:	00702300 	rsbseq	r2, r0, r0, lsl #6
     ac0:	281b1401 	ldmdacs	fp, {r0, sl, ip}
     ac4:	bb000002 	bllt	ad4 <__code_start__-0x752c>
     ac8:	b7000003 	strlt	r0, [r0, -r3]
     acc:	00000003 	andeq	r0, r0, r3
     ad0:	00025428 	andeq	r5, r2, r8, lsr #8
     ad4:	080e0100 	stmdaeq	lr, {r8}
     ad8:	00000228 	andeq	r0, r0, r8, lsr #4
     adc:	000080f8 	strdeq	r8, [r0], -r8	; <UNPREDICTABLE>
     ae0:	0000001c 	andeq	r0, r0, ip, lsl r0
     ae4:	4f299c01 	svcmi	0x00299c01
     ae8:	02000003 	andeq	r0, r0, #3, 0
     aec:	002c1831 	eoreq	r1, ip, r1, lsr r8
     af0:	19030000 	stmdbne	r3, {}	; <UNPREDICTABLE>
     af4:	2a000008 	bcs	b1c <__code_start__-0x74e4>
     af8:	31020068 	tstcc	r2, r8, rrx
     afc:	00022829 	andeq	r2, r2, r9, lsr #16
     b00:	592b0000 	stmdbpl	fp!, {}	; <UNPREDICTABLE>
     b04:	59000003 	stmdbpl	r0, {r0, r1}
     b08:	06000003 	streq	r0, [r0], -r3
     b0c:	f22b071e 	vaba.s32	d0, d11, d14
     b10:	f2000001 	vhadd.s8	d0, d0, d1
     b14:	04000001 	streq	r0, [r0], #-1
     b18:	7c2b07f2 	stcvc	7, cr0, [fp], #-968	; 0xfffffc38
     b1c:	7c000006 	stcvc	0, cr0, [r0], {6}
     b20:	04000006 	streq	r0, [r0], #-6
     b24:	a62b0628 	strtge	r0, [fp], -r8, lsr #12
     b28:	a6000002 	strge	r0, [r0], -r2
     b2c:	07000002 	streq	r0, [r0, -r2]
     b30:	452b0504 	strmi	r0, [fp, #-1284]!	; 0xfffffafc
     b34:	45000000 	strmi	r0, [r0, #-0]
     b38:	04000000 	streq	r0, [r0], #-0
     b3c:	ec00066e 	stc	6, cr0, [r0], {110}	; 0x6e
     b40:	04000002 	streq	r0, [r0], #-2
     b44:	0003e900 	andeq	lr, r3, r0, lsl #18
     b48:	65010400 	strvs	r0, [r1, #-1024]	; 0xfffffc00
     b4c:	0c000000 	stceq	0, cr0, [r0], {-0}
     b50:	00000390 	muleq	r0, r0, r3
     b54:	00000160 	andeq	r0, r0, r0, ror #2
     b58:	00008518 	andeq	r8, r0, r8, lsl r5
     b5c:	00000200 	andeq	r0, r0, r0, lsl #4
     b60:	00000498 	muleq	r0, r8, r4
     b64:	69050402 	stmdbvs	r5, {r1, sl}
     b68:	0300746e 	movweq	r7, #1134	; 0x46e
     b6c:	01b00704 	lslseq	r0, r4, #14
     b70:	01030000 	mrseq	r0, (UNDEF: 3)
     b74:	00015406 	andeq	r5, r1, r6, lsl #8
     b78:	05020300 	streq	r0, [r2, #-768]	; 0xfffffd00
     b7c:	000001de 	ldrdeq	r0, [r0], -lr
     b80:	c2050403 	andgt	r0, r5, #50331648	; 0x3000000
     b84:	03000001 	movweq	r0, #1
     b88:	01bd0508 			; <UNDEFINED> instruction: 0x01bd0508
     b8c:	01030000 	mrseq	r0, (UNDEF: 3)
     b90:	00015208 	andeq	r5, r1, r8, lsl #4
     b94:	07020300 	streq	r0, [r2, -r0, lsl #6]
     b98:	00000052 	andeq	r0, r0, r2, asr r0
     b9c:	ab070403 	blge	1c1bb0 <__bss_end__+0x1b68b0>
     ba0:	03000001 	movweq	r0, #1
     ba4:	01a60708 			; <UNDEFINED> instruction: 0x01a60708
     ba8:	25040000 	strcs	r0, [r4, #-0]
     bac:	7a000000 	bvc	bb4 <__code_start__-0x744c>
     bb0:	05000000 	streq	r0, [r0, #-0]
     bb4:	00000025 	andeq	r0, r0, r5, lsr #32
     bb8:	01cb0600 	biceq	r0, fp, r0, lsl #12
     bbc:	1c020000 	stcne	0, cr0, [r2], {-0}
     bc0:	0000860e 	andeq	r8, r0, lr, lsl #12
     bc4:	6b040700 	blvs	1027cc <__bss_end__+0xf74cc>
     bc8:	04000000 	streq	r0, [r0], #-0
     bcc:	00000025 	andeq	r0, r0, r5, lsr #32
     bd0:	0000009b 	muleq	r0, fp, r0
     bd4:	00009b05 	andeq	r9, r0, r5, lsl #22
     bd8:	04070000 	streq	r0, [r7], #-0
     bdc:	000000a8 	andeq	r0, r0, r8, lsr #1
     be0:	5b080103 	blpl	200ff4 <__bss_end__+0x1f5cf4>
     be4:	08000001 	stmdaeq	r0, {r0}
     be8:	000000a1 	andeq	r0, r0, r1, lsr #1
     bec:	0006ba06 	andeq	fp, r6, r6, lsl #20
     bf0:	0e210200 	cdpeq	2, 2, cr0, cr1, cr0, {0}
     bf4:	000000b9 	strheq	r0, [r0], -r9
     bf8:	008c0407 	addeq	r0, ip, r7, lsl #8
     bfc:	75090000 	strvc	r0, [r9, #-0]
     c00:	08000003 	stmdaeq	r0, {r0, r1}
     c04:	ec070501 	cfstr32	mvfx0, [r7], {1}
     c08:	0a000000 	beq	c10 <__code_start__-0x73f0>
     c0c:	07010064 	streq	r0, [r1, -r4, rrx]
     c10:	0000ec09 	andeq	lr, r0, r9, lsl #24
     c14:	00700a00 	rsbseq	r0, r0, r0, lsl #20
     c18:	f3080801 	vsub.i8	d0, d8, d1
     c1c:	0a000000 	beq	c24 <__code_start__-0x73dc>
     c20:	01007066 	tsteq	r0, r6, rrx
     c24:	00f60909 	rscseq	r0, r6, r9, lsl #18
     c28:	03000000 	movweq	r0, #0
     c2c:	039c0408 	orrseq	r0, ip, #8, 8	; 0x8000000
     c30:	040b0000 	streq	r0, [fp], #-0
     c34:	f504070c 			; <UNDEFINED> instruction: 0xf504070c
     c38:	0d000000 	stceq	0, cr0, [r0, #-0]
     c3c:	020e0108 	andeq	r0, lr, #2
     c40:	00000120 	andeq	r0, r0, r0, lsr #2
     c44:	7274700e 	rsbsvc	r7, r4, #14, 0
     c48:	11100100 	tstne	r0, r0, lsl #2
     c4c:	00000142 	andeq	r0, r0, r2, asr #2
     c50:	03b60f00 			; <UNDEFINED> instruction: 0x03b60f00
     c54:	11010000 	mrsne	r0, (UNDEF: 1)
     c58:	00002c0c 	andeq	r2, r0, ip, lsl #24
     c5c:	09000400 	stmdbeq	r0, {sl}
     c60:	00000368 	andeq	r0, r0, r8, ror #6
     c64:	0f0c0108 	svceq	0x000c0108
     c68:	00000142 	andeq	r0, r0, r2, asr #2
     c6c:	0100730a 	tsteq	r0, sl, lsl #6
     c70:	00fc0412 	rscseq	r0, ip, r2, lsl r4
     c74:	780a0000 	stmdavc	sl, {}	; <UNPREDICTABLE>
     c78:	0e130100 	mufeqs	f0, f3, f0
     c7c:	000000bf 	strheq	r0, [r0], -pc	; <UNPREDICTABLE>
     c80:	20040700 	andcs	r0, r4, r0, lsl #14
     c84:	10000001 	andne	r0, r0, r1
     c88:	000003bb 			; <UNDEFINED> instruction: 0x000003bb
     c8c:	20031401 	andcs	r1, r3, r1, lsl #8
     c90:	11000001 	tstne	r0, r1
     c94:	000003a3 	andeq	r0, r0, r3, lsr #7
     c98:	480f1801 	stmdami	pc, {r0, fp, ip}	; <UNPREDICTABLE>
     c9c:	05000001 	streq	r0, [r0, #-1]
     ca0:	00aee003 	adceq	lr, lr, r3
     ca4:	03831100 	orreq	r1, r3, #0
     ca8:	19010000 	stmdbne	r1, {}	; <UNPREDICTABLE>
     cac:	00017810 	andeq	r7, r1, r0, lsl r8
     cb0:	d8030500 	stmdale	r3, {r8, sl}
     cb4:	070000ae 	streq	r0, [r0, -lr, lsr #1]
     cb8:	00014804 	andeq	r4, r1, r4, lsl #16
     cbc:	037b1200 	cmneq	fp, #0, 4
     cc0:	53010000 	movwpl	r0, #4096	; 0x1000
     cc4:	00852406 	addeq	r2, r5, r6, lsl #8
     cc8:	0000c400 	andeq	ip, r0, r0, lsl #8
     ccc:	c79c0100 	ldrgt	r0, [ip, r0, lsl #2]
     cd0:	13000001 	movwne	r0, #1
     cd4:	01007061 	tsteq	r0, r1, rrx
     cd8:	00f31453 	rscseq	r1, r3, r3, asr r4
     cdc:	50010000 	andpl	r0, r1, r0
     ce0:	00706214 	rsbseq	r6, r0, r4, lsl r2
     ce4:	780a5501 	stmdavc	sl, {r0, r8, sl, ip, lr}
     ce8:	e4000001 	str	r0, [r0], #-1
     cec:	dc000003 	stcle	0, cr0, [r0], {3}
     cf0:	14000003 	strne	r0, [r0], #-3
     cf4:	55010070 	strpl	r0, [r1, #-112]	; 0xffffff90
     cf8:	0001780f 	andeq	r7, r1, pc, lsl #16
     cfc:	00042000 	andeq	r2, r4, r0
     d00:	00041c00 	andeq	r1, r4, r0, lsl #24
     d04:	59150000 	ldmdbpl	r5, {}	; <UNPREDICTABLE>
     d08:	01000003 	tsteq	r0, r3
     d0c:	00f3072b 	rscseq	r0, r3, fp, lsr #14
     d10:	86640000 	strbthi	r0, [r4], -r0
     d14:	00b40000 	adcseq	r0, r4, r0
     d18:	9c010000 	stcls	0, cr0, [r1], {-0}
     d1c:	00000241 	andeq	r0, r0, r1, asr #4
     d20:	00035216 	andeq	r5, r3, r6, lsl r2
     d24:	1a2b0100 	bne	ac112c <__bss_end__+0xab5e2c>
     d28:	0000002c 	andeq	r0, r0, ip, lsr #32
     d2c:	00000446 	andeq	r0, r0, r6, asr #8
     d30:	0000043e 	andeq	r0, r0, lr, lsr r4
     d34:	01007014 	tsteq	r0, r4, lsl r0
     d38:	01780a2d 	cmneq	r8, sp, lsr #20
     d3c:	048e0000 	streq	r0, [lr], #0
     d40:	04800000 	streq	r0, [r0], #0
     d44:	6f170000 	svcvs	0x00170000
     d48:	01000003 	tsteq	r0, r3
     d4c:	01780e2d 	cmneq	r8, sp, lsr #28
     d50:	04f00000 	ldrbteq	r0, [r0], #0
     d54:	04e60000 	strbteq	r0, [r6], #0
     d58:	89170000 	ldmdbhi	r7, {}	; <UNPREDICTABLE>
     d5c:	01000003 	tsteq	r0, r3
     d60:	002c0b2e 	eoreq	r0, ip, lr, lsr #22
     d64:	05360000 	ldreq	r0, [r6, #-0]!
     d68:	05340000 	ldreq	r0, [r4, #-0]!
     d6c:	08180000 	ldmdaeq	r8, {}	; <UNPREDICTABLE>
     d70:	41000087 	smlabbmi	r0, r7, r0, r0
     d74:	19000002 	stmdbne	r0, {r1}
     d78:	0a035001 	beq	d4d84 <__bss_end__+0xc9a84>
     d7c:	00008000 	andeq	r8, r0, r0
     d80:	0003ad1a 	andeq	sl, r3, sl, lsl sp
     d84:	101c0100 	andsne	r0, ip, r0, lsl #2
     d88:	00000178 	andeq	r0, r0, r8, ror r1
     d8c:	000085f8 	strdeq	r8, [r0], -r8	; <UNPREDICTABLE>
     d90:	0000005c 	andeq	r0, r0, ip, asr r0
     d94:	02d19c01 	sbcseq	r9, r1, #256	; 0x100
     d98:	6e1b0000 	cdpvs	0, 1, cr0, cr11, cr0, {0}
     d9c:	1c010075 	stcne	0, cr0, [r1], {117}	; 0x75
     da0:	00002c22 	andeq	r2, r0, r2, lsr #24
     da4:	00054d00 	andeq	r4, r5, r0, lsl #26
     da8:	00054900 	andeq	r4, r5, r0, lsl #18
     dac:	70631400 	rsbvc	r1, r3, r0, lsl #8
     db0:	08210100 	stmdaeq	r1!, {r8}
     db4:	000002d1 	ldrdeq	r0, [r0], -r1
     db8:	00000571 	andeq	r0, r0, r1, ror r5
     dbc:	0000056b 	andeq	r0, r0, fp, ror #10
     dc0:	00707514 	rsbseq	r7, r0, r4, lsl r5
     dc4:	780a2401 	stmdavc	sl, {r0, sl, sp}
     dc8:	a0000001 	andge	r0, r0, r1
     dcc:	9c000005 	stcls	0, cr0, [r0], {5}
     dd0:	1c000005 	stcne	0, cr0, [r0], {5}
     dd4:	0000861c 	andeq	r8, r0, ip, lsl r6
     dd8:	000002d7 	ldrdeq	r0, [r0], -r7
     ddc:	000002b1 			; <UNDEFINED> instruction: 0x000002b1
     de0:	05500119 	ldrbeq	r0, [r0, #-281]	; 0xfffffee7
     de4:	00a74803 	adceq	r4, r7, r3, lsl #16
     de8:	51011900 	tstpl	r1, r0, lsl #18
     dec:	00007402 	andeq	r7, r0, r2, lsl #8
     df0:	0086241c 	addeq	r2, r6, ip, lsl r4
     df4:	0002e300 	andeq	lr, r2, r0, lsl #6
     df8:	0002c700 	andeq	ip, r2, r0, lsl #14
     dfc:	50011900 	andpl	r1, r1, r0, lsl #18
     e00:	33007404 	movwcc	r7, #1028	; 0x404
     e04:	381d0024 	ldmdacc	sp, {r2, r5}
     e08:	7e000086 	cdpvc	0, 0, cr0, cr0, cr6, {4}
     e0c:	00000001 	andeq	r0, r0, r1
     e10:	00a10407 	adceq	r0, r1, r7, lsl #8
     e14:	7c1e0000 	ldcvc	0, cr0, [lr], {-0}
     e18:	7c000006 	stcvc	0, cr0, [r0], {6}
     e1c:	02000006 	andeq	r0, r0, #6, 0
     e20:	a81e0628 	ldmdage	lr, {r3, r5, r9, sl}
     e24:	a8000003 	stmdage	r0, {r0, r1}
     e28:	03000003 	movweq	r0, #3
     e2c:	d9000b1a 	stmdble	r0, {r1, r3, r4, r8, r9, fp}
     e30:	0400000e 	streq	r0, [r0], #-14
     e34:	0005c000 	andeq	ip, r5, r0
     e38:	65010400 	strvs	r0, [r1, #-1024]	; 0xfffffc00
     e3c:	0c000000 	stceq	0, cr0, [r0], {-0}
     e40:	0000049c 	muleq	r0, ip, r4
     e44:	00000160 	andeq	r0, r0, r0, ror #2
     e48:	00008718 	andeq	r8, r0, r8, lsl r7
     e4c:	00000800 	andeq	r0, r0, r0, lsl #16
     e50:	000006c4 	andeq	r0, r0, r4, asr #13
     e54:	69050402 	stmdbvs	r5, {r1, sl}
     e58:	0300746e 	movweq	r7, #1134	; 0x46e
     e5c:	01b00704 	lslseq	r0, r4, #14
     e60:	01030000 	mrseq	r0, (UNDEF: 3)
     e64:	00015406 	andeq	r5, r1, r6, lsl #8
     e68:	05020300 	streq	r0, [r2, #-768]	; 0xfffffd00
     e6c:	000001de 	ldrdeq	r0, [r0], -lr
     e70:	c2050403 	andgt	r0, r5, #50331648	; 0x3000000
     e74:	03000001 	movweq	r0, #1
     e78:	01bd0508 			; <UNDEFINED> instruction: 0x01bd0508
     e7c:	61040000 	mrsvs	r0, (UNDEF: 4)
     e80:	03000002 	movweq	r0, #2
     e84:	005b182e 	subseq	r1, fp, lr, lsr #16
     e88:	01030000 	mrseq	r0, (UNDEF: 3)
     e8c:	00015208 	andeq	r5, r1, r8, lsl #4
     e90:	02d30400 	sbcseq	r0, r3, #0, 8
     e94:	31030000 	mrscc	r0, (UNDEF: 3)
     e98:	00006e19 	andeq	r6, r0, r9, lsl lr
     e9c:	07020300 	streq	r0, [r2, -r0, lsl #6]
     ea0:	00000052 	andeq	r0, r0, r2, asr r0
     ea4:	0002ca04 	andeq	ip, r2, r4, lsl #20
     ea8:	19340300 	ldmdbne	r4!, {r8, r9}
     eac:	00000081 	andeq	r0, r0, r1, lsl #1
     eb0:	ab070403 	blge	1c1ec4 <__bss_end__+0x1b6bc4>
     eb4:	03000001 	movweq	r0, #1
     eb8:	01a60708 			; <UNDEFINED> instruction: 0x01a60708
     ebc:	25050000 	strcs	r0, [r5, #-0]
     ec0:	9e000000 	cdpls	0, 0, cr0, cr0, cr0, {0}
     ec4:	06000000 	streq	r0, [r0], -r0
     ec8:	00000025 	andeq	r0, r0, r5, lsr #32
     ecc:	01cb0700 	biceq	r0, fp, r0, lsl #14
     ed0:	1c040000 	stcne	0, cr0, [r4], {-0}
     ed4:	0000aa0e 	andeq	sl, r0, lr, lsl #20
     ed8:	8f040800 	svchi	0x00040800
     edc:	05000000 	streq	r0, [r0, #-0]
     ee0:	00000025 	andeq	r0, r0, r5, lsr #32
     ee4:	000000bf 	strheq	r0, [r0], -pc	; <UNPREDICTABLE>
     ee8:	0000bf06 	andeq	fp, r0, r6, lsl #30
     eec:	04080000 	streq	r0, [r8], #-0
     ef0:	000000cc 	andeq	r0, r0, ip, asr #1
     ef4:	5b080103 	blpl	201308 <__bss_end__+0x1f6008>
     ef8:	09000001 	stmdbeq	r0, {r0}
     efc:	000000c5 	andeq	r0, r0, r5, asr #1
     f00:	0006ba07 	andeq	fp, r6, r7, lsl #20
     f04:	0e210400 	cdpeq	4, 2, cr0, cr1, cr0, {0}
     f08:	000000dd 	ldrdeq	r0, [r0], -sp
     f0c:	00b00408 	adcseq	r0, r0, r8, lsl #8
     f10:	0c0a0000 	stceq	0, cr0, [sl], {-0}
     f14:	14090502 	strne	r0, [r9], #-1282	; 0xfffffafe
     f18:	0b000001 	bleq	f24 <__code_start__-0x70dc>
     f1c:	00000024 	andeq	r0, r0, r4, lsr #32
     f20:	bf110702 	svclt	0x00110702
     f24:	00000000 	andeq	r0, r0, r0
     f28:	0001940b 	andeq	r9, r1, fp, lsl #8
     f2c:	11080200 	mrsne	r0, R8_fiq
     f30:	000000bf 	strheq	r0, [r0], -pc	; <UNPREDICTABLE>
     f34:	00150b04 	andseq	r0, r5, r4, lsl #22
     f38:	09020000 	stmdbeq	r2, {}	; <UNPREDICTABLE>
     f3c:	00002c0e 	andeq	r2, r0, lr, lsl #24
     f40:	04000800 	streq	r0, [r0], #-2048	; 0xfffff800
     f44:	000001e8 	andeq	r0, r0, r8, ror #3
     f48:	e3030a02 	movw	r0, #14850	; 0x3a02
     f4c:	0c000000 	stceq	0, cr0, [r0], {-0}
     f50:	005b0107 	subseq	r0, fp, r7, lsl #2
     f54:	09050000 	stmdbeq	r5, {}	; <UNPREDICTABLE>
     f58:	00013b0e 	andeq	r3, r1, lr, lsl #22
     f5c:	031d0d00 	tsteq	sp, #0, 26
     f60:	0d0b0000 	stceq	0, cr0, [fp, #-0]
     f64:	00000218 	andeq	r0, r0, r8, lsl r2
     f68:	070c000c 	streq	r0, [ip, -ip]
     f6c:	00005b01 	andeq	r5, r0, r1, lsl #22
     f70:	060a0500 	streq	r0, [sl], -r0, lsl #10
     f74:	00000156 	andeq	r0, r0, r6, asr r1
     f78:	0002450d 	andeq	r4, r2, sp, lsl #10
     f7c:	390d8000 	stmdbcc	sp, {pc}
     f80:	fe000002 	cdp2	0, 0, cr0, cr0, cr2, {0}
     f84:	027f0e00 	rsbseq	r0, pc, #0, 28
     f88:	05b40000 	ldreq	r0, [r4, #0]!
     f8c:	01e6100d 	mvneq	r1, sp
     f90:	630b0000 	movwvs	r0, #45056	; 0xb000
     f94:	05000003 	streq	r0, [r0, #-3]
     f98:	01e6140e 	mvneq	r1, lr, lsl #8
     f9c:	0b000000 	bleq	fa4 <__code_start__-0x705c>
     fa0:	0000021e 	andeq	r0, r0, lr, lsl r2
     fa4:	750e0f05 	strvc	r0, [lr, #-3845]	; 0xfffff0fb
     fa8:	04000000 	streq	r0, [r0], #-0
     fac:	0002a00b 	andeq	sl, r2, fp
     fb0:	0e100500 	cfmul32eq	mvfx0, mvfx0, mvfx0
     fb4:	00000075 	andeq	r0, r0, r5, ror r0
     fb8:	020f0b08 	andeq	r0, pc, #8, 22	; 0x2000
     fbc:	14050000 	strne	r0, [r5], #-0
     fc0:	0000750e 	andeq	r7, r0, lr, lsl #10
     fc4:	960b0c00 	strls	r0, [fp], -r0, lsl #24
     fc8:	05000002 	streq	r0, [r0, #-2]
     fcc:	01140f16 	tsteq	r4, r6, lsl pc
     fd0:	0b100000 	bleq	400fd8 <__bss_end__+0x3f5cd8>
     fd4:	00000346 	andeq	r0, r0, r6, asr #6
     fd8:	140f1705 	strne	r1, [pc], #-1797	; fe0 <__code_start__-0x7020>
     fdc:	1c000001 	stcne	0, cr0, [r0], {1}
     fe0:	0002b00b 	andeq	fp, r2, fp
     fe4:	0e1a0500 	cfmul32eq	mvfx0, mvfx10, mvfx0
     fe8:	00000075 	andeq	r0, r0, r5, ror r0
     fec:	03110b28 	tsteq	r1, #40, 22	; 0xa000
     ff0:	1b050000 	blne	140ff8 <__bss_end__+0x135cf8>
     ff4:	0000750e 	andeq	r7, r0, lr, lsl #10
     ff8:	120b2c00 	andne	r2, fp, #0, 24
     ffc:	05000004 	streq	r0, [r0, #-4]
    1000:	00620e1d 	rsbeq	r0, r2, sp, lsl lr
    1004:	0f300000 	svceq	0x00300000
    1008:	00317a72 	eorseq	r7, r1, r2, ror sl
    100c:	ec0d1f05 	stc	15, cr1, [sp], {5}
    1010:	32000001 	andcc	r0, r0, #1, 0
    1014:	56040800 	strpl	r0, [r4], -r0, lsl #16
    1018:	10000001 	andne	r0, r0, r1
    101c:	0000004f 	andeq	r0, r0, pc, asr #32
    1020:	000001fc 	strdeq	r0, [r0], -ip
    1024:	00002c11 	andeq	r2, r0, r1, lsl ip
    1028:	04007f00 	streq	r7, [r0], #-3840	; 0xfffff100
    102c:	00000209 	andeq	r0, r0, r9, lsl #4
    1030:	56032005 	strpl	r2, [r3], -r5
    1034:	12000001 	andne	r0, r0, #1, 0
    1038:	00000704 	andeq	r0, r0, r4, lsl #14
    103c:	a8050000 	stmdage	r5, {}	; <UNPREDICTABLE>
    1040:	00002c11 	andeq	r2, r0, r1, lsl ip
    1044:	0b281300 	bleq	a05c4c <__bss_end__+0x9fa94c>
    1048:	10010000 	andne	r0, r1, r0
    104c:	0002080e 	andeq	r0, r2, lr, lsl #16
    1050:	e8030500 	stmda	r3, {r8, sl}
    1054:	130000ae 	movwne	r0, #174	; 0xae
    1058:	00000b83 	andeq	r0, r0, r3, lsl #23
    105c:	080e1101 	stmdaeq	lr, {r0, r8, ip}
    1060:	05000002 	streq	r0, [r0, #-2]
    1064:	00aeec03 	adceq	lr, lr, r3, lsl #24
    1068:	03d51400 	bicseq	r1, r5, #0, 8
    106c:	32010000 	andcc	r0, r1, #0, 0
    1070:	8ee80601 	cdphi	6, 14, cr0, cr8, cr1, {0}
    1074:	00300000 	eorseq	r0, r0, r0
    1078:	9c010000 	stcls	0, cr0, [r1], {-0}
    107c:	0000029a 	muleq	r0, sl, r2
    1080:	00019915 	andeq	r9, r1, r5, lsl r9
    1084:	0002aa00 	andeq	sl, r2, r0, lsl #20
    1088:	0c030500 	cfstr32eq	mvfx0, [r3], {-0}
    108c:	160000ab 	strne	r0, [r0], -fp, lsr #1
    1090:	00008f08 	andeq	r8, r0, r8, lsl #30
    1094:	00000e55 	andeq	r0, r0, r5, asr lr
    1098:	00000290 	muleq	r0, r0, r2
    109c:	05500117 	ldrbeq	r0, [r0, #-279]	; 0xfffffee9
    10a0:	00aa9c03 	adceq	r9, sl, r3, lsl #24
    10a4:	51011700 	tstpl	r1, r0, lsl #14
    10a8:	a76c0305 	strbge	r0, [ip, -r5, lsl #6]!
    10ac:	01170000 	tsteq	r7, r0
    10b0:	0c030552 	cfstr32eq	mvfx0, [r3], {82}	; 0x52
    10b4:	170000ab 	strne	r0, [r0, -fp, lsr #1]
    10b8:	0a035301 	beq	d5cc4 <__bss_end__+0xca9c4>
    10bc:	18000134 	stmdane	r0, {r2, r4, r5, r8}
    10c0:	00008f0c 	andeq	r8, r0, ip, lsl #30
    10c4:	00000e61 	andeq	r0, r0, r1, ror #28
    10c8:	00cc1000 	sbceq	r1, ip, r0
    10cc:	02aa0000 	adceq	r0, sl, #0, 0
    10d0:	2c110000 	ldccs	0, cr0, [r1], {-0}
    10d4:	0e000000 	cdpeq	0, 0, cr0, cr0, cr0, {0}
    10d8:	029a0900 	addseq	r0, sl, #0, 18
    10dc:	3c190000 	ldccc	0, cr0, [r9], {-0}
    10e0:	01000004 	tsteq	r0, r4
    10e4:	2c0a0128 	stfcss	f0, [sl], {40}	; 0x28
    10e8:	bc000000 	stclt	0, cr0, [r0], {-0}
    10ec:	1800008e 	stmdane	r0, {r1, r2, r3, r7}
    10f0:	01000000 	mrseq	r0, (UNDEF: 0)
    10f4:	0002f29c 	muleq	r2, ip, r2
    10f8:	03521a00 	cmpeq	r2, #0, 20
    10fc:	2b010000 	blcs	41104 <__bss_end__+0x35e04>
    1100:	002c0e01 	eoreq	r0, ip, r1, lsl #28
    1104:	05c20000 	strbeq	r0, [r2]
    1108:	05c00000 	strbeq	r0, [r0]
    110c:	cc180000 	ldcgt	0, cr0, [r8], {-0}
    1110:	3d00008e 	stccc	0, cr0, [r0, #-568]	; 0xfffffdc8
    1114:	18000009 	stmdane	r0, {r0, r3}
    1118:	00008ed0 	ldrdeq	r8, [r0], -r0
    111c:	000002f2 	strdeq	r0, [r0], -r2
    1120:	05121b00 	ldreq	r1, [r2, #-2816]	; 0xfffff500
    1124:	10010000 	andne	r0, r1, r0
    1128:	002c1101 	eoreq	r1, ip, r1, lsl #2
    112c:	8ae00000 	bhi	ff801134 <__bss_end__+0xff7f5e34>
    1130:	00e40000 	rsceq	r0, r4, r0
    1134:	9c010000 	stcls	0, cr0, [r1], {-0}
    1138:	00000461 	andeq	r0, r0, r1, ror #8
    113c:	0003f21a 	andeq	pc, r3, sl, lsl r2	; <UNPREDICTABLE>
    1140:	01120100 	tsteq	r2, r0, lsl #2
    1144:	00002c0e 	andeq	r2, r0, lr, lsl #24
    1148:	0005d900 	andeq	sp, r5, r0, lsl #18
    114c:	0005d500 	andeq	sp, r5, r0, lsl #10
    1150:	04791a00 	ldrbteq	r1, [r9], #-2560	; 0xfffff600
    1154:	12010000 	andne	r0, r1, #0, 0
    1158:	002c1b01 	eoreq	r1, ip, r1, lsl #22
    115c:	05fc0000 	ldrbeq	r0, [ip, #0]!
    1160:	05f80000 	ldrbeq	r0, [r8, #0]!
    1164:	011a0000 	tsteq	sl, r0
    1168:	01000004 	tsteq	r0, r4
    116c:	2c270112 	stfcss	f0, [r7], #-72	; 0xffffffb8
    1170:	21000000 	mrscs	r0, (UNDEF: 0)
    1174:	1b000006 	blne	1194 <__code_start__-0x6e6c>
    1178:	15000006 	strne	r0, [r0, #-6]
    117c:	00000199 	muleq	r0, r9, r1
    1180:	00000471 	andeq	r0, r0, r1, ror r4
    1184:	aad40305 	bge	ff501da0 <__bss_end__+0xff4f6aa0>
    1188:	781c0000 	ldmdavc	ip, {}	; <UNPREDICTABLE>
    118c:	04000000 	streq	r0, [r0], #-0
    1190:	1d000004 	stcne	0, cr0, [r0, #-16]
    1194:	17010068 	strne	r0, [r1, -r8, rrx]
    1198:	04761101 	ldrbteq	r1, [r6], #-257	; 0xfffffeff
    119c:	06530000 	ldrbeq	r0, [r3], -r0
    11a0:	064b0000 	strbeq	r0, [fp], -r0
    11a4:	1f1e0000 	svcne	0x001e0000
    11a8:	2c00000e 	stccs	0, cr0, [r0], {14}
    11ac:	0000008b 	andeq	r0, r0, fp, lsl #1
    11b0:	00008b2c 	andeq	r8, r0, ip, lsr #22
    11b4:	00000018 	andeq	r0, r0, r8, lsl r0
    11b8:	0d011e01 	stceq	14, cr1, [r1, #-4]
    11bc:	000003b9 			; <UNDEFINED> instruction: 0x000003b9
    11c0:	000e481f 	andeq	r4, lr, pc, lsl r8
    11c4:	00068900 	andeq	r8, r6, r0, lsl #18
    11c8:	00068700 	andeq	r8, r6, r0, lsl #14
    11cc:	0e3c1f00 	cdpeq	15, 3, cr1, cr12, cr0, {0}
    11d0:	06a10000 	strteq	r0, [r1], r0
    11d4:	069f0000 	ldreq	r0, [pc], r0
    11d8:	301f0000 	andscc	r0, pc, r0
    11dc:	bb00000e 	bllt	121c <__code_start__-0x6de4>
    11e0:	b9000006 	stmdblt	r0, {r1, r2}
    11e4:	00000006 	andeq	r0, r0, r6
    11e8:	008b0818 	addeq	r0, fp, r8, lsl r8
    11ec:	000e7c00 	andeq	r7, lr, r0, lsl #24
    11f0:	8b541600 	blhi	15069f8 <__bss_end__+0x14fb6f8>
    11f4:	0e880000 	cdpeq	0, 8, cr0, cr8, cr0, {0}
    11f8:	03d60000 	bicseq	r0, r6, #0, 0
    11fc:	01170000 	tsteq	r7, r0
    1200:	00760250 	rsbseq	r0, r6, r0, asr r2
    1204:	8b601600 	blhi	1806a0c <__bss_end__+0x17fb70c>
    1208:	0e550000 	cdpeq	0, 5, cr0, cr5, cr0, {0}
    120c:	03f30000 	mvnseq	r0, #0, 0
    1210:	01170000 	tsteq	r7, r0
    1214:	48030550 	stmdami	r3, {r4, r6, r8, sl}
    1218:	170000a9 	strne	r0, [r0, -r9, lsr #1]
    121c:	76025101 	strvc	r5, [r2], -r1, lsl #2
    1220:	68200000 	stmdavs	r0!, {}	; <UNPREDICTABLE>
    1224:	9400008b 	strls	r0, [r0], #-139	; 0xffffff75
    1228:	1700000e 	strne	r0, [r0, -lr]
    122c:	74025001 	strvc	r5, [r2], #-1
    1230:	16000000 	strne	r0, [r0], -r0
    1234:	00008af8 	strdeq	r8, [r0], -r8	; <UNPREDICTABLE>
    1238:	00000e55 	andeq	r0, r0, r5, asr lr
    123c:	0000041b 	andeq	r0, r0, fp, lsl r4
    1240:	05500117 	ldrbeq	r0, [r0, #-279]	; 0xfffffee9
    1244:	00a80403 	adceq	r0, r8, r3, lsl #8
    1248:	00160000 	andseq	r0, r6, r0
    124c:	5500008b 	strpl	r0, [r0, #-139]	; 0xffffff75
    1250:	3200000e 	andcc	r0, r0, #14, 0
    1254:	17000004 	strne	r0, [r0, -r4]
    1258:	03055001 	movweq	r5, #20481	; 0x5001
    125c:	0000a938 	andeq	sl, r0, r8, lsr r9
    1260:	8b041800 	blhi	107268 <__bss_end__+0xfbf68>
    1264:	093d0000 	ldmdbeq	sp!, {}	; <UNPREDICTABLE>
    1268:	9c200000 	stcls	0, cr0, [r0], #-0
    126c:	5500008b 	strpl	r0, [r0, #-139]	; 0xffffff75
    1270:	1700000e 	strne	r0, [r0, -lr]
    1274:	03055001 	movweq	r5, #20481	; 0x5001
    1278:	0000a958 	andeq	sl, r0, r8, asr r9
    127c:	02510117 	subseq	r0, r1, #-1073741819	; 0xc0000005
    1280:	01170075 	tsteq	r7, r5, ror r0
    1284:	00780252 	rsbseq	r0, r8, r2, asr r2
    1288:	02530117 	subseq	r0, r3, #-1073741819	; 0xc0000005
    128c:	00000077 	andeq	r0, r0, r7, ror r0
    1290:	0000cc10 	andeq	ip, r0, r0, lsl ip
    1294:	00047100 	andeq	r7, r4, r0, lsl #2
    1298:	002c1100 	eoreq	r1, ip, r0, lsl #2
    129c:	000a0000 	andeq	r0, sl, r0
    12a0:	00046109 	andeq	r6, r4, r9, lsl #2
    12a4:	fc040800 	stc2	8, cr0, [r4], {-0}
    12a8:	19000001 	stmdbne	r0, {r0}
    12ac:	000004a4 	andeq	r0, r0, r4, lsr #9
    12b0:	0a010001 	beq	412bc <__bss_end__+0x35fbc>
    12b4:	0000002c 	andeq	r0, r0, ip, lsr #32
    12b8:	00008e58 	andeq	r8, r0, r8, asr lr
    12bc:	00000058 	andeq	r0, r0, r8, asr r0
    12c0:	05259c01 	streq	r9, [r5, #-3073]!	; 0xfffff3ff
    12c4:	591a0000 	ldmdbpl	sl, {}	; <UNPREDICTABLE>
    12c8:	01000004 	tsteq	r0, r4
    12cc:	2c0e0106 	stfcss	f0, [lr], {6}
    12d0:	d9000000 	stmdble	r0, {}	; <UNPREDICTABLE>
    12d4:	d3000006 	movwle	r0, #6
    12d8:	15000006 	strne	r0, [r0, #-6]
    12dc:	00000199 	muleq	r0, r9, r1
    12e0:	00000535 	andeq	r0, r0, r5, lsr r5
    12e4:	aaf80305 	bge	ffe01f00 <__bss_end__+0xffdf6c00>
    12e8:	6c160000 	ldcvs	0, cr0, [r6], {-0}
    12ec:	d700008e 	strle	r0, [r0, -lr, lsl #1]
    12f0:	ce000005 	cdpgt	0, 0, cr0, cr0, cr5, {0}
    12f4:	17000004 	strne	r0, [r0, -r4]
    12f8:	31015001 	tstcc	r1, r1
    12fc:	8e801600 	cdphi	6, 8, cr1, cr0, cr0, {0}
    1300:	0e550000 	cdpeq	0, 5, cr0, cr5, cr0, {0}
    1304:	04eb0000 	strbteq	r0, [fp], #0
    1308:	01170000 	tsteq	r7, r0
    130c:	78030550 	stmdavc	r3, {r4, r6, r8, sl}
    1310:	170000aa 	strne	r0, [r0, -sl, lsr #1]
    1314:	74025101 	strvc	r5, [r2], #-257	; 0xfffffeff
    1318:	9c160000 	ldcls	0, cr0, [r6], {-0}
    131c:	5500008e 	strpl	r0, [r0, #-142]	; 0xffffff72
    1320:	1b00000e 	blne	1360 <__code_start__-0x6ca0>
    1324:	17000005 	strne	r0, [r0, -r5]
    1328:	03055001 	movweq	r5, #20481	; 0x5001
    132c:	0000aa50 	andeq	sl, r0, r0, asr sl
    1330:	05510117 	ldrbeq	r0, [r1, #-279]	; 0xfffffee9
    1334:	00a76c03 	adceq	r6, r7, r3, lsl #24
    1338:	52011700 	andpl	r1, r1, #0, 14
    133c:	aaf80305 	bge	ffe01f58 <__bss_end__+0xffdf6c58>
    1340:	01170000 	tsteq	r7, r0
    1344:	080a0353 	stmdaeq	sl, {r0, r1, r4, r6, r8, r9}
    1348:	a0180001 	andsge	r0, r8, r1
    134c:	6100008e 	smlabbvs	r0, lr, r0, r0
    1350:	0000000e 	andeq	r0, r0, lr
    1354:	0000cc10 	andeq	ip, r0, r0, lsl ip
    1358:	00053500 	andeq	r3, r5, r0, lsl #10
    135c:	002c1100 	eoreq	r1, ip, r0, lsl #2
    1360:	00110000 	andseq	r0, r1, r0
    1364:	00052509 	andeq	r2, r5, r9, lsl #10
    1368:	04802100 	streq	r2, [r0], #256	; 0x100
    136c:	f2010000 	vhadd.s8	d0, d1, d0
    1370:	008df006 	addeq	pc, sp, r6
    1374:	00005000 	andeq	r5, r0, r0
    1378:	c29c0100 	addsgt	r0, ip, #0
    137c:	15000005 	strne	r0, [r0, #-5]
    1380:	00000199 	muleq	r0, r9, r1
    1384:	000005d2 	ldrdeq	r0, [r0], -r2
    1388:	aae80305 	bge	ffa01fa4 <__bss_end__+0xff9f6ca4>
    138c:	04160000 	ldreq	r0, [r6], #-0
    1390:	d700008e 	strle	r0, [r0, -lr, lsl #1]
    1394:	72000005 	andvc	r0, r0, #5, 0
    1398:	17000005 	strne	r0, [r0, -r5]
    139c:	31015001 	tstcc	r1, r1
    13a0:	8e141600 	cfmsub32hi	mvax0, mvfx1, mvfx4, mvfx0
    13a4:	0e550000 	cdpeq	0, 5, cr0, cr5, cr0, {0}
    13a8:	05890000 	streq	r0, [r9]
    13ac:	01170000 	tsteq	r7, r0
    13b0:	30030550 	andcc	r0, r3, r0, asr r5
    13b4:	000000aa 	andeq	r0, r0, sl, lsr #1
    13b8:	008e2c16 	addeq	r2, lr, r6, lsl ip
    13bc:	000e5500 	andeq	r5, lr, r0, lsl #10
    13c0:	0005b800 	andeq	fp, r5, r0, lsl #16
    13c4:	50011700 	andpl	r1, r1, r0, lsl #14
    13c8:	aa040305 	bge	101fe4 <__bss_end__+0xf6ce4>
    13cc:	01170000 	tsteq	r7, r0
    13d0:	6c030551 	cfstr32vs	mvfx0, [r3], {81}	; 0x51
    13d4:	170000a7 	strne	r0, [r0, -r7, lsr #1]
    13d8:	03055201 	movweq	r5, #20993	; 0x5201
    13dc:	0000aae8 	andeq	sl, r0, r8, ror #21
    13e0:	02530117 	subseq	r0, r3, #-1073741819	; 0xc0000005
    13e4:	1800f908 	stmdane	r0, {r3, r8, fp, ip, sp, lr, pc}
    13e8:	00008e30 	andeq	r8, r0, r0, lsr lr
    13ec:	00000e61 	andeq	r0, r0, r1, ror #28
    13f0:	00cc1000 	sbceq	r1, ip, r0
    13f4:	05d20000 	ldrbeq	r0, [r2]
    13f8:	2c110000 	ldccs	0, cr0, [r1], {-0}
    13fc:	0d000000 	stceq	0, cr0, [r0, #-0]
    1400:	05c20900 	strbeq	r0, [r2, #2304]	; 0x900
    1404:	21220000 			; <UNDEFINED> instruction: 0x21220000
    1408:	01000004 	tsteq	r0, r4
    140c:	002c0aeb 	eoreq	r0, ip, fp, ror #21
    1410:	8dc80000 	stclhi	0, cr0, [r8]
    1414:	00140000 	andseq	r0, r4, r0
    1418:	9c010000 	stcls	0, cr0, [r1], {-0}
    141c:	00000617 	andeq	r0, r0, r7, lsl r6
    1420:	00051d23 	andeq	r1, r5, r3, lsr #26
    1424:	1ceb0100 	stfnee	f0, [fp]
    1428:	00000025 	andeq	r0, r0, r5, lsr #32
    142c:	00000706 	andeq	r0, r0, r6, lsl #14
    1430:	00000702 	andeq	r0, r0, r2, lsl #14
    1434:	008dd820 	addeq	sp, sp, r0, lsr #16
    1438:	00061700 	andeq	r1, r6, r0, lsl #14
    143c:	50011700 	andpl	r1, r1, r0, lsl #14
    1440:	5001f303 	andpl	pc, r1, r3, lsl #6
    1444:	f8240000 			; <UNDEFINED> instruction: 0xf8240000
    1448:	01000004 	tsteq	r0, r4
    144c:	002c11c2 	eoreq	r1, ip, r2, asr #3
    1450:	89d40000 	ldmibhi	r4, {}^	; <UNPREDICTABLE>
    1454:	00fc0000 	rscseq	r0, ip, r0
    1458:	9c010000 	stcls	0, cr0, [r1], {-0}
    145c:	0000079e 	muleq	r0, lr, r7
    1460:	00051d23 	andeq	r1, r5, r3, lsr #26
    1464:	20c20100 	sbccs	r0, r2, r0, lsl #2
    1468:	00000025 	andeq	r0, r0, r5, lsr #32
    146c:	0000072b 	andeq	r0, r0, fp, lsr #14
    1470:	00000727 	andeq	r0, r0, r7, lsr #14
    1474:	0003f225 	andeq	pc, r3, r5, lsr #4
    1478:	0ec40100 	poleqs	f0, f4, f0
    147c:	0000002c 	andeq	r0, r0, ip, lsr #32
    1480:	0000074d 	andeq	r0, r0, sp, asr #14
    1484:	00000749 	andeq	r0, r0, r9, asr #14
    1488:	00043525 	andeq	r3, r4, r5, lsr #10
    148c:	1bc40100 	blne	ff101894 <__bss_end__+0xff0f6594>
    1490:	0000002c 	andeq	r0, r0, ip, lsr #32
    1494:	00000772 	andeq	r0, r0, r2, ror r7
    1498:	0000076c 	andeq	r0, r0, ip, ror #14
    149c:	00042f25 	andeq	r2, r4, r5, lsr #30
    14a0:	27c40100 	strbcs	r0, [r4, r0, lsl #2]
    14a4:	0000002c 	andeq	r0, r0, ip, lsr #32
    14a8:	000007a0 	andeq	r0, r0, r0, lsr #15
    14ac:	0000079c 	muleq	r0, ip, r7
    14b0:	0000601c 	andeq	r6, r0, ip, lsl r0
    14b4:	0006fc00 	andeq	pc, r6, r0, lsl #24
    14b8:	00682600 	rsbeq	r2, r8, r0, lsl #12
    14bc:	7611c901 	ldrvc	ip, [r1], -r1, lsl #18
    14c0:	cd000004 	stcgt	0, cr0, [r0, #-16]
    14c4:	bf000007 	svclt	0x00000007
    14c8:	18000007 	stmdane	r0, {r0, r1, r2}
    14cc:	000089fc 	strdeq	r8, [r0], -ip
    14d0:	00000e7c 	andeq	r0, r0, ip, ror lr
    14d4:	008a2416 	addeq	r2, sl, r6, lsl r4
    14d8:	000e5500 	andeq	r5, lr, r0, lsl #10
    14dc:	0006c800 	andeq	ip, r6, r0, lsl #16
    14e0:	50011700 	andpl	r1, r1, r0, lsl #14
    14e4:	a8580305 	ldmdage	r8, {r0, r2, r8, r9}^
    14e8:	01170000 	tsteq	r7, r0
    14ec:	00750251 	rsbseq	r0, r5, r1, asr r2
    14f0:	02520117 	subseq	r0, r2, #-1073741819	; 0xc0000005
    14f4:	16000074 			; <UNDEFINED> instruction: 0x16000074
    14f8:	00008a2c 	andeq	r8, r0, ip, lsr #20
    14fc:	00000e94 	muleq	r0, r4, lr
    1500:	000006dc 	ldrdeq	r0, [r0], -ip
    1504:	02500117 	subseq	r0, r0, #-1073741819	; 0xc0000005
    1508:	20000074 	andcs	r0, r0, r4, ror r0
    150c:	00008a64 	andeq	r8, r0, r4, ror #20
    1510:	00000e55 	andeq	r0, r0, r5, asr lr
    1514:	05500117 	ldrbeq	r0, [r0, #-279]	; 0xfffffee9
    1518:	00a86c03 	adceq	r6, r8, r3, lsl #24
    151c:	51011700 	tstpl	r1, r0, lsl #14
    1520:	17007502 	strne	r7, [r0, -r2, lsl #10]
    1524:	74025201 	strvc	r5, [r2], #-513	; 0xfffffdff
    1528:	16000000 	strne	r0, [r0], -r0
    152c:	000089ec 	andeq	r8, r0, ip, ror #19
    1530:	00000e55 	andeq	r0, r0, r5, asr lr
    1534:	00000713 	andeq	r0, r0, r3, lsl r7
    1538:	05500117 	ldrbeq	r0, [r0, #-279]	; 0xfffffee9
    153c:	00a80403 	adceq	r0, r8, r3, lsl #8
    1540:	f4160000 			; <UNDEFINED> instruction: 0xf4160000
    1544:	55000089 	strpl	r0, [r0, #-137]	; 0xffffff77
    1548:	2a00000e 	bcs	1588 <__code_start__-0x6a78>
    154c:	17000007 	strne	r0, [r0, -r7]
    1550:	03055001 	movweq	r5, #20481	; 0x5001
    1554:	0000a840 	andeq	sl, r0, r0, asr #16
    1558:	89f81800 	ldmibhi	r8!, {fp, ip}^
    155c:	093d0000 	ldmdbeq	sp!, {}	; <UNPREDICTABLE>
    1560:	74160000 	ldrvc	r0, [r6], #-0
    1564:	5500008a 	strpl	r0, [r0, #-138]	; 0xffffff76
    1568:	5000000e 	andpl	r0, r0, lr
    156c:	17000007 	strne	r0, [r0, -r7]
    1570:	03055001 	movweq	r5, #20481	; 0x5001
    1574:	0000a884 	andeq	sl, r0, r4, lsl #17
    1578:	02510117 	subseq	r0, r1, #-1073741819	; 0xc0000005
    157c:	16000075 			; <UNDEFINED> instruction: 0x16000075
    1580:	00008a84 	andeq	r8, r0, r4, lsl #21
    1584:	00000e55 	andeq	r0, r0, r5, asr lr
    1588:	00000767 	andeq	r0, r0, r7, ror #14
    158c:	05500117 	ldrbeq	r0, [r0, #-279]	; 0xfffffee9
    1590:	00a8a403 	adceq	sl, r8, r3, lsl #8
    1594:	8c160000 	ldchi	0, cr0, [r6], {-0}
    1598:	5500008a 	strpl	r0, [r0, #-138]	; 0xffffff76
    159c:	7e00000e 	cdpvc	0, 0, cr0, cr0, cr14, {0}
    15a0:	17000007 	strne	r0, [r0, -r7]
    15a4:	03055001 	movweq	r5, #20481	; 0x5001
    15a8:	0000a8fc 	strdeq	sl, [r0], -ip
    15ac:	8aac2000 	bhi	feb095b4 <__bss_end__+0xfeafe2b4>
    15b0:	0e550000 	cdpeq	0, 5, cr0, cr5, cr0, {0}
    15b4:	01170000 	tsteq	r7, r0
    15b8:	cc030550 	cfstr32gt	mvfx0, [r3], {80}	; 0x50
    15bc:	170000a8 	strne	r0, [r0, -r8, lsr #1]
    15c0:	76025101 	strvc	r5, [r2], -r1, lsl #2
    15c4:	52011700 	andpl	r1, r1, #0, 14
    15c8:	00007802 	andeq	r7, r0, r2, lsl #16
    15cc:	05312200 	ldreq	r2, [r1, #-512]!	; 0xfffffe00
    15d0:	ac010000 	stcge	0, cr0, [r1], {-0}
    15d4:	00002505 	andeq	r2, r0, r5, lsl #10
    15d8:	008ce000 	addeq	lr, ip, r0
    15dc:	0000d400 	andeq	sp, r0, r0, lsl #8
    15e0:	ce9c0100 	fmlgte	f0, f4, f0
    15e4:	25000008 	strcs	r0, [r0, #-8]
    15e8:	00000435 	andeq	r0, r0, r5, lsr r4
    15ec:	2509ad01 	strcs	sl, [r9, #-3329]	; 0xfffff2ff
    15f0:	26000000 	strcs	r0, [r0], -r0
    15f4:	22000008 	andcs	r0, r0, #8, 0
    15f8:	27000008 	strcs	r0, [r0, -r8]
    15fc:	000000a8 	andeq	r0, r0, r8, lsr #1
    1600:	01006826 	tsteq	r0, r6, lsr #16
    1604:	047611ae 	ldrbteq	r1, [r6], #-430	; 0xfffffe52
    1608:	08510000 	ldmdaeq	r1, {}^	; <UNPREDICTABLE>
    160c:	08450000 	stmdaeq	r5, {}^	; <UNPREDICTABLE>
    1610:	c01c0000 	andsgt	r0, ip, r0
    1614:	b3000000 	movwlt	r0, #0
    1618:	25000008 	strcs	r0, [r0, #-8]
    161c:	00000460 	andeq	r0, r0, r0, ror #8
    1620:	250daf01 	strcs	sl, [sp, #-3841]	; 0xfffff0ff
    1624:	a3000000 	movwge	r0, #0
    1628:	9b000008 	blls	1650 <__code_start__-0x69b0>
    162c:	1c000008 	stcne	0, cr0, [r0], {8}
    1630:	000000d8 	ldrdeq	r0, [r0], -r8
    1634:	0000085a 	andeq	r0, r0, sl, asr r8
    1638:	01006526 	tsteq	r0, r6, lsr #10
    163c:	002511b4 	strhteq	r1, [r5], -r4
    1640:	08dc0000 	ldmeq	ip, {}^	; <UNPREDICTABLE>
    1644:	08d80000 	ldmeq	r8, {}^	; <UNPREDICTABLE>
    1648:	10160000 	andsne	r0, r6, r0
    164c:	5500008d 	strpl	r0, [r0, #-141]	; 0xffffff73
    1650:	3200000e 	andcc	r0, r0, #14, 0
    1654:	17000008 	strne	r0, [r0, -r8]
    1658:	03055001 	movweq	r5, #20481	; 0x5001
    165c:	0000a658 	andeq	sl, r0, r8, asr r6
    1660:	8d181600 	ldchi	6, cr1, [r8, #-0]
    1664:	0e550000 	cdpeq	0, 5, cr0, cr5, cr0, {0}
    1668:	08490000 	stmdaeq	r9, {}^	; <UNPREDICTABLE>
    166c:	01170000 	tsteq	r7, r0
    1670:	ec030550 	cfstr32	mvfx0, [r3], {80}	; 0x50
    1674:	000000a9 	andeq	r0, r0, r9, lsr #1
    1678:	008d9020 	addeq	r9, sp, r0, lsr #32
    167c:	0008ce00 	andeq	ip, r8, r0, lsl #28
    1680:	50011700 	andpl	r1, r1, r0, lsl #14
    1684:	00007702 	andeq	r7, r0, r2, lsl #14
    1688:	8d3c1600 	ldchi	6, cr1, [ip, #-0]
    168c:	08ce0000 	stmiaeq	lr, {}^	; <UNPREDICTABLE>
    1690:	08740000 	ldmdaeq	r4!, {}^	; <UNPREDICTABLE>
    1694:	01170000 	tsteq	r7, r0
    1698:	32740250 	rsbscc	r0, r4, #80, 4
    169c:	02510117 	subseq	r0, r1, #-1073741819	; 0xc0000005
    16a0:	16008008 	strne	r8, [r0], -r8
    16a4:	00008d58 	andeq	r8, r0, r8, asr sp
    16a8:	000008ce 	andeq	r0, r0, lr, asr #17
    16ac:	00000888 	andeq	r0, r0, r8, lsl #17
    16b0:	02510117 	subseq	r0, r1, #-1073741819	; 0xc0000005
    16b4:	16008008 	strne	r8, [r0], -r8
    16b8:	00008d70 	andeq	r8, r0, r0, ror sp
    16bc:	00000e55 	andeq	r0, r0, r5, asr lr
    16c0:	0000089f 	muleq	r0, pc, r8	; <UNPREDICTABLE>
    16c4:	05500117 	ldrbeq	r0, [r0, #-279]	; 0xfffffee9
    16c8:	00a65803 	adceq	r5, r6, r3, lsl #16
    16cc:	78200000 	stmdavc	r0!, {}	; <UNPREDICTABLE>
    16d0:	5500008d 	strpl	r0, [r0, #-141]	; 0xffffff73
    16d4:	1700000e 	strne	r0, [r0, -lr]
    16d8:	03055001 	movweq	r5, #20481	; 0x5001
    16dc:	0000a9bc 			; <UNDEFINED> instruction: 0x0000a9bc
    16e0:	f0180000 			; <UNDEFINED> instruction: 0xf0180000
    16e4:	7c00008c 	stcvc	0, cr0, [r0], {140}	; 0x8c
    16e8:	2000000e 	andcs	r0, r0, lr
    16ec:	00008d24 	andeq	r8, r0, r4, lsr #26
    16f0:	00000e94 	muleq	r0, r4, lr
    16f4:	02500117 	subseq	r0, r0, #-1073741819	; 0xc0000005
    16f8:	00000074 	andeq	r0, r0, r4, ror r0
    16fc:	04c22200 	strbeq	r2, [r2], #512	; 0x200
    1700:	a2010000 	andge	r0, r1, #0, 0
    1704:	00002c0e 	andeq	r2, r0, lr, lsl #24
    1708:	008c9000 	addeq	r9, ip, r0
    170c:	00003c00 	andeq	r3, r0, r0, lsl #24
    1710:	379c0100 	ldrcc	r0, [ip, r0, lsl #2]
    1714:	23000009 	movwcs	r0, #9
    1718:	000004d1 	ldrdeq	r0, [r0], -r1
    171c:	3723a201 	strcc	sl, [r3, -r1, lsl #4]!
    1720:	fe000009 	cdp2	0, 0, cr0, cr0, cr9, {0}
    1724:	fa000008 	blx	174c <__code_start__-0x68b4>
    1728:	28000008 	stmdacs	r0, {r3}
    172c:	00000352 	andeq	r0, r0, r2, asr r3
    1730:	2530a201 	ldrcs	sl, [r0, #-513]!	; 0xfffffdff
    1734:	01000000 	mrseq	r0, (UNDEF: 0)
    1738:	05402551 	strbeq	r2, [r0, #-1361]	; 0xfffffaaf
    173c:	a3010000 	movwge	r0, #4096	; 0x1000
    1740:	00002509 	andeq	r2, r0, r9, lsl #10
    1744:	00092000 	andeq	r2, r9, r0
    1748:	00091c00 	andeq	r1, r9, r0, lsl #24
    174c:	00902700 	addseq	r2, r0, r0, lsl #14
    1750:	69260000 	stmdbvs	r6!, {}	; <UNPREDICTABLE>
    1754:	0ea40100 	fdveqs	f0, f4, f0
    1758:	00000025 	andeq	r0, r0, r5, lsr #32
    175c:	00000943 	andeq	r0, r0, r3, asr #18
    1760:	0000093f 	andeq	r0, r0, pc, lsr r9
    1764:	04080000 	streq	r0, [r8], #-0
    1768:	000000c5 	andeq	r0, r0, r5, asr #1
    176c:	0003cc29 	andeq	ip, r3, r9, lsr #24
    1770:	0d790100 	ldfeqe	f0, [r9, #-0]
    1774:	00008918 	andeq	r8, r0, r8, lsl r9
    1778:	000000ac 	andeq	r0, r0, ip, lsr #1
    177c:	0a4b9c01 	beq	12e8788 <__bss_end__+0x12dd488>
    1780:	54130000 	ldrpl	r0, [r3], #-0
    1784:	01000004 	tsteq	r0, r4
    1788:	0a4b0e85 	beq	12c51a4 <__bss_end__+0x12b9ea4>
    178c:	91030000 	mrsls	r0, (UNDEF: 3)
    1790:	c22a7fb0 	eorgt	r7, sl, #176, 30	; 0x2c0
    1794:	01000003 	tsteq	r0, r3
    1798:	0a5b0f96 	beq	16c55f8 <__bss_end__+0x16ba2f8>
    179c:	00000000 	andeq	r0, r0, r0
    17a0:	e4070800 	str	r0, [r7], #-2048	; 0xfffff800
    17a4:	01000003 	tsteq	r0, r3
    17a8:	0075159b 			; <UNDEFINED> instruction: 0x0075159b
    17ac:	b6070000 	strlt	r0, [r7], -r0
    17b0:	01000004 	tsteq	r0, r4
    17b4:	0075249b 			; <UNDEFINED> instruction: 0x0075249b
    17b8:	03070000 	movweq	r0, #28672	; 0x7000
    17bc:	01000005 	tsteq	r0, r5
    17c0:	0075159e 			; <UNDEFINED> instruction: 0x0075159e
    17c4:	42070000 	andmi	r0, r7, #0, 0
    17c8:	01000004 	tsteq	r0, r4
    17cc:	0075259e 			; <UNDEFINED> instruction: 0x0075259e
    17d0:	282b0000 	stmdacs	fp!, {}	; <UNPREDICTABLE>
    17d4:	24000089 	strcs	r0, [r0], #-137	; 0xffffff77
    17d8:	d5000000 	strle	r0, [r0, #-0]
    17dc:	26000009 	strcs	r0, [r0], -r9
    17e0:	7e010068 	cdpvc	0, 0, cr0, cr1, cr8, {3}
    17e4:	00047611 	andeq	r7, r4, r1, lsl r6
    17e8:	00096600 	andeq	r6, r9, r0, lsl #12
    17ec:	00096200 	andeq	r6, r9, r0, lsl #4
    17f0:	892c1800 	stmdbhi	ip!, {fp, ip}
    17f4:	0e7c0000 	cdpeq	0, 7, cr0, cr12, cr0, {0}
    17f8:	48180000 	ldmdami	r8, {}	; <UNPREDICTABLE>
    17fc:	94000089 	strls	r0, [r0], #-137	; 0xffffff77
    1800:	0000000e 	andeq	r0, r0, lr
    1804:	00895416 	addeq	r5, r9, r6, lsl r4
    1808:	000ea000 	andeq	sl, lr, r0
    180c:	0009ea00 	andeq	lr, r9, r0, lsl #20
    1810:	50011700 	andpl	r1, r1, r0, lsl #14
    1814:	7fb47b03 	svcvc	0x00b47b03
    1818:	89741600 	ldmdbhi	r4!, {r9, sl, ip}^
    181c:	0a610000 	beq	1841824 <__bss_end__+0x1836524>
    1820:	0a050000 	beq	141828 <__bss_end__+0x136528>
    1824:	01170000 	tsteq	r7, r0
    1828:	b47b0350 	ldrbtlt	r0, [fp], #-848	; 0xfffffcb0
    182c:	5101177f 	tstpl	r1, pc, ror r7
    1830:	006c7b02 	rsbeq	r7, ip, r2, lsl #22
    1834:	00898416 	addeq	r8, r9, r6, lsl r4
    1838:	000e5500 	andeq	r5, lr, r0, lsl #10
    183c:	000a2300 	andeq	r2, sl, r0, lsl #6
    1840:	50011700 	andpl	r1, r1, r0, lsl #14
    1844:	a7e80305 	strbge	r0, [r8, r5, lsl #6]!
    1848:	01170000 	tsteq	r7, r0
    184c:	47400352 	smlsldmi	r0, r0, r2, r3	; <UNPREDICTABLE>
    1850:	90160024 	andsls	r0, r6, r4, lsr #32
    1854:	61000089 	smlabbvs	r0, r9, r0, r0
    1858:	3800000a 	stmdacc	r0, {r1, r3}
    185c:	1700000a 	strne	r0, [r0, -sl]
    1860:	40035101 	andmi	r5, r3, r1, lsl #2
    1864:	18002447 	stmdane	r0, {r0, r1, r2, r6, sl, sp}
    1868:	0000899c 	muleq	r0, ip, r9
    186c:	00000a61 	andeq	r0, r0, r1, ror #20
    1870:	0089a818 	addeq	sl, r9, r8, lsl r8
    1874:	000a6100 	andeq	r6, sl, r0, lsl #2
    1878:	75100000 	ldrvc	r0, [r0, #-0]
    187c:	5b000000 	blpl	1884 <__code_start__-0x677c>
    1880:	1100000a 	tstne	r0, sl
    1884:	0000002c 	andeq	r0, r0, ip, lsr #32
    1888:	0408000f 	streq	r0, [r8], #-15
    188c:	00000075 	andeq	r0, r0, r5, ror r0
    1890:	00041229 	andeq	r1, r4, r9, lsr #4
    1894:	0d500100 	ldfeqe	f0, [r0, #-0]
    1898:	00008778 	andeq	r8, r0, r8, ror r7
    189c:	00000190 	muleq	r0, r0, r1
    18a0:	0c9f9c01 	ldceq	12, cr9, [pc], {1}
    18a4:	702c0000 	eorvc	r0, ip, r0
    18a8:	1c500100 	ldfnee	f0, [r0], {-0}
    18ac:	00000a5b 	andeq	r0, r0, fp, asr sl
    18b0:	00000992 	muleq	r0, r2, r9
    18b4:	00000984 	andeq	r0, r0, r4, lsl #19
    18b8:	0100652c 	tsteq	r0, ip, lsr #10
    18bc:	0a5b2950 	beq	16cbe04 <__bss_end__+0x16c0b04>
    18c0:	09fb0000 	ldmibeq	fp!, {}^	; <UNPREDICTABLE>
    18c4:	09ed0000 	stmibeq	sp!, {}^	; <UNPREDICTABLE>
    18c8:	99150000 	ldmdbls	r5, {}	; <UNPREDICTABLE>
    18cc:	af000001 	svcge	0x00000001
    18d0:	0500000c 	streq	r0, [r0, #-12]
    18d4:	00aacc03 	adceq	ip, sl, r3, lsl #24
    18d8:	88082b00 	stmdahi	r8, {r8, r9, fp, sp}
    18dc:	00d40000 	sbcseq	r0, r4, r0
    18e0:	0bd80000 	bleq	ff6018e8 <__bss_end__+0xff5f65e8>
    18e4:	69260000 	stmdbvs	r6!, {}	; <UNPREDICTABLE>
    18e8:	14580100 	ldrbne	r0, [r8], #-256	; 0xffffff00
    18ec:	00000a5b 	andeq	r0, r0, fp, asr sl
    18f0:	00000a58 	andeq	r0, r0, r8, asr sl
    18f4:	00000a56 	andeq	r0, r0, r6, asr sl
    18f8:	00001827 	andeq	r1, r0, r7, lsr #16
    18fc:	00622600 	rsbeq	r2, r2, r0, lsl #12
    1900:	76105a01 	ldrvc	r5, [r0], -r1, lsl #20
    1904:	6f000004 	svcvs	0x00000004
    1908:	6b00000a 	blvs	1938 <__code_start__-0x66c8>
    190c:	1c00000a 	stcne	0, cr0, [r0], {10}
    1910:	00000048 	andeq	r0, r0, r8, asr #32
    1914:	00000b88 	andeq	r0, r0, r8, lsl #23
    1918:	70786526 	rsbsvc	r6, r8, r6, lsr #10
    191c:	165d0100 	ldrbne	r0, [sp], -r0, lsl #2
    1920:	00000075 	andeq	r0, r0, r5, ror r0
    1924:	00000a91 	muleq	r0, r1, sl
    1928:	00000a8d 	andeq	r0, r0, sp, lsl #21
    192c:	00040e25 	andeq	r0, r4, r5, lsr #28
    1930:	165e0100 	ldrbne	r0, [lr], -r0, lsl #2
    1934:	00000062 	andeq	r0, r0, r2, rrx
    1938:	00000ab3 			; <UNDEFINED> instruction: 0x00000ab3
    193c:	00000aaf 	andeq	r0, r0, pc, lsr #21
    1940:	00882416 	addeq	r2, r8, r6, lsl r4
    1944:	000e5500 	andeq	r5, lr, r0, lsl #10
    1948:	000b2800 	andeq	r2, fp, r0, lsl #16
    194c:	50011700 	andpl	r1, r1, r0, lsl #14
    1950:	a7c80305 	strbge	r0, [r8, r5, lsl #6]
    1954:	16000000 	strne	r0, [r0], -r0
    1958:	00008870 	andeq	r8, r0, r0, ror r8
    195c:	00000eac 	andeq	r0, r0, ip, lsr #29
    1960:	00000b3c 	andeq	r0, r0, ip, lsr fp
    1964:	02500117 	subseq	r0, r0, #-1073741819	; 0xc0000005
    1968:	16000075 			; <UNDEFINED> instruction: 0x16000075
    196c:	00008888 	andeq	r8, r0, r8, lsl #17
    1970:	00000e55 	andeq	r0, r0, r5, asr lr
    1974:	00000b60 	andeq	r0, r0, r0, ror #22
    1978:	05500117 	ldrbeq	r0, [r0, #-279]	; 0xfffffee9
    197c:	00a79c03 	adceq	r9, r7, r3, lsl #24
    1980:	52011700 	andpl	r1, r1, #0, 14
    1984:	17007402 	strne	r7, [r0, -r2, lsl #8]
    1988:	02007d02 	andeq	r7, r0, #128	; 0x80
    198c:	16000076 			; <UNDEFINED> instruction: 0x16000076
    1990:	000088cc 	andeq	r8, r0, ip, asr #17
    1994:	00000a61 	andeq	r0, r0, r1, ror #20
    1998:	00000b74 	andeq	r0, r0, r4, ror fp
    199c:	02500117 	subseq	r0, r0, #-1073741819	; 0xc0000005
    19a0:	20000475 	andcs	r0, r0, r5, ror r4
    19a4:	000088d8 	ldrdeq	r8, [r0], -r8	; <UNPREDICTABLE>
    19a8:	00000e55 	andeq	r0, r0, r5, asr lr
    19ac:	05500117 	ldrbeq	r0, [r0, #-279]	; 0xfffffee9
    19b0:	00a7d803 	adceq	sp, r7, r3, lsl #16
    19b4:	2d000000 	stccs	0, cr0, [r0, #-0]
    19b8:	00000cb4 			; <UNDEFINED> instruction: 0x00000cb4
    19bc:	0000883c 	andeq	r8, r0, ip, lsr r8
    19c0:	00003000 	andeq	r3, r0, r0
    19c4:	145a0100 	ldrbne	r0, [sl], #-256	; 0xffffff00
    19c8:	000cc52e 	andeq	ip, ip, lr, lsr #10
    19cc:	00302700 	eorseq	r2, r0, r0, lsl #14
    19d0:	d12f0000 			; <UNDEFINED> instruction: 0xd12f0000
    19d4:	d500000c 	strle	r0, [r0, #-12]
    19d8:	d100000a 	tstle	r0, sl
    19dc:	1600000a 	strne	r0, [r0], -sl
    19e0:	00008844 	andeq	r8, r0, r4, asr #16
    19e4:	00000cdc 	ldrdeq	r0, [r0], -ip
    19e8:	00000bc4 	andeq	r0, r0, r4, asr #23
    19ec:	02500117 	subseq	r0, r0, #-1073741819	; 0xc0000005
    19f0:	20000075 	andcs	r0, r0, r5, ror r0
    19f4:	00008854 	andeq	r8, r0, r4, asr r8
    19f8:	00000eb8 			; <UNDEFINED> instruction: 0x00000eb8
    19fc:	02500117 	subseq	r0, r0, #-1073741819	; 0xc0000005
    1a00:	00000075 	andeq	r0, r0, r5, ror r0
    1a04:	16000000 	strne	r0, [r0], -r0
    1a08:	000087c4 	andeq	r8, r0, r4, asr #15
    1a0c:	00000e55 	andeq	r0, r0, r5, asr lr
    1a10:	00000c11 	andeq	r0, r0, r1, lsl ip
    1a14:	05500117 	ldrbeq	r0, [r0, #-279]	; 0xfffffee9
    1a18:	00a6f803 	adceq	pc, r6, r3, lsl #16
    1a1c:	51011700 	tstpl	r1, r0, lsl #14
    1a20:	a76c0305 	strbge	r0, [ip, -r5, lsl #6]!
    1a24:	01170000 	tsteq	r7, r0
    1a28:	cc030552 	cfstr32gt	mvfx0, [r3], {82}	; 0x52
    1a2c:	170000aa 	strne	r0, [r0, -sl, lsr #1]
    1a30:	08025301 	stmdaeq	r2, {r0, r8, r9, ip, lr}
    1a34:	7d021756 	stcvc	7, cr1, [r2, #-344]	; 0xfffffea8
    1a38:	8c030500 	cfstr32hi	mvfx0, [r3], {-0}
    1a3c:	000000a7 	andeq	r0, r0, r7, lsr #1
    1a40:	0087c818 	addeq	ip, r7, r8, lsl r8
    1a44:	000e6100 	andeq	r6, lr, r0, lsl #2
    1a48:	87e41600 	strbhi	r1, [r4, r0, lsl #12]!
    1a4c:	0e550000 	cdpeq	0, 5, cr0, cr5, cr0, {0}
    1a50:	0c530000 	mraeq	r0, r3, acc0
    1a54:	01170000 	tsteq	r7, r0
    1a58:	f8030550 			; <UNDEFINED> instruction: 0xf8030550
    1a5c:	170000a6 	strne	r0, [r0, -r6, lsr #1]
    1a60:	03055101 	movweq	r5, #20737	; 0x5101
    1a64:	0000a76c 	andeq	sl, r0, ip, ror #14
    1a68:	05520117 	ldrbeq	r0, [r2, #-279]	; 0xfffffee9
    1a6c:	00aacc03 	adceq	ip, sl, r3, lsl #24
    1a70:	53011700 	movwpl	r1, #5888	; 0x1700
    1a74:	17520802 	ldrbne	r0, [r2, -r2, lsl #16]
    1a78:	05007d02 	streq	r7, [r0, #-3330]	; 0xfffff2fe
    1a7c:	00a77403 	adceq	r7, r7, r3, lsl #8
    1a80:	e8180000 	ldmda	r8, {}	; <UNPREDICTABLE>
    1a84:	61000087 	smlabbvs	r0, r7, r0, r0
    1a88:	1600000e 	strne	r0, [r0], -lr
    1a8c:	00008804 	andeq	r8, r0, r4, lsl #16
    1a90:	00000e55 	andeq	r0, r0, r5, asr lr
    1a94:	00000c95 	muleq	r0, r5, ip
    1a98:	05500117 	ldrbeq	r0, [r0, #-279]	; 0xfffffee9
    1a9c:	00a6f803 	adceq	pc, r6, r3, lsl #16
    1aa0:	51011700 	tstpl	r1, r0, lsl #14
    1aa4:	a76c0305 	strbge	r0, [ip, -r5, lsl #6]!
    1aa8:	01170000 	tsteq	r7, r0
    1aac:	cc030552 	cfstr32gt	mvfx0, [r3], {82}	; 0x52
    1ab0:	170000aa 	strne	r0, [r0, -sl, lsr #1]
    1ab4:	08025301 	stmdaeq	r2, {r0, r8, r9, ip, lr}
    1ab8:	7d021755 	stcvc	7, cr1, [r2, #-340]	; 0xfffffeac
    1abc:	7c030500 	cfstr32vc	mvfx0, [r3], {-0}
    1ac0:	000000a7 	andeq	r0, r0, r7, lsr #1
    1ac4:	00880818 	addeq	r0, r8, r8, lsl r8
    1ac8:	000e6100 	andeq	r6, lr, r0, lsl #2
    1acc:	cc100000 	ldcgt	0, cr0, [r0], {-0}
    1ad0:	af000000 	svcge	0x00000000
    1ad4:	1100000c 	tstne	r0, ip
    1ad8:	0000002c 	andeq	r0, r0, ip, lsr #32
    1adc:	9f090004 	svcls	0x00090004
    1ae0:	3000000c 	andcc	r0, r0, ip
    1ae4:	00000472 	andeq	r0, r0, r2, ror r4
    1ae8:	76163c01 	ldrvc	r3, [r6], -r1, lsl #24
    1aec:	03000004 	movweq	r0, #4
    1af0:	00000cdc 	ldrdeq	r0, [r0], -ip
    1af4:	00061531 	andeq	r1, r6, r1, lsr r5
    1af8:	263c0100 	ldrtcs	r0, [ip], -r0, lsl #2
    1afc:	00000075 	andeq	r0, r0, r5, ror r0
    1b00:	01007032 	tsteq	r0, r2, lsr r0
    1b04:	02080b3e 	andeq	r0, r8, #63488	; 0xf800
    1b08:	24000000 	strcs	r0, [r0], #-0
    1b0c:	0000048e 	andeq	r0, r0, lr, lsl #9
    1b10:	250c2b01 	strcs	r2, [ip, #-2817]	; 0xfffff4ff
    1b14:	24000000 	strcs	r0, [r0], #-0
    1b18:	48000087 	stmdami	r0, {r0, r1, r2, r7}
    1b1c:	01000000 	mrseq	r0, (UNDEF: 0)
    1b20:	000d099c 	muleq	sp, ip, r9
    1b24:	00702c00 	rsbseq	r2, r0, r0, lsl #24
    1b28:	081a2b01 	ldmdaeq	sl, {r0, r8, r9, fp, sp}
    1b2c:	ff000002 			; <UNDEFINED> instruction: 0xff000002
    1b30:	f300000a 	vhadd.u8	d0, d0, d10
    1b34:	0000000a 	andeq	r0, r0, sl
    1b38:	0003a822 	andeq	sl, r3, r2, lsr #16
    1b3c:	07130100 	ldreq	r0, [r3, -r0, lsl #2]
    1b40:	00000208 	andeq	r0, r0, r8, lsl #4
    1b44:	00008bd0 	ldrdeq	r8, [r0], -r0
    1b48:	000000ac 	andeq	r0, r0, ip, lsr #1
    1b4c:	0e1f9c01 	cdpeq	12, 1, cr9, cr15, cr1, {0}
    1b50:	17230000 	strne	r0, [r3, -r0]!
    1b54:	01000004 	tsteq	r0, r4
    1b58:	00411113 	subeq	r1, r1, r3, lsl r1
    1b5c:	0b5e0000 	bleq	1781b64 <__bss_end__+0x1776864>
    1b60:	0b520000 	bleq	1481b68 <__bss_end__+0x1476868>
    1b64:	fa130000 	blx	4c1b6c <__bss_end__+0x4b686c>
    1b68:	01000003 	tsteq	r0, r3
    1b6c:	00251015 	eoreq	r1, r5, r5, lsl r0
    1b70:	03050000 	movweq	r0, #20480	; 0x5000
    1b74:	0000aef0 	strdeq	sl, [r0], -r0
    1b78:	00019915 	andeq	r9, r1, r5, lsl r9
    1b7c:	000caf00 	andeq	sl, ip, r0, lsl #30
    1b80:	e0030500 	and	r0, r3, r0, lsl #10
    1b84:	2b0000aa 	blcs	1e34 <__code_start__-0x61cc>
    1b88:	00008bf8 	strdeq	r8, [r0], -r8	; <UNPREDICTABLE>
    1b8c:	00000024 	andeq	r0, r0, r4, lsr #32
    1b90:	00000d92 	muleq	r0, r2, sp
    1b94:	00049625 	andeq	r9, r4, r5, lsr #12
    1b98:	121c0100 	andsne	r0, ip, #0
    1b9c:	0000002c 	andeq	r0, r0, ip, lsr #32
    1ba0:	00000baa 	andeq	r0, r0, sl, lsr #23
    1ba4:	00000ba8 	andeq	r0, r0, r8, lsr #23
    1ba8:	008c1420 	addeq	r1, ip, r0, lsr #8
    1bac:	000ec400 	andeq	ip, lr, r0, lsl #8
    1bb0:	50011700 	andpl	r1, r1, r0, lsl #14
    1bb4:	24404003 	strbcs	r4, [r0], #-3
    1bb8:	03510117 	cmpeq	r1, #-1073741819	; 0xc0000005
    1bbc:	00244040 	eoreq	r4, r4, r0, asr #32
    1bc0:	8c241600 	stchi	6, cr1, [r4], #-0
    1bc4:	0ed00000 	cdpeq	0, 13, cr0, cr0, cr0, {0}
    1bc8:	0da60000 	stceq	0, cr0, [r6]
    1bcc:	01170000 	tsteq	r7, r0
    1bd0:	00740250 	rsbseq	r0, r4, r0, asr r2
    1bd4:	8c481600 	mcrrhi	6, 0, r1, r8, cr0
    1bd8:	0e550000 	cdpeq	0, 5, cr0, cr5, cr0, {0}
    1bdc:	0dde0000 	ldcleq	0, cr0, [lr]
    1be0:	01170000 	tsteq	r7, r0
    1be4:	f8030550 			; <UNDEFINED> instruction: 0xf8030550
    1be8:	170000a6 	strne	r0, [r0, -r6, lsr #1]
    1bec:	03055101 	movweq	r5, #20737	; 0x5101
    1bf0:	0000a76c 	andeq	sl, r0, ip, ror #14
    1bf4:	05520117 	ldrbeq	r0, [r2, #-279]	; 0xfffffee9
    1bf8:	00aae003 	adceq	lr, sl, r3
    1bfc:	53011700 	movwpl	r1, #5888	; 0x1700
    1c00:	02174701 	andseq	r4, r7, #262144	; 0x40000
    1c04:	0305007d 	movweq	r0, #20605	; 0x507d
    1c08:	0000a98c 	andeq	sl, r0, ip, lsl #19
    1c0c:	8c4c1800 	mcrrhi	8, 0, r1, ip, cr0
    1c10:	0e610000 	cdpeq	0, 6, cr0, cr1, cr0, {0}
    1c14:	60160000 	andsvs	r0, r6, r0
    1c18:	5500008c 	strpl	r0, [r0, #-140]	; 0xffffff74
    1c1c:	1500000e 	strne	r0, [r0, #-14]
    1c20:	1700000e 	strne	r0, [r0, -lr]
    1c24:	03055001 	movweq	r5, #20481	; 0x5001
    1c28:	0000a99c 	muleq	r0, ip, r9
    1c2c:	05510117 	ldrbeq	r0, [r1, #-279]	; 0xfffffee9
    1c30:	00a76c03 	adceq	r6, r7, r3, lsl #24
    1c34:	52011700 	andpl	r1, r1, #0, 14
    1c38:	aae00305 	bge	ff802854 <__bss_end__+0xff7f7554>
    1c3c:	01170000 	tsteq	r7, r0
    1c40:	00490153 	subeq	r0, r9, r3, asr r1
    1c44:	008c6418 	addeq	r6, ip, r8, lsl r4
    1c48:	000e6100 	andeq	r6, lr, r0, lsl #2
    1c4c:	47300000 	ldrmi	r0, [r0, -r0]!
    1c50:	02000001 	andeq	r0, r0, #1, 0
    1c54:	01140b0d 	tsteq	r4, sp, lsl #22
    1c58:	55030000 	strpl	r0, [r3, #-0]
    1c5c:	3100000e 	tstcc	r0, lr
    1c60:	00000024 	andeq	r0, r0, r4, lsr #32
    1c64:	bf220d02 	svclt	0x00220d02
    1c68:	31000000 	mrscc	r0, (UNDEF: 0)
    1c6c:	00000194 	muleq	r0, r4, r1
    1c70:	bf340d02 	svclt	0x00340d02
    1c74:	31000000 	mrscc	r0, (UNDEF: 0)
    1c78:	00000015 	andeq	r0, r0, r5, lsl r0
    1c7c:	2c430d02 	mcrrcs	13, 0, r0, r3, cr2
    1c80:	00000000 	andeq	r0, r0, r0
    1c84:	00067c33 	andeq	r7, r6, r3, lsr ip
    1c88:	00067c00 	andeq	r7, r6, r0, lsl #24
    1c8c:	06280400 	strteq	r0, [r8], -r0, lsl #8
    1c90:	00004533 	andeq	r4, r0, r3, lsr r5
    1c94:	00004500 	andeq	r4, r0, r0, lsl #10
    1c98:	066e0400 	strbteq	r0, [lr], -r0, lsl #8
    1c9c:	0b9e0d34 	bleq	fe785174 <__bss_end__+0xfe779e74>
    1ca0:	65657773 	strbvs	r7, [r5, #-1907]!	; 0xfffff88d
    1ca4:	72665f70 	rsbvc	r5, r6, #112, 30	; 0x1c0
    1ca8:	33006565 	movwcc	r6, #1381	; 0x565
    1cac:	00000254 	andeq	r0, r0, r4, asr r2
    1cb0:	00000254 	andeq	r0, r0, r4, asr r2
    1cb4:	33082905 	movwcc	r2, #35077	; 0x8905
    1cb8:	000001d7 	ldrdeq	r0, [r0], -r7
    1cbc:	000001d7 	ldrdeq	r0, [r0], -r7
    1cc0:	33074d05 	movwcc	r4, #32005	; 0x7d05
    1cc4:	000002fb 	strdeq	r0, [r0], -fp
    1cc8:	000002fb 	strdeq	r0, [r0], -fp
    1ccc:	33082c05 	movwcc	r2, #35845	; 0x8c05
    1cd0:	0000044f 	andeq	r0, r0, pc, asr #8
    1cd4:	0000044f 	andeq	r0, r0, pc, asr #8
    1cd8:	33067601 	movwcc	r7, #26113	; 0x6601
    1cdc:	00000325 	andeq	r0, r0, r5, lsr #6
    1ce0:	00000325 	andeq	r0, r0, r5, lsr #6
    1ce4:	33073505 	movwcc	r3, #29957	; 0x7505
    1ce8:	000002dc 	ldrdeq	r0, [r0], -ip
    1cec:	000002dc 	ldrdeq	r0, [r0], -ip
    1cf0:	33084805 	movwcc	r4, #34821	; 0x8805
    1cf4:	000004e1 	andeq	r0, r0, r1, ror #9
    1cf8:	000004e1 	andeq	r0, r0, r1, ror #9
    1cfc:	33068204 	movwcc	r8, #25092	; 0x6204
    1d00:	000004d9 	ldrdeq	r0, [r0], -r9
    1d04:	000004d9 	ldrdeq	r0, [r0], -r9
    1d08:	00077b04 	andeq	r7, r7, r4, lsl #22
    1d0c:	00000216 	andeq	r0, r0, r6, lsl r2
    1d10:	09050004 	stmdbeq	r5, {r2}
    1d14:	01040000 	mrseq	r0, (UNDEF: 4)
    1d18:	00000554 	andeq	r0, r0, r4, asr r5
    1d1c:	00063c0c 	andeq	r3, r6, ip, lsl #24
    1d20:	00061a00 	andeq	r1, r6, r0, lsl #20
    1d24:	008f2000 	addeq	r2, pc, r0
    1d28:	0000a000 	andeq	sl, r0, r0
    1d2c:	000cf600 	andeq	pc, ip, r0, lsl #12
    1d30:	05040200 	streq	r0, [r4, #-512]	; 0xfffffe00
    1d34:	00746e69 	rsbseq	r6, r4, r9, ror #28
    1d38:	b0070403 	andlt	r0, r7, r3, lsl #8
    1d3c:	03000001 	movweq	r0, #1
    1d40:	01540601 	cmpeq	r4, r1, lsl #12
    1d44:	02030000 	andeq	r0, r3, #0, 0
    1d48:	0001de05 	andeq	sp, r1, r5, lsl #28
    1d4c:	05040300 	streq	r0, [r4, #-768]	; 0xfffffd00
    1d50:	000001c2 	andeq	r0, r0, r2, asr #3
    1d54:	bd050803 	stclt	8, cr0, [r5, #-12]
    1d58:	03000001 	movweq	r0, #1
    1d5c:	01520801 	cmpeq	r2, r1, lsl #16
    1d60:	02030000 	andeq	r0, r3, #0, 0
    1d64:	00005207 	andeq	r5, r0, r7, lsl #4
    1d68:	07040300 	streq	r0, [r4, -r0, lsl #6]
    1d6c:	000001ab 	andeq	r0, r0, fp, lsr #3
    1d70:	a6070803 	strge	r0, [r7], -r3, lsl #16
    1d74:	04000001 	streq	r0, [r0], #-1
    1d78:	00000025 	andeq	r0, r0, r5, lsr #32
    1d7c:	0000007a 	andeq	r0, r0, sl, ror r0
    1d80:	00002505 	andeq	r2, r0, r5, lsl #10
    1d84:	cb060000 	blgt	181d8c <__bss_end__+0x176a8c>
    1d88:	02000001 	andeq	r0, r0, #1, 0
    1d8c:	00860e1c 	addeq	r0, r6, ip, lsl lr
    1d90:	04070000 	streq	r0, [r7], #-0
    1d94:	0000006b 	andeq	r0, r0, fp, rrx
    1d98:	00002504 	andeq	r2, r0, r4, lsl #10
    1d9c:	00009b00 	andeq	r9, r0, r0, lsl #22
    1da0:	009b0500 	addseq	r0, fp, r0, lsl #10
    1da4:	07000000 	streq	r0, [r0, -r0]
    1da8:	0000a804 	andeq	sl, r0, r4, lsl #16
    1dac:	08010300 	stmdaeq	r1, {r8, r9}
    1db0:	0000015b 	andeq	r0, r0, fp, asr r1
    1db4:	0000a108 	andeq	sl, r0, r8, lsl #2
    1db8:	06ba0600 	ldrteq	r0, [sl], r0, lsl #12
    1dbc:	21020000 	mrscs	r0, (UNDEF: 2)
    1dc0:	0000b90e 	andeq	fp, r0, lr, lsl #18
    1dc4:	8c040700 	stchi	7, cr0, [r4], {-0}
    1dc8:	09000000 	stmdbeq	r0, {}	; <UNPREDICTABLE>
    1dcc:	00000655 	andeq	r0, r0, r5, asr r6
    1dd0:	9b0d4201 	blls	3525dc <__bss_end__+0x3472dc>
    1dd4:	01000000 	mrseq	r0, (UNDEF: 0)
    1dd8:	000000f7 	strdeq	r0, [r0], -r7
    1ddc:	00060c0a 	andeq	r0, r6, sl, lsl #24
    1de0:	1e420100 	dvfnes	f0, f2, f0
    1de4:	0000002c 	andeq	r0, r0, ip, lsr #32
    1de8:	0005460b 	andeq	r4, r5, fp, lsl #12
    1dec:	0e430100 	dvfeqs	f0, f3, f0
    1df0:	0000002c 	andeq	r0, r0, ip, lsr #32
    1df4:	054b0b0c 	strbeq	r0, [fp, #-2828]	; 0xfffff4f4
    1df8:	45010000 	strmi	r0, [r1, #-0]
    1dfc:	00002c12 	andeq	r2, r0, r2, lsl ip
    1e00:	0d000000 	stceq	0, cr0, [r0, #-0]
    1e04:	000002a6 	andeq	r0, r0, r6, lsr #5
    1e08:	25051d01 	strcs	r1, [r5, #-3329]	; 0xfffff2ff
    1e0c:	20000000 	andcs	r0, r0, r0
    1e10:	8000008f 	andhi	r0, r0, pc, lsl #1
    1e14:	01000000 	mrseq	r0, (UNDEF: 0)
    1e18:	0001be9c 	muleq	r1, ip, lr
    1e1c:	064e0e00 	strbeq	r0, [lr], -r0, lsl #28
    1e20:	1e010000 	cdpne	0, 0, cr0, cr1, cr0, {0}
    1e24:	0001be0f 	andeq	fp, r1, pc, lsl #28
    1e28:	000bc200 	andeq	ip, fp, r0, lsl #4
    1e2c:	000bc000 	andeq	ip, fp, r0
    1e30:	8f280f00 	svchi	0x00280f00
    1e34:	005c0000 	subseq	r0, ip, r0
    1e38:	69100000 	ldmdbvs	r0, {}	; <UNPREDICTABLE>
    1e3c:	0e210100 	sufeqs	f0, f1, f0
    1e40:	00000025 	andeq	r0, r0, r5, lsr #32
    1e44:	00000bd9 	ldrdeq	r0, [r0], -r9
    1e48:	00000bd5 	ldrdeq	r0, [r0], -r5
    1e4c:	0000f011 	andeq	pc, r0, r1, lsl r0	; <UNPREDICTABLE>
    1e50:	63701000 	cmnvs	r0, #0, 0
    1e54:	12220100 	eorne	r0, r2, #0
    1e58:	0000002c 	andeq	r0, r0, ip, lsr #32
    1e5c:	00000bfa 	strdeq	r0, [r0], -sl
    1e60:	00000bf8 	strdeq	r0, [r0], -r8
    1e64:	0000bf12 	andeq	fp, r0, r2, lsl pc
    1e68:	008f5c00 	addeq	r5, pc, r0, lsl #24
    1e6c:	01100100 	tsteq	r0, r0, lsl #2
    1e70:	23010000 	movwcs	r0, #4096	; 0x1000
    1e74:	0001a509 	andeq	sl, r1, r9, lsl #10
    1e78:	00d01300 	sbcseq	r1, r0, r0, lsl #6
    1e7c:	0c0f0000 	stceq	0, cr0, [pc], {-0}
    1e80:	0c0d0000 	stceq	0, cr0, [sp], {-0}
    1e84:	10110000 	andsne	r0, r1, r0
    1e88:	14000001 	strne	r0, [r0], #-1
    1e8c:	000000dc 	ldrdeq	r0, [r0], -ip
    1e90:	00000c26 	andeq	r0, r0, r6, lsr #24
    1e94:	00000c22 	andeq	r0, r0, r2, lsr #24
    1e98:	0000e815 	andeq	lr, r0, r5, lsl r8
    1e9c:	00013800 	andeq	r3, r1, r0, lsl #16
    1ea0:	00e91400 	rsceq	r1, r9, r0, lsl #8
    1ea4:	0c4b0000 	mareq	acc0, r0, fp
    1ea8:	0c450000 	mareq	acc0, r0, r5
    1eac:	00000000 	andeq	r0, r0, r0
    1eb0:	8f781600 	svchi	0x00781600
    1eb4:	020d0000 	andeq	r0, sp, #0, 0
    1eb8:	01170000 	tsteq	r7, r0
    1ebc:	00750250 	rsbseq	r0, r5, r0, asr r2
    1ec0:	02510117 	subseq	r0, r1, #-1073741819	; 0xc0000005
    1ec4:	00000077 	andeq	r0, r0, r7, ror r0
    1ec8:	04070000 	streq	r0, [r7], #-0
    1ecc:	0000002c 	andeq	r0, r0, ip, lsr #32
    1ed0:	0000bf18 	andeq	fp, r0, r8, lsl pc
    1ed4:	008fa000 	addeq	sl, pc, r0
    1ed8:	00002000 	andeq	r2, r0, r0
    1edc:	0d9c0100 	ldfeqs	f0, [ip]
    1ee0:	13000002 	movwne	r0, #2
    1ee4:	000000d0 	ldrdeq	r0, [r0], -r0	; <UNPREDICTABLE>
    1ee8:	00000c8b 	andeq	r0, r0, fp, lsl #25
    1eec:	00000c85 	andeq	r0, r0, r5, lsl #25
    1ef0:	0000dc14 	andeq	sp, r0, r4, lsl ip
    1ef4:	000cbf00 	andeq	fp, ip, r0, lsl #30
    1ef8:	000cb900 	andeq	fp, ip, r0, lsl #18
    1efc:	00e81900 	rsceq	r1, r8, r0, lsl #18
    1f00:	8fac0000 	svchi	0x00ac0000
    1f04:	00080000 	andeq	r0, r8, r0
    1f08:	e9140000 	ldmdb	r4, {}	; <UNPREDICTABLE>
    1f0c:	f3000000 	vhadd.u8	d0, d0, d0
    1f10:	ed00000c 	stc	0, cr0, [r0, #-48]	; 0xffffffd0
    1f14:	0000000c 	andeq	r0, r0, ip
    1f18:	067c1a00 	ldrbteq	r1, [ip], -r0, lsl #20
    1f1c:	067c0000 	ldrbteq	r0, [ip], -r0
    1f20:	28020000 	stmdacs	r2, {}	; <UNPREDICTABLE>
    1f24:	01400006 	cmpeq	r0, r6
    1f28:	00040000 	andeq	r0, r4, r0
    1f2c:	00000a70 	andeq	r0, r0, r0, ror sl
    1f30:	05540104 	ldrbeq	r0, [r4, #-260]	; 0xfffffefc
    1f34:	640c0000 	strvs	r0, [ip], #-0
    1f38:	1a000006 	bne	1f58 <__code_start__-0x60a8>
    1f3c:	c0000006 	andgt	r0, r0, r6
    1f40:	7800008f 	stmdavc	r0, {r0, r1, r2, r3, r7}
    1f44:	30000000 	andcc	r0, r0, r0
    1f48:	0200000e 	andeq	r0, r0, #14, 0
    1f4c:	6e690504 	cdpvs	5, 6, cr0, cr9, cr4, {0}
    1f50:	5d030074 	stcpl	0, cr0, [r3, #-464]	; 0xfffffe30
    1f54:	03000006 	movweq	r0, #6
    1f58:	003817d1 	ldrsbteq	r1, [r8], -r1
    1f5c:	04040000 	streq	r0, [r4], #-0
    1f60:	0001b007 	andeq	fp, r1, r7
    1f64:	06010400 	streq	r0, [r1], -r0, lsl #8
    1f68:	00000154 	andeq	r0, r0, r4, asr r1
    1f6c:	de050204 	cdple	2, 0, cr0, cr5, cr4, {0}
    1f70:	04000001 	streq	r0, [r0], #-1
    1f74:	01c20504 	biceq	r0, r2, r4, lsl #10
    1f78:	08040000 	stmdaeq	r4, {}	; <UNPREDICTABLE>
    1f7c:	0001bd05 	andeq	fp, r1, r5, lsl #26
    1f80:	08010400 	stmdaeq	r1, {sl}
    1f84:	00000152 	andeq	r0, r0, r2, asr r1
    1f88:	52070204 	andpl	r0, r7, #4, 4	; 0x40000000
    1f8c:	04000000 	streq	r0, [r0], #-0
    1f90:	01ab0704 			; <UNDEFINED> instruction: 0x01ab0704
    1f94:	08040000 	stmdaeq	r4, {}	; <UNPREDICTABLE>
    1f98:	0001a607 	andeq	sl, r1, r7, lsl #12
    1f9c:	00250500 	eoreq	r0, r5, r0, lsl #10
    1fa0:	00860000 	addeq	r0, r6, r0
    1fa4:	25060000 	strcs	r0, [r6, #-0]
    1fa8:	00000000 	andeq	r0, r0, r0
    1fac:	0001cb07 	andeq	ip, r1, r7, lsl #22
    1fb0:	0e1c0200 	cdpeq	2, 1, cr0, cr12, cr0, {0}
    1fb4:	00000092 	muleq	r0, r2, r0
    1fb8:	00770408 	rsbseq	r0, r7, r8, lsl #8
    1fbc:	25050000 	strcs	r0, [r5, #-0]
    1fc0:	a7000000 	strge	r0, [r0, -r0]
    1fc4:	06000000 	streq	r0, [r0], -r0
    1fc8:	000000a7 	andeq	r0, r0, r7, lsr #1
    1fcc:	b4040800 	strlt	r0, [r4], #-2048	; 0xfffff800
    1fd0:	04000000 	streq	r0, [r0], #-0
    1fd4:	015b0801 	cmpeq	fp, r1, lsl #16
    1fd8:	ad090000 	stcge	0, cr0, [r9, #-0]
    1fdc:	07000000 	streq	r0, [r0, -r0]
    1fe0:	000006ba 			; <UNDEFINED> instruction: 0x000006ba
    1fe4:	c50e2102 	strgt	r2, [lr, #-258]	; 0xfffffefe
    1fe8:	08000000 	stmdaeq	r0, {}	; <UNPREDICTABLE>
    1fec:	00009804 	andeq	r9, r0, r4, lsl #16
    1ff0:	01f20a00 	mvnseq	r0, r0, lsl #20
    1ff4:	04010000 	streq	r0, [r1], #-0
    1ff8:	00013b07 	andeq	r3, r1, r7, lsl #22
    1ffc:	008fc000 	addeq	ip, pc, r0
    2000:	00007800 	andeq	r7, r0, r0, lsl #16
    2004:	3b9c0100 	blcc	fe70240c <__bss_end__+0xfe6f710c>
    2008:	0b000001 	bleq	2014 <__code_start__-0x5fec>
    200c:	0100705f 	qaddeq	r7, pc, r0	; <UNPREDICTABLE>
    2010:	013b1404 	teqeq	fp, r4, lsl #8
    2014:	50010000 	andpl	r0, r1, r0
    2018:	0100630c 	tsteq	r0, ip, lsl #6
    201c:	00251c04 	eoreq	r1, r5, r4, lsl #24
    2020:	0d3d0000 	ldceq	0, cr0, [sp, #-0]
    2024:	0d390000 	ldceq	0, cr0, [r9, #-0]
    2028:	6e0c0000 	cdpvs	0, 0, cr0, cr12, cr0, {0}
    202c:	26040100 	strcs	r0, [r4], -r0, lsl #2
    2030:	0000002c 	andeq	r0, r0, ip, lsr #32
    2034:	00000d62 	andeq	r0, r0, r2, ror #26
    2038:	00000d5e 	andeq	r0, r0, lr, asr sp
    203c:	0100700d 	tsteq	r0, sp
    2040:	013d0b05 	teqeq	sp, r5, lsl #22
    2044:	0d910000 	ldceq	0, cr0, [r1]
    2048:	0d830000 	stceq	0, cr0, [r3]
    204c:	650d0000 	strvs	r0, [sp, #-0]
    2050:	14050100 	strne	r0, [r5], #-256	; 0xffffff00
    2054:	0000013d 	andeq	r0, r0, sp, lsr r1
    2058:	00000dee 	andeq	r0, r0, lr, ror #27
    205c:	00000dec 	andeq	r0, r0, ip, ror #27
    2060:	08040e00 	stmdaeq	r4, {r9, sl, fp}
    2064:	0000ad04 	andeq	sl, r0, r4, lsl #26
    2068:	019d0000 	orrseq	r0, sp, r0
    206c:	00040000 	andeq	r0, r4, r0
    2070:	00000b3c 	andeq	r0, r0, ip, lsr fp
    2074:	05540104 	ldrbeq	r0, [r4, #-260]	; 0xfffffefc
    2078:	970c0000 	strls	r0, [ip, -r0]
    207c:	1a000006 	bne	209c <__code_start__-0x5f64>
    2080:	38000006 	stmdacc	r0, {r1, r2}
    2084:	58000090 	stmdapl	r0, {r4, r7}
    2088:	55000000 	strpl	r0, [r0, #-0]
    208c:	0200000f 	andeq	r0, r0, #15, 0
    2090:	00000683 	andeq	r0, r0, r3, lsl #13
    2094:	311b2802 	tstcc	fp, r2, lsl #16
    2098:	03000000 	movweq	r0, #0
    209c:	000006a7 	andeq	r0, r0, r7, lsr #13
    20a0:	48000404 	stmdami	r0, {r2, sl}
    20a4:	04000000 	streq	r0, [r0], #-0
    20a8:	00000692 	muleq	r0, r2, r6
    20ac:	00000048 	andeq	r0, r0, r8, asr #32
    20b0:	04050000 	streq	r0, [r5], #-0
    20b4:	0006a902 	andeq	sl, r6, r2, lsl #18
    20b8:	18630200 	stmdane	r3!, {r9}^
    20bc:	00000025 	andeq	r0, r0, r5, lsr #32
    20c0:	69050406 	stmdbvs	r5, {r1, r2, sl}
    20c4:	0700746e 	streq	r7, [r0, -lr, ror #8]
    20c8:	01b00704 	lslseq	r0, r4, #14
    20cc:	01070000 	mrseq	r0, (UNDEF: 7)
    20d0:	00015406 	andeq	r5, r1, r6, lsl #8
    20d4:	05020700 	streq	r0, [r2, #-1792]	; 0xfffff900
    20d8:	000001de 	ldrdeq	r0, [r0], -lr
    20dc:	c2050407 	andgt	r0, r5, #117440512	; 0x7000000
    20e0:	07000001 	streq	r0, [r0, -r1]
    20e4:	01bd0508 			; <UNDEFINED> instruction: 0x01bd0508
    20e8:	01070000 	mrseq	r0, (UNDEF: 7)
    20ec:	00015208 	andeq	r5, r1, r8, lsl #4
    20f0:	07020700 	streq	r0, [r2, -r0, lsl #14]
    20f4:	00000052 	andeq	r0, r0, r2, asr r0
    20f8:	ab070407 	blge	1c311c <__bss_end__+0x1b7e1c>
    20fc:	07000001 	streq	r0, [r0, -r1]
    2100:	01a60708 			; <UNDEFINED> instruction: 0x01a60708
    2104:	56080000 	strpl	r0, [r8], -r0
    2108:	ab000000 	blge	2110 <__code_start__-0x5ef0>
    210c:	09000000 	stmdbeq	r0, {}	; <UNPREDICTABLE>
    2110:	00000056 	andeq	r0, r0, r6, asr r0
    2114:	01cb0a00 	biceq	r0, fp, r0, lsl #20
    2118:	1c030000 	stcne	0, cr0, [r3], {-0}
    211c:	0000b70e 	andeq	fp, r0, lr, lsl #14
    2120:	9c040b00 			; <UNDEFINED> instruction: 0x9c040b00
    2124:	08000000 	stmdaeq	r0, {}	; <UNPREDICTABLE>
    2128:	00000056 	andeq	r0, r0, r6, asr r0
    212c:	000000cc 	andeq	r0, r0, ip, asr #1
    2130:	0000cc09 	andeq	ip, r0, r9, lsl #24
    2134:	040b0000 	streq	r0, [fp], #-0
    2138:	000000d9 	ldrdeq	r0, [r0], -r9
    213c:	5b080107 	blpl	202560 <__bss_end__+0x1f7260>
    2140:	0c000001 	stceq	0, cr0, [r0], {1}
    2144:	000000d2 	ldrdeq	r0, [r0], -r2
    2148:	0006ba0a 	andeq	fp, r6, sl, lsl #20
    214c:	0e210300 	cdpeq	3, 2, cr0, cr1, cr0, {0}
    2150:	000000ea 	andeq	r0, r0, sl, ror #1
    2154:	00bd040b 	adcseq	r0, sp, fp, lsl #8
    2158:	7c0d0000 	stcvc	0, cr0, [sp], {-0}
    215c:	01000006 	tsteq	r0, r6
    2160:	00560506 	subseq	r0, r6, r6, lsl #10
    2164:	90380000 	eorsls	r0, r8, r0
    2168:	00580000 	subseq	r0, r8, r0
    216c:	9c010000 	stcls	0, cr0, [r1], {-0}
    2170:	00000183 	andeq	r0, r0, r3, lsl #3
    2174:	746d660e 	strbtvc	r6, [sp], #-1550	; 0xfffff9f2
    2178:	18060100 	stmdane	r6, {r8}
    217c:	000000cc 	andeq	r0, r0, ip, asr #1
    2180:	0f709102 	svceq	0x00709102
    2184:	66756210 			; <UNDEFINED> instruction: 0x66756210
    2188:	11080100 	mrsne	r0, (UNDEF: 24)
    218c:	00000183 	andeq	r0, r0, r3, lsl #3
    2190:	aef40305 	cdpge	3, 15, cr0, cr4, cr5, {0}
    2194:	74110000 	ldrvc	r0, [r1], #-0
    2198:	01000006 	tsteq	r0, r6
    219c:	004a0d09 	subeq	r0, sl, r9, lsl #26
    21a0:	91020000 	mrsls	r0, (UNDEF: 2)
    21a4:	7a73125c 	bvc	1cc6b1c <__bss_end__+0x1cbb81c>
    21a8:	0d0c0100 	stfeqs	f0, [ip, #-0]
    21ac:	00000056 	andeq	r0, r0, r6, asr r0
    21b0:	00000e07 	andeq	r0, r0, r7, lsl #28
    21b4:	00000e01 	andeq	r0, r0, r1, lsl #28
    21b8:	00906013 	addseq	r6, r0, r3, lsl r0
    21bc:	00019400 	andeq	r9, r1, r0, lsl #8
    21c0:	00017600 	andeq	r7, r1, r0, lsl #12
    21c4:	50011400 	andpl	r1, r1, r0, lsl #8
    21c8:	14007502 	strne	r7, [r0], #-1282	; 0xfffffafe
    21cc:	0a035101 	beq	d65d8 <__bss_end__+0xcb2d8>
    21d0:	01140400 	tsteq	r4, r0, lsl #8
    21d4:	48910352 	ldmmi	r1, {r1, r4, r6, r8, r9}
    21d8:	53011406 	movwpl	r1, #5126	; 0x1406
    21dc:	004c9102 	subeq	r9, ip, r2, lsl #2
    21e0:	00907415 	addseq	r7, r0, r5, lsl r4
    21e4:	50011400 	andpl	r1, r1, r0, lsl #8
    21e8:	00007502 	andeq	r7, r0, r2, lsl #10
    21ec:	00d21600 	sbcseq	r1, r2, r0, lsl #12
    21f0:	01940000 	orrseq	r0, r4, r0
    21f4:	5d170000 	ldcpl	0, cr0, [r7, #-0]
    21f8:	ff000000 			; <UNDEFINED> instruction: 0xff000000
    21fc:	79180003 	ldmdbvc	r8, {r0, r1}
    2200:	79000006 	stmdbvc	r0, {r1, r2}
    2204:	05000006 	streq	r0, [r0, #-6]
    2208:	f3000502 	vrshl.u8	d0, d2, d0
    220c:	04000000 	streq	r0, [r0], #-0
    2210:	000c7e00 	andeq	r7, ip, r0, lsl #28
    2214:	54010400 	strpl	r0, [r1], #-1024	; 0xfffffc00
    2218:	0c000005 	stceq	0, cr0, [r0], {5}
    221c:	000006bf 			; <UNDEFINED> instruction: 0x000006bf
    2220:	0000061a 	andeq	r0, r0, sl, lsl r6
    2224:	00009090 	muleq	r0, r0, r0
    2228:	00000038 	andeq	r0, r0, r8, lsr r0
    222c:	00001079 	andeq	r1, r0, r9, ror r0
    2230:	69050402 	stmdbvs	r5, {r1, sl}
    2234:	0300746e 	movweq	r7, #1134	; 0x46e
    2238:	01b00704 	lslseq	r0, r4, #14
    223c:	01030000 	mrseq	r0, (UNDEF: 3)
    2240:	00015406 	andeq	r5, r1, r6, lsl #8
    2244:	05020300 	streq	r0, [r2, #-768]	; 0xfffffd00
    2248:	000001de 	ldrdeq	r0, [r0], -lr
    224c:	c2050403 	andgt	r0, r5, #50331648	; 0x3000000
    2250:	03000001 	movweq	r0, #1
    2254:	01bd0508 			; <UNDEFINED> instruction: 0x01bd0508
    2258:	01030000 	mrseq	r0, (UNDEF: 3)
    225c:	00015208 	andeq	r5, r1, r8, lsl #4
    2260:	07020300 	streq	r0, [r2, -r0, lsl #6]
    2264:	00000052 	andeq	r0, r0, r2, asr r0
    2268:	ab070403 	blge	1c327c <__bss_end__+0x1b7f7c>
    226c:	03000001 	movweq	r0, #1
    2270:	01a60708 			; <UNDEFINED> instruction: 0x01a60708
    2274:	25040000 	strcs	r0, [r4, #-0]
    2278:	7a000000 	bvc	2280 <__code_start__-0x5d80>
    227c:	05000000 	streq	r0, [r0, #-0]
    2280:	00000025 	andeq	r0, r0, r5, lsr #32
    2284:	01cb0600 	biceq	r0, fp, r0, lsl #12
    2288:	1c020000 	stcne	0, cr0, [r2], {-0}
    228c:	0000860e 	andeq	r8, r0, lr, lsl #12
    2290:	6b040700 	blvs	103e98 <__bss_end__+0xf8b98>
    2294:	04000000 	streq	r0, [r0], #-0
    2298:	00000025 	andeq	r0, r0, r5, lsr #32
    229c:	0000009b 	muleq	r0, fp, r0
    22a0:	00009b05 	andeq	r9, r0, r5, lsl #22
    22a4:	04070000 	streq	r0, [r7], #-0
    22a8:	000000a8 	andeq	r0, r0, r8, lsr #1
    22ac:	5b080103 	blpl	2026c0 <__bss_end__+0x1f73c0>
    22b0:	08000001 	stmdaeq	r0, {r0}
    22b4:	000000a1 	andeq	r0, r0, r1, lsr #1
    22b8:	0006ba06 	andeq	fp, r6, r6, lsl #20
    22bc:	0e210200 	cdpeq	2, 2, cr0, cr1, cr0, {0}
    22c0:	000000b9 	strheq	r0, [r0], -r9
    22c4:	008c0407 	addeq	r0, ip, r7, lsl #8
    22c8:	ad090000 	stcge	0, cr0, [r9, #-0]
    22cc:	01000000 	mrseq	r0, (UNDEF: 0)
    22d0:	0305070c 	movweq	r0, #22284	; 0x570c
    22d4:	0000aeb8 			; <UNDEFINED> instruction: 0x0000aeb8
    22d8:	0006b10a 	andeq	fp, r6, sl, lsl #2
    22dc:	05040100 	streq	r0, [r4, #-256]	; 0xffffff00
    22e0:	00000025 	andeq	r0, r0, r5, lsr #32
    22e4:	00009090 	muleq	r0, r0, r0
    22e8:	00000038 	andeq	r0, r0, r8, lsr r0
    22ec:	700b9c01 	andvc	r9, fp, r1, lsl #24
    22f0:	1f040100 	svcne	0x00040100
    22f4:	0000009b 	muleq	r0, fp, r0
    22f8:	00000e38 	andeq	r0, r0, r8, lsr lr
    22fc:	00000e30 	andeq	r0, r0, r0, lsr lr
    2300:	0c7f0000 	ldcleq	0, cr0, [pc], #-0	; 2308 <__code_start__-0x5cf8>
    2304:	00040000 	andeq	r0, r4, r0
    2308:	00000d1c 	andeq	r0, r0, ip, lsl sp
    230c:	05540104 	ldrbeq	r0, [r4, #-260]	; 0xfffffefc
    2310:	de0c0000 	cdple	0, 0, cr0, cr12, cr0, {0}
    2314:	1a000006 	bne	2334 <__code_start__-0x5ccc>
    2318:	c8000006 	stmdagt	r0, {r1, r2}
    231c:	b4000090 	strlt	r0, [r0], #-144	; 0xffffff70
    2320:	1d000009 	stcne	0, cr0, [r0, #-36]	; 0xffffffdc
    2324:	02000011 	andeq	r0, r0, #17, 0
    2328:	01a60708 			; <UNDEFINED> instruction: 0x01a60708
    232c:	04020000 	streq	r0, [r2], #-0
    2330:	0001b007 	andeq	fp, r1, r7
    2334:	05040300 	streq	r0, [r4, #-768]	; 0xfffffd00
    2338:	00746e69 	rsbseq	r6, r4, r9, ror #28
    233c:	54060102 	strpl	r0, [r6], #-258	; 0xfffffefe
    2340:	02000001 	andeq	r0, r0, #1, 0
    2344:	01de0502 	bicseq	r0, lr, r2, lsl #10
    2348:	04020000 	streq	r0, [r2], #-0
    234c:	0001c205 	andeq	ip, r1, r5, lsl #4
    2350:	05080200 	streq	r0, [r8, #-512]	; 0xfffffe00
    2354:	000001bd 			; <UNDEFINED> instruction: 0x000001bd
    2358:	52080102 	andpl	r0, r8, #-2147483648	; 0x80000000
    235c:	02000001 	andeq	r0, r0, #1, 0
    2360:	00520702 	subseq	r0, r2, r2, lsl #14
    2364:	ca040000 	bgt	10236c <__bss_end__+0xf706c>
    2368:	02000002 	andeq	r0, r0, #2, 0
    236c:	00701934 	rsbseq	r1, r0, r4, lsr r9
    2370:	04020000 	streq	r0, [r2], #-0
    2374:	0001ab07 	andeq	sl, r1, r7, lsl #22
    2378:	06d50400 	ldrbeq	r0, [r5], r0, lsl #8
    237c:	37020000 	strcc	r0, [r2, -r0]
    2380:	00002519 	andeq	r2, r0, r9, lsl r5
    2384:	00330500 	eorseq	r0, r3, r0, lsl #10
    2388:	00920000 	addseq	r0, r2, r0
    238c:	33060000 	movwcc	r0, #24576	; 0x6000
    2390:	00000000 	andeq	r0, r0, r0
    2394:	0001cb07 	andeq	ip, r1, r7, lsl #22
    2398:	0e1c0300 	cdpeq	3, 1, cr0, cr12, cr0, {0}
    239c:	0000009e 	muleq	r0, lr, r0
    23a0:	00830408 	addeq	r0, r3, r8, lsl #8
    23a4:	33050000 	movwcc	r0, #20480	; 0x5000
    23a8:	b3000000 	movwlt	r0, #0
    23ac:	06000000 	streq	r0, [r0], -r0
    23b0:	000000b3 	strheq	r0, [r0], -r3
    23b4:	c0040800 	andgt	r0, r4, r0, lsl #16
    23b8:	02000000 	andeq	r0, r0, #0, 0
    23bc:	015b0801 	cmpeq	fp, r1, lsl #16
    23c0:	b9090000 	stmdblt	r9, {}	; <UNPREDICTABLE>
    23c4:	07000000 	streq	r0, [r0, -r0]
    23c8:	000006ba 			; <UNDEFINED> instruction: 0x000006ba
    23cc:	d10e2103 	tstle	lr, r3, lsl #2
    23d0:	08000000 	stmdaeq	r0, {}	; <UNPREDICTABLE>
    23d4:	0000a404 	andeq	sl, r0, r4, lsl #8
    23d8:	06f10700 	ldrbteq	r0, [r1], r0, lsl #14
    23dc:	0b040000 	bleq	1023e4 <__bss_end__+0xf70e4>
    23e0:	0000b90d 	andeq	fp, r0, sp, lsl #18
    23e4:	073b0700 	ldreq	r0, [fp, -r0, lsl #14]!
    23e8:	0c040000 	stceq	0, cr0, [r4], {-0}
    23ec:	0000b90d 	andeq	fp, r0, sp, lsl #18
    23f0:	03e40700 	mvneq	r0, #0, 14
    23f4:	0d040000 	stceq	0, cr0, [r4, #-0]
    23f8:	0000b90d 	andeq	fp, r0, sp, lsl #18
    23fc:	04b60700 	ldrteq	r0, [r6], #1792	; 0x700
    2400:	0e040000 	cdpeq	0, 0, cr0, cr4, cr0, {0}
    2404:	0000b90d 	andeq	fp, r0, sp, lsl #18
    2408:	05030700 	streq	r0, [r3, #-1792]	; 0xfffff900
    240c:	0f040000 	svceq	0x00040000
    2410:	0000b90d 	andeq	fp, r0, sp, lsl #18
    2414:	04420700 	strbeq	r0, [r2], #-1792	; 0xfffff900
    2418:	10040000 	andne	r0, r4, r0
    241c:	0000b90d 	andeq	fp, r0, sp, lsl #18
    2420:	07640700 	strbeq	r0, [r4, -r0, lsl #14]!
    2424:	11040000 	mrsne	r0, (UNDEF: 4)
    2428:	0000b90d 	andeq	fp, r0, sp, lsl #18
    242c:	02bb0700 	adcseq	r0, fp, #0, 14
    2430:	12040000 	andne	r0, r4, #0, 0
    2434:	0000b90d 	andeq	fp, r0, sp, lsl #18
    2438:	06830400 	streq	r0, [r3], r0, lsl #8
    243c:	28050000 	stmdacs	r5, {}	; <UNPREDICTABLE>
    2440:	0001431b 	andeq	r4, r1, fp, lsl r3
    2444:	06a70a00 	strteq	r0, [r7], r0, lsl #20
    2448:	06040000 	streq	r0, [r4], -r0
    244c:	00015a00 	andeq	r5, r1, r0, lsl #20
    2450:	06920b00 	ldreq	r0, [r2], r0, lsl #22
    2454:	015a0000 	cmpeq	sl, r0
    2458:	00000000 	andeq	r0, r0, r0
    245c:	a904040c 	stmdbge	r4, {r2, r3, sl}
    2460:	05000006 	streq	r0, [r0, #-6]
    2464:	01371863 	teqeq	r7, r3, ror #16
    2468:	790d0000 	stmdbvc	sp, {}	; <UNPREDICTABLE>
    246c:	01000006 	tsteq	r0, r6
    2470:	00330581 	eorseq	r0, r3, r1, lsl #11
    2474:	94500000 	ldrbls	r0, [r0], #-0
    2478:	062c0000 	strteq	r0, [ip], -r0
    247c:	9c010000 	stcls	0, cr0, [r1], {-0}
    2480:	0000086a 	andeq	r0, r0, sl, ror #16
    2484:	6675620e 	ldrbtvs	r6, [r5], -lr, lsl #4
    2488:	15810100 	strne	r0, [r1, #256]	; 0x100
    248c:	0000086a 	andeq	r0, r0, sl, ror #16
    2490:	00000e78 	andeq	r0, r0, r8, ror lr
    2494:	00000e6e 	andeq	r0, r0, lr, ror #28
    2498:	01006e0e 	tsteq	r0, lr, lsl #28
    249c:	00331e81 	eorseq	r1, r3, r1, lsl #29
    24a0:	0ec50000 	cdpeq	0, 12, cr0, cr5, cr0, {0}
    24a4:	0ebd0000 	cdpeq	0, 11, cr0, cr13, cr0, {0}
    24a8:	660e0000 	strvs	r0, [lr], -r0
    24ac:	0100746d 	tsteq	r0, sp, ror #8
    24b0:	00b32d81 	adcseq	r2, r3, r1, lsl #27
    24b4:	0f170000 	svceq	0x00170000
    24b8:	0eff0000 	cdpeq	0, 15, cr0, cr15, cr0, {0}
    24bc:	740f0000 	strvc	r0, [pc], #-0	; 24c4 <__code_start__-0x5b3c>
    24c0:	01000006 	tsteq	r0, r6
    24c4:	015c3a81 	cmpeq	ip, r1, lsl #21
    24c8:	0fd90000 	svceq	0x00d90000
    24cc:	0fab0000 	svceq	0x00ab0000
    24d0:	70100000 	andsvc	r0, r0, r0
    24d4:	08820100 	stmeq	r2, {r8}
    24d8:	0000086a 	andeq	r0, r0, sl, ror #16
    24dc:	0000112c 	andeq	r1, r0, ip, lsr #2
    24e0:	00001116 	andeq	r1, r0, r6, lsl r1
    24e4:	01006510 	tsteq	r0, r0, lsl r5
    24e8:	086a1282 	stmdaeq	sl!, {r1, r7, r9, ip}^
    24ec:	11b50000 			; <UNDEFINED> instruction: 0x11b50000
    24f0:	11b30000 			; <UNDEFINED> instruction: 0x11b30000
    24f4:	78100000 	ldmdavc	r0, {}	; <UNPREDICTABLE>
    24f8:	83010030 	movwhi	r0, #4144	; 0x1030
    24fc:	0000640e 	andeq	r6, r0, lr, lsl #8
    2500:	0011ce00 	andseq	ip, r1, r0, lsl #28
    2504:	0011c800 	andseq	ip, r1, r0, lsl #16
    2508:	31781000 	cmncc	r8, r0
    250c:	11830100 	orrne	r0, r3, r0, lsl #2
    2510:	00000064 	andeq	r0, r0, r4, rrx
    2514:	000011fd 	strdeq	r1, [r0], -sp
    2518:	000011f7 	strdeq	r1, [r0], -r7
    251c:	00071d11 	andeq	r1, r7, r1, lsl sp
    2520:	11860100 	orrne	r0, r6, r0, lsl #2
    2524:	000000b3 	strheq	r0, [r0], -r3
    2528:	0000122e 	andeq	r1, r0, lr, lsr #4
    252c:	00001226 	andeq	r1, r0, r6, lsr #4
    2530:	00019912 	andeq	r9, r1, r2, lsl r9
    2534:	00088000 	andeq	r8, r8, r0
    2538:	88030500 	stmdahi	r3, {r8, sl}
    253c:	130000ac 	movwne	r0, #172	; 0xac
    2540:	000001c0 	andeq	r0, r0, r0, asr #3
    2544:	01007310 	tsteq	r0, r0, lsl r3
    2548:	086a0a91 	stmdaeq	sl!, {r0, r4, r7, r9, fp}^
    254c:	12740000 	rsbsne	r0, r4, #0, 0
    2550:	12680000 	rsbne	r0, r8, #0, 0
    2554:	6e140000 	cdpvs	0, 1, cr0, cr4, cr0, {0}
    2558:	01006d75 	tsteq	r0, r5, ror sp
    255c:	08850d91 	stmeq	r5, {r0, r4, r7, r8, sl, fp}
    2560:	91030000 	mrsls	r0, (UNDEF: 3)
    2564:	71157dd8 			; <UNDEFINED> instruction: 0x71157dd8
    2568:	01000007 	tsteq	r0, r7
    256c:	08851791 	stmeq	r5, {r0, r4, r7, r8, r9, sl, ip}
    2570:	91030000 	mrsls	r0, (UNDEF: 3)
    2574:	00117ed8 			; <UNDEFINED> instruction: 0x00117ed8
    2578:	01000007 	tsteq	r0, r7
    257c:	002c0d92 	mlaeq	ip, r2, sp, r0
    2580:	12c60000 	sbcne	r0, r6, #0, 0
    2584:	12be0000 	adcsne	r0, lr, #0, 0
    2588:	e8160000 	ldmda	r6, {}	; <UNPREDICTABLE>
    258c:	f1000001 	cps	#1
    2590:	10000004 	andne	r0, r0, r4
    2594:	01007974 	tsteq	r0, r4, ror r9
    2598:	00b31d9e 	umlalseq	r1, r3, lr, sp
    259c:	13070000 	movwne	r0, #28672	; 0x7000
    25a0:	12fb0000 	rscsne	r0, fp, #0, 0
    25a4:	78140000 	ldmdavc	r4, {}	; <UNPREDICTABLE>
    25a8:	a2010078 	andge	r0, r1, #120, 0	; 0x78
    25ac:	0000771a 	andeq	r7, r0, sl, lsl r7
    25b0:	93590600 	cmpls	r9, #0, 12
    25b4:	04935b04 	ldreq	r5, [r3], #2820	; 0xb04
    25b8:	0095dc17 	addseq	sp, r5, r7, lsl ip
    25bc:	000c3a00 	andeq	r3, ip, r0, lsl #20
    25c0:	0002d800 	andeq	sp, r2, r0, lsl #16
    25c4:	50011800 	andpl	r1, r1, r0, lsl #16
    25c8:	18007602 	stmdane	r0, {r1, r9, sl, ip, sp, lr}
    25cc:	03055101 	movweq	r5, #20737	; 0x5101
    25d0:	0000ab7c 	andeq	sl, r0, ip, ror fp
    25d4:	01520118 	cmpeq	r2, r8, lsl r1
    25d8:	f4170033 			; <UNDEFINED> instruction: 0xf4170033
    25dc:	3a000095 	bcc	2838 <__code_start__-0x57c8>
    25e0:	fa00000c 	blx	2618 <__code_start__-0x59e8>
    25e4:	18000002 	stmdane	r0, {r1}
    25e8:	76025001 	strvc	r5, [r2], -r1
    25ec:	51011800 	tstpl	r1, r0, lsl #16
    25f0:	ab900305 	blge	fe40320c <__bss_end__+0xfe3f7f0c>
    25f4:	01180000 	tsteq	r8, r0
    25f8:	00330152 	eorseq	r0, r3, r2, asr r1
    25fc:	00961817 	addseq	r1, r6, r7, lsl r8
    2600:	000c4600 	andeq	r4, ip, r0, lsl #12
    2604:	00031700 	andeq	r1, r3, r0, lsl #14
    2608:	50011800 	andpl	r1, r1, r0, lsl #16
    260c:	ab800305 	blge	fe003228 <__bss_end__+0xfdff7f28>
    2610:	01180000 	tsteq	r8, r0
    2614:	007b0251 	rsbseq	r0, fp, r1, asr r2
    2618:	96241700 	strtls	r1, [r4], -r0, lsl #14
    261c:	0c460000 	mareq	acc0, r0, r6
    2620:	03340000 	teqeq	r4, #0, 0
    2624:	01180000 	tsteq	r8, r0
    2628:	88030550 	stmdahi	r3, {r4, r6, r8, sl}
    262c:	180000ab 	stmdane	r0, {r0, r1, r3, r5, r7}
    2630:	79025101 	stmdbvc	r2, {r0, r8, ip, lr}
    2634:	34170000 	ldrcc	r0, [r7], #-0
    2638:	3a000096 	bcc	2898 <__code_start__-0x5768>
    263c:	5600000c 	strpl	r0, [r0], -ip
    2640:	18000003 	stmdane	r0, {r0, r1}
    2644:	76025001 	strvc	r5, [r2], -r1
    2648:	51011800 	tstpl	r1, r0, lsl #16
    264c:	ab7c0305 	blge	1f03268 <__bss_end__+0x1ef7f68>
    2650:	01180000 	tsteq	r8, r0
    2654:	00330152 	eorseq	r0, r3, r2, asr r1
    2658:	00966417 	addseq	r6, r6, r7, lsl r4
    265c:	000aa400 	andeq	sl, sl, r0, lsl #8
    2660:	00038300 	andeq	r8, r3, r0, lsl #6
    2664:	50011800 	andpl	r1, r1, r0, lsl #16
    2668:	01184001 	tsteq	r8, r1
    266c:	d0910351 	addsle	r0, r1, r1, asr r3
    2670:	5201187d 	andpl	r1, r1, #8192000	; 0x7d0000
    2674:	18007b02 	stmdane	r0, {r1, r8, r9, fp, ip, sp, lr}
    2678:	75025301 	strvc	r5, [r2, #-769]	; 0xfffffcff
    267c:	7d021800 	stcvc	8, cr1, [r2, #-0]
    2680:	00760200 	rsbseq	r0, r6, r0, lsl #4
    2684:	96841700 	strls	r1, [r4], r0, lsl #14
    2688:	0aa40000 	beq	fe902690 <__bss_end__+0xfe8f7390>
    268c:	03aa0000 			; <UNDEFINED> instruction: 0x03aa0000
    2690:	01180000 	tsteq	r8, r0
    2694:	18400150 	stmdane	r0, {r4, r6, r8}^
    2698:	91035101 	tstls	r3, r1, lsl #2
    269c:	01187ed0 			; <UNDEFINED> instruction: 0x01187ed0
    26a0:	00790252 	rsbseq	r0, r9, r2, asr r2
    26a4:	007d0218 	rsbseq	r0, sp, r8, lsl r2
    26a8:	00007602 	andeq	r7, r0, r2, lsl #12
    26ac:	00969417 	addseq	r9, r6, r7, lsl r4
    26b0:	000c5200 	andeq	r5, ip, r0, lsl #4
    26b4:	0003c600 	andeq	ip, r3, r0, lsl #12
    26b8:	50011800 	andpl	r1, r1, r0, lsl #16
    26bc:	7dd09103 	ldfvcp	f1, [r0, #12]
    26c0:	03510118 	cmpeq	r1, #6
    26c4:	007ed291 			; <UNDEFINED> instruction: 0x007ed291
    26c8:	0098d817 	addseq	sp, r8, r7, lsl r8
    26cc:	000c3a00 	andeq	r3, ip, r0, lsl #20
    26d0:	0003e800 	andeq	lr, r3, r0, lsl #16
    26d4:	50011800 	andpl	r1, r1, r0, lsl #16
    26d8:	18007602 	stmdane	r0, {r1, r9, sl, ip, sp, lr}
    26dc:	03055101 	movweq	r5, #20737	; 0x5101
    26e0:	0000ab90 	muleq	r0, r0, fp
    26e4:	01520118 	cmpeq	r2, r8, lsl r1
    26e8:	fc170033 	ldc2	0, cr0, [r7], {51}	; 0x33
    26ec:	a4000098 	strge	r0, [r0], #-152	; 0xffffff68
    26f0:	1500000a 	strne	r0, [r0, #-10]
    26f4:	18000004 	stmdane	r0, {r2}
    26f8:	3a015001 	bcc	56704 <__bss_end__+0x4b404>
    26fc:	03510118 	cmpeq	r1, #6
    2700:	187dd091 	ldmdane	sp!, {r0, r4, r7, ip, lr, pc}^
    2704:	7b025201 	blvc	96f10 <__bss_end__+0x8bc10>
    2708:	53011800 	movwpl	r1, #6144	; 0x1800
    270c:	18007502 	stmdane	r0, {r1, r8, sl, ip, sp, lr}
    2710:	02007d02 	andeq	r7, r0, #128	; 0x80
    2714:	17000076 	smlsdxne	r0, r6, r0, r0
    2718:	0000991c 	andeq	r9, r0, ip, lsl r9
    271c:	00000aa4 	andeq	r0, r0, r4, lsr #21
    2720:	0000043c 	andeq	r0, r0, ip, lsr r4
    2724:	01500118 	cmpeq	r0, r8, lsl r1
    2728:	5101183a 	tstpl	r1, sl, lsr r8
    272c:	7ed09103 	atnvcs	f1, f3
    2730:	02520118 	subseq	r0, r2, #6
    2734:	02180079 	andseq	r0, r8, #121, 0	; 0x79
    2738:	7602007d 			; <UNDEFINED> instruction: 0x7602007d
    273c:	28170000 	ldmdacs	r7, {}	; <UNPREDICTABLE>
    2740:	5e000099 	mcrpl	0, 0, r0, cr0, cr9, {4}
    2744:	5a00000c 	bpl	277c <__code_start__-0x5884>
    2748:	18000004 	stmdane	r0, {r2}
    274c:	91035001 	tstls	r3, r1
    2750:	01187dd0 			; <UNDEFINED> instruction: 0x01187dd0
    2754:	98030551 	stmdals	r3, {r0, r4, r6, r8, sl}
    2758:	000000a9 	andeq	r0, r0, r9, lsr #1
    275c:	00993c17 	addseq	r3, r9, r7, lsl ip
    2760:	000c6a00 	andeq	r6, ip, r0, lsl #20
    2764:	00047600 	andeq	r7, r4, r0, lsl #12
    2768:	50011800 	andpl	r1, r1, r0, lsl #16
    276c:	7dd09103 	ldfvcp	f1, [r0, #12]
    2770:	03510118 	cmpeq	r1, #6
    2774:	007ed091 			; <UNDEFINED> instruction: 0x007ed091
    2778:	00994819 	addseq	r4, r9, r9, lsl r8
    277c:	000c5200 	andeq	r5, ip, r0, lsl #4
    2780:	9a0c1700 	bls	308388 <__bss_end__+0x2fd088>
    2784:	0c460000 	mareq	acc0, r0, r6
    2788:	04a80000 	strteq	r0, [r8], #0
    278c:	01180000 	tsteq	r8, r0
    2790:	f8030550 			; <UNDEFINED> instruction: 0xf8030550
    2794:	180000a6 	stmdane	r0, {r1, r2, r5, r7}
    2798:	03055101 	movweq	r5, #20737	; 0x5101
    279c:	0000ab30 	andeq	sl, r0, r0, lsr fp
    27a0:	05520118 	ldrbeq	r0, [r2, #-280]	; 0xfffffee8
    27a4:	00ac8803 	adceq	r8, ip, r3, lsl #16
    27a8:	10190000 	andsne	r0, r9, r0
    27ac:	7600009a 			; <UNDEFINED> instruction: 0x7600009a
    27b0:	1700000c 	strne	r0, [r0, -ip]
    27b4:	00009a28 	andeq	r9, r0, r8, lsr #20
    27b8:	00000c46 	andeq	r0, r0, r6, asr #24
    27bc:	000004e7 	andeq	r0, r0, r7, ror #9
    27c0:	05500118 	ldrbeq	r0, [r0, #-280]	; 0xfffffee8
    27c4:	00abd003 	adceq	sp, fp, r3
    27c8:	51011800 	tstpl	r1, r0, lsl #16
    27cc:	ab300305 	blge	c033e8 <__bss_end__+0xbf80e8>
    27d0:	01180000 	tsteq	r8, r0
    27d4:	88030552 	stmdahi	r3, {r1, r4, r6, r8, sl}
    27d8:	180000ac 	stmdane	r0, {r2, r3, r5, r7}
    27dc:	08025301 	stmdaeq	r2, {r0, r8, r9, ip, lr}
    27e0:	7d0218b6 	stcvc	8, cr1, [r2, #-728]	; 0xfffffd28
    27e4:	00760200 	rsbseq	r0, r6, r0, lsl #4
    27e8:	9a2c1900 	bls	b08bf0 <__bss_end__+0xafd8f0>
    27ec:	0c760000 	ldcleq	0, cr0, [r6], #-0
    27f0:	1a000000 	bne	27f8 <__code_start__-0x5808>
    27f4:	000009e3 	andeq	r0, r0, r3, ror #19
    27f8:	000094dc 	ldrdeq	r9, [r0], -ip
    27fc:	02100004 	andseq	r0, r0, #4, 0
    2800:	94010000 	strls	r0, [r1], #-0
    2804:	0005150a 	andeq	r1, r5, sl, lsl #10
    2808:	09f41b00 	ldmibeq	r4!, {r8, r9, fp, ip}^
    280c:	13630000 	cmnne	r3, #0, 0
    2810:	135f0000 	cmpne	pc, #0, 0
    2814:	1a000000 	bne	281c <__code_start__-0x57e4>
    2818:	00000895 	muleq	r0, r5, r8
    281c:	000096c4 	andeq	r9, r0, r4, asr #13
    2820:	02300001 	eorseq	r0, r0, #1, 0
    2824:	dc010000 	stcle	0, cr0, [r1], {-0}
    2828:	00064b09 	andeq	r4, r6, r9, lsl #22
    282c:	08be1b00 	ldmeq	lr!, {r8, r9, fp, ip}
    2830:	13910000 	orrsne	r0, r1, #0, 0
    2834:	138b0000 	orrne	r0, fp, #0, 0
    2838:	e01b0000 	ands	r0, fp, r0
    283c:	c6000008 	strgt	r0, [r0], -r8
    2840:	c0000013 	andgt	r0, r0, r3, lsl r0
    2844:	1b000013 	blne	2898 <__code_start__-0x5768>
    2848:	000008d4 	ldrdeq	r0, [r0], -r4
    284c:	000013f8 	strdeq	r1, [r0], -r8
    2850:	000013f2 	strdeq	r1, [r0], -r2
    2854:	0008c81c 	andeq	ip, r8, ip, lsl r8
    2858:	08b21b00 	ldmeq	r2!, {r8, r9, fp, ip}
    285c:	14290000 	strtne	r0, [r9], #-0
    2860:	14210000 	strtne	r0, [r1], #-0
    2864:	a61b0000 	ldrge	r0, [fp], -r0
    2868:	6c000008 	stcvs	0, cr0, [r0], {8}
    286c:	66000014 			; <UNDEFINED> instruction: 0x66000014
    2870:	13000014 	movwne	r0, #20
    2874:	00000230 	andeq	r0, r0, r0, lsr r2
    2878:	0008ec1d 	andeq	lr, r8, sp, lsl ip
    287c:	d8910300 	ldmle	r1, {r8, r9}
    2880:	08f81e7e 	ldmeq	r8!, {r1, r2, r3, r4, r5, r6, r9, sl, fp, ip}^
    2884:	14a60000 	strtne	r0, [r6], #0
    2888:	14980000 	ldrne	r0, [r8], #0
    288c:	021f0000 	andseq	r0, pc, #0, 0
    2890:	1a000009 	bne	28bc <__code_start__-0x5744>
    2894:	000009a3 	andeq	r0, r0, r3, lsr #19
    2898:	000096d0 	ldrdeq	r9, [r0], -r0
    289c:	02600004 	rsbeq	r0, r0, #4, 0
    28a0:	7c010000 	stcvc	0, cr0, [r1], {-0}
    28a4:	0005e209 	andeq	lr, r5, r9, lsl #4
    28a8:	09ca1b00 	stmibeq	sl, {r8, r9, fp, ip}^
    28ac:	15100000 	ldrne	r0, [r0, #-0]
    28b0:	150a0000 	strne	r0, [sl, #-0]
    28b4:	be1b0000 	cdplt	0, 1, cr0, cr11, cr0, {0}
    28b8:	45000009 	strmi	r0, [r0, #-9]
    28bc:	39000015 	stmdbcc	r0, {r0, r2, r4}
    28c0:	1b000015 	blne	291c <__code_start__-0x56e4>
    28c4:	000009b4 			; <UNDEFINED> instruction: 0x000009b4
    28c8:	000015ab 	andeq	r1, r0, fp, lsr #11
    28cc:	0000159b 	muleq	r0, fp, r5
    28d0:	00026013 	andeq	r6, r2, r3, lsl r0
    28d4:	09d61e00 	ldmibeq	r6, {r9, sl, fp, ip}^
    28d8:	16280000 	strtne	r0, [r8], -r0
    28dc:	161a0000 	ldrne	r0, [sl], -r0
    28e0:	00000000 	andeq	r0, r0, r0
    28e4:	00094f20 	andeq	r4, r9, r0, lsr #30
    28e8:	00979800 	addseq	r9, r7, r0, lsl #16
    28ec:	90000200 	andls	r0, r0, r0, lsl #4
    28f0:	01000002 	tsteq	r0, r2
    28f4:	801b097c 	andshi	r0, fp, ip, ror r9
    28f8:	88000009 	stmdahi	r0, {r0, r3}
    28fc:	82000016 	andhi	r0, r0, #22, 0
    2900:	1b000016 	blne	2960 <__code_start__-0x56a0>
    2904:	00000976 	andeq	r0, r0, r6, ror r9
    2908:	000016be 			; <UNDEFINED> instruction: 0x000016be
    290c:	000016b4 			; <UNDEFINED> instruction: 0x000016b4
    2910:	00096c1b 	andeq	r6, r9, fp, lsl ip
    2914:	00170d00 	andseq	r0, r7, r0, lsl #26
    2918:	00170900 	andseq	r0, r7, r0, lsl #18
    291c:	09601b00 	stmdbeq	r0!, {r8, r9, fp, ip}^
    2920:	173d0000 	ldrne	r0, [sp, -r0]!
    2924:	172f0000 	strne	r0, [pc, -r0]!
    2928:	90130000 	andsls	r0, r3, r0
    292c:	1e000002 	cdpne	0, 0, cr0, cr0, cr2, {0}
    2930:	0000098c 	andeq	r0, r0, ip, lsl #19
    2934:	000017a2 	andeq	r1, r0, r2, lsr #15
    2938:	000017a0 	andeq	r1, r0, r0, lsr #15
    293c:	0009981e 	andeq	r9, r9, lr, lsl r8
    2940:	0017bc00 	andseq	fp, r7, r0, lsl #24
    2944:	0017b600 	andseq	fp, r7, r0, lsl #12
    2948:	00000000 	andeq	r0, r0, r0
    294c:	08951a00 	ldmeq	r5, {r9, fp, ip}
    2950:	97d40000 	ldrbls	r0, [r4, r0]
    2954:	00000000 	andeq	r0, r0, r0
    2958:	000002c0 	andeq	r0, r0, r0, asr #5
    295c:	8909d601 	stmdbhi	r9, {r0, r9, sl, ip, lr, pc}
    2960:	1b000007 	blne	2984 <__code_start__-0x567c>
    2964:	000008be 			; <UNDEFINED> instruction: 0x000008be
    2968:	000017ef 	andeq	r1, r0, pc, ror #15
    296c:	000017eb 	andeq	r1, r0, fp, ror #15
    2970:	0008e01b 	andeq	lr, r8, fp, lsl r0
    2974:	00181500 	andseq	r1, r8, r0, lsl #10
    2978:	00181100 	andseq	r1, r8, r0, lsl #2
    297c:	08d41b00 	ldmeq	r4, {r8, r9, fp, ip}^
    2980:	18390000 	ldmdane	r9!, {}	; <UNPREDICTABLE>
    2984:	18350000 	ldmdane	r5!, {}	; <UNPREDICTABLE>
    2988:	c81c0000 	ldmdagt	ip, {}	; <UNPREDICTABLE>
    298c:	1b000008 	blne	29b4 <__code_start__-0x564c>
    2990:	000008b2 			; <UNDEFINED> instruction: 0x000008b2
    2994:	0000185d 	andeq	r1, r0, sp, asr r8
    2998:	00001857 	andeq	r1, r0, r7, asr r8
    299c:	0008a61b 	andeq	sl, r8, fp, lsl r6
    29a0:	00189000 	andseq	r9, r8, r0
    29a4:	00188c00 	andseq	r8, r8, r0, lsl #24
    29a8:	02c01300 	sbceq	r1, r0, #0, 6
    29ac:	ec1d0000 	ldc	0, cr0, [sp], {-0}
    29b0:	03000008 	movweq	r0, #8
    29b4:	1e7ed891 	mrcne	8, 3, sp, cr14, cr1, {4}
    29b8:	000008f8 	strdeq	r0, [r0], -r8
    29bc:	000018ba 			; <UNDEFINED> instruction: 0x000018ba
    29c0:	000018b0 			; <UNDEFINED> instruction: 0x000018b0
    29c4:	0009021e 	andeq	r0, r9, lr, lsl r2
    29c8:	0018ff00 	andseq	pc, r8, r0, lsl #30
    29cc:	0018fb00 	andseq	pc, r8, r0, lsl #22
    29d0:	09a31a00 	stmibeq	r3!, {r9, fp, ip}
    29d4:	97f00000 	ldrbls	r0, [r0, r0]!
    29d8:	00030000 	andeq	r0, r3, r0
    29dc:	000002e0 	andeq	r0, r0, r0, ror #5
    29e0:	20097c01 	andcs	r7, r9, r1, lsl #24
    29e4:	1b000007 	blne	2a08 <__code_start__-0x55f8>
    29e8:	000009ca 	andeq	r0, r0, sl, asr #19
    29ec:	00001921 	andeq	r1, r0, r1, lsr #18
    29f0:	0000191d 	andeq	r1, r0, sp, lsl r9
    29f4:	0009be1b 	andeq	fp, r9, fp, lsl lr
    29f8:	00194300 	andseq	r4, r9, r0, lsl #6
    29fc:	00193f00 	andseq	r3, r9, r0, lsl #30
    2a00:	09b41b00 	ldmibeq	r4!, {r8, r9, fp, ip}
    2a04:	196d0000 	stmdbne	sp!, {}^	; <UNPREDICTABLE>
    2a08:	19610000 	stmdbne	r1!, {}^	; <UNPREDICTABLE>
    2a0c:	e0130000 	ands	r0, r3, r0
    2a10:	1e000002 	cdpne	0, 0, cr0, cr0, cr2, {0}
    2a14:	000009d6 	ldrdeq	r0, [r0], -r6
    2a18:	000019c9 	andeq	r1, r0, r9, asr #19
    2a1c:	000019bd 			; <UNDEFINED> instruction: 0x000019bd
    2a20:	4f200000 	svcmi	0x00200000
    2a24:	78000009 	stmdavc	r0, {r0, r3}
    2a28:	02000098 	andeq	r0, r0, #152, 0	; 0x98
    2a2c:	00030800 	andeq	r0, r3, r0, lsl #16
    2a30:	097c0100 	ldmdbeq	ip!, {r8}^
    2a34:	0009801b 	andeq	r8, r9, fp, lsl r0
    2a38:	001a1900 	andseq	r1, sl, r0, lsl #18
    2a3c:	001a1500 	andseq	r1, sl, r0, lsl #10
    2a40:	09761b00 	ldmdbeq	r6!, {r8, r9, fp, ip}^
    2a44:	1a410000 	bne	1042a4c <__bss_end__+0x103774c>
    2a48:	1a370000 	bne	dc2a50 <__bss_end__+0xdb7750>
    2a4c:	6c1b0000 	ldcvs	0, cr0, [fp], {-0}
    2a50:	8d000009 	stchi	0, cr0, [r0, #-36]	; 0xffffffdc
    2a54:	8900001a 	stmdbhi	r0, {r1, r3, r4}
    2a58:	1b00001a 	blne	2ac8 <__code_start__-0x5538>
    2a5c:	00000960 	andeq	r0, r0, r0, ror #18
    2a60:	00001abb 			; <UNDEFINED> instruction: 0x00001abb
    2a64:	00001aaf 	andeq	r1, r0, pc, lsr #21
    2a68:	00030813 	andeq	r0, r3, r3, lsl r8
    2a6c:	098c1e00 	stmibeq	ip, {r9, sl, fp, ip}
    2a70:	1b150000 	blne	542a78 <__bss_end__+0x537778>
    2a74:	1b110000 	blne	442a7c <__bss_end__+0x43777c>
    2a78:	981e0000 	ldmdals	lr, {}	; <UNPREDICTABLE>
    2a7c:	3b000009 	blcc	2aa8 <__code_start__-0x5558>
    2a80:	3700001b 	smladcc	r0, fp, r0, r0
    2a84:	0000001b 	andeq	r0, r0, fp, lsl r0
    2a88:	17000000 	strne	r0, [r0, -r0]
    2a8c:	000095a4 	andeq	r9, r0, r4, lsr #11
    2a90:	00000aa4 	andeq	r0, r0, r4, lsr #21
    2a94:	000007af 	andeq	r0, r0, pc, lsr #15
    2a98:	01500118 	cmpeq	r0, r8, lsl r1
    2a9c:	51011840 	tstpl	r1, r0, asr #16
    2aa0:	7dd09103 	ldfvcp	f1, [r0, #12]
    2aa4:	02530118 	subseq	r0, r3, #6
    2aa8:	02180075 	andseq	r0, r8, #117, 0	; 0x75
    2aac:	3001007d 	andcc	r0, r1, sp, ror r0
    2ab0:	96b41700 	ldrtls	r1, [r4], r0, lsl #14
    2ab4:	0aa40000 	beq	fe902abc <__bss_end__+0xfe8f77bc>
    2ab8:	07cf0000 	strbeq	r0, [pc, r0]
    2abc:	01180000 	tsteq	r8, r0
    2ac0:	183a0150 	ldmdane	sl!, {r4, r6, r8}
    2ac4:	91035101 	tstls	r3, r1, lsl #2
    2ac8:	01187dd0 			; <UNDEFINED> instruction: 0x01187dd0
    2acc:	00750253 	rsbseq	r0, r5, r3, asr r2
    2ad0:	99981700 	ldmibls	r8, {r8, r9, sl, ip}
    2ad4:	0c460000 	mareq	acc0, r0, r6
    2ad8:	07e60000 	strbeq	r0, [r6, r0]!
    2adc:	01180000 	tsteq	r8, r0
    2ae0:	20030550 	andcs	r0, r3, r0, asr r5
    2ae4:	000000ac 	andeq	r0, r0, ip, lsr #1
    2ae8:	0099a821 	addseq	sl, r9, r1, lsr #16
    2aec:	0007f800 	andeq	pc, r7, r0, lsl #16
    2af0:	50011800 	andpl	r1, r1, r0, lsl #16
    2af4:	7dc89104 	stfvcp	f1, [r8, #16]
    2af8:	bc170006 	ldclt	0, cr0, [r7], {6}
    2afc:	46000099 			; <UNDEFINED> instruction: 0x46000099
    2b00:	2700000c 	strcs	r0, [r0, -ip]
    2b04:	18000008 	stmdane	r0, {r3}
    2b08:	03055001 	movweq	r5, #20481	; 0x5001
    2b0c:	0000ac50 	andeq	sl, r0, r0, asr ip
    2b10:	05510118 	ldrbeq	r0, [r1, #-280]	; 0xfffffee8
    2b14:	00ab3003 	adceq	r3, fp, r3
    2b18:	52011800 	andpl	r1, r1, #0, 16
    2b1c:	ac880305 	stcge	3, cr0, [r8], {5}
    2b20:	01180000 	tsteq	r8, r0
    2b24:	e2080253 	and	r0, r8, #805306373	; 0x30000005
    2b28:	99c01900 	stmibls	r0, {r8, fp, ip}^
    2b2c:	0c760000 	ldcleq	0, cr0, [r6], #-0
    2b30:	d4170000 	ldrle	r0, [r7], #-0
    2b34:	46000099 			; <UNDEFINED> instruction: 0x46000099
    2b38:	5f00000c 	svcpl	0x0000000c
    2b3c:	18000008 	stmdane	r0, {r3}
    2b40:	03055001 	movweq	r5, #20481	; 0x5001
    2b44:	0000abf8 	strdeq	sl, [r0], -r8
    2b48:	05510118 	ldrbeq	r0, [r1, #-280]	; 0xfffffee8
    2b4c:	00ab3003 	adceq	r3, fp, r3
    2b50:	52011800 	andpl	r1, r1, #0, 16
    2b54:	ac880305 	stcge	3, cr0, [r8], {5}
    2b58:	01180000 	tsteq	r8, r0
    2b5c:	be080253 	mcrlt	2, 0, r0, cr8, cr3, {2}
    2b60:	99d81900 	ldmibls	r8, {r8, fp, ip}^
    2b64:	0c760000 	ldcleq	0, cr0, [r6], #-0
    2b68:	00000000 	andeq	r0, r0, r0
    2b6c:	00b90408 	adcseq	r0, r9, r8, lsl #8
    2b70:	c0220000 	eorgt	r0, r2, r0
    2b74:	80000000 	andhi	r0, r0, r0
    2b78:	23000008 	movwcs	r0, #8
    2b7c:	0000002c 	andeq	r0, r0, ip, lsr #32
    2b80:	70090009 	andvc	r0, r9, r9
    2b84:	22000008 	andcs	r0, r0, #8, 0
    2b88:	000000b9 	strheq	r0, [r0], -r9
    2b8c:	00000895 	muleq	r0, r5, r8
    2b90:	00002c23 	andeq	r2, r0, r3, lsr #24
    2b94:	24007f00 	strcs	r7, [r0], #-3840	; 0xfffff100
    2b98:	00000748 	andeq	r0, r0, r8, asr #14
    2b9c:	6a014901 	bvs	54fa8 <__bss_end__+0x49ca8>
    2ba0:	01000008 	tsteq	r0, r8
    2ba4:	0000092a 	andeq	r0, r0, sl, lsr #18
    2ba8:	0003a325 	andeq	sl, r3, r5, lsr #6
    2bac:	0f490100 	svceq	0x00490100
    2bb0:	0000002c 	andeq	r0, r0, ip, lsr #32
    2bb4:	74736426 	ldrbtvc	r6, [r3], #-1062	; 0xfffffbda
    2bb8:	1b490100 	blne	1242fc0 <__bss_end__+0x1237cc0>
    2bbc:	0000086a 	andeq	r0, r0, sl, ror #16
    2bc0:	01006e26 	tsteq	r0, r6, lsr #28
    2bc4:	00332449 	eorseq	r2, r3, r9, asr #8
    2bc8:	76260000 	strtvc	r0, [r6], -r0
    2bcc:	01006c61 	tsteq	r0, r1, ror #24
    2bd0:	00332b49 	eorseq	r2, r3, r9, asr #22
    2bd4:	00250000 	eoreq	r0, r5, r0
    2bd8:	01000007 	tsteq	r0, r7
    2bdc:	00333449 	eorseq	r3, r3, r9, asr #8
    2be0:	7e250000 	cdpvc	0, 2, cr0, cr5, cr0, {0}
    2be4:	01000007 	tsteq	r0, r7
    2be8:	00333f49 	eorseq	r3, r3, r9, asr #30
    2bec:	62270000 	eorvs	r0, r7, #0, 0
    2bf0:	01006675 	tsteq	r0, r5, ror r6
    2bf4:	092a074e 	stmdbeq	sl!, {r1, r2, r3, r6, r8, r9, sl}
    2bf8:	70270000 	eorvc	r0, r7, r0
    2bfc:	114e0100 	mrsne	r0, (UNDEF: 94)
    2c00:	0000086a 	andeq	r0, r0, sl, ror #16
    2c04:	01007527 	tsteq	r0, r7, lsr #10
    2c08:	002c0b4f 	eoreq	r0, ip, pc, asr #22
    2c0c:	99120000 	ldmdbls	r2, {}	; <UNPREDICTABLE>
    2c10:	4a000001 	bmi	2c1c <__code_start__-0x53e4>
    2c14:	05000009 	streq	r0, [r0, #-9]
    2c18:	00ac7003 	adceq	r7, ip, r3
    2c1c:	35292800 	strcc	r2, [r9, #-2048]!	; 0xfffff800
    2c20:	01000007 	tsteq	r0, r7
    2c24:	002c0d54 	eoreq	r0, ip, r4, asr sp
    2c28:	00000000 	andeq	r0, r0, r0
    2c2c:	0000b922 	andeq	fp, r0, r2, lsr #18
    2c30:	00093a00 	andeq	r3, r9, r0, lsl #20
    2c34:	002c2300 	eoreq	r2, ip, r0, lsl #6
    2c38:	003f0000 	eorseq	r0, pc, r0
    2c3c:	0000c022 	andeq	ip, r0, r2, lsr #32
    2c40:	00094a00 	andeq	r4, r9, r0, lsl #20
    2c44:	002c2300 	eoreq	r2, ip, r0, lsl #6
    2c48:	00040000 	andeq	r0, r4, r0
    2c4c:	00093a09 	andeq	r3, r9, r9, lsl #20
    2c50:	074d2400 	strbeq	r2, [sp, -r0, lsl #8]
    2c54:	38010000 	stmdacc	r1, {}	; <UNPREDICTABLE>
    2c58:	00086a0e 	andeq	r6, r8, lr, lsl #20
    2c5c:	09a30100 	stmibeq	r3!, {r8}
    2c60:	64260000 	strtvs	r0, [r6], #-0
    2c64:	01007473 	tsteq	r0, r3, ror r4
    2c68:	086a1c38 	stmdaeq	sl!, {r3, r4, r5, sl, fp, ip}^
    2c6c:	6e260000 	cdpvs	0, 2, cr0, cr6, cr0, {0}
    2c70:	25380100 	ldrcs	r0, [r8, #-256]!	; 0xffffff00
    2c74:	00000033 	andeq	r0, r0, r3, lsr r0
    2c78:	01007026 	tsteq	r0, r6, lsr #32
    2c7c:	086a2e38 	stmdaeq	sl!, {r3, r4, r5, r9, sl, fp, sp}^
    2c80:	6e250000 	cdpvs	0, 2, cr0, cr5, cr0, {0}
    2c84:	01000002 	tsteq	r0, r2
    2c88:	086a3738 	stmdaeq	sl!, {r3, r4, r5, r8, r9, sl, ip, sp}^
    2c8c:	6c270000 	stcvs	0, cr0, [r7], #-0
    2c90:	01006e65 	tsteq	r0, r5, ror #28
    2c94:	0033063a 	eorseq	r0, r3, sl, lsr r6
    2c98:	73270000 			; <UNDEFINED> instruction: 0x73270000
    2c9c:	083e0100 	ldmdaeq	lr!, {r8}
    2ca0:	0000086a 	andeq	r0, r0, sl, ror #16
    2ca4:	61702a00 	cmnvs	r0, r0, lsl #20
    2ca8:	2e010064 	cdpcs	0, 0, cr0, cr1, cr4, {3}
    2cac:	00086a0e 	andeq	r6, r8, lr, lsl #20
    2cb0:	09e30100 	stmibeq	r3!, {r8}^
    2cb4:	70260000 	eorvc	r0, r6, r0
    2cb8:	182e0100 	stmdane	lr!, {r8}
    2cbc:	0000086a 	andeq	r0, r0, sl, ror #16
    2cc0:	0003a325 	andeq	sl, r3, r5, lsr #6
    2cc4:	222e0100 	eorcs	r0, lr, #0
    2cc8:	0000086a 	andeq	r0, r0, sl, ror #16
    2ccc:	00070025 	andeq	r0, r7, r5, lsr #32
    2cd0:	2c2e0100 	stfcss	f0, [lr], #-0
    2cd4:	00000033 	andeq	r0, r0, r3, lsr r0
    2cd8:	6e656c27 	cdpvs	12, 6, cr6, cr5, cr7, {1}
    2cdc:	062f0100 	strteq	r0, [pc], -r0, lsl #2
    2ce0:	00000033 	andeq	r0, r0, r3, lsr r0
    2ce4:	06cd2400 	strbeq	r2, [sp], r0, lsl #8
    2ce8:	27010000 	strcs	r0, [r1, -r0]
    2cec:	0000330c 	andeq	r3, r0, ip, lsl #6
    2cf0:	09ff0100 	ldmibeq	pc!, {r8}^	; <UNPREDICTABLE>
    2cf4:	63260000 			; <UNDEFINED> instruction: 0x63260000
    2cf8:	18270100 	stmdane	r7!, {r8}
    2cfc:	00000033 	andeq	r0, r0, r3, lsr r0
    2d00:	070e2b00 	streq	r2, [lr, -r0, lsl #22]
    2d04:	1f010000 	svcne	0x00010000
    2d08:	0093f006 	addseq	pc, r3, r6
    2d0c:	00006000 	andeq	r6, r0, r0
    2d10:	8f9c0100 	svchi	0x009c0100
    2d14:	0f00000a 	svceq	0x0000000a
    2d18:	00000706 	andeq	r0, r0, r6, lsl #14
    2d1c:	9e1b1f01 	cdpls	15, 1, cr1, cr11, cr1, {0}
    2d20:	60000000 	andvs	r0, r0, r0
    2d24:	5c00001b 	stcpl	0, cr0, [r0], {27}
    2d28:	0f00001b 	svceq	0x0000001b
    2d2c:	0000075c 	andeq	r0, r0, ip, asr r7
    2d30:	d1301f01 	teqle	r0, r1, lsl #30
    2d34:	85000000 	strhi	r0, [r0, #-0]
    2d38:	8100001b 	tsthi	r0, fp, lsl r0
    2d3c:	1200001b 	andne	r0, r0, #27, 0
    2d40:	00000199 	muleq	r0, r9, r1
    2d44:	00000a9f 	muleq	r0, pc, sl	; <UNPREDICTABLE>
    2d48:	ac780305 	ldclge	3, cr0, [r8], #-20	; 0xffffffec
    2d4c:	34170000 	ldrcc	r0, [r7], #-0
    2d50:	46000094 			; <UNDEFINED> instruction: 0x46000094
    2d54:	8500000c 	strhi	r0, [r0, #-12]
    2d58:	1800000a 	stmdane	r0, {r1, r3}
    2d5c:	03055001 	movweq	r5, #20481	; 0x5001
    2d60:	0000a6f8 	strdeq	sl, [r0], -r8
    2d64:	05510118 	ldrbeq	r0, [r1, #-280]	; 0xfffffee8
    2d68:	00ab3003 	adceq	r3, fp, r3
    2d6c:	52011800 	andpl	r1, r1, #0, 16
    2d70:	ac780305 	ldclge	3, cr0, [r8], #-20	; 0xffffffec
    2d74:	01180000 	tsteq	r8, r0
    2d78:	20080253 	andcs	r0, r8, r3, asr r2
    2d7c:	007d0218 	rsbseq	r0, sp, r8, lsl r2
    2d80:	ab680305 	blge	1a0399c <__bss_end__+0x19f869c>
    2d84:	19000000 	stmdbne	r0, {}	; <UNPREDICTABLE>
    2d88:	00009438 	andeq	r9, r0, r8, lsr r4
    2d8c:	00000c76 	andeq	r0, r0, r6, ror ip
    2d90:	00c02200 	sbceq	r2, r0, r0, lsl #4
    2d94:	0a9f0000 	beq	fe7c2d9c <__bss_end__+0xfe7b7a9c>
    2d98:	2c230000 	stccs	0, cr0, [r3], #-0
    2d9c:	0e000000 	cdpeq	0, 0, cr0, cr0, cr0, {0}
    2da0:	0a8f0900 	beq	fe3c51a8 <__bss_end__+0xfe3b9ea8>
    2da4:	952c0000 	strls	r0, [ip, #-0]!
    2da8:	c8000008 	stmdagt	r0, {r3}
    2dac:	28000090 	stmdacs	r0, {r4, r7}
    2db0:	01000003 	tsteq	r0, r3
    2db4:	000c3a9c 	muleq	ip, ip, sl
    2db8:	08a61b00 	stmiaeq	r6!, {r8, r9, fp, ip}
    2dbc:	1bbe0000 	blne	fef82dc4 <__bss_end__+0xfef77ac4>
    2dc0:	1ba60000 	blne	fe982dc8 <__bss_end__+0xfe977ac8>
    2dc4:	b21b0000 	andslt	r0, fp, #0, 0
    2dc8:	68000008 	stmdavs	r0, {r3}
    2dcc:	6000001c 	andvs	r0, r0, ip, lsl r0
    2dd0:	1b00001c 	blne	2e48 <__code_start__-0x51b8>
    2dd4:	000008c8 	andeq	r0, r0, r8, asr #17
    2dd8:	00001cbf 			; <UNDEFINED> instruction: 0x00001cbf
    2ddc:	00001c9f 	muleq	r0, pc, ip	; <UNPREDICTABLE>
    2de0:	0008d41b 	andeq	sp, r8, fp, lsl r4
    2de4:	001d9500 	andseq	r9, sp, r0, lsl #10
    2de8:	001d8700 	andseq	r8, sp, r0, lsl #14
    2dec:	08e02d00 	stmiaeq	r0!, {r8, sl, fp, sp}^
    2df0:	91020000 	mrsls	r0, (UNDEF: 2)
    2df4:	08ec1d00 	stmiaeq	ip!, {r8, sl, fp, ip}^
    2df8:	91030000 	mrsls	r0, (UNDEF: 3)
    2dfc:	f81e7fa8 			; <UNDEFINED> instruction: 0xf81e7fa8
    2e00:	29000008 	stmdbcs	r0, {r3}
    2e04:	f500001e 			; <UNDEFINED> instruction: 0xf500001e
    2e08:	1e00001d 	mcrne	0, 0, r0, cr0, cr13, {0}
    2e0c:	00000902 	andeq	r0, r0, r2, lsl #18
    2e10:	00001f90 	muleq	r0, r0, pc	; <UNPREDICTABLE>
    2e14:	00001f6e 	andeq	r1, r0, lr, ror #30
    2e18:	0008be2e 	andeq	fp, r8, lr, lsr #28
    2e1c:	a31a8000 	tstge	sl, #0, 0
    2e20:	6c000009 	stcvs	0, cr0, [r0], {9}
    2e24:	04000091 	streq	r0, [r0], #-145	; 0xffffff6f
    2e28:	00015800 	andeq	r5, r1, r0, lsl #16
    2e2c:	097c0100 	ldmdbeq	ip!, {r8}^
    2e30:	00000b6d 	andeq	r0, r0, sp, ror #22
    2e34:	0009ca1b 	andeq	ip, r9, fp, lsl sl
    2e38:	00207800 	eoreq	r7, r0, r0, lsl #16
    2e3c:	00206e00 	eoreq	r6, r0, r0, lsl #28
    2e40:	09be1b00 	ldmibeq	lr!, {r8, r9, fp, ip}
    2e44:	20cc0000 	sbccs	r0, ip, r0
    2e48:	20bc0000 	adcscs	r0, ip, r0
    2e4c:	b41b0000 	ldrlt	r0, [fp], #-0
    2e50:	4c000009 	stcmi	0, cr0, [r0], {9}
    2e54:	38000021 	stmdacc	r0, {r0, r5}
    2e58:	13000021 	movwne	r0, #33	; 0x21
    2e5c:	00000158 	andeq	r0, r0, r8, asr r1
    2e60:	0009d61e 	andeq	sp, r9, lr, lsl r6
    2e64:	0021de00 	eoreq	sp, r1, r0, lsl #28
    2e68:	0021ce00 	eoreq	ip, r1, r0, lsl #28
    2e6c:	1a000000 	bne	2e74 <__code_start__-0x518c>
    2e70:	0000094f 	andeq	r0, r0, pc, asr #18
    2e74:	00009224 	andeq	r9, r0, r4, lsr #4
    2e78:	01a00002 	moveq	r0, r2
    2e7c:	7c010000 	stcvc	0, cr0, [r1], {-0}
    2e80:	000bd809 	andeq	sp, fp, r9, lsl #16
    2e84:	09801b00 	stmibeq	r0, {r8, r9, fp, ip}
    2e88:	224a0000 	subcs	r0, sl, #0, 0
    2e8c:	22420000 	subcs	r0, r2, #0, 0
    2e90:	761b0000 	ldrvc	r0, [fp], -r0
    2e94:	89000009 	stmdbhi	r0, {r0, r3}
    2e98:	81000022 	tsthi	r0, r2, lsr #32
    2e9c:	1b000022 	blne	2f2c <__code_start__-0x50d4>
    2ea0:	0000096c 	andeq	r0, r0, ip, ror #18
    2ea4:	000022c8 	andeq	r2, r0, r8, asr #5
    2ea8:	000022c4 	andeq	r2, r0, r4, asr #5
    2eac:	0009601b 	andeq	r6, r9, fp, lsl r0
    2eb0:	0022f800 	eoreq	pc, r2, r0, lsl #16
    2eb4:	0022ea00 	eoreq	lr, r2, r0, lsl #20
    2eb8:	01a01300 	lsleq	r1, r0, #6
    2ebc:	8c1e0000 	ldchi	0, cr0, [lr], {-0}
    2ec0:	5d000009 	stcpl	0, cr0, [r0, #-36]	; 0xffffffdc
    2ec4:	57000023 	strpl	r0, [r0, -r3, lsr #32]
    2ec8:	1e000023 	cdpne	0, 0, cr0, cr0, cr3, {1}
    2ecc:	00000998 	muleq	r0, r8, r9
    2ed0:	0000238f 	andeq	r2, r0, pc, lsl #7
    2ed4:	0000238b 	andeq	r2, r0, fp, lsl #7
    2ed8:	1b2f0000 	blne	bc2ee0 <__bss_end__+0xbb7be0>
    2edc:	dc000009 	stcle	0, cr0, [r0], {9}
    2ee0:	60000092 	mulvs	r0, r2, r0
    2ee4:	f7000000 			; <UNDEFINED> instruction: 0xf7000000
    2ee8:	1e00000b 	cdpne	0, 0, cr0, cr0, cr11, {0}
    2eec:	0000091c 	andeq	r0, r0, ip, lsl r9
    2ef0:	000023b1 			; <UNDEFINED> instruction: 0x000023b1
    2ef4:	000023ad 	andeq	r2, r0, sp, lsr #7
    2ef8:	93b01700 	movsls	r1, #0, 14
    2efc:	0c460000 	mareq	acc0, r0, r6
    2f00:	0c300000 	ldceq	0, cr0, [r0], #-0
    2f04:	01180000 	tsteq	r8, r0
    2f08:	f8030550 			; <UNDEFINED> instruction: 0xf8030550
    2f0c:	180000a6 	stmdane	r0, {r1, r2, r5, r7}
    2f10:	03055101 	movweq	r5, #20737	; 0x5101
    2f14:	0000ab30 	andeq	sl, r0, r0, lsr fp
    2f18:	05520118 	ldrbeq	r0, [r2, #-280]	; 0xfffffee8
    2f1c:	00ac7003 	adceq	r7, ip, r3
    2f20:	53011800 	movwpl	r1, #6144	; 0x1800
    2f24:	18790802 	ldmdane	r9!, {r1, fp}^
    2f28:	05007d02 	streq	r7, [r0, #-3330]	; 0xfffff2fe
    2f2c:	00a99803 	adceq	r9, r9, r3, lsl #16
    2f30:	b4190000 	ldrlt	r0, [r9], #-0
    2f34:	76000093 			; <UNDEFINED> instruction: 0x76000093
    2f38:	0000000c 	andeq	r0, r0, ip
    2f3c:	00077630 	andeq	r7, r7, r0, lsr r6
    2f40:	00077600 	andeq	r7, r7, r0, lsl #12
    2f44:	05eb0300 	strbeq	r0, [fp, #768]!	; 0x300
    2f48:	00067c30 	andeq	r7, r6, r0, lsr ip
    2f4c:	00067c00 	andeq	r7, r6, r0, lsl #24
    2f50:	06280300 	strteq	r0, [r8], -r0, lsl #6
    2f54:	00072730 	andeq	r2, r7, r0, lsr r7
    2f58:	00072700 	andeq	r2, r7, r0, lsl #14
    2f5c:	07ee0300 	strbeq	r0, [lr, r0, lsl #6]!
    2f60:	00075530 	andeq	r5, r7, r0, lsr r5
    2f64:	00075500 	andeq	r5, r7, r0, lsl #10
    2f68:	05ea0300 	strbeq	r0, [sl, #768]!	; 0x300
    2f6c:	00072e30 	andeq	r2, r7, r0, lsr lr
    2f70:	00072e00 	andeq	r2, r7, r0, lsl #28
    2f74:	07ed0300 	strbeq	r0, [sp, r0, lsl #6]!
    2f78:	00004530 	andeq	r4, r0, r0, lsr r5
    2f7c:	00004500 	andeq	r4, r0, r0, lsl #10
    2f80:	066e0300 	strbteq	r0, [lr], -r0, lsl #6
    2f84:	00012f00 	andeq	r2, r1, r0, lsl #30
    2f88:	bf000400 	svclt	0x00000400
    2f8c:	0400000f 	streq	r0, [r0], #-15
    2f90:	00055401 	andeq	r5, r5, r1, lsl #8
    2f94:	079b0c00 	ldreq	r0, [fp, r0, lsl #24]
    2f98:	061a0000 	ldreq	r0, [sl], -r0
    2f9c:	9a7c0000 	bls	1f02fa4 <__bss_end__+0x1ef7ca4>
    2fa0:	002c0000 	eoreq	r0, ip, r0
    2fa4:	1a1b0000 	bne	6c2fac <__bss_end__+0x6b7cac>
    2fa8:	04020000 	streq	r0, [r2], #-0
    2fac:	746e6905 	strbtvc	r6, [lr], #-2309	; 0xfffff6fb
    2fb0:	07040300 	streq	r0, [r4, -r0, lsl #6]
    2fb4:	000001b0 			; <UNDEFINED> instruction: 0x000001b0
    2fb8:	54060103 	strpl	r0, [r6], #-259	; 0xfffffefd
    2fbc:	03000001 	movweq	r0, #1
    2fc0:	01de0502 	bicseq	r0, lr, r2, lsl #10
    2fc4:	04030000 	streq	r0, [r3], #-0
    2fc8:	0001c205 	andeq	ip, r1, r5, lsl #4
    2fcc:	05080300 	streq	r0, [r8, #-768]	; 0xfffffd00
    2fd0:	000001bd 			; <UNDEFINED> instruction: 0x000001bd
    2fd4:	52080103 	andpl	r0, r8, #-1073741824	; 0xc0000000
    2fd8:	03000001 	movweq	r0, #1
    2fdc:	00520702 	subseq	r0, r2, r2, lsl #14
    2fe0:	04030000 	streq	r0, [r3], #-0
    2fe4:	0001ab07 	andeq	sl, r1, r7, lsl #22
    2fe8:	07080300 	streq	r0, [r8, -r0, lsl #6]
    2fec:	000001a6 	andeq	r0, r0, r6, lsr #3
    2ff0:	00002504 	andeq	r2, r0, r4, lsl #10
    2ff4:	00007a00 	andeq	r7, r0, r0, lsl #20
    2ff8:	00250500 	eoreq	r0, r5, r0, lsl #10
    2ffc:	06000000 	streq	r0, [r0], -r0
    3000:	000001cb 	andeq	r0, r0, fp, asr #3
    3004:	860e1c02 	strhi	r1, [lr], -r2, lsl #24
    3008:	07000000 	streq	r0, [r0, -r0]
    300c:	00006b04 	andeq	r6, r0, r4, lsl #22
    3010:	00250400 	eoreq	r0, r5, r0, lsl #8
    3014:	009b0000 	addseq	r0, fp, r0
    3018:	9b050000 	blls	143020 <__bss_end__+0x137d20>
    301c:	00000000 	andeq	r0, r0, r0
    3020:	00a80407 	adceq	r0, r8, r7, lsl #8
    3024:	01030000 	mrseq	r0, (UNDEF: 3)
    3028:	00015b08 	andeq	r5, r1, r8, lsl #22
    302c:	00a10800 	adceq	r0, r1, r0, lsl #16
    3030:	ba060000 	blt	183038 <__bss_end__+0x177d38>
    3034:	02000006 	andeq	r0, r0, #6, 0
    3038:	00b90e21 	adcseq	r0, r9, r1, lsr #28
    303c:	04070000 	streq	r0, [r7], #-0
    3040:	0000008c 	andeq	r0, r0, ip, lsl #1
    3044:	00004509 	andeq	r4, r0, r9, lsl #10
    3048:	06040100 	streq	r0, [r4], -r0, lsl #2
    304c:	00009a7c 	andeq	r9, r0, ip, ror sl
    3050:	0000002c 	andeq	r0, r0, ip, lsr #32
    3054:	010e9c01 	tsteq	lr, r1, lsl #24
    3058:	900a0000 	andls	r0, sl, r0
    305c:	e800009a 	stmda	r0, {r1, r3, r4, r7}
    3060:	0b000000 	bleq	3068 <__code_start__-0x4f98>
    3064:	03055001 	movweq	r5, #20481	; 0x5001
    3068:	0000ac94 	muleq	r0, r4, ip
    306c:	9a940c00 	bls	fe506074 <__bss_end__+0xfe4fad74>
    3070:	010e0000 	mrseq	r0, (UNDEF: 14)
    3074:	9c0d0000 	stcls	0, cr0, [sp], {-0}
    3078:	1a00009a 	bne	32e8 <__code_start__-0x4d18>
    307c:	04000001 	streq	r0, [r0], #-1
    3080:	0b000001 	bleq	308c <__code_start__-0x4f74>
    3084:	3a015001 	bcc	57090 <__bss_end__+0x4bd90>
    3088:	9aa00c00 	bls	fe806090 <__bss_end__+0xfe7fad90>
    308c:	01260000 			; <UNDEFINED> instruction: 0x01260000
    3090:	0e000000 	cdpeq	0, 0, cr0, cr0, cr0, {0}
    3094:	000007b6 			; <UNDEFINED> instruction: 0x000007b6
    3098:	000007b6 			; <UNDEFINED> instruction: 0x000007b6
    309c:	0e064d02 	cdpeq	13, 0, cr4, cr6, cr2, {0}
    30a0:	00000792 	muleq	r0, r2, r7
    30a4:	00000792 	muleq	r0, r2, r7
    30a8:	0e065802 	cdpeq	8, 0, cr5, cr6, cr2, {0}
    30ac:	00000787 	andeq	r0, r0, r7, lsl #15
    30b0:	00000787 	andeq	r0, r0, r7, lsl #15
    30b4:	00066b02 	andeq	r6, r6, r2, lsl #22
    30b8:	000002b1 			; <UNDEFINED> instruction: 0x000002b1
    30bc:	107f0004 	rsbsne	r0, pc, r4
    30c0:	01040000 	mrseq	r0, (UNDEF: 4)
    30c4:	00000554 	andeq	r0, r0, r4, asr r5
    30c8:	0007ec0c 	andeq	lr, r7, ip, lsl #24
    30cc:	00061a00 	andeq	r1, r6, r0, lsl #20
    30d0:	009aa800 	addseq	sl, sl, r0, lsl #16
    30d4:	00012800 	andeq	r2, r1, r0, lsl #16
    30d8:	001aa600 	andseq	sl, sl, r0, lsl #12
    30dc:	05040200 	streq	r0, [r4, #-512]	; 0xfffffe00
    30e0:	00746e69 	rsbseq	r6, r4, r9, ror #28
    30e4:	b0070403 	andlt	r0, r7, r3, lsl #8
    30e8:	03000001 	movweq	r0, #1
    30ec:	01540601 	cmpeq	r4, r1, lsl #12
    30f0:	02030000 	andeq	r0, r3, #0, 0
    30f4:	0001de05 	andeq	sp, r1, r5, lsl #28
    30f8:	05040300 	streq	r0, [r4, #-768]	; 0xfffffd00
    30fc:	000001c2 	andeq	r0, r0, r2, asr #3
    3100:	bd050803 	stclt	8, cr0, [r5, #-12]
    3104:	03000001 	movweq	r0, #1
    3108:	01520801 	cmpeq	r2, r1, lsl #16
    310c:	02030000 	andeq	r0, r3, #0, 0
    3110:	00005207 	andeq	r5, r0, r7, lsl #4
    3114:	07040300 	streq	r0, [r4, -r0, lsl #6]
    3118:	000001ab 	andeq	r0, r0, fp, lsr #3
    311c:	a6070803 	strge	r0, [r7], -r3, lsl #16
    3120:	04000001 	streq	r0, [r0], #-1
    3124:	00000025 	andeq	r0, r0, r5, lsr #32
    3128:	0000007a 	andeq	r0, r0, sl, ror r0
    312c:	00002505 	andeq	r2, r0, r5, lsl #10
    3130:	cb060000 	blgt	183138 <__bss_end__+0x177e38>
    3134:	02000001 	andeq	r0, r0, #1, 0
    3138:	00860e1c 	addeq	r0, r6, ip, lsl lr
    313c:	04070000 	streq	r0, [r7], #-0
    3140:	0000006b 	andeq	r0, r0, fp, rrx
    3144:	00002504 	andeq	r2, r0, r4, lsl #10
    3148:	00009b00 	andeq	r9, r0, r0, lsl #22
    314c:	009b0500 	addseq	r0, fp, r0, lsl #10
    3150:	07000000 	streq	r0, [r0, -r0]
    3154:	0000a804 	andeq	sl, r0, r4, lsl #16
    3158:	08010300 	stmdaeq	r1, {r8, r9}
    315c:	0000015b 	andeq	r0, r0, fp, asr r1
    3160:	0000a108 	andeq	sl, r0, r8, lsl #2
    3164:	06ba0600 	ldrteq	r0, [sl], r0, lsl #12
    3168:	21020000 	mrscs	r0, (UNDEF: 2)
    316c:	0000b90e 	andeq	fp, r0, lr, lsl #18
    3170:	8c040700 	stchi	7, cr0, [r4], {-0}
    3174:	09000000 	stmdbeq	r0, {}	; <UNPREDICTABLE>
    3178:	000007c4 	andeq	r0, r0, r4, asr #15
    317c:	a8061101 	stmdage	r6, {r0, r8, ip}
    3180:	2800009a 	stmdacs	r0, {r1, r3, r4, r7}
    3184:	01000001 	tsteq	r0, r1
    3188:	0002269c 	muleq	r2, ip, r6
    318c:	03e40600 	mvneq	r0, #0, 12
    3190:	12010000 	andne	r0, r1, #0, 0
    3194:	00002510 	andeq	r2, r0, r0, lsl r5
    3198:	04b60600 	ldrteq	r0, [r6], #1536	; 0x600
    319c:	12010000 	andne	r0, r1, #0, 0
    31a0:	0000251f 	andeq	r2, r0, pc, lsl r5
    31a4:	001c0a00 	andseq	r0, ip, r0, lsl #20
    31a8:	13010000 	movwne	r0, #4096	; 0x1000
    31ac:	73620b07 	cmnvc	r2, #7168	; 0x1c00
    31b0:	17010073 	smlsdxne	r1, r3, r0, r0
    31b4:	0002260a 	andeq	r2, r2, sl, lsl #12
    31b8:	0023e900 	eoreq	lr, r3, r0, lsl #18
    31bc:	0023d100 	eoreq	sp, r3, r0, lsl #2
    31c0:	07cc0c00 	strbeq	r0, [ip, r0, lsl #24]
    31c4:	18010000 	stmdane	r1, {}	; <UNPREDICTABLE>
    31c8:	0002260a 	andeq	r2, r2, sl, lsl #12
    31cc:	080c0d00 	stmdaeq	ip, {r8, sl, fp}
    31d0:	25010000 	strcs	r0, [r1, #-0]
    31d4:	00002c0e 	andeq	r2, r0, lr, lsl #24
    31d8:	00248300 	eoreq	r8, r4, r0, lsl #6
    31dc:	00248100 	eoreq	r8, r4, r0, lsl #2
    31e0:	9b800e00 	blls	fe0069e8 <__bss_end__+0xfdffb6e8>
    31e4:	00080000 	andeq	r0, r8, r0
    31e8:	014a0000 	mrseq	r0, (UNDEF: 74)
    31ec:	690b0000 	stmdbvs	fp, {}	; <UNPREDICTABLE>
    31f0:	2101006e 	tstcs	r1, lr, rrx
    31f4:	00002c05 	andeq	r2, r0, r5, lsl #24
    31f8:	00249800 	eoreq	r9, r4, r0, lsl #16
    31fc:	00249600 	eoreq	r9, r4, r0, lsl #12
    3200:	2c0f0000 	stccs	0, cr0, [pc], {-0}
    3204:	88000002 	stmdahi	r0, {r1}
    3208:	0200009b 	andeq	r0, r0, #155, 0	; 0x9b
    320c:	00009b88 	andeq	r9, r0, r8, lsl #23
    3210:	0000000c 	andeq	r0, r0, ip
    3214:	99052301 	stmdbls	r5, {r0, r8, r9, sp}
    3218:	10000001 	andne	r0, r0, r1
    321c:	0000024f 	andeq	r0, r0, pc, asr #4
    3220:	000024ae 	andeq	r2, r0, lr, lsr #9
    3224:	000024ac 	andeq	r2, r0, ip, lsr #9
    3228:	00025b10 	andeq	r5, r2, r0, lsl fp
    322c:	0024c400 	eoreq	ip, r4, r0, lsl #8
    3230:	0024c200 	eoreq	ip, r4, r0, lsl #4
    3234:	02671100 	rsbeq	r1, r7, #0
    3238:	9b880000 	blls	fe203240 <__bss_end__+0xfe1f7f40>
    323c:	00040000 	andeq	r0, r4, r0
    3240:	68100000 	ldmdavs	r0, {}	; <UNPREDICTABLE>
    3244:	d9000002 	stmdble	r0, {r1}
    3248:	d7000024 	strle	r0, [r0, -r4, lsr #32]
    324c:	00000024 	andeq	r0, r0, r4, lsr #32
    3250:	022c1200 	eoreq	r1, ip, #0, 4
    3254:	9b980000 	blls	fe60325c <__bss_end__+0xfe5f7f5c>
    3258:	30010000 	andcc	r0, r1, r0
    325c:	01000003 	tsteq	r0, r3
    3260:	01ea1525 	mvneq	r1, r5, lsr #10
    3264:	30130000 	andscc	r0, r3, r0
    3268:	10000003 	andne	r0, r0, r3
    326c:	0000024f 	andeq	r0, r0, pc, asr #4
    3270:	000024f0 	strdeq	r2, [r0], -r0
    3274:	000024ec 	andeq	r2, r0, ip, ror #9
    3278:	00025b10 	andeq	r5, r2, r0, lsl fp
    327c:	00251100 	eoreq	r1, r5, r0, lsl #2
    3280:	00250f00 	eoreq	r0, r5, r0, lsl #30
    3284:	02671100 	rsbeq	r1, r7, #0
    3288:	9b980000 	blls	fe603290 <__bss_end__+0xfe5f7f90>
    328c:	00040000 	andeq	r0, r4, r0
    3290:	68100000 	ldmdavs	r0, {}	; <UNPREDICTABLE>
    3294:	26000002 	strcs	r0, [r0], -r2
    3298:	24000025 	strcs	r0, [r0], #-37	; 0xffffffdb
    329c:	00000025 	andeq	r0, r0, r5, lsr #32
    32a0:	b0140000 	andslt	r0, r4, r0
    32a4:	7600009a 			; <UNDEFINED> instruction: 0x7600009a
    32a8:	14000002 	strne	r0, [r0], #-2
    32ac:	00009b80 	andeq	r9, r0, r0, lsl #23
    32b0:	00000283 	andeq	r0, r0, r3, lsl #5
    32b4:	009b9814 	addseq	r9, fp, r4, lsl r8
    32b8:	00028f00 	andeq	r8, r2, r0, lsl #30
    32bc:	9bb41500 	blls	fed086c4 <__bss_end__+0xfecfd3c4>
    32c0:	029c0000 	addseq	r0, ip, #0, 0
    32c4:	021c0000 	andseq	r0, ip, #0, 0
    32c8:	01160000 	tsteq	r6, r0
    32cc:	a0030550 	andge	r0, r3, r0, asr r5
    32d0:	000000ac 	andeq	r0, r0, ip, lsr #1
    32d4:	009bb814 	addseq	fp, fp, r4, lsl r8
    32d8:	0002a800 	andeq	sl, r2, r0, lsl #16
    32dc:	04070000 	streq	r0, [r7], #-0
    32e0:	00000025 	andeq	r0, r0, r5, lsr #32
    32e4:	00080617 	andeq	r0, r8, r7, lsl r6
    32e8:	11040100 	mrsne	r0, (UNDEF: 20)
    32ec:	0000002c 	andeq	r0, r0, ip, lsr #32
    32f0:	00027601 	andeq	r7, r2, r1, lsl #12
    32f4:	08111800 	ldmdaeq	r1, {fp, ip}
    32f8:	05010000 	streq	r0, [r1, #-0]
    32fc:	00002c15 	andeq	r2, r0, r5, lsl ip
    3300:	f4030500 	vst3.8	{d0,d2,d4}, [r3], r0
    3304:	0c0000b2 	stceq	0, cr0, [r0], {178}	; 0xb2
    3308:	0000080c 	andeq	r0, r0, ip, lsl #16
    330c:	2c0e0701 	stccs	7, cr0, [lr], {1}
    3310:	19000000 	stmdbne	r0, {}	; <UNPREDICTABLE>
    3314:	00727563 	rsbseq	r7, r2, r3, ror #10
    3318:	2c0e0901 			; <UNDEFINED> instruction: 0x2c0e0901
    331c:	1a000000 	bne	3324 <__code_start__-0x4cdc>
    3320:	0008010c 	andeq	r0, r8, ip, lsl #2
    3324:	14090100 	strne	r0, [r9], #-256	; 0xffffff00
    3328:	0000002c 	andeq	r0, r0, ip, lsr #32
    332c:	de1b0000 	cdple	0, 1, cr0, cr11, cr0, {0}
    3330:	de000007 	cdple	0, 0, cr0, cr0, cr7, {0}
    3334:	02000007 	andeq	r0, r0, #7, 0
    3338:	1c060131 	stfnes	f0, [r6], {49}	; 0x31
    333c:	000007d4 	ldrdeq	r0, [r0], -r4
    3340:	000007d4 	ldrdeq	r0, [r0], -r4
    3344:	1b063b02 	blne	191f54 <__bss_end__+0x186c54>
    3348:	0000001c 	andeq	r0, r0, ip, lsl r0
    334c:	0000001c 	andeq	r0, r0, ip, lsl r0
    3350:	06010502 	streq	r0, [r1], -r2, lsl #10
    3354:	00067c1c 	andeq	r7, r6, ip, lsl ip
    3358:	00067c00 	andeq	r7, r6, r0, lsl #24
    335c:	06280200 	strteq	r0, [r8], -r0, lsl #4
    3360:	0000451c 	andeq	r4, r0, ip, lsl r5
    3364:	00004500 	andeq	r4, r0, r0, lsl #10
    3368:	066e0200 	strbteq	r0, [lr], -r0, lsl #4
    336c:	0000ce00 	andeq	ip, r0, r0, lsl #28
    3370:	1d000400 	cfstrsne	mvf0, [r0, #-0]
    3374:	04000012 	streq	r0, [r0], #-18	; 0xffffffee
    3378:	00055401 	andeq	r5, r5, r1, lsl #8
    337c:	08160c00 	ldmdaeq	r6, {sl, fp}
    3380:	061a0000 	ldreq	r0, [sl], -r0
    3384:	9bd00000 	blls	ff40338c <__bss_end__+0xff3f808c>
    3388:	00040000 	andeq	r0, r4, r0
    338c:	1c200000 	stcne	0, cr0, [r0], #-0
    3390:	04020000 	streq	r0, [r2], #-0
    3394:	746e6905 	strbtvc	r6, [lr], #-2309	; 0xfffff6fb
    3398:	07040300 	streq	r0, [r4, -r0, lsl #6]
    339c:	000001b0 			; <UNDEFINED> instruction: 0x000001b0
    33a0:	54060103 	strpl	r0, [r6], #-259	; 0xfffffefd
    33a4:	03000001 	movweq	r0, #1
    33a8:	01de0502 	bicseq	r0, lr, r2, lsl #10
    33ac:	04030000 	streq	r0, [r3], #-0
    33b0:	0001c205 	andeq	ip, r1, r5, lsl #4
    33b4:	05080300 	streq	r0, [r8, #-768]	; 0xfffffd00
    33b8:	000001bd 			; <UNDEFINED> instruction: 0x000001bd
    33bc:	52080103 	andpl	r0, r8, #-1073741824	; 0xc0000000
    33c0:	03000001 	movweq	r0, #1
    33c4:	00520702 	subseq	r0, r2, r2, lsl #14
    33c8:	04030000 	streq	r0, [r3], #-0
    33cc:	0001ab07 	andeq	sl, r1, r7, lsl #22
    33d0:	07080300 	streq	r0, [r8, -r0, lsl #6]
    33d4:	000001a6 	andeq	r0, r0, r6, lsr #3
    33d8:	00002504 	andeq	r2, r0, r4, lsl #10
    33dc:	00007a00 	andeq	r7, r0, r0, lsl #20
    33e0:	00250500 	eoreq	r0, r5, r0, lsl #10
    33e4:	06000000 	streq	r0, [r0], -r0
    33e8:	000001cb 	andeq	r0, r0, fp, asr #3
    33ec:	860e1c02 	strhi	r1, [lr], -r2, lsl #24
    33f0:	07000000 	streq	r0, [r0, -r0]
    33f4:	00006b04 	andeq	r6, r0, r4, lsl #22
    33f8:	00250400 	eoreq	r0, r5, r0, lsl #8
    33fc:	009b0000 	addseq	r0, fp, r0
    3400:	9b050000 	blls	143408 <__bss_end__+0x138108>
    3404:	00000000 	andeq	r0, r0, r0
    3408:	00a80407 	adceq	r0, r8, r7, lsl #8
    340c:	01030000 	mrseq	r0, (UNDEF: 3)
    3410:	00015b08 	andeq	r5, r1, r8, lsl #22
    3414:	00a10800 	adceq	r0, r1, r0, lsl #16
    3418:	ba060000 	blt	183420 <__bss_end__+0x178120>
    341c:	02000006 	andeq	r0, r0, #6, 0
    3420:	00b90e21 	adcseq	r0, r9, r1, lsr #28
    3424:	04070000 	streq	r0, [r7], #-0
    3428:	0000008c 	andeq	r0, r0, ip, lsl #1
    342c:	0007de09 	andeq	sp, r7, r9, lsl #28
    3430:	06040100 	streq	r0, [r4], -r0, lsl #2
    3434:	00009bd0 	ldrdeq	r9, [r0], -r0
    3438:	00000004 	andeq	r0, r0, r4
    343c:	7d009c01 	stcvc	12, cr9, [r0, #-4]
    3440:	04000002 	streq	r0, [r0], #-2
    3444:	00129600 	andseq	r9, r2, r0, lsl #12
    3448:	54010400 	strpl	r0, [r1], #-1024	; 0xfffffc00
    344c:	0c000005 	stceq	0, cr0, [r0], {5}
    3450:	0000085e 	andeq	r0, r0, lr, asr r8
    3454:	0000061a 	andeq	r0, r0, sl, lsl r6
    3458:	00000360 	andeq	r0, r0, r0, ror #6
    345c:	00000000 	andeq	r0, r0, r0
    3460:	00001ca1 	andeq	r1, r0, r1, lsr #25
    3464:	69050402 	stmdbvs	r5, {r1, sl}
    3468:	0300746e 	movweq	r7, #1134	; 0x46e
    346c:	00000025 	andeq	r0, r0, r5, lsr #32
    3470:	b0070404 	andlt	r0, r7, r4, lsl #8
    3474:	04000001 	streq	r0, [r0], #-1
    3478:	01540601 	cmpeq	r4, r1, lsl #12
    347c:	02040000 	andeq	r0, r4, #0, 0
    3480:	0001de05 	andeq	sp, r1, r5, lsl #28
    3484:	05040400 	streq	r0, [r4, #-1024]	; 0xfffffc00
    3488:	000001c2 	andeq	r0, r0, r2, asr #3
    348c:	bd050804 	stclt	8, cr0, [r5, #-16]
    3490:	04000001 	streq	r0, [r0], #-1
    3494:	01520801 	cmpeq	r2, r1, lsl #16
    3498:	02040000 	andeq	r0, r4, #0, 0
    349c:	00005207 	andeq	r5, r0, r7, lsl #4
    34a0:	07040400 	streq	r0, [r4, -r0, lsl #8]
    34a4:	000001ab 	andeq	r0, r0, fp, lsr #3
    34a8:	a6070804 	strge	r0, [r7], -r4, lsl #16
    34ac:	05000001 	streq	r0, [r0, #-1]
    34b0:	00000025 	andeq	r0, r0, r5, lsr #32
    34b4:	0000007f 	andeq	r0, r0, pc, ror r0
    34b8:	00002506 	andeq	r2, r0, r6, lsl #10
    34bc:	cb070000 	blgt	1c34c4 <__bss_end__+0x1b81c4>
    34c0:	02000001 	andeq	r0, r0, #1, 0
    34c4:	008b0e1c 	addeq	r0, fp, ip, lsl lr
    34c8:	04080000 	streq	r0, [r8], #-0
    34cc:	00000070 	andeq	r0, r0, r0, ror r0
    34d0:	00002505 	andeq	r2, r0, r5, lsl #10
    34d4:	0000a000 	andeq	sl, r0, r0
    34d8:	00a00600 	adceq	r0, r0, r0, lsl #12
    34dc:	08000000 	stmdaeq	r0, {}	; <UNPREDICTABLE>
    34e0:	0000ad04 	andeq	sl, r0, r4, lsl #26
    34e4:	08010400 	stmdaeq	r1, {sl}
    34e8:	0000015b 	andeq	r0, r0, fp, asr r1
    34ec:	0000a603 	andeq	sl, r0, r3, lsl #12
    34f0:	06ba0700 	ldrteq	r0, [sl], r0, lsl #14
    34f4:	21020000 	mrscs	r0, (UNDEF: 2)
    34f8:	0000be0e 	andeq	fp, r0, lr, lsl #28
    34fc:	91040800 	tstls	r4, r0, lsl #16
    3500:	09000000 	stmdbeq	r0, {}	; <UNPREDICTABLE>
    3504:	00000882 	andeq	r0, r0, r2, lsl #17
    3508:	31110d01 	tstcc	r1, r1, lsl #26
    350c:	0a000000 	beq	3514 <__code_start__-0x4aec>
    3510:	00000787 	andeq	r0, r0, r7, lsl #15
    3514:	00061f01 	andeq	r1, r6, r1, lsl #30
    3518:	6000009c 	mulvs	r0, ip, r0
    351c:	01000000 	mrseq	r0, (UNDEF: 0)
    3520:	0001d59c 	muleq	r1, ip, r5
    3524:	08a60b00 	stmiaeq	r6!, {r8, r9, fp}
    3528:	2c010000 	stccs	0, cr0, [r1], {-0}
    352c:	00002c0f 	andeq	r2, r0, pc, lsl #24
    3530:	10001c00 	andne	r1, r0, r0, lsl #24
    3534:	08410b20 	stmdaeq	r1, {r5, r8, r9, fp}^
    3538:	2d010000 	stccs	0, cr0, [r1, #-0]
    353c:	00002c0f 	andeq	r2, r0, pc, lsl #24
    3540:	10002400 	andne	r2, r0, r0, lsl #8
    3544:	08730b20 	ldmdaeq	r3!, {r5, r8, r9, fp}^
    3548:	2e010000 	cdpcs	0, 0, cr0, cr1, cr0, {0}
    354c:	00002c0f 	andeq	r2, r0, pc, lsl #24
    3550:	00000000 	andeq	r0, r0, r0
    3554:	088d0c5a 	stmeq	sp, {r1, r3, r4, r6, sl, fp}
    3558:	2f010000 	svccs	0x00010000
    355c:	00002c0f 	andeq	r2, r0, pc, lsl #24
    3560:	ef0d2000 	svc	0x000d2000
    3564:	00000001 	andeq	r0, r0, r1
    3568:	0200009c 	andeq	r0, r0, #156, 0	; 0x9c
    356c:	00000348 	andeq	r0, r0, r8, asr #6
    3570:	4c082001 	stcmi	0, cr2, [r8], {1}
    3574:	0e000001 	cdpeq	0, 0, cr0, cr0, cr1, {0}
    3578:	00000348 	andeq	r0, r0, r8, asr #6
    357c:	0002000f 	andeq	r0, r2, pc
    3580:	00253d00 	eoreq	r3, r5, r0, lsl #26
    3584:	00253900 	eoreq	r3, r5, r0, lsl #18
    3588:	10000000 	andne	r0, r0, r0
    358c:	000001d5 	ldrdeq	r0, [r0], -r5
    3590:	00009c14 	andeq	r9, r0, r4, lsl ip
    3594:	009c1401 	addseq	r1, ip, r1, lsl #8
    3598:	00001000 	andeq	r1, r0, r0
    359c:	09210100 	stmdbeq	r1!, {r8}
    35a0:	00000173 	andeq	r0, r0, r3, ror r1
    35a4:	0001e20f 	andeq	lr, r1, pc, lsl #4
    35a8:	00256400 	eoreq	r6, r5, r0, lsl #8
    35ac:	00255c00 	eoreq	r5, r5, r0, lsl #24
    35b0:	28110000 	ldmdacs	r1, {}	; <UNPREDICTABLE>
    35b4:	4f00009c 	svcmi	0x0000009c
    35b8:	11000002 	tstne	r0, r2
    35bc:	00009c2c 	andeq	r9, r0, ip, lsr #24
    35c0:	0000025c 	andeq	r0, r0, ip, asr r2
    35c4:	009c3412 	addseq	r3, ip, r2, lsl r4
    35c8:	00026800 	andeq	r6, r2, r0, lsl #16
    35cc:	00019800 	andeq	r9, r1, r0, lsl #16
    35d0:	50011300 	andpl	r1, r1, r0, lsl #6
    35d4:	12003a01 	andne	r3, r0, #4096	; 0x1000
    35d8:	00009c40 	andeq	r9, r0, r0, asr #24
    35dc:	00000274 	andeq	r0, r0, r4, ror r2
    35e0:	000001b8 			; <UNDEFINED> instruction: 0x000001b8
    35e4:	05500113 	ldrbeq	r0, [r0, #-275]	; 0xfffffeed
    35e8:	1000240c 	andne	r2, r0, ip, lsl #8
    35ec:	51011320 	tstpl	r1, r0, lsr #6
    35f0:	00010c05 	andeq	r0, r1, r5, lsl #24
    35f4:	14005a00 	strne	r5, [r0], #-2560	; 0xfffff600
    35f8:	00009c4c 	andeq	r9, r0, ip, asr #24
    35fc:	00000274 	andeq	r0, r0, r4, ror r2
    3600:	05500113 	ldrbeq	r0, [r0, #-275]	; 0xfffffeed
    3604:	10001c0c 	andne	r1, r0, ip, lsl #24
    3608:	51011320 	tstpl	r1, r0, lsr #6
    360c:	00200c05 	eoreq	r0, r0, r5, lsl #24
    3610:	00005a00 	andeq	r5, r0, r0, lsl #20
    3614:	00084f15 	andeq	r4, r8, r5, lsl pc
    3618:	06170100 	ldreq	r0, [r7], -r0, lsl #2
    361c:	0001ef01 	andeq	lr, r1, r1, lsl #30
    3620:	08ae0900 	stmiaeq	lr!, {r8, fp}
    3624:	18010000 	stmdane	r1, {}	; <UNPREDICTABLE>
    3628:	0000310e 	andeq	r3, r0, lr, lsl #2
    362c:	7f160000 	svcvc	0x00160000
    3630:	01000008 	tsteq	r0, r8
    3634:	0025050e 	eoreq	r0, r5, lr, lsl #10
    3638:	0d010000 	stceq	0, cr0, [r1, #-0]
    363c:	09000002 	stmdbeq	r0, {r1}
    3640:	000008ae 	andeq	r0, r0, lr, lsr #17
    3644:	310e0f01 	tstcc	lr, r1, lsl #30
    3648:	00000000 	andeq	r0, r0, r0
    364c:	0001ef17 	andeq	lr, r1, r7, lsl pc
    3650:	009bd400 	addseq	sp, fp, r0, lsl #8
    3654:	00001800 	andeq	r1, r0, r0, lsl #16
    3658:	2e9c0100 	fmlcse	f0, f4, f0
    365c:	0f000002 	svceq	0x00000002
    3660:	00000200 	andeq	r0, r0, r0, lsl #4
    3664:	000025a1 	andeq	r2, r0, r1, lsr #11
    3668:	0000259d 	muleq	r0, sp, r5
    366c:	01d51700 	bicseq	r1, r5, r0, lsl #14
    3670:	9bec0000 	blls	ffb03678 <__bss_end__+0xffaf8378>
    3674:	00140000 	andseq	r0, r4, r0
    3678:	9c010000 	stcls	0, cr0, [r1], {-0}
    367c:	0000024f 	andeq	r0, r0, pc, asr #4
    3680:	0001e20f 	andeq	lr, r1, pc, lsl #4
    3684:	0025c800 	eoreq	ip, r5, r0, lsl #16
    3688:	0025c000 	eoreq	ip, r5, r0
    368c:	32180000 	andscc	r0, r8, #0, 0
    3690:	32000008 	andcc	r0, r0, #8, 0
    3694:	02000008 	andeq	r0, r0, #8, 0
    3698:	19060136 	stmdbne	r6, {r1, r2, r4, r5, r8}
    369c:	000007b6 			; <UNDEFINED> instruction: 0x000007b6
    36a0:	000007b6 			; <UNDEFINED> instruction: 0x000007b6
    36a4:	19064d02 	stmdbne	r6, {r1, r8, sl, fp, lr}
    36a8:	00000792 	muleq	r0, r2, r7
    36ac:	00000792 	muleq	r0, r2, r7
    36b0:	19065802 	stmdbne	r6, {r1, fp, ip, lr}
    36b4:	00000849 	andeq	r0, r0, r9, asr #16
    36b8:	00000849 	andeq	r0, r0, r9, asr #16
    36bc:	0006ad02 	andeq	sl, r6, r2, lsl #26
    36c0:	0000053f 	andeq	r0, r0, pc, lsr r5
    36c4:	14190004 	ldrne	r0, [r9], #-4
    36c8:	01040000 	mrseq	r0, (UNDEF: 4)
    36cc:	00000554 	andeq	r0, r0, r4, asr r5
    36d0:	0008c90c 	andeq	ip, r8, ip, lsl #18
    36d4:	00061a00 	andeq	r1, r6, r0, lsl #20
    36d8:	009c6000 	addseq	r6, ip, r0
    36dc:	00011c00 	andeq	r1, r1, r0, lsl #24
    36e0:	001db900 	andseq	fp, sp, r0, lsl #18
    36e4:	05040200 	streq	r0, [r4, #-512]	; 0xfffffe00
    36e8:	00746e69 	rsbseq	r6, r4, r9, ror #28
    36ec:	b0070403 	andlt	r0, r7, r3, lsl #8
    36f0:	03000001 	movweq	r0, #1
    36f4:	01540601 	cmpeq	r4, r1, lsl #12
    36f8:	02030000 	andeq	r0, r3, #0, 0
    36fc:	0001de05 	andeq	sp, r1, r5, lsl #28
    3700:	05040300 	streq	r0, [r4, #-768]	; 0xfffffd00
    3704:	000001c2 	andeq	r0, r0, r2, asr #3
    3708:	bd050803 	stclt	8, cr0, [r5, #-12]
    370c:	03000001 	movweq	r0, #1
    3710:	01520801 	cmpeq	r2, r1, lsl #16
    3714:	02030000 	andeq	r0, r3, #0, 0
    3718:	00005207 	andeq	r5, r0, r7, lsl #4
    371c:	07040300 	streq	r0, [r4, -r0, lsl #6]
    3720:	000001ab 	andeq	r0, r0, fp, lsr #3
    3724:	a6070803 	strge	r0, [r7], -r3, lsl #16
    3728:	04000001 	streq	r0, [r0], #-1
    372c:	00000025 	andeq	r0, r0, r5, lsr #32
    3730:	0000007a 	andeq	r0, r0, sl, ror r0
    3734:	00002505 	andeq	r2, r0, r5, lsl #10
    3738:	cb060000 	blgt	183740 <__bss_end__+0x178440>
    373c:	02000001 	andeq	r0, r0, #1, 0
    3740:	00860e1c 	addeq	r0, r6, ip, lsl lr
    3744:	04070000 	streq	r0, [r7], #-0
    3748:	0000006b 	andeq	r0, r0, fp, rrx
    374c:	00002504 	andeq	r2, r0, r4, lsl #10
    3750:	00009b00 	andeq	r9, r0, r0, lsl #22
    3754:	009b0500 	addseq	r0, fp, r0, lsl #10
    3758:	07000000 	streq	r0, [r0, -r0]
    375c:	0000a804 	andeq	sl, r0, r4, lsl #16
    3760:	08010300 	stmdaeq	r1, {r8, r9}
    3764:	0000015b 	andeq	r0, r0, fp, asr r1
    3768:	0000a108 	andeq	sl, r0, r8, lsl #2
    376c:	06ba0600 	ldrteq	r0, [sl], r0, lsl #12
    3770:	21020000 	mrscs	r0, (UNDEF: 2)
    3774:	0000b90e 	andeq	fp, r0, lr, lsl #18
    3778:	8c040700 	stchi	7, cr0, [r4], {-0}
    377c:	09000000 	stmdbeq	r0, {}	; <UNPREDICTABLE>
    3780:	000008bf 			; <UNDEFINED> instruction: 0x000008bf
    3784:	28061e01 	stmdacs	r6, {r0, r9, sl, fp, ip}
    3788:	5400009d 	strpl	r0, [r0], #-157	; 0xffffff63
    378c:	01000000 	mrseq	r0, (UNDEF: 0)
    3790:	00020b9c 	muleq	r2, ip, fp
    3794:	65730a00 	ldrbvs	r0, [r3, #-2560]!	; 0xfffff600
    3798:	1e010063 	cdpne	0, 0, cr0, cr1, cr3, {3}
    379c:	00002c19 	andeq	r2, r0, r9, lsl ip
    37a0:	00260500 	eoreq	r0, r6, r0, lsl #10
    37a4:	00260100 	eoreq	r0, r6, r0, lsl #2
    37a8:	020b0b00 	andeq	r0, fp, #0, 22
    37ac:	9d280000 	stcls	0, cr0, [r8, #-0]
    37b0:	28020000 	stmdacs	r2, {}	; <UNPREDICTABLE>
    37b4:	01000004 	tsteq	r0, r4
    37b8:	180c051f 	stmdane	ip, {r0, r1, r2, r3, r4, r8, sl}
    37bc:	2a000002 	bcs	37cc <__code_start__-0x4834>
    37c0:	26000026 	strcs	r0, [r0], -r6, lsr #32
    37c4:	0d000026 	stceq	0, cr0, [r0, #-152]	; 0xffffff68
    37c8:	00000224 	andeq	r0, r0, r4, lsr #4
    37cc:	00009d3c 	andeq	r9, r0, ip, lsr sp
    37d0:	009d3c00 	addseq	r3, sp, r0, lsl #24
    37d4:	00004000 	andeq	r4, r0, r0
    37d8:	051c0100 	ldreq	r0, [ip, #-256]	; 0xffffff00
    37dc:	0002310c 	andeq	r3, r2, ip, lsl #2
    37e0:	00265700 	eoreq	r5, r6, r0, lsl #14
    37e4:	00265500 	eoreq	r5, r6, r0, lsl #10
    37e8:	023c0e00 	eorseq	r0, ip, #0, 28
    37ec:	266c0000 	strbtcs	r0, [ip], -r0
    37f0:	266a0000 	strbtcs	r0, [sl], -r0
    37f4:	550f0000 	strpl	r0, [pc, #-0]	; 37fc <__code_start__-0x4804>
    37f8:	3c000002 	stccc	0, cr0, [r0], {2}
    37fc:	0200009d 	andeq	r0, r0, #157, 0	; 0x9d
    3800:	00009d3c 	andeq	r9, r0, ip, lsr sp
    3804:	00000014 	andeq	r0, r0, r4, lsl r0
    3808:	9c131301 	ldcls	3, cr1, [r3], {1}
    380c:	0e000001 	cdpeq	0, 0, cr0, cr0, cr1, {0}
    3810:	00000266 	andeq	r0, r0, r6, ror #4
    3814:	00002683 	andeq	r2, r0, r3, lsl #13
    3818:	0000267f 	andeq	r2, r0, pc, ror r6
    381c:	0002710f 	andeq	r7, r2, pc, lsl #2
    3820:	009d4000 	addseq	r4, sp, r0
    3824:	9d400100 	stflse	f0, [r0, #-0]
    3828:	000c0000 	andeq	r0, ip, r0
    382c:	0d010000 	stceq	0, cr0, [r1, #-0]
    3830:	00018912 	andeq	r8, r1, r2, lsl r9
    3834:	9d481000 	stclls	0, cr1, [r8, #-0]
    3838:	052a0000 	streq	r0, [sl, #-0]!
    383c:	01110000 	tsteq	r1, r0
    3840:	040c0550 	streq	r0, [ip], #-1360	; 0xfffffab0
    3844:	00200030 	eoreq	r0, r0, r0, lsr r0
    3848:	9d401200 	sfmls	f1, 2, [r0, #-0]
    384c:	05360000 	ldreq	r0, [r6, #-0]!
    3850:	50120000 	andspl	r0, r2, r0
    3854:	3600009d 			; <UNDEFINED> instruction: 0x3600009d
    3858:	00000005 	andeq	r0, r0, r5
    385c:	00024713 	andeq	r4, r2, r3, lsl r7
    3860:	00044000 	andeq	r4, r4, r0
    3864:	02481400 	subeq	r1, r8, #0, 8
    3868:	550b0000 	strpl	r0, [fp, #-0]
    386c:	54000002 	strpl	r0, [r0], #-2
    3870:	0200009d 	andeq	r0, r0, #157, 0	; 0x9d
    3874:	00000458 	andeq	r0, r0, r8, asr r4
    3878:	15171501 	ldrne	r1, [r7, #-1281]	; 0xfffffaff
    387c:	00000458 	andeq	r0, r0, r8, asr r4
    3880:	0002660e 	andeq	r6, r2, lr, lsl #12
    3884:	0026a300 	eoreq	sl, r6, r0, lsl #6
    3888:	0026a100 	eoreq	sl, r6, r0, lsl #2
    388c:	02711600 	rsbseq	r1, r1, #0, 12
    3890:	9d580000 	ldclls	0, cr0, [r8, #-0]
    3894:	78010000 	stmdavc	r1, {}	; <UNPREDICTABLE>
    3898:	01000004 	tsteq	r0, r4
    389c:	01f3120d 	mvnseq	r1, sp, lsl #4
    38a0:	60100000 	andsvs	r0, r0, r0
    38a4:	2a00009d 	bcs	3b20 <__code_start__-0x44e0>
    38a8:	11000005 	tstne	r0, r5
    38ac:	77025001 	strvc	r5, [r2, -r1]
    38b0:	12000000 	andne	r0, r0, #0, 0
    38b4:	00009d58 	andeq	r9, r0, r8, asr sp
    38b8:	00000536 	andeq	r0, r0, r6, lsr r5
    38bc:	009d6c12 	addseq	r6, sp, r2, lsl ip
    38c0:	00053600 	andeq	r3, r5, r0, lsl #12
    38c4:	00000000 	andeq	r0, r0, r0
    38c8:	17000000 	strne	r0, [r0, -r0]
    38cc:	00000792 	muleq	r0, r2, r7
    38d0:	01061b01 	tsteq	r6, r1, lsl #22
    38d4:	00000224 	andeq	r0, r0, r4, lsr #4
    38d8:	00736d18 	rsbseq	r6, r3, r8, lsl sp
    38dc:	2c181b01 			; <UNDEFINED> instruction: 0x2c181b01
    38e0:	00000000 	andeq	r0, r0, r0
    38e4:	0008f217 	andeq	pc, r8, r7, lsl r2	; <UNPREDICTABLE>
    38e8:	06120100 	ldreq	r0, [r2], -r0, lsl #2
    38ec:	00025501 	andeq	r5, r2, r1, lsl #10
    38f0:	73751800 	cmnvc	r5, #0, 16
    38f4:	18120100 	ldmdane	r2, {r8}
    38f8:	0000002c 	andeq	r0, r0, ip, lsr #32
    38fc:	00627219 	rsbeq	r7, r2, r9, lsl r2
    3900:	2c0e1301 	stccs	3, cr1, [lr], {1}
    3904:	1a000000 	bne	390c <__code_start__-0x46f4>
    3908:	00617219 	rsbeq	r7, r1, r9, lsl r2
    390c:	2c121501 	cfldr32cs	mvfx1, [r2], {1}
    3910:	00000000 	andeq	r0, r0, r0
    3914:	08e31b00 	stmiaeq	r3!, {r8, r9, fp, ip}^
    3918:	09010000 	stmdbeq	r1, {}	; <UNPREDICTABLE>
    391c:	00002c0a 	andeq	r2, r0, sl, lsl #24
    3920:	02710100 	rsbseq	r0, r1, #0
    3924:	75190000 	ldrvc	r0, [r9, #-0]
    3928:	0e0d0100 	adfeqe	f0, f5, f0
    392c:	0000002c 	andeq	r0, r0, ip, lsr #32
    3930:	08fb1c00 	ldmeq	fp!, {sl, fp, ip}^
    3934:	04010000 	streq	r0, [r1], #-0
    3938:	00002c0a 	andeq	r2, r0, sl, lsl #24
    393c:	711d0100 	tstvc	sp, r0, lsl #2
    3940:	60000002 	andvs	r0, r0, r2
    3944:	0c00009c 	stceq	0, cr0, [r0], {156}	; 0x9c
    3948:	01000000 	mrseq	r0, (UNDEF: 0)
    394c:	0002a59c 	muleq	r2, ip, r5
    3950:	9c681e00 	stclls	14, cr1, [r8], #-0
    3954:	052a0000 	streq	r0, [sl, #-0]!
    3958:	01110000 	tsteq	r1, r0
    395c:	040c0550 	streq	r0, [ip], #-1360	; 0xfffffab0
    3960:	00200030 	eoreq	r0, r0, r0, lsr r0
    3964:	02551d00 	subseq	r1, r5, #0, 26
    3968:	9c6c0000 	stclls	0, cr0, [ip], #-0
    396c:	00240000 	eoreq	r0, r4, r0
    3970:	9c010000 	stcls	0, cr0, [r1], {-0}
    3974:	00000305 	andeq	r0, r0, r5, lsl #6
    3978:	0002660e 	andeq	r6, r2, lr, lsl #12
    397c:	0026ba00 	eoreq	fp, r6, r0, lsl #20
    3980:	0026b600 	eoreq	fp, r6, r0, lsl #12
    3984:	02710f00 	rsbseq	r0, r1, #0, 30
    3988:	9c740000 	ldclls	0, cr0, [r4], #-0
    398c:	74010000 	strvc	r0, [r1], #-0
    3990:	0c00009c 	stceq	0, cr0, [r0], {156}	; 0x9c
    3994:	01000000 	mrseq	r0, (UNDEF: 0)
    3998:	02f2120d 	rscseq	r1, r2, #-805306368	; 0xd0000000
    399c:	7c100000 	ldcvc	0, cr0, [r0], {-0}
    39a0:	2a00009c 	bcs	3c18 <__code_start__-0x43e8>
    39a4:	11000005 	tstne	r0, r5
    39a8:	0c055001 	stceq	0, cr5, [r5], {1}
    39ac:	20003004 	andcs	r3, r0, r4
    39b0:	74120000 	ldrvc	r0, [r2], #-0
    39b4:	3600009c 			; <UNDEFINED> instruction: 0x3600009c
    39b8:	12000005 	andne	r0, r0, #5, 0
    39bc:	00009c84 	andeq	r9, r0, r4, lsl #25
    39c0:	00000536 	andeq	r0, r0, r6, lsr r5
    39c4:	02241d00 	eoreq	r1, r4, #0, 26
    39c8:	9c900000 	ldcls	0, cr0, [r0], {0}
    39cc:	00480000 	subeq	r0, r8, r0
    39d0:	9c010000 	stcls	0, cr0, [r1], {-0}
    39d4:	00000407 	andeq	r0, r0, r7, lsl #8
    39d8:	0002310c 	andeq	r3, r2, ip, lsl #2
    39dc:	0026dc00 	eoreq	sp, r6, r0, lsl #24
    39e0:	0026d800 	eoreq	sp, r6, r0, lsl #16
    39e4:	023c0e00 	eorseq	r0, ip, #0, 28
    39e8:	26fc0000 	ldrbtcs	r0, [ip], r0
    39ec:	26fa0000 	ldrbtcs	r0, [sl], r0
    39f0:	55160000 	ldrpl	r0, [r6, #-0]
    39f4:	90000002 	andls	r0, r0, r2
    39f8:	0200009c 	andeq	r0, r0, #156, 0	; 0x9c
    39fc:	00000370 	andeq	r0, r0, r0, ror r3
    3a00:	9a131301 	bls	4c860c <__bss_end__+0x4bd30c>
    3a04:	15000003 	strne	r0, [r0, #-3]
    3a08:	00000370 	andeq	r0, r0, r0, ror r3
    3a0c:	0002660e 	andeq	r6, r2, lr, lsl #12
    3a10:	00271300 	eoreq	r1, r7, r0, lsl #6
    3a14:	00270f00 	eoreq	r0, r7, r0, lsl #30
    3a18:	02710f00 	rsbseq	r0, r1, #0, 30
    3a1c:	9c9c0000 	ldcls	0, cr0, [ip], {0}
    3a20:	9c010000 	stcls	0, cr0, [r1], {-0}
    3a24:	0c00009c 	stceq	0, cr0, [r0], {156}	; 0x9c
    3a28:	01000000 	mrseq	r0, (UNDEF: 0)
    3a2c:	0386120d 	orreq	r1, r6, #-805306368	; 0xd0000000
    3a30:	a4100000 	ldrge	r0, [r0], #-0
    3a34:	2a00009c 	bcs	3cac <__code_start__-0x4354>
    3a38:	11000005 	tstne	r0, r5
    3a3c:	0c055001 	stceq	0, cr5, [r5], {1}
    3a40:	20003004 	andcs	r3, r0, r4
    3a44:	9c120000 	ldcls	0, cr0, [r2], {-0}
    3a48:	3600009c 			; <UNDEFINED> instruction: 0x3600009c
    3a4c:	12000005 	andne	r0, r0, #5, 0
    3a50:	00009cac 	andeq	r9, r0, ip, lsr #25
    3a54:	00000536 	andeq	r0, r0, r6, lsr r5
    3a58:	47130000 	ldrmi	r0, [r3, -r0]
    3a5c:	88000002 	stmdahi	r0, {r1}
    3a60:	14000003 	strne	r0, [r0], #-3
    3a64:	00000248 	andeq	r0, r0, r8, asr #4
    3a68:	0002550b 	andeq	r5, r2, fp, lsl #10
    3a6c:	009cb000 	addseq	fp, ip, r0
    3a70:	03a00200 	moveq	r0, #0, 4
    3a74:	15010000 	strne	r0, [r1, #-0]
    3a78:	03a01517 	moveq	r1, #96468992	; 0x5c00000
    3a7c:	660e0000 	strvs	r0, [lr], -r0
    3a80:	33000002 	movwcc	r0, #2
    3a84:	31000027 	tstcc	r0, r7, lsr #32
    3a88:	16000027 	strne	r0, [r0], -r7, lsr #32
    3a8c:	00000271 	andeq	r0, r0, r1, ror r2
    3a90:	00009cb4 			; <UNDEFINED> instruction: 0x00009cb4
    3a94:	0003c001 	andeq	ip, r3, r1
    3a98:	120d0100 	andne	r0, sp, #0
    3a9c:	000003f1 	strdeq	r0, [r0], -r1
    3aa0:	009cbc10 	addseq	fp, ip, r0, lsl ip
    3aa4:	00052a00 	andeq	r2, r5, r0, lsl #20
    3aa8:	50011100 	andpl	r1, r1, r0, lsl #2
    3aac:	00007702 	andeq	r7, r0, r2, lsl #14
    3ab0:	9cb41200 	lfmls	f1, 4, [r4]
    3ab4:	05360000 	ldreq	r0, [r6, #-0]!
    3ab8:	c8120000 	ldmdagt	r2, {}	; <UNPREDICTABLE>
    3abc:	3600009c 			; <UNDEFINED> instruction: 0x3600009c
    3ac0:	00000005 	andeq	r0, r0, r5
    3ac4:	1d000000 	stcne	0, cr0, [r0, #-0]
    3ac8:	0000020b 	andeq	r0, r0, fp, lsl #4
    3acc:	00009cd8 	ldrdeq	r9, [r0], -r8
    3ad0:	00000050 	andeq	r0, r0, r0, asr r0
    3ad4:	052a9c01 	streq	r9, [sl, #-3073]!	; 0xfffff3ff
    3ad8:	180c0000 	stmdane	ip, {}	; <UNPREDICTABLE>
    3adc:	4a000002 	bmi	3aec <__code_start__-0x4514>
    3ae0:	46000027 	strmi	r0, [r0], -r7, lsr #32
    3ae4:	0d000027 	stceq	0, cr0, [r0, #-156]	; 0xffffff64
    3ae8:	00000224 	andeq	r0, r0, r4, lsr #4
    3aec:	00009ce8 	andeq	r9, r0, r8, ror #25
    3af0:	009ce800 	addseq	lr, ip, r0, lsl #16
    3af4:	00004000 	andeq	r4, r0, r0
    3af8:	051c0100 	ldreq	r0, [ip, #-256]	; 0xffffff00
    3afc:	0002310c 	andeq	r3, r2, ip, lsl #2
    3b00:	00276d00 	eoreq	r6, r7, r0, lsl #26
    3b04:	00276b00 	eoreq	r6, r7, r0, lsl #22
    3b08:	023c0e00 	eorseq	r0, ip, #0, 28
    3b0c:	27820000 	strcs	r0, [r2, r0]
    3b10:	27800000 	strcs	r0, [r0, r0]
    3b14:	550f0000 	strpl	r0, [pc, #-0]	; 3b1c <__code_start__-0x44e4>
    3b18:	e8000002 	stmda	r0, {r1}
    3b1c:	0200009c 	andeq	r0, r0, #156, 0	; 0x9c
    3b20:	00009ce8 	andeq	r9, r0, r8, ror #25
    3b24:	00000014 	andeq	r0, r0, r4, lsl r0
    3b28:	bc131301 	ldclt	3, cr1, [r3], {1}
    3b2c:	0e000004 	cdpeq	0, 0, cr0, cr0, cr4, {0}
    3b30:	00000266 	andeq	r0, r0, r6, ror #4
    3b34:	00002799 	muleq	r0, r9, r7
    3b38:	00002795 	muleq	r0, r5, r7
    3b3c:	0002710f 	andeq	r7, r2, pc, lsl #2
    3b40:	009cec00 	addseq	lr, ip, r0, lsl #24
    3b44:	9cec0100 	stflse	f0, [ip]
    3b48:	000c0000 	andeq	r0, ip, r0
    3b4c:	0d010000 	stceq	0, cr0, [r1, #-0]
    3b50:	0004a912 	andeq	sl, r4, r2, lsl r9
    3b54:	9cf41000 	ldclls	0, cr1, [r4]
    3b58:	052a0000 	streq	r0, [sl, #-0]!
    3b5c:	01110000 	tsteq	r1, r0
    3b60:	040c0550 	streq	r0, [ip], #-1360	; 0xfffffab0
    3b64:	00200030 	eoreq	r0, r0, r0, lsr r0
    3b68:	9cec1200 	sfmls	f1, 2, [ip]
    3b6c:	05360000 	ldreq	r0, [r6, #-0]!
    3b70:	fc120000 	ldc2	0, cr0, [r2], {-0}
    3b74:	3600009c 			; <UNDEFINED> instruction: 0x3600009c
    3b78:	00000005 	andeq	r0, r0, r5
    3b7c:	00024713 	andeq	r4, r2, r3, lsl r7
    3b80:	0003d800 	andeq	sp, r3, r0, lsl #16
    3b84:	02481400 	subeq	r1, r8, #0, 8
    3b88:	550b0000 	strpl	r0, [fp, #-0]
    3b8c:	00000002 	andeq	r0, r0, r2
    3b90:	0200009d 	andeq	r0, r0, #157, 0	; 0x9d
    3b94:	000003f0 	strdeq	r0, [r0], -r0	; <UNPREDICTABLE>
    3b98:	15171501 	ldrne	r1, [r7, #-1281]	; 0xfffffaff
    3b9c:	000003f0 	strdeq	r0, [r0], -r0	; <UNPREDICTABLE>
    3ba0:	0002660e 	andeq	r6, r2, lr, lsl #12
    3ba4:	0027b900 	eoreq	fp, r7, r0, lsl #18
    3ba8:	0027b700 	eoreq	fp, r7, r0, lsl #14
    3bac:	02711600 	rsbseq	r1, r1, #0, 12
    3bb0:	9d040000 	stcls	0, cr0, [r4, #-0]
    3bb4:	10010000 	andne	r0, r1, r0
    3bb8:	01000004 	tsteq	r0, r4
    3bbc:	0513120d 	ldreq	r1, [r3, #-525]	; 0xfffffdf3
    3bc0:	0c100000 	ldceq	0, cr0, [r0], {-0}
    3bc4:	2a00009d 	bcs	3e40 <__code_start__-0x41c0>
    3bc8:	11000005 	tstne	r0, r5
    3bcc:	77025001 	strvc	r5, [r2, -r1]
    3bd0:	12000000 	andne	r0, r0, #0, 0
    3bd4:	00009d04 	andeq	r9, r0, r4, lsl #26
    3bd8:	00000536 	andeq	r0, r0, r6, lsr r5
    3bdc:	009d1812 	addseq	r1, sp, r2, lsl r8
    3be0:	00053600 	andeq	r3, r5, r0, lsl #12
    3be4:	00000000 	andeq	r0, r0, r0
    3be8:	dd1f0000 	ldcle	0, cr0, [pc, #-0]	; 3bf0 <__code_start__-0x4410>
    3bec:	dd000008 	stcle	0, cr0, [r0, #-32]	; 0xffffffe0
    3bf0:	02000008 	andeq	r0, r0, #8, 0
    3bf4:	b31f0ac2 	tstlt	pc, #794624	; 0xc2000
    3bf8:	b3000008 	movwlt	r0, #8
    3bfc:	02000008 	andeq	r0, r0, #8, 0
    3c00:	cd00069c 	stcgt	6, cr0, [r0, #-624]	; 0xfffffd90
    3c04:	04000005 	streq	r0, [r0], #-5
    3c08:	0015e800 	andseq	lr, r5, r0, lsl #16
    3c0c:	0e010400 	cfcpyseq	mvf0, mvf1
    3c10:	0c00000a 	stceq	0, cr0, [r0], {10}
    3c14:	0000094d 	andeq	r0, r0, sp, asr #18
    3c18:	000009be 			; <UNDEFINED> instruction: 0x000009be
    3c1c:	00009d7c 	andeq	r9, r0, ip, ror sp
    3c20:	000001f0 	strdeq	r0, [r0], -r0	; <UNPREDICTABLE>
    3c24:	00001fb7 			; <UNDEFINED> instruction: 0x00001fb7
    3c28:	69050402 	stmdbvs	r5, {r1, sl}
    3c2c:	0300746e 	movweq	r7, #1134	; 0x46e
    3c30:	01b00704 	lslseq	r0, r4, #14
    3c34:	2c040000 	stccs	0, cr0, [r4], {-0}
    3c38:	03000000 	movweq	r0, #0
    3c3c:	01540601 	cmpeq	r4, r1, lsl #12
    3c40:	02030000 	andeq	r0, r3, #0, 0
    3c44:	0001de05 	andeq	sp, r1, r5, lsl #28
    3c48:	05040300 	streq	r0, [r4, #-768]	; 0xfffffd00
    3c4c:	000001c2 	andeq	r0, r0, r2, asr #3
    3c50:	bd050803 	stclt	8, cr0, [r5, #-12]
    3c54:	03000001 	movweq	r0, #1
    3c58:	01520801 	cmpeq	r2, r1, lsl #16
    3c5c:	02030000 	andeq	r0, r3, #0, 0
    3c60:	00005207 	andeq	r5, r0, r7, lsl #4
    3c64:	02ca0500 	sbceq	r0, sl, #0, 10
    3c68:	34050000 	strcc	r0, [r5], #-0
    3c6c:	00006e19 	andeq	r6, r0, r9, lsl lr
    3c70:	07040300 	streq	r0, [r4, -r0, lsl #6]
    3c74:	000001ab 	andeq	r0, r0, fp, lsr #3
    3c78:	a6070803 	strge	r0, [r7], -r3, lsl #16
    3c7c:	03000001 	movweq	r0, #1
    3c80:	015b0801 	cmpeq	fp, r1, lsl #16
    3c84:	07060000 	streq	r0, [r6, -r0]
    3c88:	00005401 	andeq	r5, r0, r1, lsl #8
    3c8c:	0e0c0400 	cfcpyseq	mvf0, mvf12
    3c90:	000000c2 	andeq	r0, r0, r2, asr #1
    3c94:	000af807 	andeq	pc, sl, r7, lsl #16
    3c98:	30070000 	andcc	r0, r7, r0
    3c9c:	01000009 	tsteq	r0, r9
    3ca0:	00097307 	andeq	r7, r9, r7, lsl #6
    3ca4:	82070400 	andhi	r0, r7, #0, 8
    3ca8:	05000009 	streq	r0, [r0, #-9]
    3cac:	00099107 	andeq	r9, r9, r7, lsl #2
    3cb0:	a0070600 	andge	r0, r7, r0, lsl #12
    3cb4:	07000009 	streq	r0, [r0, -r9]
    3cb8:	000ac107 	andeq	ip, sl, r7, lsl #2
    3cbc:	af070300 	svcge	0x00070300
    3cc0:	02000009 	andeq	r0, r0, #9, 0
    3cc4:	09410800 	stmdbeq	r1, {fp}^
    3cc8:	022c0000 	eoreq	r0, ip, #0, 0
    3ccc:	015e0806 	cmpeq	lr, r6, lsl #16
    3cd0:	69090000 	stmdbvs	r9, {}	; <UNPREDICTABLE>
    3cd4:	0902006f 	stmdbeq	r2, {r0, r1, r2, r3, r5, r6}
    3cd8:	00003309 	andeq	r3, r0, r9, lsl #6
    3cdc:	69090000 	stmdbvs	r9, {}	; <UNPREDICTABLE>
    3ce0:	02007265 	andeq	r7, r0, #1342177286	; 0x50000006
    3ce4:	0033090a 	eorseq	r0, r3, sl, lsl #18
    3ce8:	09040000 	stmdbeq	r4, {}	; <UNPREDICTABLE>
    3cec:	00726969 	rsbseq	r6, r2, r9, ror #18
    3cf0:	33091102 	movwcc	r1, #37122	; 0x9102
    3cf4:	08000000 	stmdaeq	r0, {}	; <UNPREDICTABLE>
    3cf8:	72636c09 	rsbvc	r6, r3, #2304	; 0x900
    3cfc:	09130200 	ldmdbeq	r3, {r9}
    3d00:	00000033 	andeq	r0, r0, r3, lsr r0
    3d04:	636d090c 	cmnvs	sp, #12, 18	; 0x30000
    3d08:	14020072 	strne	r0, [r2], #-114	; 0xffffff8e
    3d0c:	00003309 	andeq	r3, r0, r9, lsl #6
    3d10:	6c091000 	stcvs	0, cr1, [r9], {-0}
    3d14:	02007273 	andeq	r7, r0, #805306375	; 0x30000007
    3d18:	00330915 	eorseq	r0, r3, r5, lsl r9
    3d1c:	09140000 	ldmdbeq	r4, {}	; <UNPREDICTABLE>
    3d20:	0072736d 	rsbseq	r7, r2, sp, ror #6
    3d24:	33091602 	movwcc	r1, #38402	; 0x9602
    3d28:	18000000 	stmdane	r0, {}	; <UNPREDICTABLE>
    3d2c:	000ad80a 	andeq	sp, sl, sl, lsl #16
    3d30:	09170200 	ldmdbeq	r7, {r9}
    3d34:	00000033 	andeq	r0, r0, r3, lsr r0
    3d38:	0aa10a1c 	beq	fe8465b0 <__bss_end__+0xfe83b2b0>
    3d3c:	1b020000 	blne	83d44 <__bss_end__+0x78a44>
    3d40:	00003309 	andeq	r3, r0, r9, lsl #6
    3d44:	1d0a2000 	stcne	0, cr2, [sl, #-0]
    3d48:	02000009 	andeq	r0, r0, #9, 0
    3d4c:	0033091d 	eorseq	r0, r3, sp, lsl r9
    3d50:	0a240000 	beq	903d58 <__bss_end__+0x8f8a58>
    3d54:	000009f3 	strdeq	r0, [r0], -r3
    3d58:	33091e02 	movwcc	r1, #40450	; 0x9e02
    3d5c:	28000000 	stmdacs	r0, {}	; <UNPREDICTABLE>
    3d60:	09f80b00 	ldmibeq	r8!, {r8, r9, fp}^
    3d64:	08010000 	stmdaeq	r1, {}	; <UNPREDICTABLE>
    3d68:	00017409 	andeq	r7, r1, r9, lsl #8
    3d6c:	21500400 	cmpcs	r0, r0, lsl #8
    3d70:	33040c20 	movwcc	r0, #19488	; 0x4c20
    3d74:	0d000000 	stceq	0, cr0, [r0, #-0]
    3d78:	0000016e 	andeq	r0, r0, lr, ror #2
    3d7c:	000ae00b 	andeq	lr, sl, fp
    3d80:	23290100 			; <UNDEFINED> instruction: 0x23290100
    3d84:	0000018f 	andeq	r0, r0, pc, lsl #3
    3d88:	20215040 	eorcs	r5, r1, r0, asr #32
    3d8c:	00c2040c 	sbceq	r0, r2, ip, lsl #8
    3d90:	890d0000 	stmdbhi	sp, {}	; <UNPREDICTABLE>
    3d94:	0e000001 	cdpeq	0, 0, cr0, cr0, cr1, {0}
    3d98:	000007b6 			; <UNDEFINED> instruction: 0x000007b6
    3d9c:	3406cc01 	strcc	ip, [r6], #-3073	; 0xfffff3ff
    3da0:	1400009f 	strne	r0, [r0], #-159	; 0xffffff61
    3da4:	01000000 	mrseq	r0, (UNDEF: 0)
    3da8:	0001b49c 	muleq	r1, ip, r4
    3dac:	9f3c0f00 	svcls	0x003c0f00
    3db0:	01b40000 			; <UNDEFINED> instruction: 0x01b40000
    3db4:	10000000 	andne	r0, r0, r0
    3db8:	00000962 	andeq	r0, r0, r2, ror #18
    3dbc:	2505b601 	strcs	fp, [r5, #-1537]	; 0xfffff9ff
    3dc0:	14000000 	strne	r0, [r0], #-0
    3dc4:	2000009f 	mulcs	r0, pc, r0	; <UNPREDICTABLE>
    3dc8:	01000000 	mrseq	r0, (UNDEF: 0)
    3dcc:	0001eb9c 	muleq	r1, ip, fp
    3dd0:	9f1c0f00 	svcls	0x001c0f00
    3dd4:	05a00000 	streq	r0, [r0, #0]!
    3dd8:	24110000 	ldrcs	r0, [r1], #-0
    3ddc:	ac00009f 	stcge	0, cr0, [r0], {159}	; 0x9f
    3de0:	12000005 	andne	r0, r0, #5, 0
    3de4:	0c055001 	stceq	0, cr5, [r5], {1}
    3de8:	20215064 	eorcs	r5, r1, r4, rrx
    3dec:	b3100000 	tstlt	r0, #0, 0
    3df0:	0100000a 	tsteq	r0, sl
    3df4:	002505b3 	strhteq	r0, [r5], -r3
    3df8:	9f040000 	svcls	0x00040000
    3dfc:	00100000 	andseq	r0, r0, r0
    3e00:	9c010000 	stcls	0, cr0, [r1], {-0}
    3e04:	00000218 	andeq	r0, r0, r8, lsl r2
    3e08:	009f0c0f 	addseq	r0, pc, pc, lsl #24
    3e0c:	0005a000 	andeq	sl, r5, r0
    3e10:	9f100f00 	svcls	0x00100f00
    3e14:	03090000 	movweq	r0, #36864	; 0x9000
    3e18:	0e000000 	cdpeq	0, 0, cr0, cr0, cr0, {0}
    3e1c:	00000aee 	andeq	r0, r0, lr, ror #21
    3e20:	d406ab01 	strle	sl, [r6], #-2817	; 0xfffff4ff
    3e24:	3000009e 	mulcc	r0, lr, r0
    3e28:	01000000 	mrseq	r0, (UNDEF: 0)
    3e2c:	00027c9c 	muleq	r2, ip, ip
    3e30:	00631300 	rsbeq	r1, r3, r0, lsl #6
    3e34:	2c19ab01 			; <UNDEFINED> instruction: 0x2c19ab01
    3e38:	d0000000 	andle	r0, r0, r0
    3e3c:	cc000027 	stcgt	0, cr0, [r0], {39}	; 0x27
    3e40:	0f000027 	svceq	0x00000027
    3e44:	00009ee0 	andeq	r9, r0, r0, ror #29
    3e48:	000005a0 	andeq	r0, r0, r0, lsr #11
    3e4c:	009ee40f 	addseq	lr, lr, pc, lsl #8
    3e50:	0002db00 	andeq	sp, r2, r0, lsl #22
    3e54:	9ef81400 	cdpls	4, 15, cr1, cr8, cr0, {0}
    3e58:	05b80000 	ldreq	r0, [r8, #0]!
    3e5c:	02720000 	rsbseq	r0, r2, #0, 0
    3e60:	01120000 	tsteq	r2, r0
    3e64:	400c0550 	andmi	r0, ip, r0, asr r5
    3e68:	12202150 	eorne	r2, r0, #20
    3e6c:	74055101 	strvc	r5, [r5], #-257	; 0xfffffeff
    3e70:	1aff0800 	bne	fffc5e78 <__bss_end__+0xfffbab78>
    3e74:	9efc0f00 	cdpls	15, 15, cr0, cr12, cr0, {0}
    3e78:	05a00000 	streq	r0, [r0, #0]!
    3e7c:	10000000 	andne	r0, r0, r0
    3e80:	00000a04 	andeq	r0, r0, r4, lsl #20
    3e84:	2505a301 	strcs	sl, [r5, #-769]	; 0xfffffcff
    3e88:	a4000000 	strge	r0, [r0], #-0
    3e8c:	3000009e 	mulcc	r0, lr, r0
    3e90:	01000000 	mrseq	r0, (UNDEF: 0)
    3e94:	0002db9c 	muleq	r2, ip, fp
    3e98:	00631500 	rsbeq	r1, r3, r0, lsl #10
    3e9c:	2509a701 	strcs	sl, [r9, #-1793]	; 0xfffff8ff
    3ea0:	f0000000 			; <UNDEFINED> instruction: 0xf0000000
    3ea4:	ee000027 	cdp	0, 0, cr0, cr0, cr7, {1}
    3ea8:	0f000027 	svceq	0x00000027
    3eac:	00009eac 	andeq	r9, r0, ip, lsr #29
    3eb0:	000005a0 	andeq	r0, r0, r0, lsr #11
    3eb4:	009eb00f 	addseq	fp, lr, pc
    3eb8:	00030900 	andeq	r0, r3, r0, lsl #18
    3ebc:	9ec01400 	cdpls	4, 12, cr1, cr0, cr0, {0}
    3ec0:	05ac0000 	streq	r0, [ip, #0]!
    3ec4:	02d10000 	sbcseq	r0, r1, #0, 0
    3ec8:	01120000 	tsteq	r2, r0
    3ecc:	400c0550 	andmi	r0, ip, r0, asr r5
    3ed0:	00202150 	eoreq	r2, r0, r0, asr r1
    3ed4:	009ec80f 	addseq	ip, lr, pc, lsl #16
    3ed8:	0005a000 	andeq	sl, r5, r0
    3edc:	54100000 	ldrpl	r0, [r0], #-0
    3ee0:	01000009 	tsteq	r0, r9
    3ee4:	00250594 	mlaeq	r5, r4, r5, r0
    3ee8:	9e840000 	cdpls	0, 8, cr0, cr4, cr0, {0}
    3eec:	00200000 	eoreq	r0, r0, r0
    3ef0:	9c010000 	stcls	0, cr0, [r1], {-0}
    3ef4:	00000309 	andeq	r0, r0, r9, lsl #6
    3ef8:	009e9011 	addseq	r9, lr, r1, lsl r0
    3efc:	0005ac00 	andeq	sl, r5, r0, lsl #24
    3f00:	50011200 	andpl	r1, r1, r0, lsl #4
    3f04:	50640c05 	rsbpl	r0, r4, r5, lsl #24
    3f08:	00002021 	andeq	r2, r0, r1, lsr #32
    3f0c:	00092210 	andeq	r2, r9, r0, lsl r2
    3f10:	058b0100 	streq	r0, [fp, #256]	; 0x100
    3f14:	00000025 	andeq	r0, r0, r5, lsr #32
    3f18:	00009e6c 	andeq	r9, r0, ip, ror #28
    3f1c:	00000018 	andeq	r0, r0, r8, lsl r0
    3f20:	03379c01 	teqeq	r7, #256	; 0x100
    3f24:	78110000 	ldmdavc	r1, {}	; <UNPREDICTABLE>
    3f28:	ac00009e 	stcge	0, cr0, [r0], {158}	; 0x9e
    3f2c:	12000005 	andne	r0, r0, #5, 0
    3f30:	0c055001 	stceq	0, cr5, [r5], {1}
    3f34:	20215064 	eorcs	r5, r1, r4, rrx
    3f38:	d40e0000 	strle	r0, [lr], #-0
    3f3c:	01000007 	tsteq	r0, r7
    3f40:	9dbc0645 	ldcls	6, cr0, [ip, #276]!	; 0x114
    3f44:	00b00000 	adcseq	r0, r0, r0
    3f48:	9c010000 	stcls	0, cr0, [r1], {-0}
    3f4c:	00000484 	andeq	r0, r0, r4, lsl #9
    3f50:	00091416 	andeq	r1, r9, r6, lsl r4
    3f54:	0e7e0100 	rpweqe	f0, f6, f0
    3f58:	00000062 	andeq	r0, r0, r2, rrx
    3f5c:	cc14010e 	ldfgts	f0, [r4], {14}
    3f60:	c400009d 	strgt	r0, [r0], #-157	; 0xffffff63
    3f64:	73000005 	movwvc	r0, #5
    3f68:	12000003 	andne	r0, r0, #3, 0
    3f6c:	3e015001 	cdpcc	0, 0, cr5, cr1, cr1, {0}
    3f70:	01510112 	cmpeq	r1, r2, lsl r1
    3f74:	d8140032 	ldmdale	r4, {r1, r4, r5}
    3f78:	c400009d 	strgt	r0, [r0], #-157	; 0xffffff63
    3f7c:	8b000005 	blhi	3f98 <__code_start__-0x4068>
    3f80:	12000003 	andne	r0, r0, #3, 0
    3f84:	3f015001 	svccc	0x00015001
    3f88:	01510112 	cmpeq	r1, r2, lsl r1
    3f8c:	dc0f0032 	stcle	0, cr0, [pc], {50}	; 0x32
    3f90:	a000009d 	mulge	r0, sp, r0
    3f94:	14000005 	strne	r0, [r0], #-5
    3f98:	00009de8 	andeq	r9, r0, r8, ror #27
    3f9c:	0000053d 	andeq	r0, r0, sp, lsr r5
    3fa0:	000003b0 			; <UNDEFINED> instruction: 0x000003b0
    3fa4:	05500112 	ldrbeq	r0, [r0, #-274]	; 0xfffffeee
    3fa8:	2150040c 	cmpcs	r0, ip, lsl #8
    3fac:	51011220 	tstpl	r1, r0, lsr #4
    3fb0:	0f003101 	svceq	0x00003101
    3fb4:	00009dec 	andeq	r9, r0, ip, ror #27
    3fb8:	000005a0 	andeq	r0, r0, r0, lsr #11
    3fbc:	009dfc14 	addseq	pc, sp, r4, lsl ip	; <UNPREDICTABLE>
    3fc0:	0005b800 	andeq	fp, r5, r0, lsl #16
    3fc4:	0003d200 	andeq	sp, r3, r0, lsl #4
    3fc8:	50011200 	andpl	r1, r1, r0, lsl #4
    3fcc:	12007402 	andne	r7, r0, #33554432	; 0x2000000
    3fd0:	30015101 	andcc	r5, r1, r1, lsl #2
    3fd4:	9e081400 	cfcpysls	mvf1, mvf8
    3fd8:	05b80000 	ldreq	r0, [r8, #0]!
    3fdc:	03ee0000 	mvneq	r0, #0, 0
    3fe0:	01120000 	tsteq	r2, r0
    3fe4:	440c0550 	strmi	r0, [ip], #-1360	; 0xfffffab0
    3fe8:	12202150 	eorne	r2, r0, #20
    3fec:	30015101 	andcc	r5, r1, r1, lsl #2
    3ff0:	9e141400 	cfmulsls	mvf1, mvf4, mvf0
    3ff4:	05b80000 	ldreq	r0, [r8, #0]!
    3ff8:	040a0000 	streq	r0, [sl], #-0
    3ffc:	01120000 	tsteq	r2, r0
    4000:	4c0c0550 	cfstr32mi	mvfx0, [ip], {80}	; 0x50
    4004:	12202150 	eorne	r2, r0, #20
    4008:	33015101 	movwcc	r5, #4353	; 0x1101
    400c:	9e201400 	cdpls	4, 2, cr1, cr0, cr0, {0}
    4010:	05b80000 	ldreq	r0, [r8, #0]!
    4014:	04260000 	strteq	r0, [r6], #-0
    4018:	01120000 	tsteq	r2, r0
    401c:	500c0550 	andpl	r0, ip, r0, asr r5
    4020:	12202150 	eorne	r2, r0, #20
    4024:	30015101 	andcc	r5, r1, r1, lsl #2
    4028:	9e2c1400 	cdpls	4, 2, cr1, cr12, cr0, {0}
    402c:	05b80000 	ldreq	r0, [r8, #0]!
    4030:	04430000 	strbeq	r0, [r3], #-0
    4034:	01120000 	tsteq	r2, r0
    4038:	480c0550 	stmdami	ip, {r4, r6, r8, sl}
    403c:	12202150 	eorne	r2, r0, #20
    4040:	08025101 	stmdaeq	r2, {r0, r8, ip, lr}
    4044:	381400c7 	ldmdacc	r4, {r0, r1, r2, r6, r7}
    4048:	b800009e 	stmdalt	r0, {r1, r2, r3, r4, r7}
    404c:	61000005 	tstvs	r0, r5
    4050:	12000004 	andne	r0, r0, #4, 0
    4054:	0c055001 	stceq	0, cr5, [r5], {1}
    4058:	20215068 	eorcs	r5, r1, r8, rrx
    405c:	03510112 	cmpeq	r1, #-2147483644	; 0x80000004
    4060:	00010e0a 	andeq	r0, r1, sl, lsl #28
    4064:	009e4414 	addseq	r4, lr, r4, lsl r4
    4068:	0005b800 	andeq	fp, r5, r0, lsl #16
    406c:	00047a00 	andeq	r7, r4, r0, lsl #20
    4070:	50011200 	andpl	r1, r1, r0, lsl #4
    4074:	12007402 	andne	r7, r0, #33554432	; 0x2000000
    4078:	33015101 	movwcc	r5, #4353	; 0x1101
    407c:	9e480f00 	cdpls	15, 4, cr0, cr8, cr0, {0}
    4080:	05a00000 	streq	r0, [r0, #0]!
    4084:	0e000000 	cdpeq	0, 0, cr0, cr0, cr0, {0}
    4088:	00000aa6 	andeq	r0, r0, r6, lsr #21
    408c:	48063501 	stmdami	r6, {r0, r8, sl, ip, sp}
    4090:	2400009f 	strcs	r0, [r0], #-159	; 0xffffff61
    4094:	01000000 	mrseq	r0, (UNDEF: 0)
    4098:	0004d39c 	muleq	r4, ip, r3
    409c:	9f500f00 	svcls	0x00500f00
    40a0:	01940000 	orrseq	r0, r4, r0
    40a4:	540f0000 	strpl	r0, [pc], #-0	; 40ac <__code_start__-0x3f54>
    40a8:	a000009f 	mulge	r0, pc, r0	; <UNPREDICTABLE>
    40ac:	14000005 	strne	r0, [r0], #-5
    40b0:	00009f60 	andeq	r9, r0, r0, ror #30
    40b4:	000004d3 	ldrdeq	r0, [r0], -r3
    40b8:	000004c9 	andeq	r0, r0, r9, asr #9
    40bc:	05500112 	ldrbeq	r0, [r0, #-274]	; 0xfffffeee
    40c0:	2150040c 	cmpcs	r0, ip, lsl #8
    40c4:	51011220 	tstpl	r1, r0, lsr #4
    40c8:	00fe0902 	rscseq	r0, lr, r2, lsl #18
    40cc:	009f640f 	addseq	r6, pc, pc, lsl #8
    40d0:	0005a000 	andeq	sl, r5, r0
    40d4:	e5170000 	ldr	r0, [r7, #-0]
    40d8:	0100000a 	tsteq	r0, sl
    40dc:	9d7c0d31 	ldclls	13, cr0, [ip, #-196]!	; 0xffffff3c
    40e0:	00200000 	eoreq	r0, r0, r0
    40e4:	9c010000 	stcls	0, cr0, [r1], {-0}
    40e8:	00000536 	andeq	r0, r0, r6, lsr r5
    40ec:	00061518 	andeq	r1, r6, r8, lsl r5
    40f0:	25310100 	ldrcs	r0, [r1, #-256]!	; 0xffffff00
    40f4:	00000536 	andeq	r0, r0, r6, lsr r5
    40f8:	00002807 	andeq	r2, r0, r7, lsl #16
    40fc:	00002803 	andeq	r2, r0, r3, lsl #16
    4100:	6c617613 	stclvs	6, cr7, [r1], #-76	; 0xffffffb4
    4104:	34310100 	ldrtcc	r0, [r1], #-256	; 0xffffff00
    4108:	0000002c 	andeq	r0, r0, ip, lsr #32
    410c:	00002829 	andeq	r2, r0, r9, lsr #16
    4110:	00002825 	andeq	r2, r0, r5, lsr #16
    4114:	009d8c14 	addseq	r8, sp, r4, lsl ip
    4118:	0005ac00 	andeq	sl, r5, r0, lsl #24
    411c:	00052500 	andeq	r2, r5, r0, lsl #10
    4120:	50011200 	andpl	r1, r1, r0, lsl #4
    4124:	00007402 	andeq	r7, r0, r2, lsl #8
    4128:	009d9811 	addseq	r9, sp, r1, lsl r8
    412c:	0005b800 	andeq	fp, r5, r0, lsl #16
    4130:	50011200 	andpl	r1, r1, r0, lsl #4
    4134:	00007402 	andeq	r7, r0, r2, lsl #8
    4138:	3c040c00 	stccc	12, cr0, [r4], {-0}
    413c:	19000005 	stmdbne	r0, {r0, r2}
    4140:	000ad017 	andeq	sp, sl, r7, lsl r0
    4144:	0d2e0100 	stfeqs	f0, [lr, #-0]
    4148:	00009d9c 	muleq	r0, ip, sp
    414c:	00000020 	andeq	r0, r0, r0, lsr #32
    4150:	05a09c01 	streq	r9, [r0, #3073]!	; 0xc01
    4154:	15180000 	ldrne	r0, [r8, #-0]
    4158:	01000006 	tsteq	r0, r6
    415c:	0536242e 	ldreq	r2, [r6, #-1070]!	; 0xfffffbd2
    4160:	284b0000 	stmdacs	fp, {}^	; <UNPREDICTABLE>
    4164:	28470000 	stmdacs	r7, {}^	; <UNPREDICTABLE>
    4168:	76130000 	ldrvc	r0, [r3], -r0
    416c:	01006c61 	tsteq	r0, r1, ror #24
    4170:	002c332e 	eoreq	r3, ip, lr, lsr #6
    4174:	286d0000 	stmdacs	sp!, {}^	; <UNPREDICTABLE>
    4178:	28690000 	stmdacs	r9!, {}^	; <UNPREDICTABLE>
    417c:	ac140000 	ldcge	0, cr0, [r4], {-0}
    4180:	ac00009d 	stcge	0, cr0, [r0], {157}	; 0x9d
    4184:	8f000005 	svchi	0x00000005
    4188:	12000005 	andne	r0, r0, #5, 0
    418c:	74025001 	strvc	r5, [r2], #-1
    4190:	b8110000 	ldmdalt	r1, {}	; <UNPREDICTABLE>
    4194:	b800009d 	stmdalt	r0, {r0, r2, r3, r4, r7}
    4198:	12000005 	andne	r0, r0, #5, 0
    419c:	74025001 	strvc	r5, [r2], #-1
    41a0:	1a000000 	bne	41a8 <__code_start__-0x3e58>
    41a4:	000008b3 			; <UNDEFINED> instruction: 0x000008b3
    41a8:	000008b3 			; <UNDEFINED> instruction: 0x000008b3
    41ac:	1a069c03 	bne	1ab1c0 <__bss_end__+0x19fec0>
    41b0:	00000b1a 	andeq	r0, r0, sl, lsl fp
    41b4:	00000b1a 	andeq	r0, r0, sl, lsl fp
    41b8:	1a0bc303 	bne	2f4dcc <__bss_end__+0x2e9acc>
    41bc:	0000090e 	andeq	r0, r0, lr, lsl #18
    41c0:	0000090e 	andeq	r0, r0, lr, lsl #18
    41c4:	1a06ae03 	bne	1af9d8 <__bss_end__+0x1a46d8>
    41c8:	00000b08 	andeq	r0, r0, r8, lsl #22
    41cc:	00000b08 	andeq	r0, r0, r8, lsl #22
    41d0:	00061904 	andeq	r1, r6, r4, lsl #18
    41d4:	000008e9 	andeq	r0, r0, r9, ror #17
    41d8:	17800004 	strne	r0, [r0, r4]
    41dc:	01040000 	mrseq	r0, (UNDEF: 4)
    41e0:	00000a0e 	andeq	r0, r0, lr, lsl #20
    41e4:	000ba40c 	andeq	sl, fp, ip, lsl #8
    41e8:	0009be00 	andeq	fp, r9, r0, lsl #28
    41ec:	009f6c00 	addseq	r6, pc, r0, lsl #24
    41f0:	0003b000 	andeq	fp, r3, r0
    41f4:	0021bf00 	eoreq	fp, r1, r0, lsl #30
    41f8:	05040200 	streq	r0, [r4, #-512]	; 0xfffffe00
    41fc:	00746e69 	rsbseq	r6, r4, r9, ror #28
    4200:	b0070403 	andlt	r0, r7, r3, lsl #8
    4204:	03000001 	movweq	r0, #1
    4208:	01540601 	cmpeq	r4, r1, lsl #12
    420c:	02030000 	andeq	r0, r3, #0, 0
    4210:	0001de05 	andeq	sp, r1, r5, lsl #28
    4214:	05040300 	streq	r0, [r4, #-768]	; 0xfffffd00
    4218:	000001c2 	andeq	r0, r0, r2, asr #3
    421c:	bd050803 	stclt	8, cr0, [r5, #-12]
    4220:	03000001 	movweq	r0, #1
    4224:	01520801 	cmpeq	r2, r1, lsl #16
    4228:	02030000 	andeq	r0, r3, #0, 0
    422c:	00005207 	andeq	r5, r0, r7, lsl #4
    4230:	02ca0400 	sbceq	r0, sl, #0, 8
    4234:	34030000 	strcc	r0, [r3], #-0
    4238:	00006919 	andeq	r6, r0, r9, lsl r9
    423c:	07040300 	streq	r0, [r4, -r0, lsl #6]
    4240:	000001ab 	andeq	r0, r0, fp, lsr #3
    4244:	a6070803 	strge	r0, [r7], -r3, lsl #16
    4248:	03000001 	movweq	r0, #1
    424c:	015b0801 	cmpeq	fp, r1, lsl #16
    4250:	77050000 	strvc	r0, [r5, -r0]
    4254:	03000000 	movweq	r0, #0
    4258:	039c0408 	orrseq	r0, ip, #8, 8	; 0x8000000
    425c:	04060000 	streq	r0, [r6], #-0
    4260:	2c040707 	stccs	7, cr0, [r4], {7}
    4264:	01000000 	mrseq	r0, (UNDEF: 0)
    4268:	00a4061f 	adceq	r0, r4, pc, lsl r6
    426c:	3e080000 	cdpcc	0, 0, cr0, cr8, cr0, {0}
    4270:	0000000b 	andeq	r0, r0, fp
    4274:	00002000 	andeq	r2, r0, r0
    4278:	0002bb09 	andeq	fp, r2, r9, lsl #22
    427c:	0d220100 	stfeqs	f0, [r2, #-0]
    4280:	00000077 	andeq	r0, r0, r7, ror r0
    4284:	0004910a 	andeq	r9, r4, sl, lsl #2
    4288:	0e230100 	sufeqs	f0, f3, f0
    428c:	000000c2 	andeq	r0, r0, r2, asr #1
    4290:	aebc0305 	cdpge	3, 11, cr0, cr12, cr5, {0}
    4294:	040b0000 	streq	r0, [fp], #-0
    4298:	00000077 	andeq	r0, r0, r7, ror r0
    429c:	000b280a 	andeq	r2, fp, sl, lsl #16
    42a0:	0e240100 	sufeqs	f0, f4, f0
    42a4:	000000c2 	andeq	r0, r0, r2, asr #1
    42a8:	aec00305 	cdpge	3, 12, cr0, cr0, cr5, {0}
    42ac:	830a0000 	movwhi	r0, #40960	; 0xa000
    42b0:	0100000b 	tsteq	r0, fp
    42b4:	00c20e25 	sbceq	r0, r2, r5, lsr #28
    42b8:	03050000 	movweq	r0, #20480	; 0x5000
    42bc:	0000aec4 	andeq	sl, r0, r4, asr #29
    42c0:	000b590c 	andeq	r5, fp, ip, lsl #18
    42c4:	06750100 	ldrbteq	r0, [r5], -r0, lsl #2
    42c8:	0000a2bc 			; <UNDEFINED> instruction: 0x0000a2bc
    42cc:	00000060 	andeq	r0, r0, r0, rrx
    42d0:	01649c01 	cmneq	r4, r1, lsl #24
    42d4:	700d0000 	andvc	r0, sp, r0
    42d8:	16750100 	ldrbtne	r0, [r5], -r0, lsl #2
    42dc:	0000008a 	andeq	r0, r0, sl, lsl #1
    42e0:	00002891 	muleq	r0, r1, r8
    42e4:	0000288b 	andeq	r2, r0, fp, lsl #17
    42e8:	0001990e 	andeq	r9, r1, lr, lsl #18
    42ec:	00017400 	andeq	r7, r1, r0, lsl #8
    42f0:	ac030500 	cfstr32ge	mvfx0, [r3], {-0}
    42f4:	0f0000ae 	svceq	0x000000ae
    42f8:	0000a308 	andeq	sl, r0, r8, lsl #6
    42fc:	000008bc 			; <UNDEFINED> instruction: 0x000008bc
    4300:	0000015a 	andeq	r0, r0, sl, asr r1
    4304:	05500110 	ldrbeq	r0, [r0, #-272]	; 0xfffffef0
    4308:	00ae2403 	adceq	r2, lr, r3, lsl #8
    430c:	51011000 	mrspl	r1, (UNDEF: 1)
    4310:	acbc0305 	ldcge	3, cr0, [ip], #20
    4314:	01100000 	tsteq	r0, r0
    4318:	ac030552 	cfstr32ge	mvfx0, [r3], {82}	; 0x52
    431c:	100000ae 	andne	r0, r0, lr, lsr #1
    4320:	08025301 	stmdaeq	r2, {r0, r8, r9, ip, lr}
    4324:	7d021077 	stcvc	0, cr1, [r2, #-476]	; 0xfffffe24
    4328:	01f30300 	mvnseq	r0, r0, lsl #6
    432c:	0c110050 	ldceq	0, cr0, [r1], {80}	; 0x50
    4330:	c80000a3 	stmdagt	r0, {r0, r1, r5, r7}
    4334:	00000008 	andeq	r0, r0, r8
    4338:	00007e12 	andeq	r7, r0, r2, lsl lr
    433c:	00017400 	andeq	r7, r1, r0, lsl #8
    4340:	002c1300 	eoreq	r1, ip, r0, lsl #6
    4344:	00090000 	andeq	r0, r9, r0
    4348:	00016405 	andeq	r6, r1, r5, lsl #8
    434c:	0b471400 	bleq	11c9354 <__bss_end__+0x11be054>
    4350:	72010000 	andvc	r0, r1, #0, 0
    4354:	00a2a806 	adceq	sl, r2, r6, lsl #16
    4358:	00001400 	andeq	r1, r0, r0, lsl #8
    435c:	0c9c0100 	ldfeqs	f0, [ip], {0}
    4360:	000001d8 	ldrdeq	r0, [r0], -r8
    4364:	a4066f01 	strge	r6, [r6], #-3841	; 0xfffff0ff
    4368:	040000a2 	streq	r0, [r0], #-162	; 0xffffff5e
    436c:	01000000 	mrseq	r0, (UNDEF: 0)
    4370:	0001ae9c 	muleq	r1, ip, lr
    4374:	00701500 	rsbseq	r1, r0, r0, lsl #10
    4378:	8a126f01 	bhi	49ff84 <__bss_end__+0x494c84>
    437c:	01000000 	mrseq	r0, (UNDEF: 0)
    4380:	e6160050 			; <UNDEFINED> instruction: 0xe6160050
    4384:	0100000b 	tsteq	r0, fp
    4388:	008a075e 	addeq	r0, sl, lr, asr r7
    438c:	a18c0000 	orrge	r0, ip, r0
    4390:	01180000 	tsteq	r8, r0
    4394:	9c010000 	stcls	0, cr0, [r1], {-0}
    4398:	0000042c 	andeq	r0, r0, ip, lsr #8
    439c:	00035217 	andeq	r5, r3, r7, lsl r2
    43a0:	205e0100 	subscs	r0, lr, r0, lsl #2
    43a4:	0000002c 	andeq	r0, r0, ip, lsr #32
    43a8:	000028d2 	ldrdeq	r2, [r0], -r2	; <UNPREDICTABLE>
    43ac:	000028be 			; <UNDEFINED> instruction: 0x000028be
    43b0:	000b6317 	andeq	r6, fp, r7, lsl r3
    43b4:	315e0100 	cmpcc	lr, r0, lsl #2
    43b8:	0000002c 	andeq	r0, r0, ip, lsr #32
    43bc:	0000296b 	andeq	r2, r0, fp, ror #18
    43c0:	00002957 	andeq	r2, r0, r7, asr r9
    43c4:	0001990e 	andeq	r9, r1, lr, lsl #18
    43c8:	00043c00 	andeq	r3, r4, r0, lsl #24
    43cc:	94030500 	strls	r0, [r3], #-1280	; 0xfffffb00
    43d0:	180000ae 	stmdane	r0, {r1, r2, r3, r5, r7}
    43d4:	66010068 	strvs	r0, [r1], -r8, rrx
    43d8:	00002c0e 	andeq	r2, r0, lr, lsl #24
    43dc:	002a2100 	eoreq	r2, sl, r0, lsl #2
    43e0:	002a1500 	eoreq	r1, sl, r0, lsl #10
    43e4:	08541900 	ldmdaeq	r4, {r8, fp, ip}^
    43e8:	a19c0000 	orrsge	r0, ip, r0
    43ec:	9c040000 	stcls	0, cr0, [r4], {-0}
    43f0:	040000a1 	streq	r0, [r0], #-161	; 0xffffff5f
    43f4:	01000000 	mrseq	r0, (UNDEF: 0)
    43f8:	02380560 	eorseq	r0, r8, #96, 10	; 0x18000000
    43fc:	651a0000 	ldrvs	r0, [sl, #-0]
    4400:	75000008 	strvc	r0, [r0, #-8]
    4404:	7300002a 	movwvc	r0, #42	; 0x2a
    4408:	0000002a 	andeq	r0, r0, sl, lsr #32
    440c:	00089619 	andeq	r9, r8, r9, lsl r6
    4410:	00a1a800 	adceq	sl, r1, r0, lsl #16
    4414:	a1a80200 			; <UNDEFINED> instruction: 0xa1a80200
    4418:	00080000 	andeq	r0, r8, r0
    441c:	61010000 	mrsvs	r0, (UNDEF: 1)
    4420:	00026c11 	andeq	r6, r2, r1, lsl ip
    4424:	08b11a00 	ldmeq	r1!, {r9, fp, ip}
    4428:	2a8a0000 	bcs	fe284430 <__bss_end__+0xfe279130>
    442c:	2a880000 	bcs	fe204434 <__bss_end__+0xfe1f9134>
    4430:	a71a0000 	ldrge	r0, [sl, -r0]
    4434:	a0000008 	andge	r0, r0, r8
    4438:	9e00002a 	cdpls	0, 0, cr0, cr0, cr10, {1}
    443c:	0000002a 	andeq	r0, r0, sl, lsr #32
    4440:	00081f1b 	andeq	r1, r8, fp, lsl pc
    4444:	00a1b800 	adceq	fp, r1, r0, lsl #16
    4448:	04a80100 	strteq	r0, [r8], #256	; 0x100
    444c:	67010000 	strvs	r0, [r1, -r0]
    4450:	00030a09 	andeq	r0, r3, r9, lsl #20
    4454:	083a1a00 	ldmdaeq	sl!, {r9, fp, ip}
    4458:	2ab90000 	bcs	fee44460 <__bss_end__+0xfee39160>
    445c:	2ab30000 	bcs	fecc4464 <__bss_end__+0xfecb9164>
    4460:	301a0000 	andscc	r0, sl, r0
    4464:	00000008 	andeq	r0, r0, r8
    4468:	f800002b 			; <UNDEFINED> instruction: 0xf800002b
    446c:	1c00002a 	stcne	0, cr0, [r0], {42}	; 0x2a
    4470:	000004a8 	andeq	r0, r0, r8, lsr #9
    4474:	00085419 	andeq	r5, r8, r9, lsl r4
    4478:	00a1b800 	adceq	fp, r1, r0, lsl #16
    447c:	a1b80400 			; <UNDEFINED> instruction: 0xa1b80400
    4480:	00040000 	andeq	r0, r4, r0
    4484:	11010000 	mrsne	r0, (UNDEF: 1)
    4488:	0002c705 	andeq	ip, r2, r5, lsl #14
    448c:	08651a00 	stmdaeq	r5!, {r9, fp, ip}^
    4490:	2b3e0000 	blcs	f84498 <__bss_end__+0xf79198>
    4494:	2b3c0000 	blcs	f0449c <__bss_end__+0xef919c>
    4498:	0f000000 	svceq	0x00000000
    449c:	0000a250 	andeq	sl, r0, r0, asr r2
    44a0:	000008bc 			; <UNDEFINED> instruction: 0x000008bc
    44a4:	000002ff 	strdeq	r0, [r0], -pc	; <UNPREDICTABLE>
    44a8:	05500110 	ldrbeq	r0, [r0, #-272]	; 0xfffffef0
    44ac:	00a6f803 	adceq	pc, r6, r3, lsl #16
    44b0:	51011000 	mrspl	r1, (UNDEF: 1)
    44b4:	acbc0305 	ldcge	3, cr0, [ip], #20
    44b8:	01100000 	tsteq	r0, r0
    44bc:	a4030552 	strge	r0, [r3], #-1362	; 0xfffffaae
    44c0:	100000ae 	andne	r0, r0, lr, lsr #1
    44c4:	41015301 	tstmi	r1, r1, lsl #6
    44c8:	007d0210 	rsbseq	r0, sp, r0, lsl r2
    44cc:	add00305 	ldclge	3, cr0, [r0, #20]
    44d0:	11000000 	mrsne	r0, (UNDEF: 0)
    44d4:	0000a254 	andeq	sl, r0, r4, asr r2
    44d8:	000008c8 	andeq	r0, r0, r8, asr #17
    44dc:	70190000 	andsvc	r0, r9, r0
    44e0:	d0000008 	andle	r0, r0, r8
    44e4:	030000a1 	movweq	r0, #161	; 0xa1
    44e8:	0000a1d0 	ldrdeq	sl, [r0], -r0
    44ec:	00000004 	andeq	r0, r0, r4
    44f0:	3e056801 	cdpcc	8, 0, cr6, cr5, cr1, {0}
    44f4:	1a000003 	bne	4508 <__code_start__-0x3af8>
    44f8:	0000088b 	andeq	r0, r0, fp, lsl #17
    44fc:	00002b53 	andeq	r2, r0, r3, asr fp
    4500:	00002b51 	andeq	r2, r0, r1, asr fp
    4504:	0008811a 	andeq	r8, r8, sl, lsl r1
    4508:	002b6800 	eoreq	r6, fp, r0, lsl #16
    450c:	002b6600 	eoreq	r6, fp, r0, lsl #12
    4510:	e80f0000 	stmda	pc, {}	; <UNPREDICTABLE>
    4514:	410000a1 	smlatbmi	r0, r1, r0, r0
    4518:	53000004 	movwpl	r0, #4
    451c:	10000003 	andne	r0, r0, r3
    4520:	f3035001 	vhadd.u8	d5, d3, d1
    4524:	0f005001 	svceq	0x00005001
    4528:	0000a20c 	andeq	sl, r0, ip, lsl #4
    452c:	000008bc 			; <UNDEFINED> instruction: 0x000008bc
    4530:	0000038c 	andeq	r0, r0, ip, lsl #7
    4534:	05500110 	ldrbeq	r0, [r0, #-272]	; 0xfffffef0
    4538:	00a6f803 	adceq	pc, r6, r3, lsl #16
    453c:	51011000 	mrspl	r1, (UNDEF: 1)
    4540:	acbc0305 	ldcge	3, cr0, [ip], #20
    4544:	01100000 	tsteq	r0, r0
    4548:	94030552 	strls	r0, [r3], #-1362	; 0xfffffaae
    454c:	100000ae 	andne	r0, r0, lr, lsr #1
    4550:	08025301 	stmdaeq	r2, {r0, r8, r9, ip, lr}
    4554:	7d02105f 	stcvc	0, cr1, [r2, #-380]	; 0xfffffe84
    4558:	cc030500 	cfstr32gt	mvfx0, [r3], {-0}
    455c:	000000ac 	andeq	r0, r0, ip, lsr #1
    4560:	00a21011 	adceq	r1, r2, r1, lsl r0
    4564:	0008c800 	andeq	ip, r8, r0, lsl #16
    4568:	a2141100 	andsge	r1, r4, #0
    456c:	08d40000 	ldmeq	r4, {}^	; <UNPREDICTABLE>
    4570:	300f0000 	andcc	r0, pc, r0
    4574:	bc0000a2 	stclt	0, cr0, [r0], {162}	; 0xa2
    4578:	d7000008 	strle	r0, [r0, -r8]
    457c:	10000003 	andne	r0, r0, r3
    4580:	03055001 	movweq	r5, #20481	; 0x5001
    4584:	0000ad88 	andeq	sl, r0, r8, lsl #27
    4588:	05510110 	ldrbeq	r0, [r1, #-272]	; 0xfffffef0
    458c:	00acbc03 	adceq	fp, ip, r3, lsl #24
    4590:	52011000 	andpl	r1, r1, #0, 0
    4594:	ae940305 	cdpge	3, 9, cr0, cr4, cr5, {0}
    4598:	01100000 	tsteq	r0, r0
    459c:	60080253 	andvs	r0, r8, r3, asr r2
    45a0:	007d0210 	rsbseq	r0, sp, r0, lsl r2
    45a4:	adbc0305 	ldcge	3, cr0, [ip, #20]!
    45a8:	11000000 	mrsne	r0, (UNDEF: 0)
    45ac:	0000a234 	andeq	sl, r0, r4, lsr r2
    45b0:	000008c8 	andeq	r0, r0, r8, asr #17
    45b4:	00a25811 	adceq	r5, r2, r1, lsl r8
    45b8:	0008d400 	andeq	sp, r8, r0, lsl #8
    45bc:	a2740f00 	rsbsge	r0, r4, #0, 30
    45c0:	08bc0000 	ldmeq	ip!, {}	; <UNPREDICTABLE>
    45c4:	04220000 	strteq	r0, [r2], #-0
    45c8:	01100000 	tsteq	r0, r0
    45cc:	dc030550 	cfstr32le	mvfx0, [r3], {80}	; 0x50
    45d0:	100000ad 	andne	r0, r0, sp, lsr #1
    45d4:	03055101 	movweq	r5, #20737	; 0x5101
    45d8:	0000acbc 			; <UNDEFINED> instruction: 0x0000acbc
    45dc:	05520110 	ldrbeq	r0, [r2, #-272]	; 0xfffffef0
    45e0:	00ae9403 	adceq	r9, lr, r3, lsl #8
    45e4:	53011000 	movwpl	r1, #4096	; 0x1000
    45e8:	10680802 	rsbne	r0, r8, r2, lsl #16
    45ec:	05007d02 	streq	r7, [r0, #-3330]	; 0xfffff2fe
    45f0:	00ae0803 	adceq	r0, lr, r3, lsl #16
    45f4:	78110000 	ldmdavc	r1, {}	; <UNPREDICTABLE>
    45f8:	c80000a2 	stmdagt	r0, {r1, r5, r7}
    45fc:	00000008 	andeq	r0, r0, r8
    4600:	00007e12 	andeq	r7, r0, r2, lsl lr
    4604:	00043c00 	andeq	r3, r4, r0, lsl #24
    4608:	002c1300 	eoreq	r1, ip, r0, lsl #6
    460c:	000f0000 	andeq	r0, pc, r0
    4610:	00042c05 	andeq	r2, r4, r5, lsl #24
    4614:	04d91600 	ldrbeq	r1, [r9], #1536	; 0x600
    4618:	53010000 	movwpl	r0, #4096	; 0x1000
    461c:	00008a07 	andeq	r8, r0, r7, lsl #20
    4620:	00a12800 	adceq	r2, r1, r0, lsl #16
    4624:	00006400 	andeq	r6, r0, r0, lsl #8
    4628:	089c0100 	ldmeq	ip, {r8}
    462c:	17000005 	strne	r0, [r0, -r5]
    4630:	00000352 	andeq	r0, r0, r2, asr r3
    4634:	2c185301 	ldccs	3, cr5, [r8], {1}
    4638:	83000000 	movwhi	r0, #0
    463c:	7b00002b 	blvc	46f0 <__code_start__-0x3910>
    4640:	0e00002b 	cdpeq	0, 0, cr0, cr0, cr11, {1}
    4644:	00000199 	muleq	r0, r9, r1
    4648:	00000518 	andeq	r0, r0, r8, lsl r5
    464c:	ae8c0305 	cdpge	3, 8, cr0, cr12, cr5, {0}
    4650:	151d0000 	ldrne	r0, [sp, #-0]
    4654:	01000006 	tsteq	r0, r6
    4658:	008a0b55 	addeq	r0, sl, r5, asr fp
    465c:	2bbb0000 	blcs	feec4664 <__bss_end__+0xfeeb9364>
    4660:	2bb70000 	blcs	fedc4668 <__bss_end__+0xfedb9368>
    4664:	400f0000 	andmi	r0, pc, r0
    4668:	1d0000a1 	stcne	0, cr0, [r0, #-644]	; 0xfffffd7c
    466c:	a6000005 	strge	r0, [r0], -r5
    4670:	10000004 	andne	r0, r0, r4
    4674:	74025001 	strvc	r5, [r2], #-1
    4678:	500f0000 	andpl	r0, pc, r0
    467c:	e00000a1 	and	r0, r0, r1, lsr #1
    4680:	c5000008 	strgt	r0, [r0, #-8]
    4684:	10000004 	andne	r0, r0, r4
    4688:	75025001 	strvc	r5, [r2, #-1]
    468c:	51011000 	mrspl	r1, (UNDEF: 1)
    4690:	01103001 	tsteq	r0, r1
    4694:	00740252 	rsbseq	r0, r4, r2, asr r2
    4698:	a1780f00 	cmnge	r8, r0, lsl #30
    469c:	08bc0000 	ldmeq	ip!, {}	; <UNPREDICTABLE>
    46a0:	04fe0000 	ldrbteq	r0, [lr], #0
    46a4:	01100000 	tsteq	r0, r0
    46a8:	f8030550 			; <UNDEFINED> instruction: 0xf8030550
    46ac:	100000a6 	andne	r0, r0, r6, lsr #1
    46b0:	03055101 	movweq	r5, #20737	; 0x5101
    46b4:	0000acbc 			; <UNDEFINED> instruction: 0x0000acbc
    46b8:	05520110 	ldrbeq	r0, [r2, #-272]	; 0xfffffef0
    46bc:	00ae8c03 	adceq	r8, lr, r3, lsl #24
    46c0:	53011000 	movwpl	r1, #4096	; 0x1000
    46c4:	10540802 	subsne	r0, r4, r2, lsl #16
    46c8:	05007d02 	streq	r7, [r0, #-3330]	; 0xfffff2fe
    46cc:	00accc03 	adceq	ip, ip, r3, lsl #24
    46d0:	7c110000 	ldcvc	0, cr0, [r1], {-0}
    46d4:	c80000a1 	stmdagt	r0, {r0, r5, r7}
    46d8:	00000008 	andeq	r0, r0, r8
    46dc:	00007e12 	andeq	r7, r0, r2, lsl lr
    46e0:	00051800 	andeq	r1, r5, r0, lsl #16
    46e4:	002c1300 	eoreq	r1, ip, r0, lsl #6
    46e8:	00070000 	andeq	r0, r7, r0
    46ec:	00050805 	andeq	r0, r5, r5, lsl #16
    46f0:	0b8c1600 	bleq	fe309ef8 <__bss_end__+0xfe2febf8>
    46f4:	47010000 	strmi	r0, [r1, -r0]
    46f8:	00008a07 	andeq	r8, r0, r7, lsl #20
    46fc:	00a09000 	adceq	r9, r0, r0
    4700:	00009800 	andeq	r9, r0, r0, lsl #16
    4704:	2b9c0100 	blcs	fe704b0c <__bss_end__+0xfe6f980c>
    4708:	17000006 	strne	r0, [r0, -r6]
    470c:	00000352 	andeq	r0, r0, r2, asr r3
    4710:	2c204701 	stccs	7, cr4, [r0], #-4
    4714:	e9000000 	stmdb	r0, {}	; <UNPREDICTABLE>
    4718:	d900002b 	stmdble	r0, {r0, r1, r3, r5}
    471c:	0e00002b 	cdpeq	0, 0, cr0, cr0, cr11, {1}
    4720:	00000199 	muleq	r0, r9, r1
    4724:	0000043c 	andeq	r0, r0, ip, lsr r4
    4728:	ae7c0305 	cdpge	3, 7, cr0, cr12, cr5, {0}
    472c:	151d0000 	ldrne	r0, [sp, #-0]
    4730:	01000006 	tsteq	r0, r6
    4734:	008a0b4b 	addeq	r0, sl, fp, asr #22
    4738:	2c5b0000 	mracs	r0, fp, acc0
    473c:	2c570000 	mracs	r0, r7, acc0
    4740:	1f1b0000 	svcne	0x001b0000
    4744:	a0000008 	andge	r0, r0, r8
    4748:	030000a0 	movweq	r0, #160	; 0xa0
    474c:	00000490 	muleq	r0, r0, r4
    4750:	a30e4901 	movwge	r4, #59649	; 0xe901
    4754:	1a000005 	bne	4770 <__code_start__-0x3890>
    4758:	0000083a 	andeq	r0, r0, sl, lsr r8
    475c:	00002c7b 	andeq	r2, r0, fp, ror ip
    4760:	00002c79 	andeq	r2, r0, r9, ror ip
    4764:	0008301a 	andeq	r3, r8, sl, lsl r0
    4768:	002c9300 	eoreq	r9, ip, r0, lsl #6
    476c:	002c8f00 	eoreq	r8, ip, r0, lsl #30
    4770:	04901e00 	ldreq	r1, [r0], #3584	; 0xe00
    4774:	0f000000 	svceq	0x00000000
    4778:	0000a0e8 	andeq	sl, r0, r8, ror #1
    477c:	000008bc 			; <UNDEFINED> instruction: 0x000008bc
    4780:	000005dc 	ldrdeq	r0, [r0], -ip
    4784:	05500110 	ldrbeq	r0, [r0, #-272]	; 0xfffffef0
    4788:	00a6f803 	adceq	pc, r6, r3, lsl #16
    478c:	51011000 	mrspl	r1, (UNDEF: 1)
    4790:	acbc0305 	ldcge	3, cr0, [ip], #20
    4794:	01100000 	tsteq	r0, r0
    4798:	7c030552 	cfstr32vc	mvfx0, [r3], {82}	; 0x52
    479c:	100000ae 	andne	r0, r0, lr, lsr #1
    47a0:	08025301 	stmdaeq	r2, {r0, r8, r9, ip, lr}
    47a4:	7d021048 	stcvc	0, cr1, [r2, #-288]	; 0xfffffee0
    47a8:	cc030500 	cfstr32gt	mvfx0, [r3], {-0}
    47ac:	000000ac 	andeq	r0, r0, ip, lsr #1
    47b0:	00a0ec11 	adceq	lr, r0, r1, lsl ip
    47b4:	0008c800 	andeq	ip, r8, r0, lsl #16
    47b8:	a10c0f00 	tstge	ip, r0, lsl #30
    47bc:	08bc0000 	ldmeq	ip!, {}	; <UNPREDICTABLE>
    47c0:	06210000 	strteq	r0, [r1], -r0
    47c4:	01100000 	tsteq	r0, r0
    47c8:	48030550 	stmdami	r3, {r4, r6, r8, sl}
    47cc:	100000ad 	andne	r0, r0, sp, lsr #1
    47d0:	03055101 	movweq	r5, #20737	; 0x5101
    47d4:	0000acbc 			; <UNDEFINED> instruction: 0x0000acbc
    47d8:	05520110 	ldrbeq	r0, [r2, #-272]	; 0xfffffef0
    47dc:	00ae7c03 	adceq	r7, lr, r3, lsl #24
    47e0:	53011000 	movwpl	r1, #4096	; 0x1000
    47e4:	104e0802 	subne	r0, lr, r2, lsl #16
    47e8:	08007d02 	stmdaeq	r0, {r1, r8, sl, fp, ip, sp, lr}
    47ec:	235001f3 	cmpcs	r0, #-1073741764	; 0xc000003c
    47f0:	1af80907 	bne	ffe06c14 <__bss_end__+0xffdfb914>
    47f4:	a1101100 	tstge	r0, r0, lsl #2
    47f8:	08c80000 	stmiaeq	r8, {}^	; <UNPREDICTABLE>
    47fc:	0c000000 	stceq	0, cr0, [r0], {-0}
    4800:	00000bae 	andeq	r0, r0, lr, lsr #23
    4804:	38063c01 	stmdacc	r6, {r0, sl, fp, ip, sp}
    4808:	580000a0 	stmdapl	r0, {r5, r7}
    480c:	01000000 	mrseq	r0, (UNDEF: 0)
    4810:	0006cf9c 	muleq	r6, ip, pc	; <UNPREDICTABLE>
    4814:	03fa0a00 	mvnseq	r0, #0, 20
    4818:	3d010000 	stccc	0, cr0, [r1, #-0]
    481c:	00002510 	andeq	r2, r0, r0, lsl r5
    4820:	f8030500 			; <UNDEFINED> instruction: 0xf8030500
    4824:	0e0000b2 	mcreq	0, 0, r0, cr0, cr2, {5}
    4828:	00000199 	muleq	r0, r9, r1
    482c:	000006df 	ldrdeq	r0, [r0], -pc	; <UNPREDICTABLE>
    4830:	ae6c0305 	cdpge	3, 6, cr0, cr12, cr5, {0}
    4834:	07070000 	streq	r0, [r7, -r0]
    4838:	00002c04 	andeq	r2, r0, r4, lsl #24
    483c:	0a420100 	beq	1084c44 <__bss_end__+0x1079944>
    4840:	0000067a 	andeq	r0, r0, sl, ror r6
    4844:	000b7508 	andeq	r7, fp, r8, lsl #10
    4848:	10000000 	andne	r0, r0, r0
    484c:	640f0000 	strvs	r0, [pc], #-0	; 4854 <__code_start__-0x37ac>
    4850:	e40000a0 	str	r0, [r0], #-160	; 0xffffff60
    4854:	96000006 	strls	r0, [r0], -r6
    4858:	10000006 	andne	r0, r0, r6
    485c:	40035001 	andmi	r5, r3, r1
    4860:	01102440 	tsteq	r0, r0, asr #8
    4864:	48400351 	stmdami	r0, {r0, r4, r6, r8, r9}^
    4868:	7c0f0024 	stcvc	0, cr0, [pc], {36}	; 0x24
    486c:	bc0000a0 	stclt	0, cr0, [r0], {160}	; 0xa0
    4870:	c5000008 	strgt	r0, [r0, #-8]
    4874:	10000006 	andne	r0, r0, r6
    4878:	03055001 	movweq	r5, #20481	; 0x5001
    487c:	0000ad18 	andeq	sl, r0, r8, lsl sp
    4880:	05510110 	ldrbeq	r0, [r1, #-272]	; 0xfffffef0
    4884:	00acbc03 	adceq	fp, ip, r3, lsl #24
    4888:	52011000 	andpl	r1, r1, #0, 0
    488c:	ae6c0305 	cdpge	3, 6, cr0, cr12, cr5, {0}
    4890:	01100000 	tsteq	r0, r0
    4894:	40080253 	andmi	r0, r8, r3, asr r2
    4898:	a0801100 	addge	r1, r0, r0, lsl #2
    489c:	08c80000 	stmiaeq	r8, {}^	; <UNPREDICTABLE>
    48a0:	12000000 	andne	r0, r0, #0, 0
    48a4:	0000007e 	andeq	r0, r0, lr, ror r0
    48a8:	000006df 	ldrdeq	r0, [r0], -pc	; <UNPREDICTABLE>
    48ac:	00002c13 	andeq	r2, r0, r3, lsl ip
    48b0:	05000c00 	streq	r0, [r0, #-3072]	; 0xfffff400
    48b4:	000006cf 	andeq	r0, r0, pc, asr #13
    48b8:	0004e10c 	andeq	lr, r4, ip, lsl #2
    48bc:	062d0100 	strteq	r0, [sp], -r0, lsl #2
    48c0:	00009f9c 	muleq	r0, ip, pc	; <UNPREDICTABLE>
    48c4:	0000009c 	muleq	r0, ip, r0
    48c8:	07c89c01 	strbeq	r9, [r8, r1, lsl #24]
    48cc:	14170000 	ldrne	r0, [r7], #-0
    48d0:	01000006 	tsteq	r0, r6
    48d4:	002c262d 	eoreq	r2, ip, sp, lsr #12
    48d8:	2cc10000 	stclcs	0, cr0, [r1], {0}
    48dc:	2cb30000 	ldccs	0, cr0, [r3]
    48e0:	33170000 	tstcc	r7, #0, 0
    48e4:	0100000b 	tsteq	r0, fp
    48e8:	002c362d 	eoreq	r3, ip, sp, lsr #12
    48ec:	2d290000 	stccs	0, cr0, [r9, #-0]
    48f0:	2d210000 	stccs	0, cr0, [r1, #-0]
    48f4:	151d0000 	ldrne	r0, [sp, #-0]
    48f8:	01000006 	tsteq	r0, r6
    48fc:	00c20b2e 	sbceq	r0, r2, lr, lsr #22
    4900:	2d710000 	ldclcs	0, cr0, [r1, #-0]
    4904:	2d630000 	stclcs	0, cr0, [r3, #-0]
    4908:	990e0000 	stmdbls	lr, {}	; <UNPREDICTABLE>
    490c:	d8000001 	stmdale	r0, {r0}
    4910:	05000007 	streq	r0, [r0, #-7]
    4914:	00ae5403 	adceq	r5, lr, r3, lsl #8
    4918:	9ff40f00 	svcls	0x00f40f00
    491c:	08bc0000 	ldmeq	ip!, {}	; <UNPREDICTABLE>
    4920:	077e0000 	ldrbeq	r0, [lr, -r0]!
    4924:	01100000 	tsteq	r0, r0
    4928:	f8030550 			; <UNDEFINED> instruction: 0xf8030550
    492c:	100000a6 	andne	r0, r0, r6, lsr #1
    4930:	03055101 	movweq	r5, #20737	; 0x5101
    4934:	0000acbc 			; <UNDEFINED> instruction: 0x0000acbc
    4938:	05520110 	ldrbeq	r0, [r2, #-272]	; 0xfffffef0
    493c:	00ae5403 	adceq	r5, lr, r3, lsl #8
    4940:	53011000 	movwpl	r1, #4096	; 0x1000
    4944:	10300802 	eorsne	r0, r0, r2, lsl #16
    4948:	05007d02 	streq	r7, [r0, #-3330]	; 0xfffff2fe
    494c:	00acc803 	adceq	ip, ip, r3, lsl #16
    4950:	f8110000 			; <UNDEFINED> instruction: 0xf8110000
    4954:	c800009f 	stmdagt	r0, {r0, r1, r2, r3, r4, r7}
    4958:	0f000008 	svceq	0x00000008
    495c:	0000a01c 	andeq	sl, r0, ip, lsl r0
    4960:	000008bc 			; <UNDEFINED> instruction: 0x000008bc
    4964:	000007be 			; <UNDEFINED> instruction: 0x000007be
    4968:	05500110 	ldrbeq	r0, [r0, #-272]	; 0xfffffef0
    496c:	00acd403 	adceq	sp, ip, r3, lsl #8
    4970:	51011000 	mrspl	r1, (UNDEF: 1)
    4974:	acbc0305 	ldcge	3, cr0, [ip], #20
    4978:	01100000 	tsteq	r0, r0
    497c:	54030552 	strpl	r0, [r3], #-1362	; 0xfffffaae
    4980:	100000ae 	andne	r0, r0, lr, lsr #1
    4984:	08025301 	stmdaeq	r2, {r0, r8, r9, ip, lr}
    4988:	7d021034 	stcvc	0, cr1, [r2, #-208]	; 0xffffff30
    498c:	01f30300 	mvnseq	r0, r0, lsl #6
    4990:	20110050 	andscs	r0, r1, r0, asr r0
    4994:	c80000a0 	stmdagt	r0, {r5, r7}
    4998:	00000008 	andeq	r0, r0, r8
    499c:	00007e12 	andeq	r7, r0, r2, lsl lr
    49a0:	0007d800 	andeq	sp, r7, r0, lsl #16
    49a4:	002c1300 	eoreq	r1, ip, r0, lsl #6
    49a8:	00160000 	andseq	r0, r6, r0
    49ac:	0007c805 	andeq	ip, r7, r5, lsl #16
    49b0:	0bc61f00 	bleq	ff18c5b8 <__bss_end__+0xff1812b8>
    49b4:	2a010000 	bcs	449bc <__bss_end__+0x396bc>
    49b8:	00008a07 	andeq	r8, r0, r7, lsl #20
    49bc:	009f8c00 	addseq	r8, pc, r0, lsl #24
    49c0:	00001000 	andeq	r1, r0, r0
    49c4:	1f9c0100 	svcne	0x009c0100
    49c8:	00000b20 	andeq	r0, r0, r0, lsr #22
    49cc:	8a072901 	bhi	1cedd8 <__bss_end__+0x1c3ad8>
    49d0:	7c000000 	stcvc	0, cr0, [r0], {-0}
    49d4:	1000009f 	mulne	r0, pc, r0	; <UNPREDICTABLE>
    49d8:	01000000 	mrseq	r0, (UNDEF: 0)
    49dc:	0b7b1f9c 	bleq	1ecc854 <__bss_end__+0x1ec1554>
    49e0:	28010000 	stmdacs	r1, {}	; <UNPREDICTABLE>
    49e4:	00008a07 	andeq	r8, r0, r7, lsl #20
    49e8:	009f6c00 	addseq	r6, pc, r0, lsl #24
    49ec:	00001000 	andeq	r1, r0, r0
    49f0:	209c0100 	addscs	r0, ip, r0, lsl #2
    49f4:	00000b51 	andeq	r0, r0, r1, asr fp
    49f8:	2c181001 	ldccs	0, cr1, [r8], {1}
    49fc:	03000000 	movweq	r0, #0
    4a00:	00000854 	andeq	r0, r0, r4, asr r8
    4a04:	01007821 	tsteq	r0, r1, lsr #16
    4a08:	002c2910 	eoreq	r2, ip, r0, lsl r9
    4a0c:	6e210000 	cdpvs	0, 2, cr0, cr1, cr0, {0}
    4a10:	35100100 	ldrcc	r0, [r0, #-256]	; 0xffffff00
    4a14:	0000002c 	andeq	r0, r0, ip, lsr #32
    4a18:	0001990e 	andeq	r9, r1, lr, lsl #18
    4a1c:	00051800 	andeq	r1, r5, r0, lsl #16
    4a20:	a4030500 	strge	r0, [r3], #-1280	; 0xfffffb00
    4a24:	000000ae 	andeq	r0, r0, lr, lsr #1
    4a28:	000b9c20 	andeq	r9, fp, r0, lsr #24
    4a2c:	180d0100 	stmdane	sp, {r8}
    4a30:	0000002c 	andeq	r0, r0, ip, lsr #32
    4a34:	00087003 	andeq	r7, r8, r3
    4a38:	00782100 	rsbseq	r2, r8, r0, lsl #2
    4a3c:	2c290d01 	stccs	13, cr0, [r9], #-4
    4a40:	00000000 	andeq	r0, r0, r0
    4a44:	000bbb20 	andeq	fp, fp, r0, lsr #22
    4a48:	18070100 	stmdane	r7, {r8}
    4a4c:	0000002c 	andeq	r0, r0, ip, lsr #32
    4a50:	00089603 	andeq	r9, r8, r3, lsl #12
    4a54:	00782100 	rsbseq	r2, r8, r0, lsl #2
    4a58:	2c2c0701 	stccs	7, cr0, [ip], #-4
    4a5c:	21000000 	mrscs	r0, (UNDEF: 0)
    4a60:	0701006e 	streq	r0, [r1, -lr, rrx]
    4a64:	00002c38 	andeq	r2, r0, r8, lsr ip
    4a68:	6d200000 	stcvs	0, cr0, [r0, #-0]
    4a6c:	0100000b 	tsteq	r0, fp
    4a70:	005d1804 	subseq	r1, sp, r4, lsl #16
    4a74:	bc030000 	stclt	0, cr0, [r3], {-0}
    4a78:	21000008 	tstcs	r0, r8
    4a7c:	04010078 	streq	r0, [r1], #-120	; 0xffffff88
    4a80:	00005d29 	andeq	r5, r0, r9, lsr #26
    4a84:	00792100 	rsbseq	r2, r9, r0, lsl #2
    4a88:	5d350401 	cfldrspl	mvf0, [r5, #-4]!
    4a8c:	00000000 	andeq	r0, r0, r0
    4a90:	00067c22 	andeq	r7, r6, r2, lsr #24
    4a94:	00067c00 	andeq	r7, r6, r0, lsl #24
    4a98:	06280200 	strteq	r0, [r8], -r0, lsl #4
    4a9c:	00004522 	andeq	r4, r0, r2, lsr #10
    4aa0:	00004500 	andeq	r4, r0, r0, lsl #10
    4aa4:	066e0200 	strbteq	r0, [lr], -r0, lsl #4
    4aa8:	000bd722 	andeq	sp, fp, r2, lsr #14
    4aac:	000bd700 	andeq	sp, fp, r0, lsl #14
    4ab0:	061d0200 	ldreq	r0, [sp], -r0, lsl #4
    4ab4:	0001f222 	andeq	pc, r1, r2, lsr #4
    4ab8:	0001f200 	andeq	pc, r1, r0, lsl #4
    4abc:	07f20200 	ldrbeq	r0, [r2, r0, lsl #4]!
    4ac0:	00067300 	andeq	r7, r6, r0, lsl #6
    4ac4:	a3000400 	movwge	r0, #1024	; 0x400
    4ac8:	04000019 	streq	r0, [r0], #-25	; 0xffffffe7
    4acc:	00055401 	andeq	r5, r5, r1, lsl #8
    4ad0:	0c290c00 	stceq	12, cr0, [r9], #-0
    4ad4:	061a0000 	ldreq	r0, [sl], -r0
    4ad8:	a31c0000 	tstge	ip, #0, 0
    4adc:	01980000 	orrseq	r0, r8, r0
    4ae0:	25550000 	ldrbcs	r0, [r5, #-0]
    4ae4:	08020000 	stmdaeq	r2, {}	; <UNPREDICTABLE>
    4ae8:	0001a607 	andeq	sl, r1, r7, lsl #12
    4aec:	07040200 	streq	r0, [r4, -r0, lsl #4]
    4af0:	000001b0 			; <UNDEFINED> instruction: 0x000001b0
    4af4:	69050403 	stmdbvs	r5, {r0, r1, sl}
    4af8:	0400746e 	streq	r7, [r0], #-1134	; 0xfffffb92
    4afc:	0000002c 	andeq	r0, r0, ip, lsr #32
    4b00:	54060102 	strpl	r0, [r6], #-258	; 0xfffffefe
    4b04:	02000001 	andeq	r0, r0, #1, 0
    4b08:	01de0502 	bicseq	r0, lr, r2, lsl #10
    4b0c:	04020000 	streq	r0, [r2], #-0
    4b10:	0001c205 	andeq	ip, r1, r5, lsl #4
    4b14:	05080200 	streq	r0, [r8, #-512]	; 0xfffffe00
    4b18:	000001bd 			; <UNDEFINED> instruction: 0x000001bd
    4b1c:	52080102 	andpl	r0, r8, #-2147483648	; 0x80000000
    4b20:	02000001 	andeq	r0, r0, #1, 0
    4b24:	00520702 	subseq	r0, r2, r2, lsl #14
    4b28:	ca050000 	bgt	144b30 <__bss_end__+0x139830>
    4b2c:	03000002 	movweq	r0, #2
    4b30:	00751934 	rsbseq	r1, r5, r4, lsr r9
    4b34:	04020000 	streq	r0, [r2], #-0
    4b38:	0001ab07 	andeq	sl, r1, r7, lsl #22
    4b3c:	00330600 	eorseq	r0, r3, r0, lsl #12
    4b40:	008b0000 	addeq	r0, fp, r0
    4b44:	33070000 	movwcc	r0, #28672	; 0x7000
    4b48:	00000000 	andeq	r0, r0, r0
    4b4c:	0001cb08 	andeq	ip, r1, r8, lsl #22
    4b50:	0e1c0200 	cdpeq	2, 1, cr0, cr12, cr0, {0}
    4b54:	00000097 	muleq	r0, r7, r0
    4b58:	007c0409 	rsbseq	r0, ip, r9, lsl #8
    4b5c:	33060000 	movwcc	r0, #24576	; 0x6000
    4b60:	ac000000 	stcge	0, cr0, [r0], {-0}
    4b64:	07000000 	streq	r0, [r0, -r0]
    4b68:	000000ac 	andeq	r0, r0, ip, lsr #1
    4b6c:	b9040900 	stmdblt	r4, {r8, fp}
    4b70:	02000000 	andeq	r0, r0, #0, 0
    4b74:	015b0801 	cmpeq	fp, r1, lsl #16
    4b78:	b2040000 	andlt	r0, r4, #0, 0
    4b7c:	08000000 	stmdaeq	r0, {}	; <UNPREDICTABLE>
    4b80:	000006ba 			; <UNDEFINED> instruction: 0x000006ba
    4b84:	ca0e2102 	bgt	38cf94 <__bss_end__+0x381c94>
    4b88:	09000000 	stmdbeq	r0, {}	; <UNPREDICTABLE>
    4b8c:	00009d04 	andeq	r9, r0, r4, lsl #26
    4b90:	01070a00 	tsteq	r7, r0, lsl #20
    4b94:	0000005b 	andeq	r0, r0, fp, asr r0
    4b98:	0f0e0c04 	svceq	0x000e0c04
    4b9c:	0b000001 	bleq	4ba8 <__code_start__-0x3458>
    4ba0:	00000af8 	strdeq	r0, [r0], -r8
    4ba4:	09300b00 	ldmdbeq	r0!, {r8, r9, fp}
    4ba8:	0b010000 	bleq	44bb0 <__bss_end__+0x398b0>
    4bac:	00000973 	andeq	r0, r0, r3, ror r9
    4bb0:	09820b04 	stmibeq	r2, {r2, r8, r9, fp}
    4bb4:	0b050000 	bleq	144bbc <__bss_end__+0x1398bc>
    4bb8:	00000991 	muleq	r0, r1, r9
    4bbc:	09a00b06 	stmibeq	r0!, {r1, r2, r8, r9, fp}
    4bc0:	0b070000 	bleq	1c4bc8 <__bss_end__+0x1b98c8>
    4bc4:	00000ac1 	andeq	r0, r0, r1, asr #21
    4bc8:	09af0b03 	stmibeq	pc!, {r0, r1, r8, r9, fp}	; <UNPREDICTABLE>
    4bcc:	00020000 	andeq	r0, r2, r0
    4bd0:	000c6205 	andeq	r6, ip, r5, lsl #4
    4bd4:	03150400 	tsteq	r5, #0, 8
    4bd8:	000000d0 	ldrdeq	r0, [r0], -r0	; <UNPREDICTABLE>
    4bdc:	000c000c 	andeq	r0, ip, ip
    4be0:	171d0100 	ldrne	r0, [sp, -r0, lsl #2]
    4be4:	0000003a 	andeq	r0, r0, sl, lsr r0
    4be8:	2020001c 	eorcs	r0, r0, ip, lsl r0
    4bec:	000bf60c 	andeq	pc, fp, ip, lsl #12
    4bf0:	171e0100 	ldrne	r0, [lr, -r0, lsl #2]
    4bf4:	0000003a 	andeq	r0, r0, sl, lsr r0
    4bf8:	20200028 	eorcs	r0, r0, r8, lsr #32
    4bfc:	000c6e0c 	andeq	r6, ip, ip, lsl #28
    4c00:	171f0100 	ldrne	r0, [pc, -r0, lsl #2]
    4c04:	0000003a 	andeq	r0, r0, sl, lsr r0
    4c08:	20200034 	eorcs	r0, r0, r4, lsr r0
    4c0c:	000c1f0d 	andeq	r1, ip, sp, lsl #30
    4c10:	05510100 	ldrbeq	r0, [r1, #-256]	; 0xffffff00
    4c14:	00000033 	andeq	r0, r0, r3, lsr r0
    4c18:	0000a48c 	andeq	sl, r0, ip, lsl #9
    4c1c:	00000028 	andeq	r0, r0, r8, lsr #32
    4c20:	01ba9c01 			; <UNDEFINED> instruction: 0x01ba9c01
    4c24:	700e0000 	andvc	r0, lr, r0
    4c28:	01006e69 	tsteq	r0, r9, ror #28
    4c2c:	002c1851 	eoreq	r1, ip, r1, asr r8
    4c30:	2dd70000 	ldclcs	0, cr0, [r7]
    4c34:	2dd10000 	ldclcs	0, cr0, [r1]
    4c38:	780f0000 	stmdavc	pc, {}	; <UNPREDICTABLE>
    4c3c:	0100000c 	tsteq	r0, ip
    4c40:	002c0e52 	eoreq	r0, ip, r2, asr lr
    4c44:	2e0d0000 	cdpcs	0, 0, cr0, cr13, cr0, {0}
    4c48:	2e030000 	cdpcs	0, 0, cr0, cr3, cr0, {0}
    4c4c:	6f100000 	svcvs	0x00100000
    4c50:	01006666 	tsteq	r0, r6, ror #12
    4c54:	002c0e53 	eoreq	r0, ip, r3, asr lr
    4c58:	2e7b0000 	cdpcs	0, 7, cr0, cr11, cr0, {0}
    4c5c:	2e750000 	cdpcs	0, 7, cr0, cr5, cr0, {0}
    4c60:	a0110000 	andsge	r0, r1, r0
    4c64:	5e0000a4 	cdppl	0, 0, cr0, cr0, cr4, {5}
    4c68:	12000006 	andne	r0, r0, #6, 0
    4c6c:	740a5001 	strvc	r5, [sl], #-1
    4c70:	23253500 			; <UNDEFINED> instruction: 0x23253500
    4c74:	818080b4 	strhhi	r8, [r0, r4]
    4c78:	13000002 	movwne	r0, #2
    4c7c:	00000c0a 	andeq	r0, r0, sl, lsl #24
    4c80:	5c064a01 			; <UNDEFINED> instruction: 0x5c064a01
    4c84:	300000a4 	andcc	r0, r0, r4, lsr #1
    4c88:	01000000 	mrseq	r0, (UNDEF: 0)
    4c8c:	0002759c 	muleq	r2, ip, r5
    4c90:	69700e00 	ldmdbvs	r0!, {r9, sl, fp}^
    4c94:	4a01006e 	bmi	44e54 <__bss_end__+0x39b54>
    4c98:	00002c1a 	andeq	r2, r0, sl, lsl ip
    4c9c:	002eb800 	eoreq	fp, lr, r0, lsl #16
    4ca0:	002eac00 	eoreq	sl, lr, r0, lsl #24
    4ca4:	00760e00 	rsbseq	r0, r6, r0, lsl #28
    4ca8:	2c284a01 			; <UNDEFINED> instruction: 0x2c284a01
    4cac:	0c000000 	stceq	0, cr0, [r0], {-0}
    4cb0:	0800002f 	stmdaeq	r0, {r0, r1, r2, r3, r5}
    4cb4:	1400002f 	strne	r0, [r0], #-47	; 0xffffffd1
    4cb8:	0000038d 	andeq	r0, r0, sp, lsl #7
    4cbc:	0000a46c 	andeq	sl, r0, ip, ror #8
    4cc0:	00056001 	andeq	r6, r5, r1
    4cc4:	094c0100 	stmdbeq	ip, {r8}^
    4cc8:	00000235 	andeq	r0, r0, r5, lsr r2
    4ccc:	00039a15 	andeq	r9, r3, r5, lsl sl
    4cd0:	002f3300 	eoreq	r3, pc, r0, lsl #6
    4cd4:	002f2d00 	eoreq	r2, pc, r0, lsl #26
    4cd8:	a4781600 	ldrbtge	r1, [r8], #-1536	; 0xfffffa00
    4cdc:	066a0000 	strbteq	r0, [sl], -r0
    4ce0:	01120000 	tsteq	r2, r0
    4ce4:	1c0c0550 	cfstr32ne	mvfx0, [ip], {80}	; 0x50
    4ce8:	12202000 	eorne	r2, r0, #0, 0
    4cec:	31055101 	tstcc	r5, r1, lsl #2
    4cf0:	245001f3 	ldrbcs	r0, [r0], #-499	; 0xfffffe0d
    4cf4:	73170000 	tstvc	r7, #0, 0
    4cf8:	78000003 	stmdavc	r0, {r0, r1}
    4cfc:	020000a4 	andeq	r0, r0, #164, 0	; 0xa4
    4d00:	0000a478 	andeq	sl, r0, r8, ror r4
    4d04:	00000014 	andeq	r0, r0, r4, lsl r0
    4d08:	15094e01 	strne	r4, [r9, #-3585]	; 0xfffff1ff
    4d0c:	00000380 	andeq	r0, r0, r0, lsl #7
    4d10:	00002f65 	andeq	r2, r0, r5, ror #30
    4d14:	00002f5f 	andeq	r2, r0, pc, asr pc
    4d18:	00a48416 	adceq	r8, r4, r6, lsl r4
    4d1c:	00066a00 	andeq	r6, r6, r0, lsl #20
    4d20:	50011200 	andpl	r1, r1, r0, lsl #4
    4d24:	00280c05 	eoreq	r0, r8, r5, lsl #24
    4d28:	01122020 	tsteq	r2, r0, lsr #32
    4d2c:	f3310551 	vqrshl.u64	q0, <illegal reg q0.5>, <illegal reg q0.5>
    4d30:	00245001 	eoreq	r5, r4, r1
    4d34:	36130000 	ldrcc	r0, [r3], -r0
    4d38:	0100000c 	tsteq	r0, ip
    4d3c:	a4040645 	strge	r0, [r4], #-1605	; 0xfffff9bb
    4d40:	00580000 	subseq	r0, r8, r0
    4d44:	9c010000 	stcls	0, cr0, [r1], {-0}
    4d48:	00000373 	andeq	r0, r0, r3, ror r3
    4d4c:	6e69700e 	cdpvs	0, 6, cr7, cr9, cr14, {0}
    4d50:	1e450100 	dvfnes	f0, f5, f0
    4d54:	0000002c 	andeq	r0, r0, ip, lsr #32
    4d58:	00002f97 	muleq	r0, r7, pc	; <UNPREDICTABLE>
    4d5c:	00002f91 	muleq	r0, r1, pc	; <UNPREDICTABLE>
    4d60:	0004a518 	andeq	sl, r4, r8, lsl r5
    4d64:	00a40400 	adceq	r0, r4, r0, lsl #8
    4d68:	05200200 	streq	r0, [r0, #-512]!	; 0xfffffe00
    4d6c:	46010000 	strmi	r0, [r1], -r0
    4d70:	04be1905 	ldrteq	r1, [lr], #2309	; 0x905
    4d74:	15000000 	strne	r0, [r0, #-0]
    4d78:	000004b2 			; <UNDEFINED> instruction: 0x000004b2
    4d7c:	00002fc9 	andeq	r2, r0, r9, asr #31
    4d80:	00002fc3 	andeq	r2, r0, r3, asr #31
    4d84:	0005201a 	andeq	r2, r5, sl, lsl r0
    4d88:	04ca1b00 	strbeq	r1, [sl], #2816	; 0xb00
    4d8c:	d61b0000 	ldrle	r0, [fp], -r0
    4d90:	1b000004 	blne	4da8 <__code_start__-0x3258>
    4d94:	000004e0 	andeq	r0, r0, r0, ror #9
    4d98:	0004a518 	andeq	sl, r4, r8, lsl r5
    4d9c:	00a40c00 	adceq	r0, r4, r0, lsl #24
    4da0:	05400000 	strbeq	r0, [r0, #-0]
    4da4:	28010000 	stmdacs	r1, {}	; <UNPREDICTABLE>
    4da8:	04be1906 	ldrteq	r1, [lr], #2310	; 0x906
    4dac:	15000000 	strne	r0, [r0, #-0]
    4db0:	000004b2 			; <UNDEFINED> instruction: 0x000004b2
    4db4:	00002ffb 	strdeq	r2, [r0], -fp
    4db8:	00002ff5 	strdeq	r2, [r0], -r5
    4dbc:	0005401a 	andeq	r4, r5, sl, lsl r0
    4dc0:	04ca1c00 	strbeq	r1, [sl], #3072	; 0xc00
    4dc4:	302d0000 	eorcc	r0, sp, r0
    4dc8:	30270000 	eorcc	r0, r7, r0
    4dcc:	d61c0000 	ldrle	r0, [ip], -r0
    4dd0:	6f000004 	svcvs	0x00000004
    4dd4:	69000030 	stmdbvs	r0, {r4, r5}
    4dd8:	1c000030 	stcne	0, cr0, [r0], {48}	; 0x30
    4ddc:	000004e0 	andeq	r0, r0, r0, ror #9
    4de0:	000030c5 	andeq	r3, r0, r5, asr #1
    4de4:	000030bd 	strheq	r3, [r0], -sp
    4de8:	00a4341d 	adceq	r3, r4, sp, lsl r4
    4dec:	00065e00 	andeq	r5, r6, r0, lsl #28
    4df0:	00033b00 	andeq	r3, r3, r0, lsl #22
    4df4:	50011200 	andpl	r1, r1, r0, lsl #4
    4df8:	00007602 	andeq	r7, r0, r2, lsl #12
    4dfc:	00a45816 	adceq	r5, r4, r6, lsl r8
    4e00:	00066a00 	andeq	r6, r6, r0, lsl #20
    4e04:	50011200 	andpl	r1, r1, r0, lsl #4
    4e08:	5001f325 	andpl	pc, r1, r5, lsr #6
    4e0c:	25f72cf7 	ldrbcs	r2, [r7, #3319]!	; 0xcf7
    4e10:	cd0825f4 	cfstr32gt	mvfx2, [r8, #-976]	; 0xfffffc30
    4e14:	00cccccc 	sbceq	ip, ip, ip, asr #25
    4e18:	1e000000 	cdpne	0, 0, cr0, cr0, cr0, {0}
    4e1c:	25f72008 	ldrbcs	r2, [r7, #8]!
    4e20:	f72cf725 			; <UNDEFINED> instruction: 0xf72cf725
    4e24:	23253300 			; <UNDEFINED> instruction: 0x23253300
    4e28:	40a08080 	adcmi	r8, r0, r0, lsl #1
    4e2c:	00002432 	andeq	r2, r0, r2, lsr r4
    4e30:	00000000 	andeq	r0, r0, r0
    4e34:	000c451e 	andeq	r4, ip, lr, lsl r5
    4e38:	0d400100 	stfeqe	f0, [r0, #-0]
    4e3c:	00038d03 	andeq	r8, r3, r3, lsl #26
    4e40:	69701f00 	ldmdbvs	r0!, {r8, r9, sl, fp, ip}^
    4e44:	4001006e 	andmi	r0, r1, lr, rrx
    4e48:	00002c23 	andeq	r2, r0, r3, lsr #24
    4e4c:	7d1e0000 	ldcvc	0, cr0, [lr, #-0]
    4e50:	0100000c 	tsteq	r0, ip
    4e54:	a7030d3b 	smladxge	r3, fp, sp, r0
    4e58:	1f000003 	svcne	0x00000003
    4e5c:	006e6970 	rsbeq	r6, lr, r0, ror r9
    4e60:	2c223b01 			; <UNDEFINED> instruction: 0x2c223b01
    4e64:	00000000 	andeq	r0, r0, r0
    4e68:	000c5213 	andeq	r5, ip, r3, lsl r2
    4e6c:	06360100 	ldrteq	r0, [r6], -r0, lsl #2
    4e70:	0000a37c 	andeq	sl, r0, ip, ror r3
    4e74:	00000058 	andeq	r0, r0, r8, asr r0
    4e78:	04a59c01 	strteq	r9, [r5], #3073	; 0xc01
    4e7c:	700e0000 	andvc	r0, lr, r0
    4e80:	01006e69 	tsteq	r0, r9, ror #28
    4e84:	002c1f36 	eoreq	r1, ip, r6, lsr pc
    4e88:	31230000 			; <UNDEFINED> instruction: 0x31230000
    4e8c:	311f0000 	tstcc	pc, r0
    4e90:	a5180000 	ldrge	r0, [r8, #-0]
    4e94:	7c000004 	stcvc	0, cr0, [r0], {4}
    4e98:	020000a3 	andeq	r0, r0, #163, 0	; 0xa3
    4e9c:	000004e0 	andeq	r0, r0, r0, ror #9
    4ea0:	19053701 	stmdbne	r5, {r0, r8, r9, sl, ip, sp}
    4ea4:	000004be 			; <UNDEFINED> instruction: 0x000004be
    4ea8:	04b21501 	ldrteq	r1, [r2], #1281	; 0x501
    4eac:	31480000 	mrscc	r0, (UNDEF: 72)
    4eb0:	31440000 	mrscc	r0, (UNDEF: 68)
    4eb4:	e01a0000 	ands	r0, sl, r0
    4eb8:	1b000004 	blne	4ed0 <__code_start__-0x3130>
    4ebc:	000004ca 	andeq	r0, r0, sl, asr #9
    4ec0:	0004d61b 	andeq	sp, r4, fp, lsl r6
    4ec4:	04e01b00 	strbteq	r1, [r0], #2816	; 0xb00
    4ec8:	a5180000 	ldrge	r0, [r8, #-0]
    4ecc:	84000004 	strhi	r0, [r0], #-4
    4ed0:	000000a3 	andeq	r0, r0, r3, lsr #1
    4ed4:	00000500 	andeq	r0, r0, r0, lsl #10
    4ed8:	19062801 	stmdbne	r6, {r0, fp, sp}
    4edc:	000004be 			; <UNDEFINED> instruction: 0x000004be
    4ee0:	04b21501 	ldrteq	r1, [r2], #1281	; 0x501
    4ee4:	316d0000 	cmncc	sp, r0
    4ee8:	31690000 	cmncc	r9, r0
    4eec:	001a0000 	andseq	r0, sl, r0
    4ef0:	1c000005 	stcne	0, cr0, [r0], {5}
    4ef4:	000004ca 	andeq	r0, r0, sl, asr #9
    4ef8:	00003192 	muleq	r0, r2, r1
    4efc:	0000318e 	andeq	r3, r0, lr, lsl #3
    4f00:	0004d61c 	andeq	sp, r4, ip, lsl r6
    4f04:	0031de00 	eorseq	sp, r1, r0, lsl #28
    4f08:	0031d800 	eorseq	sp, r1, r0, lsl #16
    4f0c:	04e01c00 	strbteq	r1, [r0], #3072	; 0xc00
    4f10:	32340000 	eorscc	r0, r4, #0, 0
    4f14:	322c0000 	eorcc	r0, ip, #0, 0
    4f18:	b01d0000 	andslt	r0, sp, r0
    4f1c:	5e0000a3 	cdppl	0, 0, cr0, cr0, cr3, {5}
    4f20:	6d000006 	stcvs	0, cr0, [r0, #-24]	; 0xffffffe8
    4f24:	12000004 	andne	r0, r0, #4, 0
    4f28:	75025001 	strvc	r5, [r2, #-1]
    4f2c:	d0160000 	andsle	r0, r6, r0
    4f30:	6a0000a3 	bvs	51c4 <__code_start__-0x2e3c>
    4f34:	12000006 	andne	r0, r0, #6, 0
    4f38:	f3255001 	vhadd.u32	d5, d5, d1
    4f3c:	2cf75001 	ldclcs	0, cr5, [r7], #4
    4f40:	25f425f7 	ldrbcs	r2, [r4, #1527]!	; 0x5f7
    4f44:	cccccd08 	stclgt	13, cr12, [ip], {8}
    4f48:	000000cc 	andeq	r0, r0, ip, asr #1
    4f4c:	20081e00 	andcs	r1, r8, r0, lsl #28
    4f50:	f72525f7 			; <UNDEFINED> instruction: 0xf72525f7
    4f54:	3300f72c 	movwcc	pc, #1836	; 0x72c	; <UNPREDICTABLE>
    4f58:	80802325 	addhi	r2, r0, r5, lsr #6
    4f5c:	243240a0 	ldrtcs	r4, [r2], #-160	; 0xffffff60
    4f60:	00000000 	andeq	r0, r0, r0
    4f64:	081e0000 	ldmdaeq	lr, {}	; <UNPREDICTABLE>
    4f68:	0100000b 	tsteq	r0, fp
    4f6c:	eb010628 	bl	46814 <__bss_end__+0x3b514>
    4f70:	1f000004 	svcne	0x00000004
    4f74:	006e6970 	rsbeq	r6, lr, r0, ror r9
    4f78:	2c212801 	stccs	8, cr2, [r1], #-4
    4f7c:	20000000 	andcs	r0, r0, r0
    4f80:	00000194 	muleq	r0, r4, r1
    4f84:	0f322801 	svceq	0x00322801
    4f88:	21000001 	tstcs	r0, r1
    4f8c:	0066666f 	rsbeq	r6, r6, pc, ror #12
    4f90:	2c0e2d01 	stccs	13, cr2, [lr], {1}
    4f94:	21000000 	mrscs	r0, (UNDEF: 0)
    4f98:	2e010067 	cdpcs	0, 0, cr0, cr1, cr7, {3}
    4f9c:	00002c0e 	andeq	r2, r0, lr, lsl #24
    4fa0:	00762100 	rsbseq	r2, r6, r0, lsl #2
    4fa4:	2c0e3001 	stccs	0, cr3, [lr], {1}
    4fa8:	00000000 	andeq	r0, r0, r0
    4fac:	000c1522 	andeq	r1, ip, r2, lsr #10
    4fb0:	18b10200 	ldmne	r1!, {r9}
    4fb4:	00000069 	andeq	r0, r0, r9, rrx
    4fb8:	00050703 	andeq	r0, r5, r3, lsl #14
    4fbc:	00781f00 	rsbseq	r1, r8, r0, lsl #30
    4fc0:	692bb102 	stmdbvs	fp!, {r1, r8, ip, sp, pc}
    4fc4:	00000000 	andeq	r0, r0, r0
    4fc8:	0004a523 	andeq	sl, r4, r3, lsr #10
    4fcc:	00a31c00 	adceq	r1, r3, r0, lsl #24
    4fd0:	00006000 	andeq	r6, r0, r0
    4fd4:	e49c0100 	ldr	r0, [ip], #256	; 0x100
    4fd8:	15000005 	strne	r0, [r0, #-5]
    4fdc:	000004b2 			; <UNDEFINED> instruction: 0x000004b2
    4fe0:	00003273 	andeq	r3, r0, r3, ror r2
    4fe4:	0000326f 	andeq	r3, r0, pc, ror #4
    4fe8:	0004be15 	andeq	fp, r4, r5, lsl lr
    4fec:	00329800 	eorseq	r9, r2, r0, lsl #16
    4ff0:	00329400 	eorseq	r9, r2, r0, lsl #8
    4ff4:	04ca1b00 	strbeq	r1, [sl], #2816	; 0xb00
    4ff8:	d61b0000 	ldrle	r0, [fp], -r0
    4ffc:	1b000004 	blne	5014 <__code_start__-0x2fec>
    5000:	000004e0 	andeq	r0, r0, r0, ror #9
    5004:	0004a518 	andeq	sl, r4, r8, lsl r5
    5008:	00a32400 	adceq	r2, r3, r0, lsl #8
    500c:	04c00000 	strbeq	r0, [r0], #0
    5010:	28010000 	stmdacs	r1, {}	; <UNPREDICTABLE>
    5014:	04be1506 	ldrteq	r1, [lr], #1286	; 0x506
    5018:	32bd0000 	adcscc	r0, sp, #0, 0
    501c:	32b90000 	adcscc	r0, r9, #0, 0
    5020:	b2150000 	andslt	r0, r5, #0, 0
    5024:	e2000004 	and	r0, r0, #4, 0
    5028:	de000032 	mcrle	0, 0, r0, cr0, cr2, {1}
    502c:	1a000032 	bne	50fc <__code_start__-0x2f04>
    5030:	000004c0 	andeq	r0, r0, r0, asr #9
    5034:	0004ca1c 	andeq	ip, r4, ip, lsl sl
    5038:	00330700 	eorseq	r0, r3, r0, lsl #14
    503c:	00330300 	eorseq	r0, r3, r0, lsl #6
    5040:	04d61c00 	ldrbeq	r1, [r6], #3072	; 0xc00
    5044:	33530000 	cmpcc	r3, #0, 0
    5048:	334d0000 	movtcc	r0, #53248	; 0xd000
    504c:	e01c0000 	ands	r0, ip, r0
    5050:	a9000004 	stmdbge	r0, {r2}
    5054:	a1000033 	tstge	r0, r3, lsr r0
    5058:	1d000033 	stcne	0, cr0, [r0, #-204]	; 0xffffff34
    505c:	0000a35c 	andeq	sl, r0, ip, asr r3
    5060:	0000065e 	andeq	r0, r0, lr, asr r6
    5064:	000005ae 	andeq	r0, r0, lr, lsr #11
    5068:	02500112 	subseq	r0, r0, #-2147483644	; 0x80000004
    506c:	16000076 			; <UNDEFINED> instruction: 0x16000076
    5070:	0000a378 	andeq	sl, r0, r8, ror r3
    5074:	0000066a 	andeq	r0, r0, sl, ror #12
    5078:	25500112 	ldrbcs	r0, [r0, #-274]	; 0xfffffeee
    507c:	f75001f3 			; <UNDEFINED> instruction: 0xf75001f3
    5080:	f425f72c 	vld1.8	{d15}, [r5 :128], ip
    5084:	cccd0825 	stclgt	8, cr0, [sp], {37}	; 0x25
    5088:	0000cccc 	andeq	ip, r0, ip, asr #25
    508c:	081e0000 	ldmdaeq	lr, {}	; <UNPREDICTABLE>
    5090:	2525f720 	strcs	pc, [r5, #-1824]!	; 0xfffff8e0
    5094:	00f72cf7 	ldrshteq	r2, [r7], #199	; 0xc7
    5098:	80232533 	eorhi	r2, r3, r3, lsr r5
    509c:	3240a080 	subcc	sl, r0, #128, 0	; 0x80
    50a0:	00000024 	andeq	r0, r0, r4, lsr #32
    50a4:	038d2300 	orreq	r2, sp, #0, 6
    50a8:	a3d40000 	bicsge	r0, r4, #0, 0
    50ac:	00180000 	andseq	r0, r8, r0
    50b0:	9c010000 	stcls	0, cr0, [r1], {-0}
    50b4:	00000621 	andeq	r0, r0, r1, lsr #12
    50b8:	00039a15 	andeq	r9, r3, r5, lsl sl
    50bc:	0033ff00 	eorseq	pc, r3, r0, lsl #30
    50c0:	0033f900 	eorseq	pc, r3, r0, lsl #18
    50c4:	a3e81600 	mvnge	r1, #0, 12
    50c8:	066a0000 	strbteq	r0, [sl], -r0
    50cc:	01120000 	tsteq	r2, r0
    50d0:	1c0c0550 	cfstr32ne	mvfx0, [ip], {80}	; 0x50
    50d4:	12202000 	eorne	r2, r0, #0, 0
    50d8:	31055101 	tstcc	r5, r1, lsl #2
    50dc:	245001f3 	ldrbcs	r0, [r0], #-499	; 0xfffffe0d
    50e0:	73230000 			; <UNDEFINED> instruction: 0x73230000
    50e4:	ec000003 	stc	0, cr0, [r0], {3}
    50e8:	180000a3 	stmdane	r0, {r0, r1, r5, r7}
    50ec:	01000000 	mrseq	r0, (UNDEF: 0)
    50f0:	00065e9c 	muleq	r6, ip, lr
    50f4:	03801500 	orreq	r1, r0, #0, 10
    50f8:	34310000 	ldrtcc	r0, [r1], #-0
    50fc:	342b0000 	strtcc	r0, [fp], #-0
    5100:	00160000 	andseq	r0, r6, r0
    5104:	6a0000a4 	bvs	539c <__code_start__-0x2c64>
    5108:	12000006 	andne	r0, r0, #6, 0
    510c:	0c055001 	stceq	0, cr5, [r5], {1}
    5110:	20200028 	eorcs	r0, r0, r8, lsr #32
    5114:	05510112 	ldrbeq	r0, [r1, #-274]	; 0xfffffeee
    5118:	5001f331 	andpl	pc, r1, r1, lsr r3	; <UNPREDICTABLE>
    511c:	24000024 	strcs	r0, [r0], #-36	; 0xffffffdc
    5120:	000008dd 	ldrdeq	r0, [r0], -sp
    5124:	000008dd 	ldrdeq	r0, [r0], -sp
    5128:	240ac202 	strcs	ip, [sl], #-514	; 0xfffffdfe
    512c:	00000849 	andeq	r0, r0, r9, asr #16
    5130:	00000849 	andeq	r0, r0, r9, asr #16
    5134:	0006ad02 	andeq	sl, r6, r2, lsl #26
    5138:	00000149 	andeq	r0, r0, r9, asr #2
    513c:	1bd10004 	blne	ff445154 <__bss_end__+0xff439e54>
    5140:	01040000 	mrseq	r0, (UNDEF: 4)
    5144:	00000554 	andeq	r0, r0, r4, asr r5
    5148:	000ca70c 	andeq	sl, ip, ip, lsl #14
    514c:	00061a00 	andeq	r1, r6, r0, lsl #20
    5150:	00a4b400 	adceq	fp, r4, r0, lsl #8
    5154:	00003c00 	andeq	r3, r0, r0, lsl #24
    5158:	0027e200 	eoreq	lr, r7, r0, lsl #4
    515c:	05040200 	streq	r0, [r4, #-512]	; 0xfffffe00
    5160:	00746e69 	rsbseq	r6, r4, r9, ror #28
    5164:	b0070403 	andlt	r0, r7, r3, lsl #8
    5168:	03000001 	movweq	r0, #1
    516c:	01540601 	cmpeq	r4, r1, lsl #12
    5170:	02030000 	andeq	r0, r3, #0, 0
    5174:	0001de05 	andeq	sp, r1, r5, lsl #28
    5178:	05040300 	streq	r0, [r4, #-768]	; 0xfffffd00
    517c:	000001c2 	andeq	r0, r0, r2, asr #3
    5180:	bd050803 	stclt	8, cr0, [r5, #-12]
    5184:	03000001 	movweq	r0, #1
    5188:	01520801 	cmpeq	r2, r1, lsl #16
    518c:	02030000 	andeq	r0, r3, #0, 0
    5190:	00005207 	andeq	r5, r0, r7, lsl #4
    5194:	07040300 	streq	r0, [r4, -r0, lsl #6]
    5198:	000001ab 	andeq	r0, r0, fp, lsr #3
    519c:	a6070803 	strge	r0, [r7], -r3, lsl #16
    51a0:	04000001 	streq	r0, [r0], #-1
    51a4:	00000025 	andeq	r0, r0, r5, lsr #32
    51a8:	0000007a 	andeq	r0, r0, sl, ror r0
    51ac:	00002505 	andeq	r2, r0, r5, lsl #10
    51b0:	cb060000 	blgt	1851b8 <__bss_end__+0x179eb8>
    51b4:	02000001 	andeq	r0, r0, #1, 0
    51b8:	00860e1c 	addeq	r0, r6, ip, lsl lr
    51bc:	04070000 	streq	r0, [r7], #-0
    51c0:	0000006b 	andeq	r0, r0, fp, rrx
    51c4:	00002504 	andeq	r2, r0, r4, lsl #10
    51c8:	00009b00 	andeq	r9, r0, r0, lsl #22
    51cc:	009b0500 	addseq	r0, fp, r0, lsl #10
    51d0:	07000000 	streq	r0, [r0, -r0]
    51d4:	0000a804 	andeq	sl, r0, r4, lsl #16
    51d8:	08010300 	stmdaeq	r1, {r8, r9}
    51dc:	0000015b 	andeq	r0, r0, fp, asr r1
    51e0:	0000a108 	andeq	sl, r0, r8, lsl #2
    51e4:	06ba0600 	ldrteq	r0, [sl], r0, lsl #12
    51e8:	21020000 	mrscs	r0, (UNDEF: 2)
    51ec:	0000b90e 	andeq	fp, r0, lr, lsl #18
    51f0:	8c040700 	stchi	7, cr0, [r4], {-0}
    51f4:	09000000 	stmdbeq	r0, {}	; <UNPREDICTABLE>
    51f8:	0000007a 	andeq	r0, r0, sl, ror r0
    51fc:	05070601 	streq	r0, [r7, #-1537]	; 0xfffff9ff
    5200:	00aec803 	adceq	ip, lr, r3, lsl #16
    5204:	0c9a0a00 	vldmiaeq	sl, {s0-s-1}
    5208:	0b010000 	bleq	45210 <__bss_end__+0x39f10>
    520c:	00a4e006 	adceq	lr, r4, r6
    5210:	00001000 	andeq	r1, r0, r0
    5214:	f19c0100 			; <UNDEFINED> instruction: 0xf19c0100
    5218:	0b000000 	bleq	5220 <__code_start__-0x2de0>
    521c:	01007066 	tsteq	r0, r6, rrx
    5220:	0086190b 	addeq	r1, r6, fp, lsl #18
    5224:	50010000 	andpl	r0, r1, r0
    5228:	0bd70c00 	bleq	ff5c8230 <__bss_end__+0xff5bcf30>
    522c:	08010000 	stmdaeq	r1, {}	; <UNPREDICTABLE>
    5230:	00a4c806 	adceq	ip, r4, r6, lsl #16
    5234:	00001800 	andeq	r1, r0, r0, lsl #16
    5238:	0d9c0100 	ldfeqs	f0, [ip]
    523c:	00000c89 	andeq	r0, r0, r9, lsl #25
    5240:	250c0301 	strcs	r0, [ip, #-769]	; 0xfffffcff
    5244:	b4000000 	strlt	r0, [r0], #-0
    5248:	140000a4 	strne	r0, [r0], #-164	; 0xffffff5c
    524c:	01000000 	mrseq	r0, (UNDEF: 0)
    5250:	0001409c 	muleq	r1, ip, r0
    5254:	00630e00 	rsbeq	r0, r3, r0, lsl #28
    5258:	25210301 	strcs	r0, [r1, #-769]!	; 0xfffffcff
    525c:	61000000 	mrsvs	r0, (UNDEF: 0)
    5260:	5d000034 	stcpl	0, cr0, [r0, #-208]	; 0xffffff30
    5264:	0f000034 	svceq	0x00000034
    5268:	0000a4c0 	andeq	sl, r0, r0, asr #9
    526c:	00000140 	andeq	r0, r0, r0, asr #2
    5270:	02500110 	subseq	r0, r0, #4
    5274:	00000074 	andeq	r0, r0, r4, ror r0
    5278:	000aee11 	andeq	lr, sl, r1, lsl lr
    527c:	000aee00 	andeq	lr, sl, r0, lsl #28
    5280:	06420200 	strbeq	r0, [r2], -r0, lsl #4
    5284:	00013700 	andeq	r3, r1, r0, lsl #14
    5288:	e0000400 	and	r0, r0, r0, lsl #8
    528c:	0400001c 	streq	r0, [r0], #-28	; 0xffffffe4
    5290:	00055401 	andeq	r5, r5, r1, lsl #8
    5294:	0cb80c00 	ldceq	12, cr0, [r8]
    5298:	061a0000 	ldreq	r0, [sl], -r0
    529c:	a4f00000 	ldrbtge	r0, [r0], #0
    52a0:	002c0000 	eoreq	r0, ip, r0
    52a4:	28840000 	stmcs	r4, {}	; <UNPREDICTABLE>
    52a8:	04020000 	streq	r0, [r2], #-0
    52ac:	746e6905 	strbtvc	r6, [lr], #-2309	; 0xfffff6fb
    52b0:	07040300 	streq	r0, [r4, -r0, lsl #6]
    52b4:	000001b0 			; <UNDEFINED> instruction: 0x000001b0
    52b8:	54060103 	strpl	r0, [r6], #-259	; 0xfffffefd
    52bc:	03000001 	movweq	r0, #1
    52c0:	01de0502 	bicseq	r0, lr, r2, lsl #10
    52c4:	04030000 	streq	r0, [r3], #-0
    52c8:	0001c205 	andeq	ip, r1, r5, lsl #4
    52cc:	05080300 	streq	r0, [r8, #-768]	; 0xfffffd00
    52d0:	000001bd 			; <UNDEFINED> instruction: 0x000001bd
    52d4:	52080103 	andpl	r0, r8, #-1073741824	; 0xc0000000
    52d8:	03000001 	movweq	r0, #1
    52dc:	00520702 	subseq	r0, r2, r2, lsl #14
    52e0:	04030000 	streq	r0, [r3], #-0
    52e4:	0001ab07 	andeq	sl, r1, r7, lsl #22
    52e8:	07080300 	streq	r0, [r8, -r0, lsl #6]
    52ec:	000001a6 	andeq	r0, r0, r6, lsr #3
    52f0:	00002504 	andeq	r2, r0, r4, lsl #10
    52f4:	00007a00 	andeq	r7, r0, r0, lsl #20
    52f8:	00250500 	eoreq	r0, r5, r0, lsl #10
    52fc:	06000000 	streq	r0, [r0], -r0
    5300:	000001cb 	andeq	r0, r0, fp, asr #3
    5304:	860e1c02 	strhi	r1, [lr], -r2, lsl #24
    5308:	07000000 	streq	r0, [r0, -r0]
    530c:	00006b04 	andeq	r6, r0, r4, lsl #22
    5310:	00250400 	eoreq	r0, r5, r0, lsl #8
    5314:	009b0000 	addseq	r0, fp, r0
    5318:	9b050000 	blls	145320 <__bss_end__+0x13a020>
    531c:	00000000 	andeq	r0, r0, r0
    5320:	00a80407 	adceq	r0, r8, r7, lsl #8
    5324:	01030000 	mrseq	r0, (UNDEF: 3)
    5328:	00015b08 	andeq	r5, r1, r8, lsl #22
    532c:	00a10800 	adceq	r0, r1, r0, lsl #16
    5330:	ba060000 	blt	185338 <__bss_end__+0x17a038>
    5334:	02000006 	andeq	r0, r0, #6, 0
    5338:	00b90e21 	adcseq	r0, r9, r1, lsr #28
    533c:	04070000 	streq	r0, [r7], #-0
    5340:	0000008c 	andeq	r0, r0, ip, lsl #1
    5344:	00072709 	andeq	r2, r7, r9, lsl #14
    5348:	07040100 	streq	r0, [r4, -r0, lsl #2]
    534c:	00000134 	andeq	r0, r0, r4, lsr r1
    5350:	0000a4f0 	strdeq	sl, [r0], -r0
    5354:	0000002c 	andeq	r0, r0, ip, lsr #32
    5358:	01349c01 	teqeq	r4, r1, lsl #24
    535c:	c80a0000 	stmdagt	sl, {}	; <UNPREDICTABLE>
    5360:	0100000c 	tsteq	r0, ip
    5364:	01341504 	teqeq	r4, r4, lsl #10
    5368:	50010000 	andpl	r0, r1, r0
    536c:	6372730b 	cmnvs	r2, #738197504	; 0x2c000000
    5370:	27040100 	strcs	r0, [r4, -r0, lsl #2]
    5374:	0000009b 	muleq	r0, fp, r0
    5378:	00003483 	andeq	r3, r0, r3, lsl #9
    537c:	0000347f 	andeq	r3, r0, pc, ror r4
    5380:	0031730c 	eorseq	r7, r1, ip, lsl #6
    5384:	340b0501 	strcc	r0, [fp], #-1281	; 0xfffffaff
    5388:	b2000001 	andlt	r0, r0, #1, 0
    538c:	a4000034 	strge	r0, [r0], #-52	; 0xffffffcc
    5390:	0c000034 	stceq	0, cr0, [r0], {52}	; 0x34
    5394:	01003273 	tsteq	r0, r3, ror r2
    5398:	009b1106 	addseq	r1, fp, r6, lsl #2
    539c:	35110000 	ldrcc	r0, [r1, #-0]
    53a0:	350b0000 	strcc	r0, [fp, #-0]
    53a4:	630c0000 	movwvs	r0, #49152	; 0xc000
    53a8:	0a070100 	beq	1c57b0 <__bss_end__+0x1ba4b0>
    53ac:	000000a1 	andeq	r0, r0, r1, lsr #1
    53b0:	00003542 	andeq	r3, r0, r2, asr #10
    53b4:	0000353c 	andeq	r3, r0, ip, lsr r5
    53b8:	a1040700 	tstge	r4, r0, lsl #14
    53bc:	00000000 	andeq	r0, r0, r0
    53c0:	000000f7 	strdeq	r0, [r0], -r7
    53c4:	1d960004 	ldcne	0, cr0, [r6, #16]
    53c8:	01040000 	mrseq	r0, (UNDEF: 4)
    53cc:	00000554 	andeq	r0, r0, r4, asr r5
    53d0:	000ccd0c 	andeq	ip, ip, ip, lsl #26
    53d4:	00061a00 	andeq	r1, r6, r0, lsl #20
    53d8:	00a51c00 	adceq	r1, r5, r0, lsl #24
    53dc:	00004400 	andeq	r4, r0, r0, lsl #8
    53e0:	00296a00 	eoreq	r6, r9, r0, lsl #20
    53e4:	05040200 	streq	r0, [r4, #-512]	; 0xfffffe00
    53e8:	00746e69 	rsbseq	r6, r4, r9, ror #28
    53ec:	b0070403 	andlt	r0, r7, r3, lsl #8
    53f0:	03000001 	movweq	r0, #1
    53f4:	01540601 	cmpeq	r4, r1, lsl #12
    53f8:	02030000 	andeq	r0, r3, #0, 0
    53fc:	0001de05 	andeq	sp, r1, r5, lsl #28
    5400:	05040300 	streq	r0, [r4, #-768]	; 0xfffffd00
    5404:	000001c2 	andeq	r0, r0, r2, asr #3
    5408:	bd050803 	stclt	8, cr0, [r5, #-12]
    540c:	03000001 	movweq	r0, #1
    5410:	01520801 	cmpeq	r2, r1, lsl #16
    5414:	02030000 	andeq	r0, r3, #0, 0
    5418:	00005207 	andeq	r5, r0, r7, lsl #4
    541c:	07040300 	streq	r0, [r4, -r0, lsl #6]
    5420:	000001ab 	andeq	r0, r0, fp, lsr #3
    5424:	a6070803 	strge	r0, [r7], -r3, lsl #16
    5428:	04000001 	streq	r0, [r0], #-1
    542c:	00000025 	andeq	r0, r0, r5, lsr #32
    5430:	0000007a 	andeq	r0, r0, sl, ror r0
    5434:	00002505 	andeq	r2, r0, r5, lsl #10
    5438:	cb060000 	blgt	185440 <__bss_end__+0x17a140>
    543c:	02000001 	andeq	r0, r0, #1, 0
    5440:	00860e1c 	addeq	r0, r6, ip, lsl lr
    5444:	04070000 	streq	r0, [r7], #-0
    5448:	0000006b 	andeq	r0, r0, fp, rrx
    544c:	00002504 	andeq	r2, r0, r4, lsl #10
    5450:	00009b00 	andeq	r9, r0, r0, lsl #22
    5454:	009b0500 	addseq	r0, fp, r0, lsl #10
    5458:	07000000 	streq	r0, [r0, -r0]
    545c:	0000a804 	andeq	sl, r0, r4, lsl #16
    5460:	08010300 	stmdaeq	r1, {r8, r9}
    5464:	0000015b 	andeq	r0, r0, fp, asr r1
    5468:	0000a108 	andeq	sl, r0, r8, lsl #2
    546c:	06ba0600 	ldrteq	r0, [sl], r0, lsl #12
    5470:	21020000 	mrscs	r0, (UNDEF: 2)
    5474:	0000b90e 	andeq	fp, r0, lr, lsl #18
    5478:	8c040700 	stchi	7, cr0, [r4], {-0}
    547c:	09000000 	stmdbeq	r0, {}	; <UNPREDICTABLE>
    5480:	00000755 	andeq	r0, r0, r5, asr r7
    5484:	25050301 	strcs	r0, [r5, #-769]	; 0xfffffcff
    5488:	1c000000 	stcne	0, cr0, [r0], {-0}
    548c:	440000a5 	strmi	r0, [r0], #-165	; 0xffffff5b
    5490:	01000000 	mrseq	r0, (UNDEF: 0)
    5494:	00610a9c 	mlseq	r1, ip, sl, r0
    5498:	9b180301 	blls	6060a4 <__bss_end__+0x5fada4>
    549c:	79000000 	stmdbvc	r0, {}	; <UNPREDICTABLE>
    54a0:	6d000035 	stcvs	0, cr0, [r0, #-212]	; 0xffffff2c
    54a4:	0a000035 	beq	5580 <__code_start__-0x2a80>
    54a8:	03010062 	movweq	r0, #4194	; 0x1062
    54ac:	00009b27 	andeq	r9, r0, r7, lsr #22
    54b0:	0035cd00 	eorseq	ip, r5, r0, lsl #26
    54b4:	0035c700 	eorseq	ip, r5, r0, lsl #14
    54b8:	0f000000 	svceq	0x00000000
    54bc:	04000001 	streq	r0, [r0], #-1
    54c0:	001e2500 	andseq	r2, lr, r0, lsl #10
    54c4:	54010400 	strpl	r0, [r1], #-1024	; 0xfffffc00
    54c8:	0c000005 	stceq	0, cr0, [r0], {5}
    54cc:	00000cdd 	ldrdeq	r0, [r0], -sp
    54d0:	0000061a 	andeq	r0, r0, sl, lsl r6
    54d4:	0000a560 	andeq	sl, r0, r0, ror #10
    54d8:	00000018 	andeq	r0, r0, r8, lsl r0
    54dc:	00002a20 	andeq	r2, r0, r0, lsr #20
    54e0:	69050402 	stmdbvs	r5, {r1, sl}
    54e4:	0300746e 	movweq	r7, #1134	; 0x46e
    54e8:	01b00704 	lslseq	r0, r4, #14
    54ec:	01030000 	mrseq	r0, (UNDEF: 3)
    54f0:	00015406 	andeq	r5, r1, r6, lsl #8
    54f4:	05020300 	streq	r0, [r2, #-768]	; 0xfffffd00
    54f8:	000001de 	ldrdeq	r0, [r0], -lr
    54fc:	c2050403 	andgt	r0, r5, #50331648	; 0x3000000
    5500:	03000001 	movweq	r0, #1
    5504:	01bd0508 			; <UNDEFINED> instruction: 0x01bd0508
    5508:	01030000 	mrseq	r0, (UNDEF: 3)
    550c:	00015208 	andeq	r5, r1, r8, lsl #4
    5510:	07020300 	streq	r0, [r2, -r0, lsl #6]
    5514:	00000052 	andeq	r0, r0, r2, asr r0
    5518:	ab070403 	blge	1c652c <__bss_end__+0x1bb22c>
    551c:	03000001 	movweq	r0, #1
    5520:	01a60708 			; <UNDEFINED> instruction: 0x01a60708
    5524:	25040000 	strcs	r0, [r4, #-0]
    5528:	7a000000 	bvc	5530 <__code_start__-0x2ad0>
    552c:	05000000 	streq	r0, [r0, #-0]
    5530:	00000025 	andeq	r0, r0, r5, lsr #32
    5534:	01cb0600 	biceq	r0, fp, r0, lsl #12
    5538:	1c020000 	stcne	0, cr0, [r2], {-0}
    553c:	0000860e 	andeq	r8, r0, lr, lsl #12
    5540:	6b040700 	blvs	107148 <__bss_end__+0xfbe48>
    5544:	04000000 	streq	r0, [r0], #-0
    5548:	00000025 	andeq	r0, r0, r5, lsr #32
    554c:	0000009b 	muleq	r0, fp, r0
    5550:	00009b05 	andeq	r9, r0, r5, lsl #22
    5554:	04070000 	streq	r0, [r7], #-0
    5558:	000000a8 	andeq	r0, r0, r8, lsr #1
    555c:	5b080103 	blpl	205970 <__bss_end__+0x1fa670>
    5560:	08000001 	stmdaeq	r0, {r0}
    5564:	000000a1 	andeq	r0, r0, r1, lsr #1
    5568:	0006ba06 	andeq	fp, r6, r6, lsl #20
    556c:	0e210200 	cdpeq	2, 2, cr0, cr1, cr0, {0}
    5570:	000000b9 	strheq	r0, [r0], -r9
    5574:	008c0407 	addeq	r0, ip, r7, lsl #8
    5578:	2e090000 	cdpcs	0, 0, cr0, cr9, cr0, {0}
    557c:	01000007 	tsteq	r0, r7
    5580:	010c0703 	tsteq	ip, r3, lsl #14
    5584:	a5600000 	strbge	r0, [r0, #-0]!
    5588:	00180000 	andseq	r0, r8, r0
    558c:	9c010000 	stcls	0, cr0, [r1], {-0}
    5590:	0000010c 	andeq	r0, r0, ip, lsl #2
    5594:	0031730a 	eorseq	r7, r1, sl, lsl #6
    5598:	0c150301 	ldceq	3, cr0, [r5], {1}
    559c:	01000001 	tsteq	r0, r1
    55a0:	32730b50 	rsbscc	r0, r3, #80, 22	; 0x14000
    55a4:	26030100 	strcs	r0, [r3], -r0, lsl #2
    55a8:	0000009b 	muleq	r0, fp, r0
    55ac:	000035fc 	strdeq	r3, [r0], -ip
    55b0:	000035f6 	strdeq	r3, [r0], -r6
    55b4:	0100730c 	tsteq	r0, ip, lsl #6
    55b8:	010c1404 	tsteq	ip, r4, lsl #8
    55bc:	36290000 	strtcc	r0, [r9], -r0
    55c0:	36270000 	strtcc	r0, [r7], -r0
    55c4:	07000000 	streq	r0, [r0, -r0]
    55c8:	0000a104 	andeq	sl, r0, r4, lsl #2
    55cc:	014e0000 	mrseq	r0, (UNDEF: 78)
    55d0:	00040000 	andeq	r0, r4, r0
    55d4:	00001edb 	ldrdeq	r1, [r0], -fp
    55d8:	05540104 	ldrbeq	r0, [r4, #-260]	; 0xfffffefc
    55dc:	ed0c0000 	stc	0, cr0, [ip, #-0]
    55e0:	1a00000c 	bne	5618 <__code_start__-0x29e8>
    55e4:	78000006 	stmdavc	r0, {r1, r2}
    55e8:	300000a5 	andcc	r0, r0, r5, lsr #1
    55ec:	c1000000 	mrsgt	r0, (UNDEF: 0)
    55f0:	0200002a 	andeq	r0, r0, #42, 0	; 0x2a
    55f4:	6e690504 	cdpvs	5, 6, cr0, cr9, cr4, {0}
    55f8:	5d030074 	stcpl	0, cr0, [r3, #-464]	; 0xfffffe30
    55fc:	03000006 	movweq	r0, #6
    5600:	003817d1 	ldrsbteq	r1, [r8], -r1
    5604:	04040000 	streq	r0, [r4], #-0
    5608:	0001b007 	andeq	fp, r1, r7
    560c:	06010400 	streq	r0, [r1], -r0, lsl #8
    5610:	00000154 	andeq	r0, r0, r4, asr r1
    5614:	de050204 	cdple	2, 0, cr0, cr5, cr4, {0}
    5618:	04000001 	streq	r0, [r0], #-1
    561c:	01c20504 	biceq	r0, r2, r4, lsl #10
    5620:	08040000 	stmdaeq	r4, {}	; <UNPREDICTABLE>
    5624:	0001bd05 	andeq	fp, r1, r5, lsl #26
    5628:	08010400 	stmdaeq	r1, {sl}
    562c:	00000152 	andeq	r0, r0, r2, asr r1
    5630:	00005b05 	andeq	r5, r0, r5, lsl #22
    5634:	07020400 	streq	r0, [r2, -r0, lsl #8]
    5638:	00000052 	andeq	r0, r0, r2, asr r0
    563c:	ab070404 	blge	1c6654 <__bss_end__+0x1bb354>
    5640:	04000001 	streq	r0, [r0], #-1
    5644:	01a60708 			; <UNDEFINED> instruction: 0x01a60708
    5648:	25060000 	strcs	r0, [r6, #-0]
    564c:	8b000000 	blhi	5654 <__code_start__-0x29ac>
    5650:	07000000 	streq	r0, [r0, -r0]
    5654:	00000025 	andeq	r0, r0, r5, lsr #32
    5658:	01cb0800 	biceq	r0, fp, r0, lsl #16
    565c:	1c020000 	stcne	0, cr0, [r2], {-0}
    5660:	0000970e 	andeq	r9, r0, lr, lsl #14
    5664:	7c040900 			; <UNDEFINED> instruction: 0x7c040900
    5668:	06000000 	streq	r0, [r0], -r0
    566c:	00000025 	andeq	r0, r0, r5, lsr #32
    5670:	000000ac 	andeq	r0, r0, ip, lsr #1
    5674:	0000ac07 	andeq	sl, r0, r7, lsl #24
    5678:	04090000 	streq	r0, [r9], #-0
    567c:	000000b9 	strheq	r0, [r0], -r9
    5680:	5b080104 	blpl	205a98 <__bss_end__+0x1fa798>
    5684:	05000001 	streq	r0, [r0, #-1]
    5688:	000000b2 	strheq	r0, [r0], -r2
    568c:	0006ba08 	andeq	fp, r6, r8, lsl #20
    5690:	0e210200 	cdpeq	2, 2, cr0, cr1, cr0, {0}
    5694:	000000ca 	andeq	r0, r0, sl, asr #1
    5698:	009d0409 	addseq	r0, sp, r9, lsl #8
    569c:	760a0000 	strvc	r0, [sl], -r0
    56a0:	01000007 	tsteq	r0, r7
    56a4:	00250504 	eoreq	r0, r5, r4, lsl #10
    56a8:	a5780000 	ldrbge	r0, [r8, #-0]!
    56ac:	00300000 	eorseq	r0, r0, r0
    56b0:	9c010000 	stcls	0, cr0, [r1], {-0}
    56b4:	0000014b 	andeq	r0, r0, fp, asr #2
    56b8:	31735f0b 	cmncc	r3, fp, lsl #30
    56bc:	19040100 	stmdbne	r4, {r8}
    56c0:	000000ac 	andeq	r0, r0, ip, lsr #1
    56c4:	00003640 	andeq	r3, r0, r0, asr #12
    56c8:	0000363c 	andeq	r3, r0, ip, lsr r6
    56cc:	32735f0b 	rsbscc	r5, r3, #11, 30	; 0x2c
    56d0:	2a040100 	bcs	105ad8 <__bss_end__+0xfa7d8>
    56d4:	000000ac 	andeq	r0, r0, ip, lsr #1
    56d8:	00003665 	andeq	r3, r0, r5, ror #12
    56dc:	00003661 	andeq	r3, r0, r1, ror #12
    56e0:	01006e0b 	tsteq	r0, fp, lsl #28
    56e4:	002c3604 	eoreq	r3, ip, r4, lsl #12
    56e8:	36900000 	ldrcc	r0, [r0], r0
    56ec:	36860000 	strcc	r0, [r6], r0
    56f0:	730c0000 	movwvc	r0, #49152	; 0xc000
    56f4:	05010031 	streq	r0, [r1, #-49]	; 0xffffffcf
    56f8:	00014b1a 	andeq	r4, r1, sl, lsl fp
    56fc:	0036e700 	eorseq	lr, r6, r0, lsl #14
    5700:	0036df00 	eorseq	sp, r6, r0, lsl #30
    5704:	32730c00 	rsbscc	r0, r3, #0, 24
    5708:	2c050100 	stfcss	f0, [r5], {-0}
    570c:	0000014b 	andeq	r0, r0, fp, asr #2
    5710:	00003725 	andeq	r3, r0, r5, lsr #14
    5714:	0000371f 	andeq	r3, r0, pc, lsl r7
    5718:	62040900 	andvs	r0, r4, #0, 18
    571c:	00000000 	andeq	r0, r0, r0
    5720:	000000ce 	andeq	r0, r0, lr, asr #1
    5724:	1f8f0004 	svcne	0x008f0004
    5728:	01040000 	mrseq	r0, (UNDEF: 4)
    572c:	00000554 	andeq	r0, r0, r4, asr r5
    5730:	000cfe0c 	andeq	pc, ip, ip, lsl #28
    5734:	00061a00 	andeq	r1, r6, r0, lsl #20
    5738:	00a5a800 	adceq	sl, r5, r0, lsl #16
    573c:	00000400 	andeq	r0, r0, r0, lsl #8
    5740:	002bc200 	eoreq	ip, fp, r0, lsl #4
    5744:	05040200 	streq	r0, [r4, #-512]	; 0xfffffe00
    5748:	00746e69 	rsbseq	r6, r4, r9, ror #28
    574c:	b0070403 	andlt	r0, r7, r3, lsl #8
    5750:	03000001 	movweq	r0, #1
    5754:	01540601 	cmpeq	r4, r1, lsl #12
    5758:	02030000 	andeq	r0, r3, #0, 0
    575c:	0001de05 	andeq	sp, r1, r5, lsl #28
    5760:	05040300 	streq	r0, [r4, #-768]	; 0xfffffd00
    5764:	000001c2 	andeq	r0, r0, r2, asr #3
    5768:	bd050803 	stclt	8, cr0, [r5, #-12]
    576c:	03000001 	movweq	r0, #1
    5770:	01520801 	cmpeq	r2, r1, lsl #16
    5774:	02030000 	andeq	r0, r3, #0, 0
    5778:	00005207 	andeq	r5, r0, r7, lsl #4
    577c:	07040300 	streq	r0, [r4, -r0, lsl #6]
    5780:	000001ab 	andeq	r0, r0, fp, lsr #3
    5784:	a6070803 	strge	r0, [r7], -r3, lsl #16
    5788:	04000001 	streq	r0, [r0], #-1
    578c:	00000025 	andeq	r0, r0, r5, lsr #32
    5790:	0000007a 	andeq	r0, r0, sl, ror r0
    5794:	00002505 	andeq	r2, r0, r5, lsl #10
    5798:	cb060000 	blgt	1857a0 <__bss_end__+0x17a4a0>
    579c:	02000001 	andeq	r0, r0, #1, 0
    57a0:	00860e1c 	addeq	r0, r6, ip, lsl lr
    57a4:	04070000 	streq	r0, [r7], #-0
    57a8:	0000006b 	andeq	r0, r0, fp, rrx
    57ac:	00002504 	andeq	r2, r0, r4, lsl #10
    57b0:	00009b00 	andeq	r9, r0, r0, lsl #22
    57b4:	009b0500 	addseq	r0, fp, r0, lsl #10
    57b8:	07000000 	streq	r0, [r0, -r0]
    57bc:	0000a804 	andeq	sl, r0, r4, lsl #16
    57c0:	08010300 	stmdaeq	r1, {r8, r9}
    57c4:	0000015b 	andeq	r0, r0, fp, asr r1
    57c8:	0000a108 	andeq	sl, r0, r8, lsl #2
    57cc:	06ba0600 	ldrteq	r0, [sl], r0, lsl #12
    57d0:	21020000 	mrscs	r0, (UNDEF: 2)
    57d4:	0000b90e 	andeq	fp, r0, lr, lsl #18
    57d8:	8c040700 	stchi	7, cr0, [r4], {-0}
    57dc:	09000000 	stmdbeq	r0, {}	; <UNPREDICTABLE>
    57e0:	00000832 	andeq	r0, r0, r2, lsr r8
    57e4:	a8060301 	stmdage	r6, {r0, r8, r9}
    57e8:	040000a5 	streq	r0, [r0], #-165	; 0xffffff5b
    57ec:	01000000 	mrseq	r0, (UNDEF: 0)
    57f0:	Address 0x00000000000057f0 is out of bounds.


Disassembly of section .debug_abbrev:

00000000 <.debug_abbrev>:
       0:	25011101 	strcs	r1, [r1, #-257]	; 0xfffffeff
       4:	030b130e 	movweq	r1, #45838	; 0xb30e
       8:	110e1b0e 	tstne	lr, lr, lsl #22
       c:	10061201 	andne	r1, r6, r1, lsl #4
      10:	02000017 	andeq	r0, r0, #23, 0
      14:	0b0b0024 	bleq	2c00ac <__bss_end__+0x2b4dac>
      18:	08030b3e 	stmdaeq	r3, {r1, r2, r3, r4, r5, r8, r9, fp}
      1c:	24030000 	strcs	r0, [r3], #-0
      20:	3e0b0b00 	vmlacc.f64	d0, d11, d0
      24:	000e030b 	andeq	r0, lr, fp, lsl #6
      28:	01150400 	tsteq	r5, r0, lsl #8
      2c:	13491927 	movtne	r1, #39207	; 0x9927
      30:	00001301 	andeq	r1, r0, r1, lsl #6
      34:	49000505 	stmdbmi	r0, {r0, r2, r8, sl}
      38:	06000013 			; <UNDEFINED> instruction: 0x06000013
      3c:	0e030034 	mcreq	0, 0, r0, cr3, cr4, {1}
      40:	0b3b0b3a 	bleq	ec2d30 <__bss_end__+0xeb7a30>
      44:	13490b39 	movtne	r0, #39737	; 0x9b39
      48:	193c193f 	ldmdbne	ip!, {r0, r1, r2, r3, r4, r5, r8, fp, ip}
      4c:	0f070000 	svceq	0x00070000
      50:	490b0b00 	stmdbmi	fp, {r8, r9, fp}
      54:	08000013 	stmdaeq	r0, {r0, r1, r4}
      58:	13490026 	movtne	r0, #36902	; 0x9026
      5c:	13090000 	movwne	r0, #36864	; 0x9000
      60:	3a0b0b01 	bcc	2c2c6c <__bss_end__+0x2b796c>
      64:	390b3b0b 	stmdbcc	fp, {r0, r1, r3, r8, r9, fp, ip, sp}
      68:	0013010b 	andseq	r0, r3, fp, lsl #2
      6c:	000d0a00 	andeq	r0, sp, r0, lsl #20
      70:	0b3a0e03 	bleq	e83884 <__bss_end__+0xe78584>
      74:	0b390b3b 	bleq	e42d68 <__bss_end__+0xe37a68>
      78:	0b381349 	bleq	e04da4 <__bss_end__+0xdf9aa4>
      7c:	160b0000 	strne	r0, [fp], -r0
      80:	3a0e0300 	bcc	380c88 <__bss_end__+0x375988>
      84:	390b3b0b 	stmdbcc	fp, {r0, r1, r3, r8, r9, fp, ip, sp}
      88:	0013490b 	andseq	r4, r3, fp, lsl #18
      8c:	012e0c00 			; <UNDEFINED> instruction: 0x012e0c00
      90:	0e03193f 			; <UNDEFINED> instruction: 0x0e03193f
      94:	0b3b0b3a 	bleq	ec2d84 <__bss_end__+0xeb7a84>
      98:	19270b39 	stmdbne	r7!, {r0, r3, r4, r5, r8, r9, fp}
      9c:	06120111 			; <UNDEFINED> instruction: 0x06120111
      a0:	42971840 	addsmi	r1, r7, #64, 16	; 0x400000
      a4:	00130119 	andseq	r0, r3, r9, lsl r1
      a8:	00340d00 	eorseq	r0, r4, r0, lsl #26
      ac:	0b3a0803 	bleq	e820c0 <__bss_end__+0xe76dc0>
      b0:	0b390b3b 	bleq	e42da4 <__bss_end__+0xe37aa4>
      b4:	17021349 	strne	r1, [r2, -r9, asr #6]
      b8:	001742b7 			; <UNDEFINED> instruction: 0x001742b7
      bc:	00340e00 	eorseq	r0, r4, r0, lsl #28
      c0:	13490e03 	movtne	r0, #40451	; 0x9e03
      c4:	18021934 	stmdane	r2, {r2, r4, r5, r8, fp, ip}
      c8:	1d0f0000 	stcne	0, cr0, [pc, #-0]	; d0 <__code_start__-0x7f30>
      cc:	52133101 	andspl	r3, r3, #1073741824	; 0x40000000
      d0:	0b42b801 	bleq	10ae0dc <__bss_end__+0x10a2ddc>
      d4:	06120111 			; <UNDEFINED> instruction: 0x06120111
      d8:	0b590b58 	bleq	1642e40 <__bss_end__+0x1637b40>
      dc:	13010b57 	movwne	r0, #6999	; 0x1b57
      e0:	05100000 	ldreq	r0, [r0, #-0]
      e4:	02133100 	andseq	r3, r3, #0
      e8:	1742b717 	smlaldne	fp, r2, r7, r7
      ec:	89110000 	ldmdbhi	r1, {}	; <UNPREDICTABLE>
      f0:	11010182 	smlabbne	r1, r2, r1, r0
      f4:	01133101 	tsteq	r3, r1, lsl #2
      f8:	12000013 	andne	r0, r0, #19, 0
      fc:	0001828a 	andeq	r8, r1, sl, lsl #5
     100:	42911802 	addsmi	r1, r1, #131072	; 0x20000
     104:	13000018 	movwne	r0, #24
     108:	00018289 	andeq	r8, r1, r9, lsl #5
     10c:	13310111 	teqne	r1, #1073741828	; 0x40000004
     110:	01140000 	tsteq	r4, r0
     114:	01134901 	tsteq	r3, r1, lsl #18
     118:	15000013 	strne	r0, [r0, #-19]	; 0xffffffed
     11c:	13490021 	movtne	r0, #36897	; 0x9021
     120:	00000b2f 	andeq	r0, r0, pc, lsr #22
     124:	03012e16 	movweq	r2, #7702	; 0x1e16
     128:	3b0b3a0e 	blcc	2ce968 <__bss_end__+0x2c3668>
     12c:	270b390b 	strcs	r3, [fp, -fp, lsl #18]
     130:	20134919 	andscs	r4, r3, r9, lsl r9
     134:	0013010b 	andseq	r0, r3, fp, lsl #2
     138:	00051700 	andeq	r1, r5, r0, lsl #14
     13c:	0b3a0e03 	bleq	e83950 <__bss_end__+0xe78650>
     140:	0b390b3b 	bleq	e42e34 <__bss_end__+0xe37b34>
     144:	00001349 	andeq	r1, r0, r9, asr #6
     148:	02003618 	andeq	r3, r0, #24, 12	; 0x1800000
     14c:	19000018 	stmdbne	r0, {r3, r4}
     150:	193f002e 	ldmdbne	pc!, {r1, r2, r3, r5}	; <UNPREDICTABLE>
     154:	0e6e193c 			; <UNDEFINED> instruction: 0x0e6e193c
     158:	0b3a0e03 	bleq	e8396c <__bss_end__+0xe7866c>
     15c:	0b390b3b 	bleq	e42e50 <__bss_end__+0xe37b50>
     160:	01000000 	mrseq	r0, (UNDEF: 0)
     164:	0e250111 	mcreq	1, 1, r0, cr5, cr1, {0}
     168:	0e030b13 	vmoveq.32	d3[0], r0
     16c:	01110e1b 	tsteq	r1, fp, lsl lr
     170:	17100612 			; <UNDEFINED> instruction: 0x17100612
     174:	24020000 	strcs	r0, [r2], #-0
     178:	3e0b0b00 	vmlacc.f64	d0, d11, d0
     17c:	0008030b 	andeq	r0, r8, fp, lsl #6
     180:	00240300 	eoreq	r0, r4, r0, lsl #6
     184:	0b3e0b0b 	bleq	f82db8 <__bss_end__+0xf77ab8>
     188:	00000e03 	andeq	r0, r0, r3, lsl #28
     18c:	03001604 	movweq	r1, #1540	; 0x604
     190:	3b0b3a0e 	blcc	2ce9d0 <__bss_end__+0x2c36d0>
     194:	490b390b 	stmdbmi	fp, {r0, r1, r3, r8, fp, ip, sp}
     198:	05000013 	streq	r0, [r0, #-19]	; 0xffffffed
     19c:	19270115 	stmdbne	r7!, {r0, r2, r4, r8}
     1a0:	13011349 	movwne	r1, #4937	; 0x1349
     1a4:	05060000 	streq	r0, [r6, #-0]
     1a8:	00134900 	andseq	r4, r3, r0, lsl #18
     1ac:	00340700 	eorseq	r0, r4, r0, lsl #14
     1b0:	0b3a0e03 	bleq	e839c4 <__bss_end__+0xe786c4>
     1b4:	0b390b3b 	bleq	e42ea8 <__bss_end__+0xe37ba8>
     1b8:	193f1349 	ldmdbne	pc!, {r0, r3, r6, r8, r9, ip}	; <UNPREDICTABLE>
     1bc:	0000193c 	andeq	r1, r0, ip, lsr r9
     1c0:	0b000f08 	bleq	3de8 <__code_start__-0x4218>
     1c4:	0013490b 	andseq	r4, r3, fp, lsl #18
     1c8:	00260900 	eoreq	r0, r6, r0, lsl #18
     1cc:	00001349 	andeq	r1, r0, r9, asr #6
     1d0:	0b01130a 	bleq	44e00 <__bss_end__+0x39b00>
     1d4:	3b0b3a0b 	blcc	2cea08 <__bss_end__+0x2c3708>
     1d8:	010b390b 	tsteq	fp, fp, lsl #18
     1dc:	0b000013 	bleq	230 <__code_start__-0x7dd0>
     1e0:	0e03000d 	cdpeq	0, 0, cr0, cr3, cr13, {0}
     1e4:	0b3b0b3a 	bleq	ec2ed4 <__bss_end__+0xeb7bd4>
     1e8:	13490b39 	movtne	r0, #39737	; 0x9b39
     1ec:	00000b38 	andeq	r0, r0, r8, lsr fp
     1f0:	3e01040c 	cdpcc	4, 0, cr0, cr1, cr12, {0}
     1f4:	490b0b0b 	stmdbmi	fp, {r0, r1, r3, r8, r9, fp}
     1f8:	3b0b3a13 	blcc	2cea4c <__bss_end__+0x2c374c>
     1fc:	010b390b 	tsteq	fp, fp, lsl #18
     200:	0d000013 	stceq	0, cr0, [r0, #-76]	; 0xffffffb4
     204:	0e030028 	cdpeq	0, 0, cr0, cr3, cr8, {1}
     208:	00000b1c 	andeq	r0, r0, ip, lsl fp
     20c:	0301130e 	movweq	r1, #4878	; 0x130e
     210:	3a0b0b0e 	bcc	2c2e50 <__bss_end__+0x2b7b50>
     214:	390b3b0b 	stmdbcc	fp, {r0, r1, r3, r8, r9, fp, ip, sp}
     218:	0013010b 	andseq	r0, r3, fp, lsl #2
     21c:	000d0f00 	andeq	r0, sp, r0, lsl #30
     220:	0b3a0803 	bleq	e82234 <__bss_end__+0xe76f34>
     224:	0b390b3b 	bleq	e42f18 <__bss_end__+0xe37c18>
     228:	0b381349 	bleq	e04f54 <__bss_end__+0xdf9c54>
     22c:	01100000 	tsteq	r0, r0
     230:	01134901 	tsteq	r3, r1, lsl #18
     234:	11000013 	tstne	r0, r3, lsl r0
     238:	13490021 	movtne	r0, #36897	; 0x9021
     23c:	00000b2f 	andeq	r0, r0, pc, lsr #22
     240:	0b000f12 	bleq	3e90 <__code_start__-0x4170>
     244:	1300000b 	movwne	r0, #11
     248:	0e030034 	mcreq	0, 0, r0, cr3, cr4, {1}
     24c:	0b3b0b3a 	bleq	ec2f3c <__bss_end__+0xeb7c3c>
     250:	13490b39 	movtne	r0, #39737	; 0x9b39
     254:	00001802 	andeq	r1, r0, r2, lsl #16
     258:	03003414 	movweq	r3, #1044	; 0x414
     25c:	3b0b3a0e 	blcc	2cea9c <__bss_end__+0x2c379c>
     260:	490b390b 	stmdbmi	fp, {r0, r1, r3, r8, fp, ip, sp}
     264:	15000013 	strne	r0, [r0, #-19]	; 0xffffffed
     268:	193f012e 	ldmdbne	pc!, {r1, r2, r3, r5, r8}	; <UNPREDICTABLE>
     26c:	0b3a0e03 	bleq	e83a80 <__bss_end__+0xe78780>
     270:	0b390b3b 	bleq	e42f64 <__bss_end__+0xe37c64>
     274:	13491927 	movtne	r1, #39207	; 0x9927
     278:	06120111 			; <UNDEFINED> instruction: 0x06120111
     27c:	42971840 	addsmi	r1, r7, #64, 16	; 0x400000
     280:	00130119 	andseq	r0, r3, r9, lsl r1
     284:	00051600 	andeq	r1, r5, r0, lsl #12
     288:	0b3a0e03 	bleq	e83a9c <__bss_end__+0xe7879c>
     28c:	0b390b3b 	bleq	e42f80 <__bss_end__+0xe37c80>
     290:	17021349 	strne	r1, [r2, -r9, asr #6]
     294:	001742b7 			; <UNDEFINED> instruction: 0x001742b7
     298:	00051700 	andeq	r1, r5, r0, lsl #14
     29c:	0b3a0803 	bleq	e822b0 <__bss_end__+0xe76fb0>
     2a0:	0b390b3b 	bleq	e42f94 <__bss_end__+0xe37c94>
     2a4:	18021349 	stmdane	r2, {r0, r3, r6, r8, r9, ip}
     2a8:	34180000 	ldrcc	r0, [r8], #-0
     2ac:	3a080300 	bcc	200eb4 <__bss_end__+0x1f5bb4>
     2b0:	390b3b0b 	stmdbcc	fp, {r0, r1, r3, r8, r9, fp, ip, sp}
     2b4:	0213490b 	andseq	r4, r3, #180224	; 0x2c000
     2b8:	1742b717 	smlaldne	fp, r2, r7, r7
     2bc:	34190000 	ldrcc	r0, [r9], #-0
     2c0:	3a0e0300 	bcc	380ec8 <__bss_end__+0x375bc8>
     2c4:	390b3b0b 	stmdbcc	fp, {r0, r1, r3, r8, r9, fp, ip, sp}
     2c8:	0213490b 	andseq	r4, r3, #180224	; 0x2c000
     2cc:	1742b717 	smlaldne	fp, r2, r7, r7
     2d0:	0b1a0000 	bleq	6802d8 <__bss_end__+0x674fd8>
     2d4:	12011101 	andne	r1, r1, #1073741824	; 0x40000000
     2d8:	00130106 	andseq	r0, r3, r6, lsl #2
     2dc:	010b1b00 	tsteq	fp, r0, lsl #22
     2e0:	06120111 			; <UNDEFINED> instruction: 0x06120111
     2e4:	891c0000 	ldmdbhi	ip, {}	; <UNPREDICTABLE>
     2e8:	11010182 	smlabbne	r1, r2, r1, r0
     2ec:	00133101 	andseq	r3, r3, r1, lsl #2
     2f0:	828a1d00 	addhi	r1, sl, #0, 26
     2f4:	18020001 	stmdane	r2, {r0}
     2f8:	00184291 	mulseq	r8, r1, r2
     2fc:	82891e00 	addhi	r1, r9, #0, 28
     300:	01110101 	tsteq	r1, r1, lsl #2
     304:	13011331 	movwne	r1, #4913	; 0x1331
     308:	2e1f0000 	cdpcs	0, 1, cr0, cr15, cr0, {0}
     30c:	03193f01 	tsteq	r9, #1, 30
     310:	3b0b3a0e 	blcc	2ceb50 <__bss_end__+0x2c3850>
     314:	270b390b 	strcs	r3, [fp, -fp, lsl #18]
     318:	12011119 	andne	r1, r1, #1073741830	; 0x40000006
     31c:	97184006 	ldrls	r4, [r8, -r6]
     320:	13011942 	movwne	r1, #6466	; 0x1942
     324:	34200000 	strtcc	r0, [r0], #-0
     328:	490e0300 	stmdbmi	lr, {r8, r9}
     32c:	02193413 	andseq	r3, r9, #318767104	; 0x13000000
     330:	21000018 	tstcs	r0, r8, lsl r0
     334:	1755010b 	ldrbne	r0, [r5, -fp, lsl #2]
     338:	00001301 	andeq	r1, r0, r1, lsl #6
     33c:	01828922 	orreq	r8, r2, r2, lsr #18
     340:	31011100 	mrscc	r1, (UNDEF: 17)
     344:	23000013 	movwcs	r0, #19
     348:	08030005 	stmdaeq	r3, {r0, r2}
     34c:	0b3b0b3a 	bleq	ec303c <__bss_end__+0xeb7d3c>
     350:	13490b39 	movtne	r0, #39737	; 0x9b39
     354:	42b71702 	adcsmi	r1, r7, #524288	; 0x80000
     358:	24000017 	strcs	r0, [r0], #-23	; 0xffffffe9
     35c:	1301010b 	movwne	r0, #4363	; 0x110b
     360:	34250000 	strtcc	r0, [r5], #-0
     364:	3a080300 	bcc	200f6c <__bss_end__+0x1f5c6c>
     368:	390b3b0b 	stmdbcc	fp, {r0, r1, r3, r8, r9, fp, ip, sp}
     36c:	0013490b 	andseq	r4, r3, fp, lsl #18
     370:	011d2600 	tsteq	sp, r0, lsl #12
     374:	01521331 	cmpeq	r2, r1, lsr r3
     378:	110b42b8 			; <UNDEFINED> instruction: 0x110b42b8
     37c:	58061201 	stmdapl	r6, {r0, r9, ip}
     380:	570b590b 	strpl	r5, [fp, -fp, lsl #18]
     384:	0013010b 	andseq	r0, r3, fp, lsl #2
     388:	00052700 	andeq	r2, r5, r0, lsl #14
     38c:	17021331 	smladxne	r2, r1, r3, r1
     390:	001742b7 			; <UNDEFINED> instruction: 0x001742b7
     394:	002e2800 	eoreq	r2, lr, r0, lsl #16
     398:	0e03193f 			; <UNDEFINED> instruction: 0x0e03193f
     39c:	0b3b0b3a 	bleq	ec308c <__bss_end__+0xeb7d8c>
     3a0:	19270b39 	stmdbne	r7!, {r0, r3, r4, r5, r8, r9, fp}
     3a4:	01111349 	tsteq	r1, r9, asr #6
     3a8:	18400612 	stmdane	r0, {r1, r4, r9, sl}^
     3ac:	00194297 	mulseq	r9, r7, r2
     3b0:	012e2900 			; <UNDEFINED> instruction: 0x012e2900
     3b4:	0b3a0e03 	bleq	e83bc8 <__bss_end__+0xe788c8>
     3b8:	0b390b3b 	bleq	e430ac <__bss_end__+0xe37dac>
     3bc:	13491927 	movtne	r1, #39207	; 0x9927
     3c0:	13010b20 	movwne	r0, #6944	; 0x1b20
     3c4:	052a0000 	streq	r0, [sl, #-0]!
     3c8:	3a080300 	bcc	200fd0 <__bss_end__+0x1f5cd0>
     3cc:	390b3b0b 	stmdbcc	fp, {r0, r1, r3, r8, r9, fp, ip, sp}
     3d0:	0013490b 	andseq	r4, r3, fp, lsl #18
     3d4:	002e2b00 	eoreq	r2, lr, r0, lsl #22
     3d8:	193c193f 	ldmdbne	ip!, {r0, r1, r2, r3, r4, r5, r8, fp, ip}
     3dc:	0e030e6e 	cdpeq	14, 0, cr0, cr3, cr14, {3}
     3e0:	0b3b0b3a 	bleq	ec30d0 <__bss_end__+0xeb7dd0>
     3e4:	00000b39 	andeq	r0, r0, r9, lsr fp
     3e8:	01110100 	tsteq	r1, r0, lsl #2
     3ec:	0b130e25 	bleq	4c3c88 <__bss_end__+0x4b8988>
     3f0:	0e1b0e03 	cdpeq	14, 1, cr0, cr11, cr3, {0}
     3f4:	06120111 			; <UNDEFINED> instruction: 0x06120111
     3f8:	00001710 	andeq	r1, r0, r0, lsl r7
     3fc:	0b002402 	bleq	940c <rpi_set_output+0x1c>
     400:	030b3e0b 	movweq	r3, #48651	; 0xbe0b
     404:	03000008 	movweq	r0, #8
     408:	0b0b0024 	bleq	2c04a0 <__bss_end__+0x2b51a0>
     40c:	0e030b3e 	vmoveq.16	d3[0], r0
     410:	15040000 	strne	r0, [r4, #-0]
     414:	49192701 	ldmdbmi	r9, {r0, r8, r9, sl, sp}
     418:	00130113 	andseq	r0, r3, r3, lsl r1
     41c:	00050500 	andeq	r0, r5, r0, lsl #10
     420:	00001349 	andeq	r1, r0, r9, asr #6
     424:	03003406 	movweq	r3, #1030	; 0x406
     428:	3b0b3a0e 	blcc	2cec68 <__bss_end__+0x2c3968>
     42c:	490b390b 	stmdbmi	fp, {r0, r1, r3, r8, fp, ip, sp}
     430:	3c193f13 	ldccc	15, cr3, [r9], {19}
     434:	07000019 	smladeq	r0, r9, r0, r0
     438:	0b0b000f 	bleq	2c047c <__bss_end__+0x2b517c>
     43c:	00001349 	andeq	r1, r0, r9, asr #6
     440:	49002608 	stmdbmi	r0, {r3, r9, sl, sp}
     444:	09000013 	stmdbeq	r0, {r0, r1, r4}
     448:	0e030117 	mcreq	1, 0, r0, cr3, cr7, {0}
     44c:	0b3a0b0b 	bleq	e83080 <__bss_end__+0xe77d80>
     450:	0b390b3b 	bleq	e43144 <__bss_end__+0xe37e44>
     454:	00001301 	andeq	r1, r0, r1, lsl #6
     458:	03000d0a 	movweq	r0, #3338	; 0xd0a
     45c:	3b0b3a08 	blcc	2cec84 <__bss_end__+0x2c3984>
     460:	490b390b 	stmdbmi	fp, {r0, r1, r3, r8, fp, ip, sp}
     464:	0b000013 	bleq	4b8 <__code_start__-0x7b48>
     468:	0b0b000f 	bleq	2c04ac <__bss_end__+0x2b51ac>
     46c:	150c0000 	strne	r0, [ip, #-0]
     470:	00192700 	andseq	r2, r9, r0, lsl #14
     474:	01130d00 	tsteq	r3, r0, lsl #26
     478:	0b3a0b0b 	bleq	e830ac <__bss_end__+0xe77dac>
     47c:	0b390b3b 	bleq	e43170 <__bss_end__+0xe37e70>
     480:	00001301 	andeq	r1, r0, r1, lsl #6
     484:	03000d0e 	movweq	r0, #3342	; 0xd0e
     488:	3b0b3a08 	blcc	2cecb0 <__bss_end__+0x2c39b0>
     48c:	490b390b 	stmdbmi	fp, {r0, r1, r3, r8, fp, ip, sp}
     490:	000b3813 	andeq	r3, fp, r3, lsl r8
     494:	000d0f00 	andeq	r0, sp, r0, lsl #30
     498:	0b3a0e03 	bleq	e83cac <__bss_end__+0xe789ac>
     49c:	0b390b3b 	bleq	e43190 <__bss_end__+0xe37e90>
     4a0:	0b381349 	bleq	e051cc <__bss_end__+0xdf9ecc>
     4a4:	16100000 	ldrne	r0, [r0], -r0
     4a8:	3a0e0300 	bcc	3810b0 <__bss_end__+0x375db0>
     4ac:	390b3b0b 	stmdbcc	fp, {r0, r1, r3, r8, r9, fp, ip, sp}
     4b0:	0013490b 	andseq	r4, r3, fp, lsl #18
     4b4:	00341100 	eorseq	r1, r4, r0, lsl #2
     4b8:	0b3a0e03 	bleq	e83ccc <__bss_end__+0xe789cc>
     4bc:	0b390b3b 	bleq	e431b0 <__bss_end__+0xe37eb0>
     4c0:	18021349 	stmdane	r2, {r0, r3, r6, r8, r9, ip}
     4c4:	2e120000 	cdpcs	0, 1, cr0, cr2, cr0, {0}
     4c8:	03193f01 	tsteq	r9, #1, 30
     4cc:	3b0b3a0e 	blcc	2ced0c <__bss_end__+0x2c3a0c>
     4d0:	270b390b 	strcs	r3, [fp, -fp, lsl #18]
     4d4:	12011119 	andne	r1, r1, #1073741830	; 0x40000006
     4d8:	97184006 	ldrls	r4, [r8, -r6]
     4dc:	13011942 	movwne	r1, #6466	; 0x1942
     4e0:	05130000 	ldreq	r0, [r3, #-0]
     4e4:	3a080300 	bcc	2010ec <__bss_end__+0x1f5dec>
     4e8:	390b3b0b 	stmdbcc	fp, {r0, r1, r3, r8, r9, fp, ip, sp}
     4ec:	0213490b 	andseq	r4, r3, #180224	; 0x2c000
     4f0:	14000018 	strne	r0, [r0], #-24	; 0xffffffe8
     4f4:	08030034 	stmdaeq	r3, {r2, r4, r5}
     4f8:	0b3b0b3a 	bleq	ec31e8 <__bss_end__+0xeb7ee8>
     4fc:	13490b39 	movtne	r0, #39737	; 0x9b39
     500:	42b71702 	adcsmi	r1, r7, #524288	; 0x80000
     504:	15000017 	strne	r0, [r0, #-23]	; 0xffffffe9
     508:	193f012e 	ldmdbne	pc!, {r1, r2, r3, r5, r8}	; <UNPREDICTABLE>
     50c:	0b3a0e03 	bleq	e83d20 <__bss_end__+0xe78a20>
     510:	0b390b3b 	bleq	e43204 <__bss_end__+0xe37f04>
     514:	13491927 	movtne	r1, #39207	; 0x9927
     518:	06120111 			; <UNDEFINED> instruction: 0x06120111
     51c:	42971840 	addsmi	r1, r7, #64, 16	; 0x400000
     520:	00130119 	andseq	r0, r3, r9, lsl r1
     524:	00051600 	andeq	r1, r5, r0, lsl #12
     528:	0b3a0e03 	bleq	e83d3c <__bss_end__+0xe78a3c>
     52c:	0b390b3b 	bleq	e43220 <__bss_end__+0xe37f20>
     530:	17021349 	strne	r1, [r2, -r9, asr #6]
     534:	001742b7 			; <UNDEFINED> instruction: 0x001742b7
     538:	00341700 	eorseq	r1, r4, r0, lsl #14
     53c:	0b3a0e03 	bleq	e83d50 <__bss_end__+0xe78a50>
     540:	0b390b3b 	bleq	e43234 <__bss_end__+0xe37f34>
     544:	17021349 	strne	r1, [r2, -r9, asr #6]
     548:	001742b7 			; <UNDEFINED> instruction: 0x001742b7
     54c:	82891800 	addhi	r1, r9, #0, 16
     550:	01110101 	tsteq	r1, r1, lsl #2
     554:	00001331 	andeq	r1, r0, r1, lsr r3
     558:	01828a19 	orreq	r8, r2, r9, lsl sl
     55c:	91180200 	tstls	r8, r0, lsl #4
     560:	00001842 	andeq	r1, r0, r2, asr #16
     564:	03012e1a 	movweq	r2, #7706	; 0x1e1a
     568:	3b0b3a0e 	blcc	2ceda8 <__bss_end__+0x2c3aa8>
     56c:	270b390b 	strcs	r3, [fp, -fp, lsl #18]
     570:	11134919 	tstne	r3, r9, lsl r9
     574:	40061201 	andmi	r1, r6, r1, lsl #4
     578:	19429718 	stmdbne	r2, {r3, r4, r8, r9, sl, ip, pc}^
     57c:	00001301 	andeq	r1, r0, r1, lsl #6
     580:	0300051b 	movweq	r0, #1307	; 0x51b
     584:	3b0b3a08 	blcc	2cedac <__bss_end__+0x2c3aac>
     588:	490b390b 	stmdbmi	fp, {r0, r1, r3, r8, fp, ip, sp}
     58c:	b7170213 			; <UNDEFINED> instruction: 0xb7170213
     590:	00001742 	andeq	r1, r0, r2, asr #14
     594:	0182891c 	orreq	r8, r2, ip, lsl r9
     598:	31011101 	tstcc	r1, r1, lsl #2
     59c:	00130113 	andseq	r0, r3, r3, lsl r1
     5a0:	82891d00 	addhi	r1, r9, #0, 26
     5a4:	01110001 	tsteq	r1, r1
     5a8:	00001331 	andeq	r1, r0, r1, lsr r3
     5ac:	3f002e1e 	svccc	0x00002e1e
     5b0:	6e193c19 	mrcvs	12, 0, r3, cr9, cr9, {0}
     5b4:	3a0e030e 	bcc	3811f4 <__bss_end__+0x375ef4>
     5b8:	390b3b0b 	stmdbcc	fp, {r0, r1, r3, r8, r9, fp, ip, sp}
     5bc:	0000000b 	andeq	r0, r0, fp
     5c0:	25011101 	strcs	r1, [r1, #-257]	; 0xfffffeff
     5c4:	030b130e 	movweq	r1, #45838	; 0xb30e
     5c8:	110e1b0e 	tstne	lr, lr, lsl #22
     5cc:	10061201 	andne	r1, r6, r1, lsl #4
     5d0:	02000017 	andeq	r0, r0, #23, 0
     5d4:	0b0b0024 	bleq	2c066c <__bss_end__+0x2b536c>
     5d8:	08030b3e 	stmdaeq	r3, {r1, r2, r3, r4, r5, r8, r9, fp}
     5dc:	24030000 	strcs	r0, [r3], #-0
     5e0:	3e0b0b00 	vmlacc.f64	d0, d11, d0
     5e4:	000e030b 	andeq	r0, lr, fp, lsl #6
     5e8:	00160400 	andseq	r0, r6, r0, lsl #8
     5ec:	0b3a0e03 	bleq	e83e00 <__bss_end__+0xe78b00>
     5f0:	0b390b3b 	bleq	e432e4 <__bss_end__+0xe37fe4>
     5f4:	00001349 	andeq	r1, r0, r9, asr #6
     5f8:	27011505 	strcs	r1, [r1, -r5, lsl #10]
     5fc:	01134919 	tsteq	r3, r9, lsl r9
     600:	06000013 			; <UNDEFINED> instruction: 0x06000013
     604:	13490005 	movtne	r0, #36869	; 0x9005
     608:	34070000 	strcc	r0, [r7], #-0
     60c:	3a0e0300 	bcc	381214 <__bss_end__+0x375f14>
     610:	390b3b0b 	stmdbcc	fp, {r0, r1, r3, r8, r9, fp, ip, sp}
     614:	3f13490b 	svccc	0x0013490b
     618:	00193c19 	andseq	r3, r9, r9, lsl ip
     61c:	000f0800 	andeq	r0, pc, r0, lsl #16
     620:	13490b0b 	movtne	r0, #39691	; 0x9b0b
     624:	26090000 	strcs	r0, [r9], -r0
     628:	00134900 	andseq	r4, r3, r0, lsl #18
     62c:	01130a00 	tsteq	r3, r0, lsl #20
     630:	0b3a0b0b 	bleq	e83264 <__bss_end__+0xe77f64>
     634:	0b390b3b 	bleq	e43328 <__bss_end__+0xe38028>
     638:	00001301 	andeq	r1, r0, r1, lsl #6
     63c:	03000d0b 	movweq	r0, #3339	; 0xd0b
     640:	3b0b3a0e 	blcc	2cee80 <__bss_end__+0x2c3b80>
     644:	490b390b 	stmdbmi	fp, {r0, r1, r3, r8, fp, ip, sp}
     648:	000b3813 	andeq	r3, fp, r3, lsl r8
     64c:	01040c00 	tsteq	r4, r0, lsl #24
     650:	0b0b0b3e 	bleq	2c3350 <__bss_end__+0x2b8050>
     654:	0b3a1349 	bleq	e85380 <__bss_end__+0xe7a080>
     658:	0b390b3b 	bleq	e4334c <__bss_end__+0xe3804c>
     65c:	00001301 	andeq	r1, r0, r1, lsl #6
     660:	0300280d 	movweq	r2, #2061	; 0x80d
     664:	000b1c0e 	andeq	r1, fp, lr, lsl #24
     668:	01130e00 	tsteq	r3, r0, lsl #28
     66c:	0b0b0e03 	bleq	2c3e80 <__bss_end__+0x2b8b80>
     670:	0b3b0b3a 	bleq	ec3360 <__bss_end__+0xeb8060>
     674:	13010b39 	movwne	r0, #6969	; 0x1b39
     678:	0d0f0000 	stceq	0, cr0, [pc, #-0]	; 680 <__code_start__-0x7980>
     67c:	3a080300 	bcc	201284 <__bss_end__+0x1f5f84>
     680:	390b3b0b 	stmdbcc	fp, {r0, r1, r3, r8, r9, fp, ip, sp}
     684:	3813490b 	ldmdacc	r3, {r0, r1, r3, r8, fp, lr}
     688:	1000000b 	andne	r0, r0, fp
     68c:	13490101 	movtne	r0, #37121	; 0x9101
     690:	00001301 	andeq	r1, r0, r1, lsl #6
     694:	49002111 	stmdbmi	r0, {r0, r4, r8, sp}
     698:	000b2f13 	andeq	r2, fp, r3, lsl pc
     69c:	000f1200 	andeq	r1, pc, r0, lsl #4
     6a0:	00000b0b 	andeq	r0, r0, fp, lsl #22
     6a4:	03003413 	movweq	r3, #1043	; 0x413
     6a8:	3b0b3a0e 	blcc	2ceee8 <__bss_end__+0x2c3be8>
     6ac:	490b390b 	stmdbmi	fp, {r0, r1, r3, r8, fp, ip, sp}
     6b0:	00180213 	andseq	r0, r8, r3, lsl r2
     6b4:	012e1400 			; <UNDEFINED> instruction: 0x012e1400
     6b8:	0e03193f 			; <UNDEFINED> instruction: 0x0e03193f
     6bc:	053b0b3a 	ldreq	r0, [fp, #-2874]!	; 0xfffff4c6
     6c0:	19270b39 	stmdbne	r7!, {r0, r3, r4, r5, r8, r9, fp}
     6c4:	06120111 			; <UNDEFINED> instruction: 0x06120111
     6c8:	42971840 	addsmi	r1, r7, #64, 16	; 0x400000
     6cc:	00130119 	andseq	r0, r3, r9, lsl r1
     6d0:	00341500 	eorseq	r1, r4, r0, lsl #10
     6d4:	13490e03 	movtne	r0, #40451	; 0x9e03
     6d8:	18021934 	stmdane	r2, {r2, r4, r5, r8, fp, ip}
     6dc:	89160000 	ldmdbhi	r6, {}	; <UNPREDICTABLE>
     6e0:	11010182 	smlabbne	r1, r2, r1, r0
     6e4:	01133101 	tsteq	r3, r1, lsl #2
     6e8:	17000013 	smladne	r0, r3, r0, r0
     6ec:	0001828a 	andeq	r8, r1, sl, lsl #5
     6f0:	42911802 	addsmi	r1, r1, #131072	; 0x20000
     6f4:	18000018 	stmdane	r0, {r3, r4}
     6f8:	00018289 	andeq	r8, r1, r9, lsl #5
     6fc:	13310111 	teqne	r1, #1073741828	; 0x40000004
     700:	2e190000 	cdpcs	0, 1, cr0, cr9, cr0, {0}
     704:	03193f01 	tsteq	r9, #1, 30
     708:	3b0b3a0e 	blcc	2cef48 <__bss_end__+0x2c3c48>
     70c:	270b3905 	strcs	r3, [fp, -r5, lsl #18]
     710:	11134919 	tstne	r3, r9, lsl r9
     714:	40061201 	andmi	r1, r6, r1, lsl #4
     718:	19429718 	stmdbne	r2, {r3, r4, r8, r9, sl, ip, pc}^
     71c:	00001301 	andeq	r1, r0, r1, lsl #6
     720:	0300341a 	movweq	r3, #1050	; 0x41a
     724:	3b0b3a0e 	blcc	2cef64 <__bss_end__+0x2c3c64>
     728:	490b3905 	stmdbmi	fp, {r0, r2, r8, fp, ip, sp}
     72c:	b7170213 			; <UNDEFINED> instruction: 0xb7170213
     730:	00001742 	andeq	r1, r0, r2, asr #14
     734:	03012e1b 	movweq	r2, #7707	; 0x1e1b
     738:	3b0b3a0e 	blcc	2cef78 <__bss_end__+0x2c3c78>
     73c:	270b3905 	strcs	r3, [fp, -r5, lsl #18]
     740:	11134919 	tstne	r3, r9, lsl r9
     744:	40061201 	andmi	r1, r6, r1, lsl #4
     748:	19429718 	stmdbne	r2, {r3, r4, r8, r9, sl, ip, pc}^
     74c:	00001301 	andeq	r1, r0, r1, lsl #6
     750:	55010b1c 	strpl	r0, [r1, #-2844]	; 0xfffff4e4
     754:	00130117 	andseq	r0, r3, r7, lsl r1
     758:	00341d00 	eorseq	r1, r4, r0, lsl #26
     75c:	0b3a0803 	bleq	e82770 <__bss_end__+0xe77470>
     760:	0b39053b 	bleq	e41c54 <__bss_end__+0xe36954>
     764:	17021349 	strne	r1, [r2, -r9, asr #6]
     768:	001742b7 			; <UNDEFINED> instruction: 0x001742b7
     76c:	011d1e00 	tsteq	sp, r0, lsl #28
     770:	01521331 	cmpeq	r2, r1, lsr r3
     774:	110b42b8 			; <UNDEFINED> instruction: 0x110b42b8
     778:	58061201 	stmdapl	r6, {r0, r9, ip}
     77c:	5705590b 	strpl	r5, [r5, -fp, lsl #18]
     780:	0013010b 	andseq	r0, r3, fp, lsl #2
     784:	00051f00 	andeq	r1, r5, r0, lsl #30
     788:	17021331 	smladxne	r2, r1, r3, r1
     78c:	001742b7 			; <UNDEFINED> instruction: 0x001742b7
     790:	82892000 	addhi	r2, r9, #0, 0
     794:	01110101 	tsteq	r1, r1, lsl #2
     798:	00001331 	andeq	r1, r0, r1, lsr r3
     79c:	3f012e21 	svccc	0x00012e21
     7a0:	3a0e0319 	bcc	38140c <__bss_end__+0x37610c>
     7a4:	390b3b0b 	stmdbcc	fp, {r0, r1, r3, r8, r9, fp, ip, sp}
     7a8:	1119270b 	tstne	r9, fp, lsl #14
     7ac:	40061201 	andmi	r1, r6, r1, lsl #4
     7b0:	19429718 	stmdbne	r2, {r3, r4, r8, r9, sl, ip, pc}^
     7b4:	00001301 	andeq	r1, r0, r1, lsl #6
     7b8:	3f012e22 	svccc	0x00012e22
     7bc:	3a0e0319 	bcc	381428 <__bss_end__+0x376128>
     7c0:	390b3b0b 	stmdbcc	fp, {r0, r1, r3, r8, r9, fp, ip, sp}
     7c4:	4919270b 	ldmdbmi	r9, {r0, r1, r3, r8, r9, sl, sp}
     7c8:	12011113 	andne	r1, r1, #-1073741820	; 0xc0000004
     7cc:	97184006 	ldrls	r4, [r8, -r6]
     7d0:	13011942 	movwne	r1, #6466	; 0x1942
     7d4:	05230000 	streq	r0, [r3, #-0]!
     7d8:	3a0e0300 	bcc	3813e0 <__bss_end__+0x3760e0>
     7dc:	390b3b0b 	stmdbcc	fp, {r0, r1, r3, r8, r9, fp, ip, sp}
     7e0:	0213490b 	andseq	r4, r3, #180224	; 0x2c000
     7e4:	1742b717 	smlaldne	fp, r2, r7, r7
     7e8:	2e240000 	cdpcs	0, 2, cr0, cr4, cr0, {0}
     7ec:	3a0e0301 	bcc	3813f8 <__bss_end__+0x3760f8>
     7f0:	390b3b0b 	stmdbcc	fp, {r0, r1, r3, r8, r9, fp, ip, sp}
     7f4:	4919270b 	ldmdbmi	r9, {r0, r1, r3, r8, r9, sl, sp}
     7f8:	12011113 	andne	r1, r1, #-1073741820	; 0xc0000004
     7fc:	97184006 	ldrls	r4, [r8, -r6]
     800:	13011942 	movwne	r1, #6466	; 0x1942
     804:	34250000 	strtcc	r0, [r5], #-0
     808:	3a0e0300 	bcc	381410 <__bss_end__+0x376110>
     80c:	390b3b0b 	stmdbcc	fp, {r0, r1, r3, r8, r9, fp, ip, sp}
     810:	0213490b 	andseq	r4, r3, #180224	; 0x2c000
     814:	1742b717 	smlaldne	fp, r2, r7, r7
     818:	34260000 	strtcc	r0, [r6], #-0
     81c:	3a080300 	bcc	201424 <__bss_end__+0x1f6124>
     820:	390b3b0b 	stmdbcc	fp, {r0, r1, r3, r8, r9, fp, ip, sp}
     824:	0213490b 	andseq	r4, r3, #180224	; 0x2c000
     828:	1742b717 	smlaldne	fp, r2, r7, r7
     82c:	0b270000 	bleq	9c0834 <__bss_end__+0x9b5534>
     830:	00175501 	andseq	r5, r7, r1, lsl #10
     834:	00052800 	andeq	r2, r5, r0, lsl #16
     838:	0b3a0e03 	bleq	e8404c <__bss_end__+0xe78d4c>
     83c:	0b390b3b 	bleq	e43530 <__bss_end__+0xe38230>
     840:	18021349 	stmdane	r2, {r0, r3, r6, r8, r9, ip}
     844:	2e290000 	cdpcs	0, 2, cr0, cr9, cr0, {0}
     848:	3a0e0301 	bcc	381454 <__bss_end__+0x376154>
     84c:	390b3b0b 	stmdbcc	fp, {r0, r1, r3, r8, r9, fp, ip, sp}
     850:	1119270b 	tstne	r9, fp, lsl #14
     854:	40061201 	andmi	r1, r6, r1, lsl #4
     858:	19429718 	stmdbne	r2, {r3, r4, r8, r9, sl, ip, pc}^
     85c:	00001301 	andeq	r1, r0, r1, lsl #6
     860:	0300342a 	movweq	r3, #1066	; 0x42a
     864:	3b0b3a0e 	blcc	2cf0a4 <__bss_end__+0x2c3da4>
     868:	490b390b 	stmdbmi	fp, {r0, r1, r3, r8, fp, ip, sp}
     86c:	00061c13 	andeq	r1, r6, r3, lsl ip
     870:	010b2b00 	tsteq	fp, r0, lsl #22
     874:	06120111 			; <UNDEFINED> instruction: 0x06120111
     878:	00001301 	andeq	r1, r0, r1, lsl #6
     87c:	0300052c 	movweq	r0, #1324	; 0x52c
     880:	3b0b3a08 	blcc	2cf0a8 <__bss_end__+0x2c3da8>
     884:	490b390b 	stmdbmi	fp, {r0, r1, r3, r8, fp, ip, sp}
     888:	b7170213 			; <UNDEFINED> instruction: 0xb7170213
     88c:	00001742 	andeq	r1, r0, r2, asr #14
     890:	31011d2d 	tstcc	r1, sp, lsr #26
     894:	b8015213 	stmdalt	r1, {r0, r1, r4, r9, ip, lr}
     898:	17550b42 	ldrbne	r0, [r5, -r2, asr #22]
     89c:	0b590b58 	bleq	1643604 <__bss_end__+0x1638304>
     8a0:	00000b57 	andeq	r0, r0, r7, asr fp
     8a4:	3100052e 	tstcc	r0, lr, lsr #10
     8a8:	2f000013 	svccs	0x00000013
     8ac:	13310034 	teqne	r1, #52, 0	; 0x34
     8b0:	42b71702 	adcsmi	r1, r7, #524288	; 0x80000
     8b4:	30000017 	andcc	r0, r0, r7, lsl r0
     8b8:	0e03012e 	adfeqsp	f0, f3, #0.5
     8bc:	0b3b0b3a 	bleq	ec35ac <__bss_end__+0xeb82ac>
     8c0:	19270b39 	stmdbne	r7!, {r0, r3, r4, r5, r8, r9, fp}
     8c4:	0b201349 	bleq	8055f0 <__bss_end__+0x7fa2f0>
     8c8:	00001301 	andeq	r1, r0, r1, lsl #6
     8cc:	03000531 	movweq	r0, #1329	; 0x531
     8d0:	3b0b3a0e 	blcc	2cf110 <__bss_end__+0x2c3e10>
     8d4:	490b390b 	stmdbmi	fp, {r0, r1, r3, r8, fp, ip, sp}
     8d8:	32000013 	andcc	r0, r0, #19, 0
     8dc:	08030034 	stmdaeq	r3, {r2, r4, r5}
     8e0:	0b3b0b3a 	bleq	ec35d0 <__bss_end__+0xeb82d0>
     8e4:	13490b39 	movtne	r0, #39737	; 0x9b39
     8e8:	2e330000 	cdpcs	0, 3, cr0, cr3, cr0, {0}
     8ec:	3c193f00 	ldccc	15, cr3, [r9], {-0}
     8f0:	030e6e19 	movweq	r6, #60953	; 0xee19
     8f4:	3b0b3a0e 	blcc	2cf134 <__bss_end__+0x2c3e34>
     8f8:	000b390b 	andeq	r3, fp, fp, lsl #18
     8fc:	00363400 	eorseq	r3, r6, r0, lsl #8
     900:	00001802 	andeq	r1, r0, r2, lsl #16
     904:	01110100 	tsteq	r1, r0, lsl #2
     908:	0b130e25 	bleq	4c41a4 <__bss_end__+0x4b8ea4>
     90c:	0e1b0e03 	cdpeq	14, 1, cr0, cr11, cr3, {0}
     910:	06120111 			; <UNDEFINED> instruction: 0x06120111
     914:	00001710 	andeq	r1, r0, r0, lsl r7
     918:	0b002402 	bleq	9928 <va_printk+0x4d8>
     91c:	030b3e0b 	movweq	r3, #48651	; 0xbe0b
     920:	03000008 	movweq	r0, #8
     924:	0b0b0024 	bleq	2c09bc <__bss_end__+0x2b56bc>
     928:	0e030b3e 	vmoveq.16	d3[0], r0
     92c:	15040000 	strne	r0, [r4, #-0]
     930:	49192701 	ldmdbmi	r9, {r0, r8, r9, sl, sp}
     934:	00130113 	andseq	r0, r3, r3, lsl r1
     938:	00050500 	andeq	r0, r5, r0, lsl #10
     93c:	00001349 	andeq	r1, r0, r9, asr #6
     940:	03003406 	movweq	r3, #1030	; 0x406
     944:	3b0b3a0e 	blcc	2cf184 <__bss_end__+0x2c3e84>
     948:	490b390b 	stmdbmi	fp, {r0, r1, r3, r8, fp, ip, sp}
     94c:	3c193f13 	ldccc	15, cr3, [r9], {19}
     950:	07000019 	smladeq	r0, r9, r0, r0
     954:	0b0b000f 	bleq	2c0998 <__bss_end__+0x2b5698>
     958:	00001349 	andeq	r1, r0, r9, asr #6
     95c:	49002608 	stmdbmi	r0, {r3, r9, sl, sp}
     960:	09000013 	stmdbeq	r0, {r0, r1, r4}
     964:	193f012e 	ldmdbne	pc!, {r1, r2, r3, r5, r8}	; <UNPREDICTABLE>
     968:	0b3a0e03 	bleq	e8417c <__bss_end__+0xe78e7c>
     96c:	0b390b3b 	bleq	e43660 <__bss_end__+0xe38360>
     970:	13491927 	movtne	r1, #39207	; 0x9927
     974:	13010b20 	movwne	r0, #6944	; 0x1b20
     978:	050a0000 	streq	r0, [sl, #-0]
     97c:	3a0e0300 	bcc	381584 <__bss_end__+0x376284>
     980:	390b3b0b 	stmdbcc	fp, {r0, r1, r3, r8, r9, fp, ip, sp}
     984:	0013490b 	andseq	r4, r3, fp, lsl #18
     988:	00340b00 	eorseq	r0, r4, r0, lsl #22
     98c:	0b3a0e03 	bleq	e841a0 <__bss_end__+0xe78ea0>
     990:	0b390b3b 	bleq	e43684 <__bss_end__+0xe38384>
     994:	00001349 	andeq	r1, r0, r9, asr #6
     998:	00010b0c 	andeq	r0, r1, ip, lsl #22
     99c:	012e0d00 			; <UNDEFINED> instruction: 0x012e0d00
     9a0:	0e03193f 			; <UNDEFINED> instruction: 0x0e03193f
     9a4:	0b3b0b3a 	bleq	ec3694 <__bss_end__+0xeb8394>
     9a8:	13490b39 	movtne	r0, #39737	; 0x9b39
     9ac:	06120111 			; <UNDEFINED> instruction: 0x06120111
     9b0:	42971840 	addsmi	r1, r7, #64, 16	; 0x400000
     9b4:	00130119 	andseq	r0, r3, r9, lsl r1
     9b8:	00340e00 	eorseq	r0, r4, r0, lsl #28
     9bc:	0b3a0e03 	bleq	e841d0 <__bss_end__+0xe78ed0>
     9c0:	0b390b3b 	bleq	e436b4 <__bss_end__+0xe383b4>
     9c4:	17021349 	strne	r1, [r2, -r9, asr #6]
     9c8:	001742b7 			; <UNDEFINED> instruction: 0x001742b7
     9cc:	010b0f00 	tsteq	fp, r0, lsl #30
     9d0:	06120111 			; <UNDEFINED> instruction: 0x06120111
     9d4:	34100000 	ldrcc	r0, [r0], #-0
     9d8:	3a080300 	bcc	2015e0 <__bss_end__+0x1f62e0>
     9dc:	390b3b0b 	stmdbcc	fp, {r0, r1, r3, r8, r9, fp, ip, sp}
     9e0:	0213490b 	andseq	r4, r3, #180224	; 0x2c000
     9e4:	1742b717 	smlaldne	fp, r2, r7, r7
     9e8:	0b110000 	bleq	4409f0 <__bss_end__+0x4356f0>
     9ec:	00175501 	andseq	r5, r7, r1, lsl #10
     9f0:	011d1200 	tsteq	sp, r0, lsl #4
     9f4:	01521331 	cmpeq	r2, r1, lsr r3
     9f8:	550b42b8 	strpl	r4, [fp, #-696]	; 0xfffffd48
     9fc:	590b5817 	stmdbpl	fp, {r0, r1, r2, r4, fp, ip, lr}
     a00:	010b570b 	tsteq	fp, fp, lsl #14
     a04:	13000013 	movwne	r0, #19
     a08:	13310005 	teqne	r1, #5, 0
     a0c:	42b71702 	adcsmi	r1, r7, #524288	; 0x80000
     a10:	14000017 	strne	r0, [r0], #-23	; 0xffffffe9
     a14:	13310034 	teqne	r1, #52, 0	; 0x34
     a18:	42b71702 	adcsmi	r1, r7, #524288	; 0x80000
     a1c:	15000017 	strne	r0, [r0, #-23]	; 0xffffffe9
     a20:	1331010b 	teqne	r1, #-1073741822	; 0xc0000002
     a24:	00001755 	andeq	r1, r0, r5, asr r7
     a28:	01828916 	orreq	r8, r2, r6, lsl r9
     a2c:	31011101 	tstcc	r1, r1, lsl #2
     a30:	17000013 	smladne	r0, r3, r0, r0
     a34:	0001828a 	andeq	r8, r1, sl, lsl #5
     a38:	42911802 	addsmi	r1, r1, #131072	; 0x20000
     a3c:	18000018 	stmdane	r0, {r3, r4}
     a40:	1331012e 	teqne	r1, #-2147483637	; 0x8000000b
     a44:	06120111 			; <UNDEFINED> instruction: 0x06120111
     a48:	42971840 	addsmi	r1, r7, #64, 16	; 0x400000
     a4c:	00130119 	andseq	r0, r3, r9, lsl r1
     a50:	010b1900 	tsteq	fp, r0, lsl #18
     a54:	01111331 	tsteq	r1, r1, lsr r3
     a58:	00000612 	andeq	r0, r0, r2, lsl r6
     a5c:	3f002e1a 	svccc	0x00002e1a
     a60:	6e193c19 	mrcvs	12, 0, r3, cr9, cr9, {0}
     a64:	3a0e030e 	bcc	3816a4 <__bss_end__+0x3763a4>
     a68:	390b3b0b 	stmdbcc	fp, {r0, r1, r3, r8, r9, fp, ip, sp}
     a6c:	0000000b 	andeq	r0, r0, fp
     a70:	25011101 	strcs	r1, [r1, #-257]	; 0xfffffeff
     a74:	030b130e 	movweq	r1, #45838	; 0xb30e
     a78:	110e1b0e 	tstne	lr, lr, lsl #22
     a7c:	10061201 	andne	r1, r6, r1, lsl #4
     a80:	02000017 	andeq	r0, r0, #23, 0
     a84:	0b0b0024 	bleq	2c0b1c <__bss_end__+0x2b581c>
     a88:	08030b3e 	stmdaeq	r3, {r1, r2, r3, r4, r5, r8, r9, fp}
     a8c:	16030000 	strne	r0, [r3], -r0
     a90:	3a0e0300 	bcc	381698 <__bss_end__+0x376398>
     a94:	390b3b0b 	stmdbcc	fp, {r0, r1, r3, r8, r9, fp, ip, sp}
     a98:	0013490b 	andseq	r4, r3, fp, lsl #18
     a9c:	00240400 	eoreq	r0, r4, r0, lsl #8
     aa0:	0b3e0b0b 	bleq	f836d4 <__bss_end__+0xf783d4>
     aa4:	00000e03 	andeq	r0, r0, r3, lsl #28
     aa8:	27011505 	strcs	r1, [r1, -r5, lsl #10]
     aac:	01134919 	tsteq	r3, r9, lsl r9
     ab0:	06000013 			; <UNDEFINED> instruction: 0x06000013
     ab4:	13490005 	movtne	r0, #36869	; 0x9005
     ab8:	34070000 	strcc	r0, [r7], #-0
     abc:	3a0e0300 	bcc	3816c4 <__bss_end__+0x3763c4>
     ac0:	390b3b0b 	stmdbcc	fp, {r0, r1, r3, r8, r9, fp, ip, sp}
     ac4:	3f13490b 	svccc	0x0013490b
     ac8:	00193c19 	andseq	r3, r9, r9, lsl ip
     acc:	000f0800 	andeq	r0, pc, r0, lsl #16
     ad0:	13490b0b 	movtne	r0, #39691	; 0x9b0b
     ad4:	26090000 	strcs	r0, [r9], -r0
     ad8:	00134900 	andseq	r4, r3, r0, lsl #18
     adc:	012e0a00 			; <UNDEFINED> instruction: 0x012e0a00
     ae0:	0e03193f 			; <UNDEFINED> instruction: 0x0e03193f
     ae4:	0b3b0b3a 	bleq	ec37d4 <__bss_end__+0xeb84d4>
     ae8:	19270b39 	stmdbne	r7!, {r0, r3, r4, r5, r8, r9, fp}
     aec:	01111349 	tsteq	r1, r9, asr #6
     af0:	18400612 	stmdane	r0, {r1, r4, r9, sl}^
     af4:	01194297 			; <UNDEFINED> instruction: 0x01194297
     af8:	0b000013 	bleq	b4c <__code_start__-0x74b4>
     afc:	08030005 	stmdaeq	r3, {r0, r2}
     b00:	0b3b0b3a 	bleq	ec37f0 <__bss_end__+0xeb84f0>
     b04:	13490b39 	movtne	r0, #39737	; 0x9b39
     b08:	00001802 	andeq	r1, r0, r2, lsl #16
     b0c:	0300050c 	movweq	r0, #1292	; 0x50c
     b10:	3b0b3a08 	blcc	2cf338 <__bss_end__+0x2c4038>
     b14:	490b390b 	stmdbmi	fp, {r0, r1, r3, r8, fp, ip, sp}
     b18:	b7170213 			; <UNDEFINED> instruction: 0xb7170213
     b1c:	00001742 	andeq	r1, r0, r2, asr #14
     b20:	0300340d 	movweq	r3, #1037	; 0x40d
     b24:	3b0b3a08 	blcc	2cf34c <__bss_end__+0x2c404c>
     b28:	490b390b 	stmdbmi	fp, {r0, r1, r3, r8, fp, ip, sp}
     b2c:	b7170213 			; <UNDEFINED> instruction: 0xb7170213
     b30:	00001742 	andeq	r1, r0, r2, asr #14
     b34:	0b000f0e 	bleq	4774 <__code_start__-0x388c>
     b38:	0000000b 	andeq	r0, r0, fp
     b3c:	25011101 	strcs	r1, [r1, #-257]	; 0xfffffeff
     b40:	030b130e 	movweq	r1, #45838	; 0xb30e
     b44:	110e1b0e 	tstne	lr, lr, lsl #22
     b48:	10061201 	andne	r1, r6, r1, lsl #4
     b4c:	02000017 	andeq	r0, r0, #23, 0
     b50:	0e030016 	mcreq	0, 0, r0, cr3, cr6, {0}
     b54:	0b3b0b3a 	bleq	ec3844 <__bss_end__+0xeb8544>
     b58:	13490b39 	movtne	r0, #39737	; 0x9b39
     b5c:	13030000 	movwne	r0, #12288	; 0x3000
     b60:	0b0e0301 	bleq	38176c <__bss_end__+0x37646c>
     b64:	3b0b3a0b 	blcc	2cf398 <__bss_end__+0x2c4098>
     b68:	0013010b 	andseq	r0, r3, fp, lsl #2
     b6c:	000d0400 	andeq	r0, sp, r0, lsl #8
     b70:	13490e03 	movtne	r0, #40451	; 0x9e03
     b74:	19340b38 	ldmdbne	r4!, {r3, r4, r5, r8, r9, fp}
     b78:	0f050000 	svceq	0x00050000
     b7c:	000b0b00 	andeq	r0, fp, r0, lsl #22
     b80:	00240600 	eoreq	r0, r4, r0, lsl #12
     b84:	0b3e0b0b 	bleq	f837b8 <__bss_end__+0xf784b8>
     b88:	00000803 	andeq	r0, r0, r3, lsl #16
     b8c:	0b002407 	bleq	9bb0 <_cstart+0x108>
     b90:	030b3e0b 	movweq	r3, #48651	; 0xbe0b
     b94:	0800000e 	stmdaeq	r0, {r1, r2, r3}
     b98:	19270115 	stmdbne	r7!, {r0, r2, r4, r8}
     b9c:	13011349 	movwne	r1, #4937	; 0x1349
     ba0:	05090000 	streq	r0, [r9, #-0]
     ba4:	00134900 	andseq	r4, r3, r0, lsl #18
     ba8:	00340a00 	eorseq	r0, r4, r0, lsl #20
     bac:	0b3a0e03 	bleq	e843c0 <__bss_end__+0xe790c0>
     bb0:	0b390b3b 	bleq	e438a4 <__bss_end__+0xe385a4>
     bb4:	193f1349 	ldmdbne	pc!, {r0, r3, r6, r8, r9, ip}	; <UNPREDICTABLE>
     bb8:	0000193c 	andeq	r1, r0, ip, lsr r9
     bbc:	0b000f0b 	bleq	47f0 <__code_start__-0x3810>
     bc0:	0013490b 	andseq	r4, r3, fp, lsl #18
     bc4:	00260c00 	eoreq	r0, r6, r0, lsl #24
     bc8:	00001349 	andeq	r1, r0, r9, asr #6
     bcc:	3f012e0d 	svccc	0x00012e0d
     bd0:	3a0e0319 	bcc	38183c <__bss_end__+0x37653c>
     bd4:	390b3b0b 	stmdbcc	fp, {r0, r1, r3, r8, r9, fp, ip, sp}
     bd8:	4919270b 	ldmdbmi	r9, {r0, r1, r3, r8, r9, sl, sp}
     bdc:	12011113 	andne	r1, r1, #-1073741820	; 0xc0000004
     be0:	97184006 	ldrls	r4, [r8, -r6]
     be4:	13011942 	movwne	r1, #6466	; 0x1942
     be8:	050e0000 	streq	r0, [lr, #-0]
     bec:	3a080300 	bcc	2017f4 <__bss_end__+0x1f64f4>
     bf0:	390b3b0b 	stmdbcc	fp, {r0, r1, r3, r8, r9, fp, ip, sp}
     bf4:	0213490b 	andseq	r4, r3, #180224	; 0x2c000
     bf8:	0f000018 	svceq	0x00000018
     bfc:	00000018 	andeq	r0, r0, r8, lsl r0
     c00:	03003410 	movweq	r3, #1040	; 0x410
     c04:	3b0b3a08 	blcc	2cf42c <__bss_end__+0x2c412c>
     c08:	490b390b 	stmdbmi	fp, {r0, r1, r3, r8, fp, ip, sp}
     c0c:	00180213 	andseq	r0, r8, r3, lsl r2
     c10:	00341100 	eorseq	r1, r4, r0, lsl #2
     c14:	0b3a0e03 	bleq	e84428 <__bss_end__+0xe79128>
     c18:	0b390b3b 	bleq	e4390c <__bss_end__+0xe3860c>
     c1c:	18021349 	stmdane	r2, {r0, r3, r6, r8, r9, ip}
     c20:	34120000 	ldrcc	r0, [r2], #-0
     c24:	3a080300 	bcc	20182c <__bss_end__+0x1f652c>
     c28:	390b3b0b 	stmdbcc	fp, {r0, r1, r3, r8, r9, fp, ip, sp}
     c2c:	0213490b 	andseq	r4, r3, #180224	; 0x2c000
     c30:	1742b717 	smlaldne	fp, r2, r7, r7
     c34:	89130000 	ldmdbhi	r3, {}	; <UNPREDICTABLE>
     c38:	11010182 	smlabbne	r1, r2, r1, r0
     c3c:	01133101 	tsteq	r3, r1, lsl #2
     c40:	14000013 	strne	r0, [r0], #-19	; 0xffffffed
     c44:	0001828a 	andeq	r8, r1, sl, lsl #5
     c48:	42911802 	addsmi	r1, r1, #131072	; 0x20000
     c4c:	15000018 	strne	r0, [r0, #-24]	; 0xffffffe8
     c50:	01018289 	smlabbeq	r1, r9, r2, r8
     c54:	00000111 	andeq	r0, r0, r1, lsl r1
     c58:	49010116 	stmdbmi	r1, {r1, r2, r4, r8}
     c5c:	00130113 	andseq	r0, r3, r3, lsl r1
     c60:	00211700 	eoreq	r1, r1, r0, lsl #14
     c64:	052f1349 	streq	r1, [pc, #-841]!	; 923 <__code_start__-0x76dd>
     c68:	2e180000 	cdpcs	0, 1, cr0, cr8, cr0, {0}
     c6c:	3c193f00 	ldccc	15, cr3, [r9], {-0}
     c70:	030e6e19 	movweq	r6, #60953	; 0xee19
     c74:	3b0b3a0e 	blcc	2cf4b4 <__bss_end__+0x2c41b4>
     c78:	000b390b 	andeq	r3, fp, fp, lsl #18
     c7c:	11010000 	mrsne	r0, (UNDEF: 1)
     c80:	130e2501 	movwne	r2, #58625	; 0xe501
     c84:	1b0e030b 	blne	3818b8 <__bss_end__+0x3765b8>
     c88:	1201110e 	andne	r1, r1, #-2147483645	; 0x80000003
     c8c:	00171006 	andseq	r1, r7, r6
     c90:	00240200 	eoreq	r0, r4, r0, lsl #4
     c94:	0b3e0b0b 	bleq	f838c8 <__bss_end__+0xf785c8>
     c98:	00000803 	andeq	r0, r0, r3, lsl #16
     c9c:	0b002403 	bleq	9cb0 <delay_us+0x20>
     ca0:	030b3e0b 	movweq	r3, #48651	; 0xbe0b
     ca4:	0400000e 	streq	r0, [r0], #-14
     ca8:	19270115 	stmdbne	r7!, {r0, r2, r4, r8}
     cac:	13011349 	movwne	r1, #4937	; 0x1349
     cb0:	05050000 	streq	r0, [r5, #-0]
     cb4:	00134900 	andseq	r4, r3, r0, lsl #18
     cb8:	00340600 	eorseq	r0, r4, r0, lsl #12
     cbc:	0b3a0e03 	bleq	e844d0 <__bss_end__+0xe791d0>
     cc0:	0b390b3b 	bleq	e439b4 <__bss_end__+0xe386b4>
     cc4:	193f1349 	ldmdbne	pc!, {r0, r3, r6, r8, r9, ip}	; <UNPREDICTABLE>
     cc8:	0000193c 	andeq	r1, r0, ip, lsr r9
     ccc:	0b000f07 	bleq	48f0 <__code_start__-0x3710>
     cd0:	0013490b 	andseq	r4, r3, fp, lsl #18
     cd4:	00260800 	eoreq	r0, r6, r0, lsl #16
     cd8:	00001349 	andeq	r1, r0, r9, asr #6
     cdc:	47003409 	strmi	r3, [r0, -r9, lsl #8]
     ce0:	3b0b3a13 	blcc	2cf534 <__bss_end__+0x2c4234>
     ce4:	020b390b 	andeq	r3, fp, #180224	; 0x2c000
     ce8:	0a000018 	beq	d50 <__code_start__-0x72b0>
     cec:	193f012e 	ldmdbne	pc!, {r1, r2, r3, r5, r8}	; <UNPREDICTABLE>
     cf0:	0b3a0e03 	bleq	e84504 <__bss_end__+0xe79204>
     cf4:	0b390b3b 	bleq	e439e8 <__bss_end__+0xe386e8>
     cf8:	13491927 	movtne	r1, #39207	; 0x9927
     cfc:	06120111 			; <UNDEFINED> instruction: 0x06120111
     d00:	42961840 	addsmi	r1, r6, #64, 16	; 0x400000
     d04:	0b000019 	bleq	d70 <__code_start__-0x7290>
     d08:	08030005 	stmdaeq	r3, {r0, r2}
     d0c:	0b3b0b3a 	bleq	ec39fc <__bss_end__+0xeb86fc>
     d10:	13490b39 	movtne	r0, #39737	; 0x9b39
     d14:	42b71702 	adcsmi	r1, r7, #524288	; 0x80000
     d18:	00000017 	andeq	r0, r0, r7, lsl r0
     d1c:	25011101 	strcs	r1, [r1, #-257]	; 0xfffffeff
     d20:	030b130e 	movweq	r1, #45838	; 0xb30e
     d24:	110e1b0e 	tstne	lr, lr, lsl #22
     d28:	10061201 	andne	r1, r6, r1, lsl #4
     d2c:	02000017 	andeq	r0, r0, #23, 0
     d30:	0b0b0024 	bleq	2c0dc8 <__bss_end__+0x2b5ac8>
     d34:	0e030b3e 	vmoveq.16	d3[0], r0
     d38:	24030000 	strcs	r0, [r3], #-0
     d3c:	3e0b0b00 	vmlacc.f64	d0, d11, d0
     d40:	0008030b 	andeq	r0, r8, fp, lsl #6
     d44:	00160400 	andseq	r0, r6, r0, lsl #8
     d48:	0b3a0e03 	bleq	e8455c <__bss_end__+0xe7925c>
     d4c:	0b390b3b 	bleq	e43a40 <__bss_end__+0xe38740>
     d50:	00001349 	andeq	r1, r0, r9, asr #6
     d54:	27011505 	strcs	r1, [r1, -r5, lsl #10]
     d58:	01134919 	tsteq	r3, r9, lsl r9
     d5c:	06000013 			; <UNDEFINED> instruction: 0x06000013
     d60:	13490005 	movtne	r0, #36869	; 0x9005
     d64:	34070000 	strcc	r0, [r7], #-0
     d68:	3a0e0300 	bcc	381970 <__bss_end__+0x376670>
     d6c:	390b3b0b 	stmdbcc	fp, {r0, r1, r3, r8, r9, fp, ip, sp}
     d70:	3f13490b 	svccc	0x0013490b
     d74:	00193c19 	andseq	r3, r9, r9, lsl ip
     d78:	000f0800 	andeq	r0, pc, r0, lsl #16
     d7c:	13490b0b 	movtne	r0, #39691	; 0x9b0b
     d80:	26090000 	strcs	r0, [r9], -r0
     d84:	00134900 	andseq	r4, r3, r0, lsl #18
     d88:	01130a00 	tsteq	r3, r0, lsl #20
     d8c:	0b0b0e03 	bleq	2c45a0 <__bss_end__+0x2b92a0>
     d90:	0b3b0b3a 	bleq	ec3a80 <__bss_end__+0xeb8780>
     d94:	00001301 	andeq	r1, r0, r1, lsl #6
     d98:	03000d0b 	movweq	r0, #3339	; 0xd0b
     d9c:	3813490e 	ldmdacc	r3, {r1, r2, r3, r8, fp, lr}
     da0:	0019340b 	andseq	r3, r9, fp, lsl #8
     da4:	000f0c00 	andeq	r0, pc, r0, lsl #24
     da8:	00000b0b 	andeq	r0, r0, fp, lsl #22
     dac:	3f012e0d 	svccc	0x00012e0d
     db0:	3a0e0319 	bcc	381a1c <__bss_end__+0x37671c>
     db4:	390b3b0b 	stmdbcc	fp, {r0, r1, r3, r8, r9, fp, ip, sp}
     db8:	4919270b 	ldmdbmi	r9, {r0, r1, r3, r8, r9, sl, sp}
     dbc:	12011113 	andne	r1, r1, #-1073741820	; 0xc0000004
     dc0:	97184006 	ldrls	r4, [r8, -r6]
     dc4:	13011942 	movwne	r1, #6466	; 0x1942
     dc8:	050e0000 	streq	r0, [lr, #-0]
     dcc:	3a080300 	bcc	2019d4 <__bss_end__+0x1f66d4>
     dd0:	390b3b0b 	stmdbcc	fp, {r0, r1, r3, r8, r9, fp, ip, sp}
     dd4:	0213490b 	andseq	r4, r3, #180224	; 0x2c000
     dd8:	1742b717 	smlaldne	fp, r2, r7, r7
     ddc:	050f0000 	streq	r0, [pc, #-0]	; de4 <__code_start__-0x721c>
     de0:	3a0e0300 	bcc	3819e8 <__bss_end__+0x3766e8>
     de4:	390b3b0b 	stmdbcc	fp, {r0, r1, r3, r8, r9, fp, ip, sp}
     de8:	0213490b 	andseq	r4, r3, #180224	; 0x2c000
     dec:	1742b717 	smlaldne	fp, r2, r7, r7
     df0:	34100000 	ldrcc	r0, [r0], #-0
     df4:	3a080300 	bcc	2019fc <__bss_end__+0x1f66fc>
     df8:	390b3b0b 	stmdbcc	fp, {r0, r1, r3, r8, r9, fp, ip, sp}
     dfc:	0213490b 	andseq	r4, r3, #180224	; 0x2c000
     e00:	1742b717 	smlaldne	fp, r2, r7, r7
     e04:	34110000 	ldrcc	r0, [r1], #-0
     e08:	3a0e0300 	bcc	381a10 <__bss_end__+0x376710>
     e0c:	390b3b0b 	stmdbcc	fp, {r0, r1, r3, r8, r9, fp, ip, sp}
     e10:	0213490b 	andseq	r4, r3, #180224	; 0x2c000
     e14:	1742b717 	smlaldne	fp, r2, r7, r7
     e18:	34120000 	ldrcc	r0, [r2], #-0
     e1c:	490e0300 	stmdbmi	lr, {r8, r9}
     e20:	02193413 	andseq	r3, r9, #318767104	; 0x13000000
     e24:	13000018 	movwne	r0, #24
     e28:	1755010b 	ldrbne	r0, [r5, -fp, lsl #2]
     e2c:	34140000 	ldrcc	r0, [r4], #-0
     e30:	3a080300 	bcc	201a38 <__bss_end__+0x1f6738>
     e34:	390b3b0b 	stmdbcc	fp, {r0, r1, r3, r8, r9, fp, ip, sp}
     e38:	0213490b 	andseq	r4, r3, #180224	; 0x2c000
     e3c:	15000018 	strne	r0, [r0, #-24]	; 0xffffffe8
     e40:	0e030034 	mcreq	0, 0, r0, cr3, cr4, {1}
     e44:	0b3b0b3a 	bleq	ec3b34 <__bss_end__+0xeb8834>
     e48:	13490b39 	movtne	r0, #39737	; 0x9b39
     e4c:	00001802 	andeq	r1, r0, r2, lsl #16
     e50:	55010b16 	strpl	r0, [r1, #-2838]	; 0xfffff4ea
     e54:	00130117 	andseq	r0, r3, r7, lsl r1
     e58:	82891700 	addhi	r1, r9, #0, 14
     e5c:	01110101 	tsteq	r1, r1, lsl #2
     e60:	13011331 	movwne	r1, #4913	; 0x1331
     e64:	8a180000 	bhi	600e6c <__bss_end__+0x5f5b6c>
     e68:	02000182 	andeq	r0, r0, #-2147483616	; 0x80000020
     e6c:	18429118 	stmdane	r2, {r3, r4, r8, ip, pc}^
     e70:	89190000 	ldmdbhi	r9, {}	; <UNPREDICTABLE>
     e74:	11000182 	smlabbne	r0, r2, r1, r0
     e78:	00133101 	andseq	r3, r3, r1, lsl #2
     e7c:	011d1a00 	tsteq	sp, r0, lsl #20
     e80:	01521331 	cmpeq	r2, r1, lsr r3
     e84:	550542b8 	strpl	r4, [r5, #-696]	; 0xfffffd48
     e88:	590b5817 	stmdbpl	fp, {r0, r1, r2, r4, fp, ip, lr}
     e8c:	010b570b 	tsteq	fp, fp, lsl #14
     e90:	1b000013 	blne	ee4 <__code_start__-0x711c>
     e94:	13310005 	teqne	r1, #5, 0
     e98:	42b71702 	adcsmi	r1, r7, #524288	; 0x80000
     e9c:	1c000017 	stcne	0, cr0, [r0], {23}
     ea0:	13310005 	teqne	r1, #5, 0
     ea4:	341d0000 	ldrcc	r0, [sp], #-0
     ea8:	02133100 	andseq	r3, r3, #0
     eac:	1e000018 	mcrne	0, 0, r0, cr0, cr8, {0}
     eb0:	13310034 	teqne	r1, #52, 0	; 0x34
     eb4:	42b71702 	adcsmi	r1, r7, #524288	; 0x80000
     eb8:	1f000017 	svcne	0x00000017
     ebc:	13310034 	teqne	r1, #52, 0	; 0x34
     ec0:	1d200000 	stcne	0, cr0, [r0, #-0]
     ec4:	52133101 	andspl	r3, r3, #1073741824	; 0x40000000
     ec8:	0542b801 	strbeq	fp, [r2, #-2049]	; 0xfffff7ff
     ecc:	0b581755 	bleq	1606c28 <__bss_end__+0x15fb928>
     ed0:	0b570b59 	bleq	15c3c3c <__bss_end__+0x15b893c>
     ed4:	89210000 	stmdbhi	r1!, {}	; <UNPREDICTABLE>
     ed8:	11010182 	smlabbne	r1, r2, r1, r0
     edc:	00130101 	andseq	r0, r3, r1, lsl #2
     ee0:	01012200 	mrseq	r2, R9_usr
     ee4:	13011349 	movwne	r1, #4937	; 0x1349
     ee8:	21230000 			; <UNDEFINED> instruction: 0x21230000
     eec:	2f134900 	svccs	0x00134900
     ef0:	2400000b 	strcs	r0, [r0], #-11
     ef4:	0e03012e 	adfeqsp	f0, f3, #0.5
     ef8:	0b3b0b3a 	bleq	ec3be8 <__bss_end__+0xeb88e8>
     efc:	19270b39 	stmdbne	r7!, {r0, r3, r4, r5, r8, r9, fp}
     f00:	0b201349 	bleq	805c2c <__bss_end__+0x7fa92c>
     f04:	00001301 	andeq	r1, r0, r1, lsl #6
     f08:	03000525 	movweq	r0, #1317	; 0x525
     f0c:	3b0b3a0e 	blcc	2cf74c <__bss_end__+0x2c444c>
     f10:	490b390b 	stmdbmi	fp, {r0, r1, r3, r8, fp, ip, sp}
     f14:	26000013 			; <UNDEFINED> instruction: 0x26000013
     f18:	08030005 	stmdaeq	r3, {r0, r2}
     f1c:	0b3b0b3a 	bleq	ec3c0c <__bss_end__+0xeb890c>
     f20:	13490b39 	movtne	r0, #39737	; 0x9b39
     f24:	34270000 	strtcc	r0, [r7], #-0
     f28:	3a080300 	bcc	201b30 <__bss_end__+0x1f6830>
     f2c:	390b3b0b 	stmdbcc	fp, {r0, r1, r3, r8, r9, fp, ip, sp}
     f30:	0013490b 	andseq	r4, r3, fp, lsl #18
     f34:	010b2800 	tsteq	fp, r0, lsl #16
     f38:	34290000 	strtcc	r0, [r9], #-0
     f3c:	3a0e0300 	bcc	381b44 <__bss_end__+0x376844>
     f40:	390b3b0b 	stmdbcc	fp, {r0, r1, r3, r8, r9, fp, ip, sp}
     f44:	0013490b 	andseq	r4, r3, fp, lsl #18
     f48:	012e2a00 			; <UNDEFINED> instruction: 0x012e2a00
     f4c:	0b3a0803 	bleq	e82f60 <__bss_end__+0xe77c60>
     f50:	0b390b3b 	bleq	e43c44 <__bss_end__+0xe38944>
     f54:	13491927 	movtne	r1, #39207	; 0x9927
     f58:	13010b20 	movwne	r0, #6944	; 0x1b20
     f5c:	2e2b0000 	cdpcs	0, 2, cr0, cr11, cr0, {0}
     f60:	03193f01 	tsteq	r9, #1, 30
     f64:	3b0b3a0e 	blcc	2cf7a4 <__bss_end__+0x2c44a4>
     f68:	270b390b 	strcs	r3, [fp, -fp, lsl #18]
     f6c:	12011119 	andne	r1, r1, #1073741830	; 0x40000006
     f70:	97184006 	ldrls	r4, [r8, -r6]
     f74:	13011942 	movwne	r1, #6466	; 0x1942
     f78:	2e2c0000 	cdpcs	0, 2, cr0, cr12, cr0, {0}
     f7c:	11133101 	tstne	r3, r1, lsl #2
     f80:	40061201 	andmi	r1, r6, r1, lsl #4
     f84:	19429718 	stmdbne	r2, {r3, r4, r8, r9, sl, ip, pc}^
     f88:	00001301 	andeq	r1, r0, r1, lsl #6
     f8c:	3100052d 	tstcc	r0, sp, lsr #10
     f90:	00180213 	andseq	r0, r8, r3, lsl r2
     f94:	00052e00 	andeq	r2, r5, r0, lsl #28
     f98:	0b1c1331 	bleq	705c64 <__bss_end__+0x6fa964>
     f9c:	0b2f0000 	bleq	bc0fa4 <__bss_end__+0xbb5ca4>
     fa0:	11133101 	tstne	r3, r1, lsl #2
     fa4:	01061201 	tsteq	r6, r1, lsl #4
     fa8:	30000013 	andcc	r0, r0, r3, lsl r0
     fac:	193f002e 	ldmdbne	pc!, {r1, r2, r3, r5}	; <UNPREDICTABLE>
     fb0:	0e6e193c 			; <UNDEFINED> instruction: 0x0e6e193c
     fb4:	0b3a0e03 	bleq	e847c8 <__bss_end__+0xe794c8>
     fb8:	0b390b3b 	bleq	e43cac <__bss_end__+0xe389ac>
     fbc:	01000000 	mrseq	r0, (UNDEF: 0)
     fc0:	0e250111 	mcreq	1, 1, r0, cr5, cr1, {0}
     fc4:	0e030b13 	vmoveq.32	d3[0], r0
     fc8:	01110e1b 	tsteq	r1, fp, lsl lr
     fcc:	17100612 			; <UNDEFINED> instruction: 0x17100612
     fd0:	24020000 	strcs	r0, [r2], #-0
     fd4:	3e0b0b00 	vmlacc.f64	d0, d11, d0
     fd8:	0008030b 	andeq	r0, r8, fp, lsl #6
     fdc:	00240300 	eoreq	r0, r4, r0, lsl #6
     fe0:	0b3e0b0b 	bleq	f83c14 <__bss_end__+0xf78914>
     fe4:	00000e03 	andeq	r0, r0, r3, lsl #28
     fe8:	27011504 	strcs	r1, [r1, -r4, lsl #10]
     fec:	01134919 	tsteq	r3, r9, lsl r9
     ff0:	05000013 	streq	r0, [r0, #-19]	; 0xffffffed
     ff4:	13490005 	movtne	r0, #36869	; 0x9005
     ff8:	34060000 	strcc	r0, [r6], #-0
     ffc:	3a0e0300 	bcc	381c04 <__bss_end__+0x376904>
    1000:	390b3b0b 	stmdbcc	fp, {r0, r1, r3, r8, r9, fp, ip, sp}
    1004:	3f13490b 	svccc	0x0013490b
    1008:	00193c19 	andseq	r3, r9, r9, lsl ip
    100c:	000f0700 	andeq	r0, pc, r0, lsl #14
    1010:	13490b0b 	movtne	r0, #39691	; 0x9b0b
    1014:	26080000 	strcs	r0, [r8], -r0
    1018:	00134900 	andseq	r4, r3, r0, lsl #18
    101c:	012e0900 			; <UNDEFINED> instruction: 0x012e0900
    1020:	0e03193f 			; <UNDEFINED> instruction: 0x0e03193f
    1024:	0b3b0b3a 	bleq	ec3d14 <__bss_end__+0xeb8a14>
    1028:	19270b39 	stmdbne	r7!, {r0, r3, r4, r5, r8, r9, fp}
    102c:	11190187 	tstne	r9, r7, lsl #3
    1030:	40061201 	andmi	r1, r6, r1, lsl #4
    1034:	19429718 	stmdbne	r2, {r3, r4, r8, r9, sl, ip, pc}^
    1038:	00001301 	andeq	r1, r0, r1, lsl #6
    103c:	0182890a 	orreq	r8, r2, sl, lsl #18
    1040:	01011101 	tsteq	r1, r1, lsl #2
    1044:	0b000013 	bleq	1098 <__code_start__-0x6f68>
    1048:	0001828a 	andeq	r8, r1, sl, lsl #5
    104c:	42911802 	addsmi	r1, r1, #131072	; 0x20000
    1050:	0c000018 	stceq	0, cr0, [r0], {24}
    1054:	00018289 	andeq	r8, r1, r9, lsl #5
    1058:	13310111 	teqne	r1, #1073741828	; 0x40000004
    105c:	890d0000 	stmdbhi	sp, {}	; <UNPREDICTABLE>
    1060:	11010182 	smlabbne	r1, r2, r1, r0
    1064:	01133101 	tsteq	r3, r1, lsl #2
    1068:	0e000013 	mcreq	0, 0, r0, cr0, cr3, {0}
    106c:	193f002e 	ldmdbne	pc!, {r1, r2, r3, r5}	; <UNPREDICTABLE>
    1070:	0e6e193c 			; <UNDEFINED> instruction: 0x0e6e193c
    1074:	0b3a0e03 	bleq	e84888 <__bss_end__+0xe79588>
    1078:	0b390b3b 	bleq	e43d6c <__bss_end__+0xe38a6c>
    107c:	01000000 	mrseq	r0, (UNDEF: 0)
    1080:	0e250111 	mcreq	1, 1, r0, cr5, cr1, {0}
    1084:	0e030b13 	vmoveq.32	d3[0], r0
    1088:	01110e1b 	tsteq	r1, fp, lsl lr
    108c:	17100612 			; <UNDEFINED> instruction: 0x17100612
    1090:	24020000 	strcs	r0, [r2], #-0
    1094:	3e0b0b00 	vmlacc.f64	d0, d11, d0
    1098:	0008030b 	andeq	r0, r8, fp, lsl #6
    109c:	00240300 	eoreq	r0, r4, r0, lsl #6
    10a0:	0b3e0b0b 	bleq	f83cd4 <__bss_end__+0xf789d4>
    10a4:	00000e03 	andeq	r0, r0, r3, lsl #28
    10a8:	27011504 	strcs	r1, [r1, -r4, lsl #10]
    10ac:	01134919 	tsteq	r3, r9, lsl r9
    10b0:	05000013 	streq	r0, [r0, #-19]	; 0xffffffed
    10b4:	13490005 	movtne	r0, #36869	; 0x9005
    10b8:	34060000 	strcc	r0, [r6], #-0
    10bc:	3a0e0300 	bcc	381cc4 <__bss_end__+0x3769c4>
    10c0:	390b3b0b 	stmdbcc	fp, {r0, r1, r3, r8, r9, fp, ip, sp}
    10c4:	3f13490b 	svccc	0x0013490b
    10c8:	00193c19 	andseq	r3, r9, r9, lsl ip
    10cc:	000f0700 	andeq	r0, pc, r0, lsl #14
    10d0:	13490b0b 	movtne	r0, #39691	; 0x9b0b
    10d4:	26080000 	strcs	r0, [r8], -r0
    10d8:	00134900 	andseq	r4, r3, r0, lsl #18
    10dc:	012e0900 			; <UNDEFINED> instruction: 0x012e0900
    10e0:	0e03193f 			; <UNDEFINED> instruction: 0x0e03193f
    10e4:	0b3b0b3a 	bleq	ec3dd4 <__bss_end__+0xeb8ad4>
    10e8:	01110b39 	tsteq	r1, r9, lsr fp
    10ec:	18400612 	stmdane	r0, {r1, r4, r9, sl}^
    10f0:	01194297 			; <UNDEFINED> instruction: 0x01194297
    10f4:	0a000013 	beq	1148 <__code_start__-0x6eb8>
    10f8:	193f002e 	ldmdbne	pc!, {r1, r2, r3, r5}	; <UNPREDICTABLE>
    10fc:	0b3a0e03 	bleq	e84910 <__bss_end__+0xe79610>
    1100:	0b390b3b 	bleq	e43df4 <__bss_end__+0xe38af4>
    1104:	193c1927 	ldmdbne	ip!, {r0, r1, r2, r5, r8, fp, ip}
    1108:	340b0000 	strcc	r0, [fp], #-0
    110c:	3a080300 	bcc	201d14 <__bss_end__+0x1f6a14>
    1110:	390b3b0b 	stmdbcc	fp, {r0, r1, r3, r8, r9, fp, ip, sp}
    1114:	0213490b 	andseq	r4, r3, #180224	; 0x2c000
    1118:	1742b717 	smlaldne	fp, r2, r7, r7
    111c:	340c0000 	strcc	r0, [ip], #-0
    1120:	3a0e0300 	bcc	381d28 <__bss_end__+0x376a28>
    1124:	390b3b0b 	stmdbcc	fp, {r0, r1, r3, r8, r9, fp, ip, sp}
    1128:	0013490b 	andseq	r4, r3, fp, lsl #18
    112c:	00340d00 	eorseq	r0, r4, r0, lsl #26
    1130:	0b3a0e03 	bleq	e84944 <__bss_end__+0xe79644>
    1134:	0b390b3b 	bleq	e43e28 <__bss_end__+0xe38b28>
    1138:	17021349 	strne	r1, [r2, -r9, asr #6]
    113c:	001742b7 			; <UNDEFINED> instruction: 0x001742b7
    1140:	010b0e00 	tsteq	fp, r0, lsl #28
    1144:	06120111 			; <UNDEFINED> instruction: 0x06120111
    1148:	00001301 	andeq	r1, r0, r1, lsl #6
    114c:	31011d0f 	tstcc	r1, pc, lsl #26
    1150:	b8015213 	stmdalt	r1, {r0, r1, r4, r9, ip, lr}
    1154:	01110b42 	tsteq	r1, r2, asr #22
    1158:	0b580612 	bleq	16029a8 <__bss_end__+0x15f76a8>
    115c:	0b570b59 	bleq	15c3ec8 <__bss_end__+0x15b8bc8>
    1160:	00001301 	andeq	r1, r0, r1, lsl #6
    1164:	31003410 	tstcc	r0, r0, lsl r4
    1168:	b7170213 			; <UNDEFINED> instruction: 0xb7170213
    116c:	00001742 	andeq	r1, r0, r2, asr #14
    1170:	31010b11 	tstcc	r1, r1, lsl fp
    1174:	12011113 	andne	r1, r1, #-1073741820	; 0xc0000004
    1178:	12000006 	andne	r0, r0, #6, 0
    117c:	1331011d 	teqne	r1, #1073741831	; 0x40000007
    1180:	42b80152 	adcsmi	r0, r8, #-2147483628	; 0x80000014
    1184:	5817550b 	ldmdapl	r7, {r0, r1, r3, r8, sl, ip, lr}
    1188:	570b590b 	strpl	r5, [fp, -fp, lsl #18]
    118c:	0013010b 	andseq	r0, r3, fp, lsl #2
    1190:	010b1300 	mrseq	r1, (UNDEF: 59)
    1194:	00001755 	andeq	r1, r0, r5, asr r7
    1198:	01828914 	orreq	r8, r2, r4, lsl r9
    119c:	31011100 	mrscc	r1, (UNDEF: 17)
    11a0:	15000013 	strne	r0, [r0, #-19]	; 0xffffffed
    11a4:	01018289 	smlabbeq	r1, r9, r2, r8
    11a8:	13310111 	teqne	r1, #1073741828	; 0x40000004
    11ac:	00001301 	andeq	r1, r0, r1, lsl #6
    11b0:	01828a16 	orreq	r8, r2, r6, lsl sl
    11b4:	91180200 	tstls	r8, r0, lsl #4
    11b8:	00001842 	andeq	r1, r0, r2, asr #16
    11bc:	03012e17 	movweq	r2, #7703	; 0x1e17
    11c0:	3b0b3a0e 	blcc	2cfa00 <__bss_end__+0x2c4700>
    11c4:	270b390b 	strcs	r3, [fp, -fp, lsl #18]
    11c8:	20134919 	andscs	r4, r3, r9, lsl r9
    11cc:	0013010b 	andseq	r0, r3, fp, lsl #2
    11d0:	00341800 	eorseq	r1, r4, r0, lsl #16
    11d4:	0b3a0e03 	bleq	e849e8 <__bss_end__+0xe796e8>
    11d8:	0b390b3b 	bleq	e43ecc <__bss_end__+0xe38bcc>
    11dc:	18021349 	stmdane	r2, {r0, r3, r6, r8, r9, ip}
    11e0:	34190000 	ldrcc	r0, [r9], #-0
    11e4:	3a080300 	bcc	201dec <__bss_end__+0x1f6aec>
    11e8:	390b3b0b 	stmdbcc	fp, {r0, r1, r3, r8, r9, fp, ip, sp}
    11ec:	0013490b 	andseq	r4, r3, fp, lsl #18
    11f0:	010b1a00 	tsteq	fp, r0, lsl #20
    11f4:	2e1b0000 	cdpcs	0, 1, cr0, cr11, cr0, {0}
    11f8:	3c193f00 	ldccc	15, cr3, [r9], {-0}
    11fc:	030e6e19 	movweq	r6, #60953	; 0xee19
    1200:	3b0b3a0e 	blcc	2cfa40 <__bss_end__+0x2c4740>
    1204:	000b3905 	andeq	r3, fp, r5, lsl #18
    1208:	002e1c00 	eoreq	r1, lr, r0, lsl #24
    120c:	193c193f 	ldmdbne	ip!, {r0, r1, r2, r3, r4, r5, r8, fp, ip}
    1210:	0e030e6e 	cdpeq	14, 0, cr0, cr3, cr14, {3}
    1214:	0b3b0b3a 	bleq	ec3f04 <__bss_end__+0xeb8c04>
    1218:	00000b39 	andeq	r0, r0, r9, lsr fp
    121c:	01110100 	tsteq	r1, r0, lsl #2
    1220:	0b130e25 	bleq	4c4abc <__bss_end__+0x4b97bc>
    1224:	0e1b0e03 	cdpeq	14, 1, cr0, cr11, cr3, {0}
    1228:	06120111 			; <UNDEFINED> instruction: 0x06120111
    122c:	00001710 	andeq	r1, r0, r0, lsl r7
    1230:	0b002402 	bleq	a240 <kmalloc_aligned+0xb4>
    1234:	030b3e0b 	movweq	r3, #48651	; 0xbe0b
    1238:	03000008 	movweq	r0, #8
    123c:	0b0b0024 	bleq	2c12d4 <__bss_end__+0x2b5fd4>
    1240:	0e030b3e 	vmoveq.16	d3[0], r0
    1244:	15040000 	strne	r0, [r4, #-0]
    1248:	49192701 	ldmdbmi	r9, {r0, r8, r9, sl, sp}
    124c:	00130113 	andseq	r0, r3, r3, lsl r1
    1250:	00050500 	andeq	r0, r5, r0, lsl #10
    1254:	00001349 	andeq	r1, r0, r9, asr #6
    1258:	03003406 	movweq	r3, #1030	; 0x406
    125c:	3b0b3a0e 	blcc	2cfa9c <__bss_end__+0x2c479c>
    1260:	490b390b 	stmdbmi	fp, {r0, r1, r3, r8, fp, ip, sp}
    1264:	3c193f13 	ldccc	15, cr3, [r9], {19}
    1268:	07000019 	smladeq	r0, r9, r0, r0
    126c:	0b0b000f 	bleq	2c12b0 <__bss_end__+0x2b5fb0>
    1270:	00001349 	andeq	r1, r0, r9, asr #6
    1274:	49002608 	stmdbmi	r0, {r3, r9, sl, sp}
    1278:	09000013 	stmdbeq	r0, {r0, r1, r4}
    127c:	193f002e 	ldmdbne	pc!, {r1, r2, r3, r5}	; <UNPREDICTABLE>
    1280:	0b3a0e03 	bleq	e84a94 <__bss_end__+0xe79794>
    1284:	0b390b3b 	bleq	e43f78 <__bss_end__+0xe38c78>
    1288:	01111927 	tsteq	r1, r7, lsr #18
    128c:	18400612 	stmdane	r0, {r1, r4, r9, sl}^
    1290:	00194297 	mulseq	r9, r7, r2
    1294:	11010000 	mrsne	r0, (UNDEF: 1)
    1298:	130e2501 	movwne	r2, #58625	; 0xe501
    129c:	1b0e030b 	blne	381ed0 <__bss_end__+0x376bd0>
    12a0:	1117550e 	tstne	r7, lr, lsl #10
    12a4:	00171001 	andseq	r1, r7, r1
    12a8:	00240200 	eoreq	r0, r4, r0, lsl #4
    12ac:	0b3e0b0b 	bleq	f83ee0 <__bss_end__+0xf78be0>
    12b0:	00000803 	andeq	r0, r0, r3, lsl #16
    12b4:	49002603 	stmdbmi	r0, {r0, r1, r9, sl, sp}
    12b8:	04000013 	streq	r0, [r0], #-19	; 0xffffffed
    12bc:	0b0b0024 	bleq	2c1354 <__bss_end__+0x2b6054>
    12c0:	0e030b3e 	vmoveq.16	d3[0], r0
    12c4:	15050000 	strne	r0, [r5, #-0]
    12c8:	49192701 	ldmdbmi	r9, {r0, r8, r9, sl, sp}
    12cc:	00130113 	andseq	r0, r3, r3, lsl r1
    12d0:	00050600 	andeq	r0, r5, r0, lsl #12
    12d4:	00001349 	andeq	r1, r0, r9, asr #6
    12d8:	03003407 	movweq	r3, #1031	; 0x407
    12dc:	3b0b3a0e 	blcc	2cfb1c <__bss_end__+0x2c481c>
    12e0:	490b390b 	stmdbmi	fp, {r0, r1, r3, r8, fp, ip, sp}
    12e4:	3c193f13 	ldccc	15, cr3, [r9], {19}
    12e8:	08000019 	stmdaeq	r0, {r0, r3, r4}
    12ec:	0b0b000f 	bleq	2c1330 <__bss_end__+0x2b6030>
    12f0:	00001349 	andeq	r1, r0, r9, asr #6
    12f4:	03003409 	movweq	r3, #1033	; 0x409
    12f8:	3b0b3a0e 	blcc	2cfb38 <__bss_end__+0x2c4838>
    12fc:	490b390b 	stmdbmi	fp, {r0, r1, r3, r8, fp, ip, sp}
    1300:	0a000013 	beq	1354 <__code_start__-0x6cac>
    1304:	193f012e 	ldmdbne	pc!, {r1, r2, r3, r5, r8}	; <UNPREDICTABLE>
    1308:	0b3a0e03 	bleq	e84b1c <__bss_end__+0xe7981c>
    130c:	0b390b3b 	bleq	e44000 <__bss_end__+0xe38d00>
    1310:	01871927 	orreq	r1, r7, r7, lsr #18
    1314:	12011119 	andne	r1, r1, #1073741830	; 0x40000006
    1318:	97184006 	ldrls	r4, [r8, -r6]
    131c:	13011942 	movwne	r1, #6466	; 0x1942
    1320:	340b0000 	strcc	r0, [fp], #-0
    1324:	3a0e0300 	bcc	381f2c <__bss_end__+0x376c2c>
    1328:	390b3b0b 	stmdbcc	fp, {r0, r1, r3, r8, r9, fp, ip, sp}
    132c:	1c13490b 			; <UNDEFINED> instruction: 0x1c13490b
    1330:	0c000006 	stceq	0, cr0, [r0], {6}
    1334:	0e030034 	mcreq	0, 0, r0, cr3, cr4, {1}
    1338:	0b3b0b3a 	bleq	ec4028 <__bss_end__+0xeb8d28>
    133c:	13490b39 	movtne	r0, #39737	; 0x9b39
    1340:	00000b1c 	andeq	r0, r0, ip, lsl fp
    1344:	31011d0d 	tstcc	r1, sp, lsl #26
    1348:	b8015213 	stmdalt	r1, {r0, r1, r4, r9, ip, lr}
    134c:	17550b42 	ldrbne	r0, [r5, -r2, asr #22]
    1350:	0b590b58 	bleq	16440b8 <__bss_end__+0x1638db8>
    1354:	13010b57 	movwne	r0, #6999	; 0x1b57
    1358:	0b0e0000 	bleq	381360 <__bss_end__+0x376060>
    135c:	00175501 	andseq	r5, r7, r1, lsl #10
    1360:	00340f00 	eorseq	r0, r4, r0, lsl #30
    1364:	17021331 	smladxne	r2, r1, r3, r1
    1368:	001742b7 			; <UNDEFINED> instruction: 0x001742b7
    136c:	011d1000 	tsteq	sp, r0
    1370:	01521331 	cmpeq	r2, r1, lsr r3
    1374:	110b42b8 			; <UNDEFINED> instruction: 0x110b42b8
    1378:	58061201 	stmdapl	r6, {r0, r9, ip}
    137c:	570b590b 	strpl	r5, [fp, -fp, lsl #18]
    1380:	0013010b 	andseq	r0, r3, fp, lsl #2
    1384:	82891100 	addhi	r1, r9, #0
    1388:	01110001 	tsteq	r1, r1
    138c:	00001331 	andeq	r1, r0, r1, lsr r3
    1390:	01828912 	orreq	r8, r2, r2, lsl r9
    1394:	31011101 	tstcc	r1, r1, lsl #2
    1398:	00130113 	andseq	r0, r3, r3, lsl r1
    139c:	828a1300 	addhi	r1, sl, #0, 6
    13a0:	18020001 	stmdane	r2, {r0}
    13a4:	00184291 	mulseq	r8, r1, r2
    13a8:	82891400 	addhi	r1, r9, #0, 8
    13ac:	01110101 	tsteq	r1, r1, lsl #2
    13b0:	00001331 	andeq	r1, r0, r1, lsr r3
    13b4:	3f012e15 	svccc	0x00012e15
    13b8:	3a0e0319 	bcc	382024 <__bss_end__+0x376d24>
    13bc:	390b3b0b 	stmdbcc	fp, {r0, r1, r3, r8, r9, fp, ip, sp}
    13c0:	2019270b 	andscs	r2, r9, fp, lsl #14
    13c4:	0013010b 	andseq	r0, r3, fp, lsl #2
    13c8:	012e1600 			; <UNDEFINED> instruction: 0x012e1600
    13cc:	0e03193f 			; <UNDEFINED> instruction: 0x0e03193f
    13d0:	0b3b0b3a 	bleq	ec40c0 <__bss_end__+0xeb8dc0>
    13d4:	19270b39 	stmdbne	r7!, {r0, r3, r4, r5, r8, r9, fp}
    13d8:	0b201349 	bleq	806104 <__bss_end__+0x7fae04>
    13dc:	00001301 	andeq	r1, r0, r1, lsl #6
    13e0:	31012e17 	tstcc	r1, r7, lsl lr
    13e4:	12011113 	andne	r1, r1, #-1073741820	; 0xc0000004
    13e8:	97184006 	ldrls	r4, [r8, -r6]
    13ec:	13011942 	movwne	r1, #6466	; 0x1942
    13f0:	2e180000 	cdpcs	0, 1, cr0, cr8, cr0, {0}
    13f4:	3c193f00 	ldccc	15, cr3, [r9], {-0}
    13f8:	030e6e19 	movweq	r6, #60953	; 0xee19
    13fc:	3b0b3a0e 	blcc	2cfc3c <__bss_end__+0x2c493c>
    1400:	000b3905 	andeq	r3, fp, r5, lsl #18
    1404:	002e1900 	eoreq	r1, lr, r0, lsl #18
    1408:	193c193f 	ldmdbne	ip!, {r0, r1, r2, r3, r4, r5, r8, fp, ip}
    140c:	0e030e6e 	cdpeq	14, 0, cr0, cr3, cr14, {3}
    1410:	0b3b0b3a 	bleq	ec4100 <__bss_end__+0xeb8e00>
    1414:	00000b39 	andeq	r0, r0, r9, lsr fp
    1418:	01110100 	tsteq	r1, r0, lsl #2
    141c:	0b130e25 	bleq	4c4cb8 <__bss_end__+0x4b99b8>
    1420:	0e1b0e03 	cdpeq	14, 1, cr0, cr11, cr3, {0}
    1424:	06120111 			; <UNDEFINED> instruction: 0x06120111
    1428:	00001710 	andeq	r1, r0, r0, lsl r7
    142c:	0b002402 	bleq	a43c <gpio_set_input+0x38>
    1430:	030b3e0b 	movweq	r3, #48651	; 0xbe0b
    1434:	03000008 	movweq	r0, #8
    1438:	0b0b0024 	bleq	2c14d0 <__bss_end__+0x2b61d0>
    143c:	0e030b3e 	vmoveq.16	d3[0], r0
    1440:	15040000 	strne	r0, [r4, #-0]
    1444:	49192701 	ldmdbmi	r9, {r0, r8, r9, sl, sp}
    1448:	00130113 	andseq	r0, r3, r3, lsl r1
    144c:	00050500 	andeq	r0, r5, r0, lsl #10
    1450:	00001349 	andeq	r1, r0, r9, asr #6
    1454:	03003406 	movweq	r3, #1030	; 0x406
    1458:	3b0b3a0e 	blcc	2cfc98 <__bss_end__+0x2c4998>
    145c:	490b390b 	stmdbmi	fp, {r0, r1, r3, r8, fp, ip, sp}
    1460:	3c193f13 	ldccc	15, cr3, [r9], {19}
    1464:	07000019 	smladeq	r0, r9, r0, r0
    1468:	0b0b000f 	bleq	2c14ac <__bss_end__+0x2b61ac>
    146c:	00001349 	andeq	r1, r0, r9, asr #6
    1470:	49002608 	stmdbmi	r0, {r3, r9, sl, sp}
    1474:	09000013 	stmdbeq	r0, {r0, r1, r4}
    1478:	193f012e 	ldmdbne	pc!, {r1, r2, r3, r5, r8}	; <UNPREDICTABLE>
    147c:	0b3a0e03 	bleq	e84c90 <__bss_end__+0xe79990>
    1480:	0b390b3b 	bleq	e44174 <__bss_end__+0xe38e74>
    1484:	01111927 	tsteq	r1, r7, lsr #18
    1488:	18400612 	stmdane	r0, {r1, r4, r9, sl}^
    148c:	01194297 			; <UNDEFINED> instruction: 0x01194297
    1490:	0a000013 	beq	14e4 <__code_start__-0x6b1c>
    1494:	08030005 	stmdaeq	r3, {r0, r2}
    1498:	0b3b0b3a 	bleq	ec4188 <__bss_end__+0xeb8e88>
    149c:	13490b39 	movtne	r0, #39737	; 0x9b39
    14a0:	42b71702 	adcsmi	r1, r7, #524288	; 0x80000
    14a4:	0b000017 	bleq	1508 <__code_start__-0x6af8>
    14a8:	1331011d 	teqne	r1, #1073741831	; 0x40000007
    14ac:	42b80152 	adcsmi	r0, r8, #-2147483628	; 0x80000014
    14b0:	5817550b 	ldmdapl	r7, {r0, r1, r3, r8, sl, ip, lr}
    14b4:	570b590b 	strpl	r5, [fp, -fp, lsl #18]
    14b8:	0c00000b 	stceq	0, cr0, [r0], {11}
    14bc:	13310005 	teqne	r1, #5, 0
    14c0:	42b71702 	adcsmi	r1, r7, #524288	; 0x80000
    14c4:	0d000017 	stceq	0, cr0, [r0, #-92]	; 0xffffffa4
    14c8:	1331011d 	teqne	r1, #1073741831	; 0x40000007
    14cc:	42b80152 	adcsmi	r0, r8, #-2147483628	; 0x80000014
    14d0:	1201110b 	andne	r1, r1, #-1073741822	; 0xc0000002
    14d4:	590b5806 	stmdbpl	fp, {r1, r2, fp, ip, lr}
    14d8:	000b570b 	andeq	r5, fp, fp, lsl #14
    14dc:	00340e00 	eorseq	r0, r4, r0, lsl #28
    14e0:	17021331 	smladxne	r2, r1, r3, r1
    14e4:	001742b7 			; <UNDEFINED> instruction: 0x001742b7
    14e8:	011d0f00 	tsteq	sp, r0, lsl #30
    14ec:	01521331 	cmpeq	r2, r1, lsr r3
    14f0:	110b42b8 			; <UNDEFINED> instruction: 0x110b42b8
    14f4:	58061201 	stmdapl	r6, {r0, r9, ip}
    14f8:	570b590b 	strpl	r5, [fp, -fp, lsl #18]
    14fc:	0013010b 	andseq	r0, r3, fp, lsl #2
    1500:	82891000 	addhi	r1, r9, #0, 0
    1504:	01110101 	tsteq	r1, r1, lsl #2
    1508:	00001331 	andeq	r1, r0, r1, lsr r3
    150c:	01828a11 	orreq	r8, r2, r1, lsl sl
    1510:	91180200 	tstls	r8, r0, lsl #4
    1514:	00001842 	andeq	r1, r0, r2, asr #16
    1518:	01828912 	orreq	r8, r2, r2, lsl r9
    151c:	31011100 	mrscc	r1, (UNDEF: 17)
    1520:	13000013 	movwne	r0, #19
    1524:	1331010b 	teqne	r1, #-1073741822	; 0xc0000002
    1528:	00001755 	andeq	r1, r0, r5, asr r7
    152c:	31003414 	tstcc	r0, r4, lsl r4
    1530:	15000013 	strne	r0, [r0, #-19]	; 0xffffffed
    1534:	1755010b 	ldrbne	r0, [r5, -fp, lsl #2]
    1538:	1d160000 	ldcne	0, cr0, [r6, #-0]
    153c:	52133101 	andspl	r3, r3, #1073741824	; 0x40000000
    1540:	0b42b801 	bleq	10af54c <__bss_end__+0x10a424c>
    1544:	0b581755 	bleq	16072a0 <__bss_end__+0x15fbfa0>
    1548:	0b570b59 	bleq	15c42b4 <__bss_end__+0x15b8fb4>
    154c:	00001301 	andeq	r1, r0, r1, lsl #6
    1550:	3f012e17 	svccc	0x00012e17
    1554:	3a0e0319 	bcc	3821c0 <__bss_end__+0x376ec0>
    1558:	390b3b0b 	stmdbcc	fp, {r0, r1, r3, r8, r9, fp, ip, sp}
    155c:	2019270b 	andscs	r2, r9, fp, lsl #14
    1560:	0013010b 	andseq	r0, r3, fp, lsl #2
    1564:	00051800 	andeq	r1, r5, r0, lsl #16
    1568:	0b3a0803 	bleq	e8357c <__bss_end__+0xe7827c>
    156c:	0b390b3b 	bleq	e44260 <__bss_end__+0xe38f60>
    1570:	00001349 	andeq	r1, r0, r9, asr #6
    1574:	03003419 	movweq	r3, #1049	; 0x419
    1578:	3b0b3a08 	blcc	2cfda0 <__bss_end__+0x2c4aa0>
    157c:	490b390b 	stmdbmi	fp, {r0, r1, r3, r8, fp, ip, sp}
    1580:	1a000013 	bne	15d4 <__code_start__-0x6a2c>
    1584:	0000010b 	andeq	r0, r0, fp, lsl #2
    1588:	3f012e1b 	svccc	0x00012e1b
    158c:	3a0e0319 	bcc	3821f8 <__bss_end__+0x376ef8>
    1590:	390b3b0b 	stmdbcc	fp, {r0, r1, r3, r8, r9, fp, ip, sp}
    1594:	4919270b 	ldmdbmi	r9, {r0, r1, r3, r8, r9, sl, sp}
    1598:	010b2013 	tsteq	fp, r3, lsl r0
    159c:	1c000013 	stcne	0, cr0, [r0], {19}
    15a0:	193f002e 	ldmdbne	pc!, {r1, r2, r3, r5}	; <UNPREDICTABLE>
    15a4:	0b3a0e03 	bleq	e84db8 <__bss_end__+0xe79ab8>
    15a8:	0b390b3b 	bleq	e4429c <__bss_end__+0xe38f9c>
    15ac:	13491927 	movtne	r1, #39207	; 0x9927
    15b0:	00000b20 	andeq	r0, r0, r0, lsr #22
    15b4:	31012e1d 	tstcc	r1, sp, lsl lr
    15b8:	12011113 	andne	r1, r1, #-1073741820	; 0xc0000004
    15bc:	97184006 	ldrls	r4, [r8, -r6]
    15c0:	13011942 	movwne	r1, #6466	; 0x1942
    15c4:	891e0000 	ldmdbhi	lr, {}	; <UNPREDICTABLE>
    15c8:	11010182 	smlabbne	r1, r2, r1, r0
    15cc:	19429501 	stmdbne	r2, {r0, r8, sl, ip, pc}^
    15d0:	00001331 	andeq	r1, r0, r1, lsr r3
    15d4:	3f002e1f 	svccc	0x00002e1f
    15d8:	6e193c19 	mrcvs	12, 0, r3, cr9, cr9, {0}
    15dc:	3a0e030e 	bcc	38221c <__bss_end__+0x376f1c>
    15e0:	390b3b0b 	stmdbcc	fp, {r0, r1, r3, r8, r9, fp, ip, sp}
    15e4:	0000000b 	andeq	r0, r0, fp
    15e8:	25011101 	strcs	r1, [r1, #-257]	; 0xfffffeff
    15ec:	030b130e 	movweq	r1, #45838	; 0xb30e
    15f0:	110e1b0e 	tstne	lr, lr, lsl #22
    15f4:	10061201 	andne	r1, r6, r1, lsl #4
    15f8:	02000017 	andeq	r0, r0, #23, 0
    15fc:	0b0b0024 	bleq	2c1694 <__bss_end__+0x2b6394>
    1600:	08030b3e 	stmdaeq	r3, {r1, r2, r3, r4, r5, r8, r9, fp}
    1604:	24030000 	strcs	r0, [r3], #-0
    1608:	3e0b0b00 	vmlacc.f64	d0, d11, d0
    160c:	000e030b 	andeq	r0, lr, fp, lsl #6
    1610:	00350400 	eorseq	r0, r5, r0, lsl #8
    1614:	00001349 	andeq	r1, r0, r9, asr #6
    1618:	03001605 	movweq	r1, #1541	; 0x605
    161c:	3b0b3a0e 	blcc	2cfe5c <__bss_end__+0x2c4b5c>
    1620:	490b390b 	stmdbmi	fp, {r0, r1, r3, r8, fp, ip, sp}
    1624:	06000013 			; <UNDEFINED> instruction: 0x06000013
    1628:	0b3e0104 	bleq	f81a40 <__bss_end__+0xf76740>
    162c:	13490b0b 	movtne	r0, #39691	; 0x9b0b
    1630:	0b3b0b3a 	bleq	ec4320 <__bss_end__+0xeb9020>
    1634:	13010b39 	movwne	r0, #6969	; 0x1b39
    1638:	28070000 	stmdacs	r7, {}	; <UNPREDICTABLE>
    163c:	1c0e0300 	stcne	3, cr0, [lr], {-0}
    1640:	0800000b 	stmdaeq	r0, {r0, r1, r3}
    1644:	0e030113 	mcreq	1, 0, r0, cr3, cr3, {0}
    1648:	0b3a0b0b 	bleq	e8427c <__bss_end__+0xe78f7c>
    164c:	0b390b3b 	bleq	e44340 <__bss_end__+0xe39040>
    1650:	00001301 	andeq	r1, r0, r1, lsl #6
    1654:	03000d09 	movweq	r0, #3337	; 0xd09
    1658:	3b0b3a08 	blcc	2cfe80 <__bss_end__+0x2c4b80>
    165c:	490b390b 	stmdbmi	fp, {r0, r1, r3, r8, fp, ip, sp}
    1660:	000b3813 	andeq	r3, fp, r3, lsl r8
    1664:	000d0a00 	andeq	r0, sp, r0, lsl #20
    1668:	0b3a0e03 	bleq	e84e7c <__bss_end__+0xe79b7c>
    166c:	0b390b3b 	bleq	e44360 <__bss_end__+0xe39060>
    1670:	0b381349 	bleq	e0639c <__bss_end__+0xdfb09c>
    1674:	340b0000 	strcc	r0, [fp], #-0
    1678:	3a0e0300 	bcc	382280 <__bss_end__+0x376f80>
    167c:	390b3b0b 	stmdbcc	fp, {r0, r1, r3, r8, r9, fp, ip, sp}
    1680:	1c13490b 			; <UNDEFINED> instruction: 0x1c13490b
    1684:	0c000006 	stceq	0, cr0, [r0], {6}
    1688:	0b0b000f 	bleq	2c16cc <__bss_end__+0x2b63cc>
    168c:	00001349 	andeq	r1, r0, r9, asr #6
    1690:	4900260d 	stmdbmi	r0, {r0, r2, r3, r9, sl, sp}
    1694:	0e000013 	mcreq	0, 0, r0, cr0, cr3, {0}
    1698:	193f012e 	ldmdbne	pc!, {r1, r2, r3, r5, r8}	; <UNPREDICTABLE>
    169c:	0b3a0e03 	bleq	e84eb0 <__bss_end__+0xe79bb0>
    16a0:	0b390b3b 	bleq	e44394 <__bss_end__+0xe39094>
    16a4:	01111927 	tsteq	r1, r7, lsr #18
    16a8:	18400612 	stmdane	r0, {r1, r4, r9, sl}^
    16ac:	01194297 			; <UNDEFINED> instruction: 0x01194297
    16b0:	0f000013 	svceq	0x00000013
    16b4:	00018289 	andeq	r8, r1, r9, lsl #5
    16b8:	13310111 	teqne	r1, #1073741828	; 0x40000004
    16bc:	2e100000 	cdpcs	0, 1, cr0, cr0, cr0, {0}
    16c0:	03193f01 	tsteq	r9, #1, 30
    16c4:	3b0b3a0e 	blcc	2cff04 <__bss_end__+0x2c4c04>
    16c8:	270b390b 	strcs	r3, [fp, -fp, lsl #18]
    16cc:	11134919 	tstne	r3, r9, lsl r9
    16d0:	40061201 	andmi	r1, r6, r1, lsl #4
    16d4:	19429718 	stmdbne	r2, {r3, r4, r8, r9, sl, ip, pc}^
    16d8:	00001301 	andeq	r1, r0, r1, lsl #6
    16dc:	01828911 	orreq	r8, r2, r1, lsl r9
    16e0:	31011101 	tstcc	r1, r1, lsl #2
    16e4:	12000013 	andne	r0, r0, #19, 0
    16e8:	0001828a 	andeq	r8, r1, sl, lsl #5
    16ec:	42911802 	addsmi	r1, r1, #131072	; 0x20000
    16f0:	13000018 	movwne	r0, #24
    16f4:	08030005 	stmdaeq	r3, {r0, r2}
    16f8:	0b3b0b3a 	bleq	ec43e8 <__bss_end__+0xeb90e8>
    16fc:	13490b39 	movtne	r0, #39737	; 0x9b39
    1700:	42b71702 	adcsmi	r1, r7, #524288	; 0x80000
    1704:	14000017 	strne	r0, [r0], #-23	; 0xffffffe9
    1708:	01018289 	smlabbeq	r1, r9, r2, r8
    170c:	13310111 	teqne	r1, #1073741828	; 0x40000004
    1710:	00001301 	andeq	r1, r0, r1, lsl #6
    1714:	03003415 	movweq	r3, #1045	; 0x415
    1718:	3b0b3a08 	blcc	2cff40 <__bss_end__+0x2c4c40>
    171c:	490b390b 	stmdbmi	fp, {r0, r1, r3, r8, fp, ip, sp}
    1720:	b7170213 			; <UNDEFINED> instruction: 0xb7170213
    1724:	00001742 	andeq	r1, r0, r2, asr #14
    1728:	03003416 	movweq	r3, #1046	; 0x416
    172c:	3b0b3a0e 	blcc	2cff6c <__bss_end__+0x2c4c6c>
    1730:	490b390b 	stmdbmi	fp, {r0, r1, r3, r8, fp, ip, sp}
    1734:	00051c13 	andeq	r1, r5, r3, lsl ip
    1738:	012e1700 			; <UNDEFINED> instruction: 0x012e1700
    173c:	0b3a0e03 	bleq	e84f50 <__bss_end__+0xe79c50>
    1740:	0b390b3b 	bleq	e44434 <__bss_end__+0xe39134>
    1744:	01111927 	tsteq	r1, r7, lsr #18
    1748:	18400612 	stmdane	r0, {r1, r4, r9, sl}^
    174c:	01194297 			; <UNDEFINED> instruction: 0x01194297
    1750:	18000013 	stmdane	r0, {r0, r1, r4}
    1754:	0e030005 	cdpeq	0, 0, cr0, cr3, cr5, {0}
    1758:	0b3b0b3a 	bleq	ec4448 <__bss_end__+0xeb9148>
    175c:	13490b39 	movtne	r0, #39737	; 0x9b39
    1760:	42b71702 	adcsmi	r1, r7, #524288	; 0x80000
    1764:	19000017 	stmdbne	r0, {r0, r1, r2, r4}
    1768:	00000035 	andeq	r0, r0, r5, lsr r0
    176c:	3f002e1a 	svccc	0x00002e1a
    1770:	6e193c19 	mrcvs	12, 0, r3, cr9, cr9, {0}
    1774:	3a0e030e 	bcc	3823b4 <__bss_end__+0x3770b4>
    1778:	390b3b0b 	stmdbcc	fp, {r0, r1, r3, r8, r9, fp, ip, sp}
    177c:	0000000b 	andeq	r0, r0, fp
    1780:	25011101 	strcs	r1, [r1, #-257]	; 0xfffffeff
    1784:	030b130e 	movweq	r1, #45838	; 0xb30e
    1788:	110e1b0e 	tstne	lr, lr, lsl #22
    178c:	10061201 	andne	r1, r6, r1, lsl #4
    1790:	02000017 	andeq	r0, r0, #23, 0
    1794:	0b0b0024 	bleq	2c182c <__bss_end__+0x2b652c>
    1798:	08030b3e 	stmdaeq	r3, {r1, r2, r3, r4, r5, r8, r9, fp}
    179c:	24030000 	strcs	r0, [r3], #-0
    17a0:	3e0b0b00 	vmlacc.f64	d0, d11, d0
    17a4:	000e030b 	andeq	r0, lr, fp, lsl #6
    17a8:	00160400 	andseq	r0, r6, r0, lsl #8
    17ac:	0b3a0e03 	bleq	e84fc0 <__bss_end__+0xe79cc0>
    17b0:	0b390b3b 	bleq	e444a4 <__bss_end__+0xe391a4>
    17b4:	00001349 	andeq	r1, r0, r9, asr #6
    17b8:	49002605 	stmdbmi	r0, {r0, r2, r9, sl, sp}
    17bc:	06000013 			; <UNDEFINED> instruction: 0x06000013
    17c0:	0b0b000f 	bleq	2c1804 <__bss_end__+0x2b6504>
    17c4:	04070000 	streq	r0, [r7], #-0
    17c8:	0b0b3e01 	bleq	2d0fd4 <__bss_end__+0x2c5cd4>
    17cc:	3a13490b 	bcc	4d3c00 <__bss_end__+0x4c8900>
    17d0:	390b3b0b 	stmdbcc	fp, {r0, r1, r3, r8, r9, fp, ip, sp}
    17d4:	0013010b 	andseq	r0, r3, fp, lsl #2
    17d8:	00280800 	eoreq	r0, r8, r0, lsl #16
    17dc:	061c0e03 	ldreq	r0, [ip], -r3, lsl #28
    17e0:	34090000 	strcc	r0, [r9], #-0
    17e4:	3a0e0300 	bcc	3823ec <__bss_end__+0x3770ec>
    17e8:	390b3b0b 	stmdbcc	fp, {r0, r1, r3, r8, r9, fp, ip, sp}
    17ec:	3f13490b 	svccc	0x0013490b
    17f0:	00193c19 	andseq	r3, r9, r9, lsl ip
    17f4:	00340a00 	eorseq	r0, r4, r0, lsl #20
    17f8:	0b3a0e03 	bleq	e8500c <__bss_end__+0xe79d0c>
    17fc:	0b390b3b 	bleq	e444f0 <__bss_end__+0xe391f0>
    1800:	18021349 	stmdane	r2, {r0, r3, r6, r8, r9, ip}
    1804:	0f0b0000 	svceq	0x000b0000
    1808:	490b0b00 	stmdbmi	fp, {r8, r9, fp}
    180c:	0c000013 	stceq	0, cr0, [r0], {19}
    1810:	193f012e 	ldmdbne	pc!, {r1, r2, r3, r5, r8}	; <UNPREDICTABLE>
    1814:	0b3a0e03 	bleq	e85028 <__bss_end__+0xe79d28>
    1818:	0b390b3b 	bleq	e4450c <__bss_end__+0xe3920c>
    181c:	01111927 	tsteq	r1, r7, lsr #18
    1820:	18400612 	stmdane	r0, {r1, r4, r9, sl}^
    1824:	01194297 			; <UNDEFINED> instruction: 0x01194297
    1828:	0d000013 	stceq	0, cr0, [r0, #-76]	; 0xffffffb4
    182c:	08030005 	stmdaeq	r3, {r0, r2}
    1830:	0b3b0b3a 	bleq	ec4520 <__bss_end__+0xeb9220>
    1834:	13490b39 	movtne	r0, #39737	; 0x9b39
    1838:	42b71702 	adcsmi	r1, r7, #524288	; 0x80000
    183c:	0e000017 	mcreq	0, 0, r0, cr0, cr7, {0}
    1840:	0e030034 	mcreq	0, 0, r0, cr3, cr4, {1}
    1844:	19341349 	ldmdbne	r4!, {r0, r3, r6, r8, r9, ip}
    1848:	00001802 	andeq	r1, r0, r2, lsl #16
    184c:	0182890f 	orreq	r8, r2, pc, lsl #18
    1850:	31011101 	tstcc	r1, r1, lsl #2
    1854:	00130113 	andseq	r0, r3, r3, lsl r1
    1858:	828a1000 	addhi	r1, sl, #0, 0
    185c:	18020001 	stmdane	r2, {r0}
    1860:	00184291 	mulseq	r8, r1, r2
    1864:	82891100 	addhi	r1, r9, #0
    1868:	01110001 	tsteq	r1, r1
    186c:	00001331 	andeq	r1, r0, r1, lsr r3
    1870:	49010112 	stmdbmi	r1, {r1, r4, r8}
    1874:	00130113 	andseq	r0, r3, r3, lsl r1
    1878:	00211300 	eoreq	r1, r1, r0, lsl #6
    187c:	0b2f1349 	bleq	bc65a8 <__bss_end__+0xbbb2a8>
    1880:	2e140000 	cdpcs	0, 1, cr0, cr4, cr0, {0}
    1884:	03193f00 	tsteq	r9, #0, 30
    1888:	3b0b3a0e 	blcc	2d00c8 <__bss_end__+0x2c4dc8>
    188c:	270b390b 	strcs	r3, [fp, -fp, lsl #18]
    1890:	12011119 	andne	r1, r1, #1073741830	; 0x40000006
    1894:	97184006 	ldrls	r4, [r8, -r6]
    1898:	00001942 	andeq	r1, r0, r2, asr #18
    189c:	03000515 	movweq	r0, #1301	; 0x515
    18a0:	3b0b3a08 	blcc	2d00c8 <__bss_end__+0x2c4dc8>
    18a4:	490b390b 	stmdbmi	fp, {r0, r1, r3, r8, fp, ip, sp}
    18a8:	00180213 	andseq	r0, r8, r3, lsl r2
    18ac:	012e1600 			; <UNDEFINED> instruction: 0x012e1600
    18b0:	0e03193f 			; <UNDEFINED> instruction: 0x0e03193f
    18b4:	0b3b0b3a 	bleq	ec45a4 <__bss_end__+0xeb92a4>
    18b8:	19270b39 	stmdbne	r7!, {r0, r3, r4, r5, r8, r9, fp}
    18bc:	01111349 	tsteq	r1, r9, asr #6
    18c0:	18400612 	stmdane	r0, {r1, r4, r9, sl}^
    18c4:	01194297 			; <UNDEFINED> instruction: 0x01194297
    18c8:	17000013 	smladne	r0, r3, r0, r0
    18cc:	0e030005 	cdpeq	0, 0, cr0, cr3, cr5, {0}
    18d0:	0b3b0b3a 	bleq	ec45c0 <__bss_end__+0xeb92c0>
    18d4:	13490b39 	movtne	r0, #39737	; 0x9b39
    18d8:	42b71702 	adcsmi	r1, r7, #524288	; 0x80000
    18dc:	18000017 	stmdane	r0, {r0, r1, r2, r4}
    18e0:	08030034 	stmdaeq	r3, {r2, r4, r5}
    18e4:	0b3b0b3a 	bleq	ec45d4 <__bss_end__+0xeb92d4>
    18e8:	13490b39 	movtne	r0, #39737	; 0x9b39
    18ec:	42b71702 	adcsmi	r1, r7, #524288	; 0x80000
    18f0:	19000017 	stmdbne	r0, {r0, r1, r2, r4}
    18f4:	1331011d 	teqne	r1, #1073741831	; 0x40000007
    18f8:	42b80152 	adcsmi	r0, r8, #-2147483628	; 0x80000014
    18fc:	1201110b 	andne	r1, r1, #-1073741822	; 0xc0000002
    1900:	590b5806 	stmdbpl	fp, {r1, r2, fp, ip, lr}
    1904:	010b570b 	tsteq	fp, fp, lsl #14
    1908:	1a000013 	bne	195c <__code_start__-0x66a4>
    190c:	13310005 	teqne	r1, #5, 0
    1910:	42b71702 	adcsmi	r1, r7, #524288	; 0x80000
    1914:	1b000017 	blne	1978 <__code_start__-0x6688>
    1918:	1331011d 	teqne	r1, #1073741831	; 0x40000007
    191c:	42b80152 	adcsmi	r0, r8, #-2147483628	; 0x80000014
    1920:	5817550b 	ldmdapl	r7, {r0, r1, r3, r8, sl, ip, lr}
    1924:	570b590b 	strpl	r5, [fp, -fp, lsl #18]
    1928:	0013010b 	andseq	r0, r3, fp, lsl #2
    192c:	010b1c00 	tsteq	fp, r0, lsl #24
    1930:	00001755 	andeq	r1, r0, r5, asr r7
    1934:	0300341d 	movweq	r3, #1053	; 0x41d
    1938:	3b0b3a0e 	blcc	2d0178 <__bss_end__+0x2c4e78>
    193c:	490b390b 	stmdbmi	fp, {r0, r1, r3, r8, fp, ip, sp}
    1940:	b7170213 			; <UNDEFINED> instruction: 0xb7170213
    1944:	00001742 	andeq	r1, r0, r2, asr #14
    1948:	55000b1e 	strpl	r0, [r0, #-2846]	; 0xfffff4e2
    194c:	1f000017 	svcne	0x00000017
    1950:	193f002e 	ldmdbne	pc!, {r1, r2, r3, r5}	; <UNPREDICTABLE>
    1954:	0b3a0e03 	bleq	e85168 <__bss_end__+0xe79e68>
    1958:	0b390b3b 	bleq	e4464c <__bss_end__+0xe3934c>
    195c:	13491927 	movtne	r1, #39207	; 0x9927
    1960:	06120111 			; <UNDEFINED> instruction: 0x06120111
    1964:	42971840 	addsmi	r1, r7, #64, 16	; 0x400000
    1968:	20000019 	andcs	r0, r0, r9, lsl r0
    196c:	0e03012e 	adfeqsp	f0, f3, #0.5
    1970:	0b3b0b3a 	bleq	ec4660 <__bss_end__+0xeb9360>
    1974:	19270b39 	stmdbne	r7!, {r0, r3, r4, r5, r8, r9, fp}
    1978:	0b201349 	bleq	8066a4 <__bss_end__+0x7fb3a4>
    197c:	00001301 	andeq	r1, r0, r1, lsl #6
    1980:	03000521 	movweq	r0, #1313	; 0x521
    1984:	3b0b3a08 	blcc	2d01ac <__bss_end__+0x2c4eac>
    1988:	490b390b 	stmdbmi	fp, {r0, r1, r3, r8, fp, ip, sp}
    198c:	22000013 	andcs	r0, r0, #19, 0
    1990:	193f002e 	ldmdbne	pc!, {r1, r2, r3, r5}	; <UNPREDICTABLE>
    1994:	0e6e193c 			; <UNDEFINED> instruction: 0x0e6e193c
    1998:	0b3a0e03 	bleq	e851ac <__bss_end__+0xe79eac>
    199c:	0b390b3b 	bleq	e44690 <__bss_end__+0xe39390>
    19a0:	01000000 	mrseq	r0, (UNDEF: 0)
    19a4:	0e250111 	mcreq	1, 1, r0, cr5, cr1, {0}
    19a8:	0e030b13 	vmoveq.32	d3[0], r0
    19ac:	01110e1b 	tsteq	r1, fp, lsl lr
    19b0:	17100612 			; <UNDEFINED> instruction: 0x17100612
    19b4:	24020000 	strcs	r0, [r2], #-0
    19b8:	3e0b0b00 	vmlacc.f64	d0, d11, d0
    19bc:	000e030b 	andeq	r0, lr, fp, lsl #6
    19c0:	00240300 	eoreq	r0, r4, r0, lsl #6
    19c4:	0b3e0b0b 	bleq	f845f8 <__bss_end__+0xf792f8>
    19c8:	00000803 	andeq	r0, r0, r3, lsl #16
    19cc:	49002604 	stmdbmi	r0, {r2, r9, sl, sp}
    19d0:	05000013 	streq	r0, [r0, #-19]	; 0xffffffed
    19d4:	0e030016 	mcreq	0, 0, r0, cr3, cr6, {0}
    19d8:	0b3b0b3a 	bleq	ec46c8 <__bss_end__+0xeb93c8>
    19dc:	13490b39 	movtne	r0, #39737	; 0x9b39
    19e0:	15060000 	strne	r0, [r6, #-0]
    19e4:	49192701 	ldmdbmi	r9, {r0, r8, r9, sl, sp}
    19e8:	00130113 	andseq	r0, r3, r3, lsl r1
    19ec:	00050700 	andeq	r0, r5, r0, lsl #14
    19f0:	00001349 	andeq	r1, r0, r9, asr #6
    19f4:	03003408 	movweq	r3, #1032	; 0x408
    19f8:	3b0b3a0e 	blcc	2d0238 <__bss_end__+0x2c4f38>
    19fc:	490b390b 	stmdbmi	fp, {r0, r1, r3, r8, fp, ip, sp}
    1a00:	3c193f13 	ldccc	15, cr3, [r9], {19}
    1a04:	09000019 	stmdbeq	r0, {r0, r3, r4}
    1a08:	0b0b000f 	bleq	2c1a4c <__bss_end__+0x2b674c>
    1a0c:	00001349 	andeq	r1, r0, r9, asr #6
    1a10:	3e01040a 	cdpcc	4, 0, cr0, cr1, cr10, {0}
    1a14:	490b0b0b 	stmdbmi	fp, {r0, r1, r3, r8, r9, fp}
    1a18:	3b0b3a13 	blcc	2d026c <__bss_end__+0x2c4f6c>
    1a1c:	010b390b 	tsteq	fp, fp, lsl #18
    1a20:	0b000013 	bleq	1a74 <__code_start__-0x658c>
    1a24:	0e030028 	cdpeq	0, 0, cr0, cr3, cr8, {1}
    1a28:	00000b1c 	andeq	r0, r0, ip, lsl fp
    1a2c:	0300340c 	movweq	r3, #1036	; 0x40c
    1a30:	3b0b3a0e 	blcc	2d0270 <__bss_end__+0x2c4f70>
    1a34:	490b390b 	stmdbmi	fp, {r0, r1, r3, r8, fp, ip, sp}
    1a38:	00061c13 	andeq	r1, r6, r3, lsl ip
    1a3c:	012e0d00 			; <UNDEFINED> instruction: 0x012e0d00
    1a40:	0e03193f 			; <UNDEFINED> instruction: 0x0e03193f
    1a44:	0b3b0b3a 	bleq	ec4734 <__bss_end__+0xeb9434>
    1a48:	19270b39 	stmdbne	r7!, {r0, r3, r4, r5, r8, r9, fp}
    1a4c:	01111349 	tsteq	r1, r9, asr #6
    1a50:	18400612 	stmdane	r0, {r1, r4, r9, sl}^
    1a54:	01194297 			; <UNDEFINED> instruction: 0x01194297
    1a58:	0e000013 	mcreq	0, 0, r0, cr0, cr3, {0}
    1a5c:	08030005 	stmdaeq	r3, {r0, r2}
    1a60:	0b3b0b3a 	bleq	ec4750 <__bss_end__+0xeb9450>
    1a64:	13490b39 	movtne	r0, #39737	; 0x9b39
    1a68:	42b71702 	adcsmi	r1, r7, #524288	; 0x80000
    1a6c:	0f000017 	svceq	0x00000017
    1a70:	0e030034 	mcreq	0, 0, r0, cr3, cr4, {1}
    1a74:	0b3b0b3a 	bleq	ec4764 <__bss_end__+0xeb9464>
    1a78:	13490b39 	movtne	r0, #39737	; 0x9b39
    1a7c:	42b71702 	adcsmi	r1, r7, #524288	; 0x80000
    1a80:	10000017 	andne	r0, r0, r7, lsl r0
    1a84:	08030034 	stmdaeq	r3, {r2, r4, r5}
    1a88:	0b3b0b3a 	bleq	ec4778 <__bss_end__+0xeb9478>
    1a8c:	13490b39 	movtne	r0, #39737	; 0x9b39
    1a90:	42b71702 	adcsmi	r1, r7, #524288	; 0x80000
    1a94:	11000017 	tstne	r0, r7, lsl r0
    1a98:	01018289 	smlabbeq	r1, r9, r2, r8
    1a9c:	13310111 	teqne	r1, #1073741828	; 0x40000004
    1aa0:	8a120000 	bhi	481aa8 <__bss_end__+0x4767a8>
    1aa4:	02000182 	andeq	r0, r0, #-2147483616	; 0x80000020
    1aa8:	18429118 	stmdane	r2, {r3, r4, r8, ip, pc}^
    1aac:	2e130000 	cdpcs	0, 1, cr0, cr3, cr0, {0}
    1ab0:	03193f01 	tsteq	r9, #1, 30
    1ab4:	3b0b3a0e 	blcc	2d02f4 <__bss_end__+0x2c4ff4>
    1ab8:	270b390b 	strcs	r3, [fp, -fp, lsl #18]
    1abc:	12011119 	andne	r1, r1, #1073741830	; 0x40000006
    1ac0:	97184006 	ldrls	r4, [r8, -r6]
    1ac4:	13011942 	movwne	r1, #6466	; 0x1942
    1ac8:	1d140000 	ldcne	0, cr0, [r4, #-0]
    1acc:	52133101 	andspl	r3, r3, #1073741824	; 0x40000000
    1ad0:	0b42b801 	bleq	10afadc <__bss_end__+0x10a47dc>
    1ad4:	0b581755 	bleq	1607830 <__bss_end__+0x15fc530>
    1ad8:	0b570b59 	bleq	15c4844 <__bss_end__+0x15b9544>
    1adc:	00001301 	andeq	r1, r0, r1, lsl #6
    1ae0:	31000515 	tstcc	r0, r5, lsl r5
    1ae4:	b7170213 			; <UNDEFINED> instruction: 0xb7170213
    1ae8:	00001742 	andeq	r1, r0, r2, asr #14
    1aec:	01828916 	orreq	r8, r2, r6, lsl r9
    1af0:	95011101 	strls	r1, [r1, #-257]	; 0xfffffeff
    1af4:	13311942 	teqne	r1, #1081344	; 0x108000
    1af8:	1d170000 	ldcne	0, cr0, [r7, #-0]
    1afc:	52133101 	andspl	r3, r3, #1073741824	; 0x40000000
    1b00:	0b42b801 	bleq	10afb0c <__bss_end__+0x10a480c>
    1b04:	06120111 			; <UNDEFINED> instruction: 0x06120111
    1b08:	0b590b58 	bleq	1644870 <__bss_end__+0x1639570>
    1b0c:	00000b57 	andeq	r0, r0, r7, asr fp
    1b10:	31011d18 	tstcc	r1, r8, lsl sp
    1b14:	b8015213 	stmdalt	r1, {r0, r1, r4, r9, ip, lr}
    1b18:	17550b42 	ldrbne	r0, [r5, -r2, asr #22]
    1b1c:	0b590b58 	bleq	1644884 <__bss_end__+0x1639584>
    1b20:	00000b57 	andeq	r0, r0, r7, asr fp
    1b24:	31000519 	tstcc	r0, r9, lsl r5
    1b28:	000b1c13 	andeq	r1, fp, r3, lsl ip
    1b2c:	010b1a00 	tsteq	fp, r0, lsl #20
    1b30:	00001755 	andeq	r1, r0, r5, asr r7
    1b34:	3100341b 	tstcc	r0, fp, lsl r4
    1b38:	1c000013 	stcne	0, cr0, [r0], {19}
    1b3c:	13310034 	teqne	r1, #52, 0	; 0x34
    1b40:	42b71702 	adcsmi	r1, r7, #524288	; 0x80000
    1b44:	1d000017 	stcne	0, cr0, [r0, #-92]	; 0xffffffa4
    1b48:	01018289 	smlabbeq	r1, r9, r2, r8
    1b4c:	13310111 	teqne	r1, #1073741828	; 0x40000004
    1b50:	00001301 	andeq	r1, r0, r1, lsl #6
    1b54:	3f012e1e 	svccc	0x00012e1e
    1b58:	3a0e0319 	bcc	3827c4 <__bss_end__+0x3774c4>
    1b5c:	390b3b0b 	stmdbcc	fp, {r0, r1, r3, r8, r9, fp, ip, sp}
    1b60:	2019270b 	andscs	r2, r9, fp, lsl #14
    1b64:	0013010b 	andseq	r0, r3, fp, lsl #2
    1b68:	00051f00 	andeq	r1, r5, r0, lsl #30
    1b6c:	0b3a0803 	bleq	e83b80 <__bss_end__+0xe78880>
    1b70:	0b390b3b 	bleq	e44864 <__bss_end__+0xe39564>
    1b74:	00001349 	andeq	r1, r0, r9, asr #6
    1b78:	03000520 	movweq	r0, #1312	; 0x520
    1b7c:	3b0b3a0e 	blcc	2d03bc <__bss_end__+0x2c50bc>
    1b80:	490b390b 	stmdbmi	fp, {r0, r1, r3, r8, fp, ip, sp}
    1b84:	21000013 	tstcs	r0, r3, lsl r0
    1b88:	08030034 	stmdaeq	r3, {r2, r4, r5}
    1b8c:	0b3b0b3a 	bleq	ec487c <__bss_end__+0xeb957c>
    1b90:	13490b39 	movtne	r0, #39737	; 0x9b39
    1b94:	2e220000 	cdpcs	0, 2, cr0, cr2, cr0, {0}
    1b98:	3a0e0301 	bcc	3827a4 <__bss_end__+0x3774a4>
    1b9c:	390b3b0b 	stmdbcc	fp, {r0, r1, r3, r8, r9, fp, ip, sp}
    1ba0:	4919270b 	ldmdbmi	r9, {r0, r1, r3, r8, r9, sl, sp}
    1ba4:	010b2013 	tsteq	fp, r3, lsl r0
    1ba8:	23000013 	movwcs	r0, #19
    1bac:	1331012e 	teqne	r1, #-2147483637	; 0x8000000b
    1bb0:	06120111 			; <UNDEFINED> instruction: 0x06120111
    1bb4:	42971840 	addsmi	r1, r7, #64, 16	; 0x400000
    1bb8:	00130119 	andseq	r0, r3, r9, lsl r1
    1bbc:	002e2400 	eoreq	r2, lr, r0, lsl #8
    1bc0:	193c193f 	ldmdbne	ip!, {r0, r1, r2, r3, r4, r5, r8, fp, ip}
    1bc4:	0e030e6e 	cdpeq	14, 0, cr0, cr3, cr14, {3}
    1bc8:	0b3b0b3a 	bleq	ec48b8 <__bss_end__+0xeb95b8>
    1bcc:	00000b39 	andeq	r0, r0, r9, lsr fp
    1bd0:	01110100 	tsteq	r1, r0, lsl #2
    1bd4:	0b130e25 	bleq	4c5470 <__bss_end__+0x4ba170>
    1bd8:	0e1b0e03 	cdpeq	14, 1, cr0, cr11, cr3, {0}
    1bdc:	06120111 			; <UNDEFINED> instruction: 0x06120111
    1be0:	00001710 	andeq	r1, r0, r0, lsl r7
    1be4:	0b002402 	bleq	abf4 <__FUNCTION__.4136+0xe8>
    1be8:	030b3e0b 	movweq	r3, #48651	; 0xbe0b
    1bec:	03000008 	movweq	r0, #8
    1bf0:	0b0b0024 	bleq	2c1c88 <__bss_end__+0x2b6988>
    1bf4:	0e030b3e 	vmoveq.16	d3[0], r0
    1bf8:	15040000 	strne	r0, [r4, #-0]
    1bfc:	49192701 	ldmdbmi	r9, {r0, r8, r9, sl, sp}
    1c00:	00130113 	andseq	r0, r3, r3, lsl r1
    1c04:	00050500 	andeq	r0, r5, r0, lsl #10
    1c08:	00001349 	andeq	r1, r0, r9, asr #6
    1c0c:	03003406 	movweq	r3, #1030	; 0x406
    1c10:	3b0b3a0e 	blcc	2d0450 <__bss_end__+0x2c5150>
    1c14:	490b390b 	stmdbmi	fp, {r0, r1, r3, r8, fp, ip, sp}
    1c18:	3c193f13 	ldccc	15, cr3, [r9], {19}
    1c1c:	07000019 	smladeq	r0, r9, r0, r0
    1c20:	0b0b000f 	bleq	2c1c64 <__bss_end__+0x2b6964>
    1c24:	00001349 	andeq	r1, r0, r9, asr #6
    1c28:	49002608 	stmdbmi	r0, {r3, r9, sl, sp}
    1c2c:	09000013 	stmdbeq	r0, {r0, r1, r4}
    1c30:	13470034 	movtne	r0, #28724	; 0x7034
    1c34:	0b3b0b3a 	bleq	ec4924 <__bss_end__+0xeb9624>
    1c38:	18020b39 	stmdane	r2, {r0, r3, r4, r5, r8, r9, fp}
    1c3c:	2e0a0000 	cdpcs	0, 0, cr0, cr10, cr0, {0}
    1c40:	03193f01 	tsteq	r9, #1, 30
    1c44:	3b0b3a0e 	blcc	2d0484 <__bss_end__+0x2c5184>
    1c48:	270b390b 	strcs	r3, [fp, -fp, lsl #18]
    1c4c:	12011119 	andne	r1, r1, #1073741830	; 0x40000006
    1c50:	97184006 	ldrls	r4, [r8, -r6]
    1c54:	13011942 	movwne	r1, #6466	; 0x1942
    1c58:	050b0000 	streq	r0, [fp, #-0]
    1c5c:	3a080300 	bcc	202864 <__bss_end__+0x1f7564>
    1c60:	390b3b0b 	stmdbcc	fp, {r0, r1, r3, r8, r9, fp, ip, sp}
    1c64:	0213490b 	andseq	r4, r3, #180224	; 0x2c000
    1c68:	0c000018 	stceq	0, cr0, [r0], {24}
    1c6c:	193f002e 	ldmdbne	pc!, {r1, r2, r3, r5}	; <UNPREDICTABLE>
    1c70:	0b3a0e03 	bleq	e85484 <__bss_end__+0xe7a184>
    1c74:	0b390b3b 	bleq	e44968 <__bss_end__+0xe39668>
    1c78:	01111927 	tsteq	r1, r7, lsr #18
    1c7c:	18400612 	stmdane	r0, {r1, r4, r9, sl}^
    1c80:	00194297 	mulseq	r9, r7, r2
    1c84:	012e0d00 			; <UNDEFINED> instruction: 0x012e0d00
    1c88:	0b3a0e03 	bleq	e8549c <__bss_end__+0xe7a19c>
    1c8c:	0b390b3b 	bleq	e44980 <__bss_end__+0xe39680>
    1c90:	13491927 	movtne	r1, #39207	; 0x9927
    1c94:	06120111 			; <UNDEFINED> instruction: 0x06120111
    1c98:	42971840 	addsmi	r1, r7, #64, 16	; 0x400000
    1c9c:	00130119 	andseq	r0, r3, r9, lsl r1
    1ca0:	00050e00 	andeq	r0, r5, r0, lsl #28
    1ca4:	0b3a0803 	bleq	e83cb8 <__bss_end__+0xe789b8>
    1ca8:	0b390b3b 	bleq	e4499c <__bss_end__+0xe3969c>
    1cac:	17021349 	strne	r1, [r2, -r9, asr #6]
    1cb0:	001742b7 			; <UNDEFINED> instruction: 0x001742b7
    1cb4:	82890f00 	addhi	r0, r9, #0, 30
    1cb8:	01110101 	tsteq	r1, r1, lsl #2
    1cbc:	00001331 	andeq	r1, r0, r1, lsr r3
    1cc0:	01828a10 	orreq	r8, r2, r0, lsl sl
    1cc4:	91180200 	tstls	r8, r0, lsl #4
    1cc8:	00001842 	andeq	r1, r0, r2, asr #16
    1ccc:	3f002e11 	svccc	0x00002e11
    1cd0:	6e193c19 	mrcvs	12, 0, r3, cr9, cr9, {0}
    1cd4:	3a0e030e 	bcc	382914 <__bss_end__+0x377614>
    1cd8:	390b3b0b 	stmdbcc	fp, {r0, r1, r3, r8, r9, fp, ip, sp}
    1cdc:	0000000b 	andeq	r0, r0, fp
    1ce0:	25011101 	strcs	r1, [r1, #-257]	; 0xfffffeff
    1ce4:	030b130e 	movweq	r1, #45838	; 0xb30e
    1ce8:	110e1b0e 	tstne	lr, lr, lsl #22
    1cec:	10061201 	andne	r1, r6, r1, lsl #4
    1cf0:	02000017 	andeq	r0, r0, #23, 0
    1cf4:	0b0b0024 	bleq	2c1d8c <__bss_end__+0x2b6a8c>
    1cf8:	08030b3e 	stmdaeq	r3, {r1, r2, r3, r4, r5, r8, r9, fp}
    1cfc:	24030000 	strcs	r0, [r3], #-0
    1d00:	3e0b0b00 	vmlacc.f64	d0, d11, d0
    1d04:	000e030b 	andeq	r0, lr, fp, lsl #6
    1d08:	01150400 	tsteq	r5, r0, lsl #8
    1d0c:	13491927 	movtne	r1, #39207	; 0x9927
    1d10:	00001301 	andeq	r1, r0, r1, lsl #6
    1d14:	49000505 	stmdbmi	r0, {r0, r2, r8, sl}
    1d18:	06000013 			; <UNDEFINED> instruction: 0x06000013
    1d1c:	0e030034 	mcreq	0, 0, r0, cr3, cr4, {1}
    1d20:	0b3b0b3a 	bleq	ec4a10 <__bss_end__+0xeb9710>
    1d24:	13490b39 	movtne	r0, #39737	; 0x9b39
    1d28:	193c193f 	ldmdbne	ip!, {r0, r1, r2, r3, r4, r5, r8, fp, ip}
    1d2c:	0f070000 	svceq	0x00070000
    1d30:	490b0b00 	stmdbmi	fp, {r8, r9, fp}
    1d34:	08000013 	stmdaeq	r0, {r0, r1, r4}
    1d38:	13490026 	movtne	r0, #36902	; 0x9026
    1d3c:	2e090000 	cdpcs	0, 0, cr0, cr9, cr0, {0}
    1d40:	03193f01 	tsteq	r9, #1, 30
    1d44:	3b0b3a0e 	blcc	2d0584 <__bss_end__+0x2c5284>
    1d48:	270b390b 	strcs	r3, [fp, -fp, lsl #18]
    1d4c:	11134919 	tstne	r3, r9, lsl r9
    1d50:	40061201 	andmi	r1, r6, r1, lsl #4
    1d54:	19429718 	stmdbne	r2, {r3, r4, r8, r9, sl, ip, pc}^
    1d58:	00001301 	andeq	r1, r0, r1, lsl #6
    1d5c:	0300050a 	movweq	r0, #1290	; 0x50a
    1d60:	3b0b3a0e 	blcc	2d05a0 <__bss_end__+0x2c52a0>
    1d64:	490b390b 	stmdbmi	fp, {r0, r1, r3, r8, fp, ip, sp}
    1d68:	00180213 	andseq	r0, r8, r3, lsl r2
    1d6c:	00050b00 	andeq	r0, r5, r0, lsl #22
    1d70:	0b3a0803 	bleq	e83d84 <__bss_end__+0xe78a84>
    1d74:	0b390b3b 	bleq	e44a68 <__bss_end__+0xe39768>
    1d78:	17021349 	strne	r1, [r2, -r9, asr #6]
    1d7c:	001742b7 			; <UNDEFINED> instruction: 0x001742b7
    1d80:	00340c00 	eorseq	r0, r4, r0, lsl #24
    1d84:	0b3a0803 	bleq	e83d98 <__bss_end__+0xe78a98>
    1d88:	0b390b3b 	bleq	e44a7c <__bss_end__+0xe3977c>
    1d8c:	17021349 	strne	r1, [r2, -r9, asr #6]
    1d90:	001742b7 			; <UNDEFINED> instruction: 0x001742b7
    1d94:	11010000 	mrsne	r0, (UNDEF: 1)
    1d98:	130e2501 	movwne	r2, #58625	; 0xe501
    1d9c:	1b0e030b 	blne	3829d0 <__bss_end__+0x3776d0>
    1da0:	1201110e 	andne	r1, r1, #-2147483645	; 0x80000003
    1da4:	00171006 	andseq	r1, r7, r6
    1da8:	00240200 	eoreq	r0, r4, r0, lsl #4
    1dac:	0b3e0b0b 	bleq	f849e0 <__bss_end__+0xf796e0>
    1db0:	00000803 	andeq	r0, r0, r3, lsl #16
    1db4:	0b002403 	bleq	adc8 <__FUNCTION__.4030+0x140>
    1db8:	030b3e0b 	movweq	r3, #48651	; 0xbe0b
    1dbc:	0400000e 	streq	r0, [r0], #-14
    1dc0:	19270115 	stmdbne	r7!, {r0, r2, r4, r8}
    1dc4:	13011349 	movwne	r1, #4937	; 0x1349
    1dc8:	05050000 	streq	r0, [r5, #-0]
    1dcc:	00134900 	andseq	r4, r3, r0, lsl #18
    1dd0:	00340600 	eorseq	r0, r4, r0, lsl #12
    1dd4:	0b3a0e03 	bleq	e855e8 <__bss_end__+0xe7a2e8>
    1dd8:	0b390b3b 	bleq	e44acc <__bss_end__+0xe397cc>
    1ddc:	193f1349 	ldmdbne	pc!, {r0, r3, r6, r8, r9, ip}	; <UNPREDICTABLE>
    1de0:	0000193c 	andeq	r1, r0, ip, lsr r9
    1de4:	0b000f07 	bleq	5a08 <__code_start__-0x25f8>
    1de8:	0013490b 	andseq	r4, r3, fp, lsl #18
    1dec:	00260800 	eoreq	r0, r6, r0, lsl #16
    1df0:	00001349 	andeq	r1, r0, r9, asr #6
    1df4:	3f012e09 	svccc	0x00012e09
    1df8:	3a0e0319 	bcc	382a64 <__bss_end__+0x377764>
    1dfc:	390b3b0b 	stmdbcc	fp, {r0, r1, r3, r8, r9, fp, ip, sp}
    1e00:	4919270b 	ldmdbmi	r9, {r0, r1, r3, r8, r9, sl, sp}
    1e04:	12011113 	andne	r1, r1, #-1073741820	; 0xc0000004
    1e08:	97184006 	ldrls	r4, [r8, -r6]
    1e0c:	00001942 	andeq	r1, r0, r2, asr #18
    1e10:	0300050a 	movweq	r0, #1290	; 0x50a
    1e14:	3b0b3a08 	blcc	2d063c <__bss_end__+0x2c533c>
    1e18:	490b390b 	stmdbmi	fp, {r0, r1, r3, r8, fp, ip, sp}
    1e1c:	b7170213 			; <UNDEFINED> instruction: 0xb7170213
    1e20:	00001742 	andeq	r1, r0, r2, asr #14
    1e24:	01110100 	tsteq	r1, r0, lsl #2
    1e28:	0b130e25 	bleq	4c56c4 <__bss_end__+0x4ba3c4>
    1e2c:	0e1b0e03 	cdpeq	14, 1, cr0, cr11, cr3, {0}
    1e30:	06120111 			; <UNDEFINED> instruction: 0x06120111
    1e34:	00001710 	andeq	r1, r0, r0, lsl r7
    1e38:	0b002402 	bleq	ae48 <__FUNCTION__.4030+0x1c0>
    1e3c:	030b3e0b 	movweq	r3, #48651	; 0xbe0b
    1e40:	03000008 	movweq	r0, #8
    1e44:	0b0b0024 	bleq	2c1edc <__bss_end__+0x2b6bdc>
    1e48:	0e030b3e 	vmoveq.16	d3[0], r0
    1e4c:	15040000 	strne	r0, [r4, #-0]
    1e50:	49192701 	ldmdbmi	r9, {r0, r8, r9, sl, sp}
    1e54:	00130113 	andseq	r0, r3, r3, lsl r1
    1e58:	00050500 	andeq	r0, r5, r0, lsl #10
    1e5c:	00001349 	andeq	r1, r0, r9, asr #6
    1e60:	03003406 	movweq	r3, #1030	; 0x406
    1e64:	3b0b3a0e 	blcc	2d06a4 <__bss_end__+0x2c53a4>
    1e68:	490b390b 	stmdbmi	fp, {r0, r1, r3, r8, fp, ip, sp}
    1e6c:	3c193f13 	ldccc	15, cr3, [r9], {19}
    1e70:	07000019 	smladeq	r0, r9, r0, r0
    1e74:	0b0b000f 	bleq	2c1eb8 <__bss_end__+0x2b6bb8>
    1e78:	00001349 	andeq	r1, r0, r9, asr #6
    1e7c:	49002608 	stmdbmi	r0, {r3, r9, sl, sp}
    1e80:	09000013 	stmdbeq	r0, {r0, r1, r4}
    1e84:	193f012e 	ldmdbne	pc!, {r1, r2, r3, r5, r8}	; <UNPREDICTABLE>
    1e88:	0b3a0e03 	bleq	e8569c <__bss_end__+0xe7a39c>
    1e8c:	0b390b3b 	bleq	e44b80 <__bss_end__+0xe39880>
    1e90:	13491927 	movtne	r1, #39207	; 0x9927
    1e94:	06120111 			; <UNDEFINED> instruction: 0x06120111
    1e98:	42971840 	addsmi	r1, r7, #64, 16	; 0x400000
    1e9c:	00130119 	andseq	r0, r3, r9, lsl r1
    1ea0:	00050a00 	andeq	r0, r5, r0, lsl #20
    1ea4:	0b3a0803 	bleq	e83eb8 <__bss_end__+0xe78bb8>
    1ea8:	0b390b3b 	bleq	e44b9c <__bss_end__+0xe3989c>
    1eac:	18021349 	stmdane	r2, {r0, r3, r6, r8, r9, ip}
    1eb0:	050b0000 	streq	r0, [fp, #-0]
    1eb4:	3a080300 	bcc	202abc <__bss_end__+0x1f77bc>
    1eb8:	390b3b0b 	stmdbcc	fp, {r0, r1, r3, r8, r9, fp, ip, sp}
    1ebc:	0213490b 	andseq	r4, r3, #180224	; 0x2c000
    1ec0:	1742b717 	smlaldne	fp, r2, r7, r7
    1ec4:	340c0000 	strcc	r0, [ip], #-0
    1ec8:	3a080300 	bcc	202ad0 <__bss_end__+0x1f77d0>
    1ecc:	390b3b0b 	stmdbcc	fp, {r0, r1, r3, r8, r9, fp, ip, sp}
    1ed0:	0213490b 	andseq	r4, r3, #180224	; 0x2c000
    1ed4:	1742b717 	smlaldne	fp, r2, r7, r7
    1ed8:	01000000 	mrseq	r0, (UNDEF: 0)
    1edc:	0e250111 	mcreq	1, 1, r0, cr5, cr1, {0}
    1ee0:	0e030b13 	vmoveq.32	d3[0], r0
    1ee4:	01110e1b 	tsteq	r1, fp, lsl lr
    1ee8:	17100612 			; <UNDEFINED> instruction: 0x17100612
    1eec:	24020000 	strcs	r0, [r2], #-0
    1ef0:	3e0b0b00 	vmlacc.f64	d0, d11, d0
    1ef4:	0008030b 	andeq	r0, r8, fp, lsl #6
    1ef8:	00160300 	andseq	r0, r6, r0, lsl #6
    1efc:	0b3a0e03 	bleq	e85710 <__bss_end__+0xe7a410>
    1f00:	0b390b3b 	bleq	e44bf4 <__bss_end__+0xe398f4>
    1f04:	00001349 	andeq	r1, r0, r9, asr #6
    1f08:	0b002404 	bleq	af20 <buf.3944+0x2c>
    1f0c:	030b3e0b 	movweq	r3, #48651	; 0xbe0b
    1f10:	0500000e 	streq	r0, [r0, #-14]
    1f14:	13490026 	movtne	r0, #36902	; 0x9026
    1f18:	15060000 	strne	r0, [r6, #-0]
    1f1c:	49192701 	ldmdbmi	r9, {r0, r8, r9, sl, sp}
    1f20:	00130113 	andseq	r0, r3, r3, lsl r1
    1f24:	00050700 	andeq	r0, r5, r0, lsl #14
    1f28:	00001349 	andeq	r1, r0, r9, asr #6
    1f2c:	03003408 	movweq	r3, #1032	; 0x408
    1f30:	3b0b3a0e 	blcc	2d0770 <__bss_end__+0x2c5470>
    1f34:	490b390b 	stmdbmi	fp, {r0, r1, r3, r8, fp, ip, sp}
    1f38:	3c193f13 	ldccc	15, cr3, [r9], {19}
    1f3c:	09000019 	stmdbeq	r0, {r0, r3, r4}
    1f40:	0b0b000f 	bleq	2c1f84 <__bss_end__+0x2b6c84>
    1f44:	00001349 	andeq	r1, r0, r9, asr #6
    1f48:	3f012e0a 	svccc	0x00012e0a
    1f4c:	3a0e0319 	bcc	382bb8 <__bss_end__+0x3778b8>
    1f50:	390b3b0b 	stmdbcc	fp, {r0, r1, r3, r8, r9, fp, ip, sp}
    1f54:	4919270b 	ldmdbmi	r9, {r0, r1, r3, r8, r9, sl, sp}
    1f58:	12011113 	andne	r1, r1, #-1073741820	; 0xc0000004
    1f5c:	97184006 	ldrls	r4, [r8, -r6]
    1f60:	13011942 	movwne	r1, #6466	; 0x1942
    1f64:	050b0000 	streq	r0, [fp, #-0]
    1f68:	3a080300 	bcc	202b70 <__bss_end__+0x1f7870>
    1f6c:	390b3b0b 	stmdbcc	fp, {r0, r1, r3, r8, r9, fp, ip, sp}
    1f70:	0213490b 	andseq	r4, r3, #180224	; 0x2c000
    1f74:	1742b717 	smlaldne	fp, r2, r7, r7
    1f78:	340c0000 	strcc	r0, [ip], #-0
    1f7c:	3a080300 	bcc	202b84 <__bss_end__+0x1f7884>
    1f80:	390b3b0b 	stmdbcc	fp, {r0, r1, r3, r8, r9, fp, ip, sp}
    1f84:	0213490b 	andseq	r4, r3, #180224	; 0x2c000
    1f88:	1742b717 	smlaldne	fp, r2, r7, r7
    1f8c:	01000000 	mrseq	r0, (UNDEF: 0)
    1f90:	0e250111 	mcreq	1, 1, r0, cr5, cr1, {0}
    1f94:	0e030b13 	vmoveq.32	d3[0], r0
    1f98:	01110e1b 	tsteq	r1, fp, lsl lr
    1f9c:	17100612 			; <UNDEFINED> instruction: 0x17100612
    1fa0:	24020000 	strcs	r0, [r2], #-0
    1fa4:	3e0b0b00 	vmlacc.f64	d0, d11, d0
    1fa8:	0008030b 	andeq	r0, r8, fp, lsl #6
    1fac:	00240300 	eoreq	r0, r4, r0, lsl #6
    1fb0:	0b3e0b0b 	bleq	f84be4 <__bss_end__+0xf798e4>
    1fb4:	00000e03 	andeq	r0, r0, r3, lsl #28
    1fb8:	27011504 	strcs	r1, [r1, -r4, lsl #10]
    1fbc:	01134919 	tsteq	r3, r9, lsl r9
    1fc0:	05000013 	streq	r0, [r0, #-19]	; 0xffffffed
    1fc4:	13490005 	movtne	r0, #36869	; 0x9005
    1fc8:	34060000 	strcc	r0, [r6], #-0
    1fcc:	3a0e0300 	bcc	382bd4 <__bss_end__+0x3778d4>
    1fd0:	390b3b0b 	stmdbcc	fp, {r0, r1, r3, r8, r9, fp, ip, sp}
    1fd4:	3f13490b 	svccc	0x0013490b
    1fd8:	00193c19 	andseq	r3, r9, r9, lsl ip
    1fdc:	000f0700 	andeq	r0, pc, r0, lsl #14
    1fe0:	13490b0b 	movtne	r0, #39691	; 0x9b0b
    1fe4:	26080000 	strcs	r0, [r8], -r0
    1fe8:	00134900 	andseq	r4, r3, r0, lsl #18
    1fec:	002e0900 	eoreq	r0, lr, r0, lsl #18
    1ff0:	0e03193f 			; <UNDEFINED> instruction: 0x0e03193f
    1ff4:	0b3b0b3a 	bleq	ec4ce4 <__bss_end__+0xeb99e4>
    1ff8:	19270b39 	stmdbne	r7!, {r0, r3, r4, r5, r8, r9, fp}
    1ffc:	06120111 			; <UNDEFINED> instruction: 0x06120111
    2000:	42971840 	addsmi	r1, r7, #64, 16	; 0x400000
    2004:	00000019 	andeq	r0, r0, r9, lsl r0

Disassembly of section .debug_loc:

00000000 <.debug_loc>:
       0:	00000000 	andeq	r0, r0, r0
       4:	00000050 	andeq	r0, r0, r0, asr r0
       8:	0000005b 	andeq	r0, r0, fp, asr r0
       c:	5b500001 	blpl	1400018 <__bss_end__+0x13f4d18>
      10:	ac000000 	stcge	0, cr0, [r0], {-0}
      14:	01000000 	mrseq	r0, (UNDEF: 0)
      18:	00005400 	andeq	r5, r0, r0, lsl #8
      1c:	00000000 	andeq	r0, r0, r0
      20:	00010000 	andeq	r0, r1, r0
      24:	00000024 	andeq	r0, r0, r4, lsr #32
      28:	0000003c 	andeq	r0, r0, ip, lsr r0
      2c:	9f370002 	svcls	0x00370002
	...
      38:	00240001 	eoreq	r0, r4, r1
      3c:	003c0000 	eorseq	r0, ip, r0
      40:	00060000 	andeq	r0, r6, r0
      44:	0002a0f2 	strdeq	sl, [r2], -r2
	...
      50:	00010000 	andeq	r0, r1, r0
      54:	00000024 	andeq	r0, r0, r4, lsr #32
      58:	0000003c 	andeq	r0, r0, ip, lsr r0
      5c:	ec030006 	stc	0, cr0, [r3], {6}
      60:	9f0000a5 	svcls	0x000000a5
	...
      6c:	00640001 	rsbeq	r0, r4, r1
      70:	00740000 	rsbseq	r0, r4, r0
      74:	00020000 	andeq	r0, r2, r0
      78:	00009f3a 	andeq	r9, r0, sl, lsr pc
      7c:	00000000 	andeq	r0, r0, r0
      80:	00010000 	andeq	r0, r1, r0
      84:	00000064 	andeq	r0, r0, r4, rrx
      88:	00000074 	andeq	r0, r0, r4, ror r0
      8c:	a0f20006 	rscsge	r0, r2, r6
      90:	00000002 	andeq	r0, r0, r2
	...
      9c:	00640001 	rsbeq	r0, r4, r1
      a0:	00740000 	rsbseq	r0, r4, r0
      a4:	00060000 	andeq	r0, r6, r0
      a8:	00a5ec03 	adceq	lr, r5, r3, lsl #24
      ac:	00009f00 	andeq	r9, r0, r0, lsl #30
	...
      bc:	00000344 	andeq	r0, r0, r4, asr #6
      c0:	0000035c 	andeq	r0, r0, ip, asr r3
      c4:	5c500001 	mrrcpl	0, 0, r0, r0, cr1	; <UNPREDICTABLE>
      c8:	28000003 	stmdacs	r0, {r0, r1}
      cc:	01000004 	tsteq	r0, r4
      d0:	04285500 	strteq	r5, [r8], #-1280	; 0xfffffb00
      d4:	04340000 	ldrteq	r0, [r4], #-0
      d8:	00040000 	andeq	r0, r4, r0
      dc:	9f5001f3 	svcls	0x005001f3
	...
      ec:	036c0000 	cmneq	ip, #0, 0
      f0:	03770000 	cmneq	r7, #0, 0
      f4:	00010000 	andeq	r0, r1, r0
      f8:	00037750 	andeq	r7, r3, r0, asr r7
      fc:	00042800 	andeq	r2, r4, r0, lsl #16
     100:	54000100 	strpl	r0, [r0], #-256	; 0xffffff00
     104:	00000428 	andeq	r0, r0, r8, lsr #8
     108:	00000434 	andeq	r0, r0, r4, lsr r4
     10c:	cc700004 	ldclgt	0, cr0, [r0], #-16
     110:	00009f7e 	andeq	r9, r0, lr, ror pc
     114:	00000000 	andeq	r0, r0, r0
     118:	00030000 	andeq	r0, r3, r0
     11c:	03e80000 	mvneq	r0, #0, 0
     120:	04280000 	strteq	r0, [r8], #-0
     124:	00010000 	andeq	r0, r1, r0
     128:	00042857 	andeq	r2, r4, r7, asr r8
     12c:	00043400 	andeq	r3, r4, r0, lsl #8
     130:	50000100 	andpl	r0, r0, r0, lsl #2
	...
     13c:	00000002 	andeq	r0, r0, r2
     140:	00000378 	andeq	r0, r0, r8, ror r3
     144:	0000037c 	andeq	r0, r0, ip, ror r3
     148:	9f300002 	svcls	0x00300002
     14c:	0000037c 	andeq	r0, r0, ip, ror r3
     150:	000003ac 	andeq	r0, r0, ip, lsr #7
     154:	00530001 	subseq	r0, r3, r1
     158:	00000000 	andeq	r0, r0, r0
     15c:	05000000 	streq	r0, [r0, #-0]
     160:	e8000000 	stmda	r0, {}	; <UNPREDICTABLE>
     164:	ec000003 	stc	0, cr0, [r0], {3}
     168:	02000003 	andeq	r0, r0, #3, 0
     16c:	ec9f3000 	ldc	0, cr3, [pc], {0}
     170:	28000003 	stmdacs	r0, {r0, r1}
     174:	01000004 	tsteq	r0, r4
     178:	00005600 	andeq	r5, r0, r0, lsl #12
	...
     184:	00000400 	andeq	r0, r0, r0, lsl #8
     188:	0000040c 	andeq	r0, r0, ip, lsl #8
     18c:	00500001 	subseq	r0, r0, r1
	...
     1a0:	14000000 	strne	r0, [r0], #-0
     1a4:	3c000001 	stccc	0, cr0, [r0], {1}
     1a8:	01000001 	tsteq	r0, r1
     1ac:	013c5000 	teqeq	ip, r0
     1b0:	01440000 	mrseq	r0, (UNDEF: 68)
     1b4:	00040000 	andeq	r0, r4, r0
     1b8:	9f5001f3 	svcls	0x005001f3
     1bc:	00000144 	andeq	r0, r0, r4, asr #2
     1c0:	00000148 	andeq	r0, r0, r8, asr #2
     1c4:	48500001 	ldmdami	r0, {r0}^
     1c8:	4c000001 	stcmi	0, cr0, [r0], {1}
     1cc:	04000001 	streq	r0, [r0], #-1
     1d0:	5001f300 	andpl	pc, r1, r0, lsl #6
     1d4:	00014c9f 	muleq	r1, pc, ip	; <UNPREDICTABLE>
     1d8:	00015000 	andeq	r5, r1, r0
     1dc:	50000100 	andpl	r0, r0, r0, lsl #2
     1e0:	00000150 	andeq	r0, r0, r0, asr r1
     1e4:	00000158 	andeq	r0, r0, r8, asr r1
     1e8:	01f30004 	mvnseq	r0, r4
     1ec:	00009f50 	andeq	r9, r0, r0, asr pc
     1f0:	00000000 	andeq	r0, r0, r0
     1f4:	00010000 	andeq	r0, r1, r0
     1f8:	00000138 	andeq	r0, r0, r8, lsr r1
     1fc:	00000144 	andeq	r0, r0, r4, asr #2
     200:	4a400004 	bmi	1000218 <__bss_end__+0xff4f18>
     204:	00009f24 	andeq	r9, r0, r4, lsr #30
	...
     210:	019c0000 	orrseq	r0, ip, r0
     214:	01b40000 			; <UNDEFINED> instruction: 0x01b40000
     218:	00010000 	andeq	r0, r1, r0
     21c:	0001b450 	andeq	fp, r1, r0, asr r4
     220:	00033800 	andeq	r3, r3, r0, lsl #16
     224:	54000100 	strpl	r0, [r0], #-256	; 0xffffff00
	...
     230:	00020201 	andeq	r0, r2, r1, lsl #4
     234:	000001b8 			; <UNDEFINED> instruction: 0x000001b8
     238:	000001b8 			; <UNDEFINED> instruction: 0x000001b8
     23c:	b8540001 	ldmdalt	r4, {r0}^
     240:	38000001 	stmdacc	r0, {r0}
     244:	04000003 	streq	r0, [r0], #-3
     248:	7ecc7400 	cdpvc	4, 12, cr7, cr12, cr0, {0}
     24c:	0000009f 	muleq	r0, pc, r0	; <UNPREDICTABLE>
	...
     25c:	00020000 	andeq	r0, r2, r0
     260:	00023400 	andeq	r3, r2, r0, lsl #8
     264:	53000100 	movwpl	r0, #256	; 0x100
     268:	0000025c 	andeq	r0, r0, ip, asr r2
     26c:	0000025f 	andeq	r0, r0, pc, asr r2
     270:	80530001 	subshi	r0, r3, r1
     274:	83000002 	movwhi	r0, #2
     278:	01000002 	tsteq	r0, r2
     27c:	02a45300 	adceq	r5, r4, #0, 6
     280:	02a80000 	adceq	r0, r8, #0, 0
     284:	00010000 	andeq	r0, r1, r0
     288:	00000053 	andeq	r0, r0, r3, asr r0
     28c:	00000000 	andeq	r0, r0, r0
     290:	a8000000 	stmdage	r0, {}	; <UNPREDICTABLE>
     294:	c4000002 	strgt	r0, [r0], #-2
     298:	01000002 	tsteq	r0, r2
     29c:	00005300 	andeq	r5, r0, r0, lsl #6
	...
     2a8:	01700000 	cmneq	r0, r0
     2ac:	017f0000 	cmneq	pc, r0
     2b0:	00010000 	andeq	r0, r1, r0
     2b4:	00017f50 	andeq	r7, r1, r0, asr pc
     2b8:	00019000 	andeq	r9, r1, r0
     2bc:	f3000400 	vshl.u8	d0, d0, d0
     2c0:	009f5001 	addseq	r5, pc, r1
	...
     2cc:	00018000 	andeq	r8, r1, r0
     2d0:	00018c00 	andeq	r8, r1, r0, lsl #24
     2d4:	50000100 	andpl	r0, r0, r0, lsl #2
	...
     2e4:	000000c8 	andeq	r0, r0, r8, asr #1
     2e8:	000000df 	ldrdeq	r0, [r0], -pc	; <UNPREDICTABLE>
     2ec:	df500001 	svcle	0x00500001
     2f0:	00000000 	andeq	r0, r0, r0
     2f4:	01000001 	tsteq	r0, r1
     2f8:	00005600 	andeq	r5, r0, r0, lsl #12
	...
     304:	00c80000 	sbceq	r0, r8, r0
     308:	00df0000 	sbcseq	r0, pc, r0
     30c:	00010000 	andeq	r0, r1, r0
     310:	0000df51 	andeq	sp, r0, r1, asr pc
     314:	00010000 	andeq	r0, r1, r0
     318:	54000100 	strpl	r0, [r0], #-256	; 0xffffff00
	...
     328:	000000e4 	andeq	r0, r0, r4, ror #1
     32c:	000000e8 	andeq	r0, r0, r8, ror #1
     330:	e8500001 	ldmda	r0, {r0}^
     334:	00000000 	andeq	r0, r0, r0
     338:	01000001 	tsteq	r0, r1
     33c:	00005500 	andeq	r5, r0, r0, lsl #10
	...
     348:	000000ec 	andeq	r0, r0, ip, ror #1
     34c:	000000f8 	strdeq	r0, [r0], -r8
     350:	00500001 	subseq	r0, r0, r1
	...
     35c:	94000000 	strls	r0, [r0], #-0
     360:	a7000000 	strge	r0, [r0, -r0]
     364:	01000000 	mrseq	r0, (UNDEF: 0)
     368:	00a75000 	adceq	r5, r7, r0
     36c:	00b40000 	adcseq	r0, r4, r0
     370:	00010000 	andeq	r0, r1, r0
     374:	00000054 	andeq	r0, r0, r4, asr r0
     378:	00000000 	andeq	r0, r0, r0
     37c:	a8000000 	stmdage	r0, {}	; <UNPREDICTABLE>
     380:	ac000000 	stcge	0, cr0, [r0], {-0}
     384:	01000000 	mrseq	r0, (UNDEF: 0)
     388:	00005400 	andeq	r5, r0, r0, lsl #8
	...
     394:	00700000 	rsbseq	r0, r0, r0
     398:	00800000 	addeq	r0, r0, r0
     39c:	00010000 	andeq	r0, r1, r0
     3a0:	00008050 	andeq	r8, r0, r0, asr r0
     3a4:	00008400 	andeq	r8, r0, r0, lsl #8
     3a8:	70000400 	andvc	r0, r0, r0, lsl #8
     3ac:	009f7ecc 	addseq	r7, pc, ip, asr #29
	...
     3b8:	40000000 	andmi	r0, r0, r0
     3bc:	58000000 	stmdapl	r0, {}	; <UNPREDICTABLE>
     3c0:	01000000 	mrseq	r0, (UNDEF: 0)
     3c4:	00585000 	subseq	r5, r8, r0
     3c8:	005c0000 	subseq	r0, ip, r0
     3cc:	00040000 	andeq	r0, r4, r0
     3d0:	9f5001f3 	svcls	0x005001f3
	...
     3e4:	0000001c 	andeq	r0, r0, ip, lsl r0
     3e8:	0000008c 	andeq	r0, r0, ip, lsl #1
     3ec:	8c510001 	mrrchi	0, 0, r0, r1, cr1
     3f0:	98000000 	stmdals	r0, {}	; <UNPREDICTABLE>
     3f4:	03000000 	movweq	r0, #0
     3f8:	9f787000 	svcls	0x00787000
     3fc:	00000098 	muleq	r0, r8, r0
     400:	000000b8 	strheq	r0, [r0], -r8
     404:	b8510001 	ldmdalt	r1, {r0}^
     408:	d0000000 	andle	r0, r0, r0
     40c:	03000000 	movweq	r0, #0
     410:	9f787000 	svcls	0x00787000
	...
     420:	00000024 	andeq	r0, r0, r4, lsr #32
     424:	0000005c 	andeq	r0, r0, ip, asr r0
     428:	60530001 	subsvs	r0, r3, r1
     42c:	d0000000 	andle	r0, r0, r0
     430:	01000000 	mrseq	r0, (UNDEF: 0)
     434:	00005300 	andeq	r5, r0, r0, lsl #6
	...
     444:	014c0000 	mrseq	r0, (UNDEF: 76)
     448:	01780000 	cmneq	r8, r0
     44c:	00010000 	andeq	r0, r1, r0
     450:	00017850 	andeq	r7, r1, r0, asr r8
     454:	00017c00 	andeq	r7, r1, r0, lsl #24
     458:	f3000400 	vshl.u8	d0, d0, d0
     45c:	7c9f5001 	ldcvc	0, cr5, [pc], {1}
     460:	94000001 	strls	r0, [r0], #-1
     464:	01000001 	tsteq	r0, r1
     468:	01945000 	orrseq	r5, r4, r0
     46c:	02000000 	andeq	r0, r0, #0, 0
     470:	00040000 	andeq	r0, r4, r0
     474:	9f5001f3 	svcls	0x005001f3
	...
     484:	01000000 	mrseq	r0, (UNDEF: 0)
     488:	00000001 	andeq	r0, r0, r1
     48c:	01780000 	cmneq	r8, r0
     490:	017c0000 	cmneq	ip, r0
     494:	00010000 	andeq	r0, r1, r0
     498:	00019450 	andeq	r9, r1, r0, asr r4
     49c:	0001b400 	andeq	fp, r1, r0, lsl #8
     4a0:	50000100 	andpl	r0, r0, r0, lsl #2
     4a4:	000001b4 			; <UNDEFINED> instruction: 0x000001b4
     4a8:	000001b8 			; <UNDEFINED> instruction: 0x000001b8
     4ac:	78700003 	ldmdavc	r0!, {r0, r1}^
     4b0:	0001b89f 	muleq	r1, pc, r8	; <UNPREDICTABLE>
     4b4:	0001c400 	andeq	ip, r1, r0, lsl #8
     4b8:	50000100 	andpl	r0, r0, r0, lsl #2
     4bc:	000001c4 	andeq	r0, r0, r4, asr #3
     4c0:	000001cc 	andeq	r0, r0, ip, asr #3
     4c4:	00700002 	rsbseq	r0, r0, r2
     4c8:	000001cc 	andeq	r0, r0, ip, asr #3
     4cc:	000001ec 	andeq	r0, r0, ip, ror #3
     4d0:	f0500001 			; <UNDEFINED> instruction: 0xf0500001
     4d4:	00000001 	andeq	r0, r0, r1
     4d8:	01000002 	tsteq	r0, r2
     4dc:	00005000 	andeq	r5, r0, r0
     4e0:	00000000 	andeq	r0, r0, r0
     4e4:	01000000 	mrseq	r0, (UNDEF: 0)
     4e8:	00000001 	andeq	r0, r0, r1
     4ec:	00000001 	andeq	r0, r0, r1
     4f0:	0000016c 	andeq	r0, r0, ip, ror #2
     4f4:	0000017c 	andeq	r0, r0, ip, ror r1
     4f8:	7c520001 	mrrcvc	0, 0, r0, r2, cr1
     4fc:	94000001 	strls	r0, [r0], #-1
     500:	06000001 	streq	r0, [r0], -r1
     504:	aee00300 	cdpge	3, 14, cr0, cr0, cr0, {0}
     508:	949f0000 	ldrls	r0, [pc], #0	; 510 <__code_start__-0x7af0>
     50c:	c4000001 	strgt	r0, [r0], #-1
     510:	01000001 	tsteq	r0, r1
     514:	01c45200 	biceq	r5, r4, r0, lsl #4
     518:	01cc0000 	biceq	r0, ip, r0
     51c:	00010000 	andeq	r0, r1, r0
     520:	0001cc50 	andeq	ip, r1, r0, asr ip
     524:	0001ef00 	andeq	lr, r1, r0, lsl #30
     528:	52000100 	andpl	r0, r0, #0
	...
     534:	01640000 	cmneq	r4, r0
     538:	02000000 	andeq	r0, r0, #0, 0
     53c:	00010000 	andeq	r0, r1, r0
     540:	00000054 	andeq	r0, r0, r4, asr r0
	...
     54c:	0000e000 	andeq	lr, r0, r0
     550:	0000f800 	andeq	pc, r0, r0, lsl #16
     554:	50000100 	andpl	r0, r0, r0, lsl #2
     558:	000000f8 	strdeq	r0, [r0], -r8
     55c:	0000013c 	andeq	r0, r0, ip, lsr r1
     560:	00540001 	subseq	r0, r4, r1
	...
     570:	00010c00 	andeq	r0, r1, r0, lsl #24
     574:	00011c00 	andeq	r1, r1, r0, lsl #24
     578:	50000100 	andpl	r0, r0, r0, lsl #2
     57c:	0000011c 	andeq	r0, r0, ip, lsl r1
     580:	0000011f 	andeq	r0, r0, pc, lsl r1
     584:	78700003 	ldmdavc	r0!, {r0, r1}^
     588:	00012c9f 	muleq	r1, pc, ip	; <UNPREDICTABLE>
     58c:	00013000 	andeq	r3, r1, r0
     590:	50000100 	andpl	r0, r0, r0, lsl #2
	...
     59c:	00000001 	andeq	r0, r0, r1
     5a0:	00000114 	andeq	r0, r0, r4, lsl r1
     5a4:	0000011c 	andeq	r0, r0, ip, lsl r1
     5a8:	1c500001 	mrrcne	0, 0, r0, r0, cr1	; <UNPREDICTABLE>
     5ac:	1f000001 	svcne	0x00000001
     5b0:	03000001 	movweq	r0, #1
     5b4:	9f787000 	svcls	0x00787000
	...
     5c0:	07b80000 	ldreq	r0, [r8, r0]!
     5c4:	07bc0000 	ldreq	r0, [ip, r0]!
     5c8:	00010000 	andeq	r0, r1, r0
     5cc:	00000050 	andeq	r0, r0, r0, asr r0
     5d0:	00000000 	andeq	r0, r0, r0
     5d4:	00000100 	andeq	r0, r0, r0, lsl #2
     5d8:	0003d800 	andeq	sp, r3, r0, lsl #16
     5dc:	00040400 	andeq	r0, r4, r0, lsl #8
     5e0:	30000200 	andcc	r0, r0, r0, lsl #4
     5e4:	0004049f 	muleq	r4, pc, r4	; <UNPREDICTABLE>
     5e8:	00049000 	andeq	r9, r4, r0
     5ec:	55000100 	strpl	r0, [r0, #-256]	; 0xffffff00
	...
     5f8:	00000001 	andeq	r0, r0, r1
     5fc:	000003d8 	ldrdeq	r0, [r0], -r8
     600:	00000404 	andeq	r0, r0, r4, lsl #8
     604:	9f300002 	svcls	0x00300002
     608:	00000404 	andeq	r0, r0, r4, lsl #8
     60c:	00000490 	muleq	r0, r0, r4
     610:	00580001 	subseq	r0, r8, r1
     614:	00000000 	andeq	r0, r0, r0
     618:	01000000 	mrseq	r0, (UNDEF: 0)
     61c:	00000000 	andeq	r0, r0, r0
     620:	0003d800 	andeq	sp, r3, r0, lsl #16
     624:	00040400 	andeq	r0, r4, r0, lsl #8
     628:	30000200 	andcc	r0, r0, r0, lsl #4
     62c:	0004049f 	muleq	r4, pc, r4	; <UNPREDICTABLE>
     630:	00049000 	andeq	r9, r4, r0
     634:	57000100 	strpl	r0, [r0, -r0, lsl #2]
     638:	00000490 	muleq	r0, r0, r4
     63c:	000004ac 	andeq	r0, r0, ip, lsr #9
     640:	00500001 	subseq	r0, r0, r1
	...
     650:	f4000000 	vst4.8	{d0-d3}, [r0], r0
     654:	38000003 	stmdacc	r0, {r0, r1}
     658:	01000004 	tsteq	r0, r4
     65c:	04385000 	ldrteq	r5, [r8], #-0
     660:	04540000 	ldrbeq	r0, [r4], #-0
     664:	00010000 	andeq	r0, r1, r0
     668:	00045454 	andeq	r5, r4, r4, asr r4
     66c:	00048000 	andeq	r8, r4, r0
     670:	50000100 	andpl	r0, r0, r0, lsl #2
     674:	00000480 	andeq	r0, r0, r0, lsl #9
     678:	00000490 	muleq	r0, r0, r4
     67c:	00540001 	subseq	r0, r4, r1
	...
     688:	00041400 	andeq	r1, r4, r0, lsl #8
     68c:	00042c00 	andeq	r2, r4, r0, lsl #24
     690:	0a000400 	beq	1698 <__code_start__-0x6968>
     694:	009f011e 	addseq	r0, pc, lr, lsl r1	; <UNPREDICTABLE>
	...
     6a0:	00041400 	andeq	r1, r4, r0, lsl #8
     6a4:	00042c00 	andeq	r2, r4, r0, lsl #24
     6a8:	f2000600 	vmax.s8	d0, d0, d0
     6ac:	00001c9c 	muleq	r0, ip, ip
	...
     6b8:	14000000 	strne	r0, [r0], #-0
     6bc:	2c000004 	stccs	0, cr0, [r0], {4}
     6c0:	06000004 	streq	r0, [r0], -r4
     6c4:	a76c0300 	strbge	r0, [ip, -r0, lsl #6]!
     6c8:	009f0000 	addseq	r0, pc, r0
	...
     6d8:	00075400 	andeq	r5, r7, r0, lsl #8
     6dc:	00076400 	andeq	r6, r7, r0, lsl #8
     6e0:	50000100 	andpl	r0, r0, r0, lsl #2
     6e4:	00000764 	andeq	r0, r0, r4, ror #14
     6e8:	00000767 	andeq	r0, r0, r7, ror #14
     6ec:	67510001 	ldrbvs	r0, [r1, -r1]
     6f0:	98000007 	stmdals	r0, {r0, r1, r2}
     6f4:	01000007 	tsteq	r0, r7
     6f8:	00005400 	andeq	r5, r0, r0, lsl #8
	...
     704:	06b00000 	ldrteq	r0, [r0], r0
     708:	06bf0000 	ldrteq	r0, [pc], r0
     70c:	00010000 	andeq	r0, r1, r0
     710:	0006bf50 	andeq	fp, r6, r0, asr pc
     714:	0006c400 	andeq	ip, r6, r0, lsl #8
     718:	f3000400 	vshl.u8	d0, d0, d0
     71c:	009f5001 	addseq	r5, pc, r1
	...
     728:	bc000000 	stclt	0, cr0, [r0], {-0}
     72c:	d0000002 	andle	r0, r0, r2
     730:	01000002 	tsteq	r0, r2
     734:	02d05000 	sbcseq	r5, r0, #0, 0
     738:	03b80000 			; <UNDEFINED> instruction: 0x03b80000
     73c:	00010000 	andeq	r0, r1, r0
     740:	00000057 	andeq	r0, r0, r7, asr r0
     744:	00000000 	andeq	r0, r0, r0
     748:	00000100 	andeq	r0, r0, r0, lsl #2
     74c:	0002cc00 	andeq	ip, r2, r0, lsl #24
     750:	0002f800 	andeq	pc, r2, r0, lsl #16
     754:	30000200 	andcc	r0, r0, r0, lsl #4
     758:	0002f89f 	muleq	r2, pc, r8	; <UNPREDICTABLE>
     75c:	0003b800 	andeq	fp, r3, r0, lsl #16
     760:	55000100 	strpl	r0, [r0, #-256]	; 0xffffff00
	...
     76c:	00000001 	andeq	r0, r0, r1
     770:	02cc0000 	sbceq	r0, ip, #0, 0
     774:	02f80000 	rscseq	r0, r8, #0, 0
     778:	00020000 	andeq	r0, r2, r0
     77c:	02f89f30 	rscseq	r9, r8, #48, 30	; 0xc0
     780:	037c0000 	cmneq	ip, #0, 0
     784:	00010000 	andeq	r0, r1, r0
     788:	00038456 	andeq	r8, r3, r6, asr r4
     78c:	0003b800 	andeq	fp, r3, r0, lsl #16
     790:	56000100 	strpl	r0, [r0], -r0, lsl #2
	...
     79c:	00000001 	andeq	r0, r0, r1
     7a0:	000002cc 	andeq	r0, r0, ip, asr #5
     7a4:	000002f8 	strdeq	r0, [r0], -r8
     7a8:	9f300002 	svcls	0x00300002
     7ac:	000002f8 	strdeq	r0, [r0], -r8
     7b0:	000003b8 			; <UNDEFINED> instruction: 0x000003b8
     7b4:	00580001 	subseq	r0, r8, r1
	...
     7cc:	0002e800 	andeq	lr, r2, r0, lsl #16
     7d0:	00030800 	andeq	r0, r3, r0, lsl #16
     7d4:	50000100 	andpl	r0, r0, r0, lsl #2
     7d8:	00000308 	andeq	r0, r0, r8, lsl #6
     7dc:	00000318 	andeq	r0, r0, r8, lsl r3
     7e0:	18540001 	ldmdane	r4, {r0}^
     7e4:	48000003 	stmdami	r0, {r0, r1}
     7e8:	01000003 	tsteq	r0, r3
     7ec:	03485000 	movteq	r5, #32768	; 0x8000
     7f0:	034b0000 	movteq	r0, #45056	; 0xb000
     7f4:	00010000 	andeq	r0, r1, r0
     7f8:	00034b52 	andeq	r4, r3, r2, asr fp
     7fc:	00035000 	andeq	r5, r3, r0
     800:	54000100 	strpl	r0, [r0], #-256	; 0xffffff00
     804:	00000350 	andeq	r0, r0, r0, asr r3
     808:	00000358 	andeq	r0, r0, r8, asr r3
     80c:	58500001 	ldmdapl	r0, {r0}^
     810:	b8000003 	stmdalt	r0, {r0, r1}
     814:	01000003 	tsteq	r0, r3
     818:	00005400 	andeq	r5, r0, r0, lsl #8
     81c:	00000000 	andeq	r0, r0, r0
     820:	00010000 	andeq	r0, r1, r0
     824:	05d40000 	ldrbeq	r0, [r4]
     828:	05e40000 	strbeq	r0, [r4, #0]!
     82c:	00020000 	andeq	r0, r2, r0
     830:	05e49f30 	strbeq	r9, [r4, #3888]!	; 0xf30
     834:	069c0000 	ldreq	r0, [ip], r0
     838:	00010000 	andeq	r0, r1, r0
     83c:	00000056 	andeq	r0, r0, r6, asr r0
	...
     850:	0005dc00 	andeq	sp, r5, r0, lsl #24
     854:	0005e400 	andeq	lr, r5, r0, lsl #8
     858:	50000100 	andpl	r0, r0, r0, lsl #2
     85c:	000005e4 	andeq	r0, r0, r4, ror #11
     860:	00000610 	andeq	r0, r0, r0, lsl r6
     864:	10540001 	subsne	r0, r4, r1
     868:	20000006 	andcs	r0, r0, r6
     86c:	01000006 	tsteq	r0, r6
     870:	06205000 	strteq	r5, [r0], -r0
     874:	06880000 	streq	r0, [r8], r0
     878:	00010000 	andeq	r0, r1, r0
     87c:	00068854 	andeq	r8, r6, r4, asr r8
     880:	00068c00 	andeq	r8, r6, r0, lsl #24
     884:	50000100 	andpl	r0, r0, r0, lsl #2
     888:	0000068c 	andeq	r0, r0, ip, lsl #13
     88c:	0000069c 	muleq	r0, ip, r6
     890:	00540001 	subseq	r0, r4, r1
	...
     89c:	00000100 	andeq	r0, r0, r0, lsl #2
     8a0:	e4000000 	str	r0, [r0], #-0
     8a4:	10000005 	andne	r0, r0, r5
     8a8:	01000006 	tsteq	r0, r6
     8ac:	06185500 	ldreq	r5, [r8], -r0, lsl #10
     8b0:	06280000 	strteq	r0, [r8], -r0
     8b4:	00020000 	andeq	r0, r2, r0
     8b8:	06289f30 	qasxeq	r9, r8, r0
     8bc:	06300000 	ldrteq	r0, [r0], -r0
     8c0:	00010000 	andeq	r0, r1, r0
     8c4:	00063050 	andeq	r3, r6, r0, asr r0
     8c8:	00068800 	andeq	r8, r6, r0, lsl #16
     8cc:	55000100 	strpl	r0, [r0, #-256]	; 0xffffff00
	...
     8dc:	000005e4 	andeq	r0, r0, r4, ror #11
     8e0:	000005f4 	strdeq	r0, [r0], -r4
     8e4:	78500001 	ldmdavc	r0, {r0}^
     8e8:	88000006 	stmdahi	r0, {r1, r2}
     8ec:	01000006 	tsteq	r0, r6
     8f0:	00005000 	andeq	r5, r0, r0
	...
     8fc:	05780000 	ldrbeq	r0, [r8, #-0]!
     900:	05900000 	ldreq	r0, [r0]
     904:	00010000 	andeq	r0, r1, r0
     908:	00059050 	andeq	r9, r5, r0, asr r0
     90c:	0005b400 	andeq	fp, r5, r0, lsl #8
     910:	5c000100 	stfpls	f0, [r0], {-0}
	...
     91c:	00000001 	andeq	r0, r0, r1
     920:	00000588 	andeq	r0, r0, r8, lsl #11
     924:	00000594 	muleq	r0, r4, r5
     928:	9f300002 	svcls	0x00300002
     92c:	00000594 	muleq	r0, r4, r5
     930:	000005b4 			; <UNDEFINED> instruction: 0x000005b4
     934:	00500001 	subseq	r0, r0, r1
     938:	00000000 	andeq	r0, r0, r0
     93c:	03000000 	movweq	r0, #0
     940:	88000000 	stmdahi	r0, {}	; <UNPREDICTABLE>
     944:	94000005 	strls	r0, [r0], #-5
     948:	02000005 	andeq	r0, r0, #5, 0
     94c:	949f3000 	ldrls	r3, [pc], #0	; 954 <__code_start__-0x76ac>
     950:	b4000005 	strlt	r0, [r0], #-5
     954:	01000005 	tsteq	r0, r5
     958:	00005300 	andeq	r5, r0, r0, lsl #6
	...
     964:	02140000 	andseq	r0, r4, #0, 0
     968:	022f0000 	eoreq	r0, pc, #0, 0
     96c:	00010000 	andeq	r0, r1, r0
     970:	00023050 	andeq	r3, r2, r0, asr r0
     974:	00023800 	andeq	r3, r2, r0, lsl #16
     978:	50000100 	andpl	r0, r0, r0, lsl #2
	...
     990:	00600000 	rsbeq	r0, r0, r0
     994:	00a80000 	adceq	r0, r8, r0
     998:	00010000 	andeq	r0, r1, r0
     99c:	0000a850 	andeq	sl, r0, r0, asr r8
     9a0:	0000b000 	andeq	fp, r0, r0
     9a4:	54000100 	strpl	r0, [r0], #-256	; 0xffffff00
     9a8:	000000b0 	strheq	r0, [r0], -r0	; <UNPREDICTABLE>
     9ac:	000000c8 	andeq	r0, r0, r8, asr #1
     9b0:	c8500001 	ldmdagt	r0, {r0}^
     9b4:	d0000000 	andle	r0, r0, r0
     9b8:	04000000 	streq	r0, [r0], #-0
     9bc:	5001f300 	andpl	pc, r1, r0, lsl #6
     9c0:	0000d09f 	muleq	r0, pc, r0	; <UNPREDICTABLE>
     9c4:	0000e800 	andeq	lr, r0, r0, lsl #16
     9c8:	50000100 	andpl	r0, r0, r0, lsl #2
     9cc:	000000e8 	andeq	r0, r0, r8, ror #1
     9d0:	000000f0 	strdeq	r0, [r0], -r0	; <UNPREDICTABLE>
     9d4:	f0540001 			; <UNDEFINED> instruction: 0xf0540001
     9d8:	f0000000 			; <UNDEFINED> instruction: 0xf0000000
     9dc:	04000001 	streq	r0, [r0], #-1
     9e0:	5001f300 	andpl	pc, r1, r0, lsl #6
     9e4:	0000009f 	muleq	r0, pc, r0	; <UNPREDICTABLE>
	...
     9f8:	60000000 	andvs	r0, r0, r0
     9fc:	a4000000 	strge	r0, [r0], #-0
     a00:	01000000 	mrseq	r0, (UNDEF: 0)
     a04:	00a45100 	adceq	r5, r4, r0, lsl #2
     a08:	00b00000 	adcseq	r0, r0, r0
     a0c:	00010000 	andeq	r0, r1, r0
     a10:	0000b057 	andeq	fp, r0, r7, asr r0
     a14:	0000c400 	andeq	ip, r0, r0, lsl #8
     a18:	51000100 	mrspl	r0, (UNDEF: 16)
     a1c:	000000c4 	andeq	r0, r0, r4, asr #1
     a20:	000000d0 	ldrdeq	r0, [r0], -r0	; <UNPREDICTABLE>
     a24:	01f30004 	mvnseq	r0, r4
     a28:	00d09f51 	sbcseq	r9, r0, r1, asr pc
     a2c:	00e40000 	rsceq	r0, r4, r0
     a30:	00010000 	andeq	r0, r1, r0
     a34:	0000e451 	andeq	lr, r0, r1, asr r4
     a38:	0001cc00 	andeq	ip, r1, r0, lsl #24
     a3c:	57000100 	strpl	r0, [r0, -r0, lsl #2]
     a40:	000001cc 	andeq	r0, r0, ip, asr #3
     a44:	000001f0 	strdeq	r0, [r0], -r0	; <UNPREDICTABLE>
     a48:	01f30004 	mvnseq	r0, r4
     a4c:	00009f51 	andeq	r9, r0, r1, asr pc
	...
     a58:	000000f0 	strdeq	r0, [r0], -r0	; <UNPREDICTABLE>
     a5c:	000001cc 	andeq	r0, r0, ip, asr #3
     a60:	00540001 	subseq	r0, r4, r1
	...
     a6c:	f8000000 			; <UNDEFINED> instruction: 0xf8000000
     a70:	18000000 	stmdane	r0, {}	; <UNPREDICTABLE>
     a74:	01000001 	tsteq	r0, r1
     a78:	01405500 	cmpeq	r0, r0, lsl #10
     a7c:	01c40000 	biceq	r0, r4, r0
     a80:	00010000 	andeq	r0, r1, r0
     a84:	00000055 	andeq	r0, r0, r5, asr r0
	...
     a90:	0000f800 	andeq	pc, r0, r0, lsl #16
     a94:	00011400 	andeq	r1, r1, r0, lsl #8
     a98:	56000100 	strpl	r0, [r0], -r0, lsl #2
     a9c:	0000014c 	andeq	r0, r0, ip, asr #2
     aa0:	000001c4 	andeq	r0, r0, r4, asr #3
     aa4:	00560001 	subseq	r0, r6, r1
	...
     ab0:	f8000000 			; <UNDEFINED> instruction: 0xf8000000
     ab4:	14000000 	strne	r0, [r0], #-0
     ab8:	01000001 	tsteq	r0, r1
     abc:	01505800 	cmpeq	r0, r0, lsl #16
     ac0:	01c40000 	biceq	r0, r4, r0
     ac4:	00010000 	andeq	r0, r1, r0
     ac8:	00000058 	andeq	r0, r0, r8, asr r0
     acc:	00000000 	andeq	r0, r0, r0
     ad0:	02000000 	andeq	r0, r0, #0, 0
     ad4:	0000f000 	andeq	pc, r0, r0
     ad8:	0000f400 	andeq	pc, r0, r0, lsl #8
     adc:	55000100 	strpl	r0, [r0, #-256]	; 0xffffff00
     ae0:	00000124 	andeq	r0, r0, r4, lsr #2
     ae4:	00000140 	andeq	r0, r0, r0, asr #2
     ae8:	00550001 	subseq	r0, r5, r1
	...
     afc:	0c000000 	stceq	0, cr0, [r0], {-0}
     b00:	3c000000 	stccc	0, cr0, [r0], {-0}
     b04:	01000000 	mrseq	r0, (UNDEF: 0)
     b08:	003c5000 	eorseq	r5, ip, r0
     b0c:	00400000 	subeq	r0, r0, r0
     b10:	00040000 	andeq	r0, r4, r0
     b14:	9f5001f3 	svcls	0x005001f3
     b18:	00000040 	andeq	r0, r0, r0, asr #32
     b1c:	00000044 	andeq	r0, r0, r4, asr #32
     b20:	44500001 	ldrbmi	r0, [r0], #-1
     b24:	48000000 	stmdami	r0, {}	; <UNPREDICTABLE>
     b28:	04000000 	streq	r0, [r0], #-0
     b2c:	5001f300 	andpl	pc, r1, r0, lsl #6
     b30:	0000489f 	muleq	r0, pc, r8	; <UNPREDICTABLE>
     b34:	00004c00 	andeq	r4, r0, r0, lsl #24
     b38:	50000100 	andpl	r0, r0, r0, lsl #2
     b3c:	0000004c 	andeq	r0, r0, ip, asr #32
     b40:	00000054 	andeq	r0, r0, r4, asr r0
     b44:	01f30004 	mvnseq	r0, r4
     b48:	00009f50 	andeq	r9, r0, r0, asr pc
	...
     b5c:	04b80000 	ldrteq	r0, [r8], #0
     b60:	04e80000 	strbteq	r0, [r8], #0
     b64:	00010000 	andeq	r0, r1, r0
     b68:	0004e850 	andeq	lr, r4, r0, asr r8
     b6c:	00051400 	andeq	r1, r5, r0, lsl #8
     b70:	54000100 	strpl	r0, [r0], #-256	; 0xffffff00
     b74:	00000514 	andeq	r0, r0, r4, lsl r5
     b78:	0000052c 	andeq	r0, r0, ip, lsr #10
     b7c:	2c500001 	mrrccs	0, 0, r0, r0, cr1	; <UNPREDICTABLE>
     b80:	34000005 	strcc	r0, [r0], #-5
     b84:	01000005 	tsteq	r0, r5
     b88:	05345400 	ldreq	r5, [r4, #-1024]!	; 0xfffffc00
     b8c:	05440000 	strbeq	r0, [r4, #-0]
     b90:	00010000 	andeq	r0, r1, r0
     b94:	00054450 	andeq	r4, r5, r0, asr r4
     b98:	00056400 	andeq	r6, r5, r0, lsl #8
     b9c:	54000100 	strpl	r0, [r0], #-256	; 0xffffff00
	...
     ba8:	04e00002 	strbteq	r0, [r0], #2
     bac:	05140000 	ldreq	r0, [r4, #-0]
     bb0:	00040000 	andeq	r0, r4, r0
     bb4:	9f244040 	svcls	0x00244040
	...
     bc0:	00080000 	andeq	r0, r8, r0
     bc4:	00800000 	addeq	r0, r0, r0
     bc8:	00010000 	andeq	r0, r1, r0
     bcc:	00000054 	andeq	r0, r0, r4, asr r0
     bd0:	00000000 	andeq	r0, r0, r0
     bd4:	00000200 	andeq	r0, r0, r0, lsl #4
     bd8:	00000800 	andeq	r0, r0, r0, lsl #16
     bdc:	00002000 	andeq	r2, r0, r0
     be0:	30000200 	andcc	r0, r0, r0, lsl #4
     be4:	0000209f 	muleq	r0, pc, r0	; <UNPREDICTABLE>
     be8:	00006c00 	andeq	r6, r0, r0, lsl #24
     bec:	57000100 	strpl	r0, [r0, -r0, lsl #2]
	...
     bf8:	003c0000 	eorseq	r0, ip, r0
     bfc:	00570000 	subseq	r0, r7, r0
     c00:	00010000 	andeq	r0, r1, r0
     c04:	00000052 	andeq	r0, r0, r2, asr r0
     c08:	00000000 	andeq	r0, r0, r0
     c0c:	3c000100 	stfccs	f0, [r0], {-0}
     c10:	50000000 	andpl	r0, r0, r0
     c14:	01000000 	mrseq	r0, (UNDEF: 0)
     c18:	00005200 	andeq	r5, r0, r0, lsl #4
     c1c:	00000000 	andeq	r0, r0, r0
     c20:	00030000 	andeq	r0, r3, r0
     c24:	003c0000 	eorseq	r0, ip, r0
     c28:	00480000 	subeq	r0, r8, r0
     c2c:	00010000 	andeq	r0, r1, r0
     c30:	00004853 	andeq	r4, r0, r3, asr r8
     c34:	00005000 	andeq	r5, r0, r0
     c38:	70000200 	andvc	r0, r0, r0, lsl #4
	...
     c48:	38000000 	stmdacc	r0, {}	; <UNPREDICTABLE>
     c4c:	48000000 	stmdami	r0, {}	; <UNPREDICTABLE>
     c50:	09000000 	stmdbeq	r0, {}	; <UNPREDICTABLE>
     c54:	0c007300 	stceq	3, cr7, [r0], {-0}
     c58:	00ffffff 	ldrshteq	pc, [pc], #255	; <UNPREDICTABLE>
     c5c:	00489f1a 	subeq	r9, r8, sl, lsl pc
     c60:	004c0000 	subeq	r0, ip, r0
     c64:	00010000 	andeq	r0, r1, r0
     c68:	00004c53 	andeq	r4, r0, r3, asr ip
     c6c:	00005000 	andeq	r5, r0, r0
     c70:	70000a00 	andvc	r0, r0, r0, lsl #20
     c74:	ff0c0600 			; <UNDEFINED> instruction: 0xff0c0600
     c78:	1a00ffff 	bne	40c7c <__bss_end__+0x3597c>
     c7c:	0000009f 	muleq	r0, pc, r0	; <UNPREDICTABLE>
	...
     c88:	80000000 	andhi	r0, r0, r0
     c8c:	88000000 	stmdahi	r0, {}	; <UNPREDICTABLE>
     c90:	01000000 	mrseq	r0, (UNDEF: 0)
     c94:	00885000 	addeq	r5, r8, r0
     c98:	00940000 	addseq	r0, r4, r0
     c9c:	00030000 	andeq	r0, r3, r0
     ca0:	949f0470 	ldrls	r0, [pc], #1136	; ca8 <__code_start__-0x7358>
     ca4:	a0000000 	andge	r0, r0, r0
     ca8:	04000000 	streq	r0, [r0], #-0
     cac:	5001f300 	andpl	pc, r1, r0, lsl #6
     cb0:	0000009f 	muleq	r0, pc, r0	; <UNPREDICTABLE>
	...
     cbc:	84000000 	strhi	r0, [r0], #-0
     cc0:	90000000 	andls	r0, r0, r0
     cc4:	01000000 	mrseq	r0, (UNDEF: 0)
     cc8:	00905300 	addseq	r5, r0, r0, lsl #6
     ccc:	00940000 	addseq	r0, r4, r0
     cd0:	00020000 	andeq	r0, r2, r0
     cd4:	00940070 	addseq	r0, r4, r0, ror r0
     cd8:	00a00000 	adceq	r0, r0, r0
     cdc:	00050000 	andeq	r0, r5, r0
     ce0:	345001f3 	ldrbcc	r0, [r0], #-499	; 0xfffffe0d
     ce4:	0000001c 	andeq	r0, r0, ip, lsl r0
     ce8:	00000000 	andeq	r0, r0, r0
     cec:	00000100 	andeq	r0, r0, r0, lsl #2
     cf0:	8c000000 	stchi	0, cr0, [r0], {-0}
     cf4:	90000000 	andls	r0, r0, r0
     cf8:	09000000 	stmdbeq	r0, {}	; <UNPREDICTABLE>
     cfc:	0c007300 	stceq	3, cr7, [r0], {-0}
     d00:	00ffffff 	ldrshteq	pc, [pc], #255	; <UNPREDICTABLE>
     d04:	00909f1a 	addseq	r9, r0, sl, lsl pc
     d08:	00940000 	addseq	r0, r4, r0
     d0c:	000a0000 	andeq	r0, sl, r0
     d10:	0c060070 	stceq	0, cr0, [r6], {112}	; 0x70
     d14:	00ffffff 	ldrshteq	pc, [pc], #255	; <UNPREDICTABLE>
     d18:	00949f1a 	addseq	r9, r4, sl, lsl pc
     d1c:	00a00000 	adceq	r0, r0, r0
     d20:	000d0000 	andeq	r0, sp, r0
     d24:	345001f3 	ldrbcc	r0, [r0], #-499	; 0xfffffe0d
     d28:	ff0c061c 			; <UNDEFINED> instruction: 0xff0c061c
     d2c:	1a00ffff 	bne	40d30 <__bss_end__+0x35a30>
     d30:	0000009f 	muleq	r0, pc, r0	; <UNPREDICTABLE>
	...
     d40:	00001c00 	andeq	r1, r0, r0, lsl #24
     d44:	51000100 	mrspl	r0, (UNDEF: 16)
     d48:	0000001c 	andeq	r0, r0, ip, lsl r0
     d4c:	00000078 	andeq	r0, r0, r8, ror r0
     d50:	01f30004 	mvnseq	r0, r4
     d54:	00009f51 	andeq	r9, r0, r1, asr pc
	...
     d64:	00580000 	subseq	r0, r8, r0
     d68:	00010000 	andeq	r0, r1, r0
     d6c:	00005852 	andeq	r5, r0, r2, asr r8
     d70:	00007800 	andeq	r7, r0, r0, lsl #16
     d74:	f3000400 	vshl.u8	d0, d0, d0
     d78:	009f5201 	addseq	r5, pc, r1, lsl #4
     d7c:	00000000 	andeq	r0, r0, r0
     d80:	02000000 	andeq	r0, r0, #0, 0
     d84:	01010000 	mrseq	r0, (UNDEF: 1)
     d88:	01010000 	mrseq	r0, (UNDEF: 1)
     d8c:	01010000 	mrseq	r0, (UNDEF: 1)
     d90:	00000000 	andeq	r0, r0, r0
     d94:	00003800 	andeq	r3, r0, r0, lsl #16
     d98:	50000100 	andpl	r0, r0, r0, lsl #2
     d9c:	00000054 	andeq	r0, r0, r4, asr r0
     da0:	00000054 	andeq	r0, r0, r4, asr r0
     da4:	54530001 	ldrbpl	r0, [r3], #-1
     da8:	5c000000 	stcpl	0, cr0, [r0], {-0}
     dac:	03000000 	movweq	r0, #0
     db0:	9f017300 	svcls	0x00017300
     db4:	0000005c 	andeq	r0, r0, ip, asr r0
     db8:	00000064 	andeq	r0, r0, r4, rrx
     dbc:	64520001 	ldrbvs	r0, [r2], #-1
     dc0:	68000000 	stmdavs	r0, {}	; <UNPREDICTABLE>
     dc4:	03000000 	movweq	r0, #0
     dc8:	9f027300 	svcls	0x00027300
     dcc:	00000068 	andeq	r0, r0, r8, rrx
     dd0:	00000074 	andeq	r0, r0, r4, ror r0
     dd4:	74520001 	ldrbvc	r0, [r2], #-1
     dd8:	78000000 	stmdavc	r0, {}	; <UNPREDICTABLE>
     ddc:	03000000 	movweq	r0, #0
     de0:	9f017200 	svcls	0x00017200
	...
     dec:	00080000 	andeq	r0, r8, r0
     df0:	00780000 	rsbseq	r0, r8, r0
     df4:	00010000 	andeq	r0, r1, r0
     df8:	00000054 	andeq	r0, r0, r4, asr r0
	...
     e04:	2c000000 	stccs	0, cr0, [r0], {-0}
     e08:	34000000 	strcc	r0, [r0], #-0
     e0c:	01000000 	mrseq	r0, (UNDEF: 0)
     e10:	00345000 	eorseq	r5, r4, r0
     e14:	00480000 	subeq	r0, r8, r0
     e18:	00010000 	andeq	r0, r1, r0
     e1c:	00004854 	andeq	r4, r0, r4, asr r8
     e20:	00005800 	andeq	r5, r0, r0, lsl #16
     e24:	50000100 	andpl	r0, r0, r0, lsl #2
	...
     e30:	01000000 	mrseq	r0, (UNDEF: 0)
     e34:	00000001 	andeq	r0, r0, r1
     e38:	00000000 	andeq	r0, r0, r0
     e3c:	0000000c 	andeq	r0, r0, ip
     e40:	0c500001 	mrrceq	0, 0, r0, r0, cr1	; <UNPREDICTABLE>
     e44:	20000000 	andcs	r0, r0, r0
     e48:	01000000 	mrseq	r0, (UNDEF: 0)
     e4c:	00205400 	eoreq	r5, r0, r0, lsl #8
     e50:	00240000 	eoreq	r0, r4, r0
     e54:	00030000 	andeq	r0, r3, r0
     e58:	249f0174 	ldrcs	r0, [pc], #372	; e60 <__code_start__-0x71a0>
     e5c:	38000000 	stmdacc	r0, {}	; <UNPREDICTABLE>
     e60:	01000000 	mrseq	r0, (UNDEF: 0)
     e64:	00005400 	andeq	r5, r0, r0, lsl #8
	...
     e78:	00000388 	andeq	r0, r0, r8, lsl #7
     e7c:	00000394 	muleq	r0, r4, r3
     e80:	94500001 	ldrbls	r0, [r0], #-1
     e84:	d0000003 	andle	r0, r0, r3
     e88:	01000003 	tsteq	r0, r3
     e8c:	03d05b00 	bicseq	r5, r0, #0, 22
     e90:	09200000 	stmdbeq	r0!, {}	; <UNPREDICTABLE>
     e94:	00040000 	andeq	r0, r4, r0
     e98:	9f5001f3 	svcls	0x005001f3
     e9c:	00000920 	andeq	r0, r0, r0, lsr #18
     ea0:	00000928 	andeq	r0, r0, r8, lsr #18
     ea4:	285b0001 	ldmdacs	fp, {r0}^
     ea8:	b4000009 	strlt	r0, [r0], #-9
     eac:	04000009 	streq	r0, [r0], #-9
     eb0:	5001f300 	andpl	pc, r1, r0, lsl #6
     eb4:	0000009f 	muleq	r0, pc, r0	; <UNPREDICTABLE>
	...
     ec4:	00038800 	andeq	r8, r3, r0, lsl #16
     ec8:	0003d000 	andeq	sp, r3, r0
     ecc:	51000100 	mrspl	r0, (UNDEF: 16)
     ed0:	000003d0 	ldrdeq	r0, [r0], -r0	; <UNPREDICTABLE>
     ed4:	00000920 	andeq	r0, r0, r0, lsr #18
     ed8:	01f30004 	mvnseq	r0, r4
     edc:	09209f51 	stmdbeq	r0!, {r0, r4, r6, r8, r9, sl, fp, ip, pc}
     ee0:	09280000 	stmdbeq	r8!, {}	; <UNPREDICTABLE>
     ee4:	00010000 	andeq	r0, r1, r0
     ee8:	00092851 	andeq	r2, r9, r1, asr r8
     eec:	0009b400 	andeq	fp, r9, r0, lsl #8
     ef0:	f3000400 	vshl.u8	d0, d0, d0
     ef4:	009f5101 	addseq	r5, pc, r1, lsl #2
	...
     f04:	00010000 	andeq	r0, r1, r0
     f08:	00000100 	andeq	r0, r0, r0, lsl #2
	...
     f14:	88000000 	stmdahi	r0, {}	; <UNPREDICTABLE>
     f18:	d0000003 	andle	r0, r0, r3
     f1c:	01000003 	tsteq	r0, r3
     f20:	03d05200 	bicseq	r5, r0, #0, 4
     f24:	04000000 	streq	r0, [r0], #-0
     f28:	00010000 	andeq	r0, r1, r0
     f2c:	00041456 	andeq	r1, r4, r6, asr r4
     f30:	00042400 	andeq	r2, r4, r0, lsl #8
     f34:	56000100 	strpl	r0, [r0], -r0, lsl #2
     f38:	00000424 	andeq	r0, r0, r4, lsr #8
     f3c:	00000428 	andeq	r0, r0, r8, lsr #8
     f40:	7f760003 	svcvc	0x00760003
     f44:	0004a89f 	muleq	r4, pc, r8	; <UNPREDICTABLE>
     f48:	0004ac00 	andeq	sl, r4, r0, lsl #24
     f4c:	56000100 	strpl	r0, [r0], -r0, lsl #2
     f50:	000004e0 	andeq	r0, r0, r0, ror #9
     f54:	00000504 	andeq	r0, r0, r4, lsl #10
     f58:	7c560001 	mrrcvc	0, 0, r0, r6, cr1
     f5c:	88000005 	stmdahi	r0, {r0, r2}
     f60:	01000005 	tsteq	r0, r5
     f64:	05885300 	streq	r5, [r8, #768]	; 0x300
     f68:	05d00000 	ldrbeq	r0, [r0]
     f6c:	00030000 	andeq	r0, r3, r0
     f70:	007dcc91 			; <UNDEFINED> instruction: 0x007dcc91
     f74:	0f000008 	svceq	0x00000008
     f78:	01000008 	tsteq	r0, r8
     f7c:	080f5300 	stmdaeq	pc, {r8, r9, ip, lr}	; <UNPREDICTABLE>
     f80:	08880000 	stmeq	r8, {}	; <UNPREDICTABLE>
     f84:	00030000 	andeq	r0, r3, r0
     f88:	207dcc91 			; <UNDEFINED> instruction: 0x207dcc91
     f8c:	28000009 	stmdacs	r0, {r0, r3}
     f90:	01000009 	tsteq	r0, r9
     f94:	09485200 	stmdbeq	r8, {r9, ip, lr}^
     f98:	09640000 	stmdbeq	r4!, {}^	; <UNPREDICTABLE>
     f9c:	00030000 	andeq	r0, r3, r0
     fa0:	007dcc91 			; <UNDEFINED> instruction: 0x007dcc91
	...
     fb4:	00000101 	andeq	r0, r0, r1, lsl #2
     fb8:	00000101 	andeq	r0, r0, r1, lsl #2
     fbc:	02020000 	andeq	r0, r2, #0, 0
     fc0:	02020000 	andeq	r0, r2, #0, 0
     fc4:	01010000 	mrseq	r0, (UNDEF: 1)
     fc8:	02020000 	andeq	r0, r2, #0, 0
     fcc:	01010000 	mrseq	r0, (UNDEF: 1)
	...
     fd8:	00038800 	andeq	r8, r3, r0, lsl #16
     fdc:	0003ac00 	andeq	sl, r3, r0, lsl #24
     fe0:	53000100 	movwpl	r0, #256	; 0x100
     fe4:	000003ac 	andeq	r0, r0, ip, lsr #7
     fe8:	000003c0 	andeq	r0, r0, r0, asr #7
     fec:	93530003 	cmpls	r3, #3, 0
     ff0:	0003d004 	andeq	sp, r3, r4
     ff4:	0003e800 	andeq	lr, r3, r0, lsl #16
     ff8:	58000300 	stmdapl	r0, {r8, r9}
     ffc:	03e80493 	mvneq	r0, #-1828716544	; 0x93000000
    1000:	04ac0000 	strteq	r0, [ip], #0
    1004:	00030000 	andeq	r0, r3, r0
    1008:	c0049358 	andgt	r9, r4, r8, asr r3
    100c:	c0000004 	andgt	r0, r0, r4
    1010:	03000004 	movweq	r0, #4
    1014:	04935800 	ldreq	r5, [r3], #2048	; 0x800
    1018:	000004c0 	andeq	r0, r0, r0, asr #9
    101c:	000004cc 	andeq	r0, r0, ip, asr #9
    1020:	04780005 	ldrbteq	r0, [r8], #-5
    1024:	cc04939f 	stcgt	3, cr9, [r4], {159}	; 0x9f
    1028:	e0000004 	and	r0, r0, r4
    102c:	03000004 	movweq	r0, #4
    1030:	04935800 	ldreq	r5, [r3], #2048	; 0x800
    1034:	000004e0 	andeq	r0, r0, r0, ror #9
    1038:	00000538 	andeq	r0, r0, r8, lsr r5
    103c:	93580003 	cmpls	r8, #3, 0
    1040:	00053804 	andeq	r3, r5, r4, lsl #16
    1044:	00053c00 	andeq	r3, r5, r0, lsl #24
    1048:	78000500 	stmdavc	r0, {r8, sl}
    104c:	04939f79 	ldreq	r9, [r3], #3961	; 0xf79
    1050:	000005d0 	ldrdeq	r0, [r0], -r0	; <UNPREDICTABLE>
    1054:	000005d0 	ldrdeq	r0, [r0], -r0	; <UNPREDICTABLE>
    1058:	93580003 	cmpls	r8, #3, 0
    105c:	0005d004 	andeq	sp, r5, r4
    1060:	0005d400 	andeq	sp, r5, r0, lsl #8
    1064:	78000500 	stmdavc	r0, {r8, sl}
    1068:	04939f04 	ldreq	r9, [r3], #3844	; 0xf04
    106c:	000005f4 	strdeq	r0, [r0], -r4
    1070:	000005f4 	strdeq	r0, [r0], -r4
    1074:	93580003 	cmpls	r8, #3, 0
    1078:	0005f404 	andeq	pc, r5, r4, lsl #8
    107c:	0005fc00 	andeq	pc, r5, r0, lsl #24
    1080:	78000500 	stmdavc	r0, {r8, sl}
    1084:	04939f04 	ldreq	r9, [r3], #3844	; 0xf04
    1088:	000005fc 	strdeq	r0, [r0], -ip
    108c:	000005fc 	strdeq	r0, [r0], -ip
    1090:	93580003 	cmpls	r8, #3, 0
    1094:	0005fc04 	andeq	pc, r5, r4, lsl #24
    1098:	00060000 	andeq	r0, r6, r0
    109c:	78000500 	stmdavc	r0, {r8, sl}
    10a0:	04939f04 	ldreq	r9, [r3], #3844	; 0xf04
    10a4:	00000600 	andeq	r0, r0, r0, lsl #12
    10a8:	00000700 	andeq	r0, r0, r0, lsl #14
    10ac:	93580003 	cmpls	r8, #3, 0
    10b0:	00070004 	andeq	r0, r7, r4
    10b4:	00070c00 	andeq	r0, r7, r0, lsl #24
    10b8:	78000500 	stmdavc	r0, {r8, sl}
    10bc:	04939f04 	ldreq	r9, [r3], #3844	; 0xf04
    10c0:	0000070c 	andeq	r0, r0, ip, lsl #14
    10c4:	000007f8 	strdeq	r0, [r0], -r8
    10c8:	93580003 	cmpls	r8, #3, 0
    10cc:	0007f804 	andeq	pc, r7, r4, lsl #16
    10d0:	0007fc00 	andeq	pc, r7, r0, lsl #24
    10d4:	78000500 	stmdavc	r0, {r8, sl}
    10d8:	04939f04 	ldreq	r9, [r3], #3844	; 0xf04
    10dc:	000007fc 	strdeq	r0, [r0], -ip
    10e0:	00000800 	andeq	r0, r0, r0, lsl #16
    10e4:	93580003 	cmpls	r8, #3, 0
    10e8:	00088804 	andeq	r8, r8, r4, lsl #16
    10ec:	00092000 	andeq	r2, r9, r0
    10f0:	58000300 	stmdapl	r0, {r8, r9}
    10f4:	09200493 	stmdbeq	r0!, {r0, r1, r4, r7, sl}
    10f8:	09280000 	stmdbeq	r8!, {}	; <UNPREDICTABLE>
    10fc:	00010000 	andeq	r0, r1, r0
    1100:	00096453 	andeq	r6, r9, r3, asr r4
    1104:	0009b400 	andeq	fp, r9, r0, lsl #8
    1108:	58000300 	stmdapl	r0, {r8, r9}
    110c:	00000493 	muleq	r0, r3, r4
    1110:	00000000 	andeq	r0, r0, r0
    1114:	00010000 	andeq	r0, r1, r0
    1118:	00000000 	andeq	r0, r0, r0
    111c:	02000000 	andeq	r0, r0, #0, 0
    1120:	00000002 	andeq	r0, r0, r2
    1124:	00010101 	andeq	r0, r1, r1, lsl #2
    1128:	00000000 	andeq	r0, r0, r0
    112c:	000003ac 	andeq	r0, r0, ip, lsr #7
    1130:	000003d0 	ldrdeq	r0, [r0], -r0	; <UNPREDICTABLE>
    1134:	d05b0001 	subsle	r0, fp, r1
    1138:	d4000003 	strle	r0, [r0], #-3
    113c:	01000003 	tsteq	r0, r3
    1140:	03d45400 	bicseq	r5, r4, #0, 8
    1144:	03d80000 	bicseq	r0, r8, #0, 0
    1148:	00030000 	andeq	r0, r3, r0
    114c:	d89f7f74 	ldmle	pc, {r2, r4, r5, r6, r8, r9, sl, fp, ip, sp, lr}	; <UNPREDICTABLE>
    1150:	fc000003 	stc2	0, cr0, [r0], {3}
    1154:	01000003 	tsteq	r0, r3
    1158:	04a85400 	strteq	r5, [r8], #1024	; 0x400
    115c:	04ac0000 	strteq	r0, [ip], #0
    1160:	00010000 	andeq	r0, r1, r0
    1164:	0004ac54 	andeq	sl, r4, r4, asr ip
    1168:	0004b400 	andeq	fp, r4, r0, lsl #8
    116c:	74000300 	strvc	r0, [r0], #-768	; 0xfffffd00
    1170:	04b49f01 	ldrteq	r9, [r4], #3841	; 0xf01
    1174:	04c00000 	strbeq	r0, [r0], #0
    1178:	00010000 	andeq	r0, r1, r0
    117c:	0004e454 	andeq	lr, r4, r4, asr r4
    1180:	0004f400 	andeq	pc, r4, r0, lsl #8
    1184:	54000100 	strpl	r0, [r0], #-256	; 0xffffff00
    1188:	000004f4 	strdeq	r0, [r0], -r4
    118c:	000004f8 	strdeq	r0, [r0], -r8
    1190:	01740003 	cmneq	r4, r3
    1194:	0004f89f 	muleq	r4, pc, r8	; <UNPREDICTABLE>
    1198:	00050400 	andeq	r0, r5, r0, lsl #8
    119c:	54000100 	strpl	r0, [r0], #-256	; 0xffffff00
    11a0:	00000920 	andeq	r0, r0, r0, lsr #18
    11a4:	00000928 	andeq	r0, r0, r8, lsr #18
    11a8:	005b0001 	subseq	r0, fp, r1
    11ac:	00000000 	andeq	r0, r0, r0
    11b0:	01000000 	mrseq	r0, (UNDEF: 0)
    11b4:	0003ac00 	andeq	sl, r3, r0, lsl #24
    11b8:	0009b400 	andeq	fp, r9, r0, lsl #8
    11bc:	57000100 	strpl	r0, [r0, -r0, lsl #2]
	...
    11c8:	00000002 	andeq	r0, r0, r2
    11cc:	057c0000 	ldrbeq	r0, [ip, #-0]!
    11d0:	05d00000 	ldrbeq	r0, [r0]
    11d4:	00010000 	andeq	r0, r1, r0
    11d8:	0008005b 	andeq	r0, r8, fp, asr r0
    11dc:	00088800 	andeq	r8, r8, r0, lsl #16
    11e0:	5b000100 	blpl	15e8 <__code_start__-0x6a18>
    11e4:	00000948 	andeq	r0, r0, r8, asr #18
    11e8:	00000964 	andeq	r0, r0, r4, ror #18
    11ec:	005b0001 	subseq	r0, fp, r1
    11f0:	00000000 	andeq	r0, r0, r0
    11f4:	03000000 	movweq	r0, #0
    11f8:	00000000 	andeq	r0, r0, r0
    11fc:	00057c00 	andeq	r7, r5, r0, lsl #24
    1200:	0005d000 	andeq	sp, r5, r0
    1204:	59000100 	stmdbpl	r0, {r8}
    1208:	00000800 	andeq	r0, r0, r0, lsl #16
    120c:	00000888 	andeq	r0, r0, r8, lsl #17
    1210:	48590001 	ldmdami	r9, {r0}^
    1214:	64000009 	strvs	r0, [r0], #-9
    1218:	01000009 	tsteq	r0, r9
    121c:	00005900 	andeq	r5, r0, r0, lsl #18
    1220:	00000000 	andeq	r0, r0, r0
    1224:	00040000 	andeq	r0, r4, r0
    1228:	00000000 	andeq	r0, r0, r0
    122c:	03ac0000 			; <UNDEFINED> instruction: 0x03ac0000
    1230:	03d00000 	bicseq	r0, r0, #0, 0
    1234:	00010000 	andeq	r0, r1, r0
    1238:	0003d052 	andeq	sp, r3, r2, asr r0
    123c:	00092000 	andeq	r2, r9, r0
    1240:	f3000400 	vshl.u8	d0, d0, d0
    1244:	209f5201 	addscs	r5, pc, r1, lsl #4
    1248:	28000009 	stmdacs	r0, {r0, r3}
    124c:	01000009 	tsteq	r0, r9
    1250:	09285200 	stmdbeq	r8!, {r9, ip, lr}
    1254:	09b40000 	ldmibeq	r4!, {}	; <UNPREDICTABLE>
    1258:	00040000 	andeq	r0, r4, r0
    125c:	9f5201f3 	svcls	0x005201f3
	...
    1268:	00010100 	andeq	r0, r1, r0, lsl #2
    126c:	00000000 	andeq	r0, r0, r0
    1270:	00000001 	andeq	r0, r0, r1
    1274:	000004e0 	andeq	r0, r0, r0, ror #9
    1278:	000004e0 	andeq	r0, r0, r0, ror #9
    127c:	e0500001 	subs	r0, r0, r1
    1280:	e8000004 	stmda	r0, {r2}
    1284:	01000004 	tsteq	r0, r4
    1288:	05b85500 	ldreq	r5, [r8, #1280]!	; 0x500
    128c:	05d00000 	ldrbeq	r0, [r0]
    1290:	00010000 	andeq	r0, r1, r0
    1294:	0005f055 	andeq	pc, r5, r5, asr r0	; <UNPREDICTABLE>
    1298:	0005f400 	andeq	pc, r5, r0, lsl #8
    129c:	50000100 	andpl	r0, r0, r0, lsl #2
    12a0:	000007f4 	strdeq	r0, [r0], -r4
    12a4:	000007f8 	strdeq	r0, [r0], -r8
    12a8:	50550001 	subspl	r0, r5, r1
    12ac:	88000008 	stmdahi	r0, {r3}
    12b0:	01000008 	tsteq	r0, r8
    12b4:	00005500 	andeq	r5, r0, r0, lsl #10
    12b8:	00000000 	andeq	r0, r0, r0
    12bc:	00020000 	andeq	r0, r2, r0
    12c0:	00000000 	andeq	r0, r0, r0
    12c4:	04140000 	ldreq	r0, [r4], #-0
    12c8:	04180000 	ldreq	r0, [r8], #-0
    12cc:	00020000 	andeq	r0, r2, r0
    12d0:	04189f30 	ldreq	r9, [r8], #-3888	; 0xfffff0d0
    12d4:	041c0000 	ldreq	r0, [ip], #-0
    12d8:	00010000 	andeq	r0, r1, r0
    12dc:	00042855 	andeq	r2, r4, r5, asr r8
    12e0:	00043c00 	andeq	r3, r4, r0, lsl #24
    12e4:	55000100 	strpl	r0, [r0, #-256]	; 0xffffff00
    12e8:	00000928 	andeq	r0, r0, r8, lsr #18
    12ec:	00000930 	andeq	r0, r0, r0, lsr r9
    12f0:	00550001 	subseq	r0, r5, r1
    12f4:	00000000 	andeq	r0, r0, r0
    12f8:	01000000 	mrseq	r0, (UNDEF: 0)
	...
    1304:	04000000 	streq	r0, [r0], #-0
    1308:	84000005 	strhi	r0, [r0], #-5
    130c:	01000005 	tsteq	r0, r5
    1310:	05845600 	streq	r5, [r4, #1536]	; 0x600
    1314:	05880000 	streq	r0, [r8]
    1318:	00030000 	andeq	r0, r3, r0
    131c:	889f7e73 	ldmhi	pc, {r0, r1, r4, r5, r6, r9, sl, fp, ip, sp, lr}	; <UNPREDICTABLE>
    1320:	d0000005 	andle	r0, r0, r5
    1324:	07000005 	streq	r0, [r0, -r5]
    1328:	7dcc9100 	stfvcp	f1, [ip]
    132c:	9f1c3206 	svcls	0x001c3206
    1330:	00000800 	andeq	r0, r0, r0, lsl #16
    1334:	0000081c 	andeq	r0, r0, ip, lsl r8
    1338:	1c560001 	mrrcne	0, 0, r0, r6, cr1
    133c:	88000008 	stmdahi	r0, {r3}
    1340:	07000008 	streq	r0, [r0, -r8]
    1344:	7dcc9100 	stfvcp	f1, [ip]
    1348:	9f1c3206 	svcls	0x001c3206
    134c:	00000948 	andeq	r0, r0, r8, asr #18
    1350:	000009b4 			; <UNDEFINED> instruction: 0x000009b4
    1354:	00560001 	subseq	r0, r6, r1
    1358:	00000000 	andeq	r0, r0, r0
    135c:	04000000 	streq	r0, [r0], #-0
    1360:	14040206 	strne	r0, [r4], #-518	; 0xfffffdfa
    1364:	14000004 	strne	r0, [r0], #-4
    1368:	06000004 	streq	r0, [r0], -r4
    136c:	08007200 	stmdaeq	r0, {r9, ip, sp, lr}
    1370:	289f1aff 	ldmcs	pc, {r0, r1, r2, r3, r4, r5, r6, r7, r9, fp, ip}	; <UNPREDICTABLE>
    1374:	28000004 	stmdacs	r0, {r2}
    1378:	06000004 	streq	r0, [r0], -r4
    137c:	08007200 	stmdaeq	r0, {r9, ip, sp, lr}
    1380:	009f1aff 			; <UNDEFINED> instruction: 0x009f1aff
    1384:	00000000 	andeq	r0, r0, r0
    1388:	02000000 	andeq	r0, r0, #0, 0
    138c:	00000000 	andeq	r0, r0, r0
    1390:	0005fc00 	andeq	pc, r5, r0, lsl #24
    1394:	00070000 	andeq	r0, r7, r0
    1398:	08000300 	stmdaeq	r0, {r8, r9}
    139c:	08a89f80 	stmiaeq	r8!, {r7, r8, r9, sl, fp, ip, pc}
    13a0:	08bc0000 	ldmeq	ip!, {}	; <UNPREDICTABLE>
    13a4:	00030000 	andeq	r0, r3, r0
    13a8:	109f8008 	addsne	r8, pc, r8
    13ac:	20000009 	andcs	r0, r0, r9
    13b0:	03000009 	movweq	r0, #9
    13b4:	9f800800 	svcls	0x00800800
	...
    13c0:	00000001 	andeq	r0, r0, r1
    13c4:	05fc0000 	ldrbeq	r0, [ip, #0]!
    13c8:	07000000 	streq	r0, [r0, -r0]
    13cc:	00020000 	andeq	r0, r2, r0
    13d0:	08a89f30 	stmiaeq	r8!, {r4, r5, r8, r9, sl, fp, ip, pc}
    13d4:	08bc0000 	ldmeq	ip!, {}	; <UNPREDICTABLE>
    13d8:	00020000 	andeq	r0, r2, r0
    13dc:	09109f30 	ldmdbeq	r0, {r4, r5, r8, r9, sl, fp, ip, pc}
    13e0:	09200000 	stmdbeq	r0!, {}	; <UNPREDICTABLE>
    13e4:	00020000 	andeq	r0, r2, r0
    13e8:	00009f30 	andeq	r9, r0, r0, lsr pc
    13ec:	00000000 	andeq	r0, r0, r0
    13f0:	00010000 	andeq	r0, r1, r0
    13f4:	00000000 	andeq	r0, r0, r0
    13f8:	000005fc 	strdeq	r0, [r0], -ip
    13fc:	000006e0 	andeq	r0, r0, r0, ror #13
    1400:	a8550001 	ldmdage	r5, {r0}^
    1404:	bc000008 	stclt	0, cr0, [r0], {8}
    1408:	01000008 	tsteq	r0, r8
    140c:	09105500 	ldmdbeq	r0, {r8, sl, ip, lr}
    1410:	09200000 	stmdbeq	r0!, {}	; <UNPREDICTABLE>
    1414:	00010000 	andeq	r0, r1, r0
    1418:	00000055 	andeq	r0, r0, r5, asr r0
    141c:	00000000 	andeq	r0, r0, r0
    1420:	00000100 	andeq	r0, r0, r0, lsl #2
    1424:	00000000 	andeq	r0, r0, r0
    1428:	0005fc00 	andeq	pc, r5, r0, lsl #24
    142c:	0006e000 	andeq	lr, r6, r0
    1430:	91000400 	tstls	r0, r0, lsl #8
    1434:	e09f7dd0 			; <UNDEFINED> instruction: 0xe09f7dd0
    1438:	00000006 	andeq	r0, r0, r6
    143c:	01000007 	tsteq	r0, r7
    1440:	08a85500 	stmiaeq	r8!, {r8, sl, ip, lr}
    1444:	08bc0000 	ldmeq	ip!, {}	; <UNPREDICTABLE>
    1448:	00040000 	andeq	r0, r4, r0
    144c:	9f7dd091 	svcls	0x007dd091
    1450:	00000910 	andeq	r0, r0, r0, lsl r9
    1454:	00000920 	andeq	r0, r0, r0, lsr #18
    1458:	d0910004 	addsle	r0, r1, r4
    145c:	00009f7d 	andeq	r9, r0, sp, ror pc
    1460:	00000000 	andeq	r0, r0, r0
    1464:	00010000 	andeq	r0, r1, r0
    1468:	00000000 	andeq	r0, r0, r0
    146c:	000005fc 	strdeq	r0, [r0], -ip
    1470:	00000700 	andeq	r0, r0, r0, lsl #14
    1474:	9f380002 	svcls	0x00380002
    1478:	000008a8 	andeq	r0, r0, r8, lsr #17
    147c:	000008bc 			; <UNDEFINED> instruction: 0x000008bc
    1480:	9f380002 	svcls	0x00380002
    1484:	00000910 	andeq	r0, r0, r0, lsl r9
    1488:	00000920 	andeq	r0, r0, r0, lsr #18
    148c:	9f380002 	svcls	0x00380002
	...
    1498:	00070704 	andeq	r0, r7, r4, lsl #14
	...
    14a4:	05fc0000 	ldrbeq	r0, [ip, #0]!
    14a8:	05fc0000 	ldrbeq	r0, [ip, #0]!
    14ac:	00040000 	andeq	r0, r4, r0
    14b0:	9f7ed091 	svcls	0x007ed091
    14b4:	000005fc 	strdeq	r0, [r0], -ip
    14b8:	00000678 	andeq	r0, r0, r8, ror r6
    14bc:	d1910004 	orrsle	r0, r1, r4
    14c0:	06789f7e 	uhsub16eq	r9, r8, lr
    14c4:	06d40000 	ldrbeq	r0, [r4], r0
    14c8:	00010000 	andeq	r0, r1, r0
    14cc:	0006d45c 	andeq	sp, r6, ip, asr r4
    14d0:	00070000 	andeq	r0, r7, r0
    14d4:	91000400 	tstls	r0, r0, lsl #8
    14d8:	a89f7ed1 	ldmge	pc, {r0, r4, r6, r7, r9, sl, fp, ip, sp, lr}	; <UNPREDICTABLE>
    14dc:	bc000008 	stclt	0, cr0, [r0], {8}
    14e0:	04000008 	streq	r0, [r0], #-8
    14e4:	7ed19100 	atnvcs	f1, f0
    14e8:	0009109f 	muleq	r9, pc, r0	; <UNPREDICTABLE>
    14ec:	00091400 	andeq	r1, r9, r0, lsl #8
    14f0:	91000400 	tstls	r0, r0, lsl #8
    14f4:	149f7ed1 	ldrne	r7, [pc], #3793	; 14fc <__code_start__-0x6b04>
    14f8:	20000009 	andcs	r0, r0, r9
    14fc:	01000009 	tsteq	r0, r9
    1500:	00005c00 	andeq	r5, r0, r0, lsl #24
    1504:	00000000 	andeq	r0, r0, r0
    1508:	01040000 	mrseq	r0, (UNDEF: 4)
    150c:	00000100 	andeq	r0, r0, r0, lsl #2
    1510:	00000608 	andeq	r0, r0, r8, lsl #12
    1514:	000006d0 	ldrdeq	r0, [r0], -r0	; <UNPREDICTABLE>
    1518:	a8550001 	ldmdage	r5, {r0}^
    151c:	b8000008 	stmdalt	r0, {r3}
    1520:	01000008 	tsteq	r0, r8
    1524:	09105500 	ldmdbeq	r0, {r8, sl, ip, lr}
    1528:	09200000 	stmdbeq	r0!, {}	; <UNPREDICTABLE>
    152c:	00010000 	andeq	r0, r1, r0
    1530:	00000055 	andeq	r0, r0, r5, asr r0
    1534:	00000000 	andeq	r0, r0, r0
    1538:	00000400 	andeq	r0, r0, r0, lsl #8
    153c:	00010000 	andeq	r0, r1, r0
    1540:	00010000 	andeq	r0, r1, r0
    1544:	00060800 	andeq	r0, r6, r0, lsl #16
    1548:	0006b000 	andeq	fp, r6, r0
    154c:	91000400 	tstls	r0, r0, lsl #8
    1550:	b09f7ed0 			; <UNDEFINED> instruction: 0xb09f7ed0
    1554:	c8000006 	stmdagt	r0, {r1, r2}
    1558:	01000006 	tsteq	r0, r6
    155c:	06c85000 	strbeq	r5, [r8], r0
    1560:	06d00000 	ldrbeq	r0, [r0], r0
    1564:	00040000 	andeq	r0, r4, r0
    1568:	9f7ed091 	svcls	0x007ed091
    156c:	000008a8 	andeq	r0, r0, r8, lsr #17
    1570:	000008b0 			; <UNDEFINED> instruction: 0x000008b0
    1574:	d0910004 	addsle	r0, r1, r4
    1578:	08b09f7e 	ldmeq	r0!, {r1, r2, r3, r4, r5, r6, r8, r9, sl, fp, ip, pc}
    157c:	08b80000 	ldmeq	r8!, {}	; <UNPREDICTABLE>
    1580:	00010000 	andeq	r0, r1, r0
    1584:	00091053 	andeq	r1, r9, r3, asr r0
    1588:	00092000 	andeq	r2, r9, r0
    158c:	91000400 	tstls	r0, r0, lsl #8
    1590:	009f7ed0 			; <UNDEFINED> instruction: 0x009f7ed0
    1594:	00000000 	andeq	r0, r0, r0
    1598:	04000000 	streq	r0, [r0], #-0
    159c:	01010000 	mrseq	r0, (UNDEF: 1)
    15a0:	03030101 	movweq	r0, #12545	; 0x3101
    15a4:	00010002 	andeq	r0, r1, r2
    15a8:	08000000 	stmdaeq	r0, {}	; <UNPREDICTABLE>
    15ac:	24000006 	strcs	r0, [r0], #-6
    15b0:	04000006 	streq	r0, [r0], #-6
    15b4:	7ed19100 	atnvcs	f1, f0
    15b8:	0006849f 	muleq	r6, pc, r4	; <UNPREDICTABLE>
    15bc:	00068400 	andeq	r8, r6, r0, lsl #8
    15c0:	50000100 	andpl	r0, r0, r0, lsl #2
    15c4:	00000684 	andeq	r0, r0, r4, lsl #13
    15c8:	00000698 	muleq	r0, r8, r6
    15cc:	01700003 	cmneq	r0, r3
    15d0:	0006989f 	muleq	r6, pc, r8	; <UNPREDICTABLE>
    15d4:	0006a400 	andeq	sl, r6, r0, lsl #8
    15d8:	70000300 	andvc	r0, r0, r0, lsl #6
    15dc:	06a49f02 	strteq	r9, [r4], r2, lsl #30
    15e0:	06a80000 	strteq	r0, [r8], r0
    15e4:	00030000 	andeq	r0, r3, r0
    15e8:	a89f0370 	ldmge	pc, {r4, r5, r6, r8, r9}	; <UNPREDICTABLE>
    15ec:	b8000008 	stmdalt	r0, {r3}
    15f0:	04000008 	streq	r0, [r0], #-8
    15f4:	7ed19100 	atnvcs	f1, f0
    15f8:	0009109f 	muleq	r9, pc, r0	; <UNPREDICTABLE>
    15fc:	00091400 	andeq	r1, r9, r0, lsl #8
    1600:	91000400 	tstls	r0, r0, lsl #8
    1604:	149f7ed1 	ldrne	r7, [pc], #3793	; 160c <__code_start__-0x69f4>
    1608:	20000009 	andcs	r0, r0, r9
    160c:	01000009 	tsteq	r0, r9
    1610:	00005c00 	andeq	r5, r0, r0, lsl #24
    1614:	00000000 	andeq	r0, r0, r0
    1618:	00060000 	andeq	r0, r6, r0
    161c:	01010100 	mrseq	r0, (UNDEF: 17)
    1620:	02010101 	andeq	r0, r1, #1073741824	; 0x40000000
    1624:	00000100 	andeq	r0, r0, r0, lsl #2
    1628:	00000608 	andeq	r0, r0, r8, lsl #12
    162c:	00000624 	andeq	r0, r0, r4, lsr #12
    1630:	9f310002 	svcls	0x00310002
    1634:	00000684 	andeq	r0, r0, r4, lsl #13
    1638:	00000694 	muleq	r0, r4, r6
    163c:	94520001 	ldrbls	r0, [r2], #-1
    1640:	a4000006 	strge	r0, [r0], #-6
    1644:	01000006 	tsteq	r0, r6
    1648:	06a45900 	strteq	r5, [r4], r0, lsl #18
    164c:	06a80000 	strteq	r0, [r8], r0
    1650:	00010000 	andeq	r0, r1, r0
    1654:	0006a852 	andeq	sl, r6, r2, asr r8
    1658:	0006a800 	andeq	sl, r6, r0, lsl #16
    165c:	72000300 	andvc	r0, r0, #0, 6
    1660:	08a89f01 	stmiaeq	r8!, {r0, r8, r9, sl, fp, ip, pc}
    1664:	08b80000 	ldmeq	r8!, {}	; <UNPREDICTABLE>
    1668:	00020000 	andeq	r0, r2, r0
    166c:	09109f31 	ldmdbeq	r0, {r0, r4, r5, r8, r9, sl, fp, ip, pc}
    1670:	09200000 	stmdbeq	r0!, {}	; <UNPREDICTABLE>
    1674:	00020000 	andeq	r0, r2, r0
    1678:	00009f31 	andeq	r9, r0, r1, lsr pc
    167c:	00000000 	andeq	r0, r0, r0
    1680:	06010000 	streq	r0, [r1], -r0
    1684:	00010006 	andeq	r0, r1, r6
    1688:	000006d0 	ldrdeq	r0, [r0], -r0	; <UNPREDICTABLE>
    168c:	000006d0 	ldrdeq	r0, [r0], -r0	; <UNPREDICTABLE>
    1690:	d0910004 	addsle	r0, r1, r4
    1694:	06d09f7e 			; <UNDEFINED> instruction: 0x06d09f7e
    1698:	07000000 	streq	r0, [r0, -r0]
    169c:	00010000 	andeq	r0, r1, r0
    16a0:	0008b850 	andeq	fp, r8, r0, asr r8
    16a4:	0008bc00 	andeq	fp, r8, r0, lsl #24
    16a8:	53000100 	movwpl	r0, #256	; 0x100
	...
    16b4:	00000801 	andeq	r0, r0, r1, lsl #16
    16b8:	00010100 	andeq	r0, r1, r0, lsl #2
    16bc:	06d00701 	ldrbeq	r0, [r0], r1, lsl #14
    16c0:	06d00000 	ldrbeq	r0, [r0], r0
    16c4:	00060000 	andeq	r0, r6, r0
    16c8:	0071007c 	rsbseq	r0, r1, ip, ror r0
    16cc:	06e49f22 	strbteq	r9, [r4], r2, lsr #30
    16d0:	06e80000 	strbteq	r0, [r8], r0
    16d4:	00030000 	andeq	r0, r3, r0
    16d8:	e89f7f73 	ldm	pc, {r0, r1, r4, r5, r6, r8, r9, sl, fp, ip, sp, lr}	; <UNPREDICTABLE>
    16dc:	f0000006 			; <UNDEFINED> instruction: 0xf0000006
    16e0:	01000006 	tsteq	r0, r6
    16e4:	06f05300 	ldrbteq	r5, [r0], r0, lsl #6
    16e8:	06f80000 	ldrbteq	r0, [r8], r0
    16ec:	00030000 	andeq	r0, r3, r0
    16f0:	b89f7f73 	ldmlt	pc, {r0, r1, r4, r5, r6, r8, r9, sl, fp, ip, sp, lr}	; <UNPREDICTABLE>
    16f4:	b8000008 	stmdalt	r0, {r3}
    16f8:	04000008 	streq	r0, [r0], #-8
    16fc:	7ed19100 	atnvcs	f1, f0
    1700:	0000009f 	muleq	r0, pc, r0	; <UNPREDICTABLE>
    1704:	00000000 	andeq	r0, r0, r0
    1708:	01000100 	mrseq	r0, (UNDEF: 16)
    170c:	0006d000 	andeq	sp, r6, r0
    1710:	00070000 	andeq	r0, r7, r0
    1714:	08000300 	stmdaeq	r0, {r8, r9}
    1718:	08b89f80 	ldmeq	r8!, {r7, r8, r9, sl, fp, ip, pc}
    171c:	08bc0000 	ldmeq	ip!, {}	; <UNPREDICTABLE>
    1720:	00030000 	andeq	r0, r3, r0
    1724:	009f8008 	addseq	r8, pc, r8
    1728:	00000000 	andeq	r0, r0, r0
    172c:	01000000 	mrseq	r0, (UNDEF: 0)
    1730:	00000000 	andeq	r0, r0, r0
    1734:	00000101 	andeq	r0, r0, r1, lsl #2
    1738:	01010200 	mrseq	r0, R9_usr
    173c:	0006d000 	andeq	sp, r6, r0
    1740:	0006e000 	andeq	lr, r6, r0
    1744:	91000400 	tstls	r0, r0, lsl #8
    1748:	e09f7dd0 			; <UNDEFINED> instruction: 0xe09f7dd0
    174c:	e4000006 	str	r0, [r0], #-6
    1750:	01000006 	tsteq	r0, r6
    1754:	06e45500 	strbteq	r5, [r4], r0, lsl #10
    1758:	06e40000 	strbteq	r0, [r4], r0
    175c:	00030000 	andeq	r0, r3, r0
    1760:	e49f0172 	ldr	r0, [pc], #370	; 1768 <__code_start__-0x6898>
    1764:	f0000006 			; <UNDEFINED> instruction: 0xf0000006
    1768:	03000006 	movweq	r0, #6
    176c:	9f027200 	svcls	0x00027200
    1770:	000006f0 	strdeq	r0, [r0], -r0	; <UNPREDICTABLE>
    1774:	00000700 	andeq	r0, r0, r0, lsl #14
    1778:	01720003 	cmneq	r2, r3
    177c:	0007ec9f 	muleq	r7, pc, ip	; <UNPREDICTABLE>
    1780:	0007f400 	andeq	pc, r7, r0, lsl #8
    1784:	73000300 	movwvc	r0, #768	; 0x300
    1788:	08b89f01 	ldmeq	r8!, {r0, r8, r9, sl, fp, ip, pc}
    178c:	08bc0000 	ldmeq	ip!, {}	; <UNPREDICTABLE>
    1790:	00040000 	andeq	r0, r4, r0
    1794:	9f7dd091 	svcls	0x007dd091
	...
    17a0:	08b80004 	ldmeq	r8!, {r2}
    17a4:	08bc0000 	ldmeq	ip!, {}	; <UNPREDICTABLE>
    17a8:	00020000 	andeq	r0, r2, r0
    17ac:	00009f32 	andeq	r9, r0, r2, lsr pc
    17b0:	00000000 	andeq	r0, r0, r0
    17b4:	00070000 	andeq	r0, r7, r0
    17b8:	00060000 	andeq	r0, r6, r0
    17bc:	000006d0 	ldrdeq	r0, [r0], -r0	; <UNPREDICTABLE>
    17c0:	000006e0 	andeq	r0, r0, r0, ror #13
    17c4:	d0910004 	addsle	r0, r1, r4
    17c8:	06e09f7d 			; <UNDEFINED> instruction: 0x06e09f7d
    17cc:	07000000 	streq	r0, [r0, -r0]
    17d0:	00010000 	andeq	r0, r1, r0
    17d4:	0008b855 	andeq	fp, r8, r5, asr r8
    17d8:	0008bc00 	andeq	fp, r8, r0, lsl #24
    17dc:	91000400 	tstls	r0, r0, lsl #8
    17e0:	009f7dd0 			; <UNDEFINED> instruction: 0x009f7dd0
    17e4:	00000000 	andeq	r0, r0, r0
    17e8:	01000000 	mrseq	r0, (UNDEF: 0)
    17ec:	0c000000 	stceq	0, cr0, [r0], {-0}
    17f0:	ec000007 	stc	0, cr0, [r0], {7}
    17f4:	03000007 	movweq	r0, #7
    17f8:	9f800800 	svcls	0x00800800
    17fc:	00000894 	muleq	r0, r4, r8
    1800:	000008a8 	andeq	r0, r0, r8, lsr #17
    1804:	80080003 	andhi	r0, r8, r3
    1808:	0000009f 	muleq	r0, pc, r0	; <UNPREDICTABLE>
	...
    1814:	00070c00 	andeq	r0, r7, r0, lsl #24
    1818:	0007ec00 	andeq	lr, r7, r0, lsl #24
    181c:	30000200 	andcc	r0, r0, r0, lsl #4
    1820:	0008949f 	muleq	r8, pc, r4	; <UNPREDICTABLE>
    1824:	0008a800 	andeq	sl, r8, r0, lsl #16
    1828:	30000200 	andcc	r0, r0, r0, lsl #4
    182c:	0000009f 	muleq	r0, pc, r0	; <UNPREDICTABLE>
	...
    1838:	00070c00 	andeq	r0, r7, r0, lsl #24
    183c:	0007d000 	andeq	sp, r7, r0
    1840:	55000100 	strpl	r0, [r0, #-256]	; 0xffffff00
    1844:	00000894 	muleq	r0, r4, r8
    1848:	000008a8 	andeq	r0, r0, r8, lsr #17
    184c:	00550001 	subseq	r0, r5, r1
	...
    185c:	00070c00 	andeq	r0, r7, r0, lsl #24
    1860:	0007d000 	andeq	sp, r7, r0
    1864:	91000400 	tstls	r0, r0, lsl #8
    1868:	d09f7dd0 			; <UNDEFINED> instruction: 0xd09f7dd0
    186c:	ec000007 	stc	0, cr0, [r0], {7}
    1870:	01000007 	tsteq	r0, r7
    1874:	08945500 	ldmeq	r4, {r8, sl, ip, lr}
    1878:	08a80000 	stmiaeq	r8!, {}	; <UNPREDICTABLE>
    187c:	00040000 	andeq	r0, r4, r0
    1880:	9f7dd091 	svcls	0x007dd091
	...
    1890:	0000070c 	andeq	r0, r0, ip, lsl #14
    1894:	000007ec 	andeq	r0, r0, ip, ror #15
    1898:	9f320002 	svcls	0x00320002
    189c:	00000894 	muleq	r0, r4, r8
    18a0:	000008a8 	andeq	r0, r0, r8, lsr #17
    18a4:	9f320002 	svcls	0x00320002
	...
    18b0:	00050503 	andeq	r0, r5, r3, lsl #10
    18b4:	00000000 	andeq	r0, r0, r0
    18b8:	070c0000 	streq	r0, [ip, -r0]
    18bc:	070c0000 	streq	r0, [ip, -r0]
    18c0:	00010000 	andeq	r0, r1, r0
    18c4:	00070c51 	andeq	r0, r7, r1, asr ip
    18c8:	00071c00 	andeq	r1, r7, r0, lsl #24
    18cc:	53000100 	movwpl	r0, #256	; 0x100
    18d0:	0000071c 	andeq	r0, r0, ip, lsl r7
    18d4:	00000724 	andeq	r0, r0, r4, lsr #14
    18d8:	01720003 	cmneq	r2, r3
    18dc:	0007249f 	muleq	r7, pc, r4	; <UNPREDICTABLE>
    18e0:	0007cc00 	andeq	ip, r7, r0, lsl #24
    18e4:	53000100 	movwpl	r0, #256	; 0x100
    18e8:	00000894 	muleq	r0, r4, r8
    18ec:	000008a8 	andeq	r0, r0, r8, lsr #17
    18f0:	00530001 	subseq	r0, r3, r1
    18f4:	00000000 	andeq	r0, r0, r0
    18f8:	05000000 	streq	r0, [r0, #-0]
    18fc:	0c000100 	stfeqs	f0, [r0], {-0}
    1900:	20000007 	andcs	r0, r0, r7
    1904:	01000007 	tsteq	r0, r7
    1908:	07245000 	streq	r5, [r4, -r0]!
    190c:	072c0000 	streq	r0, [ip, -r0]!
    1910:	00010000 	andeq	r0, r1, r0
    1914:	00000050 	andeq	r0, r0, r0, asr r0
    1918:	00000000 	andeq	r0, r0, r0
    191c:	00010300 	andeq	r0, r1, r0, lsl #6
    1920:	00072801 	andeq	r2, r7, r1, lsl #16
    1924:	0007b000 	andeq	fp, r7, r0
    1928:	55000100 	strpl	r0, [r0, #-256]	; 0xffffff00
    192c:	00000894 	muleq	r0, r4, r8
    1930:	000008a0 	andeq	r0, r0, r0, lsr #17
    1934:	00550001 	subseq	r0, r5, r1
    1938:	00000000 	andeq	r0, r0, r0
    193c:	03000000 	movweq	r0, #0
    1940:	28010001 	stmdacs	r1, {r0}
    1944:	b0000007 	andlt	r0, r0, r7
    1948:	01000007 	tsteq	r0, r7
    194c:	08945100 	ldmeq	r4, {r8, ip, lr}
    1950:	08a00000 	stmiaeq	r0!, {}	; <UNPREDICTABLE>
    1954:	00010000 	andeq	r0, r1, r0
    1958:	00000051 	andeq	r0, r0, r1, asr r0
    195c:	00000000 	andeq	r0, r0, r0
    1960:	00000300 	andeq	r0, r0, r0, lsl #6
    1964:	01010101 	tsteq	r1, r1, lsl #2
    1968:	00020303 	andeq	r0, r2, r3, lsl #6
    196c:	00072801 	andeq	r2, r7, r1, lsl #16
    1970:	00075000 	andeq	r5, r7, r0
    1974:	53000100 	movwpl	r0, #256	; 0x100
    1978:	00000774 	andeq	r0, r0, r4, ror r7
    197c:	00000774 	andeq	r0, r0, r4, ror r7
    1980:	745e0001 	ldrbvc	r0, [lr], #-1
    1984:	88000007 	stmdahi	r0, {r0, r1, r2}
    1988:	03000007 	movweq	r0, #7
    198c:	9f017e00 	svcls	0x00017e00
    1990:	00000788 	andeq	r0, r0, r8, lsl #15
    1994:	00000794 	muleq	r0, r4, r7
    1998:	027e0003 	rsbseq	r0, lr, #3, 0
    199c:	0007949f 	muleq	r7, pc, r4	; <UNPREDICTABLE>
    19a0:	00079800 	andeq	r9, r7, r0, lsl #16
    19a4:	7e000300 	cdpvc	3, 0, cr0, cr0, cr0, {0}
    19a8:	08949f03 	ldmeq	r4, {r0, r1, r8, r9, sl, fp, ip, pc}
    19ac:	08a00000 	stmiaeq	r0!, {}	; <UNPREDICTABLE>
    19b0:	00010000 	andeq	r0, r1, r0
    19b4:	00000053 	andeq	r0, r0, r3, asr r0
	...
    19c0:	01010101 	tsteq	r1, r1, lsl #2
    19c4:	00020101 	andeq	r0, r2, r1, lsl #2
    19c8:	00072c01 	andeq	r2, r7, r1, lsl #24
    19cc:	00075000 	andeq	r5, r7, r0
    19d0:	50000100 	andpl	r0, r0, r0, lsl #2
    19d4:	00000774 	andeq	r0, r0, r4, ror r7
    19d8:	00000784 	andeq	r0, r0, r4, lsl #15
    19dc:	84500001 	ldrbhi	r0, [r0], #-1
    19e0:	94000007 	strls	r0, [r0], #-7
    19e4:	01000007 	tsteq	r0, r7
    19e8:	07945b00 	ldreq	r5, [r4, r0, lsl #22]
    19ec:	07980000 	ldreq	r0, [r8, r0]
    19f0:	00010000 	andeq	r0, r1, r0
    19f4:	00079850 	andeq	r9, r7, r0, asr r8
    19f8:	00079800 	andeq	r9, r7, r0, lsl #16
    19fc:	70000300 	andvc	r0, r0, r0, lsl #6
    1a00:	08949f01 	ldmeq	r4, {r0, r8, r9, sl, fp, ip, pc}
    1a04:	08a00000 	stmiaeq	r0!, {}	; <UNPREDICTABLE>
    1a08:	00010000 	andeq	r0, r1, r0
    1a0c:	00000050 	andeq	r0, r0, r0, asr r0
    1a10:	00000000 	andeq	r0, r0, r0
    1a14:	01000100 	mrseq	r0, (UNDEF: 16)
    1a18:	0007b000 	andeq	fp, r7, r0
    1a1c:	0007ec00 	andeq	lr, r7, r0, lsl #24
    1a20:	51000100 	mrspl	r0, (UNDEF: 16)
    1a24:	000008a0 	andeq	r0, r0, r0, lsr #17
    1a28:	000008a8 	andeq	r0, r0, r8, lsr #17
    1a2c:	00510001 	subseq	r0, r1, r1
    1a30:	00000000 	andeq	r0, r0, r0
    1a34:	01000000 	mrseq	r0, (UNDEF: 0)
    1a38:	00000000 	andeq	r0, r0, r0
    1a3c:	01000101 	tsteq	r0, r1, lsl #2
    1a40:	0007b000 	andeq	fp, r7, r0
    1a44:	0007b400 	andeq	fp, r7, r0, lsl #8
    1a48:	73000600 	movwvc	r0, #1536	; 0x600
    1a4c:	22007c00 	andcs	r7, r0, #0, 24
    1a50:	0007d49f 	muleq	r7, pc, r4	; <UNPREDICTABLE>
    1a54:	0007d800 	andeq	sp, r7, r0, lsl #16
    1a58:	73000300 	movwvc	r0, #768	; 0x300
    1a5c:	07d89f7f 			; <UNDEFINED> instruction: 0x07d89f7f
    1a60:	07e00000 	strbeq	r0, [r0, r0]!
    1a64:	00010000 	andeq	r0, r1, r0
    1a68:	0007e053 	andeq	lr, r7, r3, asr r0
    1a6c:	0007e800 	andeq	lr, r7, r0, lsl #16
    1a70:	73000300 	movwvc	r0, #768	; 0x300
    1a74:	08a09f7f 	stmiaeq	r0!, {r0, r1, r2, r3, r4, r5, r6, r8, r9, sl, fp, ip, pc}
    1a78:	08a80000 	stmiaeq	r8!, {}	; <UNPREDICTABLE>
    1a7c:	00010000 	andeq	r0, r1, r0
    1a80:	00000053 	andeq	r0, r0, r3, asr r0
    1a84:	00000000 	andeq	r0, r0, r0
    1a88:	01000100 	mrseq	r0, (UNDEF: 16)
    1a8c:	0007b000 	andeq	fp, r7, r0
    1a90:	0007ec00 	andeq	lr, r7, r0, lsl #24
    1a94:	08000300 	stmdaeq	r0, {r8, r9}
    1a98:	08a09f80 	stmiaeq	r0!, {r7, r8, r9, sl, fp, ip, pc}
    1a9c:	08a80000 	stmiaeq	r8!, {}	; <UNPREDICTABLE>
    1aa0:	00030000 	andeq	r0, r3, r0
    1aa4:	009f8008 	addseq	r8, pc, r8
    1aa8:	00000000 	andeq	r0, r0, r0
    1aac:	01000000 	mrseq	r0, (UNDEF: 0)
    1ab0:	00000000 	andeq	r0, r0, r0
    1ab4:	00000101 	andeq	r0, r0, r1, lsl #2
    1ab8:	b0000100 	andlt	r0, r0, r0, lsl #2
    1abc:	d0000007 	andle	r0, r0, r7
    1ac0:	04000007 	streq	r0, [r0], #-7
    1ac4:	7dd09100 	ldfvcp	f1, [r0]
    1ac8:	0007d09f 	muleq	r7, pc, r0	; <UNPREDICTABLE>
    1acc:	0007d400 	andeq	sp, r7, r0, lsl #8
    1ad0:	55000100 	strpl	r0, [r0, #-256]	; 0xffffff00
    1ad4:	000007d4 	ldrdeq	r0, [r0], -r4
    1ad8:	000007d4 	ldrdeq	r0, [r0], -r4
    1adc:	017c0003 	cmneq	ip, r3
    1ae0:	0007d49f 	muleq	r7, pc, r4	; <UNPREDICTABLE>
    1ae4:	0007e000 	andeq	lr, r7, r0
    1ae8:	7c000300 	stcvc	3, cr0, [r0], {-0}
    1aec:	07e09f02 	strbeq	r9, [r0, r2, lsl #30]!
    1af0:	07ec0000 	strbeq	r0, [ip, r0]!
    1af4:	00030000 	andeq	r0, r3, r0
    1af8:	a09f017c 	addsge	r0, pc, ip, ror r1	; <UNPREDICTABLE>
    1afc:	a8000008 	stmdage	r0, {r3}
    1b00:	04000008 	streq	r0, [r0], #-8
    1b04:	7dd09100 	ldfvcp	f1, [r0]
    1b08:	0000009f 	muleq	r0, pc, r0	; <UNPREDICTABLE>
    1b0c:	00000000 	andeq	r0, r0, r0
    1b10:	04000400 	streq	r0, [r0], #-1024	; 0xfffffc00
    1b14:	0007b000 	andeq	fp, r7, r0
    1b18:	0007b400 	andeq	fp, r7, r0, lsl #8
    1b1c:	70000300 	andvc	r0, r0, r0, lsl #6
    1b20:	08a09f01 	stmiaeq	r0!, {r0, r8, r9, sl, fp, ip, pc}
    1b24:	08a80000 	stmiaeq	r8!, {}	; <UNPREDICTABLE>
    1b28:	00030000 	andeq	r0, r3, r0
    1b2c:	009f0170 	addseq	r0, pc, r0, ror r1	; <UNPREDICTABLE>
    1b30:	00000000 	andeq	r0, r0, r0
    1b34:	01000000 	mrseq	r0, (UNDEF: 0)
    1b38:	bc000000 	stclt	0, cr0, [r0], {-0}
    1b3c:	d0000007 	andle	r0, r0, r7
    1b40:	04000007 	streq	r0, [r0], #-7
    1b44:	7dd09100 	ldfvcp	f1, [r0]
    1b48:	0007d09f 	muleq	r7, pc, r0	; <UNPREDICTABLE>
    1b4c:	0007ec00 	andeq	lr, r7, r0, lsl #24
    1b50:	55000100 	strpl	r0, [r0, #-256]	; 0xffffff00
	...
    1b60:	00000328 	andeq	r0, r0, r8, lsr #6
    1b64:	00000364 	andeq	r0, r0, r4, ror #6
    1b68:	64500001 	ldrbvs	r0, [r0], #-1
    1b6c:	88000003 	stmdahi	r0, {r0, r1}
    1b70:	04000003 	streq	r0, [r0], #-3
    1b74:	5001f300 	andpl	pc, r1, r0, lsl #6
    1b78:	0000009f 	muleq	r0, pc, r0	; <UNPREDICTABLE>
	...
    1b84:	00032800 	andeq	r2, r3, r0, lsl #16
    1b88:	00035c00 	andeq	r5, r3, r0, lsl #24
    1b8c:	51000100 	mrspl	r0, (UNDEF: 16)
    1b90:	0000035c 	andeq	r0, r0, ip, asr r3
    1b94:	00000388 	andeq	r0, r0, r8, lsl #7
    1b98:	01f30004 	mvnseq	r0, r4
    1b9c:	00009f51 	andeq	r9, r0, r1, asr pc
	...
    1bc0:	00140000 	andseq	r0, r4, r0
    1bc4:	00010000 	andeq	r0, r1, r0
    1bc8:	00001450 	andeq	r1, r0, r0, asr r4
    1bcc:	00002000 	andeq	r2, r0, r0
    1bd0:	5c000100 	stfpls	f0, [r0], {-0}
    1bd4:	00000020 	andeq	r0, r0, r0, lsr #32
    1bd8:	00000068 	andeq	r0, r0, r8, rrx
    1bdc:	02710003 	rsbseq	r0, r1, #3, 0
    1be0:	0000689f 	muleq	r0, pc, r8	; <UNPREDICTABLE>
    1be4:	00006c00 	andeq	r6, r0, r0, lsl #24
    1be8:	73000300 	movwvc	r0, #768	; 0x300
    1bec:	006c9f02 	rsbeq	r9, ip, r2, lsl #30
    1bf0:	01940000 	orrseq	r0, r4, r0
    1bf4:	00040000 	andeq	r0, r4, r0
    1bf8:	9f5001f3 	svcls	0x005001f3
    1bfc:	00000194 	muleq	r0, r4, r1
    1c00:	00000198 	muleq	r0, r8, r1
    1c04:	02730003 	rsbseq	r0, r3, #3, 0
    1c08:	0001989f 	muleq	r1, pc, r8	; <UNPREDICTABLE>
    1c0c:	0001c000 	andeq	ip, r1, r0
    1c10:	f3000400 	vshl.u8	d0, d0, d0
    1c14:	c09f5001 	addsgt	r5, pc, r1
    1c18:	c8000001 	stmdagt	r0, {r0}
    1c1c:	01000001 	tsteq	r0, r1
    1c20:	01c85c00 	biceq	r5, r8, r0, lsl #24
    1c24:	02140000 	andseq	r0, r4, #0, 0
    1c28:	00030000 	andeq	r0, r3, r0
    1c2c:	149f0273 	ldrne	r0, [pc], #627	; 1c34 <__code_start__-0x63cc>
    1c30:	ec000002 	stc	0, cr0, [r0], {2}
    1c34:	04000002 	streq	r0, [r0], #-2
    1c38:	5001f300 	andpl	pc, r1, r0, lsl #6
    1c3c:	0002ec9f 	muleq	r2, pc, ip	; <UNPREDICTABLE>
    1c40:	0002f400 	andeq	pc, r2, r0, lsl #8
    1c44:	73000300 	movwvc	r0, #768	; 0x300
    1c48:	02f49f02 	rscseq	r9, r4, #2, 30
    1c4c:	03280000 			; <UNDEFINED> instruction: 0x03280000
    1c50:	00040000 	andeq	r0, r4, r0
    1c54:	9f5001f3 	svcls	0x005001f3
	...
    1c6c:	0000001c 	andeq	r0, r0, ip, lsl r0
    1c70:	1c510001 	mrrcne	0, 0, r0, r1, cr1
    1c74:	e0000000 	and	r0, r0, r0
    1c78:	01000002 	tsteq	r0, r2
    1c7c:	02e05000 	rsceq	r5, r0, #0, 0
    1c80:	02ec0000 	rsceq	r0, ip, #0, 0
    1c84:	00040000 	andeq	r0, r4, r0
    1c88:	9f5101f3 	svcls	0x005101f3
    1c8c:	000002ec 	andeq	r0, r0, ip, ror #5
    1c90:	00000328 	andeq	r0, r0, r8, lsr #6
    1c94:	00500001 	subseq	r0, r0, r1
	...
    1ca4:	00000001 	andeq	r0, r0, r1
    1ca8:	00000000 	andeq	r0, r0, r0
    1cac:	00000202 	andeq	r0, r0, r2, lsl #4
	...
    1cc0:	70000000 	andvc	r0, r0, r0
    1cc4:	01000000 	mrseq	r0, (UNDEF: 0)
    1cc8:	00705200 	rsbseq	r5, r0, r0, lsl #4
    1ccc:	00780000 	rsbseq	r0, r8, r0
    1cd0:	00010000 	andeq	r0, r1, r0
    1cd4:	0000785c 	andeq	r7, r0, ip, asr r8
    1cd8:	0000a400 	andeq	sl, r0, r0, lsl #8
    1cdc:	f3000400 	vshl.u8	d0, d0, d0
    1ce0:	949f5201 	ldrls	r5, [pc], #513	; 1ce8 <__code_start__-0x6318>
    1ce4:	9c000001 	stcls	0, cr0, [r0], {1}
    1ce8:	01000001 	tsteq	r0, r1
    1cec:	019c5200 	orrseq	r5, ip, r0, lsl #4
    1cf0:	01a40000 			; <UNDEFINED> instruction: 0x01a40000
    1cf4:	00010000 	andeq	r0, r1, r0
    1cf8:	0001a45c 	andeq	sl, r1, ip, asr r4
    1cfc:	0001c000 	andeq	ip, r1, r0
    1d00:	f3000400 	vshl.u8	d0, d0, d0
    1d04:	c09f5201 	addsgt	r5, pc, r1, lsl #4
    1d08:	20000001 	andcs	r0, r0, r1
    1d0c:	01000002 	tsteq	r0, r2
    1d10:	02205200 	eoreq	r5, r0, #0, 4
    1d14:	02280000 	eoreq	r0, r8, #0, 0
    1d18:	00040000 	andeq	r0, r4, r0
    1d1c:	9f1f0072 	svcls	0x001f0072
    1d20:	00000228 	andeq	r0, r0, r8, lsr #4
    1d24:	00000274 	andeq	r0, r0, r4, ror r2
    1d28:	01f30005 	mvnseq	r0, r5
    1d2c:	749f1f52 	ldrvc	r1, [pc], #3922	; 1d34 <__code_start__-0x62cc>
    1d30:	88000002 	stmdahi	r0, {r1}
    1d34:	01000002 	tsteq	r0, r2
    1d38:	02885200 	addeq	r5, r8, #0, 4
    1d3c:	02a00000 	adceq	r0, r0, #0, 0
    1d40:	00010000 	andeq	r0, r1, r0
    1d44:	0002cc5c 	andeq	ip, r2, ip, asr ip
    1d48:	0002d000 	andeq	sp, r2, r0
    1d4c:	52000100 	andpl	r0, r0, #0
    1d50:	000002d0 	ldrdeq	r0, [r0], -r0	; <UNPREDICTABLE>
    1d54:	000002e7 	andeq	r0, r0, r7, ror #5
    1d58:	e75c0001 	ldrb	r0, [ip, -r1]
    1d5c:	ec000002 	stc	0, cr0, [r0], {2}
    1d60:	04000002 	streq	r0, [r0], #-2
    1d64:	5201f300 	andpl	pc, r1, #0, 6
    1d68:	0002ec9f 	muleq	r2, pc, ip	; <UNPREDICTABLE>
    1d6c:	00030000 	andeq	r0, r3, r0
    1d70:	52000100 	andpl	r0, r0, #0
    1d74:	00000300 	andeq	r0, r0, r0, lsl #6
    1d78:	00000328 	andeq	r0, r0, r8, lsr #6
    1d7c:	005c0001 	subseq	r0, ip, r1
	...
    1d98:	00006800 	andeq	r6, r0, r0, lsl #16
    1d9c:	53000100 	movwpl	r0, #256	; 0x100
    1da0:	00000068 	andeq	r0, r0, r8, rrx
    1da4:	0000006c 	andeq	r0, r0, ip, rrx
    1da8:	7f080003 	svcvc	0x00080003
    1dac:	0001949f 	muleq	r1, pc, r4	; <UNPREDICTABLE>
    1db0:	00019800 	andeq	r9, r1, r0, lsl #16
    1db4:	08000300 	stmdaeq	r0, {r8, r9}
    1db8:	01c09f7f 	biceq	r9, r0, pc, ror pc
    1dbc:	02140000 	andseq	r0, r4, #0, 0
    1dc0:	00030000 	andeq	r0, r3, r0
    1dc4:	749f7f08 	ldrvc	r7, [pc], #3848	; 1dcc <__code_start__-0x6234>
    1dc8:	90000002 	andls	r0, r0, r2
    1dcc:	01000002 	tsteq	r0, r2
    1dd0:	02905300 	addseq	r5, r0, #0, 6
    1dd4:	02a00000 	adceq	r0, r0, #0, 0
    1dd8:	00040000 	andeq	r0, r4, r0
    1ddc:	9f5301f3 	svcls	0x005301f3
    1de0:	000002ec 	andeq	r0, r0, ip, ror #5
    1de4:	00000328 	andeq	r0, r0, r8, lsr #6
    1de8:	7f080003 	svcvc	0x00080003
    1dec:	0000009f 	muleq	r0, pc, r0	; <UNPREDICTABLE>
    1df0:	00000000 	andeq	r0, r0, r0
    1df4:	00000100 	andeq	r0, r0, r0, lsl #2
    1df8:	02020000 	andeq	r0, r2, #0, 0
    1dfc:	01010000 	mrseq	r0, (UNDEF: 1)
	...
    1e08:	00000202 	andeq	r0, r0, r2, lsl #4
    1e0c:	00000100 	andeq	r0, r0, r0, lsl #2
    1e10:	00000000 	andeq	r0, r0, r0
    1e14:	01010000 	mrseq	r0, (UNDEF: 1)
    1e18:	00000000 	andeq	r0, r0, r0
    1e1c:	00000202 	andeq	r0, r0, r2, lsl #4
    1e20:	00000000 	andeq	r0, r0, r0
    1e24:	00000101 	andeq	r0, r0, r1, lsl #2
    1e28:	00001800 	andeq	r1, r0, r0, lsl #16
    1e2c:	00007000 	andeq	r7, r0, r0
    1e30:	91000400 	tstls	r0, r0, lsl #8
    1e34:	709f7fa0 	addsvc	r7, pc, r0, lsr #31
    1e38:	78000000 	stmdavc	r0, {}	; <UNPREDICTABLE>
    1e3c:	01000000 	mrseq	r0, (UNDEF: 0)
    1e40:	00785200 	rsbseq	r5, r8, r0, lsl #4
    1e44:	00780000 	rsbseq	r0, r8, r0
    1e48:	00010000 	andeq	r0, r1, r0
    1e4c:	00007854 	andeq	r7, r0, r4, asr r8
    1e50:	00008800 	andeq	r8, r0, r0, lsl #16
    1e54:	74000300 	strvc	r0, [r0], #-768	; 0xfffffd00
    1e58:	00889f01 	addeq	r9, r8, r1, lsl #30
    1e5c:	00900000 	addseq	r0, r0, r0
    1e60:	00010000 	andeq	r0, r1, r0
    1e64:	00009054 	andeq	r9, r0, r4, asr r0
    1e68:	0000a000 	andeq	sl, r0, r0
    1e6c:	74000300 	strvc	r0, [r0], #-768	; 0xfffffd00
    1e70:	00a09f02 	adceq	r9, r0, r2, lsl #30
    1e74:	00b00000 	adcseq	r0, r0, r0
    1e78:	00010000 	andeq	r0, r1, r0
    1e7c:	0001945e 	andeq	r9, r1, lr, asr r4
    1e80:	00019c00 	andeq	r9, r1, r0, lsl #24
    1e84:	91000400 	tstls	r0, r0, lsl #8
    1e88:	9c9f7fa0 	ldcls	15, cr7, [pc], {160}	; 0xa0
    1e8c:	a4000001 	strge	r0, [r0], #-1
    1e90:	01000001 	tsteq	r0, r1
    1e94:	01a45200 			; <UNDEFINED> instruction: 0x01a45200
    1e98:	01a40000 			; <UNDEFINED> instruction: 0x01a40000
    1e9c:	00010000 	andeq	r0, r1, r0
    1ea0:	0001a45e 	andeq	sl, r1, lr, asr r4
    1ea4:	0001b400 	andeq	fp, r1, r0, lsl #8
    1ea8:	7e000300 	cdpvc	3, 0, cr0, cr0, cr0, {0}
    1eac:	01b49f01 			; <UNDEFINED> instruction: 0x01b49f01
    1eb0:	01c00000 	biceq	r0, r0, r0
    1eb4:	00010000 	andeq	r0, r1, r0
    1eb8:	0001c05e 	andeq	ip, r1, lr, asr r0
    1ebc:	00022800 	andeq	r2, r2, r0, lsl #16
    1ec0:	91000400 	tstls	r0, r0, lsl #8
    1ec4:	289f7fa0 	ldmcs	pc, {r5, r7, r8, r9, sl, fp, ip, sp, lr}	; <UNPREDICTABLE>
    1ec8:	34000002 	strcc	r0, [r0], #-2
    1ecc:	01000002 	tsteq	r0, r2
    1ed0:	02345200 	eorseq	r5, r4, #0, 4
    1ed4:	02580000 	subseq	r0, r8, #0, 0
    1ed8:	00010000 	andeq	r0, r1, r0
    1edc:	0002585e 	andeq	r5, r2, lr, asr r8
    1ee0:	00025c00 	andeq	r5, r2, r0, lsl #24
    1ee4:	7e000300 	cdpvc	3, 0, cr0, cr0, cr0, {0}
    1ee8:	025c9f01 	subseq	r9, ip, #1, 30
    1eec:	02640000 	rsbeq	r0, r4, #0, 0
    1ef0:	00010000 	andeq	r0, r1, r0
    1ef4:	0002645e 	andeq	r6, r2, lr, asr r4
    1ef8:	00027000 	andeq	r7, r2, r0
    1efc:	71000300 	mrsvc	r0, LR_irq
    1f00:	02709f02 	rsbseq	r9, r0, #2, 30
    1f04:	02740000 	rsbseq	r0, r4, #0, 0
    1f08:	00010000 	andeq	r0, r1, r0
    1f0c:	0002745e 	andeq	r7, r2, lr, asr r4
    1f10:	00027400 	andeq	r7, r2, r0, lsl #8
    1f14:	91000400 	tstls	r0, r0, lsl #8
    1f18:	749f7fa0 	ldrvc	r7, [pc], #4000	; 1f20 <__code_start__-0x60e0>
    1f1c:	a0000002 	andge	r0, r0, r2
    1f20:	04000002 	streq	r0, [r0], #-2
    1f24:	7fa19100 	svcvc	0x00a19100
    1f28:	0002c09f 	muleq	r2, pc, r0	; <UNPREDICTABLE>
    1f2c:	0002c800 	andeq	ip, r2, r0, lsl #16
    1f30:	5e000100 	adfpls	f0, f0, f0
    1f34:	000002c8 	andeq	r0, r0, r8, asr #5
    1f38:	000002cc 	andeq	r0, r0, ip, asr #5
    1f3c:	cc560001 	mrrcgt	0, 0, r0, r6, cr1
    1f40:	ec000002 	stc	0, cr0, [r0], {2}
    1f44:	04000002 	streq	r0, [r0], #-2
    1f48:	7fa09100 	svcvc	0x00a09100
    1f4c:	0002ec9f 	muleq	r2, pc, ip	; <UNPREDICTABLE>
    1f50:	0002fc00 	andeq	pc, r2, r0, lsl #24
    1f54:	91000400 	tstls	r0, r0, lsl #8
    1f58:	fc9f7fa1 	ldc2	15, cr7, [pc], {161}	; 0xa1
    1f5c:	28000002 	stmdacs	r0, {r1}
    1f60:	01000003 	tsteq	r0, r3
    1f64:	00005e00 	andeq	r5, r0, r0, lsl #28
	...
    1f7c:	00010100 	andeq	r0, r1, r0, lsl #2
	...
    1f90:	00000020 	andeq	r0, r0, r0, lsr #32
    1f94:	00000070 	andeq	r0, r0, r0, ror r0
    1f98:	70520001 	subsvc	r0, r2, r1
    1f9c:	94000000 	strls	r0, [r0], #-0
    1fa0:	01000000 	mrseq	r0, (UNDEF: 0)
    1fa4:	01945c00 	orrseq	r5, r4, r0, lsl #24
    1fa8:	019c0000 	orrseq	r0, ip, r0
    1fac:	00010000 	andeq	r0, r1, r0
    1fb0:	00019c52 	andeq	r9, r1, r2, asr ip
    1fb4:	0001c000 	andeq	ip, r1, r0
    1fb8:	5c000100 	stfpls	f0, [r0], {-0}
    1fbc:	000001c8 	andeq	r0, r0, r8, asr #3
    1fc0:	00000210 	andeq	r0, r0, r0, lsl r2
    1fc4:	105c0001 	subsne	r0, ip, r1
    1fc8:	24000002 	strcs	r0, [r0], #-2
    1fcc:	01000002 	tsteq	r0, r2
    1fd0:	02245200 	eoreq	r5, r4, #0, 4
    1fd4:	02480000 	subeq	r0, r8, #0, 0
    1fd8:	00010000 	andeq	r0, r1, r0
    1fdc:	0002485c 	andeq	r4, r2, ip, asr r8
    1fe0:	00025c00 	andeq	r5, r2, r0, lsl #24
    1fe4:	55000100 	strpl	r0, [r0, #-256]	; 0xffffff00
    1fe8:	0000025c 	andeq	r0, r0, ip, asr r2
    1fec:	00000268 	andeq	r0, r0, r8, ror #4
    1ff0:	685c0001 	ldmdavs	ip, {r0}^
    1ff4:	74000002 	strvc	r0, [r0], #-2
    1ff8:	19000002 	stmdbne	r0, {r1}
    1ffc:	f7007500 			; <UNDEFINED> instruction: 0xf7007500
    2000:	7625f72c 	strtvc	pc, [r5], -ip, lsr #14
    2004:	f72cf700 			; <UNDEFINED> instruction: 0xf72cf700
    2008:	20081e25 	andcs	r1, r8, r5, lsr #28
    200c:	f72525f7 			; <UNDEFINED> instruction: 0xf72525f7
    2010:	3300f72c 	movwcc	pc, #1836	; 0x72c	; <UNPREDICTABLE>
    2014:	02749f25 	rsbseq	r9, r4, #148	; 0x94
    2018:	02880000 	addeq	r0, r8, #0, 0
    201c:	00010000 	andeq	r0, r1, r0
    2020:	00028852 	andeq	r8, r2, r2, asr r8
    2024:	0002a000 	andeq	sl, r2, r0
    2028:	5c000100 	stfpls	f0, [r0], {-0}
    202c:	000002cc 	andeq	r0, r0, ip, asr #5
    2030:	000002d0 	ldrdeq	r0, [r0], -r0	; <UNPREDICTABLE>
    2034:	d0520001 	subsle	r0, r2, r1
    2038:	e7000002 	str	r0, [r0, -r2]
    203c:	01000002 	tsteq	r0, r2
    2040:	02e75c00 	rsceq	r5, r7, #0, 24
    2044:	02ec0000 	rsceq	r0, ip, #0, 0
    2048:	00040000 	andeq	r0, r4, r0
    204c:	9f5201f3 	svcls	0x005201f3
    2050:	000002ec 	andeq	r0, r0, ip, ror #5
    2054:	00000300 	andeq	r0, r0, r0, lsl #6
    2058:	00520001 	subseq	r0, r2, r1
    205c:	28000003 	stmdacs	r0, {r0, r1}
    2060:	01000003 	tsteq	r0, r3
    2064:	00005c00 	andeq	r5, r0, r0, lsl #24
    2068:	00000000 	andeq	r0, r0, r0
    206c:	00040000 	andeq	r0, r4, r0
    2070:	01000004 	tsteq	r0, r4
    2074:	00040000 	andeq	r0, r4, r0
    2078:	000000a4 	andeq	r0, r0, r4, lsr #1
    207c:	000000b0 	strheq	r0, [r0], -r0	; <UNPREDICTABLE>
    2080:	7c530001 	mrrcvc	0, 0, r0, r3, cr1
    2084:	90000002 	andls	r0, r0, r2
    2088:	01000002 	tsteq	r0, r2
    208c:	02905300 	addseq	r5, r0, #0, 6
    2090:	029c0000 	addseq	r0, ip, #0, 0
    2094:	00040000 	andeq	r0, r4, r0
    2098:	9f5301f3 	svcls	0x005301f3
    209c:	000002c0 	andeq	r0, r0, r0, asr #5
    20a0:	000002cc 	andeq	r0, r0, ip, asr #5
    20a4:	f0530001 			; <UNDEFINED> instruction: 0xf0530001
    20a8:	28000002 	stmdacs	r0, {r1}
    20ac:	03000003 	movweq	r0, #3
    20b0:	9f7f0800 	svcls	0x007f0800
	...
    20bc:	01000004 	tsteq	r0, r4
    20c0:	01000004 	tsteq	r0, r4
    20c4:	00000000 	andeq	r0, r0, r0
    20c8:	00000004 	andeq	r0, r0, r4
    20cc:	000000a4 	andeq	r0, r0, r4, lsr #1
    20d0:	000000b0 	strheq	r0, [r0], -r0	; <UNPREDICTABLE>
    20d4:	b0520001 	subslt	r0, r2, r1
    20d8:	5c000000 	stcpl	0, cr0, [r0], {-0}
    20dc:	04000001 	streq	r0, [r0], #-1
    20e0:	7fa09100 	svcvc	0x00a09100
    20e4:	00027c9f 	muleq	r2, pc, ip	; <UNPREDICTABLE>
    20e8:	00029400 	andeq	r9, r2, r0, lsl #8
    20ec:	91000400 	tstls	r0, r0, lsl #8
    20f0:	949f7fa0 	ldrls	r7, [pc], #4000	; 20f8 <__code_start__-0x5f08>
    20f4:	9c000002 	stcls	0, cr0, [r0], {2}
    20f8:	01000002 	tsteq	r0, r2
    20fc:	02b45e00 	adcseq	r5, r4, #0, 28
    2100:	02c00000 	sbceq	r0, r0, #0, 0
    2104:	00040000 	andeq	r0, r4, r0
    2108:	9f7fa091 	svcls	0x007fa091
    210c:	000002c0 	andeq	r0, r0, r0, asr #5
    2110:	000002cc 	andeq	r0, r0, ip, asr #5
    2114:	f0520001 			; <UNDEFINED> instruction: 0xf0520001
    2118:	00000002 	andeq	r0, r0, r2
    211c:	04000003 	streq	r0, [r0], #-3
    2120:	7fa09100 	svcvc	0x00a09100
    2124:	0003009f 	muleq	r3, pc, r0	; <UNPREDICTABLE>
    2128:	00032800 	andeq	r2, r3, r0, lsl #16
    212c:	52000100 	andpl	r0, r0, #0
	...
    2138:	01000004 	tsteq	r0, r4
    213c:	03010101 	movweq	r0, #4353	; 0x1101
    2140:	01040203 	tsteq	r4, r3, lsl #4
    2144:	00000000 	andeq	r0, r0, r0
    2148:	00000004 	andeq	r0, r0, r4
    214c:	000000a4 	andeq	r0, r0, r4, lsr #1
    2150:	000000b0 	strheq	r0, [r0], -r0	; <UNPREDICTABLE>
    2154:	0c5e0001 	mrrceq	0, 0, r0, lr, cr1
    2158:	0c000001 	stceq	0, cr0, [r0], {1}
    215c:	01000001 	tsteq	r0, r1
    2160:	010c5500 	tsteq	ip, r0, lsl #10
    2164:	01200000 			; <UNDEFINED> instruction: 0x01200000
    2168:	00030000 	andeq	r0, r3, r0
    216c:	209f0175 	addscs	r0, pc, r5, ror r1	; <UNPREDICTABLE>
    2170:	2c000001 	stccs	0, cr0, [r0], {1}
    2174:	03000001 	movweq	r0, #1
    2178:	9f027500 	svcls	0x00027500
    217c:	0000012c 	andeq	r0, r0, ip, lsr #2
    2180:	00000130 	andeq	r0, r0, r0, lsr r1
    2184:	03750003 	cmneq	r5, #3, 0
    2188:	00027c9f 	muleq	r2, pc, ip	; <UNPREDICTABLE>
    218c:	00029c00 	andeq	r9, r2, r0, lsl #24
    2190:	91000400 	tstls	r0, r0, lsl #8
    2194:	c09f7fa1 	addsgt	r7, pc, r1, lsr #31
    2198:	c8000002 	stmdagt	r0, {r1}
    219c:	01000002 	tsteq	r0, r2
    21a0:	02c85e00 	sbceq	r5, r8, #0, 28
    21a4:	02cc0000 	sbceq	r0, ip, #0, 0
    21a8:	00010000 	andeq	r0, r1, r0
    21ac:	0002f056 	andeq	pc, r2, r6, asr r0	; <UNPREDICTABLE>
    21b0:	0002fc00 	andeq	pc, r2, r0, lsl #24
    21b4:	91000400 	tstls	r0, r0, lsl #8
    21b8:	fc9f7fa1 	ldc2	15, cr7, [pc], {161}	; 0xa1
    21bc:	28000002 	stmdacs	r0, {r1}
    21c0:	01000003 	tsteq	r0, r3
    21c4:	00005e00 	andeq	r5, r0, r0, lsl #28
	...
    21d0:	01010100 	mrseq	r0, (UNDEF: 17)
    21d4:	02010101 	andeq	r0, r1, #1073741824	; 0x40000000
    21d8:	00000106 	andeq	r0, r0, r6, lsl #2
    21dc:	00a80006 	adceq	r0, r8, r6
    21e0:	00b00000 	adcseq	r0, r0, r0
    21e4:	00010000 	andeq	r0, r1, r0
    21e8:	00010c51 	andeq	r0, r1, r1, asr ip
    21ec:	00011c00 	andeq	r1, r1, r0, lsl #24
    21f0:	5c000100 	stfpls	f0, [r0], {-0}
    21f4:	0000011c 	andeq	r0, r0, ip, lsl r1
    21f8:	0000012c 	andeq	r0, r0, ip, lsr #2
    21fc:	2c580001 	mrrccs	0, 0, r0, r8, cr1
    2200:	30000001 	andcc	r0, r0, r1
    2204:	01000001 	tsteq	r0, r1
    2208:	01305c00 	teqeq	r0, r0, lsl #24
    220c:	01300000 	teqeq	r0, r0
    2210:	00030000 	andeq	r0, r3, r0
    2214:	7c9f017c 	ldfvcs	f0, [pc], {124}	; 0x7c
    2218:	9c000002 	stcls	0, cr0, [r0], {2}
    221c:	02000002 	andeq	r0, r0, #2, 0
    2220:	c09f3100 	addsgt	r3, pc, r0, lsl #2
    2224:	cc000002 	stcgt	0, cr0, [r0], {2}
    2228:	01000002 	tsteq	r0, r2
    222c:	02f05100 	rscseq	r5, r0, #0
    2230:	03280000 			; <UNDEFINED> instruction: 0x03280000
    2234:	00020000 	andeq	r0, r2, r0
    2238:	00009f31 	andeq	r9, r0, r1, lsr pc
    223c:	00000000 	andeq	r0, r0, r0
    2240:	06010000 	streq	r0, [r1], -r0
    2244:	00010106 	andeq	r0, r1, r6, lsl #2
    2248:	015c0100 	cmpeq	ip, r0, lsl #2
    224c:	015c0000 	cmpeq	ip, r0
    2250:	00040000 	andeq	r0, r4, r0
    2254:	9f7fa091 	svcls	0x007fa091
    2258:	0000015c 	andeq	r0, r0, ip, asr r1
    225c:	0000018c 	andeq	r0, r0, ip, lsl #3
    2260:	9c520001 	mrrcls	0, 0, r0, r2, cr1
    2264:	a0000002 	andge	r0, r0, r2
    2268:	01000002 	tsteq	r0, r2
    226c:	02a05e00 	adceq	r5, r0, #0, 28
    2270:	02ac0000 	adceq	r0, ip, #0, 0
    2274:	00010000 	andeq	r0, r1, r0
    2278:	00000052 	andeq	r0, r0, r2, asr r0
	...
    2284:	01000101 	tsteq	r0, r1, lsl #2
    2288:	00016c07 	andeq	r6, r1, r7, lsl #24
    228c:	00017000 	andeq	r7, r1, r0
    2290:	73000300 	movwvc	r0, #768	; 0x300
    2294:	01709f7f 	cmneq	r0, pc, ror pc
    2298:	01780000 	cmneq	r8, r0
    229c:	00010000 	andeq	r0, r1, r0
    22a0:	00017853 	andeq	r7, r1, r3, asr r8
    22a4:	00018400 	andeq	r8, r1, r0, lsl #8
    22a8:	73000300 	movwvc	r0, #768	; 0x300
    22ac:	029c9f7f 	addseq	r9, ip, #508	; 0x1fc
    22b0:	029c0000 	addseq	r0, ip, #0, 0
    22b4:	00040000 	andeq	r0, r4, r0
    22b8:	9f7fa191 	svcls	0x007fa191
	...
    22c4:	01010101 	tsteq	r1, r1, lsl #2
    22c8:	0000015c 	andeq	r0, r0, ip, asr r1
    22cc:	0000018c 	andeq	r0, r0, ip, lsl #3
    22d0:	80080003 	andhi	r0, r8, r3
    22d4:	00029c9f 	muleq	r2, pc, ip	; <UNPREDICTABLE>
    22d8:	0002ac00 	andeq	sl, r2, r0, lsl #24
    22dc:	08000300 	stmdaeq	r0, {r8, r9}
    22e0:	00009f80 	andeq	r9, r0, r0, lsl #31
    22e4:	00000000 	andeq	r0, r0, r0
    22e8:	00010000 	andeq	r0, r1, r0
    22ec:	00010100 	andeq	r0, r1, r0, lsl #2
    22f0:	01010100 	mrseq	r0, (UNDEF: 17)
    22f4:	01010101 	tsteq	r1, r1, lsl #2
    22f8:	0000015c 	andeq	r0, r0, ip, asr r1
    22fc:	0000016c 	andeq	r0, r0, ip, ror #2
    2300:	6c500001 	mrrcvs	0, 0, r0, r0, cr1	; <UNPREDICTABLE>
    2304:	6c000001 	stcvs	0, cr0, [r0], {1}
    2308:	03000001 	movweq	r0, #1
    230c:	9f017c00 	svcls	0x00017c00
    2310:	0000016c 	andeq	r0, r0, ip, ror #2
    2314:	00000178 	andeq	r0, r0, r8, ror r1
    2318:	027c0003 	rsbseq	r0, ip, #3, 0
    231c:	0001789f 	muleq	r1, pc, r8	; <UNPREDICTABLE>
    2320:	00018800 	andeq	r8, r1, r0, lsl #16
    2324:	7c000300 	stcvc	3, cr0, [r0], {-0}
    2328:	01889f01 	orreq	r9, r8, r1, lsl #30
    232c:	018c0000 	orreq	r0, ip, r0
    2330:	00030000 	andeq	r0, r3, r0
    2334:	9c9f017e 	ldflss	f0, [pc], {126}	; 0x7e
    2338:	a4000002 	strge	r0, [r0], #-2
    233c:	01000002 	tsteq	r0, r2
    2340:	02a45000 	adceq	r5, r4, #0, 0
    2344:	02ac0000 	adceq	r0, ip, #0, 0
    2348:	00030000 	andeq	r0, r3, r0
    234c:	009f017e 	addseq	r0, pc, lr, ror r1	; <UNPREDICTABLE>
    2350:	00000000 	andeq	r0, r0, r0
    2354:	04000000 	streq	r0, [r0], #-0
    2358:	00000400 	andeq	r0, r0, r0, lsl #8
    235c:	00015c01 	andeq	r5, r1, r1, lsl #24
    2360:	00016000 	andeq	r6, r1, r0
    2364:	71000300 	mrsvc	r0, LR_irq
    2368:	029c9f01 	addseq	r9, ip, #1, 30
    236c:	02a00000 	adceq	r0, r0, #0, 0
    2370:	00020000 	andeq	r0, r2, r0
    2374:	02a09f32 	adceq	r9, r0, #200	; 0xc8
    2378:	02ac0000 	adceq	r0, ip, #0, 0
    237c:	00030000 	andeq	r0, r3, r0
    2380:	009f0171 	addseq	r0, pc, r1, ror r1	; <UNPREDICTABLE>
    2384:	00000000 	andeq	r0, r0, r0
    2388:	07000000 	streq	r0, [r0, -r0]
    238c:	5c000600 	stcpl	6, cr0, [r0], {-0}
    2390:	94000001 	strls	r0, [r0], #-1
    2394:	01000001 	tsteq	r0, r1
    2398:	029c5000 	addseq	r5, ip, #0, 0
    239c:	02b40000 	adcseq	r0, r4, #0, 0
    23a0:	00010000 	andeq	r0, r1, r0
    23a4:	00000050 	andeq	r0, r0, r0, asr r0
    23a8:	00000000 	andeq	r0, r0, r0
    23ac:	01010100 	mrseq	r0, (UNDEF: 17)
    23b0:	00021400 	andeq	r1, r2, r0, lsl #8
    23b4:	00022000 	andeq	r2, r2, r0
    23b8:	30000200 	andcc	r0, r0, r0, lsl #4
    23bc:	0002209f 	muleq	r2, pc, r0	; <UNPREDICTABLE>
    23c0:	00023400 	andeq	r3, r2, r0, lsl #8
    23c4:	31000200 	mrscc	r0, R8_usr
    23c8:	0000009f 	muleq	r0, pc, r0	; <UNPREDICTABLE>
    23cc:	00000000 	andeq	r0, r0, r0
    23d0:	01010000 	mrseq	r0, (UNDEF: 1)
    23d4:	01010000 	mrseq	r0, (UNDEF: 1)
    23d8:	01010000 	mrseq	r0, (UNDEF: 1)
    23dc:	01010000 	mrseq	r0, (UNDEF: 1)
    23e0:	01010000 	mrseq	r0, (UNDEF: 1)
    23e4:	02020000 	andeq	r0, r2, #0, 0
    23e8:	00008001 	andeq	r8, r0, r1
    23ec:	00008000 	andeq	r8, r0, r0
    23f0:	53000100 	movwpl	r0, #256	; 0x100
    23f4:	00000080 	andeq	r0, r0, r0, lsl #1
    23f8:	0000008c 	andeq	r0, r0, ip, lsl #1
    23fc:	04730003 	ldrbteq	r0, [r3], #-3
    2400:	00008c9f 	muleq	r0, pc, ip	; <UNPREDICTABLE>
    2404:	00009400 	andeq	r9, r0, r0, lsl #8
    2408:	51000100 	mrspl	r0, (UNDEF: 16)
    240c:	00000094 	muleq	r0, r4, r0
    2410:	00000098 	muleq	r0, r8, r0
    2414:	08730003 	ldmdaeq	r3!, {r0, r1}^
    2418:	0000989f 	muleq	r0, pc, r8	; <UNPREDICTABLE>
    241c:	0000a400 	andeq	sl, r0, r0, lsl #8
    2420:	51000100 	mrspl	r0, (UNDEF: 16)
    2424:	000000a4 	andeq	r0, r0, r4, lsr #1
    2428:	000000a8 	andeq	r0, r0, r8, lsr #1
    242c:	0c730003 	ldcleq	0, cr0, [r3], #-12
    2430:	0000a89f 	muleq	r0, pc, r8	; <UNPREDICTABLE>
    2434:	0000b400 	andeq	fp, r0, r0, lsl #8
    2438:	51000100 	mrspl	r0, (UNDEF: 16)
    243c:	000000b4 	strheq	r0, [r0], -r4
    2440:	000000b8 	strheq	r0, [r0], -r8
    2444:	10730003 	rsbsne	r0, r3, r3
    2448:	0000b89f 	muleq	r0, pc, r8	; <UNPREDICTABLE>
    244c:	0000c400 	andeq	ip, r0, r0, lsl #8
    2450:	51000100 	mrspl	r0, (UNDEF: 16)
    2454:	000000c4 	andeq	r0, r0, r4, asr #1
    2458:	000000c8 	andeq	r0, r0, r8, asr #1
    245c:	14730003 	ldrbtne	r0, [r3], #-3
    2460:	0000c89f 	muleq	r0, pc, r8	; <UNPREDICTABLE>
    2464:	0000d000 	andeq	sp, r0, r0
    2468:	51000100 	mrspl	r0, (UNDEF: 16)
    246c:	000000d0 	ldrdeq	r0, [r0], -r0	; <UNPREDICTABLE>
    2470:	000000d4 	ldrdeq	r0, [r0], -r4
    2474:	04710003 	ldrbteq	r0, [r1], #-3
    2478:	0000009f 	muleq	r0, pc, r0	; <UNPREDICTABLE>
    247c:	00000000 	andeq	r0, r0, r0
    2480:	08000100 	stmdaeq	r0, {r8}
    2484:	0b000001 	bleq	2490 <__code_start__-0x5b70>
    2488:	01000001 	tsteq	r0, r1
    248c:	00005100 	andeq	r5, r0, r0, lsl #2
    2490:	00000000 	andeq	r0, r0, r0
    2494:	00020000 	andeq	r0, r2, r0
    2498:	000000d8 	ldrdeq	r0, [r0], -r8
    249c:	00000110 	andeq	r0, r0, r0, lsl r1
    24a0:	9f310002 	svcls	0x00310002
	...
    24ac:	00e00305 	rsceq	r0, r0, r5, lsl #6
    24b0:	00e40000 	rsceq	r0, r4, r0
    24b4:	00020000 	andeq	r0, r2, r0
    24b8:	00009f30 	andeq	r9, r0, r0, lsr pc
    24bc:	00000000 	andeq	r0, r0, r0
    24c0:	00010000 	andeq	r0, r1, r0
    24c4:	000000e4 	andeq	r0, r0, r4, ror #1
    24c8:	000000ef 	andeq	r0, r0, pc, ror #1
    24cc:	00530001 	subseq	r0, r3, r1
	...
    24d8:	0000e401 	andeq	lr, r0, r1, lsl #8
    24dc:	0000ec00 	andeq	lr, r0, r0, lsl #24
    24e0:	53000100 	movwpl	r0, #256	; 0x100
	...
    24ec:	01000004 	tsteq	r0, r4
    24f0:	000000f0 	strdeq	r0, [r0], -r0	; <UNPREDICTABLE>
    24f4:	00000104 	andeq	r0, r0, r4, lsl #2
    24f8:	9f300002 	svcls	0x00300002
    24fc:	00000104 	andeq	r0, r0, r4, lsl #2
    2500:	00000108 	andeq	r0, r0, r8, lsl #2
    2504:	00510001 	subseq	r0, r1, r1
    2508:	00000000 	andeq	r0, r0, r0
    250c:	01000000 	mrseq	r0, (UNDEF: 0)
    2510:	0000f400 	andeq	pc, r0, r0, lsl #8
    2514:	00010b00 	andeq	r0, r1, r0, lsl #22
    2518:	53000100 	movwpl	r0, #256	; 0x100
	...
    2524:	00f40100 	rscseq	r0, r4, r0, lsl #2
    2528:	01080000 	mrseq	r0, (UNDEF: 8)
    252c:	00010000 	andeq	r0, r1, r0
    2530:	00000053 	andeq	r0, r0, r3, asr r0
    2534:	00000000 	andeq	r0, r0, r0
    2538:	00000400 	andeq	r0, r0, r0, lsl #8
    253c:	009c0001 	addseq	r0, ip, r1
    2540:	009c0800 	addseq	r0, ip, r0, lsl #16
    2544:	30000200 	andcc	r0, r0, r0, lsl #4
    2548:	009c089f 	umullseq	r0, ip, pc, r8	; <UNPREDICTABLE>
    254c:	009c0800 	addseq	r0, ip, r0, lsl #16
    2550:	53000100 	movwpl	r0, #256	; 0x100
	...
    255c:	00000003 	andeq	r0, r0, r3
    2560:	00000000 	andeq	r0, r0, r0
    2564:	00009c14 	andeq	r9, r0, r4, lsl ip
    2568:	00009c18 	andeq	r9, r0, r8, lsl ip
    256c:	9f300002 	svcls	0x00300002
    2570:	00009c18 	andeq	r9, r0, r8, lsl ip
    2574:	00009c1c 	andeq	r9, r0, ip, lsl ip
    2578:	1c530001 	mrrcne	0, 0, r0, r3, cr1
    257c:	2000009c 	mulcs	r0, ip, r0
    2580:	0500009c 	streq	r0, [r0, #-156]	; 0xffffff64
    2584:	40007300 	andmi	r7, r0, r0, lsl #6
    2588:	9c209f21 	stcls	15, cr9, [r0], #-132	; 0xffffff7c
    258c:	9c240000 	stcls	0, cr0, [r4], #-0
    2590:	00010000 	andeq	r0, r1, r0
    2594:	00000053 	andeq	r0, r0, r3, asr r0
    2598:	00000000 	andeq	r0, r0, r0
    259c:	00000200 	andeq	r0, r0, r0, lsl #4
    25a0:	009bd400 	addseq	sp, fp, r0, lsl #8
    25a4:	009bd800 	addseq	sp, fp, r0, lsl #16
    25a8:	30000200 	andcc	r0, r0, r0, lsl #4
    25ac:	009bd89f 	umullseq	sp, fp, pc, r8	; <UNPREDICTABLE>
    25b0:	009bdc00 	addseq	sp, fp, r0, lsl #24
    25b4:	50000100 	andpl	r0, r0, r0, lsl #2
	...
    25c0:	00000002 	andeq	r0, r0, r2
    25c4:	00000000 	andeq	r0, r0, r0
    25c8:	00009bec 	andeq	r9, r0, ip, ror #23
    25cc:	00009bf0 	strdeq	r9, [r0], -r0
    25d0:	9f300002 	svcls	0x00300002
    25d4:	00009bf0 	strdeq	r9, [r0], -r0
    25d8:	00009bf4 	strdeq	r9, [r0], -r4
    25dc:	f4530001 			; <UNDEFINED> instruction: 0xf4530001
    25e0:	f800009b 			; <UNDEFINED> instruction: 0xf800009b
    25e4:	0500009b 	streq	r0, [r0, #-155]	; 0xffffff65
    25e8:	40007300 	andmi	r7, r0, r0, lsl #6
    25ec:	9bf89f21 	blls	ffe2a278 <__bss_end__+0xffe1ef78>
    25f0:	9c000000 	stcls	0, cr0, [r0], {-0}
    25f4:	00010000 	andeq	r0, r1, r0
    25f8:	00000053 	andeq	r0, r0, r3, asr r0
	...
    2604:	0000c800 	andeq	ip, r0, r0, lsl #16
    2608:	0000d800 	andeq	sp, r0, r0, lsl #16
    260c:	50000100 	andpl	r0, r0, r0, lsl #2
    2610:	000000d8 	ldrdeq	r0, [r0], -r8
    2614:	0000011c 	andeq	r0, r0, ip, lsl r1
    2618:	01f30004 	mvnseq	r0, r4
    261c:	00009f50 	andeq	r9, r0, r0, asr pc
    2620:	00000000 	andeq	r0, r0, r0
    2624:	00020000 	andeq	r0, r2, r0
    2628:	00c80000 	sbceq	r0, r8, r0
    262c:	00d80000 	sbcseq	r0, r8, r0
    2630:	00070000 	andeq	r0, r7, r0
    2634:	e80a0070 	stmda	sl, {r4, r5, r6}
    2638:	d89f1e03 	ldmle	pc, {r0, r1, r9, sl, fp, ip}	; <UNPREDICTABLE>
    263c:	1c000000 	stcne	0, cr0, [r0], {-0}
    2640:	08000001 	stmdaeq	r0, {r0}
    2644:	5001f300 	andpl	pc, r1, r0, lsl #6
    2648:	1e03e80a 	cdpne	8, 0, cr14, cr3, cr10, {0}
    264c:	0000009f 	muleq	r0, pc, r0	; <UNPREDICTABLE>
    2650:	00000000 	andeq	r0, r0, r0
    2654:	dc000000 	stcle	0, cr0, [r0], {-0}
    2658:	1c000000 	stcne	0, cr0, [r0], {-0}
    265c:	01000001 	tsteq	r0, r1
    2660:	00005400 	andeq	r5, r0, r0, lsl #8
    2664:	00000000 	andeq	r0, r0, r0
    2668:	00010000 	andeq	r0, r1, r0
    266c:	000000f0 	strdeq	r0, [r0], -r0	; <UNPREDICTABLE>
    2670:	0000011c 	andeq	r0, r0, ip, lsl r1
    2674:	00560001 	subseq	r0, r6, r1
	...
    2680:	ec000000 	stc	0, cr0, [r0], {-0}
    2684:	ef000000 	svc	0x00000000
    2688:	01000000 	mrseq	r0, (UNDEF: 0)
    268c:	00ef5000 	rsceq	r5, pc, r0
    2690:	011c0000 	tsteq	ip, r0
    2694:	00010000 	andeq	r0, r1, r0
    2698:	00000056 	andeq	r0, r0, r6, asr r0
    269c:	00000000 	andeq	r0, r0, r0
    26a0:	04000000 	streq	r0, [r0], #-0
    26a4:	0b000001 	bleq	26b0 <__code_start__-0x5950>
    26a8:	01000001 	tsteq	r0, r1
    26ac:	00005000 	andeq	r5, r0, r0
	...
    26b8:	00200000 	eoreq	r0, r0, r0
    26bc:	00230000 	eoreq	r0, r3, r0
    26c0:	00010000 	andeq	r0, r1, r0
    26c4:	00002350 	andeq	r2, r0, r0, asr r3
    26c8:	00003000 	andeq	r3, r0, r0
    26cc:	54000100 	strpl	r0, [r0], #-256	; 0xffffff00
	...
    26dc:	00000030 	andeq	r0, r0, r0, lsr r0
    26e0:	0000003b 	andeq	r0, r0, fp, lsr r0
    26e4:	3b500001 	blcc	14026f0 <__bss_end__+0x13f73f0>
    26e8:	78000000 	stmdavc	r0, {}	; <UNPREDICTABLE>
    26ec:	01000000 	mrseq	r0, (UNDEF: 0)
    26f0:	00005600 	andeq	r5, r0, r0, lsl #12
    26f4:	00000000 	andeq	r0, r0, r0
    26f8:	00010000 	andeq	r0, r1, r0
    26fc:	0000004c 	andeq	r0, r0, ip, asr #32
    2700:	00000078 	andeq	r0, r0, r8, ror r0
    2704:	00550001 	subseq	r0, r5, r1
	...
    2710:	48000000 	stmdami	r0, {}	; <UNPREDICTABLE>
    2714:	4b000000 	blmi	271c <__code_start__-0x58e4>
    2718:	01000000 	mrseq	r0, (UNDEF: 0)
    271c:	004b5000 	subeq	r5, fp, r0
    2720:	00780000 	rsbseq	r0, r8, r0
    2724:	00010000 	andeq	r0, r1, r0
    2728:	00000055 	andeq	r0, r0, r5, asr r0
    272c:	00000000 	andeq	r0, r0, r0
    2730:	60000000 	andvs	r0, r0, r0
    2734:	67000000 	strvs	r0, [r0, -r0]
    2738:	01000000 	mrseq	r0, (UNDEF: 0)
    273c:	00005000 	andeq	r5, r0, r0
	...
    2748:	00780000 	rsbseq	r0, r8, r0
    274c:	00840000 	addeq	r0, r4, r0
    2750:	00010000 	andeq	r0, r1, r0
    2754:	00008450 	andeq	r8, r0, r0, asr r4
    2758:	0000c800 	andeq	ip, r0, r0, lsl #16
    275c:	f3000400 	vshl.u8	d0, d0, d0
    2760:	009f5001 	addseq	r5, pc, r1
	...
    276c:	00008800 	andeq	r8, r0, r0, lsl #16
    2770:	0000c800 	andeq	ip, r0, r0, lsl #16
    2774:	54000100 	strpl	r0, [r0], #-256	; 0xffffff00
	...
    2780:	009c0001 	addseq	r0, ip, r1
    2784:	00c80000 	sbceq	r0, r8, r0
    2788:	00010000 	andeq	r0, r1, r0
    278c:	00000056 	andeq	r0, r0, r6, asr r0
	...
    2798:	00009800 	andeq	r9, r0, r0, lsl #16
    279c:	00009b00 	andeq	r9, r0, r0, lsl #22
    27a0:	50000100 	andpl	r0, r0, r0, lsl #2
    27a4:	0000009b 	muleq	r0, fp, r0
    27a8:	000000c8 	andeq	r0, r0, r8, asr #1
    27ac:	00560001 	subseq	r0, r6, r1
	...
    27b8:	0000b000 	andeq	fp, r0, r0
    27bc:	0000b700 	andeq	fp, r0, r0, lsl #14
    27c0:	50000100 	andpl	r0, r0, r0, lsl #2
	...
    27d0:	00000158 	andeq	r0, r0, r8, asr r1
    27d4:	00000163 	andeq	r0, r0, r3, ror #2
    27d8:	63500001 	cmpvs	r0, #1, 0
    27dc:	88000001 	stmdahi	r0, {r0}
    27e0:	01000001 	tsteq	r0, r1
    27e4:	00005400 	andeq	r5, r0, r0, lsl #8
	...
    27f0:	00000148 	andeq	r0, r0, r8, asr #2
    27f4:	00000158 	andeq	r0, r0, r8, asr r1
    27f8:	00540001 	subseq	r0, r4, r1
	...
    2808:	0f000000 	svceq	0x00000000
    280c:	01000000 	mrseq	r0, (UNDEF: 0)
    2810:	000f5000 	andeq	r5, pc, r0
    2814:	00200000 	eoreq	r0, r0, r0
    2818:	00010000 	andeq	r0, r1, r0
    281c:	00000054 	andeq	r0, r0, r4, asr r0
	...
    282c:	00000f00 	andeq	r0, r0, r0, lsl #30
    2830:	51000100 	mrspl	r0, (UNDEF: 16)
    2834:	0000000f 	andeq	r0, r0, pc
    2838:	00000020 	andeq	r0, r0, r0, lsr #32
    283c:	00550001 	subseq	r0, r5, r1
	...
    2848:	20000000 	andcs	r0, r0, r0
    284c:	2f000000 	svccs	0x00000000
    2850:	01000000 	mrseq	r0, (UNDEF: 0)
    2854:	002f5000 	eoreq	r5, pc, r0
    2858:	00400000 	subeq	r0, r0, r0
    285c:	00010000 	andeq	r0, r1, r0
    2860:	00000054 	andeq	r0, r0, r4, asr r0
	...
    286c:	00002000 	andeq	r2, r0, r0
    2870:	00002f00 	andeq	r2, r0, r0, lsl #30
    2874:	51000100 	mrspl	r0, (UNDEF: 16)
    2878:	0000002f 	andeq	r0, r0, pc, lsr #32
    287c:	00000040 	andeq	r0, r0, r0, asr #32
    2880:	00550001 	subseq	r0, r5, r1
	...
    2890:	00035000 	andeq	r5, r3, r0
    2894:	00039800 	andeq	r9, r3, r0, lsl #16
    2898:	50000100 	andpl	r0, r0, r0, lsl #2
    289c:	00000398 	muleq	r0, r8, r3
    28a0:	0000039b 	muleq	r0, fp, r3
    28a4:	68910002 	ldmvs	r1, {r1}
    28a8:	0000039b 	muleq	r0, fp, r3
    28ac:	000003b0 			; <UNDEFINED> instruction: 0x000003b0
    28b0:	01f30004 	mvnseq	r0, r4
    28b4:	00009f50 	andeq	r9, r0, r0, asr pc
	...
    28d0:	02200000 	eoreq	r0, r0, #0, 0
    28d4:	027b0000 	rsbseq	r0, fp, #0, 0
    28d8:	00010000 	andeq	r0, r1, r0
    28dc:	00027b50 	andeq	r7, r2, r0, asr fp
    28e0:	00028400 	andeq	r8, r2, r0, lsl #8
    28e4:	f3000400 	vshl.u8	d0, d0, d0
    28e8:	849f5001 	ldrhi	r5, [pc], #1	; 28f0 <__code_start__-0x5710>
    28ec:	9c000002 	stcls	0, cr0, [r0], {2}
    28f0:	01000002 	tsteq	r0, r2
    28f4:	029c5000 	addseq	r5, ip, #0, 0
    28f8:	02a40000 	adceq	r0, r4, #0, 0
    28fc:	00040000 	andeq	r0, r4, r0
    2900:	9f5001f3 	svcls	0x005001f3
    2904:	000002a4 	andeq	r0, r0, r4, lsr #5
    2908:	000002a7 	andeq	r0, r0, r7, lsr #5
    290c:	a7500001 	ldrbge	r0, [r0, -r1]
    2910:	c8000002 	stmdagt	r0, {r1}
    2914:	04000002 	streq	r0, [r0], #-2
    2918:	5001f300 	andpl	pc, r1, r0, lsl #6
    291c:	0002c89f 	muleq	r2, pc, r8	; <UNPREDICTABLE>
    2920:	0002e000 	andeq	lr, r2, r0
    2924:	50000100 	andpl	r0, r0, r0, lsl #2
    2928:	000002e0 	andeq	r0, r0, r0, ror #5
    292c:	000002e8 	andeq	r0, r0, r8, ror #5
    2930:	01f30004 	mvnseq	r0, r4
    2934:	02e89f50 	rsceq	r9, r8, #80, 30	; 0x140
    2938:	02eb0000 	rsceq	r0, fp, #0, 0
    293c:	00010000 	andeq	r0, r1, r0
    2940:	0002eb50 	andeq	lr, r2, r0, asr fp
    2944:	00033800 	andeq	r3, r3, r0, lsl #16
    2948:	f3000400 	vshl.u8	d0, d0, d0
    294c:	009f5001 	addseq	r5, pc, r1
	...
    2968:	20000000 	andcs	r0, r0, r0
    296c:	44000002 	strmi	r0, [r0], #-2
    2970:	01000002 	tsteq	r0, r2
    2974:	02445100 	subeq	r5, r4, #0
    2978:	02680000 	rsbeq	r0, r8, #0, 0
    297c:	00010000 	andeq	r0, r1, r0
    2980:	00026851 	andeq	r6, r2, r1, asr r8
    2984:	00027b00 	andeq	r7, r2, r0, lsl #22
    2988:	71000300 	mrsvc	r0, LR_irq
    298c:	027b9f01 	rsbseq	r9, fp, #1, 30
    2990:	02840000 	addeq	r0, r4, #0, 0
    2994:	00170000 	andseq	r0, r7, r0
    2998:	5101f338 	tstpl	r1, r8, lsr r3	; <UNPREDICTABLE>
    299c:	405101f3 	ldrshmi	r0, [r1], #-19	; 0xffffffed
    29a0:	0c22244b 	cfstrseq	mvf2, [r2], #-300	; 0xfffffed4
    29a4:	80000008 	andhi	r0, r0, r8
    29a8:	0001282d 	andeq	r2, r1, sp, lsr #16
    29ac:	849f1316 	ldrhi	r1, [pc], #790	; 29b4 <__code_start__-0x564c>
    29b0:	98000002 	stmdals	r0, {r1}
    29b4:	01000002 	tsteq	r0, r2
    29b8:	02985100 	addseq	r5, r8, #0
    29bc:	02a40000 	adceq	r0, r4, #0, 0
    29c0:	00040000 	andeq	r0, r4, r0
    29c4:	9f5101f3 	svcls	0x005101f3
    29c8:	000002a4 	andeq	r0, r0, r4, lsr #5
    29cc:	000002a7 	andeq	r0, r0, r7, lsr #5
    29d0:	a7510001 	ldrbge	r0, [r1, -r1]
    29d4:	c8000002 	stmdagt	r0, {r1}
    29d8:	04000002 	streq	r0, [r0], #-2
    29dc:	5101f300 	mrspl	pc, SP_irq	; <UNPREDICTABLE>
    29e0:	0002c89f 	muleq	r2, pc, r8	; <UNPREDICTABLE>
    29e4:	0002dc00 	andeq	sp, r2, r0, lsl #24
    29e8:	51000100 	mrspl	r0, (UNDEF: 16)
    29ec:	000002dc 	ldrdeq	r0, [r0], -ip
    29f0:	00000338 	andeq	r0, r0, r8, lsr r3
    29f4:	f3380017 	vqadd.u64	d0, d8, d7
    29f8:	01f35101 	mvnseq	r5, r1, lsl #2
    29fc:	244b4051 	strbcs	r4, [fp], #-81	; 0xffffffaf
    2a00:	00080c22 	andeq	r0, r8, r2, lsr #24
    2a04:	282d8000 	stmdacs	sp!, {pc}
    2a08:	13160001 	tstne	r6, #1, 0
    2a0c:	0000009f 	muleq	r0, pc, r0	; <UNPREDICTABLE>
	...
    2a20:	00024c00 	andeq	r4, r2, r0, lsl #24
    2a24:	00025c00 	andeq	r5, r2, r0, lsl #24
    2a28:	52000100 	andpl	r0, r0, #0
    2a2c:	0000025c 	andeq	r0, r0, ip, asr r2
    2a30:	00000264 	andeq	r0, r0, r4, ror #4
    2a34:	bc030005 	stclt	0, cr0, [r3], {5}
    2a38:	640000ae 	strvs	r0, [r0], #-174	; 0xffffff52
    2a3c:	7b000002 	blvc	2a4c <__code_start__-0x55b4>
    2a40:	01000002 	tsteq	r0, r2
    2a44:	02c85300 	sbceq	r5, r8, #0, 6
    2a48:	02d80000 	sbcseq	r0, r8, #0, 0
    2a4c:	00010000 	andeq	r0, r1, r0
    2a50:	0002d852 	andeq	sp, r2, r2, asr r8
    2a54:	0002e300 	andeq	lr, r2, r0, lsl #6
    2a58:	03000500 	movweq	r0, #1280	; 0x500
    2a5c:	0000aebc 			; <UNDEFINED> instruction: 0x0000aebc
    2a60:	000002e8 	andeq	r0, r0, r8, ror #5
    2a64:	000002eb 	andeq	r0, r0, fp, ror #5
    2a68:	00530001 	subseq	r0, r3, r1
    2a6c:	00000000 	andeq	r0, r0, r0
    2a70:	04000000 	streq	r0, [r0], #-0
    2a74:	00023000 	andeq	r3, r2, r0
    2a78:	00023400 	andeq	r3, r2, r0, lsl #8
    2a7c:	51000100 	mrspl	r0, (UNDEF: 16)
	...
    2a88:	023c0002 	eorseq	r0, ip, #2, 0
    2a8c:	02440000 	subeq	r0, r4, #0, 0
    2a90:	00020000 	andeq	r0, r2, r0
    2a94:	00009f38 	andeq	r9, r0, r8, lsr pc
    2a98:	00000000 	andeq	r0, r0, r0
    2a9c:	00020000 	andeq	r0, r2, r0
    2aa0:	0000023c 	andeq	r0, r0, ip, lsr r2
    2aa4:	00000244 	andeq	r0, r0, r4, asr #4
    2aa8:	00510001 	subseq	r0, r1, r1
    2aac:	00000000 	andeq	r0, r0, r0
    2ab0:	01000000 	mrseq	r0, (UNDEF: 0)
    2ab4:	00000000 	andeq	r0, r0, r0
    2ab8:	00024c00 	andeq	r4, r2, r0, lsl #24
    2abc:	00026400 	andeq	r6, r2, r0, lsl #8
    2ac0:	51000100 	mrspl	r0, (UNDEF: 16)
    2ac4:	000002c8 	andeq	r0, r0, r8, asr #5
    2ac8:	000002dc 	ldrdeq	r0, [r0], -ip
    2acc:	dc510001 	mrrcle	0, 0, r0, r1, cr1
    2ad0:	e8000002 	stmda	r0, {r1}
    2ad4:	17000002 	strne	r0, [r0, -r2]
    2ad8:	01f33800 	mvnseq	r3, r0, lsl #16
    2adc:	5101f351 	tstpl	r1, r1, asr r3	; <UNPREDICTABLE>
    2ae0:	22244b40 	eorcs	r4, r4, #64, 22	; 0x10000
    2ae4:	0000080c 	andeq	r0, r0, ip, lsl #16
    2ae8:	01282d80 	smlawbeq	r8, r0, sp, r2
    2aec:	9f131600 	svcls	0x00131600
	...
    2af8:	00000001 	andeq	r0, r0, r1
    2afc:	00000000 	andeq	r0, r0, r0
    2b00:	0000024c 	andeq	r0, r0, ip, asr #4
    2b04:	0000025c 	andeq	r0, r0, ip, asr r2
    2b08:	5c520001 	mrrcpl	0, 0, r0, r2, cr1
    2b0c:	64000002 	strvs	r0, [r0], #-2
    2b10:	05000002 	streq	r0, [r0, #-2]
    2b14:	aebc0300 	cdpge	3, 11, cr0, cr12, cr0, {0}
    2b18:	02c80000 	sbceq	r0, r8, #0, 0
    2b1c:	02d80000 	sbcseq	r0, r8, #0, 0
    2b20:	00010000 	andeq	r0, r1, r0
    2b24:	0002d852 	andeq	sp, r2, r2, asr r8
    2b28:	0002e300 	andeq	lr, r2, r0, lsl #6
    2b2c:	03000500 	movweq	r0, #1280	; 0x500
    2b30:	0000aebc 			; <UNDEFINED> instruction: 0x0000aebc
	...
    2b3c:	024c0004 	subeq	r0, ip, #4, 0
    2b40:	02500000 	subseq	r0, r0, #0, 0
    2b44:	00010000 	andeq	r0, r1, r0
    2b48:	00000051 	andeq	r0, r0, r1, asr r0
    2b4c:	00000000 	andeq	r0, r0, r0
    2b50:	64000300 	strvs	r0, [r0], #-768	; 0xfffffd00
    2b54:	68000002 	stmdavs	r0, {r1}
    2b58:	01000002 	tsteq	r0, r2
    2b5c:	00005100 	andeq	r5, r0, r0, lsl #2
    2b60:	00000000 	andeq	r0, r0, r0
    2b64:	00030000 	andeq	r0, r3, r0
    2b68:	00000264 	andeq	r0, r0, r4, ror #4
    2b6c:	00000268 	andeq	r0, r0, r8, ror #4
    2b70:	00530001 	subseq	r0, r3, r1
	...
    2b80:	bc000000 	stclt	0, cr0, [r0], {-0}
    2b84:	d3000001 	movwle	r0, #1
    2b88:	01000001 	tsteq	r0, r1
    2b8c:	01d35000 	bicseq	r5, r3, r0
    2b90:	01f00000 	mvnseq	r0, r0
    2b94:	00010000 	andeq	r0, r1, r0
    2b98:	0001f054 	andeq	pc, r1, r4, asr r0	; <UNPREDICTABLE>
    2b9c:	00020800 	andeq	r0, r2, r0, lsl #16
    2ba0:	50000100 	andpl	r0, r0, r0, lsl #2
    2ba4:	00000208 	andeq	r0, r0, r8, lsl #4
    2ba8:	00000220 	andeq	r0, r0, r0, lsr #4
    2bac:	00540001 	subseq	r0, r4, r1
	...
    2bb8:	d8000000 	stmdale	r0, {}	; <UNPREDICTABLE>
    2bbc:	e3000001 	movw	r0, #1
    2bc0:	01000001 	tsteq	r0, r1
    2bc4:	01e35000 	mvneq	r5, r0
    2bc8:	01f00000 	mvnseq	r0, r0
    2bcc:	00010000 	andeq	r0, r1, r0
    2bd0:	00000055 	andeq	r0, r0, r5, asr r0
	...
    2be8:	00012400 	andeq	r2, r1, r0, lsl #8
    2bec:	00013800 	andeq	r3, r1, r0, lsl #16
    2bf0:	50000100 	andpl	r0, r0, r0, lsl #2
    2bf4:	00000138 	andeq	r0, r0, r8, lsr r1
    2bf8:	0000013c 	andeq	r0, r0, ip, lsr r1
    2bfc:	79700003 	ldmdbvc	r0!, {r0, r1}^
    2c00:	00013c9f 	muleq	r1, pc, ip	; <UNPREDICTABLE>
    2c04:	00016000 	andeq	r6, r1, r0
    2c08:	53000100 	movwpl	r0, #256	; 0x100
    2c0c:	00000160 	andeq	r0, r0, r0, ror #2
    2c10:	00000178 	andeq	r0, r0, r8, ror r1
    2c14:	78500001 	ldmdavc	r0, {r0}^
    2c18:	80000001 	andhi	r0, r0, r1
    2c1c:	04000001 	streq	r0, [r0], #-1
    2c20:	5001f300 	andpl	pc, r1, r0, lsl #6
    2c24:	0001809f 	muleq	r1, pc, r0	; <UNPREDICTABLE>
    2c28:	00019000 	andeq	r9, r1, r0
    2c2c:	53000100 	movwpl	r0, #256	; 0x100
    2c30:	00000190 	muleq	r0, r0, r1
    2c34:	0000019f 	muleq	r0, pc, r1	; <UNPREDICTABLE>
    2c38:	68910002 	ldmvs	r1, {r1}
    2c3c:	0000019f 	muleq	r0, pc, r1	; <UNPREDICTABLE>
    2c40:	000001bc 			; <UNDEFINED> instruction: 0x000001bc
    2c44:	01f30009 	mvnseq	r0, r9
    2c48:	09072350 	stmdbeq	r7, {r4, r6, r8, r9, sp}
    2c4c:	009f1af8 			; <UNDEFINED> instruction: 0x009f1af8
	...
    2c58:	44000000 	strmi	r0, [r0], #-0
    2c5c:	60000001 	andvs	r0, r0, r1
    2c60:	01000001 	tsteq	r0, r1
    2c64:	01805000 	orreq	r5, r0, r0
    2c68:	019c0000 	orrseq	r0, ip, r0
    2c6c:	00010000 	andeq	r0, r1, r0
    2c70:	00000050 	andeq	r0, r0, r0, asr r0
    2c74:	00000000 	andeq	r0, r0, r0
    2c78:	34000300 	strcc	r0, [r0], #-768	; 0xfffffd00
    2c7c:	3c000001 	stccc	0, cr0, [r0], {1}
    2c80:	02000001 	andeq	r0, r0, #1, 0
    2c84:	009f3800 	addseq	r3, pc, r0, lsl #16
    2c88:	00000000 	andeq	r0, r0, r0
    2c8c:	03000000 	movweq	r0, #0
    2c90:	34000000 	strcc	r0, [r0], #-0
    2c94:	38000001 	stmdacc	r0, {r0}
    2c98:	01000001 	tsteq	r0, r1
    2c9c:	01385000 	teqeq	r8, r0
    2ca0:	013c0000 	teqeq	ip, r0
    2ca4:	00030000 	andeq	r0, r3, r0
    2ca8:	009f7970 	addseq	r7, pc, r0, ror r9	; <UNPREDICTABLE>
	...
    2cc0:	00003000 	andeq	r3, r0, r0
    2cc4:	00006000 	andeq	r6, r0, r0
    2cc8:	50000100 	andpl	r0, r0, r0, lsl #2
    2ccc:	00000060 	andeq	r0, r0, r0, rrx
    2cd0:	0000006c 	andeq	r0, r0, ip, rrx
    2cd4:	bc030005 	stclt	0, cr0, [r3], {5}
    2cd8:	6c0000ae 	stcvs	0, cr0, [r0], {174}	; 0xae
    2cdc:	84000000 	strhi	r0, [r0], #-0
    2ce0:	01000000 	mrseq	r0, (UNDEF: 0)
    2ce4:	00845000 	addeq	r5, r4, r0
    2ce8:	008c0000 	addeq	r0, ip, r0
    2cec:	00040000 	andeq	r0, r4, r0
    2cf0:	9f5001f3 	svcls	0x005001f3
    2cf4:	0000008c 	andeq	r0, r0, ip, lsl #1
    2cf8:	000000ac 	andeq	r0, r0, ip, lsr #1
    2cfc:	ac500001 	mrrcge	0, 0, r0, r0, cr1	; <UNPREDICTABLE>
    2d00:	af000000 	svcge	0x00000000
    2d04:	02000000 	andeq	r0, r0, #0, 0
    2d08:	af689100 	svcge	0x00689100
    2d0c:	cc000000 	stcgt	0, cr0, [r0], {-0}
    2d10:	04000000 	streq	r0, [r0], #-0
    2d14:	5001f300 	andpl	pc, r1, r0, lsl #6
    2d18:	0000009f 	muleq	r0, pc, r0	; <UNPREDICTABLE>
	...
    2d28:	00003000 	andeq	r3, r0, r0
    2d2c:	00008000 	andeq	r8, r0, r0
    2d30:	51000100 	mrspl	r0, (UNDEF: 16)
    2d34:	00000080 	andeq	r0, r0, r0, lsl #1
    2d38:	0000008c 	andeq	r0, r0, ip, lsl #1
    2d3c:	01f30004 	mvnseq	r0, r4
    2d40:	008c9f51 	addeq	r9, ip, r1, asr pc
    2d44:	00a80000 	adceq	r0, r8, r0
    2d48:	00010000 	andeq	r0, r1, r0
    2d4c:	0000a851 	andeq	sl, r0, r1, asr r8
    2d50:	0000cc00 	andeq	ip, r0, r0, lsl #24
    2d54:	f3000400 	vshl.u8	d0, d0, d0
    2d58:	009f5101 	addseq	r5, pc, r1, lsl #2
    2d5c:	00000000 	andeq	r0, r0, r0
    2d60:	01000000 	mrseq	r0, (UNDEF: 0)
	...
    2d70:	00003800 	andeq	r3, r0, r0, lsl #16
    2d74:	00006000 	andeq	r6, r0, r0
    2d78:	50000100 	andpl	r0, r0, r0, lsl #2
    2d7c:	00000060 	andeq	r0, r0, r0, rrx
    2d80:	0000006c 	andeq	r0, r0, ip, rrx
    2d84:	bc030005 	stclt	0, cr0, [r3], {5}
    2d88:	6c0000ae 	stcvs	0, cr0, [r0], {174}	; 0xae
    2d8c:	84000000 	strhi	r0, [r0], #-0
    2d90:	01000000 	mrseq	r0, (UNDEF: 0)
    2d94:	00845000 	addeq	r5, r4, r0
    2d98:	008c0000 	addeq	r0, ip, r0
    2d9c:	00040000 	andeq	r0, r4, r0
    2da0:	9f5001f3 	svcls	0x005001f3
    2da4:	0000008c 	andeq	r0, r0, ip, lsl #1
    2da8:	000000ac 	andeq	r0, r0, ip, lsr #1
    2dac:	ac500001 	mrrcge	0, 0, r0, r0, cr1	; <UNPREDICTABLE>
    2db0:	af000000 	svcge	0x00000000
    2db4:	02000000 	andeq	r0, r0, #0, 0
    2db8:	af689100 	svcge	0x00689100
    2dbc:	cc000000 	stcgt	0, cr0, [r0], {-0}
    2dc0:	04000000 	streq	r0, [r0], #-0
    2dc4:	5001f300 	andpl	pc, r1, r0, lsl #6
    2dc8:	0000009f 	muleq	r0, pc, r0	; <UNPREDICTABLE>
	...
    2dd4:	70000000 	andvc	r0, r0, r0
    2dd8:	7c000001 	stcvc	0, cr0, [r0], {1}
    2ddc:	01000001 	tsteq	r0, r1
    2de0:	017c5000 	cmneq	ip, r0
    2de4:	01880000 	orreq	r0, r8, r0
    2de8:	00010000 	andeq	r0, r1, r0
    2dec:	00018854 	andeq	r8, r1, r4, asr r8
    2df0:	00019800 	andeq	r9, r1, r0, lsl #16
    2df4:	f3000400 	vshl.u8	d0, d0, d0
    2df8:	009f5001 	addseq	r5, pc, r1
	...
    2e0c:	00017800 	andeq	r7, r1, r0, lsl #16
    2e10:	00017c00 	andeq	r7, r1, r0, lsl #24
    2e14:	70000b00 	andvc	r0, r0, r0, lsl #22
    2e18:	23253500 			; <UNDEFINED> instruction: 0x23253500
    2e1c:	818080b4 	strhhi	r8, [r0, r4]
    2e20:	017c9f02 	cmneq	ip, r2, lsl #30
    2e24:	01800000 	orreq	r0, r0, r0
    2e28:	000b0000 	andeq	r0, fp, r0
    2e2c:	25350074 	ldrcs	r0, [r5, #-116]!	; 0xffffff8c
    2e30:	8080b423 	addhi	fp, r0, r3, lsr #8
    2e34:	809f0281 	addshi	r0, pc, r1, lsl #5
    2e38:	83000001 	movwhi	r0, #1
    2e3c:	01000001 	tsteq	r0, r1
    2e40:	01835000 	orreq	r5, r3, r0
    2e44:	01880000 	orreq	r0, r8, r0
    2e48:	000b0000 	andeq	r0, fp, r0
    2e4c:	25350074 	ldrcs	r0, [r5, #-116]!	; 0xffffff8c
    2e50:	8080b423 	addhi	fp, r0, r3, lsr #8
    2e54:	889f0281 	ldmhi	pc, {r0, r7, r9}	; <UNPREDICTABLE>
    2e58:	98000001 	stmdals	r0, {r0}
    2e5c:	0c000001 	stceq	0, cr0, [r0], {1}
    2e60:	5001f300 	andpl	pc, r1, r0, lsl #6
    2e64:	b4232535 	strtlt	r2, [r3], #-1333	; 0xfffffacb
    2e68:	02818080 	addeq	r8, r1, #128, 0	; 0x80
    2e6c:	0000009f 	muleq	r0, pc, r0	; <UNPREDICTABLE>
    2e70:	00000000 	andeq	r0, r0, r0
    2e74:	00000100 	andeq	r0, r0, r0, lsl #2
    2e78:	78000000 	stmdavc	r0, {}	; <UNPREDICTABLE>
    2e7c:	7c000001 	stcvc	0, cr0, [r0], {1}
    2e80:	05000001 	streq	r0, [r0, #-1]
    2e84:	4f007000 	svcmi	0x00007000
    2e88:	017c9f1a 	cmneq	ip, sl, lsl pc
    2e8c:	01880000 	orreq	r0, r8, r0
    2e90:	00050000 	andeq	r0, r5, r0
    2e94:	1a4f0074 	bne	13c306c <__bss_end__+0x13b7d6c>
    2e98:	0001889f 	muleq	r1, pc, r8	; <UNPREDICTABLE>
    2e9c:	00019800 	andeq	r9, r1, r0, lsl #16
    2ea0:	54000100 	strpl	r0, [r0], #-256	; 0xffffff00
	...
    2eb8:	00000140 	andeq	r0, r0, r0, asr #2
    2ebc:	00000154 	andeq	r0, r0, r4, asr r1
    2ec0:	54500001 	ldrbpl	r0, [r0], #-1
    2ec4:	58000001 	stmdapl	r0, {r0}
    2ec8:	01000001 	tsteq	r0, r1
    2ecc:	01585100 	cmpeq	r8, r0, lsl #2
    2ed0:	015c0000 	cmpeq	ip, r0
    2ed4:	00040000 	andeq	r0, r4, r0
    2ed8:	9f5001f3 	svcls	0x005001f3
    2edc:	0000015c 	andeq	r0, r0, ip, asr r1
    2ee0:	00000160 	andeq	r0, r0, r0, ror #2
    2ee4:	60500001 	subsvs	r0, r0, r1
    2ee8:	64000001 	strvs	r0, [r0], #-1
    2eec:	01000001 	tsteq	r0, r1
    2ef0:	01645100 	cmneq	r4, r0, lsl #2
    2ef4:	01700000 	cmneq	r0, r0
    2ef8:	00040000 	andeq	r0, r4, r0
    2efc:	9f5001f3 	svcls	0x005001f3
	...
    2f0c:	00000140 	andeq	r0, r0, r0, asr #2
    2f10:	0000014c 	andeq	r0, r0, ip, asr #2
    2f14:	4c510001 	mrrcmi	0, 0, r0, r1, cr1
    2f18:	70000001 	andvc	r0, r0, r1
    2f1c:	04000001 	streq	r0, [r0], #-1
    2f20:	5101f300 	mrspl	pc, SP_irq	; <UNPREDICTABLE>
    2f24:	0000009f 	muleq	r0, pc, r0	; <UNPREDICTABLE>
    2f28:	00000000 	andeq	r0, r0, r0
    2f2c:	00000100 	andeq	r0, r0, r0, lsl #2
    2f30:	50000000 	andpl	r0, r0, r0
    2f34:	54000001 	strpl	r0, [r0], #-1
    2f38:	01000001 	tsteq	r0, r1
    2f3c:	01545000 	cmpeq	r4, r0
    2f40:	01580000 	cmpeq	r8, r0
    2f44:	00010000 	andeq	r0, r1, r0
    2f48:	00015851 	andeq	r5, r1, r1, asr r8
    2f4c:	00015c00 	andeq	r5, r1, r0, lsl #24
    2f50:	f3000400 	vshl.u8	d0, d0, d0
    2f54:	009f5001 	addseq	r5, pc, r1
    2f58:	00000000 	andeq	r0, r0, r0
    2f5c:	02000000 	andeq	r0, r0, #0, 0
    2f60:	00000000 	andeq	r0, r0, r0
    2f64:	00015c00 	andeq	r5, r1, r0, lsl #24
    2f68:	00016000 	andeq	r6, r1, r0
    2f6c:	50000100 	andpl	r0, r0, r0, lsl #2
    2f70:	00000160 	andeq	r0, r0, r0, ror #2
    2f74:	00000164 	andeq	r0, r0, r4, ror #2
    2f78:	64510001 	ldrbvs	r0, [r1], #-1
    2f7c:	70000001 	andvc	r0, r0, r1
    2f80:	04000001 	streq	r0, [r0], #-1
    2f84:	5001f300 	andpl	pc, r1, r0, lsl #6
    2f88:	0000009f 	muleq	r0, pc, r0	; <UNPREDICTABLE>
	...
    2f94:	e8000000 	stmda	r0, {}	; <UNPREDICTABLE>
    2f98:	08000000 	stmdaeq	r0, {}	; <UNPREDICTABLE>
    2f9c:	01000001 	tsteq	r0, r1
    2fa0:	01085000 	mrseq	r5, (UNDEF: 8)
    2fa4:	01280000 			; <UNDEFINED> instruction: 0x01280000
    2fa8:	00010000 	andeq	r0, r1, r0
    2fac:	00012854 	andeq	r2, r1, r4, asr r8
    2fb0:	00014000 	andeq	r4, r1, r0
    2fb4:	f3000400 	vshl.u8	d0, d0, d0
    2fb8:	009f5001 	addseq	r5, pc, r1
    2fbc:	00000000 	andeq	r0, r0, r0
    2fc0:	02000000 	andeq	r0, r0, #0, 0
    2fc4:	00000000 	andeq	r0, r0, r0
    2fc8:	0000e800 	andeq	lr, r0, r0, lsl #16
    2fcc:	00010800 	andeq	r0, r1, r0, lsl #16
    2fd0:	50000100 	andpl	r0, r0, r0, lsl #2
    2fd4:	00000108 	andeq	r0, r0, r8, lsl #2
    2fd8:	00000128 	andeq	r0, r0, r8, lsr #2
    2fdc:	28540001 	ldmdacs	r4, {r0}^
    2fe0:	40000001 	andmi	r0, r0, r1
    2fe4:	04000001 	streq	r0, [r0], #-1
    2fe8:	5001f300 	andpl	pc, r1, r0, lsl #6
    2fec:	0000009f 	muleq	r0, pc, r0	; <UNPREDICTABLE>
	...
    2ff8:	f0000000 			; <UNDEFINED> instruction: 0xf0000000
    2ffc:	08000000 	stmdaeq	r0, {}	; <UNPREDICTABLE>
    3000:	01000001 	tsteq	r0, r1
    3004:	01085000 	mrseq	r5, (UNDEF: 8)
    3008:	01280000 			; <UNDEFINED> instruction: 0x01280000
    300c:	00010000 	andeq	r0, r1, r0
    3010:	00012854 	andeq	r2, r1, r4, asr r8
    3014:	00014000 	andeq	r4, r1, r0
    3018:	f3000400 	vshl.u8	d0, d0, d0
    301c:	009f5001 	addseq	r5, pc, r1
    3020:	00000000 	andeq	r0, r0, r0
    3024:	03000000 	movweq	r0, #0
    3028:	00000000 	andeq	r0, r0, r0
    302c:	0000f000 	andeq	pc, r0, r0
    3030:	00010800 	andeq	r0, r1, r0, lsl #16
    3034:	70000700 	andvc	r0, r0, r0, lsl #14
    3038:	331d3a00 	tstcc	sp, #0, 20
    303c:	01089f1e 	tsteq	r8, lr, lsl pc
    3040:	01280000 			; <UNDEFINED> instruction: 0x01280000
    3044:	00070000 	andeq	r0, r7, r0
    3048:	1d3a0074 	ldcne	0, cr0, [sl, #-464]!	; 0xfffffe30
    304c:	289f1e33 	ldmcs	pc, {r0, r1, r4, r5, r9, sl, fp, ip}	; <UNPREDICTABLE>
    3050:	40000001 	andmi	r0, r0, r1
    3054:	08000001 	stmdaeq	r0, {r0}
    3058:	5001f300 	andpl	pc, r1, r0, lsl #6
    305c:	1e331d3a 	mrcne	13, 1, r1, cr3, cr10, {1}
    3060:	0000009f 	muleq	r0, pc, r0	; <UNPREDICTABLE>
	...
    306c:	10000000 	andne	r0, r0, r0
    3070:	38000001 	stmdacc	r0, {r0}
    3074:	01000001 	tsteq	r0, r1
    3078:	01385600 	teqeq	r8, r0, lsl #12
    307c:	013b0000 	teqeq	fp, r0
    3080:	00010000 	andeq	r0, r1, r0
    3084:	00013b50 	andeq	r3, r1, r0, asr fp
    3088:	00014000 	andeq	r4, r1, r0
    308c:	f3002600 	vmax.u8	d2, d0, d0
    3090:	2cf75001 	ldclcs	0, cr5, [r7], #4
    3094:	25f425f7 	ldrbcs	r2, [r4, #1527]!	; 0x5f7
    3098:	cccccd08 	stclgt	13, cr12, [ip], {8}
    309c:	000000cc 	andeq	r0, r0, ip, asr #1
    30a0:	20081e00 	andcs	r1, r8, r0, lsl #28
    30a4:	f72525f7 			; <UNDEFINED> instruction: 0xf72525f7
    30a8:	3300f72c 	movwcc	pc, #1836	; 0x72c	; <UNPREDICTABLE>
    30ac:	80802325 	addhi	r2, r0, r5, lsr #6
    30b0:	243240a0 	ldrtcs	r4, [r2], #-160	; 0xffffff60
    30b4:	0000009f 	muleq	r0, pc, r0	; <UNPREDICTABLE>
    30b8:	00000000 	andeq	r0, r0, r0
    30bc:	01010000 	mrseq	r0, (UNDEF: 1)
    30c0:	00000000 	andeq	r0, r0, r0
    30c4:	00012000 	andeq	r2, r1, r0
    30c8:	00012000 	andeq	r2, r1, r0
    30cc:	50000100 	andpl	r0, r0, r0, lsl #2
    30d0:	00000120 	andeq	r0, r0, r0, lsr #2
    30d4:	00000128 	andeq	r0, r0, r8, lsr #2
    30d8:	7437000d 	ldrtvc	r0, [r7], #-13
    30dc:	331d3a00 	tstcc	sp, #0, 20
    30e0:	7020241e 	eorvc	r2, r0, lr, lsl r4
    30e4:	289f1a00 	ldmcs	pc, {r9, fp, ip}	; <UNPREDICTABLE>
    30e8:	30000001 	andcc	r0, r0, r1
    30ec:	0e000001 	cdpeq	0, 0, cr0, cr0, cr1, {0}
    30f0:	01f33700 	mvnseq	r3, r0, lsl #14
    30f4:	331d3a50 	tstcc	sp, #80, 20	; 0x50000
    30f8:	7020241e 	eorvc	r2, r0, lr, lsl r4
    30fc:	309f1a00 	addscc	r1, pc, r0, lsl #20
    3100:	3b000001 	blcc	310c <__code_start__-0x4ef4>
    3104:	0e000001 	cdpeq	0, 0, cr0, cr0, cr1, {0}
    3108:	01f33700 	mvnseq	r3, r0, lsl #14
    310c:	331d3a50 	tstcc	sp, #80, 20	; 0x50000
    3110:	7320241e 			; <UNDEFINED> instruction: 0x7320241e
    3114:	009f1a00 	addseq	r1, pc, r0, lsl #20
	...
    3120:	60000000 	andvs	r0, r0, r0
    3124:	90000000 	andls	r0, r0, r0
    3128:	01000000 	mrseq	r0, (UNDEF: 0)
    312c:	00905000 	addseq	r5, r0, r0
    3130:	00b80000 	adcseq	r0, r8, r0
    3134:	00040000 	andeq	r0, r4, r0
    3138:	9f5001f3 	svcls	0x005001f3
	...
    3144:	00000002 	andeq	r0, r0, r2
    3148:	00000060 	andeq	r0, r0, r0, rrx
    314c:	00000090 	muleq	r0, r0, r0
    3150:	90500001 	subsls	r0, r0, r1
    3154:	b8000000 	stmdalt	r0, {}	; <UNPREDICTABLE>
    3158:	04000000 	streq	r0, [r0], #-0
    315c:	5001f300 	andpl	pc, r1, r0, lsl #6
    3160:	0000009f 	muleq	r0, pc, r0	; <UNPREDICTABLE>
	...
    316c:	00006800 	andeq	r6, r0, r0, lsl #16
    3170:	00009000 	andeq	r9, r0, r0
    3174:	50000100 	andpl	r0, r0, r0, lsl #2
    3178:	00000090 	muleq	r0, r0, r0
    317c:	000000b8 	strheq	r0, [r0], -r8
    3180:	01f30004 	mvnseq	r0, r4
    3184:	00009f50 	andeq	r9, r0, r0, asr pc
	...
    3190:	00a00000 	adceq	r0, r0, r0
    3194:	00b00000 	adcseq	r0, r0, r0
    3198:	00010000 	andeq	r0, r1, r0
    319c:	0000b054 	andeq	fp, r0, r4, asr r0
    31a0:	0000b800 	andeq	fp, r0, r0, lsl #16
    31a4:	f3002900 	vmls.i8	d2, d0, d0
    31a8:	01f35001 	mvnseq	r5, r1
    31ac:	f72cf750 			; <UNDEFINED> instruction: 0xf72cf750
    31b0:	0825f425 	stmdaeq	r5!, {r0, r2, r5, sl, ip, sp, lr, pc}
    31b4:	cccccccd 	stclgt	12, cr12, [ip], {205}	; 0xcd
    31b8:	00000000 	andeq	r0, r0, r0
    31bc:	f720081e 			; <UNDEFINED> instruction: 0xf720081e
    31c0:	2cf72525 	cfldr64cs	mvdx2, [r7], #148	; 0x94
    31c4:	253300f7 	ldrcs	r0, [r3, #-247]!	; 0xffffff09
    31c8:	24311e35 	ldrtcs	r1, [r1], #-3637	; 0xfffff1cb
    31cc:	9f1e331c 	svcls	0x001e331c
	...
    31d8:	00000001 	andeq	r0, r0, r1
    31dc:	00a00000 	adceq	r0, r0, r0
    31e0:	00b00000 	adcseq	r0, r0, r0
    31e4:	00010000 	andeq	r0, r1, r0
    31e8:	0000b055 	andeq	fp, r0, r5, asr r0
    31ec:	0000b300 	andeq	fp, r0, r0, lsl #6
    31f0:	50000100 	andpl	r0, r0, r0, lsl #2
    31f4:	000000b3 	strheq	r0, [r0], -r3
    31f8:	000000b8 	strheq	r0, [r0], -r8
    31fc:	01f30026 	mvnseq	r0, r6, lsr #32
    3200:	f72cf750 			; <UNDEFINED> instruction: 0xf72cf750
    3204:	0825f425 	stmdaeq	r5!, {r0, r2, r5, sl, ip, sp, lr, pc}
    3208:	cccccccd 	stclgt	12, cr12, [ip], {205}	; 0xcd
    320c:	00000000 	andeq	r0, r0, r0
    3210:	f720081e 			; <UNDEFINED> instruction: 0xf720081e
    3214:	2cf72525 	cfldr64cs	mvdx2, [r7], #148	; 0x94
    3218:	253300f7 	ldrcs	r0, [r3, #-247]!	; 0xffffff09
    321c:	a0808023 	addge	r8, r0, r3, lsr #32
    3220:	9f243240 	svcls	0x00243240
	...
    322c:	01000002 	tsteq	r0, r2
    3230:	00000001 	andeq	r0, r0, r1
    3234:	000000a0 	andeq	r0, r0, r0, lsr #1
    3238:	000000a4 	andeq	r0, r0, r4, lsr #1
    323c:	a4500001 	ldrbge	r0, [r0], #-1
    3240:	a4000000 	strge	r0, [r0], #-0
    3244:	01000000 	mrseq	r0, (UNDEF: 0)
    3248:	00a45300 	adceq	r5, r4, r0, lsl #6
    324c:	00a80000 	adceq	r0, r8, r0
    3250:	00080000 	andeq	r0, r8, r0
    3254:	24007431 	strcs	r7, [r0], #-1073	; 0xfffffbcf
    3258:	9f210073 	svcls	0x00210073
    325c:	000000a8 	andeq	r0, r0, r8, lsr #1
    3260:	000000b3 	strheq	r0, [r0], -r3
    3264:	00510001 	subseq	r0, r1, r1
	...
    3274:	3c000000 	stccc	0, cr0, [r0], {-0}
    3278:	01000000 	mrseq	r0, (UNDEF: 0)
    327c:	003c5000 	eorseq	r5, ip, r0
    3280:	00600000 	rsbeq	r0, r0, r0
    3284:	00040000 	andeq	r0, r4, r0
    3288:	9f5001f3 	svcls	0x005001f3
	...
    329c:	0000003f 	andeq	r0, r0, pc, lsr r0
    32a0:	3f510001 	svccc	0x00510001
    32a4:	60000000 	andvs	r0, r0, r0
    32a8:	04000000 	streq	r0, [r0], #-0
    32ac:	5101f300 	mrspl	pc, SP_irq	; <UNPREDICTABLE>
    32b0:	0000009f 	muleq	r0, pc, r0	; <UNPREDICTABLE>
	...
    32bc:	00000800 	andeq	r0, r0, r0, lsl #16
    32c0:	00003f00 	andeq	r3, r0, r0, lsl #30
    32c4:	51000100 	mrspl	r0, (UNDEF: 16)
    32c8:	0000003f 	andeq	r0, r0, pc, lsr r0
    32cc:	00000060 	andeq	r0, r0, r0, rrx
    32d0:	01f30004 	mvnseq	r0, r4
    32d4:	00009f51 	andeq	r9, r0, r1, asr pc
	...
    32e0:	00080000 	andeq	r0, r8, r0
    32e4:	003c0000 	eorseq	r0, ip, r0
    32e8:	00010000 	andeq	r0, r1, r0
    32ec:	00003c50 	andeq	r3, r0, r0, asr ip
    32f0:	00006000 	andeq	r6, r0, r0
    32f4:	f3000400 	vshl.u8	d0, d0, d0
    32f8:	009f5001 	addseq	r5, pc, r1
	...
    3304:	48000000 	stmdami	r0, {}	; <UNPREDICTABLE>
    3308:	58000000 	stmdapl	r0, {}	; <UNPREDICTABLE>
    330c:	01000000 	mrseq	r0, (UNDEF: 0)
    3310:	00585400 	subseq	r5, r8, r0, lsl #8
    3314:	00600000 	rsbeq	r0, r0, r0
    3318:	00290000 	eoreq	r0, r9, r0
    331c:	f35001f3 	vbsl	q8, q8, <illegal reg q9.5>
    3320:	2cf75001 	ldclcs	0, cr5, [r7], #4
    3324:	25f425f7 	ldrbcs	r2, [r4, #1527]!	; 0x5f7
    3328:	cccccd08 	stclgt	13, cr12, [ip], {8}
    332c:	000000cc 	andeq	r0, r0, ip, asr #1
    3330:	20081e00 	andcs	r1, r8, r0, lsl #28
    3334:	f72525f7 			; <UNDEFINED> instruction: 0xf72525f7
    3338:	3300f72c 	movwcc	pc, #1836	; 0x72c	; <UNPREDICTABLE>
    333c:	311e3525 	tstcc	lr, r5, lsr #10
    3340:	1e331c24 	cdpne	12, 3, cr1, cr3, cr4, {1}
    3344:	0000009f 	muleq	r0, pc, r0	; <UNPREDICTABLE>
    3348:	00000000 	andeq	r0, r0, r0
    334c:	00000100 	andeq	r0, r0, r0, lsl #2
    3350:	48000000 	stmdami	r0, {}	; <UNPREDICTABLE>
    3354:	58000000 	stmdapl	r0, {}	; <UNPREDICTABLE>
    3358:	01000000 	mrseq	r0, (UNDEF: 0)
    335c:	00585600 	subseq	r5, r8, r0, lsl #12
    3360:	005b0000 	subseq	r0, fp, r0
    3364:	00010000 	andeq	r0, r1, r0
    3368:	00005b50 	andeq	r5, r0, r0, asr fp
    336c:	00006000 	andeq	r6, r0, r0
    3370:	f3002600 	vmax.u8	d2, d0, d0
    3374:	2cf75001 	ldclcs	0, cr5, [r7], #4
    3378:	25f425f7 	ldrbcs	r2, [r4, #1527]!	; 0x5f7
    337c:	cccccd08 	stclgt	13, cr12, [ip], {8}
    3380:	000000cc 	andeq	r0, r0, ip, asr #1
    3384:	20081e00 	andcs	r1, r8, r0, lsl #28
    3388:	f72525f7 			; <UNDEFINED> instruction: 0xf72525f7
    338c:	3300f72c 	movwcc	pc, #1836	; 0x72c	; <UNPREDICTABLE>
    3390:	80802325 	addhi	r2, r0, r5, lsr #6
    3394:	243240a0 	ldrtcs	r4, [r2], #-160	; 0xffffff60
    3398:	0000009f 	muleq	r0, pc, r0	; <UNPREDICTABLE>
    339c:	00000000 	andeq	r0, r0, r0
    33a0:	00000200 	andeq	r0, r0, r0, lsl #4
    33a4:	00000101 	andeq	r0, r0, r1, lsl #2
    33a8:	00004800 	andeq	r4, r0, r0, lsl #16
    33ac:	00004c00 	andeq	r4, r0, r0, lsl #24
    33b0:	50000100 	andpl	r0, r0, r0, lsl #2
    33b4:	0000004c 	andeq	r0, r0, ip, asr #32
    33b8:	0000004c 	andeq	r0, r0, ip, asr #32
    33bc:	4c510001 	mrrcmi	0, 0, r0, r1, cr1
    33c0:	50000000 	andpl	r0, r0, r0
    33c4:	0c000000 	stceq	0, cr0, [r0], {-0}
    33c8:	08007500 	stmdaeq	r0, {r8, sl, ip, sp, lr}
    33cc:	00741aff 	ldrshteq	r1, [r4], #-175	; 0xffffff51
    33d0:	21007124 	tstcs	r0, r4, lsr #2
    33d4:	0000509f 	muleq	r0, pc, r0	; <UNPREDICTABLE>
    33d8:	00005400 	andeq	r5, r0, r0, lsl #8
    33dc:	37001200 	strcc	r1, [r0, -r0, lsl #4]
    33e0:	20240074 	eorcs	r0, r4, r4, ror r0
    33e4:	751a0070 	ldrvc	r0, [sl, #-112]	; 0xffffff90
    33e8:	1aff0800 	bne	fffc53f0 <__bss_end__+0xfffba0f0>
    33ec:	21240074 			; <UNDEFINED> instruction: 0x21240074
    33f0:	0000009f 	muleq	r0, pc, r0	; <UNPREDICTABLE>
	...
    33fc:	b8000000 	stmdalt	r0, {}	; <UNPREDICTABLE>
    3400:	c4000000 	strgt	r0, [r0], #-0
    3404:	01000000 	mrseq	r0, (UNDEF: 0)
    3408:	00c45000 	sbceq	r5, r4, r0
    340c:	00cb0000 	sbceq	r0, fp, r0
    3410:	00010000 	andeq	r0, r1, r0
    3414:	0000cb53 	andeq	ip, r0, r3, asr fp
    3418:	0000d000 	andeq	sp, r0, r0
    341c:	f3000400 	vshl.u8	d0, d0, d0
    3420:	009f5001 	addseq	r5, pc, r1
	...
    3430:	0000d000 	andeq	sp, r0, r0
    3434:	0000dc00 	andeq	sp, r0, r0, lsl #24
    3438:	50000100 	andpl	r0, r0, r0, lsl #2
    343c:	000000dc 	ldrdeq	r0, [r0], -ip
    3440:	000000e3 	andeq	r0, r0, r3, ror #1
    3444:	e3530001 	cmp	r3, #1, 0
    3448:	e8000000 	stmda	r0, {}	; <UNPREDICTABLE>
    344c:	04000000 	streq	r0, [r0], #-0
    3450:	5001f300 	andpl	pc, r1, r0, lsl #6
    3454:	0000009f 	muleq	r0, pc, r0	; <UNPREDICTABLE>
	...
    3464:	00000b00 	andeq	r0, r0, r0, lsl #22
    3468:	50000100 	andpl	r0, r0, r0, lsl #2
    346c:	0000000b 	andeq	r0, r0, fp
    3470:	00000014 	andeq	r0, r0, r4, lsl r0
    3474:	00540001 	subseq	r0, r4, r1
	...
    3484:	18000000 	stmdane	r0, {}	; <UNPREDICTABLE>
    3488:	01000000 	mrseq	r0, (UNDEF: 0)
    348c:	00185100 	andseq	r5, r8, r0, lsl #2
    3490:	002c0000 	eoreq	r0, ip, r0
    3494:	00040000 	andeq	r0, r4, r0
    3498:	9f5101f3 	svcls	0x005101f3
	...
    34a4:	00000002 	andeq	r0, r0, r2
    34a8:	00000000 	andeq	r0, r0, r0
    34ac:	00010100 	andeq	r0, r1, r0, lsl #2
    34b0:	00000000 	andeq	r0, r0, r0
    34b4:	00040000 	andeq	r0, r4, r0
    34b8:	00010000 	andeq	r0, r1, r0
    34bc:	00000450 	andeq	r0, r0, r0, asr r4
    34c0:	00000800 	andeq	r0, r0, r0, lsl #16
    34c4:	52000100 	andpl	r0, r0, #0
    34c8:	00000008 	andeq	r0, r0, r8
    34cc:	0000000c 	andeq	r0, r0, ip
    34d0:	01720003 	cmneq	r2, r3
    34d4:	00000c9f 	muleq	r0, pc, ip	; <UNPREDICTABLE>
    34d8:	00001800 	andeq	r1, r0, r0, lsl #16
    34dc:	52000100 	andpl	r0, r0, #0
    34e0:	00000018 	andeq	r0, r0, r8, lsl r0
    34e4:	0000001c 	andeq	r0, r0, ip, lsl r0
    34e8:	1c530001 	mrrcne	0, 0, r0, r3, cr1
    34ec:	24000000 	strcs	r0, [r0], #-0
    34f0:	03000000 	movweq	r0, #0
    34f4:	9f017300 	svcls	0x00017300
    34f8:	00000024 	andeq	r0, r0, r4, lsr #32
    34fc:	0000002c 	andeq	r0, r0, ip, lsr #32
    3500:	00530001 	subseq	r0, r3, r1
    3504:	00000000 	andeq	r0, r0, r0
    3508:	03000000 	movweq	r0, #0
    350c:	00000202 	andeq	r0, r0, r2, lsl #4
    3510:	00000000 	andeq	r0, r0, r0
    3514:	00001800 	andeq	r1, r0, r0, lsl #16
    3518:	51000100 	mrspl	r0, (UNDEF: 16)
    351c:	00000018 	andeq	r0, r0, r8, lsl r0
    3520:	0000001c 	andeq	r0, r0, ip, lsl r0
    3524:	01710003 	cmneq	r1, r3
    3528:	00001c9f 	muleq	r0, pc, ip	; <UNPREDICTABLE>
    352c:	00002c00 	andeq	r2, r0, r0, lsl #24
    3530:	51000100 	mrspl	r0, (UNDEF: 16)
	...
    3540:	00080000 	andeq	r0, r8, r0
    3544:	000c0000 	andeq	r0, ip, r0
    3548:	00020000 	andeq	r0, r2, r0
    354c:	000c0072 	andeq	r0, ip, r2, ror r0
    3550:	00180000 	andseq	r0, r8, r0
    3554:	00020000 	andeq	r0, r2, r0
    3558:	001c0073 	andseq	r0, ip, r3, ror r0
    355c:	002c0000 	eoreq	r0, ip, r0
    3560:	00010000 	andeq	r0, r1, r0
    3564:	00000052 	andeq	r0, r0, r2, asr r0
	...
    357c:	00001400 	andeq	r1, r0, r0, lsl #8
    3580:	50000100 	andpl	r0, r0, r0, lsl #2
    3584:	00000014 	andeq	r0, r0, r4, lsl r0
    3588:	00000018 	andeq	r0, r0, r8, lsl r0
    358c:	01700003 	cmneq	r0, r3
    3590:	0000189f 	muleq	r0, pc, r8	; <UNPREDICTABLE>
    3594:	00002000 	andeq	r2, r0, r0
    3598:	50000100 	andpl	r0, r0, r0, lsl #2
    359c:	00000024 	andeq	r0, r0, r4, lsr #32
    35a0:	00000028 	andeq	r0, r0, r8, lsr #32
    35a4:	28500001 	ldmdacs	r0, {r0}^
    35a8:	30000000 	andcc	r0, r0, r0
    35ac:	03000000 	movweq	r0, #0
    35b0:	9f017000 	svcls	0x00017000
    35b4:	00000038 	andeq	r0, r0, r8, lsr r0
    35b8:	00000040 	andeq	r0, r0, r0, asr #32
    35bc:	00500001 	subseq	r0, r0, r1
	...
    35d0:	00002400 	andeq	r2, r0, r0, lsl #8
    35d4:	51000100 	mrspl	r0, (UNDEF: 16)
    35d8:	00000024 	andeq	r0, r0, r4, lsr #32
    35dc:	00000028 	andeq	r0, r0, r8, lsr #32
    35e0:	285c0001 	ldmdacs	ip, {r0}^
    35e4:	44000000 	strmi	r0, [r0], #-0
    35e8:	01000000 	mrseq	r0, (UNDEF: 0)
    35ec:	00005100 	andeq	r5, r0, r0, lsl #2
    35f0:	00000000 	andeq	r0, r0, r0
    35f4:	02000000 	andeq	r0, r0, #0, 0
    35f8:	00000002 	andeq	r0, r0, r2
    35fc:	00000000 	andeq	r0, r0, r0
    3600:	00000004 	andeq	r0, r0, r4
    3604:	04510001 	ldrbeq	r0, [r1], #-1
    3608:	08000000 	stmdaeq	r0, {}	; <UNPREDICTABLE>
    360c:	03000000 	movweq	r0, #0
    3610:	9f017100 	svcls	0x00017100
    3614:	00000008 	andeq	r0, r0, r8
    3618:	00000018 	andeq	r0, r0, r8, lsl r0
    361c:	00510001 	subseq	r0, r1, r1
    3620:	00000000 	andeq	r0, r0, r0
    3624:	02000000 	andeq	r0, r0, #0, 0
    3628:	00000000 	andeq	r0, r0, r0
    362c:	00000400 	andeq	r0, r0, r0, lsl #8
    3630:	50000100 	andpl	r0, r0, r0, lsl #2
	...
    3644:	00000008 	andeq	r0, r0, r8
    3648:	08500001 	ldmdaeq	r0, {r0}^
    364c:	30000000 	andcc	r0, r0, r0
    3650:	04000000 	streq	r0, [r0], #-0
    3654:	5001f300 	andpl	pc, r1, r0, lsl #6
    3658:	0000009f 	muleq	r0, pc, r0	; <UNPREDICTABLE>
	...
    3668:	00000800 	andeq	r0, r0, r0, lsl #16
    366c:	51000100 	mrspl	r0, (UNDEF: 16)
    3670:	00000008 	andeq	r0, r0, r8
    3674:	00000030 	andeq	r0, r0, r0, lsr r0
    3678:	01f30004 	mvnseq	r0, r4
    367c:	00009f51 	andeq	r9, r0, r1, asr pc
	...
    368c:	00020201 	andeq	r0, r2, r1, lsl #4
    3690:	00000000 	andeq	r0, r0, r0
    3694:	00000004 	andeq	r0, r0, r4
    3698:	04520001 	ldrbeq	r0, [r2], #-1
    369c:	08000000 	stmdaeq	r0, {}	; <UNPREDICTABLE>
    36a0:	04000000 	streq	r0, [r0], #-0
    36a4:	5201f300 	andpl	pc, r1, #0, 6
    36a8:	0000089f 	muleq	r0, pc, r8	; <UNPREDICTABLE>
    36ac:	00001800 	andeq	r1, r0, r0, lsl #16
    36b0:	f3000600 	vmax.u8	d0, d0, d0
    36b4:	1c315201 	lfmne	f5, 4, [r1], #-4
    36b8:	0000189f 	muleq	r0, pc, r8	; <UNPREDICTABLE>
    36bc:	00001800 	andeq	r1, r0, r0, lsl #16
    36c0:	f3000400 	vshl.u8	d0, d0, d0
    36c4:	189f5201 	ldmne	pc, {r0, r9, ip, lr}	; <UNPREDICTABLE>
    36c8:	30000000 	andcc	r0, r0, r0
    36cc:	06000000 	streq	r0, [r0], -r0
    36d0:	5201f300 	andpl	pc, r1, #0, 6
    36d4:	009f1c31 	addseq	r1, pc, r1, lsr ip	; <UNPREDICTABLE>
    36d8:	00000000 	andeq	r0, r0, r0
    36dc:	02000000 	andeq	r0, r0, #0, 0
    36e0:	01000000 	mrseq	r0, (UNDEF: 0)
    36e4:	00000000 	andeq	r0, r0, r0
    36e8:	0c000000 	stceq	0, cr0, [r0], {-0}
    36ec:	01000000 	mrseq	r0, (UNDEF: 0)
    36f0:	000c5000 	andeq	r5, ip, r0
    36f4:	00180000 	andseq	r0, r8, r0
    36f8:	00030000 	andeq	r0, r3, r0
    36fc:	189f7f70 	ldmne	pc, {r4, r5, r6, r8, r9, sl, fp, ip, sp, lr}	; <UNPREDICTABLE>
    3700:	24000000 	strcs	r0, [r0], #-0
    3704:	01000000 	mrseq	r0, (UNDEF: 0)
    3708:	00285000 	eoreq	r5, r8, r0
    370c:	002c0000 	eoreq	r0, ip, r0
    3710:	00030000 	andeq	r0, r3, r0
    3714:	009f7f70 	addseq	r7, pc, r0, ror pc	; <UNPREDICTABLE>
    3718:	00000000 	andeq	r0, r0, r0
    371c:	02000000 	andeq	r0, r0, #0, 0
	...
    3728:	00000c00 	andeq	r0, r0, r0, lsl #24
    372c:	51000100 	mrspl	r0, (UNDEF: 16)
    3730:	0000000c 	andeq	r0, r0, ip
    3734:	00000010 	andeq	r0, r0, r0, lsl r0
    3738:	01710003 	cmneq	r1, r3
    373c:	0000109f 	muleq	r0, pc, r0	; <UNPREDICTABLE>
    3740:	00003000 	andeq	r3, r0, r0
    3744:	51000100 	mrspl	r0, (UNDEF: 16)
	...

Disassembly of section .debug_aranges:

00000000 <.debug_aranges>:
   0:	0000001c 	andeq	r0, r0, ip, lsl r0
   4:	00000002 	andeq	r0, r0, r2
   8:	00040000 	andeq	r0, r4, r0
   c:	00000000 	andeq	r0, r0, r0
  10:	00008038 	andeq	r8, r0, r8, lsr r0
  14:	000000ac 	andeq	r0, r0, ip, lsr #1
	...
  20:	0000001c 	andeq	r0, r0, ip, lsl r0
  24:	02e90002 	rsceq	r0, r9, #2, 0
  28:	00040000 	andeq	r0, r4, r0
  2c:	00000000 	andeq	r0, r0, r0
  30:	000080e4 	andeq	r8, r0, r4, ror #1
  34:	00000434 	andeq	r0, r0, r4, lsr r4
	...
  40:	0000001c 	andeq	r0, r0, ip, lsl r0
  44:	0b3f0002 	bleq	fc0054 <__bss_end__+0xfb4d54>
  48:	00040000 	andeq	r0, r4, r0
  4c:	00000000 	andeq	r0, r0, r0
  50:	00008518 	andeq	r8, r0, r8, lsl r5
  54:	00000200 	andeq	r0, r0, r0, lsl #4
	...
  60:	0000001c 	andeq	r0, r0, ip, lsl r0
  64:	0e2f0002 	cdpeq	0, 2, cr0, cr15, cr2, {0}
  68:	00040000 	andeq	r0, r4, r0
  6c:	00000000 	andeq	r0, r0, r0
  70:	00008718 	andeq	r8, r0, r8, lsl r7
  74:	00000800 	andeq	r0, r0, r0, lsl #16
	...
  80:	0000001c 	andeq	r0, r0, ip, lsl r0
  84:	1d0c0002 	stcne	0, cr0, [ip, #-8]
  88:	00040000 	andeq	r0, r4, r0
  8c:	00000000 	andeq	r0, r0, r0
  90:	00008f20 	andeq	r8, r0, r0, lsr #30
  94:	000000a0 	andeq	r0, r0, r0, lsr #1
	...
  a0:	0000001c 	andeq	r0, r0, ip, lsl r0
  a4:	1f260002 	svcne	0x00260002
  a8:	00040000 	andeq	r0, r4, r0
  ac:	00000000 	andeq	r0, r0, r0
  b0:	00008fc0 	andeq	r8, r0, r0, asr #31
  b4:	00000078 	andeq	r0, r0, r8, ror r0
	...
  c0:	0000001c 	andeq	r0, r0, ip, lsl r0
  c4:	206a0002 	rsbcs	r0, sl, r2
  c8:	00040000 	andeq	r0, r4, r0
  cc:	00000000 	andeq	r0, r0, r0
  d0:	00009038 	andeq	r9, r0, r8, lsr r0
  d4:	00000058 	andeq	r0, r0, r8, asr r0
	...
  e0:	0000001c 	andeq	r0, r0, ip, lsl r0
  e4:	220b0002 	andcs	r0, fp, #2, 0
  e8:	00040000 	andeq	r0, r4, r0
  ec:	00000000 	andeq	r0, r0, r0
  f0:	00009090 	muleq	r0, r0, r0
  f4:	00000038 	andeq	r0, r0, r8, lsr r0
	...
 100:	0000001c 	andeq	r0, r0, ip, lsl r0
 104:	23020002 	movwcs	r0, #8194	; 0x2002
 108:	00040000 	andeq	r0, r4, r0
 10c:	00000000 	andeq	r0, r0, r0
 110:	000090c8 	andeq	r9, r0, r8, asr #1
 114:	000009b4 			; <UNDEFINED> instruction: 0x000009b4
	...
 120:	0000001c 	andeq	r0, r0, ip, lsl r0
 124:	2f850002 	svccs	0x00850002
 128:	00040000 	andeq	r0, r4, r0
 12c:	00000000 	andeq	r0, r0, r0
 130:	00009a7c 	andeq	r9, r0, ip, ror sl
 134:	0000002c 	andeq	r0, r0, ip, lsr #32
	...
 140:	0000001c 	andeq	r0, r0, ip, lsl r0
 144:	30b80002 	adcscc	r0, r8, r2
 148:	00040000 	andeq	r0, r4, r0
 14c:	00000000 	andeq	r0, r0, r0
 150:	00009aa8 	andeq	r9, r0, r8, lsr #21
 154:	00000128 	andeq	r0, r0, r8, lsr #2
	...
 160:	0000001c 	andeq	r0, r0, ip, lsl r0
 164:	336d0002 	cmncc	sp, #2, 0
 168:	00040000 	andeq	r0, r4, r0
 16c:	00000000 	andeq	r0, r0, r0
 170:	00009bd0 	ldrdeq	r9, [r0], -r0
 174:	00000004 	andeq	r0, r0, r4
	...
 180:	0000001c 	andeq	r0, r0, ip, lsl r0
 184:	343f0002 	ldrtcc	r0, [pc], #-2	; 18c <__code_start__-0x7e74>
 188:	00040000 	andeq	r0, r4, r0
 18c:	00000000 	andeq	r0, r0, r0
 190:	00009bd4 	ldrdeq	r9, [r0], -r4
 194:	0000008c 	andeq	r0, r0, ip, lsl #1
	...
 1a0:	0000001c 	andeq	r0, r0, ip, lsl r0
 1a4:	36c00002 	strbcc	r0, [r0], r2
 1a8:	00040000 	andeq	r0, r4, r0
 1ac:	00000000 	andeq	r0, r0, r0
 1b0:	00009c60 	andeq	r9, r0, r0, ror #24
 1b4:	0000011c 	andeq	r0, r0, ip, lsl r1
	...
 1c0:	0000001c 	andeq	r0, r0, ip, lsl r0
 1c4:	3c030002 	stccc	0, cr0, [r3], {2}
 1c8:	00040000 	andeq	r0, r4, r0
 1cc:	00000000 	andeq	r0, r0, r0
 1d0:	00009d7c 	andeq	r9, r0, ip, ror sp
 1d4:	000001f0 	strdeq	r0, [r0], -r0	; <UNPREDICTABLE>
	...
 1e0:	0000001c 	andeq	r0, r0, ip, lsl r0
 1e4:	41d40002 	bicsmi	r0, r4, r2
 1e8:	00040000 	andeq	r0, r4, r0
 1ec:	00000000 	andeq	r0, r0, r0
 1f0:	00009f6c 	andeq	r9, r0, ip, ror #30
 1f4:	000003b0 			; <UNDEFINED> instruction: 0x000003b0
	...
 200:	0000001c 	andeq	r0, r0, ip, lsl r0
 204:	4ac10002 	bmi	ff040214 <__bss_end__+0xff034f14>
 208:	00040000 	andeq	r0, r4, r0
 20c:	00000000 	andeq	r0, r0, r0
 210:	0000a31c 	andeq	sl, r0, ip, lsl r3
 214:	00000198 	muleq	r0, r8, r1
	...
 220:	0000001c 	andeq	r0, r0, ip, lsl r0
 224:	51380002 	teqpl	r8, r2
 228:	00040000 	andeq	r0, r4, r0
 22c:	00000000 	andeq	r0, r0, r0
 230:	0000a4b4 			; <UNDEFINED> instruction: 0x0000a4b4
 234:	0000003c 	andeq	r0, r0, ip, lsr r0
	...
 240:	0000001c 	andeq	r0, r0, ip, lsl r0
 244:	52850002 	addpl	r0, r5, #2, 0
 248:	00040000 	andeq	r0, r4, r0
 24c:	00000000 	andeq	r0, r0, r0
 250:	0000a4f0 	strdeq	sl, [r0], -r0
 254:	0000002c 	andeq	r0, r0, ip, lsr #32
	...
 260:	0000001c 	andeq	r0, r0, ip, lsl r0
 264:	53c00002 	bicpl	r0, r0, #2, 0
 268:	00040000 	andeq	r0, r4, r0
 26c:	00000000 	andeq	r0, r0, r0
 270:	0000a51c 	andeq	sl, r0, ip, lsl r5
 274:	00000044 	andeq	r0, r0, r4, asr #32
	...
 280:	0000001c 	andeq	r0, r0, ip, lsl r0
 284:	54bb0002 	ldrtpl	r0, [fp], #2
 288:	00040000 	andeq	r0, r4, r0
 28c:	00000000 	andeq	r0, r0, r0
 290:	0000a560 	andeq	sl, r0, r0, ror #10
 294:	00000018 	andeq	r0, r0, r8, lsl r0
	...
 2a0:	0000001c 	andeq	r0, r0, ip, lsl r0
 2a4:	55ce0002 	strbpl	r0, [lr, #2]
 2a8:	00040000 	andeq	r0, r4, r0
 2ac:	00000000 	andeq	r0, r0, r0
 2b0:	0000a578 	andeq	sl, r0, r8, ror r5
 2b4:	00000030 	andeq	r0, r0, r0, lsr r0
	...
 2c0:	0000001c 	andeq	r0, r0, ip, lsl r0
 2c4:	57200002 	strpl	r0, [r0, -r2]!
 2c8:	00040000 	andeq	r0, r4, r0
 2cc:	00000000 	andeq	r0, r0, r0
 2d0:	0000a5a8 	andeq	sl, r0, r8, lsr #11
 2d4:	00000004 	andeq	r0, r0, r4
	...

Disassembly of section .debug_line:

00000000 <.debug_line>:
       0:	000000d1 	ldrdeq	r0, [r0], -r1
       4:	00810003 	addeq	r0, r1, r3
       8:	01020000 	mrseq	r0, (UNDEF: 2)
       c:	000d0efb 	strdeq	r0, [sp], -fp
      10:	01010101 	tsteq	r1, r1, lsl #2
      14:	01000000 	mrseq	r0, (UNDEF: 0)
      18:	74010000 	strvc	r0, [r1], #-0
      1c:	73747365 	cmnvc	r4, #-1811939327	; 0x94000001
      20:	302e322d 	eorcc	r3, lr, sp, lsr #4
      24:	2f002e00 	svccs	0x00002e00
      28:	72657355 	rsbvc	r7, r5, #1409286145	; 0x54000001
      2c:	696d2f73 	stmdbvs	sp!, {r0, r1, r4, r5, r6, r8, r9, sl, fp, sp}^
      30:	2f73656c 	svccs	0x0073656c
      34:	72756f53 	rsbsvc	r6, r5, #332	; 0x14c
      38:	632f6563 			; <UNDEFINED> instruction: 0x632f6563
      3c:	30343273 	eorscc	r3, r4, r3, ror r2
      40:	6c2f786c 	stcvs	8, cr7, [pc], #-432	; fffffe98 <__bss_end__+0xffff4b98>
      44:	69706269 	ldmdbvs	r0!, {r0, r3, r5, r6, r9, sp, lr}^
      48:	636e692f 	cmnvs	lr, #770048	; 0xbc000
      4c:	6564756c 	strbvs	r7, [r4, #-1388]!	; 0xfffffa94
      50:	61700000 	cmnvs	r0, r0
      54:	2d317472 	cfldrscs	mvf7, [r1, #-456]!	; 0xfffffe38
      58:	74736574 	ldrbtvc	r6, [r3], #-1396	; 0xfffffa8c
      5c:	75622d32 	strbvc	r2, [r2, #-3378]!	; 0xfffff2ce
      60:	00632e67 	rsbeq	r2, r3, r7, ror #28
      64:	73000001 	movwvc	r0, #1
      68:	6c2d6372 	stcvs	3, cr6, [sp], #-456	; 0xfffffe38
      6c:	682e636f 	stmdavs	lr!, {r0, r1, r2, r3, r5, r6, r8, r9, sp, lr}
      70:	00000200 	andeq	r0, r0, r0, lsl #4
      74:	2e697072 	mcrcs	0, 3, r7, cr9, cr2, {3}
      78:	00030068 	andeq	r0, r3, r8, rrx
      7c:	616b6300 	cmnvs	fp, r0, lsl #6
      80:	636f6c6c 	cmnvs	pc, #108, 24	; 0x6c00
      84:	0200682e 	andeq	r6, r0, #3014656	; 0x2e0000
      88:	05000000 	streq	r0, [r0, #-0]
      8c:	02050014 	andeq	r0, r5, #20, 0
      90:	00008044 	andeq	r8, r0, r4, asr #32
      94:	83050516 	movwhi	r0, #21782	; 0x5516
      98:	0502044b 	streq	r0, [r2, #-1099]	; 0xfffffbb5
      9c:	0505180b 	streq	r1, [r5, #-2059]	; 0xfffff7f5
      a0:	060c0513 			; <UNDEFINED> instruction: 0x060c0513
      a4:	0104ba01 	tsteq	r4, r1, lsl #20
      a8:	79030f05 	stmdbvc	r3, {r0, r2, r8, r9, sl, fp}
      ac:	06050501 	streq	r0, [r5], -r1, lsl #10
      b0:	0a05679f 	beq	159f34 <__bss_end__+0x14ec34>
      b4:	05050106 	streq	r0, [r5, #-262]	; 0xfffffefa
      b8:	02044b06 	andeq	r4, r4, #6144	; 0x1800
      bc:	05150b05 	ldreq	r0, [r5, #-2821]	; 0xfffff4fb
      c0:	0c051305 	stceq	3, cr1, [r5], {5}
      c4:	04820106 	streq	r0, [r2], #262	; 0x106
      c8:	0e050501 	cfsh32eq	mvfx0, mvfx5, #1
      cc:	9e018406 	cdpls	4, 0, cr8, cr1, cr6, {0}
      d0:	01000a02 	tsteq	r0, r2, lsl #20
      d4:	0003bf01 	andeq	fp, r3, r1, lsl #30
      d8:	f4000300 	vst2.8	{d0-d3}, [r0], r0
      dc:	02000000 	andeq	r0, r0, #0, 0
      e0:	0d0efb01 	vstreq	d15, [lr, #-4]
      e4:	01010100 	mrseq	r0, (UNDEF: 17)
      e8:	00000001 	andeq	r0, r0, r1
      ec:	01000001 	tsteq	r0, r1
      f0:	74706f2f 	ldrbtvc	r6, [r0], #-3887	; 0xfffff0d1
      f4:	6d6f682f 	stclvs	8, cr6, [pc, #-188]!	; 40 <__code_start__-0x7fc0>
      f8:	65726265 	ldrbvs	r6, [r2, #-613]!	; 0xfffffd9b
      fc:	65432f77 	strbvs	r2, [r3, #-3959]	; 0xfffff089
     100:	72616c6c 	rsbvc	r6, r1, #108, 24	; 0x6c00
     104:	6d72612f 	ldfvse	f6, [r2, #-188]!	; 0xffffff44
     108:	6e6f6e2d 	cdpvs	14, 6, cr6, cr15, cr13, {1}
     10c:	61652d65 	cmnvs	r5, r5, ror #26
     110:	392d6962 	pushcc	{r1, r5, r6, r8, fp, sp, lr}
     114:	322d392f 	eorcc	r3, sp, #770048	; 0xbc000
     118:	71393130 	teqvc	r9, r0, lsr r1
     11c:	73632d34 	cmnvc	r3, #52, 26	; 0xd00
     120:	65373031 	ldrvs	r3, [r7, #-49]!	; 0xffffffcf
     124:	62696c2f 	rsbvs	r6, r9, #12032	; 0x2f00
     128:	6363672f 	cmnvs	r3, #12320768	; 0xbc0000
     12c:	6d72612f 	ldfvse	f6, [r2, #-188]!	; 0xffffff44
     130:	6e6f6e2d 	cdpvs	14, 6, cr6, cr15, cr13, {1}
     134:	61652d65 	cmnvs	r5, r5, ror #26
     138:	392f6962 	stmdbcc	pc!, {r1, r5, r6, r8, fp, sp, lr}	; <UNPREDICTABLE>
     13c:	312e322e 			; <UNDEFINED> instruction: 0x312e322e
     140:	636e692f 	cmnvs	lr, #770048	; 0xbc000
     144:	6564756c 	strbvs	r7, [r4, #-1388]!	; 0xfffffa94
     148:	73552f00 	cmpvc	r5, #0, 30
     14c:	2f737265 	svccs	0x00737265
     150:	656c696d 	strbvs	r6, [ip, #-2413]!	; 0xfffff693
     154:	6f532f73 	svcvs	0x00532f73
     158:	65637275 	strbvs	r7, [r3, #-629]!	; 0xfffffd8b
     15c:	3273632f 	rsbscc	r6, r3, #-1140850688	; 0xbc000000
     160:	786c3034 	stmdavc	ip!, {r2, r4, r5, ip, sp}^
     164:	62696c2f 	rsbvs	r6, r9, #12032	; 0x2f00
     168:	692f6970 	stmdbvs	pc!, {r4, r5, r6, r8, fp, sp, lr}	; <UNPREDICTABLE>
     16c:	756c636e 	strbvc	r6, [ip, #-878]!	; 0xfffffc92
     170:	00006564 	andeq	r6, r0, r4, ror #10
     174:	6c616b63 			; <UNDEFINED> instruction: 0x6c616b63
     178:	2e636f6c 	cdpcs	15, 6, cr6, cr3, cr12, {3}
     17c:	00000063 	andeq	r0, r0, r3, rrx
     180:	616b6300 	cmnvs	fp, r0, lsl #6
     184:	636f6c6c 	cmnvs	pc, #108, 24	; 0x6c00
     188:	0000682e 	andeq	r6, r0, lr, lsr #16
     18c:	74730000 	ldrbtvc	r0, [r3], #-0
     190:	746e6964 	strbtvc	r6, [lr], #-2404	; 0xfffff69c
     194:	6363672d 	cmnvs	r3, #11796480	; 0xb40000
     198:	0100682e 	tsteq	r0, lr, lsr #16
     19c:	70720000 	rsbsvc	r0, r2, r0
     1a0:	00682e69 	rsbeq	r2, r8, r9, ror #28
     1a4:	73000002 	movwvc	r0, #2
     1a8:	6c2d6372 	stcvs	3, cr6, [sp], #-456	; 0xfffffe38
     1ac:	682e636f 	stmdavs	lr!, {r0, r1, r2, r3, r5, r6, r8, r9, sp, lr}
     1b0:	00000000 	andeq	r0, r0, r0
     1b4:	6d2d726b 	sfmvs	f7, 4, [sp, #-428]!	; 0xfffffe54
     1b8:	6f6c6c61 	svcvs	0x006c6c61
     1bc:	00682e63 	rsbeq	r2, r8, r3, ror #28
     1c0:	62000000 	andvs	r0, r0, #0, 0
     1c4:	746b6361 	strbtvc	r6, [fp], #-865	; 0xfffffc9f
     1c8:	65636172 	strbvs	r6, [r3, #-370]!	; 0xfffffe8e
     1cc:	0200682e 	andeq	r6, r0, #3014656	; 0x2e0000
     1d0:	05000000 	streq	r0, [r0, #-0]
     1d4:	02050001 	andeq	r0, r5, #1, 0
     1d8:	000080f8 	strdeq	r8, [r0], -r8	; <UNPREDICTABLE>
     1dc:	05010e03 	streq	r0, [r1, #-3587]	; 0xfffff1fd
     1e0:	01056705 	tsteq	r5, r5, lsl #14
     1e4:	f6061306 			; <UNDEFINED> instruction: 0xf6061306
     1e8:	05050106 	streq	r0, [r5, #-262]	; 0xfffffefa
     1ec:	08056706 	stmdaeq	r5, {r1, r2, r8, r9, sl, sp, lr}
     1f0:	052e0106 	streq	r0, [lr, #-262]!	; 0xfffffefa
     1f4:	052f0609 	streq	r0, [pc, #-1545]!	; fffffbf3 <__bss_end__+0xffff48f3>
     1f8:	05010611 	streq	r0, [r1, #-1553]	; 0xfffff9ef
     1fc:	bd063001 	stclt	0, cr3, [r6, #-4]
     200:	05050106 	streq	r0, [r5, #-262]	; 0xfffffefa
     204:	01056706 	tsteq	r5, r6, lsl #14
     208:	062e1306 	strteq	r1, [lr], -r6, lsl #6
     20c:	050106a2 	streq	r0, [r1, #-1698]	; 0xfffff95e
     210:	05830605 	streq	r0, [r3, #1541]	; 0x605
     214:	04010614 	streq	r0, [r1], #-1556	; 0xfffff9ec
     218:	06180502 	ldreq	r0, [r8], -r2, lsl #10
     21c:	052e0e03 	streq	r0, [lr, #-3587]!	; 0xfffff1fd
     220:	0d051305 	stceq	3, cr1, [r5, #-20]	; 0xffffffec
     224:	042e0106 	strteq	r0, [lr], #-262	; 0xfffffefa
     228:	03010501 	movweq	r0, #5377	; 0x1501
     22c:	da060172 	ble	1807fc <__bss_end__+0x1754fc>
     230:	05050106 	streq	r0, [r5, #-262]	; 0xfffffefa
     234:	11059f06 	tstne	r5, r6, lsl #30
     238:	052e0106 	streq	r0, [lr, #-262]!	; 0xfffffefa
     23c:	052f0605 	streq	r0, [pc, #-1541]!	; fffffc3f <__bss_end__+0xffff493f>
     240:	2e010611 	mcrcs	6, 0, r0, cr1, cr1, {0}
     244:	2f060505 	svccs	0x00060505
     248:	13060105 	movwne	r0, #24837	; 0x6105
     24c:	06290566 	strteq	r0, [r9], -r6, ror #10
     250:	d600d103 	strle	sp, [r0], -r3, lsl #2
     254:	05050106 	streq	r0, [r5, #-262]	; 0xfffffefa
     258:	08056706 	stmdaeq	r5, {r1, r2, r8, r9, sl, sp, lr}
     25c:	24050106 	strcs	r0, [r5], #-262	; 0xfffffefa
     260:	01040200 	mrseq	r0, R12_usr
     264:	06050566 	streq	r0, [r5], -r6, ror #10
     268:	2b051369 	blcs	145014 <__bss_end__+0x139d14>
     26c:	32050106 	andcc	r0, r5, #-2147483647	; 0x80000001
     270:	2e0c052e 	cfsh32cs	mvfx0, mvfx12, #30
     274:	2e2b1005 	cdpcs	0, 2, cr1, cr11, cr5, {0}
     278:	3201052e 	andcc	r0, r1, #192937984	; 0xb800000
     27c:	7fac0306 	svcvc	0x00ac0306
     280:	050106f2 	streq	r0, [r1, #-1778]	; 0xfffff90e
     284:	05670605 	strbeq	r0, [r7, #-1541]!	; 0xfffff9fb
     288:	05010613 	streq	r0, [r1, #-1555]	; 0xfffff9ed
     28c:	052f0605 	streq	r0, [pc, #-1541]!	; fffffc8f <__bss_end__+0xffff498f>
     290:	2e010608 	cfmadd32cs	mvax0, mvfx0, mvfx1, mvfx8
     294:	2f060905 	svccs	0x00060905
     298:	01061005 	tsteq	r6, r5
     29c:	10030105 	andne	r0, r3, r5, lsl #2
     2a0:	1c03062e 	stcne	6, cr0, [r3], {46}	; 0x2e
     2a4:	ba010682 	blt	41cb4 <__bss_end__+0x369b4>
     2a8:	2f060505 	svccs	0x00060505
     2ac:	11051313 	tstne	r5, r3, lsl r3
     2b0:	05050106 	streq	r0, [r5, #-262]	; 0xfffffefa
     2b4:	f2016806 	vadd.i8	d6, d1, d6
     2b8:	0a051366 	beq	145058 <__bss_end__+0x139d58>
     2bc:	08050106 	stmdaeq	r5, {r1, r2, r8}
     2c0:	4d0d052e 	cfstr32mi	mvfx0, [sp, #-184]	; 0xffffff48
     2c4:	02001405 	andeq	r1, r0, #83886080	; 0x5000000
     2c8:	2e060104 	adfcss	f0, f6, f4
     2cc:	02000505 	andeq	r0, r0, #20971520	; 0x1400000
     2d0:	01060104 	tsteq	r6, r4, lsl #2
     2d4:	4b060905 	blmi	1826f0 <__bss_end__+0x1773f0>
     2d8:	01061305 	tsteq	r6, r5, lsl #6
     2dc:	054a0c05 	strbeq	r0, [sl, #-3077]	; 0xfffff3fb
     2e0:	054b060d 	strbeq	r0, [fp, #-1549]	; 0xfffff9f3
     2e4:	22051409 	andcs	r1, r5, #150994944	; 0x9000000
     2e8:	31050106 	tstcc	r5, r6, lsl #2
     2ec:	2e0d052e 	cfsh32cs	mvfx0, mvfx13, #30
     2f0:	052e0c05 	streq	r0, [lr, #-3077]!	; 0xfffff3fb
     2f4:	0402000d 	streq	r0, [r2], #-13
     2f8:	054b0602 	strbeq	r0, [fp, #-1538]	; 0xfffff9fe
     2fc:	04020028 	streq	r0, [r2], #-40	; 0xffffffd8
     300:	29050d02 	stmdbcs	r5, {r1, r8, sl, fp}
     304:	02040200 	andeq	r0, r4, #0, 4
     308:	02000106 	andeq	r0, r0, #-2147483647	; 0x80000001
     30c:	002e0204 	eoreq	r0, lr, r4, lsl #4
     310:	2e020402 	cdpcs	4, 0, cr0, cr2, cr2, {0}
     314:	10060905 	andne	r0, r6, r5, lsl #18
     318:	669e2e01 	ldrvs	r2, [lr], r1, lsl #28
     31c:	01320d05 	teqeq	r2, r5, lsl #26
     320:	314a9e2e 	cmpcc	sl, lr, lsr #28
     324:	4a9e2e01 	bmi	fe78bb30 <__bss_end__+0xfe780830>
     328:	05172e06 	ldreq	r2, [r7, #-3590]	; 0xfffff1fa
     32c:	04020014 	streq	r0, [r2], #-20	; 0xffffffec
     330:	052e0601 	streq	r0, [lr, #-1537]!	; 0xfffff9ff
     334:	04020019 	streq	r0, [r2], #-25	; 0xffffffe7
     338:	05010601 	streq	r0, [r1, #-1537]	; 0xfffff9ff
     33c:	04020005 	streq	r0, [r2], #-5
     340:	09052e01 	stmdbeq	r5, {r0, r9, sl, fp, sp}
     344:	03040200 	movweq	r0, #16896	; 0x4200
     348:	1c052f06 	stcne	15, cr2, [r5], {6}
     34c:	03040200 	movweq	r0, #16896	; 0x4200
     350:	29050106 	stmdbcs	r5, {r1, r2, r8}
     354:	03040200 	movweq	r0, #16896	; 0x4200
     358:	2a054906 	bcs	152778 <__bss_end__+0x147478>
     35c:	03040200 	movweq	r0, #16896	; 0x4200
     360:	02000106 	andeq	r0, r0, #-2147483647	; 0x80000001
     364:	002e0304 	eoreq	r0, lr, r4, lsl #6
     368:	2e030402 	cdpcs	4, 0, cr0, cr3, cr2, {0}
     36c:	16060505 	strne	r0, [r6], -r5, lsl #10
     370:	01060e05 	tsteq	r6, r5, lsl #28
     374:	0605052e 	streq	r0, [r5], -lr, lsr #10
     378:	0611052f 	ldreq	r0, [r1], -pc, lsr #10
     37c:	06050501 	streq	r0, [r5], -r1, lsl #10
     380:	01050183 	smlabbeq	r5, r3, r1, r0
     384:	05058606 	streq	r8, [r5, #-1542]	; 0xfffff9fa
     388:	01040200 	mrseq	r0, R12_usr
     38c:	02004606 	andeq	r4, r0, #6291456	; 0x600000
     390:	00010104 	andeq	r0, r1, r4, lsl #2
     394:	d6010402 	strle	r0, [r1], -r2, lsl #8
     398:	12030105 	andne	r0, r3, #1073741825	; 0x40000001
     39c:	0106ac08 	tsteq	r6, r8, lsl #24
     3a0:	060505ba 			; <UNDEFINED> instruction: 0x060505ba
     3a4:	0610052f 	ldreq	r0, [r0], -pc, lsr #10
     3a8:	06050501 	streq	r0, [r5], -r1, lsl #10
     3ac:	09056969 	stmdbeq	r5, {r0, r3, r5, r6, r8, fp, sp, lr}
     3b0:	060d0501 	streq	r0, [sp], -r1, lsl #10
     3b4:	00140501 	andseq	r0, r4, r1, lsl #10
     3b8:	06010402 	streq	r0, [r1], -r2, lsl #8
     3bc:	0005052e 	andeq	r0, r5, lr, lsr #10
     3c0:	06010402 	streq	r0, [r1], -r2, lsl #8
     3c4:	00090501 	andeq	r0, r9, r1, lsl #10
     3c8:	06030402 	streq	r0, [r3], -r2, lsl #8
     3cc:	0013054b 	andseq	r0, r3, fp, asr #10
     3d0:	06030402 	streq	r0, [r3], -r2, lsl #8
     3d4:	00090501 	andeq	r0, r9, r1, lsl #10
     3d8:	06030402 	streq	r0, [r3], -r2, lsl #8
     3dc:	00260567 	eoreq	r0, r6, r7, ror #10
     3e0:	06030402 	streq	r0, [r3], -r2, lsl #8
     3e4:	002b0501 	eoreq	r0, fp, r1, lsl #10
     3e8:	4a030402 	bmi	c13f8 <__bss_end__+0xb60f8>
     3ec:	02002805 	andeq	r2, r0, #327680	; 0x50000
     3f0:	2c060304 	stccs	3, cr0, [r6], {4}
     3f4:	02002905 	andeq	r2, r0, #81920	; 0x14000
     3f8:	01060304 	tsteq	r6, r4, lsl #6
     3fc:	03040200 	movweq	r0, #16896	; 0x4200
     400:	0402002e 	streq	r0, [r2], #-46	; 0xffffffd2
     404:	05052e03 	streq	r2, [r5, #-3587]	; 0xfffff1fd
     408:	15051706 	strne	r1, [r5, #-1798]	; 0xfffff8fa
     40c:	05050106 	streq	r0, [r5, #-262]	; 0xfffffefa
     410:	0e052f06 	cdpeq	15, 0, cr2, cr5, cr6, {0}
     414:	052e0106 	streq	r0, [lr, #-262]!	; 0xfffffefa
     418:	052f0605 	streq	r0, [pc, #-1541]!	; fffffe1b <__bss_end__+0xffff4b1b>
     41c:	05010612 	streq	r0, [r1, #-1554]	; 0xfffff9ee
     420:	01840605 	orreq	r0, r4, r5, lsl #12
     424:	13149e9e 	tstne	r4, #2528	; 0x9e0
     428:	01090513 	tsteq	r9, r3, lsl r5
     42c:	01060d05 	tsteq	r6, r5, lsl #26
     430:	02001405 	andeq	r1, r0, #83886080	; 0x5000000
     434:	2e060104 	adfcss	f0, f6, f4
     438:	02000505 	andeq	r0, r0, #20971520	; 0x1400000
     43c:	01060104 	tsteq	r6, r4, lsl #2
     440:	02000905 	andeq	r0, r0, #81920	; 0x14000
     444:	4b060304 	blmi	18105c <__bss_end__+0x175d5c>
     448:	02001705 	andeq	r1, r0, #1310720	; 0x140000
     44c:	01060304 	tsteq	r6, r4, lsl #6
     450:	02000905 	andeq	r0, r0, #81920	; 0x14000
     454:	67060304 	strvs	r0, [r6, -r4, lsl #6]
     458:	02000e05 	andeq	r0, r0, #80	; 0x50
     45c:	01060304 	tsteq	r6, r4, lsl #6
     460:	02002005 	andeq	r2, r0, #5, 0
     464:	2c060304 	stccs	3, cr0, [r6], {4}
     468:	02002205 	andeq	r2, r0, #1342177280	; 0x50000000
     46c:	01060304 	tsteq	r6, r4, lsl #6
     470:	03040200 	movweq	r0, #16896	; 0x4200
     474:	0402002e 	streq	r0, [r2], #-46	; 0xffffffd2
     478:	05052e03 	streq	r2, [r5, #-3587]	; 0xfffff1fd
     47c:	0d051706 	stceq	7, cr1, [r5, #-24]	; 0xffffffe8
     480:	05050106 	streq	r0, [r5, #-262]	; 0xfffffefa
     484:	10056706 	andne	r6, r5, r6, lsl #14
     488:	05050106 	streq	r0, [r5, #-262]	; 0xfffffefa
     48c:	01053006 	tsteq	r5, r6
     490:	02661406 	rsbeq	r1, r6, #100663296	; 0x6000000
     494:	01010006 	tsteq	r1, r6
     498:	00000228 	andeq	r0, r0, r8, lsr #4
     49c:	00640003 	rsbeq	r0, r4, r3
     4a0:	01020000 	mrseq	r0, (UNDEF: 2)
     4a4:	000d0efb 	strdeq	r0, [sp], -fp
     4a8:	01010101 	tsteq	r1, r1, lsl #2
     4ac:	01000000 	mrseq	r0, (UNDEF: 0)
     4b0:	2f010000 	svccs	0x00010000
     4b4:	72657355 	rsbvc	r7, r5, #1409286145	; 0x54000001
     4b8:	696d2f73 	stmdbvs	sp!, {r0, r1, r4, r5, r6, r8, r9, sl, fp, sp}^
     4bc:	2f73656c 	svccs	0x0073656c
     4c0:	72756f53 	rsbsvc	r6, r5, #332	; 0x14c
     4c4:	632f6563 			; <UNDEFINED> instruction: 0x632f6563
     4c8:	30343273 	eorscc	r3, r4, r3, ror r2
     4cc:	6c2f786c 	stcvs	8, cr7, [pc], #-432	; 324 <__code_start__-0x7cdc>
     4d0:	69706269 	ldmdbvs	r0!, {r0, r3, r5, r6, r9, sp, lr}^
     4d4:	636e692f 	cmnvs	lr, #770048	; 0xbc000
     4d8:	6564756c 	strbvs	r7, [r4, #-1388]!	; 0xfffffa94
     4dc:	726b0000 	rsbvc	r0, fp, #0, 0
     4e0:	6c616d2d 	stclvs	13, cr6, [r1], #-180	; 0xffffff4c
     4e4:	2e636f6c 	cdpcs	15, 6, cr6, cr3, cr12, {3}
     4e8:	00000063 	andeq	r0, r0, r3, rrx
     4ec:	69707200 	ldmdbvs	r0!, {r9, ip, sp, lr}^
     4f0:	0100682e 	tsteq	r0, lr, lsr #16
     4f4:	726b0000 	rsbvc	r0, fp, #0, 0
     4f8:	6c616d2d 	stclvs	13, cr6, [r1], #-180	; 0xffffff4c
     4fc:	2e636f6c 	cdpcs	15, 6, cr6, cr3, cr12, {3}
     500:	00000068 	andeq	r0, r0, r8, rrx
     504:	01050000 	mrseq	r0, (UNDEF: 5)
     508:	24020500 	strcs	r0, [r2], #-1280	; 0xfffffb00
     50c:	03000085 	movweq	r0, #133	; 0x85
     510:	060100d3 			; <UNDEFINED> instruction: 0x060100d3
     514:	06020501 	streq	r0, [r2], -r1, lsl #10
     518:	05051367 	streq	r1, [r5, #-871]	; 0xfffffc99
     51c:	02050106 	andeq	r0, r5, #-2147483647	; 0x80000001
     520:	09052f06 	stmdbeq	r5, {r1, r2, r8, r9, sl, fp, sp}
     524:	02050106 	andeq	r0, r5, #-2147483647	; 0x80000001
     528:	12052e4a 	andne	r2, r5, #1184	; 0x4a0
     52c:	01040200 	mrseq	r0, R12_usr
     530:	02052e06 	andeq	r2, r5, #96	; 0x60
     534:	01040200 	mrseq	r0, R12_usr
     538:	27050106 	strcs	r0, [r5, -r6, lsl #2]
     53c:	03040200 	movweq	r0, #16896	; 0x4200
     540:	0012054a 	andseq	r0, r2, sl, asr #10
     544:	2e030402 	cdpcs	4, 0, cr0, cr3, cr2, {0}
     548:	4b060305 	blmi	181164 <__bss_end__+0x175e64>
     54c:	01061005 	tsteq	r6, r5
     550:	052e0605 	streq	r0, [lr, #-1541]!	; 0xfffff9fb
     554:	04020015 	streq	r0, [r2], #-21	; 0xffffffeb
     558:	20054a01 	andcs	r4, r5, r1, lsl #20
     55c:	02040200 	andeq	r0, r4, #0, 4
     560:	0402004a 	streq	r0, [r2], #-74	; 0xffffffb6
     564:	02054a02 	andeq	r4, r5, #8192	; 0x2000
     568:	10053006 	andne	r3, r5, r6
     56c:	09050106 	stmdbeq	r5, {r1, r2, r8}
     570:	2e1d052e 	cfmul64cs	mvdx0, mvdx13, mvdx14
     574:	052e0505 	streq	r0, [lr, #-1285]!	; 0xfffffafb
     578:	05500603 	ldrbeq	r0, [r0, #-1539]	; 0xfffff9fd
     57c:	0501060d 	streq	r0, [r1, #-1549]	; 0xfffff9f3
     580:	052f0602 	streq	r0, [pc, #-1538]!	; ffffff86 <__bss_end__+0xffff4c86>
     584:	0501060e 	streq	r0, [r1, #-1550]	; 0xfffff9f2
     588:	05052e08 	streq	r2, [r5, #-3592]	; 0xfffff1f8
     58c:	0603052e 	streq	r0, [r3], -lr, lsr #10
     590:	060c0550 			; <UNDEFINED> instruction: 0x060c0550
     594:	06020501 	streq	r0, [r2], -r1, lsl #10
     598:	0608052f 	streq	r0, [r8], -pc, lsr #10
     59c:	4b010501 	blmi	419a8 <__bss_end__+0x366a8>
     5a0:	03060305 	movweq	r0, #25349	; 0x6305
     5a4:	1c052e73 	stcne	14, cr2, [r5], {115}	; 0x73
     5a8:	0e050106 	adfeqs	f0, f5, f6
     5ac:	0603052e 	streq	r0, [r3], -lr, lsr #10
     5b0:	0613054b 	ldreq	r0, [r3], -fp, asr #10
     5b4:	2e1a0501 	cfmul32cs	mvfx0, mvfx10, mvfx1
     5b8:	052e0d05 	streq	r0, [lr, #-3333]!	; 0xfffff2fb
     5bc:	05500603 	ldrbeq	r0, [r0, #-1539]	; 0xfffff9fd
     5c0:	05010615 	streq	r0, [r1, #-1557]	; 0xfffff9eb
     5c4:	03052e0d 	movweq	r2, #24077	; 0x5e0d
     5c8:	13054b06 	movwne	r4, #23302	; 0x5b06
     5cc:	0c050106 	stfeqs	f0, [r5], {6}
     5d0:	0601052e 	streq	r0, [r1], -lr, lsr #10
     5d4:	d67fb903 	ldrbtle	fp, [pc], -r3, lsl #18
     5d8:	02050106 	andeq	r0, r5, #-2147483647	; 0x80000001
     5dc:	05058306 	streq	r8, [r5, #-774]	; 0xfffffcfa
     5e0:	06050106 	streq	r0, [r5], -r6, lsl #2
     5e4:	0602052f 	streq	r0, [r2], -pc, lsr #10
     5e8:	0d05672f 	stceq	7, cr6, [r5, #-188]	; 0xffffff44
     5ec:	02050106 	andeq	r0, r5, #-2147483647	; 0x80000001
     5f0:	05054b06 	streq	r4, [r5, #-2822]	; 0xfffff4fa
     5f4:	02050106 	andeq	r0, r5, #-2147483647	; 0x80000001
     5f8:	05134c06 	ldreq	r4, [r3, #-3078]	; 0xfffff3fa
     5fc:	0501060d 	streq	r0, [r1, #-1549]	; 0xfffff9f3
     600:	062f0602 	strteq	r0, [pc], -r2, lsl #12
     604:	052f062e 	streq	r0, [pc, #-1582]!	; ffffffde <__bss_end__+0xffff4cde>
     608:	05010609 	streq	r0, [r1, #-1545]	; 0xfffff9f7
     60c:	0105620a 	tsteq	r5, sl, lsl #4
     610:	06da0633 			; <UNDEFINED> instruction: 0x06da0633
     614:	06020501 	streq	r0, [r2], -r1, lsl #10
     618:	05141367 	ldreq	r1, [r4, #-871]	; 0xfffffc99
     61c:	05010624 	streq	r0, [r1, #-1572]	; 0xfffff9dc
     620:	09052e29 	stmdbeq	r5, {r0, r3, r5, r9, sl, fp, sp}
     624:	0602052e 	streq	r0, [r2], -lr, lsr #10
     628:	060d052f 	streq	r0, [sp], -pc, lsr #10
     62c:	4a050501 	bmi	141a38 <__bss_end__+0x136738>
     630:	50060205 	andpl	r0, r6, r5, lsl #4
     634:	01060905 	tsteq	r6, r5, lsl #18
     638:	0603052e 	streq	r0, [r3], -lr, lsr #10
     63c:	0616052a 	ldreq	r0, [r6], -sl, lsr #10
     640:	4a0e0501 	bmi	381a4c <__bss_end__+0x37674c>
     644:	2f060305 	svccs	0x00060305
     648:	01060f05 	tsteq	r6, r5, lsl #30
     64c:	6d060405 	cfstrsvs	mvf0, [r6, #-20]	; 0xffffffec
     650:	01060705 	tsteq	r6, r5, lsl #14
     654:	34060505 	strcc	r0, [r6], #-1285	; 0xfffffafb
     658:	01060f05 	tsteq	r6, r5, lsl #30
     65c:	4b060505 	blmi	181a78 <__bss_end__+0x176778>
     660:	01060705 	tsteq	r6, r5, lsl #14
     664:	2f060505 	svccs	0x00060505
     668:	01060f05 	tsteq	r6, r5, lsl #30
     66c:	30060405 	andcc	r0, r6, r5, lsl #8
     670:	01060a05 	tsteq	r6, r5, lsl #20
     674:	4b060405 	blmi	181690 <__bss_end__+0x176390>
     678:	01060b05 	tsteq	r6, r5, lsl #22
     67c:	0605052e 	streq	r0, [r5], -lr, lsr #10
     680:	052e7703 	streq	r7, [lr, #-1795]!	; 0xfffff8fd
     684:	05010618 	streq	r0, [r1, #-1560]	; 0xfffff9e8
     688:	1a052e12 	bne	14bed8 <__bss_end__+0x140bd8>
     68c:	4a7a0306 	bmi	1e812ac <__bss_end__+0x1e75fac>
     690:	05011805 	streq	r1, [r1, #-2053]	; 0xfffff7fb
     694:	05010620 	streq	r0, [r1, #-1568]	; 0xfffff9e0
     698:	03052e27 	movweq	r2, #24103	; 0x5e27
     69c:	0b053006 	bleq	14c6bc <__bss_end__+0x1413bc>
     6a0:	06050106 	streq	r0, [r5], -r6, lsl #2
     6a4:	0603052e 	streq	r0, [r3], -lr, lsr #10
     6a8:	054a0f03 	strbeq	r0, [sl, #-3843]	; 0xfffff0fd
     6ac:	05010609 	streq	r0, [r1, #-1545]	; 0xfffff9f7
     6b0:	04054a06 	streq	r4, [r5], #-2566	; 0xfffff5fa
     6b4:	0d054c06 	stceq	12, cr4, [r5, #-24]	; 0xffffffe8
     6b8:	052e0106 	streq	r0, [lr, #-262]!	; 0xfffffefa
     6bc:	022e2e07 	eoreq	r2, lr, #112	; 0x70
     6c0:	01010006 	tsteq	r1, r6
     6c4:	0000062e 	andeq	r0, r0, lr, lsr #12
     6c8:	00d40003 	sbcseq	r0, r4, r3
     6cc:	01020000 	mrseq	r0, (UNDEF: 2)
     6d0:	000d0efb 	strdeq	r0, [sp], -fp
     6d4:	01010101 	tsteq	r1, r1, lsl #2
     6d8:	01000000 	mrseq	r0, (UNDEF: 0)
     6dc:	2f010000 	svccs	0x00010000
     6e0:	2f74706f 	svccs	0x0074706f
     6e4:	656d6f68 	strbvs	r6, [sp, #-3944]!	; 0xfffff098
     6e8:	77657262 	strbvc	r7, [r5, -r2, ror #4]!
     6ec:	6c65432f 	stclvs	3, cr4, [r5], #-188	; 0xffffff44
     6f0:	2f72616c 	svccs	0x0072616c
     6f4:	2d6d7261 	sfmcs	f7, 2, [sp, #-388]!	; 0xfffffe7c
     6f8:	656e6f6e 	strbvs	r6, [lr, #-3950]!	; 0xfffff092
     6fc:	6261652d 	rsbvs	r6, r1, #188743680	; 0xb400000
     700:	2f392d69 	svccs	0x00392d69
     704:	30322d39 	eorscc	r2, r2, r9, lsr sp
     708:	34713931 	ldrbtcc	r3, [r1], #-2353	; 0xfffff6cf
     70c:	3173632d 	cmncc	r3, sp, lsr #6
     710:	2f653730 	svccs	0x00653730
     714:	2f62696c 	svccs	0x0062696c
     718:	2f636367 	svccs	0x00636367
     71c:	2d6d7261 	sfmcs	f7, 2, [sp, #-388]!	; 0xfffffe7c
     720:	656e6f6e 	strbvs	r6, [lr, #-3950]!	; 0xfffff092
     724:	6261652d 	rsbvs	r6, r1, #188743680	; 0xb400000
     728:	2e392f69 	cdpcs	15, 3, cr2, cr9, cr9, {3}
     72c:	2f312e32 	svccs	0x00312e32
     730:	6c636e69 	stclvs	14, cr6, [r3], #-420	; 0xfffffe5c
     734:	00656475 	rsbeq	r6, r5, r5, ror r4
     738:	6573552f 	ldrbvs	r5, [r3, #-1327]!	; 0xfffffad1
     73c:	6d2f7372 	stcvs	3, cr7, [pc, #-456]!	; 57c <__code_start__-0x7a84>
     740:	73656c69 	cmnvc	r5, #26880	; 0x6900
     744:	756f532f 	strbvc	r5, [pc, #-815]!	; 41d <__code_start__-0x7be3>
     748:	2f656372 	svccs	0x00656372
     74c:	34327363 	ldrtcc	r7, [r2], #-867	; 0xfffffc9d
     750:	2f786c30 	svccs	0x00786c30
     754:	7062696c 	rsbvc	r6, r2, ip, ror #18
     758:	6e692f69 	cdpvs	15, 6, cr2, cr9, cr9, {3}
     75c:	64756c63 	ldrbtvs	r6, [r5], #-3171	; 0xfffff39d
     760:	63000065 	movwvs	r0, #101	; 0x65
     764:	63672d6b 	cmnvs	r7, #6848	; 0x1ac0
     768:	0000632e 	andeq	r6, r0, lr, lsr #6
     76c:	72730000 	rsbsvc	r0, r3, #0, 0
     770:	6f6c2d63 	svcvs	0x006c2d63
     774:	00682e63 	rsbeq	r2, r8, r3, ror #28
     778:	73000000 	movwvc	r0, #0
     77c:	6e696474 	mcrvs	4, 3, r6, cr9, cr4, {3}
     780:	63672d74 	cmnvs	r7, #116, 26	; 0x1d00
     784:	00682e63 	rsbeq	r2, r8, r3, ror #28
     788:	72000001 	andvc	r0, r0, #1, 0
     78c:	682e6970 	stmdavs	lr!, {r4, r5, r6, r8, fp, sp, lr}
     790:	00000200 	andeq	r0, r0, r0, lsl #4
     794:	6c616b63 			; <UNDEFINED> instruction: 0x6c616b63
     798:	2e636f6c 	cdpcs	15, 6, cr6, cr3, cr12, {3}
     79c:	00000068 	andeq	r0, r0, r8, rrx
     7a0:	01050000 	mrseq	r0, (UNDEF: 5)
     7a4:	24020500 	strcs	r0, [r2], #-1280	; 0xfffffb00
     7a8:	03000087 	movweq	r0, #135	; 0x87
     7ac:	0106012b 	tsteq	r6, fp, lsr #2
     7b0:	68060505 	stmdavs	r6, {r0, r2, r8, sl}
     7b4:	01060b05 	tsteq	r6, r5, lsl #22
     7b8:	054a0805 	strbeq	r0, [sl, #-2053]	; 0xfffff7fb
     7bc:	0402001d 	streq	r0, [r2], #-29	; 0xffffffe3
     7c0:	18054a01 	stmdane	r5, {r0, r9, fp, lr}
     7c4:	01040200 	mrseq	r0, R12_usr
     7c8:	4d0c054a 	cfstr32mi	mvfx0, [ip, #-296]	; 0xfffffed8
     7cc:	2c10052e 	cfldr32cs	mvfx0, [r0], {46}	; 0x2e
     7d0:	01052e2e 	tsteq	r5, lr, lsr #28
     7d4:	1f030631 	svcne	0x00030631
     7d8:	0501069e 	streq	r0, [r1, #-1694]	; 0xfffff962
     7dc:	01830605 	orreq	r0, r3, r5, lsl #12
     7e0:	02040200 	andeq	r0, r4, #0, 4
     7e4:	04020082 	streq	r0, [r2], #-130	; 0xffffff7e
     7e8:	02000102 	andeq	r0, r0, #-2147483648	; 0x80000000
     7ec:	00150204 	andseq	r0, r5, r4, lsl #4
     7f0:	01020402 	tsteq	r2, r2, lsl #8
     7f4:	02040200 	andeq	r0, r4, #0, 4
     7f8:	0402004a 	streq	r0, [r2], #-74	; 0xffffffb6
     7fc:	02000102 	andeq	r0, r0, #-2147483648	; 0x80000000
     800:	00130204 	andseq	r0, r3, r4, lsl #4
     804:	01020402 	tsteq	r2, r2, lsl #8
     808:	01040200 	mrseq	r0, R12_usr
     80c:	0402004a 	streq	r0, [r2], #-74	; 0xffffffb6
     810:	02000101 	andeq	r0, r0, #1073741824	; 0x40000000
     814:	9e060104 	adflss	f0, f6, f4
     818:	01040200 	mrseq	r0, R12_usr
     81c:	0402002e 	streq	r0, [r2], #-46	; 0xffffffd2
     820:	002e0601 	eoreq	r0, lr, r1, lsl #12
     824:	2a010402 	bcs	41834 <__bss_end__+0x36534>
     828:	01040200 	mrseq	r0, R12_usr
     82c:	04020001 	streq	r0, [r2], #-1
     830:	009e0601 	addseq	r0, lr, r1, lsl #12
     834:	2e010402 	cdpcs	4, 0, cr0, cr1, cr2, {0}
     838:	01040200 	mrseq	r0, R12_usr
     83c:	02002e06 	andeq	r2, r0, #96	; 0x60
     840:	00310104 	eorseq	r0, r1, r4, lsl #2
     844:	01010402 	tsteq	r1, r2, lsl #8
     848:	01040200 	mrseq	r0, R12_usr
     84c:	02009e06 	andeq	r9, r0, #96	; 0x60
     850:	002e0104 	eoreq	r0, lr, r4, lsl #2
     854:	06010402 	streq	r0, [r1], -r2, lsl #8
     858:	0610052e 	ldreq	r0, [r0], -lr, lsr #10
     85c:	2e2e6c03 	cdpcs	12, 2, cr6, cr14, cr3, {0}
     860:	0319052e 	tsteq	r9, #192937984	; 0xb800000
     864:	11050121 	tstne	r5, r1, lsr #2
     868:	0402004b 	streq	r0, [r2], #-75	; 0xffffffb5
     86c:	02002e04 	andeq	r2, r0, #4, 28	; 0x40
     870:	4d060404 	cfstrsmi	mvf0, [r6, #-16]
     874:	02001405 	andeq	r1, r0, #83886080	; 0x5000000
     878:	01060404 	tsteq	r6, r4, lsl #8
     87c:	04040200 	streq	r0, [r4], #-512	; 0xfffffe00
     880:	0023054a 	eoreq	r0, r3, sl, asr #10
     884:	06020402 	streq	r0, [r2], -r2, lsl #8
     888:	05017203 	streq	r7, [r1, #-515]	; 0xfffffdfd
     88c:	04020024 	streq	r0, [r2], #-36	; 0xffffffdc
     890:	05010602 	streq	r0, [r1, #-1538]	; 0xfffff9fe
     894:	0402001b 	streq	r0, [r2], #-27	; 0xffffffe5
     898:	052e0601 	streq	r0, [lr, #-1537]!	; 0xfffff9ff
     89c:	04020005 	streq	r0, [r2], #-5
     8a0:	05010601 	streq	r0, [r1, #-1537]	; 0xfffff9ff
     8a4:	054c0609 	strbeq	r0, [ip, #-1545]	; 0xfffff9f7
     8a8:	05010614 	streq	r0, [r1, #-1556]	; 0xfffff9ec
     8ac:	62030616 	andvs	r0, r3, #23068672	; 0x1600000
     8b0:	1405052e 	strne	r0, [r5], #-1326	; 0xfffffad2
     8b4:	060a0514 			; <UNDEFINED> instruction: 0x060a0514
     8b8:	4a080501 	bmi	201cc4 <__bss_end__+0x1f69c4>
     8bc:	4c060505 	cfstr32mi	mvfx0, [r6], {5}
     8c0:	01060c05 	tsteq	r6, r5, lsl #24
     8c4:	06090566 	streq	r0, [r9], -r6, ror #10
     8c8:	05011903 	streq	r1, [r1, #-2307]	; 0xfffff6fd
     8cc:	0501060c 	streq	r0, [r1, #-1548]	; 0xfffff9f4
     8d0:	054c060d 	strbeq	r0, [ip, #-1549]	; 0xfffff9f3
     8d4:	05010629 	streq	r0, [r1, #-1577]	; 0xfffff9d7
     8d8:	052f060d 	streq	r0, [pc, #-1549]!	; 2d3 <__code_start__-0x7d2d>
     8dc:	05010616 	streq	r0, [r1, #-1558]	; 0xfffff9ea
     8e0:	f32f060d 	vmax.u32	d0, d15, d13
     8e4:	01061005 	tsteq	r6, r5
     8e8:	4c061105 	stfmis	f1, [r6], {5}
     8ec:	01061c05 	tsteq	r6, r5, lsl #24
     8f0:	002e1905 	eoreq	r1, lr, r5, lsl #18
     8f4:	66040402 	strvs	r0, [r4], -r2, lsl #8
     8f8:	02001105 	andeq	r1, r0, #1073741825	; 0x40000001
     8fc:	2f060404 	svccs	0x00060404
     900:	02002c05 	andeq	r2, r0, #1280	; 0x500
     904:	01060404 	tsteq	r6, r4, lsl #8
     908:	02001105 	andeq	r1, r0, #1073741825	; 0x40000001
     90c:	4a2e0404 	bmi	b81924 <__bss_end__+0xb76624>
     910:	4f061505 	svcmi	0x00061505
     914:	01064d05 	tsteq	r6, r5, lsl #26
     918:	052e1505 	streq	r1, [lr, #-1285]!	; 0xfffffafb
     91c:	06a30611 	ssateq	r0, #4, r1, lsl #12
     920:	16010566 	strne	r0, [r1], -r6, ror #10
     924:	0903064a 	stmdbeq	r3, {r1, r3, r6, r9, sl}
     928:	05059008 	streq	r9, [r5, #-8]
     92c:	010a0586 	smlabbeq	sl, r6, r5, r0
     930:	01061505 	tsteq	r6, r5, lsl #10
     934:	02002505 	andeq	r2, r0, #20971520	; 0x1400000
     938:	2e060104 	adfcss	f0, f6, f4
     93c:	02000505 	andeq	r0, r0, #20971520	; 0x1400000
     940:	01060104 	tsteq	r6, r4, lsl #2
     944:	02000905 	andeq	r0, r0, #81920	; 0x14000
     948:	4c060304 	stcmi	3, cr0, [r6], {4}
     94c:	02003205 	andeq	r3, r0, #1342177280	; 0x50000000
     950:	01060304 	tsteq	r6, r4, lsl #6
     954:	02002105 	andeq	r2, r0, #1073741825	; 0x40000001
     958:	054a0304 	strbeq	r0, [sl, #-772]	; 0xfffffcfc
     95c:	04020011 	streq	r0, [r2], #-17	; 0xffffffef
     960:	28052e03 	stmdacs	r5, {r0, r1, r9, sl, fp, sp}
     964:	03040200 	movweq	r0, #16896	; 0x4200
     968:	2c052c06 	stccs	12, cr2, [r5], {6}
     96c:	03040200 	movweq	r0, #16896	; 0x4200
     970:	02000106 	andeq	r0, r0, #-2147483647	; 0x80000001
     974:	002e0304 	eoreq	r0, lr, r4, lsl #6
     978:	2e030402 	cdpcs	4, 0, cr0, cr3, cr2, {0}
     97c:	19060505 	stmdbne	r6, {r0, r2, r8, sl}
     980:	062e0613 			; <UNDEFINED> instruction: 0x062e0613
     984:	060d0530 			; <UNDEFINED> instruction: 0x060d0530
     988:	06050501 	streq	r0, [r5], -r1, lsl #10
     98c:	060d054b 	streq	r0, [sp], -fp, asr #10
     990:	06050501 	streq	r0, [r5], -r1, lsl #10
     994:	060d052f 	streq	r0, [sp], -pc, lsr #10
     998:	06050501 	streq	r0, [r5], -r1, lsl #10
     99c:	060d052f 	streq	r0, [sp], -pc, lsr #10
     9a0:	06050501 	streq	r0, [r5], -r1, lsl #10
     9a4:	83136a35 	tsthi	r3, #217088	; 0x35000
     9a8:	13681369 	cmnne	r8, #-1543503871	; 0xa4000001
     9ac:	67060105 	strvs	r0, [r6, -r5, lsl #2]
     9b0:	08230306 	stmdaeq	r3!, {r1, r2, r8, r9}
     9b4:	05010658 	streq	r0, [r1, #-1624]	; 0xfffff9a8
     9b8:	13830605 	orrne	r0, r3, #5242880	; 0x500000
     9bc:	2f062e06 	svccs	0x00062e06
     9c0:	0a052f4c 	beq	14c6f8 <__bss_end__+0x1413f8>
     9c4:	06150501 	ldreq	r0, [r5], -r1, lsl #10
     9c8:	27054a01 	strcs	r4, [r5, -r1, lsl #20]
     9cc:	2e1b050d 	cfmul32cs	mvfx0, mvfx11, mvfx13
     9d0:	052e0e05 	streq	r0, [lr, #-3589]!	; 0xfffff1fb
     9d4:	0d053305 	stceq	3, cr3, [r5, #-20]	; 0xffffffec
     9d8:	13053306 	movwne	r3, #21254	; 0x5306
     9dc:	0d050106 	stfeqs	f0, [r5, #-24]	; 0xffffffe8
     9e0:	66062f06 	strvs	r2, [r6], -r6, lsl #30
     9e4:	02002805 	andeq	r2, r0, #327680	; 0x50000
     9e8:	03060204 	movweq	r0, #25092	; 0x6204
     9ec:	2c052e7a 	stccs	14, cr2, [r5], {122}	; 0x7a
     9f0:	02040200 	andeq	r0, r4, #0, 4
     9f4:	25050106 	strcs	r0, [r5, #-262]	; 0xfffffefa
     9f8:	01040200 	mrseq	r0, R12_usr
     9fc:	05056606 	streq	r6, [r5, #-1542]	; 0xfffff9fa
     a00:	01040200 	mrseq	r0, R12_usr
     a04:	09050106 	stmdbeq	r5, {r1, r2, r8}
     a08:	10054c06 	andne	r4, r5, r6, lsl #24
     a0c:	09050106 	stmdbeq	r5, {r1, r2, r8}
     a10:	0e052f06 	cdpeq	15, 0, cr2, cr5, cr6, {0}
     a14:	0c050106 	stfeqs	f0, [r5], {6}
     a18:	060e052e 	streq	r0, [lr], -lr, lsr #10
     a1c:	0611054f 	ldreq	r0, [r1], -pc, asr #10
     a20:	060d0501 	streq	r0, [sp], -r1, lsl #10
     a24:	0619054c 	ldreq	r0, [r9], -ip, asr #10
     a28:	060d0501 	streq	r0, [sp], -r1, lsl #10
     a2c:	2e66062f 	cdpcs	6, 6, cr0, cr6, cr15, {1}
     a30:	0605052e 	streq	r0, [r5], -lr, lsr #10
     a34:	4a060116 	bmi	180e94 <__bss_end__+0x175b94>
     a38:	05132e06 	ldreq	r2, [r3, #-3590]	; 0xfffff1fa
     a3c:	05010608 	streq	r0, [r1, #-1544]	; 0xfffff9f8
     a40:	014b0609 	cmpeq	fp, r9, lsl #12
     a44:	0402004a 	streq	r0, [r2], #-74	; 0xffffffb6
     a48:	05051401 	streq	r1, [r5, #-1025]	; 0xfffffbff
     a4c:	01040200 	mrseq	r0, R12_usr
     a50:	04020014 	streq	r0, [r2], #-20	; 0xffffffec
     a54:	08054b01 	stmdaeq	r5, {r0, r8, r9, fp, lr}
     a58:	01040200 	mrseq	r0, R12_usr
     a5c:	09050106 	stmdbeq	r5, {r1, r2, r8}
     a60:	17053006 	strne	r3, [r5, -r6]
     a64:	01050106 	tsteq	r5, r6, lsl #2
     a68:	06090534 			; <UNDEFINED> instruction: 0x06090534
     a6c:	014a7503 	cmpeq	sl, r3, lsl #10
     a70:	35030105 	strcc	r0, [r3, #-261]	; 0xfffffefb
     a74:	05012202 	streq	r2, [r1, #-514]	; 0xfffffdfe
     a78:	4b138305 	blmi	4e1694 <__bss_end__+0x4d6394>
     a7c:	0a052f4c 	beq	14c7b4 <__bss_end__+0x1414b4>
     a80:	06150501 	ldreq	r0, [r5], -r1, lsl #10
     a84:	27054a01 	strcs	r4, [r5, -r1, lsl #20]
     a88:	2e1b050d 	cfmul32cs	mvfx0, mvfx11, mvfx13
     a8c:	052e0e05 	streq	r0, [lr, #-3589]!	; 0xfffff1fb
     a90:	0d053305 	stceq	3, cr3, [r5, #-20]	; 0xffffffec
     a94:	13053306 	movwne	r3, #21254	; 0x5306
     a98:	0d050106 	stfeqs	f0, [r5, #-24]	; 0xffffffe8
     a9c:	1e052f06 	cdpne	15, 0, cr2, cr5, cr6, {0}
     aa0:	1a050106 	bne	140ec0 <__bss_end__+0x135bc0>
     aa4:	060d052e 	streq	r0, [sp], -lr, lsr #10
     aa8:	0502042f 	streq	r0, [r2, #-1071]	; 0xfffffbd1
     aac:	7def030b 	stclvc	3, cr0, [pc, #44]!	; ae0 <__code_start__-0x7520>
     ab0:	1305052e 	movwne	r0, #21806	; 0x552e
     ab4:	01060c05 	tsteq	r6, r5, lsl #24
     ab8:	050104ba 	streq	r0, [r1, #-1210]	; 0xfffffb46
     abc:	0290030d 	addseq	r0, r0, #872415232	; 0x34000000
     ac0:	2f066601 	svccs	0x00066601
     ac4:	02002805 	andeq	r2, r0, #327680	; 0x50000
     ac8:	78030204 	stmdavc	r3, {r2, r9}
     acc:	002c0566 	eoreq	r0, ip, r6, ror #10
     ad0:	06020402 	streq	r0, [r2], -r2, lsl #8
     ad4:	00250501 	eoreq	r0, r5, r1, lsl #10
     ad8:	06010402 	streq	r0, [r1], -r2, lsl #8
     adc:	00050566 	andeq	r0, r5, r6, ror #10
     ae0:	06010402 	streq	r0, [r1], -r2, lsl #8
     ae4:	06090501 	streq	r0, [r9], -r1, lsl #10
     ae8:	0610054c 	ldreq	r0, [r0], -ip, asr #10
     aec:	06090501 	streq	r0, [r9], -r1, lsl #10
     af0:	060e052f 	streq	r0, [lr], -pc, lsr #10
     af4:	2e0c0501 	cfsh32cs	mvfx0, mvfx12, #1
     af8:	06050566 	streq	r0, [r5], -r6, ror #10
     afc:	01010903 	tsteq	r1, r3, lsl #18
     b00:	2e068206 	cdpcs	2, 0, cr8, cr6, cr6, {0}
     b04:	06010514 			; <UNDEFINED> instruction: 0x06010514
     b08:	03066613 	movweq	r6, #26131	; 0x6613
     b0c:	3c087dee 	stccc	13, cr7, [r8], {238}	; 0xee
     b10:	05050106 	streq	r0, [r5, #-262]	; 0xfffffefa
     b14:	01148306 	tsteq	r4, r6, lsl #6
     b18:	02040200 	andeq	r0, r4, #0, 4
     b1c:	0402004a 	streq	r0, [r2], #-74	; 0xffffffb6
     b20:	02000102 	andeq	r0, r0, #-2147483648	; 0x80000000
     b24:	05130204 	ldreq	r0, [r3, #-516]	; 0xfffffdfc
     b28:	04020009 	streq	r0, [r2], #-9
     b2c:	05010602 	streq	r0, [r1, #-1538]	; 0xfffff9fe
     b30:	04020008 	streq	r0, [r2], #-8
     b34:	09054a02 	stmdbeq	r5, {r1, r9, fp, lr}
     b38:	13154b06 	tstne	r5, #6144	; 0x1800
     b3c:	01061405 	tsteq	r6, r5, lsl #8
     b40:	0609054a 	streq	r0, [r9], -sl, asr #10
     b44:	0612052f 	ldreq	r0, [r2], -pc, lsr #10
     b48:	06090501 	streq	r0, [r9], -r1, lsl #10
     b4c:	10054b4b 	andne	r4, r5, fp, asr #22
     b50:	05050106 	streq	r0, [r5, #-262]	; 0xfffffefa
     b54:	0c054c06 	stceq	12, cr4, [r5], {6}
     b58:	01050106 	tsteq	r5, r6, lsl #2
     b5c:	0005054b 	andeq	r0, r5, fp, asr #10
     b60:	06010402 	streq	r0, [r1], -r2, lsl #8
     b64:	004a7403 	subeq	r7, sl, r3, lsl #8
     b68:	01010402 	tsteq	r1, r2, lsl #8
     b6c:	01040200 	mrseq	r0, R12_usr
     b70:	0200ba06 	andeq	fp, r0, #24576	; 0x6000
     b74:	2e060104 	adfcss	f0, f6, f4
     b78:	01300905 	teqeq	r0, r5, lsl #18
     b7c:	2e068206 	cdpcs	2, 0, cr8, cr6, cr6, {0}
     b80:	89033805 	stmdbhi	r3, {r0, r2, fp, ip, sp}
     b84:	06740801 	ldrbteq	r0, [r4], -r1, lsl #16
     b88:	06050501 	streq	r0, [r5], -r1, lsl #10
     b8c:	0a051383 	beq	1459a0 <__bss_end__+0x13a6a0>
     b90:	060e0501 	streq	r0, [lr], -r1, lsl #10
     b94:	2d090501 	cfstr32cs	mvfx0, [r9, #-4]
     b98:	052f0505 	streq	r0, [pc, #-1285]!	; 69b <__code_start__-0x7965>
     b9c:	0530060d 	ldreq	r0, [r0, #-1549]!	; 0xfffff9f3
     ba0:	05010612 	streq	r0, [r1, #-1554]	; 0xfffff9ee
     ba4:	04020021 	streq	r0, [r2], #-33	; 0xffffffdf
     ba8:	052c0602 	streq	r0, [ip, #-1538]!	; 0xfffff9fe
     bac:	04020022 	streq	r0, [r2], #-34	; 0xffffffde
     bb0:	05010602 	streq	r0, [r1, #-1538]	; 0xfffff9fe
     bb4:	04020015 	streq	r0, [r2], #-21	; 0xffffffeb
     bb8:	052e0601 	streq	r0, [lr, #-1537]!	; 0xfffff9ff
     bbc:	04020005 	streq	r0, [r2], #-5
     bc0:	05010601 	streq	r0, [r1, #-1537]	; 0xfffff9ff
     bc4:	054b0609 	strbeq	r0, [fp, #-1545]	; 0xfffff9f7
     bc8:	05010614 	streq	r0, [r1, #-1556]	; 0xfffff9ec
     bcc:	16052e0c 	strne	r2, [r5], -ip, lsl #28
     bd0:	0505f906 	streq	pc, [r5, #-2310]	; 0xfffff6fa
     bd4:	0a051367 	beq	145978 <__bss_end__+0x13a678>
     bd8:	06150501 	ldreq	r0, [r5], -r1, lsl #10
     bdc:	09054a01 	stmdbeq	r5, {r0, r9, fp, lr}
     be0:	2f050511 	svccs	0x00050511
     be4:	03061105 	movweq	r1, #24837	; 0x6105
     be8:	06012e09 	streq	r2, [r1], -r9, lsl #28
     bec:	002e0682 	eoreq	r0, lr, r2, lsl #13
     bf0:	4a010402 	bmi	41c00 <__bss_end__+0x36900>
     bf4:	02000905 	andeq	r0, r0, #81920	; 0x14000
     bf8:	05150104 	ldreq	r0, [r5, #-260]	; 0xfffffefc
     bfc:	04020010 	streq	r0, [r2], #-16
     c00:	00010601 	andeq	r0, r1, r1, lsl #12
     c04:	2e010402 	cdpcs	4, 0, cr0, cr1, cr2, {0}
     c08:	02002805 	andeq	r2, r0, #327680	; 0x50000
     c0c:	03060104 	movweq	r0, #24836	; 0x6104
     c10:	2c050174 	stfcss	f0, [r5], {116}	; 0x74
     c14:	01040200 	mrseq	r0, R12_usr
     c18:	25050106 	strcs	r0, [r5, #-262]	; 0xfffffefa
     c1c:	02040200 	andeq	r0, r4, #0, 4
     c20:	05056606 	streq	r6, [r5, #-1542]	; 0xfffff9fa
     c24:	02040200 	andeq	r0, r4, #0, 4
     c28:	09050106 	stmdbeq	r5, {r1, r2, r8}
     c2c:	05134b06 	ldreq	r4, [r3, #-2822]	; 0xfffff4fa
     c30:	4a01061e 	bmi	424b0 <__bss_end__+0x371b0>
     c34:	4b060905 	blmi	183050 <__bss_end__+0x177d50>
     c38:	01063705 	tsteq	r6, r5, lsl #14
     c3c:	052e3f05 	streq	r3, [lr, #-3845]!	; 0xfffff0fb
     c40:	1b052e1e 	blne	14c4c0 <__bss_end__+0x1411c0>
     c44:	06090582 	streq	r0, [r9], -r2, lsl #11
     c48:	4a9e012f 	bmi	fe78110c <__bss_end__+0xfe775e0c>
     c4c:	060e0513 			; <UNDEFINED> instruction: 0x060e0513
     c50:	2e0c0501 	cfsh32cs	mvfx0, mvfx12, #1
     c54:	4b060d05 	blmi	184070 <__bss_end__+0x178d70>
     c58:	01061505 	tsteq	r6, r5, lsl #10
     c5c:	67060d05 	strvs	r0, [r6, -r5, lsl #26]
     c60:	01061f05 	tsteq	r6, r5, lsl #30
     c64:	2f060d05 	svccs	0x00060d05
     c68:	01061005 	tsteq	r6, r5
     c6c:	06050566 	streq	r0, [r5], -r6, ror #10
     c70:	06010518 			; <UNDEFINED> instruction: 0x06010518
     c74:	03062e13 	movweq	r2, #28179	; 0x6e13
     c78:	0620082f 	strteq	r0, [r0], -pc, lsr #16
     c7c:	06050501 	streq	r0, [r5], -r1, lsl #10
     c80:	060c0568 	streq	r0, [ip], -r8, ror #10
     c84:	2f010501 	svccs	0x00010501
     c88:	0505be06 	streq	fp, [r5, #-3590]	; 0xfffff1fa
     c8c:	0905136a 	stmdbeq	r5, {r1, r3, r5, r6, r8, r9, ip}
     c90:	08050106 	stmdaeq	r5, {r1, r2, r8}
     c94:	0609054a 	streq	r0, [r9], -sl, asr #10
     c98:	4a01144b 	bmi	45dcc <__bss_end__+0x3aacc>
     c9c:	05130505 	ldreq	r0, [r3, #-1285]	; 0xfffffafb
     ca0:	05130601 	ldreq	r0, [r3, #-1537]	; 0xfffff9ff
     ca4:	012a0609 			; <UNDEFINED> instruction: 0x012a0609
     ca8:	0801059e 	stmdaeq	r1, {r1, r2, r3, r4, r7, r8, sl}
     cac:	6a050560 	bvs	142234 <__bss_end__+0x136f34>
     cb0:	06170513 			; <UNDEFINED> instruction: 0x06170513
     cb4:	06050501 	streq	r0, [r5], -r1, lsl #10
     cb8:	0608054b 	streq	r0, [r8], -fp, asr #10
     cbc:	06090501 	streq	r0, [r9], -r1, lsl #10
     cc0:	0601144b 	streq	r1, [r1], -fp, asr #8
     cc4:	052e064a 	streq	r0, [lr, #-1610]!	; 0xfffff9b6
     cc8:	05131305 	ldreq	r1, [r3, #-773]	; 0xfffffcfb
     ccc:	05130601 	ldreq	r0, [r3, #-1537]	; 0xfffff9ff
     cd0:	01450609 	cmpeq	r5, r9, lsl #12
     cd4:	0301059e 	movweq	r0, #5534	; 0x159e
     cd8:	0505f221 	streq	pc, [r5, #-545]	; 0xfffffddf
     cdc:	17052f67 	strne	r2, [r5, -r7, ror #30]
     ce0:	05050106 	streq	r0, [r5, #-262]	; 0xfffffefa
     ce4:	01053206 	tsteq	r5, r6, lsl #4
     ce8:	bd061306 	stclt	3, cr1, [r6, #-24]	; 0xffffffe8
     cec:	01670505 	cmneq	r7, r5, lsl #10
     cf0:	0008029e 	muleq	r8, lr, r2
     cf4:	01360101 	teqeq	r6, r1, lsl #2
     cf8:	00030000 	andeq	r0, r3, r0
     cfc:	0000005b 	andeq	r0, r0, fp, asr r0
     d00:	0efb0102 	cdpeq	1, 15, cr0, cr11, cr2, {0}
     d04:	0101000d 	tsteq	r1, sp
     d08:	00000101 	andeq	r0, r0, r1, lsl #2
     d0c:	00000100 	andeq	r0, r0, r0, lsl #2
     d10:	732f2e01 			; <UNDEFINED> instruction: 0x732f2e01
     d14:	2f006372 	svccs	0x00006372
     d18:	72657355 	rsbvc	r7, r5, #1409286145	; 0x54000001
     d1c:	696d2f73 	stmdbvs	sp!, {r0, r1, r4, r5, r6, r8, r9, sl, fp, sp}^
     d20:	2f73656c 	svccs	0x0073656c
     d24:	72756f53 	rsbsvc	r6, r5, #332	; 0x14c
     d28:	632f6563 			; <UNDEFINED> instruction: 0x632f6563
     d2c:	30343273 	eorscc	r3, r4, r3, ror r2
     d30:	6c2f786c 	stcvs	8, cr7, [pc], #-432	; b88 <__code_start__-0x7478>
     d34:	69706269 	ldmdbvs	r0!, {r0, r3, r5, r6, r9, sp, lr}^
     d38:	636e692f 	cmnvs	lr, #770048	; 0xbc000
     d3c:	6564756c 	strbvs	r7, [r4, #-1388]!	; 0xfffffa94
     d40:	61620000 	cmnvs	r2, r0
     d44:	72746b63 	rsbsvc	r6, r4, #101376	; 0x18c00
     d48:	2e656361 	cdpcs	3, 6, cr6, cr5, cr1, {3}
     d4c:	00010063 	andeq	r0, r1, r3, rrx
     d50:	69707200 	ldmdbvs	r0!, {r9, ip, sp, lr}^
     d54:	0200682e 	andeq	r6, r0, #3014656	; 0x2e0000
     d58:	05000000 	streq	r0, [r0, #-0]
     d5c:	02050011 	andeq	r0, r5, #17, 0
     d60:	00008f20 	andeq	r8, r0, r0, lsr #30
     d64:	05011c03 	streq	r1, [r1, #-3075]	; 0xfffff3fd
     d68:	05131305 	ldreq	r1, [r3, #-773]	; 0xfffffcfb
     d6c:	05100611 	ldreq	r0, [r0, #-1553]	; 0xfffff9ef
     d70:	30063005 	andcc	r3, r6, r5
     d74:	05010a05 	streq	r0, [r1, #-2565]	; 0xfffff5fb
     d78:	05050115 	streq	r0, [r5, #-277]	; 0xfffffeeb
     d7c:	0e050106 	adfeqs	f0, f5, f6
     d80:	0310054a 	tsteq	r0, #310378496	; 0x12800000
     d84:	09052e27 	stmdbeq	r5, {r0, r1, r2, r5, r9, sl, fp, sp}
     d88:	4a2e5b03 	bmi	b9799c <__bss_end__+0xb8c69c>
     d8c:	02002f05 	andeq	r2, r0, #5, 30
     d90:	05100204 	ldreq	r0, [r0, #-516]	; 0xfffffdfc
     d94:	04020015 	streq	r0, [r2], #-21	; 0xffffffeb
     d98:	052e0602 	streq	r0, [lr, #-1538]!	; 0xfffff9fe
     d9c:	04020005 	streq	r0, [r2], #-5
     da0:	05010602 	streq	r0, [r1, #-1538]	; 0xfffff9fe
     da4:	034b0609 	movteq	r0, #46601	; 0xb609
     da8:	17050123 	strne	r0, [r5, -r3, lsr #2]
     dac:	015d0306 	cmpeq	sp, r6, lsl #6
     db0:	052f0905 	streq	r0, [pc, #-2309]!	; 4b3 <__code_start__-0x7b4d>
     db4:	2e20030e 	cdpcs	3, 2, cr0, cr0, cr14, {0}
     db8:	31060905 	tstcc	r6, r5, lsl #18
     dbc:	03061205 	movweq	r1, #25093	; 0x6205
     dc0:	0905015c 	stmdbeq	r5, {r2, r3, r4, r6, r8}
     dc4:	0d052f06 	stceq	15, cr2, [r5, #-24]	; 0xffffffe8
     dc8:	05011f03 	streq	r1, [r1, #-3843]	; 0xfffff0fd
     dcc:	05131305 	ldreq	r1, [r3, #-773]	; 0xfffffcfb
     dd0:	05010608 	streq	r0, [r1, #-1544]	; 0xfffff9f8
     dd4:	12052d31 	andne	r2, r5, #3136	; 0xc40
     dd8:	2f310530 	svccs	0x00310530
     ddc:	1410052e 	ldrne	r0, [r0], #-1326	; 0xfffffad2
     de0:	0309052e 	movweq	r0, #38190	; 0x952e
     de4:	4b06015b 	blmi	181358 <__bss_end__+0x176058>
     de8:	050f2e05 	streq	r2, [pc, #-3589]	; ffffffeb <__bss_end__+0xffff4ceb>
     dec:	0515061f 	ldreq	r0, [r5, #-1567]	; 0xfffff9e1
     df0:	052f0609 	streq	r0, [pc, #-1545]!	; 7ef <__code_start__-0x7811>
     df4:	0501060c 	streq	r0, [r1, #-1548]	; 0xfffff9f4
     df8:	0c055001 	stceq	0, cr5, [r5], {1}
     dfc:	2f010549 	svccs	0x00010549
     e00:	03062d05 	movweq	r2, #27909	; 0x6d05
     e04:	05058217 	streq	r8, [r5, #-535]	; 0xfffffde9
     e08:	060e0513 			; <UNDEFINED> instruction: 0x060e0513
     e0c:	06050501 	streq	r0, [r5], -r1, lsl #10
     e10:	0631052f 	ldrteq	r0, [r1], -pc, lsr #10
     e14:	2f080511 	svccs	0x00080511
     e18:	2f060905 	svccs	0x00060905
     e1c:	06120513 			; <UNDEFINED> instruction: 0x06120513
     e20:	2f310511 	svccs	0x00310511
     e24:	1410052e 	ldrne	r0, [r0], #-1326	; 0xfffffad2
     e28:	02300105 	eorseq	r0, r0, #1073741825	; 0x40000001
     e2c:	01010004 	tsteq	r1, r4
     e30:	00000121 	andeq	r0, r0, r1, lsr #2
     e34:	00be0003 	adcseq	r0, lr, r3
     e38:	01020000 	mrseq	r0, (UNDEF: 2)
     e3c:	000d0efb 	strdeq	r0, [sp], -fp
     e40:	01010101 	tsteq	r1, r1, lsl #2
     e44:	01000000 	mrseq	r0, (UNDEF: 0)
     e48:	2e010000 	cdpcs	0, 0, cr0, cr1, cr0, {0}
     e4c:	62696c2f 	rsbvs	r6, r9, #12032	; 0x2f00
     e50:	552f0063 	strpl	r0, [pc, #-99]!	; df5 <__code_start__-0x720b>
     e54:	73726573 	cmnvc	r2, #482344960	; 0x1cc00000
     e58:	6c696d2f 	stclvs	13, cr6, [r9], #-188	; 0xffffff44
     e5c:	532f7365 			; <UNDEFINED> instruction: 0x532f7365
     e60:	6372756f 	cmnvs	r2, #465567744	; 0x1bc00000
     e64:	73632f65 	cmnvc	r3, #404	; 0x194
     e68:	6c303432 	cfldrsvs	mvf3, [r0], #-200	; 0xffffff38
     e6c:	696c2f78 	stmdbvs	ip!, {r3, r4, r5, r6, r8, r9, sl, fp, sp}^
     e70:	2f697062 	svccs	0x00697062
     e74:	6c636e69 	stclvs	14, cr6, [r3], #-420	; 0xfffffe5c
     e78:	00656475 	rsbeq	r6, r5, r5, ror r4
     e7c:	74706f2f 	ldrbtvc	r6, [r0], #-3887	; 0xfffff0d1
     e80:	6d6f682f 	stclvs	8, cr6, [pc, #-188]!	; dcc <__code_start__-0x7234>
     e84:	65726265 	ldrbvs	r6, [r2, #-613]!	; 0xfffffd9b
     e88:	65432f77 	strbvs	r2, [r3, #-3959]	; 0xfffff089
     e8c:	72616c6c 	rsbvc	r6, r1, #108, 24	; 0x6c00
     e90:	6d72612f 	ldfvse	f6, [r2, #-188]!	; 0xffffff44
     e94:	6e6f6e2d 	cdpvs	14, 6, cr6, cr15, cr13, {1}
     e98:	61652d65 	cmnvs	r5, r5, ror #26
     e9c:	392d6962 	pushcc	{r1, r5, r6, r8, fp, sp, lr}
     ea0:	322d392f 	eorcc	r3, sp, #770048	; 0xbc000
     ea4:	71393130 	teqvc	r9, r0, lsr r1
     ea8:	73632d34 	cmnvc	r3, #52, 26	; 0xd00
     eac:	65373031 	ldrvs	r3, [r7, #-49]!	; 0xffffffcf
     eb0:	62696c2f 	rsbvs	r6, r9, #12032	; 0x2f00
     eb4:	6363672f 	cmnvs	r3, #12320768	; 0xbc0000
     eb8:	6d72612f 	ldfvse	f6, [r2, #-188]!	; 0xffffff44
     ebc:	6e6f6e2d 	cdpvs	14, 6, cr6, cr15, cr13, {1}
     ec0:	61652d65 	cmnvs	r5, r5, ror #26
     ec4:	392f6962 	stmdbcc	pc!, {r1, r5, r6, r8, fp, sp, lr}	; <UNPREDICTABLE>
     ec8:	312e322e 			; <UNDEFINED> instruction: 0x312e322e
     ecc:	636e692f 	cmnvs	lr, #770048	; 0xbc000
     ed0:	6564756c 	strbvs	r7, [r4, #-1388]!	; 0xfffffa94
     ed4:	656d0000 	strbvs	r0, [sp, #-0]!
     ed8:	7465736d 	strbtvc	r7, [r5], #-877	; 0xfffffc93
     edc:	0100632e 	tsteq	r0, lr, lsr #6
     ee0:	70720000 	rsbsvc	r0, r2, r0
     ee4:	00682e69 	rsbeq	r2, r8, r9, ror #28
     ee8:	73000002 	movwvc	r0, #2
     eec:	65646474 	strbvs	r6, [r4, #-1140]!	; 0xfffffb8c
     ef0:	00682e66 	rsbeq	r2, r8, r6, ror #28
     ef4:	00000003 	andeq	r0, r0, r3
     ef8:	05002905 	streq	r2, [r0, #-2309]	; 0xfffff6fb
     efc:	008fc002 	addeq	ip, pc, r2
     f00:	05051500 	streq	r1, [r5, #-1280]	; 0xfffffb00
     f04:	06290513 			; <UNDEFINED> instruction: 0x06290513
     f08:	2f140511 	svccs	0x00140511
     f0c:	30060505 	andcc	r0, r6, r5, lsl #10
     f10:	06010a05 	streq	r0, [r1], -r5, lsl #20
     f14:	0609059e 			; <UNDEFINED> instruction: 0x0609059e
     f18:	060e05d7 			; <UNDEFINED> instruction: 0x060e05d7
     f1c:	060a0501 	streq	r0, [sl], -r1, lsl #10
     f20:	bb09052d 	bllt	2423dc <__bss_end__+0x2370dc>
     f24:	01060e05 	tsteq	r6, r5, lsl #28
     f28:	060a052e 	streq	r0, [sl], -lr, lsr #10
     f2c:	4b09052d 	blmi	2423e8 <__bss_end__+0x2370e8>
     f30:	01060b05 	tsteq	r6, r5, lsl #22
     f34:	052d0a05 	streq	r0, [sp, #-2565]!	; 0xfffff5fb
     f38:	0a052f0e 	beq	14cb78 <__bss_end__+0x141878>
     f3c:	0e052d06 	cdpeq	13, 0, cr2, cr5, cr6, {0}
     f40:	09051306 	stmdbeq	r5, {r1, r2, r8, r9, ip}
     f44:	0a052e06 	beq	14c764 <__bss_end__+0x141464>
     f48:	14050511 	strne	r0, [r5], #-1297	; 0xfffffaef
     f4c:	13060105 	movwne	r0, #24837	; 0x6105
     f50:	01000202 	tsteq	r0, r2, lsl #4
     f54:	00012001 	andeq	r2, r1, r1
     f58:	db000300 	blle	1b60 <__code_start__-0x64a0>
     f5c:	02000000 	andeq	r0, r0, #0, 0
     f60:	0d0efb01 	vstreq	d15, [lr, #-4]
     f64:	01010100 	mrseq	r0, (UNDEF: 17)
     f68:	00000001 	andeq	r0, r0, r1
     f6c:	01000001 	tsteq	r0, r1
     f70:	696c2f2e 	stmdbvs	ip!, {r1, r2, r3, r5, r8, r9, sl, fp, sp}^
     f74:	2f006362 	svccs	0x00006362
     f78:	2f74706f 	svccs	0x0074706f
     f7c:	656d6f68 	strbvs	r6, [sp, #-3944]!	; 0xfffff098
     f80:	77657262 	strbvc	r7, [r5, -r2, ror #4]!
     f84:	6c65432f 	stclvs	3, cr4, [r5], #-188	; 0xffffff44
     f88:	2f72616c 	svccs	0x0072616c
     f8c:	2d6d7261 	sfmcs	f7, 2, [sp, #-388]!	; 0xfffffe7c
     f90:	656e6f6e 	strbvs	r6, [lr, #-3950]!	; 0xfffff092
     f94:	6261652d 	rsbvs	r6, r1, #188743680	; 0xb400000
     f98:	2f392d69 	svccs	0x00392d69
     f9c:	30322d39 	eorscc	r2, r2, r9, lsr sp
     fa0:	34713931 	ldrbtcc	r3, [r1], #-2353	; 0xfffff6cf
     fa4:	3173632d 	cmncc	r3, sp, lsr #6
     fa8:	2f653730 	svccs	0x00653730
     fac:	2f62696c 	svccs	0x0062696c
     fb0:	2f636367 	svccs	0x00636367
     fb4:	2d6d7261 	sfmcs	f7, 2, [sp, #-388]!	; 0xfffffe7c
     fb8:	656e6f6e 	strbvs	r6, [lr, #-3950]!	; 0xfffff092
     fbc:	6261652d 	rsbvs	r6, r1, #188743680	; 0xb400000
     fc0:	2e392f69 	cdpcs	15, 3, cr2, cr9, cr9, {3}
     fc4:	2f312e32 	svccs	0x00312e32
     fc8:	6c636e69 	stclvs	14, cr6, [r3], #-420	; 0xfffffe5c
     fcc:	00656475 	rsbeq	r6, r5, r5, ror r4
     fd0:	6573552f 	ldrbvs	r5, [r3, #-1327]!	; 0xfffffad1
     fd4:	6d2f7372 	stcvs	3, cr7, [pc, #-456]!	; e14 <__code_start__-0x71ec>
     fd8:	73656c69 	cmnvc	r5, #26880	; 0x6900
     fdc:	756f532f 	strbvc	r5, [pc, #-815]!	; cb5 <__code_start__-0x734b>
     fe0:	2f656372 	svccs	0x00656372
     fe4:	34327363 	ldrtcc	r7, [r2], #-867	; 0xfffffc9d
     fe8:	2f786c30 	svccs	0x00786c30
     fec:	7062696c 	rsbvc	r6, r2, ip, ror #18
     ff0:	6e692f69 	cdpvs	15, 6, cr2, cr9, cr9, {3}
     ff4:	64756c63 	ldrbtvs	r6, [r5], #-3171	; 0xfffff39d
     ff8:	70000065 	andvc	r0, r0, r5, rrx
     ffc:	746e6972 	strbtvc	r6, [lr], #-2418	; 0xfffff68e
    1000:	00632e6b 	rsbeq	r2, r3, fp, ror #28
    1004:	73000001 	movwvc	r0, #1
    1008:	72616474 	rsbvc	r6, r1, #116, 8	; 0x74000000
    100c:	00682e67 	rsbeq	r2, r8, r7, ror #28
    1010:	72000002 	andvc	r0, r0, #2, 0
    1014:	682e6970 	stmdavs	lr!, {r4, r5, r6, r8, fp, sp, lr}
    1018:	00000300 	andeq	r0, r0, r0, lsl #6
    101c:	6975623c 	ldmdbvs	r5!, {r2, r3, r4, r5, r9, sp, lr}^
    1020:	692d746c 	pushvs	{r2, r3, r5, r6, sl, ip, sp, lr}
    1024:	00003e6e 	andeq	r3, r0, lr, ror #28
    1028:	61760000 	cmnvs	r6, r0
    102c:	6972702d 	ldmdbvs	r2!, {r0, r2, r3, r5, ip, sp, lr}^
    1030:	2e6b746e 	cdpcs	4, 6, cr7, cr11, cr14, {3}
    1034:	00010068 	andeq	r0, r1, r8, rrx
    1038:	22050000 	andcs	r0, r5, #0, 0
    103c:	38020500 	stmdacc	r2, {r8, sl}
    1040:	17000090 			; <UNDEFINED> instruction: 0x17000090
    1044:	13140505 	tstne	r4, #20971520	; 0x1400000
    1048:	06220514 			; <UNDEFINED> instruction: 0x06220514
    104c:	5012050d 	andspl	r0, r2, sp, lsl #10
    1050:	7a032205 	bvc	c986c <__bss_end__+0xbe56c>
    1054:	3305052e 	movwcc	r0, #21806	; 0x552e
    1058:	052f1205 	streq	r1, [pc, #-517]!	; e5b <__code_start__-0x71a5>
    105c:	09056505 	stmdbeq	r5, {r0, r2, r8, sl, sp, lr}
    1060:	12052f06 	andne	r2, r5, #6, 30
    1064:	05050106 	streq	r0, [r5, #-262]	; 0xfffffefa
    1068:	06164b06 	ldreq	r4, [r6], -r6, lsl #22
    106c:	0550064a 	ldrbeq	r0, [r0, #-1610]	; 0xfffff9b6
    1070:	66130601 	ldrvs	r0, [r3], -r1, lsl #12
    1074:	01000802 	tsteq	r0, r2, lsl #16
    1078:	0000a001 	andeq	sl, r0, r1
    107c:	57000300 	strpl	r0, [r0, -r0, lsl #6]
    1080:	02000000 	andeq	r0, r0, #0, 0
    1084:	0d0efb01 	vstreq	d15, [lr, #-4]
    1088:	01010100 	mrseq	r0, (UNDEF: 17)
    108c:	00000001 	andeq	r0, r0, r1
    1090:	01000001 	tsteq	r0, r1
    1094:	696c2f2e 	stmdbvs	ip!, {r1, r2, r3, r5, r8, r9, sl, fp, sp}^
    1098:	2f006362 	svccs	0x00006362
    109c:	72657355 	rsbvc	r7, r5, #1409286145	; 0x54000001
    10a0:	696d2f73 	stmdbvs	sp!, {r0, r1, r4, r5, r6, r8, r9, sl, fp, sp}^
    10a4:	2f73656c 	svccs	0x0073656c
    10a8:	72756f53 	rsbsvc	r6, r5, #332	; 0x14c
    10ac:	632f6563 			; <UNDEFINED> instruction: 0x632f6563
    10b0:	30343273 	eorscc	r3, r4, r3, ror r2
    10b4:	6c2f786c 	stcvs	8, cr7, [pc], #-432	; f0c <__code_start__-0x70f4>
    10b8:	69706269 	ldmdbvs	r0!, {r0, r3, r5, r6, r9, sp, lr}^
    10bc:	636e692f 	cmnvs	lr, #770048	; 0xbc000
    10c0:	6564756c 	strbvs	r7, [r4, #-1388]!	; 0xfffffa94
    10c4:	75700000 	ldrbvc	r0, [r0, #-0]!
    10c8:	632e6b74 			; <UNDEFINED> instruction: 0x632e6b74
    10cc:	00000100 	andeq	r0, r0, r0, lsl #2
    10d0:	2e697072 	mcrcs	0, 3, r7, cr9, cr2, {3}
    10d4:	00020068 	andeq	r0, r2, r8, rrx
    10d8:	22050000 	andcs	r0, r5, #0, 0
    10dc:	90020500 	andls	r0, r2, r0, lsl #10
    10e0:	15000090 	strne	r0, [r0, #-144]	; 0xffffff70
    10e4:	05130505 	ldreq	r0, [r3, #-1285]	; 0xfffffafb
    10e8:	2e110622 	cfmsub32cs	mvax1, mvfx0, mvfx1, mvfx2
    10ec:	2f060b05 	svccs	0x00060b05
    10f0:	2e060505 	cfsh32cs	mvfx0, mvfx6, #5
    10f4:	02000905 	andeq	r0, r0, #81920	; 0x14000
    10f8:	67060204 	strvs	r0, [r6, -r4, lsl #4]
    10fc:	02000f05 	andeq	r0, r0, #5, 30
    1100:	05490204 	strbeq	r0, [r9, #-516]	; 0xfffffdfc
    1104:	0402000b 	streq	r0, [r2], #-11
    1108:	05050102 	streq	r0, [r5, #-258]	; 0xfffffefe
    110c:	02040200 	andeq	r0, r4, #0, 4
    1110:	4e062e06 	cdpmi	14, 0, cr2, cr6, cr6, {0}
    1114:	13060105 	movwne	r0, #24837	; 0x6105
    1118:	01000602 	tsteq	r0, r2, lsl #12
    111c:	0008fa01 	andeq	pc, r8, r1, lsl #20
    1120:	f1000300 			; <UNDEFINED> instruction: 0xf1000300
    1124:	02000000 	andeq	r0, r0, #0, 0
    1128:	0d0efb01 	vstreq	d15, [lr, #-4]
    112c:	01010100 	mrseq	r0, (UNDEF: 17)
    1130:	00000001 	andeq	r0, r0, r1
    1134:	01000001 	tsteq	r0, r1
    1138:	696c2f2e 	stmdbvs	ip!, {r1, r2, r3, r5, r8, r9, sl, fp, sp}^
    113c:	2f006362 	svccs	0x00006362
    1140:	2f74706f 	svccs	0x0074706f
    1144:	656d6f68 	strbvs	r6, [sp, #-3944]!	; 0xfffff098
    1148:	77657262 	strbvc	r7, [r5, -r2, ror #4]!
    114c:	6c65432f 	stclvs	3, cr4, [r5], #-188	; 0xffffff44
    1150:	2f72616c 	svccs	0x0072616c
    1154:	2d6d7261 	sfmcs	f7, 2, [sp, #-388]!	; 0xfffffe7c
    1158:	656e6f6e 	strbvs	r6, [lr, #-3950]!	; 0xfffff092
    115c:	6261652d 	rsbvs	r6, r1, #188743680	; 0xb400000
    1160:	2f392d69 	svccs	0x00392d69
    1164:	30322d39 	eorscc	r2, r2, r9, lsr sp
    1168:	34713931 	ldrbtcc	r3, [r1], #-2353	; 0xfffff6cf
    116c:	3173632d 	cmncc	r3, sp, lsr #6
    1170:	2f653730 	svccs	0x00653730
    1174:	2f62696c 	svccs	0x0062696c
    1178:	2f636367 	svccs	0x00636367
    117c:	2d6d7261 	sfmcs	f7, 2, [sp, #-388]!	; 0xfffffe7c
    1180:	656e6f6e 	strbvs	r6, [lr, #-3950]!	; 0xfffff092
    1184:	6261652d 	rsbvs	r6, r1, #188743680	; 0xb400000
    1188:	2e392f69 	cdpcs	15, 3, cr2, cr9, cr9, {3}
    118c:	2f312e32 	svccs	0x00312e32
    1190:	6c636e69 	stclvs	14, cr6, [r3], #-420	; 0xfffffe5c
    1194:	00656475 	rsbeq	r6, r5, r5, ror r4
    1198:	6573552f 	ldrbvs	r5, [r3, #-1327]!	; 0xfffffad1
    119c:	6d2f7372 	stcvs	3, cr7, [pc, #-456]!	; fdc <__code_start__-0x7024>
    11a0:	73656c69 	cmnvc	r5, #26880	; 0x6900
    11a4:	756f532f 	strbvc	r5, [pc, #-815]!	; e7d <__code_start__-0x7183>
    11a8:	2f656372 	svccs	0x00656372
    11ac:	34327363 	ldrtcc	r7, [r2], #-867	; 0xfffffc9d
    11b0:	2f786c30 	svccs	0x00786c30
    11b4:	7062696c 	rsbvc	r6, r2, ip, ror #18
    11b8:	6e692f69 	cdpvs	15, 6, cr2, cr9, cr9, {3}
    11bc:	64756c63 	ldrbtvs	r6, [r5], #-3171	; 0xfffff39d
    11c0:	76000065 	strvc	r0, [r0], -r5, rrx
    11c4:	72702d61 	rsbsvc	r2, r0, #6208	; 0x1840
    11c8:	6b746e69 	blvs	1d1cb74 <__bss_end__+0x1d11874>
    11cc:	0100632e 	tsteq	r0, lr, lsr #6
    11d0:	74730000 	ldrbtvc	r0, [r3], #-0
    11d4:	746e6964 	strbtvc	r6, [lr], #-2404	; 0xfffff69c
    11d8:	6363672d 	cmnvs	r3, #11796480	; 0xb40000
    11dc:	0200682e 	andeq	r6, r0, #3014656	; 0x2e0000
    11e0:	70720000 	rsbsvc	r0, r2, r0
    11e4:	00682e69 	rsbeq	r2, r8, r9, ror #28
    11e8:	72000003 	andvc	r0, r0, #3, 0
    11ec:	692d6970 	pushvs	{r4, r5, r6, r8, fp, sp, lr}
    11f0:	7265746e 	rsbvc	r7, r5, #1845493760	; 0x6e000000
    11f4:	2e6c616e 	powcsez	f6, f4, #0.5
    11f8:	00030068 	andeq	r0, r3, r8, rrx
    11fc:	64747300 	ldrbtvs	r7, [r4], #-768	; 0xfffffd00
    1200:	2e677261 	cdpcs	2, 6, cr7, cr7, cr1, {3}
    1204:	00020068 	andeq	r0, r2, r8, rrx
    1208:	75623c00 	strbvc	r3, [r2, #-3072]!	; 0xfffff400
    120c:	2d746c69 	ldclcs	12, cr6, [r4, #-420]!	; 0xfffffe5c
    1210:	003e6e69 	eorseq	r6, lr, r9, ror #28
    1214:	00000000 	andeq	r0, r0, r0
    1218:	05000105 	streq	r0, [r0, #-261]	; 0xfffffefb
    121c:	0090c802 	addseq	ip, r0, r2, lsl #16
    1220:	00c80300 	sbceq	r0, r8, r0, lsl #6
    1224:	14020501 	strne	r0, [r2], #-1281	; 0xfffffaff
    1228:	10060105 	andne	r0, r6, r5, lsl #2
    122c:	05300405 	ldreq	r0, [r0, #-1029]!	; 0xfffffbfb
    1230:	054a2c01 	strbeq	r2, [sl, #-3073]	; 0xfffff3ff
    1234:	02053004 	andeq	r3, r5, #4, 0
    1238:	05133106 	ldreq	r3, [r3, #-262]	; 0xfffffefa
    123c:	052e060b 	streq	r0, [lr, #-1547]!	; 0xfffff9f5
    1240:	05300602 	ldreq	r0, [r0, #-1538]!	; 0xfffff9fe
    1244:	24020609 	strcs	r0, [r2], #-1545	; 0xfffff9f7
    1248:	052e2e0d 	streq	r2, [lr, #-3597]!	; 0xfffff1f3
    124c:	1703060d 	strne	r0, [r3, -sp, lsl #12]
    1250:	1311054a 	tstne	r1, #310378496	; 0x12800000
    1254:	01062d05 	tsteq	r6, r5, lsl #26
    1258:	052e1605 	streq	r1, [lr, #-1541]!	; 0xfffff9fb
    125c:	16052f0d 	strne	r2, [r5], -sp, lsl #30
    1260:	0614052d 	ldreq	r0, [r4], -sp, lsr #10
    1264:	0617052f 	ldreq	r0, [r7], -pc, lsr #10
    1268:	2e0d0501 	cfsh32cs	mvfx0, mvfx13, #1
    126c:	12052f06 	andne	r2, r5, #6, 30
    1270:	2f2e0106 	svccs	0x002e0106
    1274:	060d052d 	streq	r0, [sp], -sp, lsr #10
    1278:	0612052f 	ldreq	r0, [r2], -pc, lsr #10
    127c:	06190501 	ldreq	r0, [r9], -r1, lsl #10
    1280:	0304052f 	movweq	r0, #17711	; 0x452f
    1284:	05010111 	streq	r0, [r1, #-273]	; 0xfffffeef
    1288:	0e051502 	cfsh32eq	mvfx1, mvfx5, #2
    128c:	017fb203 	cmneq	pc, r3, lsl #4
    1290:	05130205 	ldreq	r0, [r3, #-517]	; 0xfffffdfb
    1294:	05010606 	streq	r0, [r1, #-1542]	; 0xfffff9fa
    1298:	05300602 	ldreq	r0, [r0, #-1538]!	; 0xfffff9fe
    129c:	02050108 	andeq	r0, r5, #2
    12a0:	054a0106 	strbeq	r0, [sl, #-262]	; 0xfffffefa
    12a4:	05910808 	ldreq	r0, [r1, #2056]	; 0x808
    12a8:	054a0603 	strbeq	r0, [sl, #-1539]	; 0xfffff9fd
    12ac:	05010608 	streq	r0, [r1, #-1544]	; 0xfffff9f8
    12b0:	052d0615 	streq	r0, [sp, #-1557]!	; 0xfffff9eb
    12b4:	03050108 	movweq	r0, #20744	; 0x5108
    12b8:	060805d7 			; <UNDEFINED> instruction: 0x060805d7
    12bc:	2d180501 	cfldr32cs	mvfx0, [r8, #-4]
    12c0:	052e0205 	streq	r0, [lr, #-517]!	; 0xfffffdfb
    12c4:	15052f08 	strne	r2, [r5, #-3848]	; 0xfffff0f8
    12c8:	08052d06 	stmdaeq	r5, {r1, r2, r8, sl, fp, sp}
    12cc:	06020501 	streq	r0, [r2], -r1, lsl #10
    12d0:	06030501 	streq	r0, [r3], -r1, lsl #10
    12d4:	0618052f 	ldreq	r0, [r8], -pc, lsr #10
    12d8:	2e020511 	mcrcs	5, 0, r0, cr2, cr1, {0}
    12dc:	052f0805 	streq	r0, [pc, #-2053]!	; adf <__code_start__-0x7521>
    12e0:	052d0615 	streq	r0, [sp, #-1557]!	; 0xfffff9eb
    12e4:	03050108 	movweq	r0, #20744	; 0x5108
    12e8:	06080513 			; <UNDEFINED> instruction: 0x06080513
    12ec:	06150501 	ldreq	r0, [r5], -r1, lsl #10
    12f0:	0108052d 	tsteq	r8, sp, lsr #10
    12f4:	02050106 	andeq	r0, r5, #-2147483647	; 0x80000001
    12f8:	0505a006 	streq	sl, [r5, #-6]
    12fc:	04050106 	streq	r0, [r5], #-262	; 0xfffffefa
    1300:	2f110536 	svccs	0x00110536
    1304:	052e0905 	streq	r0, [lr, #-2309]!	; 0xfffff6fb
    1308:	05053302 	streq	r3, [r5, #-770]	; 0xfffffcfe
    130c:	052e7203 	streq	r7, [lr, #-515]!	; 0xfffffdfd
    1310:	062f0602 	strteq	r0, [pc], -r2, lsl #12
    1314:	060e0501 	streq	r0, [lr], -r1, lsl #10
    1318:	14020516 	strne	r0, [r2], #-1302	; 0xfffffaea
    131c:	13030513 	movwne	r0, #13587	; 0x3513
    1320:	15140205 	ldrne	r0, [r4, #-517]	; 0xfffffdfb
    1324:	05010b05 	streq	r0, [r1, #-2821]	; 0xfffff4fb
    1328:	2e010602 	cfmadd32cs	mvax0, mvfx0, mvfx1, mvfx2
    132c:	67060305 	strvs	r0, [r6, -r5, lsl #6]
    1330:	01060a05 	tsteq	r6, r5, lsl #20
    1334:	052d0205 	streq	r0, [sp, #-517]!	; 0xfffffdfb
    1338:	17052f0a 	strne	r2, [r5, -sl, lsl #30]
    133c:	0b052d06 	bleq	14c75c <__bss_end__+0x14145c>
    1340:	06020501 	streq	r0, [r2], -r1, lsl #10
    1344:	4c090501 	cfstr32mi	mvfx0, [r9], {1}
    1348:	0602052e 	streq	r0, [r2], -lr, lsr #10
    134c:	0609052e 	streq	r0, [r9], -lr, lsr #10
    1350:	06020501 	streq	r0, [r2], -r1, lsl #10
    1354:	05010630 	streq	r0, [r1, #-1584]	; 0xfffff9d0
    1358:	01380301 	teqeq	r8, r1, lsl #6
    135c:	4f030905 	svcmi	0x00030905
    1360:	052e2e4a 	streq	r2, [lr, #-3658]!	; 0xfffff1b6
    1364:	27030619 	smladcs	r3, r9, r6, r0
    1368:	131a054a 	tstne	sl, #310378496	; 0x12800000
    136c:	01062805 	tsteq	r6, r5, lsl #16
    1370:	052e1f05 	streq	r1, [lr, #-3845]!	; 0xfffff0fb
    1374:	1f052f04 	svcne	0x00052f04
    1378:	060b052d 	streq	r0, [fp], -sp, lsr #10
    137c:	060e052f 	streq	r0, [lr], -pc, lsr #10
    1380:	2e040501 	cfsh32cs	mvfx0, mvfx4, #1
    1384:	03060205 	movweq	r0, #25093	; 0x6205
    1388:	05134a59 	ldreq	r4, [r3, #-2649]	; 0xfffff5a7
    138c:	052e060b 	streq	r0, [lr, #-1547]!	; 0xfffff9f5
    1390:	05300602 	ldreq	r0, [r0, #-1538]!	; 0xfffff9fe
    1394:	24020609 	strcs	r0, [r2], #-1545	; 0xfffff9f7
    1398:	0604050d 	streq	r0, [r4], -sp, lsl #10
    139c:	06051336 			; <UNDEFINED> instruction: 0x06051336
    13a0:	05050106 	streq	r0, [r5, #-262]	; 0xfffffefa
    13a4:	13136706 	tstne	r3, #1572864	; 0x180000
    13a8:	11060905 	tstne	r6, r5, lsl #18
    13ac:	052b0d05 	streq	r0, [fp, #-3333]!	; 0xfffff2fb
    13b0:	0d05300b 	stceq	0, cr3, [r5, #-44]	; 0xffffffd4
    13b4:	351b052c 	ldrcc	r0, [fp, #-1324]	; 0xfffffad4
    13b8:	2d060405 	cfstrscs	mvf0, [r6, #-20]	; 0xffffffec
    13bc:	05130505 	ldreq	r0, [r3, #-1285]	; 0xfffffafb
    13c0:	052e061b 	streq	r0, [lr, #-1563]!	; 0xfffff9e5
    13c4:	0405820a 	streq	r8, [r5], #-522	; 0xfffffdf6
    13c8:	2e0e052f 	cfsh32cs	mvfx0, mvfx14, #31
    13cc:	05490a05 	strbeq	r0, [r9, #-2565]	; 0xfffff5fb
    13d0:	052f060b 	streq	r0, [pc, #-1547]!	; dcd <__code_start__-0x7233>
    13d4:	06010604 	streq	r0, [r1], -r4, lsl #12
    13d8:	0606052f 	streq	r0, [r6], -pc, lsr #10
    13dc:	06050501 	streq	r0, [r5], -r1, lsl #10
    13e0:	060a052f 	streq	r0, [sl], -pc, lsr #10
    13e4:	07052e01 	streq	r2, [r5, -r1, lsl #28]
    13e8:	052e2e2e 	streq	r2, [lr, #-3630]!	; 0xfffff1d2
    13ec:	0d030604 	stceq	6, cr0, [r3, #-16]
    13f0:	06020501 	streq	r0, [r2], -r1, lsl #10
    13f4:	05014603 	streq	r4, [r1, #-1539]	; 0xfffff9fd
    13f8:	2e3a0309 	cdpcs	3, 3, cr0, cr10, cr9, {0}
    13fc:	2f060405 	svccs	0x00060405
    1400:	01010d03 	tsteq	r1, r3, lsl #26
    1404:	05150205 	ldreq	r0, [r5, #-517]	; 0xfffffdfb
    1408:	7fb2030e 	svcvc	0x00b2030e
    140c:	13020501 	movwne	r0, #9473	; 0x2501
    1410:	01080514 	tsteq	r8, r4, lsl r5
    1414:	10060605 	andne	r0, r6, r5, lsl #12
    1418:	052e3c03 	streq	r3, [lr, #-3075]!	; 0xfffff3fd
    141c:	4a460302 	bmi	118202c <__bss_end__+0x1176d2c>
    1420:	05053006 	streq	r3, [r5, #-6]
    1424:	2e2e0106 	sufcse	f0, f6, f6
    1428:	4b060205 	blmi	181c44 <__bss_end__+0x176944>
    142c:	0e050106 	adfeqs	f0, f5, f6
    1430:	02051606 	andeq	r1, r5, #6291456	; 0x600000
    1434:	15151314 	ldrne	r1, [r5, #-788]	; 0xfffffcec
    1438:	05010b05 	streq	r0, [r1, #-2821]	; 0xfffff4fb
    143c:	062e0602 	strteq	r0, [lr], -r2, lsl #12
    1440:	06090530 			; <UNDEFINED> instruction: 0x06090530
    1444:	06020501 	streq	r0, [r2], -r1, lsl #10
    1448:	0501064c 	streq	r0, [r1, #-1612]	; 0xfffff9b4
    144c:	01380301 	teqeq	r8, r1, lsl #6
    1450:	6e030605 	cfmadd32vs	mvax0, mvfx0, mvfx3, mvfx5
    1454:	0302054a 	movweq	r0, #9546	; 0x254a
    1458:	2e4a6646 	cdpcs	6, 4, cr6, cr10, cr6, {2}
    145c:	03060405 	movweq	r0, #25605	; 0x6405
    1460:	010100c8 	smlabteq	r1, r8, r0, r0
    1464:	2e060101 	adfcss	f0, f6, f1
    1468:	034a0682 	movteq	r0, #42626	; 0xa682
    146c:	09052e72 	stmdbeq	r5, {r1, r4, r5, r6, r9, sl, fp, sp}
    1470:	04050106 	streq	r0, [r5], #-262	; 0xfffffefa
    1474:	0d032f06 	stceq	15, cr2, [r3, #-24]	; 0xffffffe8
    1478:	02050101 	andeq	r0, r5, #1073741824	; 0x40000000
    147c:	030e0515 	movweq	r0, #58645	; 0xe515
    1480:	05017fb2 	streq	r7, [r1, #-4018]	; 0xfffff04e
    1484:	05141302 	ldreq	r1, [r4, #-770]	; 0xfffffcfe
    1488:	09050108 	stmdbeq	r5, {r3, r8}
    148c:	011b0306 	tsteq	fp, r6, lsl #6
    1490:	63030605 	movwvs	r0, #13829	; 0x3605
    1494:	2e3c032e 	cdpcs	3, 3, cr0, cr12, cr14, {1}
    1498:	48052e2e 	stmdami	r5, {r1, r2, r3, r5, r9, sl, fp, sp}
    149c:	7fb40306 	svcvc	0x00b40306
    14a0:	05053c08 	streq	r3, [r5, #-3080]	; 0xfffff3f8
    14a4:	2e060113 	mcrcs	1, 0, r0, cr6, cr3, {0}
    14a8:	02040200 	andeq	r0, r4, #0, 4
    14ac:	02002e06 	andeq	r2, r0, #96	; 0x60
    14b0:	00010204 	andeq	r0, r1, r4, lsl #4
    14b4:	13020402 	movwne	r0, #9218	; 0x2402
    14b8:	02001105 	andeq	r1, r0, #1073741825	; 0x40000001
    14bc:	01060204 	tsteq	r6, r4, lsl #4
    14c0:	02000705 	andeq	r0, r0, #1310720	; 0x140000
    14c4:	052f0204 	streq	r0, [pc, #-516]!	; 12c8 <__code_start__-0x6d38>
    14c8:	04020011 	streq	r0, [r2], #-17	; 0xffffffef
    14cc:	05052d02 	streq	r2, [r5, #-3330]	; 0xfffff2fe
    14d0:	02040200 	andeq	r0, r4, #0, 4
    14d4:	09052f06 	stmdbeq	r5, {r1, r2, r8, r9, sl, fp, sp}
    14d8:	02040200 	andeq	r0, r4, #0, 4
    14dc:	000e0513 	andeq	r0, lr, r3, lsl r5
    14e0:	06020402 	streq	r0, [r2], -r2, lsl #8
    14e4:	00050501 	andeq	r0, r5, r1, lsl #10
    14e8:	06010402 	streq	r0, [r1], -r2, lsl #8
    14ec:	04020063 	streq	r0, [r2], #-99	; 0xffffff9d
    14f0:	48050101 	stmdami	r5, {r0, r8}
    14f4:	01040200 	mrseq	r0, R12_usr
    14f8:	05051106 	streq	r1, [r5, #-262]	; 0xfffffefa
    14fc:	01040200 	mrseq	r0, R12_usr
    1500:	0048052f 	subeq	r0, r8, pc, lsr #10
    1504:	2d010402 	cfstrscs	mvf0, [r1, #-8]
    1508:	02000505 	andeq	r0, r0, #20971520	; 0x1400000
    150c:	002f0104 	eoreq	r0, pc, r4, lsl #2
    1510:	4a010402 	bmi	42520 <__bss_end__+0x37220>
    1514:	01040200 	mrseq	r0, R12_usr
    1518:	0402004a 	streq	r0, [r2], #-74	; 0xffffffb6
    151c:	054a0601 	strbeq	r0, [sl, #-1537]	; 0xfffff9ff
    1520:	00e10340 	rsceq	r0, r1, r0, asr #6
    1524:	050106d6 	streq	r0, [r1, #-1750]	; 0xfffff92a
    1528:	052e4e09 	streq	r4, [lr, #-3593]!	; 0xfffff1f7
    152c:	1e053008 	cdpne	0, 0, cr3, cr5, cr8, {0}
    1530:	2e120529 	cfmul64cs	mvdx0, mvdx2, mvdx9
    1534:	05330d05 	ldreq	r0, [r3, #-3333]!	; 0xfffff2fb
    1538:	05450602 	strbeq	r0, [r5, #-1538]	; 0xfffff9fe
    153c:	02051305 	andeq	r1, r5, #335544320	; 0x14000000
    1540:	13050514 	movwne	r0, #21780	; 0x5514
    1544:	05130205 	ldreq	r0, [r3, #-517]	; 0xfffffdfb
    1548:	40050108 	andmi	r0, r5, r8, lsl #2
    154c:	017a0306 	cmneq	sl, r6, lsl #6
    1550:	340d052e 	strcc	r0, [sp], #-1326	; 0xfffffad2
    1554:	03110566 	tsteq	r1, #427819008	; 0x19800000
    1558:	054a4a20 	strbeq	r4, [sl, #-2592]	; 0xfffff5e0
    155c:	62030604 	andvs	r0, r3, #4, 12	; 0x400000
    1560:	06090501 	streq	r0, [r9], -r1, lsl #10
    1564:	2e0f0501 	cfsh32cs	mvfx0, mvfx15, #1
    1568:	2c060805 	stccs	8, cr0, [r6], {5}
    156c:	2e060d05 	cdpcs	13, 0, cr0, cr6, cr5, {0}
    1570:	67060305 	strvs	r0, [r6, -r5, lsl #6]
    1574:	01060505 	tsteq	r6, r5, lsl #10
    1578:	4d060805 	stcmi	8, cr0, [r6, #-20]	; 0xffffffec
    157c:	01060e05 	tsteq	r6, r5, lsl #28
    1580:	052e0a05 	streq	r0, [lr, #-2565]!	; 0xfffff5fb
    1584:	04052f09 	streq	r2, [r5], #-3849	; 0xfffff0f7
    1588:	07052f06 	streq	r2, [r5, -r6, lsl #30]
    158c:	0a050106 	beq	1419ac <__bss_end__+0x1366ac>
    1590:	0604052c 	streq	r0, [r4], -ip, lsr #10
    1594:	062d0532 			; <UNDEFINED> instruction: 0x062d0532
    1598:	017f9803 	cmneq	pc, r3, lsl #16
    159c:	ed030905 	vstr.16	s0, [r3, #-10]
    15a0:	0d052e00 	stceq	14, cr2, [r5, #-0]
    15a4:	2b07052c 	blcs	1c2a5c <__bss_end__+0x1b775c>
    15a8:	30060405 	andcc	r0, r6, r5, lsl #8
    15ac:	09051413 	stmdbeq	r5, {r0, r1, r4, sl, ip}
    15b0:	030c0501 	movweq	r0, #50433	; 0xc501
    15b4:	05017f93 	streq	r7, [r1, #-3987]	; 0xfffff06d
    15b8:	0106011d 	tsteq	r6, sp, lsl r1
    15bc:	ed030905 	vstr.16	s0, [r3, #-10]
    15c0:	05050100 	streq	r0, [r5, #-256]	; 0xffffff00
    15c4:	12052f06 	andne	r2, r5, #6, 30
    15c8:	2d2e0106 	stfcss	f0, [lr, #-24]!	; 0xffffffe8
    15cc:	052f0b05 	streq	r0, [pc, #-2821]!	; acf <__code_start__-0x7531>
    15d0:	052f0605 	streq	r0, [pc, #-1541]!	; fd3 <__code_start__-0x702d>
    15d4:	0c051009 	stceq	0, cr1, [r5], {9}
    15d8:	017f9303 	cmneq	pc, r3, lsl #6
    15dc:	05011d05 	streq	r1, [r1, #-3333]	; 0xfffff2fb
    15e0:	0501062d 	streq	r0, [r1, #-1581]	; 0xfffff9d3
    15e4:	00ed0309 	rsceq	r0, sp, r9, lsl #6
    15e8:	0604052e 	streq	r0, [r4], -lr, lsr #10
    15ec:	0200014e 	andeq	r0, r0, #-2147483629	; 0x80000013
    15f0:	004a0204 	subeq	r0, sl, r4, lsl #4
    15f4:	01020402 	tsteq	r2, r2, lsl #8
    15f8:	02040200 	andeq	r0, r4, #0, 4
    15fc:	04020015 	streq	r0, [r2], #-21	; 0xffffffeb
    1600:	36020602 	strcc	r0, [r2], -r2, lsl #12
    1604:	04020012 	streq	r0, [r2], #-18	; 0xffffffee
    1608:	02052e02 	andeq	r2, r5, #2, 28
    160c:	00d10306 	sbcseq	r0, r1, r6, lsl #6
    1610:	06070501 	streq	r0, [r7], -r1, lsl #10
    1614:	02052e01 	andeq	r2, r5, #1, 28
    1618:	0b052f06 	bleq	14d238 <__bss_end__+0x141f38>
    161c:	01050106 	tsteq	r5, r6, lsl #2
    1620:	0605052f 	streq	r0, [r5], -pc, lsr #10
    1624:	054a6503 	strbeq	r6, [sl, #-1283]	; 0xfffffafd
    1628:	66010609 	strvs	r0, [r1], -r9, lsl #12
    162c:	9f060505 	svcls	0x00060505
    1630:	11030405 	tstne	r3, r5, lsl #8
    1634:	06070501 	streq	r0, [r7], -r1, lsl #10
    1638:	06040501 	streq	r0, [r4], -r1, lsl #10
    163c:	010a0531 	tsteq	sl, r1, lsr r5
    1640:	02001305 	andeq	r1, r0, #335544320	; 0x14000000
    1644:	2e060104 	adfcss	f0, f6, f4
    1648:	02001005 	andeq	r1, r0, #5, 0
    164c:	052e0104 	streq	r0, [lr, #-260]!	; 0xfffffefc
    1650:	054b0605 	strbeq	r0, [fp, #-1541]	; 0xfffff9fb
    1654:	0601060a 	streq	r0, [r1], -sl, lsl #12
    1658:	0604052d 	streq	r0, [r4], -sp, lsr #10
    165c:	06110501 	ldreq	r0, [r1], -r1, lsl #10
    1660:	667fb603 	ldrbtvs	fp, [pc], -r3, lsl #12
    1664:	02000113 	andeq	r0, r0, #-1073741820	; 0xc0000004
    1668:	ba060204 	blt	181e80 <__bss_end__+0x176b80>
    166c:	1401ba06 	strne	fp, [r1], #-2566	; 0xfffff5fa
    1670:	13061a05 	movwne	r1, #27141	; 0x6a05
    1674:	11052e2e 	tstne	r5, lr, lsr #28
    1678:	1405674e 	strne	r6, [r5], #-1870	; 0xfffff8b2
    167c:	82130568 	andshi	r0, r3, #104, 10	; 0x1a000000
    1680:	78031505 	stmdavc	r3, {r0, r2, r8, sl, ip}
    1684:	0611054a 	ldreq	r0, [r1], -sl, asr #10
    1688:	1413134b 	ldrne	r1, [r3], #-843	; 0xfffffcb5
    168c:	13051413 	movwne	r1, #21523	; 0x5413
    1690:	09050106 	stmdbeq	r5, {r1, r2, r8}
    1694:	0d052f06 	stceq	15, cr2, [r5, #-24]	; 0xffffffe8
    1698:	2e2e0106 	sufcse	f0, f6, f6
    169c:	05bb0905 	ldreq	r0, [fp, #2309]!	; 0x905
    16a0:	09059d0d 	stmdbeq	r5, {r0, r2, r3, r8, sl, fp, ip, pc}
    16a4:	15052f06 	strne	r2, [r5, #-3846]	; 0xfffff0fa
    16a8:	7503062f 	strvc	r0, [r3, #-1583]	; 0xfffff9d1
    16ac:	2e0b034a 	cdpcs	3, 0, cr0, cr11, cr10, {2}
    16b0:	0605054a 	streq	r0, [r5], -sl, asr #10
    16b4:	05012303 	streq	r2, [r1, #-771]	; 0xfffffcfd
    16b8:	2e010609 	cfmadd32cs	mvax0, mvfx0, mvfx1, mvfx9
    16bc:	d7060505 	strle	r0, [r6, -r5, lsl #10]
    16c0:	032e6e03 			; <UNDEFINED> instruction: 0x032e6e03
    16c4:	0905010e 	stmdbeq	r5, {r1, r2, r3, r8}
    16c8:	05050106 	streq	r0, [r5, #-262]	; 0xfffffefa
    16cc:	4a100306 	bmi	4022ec <__bss_end__+0x3f6fec>
    16d0:	ed030105 	stfs	f0, [r3, #-20]	; 0xffffffec
    16d4:	0205017e 	andeq	r0, r5, #-2147483617	; 0x8000001f
    16d8:	14131514 	ldrne	r1, [r3], #-1300	; 0xfffffaec
    16dc:	1a030405 	bne	c26f8 <__bss_end__+0xb73f8>
    16e0:	06090501 	streq	r0, [r9], -r1, lsl #10
    16e4:	03020501 	movweq	r0, #9473	; 0x2501
    16e8:	09052e46 	stmdbeq	r5, {r1, r2, r6, r9, sl, fp, sp}
    16ec:	052e3a03 	streq	r3, [lr, #-2563]!	; 0xfffff5fd
    16f0:	032f0604 			; <UNDEFINED> instruction: 0x032f0604
    16f4:	0501010d 	streq	r0, [r1, #-269]	; 0xfffffef3
    16f8:	0e051502 	cfsh32eq	mvfx1, mvfx5, #2
    16fc:	017fb203 	cmneq	pc, r3, lsl #4
    1700:	14130205 	ldrne	r0, [r3], #-517	; 0xfffffdfb
    1704:	05010805 	streq	r0, [r1, #-2053]	; 0xfffff7fb
    1708:	05010602 	streq	r0, [r1, #-1538]	; 0xfffff9fe
    170c:	03059f08 	movweq	r9, #24328	; 0x5f08
    1710:	01064a06 	tsteq	r6, r6, lsl #20
    1714:	052e0805 	streq	r0, [lr, #-2053]!	; 0xfffff7fb
    1718:	052d0615 	streq	r0, [sp, #-1557]!	; 0xfffff9eb
    171c:	03050108 	movweq	r0, #20744	; 0x5108
    1720:	0501062f 	streq	r0, [r1, #-1583]	; 0xfffff9d1
    1724:	15052e08 	strne	r2, [r5, #-3592]	; 0xfffff1f8
    1728:	08052d06 	stmdaeq	r5, {r1, r2, r8, sl, fp, sp}
    172c:	2f030501 	svccs	0x00030501
    1730:	08050106 	stmdaeq	r5, {r1, r2, r8}
    1734:	0615052e 	ldreq	r0, [r5], -lr, lsr #10
    1738:	0108052d 	tsteq	r8, sp, lsr #10
    173c:	062f0305 	strteq	r0, [pc], -r5, lsl #6
    1740:	2e080501 	cfsh32cs	mvfx0, mvfx8, #1
    1744:	2d061505 	cfstr32cs	mvfx1, [r6, #-20]	; 0xffffffec
    1748:	05010805 	streq	r0, [r1, #-2053]	; 0xfffff7fb
    174c:	01062f03 	tsteq	r6, r3, lsl #30
    1750:	052e0805 	streq	r0, [lr, #-2053]!	; 0xfffff7fb
    1754:	052d0615 	streq	r0, [sp, #-1557]!	; 0xfffff9eb
    1758:	03050108 	movweq	r0, #20744	; 0x5108
    175c:	0501062f 	streq	r0, [r1, #-1583]	; 0xfffff9d1
    1760:	15052e08 	strne	r2, [r5, #-3592]	; 0xfffff1f8
    1764:	08052d06 	stmdaeq	r5, {r1, r2, r8, sl, fp, sp}
    1768:	13030501 	movwne	r0, #13569	; 0x3501
    176c:	01060805 	tsteq	r6, r5, lsl #16
    1770:	2d061505 	cfstr32cs	mvfx1, [r6, #-20]	; 0xffffffec
    1774:	06010805 	streq	r0, [r1], -r5, lsl #16
    1778:	06030566 	streq	r0, [r3], -r6, ror #10
    177c:	06080567 	streq	r0, [r8], -r7, ror #10
    1780:	2d180501 	cfldr32cs	mvfx0, [r8, #-4]
    1784:	052e0205 	streq	r0, [lr, #-517]!	; 0xfffffdfb
    1788:	15052f08 	strne	r2, [r5, #-3848]	; 0xfffff0f8
    178c:	08052d06 	stmdaeq	r5, {r1, r2, r8, sl, fp, sp}
    1790:	06020501 	streq	r0, [r2], -r1, lsl #10
    1794:	06030501 	streq	r0, [r3], -r1, lsl #10
    1798:	0618052f 	ldreq	r0, [r8], -pc, lsr #10
    179c:	2e020511 	mcrcs	5, 0, r0, cr2, cr1, {0}
    17a0:	052f0805 	streq	r0, [pc, #-2053]!	; fa3 <__code_start__-0x705d>
    17a4:	052d0615 	streq	r0, [sp, #-1557]!	; 0xfffff9eb
    17a8:	03050108 	movweq	r0, #20744	; 0x5108
    17ac:	06080513 			; <UNDEFINED> instruction: 0x06080513
    17b0:	06150501 	ldreq	r0, [r5], -r1, lsl #10
    17b4:	0108052d 	tsteq	r8, sp, lsr #10
    17b8:	14060505 	strne	r0, [r6], #-1285	; 0xfffffafb
    17bc:	0602054a 	streq	r0, [r2], -sl, asr #10
    17c0:	060e052e 	streq	r0, [lr], -lr, lsr #10
    17c4:	2f040519 	svccs	0x00040519
    17c8:	052f1105 	streq	r1, [pc, #-261]!	; 16cb <__code_start__-0x6935>
    17cc:	02054a09 	andeq	r4, r5, #36864	; 0x9000
    17d0:	03050533 	movweq	r0, #21811	; 0x5533
    17d4:	02052e72 	andeq	r2, r5, #1824	; 0x720
    17d8:	01062f06 	tsteq	r6, r6, lsl #30
    17dc:	16060e05 	strne	r0, [r6], -r5, lsl #28
    17e0:	13140205 	tstne	r4, #1342177280	; 0x50000000
    17e4:	05130305 	ldreq	r0, [r3, #-773]	; 0xfffffcfb
    17e8:	05151402 	ldreq	r1, [r5, #-1026]	; 0xfffffbfe
    17ec:	0205010b 	andeq	r0, r5, #-1073741822	; 0xc0000002
    17f0:	662e0106 	strtvs	r0, [lr], -r6, lsl #2
    17f4:	2f060305 	svccs	0x00060305
    17f8:	01060a05 	tsteq	r6, r5, lsl #20
    17fc:	052d0205 	streq	r0, [sp, #-517]!	; 0xfffffdfb
    1800:	17052f0a 	strne	r2, [r5, -sl, lsl #30]
    1804:	0b052d06 	bleq	14cc24 <__bss_end__+0x141924>
    1808:	06020501 	streq	r0, [r2], -r1, lsl #10
    180c:	054a4a01 	strbeq	r4, [sl, #-2561]	; 0xfffff5ff
    1810:	95030605 	strls	r0, [r3, #-1541]	; 0xfffff9fb
    1814:	11050101 	tstne	r5, r1, lsl #2
    1818:	7ef80306 	cdpvc	3, 15, cr0, cr8, cr6, {0}
    181c:	031b0501 	tsteq	fp, #4194304	; 0x400000
    1820:	054a0188 	strbeq	r0, [sl, #-392]	; 0xfffffe78
    1824:	f3030601 	vmax.u8	d0, d3, d1
    1828:	02052e7e 	andeq	r2, r5, #2016	; 0x7e0
    182c:	14131514 	ldrne	r1, [r3], #-1300	; 0xfffffaec
    1830:	22031905 	andcs	r1, r3, #81920	; 0x14000
    1834:	131a0501 	tstne	sl, #4194304	; 0x400000
    1838:	01062805 	tsteq	r6, r5, lsl #16
    183c:	052e1f05 	streq	r1, [lr, #-3845]!	; 0xfffff0fb
    1840:	0e052f04 	cdpeq	15, 0, cr2, cr5, cr4, {0}
    1844:	2d1f054a 	cfldr32cs	mvfx0, [pc, #-296]	; 1724 <__code_start__-0x68dc>
    1848:	2f060b05 	svccs	0x00060b05
    184c:	01060405 	tsteq	r6, r5, lsl #8
    1850:	05013206 	streq	r3, [r1, #-518]	; 0xfffffdfa
    1854:	0e051502 	cfsh32eq	mvfx1, mvfx5, #2
    1858:	017fb203 	cmneq	pc, r3, lsl #4
    185c:	05130205 	ldreq	r0, [r3, #-517]	; 0xfffffdfb
    1860:	05010606 	streq	r0, [r1, #-1542]	; 0xfffff9fa
    1864:	05300602 	ldreq	r0, [r0, #-1538]!	; 0xfffff9fe
    1868:	02050108 	andeq	r0, r5, #2
    186c:	03050106 	movweq	r0, #20742	; 0x5106
    1870:	05210806 	streq	r0, [r1, #-2054]!	; 0xfffff7fa
    1874:	05010608 	streq	r0, [r1, #-1544]	; 0xfffff9f8
    1878:	05490615 	strbeq	r0, [r9, #-1557]	; 0xfffff9eb
    187c:	03050108 	movweq	r0, #20744	; 0x5108
    1880:	060805d7 			; <UNDEFINED> instruction: 0x060805d7
    1884:	2d180501 	cfldr32cs	mvfx0, [r8, #-4]
    1888:	052e0205 	streq	r0, [lr, #-517]!	; 0xfffffdfb
    188c:	15052f08 	strne	r2, [r5, #-3848]	; 0xfffff0f8
    1890:	08052d06 	stmdaeq	r5, {r1, r2, r8, sl, fp, sp}
    1894:	06020501 	streq	r0, [r2], -r1, lsl #10
    1898:	06030501 	streq	r0, [r3], -r1, lsl #10
    189c:	0618052f 	ldreq	r0, [r8], -pc, lsr #10
    18a0:	2e020511 	mcrcs	5, 0, r0, cr2, cr1, {0}
    18a4:	052f0805 	streq	r0, [pc, #-2053]!	; 10a7 <__code_start__-0x6f59>
    18a8:	052d0615 	streq	r0, [sp, #-1557]!	; 0xfffff9eb
    18ac:	03050108 	movweq	r0, #20744	; 0x5108
    18b0:	06080513 			; <UNDEFINED> instruction: 0x06080513
    18b4:	06150501 	ldreq	r0, [r5], -r1, lsl #10
    18b8:	0108052d 	tsteq	r8, sp, lsr #10
    18bc:	14060505 	strne	r0, [r6], #-1285	; 0xfffffafb
    18c0:	66060205 	strvs	r0, [r6], -r5, lsl #4
    18c4:	1a060405 	bne	1828e0 <__bss_end__+0x1775e0>
    18c8:	78030505 	stmdavc	r3, {r0, r2, r8, sl}
    18cc:	0602054a 	streq	r0, [r2], -sl, asr #10
    18d0:	0501062f 	streq	r0, [r1, #-1583]	; 0xfffff9d1
    18d4:	0516060e 	ldreq	r0, [r6, #-1550]	; 0xfffff9f2
    18d8:	05131402 	ldreq	r1, [r3, #-1026]	; 0xfffffbfe
    18dc:	05010604 	streq	r0, [r1, #-1540]	; 0xfffff9fc
    18e0:	052f0603 	streq	r0, [pc, #-1539]!	; 12e5 <__code_start__-0x6d1b>
    18e4:	05010611 	streq	r0, [r1, #-1553]	; 0xfffff9ef
    18e8:	02052e09 	andeq	r2, r5, #144	; 0x90
    18ec:	05153006 	ldreq	r3, [r5, #-6]
    18f0:	0205010b 	andeq	r0, r5, #-1073741822	; 0xc0000002
    18f4:	4a4a0106 	bmi	1281d14 <__bss_end__+0x1276a14>
    18f8:	0603052e 	streq	r0, [r3], -lr, lsr #10
    18fc:	060a052f 	streq	r0, [sl], -pc, lsr #10
    1900:	2d020501 	cfstr32cs	mvfx0, [r2, #-4]
    1904:	052f0a05 	streq	r0, [pc, #-2565]!	; f07 <__code_start__-0x70f9>
    1908:	052d0617 	streq	r0, [sp, #-1559]!	; 0xfffff9e9
    190c:	0205010b 	andeq	r0, r5, #-1073741822	; 0xc0000002
    1910:	2e4a0106 	dvfcse	f0, f2, f6
    1914:	09051406 	stmdbeq	r5, {r1, r2, sl, ip}
    1918:	02050106 	andeq	r0, r5, #-2147483647	; 0x80000001
    191c:	01064c06 	tsteq	r6, r6, lsl #24
    1920:	03060505 	movweq	r0, #25861	; 0x6505
    1924:	2a010198 	bcs	41f8c <__bss_end__+0x36c8c>
    1928:	01060705 	tsteq	r6, r5, lsl #14
    192c:	2f060505 	svccs	0x00060505
    1930:	53031805 	movwpl	r1, #14341	; 0x3805
    1934:	061b052e 	ldreq	r0, [fp], -lr, lsr #10
    1938:	821a0501 	andshi	r0, sl, #4194304	; 0x400000
    193c:	4b060905 	blmi	183d58 <__bss_end__+0x178a58>
    1940:	01060d05 	tsteq	r6, r5, lsl #26
    1944:	d709052e 	strle	r0, [r9, -lr, lsr #10]
    1948:	059d0d05 	ldreq	r0, [sp, #3333]	; 0xd05
    194c:	052f0609 	streq	r0, [pc, #-1545]!	; 134b <__code_start__-0x6cb5>
    1950:	18053015 	stmdane	r5, {r0, r2, r4, ip, sp}
    1954:	17050106 	strne	r0, [r5, -r6, lsl #2]
    1958:	2f190566 	svccs	0x00190566
    195c:	05491705 	strbeq	r1, [r9, #-1797]	; 0xfffff8fb
    1960:	052f0619 	streq	r0, [pc, #-1561]!	; 134f <__code_start__-0x6cb1>
    1964:	6f030615 	svcvs	0x00030615
    1968:	0619052e 	ldreq	r0, [r9], -lr, lsr #10
    196c:	054a1303 	strbeq	r1, [sl, #-771]	; 0xfffffcfd
    1970:	6d030615 	stcvs	6, cr0, [r3, #-84]	; 0xffffffac
    1974:	02054a2e 	andeq	r4, r5, #188416	; 0x2e000
    1978:	017fa003 	cmneq	pc, r3
    197c:	72030666 	andvc	r0, r3, #106954752	; 0x6600000
    1980:	06050501 	streq	r0, [r5], -r1, lsl #10
    1984:	36040501 	strcc	r0, [r4], -r1, lsl #10
    1988:	78030505 	stmdavc	r3, {r0, r2, r8, sl}
    198c:	0602052e 	streq	r0, [r2], -lr, lsr #10
    1990:	0501062f 	streq	r0, [r1, #-1583]	; 0xfffff9d1
    1994:	0516060e 	ldreq	r0, [r6, #-1550]	; 0xfffff9f2
    1998:	05131402 	ldreq	r1, [r3, #-1026]	; 0xfffffbfe
    199c:	4a010604 	bmi	431b4 <__bss_end__+0x37eb4>
    19a0:	03060205 	movweq	r0, #25093	; 0x6205
    19a4:	05050178 	streq	r0, [r5, #-376]	; 0xfffffe88
    19a8:	054a0106 	strbeq	r0, [sl, #-262]	; 0xfffffefa
    19ac:	064b0602 	strbeq	r0, [fp], -r2, lsl #12
    19b0:	060e0501 	streq	r0, [lr], -r1, lsl #10
    19b4:	14020516 	strne	r0, [r2], #-1302	; 0xfffffaea
    19b8:	05151513 	ldreq	r1, [r5, #-1299]	; 0xfffffaed
    19bc:	2e06010b 	adfcss	f0, f6, #3.0
    19c0:	03061105 	movweq	r1, #24837	; 0x6105
    19c4:	0501019e 	streq	r0, [r1, #-414]	; 0xfffffe62
    19c8:	05010622 	streq	r0, [r1, #-1570]	; 0xfffff9de
    19cc:	22052f05 	andcs	r2, r5, #5, 30
    19d0:	0605052d 	streq	r0, [r5], -sp, lsr #10
    19d4:	4b11052f 	blmi	442e98 <__bss_end__+0x437b98>
    19d8:	01830505 	orreq	r0, r3, r5, lsl #10
    19dc:	2e5c039e 	mrccs	3, 2, r0, cr12, cr14, {4}
    19e0:	02059e01 	andeq	r9, r5, #1, 28
    19e4:	7ef30306 	cdpvc	3, 15, cr0, cr3, cr6, {0}
    19e8:	06052e2e 	streq	r2, [r5], -lr, lsr #28
    19ec:	0d054a2c 	vstreq	s8, [r5, #-176]	; 0xffffff50
    19f0:	0100d803 	tsteq	r0, r3, lsl #16
    19f4:	02000405 	andeq	r0, r0, #83886080	; 0x5000000
    19f8:	03060104 	movweq	r0, #24836	; 0x6104
    19fc:	02004a11 	andeq	r4, r0, #69632	; 0x11000
    1a00:	05010104 	streq	r0, [r1, #-260]	; 0xfffffefc
    1a04:	06510611 			; <UNDEFINED> instruction: 0x06510611
    1a08:	0315059e 	tsteq	r5, #662700032	; 0x27800000
    1a0c:	ba012e17 	blt	4d270 <__bss_end__+0x41f70>
    1a10:	69031105 	stmdbvs	r3, {r0, r2, r8, ip}
    1a14:	2802012e 	stmdacs	r2, {r1, r2, r3, r5, r8}
    1a18:	87010100 	strhi	r0, [r1, -r0, lsl #2]
    1a1c:	03000000 	movweq	r0, #0
    1a20:	00006400 	andeq	r6, r0, r0, lsl #8
    1a24:	fb010200 	blx	4222e <__bss_end__+0x36f2e>
    1a28:	01000d0e 	tsteq	r0, lr, lsl #26
    1a2c:	00010101 	andeq	r0, r1, r1, lsl #2
    1a30:	00010000 	andeq	r0, r1, r0
    1a34:	2f2e0100 	svccs	0x002e0100
    1a38:	66617473 			; <UNDEFINED> instruction: 0x66617473
    1a3c:	72732d66 	rsbsvc	r2, r3, #6528	; 0x1980
    1a40:	552f0063 	strpl	r0, [pc, #-99]!	; 19e5 <__code_start__-0x661b>
    1a44:	73726573 	cmnvc	r2, #482344960	; 0x1cc00000
    1a48:	6c696d2f 	stclvs	13, cr6, [r9], #-188	; 0xffffff44
    1a4c:	532f7365 			; <UNDEFINED> instruction: 0x532f7365
    1a50:	6372756f 	cmnvs	r2, #465567744	; 0x1bc00000
    1a54:	73632f65 	cmnvc	r3, #404	; 0x194
    1a58:	6c303432 	cfldrsvs	mvf3, [r0], #-200	; 0xffffff38
    1a5c:	696c2f78 	stmdbvs	ip!, {r3, r4, r5, r6, r8, r9, sl, fp, sp}^
    1a60:	2f697062 	svccs	0x00697062
    1a64:	6c636e69 	stclvs	14, cr6, [r3], #-420	; 0xfffffe5c
    1a68:	00656475 	rsbeq	r6, r5, r5, ror r4
    1a6c:	656c6300 	strbvs	r6, [ip, #-768]!	; 0xfffffd00
    1a70:	722d6e61 	eorvc	r6, sp, #1552	; 0x610
    1a74:	6f6f6265 	svcvs	0x006f6265
    1a78:	00632e74 	rsbeq	r2, r3, r4, ror lr
    1a7c:	72000001 	andvc	r0, r0, #1, 0
    1a80:	682e6970 	stmdavs	lr!, {r4, r5, r6, r8, fp, sp, lr}
    1a84:	00000200 	andeq	r0, r0, r0, lsl #4
    1a88:	00190500 	andseq	r0, r9, r0, lsl #10
    1a8c:	9a7c0205 	bls	1f022a8 <__bss_end__+0x1ef6fa8>
    1a90:	05150000 	ldreq	r0, [r5, #-0]
    1a94:	19051305 	stmdbne	r5, {r0, r2, r8, r9, ip}
    1a98:	05052d06 	streq	r2, [r5, #-3334]	; 0xfffff2fa
    1a9c:	2f67062f 	svccs	0x0067062f
    1aa0:	0006024b 	andeq	r0, r6, fp, asr #4
    1aa4:	01760101 	cmneq	r6, r1, lsl #2
    1aa8:	00030000 	andeq	r0, r3, r0
    1aac:	0000005e 	andeq	r0, r0, lr, asr r0
    1ab0:	0efb0102 	cdpeq	1, 15, cr0, cr11, cr2, {0}
    1ab4:	0101000d 	tsteq	r1, sp
    1ab8:	00000101 	andeq	r0, r0, r1, lsl #2
    1abc:	00000100 	andeq	r0, r0, r0, lsl #2
    1ac0:	732f2e01 			; <UNDEFINED> instruction: 0x732f2e01
    1ac4:	66666174 			; <UNDEFINED> instruction: 0x66666174
    1ac8:	6372732d 	cmnvs	r2, #-1275068416	; 0xb4000000
    1acc:	73552f00 	cmpvc	r5, #0, 30
    1ad0:	2f737265 	svccs	0x00737265
    1ad4:	656c696d 	strbvs	r6, [ip, #-2413]!	; 0xfffff693
    1ad8:	6f532f73 	svcvs	0x00532f73
    1adc:	65637275 	strbvs	r7, [r3, #-629]!	; 0xfffffd8b
    1ae0:	3273632f 	rsbscc	r6, r3, #-1140850688	; 0xbc000000
    1ae4:	786c3034 	stmdavc	ip!, {r2, r4, r5, ip, sp}^
    1ae8:	62696c2f 	rsbvs	r6, r9, #12032	; 0x2f00
    1aec:	692f6970 	stmdbvs	pc!, {r4, r5, r6, r8, fp, sp, lr}	; <UNPREDICTABLE>
    1af0:	756c636e 	strbvc	r6, [ip, #-878]!	; 0xfffffc92
    1af4:	00006564 	andeq	r6, r0, r4, ror #10
    1af8:	61747363 	cmnvs	r4, r3, ror #6
    1afc:	632e7472 			; <UNDEFINED> instruction: 0x632e7472
    1b00:	00000100 	andeq	r0, r0, r0, lsl #2
    1b04:	2e697072 	mcrcs	0, 3, r7, cr9, cr2, {3}
    1b08:	00020068 	andeq	r0, r2, r8, rrx
    1b0c:	10050000 	andne	r0, r5, r0
    1b10:	a8020500 	stmdage	r2, {r8, sl}
    1b14:	0300009a 	movweq	r0, #154	; 0x9a
    1b18:	05050110 	streq	r0, [r5, #-272]	; 0xfffffef0
    1b1c:	13020513 	movwne	r0, #9491	; 0x2513
    1b20:	05140505 	ldreq	r0, [r4, #-1285]	; 0xfffffafb
    1b24:	050e0610 	streq	r0, [lr, #-1552]	; 0xfffff9f0
    1b28:	30063205 	andcc	r3, r6, r5, lsl #4
    1b2c:	0a051413 	beq	146b80 <__bss_end__+0x13b880>
    1b30:	08090501 	stmdaeq	r9, {r0, r8, sl}
    1b34:	06100591 			; <UNDEFINED> instruction: 0x06100591
    1b38:	9a0a0501 	bls	282f44 <__bss_end__+0x277c44>
    1b3c:	056a1005 	strbeq	r1, [sl, #-5]!
    1b40:	052d060a 	streq	r0, [sp, #-1546]!	; 0xfffff9f6
    1b44:	10052f09 	andne	r2, r5, r9, lsl #30
    1b48:	0a050106 	beq	141f68 <__bss_end__+0x136c68>
    1b4c:	09052d06 	stmdbeq	r5, {r1, r2, r8, sl, fp, sp}
    1b50:	061005bb 			; <UNDEFINED> instruction: 0x061005bb
    1b54:	060a0501 	streq	r0, [sl], -r1, lsl #10
    1b58:	4b090565 	blmi	2430f4 <__bss_end__+0x237df4>
    1b5c:	01060d05 	tsteq	r6, r5, lsl #26
    1b60:	052d0a05 	streq	r0, [sp, #-2565]!	; 0xfffff5fb
    1b64:	0a052f10 	beq	14d7ac <__bss_end__+0x1424ac>
    1b68:	09052d06 	stmdbeq	r5, {r1, r2, r8, sl, fp, sp}
    1b6c:	060d052f 	streq	r0, [sp], -pc, lsr #10
    1b70:	2d0a0501 	cfstr32cs	mvfx0, [sl, #-4]
    1b74:	052f1005 	streq	r1, [pc, #-5]!	; 1b77 <__code_start__-0x6489>
    1b78:	052d060a 	streq	r0, [sp, #-1546]!	; 0xfffff9f6
    1b7c:	0d052f09 	stceq	15, cr2, [r5, #-36]	; 0xffffffdc
    1b80:	0a050106 	beq	141fa0 <__bss_end__+0x136ca0>
    1b84:	2f10052d 	svccs	0x0010052d
    1b88:	2d060a05 	vstrcs	s0, [r6, #-20]	; 0xffffffec
    1b8c:	052f0905 	streq	r0, [pc, #-2309]!	; 128f <__code_start__-0x6d71>
    1b90:	0501060d 	streq	r0, [r1, #-1549]	; 0xfffff9f3
    1b94:	10052d0a 	andne	r2, r5, sl, lsl #26
    1b98:	060a052f 	streq	r0, [sl], -pc, lsr #10
    1b9c:	1309052d 	movwne	r0, #38189	; 0x952d
    1ba0:	01061005 	tsteq	r6, r5
    1ba4:	2d060a05 	vstrcs	s0, [r6, #-20]	; 0xffffffec
    1ba8:	32150505 	andscc	r0, r5, #20971520	; 0x1400000
    1bac:	144a0101 	strbne	r0, [sl], #-257	; 0xfffffeff
    1bb0:	61031105 	tstvs	r3, r5, lsl #2
    1bb4:	13050501 	movwne	r0, #21761	; 0x5501
    1bb8:	14051414 	strne	r1, [r5], #-1044	; 0xfffffbec
    1bbc:	062e0101 	strteq	r0, [lr], -r1, lsl #2
    1bc0:	06050501 	streq	r0, [r5], -r1, lsl #10
    1bc4:	0a051513 	beq	147018 <__bss_end__+0x13bd18>
    1bc8:	05050106 	streq	r0, [r5, #-262]	; 0xfffffefa
    1bcc:	01064b06 	tsteq	r6, r6, lsl #22
    1bd0:	01160306 	tsteq	r6, r6, lsl #6
    1bd4:	0311052f 	tsteq	r1, #197132288	; 0xbc00000
    1bd8:	0505015f 	streq	r0, [r5, #-351]	; 0xfffffea1
    1bdc:	05141413 	ldreq	r1, [r4, #-1043]	; 0xfffffbed
    1be0:	2e010114 	mcrcs	1, 0, r0, cr1, cr4, {0}
    1be4:	05050106 	streq	r0, [r5, #-262]	; 0xfffffefa
    1be8:	08051306 	stmdaeq	r5, {r1, r2, r8, r9, ip}
    1bec:	05050106 	streq	r0, [r5, #-262]	; 0xfffffefa
    1bf0:	052e1c03 	streq	r1, [lr, #-3075]!	; 0xfffff3fd
    1bf4:	2e640307 	cdpcs	3, 6, cr0, cr4, cr7, {0}
    1bf8:	2f060905 	svccs	0x00060905
    1bfc:	01060e05 	tsteq	r6, r5, lsl #28
    1c00:	30060505 	andcc	r0, r6, r5, lsl #10
    1c04:	01060a05 	tsteq	r6, r5, lsl #20
    1c08:	2f060505 	svccs	0x00060505
    1c0c:	03060106 	movweq	r0, #24838	; 0x6106
    1c10:	02050118 	andeq	r0, r5, #6
    1c14:	060a0530 			; <UNDEFINED> instruction: 0x060a0530
    1c18:	022e6f03 	eoreq	r6, lr, #3, 30
    1c1c:	0101000c 	tsteq	r1, ip
    1c20:	0000007d 	andeq	r0, r0, sp, ror r0
    1c24:	00650003 	rsbeq	r0, r5, r3
    1c28:	01020000 	mrseq	r0, (UNDEF: 2)
    1c2c:	000d0efb 	strdeq	r0, [sp], -fp
    1c30:	01010101 	tsteq	r1, r1, lsl #2
    1c34:	01000000 	mrseq	r0, (UNDEF: 0)
    1c38:	2e010000 	cdpcs	0, 0, cr0, cr1, cr0, {0}
    1c3c:	6174732f 	cmnvs	r4, pc, lsr #6
    1c40:	732d6666 			; <UNDEFINED> instruction: 0x732d6666
    1c44:	2f006372 	svccs	0x00006372
    1c48:	72657355 	rsbvc	r7, r5, #1409286145	; 0x54000001
    1c4c:	696d2f73 	stmdbvs	sp!, {r0, r1, r4, r5, r6, r8, r9, sl, fp, sp}^
    1c50:	2f73656c 	svccs	0x0073656c
    1c54:	72756f53 	rsbsvc	r6, r5, #332	; 0x14c
    1c58:	632f6563 			; <UNDEFINED> instruction: 0x632f6563
    1c5c:	30343273 	eorscc	r3, r4, r3, ror r2
    1c60:	6c2f786c 	stcvs	8, cr7, [pc], #-432	; 1ab8 <__code_start__-0x6548>
    1c64:	69706269 	ldmdbvs	r0!, {r0, r3, r5, r6, r9, sp, lr}^
    1c68:	636e692f 	cmnvs	lr, #770048	; 0xbc000
    1c6c:	6564756c 	strbvs	r7, [r4, #-1388]!	; 0xfffffa94
    1c70:	75630000 	strbvc	r0, [r3, #-0]!
    1c74:	6d6f7473 	cfstrdvs	mvd7, [pc, #-460]!	; 1ab0 <__code_start__-0x6550>
    1c78:	616f6c2d 	cmnvs	pc, sp, lsr #24
    1c7c:	2e726564 	cdpcs	5, 7, cr6, cr2, cr4, {3}
    1c80:	00010063 	andeq	r0, r1, r3, rrx
    1c84:	69707200 	ldmdbvs	r0!, {r9, ip, sp, lr}^
    1c88:	0200682e 	andeq	r6, r0, #3014656	; 0x2e0000
    1c8c:	05000000 	streq	r0, [r0, #-0]
    1c90:	0205001a 	andeq	r0, r5, #26, 0
    1c94:	00009bd0 	ldrdeq	r9, [r0], -r0
    1c98:	14010515 	strne	r0, [r1], #-1301	; 0xfffffaeb
    1c9c:	01000202 	tsteq	r0, r2, lsl #4
    1ca0:	00011401 	andeq	r1, r1, r1, lsl #8
    1ca4:	5e000300 	cdppl	3, 0, cr0, cr0, cr0, {0}
    1ca8:	02000000 	andeq	r0, r0, #0, 0
    1cac:	0d0efb01 	vstreq	d15, [lr, #-4]
    1cb0:	01010100 	mrseq	r0, (UNDEF: 17)
    1cb4:	00000001 	andeq	r0, r0, r1
    1cb8:	01000001 	tsteq	r0, r1
    1cbc:	74732f2e 	ldrbtvc	r2, [r3], #-3886	; 0xfffff0d2
    1cc0:	2d666661 	stclcs	6, cr6, [r6, #-388]!	; 0xfffffe7c
    1cc4:	00637273 	rsbeq	r7, r3, r3, ror r2
    1cc8:	6573552f 	ldrbvs	r5, [r3, #-1327]!	; 0xfffffad1
    1ccc:	6d2f7372 	stcvs	3, cr7, [pc, #-456]!	; 1b0c <__code_start__-0x64f4>
    1cd0:	73656c69 	cmnvc	r5, #26880	; 0x6900
    1cd4:	756f532f 	strbvc	r5, [pc, #-815]!	; 19ad <__code_start__-0x6653>
    1cd8:	2f656372 	svccs	0x00656372
    1cdc:	34327363 	ldrtcc	r7, [r2], #-867	; 0xfffffc9d
    1ce0:	2f786c30 	svccs	0x00786c30
    1ce4:	7062696c 	rsbvc	r6, r2, ip, ror #18
    1ce8:	6e692f69 	cdpvs	15, 6, cr2, cr9, cr9, {3}
    1cec:	64756c63 	ldrbtvs	r6, [r5], #-3171	; 0xfffff39d
    1cf0:	72000065 	andvc	r0, r0, #101, 0	; 0x65
    1cf4:	6f6f6265 	svcvs	0x006f6265
    1cf8:	00632e74 	rsbeq	r2, r3, r4, ror lr
    1cfc:	72000001 	andvc	r0, r0, #1, 0
    1d00:	682e6970 	stmdavs	lr!, {r4, r5, r6, r8, fp, sp, lr}
    1d04:	00000200 	andeq	r0, r0, r0, lsl #4
    1d08:	00190500 	andseq	r0, r9, r0, lsl #10
    1d0c:	9bd40205 	blls	ff502528 <__bss_end__+0xff4f7228>
    1d10:	0d030000 	stceq	0, cr0, [r3, #-0]
    1d14:	13050501 	movwne	r0, #21761	; 0x5501
    1d18:	13053113 	movwne	r3, #20755	; 0x5113
    1d1c:	01050106 	tsteq	r5, r6, lsl #2
    1d20:	061b052f 	ldreq	r0, [fp], -pc, lsr #10
    1d24:	13050585 	movwne	r0, #21893	; 0x5585
    1d28:	2f090514 	svccs	0x00090514
    1d2c:	01061605 	tsteq	r6, r5, lsl #12
    1d30:	2f060505 	svccs	0x00060505
    1d34:	11060e05 	tstne	r6, r5, lsl #28
    1d38:	052f0505 	streq	r0, [pc, #-1285]!	; 183b <__code_start__-0x67c5>
    1d3c:	17052f01 	strne	r2, [r5, -r1, lsl #30]
    1d40:	05053006 	streq	r3, [r5, #-6]
    1d44:	016e0313 	cmneq	lr, r3, lsl r3
    1d48:	17051313 	smladne	r5, r3, r3, r1
    1d4c:	010f0306 	tsteq	pc, r6, lsl #6
    1d50:	71030505 	tstvc	r3, r5, lsl #10
    1d54:	0531062e 	ldreq	r0, [r1, #-1582]!	; 0xfffff9d2
    1d58:	05010613 	streq	r0, [r1, #-1555]	; 0xfffff9ed
    1d5c:	2e0d0307 	cdpcs	3, 0, cr0, cr13, cr7, {0}
    1d60:	4b060905 	blmi	18417c <__bss_end__+0x178e7c>
    1d64:	76030605 	strvc	r0, [r3], -r5, lsl #12
    1d68:	13050501 	movwne	r0, #21761	; 0x5501
    1d6c:	2f090514 	svccs	0x00090514
    1d70:	01061605 	tsteq	r6, r5, lsl #12
    1d74:	2f060505 	svccs	0x00060505
    1d78:	11060e05 	tstne	r6, r5, lsl #28
    1d7c:	2e2f0505 	cfsh64cs	mvdx0, mvdx15, #5
    1d80:	010a0306 	tsteq	sl, r6, lsl #6
    1d84:	134d2f30 	movtne	r2, #57136	; 0xdf30
    1d88:	67151313 			; <UNDEFINED> instruction: 0x67151313
    1d8c:	01040200 	mrseq	r0, R12_usr
    1d90:	000d0567 	andeq	r0, sp, r7, ror #10
    1d94:	01010402 	tsteq	r1, r2, lsl #8
    1d98:	02000a05 	andeq	r0, r0, #20480	; 0x5000
    1d9c:	05010104 	streq	r0, [r1, #-260]	; 0xfffffefc
    1da0:	04020005 	streq	r0, [r2], #-5
    1da4:	0d050101 	stfeqs	f0, [r5, #-4]
    1da8:	01040200 	mrseq	r0, R12_usr
    1dac:	000a0501 	andeq	r0, sl, r1, lsl #10
    1db0:	01010402 	tsteq	r1, r2, lsl #8
    1db4:	01000a02 	tsteq	r0, r2, lsl #20
    1db8:	0001fa01 	andeq	pc, r1, r1, lsl #20
    1dbc:	5d000300 	stcpl	3, cr0, [r0, #-0]
    1dc0:	02000000 	andeq	r0, r0, #0, 0
    1dc4:	0d0efb01 	vstreq	d15, [lr, #-4]
    1dc8:	01010100 	mrseq	r0, (UNDEF: 17)
    1dcc:	00000001 	andeq	r0, r0, r1
    1dd0:	01000001 	tsteq	r0, r1
    1dd4:	74732f2e 	ldrbtvc	r2, [r3], #-3886	; 0xfffff0d2
    1dd8:	2d666661 	stclcs	6, cr6, [r6, #-388]!	; 0xfffffe7c
    1ddc:	00637273 	rsbeq	r7, r3, r3, ror r2
    1de0:	6573552f 	ldrbvs	r5, [r3, #-1327]!	; 0xfffffad1
    1de4:	6d2f7372 	stcvs	3, cr7, [pc, #-456]!	; 1c24 <__code_start__-0x63dc>
    1de8:	73656c69 	cmnvc	r5, #26880	; 0x6900
    1dec:	756f532f 	strbvc	r5, [pc, #-815]!	; 1ac5 <__code_start__-0x653b>
    1df0:	2f656372 	svccs	0x00656372
    1df4:	34327363 	ldrtcc	r7, [r2], #-867	; 0xfffffc9d
    1df8:	2f786c30 	svccs	0x00786c30
    1dfc:	7062696c 	rsbvc	r6, r2, ip, ror #18
    1e00:	6e692f69 	cdpvs	15, 6, cr2, cr9, cr9, {3}
    1e04:	64756c63 	ldrbtvs	r6, [r5], #-3171	; 0xfffff39d
    1e08:	74000065 	strvc	r0, [r0], #-101	; 0xffffff9b
    1e0c:	72656d69 	rsbvc	r6, r5, #6720	; 0x1a40
    1e10:	0100632e 	tsteq	r0, lr, lsr #6
    1e14:	70720000 	rsbsvc	r0, r2, r0
    1e18:	00682e69 	rsbeq	r2, r8, r9, ror #28
    1e1c:	00000002 	andeq	r0, r0, r2
    1e20:	05002305 	streq	r2, [r0, #-773]	; 0xfffffcfb
    1e24:	009c6002 	addseq	r6, ip, r2
    1e28:	05051500 	streq	r1, [r5, #-1280]	; 0xfffffb00
    1e2c:	060c0513 			; <UNDEFINED> instruction: 0x060c0513
    1e30:	061f0501 	ldreq	r0, [pc], -r1, lsl #10
    1e34:	1505056a 	strne	r0, [r5, #-1386]	; 0xfffffa96
    1e38:	0f061f05 	svceq	0x00061f05
    1e3c:	06310505 	ldrteq	r0, [r1], -r5, lsl #10
    1e40:	030a052f 	movweq	r0, #42287	; 0xa52f
    1e44:	05050177 	streq	r0, [r5, #-375]	; 0xfffffe89
    1e48:	060c0513 			; <UNDEFINED> instruction: 0x060c0513
    1e4c:	05056601 	streq	r6, [r5, #-1537]	; 0xfffff9ff
    1e50:	01090306 	tsteq	r9, r6, lsl #6
    1e54:	0601052f 	streq	r0, [r1], -pc, lsr #10
    1e58:	061c0513 			; <UNDEFINED> instruction: 0x061c0513
    1e5c:	13050568 	movwne	r0, #21864	; 0x5568
    1e60:	76030a05 	strvc	r0, [r3], -r5, lsl #20
    1e64:	15050501 	strne	r0, [r5, #-1281]	; 0xfffffaff
    1e68:	18061c05 	stmdane	r6, {r0, r2, sl, fp, ip}
    1e6c:	0305052e 	movweq	r0, #21806	; 0x552e
    1e70:	2f062e7a 	svccs	0x00062e7a
    1e74:	77030a05 	strvc	r0, [r3, -r5, lsl #20]
    1e78:	13050501 	movwne	r0, #21761	; 0x5501
    1e7c:	01060c05 	tsteq	r6, r5, lsl #24
    1e80:	06050566 	streq	r0, [r5], -r6, ror #10
    1e84:	2f010903 	svccs	0x00010903
    1e88:	0c050106 	stfeqs	f0, [r5], {6}
    1e8c:	05017603 	streq	r7, [r1, #-1539]	; 0xfffff9fd
    1e90:	0f030605 	svceq	0x00030605
    1e94:	1309052e 	movwne	r0, #38190	; 0x952e
    1e98:	74030a05 	strvc	r0, [r3], #-2565	; 0xfffff5fb
    1e9c:	15050501 	strne	r0, [r5, #-1281]	; 0xfffffaff
    1ea0:	030a052f 	movweq	r0, #42287	; 0xa52f
    1ea4:	05050177 	streq	r0, [r5, #-375]	; 0xfffffe89
    1ea8:	060c0513 			; <UNDEFINED> instruction: 0x060c0513
    1eac:	05056601 	streq	r6, [r5, #-1537]	; 0xfffff9ff
    1eb0:	01090306 	tsteq	r9, r6, lsl #6
    1eb4:	1a061105 	bne	1862d0 <__bss_end__+0x17afd0>
    1eb8:	78030505 	stmdavc	r3, {r0, r2, r8, sl}
    1ebc:	052f062e 	streq	r0, [pc, #-1582]!	; 1896 <__code_start__-0x676a>
    1ec0:	0c051909 			; <UNDEFINED> instruction: 0x0c051909
    1ec4:	1c050106 	stfnes	f0, [r5], {6}
    1ec8:	05058706 	streq	r8, [r5, #-1798]	; 0xfffff8fa
    1ecc:	061c0513 			; <UNDEFINED> instruction: 0x061c0513
    1ed0:	2f050511 	svccs	0x00050511
    1ed4:	0606054a 	streq	r0, [r6], -sl, asr #10
    1ed8:	052e7603 	streq	r7, [lr, #-1539]!	; 0xfffff9fd
    1edc:	0a051305 	beq	146af8 <__bss_end__+0x13b7f8>
    1ee0:	05017603 	streq	r7, [r1, #-1539]	; 0xfffff9fd
    1ee4:	052f1505 	streq	r1, [pc, #-1285]!	; 19e7 <__code_start__-0x6619>
    1ee8:	0177030a 	cmneq	r7, sl, lsl #6
    1eec:	05130505 	ldreq	r0, [r3, #-1285]	; 0xfffffafb
    1ef0:	6601060c 	strvs	r0, [r1], -ip, lsl #12
    1ef4:	03060505 	movweq	r0, #25861	; 0x6505
    1ef8:	062f0109 	strteq	r0, [pc], -r9, lsl #2
    1efc:	030c0501 	movweq	r0, #50433	; 0xc501
    1f00:	05050176 	streq	r0, [r5, #-374]	; 0xfffffe8a
    1f04:	2e0f0306 	cdpcs	3, 0, cr0, cr15, cr6, {0}
    1f08:	05130905 	ldreq	r0, [r3, #-2309]	; 0xfffff6fb
    1f0c:	0174030a 	cmneq	r4, sl, lsl #6
    1f10:	2f150505 	svccs	0x00150505
    1f14:	77030a05 	strvc	r0, [r3, -r5, lsl #20]
    1f18:	13050501 	movwne	r0, #21761	; 0x5501
    1f1c:	01060c05 	tsteq	r6, r5, lsl #24
    1f20:	06050566 	streq	r0, [r5], -r6, ror #10
    1f24:	05010903 	streq	r0, [r1, #-2307]	; 0xfffff6fd
    1f28:	051a0611 	ldreq	r0, [sl, #-1553]	; 0xfffff9ef
    1f2c:	2e780305 	cdpcs	3, 7, cr0, cr8, cr5, {0}
    1f30:	09052f06 	stmdbeq	r5, {r1, r2, r8, r9, sl, fp, sp}
    1f34:	060c0519 			; <UNDEFINED> instruction: 0x060c0519
    1f38:	061e0501 	ldreq	r0, [lr], -r1, lsl #10
    1f3c:	1305058a 	movwne	r0, #21898	; 0x558a
    1f40:	050e0605 	streq	r0, [lr, #-1541]	; 0xfffff9fb
    1f44:	1e051305 	cdpne	3, 0, cr1, cr5, cr5, {0}
    1f48:	05051406 	streq	r1, [r5, #-1030]	; 0xfffffbfa
    1f4c:	0605662c 	streq	r6, [r5], -ip, lsr #12
    1f50:	2e760306 	cdpcs	3, 7, cr0, cr6, cr6, {0}
    1f54:	05130505 	ldreq	r0, [r3, #-1285]	; 0xfffffafb
    1f58:	0176030a 	cmneq	r6, sl, lsl #6
    1f5c:	2f150505 	svccs	0x00150505
    1f60:	77030a05 	strvc	r0, [r3, -r5, lsl #20]
    1f64:	13050501 	movwne	r0, #21761	; 0x5501
    1f68:	01060c05 	tsteq	r6, r5, lsl #24
    1f6c:	06050566 	streq	r0, [r5], -r6, ror #10
    1f70:	2f010903 	svccs	0x00010903
    1f74:	0c050106 	stfeqs	f0, [r5], {6}
    1f78:	05017603 	streq	r7, [r1, #-1539]	; 0xfffff9fd
    1f7c:	0f030605 	svceq	0x00030605
    1f80:	1309052e 	movwne	r0, #38190	; 0x952e
    1f84:	74030a05 	strvc	r0, [r3], #-2565	; 0xfffff5fb
    1f88:	15050501 	strne	r0, [r5, #-1281]	; 0xfffffaff
    1f8c:	030a052f 	movweq	r0, #42287	; 0xa52f
    1f90:	05050177 	streq	r0, [r5, #-375]	; 0xfffffe89
    1f94:	060c0513 			; <UNDEFINED> instruction: 0x060c0513
    1f98:	05056601 	streq	r6, [r5, #-1537]	; 0xfffff9ff
    1f9c:	01090306 	tsteq	r9, r6, lsl #6
    1fa0:	1a061105 	bne	1863bc <__bss_end__+0x17b0bc>
    1fa4:	78030505 	stmdavc	r3, {r0, r2, r8, sl}
    1fa8:	052f062e 	streq	r0, [pc, #-1582]!	; 1982 <__code_start__-0x667e>
    1fac:	0c051909 			; <UNDEFINED> instruction: 0x0c051909
    1fb0:	08020106 	stmdaeq	r2, {r1, r2, r8}
    1fb4:	04010100 	streq	r0, [r1], #-256	; 0xffffff00
    1fb8:	03000002 	movweq	r0, #2
    1fbc:	0000c800 	andeq	ip, r0, r0, lsl #16
    1fc0:	fb010200 	blx	427ca <__bss_end__+0x374ca>
    1fc4:	01000d0e 	tsteq	r0, lr, lsl #26
    1fc8:	00010101 	andeq	r0, r1, r1, lsl #2
    1fcc:	00010000 	andeq	r0, r1, r0
    1fd0:	682f0100 	stmdavs	pc!, {r8}	; <UNPREDICTABLE>
    1fd4:	2f656d6f 	svccs	0x00656d6f
    1fd8:	6c676e65 	stclvs	14, cr6, [r7], #-404	; 0xfffffe6c
    1fdc:	632f7265 			; <UNDEFINED> instruction: 0x632f7265
    1fe0:	7373616c 	cmnvc	r3, #27
    1fe4:	3173632f 	cmncc	r3, pc, lsr #6
    1fe8:	2d653034 	stclcs	0, cr3, [r5, #-208]!	; 0xffffff30
    1fec:	69773232 	ldmdbvs	r7!, {r1, r4, r5, r9, ip, sp}^
    1ff0:	6c2f2f6e 	stcvs	15, cr2, [pc], #-440	; 1e40 <__code_start__-0x61c0>
    1ff4:	69706269 	ldmdbvs	r0!, {r0, r3, r5, r6, r9, sp, lr}^
    1ff8:	636e692f 	cmnvs	lr, #770048	; 0xbc000
    1ffc:	6564756c 	strbvs	r7, [r4, #-1388]!	; 0xfffffa94
    2000:	73752f00 	cmnvc	r5, #0, 30
    2004:	68732f72 	ldmdavs	r3!, {r1, r4, r5, r6, r8, r9, sl, fp, sp}^
    2008:	2f657261 	svccs	0x00657261
    200c:	2d636367 	stclcs	3, cr6, [r3, #-412]!	; 0xfffffe64
    2010:	2d6d7261 	sfmcs	f7, 2, [sp, #-388]!	; 0xfffffe7c
    2014:	656e6f6e 	strbvs	r6, [lr, #-3950]!	; 0xfffff092
    2018:	6261652d 	rsbvs	r6, r1, #188743680	; 0xb400000
    201c:	30312d69 	eorscc	r2, r1, r9, ror #26
    2020:	322d332e 	eorcc	r3, sp, #-1207959552	; 0xb8000000
    2024:	2e313230 	mrccs	2, 1, r3, cr1, cr0, {1}
    2028:	6c2f3031 	stcvs	0, cr3, [pc], #-196	; 1f6c <__code_start__-0x6094>
    202c:	672f6269 	strvs	r6, [pc, -r9, ror #4]!
    2030:	612f6363 			; <UNDEFINED> instruction: 0x612f6363
    2034:	6e2d6d72 	mcrvs	13, 1, r6, cr13, cr2, {3}
    2038:	2d656e6f 	stclcs	14, cr6, [r5, #-444]!	; 0xfffffe44
    203c:	69626165 	stmdbvs	r2!, {r0, r2, r5, r6, r8, sp, lr}^
    2040:	2e30312f 	rsfcssp	f3, f0, #10.0
    2044:	2f312e33 	svccs	0x00312e33
    2048:	6c636e69 	stclvs	14, cr6, [r3], #-420	; 0xfffffe5c
    204c:	00656475 	rsbeq	r6, r5, r5, ror r4
    2050:	72617500 	rsbvc	r7, r1, #0, 10
    2054:	00632e74 	rsbeq	r2, r3, r4, ror lr
    2058:	75000000 	strvc	r0, [r0, #-0]
    205c:	2e747261 	cdpcs	2, 7, cr7, cr4, cr1, {3}
    2060:	00010068 	andeq	r0, r1, r8, rrx
    2064:	69707200 	ldmdbvs	r0!, {r9, ip, sp, lr}^
    2068:	0100682e 	tsteq	r0, lr, lsr #16
    206c:	70670000 	rsbvc	r0, r7, r0
    2070:	682e6f69 	stmdavs	lr!, {r0, r3, r5, r6, r8, r9, sl, fp, sp, lr}
    2074:	00000100 	andeq	r0, r0, r0, lsl #2
    2078:	69647473 	stmdbvs	r4!, {r0, r1, r4, r5, r6, sl, ip, sp, lr}^
    207c:	672d746e 	strvs	r7, [sp, -lr, ror #8]!
    2080:	682e6363 	stmdavs	lr!, {r0, r1, r5, r6, r8, r9, sp, lr}
    2084:	00000200 	andeq	r0, r0, r0, lsl #4
    2088:	00390500 	eorseq	r0, r9, r0, lsl #10
    208c:	9d7c0205 	lfmls	f0, 2, [ip, #-20]!	; 0xffffffec
    2090:	30030000 	andcc	r0, r3, r0
    2094:	05010601 	streq	r0, [r1, #-1537]	; 0xfffff9ff
    2098:	05670605 	strbeq	r0, [r7, #-1541]!	; 0xfffff9fb
    209c:	05010611 	streq	r0, [r1, #-1553]	; 0xfffff9ef
    20a0:	01052e05 	tsteq	r5, r5, lsl #28
    20a4:	06380567 	ldrteq	r0, [r8], -r7, ror #10
    20a8:	05010629 	streq	r0, [r1, #-1577]	; 0xfffff9d7
    20ac:	05670605 	strbeq	r0, [r7, #-1541]!	; 0xfffff9fb
    20b0:	05010611 	streq	r0, [r1, #-1553]	; 0xfffff9ef
    20b4:	01052e05 	tsteq	r5, r5, lsl #28
    20b8:	06160567 	ldreq	r0, [r6], -r7, ror #10
    20bc:	052e1503 	streq	r1, [lr, #-1283]!	; 0xfffffafd
    20c0:	68673505 	stmdavs	r7!, {r0, r2, r8, sl, ip, sp}^
    20c4:	0c036835 	stceq	8, cr6, [r3], {53}	; 0x35
    20c8:	696b852e 	stmdbvs	fp!, {r1, r2, r3, r5, r8, sl, pc}^
    20cc:	660c0369 	strvs	r0, [ip], -r9, ror #6
    20d0:	05676b13 	strbeq	r6, [r7, #-2835]!	; 0xfffff4ed
    20d4:	052f0601 	streq	r0, [pc, #-1537]!	; 1adb <__code_start__-0x6525>
    20d8:	25080619 	strcs	r0, [r8, #-1561]	; 0xfffff9e7
    20dc:	05340505 	ldreq	r0, [r4, #-1285]!	; 0xfffffafb
    20e0:	0501060d 	streq	r0, [r1, #-1549]	; 0xfffff9f3
    20e4:	19054c01 	stmdbne	r5, {r0, sl, fp, lr}
    20e8:	05056706 	streq	r6, [r5, #-1798]	; 0xfffff8fa
    20ec:	060d0536 			; <UNDEFINED> instruction: 0x060d0536
    20f0:	4a280501 	bmi	a034fc <__bss_end__+0x9f81fc>
    20f4:	05300105 	ldreq	r0, [r0, #-261]!	; 0xfffffefb
    20f8:	05870615 	streq	r0, [r7, #1557]	; 0x615
    20fc:	052f2f05 	streq	r2, [pc, #-3845]!	; 11ff <__code_start__-0x6e01>
    2100:	04020009 	streq	r0, [r2], #-9
    2104:	0a051301 	beq	146d10 <__bss_end__+0x13ba10>
    2108:	01040200 	mrseq	r0, R12_usr
    210c:	000c0511 	andeq	r0, ip, r1, lsl r5
    2110:	06010402 	streq	r0, [r1], -r2, lsl #8
    2114:	000a0501 	andeq	r0, sl, r1, lsl #10
    2118:	2e010402 	cdpcs	4, 0, cr0, cr1, cr2, {0}
    211c:	4c060505 	cfstr32mi	mvfx0, [r6], {5}
    2120:	01060e05 	tsteq	r6, r5, lsl #28
    2124:	054a0905 	strbeq	r0, [sl, #-2309]	; 0xfffff6fb
    2128:	2f2f0605 	svccs	0x002f0605
    212c:	13060105 	movwne	r0, #24837	; 0x6105
    2130:	67061c05 	strvs	r1, [r6, -r5, lsl #24]
    2134:	05050106 	streq	r0, [r5, #-262]	; 0xfffffefa
    2138:	052f4b06 	streq	r4, [pc, #-2822]!	; 163a <__code_start__-0x69c6>
    213c:	04020009 	streq	r0, [r2], #-9
    2140:	0a051301 	beq	146d4c <__bss_end__+0x13ba4c>
    2144:	01040200 	mrseq	r0, R12_usr
    2148:	000c0511 	andeq	r0, ip, r1, lsl r5
    214c:	06010402 	streq	r0, [r1], -r2, lsl #8
    2150:	000a0501 	andeq	r0, sl, r1, lsl #10
    2154:	2e010402 	cdpcs	4, 0, cr0, cr1, cr2, {0}
    2158:	4c060505 	cfstr32mi	mvfx0, [r6], {5}
    215c:	06010567 	streq	r0, [r1], -r7, ror #10
    2160:	0619052f 	ldreq	r0, [r9], -pc, lsr #10
    2164:	2e1b054c 	cfmac32cs	mvfx0, mvfx11, mvfx12
    2168:	052e2a05 	streq	r2, [lr, #-2565]!	; 0xfffff5fb
    216c:	05010631 	streq	r0, [r1, #-1585]	; 0xfffff9cf
    2170:	1c052e42 	stcne	14, cr2, [r5], {66}	; 0x42
    2174:	05053106 	streq	r3, [r5, #-262]	; 0xfffffefa
    2178:	2e09032f 	cdpcs	3, 0, cr0, cr9, cr15, {1}
    217c:	01060e05 	tsteq	r6, r5, lsl #28
    2180:	054a2105 	strbeq	r2, [sl, #-261]	; 0xfffffefb
    2184:	2e0a0301 	cdpcs	3, 0, cr0, cr10, cr1, {0}
    2188:	68061a05 	stmdavs	r6, {r0, r2, r9, fp, ip}
    218c:	02000905 	andeq	r0, r0, #81920	; 0x14000
    2190:	05300104 	ldreq	r0, [r0, #-260]!	; 0xfffffefc
    2194:	0402000a 	streq	r0, [r2], #-10
    2198:	0c051101 	stfeqs	f1, [r5], {1}
    219c:	01040200 	mrseq	r0, R12_usr
    21a0:	0a050106 	beq	1425c0 <__bss_end__+0x1372c0>
    21a4:	01040200 	mrseq	r0, R12_usr
    21a8:	0619052e 	ldreq	r0, [r9], -lr, lsr #10
    21ac:	667ee803 	ldrbtvs	lr, [lr], -r3, lsl #16
    21b0:	2f2f0505 	svccs	0x002f0505
    21b4:	0105672f 	tsteq	r5, pc, lsr #14
    21b8:	04022f06 	streq	r2, [r2], #-3846	; 0xfffff0fa
    21bc:	92010100 	andls	r0, r1, #0
    21c0:	03000003 	movweq	r0, #3
    21c4:	0000b700 	andeq	fp, r0, r0, lsl #14
    21c8:	fb010200 	blx	429d2 <__bss_end__+0x376d2>
    21cc:	01000d0e 	tsteq	r0, lr, lsl #26
    21d0:	00010101 	andeq	r0, r1, r1, lsl #2
    21d4:	00010000 	andeq	r0, r1, r0
    21d8:	682f0100 	stmdavs	pc!, {r8}	; <UNPREDICTABLE>
    21dc:	2f656d6f 	svccs	0x00656d6f
    21e0:	6c676e65 	stclvs	14, cr6, [r7], #-404	; 0xfffffe6c
    21e4:	632f7265 			; <UNDEFINED> instruction: 0x632f7265
    21e8:	7373616c 	cmnvc	r3, #27
    21ec:	3173632f 	cmncc	r3, pc, lsr #6
    21f0:	2d653034 	stclcs	0, cr3, [r5, #-208]!	; 0xffffff30
    21f4:	69773232 	ldmdbvs	r7!, {r1, r4, r5, r9, ip, sp}^
    21f8:	6c2f2f6e 	stcvs	15, cr2, [pc], #-440	; 2048 <__code_start__-0x5fb8>
    21fc:	69706269 	ldmdbvs	r0!, {r0, r3, r5, r6, r9, sp, lr}^
    2200:	636e692f 	cmnvs	lr, #770048	; 0xbc000
    2204:	6564756c 	strbvs	r7, [r4, #-1388]!	; 0xfffffa94
    2208:	73752f00 	cmnvc	r5, #0, 30
    220c:	68732f72 	ldmdavs	r3!, {r1, r4, r5, r6, r8, r9, sl, fp, sp}^
    2210:	2f657261 	svccs	0x00657261
    2214:	2d636367 	stclcs	3, cr6, [r3, #-412]!	; 0xfffffe64
    2218:	2d6d7261 	sfmcs	f7, 2, [sp, #-388]!	; 0xfffffe7c
    221c:	656e6f6e 	strbvs	r6, [lr, #-3950]!	; 0xfffff092
    2220:	6261652d 	rsbvs	r6, r1, #188743680	; 0xb400000
    2224:	30312d69 	eorscc	r2, r1, r9, ror #26
    2228:	322d332e 	eorcc	r3, sp, #-1207959552	; 0xb8000000
    222c:	2e313230 	mrccs	2, 1, r3, cr1, cr0, {1}
    2230:	6c2f3031 	stcvs	0, cr3, [pc], #-196	; 2174 <__code_start__-0x5e8c>
    2234:	672f6269 	strvs	r6, [pc, -r9, ror #4]!
    2238:	612f6363 			; <UNDEFINED> instruction: 0x612f6363
    223c:	6e2d6d72 	mcrvs	13, 1, r6, cr13, cr2, {3}
    2240:	2d656e6f 	stclcs	14, cr6, [r5, #-444]!	; 0xfffffe44
    2244:	69626165 	stmdbvs	r2!, {r0, r2, r5, r6, r8, sp, lr}^
    2248:	2e30312f 	rsfcssp	f3, f0, #10.0
    224c:	2f312e33 	svccs	0x00312e33
    2250:	6c636e69 	stclvs	14, cr6, [r3], #-420	; 0xfffffe5c
    2254:	00656475 	rsbeq	r6, r5, r5, ror r4
    2258:	616d6b00 	cmnvs	sp, r0, lsl #22
    225c:	636f6c6c 	cmnvs	pc, #108, 24	; 0x6c00
    2260:	0000632e 	andeq	r6, r0, lr, lsr #6
    2264:	70720000 	rsbsvc	r0, r2, r0
    2268:	00682e69 	rsbeq	r2, r8, r9, ror #28
    226c:	73000001 	movwvc	r0, #1
    2270:	6e696474 	mcrvs	4, 3, r6, cr9, cr4, {3}
    2274:	63672d74 	cmnvs	r7, #116, 26	; 0x1d00
    2278:	00682e63 	rsbeq	r2, r8, r3, ror #28
    227c:	00000002 	andeq	r0, r0, r2
    2280:	05001e05 	streq	r1, [r0, #-3589]	; 0xfffff1fb
    2284:	009f6c02 	addseq	r6, pc, r2, lsl #24
    2288:	01270300 			; <UNDEFINED> instruction: 0x01270300
    228c:	05012005 	streq	r2, [r1, #-5]
    2290:	0501062d 	streq	r0, [r1, #-1581]	; 0xfffff9d3
    2294:	05830620 	streq	r0, [r3, #1568]	; 0x620
    2298:	35050122 	strcc	r0, [r5, #-290]	; 0xfffffede
    229c:	1e050106 	adfnes	f0, f5, f6
    22a0:	20058306 	andcs	r8, r5, r6, lsl #6
    22a4:	062d0501 	strteq	r0, [sp], -r1, lsl #10
    22a8:	06420501 	strbeq	r0, [r2], -r1, lsl #10
    22ac:	05010685 	streq	r0, [r1, #-1669]	; 0xfffff97b
    22b0:	144b0605 	strbne	r0, [fp], #-1541	; 0xfffff9fb
    22b4:	002e0601 	eoreq	r0, lr, r1, lsl #12
    22b8:	06020402 	streq	r0, [r2], -r2, lsl #8
    22bc:	0402002e 	streq	r0, [r2], #-46	; 0xffffffd2
    22c0:	02000102 	andeq	r0, r0, #-2147483648	; 0x80000000
    22c4:	05150204 	ldreq	r0, [r5, #-516]	; 0xfffffdfc
    22c8:	0402000d 	streq	r0, [r2], #-13
    22cc:	05010602 	streq	r0, [r1, #-1538]	; 0xfffff9fe
    22d0:	04020007 	streq	r0, [r2], #-7
    22d4:	09054a02 	stmdbeq	r5, {r1, r9, fp, lr}
    22d8:	05054b06 	streq	r4, [r5, #-2822]	; 0xfffff4fa
    22dc:	06170515 			; <UNDEFINED> instruction: 0x06170515
    22e0:	4a100501 	bmi	4036ec <__bss_end__+0x3f83ec>
    22e4:	2f060505 	svccs	0x00060505
    22e8:	01061b05 	tsteq	r6, r5, lsl #22
    22ec:	052e0e05 	streq	r0, [lr, #-3589]!	; 0xfffff1fb
    22f0:	05052f01 	streq	r2, [r5, #-3841]	; 0xfffff0ff
    22f4:	01040200 	mrseq	r0, R12_usr
    22f8:	4a770306 	bmi	1dc2f18 <__bss_end__+0x1db7c18>
    22fc:	01040200 	mrseq	r0, R12_usr
    2300:	04020001 	streq	r0, [r2], #-1
    2304:	009e0601 	addseq	r0, lr, r1, lsl #12
    2308:	2e010402 	cdpcs	4, 0, cr0, cr1, cr2, {0}
    230c:	01040200 	mrseq	r0, R12_usr
    2310:	09052e06 	stmdbeq	r5, {r1, r2, r9, sl, fp, sp}
    2314:	d6060132 			; <UNDEFINED> instruction: 0xd6060132
    2318:	052e062e 	streq	r0, [lr, #-1582]!	; 0xfffff9d2
    231c:	0505de19 	streq	sp, [r5, #-3609]	; 0xfffff1e7
    2320:	0805142f 	stmdaeq	r5, {r0, r1, r2, r3, r5, sl, ip}
    2324:	07050106 	streq	r0, [r5, -r6, lsl #2]
    2328:	0609054a 	streq	r0, [r9], -sl, asr #10
    232c:	1305054b 	movwne	r0, #21835	; 0x554b
    2330:	01060c05 	tsteq	r6, r5, lsl #24
    2334:	67060505 	strvs	r0, [r6, -r5, lsl #10]
    2338:	06010513 			; <UNDEFINED> instruction: 0x06010513
    233c:	06090567 	streq	r0, [r9], -r7, ror #10
    2340:	059e012a 	ldreq	r0, [lr, #298]	; 0x12a
    2344:	0106a528 	tsteq	r6, r8, lsr #10
    2348:	4b060505 	blmi	183764 <__bss_end__+0x178464>
    234c:	062e0601 	strteq	r0, [lr], -r1, lsl #12
    2350:	0513012e 	ldreq	r0, [r3, #-302]	; 0xfffffed2
    2354:	01470318 	cmpeq	r7, r8, lsl r3
    2358:	01130505 	tsteq	r3, r5, lsl #10
    235c:	0f060106 	svceq	0x00060106
    2360:	05130115 	ldreq	r0, [r3, #-277]	; 0xfffffeeb
    2364:	0501060e 	streq	r0, [r1, #-1550]	; 0xfffff9f2
    2368:	052e2e16 	streq	r2, [lr, #-3606]!	; 0xfffff1ea
    236c:	39030605 	stmdbcc	r3, {r0, r2, r9, sl}
    2370:	060b0501 	streq	r0, [fp], -r1, lsl #10
    2374:	06050501 	streq	r0, [r5], -r1, lsl #10
    2378:	060a054b 	streq	r0, [sl], -fp, asr #10
    237c:	06050501 	streq	r0, [r5], -r1, lsl #10
    2380:	060d054b 	streq	r0, [sp], -fp, asr #10
    2384:	2e070501 	cfsh32cs	mvfx0, mvfx7, #1
    2388:	054d0105 	strbeq	r0, [sp, #-261]	; 0xfffffefb
    238c:	04020005 	streq	r0, [r2], #-5
    2390:	78030601 	stmdavc	r3, {r0, r9, sl}
    2394:	0402004a 	streq	r0, [r2], #-74	; 0xffffffb6
    2398:	02000101 	andeq	r0, r0, #1073741824	; 0x40000000
    239c:	ba060104 	blt	1827b4 <__bss_end__+0x1774b4>
    23a0:	01040200 	mrseq	r0, R12_usr
    23a4:	09052e06 	stmdbeq	r5, {r1, r2, r9, sl, fp, sp}
    23a8:	82060134 	andhi	r0, r6, #13
    23ac:	052e0666 	streq	r0, [lr, #-1638]!	; 0xfffff99a
    23b0:	0106db20 	tsteq	r6, r0, lsr #22
    23b4:	4b060505 	blmi	1837d0 <__bss_end__+0x1784d0>
    23b8:	04020001 	streq	r0, [r2], #-1
    23bc:	02004a02 	andeq	r4, r0, #8192	; 0x2000
    23c0:	00010204 	andeq	r0, r1, r4, lsl #4
    23c4:	13020402 	movwne	r0, #9218	; 0x2402
    23c8:	02001205 	andeq	r1, r0, #1342177280	; 0x50000000
    23cc:	01060204 	tsteq	r6, r4, lsl #4
    23d0:	02040200 	andeq	r0, r4, #0, 4
    23d4:	0402002e 	streq	r0, [r2], #-46	; 0xffffffd2
    23d8:	05052e02 	streq	r2, [r5, #-3586]	; 0xfffff1fe
    23dc:	02040200 	andeq	r0, r4, #0, 4
    23e0:	02002f06 	andeq	r2, r0, #6, 30
    23e4:	05670204 	strbeq	r0, [r7, #-516]!	; 0xfffffdfc
    23e8:	04020001 	streq	r0, [r2], #-1
    23ec:	05130602 	ldreq	r0, [r3, #-1538]	; 0xfffff9fe
    23f0:	04020005 	streq	r0, [r2], #-5
    23f4:	00620601 	rsbeq	r0, r2, r1, lsl #12
    23f8:	01010402 	tsteq	r1, r2, lsl #8
    23fc:	01040200 	mrseq	r0, R12_usr
    2400:	0200ba06 	andeq	fp, r0, #24576	; 0x6000
    2404:	2e060104 	adfcss	f0, f6, f4
    2408:	0a033c05 	beq	d1424 <__bss_end__+0xc6124>
    240c:	0501069e 	streq	r0, [r1, #-1694]	; 0xfffff962
    2410:	014b0605 	cmpeq	fp, r5, lsl #12
    2414:	2e062e06 	cdpcs	14, 0, cr2, cr6, cr6, {0}
    2418:	05011301 	streq	r1, [r1, #-769]	; 0xfffffcff
    241c:	7fad0318 	svcvc	0x00ad0318
    2420:	13050501 	movwne	r0, #21761	; 0x5501
    2424:	01061105 	tsteq	r6, r5, lsl #2
    2428:	0305052e 	movweq	r0, #21806	; 0x552e
    242c:	060100d2 			; <UNDEFINED> instruction: 0x060100d2
    2430:	1805134a 	stmdane	r5, {r1, r3, r6, r8, r9, ip}
    2434:	017fa303 	cmneq	pc, r3, lsl #6
    2438:	05130505 	ldreq	r0, [r3, #-1285]	; 0xfffffafb
    243c:	4a010616 	bmi	43c9c <__bss_end__+0x3899c>
    2440:	03060505 	movweq	r0, #25861	; 0x6505
    2444:	050100e1 	streq	r0, [r1, #-225]	; 0xffffff1f
    2448:	05010612 	streq	r0, [r1, #-1554]	; 0xfffff9ee
    244c:	054b0605 	strbeq	r0, [fp, #-1541]	; 0xfffff9fb
    2450:	7fa90318 	svcvc	0x00a90318
    2454:	13050501 	movwne	r0, #21761	; 0x5501
    2458:	0e180501 	cfmul32eq	mvfx0, mvfx8, mvfx1
    245c:	05130505 	ldreq	r0, [r3, #-1285]	; 0xfffffafb
    2460:	2e010611 	mcrcs	6, 0, r0, cr1, cr1, {0}
    2464:	06150505 	ldreq	r0, [r5], -r5, lsl #10
    2468:	0513014a 	ldreq	r0, [r3, #-330]	; 0xfffffeb6
    246c:	2e01060e 	cfmadd32cs	mvax0, mvfx0, mvfx1, mvfx14
    2470:	2e2e1605 	cfmadda32cs	mvax0, mvax1, mvfx14, mvfx5
    2474:	03060505 	movweq	r0, #25861	; 0x6505
    2478:	010100d6 	ldrdeq	r0, [r1, -r6]
    247c:	9f031805 	svcls	0x00031805
    2480:	0505017f 	streq	r0, [r5, #-383]	; 0xfffffe81
    2484:	06190513 			; <UNDEFINED> instruction: 0x06190513
    2488:	05052e01 	streq	r2, [r5, #-3585]	; 0xfffff1ff
    248c:	0100e003 	tsteq	r0, r3
    2490:	02040200 	andeq	r0, r4, #0, 4
    2494:	02004a06 	andeq	r4, r0, #24576	; 0x6000
    2498:	05140204 	ldreq	r0, [r4, #-516]	; 0xfffffdfc
    249c:	0402000a 	streq	r0, [r2], #-10
    24a0:	05010602 	streq	r0, [r1, #-1538]	; 0xfffff9fe
    24a4:	04020005 	streq	r0, [r2], #-5
    24a8:	054b0602 	strbeq	r0, [fp, #-1538]	; 0xfffff9fe
    24ac:	0402000c 	streq	r0, [r2], #-12
    24b0:	05010602 	streq	r0, [r1, #-1538]	; 0xfffff9fe
    24b4:	04020001 	streq	r0, [r2], #-1
    24b8:	05052f02 	streq	r2, [r5, #-3842]	; 0xfffff0fe
    24bc:	01040200 	mrseq	r0, R12_usr
    24c0:	4a730306 	bmi	1cc30e0 <__bss_end__+0x1cb7de0>
    24c4:	01040200 	mrseq	r0, R12_usr
    24c8:	04020001 	streq	r0, [r2], #-1
    24cc:	009e0601 	addseq	r0, lr, r1, lsl #12
    24d0:	2e010402 	cdpcs	4, 0, cr0, cr1, cr2, {0}
    24d4:	01040200 	mrseq	r0, R12_usr
    24d8:	02002e06 	andeq	r2, r0, #96	; 0x60
    24dc:	002f0104 	eoreq	r0, pc, r4, lsl #2
    24e0:	2e010402 	cdpcs	4, 0, cr0, cr1, cr2, {0}
    24e4:	01040200 	mrseq	r0, R12_usr
    24e8:	7fb103d6 	svcvc	0x00b103d6
    24ec:	8206012e 	andhi	r0, r6, #-2147483637	; 0x8000000b
    24f0:	2e062e2e 	cdpcs	14, 0, cr2, cr6, cr14, {1}
    24f4:	02002e06 	andeq	r2, r0, #96	; 0x60
    24f8:	03060104 	movweq	r0, #24836	; 0x6104
    24fc:	000100d7 	ldrdeq	r0, [r1], -r7
    2500:	2e010402 	cdpcs	4, 0, cr0, cr1, cr2, {0}
    2504:	01040200 	mrseq	r0, R12_usr
    2508:	081505d6 	ldmdaeq	r5, {r1, r2, r4, r6, r7, r8, sl}
    250c:	0117057b 	tsteq	r7, fp, ror r5
    2510:	05311605 	ldreq	r1, [r1, #-1541]!	; 0xfffff9fb
    2514:	1d050118 	stfnes	f0, [r5, #-96]	; 0xffffffa0
    2518:	2b050106 	blcs	142938 <__bss_end__+0x137638>
    251c:	06190566 	ldreq	r0, [r9], -r6, ror #10
    2520:	1305054d 	movwne	r0, #21837	; 0x554d
    2524:	01060c05 	tsteq	r6, r5, lsl #24
    2528:	054a0705 	strbeq	r0, [sl, #-1797]	; 0xfffff8fb
    252c:	04020025 	streq	r0, [r2], #-37	; 0xffffffdb
    2530:	1e054a01 	vmlane.f32	s8, s10, s2
    2534:	01040200 	mrseq	r0, R12_usr
    2538:	0609054a 	streq	r0, [r9], -sl, asr #10
    253c:	1305054b 	movwne	r0, #21835	; 0x554b
    2540:	01060a05 	tsteq	r6, r5, lsl #20
    2544:	05631905 	strbeq	r1, [r3, #-2309]!	; 0xfffff6fb
    2548:	014c0609 	cmpeq	ip, r9, lsl #12
    254c:	2e069e06 	cdpcs	14, 0, cr9, cr6, cr6, {0}
    2550:	01000a02 	tsteq	r0, r2, lsl #20
    2554:	00028901 	andeq	r8, r2, r1, lsl #18
    2558:	c9000300 	stmdbgt	r0, {r8, r9}
    255c:	02000000 	andeq	r0, r0, #0, 0
    2560:	0d0efb01 	vstreq	d15, [lr, #-4]
    2564:	01010100 	mrseq	r0, (UNDEF: 17)
    2568:	00000001 	andeq	r0, r0, r1
    256c:	01000001 	tsteq	r0, r1
    2570:	72732f2e 	rsbsvc	r2, r3, #184	; 0xb8
    2574:	552f0063 	strpl	r0, [pc, #-99]!	; 2519 <__code_start__-0x5ae7>
    2578:	73726573 	cmnvc	r2, #482344960	; 0x1cc00000
    257c:	6c696d2f 	stclvs	13, cr6, [r9], #-188	; 0xffffff44
    2580:	532f7365 			; <UNDEFINED> instruction: 0x532f7365
    2584:	6372756f 	cmnvs	r2, #465567744	; 0x1bc00000
    2588:	73632f65 	cmnvc	r3, #404	; 0x194
    258c:	6c303432 	cfldrsvs	mvf3, [r0], #-200	; 0xffffff38
    2590:	696c2f78 	stmdbvs	ip!, {r3, r4, r5, r6, r8, r9, sl, fp, sp}^
    2594:	2f697062 	svccs	0x00697062
    2598:	6c636e69 	stclvs	14, cr6, [r3], #-420	; 0xfffffe5c
    259c:	00656475 	rsbeq	r6, r5, r5, ror r4
    25a0:	74706f2f 	ldrbtvc	r6, [r0], #-3887	; 0xfffff0d1
    25a4:	6d6f682f 	stclvs	8, cr6, [pc, #-188]!	; 24f0 <__code_start__-0x5b10>
    25a8:	65726265 	ldrbvs	r6, [r2, #-613]!	; 0xfffffd9b
    25ac:	65432f77 	strbvs	r2, [r3, #-3959]	; 0xfffff089
    25b0:	72616c6c 	rsbvc	r6, r1, #108, 24	; 0x6c00
    25b4:	6d72612f 	ldfvse	f6, [r2, #-188]!	; 0xffffff44
    25b8:	6e6f6e2d 	cdpvs	14, 6, cr6, cr15, cr13, {1}
    25bc:	61652d65 	cmnvs	r5, r5, ror #26
    25c0:	392d6962 	pushcc	{r1, r5, r6, r8, fp, sp, lr}
    25c4:	322d392f 	eorcc	r3, sp, #770048	; 0xbc000
    25c8:	71393130 	teqvc	r9, r0, lsr r1
    25cc:	73632d34 	cmnvc	r3, #52, 26	; 0xd00
    25d0:	65373031 	ldrvs	r3, [r7, #-49]!	; 0xffffffcf
    25d4:	62696c2f 	rsbvs	r6, r9, #12032	; 0x2f00
    25d8:	6363672f 	cmnvs	r3, #12320768	; 0xbc0000
    25dc:	6d72612f 	ldfvse	f6, [r2, #-188]!	; 0xffffff44
    25e0:	6e6f6e2d 	cdpvs	14, 6, cr6, cr15, cr13, {1}
    25e4:	61652d65 	cmnvs	r5, r5, ror #26
    25e8:	392f6962 	stmdbcc	pc!, {r1, r5, r6, r8, fp, sp, lr}	; <UNPREDICTABLE>
    25ec:	312e322e 			; <UNDEFINED> instruction: 0x312e322e
    25f0:	636e692f 	cmnvs	lr, #770048	; 0xbc000
    25f4:	6564756c 	strbvs	r7, [r4, #-1388]!	; 0xfffffa94
    25f8:	70670000 	rsbvc	r0, r7, r0
    25fc:	632e6f69 			; <UNDEFINED> instruction: 0x632e6f69
    2600:	00000100 	andeq	r0, r0, r0, lsl #2
    2604:	2e697072 	mcrcs	0, 3, r7, cr9, cr2, {3}
    2608:	00020068 	andeq	r0, r2, r8, rrx
    260c:	64747300 	ldrbtvs	r7, [r4], #-768	; 0xfffffd00
    2610:	2d746e69 	ldclcs	14, cr6, [r4, #-420]!	; 0xfffffe5c
    2614:	2e636367 	cdpcs	3, 6, cr6, cr3, cr7, {3}
    2618:	00030068 	andeq	r0, r3, r8, rrx
    261c:	69706700 	ldmdbvs	r0!, {r8, r9, sl, sp, lr}^
    2620:	00682e6f 	rsbeq	r2, r8, pc, ror #28
    2624:	00000002 	andeq	r0, r0, r2
    2628:	05003805 	streq	r3, [r0, #-2053]	; 0xfffff7fb
    262c:	00a31c02 	adceq	r1, r3, r2, lsl #24
    2630:	01270300 			; <UNDEFINED> instruction: 0x01270300
    2634:	05130505 	ldreq	r0, [r3, #-1285]	; 0xfffffafb
    2638:	05010607 	streq	r0, [r1, #-1543]	; 0xfffff9f9
    263c:	05490606 	strbeq	r0, [r9, #-1542]	; 0xfffff9fa
    2640:	07051505 	streq	r1, [r5, -r5, lsl #10]
    2644:	38050106 	stmdacc	r5, {r1, r2, r8}
    2648:	4d07052b 	cfstr32mi	mvfx0, [r7, #-172]	; 0xffffff54
    264c:	30060505 	andcc	r0, r6, r5, lsl #10
    2650:	01061805 	tsteq	r6, r5, lsl #16
    2654:	05671c05 	strbeq	r1, [r7, #-3077]!	; 0xfffff3fb
    2658:	18054a0e 	stmdane	r5, {r1, r2, r3, r9, fp, lr}
    265c:	4d12052d 	cfldr32mi	mvfx0, [r2, #-180]	; 0xffffff4c
    2660:	0e052f2e 	cdpeq	15, 0, cr2, cr5, cr14, {1}
    2664:	0605052a 	streq	r0, [r5], -sl, lsr #10
    2668:	0513142f 	ldreq	r1, [r3, #-1071]	; 0xfffffbd1
    266c:	05010607 	streq	r0, [r1, #-1543]	; 0xfffff9f9
    2670:	132f0605 			; <UNDEFINED> instruction: 0x132f0605
    2674:	052e2e06 	streq	r2, [lr, #-3590]!	; 0xfffff1fa
    2678:	05051301 	streq	r1, [r5, #-769]	; 0xfffffcff
    267c:	24052e2d 	strcs	r2, [r5], #-3629	; 0xfffff1d3
    2680:	02050006 	andeq	r0, r5, #6, 0
    2684:	0000a37c 	andeq	sl, r0, ip, ror r3
    2688:	13050515 	movwne	r0, #21781	; 0x5515
    268c:	71030605 	tstvc	r3, r5, lsl #12
    2690:	13050501 	movwne	r0, #21761	; 0x5501
    2694:	01060705 	tsteq	r6, r5, lsl #14
    2698:	49060605 	stmdbmi	r6, {r0, r2, r9, sl}
    269c:	14150505 	ldrne	r0, [r5], #-1285	; 0xfffffafb
    26a0:	03062405 	movweq	r2, #25605	; 0x6405
    26a4:	18050109 	stmdane	r5, {r0, r3, r8}
    26a8:	052e7703 	streq	r7, [lr, #-1795]!	; 0xfffff8fd
    26ac:	0e05671c 	mcreq	7, 0, r6, cr5, cr12, {0}
    26b0:	2d18054a 	cfldr32cs	mvfx0, [r8, #-296]	; 0xfffffed8
    26b4:	2e4d1205 	cdpcs	2, 4, cr1, cr13, cr5, {0}
    26b8:	2f0f052f 	svccs	0x000f052f
    26bc:	05290e05 	streq	r0, [r9, #-3589]!	; 0xfffff1fb
    26c0:	142f0605 	strtne	r0, [pc], #-1541	; 26c8 <__code_start__-0x5938>
    26c4:	06070513 			; <UNDEFINED> instruction: 0x06070513
    26c8:	06050501 	streq	r0, [r5], -r1, lsl #10
    26cc:	2e06132f 	cdpcs	3, 0, cr1, cr6, cr15, {1}
    26d0:	05330105 	ldreq	r0, [r3, #-261]!	; 0xfffffefb
    26d4:	052e2905 	streq	r2, [lr, #-2309]!	; 0xfffff6fb
    26d8:	05000627 	streq	r0, [r0, #-1575]	; 0xfffff9d9
    26dc:	00a3d402 	adceq	sp, r3, r2, lsl #8
    26e0:	05051a00 	streq	r1, [r5, #-2560]	; 0xfffff600
    26e4:	06270513 			; <UNDEFINED> instruction: 0x06270513
    26e8:	2f180511 	svccs	0x00180511
    26ec:	2e2e0505 	cfsh64cs	mvdx0, mvdx14, #5
    26f0:	0628054a 	strteq	r0, [r8], -sl, asr #10
    26f4:	ec020500 	cfstr32	mvfx0, [r2], {-0}
    26f8:	160000a3 	strne	r0, [r0], -r3, lsr #1
    26fc:	05130505 	ldreq	r0, [r3, #-1285]	; 0xfffffafb
    2700:	05110628 	ldreq	r0, [r1, #-1576]	; 0xfffff9d8
    2704:	05052f18 	streq	r2, [r5, #-3864]	; 0xfffff0e8
    2708:	054a2e2e 	strbeq	r2, [sl, #-3630]	; 0xfffff1d2
    270c:	05000623 	streq	r0, [r0, #-1571]	; 0xfffff9dd
    2710:	00a40402 	adceq	r0, r4, r2, lsl #8
    2714:	05051600 	streq	r1, [r5, #-1536]	; 0xfffffa00
    2718:	03060513 	movweq	r0, #25875	; 0x6513
    271c:	05050162 	streq	r0, [r5, #-354]	; 0xfffffe9e
    2720:	06070513 			; <UNDEFINED> instruction: 0x06070513
    2724:	06060501 	streq	r0, [r6], -r1, lsl #10
    2728:	15050549 	strne	r0, [r5, #-1353]	; 0xfffffab7
    272c:	23051314 	movwcs	r1, #21268	; 0x5314
    2730:	01170306 	tsteq	r7, r6, lsl #6
    2734:	69032205 	stmdbvs	r3, {r0, r2, r9, sp}
    2738:	821c052e 	andshi	r0, ip, #192937984	; 0xb800000
    273c:	2e0e052e 	cfsh32cs	mvfx0, mvfx14, #30
    2740:	30060505 	andcc	r0, r6, r5, lsl #10
    2744:	01061205 	tsteq	r6, r5, lsl #4
    2748:	05052d4b 	streq	r2, [r5, #-3403]	; 0xfffff2b5
    274c:	13132f06 	tstne	r3, #6, 30
    2750:	03061805 	movweq	r1, #26629	; 0x6805
    2754:	0e05017a 	mcreq	1, 0, r0, cr5, cr10, {3}
    2758:	3405054a 	strcc	r0, [r5], #-1354	; 0xfffffab6
    275c:	0301052e 	movweq	r0, #5422	; 0x152e
    2760:	05052e14 	streq	r2, [r5, #-3604]	; 0xfffff1ec
    2764:	2e2e6c03 	cdpcs	12, 2, cr6, cr14, cr3, {0}
    2768:	00062b05 	andeq	r2, r6, r5, lsl #22
    276c:	a45c0205 	ldrbge	r0, [ip], #-517	; 0xfffffdfb
    2770:	17030000 	strne	r0, [r3, -r0]
    2774:	13050501 	movwne	r0, #21761	; 0x5501
    2778:	01060705 	tsteq	r6, r5, lsl #14
    277c:	71031805 	tstvc	r3, r5, lsl #16
    2780:	032b052e 			; <UNDEFINED> instruction: 0x032b052e
    2784:	07052e0e 	streq	r2, [r5, -lr, lsl #28]
    2788:	0609052f 	streq	r0, [r9], -pc, lsr #10
    278c:	030d052f 	movweq	r0, #54575	; 0xd52f
    2790:	0505016f 	streq	r0, [r5, #-367]	; 0xfffffe91
    2794:	2e2e0613 	mcrcs	6, 1, r0, cr14, cr3, {0}
    2798:	0609052e 	streq	r0, [r9], -lr, lsr #10
    279c:	05011203 	streq	r1, [r1, #-515]	; 0xfffffdfd
    27a0:	0172030d 	cmneq	r2, sp, lsl #6
    27a4:	06130505 	ldreq	r0, [r3], -r5, lsl #10
    27a8:	1d052e2e 	stcne	14, cr2, [r5, #-184]	; 0xffffff48
    27ac:	66100306 	ldrvs	r0, [r0], -r6, lsl #6
    27b0:	05130505 	ldreq	r0, [r3, #-1285]	; 0xfffffafb
    27b4:	2e11061d 	mrccs	6, 0, r0, cr1, cr13, {0}
    27b8:	30060505 	andcc	r0, r6, r5, lsl #10
    27bc:	060e0513 			; <UNDEFINED> instruction: 0x060e0513
    27c0:	30170510 	andscc	r0, r7, r0, lsl r5
    27c4:	0502042e 	streq	r0, [r2, #-1070]	; 0xfffffbd2
    27c8:	dd030630 	stcle	6, cr0, [r3, #-192]	; 0xffffff40
    27cc:	01042e00 	tsteq	r4, r0, lsl #28
    27d0:	03060e05 	movweq	r0, #28165	; 0x6e05
    27d4:	05017fa2 	streq	r7, [r1, #-4002]	; 0xfffff05e
    27d8:	01052f23 	tsteq	r5, r3, lsr #30
    27dc:	0006022f 	andeq	r0, r6, pc, lsr #4
    27e0:	009e0101 	addseq	r0, lr, r1, lsl #2
    27e4:	00030000 	andeq	r0, r3, r0
    27e8:	0000005a 	andeq	r0, r0, sl, asr r0
    27ec:	0efb0102 	cdpeq	1, 15, cr0, cr11, cr2, {0}
    27f0:	0101000d 	tsteq	r1, sp
    27f4:	00000101 	andeq	r0, r0, r1, lsl #2
    27f8:	00000100 	andeq	r0, r0, r0, lsl #2
    27fc:	6c2f2e01 	stcvs	14, cr2, [pc], #-4	; 2800 <__code_start__-0x5800>
    2800:	00636269 	rsbeq	r6, r3, r9, ror #4
    2804:	6573552f 	ldrbvs	r5, [r3, #-1327]!	; 0xfffffad1
    2808:	6d2f7372 	stcvs	3, cr7, [pc, #-456]!	; 2648 <__code_start__-0x59b8>
    280c:	73656c69 	cmnvc	r5, #26880	; 0x6900
    2810:	756f532f 	strbvc	r5, [pc, #-815]!	; 24e9 <__code_start__-0x5b17>
    2814:	2f656372 	svccs	0x00656372
    2818:	34327363 	ldrtcc	r7, [r2], #-867	; 0xfffffc9d
    281c:	2f786c30 	svccs	0x00786c30
    2820:	7062696c 	rsbvc	r6, r2, ip, ror #18
    2824:	6e692f69 	cdpvs	15, 6, cr2, cr9, cr9, {3}
    2828:	64756c63 	ldrbtvs	r6, [r5], #-3171	; 0xfffff39d
    282c:	70000065 	andvc	r0, r0, r5, rrx
    2830:	68637475 	stmdavs	r3!, {r0, r2, r4, r5, r6, sl, ip, sp, lr}^
    2834:	632e7261 			; <UNDEFINED> instruction: 0x632e7261
    2838:	00000100 	andeq	r0, r0, r0, lsl #2
    283c:	2e697072 	mcrcs	0, 3, r7, cr9, cr2, {3}
    2840:	00020068 	andeq	r0, r2, r8, rrx
    2844:	24050000 	strcs	r0, [r5], #-0
    2848:	b4020500 	strlt	r0, [r2], #-1280	; 0xfffffb00
    284c:	140000a4 	strne	r0, [r0], #-164	; 0xffffff5c
    2850:	05012605 	streq	r2, [r1, #-1541]	; 0xfffff9fb
    2854:	2e010624 	cfmadd32cs	mvax1, mvfx0, mvfx1, mvfx4
    2858:	052e2605 	streq	r2, [lr, #-1541]!	; 0xfffff9fb
    285c:	052e0634 	streq	r0, [lr, #-1588]!	; 0xfffff9cc
    2860:	05010601 	streq	r0, [r1, #-1537]	; 0xfffff9ff
    2864:	054f061b 	strbeq	r0, [pc, #-1563]	; 2251 <__code_start__-0x5daf>
    2868:	11051305 	tstne	r5, r5, lsl #6
    286c:	01050106 	tsteq	r5, r6, lsl #2
    2870:	06230567 	strteq	r0, [r3], -r7, ror #10
    2874:	13050567 	movwne	r0, #21863	; 0x5567
    2878:	01061105 	tsteq	r6, r5, lsl #2
    287c:	024b0105 	subeq	r0, fp, #1073741825	; 0x40000001
    2880:	01010004 	tsteq	r1, r4
    2884:	000000e2 	andeq	r0, r0, r2, ror #1
    2888:	00590003 	subseq	r0, r9, r3
    288c:	01020000 	mrseq	r0, (UNDEF: 2)
    2890:	000d0efb 	strdeq	r0, [sp], -fp
    2894:	01010101 	tsteq	r1, r1, lsl #2
    2898:	01000000 	mrseq	r0, (UNDEF: 0)
    289c:	2e010000 	cdpcs	0, 0, cr0, cr1, cr0, {0}
    28a0:	62696c2f 	rsbvs	r6, r9, #12032	; 0x2f00
    28a4:	552f0063 	strpl	r0, [pc, #-99]!	; 2849 <__code_start__-0x57b7>
    28a8:	73726573 	cmnvc	r2, #482344960	; 0x1cc00000
    28ac:	6c696d2f 	stclvs	13, cr6, [r9], #-188	; 0xffffff44
    28b0:	532f7365 			; <UNDEFINED> instruction: 0x532f7365
    28b4:	6372756f 	cmnvs	r2, #465567744	; 0x1bc00000
    28b8:	73632f65 	cmnvc	r3, #404	; 0x194
    28bc:	6c303432 	cfldrsvs	mvf3, [r0], #-200	; 0xffffff38
    28c0:	696c2f78 	stmdbvs	ip!, {r3, r4, r5, r6, r8, r9, sl, fp, sp}^
    28c4:	2f697062 	svccs	0x00697062
    28c8:	6c636e69 	stclvs	14, cr6, [r3], #-420	; 0xfffffe5c
    28cc:	00656475 	rsbeq	r6, r5, r5, ror r4
    28d0:	72747300 	rsbsvc	r7, r4, #0, 6
    28d4:	2e746163 	rpwcssz	f6, f4, f3
    28d8:	00010063 	andeq	r0, r1, r3, rrx
    28dc:	69707200 	ldmdbvs	r0!, {r9, ip, sp, lr}^
    28e0:	0200682e 	andeq	r6, r0, #3014656	; 0x2e0000
    28e4:	05000000 	streq	r0, [r0, #-0]
    28e8:	0205002c 	andeq	r0, r5, #44, 0	; 0x2c
    28ec:	0000a4f0 	strdeq	sl, [r0], -r0
    28f0:	13050515 	movwne	r0, #21781	; 0x5515
    28f4:	060b0513 			; <UNDEFINED> instruction: 0x060b0513
    28f8:	00050511 	andeq	r0, r5, r1, lsl r5
    28fc:	06010402 	streq	r0, [r1], -r2, lsl #8
    2900:	04020030 	streq	r0, [r2], #-48	; 0xffffffd0
    2904:	09051501 	stmdbeq	r5, {r0, r8, sl, ip}
    2908:	01040200 	mrseq	r0, R12_usr
    290c:	000b0513 	andeq	r0, fp, r3, lsl r5
    2910:	2f010402 	svccs	0x00010402
    2914:	02000505 	andeq	r0, r0, #20971520	; 0x1400000
    2918:	01060104 	tsteq	r6, r4, lsl #2
    291c:	01040200 	mrseq	r0, R12_usr
    2920:	054e062e 	strbeq	r0, [lr, #-1582]	; 0xfffff9d2
    2924:	05010608 	streq	r0, [r1, #-1544]	; 0xfffff9f8
    2928:	04020005 	streq	r0, [r2], #-5
    292c:	052f0601 	streq	r0, [pc, #-1537]!	; 2333 <__code_start__-0x5ccd>
    2930:	04020009 	streq	r0, [r2], #-9
    2934:	0b051301 	bleq	147540 <__bss_end__+0x13c240>
    2938:	01040200 	mrseq	r0, R12_usr
    293c:	09050106 	stmdbeq	r5, {r1, r2, r8}
    2940:	01040200 	mrseq	r0, R12_usr
    2944:	05052f06 	streq	r2, [r5, #-3846]	; 0xfffff0fa
    2948:	01040200 	mrseq	r0, R12_usr
    294c:	0f051306 	svceq	0x00051306
    2950:	01040200 	mrseq	r0, R12_usr
    2954:	000d052d 	andeq	r0, sp, sp, lsr #10
    2958:	06010402 	streq	r0, [r1], -r2, lsl #8
    295c:	0005052f 	andeq	r0, r5, pc, lsr #10
    2960:	06010402 	streq	r0, [r1], -r2, lsl #8
    2964:	00040201 	andeq	r0, r4, r1, lsl #4
    2968:	00b20101 	adcseq	r0, r2, r1, lsl #2
    296c:	00030000 	andeq	r0, r3, r0
    2970:	00000059 	andeq	r0, r0, r9, asr r0
    2974:	0efb0102 	cdpeq	1, 15, cr0, cr11, cr2, {0}
    2978:	0101000d 	tsteq	r1, sp
    297c:	00000101 	andeq	r0, r0, r1, lsl #2
    2980:	00000100 	andeq	r0, r0, r0, lsl #2
    2984:	6c2f2e01 	stcvs	14, cr2, [pc], #-4	; 2988 <__code_start__-0x5678>
    2988:	00636269 	rsbeq	r6, r3, r9, ror #4
    298c:	6573552f 	ldrbvs	r5, [r3, #-1327]!	; 0xfffffad1
    2990:	6d2f7372 	stcvs	3, cr7, [pc, #-456]!	; 27d0 <__code_start__-0x5830>
    2994:	73656c69 	cmnvc	r5, #26880	; 0x6900
    2998:	756f532f 	strbvc	r5, [pc, #-815]!	; 2671 <__code_start__-0x598f>
    299c:	2f656372 	svccs	0x00656372
    29a0:	34327363 	ldrtcc	r7, [r2], #-867	; 0xfffffc9d
    29a4:	2f786c30 	svccs	0x00786c30
    29a8:	7062696c 	rsbvc	r6, r2, ip, ror #18
    29ac:	6e692f69 	cdpvs	15, 6, cr2, cr9, cr9, {3}
    29b0:	64756c63 	ldrbtvs	r6, [r5], #-3171	; 0xfffff39d
    29b4:	73000065 	movwvc	r0, #101	; 0x65
    29b8:	6d637274 	sfmvs	f7, 2, [r3, #-464]!	; 0xfffffe30
    29bc:	00632e70 	rsbeq	r2, r3, r0, ror lr
    29c0:	72000001 	andvc	r0, r0, #1, 0
    29c4:	682e6970 	stmdavs	lr!, {r4, r5, r6, r8, fp, sp, lr}
    29c8:	00000200 	andeq	r0, r0, r0, lsl #4
    29cc:	002a0500 	eoreq	r0, sl, r0, lsl #10
    29d0:	a51c0205 	ldrge	r0, [ip, #-517]	; 0xfffffdfb
    29d4:	05140000 	ldreq	r0, [r4, #-0]
    29d8:	10051309 	andne	r1, r5, r9, lsl #6
    29dc:	0f050106 	svceq	0x00050106
    29e0:	10052e06 	andne	r2, r5, r6, lsl #28
    29e4:	0f058206 	svceq	0x00058206
    29e8:	0011052e 	andseq	r0, r1, lr, lsr #10
    29ec:	06010402 	streq	r0, [r1], -r2, lsl #8
    29f0:	001c054b 	andseq	r0, ip, fp, asr #10
    29f4:	06010402 	streq	r0, [r1], -r2, lsl #8
    29f8:	000f052d 	andeq	r0, pc, sp, lsr #10
    29fc:	06010402 	streq	r0, [r1], -r2, lsl #8
    2a00:	0013052e 	andseq	r0, r3, lr, lsr #10
    2a04:	06010402 	streq	r0, [r1], -r2, lsl #8
    2a08:	06090501 	streq	r0, [r9], -r1, lsl #10
    2a0c:	0601054c 	streq	r0, [r1], -ip, asr #10
    2a10:	09054a13 	stmdbeq	r5, {r0, r1, r4, r9, fp, lr}
    2a14:	01052d06 	tsteq	r5, r6, lsl #26
    2a18:	022e1306 	eoreq	r1, lr, #402653184	; 0x18000000
    2a1c:	01010002 	tsteq	r1, r2
    2a20:	0000009d 	muleq	r0, sp, r0
    2a24:	00590003 	subseq	r0, r9, r3
    2a28:	01020000 	mrseq	r0, (UNDEF: 2)
    2a2c:	000d0efb 	strdeq	r0, [sp], -fp
    2a30:	01010101 	tsteq	r1, r1, lsl #2
    2a34:	01000000 	mrseq	r0, (UNDEF: 0)
    2a38:	2e010000 	cdpcs	0, 0, cr0, cr1, cr0, {0}
    2a3c:	62696c2f 	rsbvs	r6, r9, #12032	; 0x2f00
    2a40:	552f0063 	strpl	r0, [pc, #-99]!	; 29e5 <__code_start__-0x561b>
    2a44:	73726573 	cmnvc	r2, #482344960	; 0x1cc00000
    2a48:	6c696d2f 	stclvs	13, cr6, [r9], #-188	; 0xffffff44
    2a4c:	532f7365 			; <UNDEFINED> instruction: 0x532f7365
    2a50:	6372756f 	cmnvs	r2, #465567744	; 0x1bc00000
    2a54:	73632f65 	cmnvc	r3, #404	; 0x194
    2a58:	6c303432 	cfldrsvs	mvf3, [r0], #-200	; 0xffffff38
    2a5c:	696c2f78 	stmdbvs	ip!, {r3, r4, r5, r6, r8, r9, sl, fp, sp}^
    2a60:	2f697062 	svccs	0x00697062
    2a64:	6c636e69 	stclvs	14, cr6, [r3], #-420	; 0xfffffe5c
    2a68:	00656475 	rsbeq	r6, r5, r5, ror r4
    2a6c:	72747300 	rsbsvc	r7, r4, #0, 6
    2a70:	2e797063 	cdpcs	0, 7, cr7, cr9, cr3, {3}
    2a74:	00010063 	andeq	r0, r1, r3, rrx
    2a78:	69707200 	ldmdbvs	r0!, {r9, ip, sp, lr}^
    2a7c:	0200682e 	andeq	r6, r0, #3014656	; 0x2e0000
    2a80:	05000000 	streq	r0, [r0, #-0]
    2a84:	0205002a 	andeq	r0, r5, #42, 0	; 0x2a
    2a88:	0000a560 	andeq	sl, r0, r0, ror #10
    2a8c:	13050514 	movwne	r0, #21780	; 0x5514
    2a90:	00220513 	eoreq	r0, r2, r3, lsl r5
    2a94:	2e010402 	cdpcs	4, 0, cr0, cr1, cr2, {0}
    2a98:	02000b05 	andeq	r0, r0, #5120	; 0x1400
    2a9c:	05010104 	streq	r0, [r1, #-260]	; 0xfffffefc
    2aa0:	04020015 	streq	r0, [r2], #-21	; 0xffffffeb
    2aa4:	05010601 	streq	r0, [r1, #-1537]	; 0xfffff9ff
    2aa8:	0402000b 	streq	r0, [r2], #-11
    2aac:	13052e01 	movwne	r2, #24065	; 0x5e01
    2ab0:	01040200 	mrseq	r0, R12_usr
    2ab4:	000b052e 	andeq	r0, fp, lr, lsr #10
    2ab8:	2e010402 	cdpcs	4, 0, cr0, cr1, cr2, {0}
    2abc:	01000402 	tsteq	r0, r2, lsl #8
    2ac0:	0000fd01 	andeq	pc, r0, r1, lsl #26
    2ac4:	bf000300 	svclt	0x00000300
    2ac8:	02000000 	andeq	r0, r0, #0, 0
    2acc:	0d0efb01 	vstreq	d15, [lr, #-4]
    2ad0:	01010100 	mrseq	r0, (UNDEF: 17)
    2ad4:	00000001 	andeq	r0, r0, r1
    2ad8:	01000001 	tsteq	r0, r1
    2adc:	696c2f2e 	stmdbvs	ip!, {r1, r2, r3, r5, r8, r9, sl, fp, sp}^
    2ae0:	2f006362 	svccs	0x00006362
    2ae4:	72657355 	rsbvc	r7, r5, #1409286145	; 0x54000001
    2ae8:	696d2f73 	stmdbvs	sp!, {r0, r1, r4, r5, r6, r8, r9, sl, fp, sp}^
    2aec:	2f73656c 	svccs	0x0073656c
    2af0:	72756f53 	rsbsvc	r6, r5, #332	; 0x14c
    2af4:	632f6563 			; <UNDEFINED> instruction: 0x632f6563
    2af8:	30343273 	eorscc	r3, r4, r3, ror r2
    2afc:	6c2f786c 	stcvs	8, cr7, [pc], #-432	; 2954 <__code_start__-0x56ac>
    2b00:	69706269 	ldmdbvs	r0!, {r0, r3, r5, r6, r9, sp, lr}^
    2b04:	636e692f 	cmnvs	lr, #770048	; 0xbc000
    2b08:	6564756c 	strbvs	r7, [r4, #-1388]!	; 0xfffffa94
    2b0c:	706f2f00 	rsbvc	r2, pc, r0, lsl #30
    2b10:	6f682f74 	svcvs	0x00682f74
    2b14:	7262656d 	rsbvc	r6, r2, #457179136	; 0x1b400000
    2b18:	432f7765 			; <UNDEFINED> instruction: 0x432f7765
    2b1c:	616c6c65 	cmnvs	ip, r5, ror #24
    2b20:	72612f72 	rsbvc	r2, r1, #456	; 0x1c8
    2b24:	6f6e2d6d 	svcvs	0x006e2d6d
    2b28:	652d656e 	strvs	r6, [sp, #-1390]!	; 0xfffffa92
    2b2c:	2d696261 	sfmcs	f6, 2, [r9, #-388]!	; 0xfffffe7c
    2b30:	2d392f39 	ldccs	15, cr2, [r9, #-228]!	; 0xffffff1c
    2b34:	39313032 	ldmdbcc	r1!, {r1, r4, r5, ip, sp}
    2b38:	632d3471 			; <UNDEFINED> instruction: 0x632d3471
    2b3c:	37303173 			; <UNDEFINED> instruction: 0x37303173
    2b40:	696c2f65 	stmdbvs	ip!, {r0, r2, r5, r6, r8, r9, sl, fp, sp}^
    2b44:	63672f62 	cmnvs	r7, #392	; 0x188
    2b48:	72612f63 	rsbvc	r2, r1, #396	; 0x18c
    2b4c:	6f6e2d6d 	svcvs	0x006e2d6d
    2b50:	652d656e 	strvs	r6, [sp, #-1390]!	; 0xfffffa92
    2b54:	2f696261 	svccs	0x00696261
    2b58:	2e322e39 	mrccs	14, 1, r2, cr2, cr9, {1}
    2b5c:	6e692f31 	mcrvs	15, 3, r2, cr9, cr1, {1}
    2b60:	64756c63 	ldrbtvs	r6, [r5], #-3171	; 0xfffff39d
    2b64:	73000065 	movwvc	r0, #101	; 0x65
    2b68:	636e7274 	cmnvs	lr, #116, 4	; 0x40000007
    2b6c:	632e706d 			; <UNDEFINED> instruction: 0x632e706d
    2b70:	00000100 	andeq	r0, r0, r0, lsl #2
    2b74:	2e697072 	mcrcs	0, 3, r7, cr9, cr2, {3}
    2b78:	00020068 	andeq	r0, r2, r8, rrx
    2b7c:	64747300 	ldrbtvs	r7, [r4], #-768	; 0xfffffd00
    2b80:	2e666564 	cdpcs	5, 6, cr6, cr6, cr4, {3}
    2b84:	00030068 	andeq	r0, r3, r8, rrx
    2b88:	39050000 	stmdbcc	r5, {}	; <UNPREDICTABLE>
    2b8c:	78020500 	stmdavc	r2, {r8, sl}
    2b90:	150000a5 	strne	r0, [r0, #-165]	; 0xffffff5b
    2b94:	13130505 	tstne	r3, #20971520	; 0x1400000
    2b98:	2e060a05 	vmlacs.f32	s0, s12, s10
    2b9c:	052f0c05 	streq	r0, [pc, #-3077]!	; 1f9f <__code_start__-0x6061>
    2ba0:	0b052e13 	bleq	14e3f4 <__bss_end__+0x1430f4>
    2ba4:	0609052e 	streq	r0, [r9], -lr, lsr #10
    2ba8:	110a054a 	tstne	sl, sl, asr #10
    2bac:	0c050106 	stfeqs	f0, [r5], {6}
    2bb0:	2f01054e 	svccs	0x0001054e
    2bb4:	2b060d05 	blcs	185fd0 <__bss_end__+0x17acd0>
    2bb8:	01061b05 	tsteq	r6, r5, lsl #22
    2bbc:	0002022e 	andeq	r0, r2, lr, lsr #4
    2bc0:	008a0101 	addeq	r0, sl, r1, lsl #2
    2bc4:	00030000 	andeq	r0, r3, r0
    2bc8:	0000006e 	andeq	r0, r0, lr, rrx
    2bcc:	0efb0102 	cdpeq	1, 15, cr0, cr11, cr2, {0}
    2bd0:	0101000d 	tsteq	r1, sp
    2bd4:	00000101 	andeq	r0, r0, r1, lsl #2
    2bd8:	00000100 	andeq	r0, r0, r0, lsl #2
    2bdc:	732f2e01 			; <UNDEFINED> instruction: 0x732f2e01
    2be0:	66666174 			; <UNDEFINED> instruction: 0x66666174
    2be4:	6372732d 	cmnvs	r2, #-1275068416	; 0xb4000000
    2be8:	73552f00 	cmpvc	r5, #0, 30
    2bec:	2f737265 	svccs	0x00737265
    2bf0:	656c696d 	strbvs	r6, [ip, #-2413]!	; 0xfffff693
    2bf4:	6f532f73 	svcvs	0x00532f73
    2bf8:	65637275 	strbvs	r7, [r3, #-629]!	; 0xfffffd8b
    2bfc:	3273632f 	rsbscc	r6, r3, #-1140850688	; 0xbc000000
    2c00:	786c3034 	stmdavc	ip!, {r2, r4, r5, ip, sp}^
    2c04:	62696c2f 	rsbvs	r6, r9, #12032	; 0x2f00
    2c08:	692f6970 	stmdbvs	pc!, {r4, r5, r6, r8, fp, sp, lr}	; <UNPREDICTABLE>
    2c0c:	756c636e 	strbvc	r6, [ip, #-878]!	; 0xfffffc92
    2c10:	00006564 	andeq	r6, r0, r4, ror #10
    2c14:	61666564 	cmnvs	r6, r4, ror #10
    2c18:	2d746c75 	ldclcs	12, cr6, [r4, #-468]!	; 0xfffffe2c
    2c1c:	6f626572 	svcvs	0x00626572
    2c20:	632d746f 			; <UNDEFINED> instruction: 0x632d746f
    2c24:	6f6c6c61 	svcvs	0x006c6c61
    2c28:	632e7475 			; <UNDEFINED> instruction: 0x632e7475
    2c2c:	00000100 	andeq	r0, r0, r0, lsl #2
    2c30:	2e697072 	mcrcs	0, 3, r7, cr9, cr2, {3}
    2c34:	00020068 	andeq	r0, r2, r8, rrx
    2c38:	1b050000 	blne	142c40 <__bss_end__+0x137940>
    2c3c:	a8020500 	stmdage	r2, {r8, sl}
    2c40:	140000a5 	strne	r0, [r0], #-165	; 0xffffff5b
    2c44:	05011c05 	streq	r1, [r1, #-3077]	; 0xfffff3fb
    2c48:	02010601 	andeq	r0, r1, #1048576	; 0x100000
    2c4c:	01010002 	tsteq	r1, r2

Disassembly of section .debug_str:

00000000 <.debug_str>:
   0:	765f6b63 	ldrbvc	r6, [pc], -r3, ror #22
   4:	6f627265 	svcvs	0x00627265
   8:	705f6573 	subsvc	r6, pc, r3, ror r5	; <UNPREDICTABLE>
   c:	616b6300 	cmnvs	fp, r0, lsl #6
  10:	636f6c6c 	cmnvs	pc, #108, 24	; 0x6c00
  14:	6e696c00 	cdpvs	12, 6, cr6, cr9, cr0, {0}
  18:	006f6e65 	rsbeq	r6, pc, r5, ror #28
  1c:	6d746f6e 	ldclvs	15, cr6, [r4, #-440]!	; 0xfffffe48
  20:	006e6961 	rsbeq	r6, lr, r1, ror #18
  24:	656c6966 	strbvs	r6, [ip, #-2406]!	; 0xfffff69a
  28:	73657400 	cmnvc	r5, #0, 8
  2c:	322d7374 	eorcc	r7, sp, #116, 6	; 0xd0000001
  30:	702f302e 	eorvc	r3, pc, lr, lsr #32
  34:	31747261 	cmncc	r4, r1, ror #4
  38:	7365742d 	cmnvc	r5, #754974720	; 0x2d000000
  3c:	622d3274 	eorvs	r3, sp, #116, 4	; 0x40000007
  40:	632e6775 			; <UNDEFINED> instruction: 0x632e6775
  44:	656c6300 	strbvs	r6, [ip, #-768]!	; 0xfffffd00
  48:	725f6e61 	subsvc	r6, pc, #1552	; 0x610
  4c:	6f6f6265 	svcvs	0x006f6265
  50:	68730074 	ldmdavs	r3!, {r2, r4, r5, r6}^
  54:	2074726f 	rsbscs	r7, r4, pc, ror #4
  58:	69736e75 	ldmdbvs	r3!, {r0, r2, r4, r5, r6, r9, sl, fp, sp, lr}^
  5c:	64656e67 	strbtvs	r6, [r5], #-3687	; 0xfffff199
  60:	746e6920 	strbtvc	r6, [lr], #-2336	; 0xfffff6e0
  64:	554e4700 	strbpl	r4, [lr, #-1792]	; 0xfffff900
  68:	39394320 	ldmdbcc	r9!, {r5, r8, r9, lr}
  6c:	322e3920 	eorcc	r3, lr, #32, 18	; 0x80000
  70:	3220312e 	eorcc	r3, r0, #-2147483637	; 0x8000000b
  74:	31393130 	teqcc	r9, r0, lsr r1
  78:	20353230 	eorscs	r3, r5, r0, lsr r2
  7c:	6c657228 	sfmvs	f7, 2, [r5], #-160	; 0xffffff60
  80:	65736165 	ldrbvs	r6, [r3, #-357]!	; 0xfffffe9b
  84:	415b2029 	cmpmi	fp, r9, lsr #32
  88:	612f4d52 			; <UNDEFINED> instruction: 0x612f4d52
  8c:	392d6d72 	pushcc	{r1, r4, r5, r6, r8, sl, fp, sp, lr}
  90:	6172622d 	cmnvs	r2, sp, lsr #4
  94:	2068636e 	rsbcs	r6, r8, lr, ror #6
  98:	69766572 	ldmdbvs	r6!, {r1, r4, r5, r6, r8, sl, sp, lr}^
  9c:	6e6f6973 			; <UNDEFINED> instruction: 0x6e6f6973
  a0:	37373220 	ldrcc	r3, [r7, -r0, lsr #4]!
  a4:	5d393935 			; <UNDEFINED> instruction: 0x5d393935
  a8:	636d2d20 	cmnvs	sp, #32, 26	; 0x800
  ac:	613d7570 	teqvs	sp, r0, ror r5
  b0:	31316d72 	teqcc	r1, r2, ror sp
  b4:	7a6a3637 	bvc	1a8d998 <__bss_end__+0x1a82698>
  b8:	20732d66 	rsbscs	r2, r3, r6, ror #26
  bc:	75746d2d 	ldrbvc	r6, [r4, #-3373]!	; 0xfffff2d3
  c0:	613d656e 	teqvs	sp, lr, ror #10
  c4:	31316d72 	teqcc	r1, r2, ror sp
  c8:	7a6a3637 	bvc	1a8d9ac <__bss_end__+0x1a826ac>
  cc:	20732d66 	rsbscs	r2, r3, r6, ror #26
  d0:	6f706d2d 	svcvs	0x00706d2d
  d4:	662d656b 	strtvs	r6, [sp], -fp, ror #10
  d8:	74636e75 	strbtvc	r6, [r3], #-3701	; 0xfffff18b
  dc:	2d6e6f69 	stclcs	15, cr6, [lr, #-420]!	; 0xfffffe5c
  e0:	656d616e 	strbvs	r6, [sp, #-366]!	; 0xfffffe92
  e4:	666d2d20 	strbtvs	r2, [sp], -r0, lsr #26
  e8:	74616f6c 	strbtvc	r6, [r1], #-3948	; 0xfffff094
  ec:	6962612d 	stmdbvs	r2!, {r0, r2, r3, r5, r8, sp, lr}^
  f0:	666f733d 			; <UNDEFINED> instruction: 0x666f733d
  f4:	6d2d2074 	stcvs	0, cr2, [sp, #-464]!	; 0xfffffe30
  f8:	206d7261 	rsbcs	r7, sp, r1, ror #4
  fc:	72616d2d 	rsbvc	r6, r1, #2880	; 0xb40
 100:	613d6863 	teqvs	sp, r3, ror #16
 104:	36766d72 			; <UNDEFINED> instruction: 0x36766d72
 108:	2d207a6b 	vstmdbcs	r0!, {s14-s120}
 10c:	62646767 	rsbvs	r6, r4, #27000832	; 0x19c0000
 110:	674f2d20 	strbvs	r2, [pc, -r0, lsr #26]
 114:	74732d20 	ldrbtvc	r2, [r3], #-3360	; 0xfffff2e0
 118:	6e673d64 	cdpvs	13, 6, cr3, cr7, cr4, {3}
 11c:	20393975 	eorscs	r3, r9, r5, ror r9
 120:	7266662d 	rsbvc	r6, r6, #47185920	; 0x2d00000
 124:	74736565 	ldrbtvc	r6, [r3], #-1381	; 0xfffffa9b
 128:	69646e61 	stmdbvs	r4!, {r0, r5, r6, r9, sl, fp, sp, lr}^
 12c:	2d20676e 	stccs	7, cr6, [r0, #-440]!	; 0xfffffe48
 130:	2d6f6e66 	stclcs	14, cr6, [pc, #-408]!	; ffffffa0 <__bss_end__+0xffff4ca0>
 134:	74696d6f 	strbtvc	r6, [r9], #-3439	; 0xfffff291
 138:	6172662d 	cmnvs	r2, sp, lsr #12
 13c:	702d656d 	eorvc	r6, sp, sp, ror #10
 140:	746e696f 	strbtvc	r6, [lr], #-2415	; 0xfffff691
 144:	73007265 	movwvc	r7, #613	; 0x265
 148:	6c5f6372 	mrrcvs	3, 7, r6, pc, cr2	; <UNPREDICTABLE>
 14c:	6d5f636f 	ldclvs	3, cr6, [pc, #-444]	; ffffff98 <__bss_end__+0xffff4c98>
 150:	6e75006b 	cdpvs	0, 7, cr0, cr5, cr11, {3}
 154:	6e676973 			; <UNDEFINED> instruction: 0x6e676973
 158:	63206465 			; <UNDEFINED> instruction: 0x63206465
 15c:	00726168 	rsbseq	r6, r2, r8, ror #2
 160:	6573552f 	ldrbvs	r5, [r3, #-1327]!	; 0xfffffad1
 164:	6d2f7372 	stcvs	3, cr7, [pc, #-456]!	; ffffffa4 <__bss_end__+0xffff4ca4>
 168:	73656c69 	cmnvc	r5, #26880	; 0x6900
 16c:	756f532f 	strbvc	r5, [pc, #-815]!	; fffffe45 <__bss_end__+0xffff4b45>
 170:	2f656372 	svccs	0x00656372
 174:	34327363 	ldrtcc	r7, [r2], #-867	; 0xfffffc9d
 178:	2f786c30 	svccs	0x00786c30
 17c:	7362616c 	cmnvc	r2, #27
 180:	642d362f 	strtvs	r3, [sp], #-1583	; 0xfffff9d1
 184:	67756265 	ldrbvs	r6, [r5, -r5, ror #4]!
 188:	6c6c612d 	stfvse	f6, [ip], #-180	; 0xffffff4c
 18c:	632f636f 			; <UNDEFINED> instruction: 0x632f636f
 190:	0065646f 	rsbeq	r6, r5, pc, ror #8
 194:	636e7566 	cmnvs	lr, #427819008	; 0x19800000
 198:	465f5f00 	ldrbmi	r5, [pc], -r0, lsl #30
 19c:	54434e55 	strbpl	r4, [r3], #-3669	; 0xfffff1ab
 1a0:	5f4e4f49 	svcpl	0x004e4f49
 1a4:	6f6c005f 	svcvs	0x006c005f
 1a8:	6c20676e 	stcvs	7, cr6, [r0], #-440	; 0xfffffe48
 1ac:	20676e6f 	rsbcs	r6, r7, pc, ror #28
 1b0:	69736e75 	ldmdbvs	r3!, {r0, r2, r4, r5, r6, r9, sl, fp, sp, lr}^
 1b4:	64656e67 	strbtvs	r6, [r5], #-3687	; 0xfffff199
 1b8:	746e6920 	strbtvc	r6, [lr], #-2336	; 0xfffff6e0
 1bc:	6e6f6c00 	cdpvs	12, 6, cr6, cr15, cr0, {0}
 1c0:	6f6c2067 	svcvs	0x006c2067
 1c4:	6920676e 	stmdbvs	r0!, {r1, r2, r3, r5, r6, r8, r9, sl, sp, lr}
 1c8:	7200746e 	andvc	r7, r0, #1845493760	; 0x6e000000
 1cc:	705f6970 	subsvc	r6, pc, r0, ror r9	; <UNPREDICTABLE>
 1d0:	68637475 	stmdavs	r3!, {r0, r2, r4, r5, r6, sl, ip, sp, lr}^
 1d4:	63007261 	movwvs	r7, #609	; 0x261
 1d8:	6572666b 	ldrbvs	r6, [r2, #-1643]!	; 0xfffff995
 1dc:	68730065 	ldmdavs	r3!, {r0, r2, r5, r6}^
 1e0:	2074726f 	rsbscs	r7, r4, pc, ror #4
 1e4:	00746e69 	rsbseq	r6, r4, r9, ror #28
 1e8:	5f637273 	svcpl	0x00637273
 1ec:	5f636f6c 	svcpl	0x00636f6c
 1f0:	656d0074 	strbvs	r0, [sp, #-116]!	; 0xffffff8c
 1f4:	7465736d 	strbtvc	r7, [r5], #-877	; 0xfffffc93
 1f8:	5f6b6300 	svcpl	0x006b6300
 1fc:	5f727470 	svcpl	0x00727470
 200:	625f6e69 	subsvs	r6, pc, #1680	; 0x690
 204:	6b636f6c 	blvs	18dbfbc <__bss_end__+0x18d0cbc>
 208:	72646800 	rsbvc	r6, r4, #0, 16
 20c:	6200745f 	andvs	r7, r0, #1593835520	; 0x5f000000
 210:	6b636f6c 	blvs	18dbfc8 <__bss_end__+0x18d0cc8>
 214:	0064695f 	rsbeq	r6, r4, pc, asr r9
 218:	45455246 	strbmi	r5, [r5, #-582]	; 0xfffffdba
 21c:	626e0044 	rsbvs	r0, lr, #68, 0	; 0x44
 220:	73657479 	cmnvc	r5, #2030043136	; 0x79000000
 224:	6c6c615f 	stfvse	f6, [ip], #-380	; 0xfffffe84
 228:	7300636f 	movwvc	r6, #879	; 0x36f
 22c:	6f646168 	svcvs	0x00646168
 230:	666f5f77 	uqsub16vs	r5, pc, r7	; <UNPREDICTABLE>
 234:	74657366 	strbtvc	r7, [r5], #-870	; 0xfffffc9a
 238:	44455200 	strbmi	r5, [r5], #-512	; 0xfffffe00
 23c:	454e4f5a 	strbmi	r4, [lr, #-3930]	; 0xfffff0a6
 240:	4c41565f 	mcrrmi	6, 5, r5, r1, cr15
 244:	44455200 	strbmi	r5, [r5], #-512	; 0xfffffe00
 248:	454e4f5a 	strbmi	r4, [lr, #-3930]	; 0xfffff0a6
 24c:	59424e5f 	stmdbpl	r2, {r0, r1, r2, r3, r4, r6, r9, sl, fp, lr}^
 250:	00534554 	subseq	r4, r3, r4, asr r5
 254:	665f6b63 	ldrbvs	r6, [pc], -r3, ror #22
 258:	74737269 	ldrbtvc	r7, [r3], #-617	; 0xfffffd97
 25c:	7264685f 	rsbvc	r6, r4, #6225920	; 0x5f0000
 260:	6e697500 	cdpvs	5, 6, cr7, cr9, cr0, {0}
 264:	745f3874 	ldrbvc	r3, [pc], #-2164	; 26c <__code_start__-0x7d94>
 268:	74616400 	strbtvc	r6, [r1], #-1024	; 0xfffffc00
 26c:	74735f61 	ldrbtvc	r5, [r3], #-3937	; 0xfffff09f
 270:	00747261 	rsbseq	r7, r4, r1, ror #4
 274:	6f6c6c61 	svcvs	0x006c6c61
 278:	696c5f63 	stmdbvs	ip!, {r0, r1, r5, r6, r8, r9, sl, fp, ip, lr}^
 27c:	63007473 	movwvs	r7, #1139	; 0x473
 280:	64685f6b 	strbtvs	r5, [r8], #-3947	; 0xfffff095
 284:	68730072 	ldmdavs	r3!, {r1, r4, r5, r6}^
 288:	776f6461 	strbvc	r6, [pc, -r1, ror #8]!
 28c:	636f6c5f 	cmnvs	pc, #24320	; 0x5f00
 290:	6f697461 	svcvs	0x00697461
 294:	6c61006e 	stclvs	0, cr0, [r1], #-440	; 0xfffffe48
 298:	5f636f6c 	svcpl	0x00636f6c
 29c:	00636f6c 	rsbeq	r6, r3, ip, ror #30
 2a0:	74617473 	strbtvc	r7, [r1], #-1139	; 0xfffffb8d
 2a4:	61620065 	cmnvs	r2, r5, rrx
 2a8:	72746b63 	rsbsvc	r6, r4, #101376	; 0x18c00
 2ac:	00656361 	rsbeq	r6, r5, r1, ror #6
 2b0:	73666572 	cmnvc	r6, #478150656	; 0x1c800000
 2b4:	6174735f 	cmnvs	r4, pc, asr r3
 2b8:	5f007472 	svcpl	0x00007472
 2bc:	6165685f 	cmnvs	r5, pc, asr r8
 2c0:	74735f70 	ldrbtvc	r5, [r3], #-3952	; 0xfffff090
 2c4:	5f747261 	svcpl	0x00747261
 2c8:	6975005f 	ldmdbvs	r5!, {r0, r1, r2, r3, r4, r6}^
 2cc:	3233746e 	eorscc	r7, r3, #1845493760	; 0x6e000000
 2d0:	7500745f 	strvc	r7, [r0, #-1119]	; 0xfffffba1
 2d4:	31746e69 	cmncc	r4, r9, ror #28
 2d8:	00745f36 	rsbseq	r5, r4, r6, lsr pc
 2dc:	705f6b63 	subsvc	r6, pc, r3, ror #22
 2e0:	695f7274 	ldmdbvs	pc, {r2, r4, r5, r6, r9, ip, sp, lr}^	; <UNPREDICTABLE>
 2e4:	6c615f73 	stclvs	15, cr5, [r1], #-460	; 0xfffffe34
 2e8:	65636f6c 	strbvs	r6, [r3, #-3948]!	; 0xfffff094
 2ec:	68730064 	ldmdavs	r3!, {r2, r5, r6}^
 2f0:	776f6461 	strbvc	r6, [pc, -r1, ror #8]!
 2f4:	6174735f 	cmnvs	r4, pc, asr r3
 2f8:	63007472 	movwvs	r7, #1138	; 0x472
 2fc:	656e5f6b 	strbvs	r5, [lr, #-3947]!	; 0xfffff095
 300:	685f7478 	ldmdavs	pc, {r3, r4, r5, r6, sl, ip, sp, lr}^	; <UNPREDICTABLE>
 304:	63007264 	movwvs	r7, #612	; 0x264
 308:	6c6c616b 	stfvse	f6, [ip], #-428	; 0xfffffe54
 30c:	632e636f 			; <UNDEFINED> instruction: 0x632e636f
 310:	66657200 	strbtvs	r7, [r5], -r0, lsl #4
 314:	696d5f73 	stmdbvs	sp!, {r0, r1, r4, r5, r6, r8, r9, sl, fp, ip, lr}^
 318:	656c6464 	strbvs	r6, [ip, #-1124]!	; 0xfffffb9c
 31c:	4c4c4100 	stfmie	f4, [ip], {-0}
 320:	4445434f 	strbmi	r4, [r5], #-847	; 0xfffffcb1
 324:	5f6b6300 	svcpl	0x006b6300
 328:	5f726468 	svcpl	0x00726468
 32c:	72617473 	rsbvc	r7, r1, #1929379840	; 0x73000000
 330:	726f0074 	rsbvc	r0, pc, #116, 0	; 0x74
 334:	6e696769 	cdpvs	7, 6, cr6, cr9, cr9, {3}
 338:	63006c61 	movwvs	r6, #3169	; 0xc61
 33c:	64685f6b 	strbtvs	r5, [r8], #-3947	; 0xfffff095
 340:	6e655f72 	mcrvs	15, 3, r5, cr5, cr2, {3}
 344:	72660064 	rsbvc	r0, r6, #100, 0	; 0x64
 348:	6c5f6565 	cfldr64vs	mvdx6, [pc], {101}	; 0x65
 34c:	6300636f 	movwvs	r6, #879	; 0x36f
 350:	626e5f6b 	rsbvs	r5, lr, #428	; 0x1ac
 354:	73657479 	cmnvc	r5, #2030043136	; 0x79000000
 358:	5f726b00 	svcpl	0x00726b00
 35c:	6c6c616d 	stfvse	f6, [ip], #-436	; 0xfffffe4c
 360:	6e00636f 	cdpvs	3, 0, cr6, cr0, cr15, {3}
 364:	00747865 	rsbseq	r7, r4, r5, ror #16
 368:	64616568 	strbtvs	r6, [r1], #-1384	; 0xfffffa98
 36c:	70007265 	andvc	r7, r0, r5, ror #4
 370:	70766572 	rsbsvc	r6, r6, r2, ror r5
 374:	696c6100 	stmdbvs	ip!, {r8, sp, lr}^
 378:	6b006e67 	blvs	1bd1c <__bss_end__+0x10a1c>
 37c:	72665f72 	rsbvc	r5, r6, #456	; 0x1c8
 380:	66006565 	strvs	r6, [r0], -r5, ror #10
 384:	70656572 	rsbvc	r6, r5, r2, ror r5
 388:	6e756e00 	cdpvs	14, 7, cr6, cr5, cr0, {0}
 38c:	00737469 	rsbseq	r7, r3, r9, ror #8
 390:	6d2d726b 	sfmvs	f7, 4, [sp, #-428]!	; 0xfffffe54
 394:	6f6c6c61 	svcvs	0x006c6c61
 398:	00632e63 	rsbeq	r2, r3, r3, ror #28
 39c:	62756f64 	rsbsvs	r6, r5, #100, 30	; 0x190
 3a0:	6200656c 	andvs	r6, r0, #108, 10	; 0x1b000000
 3a4:	00657361 	rsbeq	r7, r5, r1, ror #6
 3a8:	6b726273 	blvs	1c98d7c <__bss_end__+0x1c8da7c>
 3ac:	726f6d00 	rsbvc	r6, pc, #0, 26
 3b0:	726f6365 	rsbvc	r6, pc, #-1811939327	; 0x94000001
 3b4:	69730065 	ldmdbvs	r3!, {r0, r2, r5, r6}^
 3b8:	4800657a 	stmdami	r0, {r1, r3, r4, r5, r6, r8, sl, sp, lr}
 3bc:	65646165 	strbvs	r6, [r4, #-357]!	; 0xfffffe9b
 3c0:	74730072 	ldrbtvc	r0, [r3], #-114	; 0xffffff8e
 3c4:	5f6b6361 	svcpl	0x006b6361
 3c8:	00706f74 	rsbseq	r6, r0, r4, ror pc
 3cc:	6b72616d 	blvs	1c98988 <__bss_end__+0x1c8d688>
 3d0:	6c6c615f 	stfvse	f6, [ip], #-380	; 0xfffffe84
 3d4:	706d6900 	rsbvc	r6, sp, r0, lsl #18
 3d8:	656d656c 	strbvs	r6, [sp, #-1388]!	; 0xfffffa94
 3dc:	745f746e 	ldrbvc	r7, [pc], #-1134	; 3e4 <__code_start__-0x7c1c>
 3e0:	00736968 	rsbseq	r6, r3, r8, ror #18
 3e4:	73625f5f 	cmnvc	r2, #380	; 0x17c
 3e8:	74735f73 	ldrbtvc	r5, [r3], #-3955	; 0xfffff08d
 3ec:	5f747261 	svcpl	0x00747261
 3f0:	626e005f 	rsbvs	r0, lr, #95, 0	; 0x5f
 3f4:	6b636f6c 	blvs	18dc1ac <__bss_end__+0x18d0eac>
 3f8:	6e690073 	mcrvs	0, 3, r0, cr9, cr3, {3}
 3fc:	705f7469 	subsvc	r7, pc, r9, ror #8
 400:	79626e00 	stmdbvc	r2!, {r9, sl, fp, sp, lr}^
 404:	5f736574 	svcpl	0x00736574
 408:	65657266 	strbvs	r7, [r5, #-614]!	; 0xfffffd9a
 40c:	6c6f0064 	stclvs	0, cr0, [pc], #-400	; 284 <__code_start__-0x7d7c>
 410:	616d5f64 	cmnvs	sp, r4, ror #30
 414:	69006b72 	stmdbvs	r0, {r1, r4, r5, r6, r8, r9, fp, sp, lr}
 418:	6572636e 	ldrbvs	r6, [r2, #-878]!	; 0xfffffc92
 41c:	746e656d 	strbtvc	r6, [lr], #-1389	; 0xfffffa93
 420:	5f6b6300 	svcpl	0x006b6300
 424:	646e6966 	strbtvs	r6, [lr], #-2406	; 0xfffff69a
 428:	61656c5f 	cmnvs	r5, pc, asr ip
 42c:	6d00736b 	stcvs	3, cr7, [r0, #-428]	; 0xfffffe54
 430:	65627961 	strbvs	r7, [r2, #-2401]!	; 0xfffff69f
 434:	7272655f 	rsbsvc	r6, r2, #398458880	; 0x17c00000
 438:	0073726f 	rsbseq	r7, r3, pc, ror #4
 43c:	675f6b63 	ldrbvs	r6, [pc, -r3, ror #22]
 440:	5f5f0063 	svcpl	0x005f0063
 444:	61746164 	cmnvs	r4, r4, ror #2
 448:	646e655f 	strbtvs	r6, [lr], #-1375	; 0xfffffaa1
 44c:	64005f5f 	strvs	r5, [r0], #-3935	; 0xfffff0a1
 450:	5f706d75 	svcpl	0x00706d75
 454:	73676572 	cmnvc	r7, #478150656	; 0x1c800000
 458:	656c6e00 	strbvs	r6, [ip, #-3584]!	; 0xfffff200
 45c:	00736b61 	rsbseq	r6, r3, r1, ror #22
 460:	6f727265 	svcvs	0x00727265
 464:	745f7372 	ldrbvc	r7, [pc], #-882	; 46c <__code_start__-0x7b94>
 468:	5f736968 	svcpl	0x00736968
 46c:	636f6c62 	cmnvs	pc, #25088	; 0x6200
 470:	7369006b 	cmnvc	r9, #107, 0	; 0x6b
 474:	7274705f 	rsbsvc	r7, r4, #95, 0	; 0x5f
 478:	72666e00 	rsbvc	r6, r6, #0, 28
 47c:	00646565 	rsbeq	r6, r4, r5, ror #10
 480:	63656863 	cmnvs	r5, #6488064	; 0x630000
 484:	6f6e5f6b 	svcvs	0x006e5f6b
 488:	61656c5f 	cmnvs	r5, pc, asr ip
 48c:	6e69006b 	cdpvs	0, 6, cr0, cr9, cr11, {3}
 490:	6165685f 	cmnvs	r5, pc, asr r8
 494:	6e6f0070 	mcrvs	0, 3, r0, cr15, cr0, {3}
 498:	00626d65 	rsbeq	r6, r2, r5, ror #26
 49c:	672d6b63 	strvs	r6, [sp, -r3, ror #22]!
 4a0:	00632e63 	rsbeq	r2, r3, r3, ror #28
 4a4:	63656863 	cmnvs	r5, #6488064	; 0x630000
 4a8:	68735f6b 	ldmdavs	r3!, {r0, r1, r3, r5, r6, r8, r9, sl, fp, ip, lr}^
 4ac:	646c756f 	strbtvs	r7, [ip], #-1391	; 0xfffffa91
 4b0:	61656c5f 	cmnvs	r5, pc, asr ip
 4b4:	5f5f006b 	svcpl	0x005f006b
 4b8:	5f737362 	svcpl	0x00737362
 4bc:	5f646e65 	svcpl	0x00646e65
 4c0:	6572005f 	ldrbvs	r0, [r2, #-95]!	; 0xffffffa1
 4c4:	6e6f7a64 	vnmulvs.f32	s15, s30, s9
 4c8:	72655f65 	rsbvc	r5, r5, #404	; 0x194
 4cc:	73726f72 	cmnvc	r2, #456	; 0x1c8
 4d0:	64657200 	strbtvs	r7, [r5], #-512	; 0xfffffe00
 4d4:	656e6f7a 	strbvs	r6, [lr, #-3962]!	; 0xfffff086
 4d8:	616d6b00 	cmnvs	sp, r0, lsl #22
 4dc:	636f6c6c 	cmnvs	pc, #108, 24	; 0x6c00
 4e0:	616d6b00 	cmnvs	sp, r0, lsl #22
 4e4:	636f6c6c 	cmnvs	pc, #108, 24	; 0x6c00
 4e8:	696e695f 	stmdbvs	lr!, {r0, r1, r2, r3, r4, r6, r8, fp, sp, lr}^
 4ec:	65735f74 	ldrbvs	r5, [r3, #-3956]!	; 0xfffff08c
 4f0:	74735f74 	ldrbtvc	r5, [r3], #-3956	; 0xfffff08c
 4f4:	00747261 	rsbseq	r7, r4, r1, ror #4
 4f8:	65657773 	strbvs	r7, [r5, #-1907]!	; 0xfffff88d
 4fc:	656c5f70 	strbvs	r5, [ip, #-3952]!	; 0xfffff090
 500:	5f006b61 	svcpl	0x00006b61
 504:	7461645f 	strbtvc	r6, [r1], #-1119	; 0xfffffba1
 508:	74735f61 	ldrbtvc	r5, [r3], #-3937	; 0xfffff09f
 50c:	5f747261 	svcpl	0x00747261
 510:	7773005f 			; <UNDEFINED> instruction: 0x7773005f
 514:	5f706565 	svcpl	0x00706565
 518:	65657266 	strbvs	r7, [r5, #-614]!	; 0xfffffd9a
 51c:	72617700 	rsbvc	r7, r1, #0, 14
 520:	6f6e5f6e 	svcvs	0x006e5f6e
 524:	6174735f 	cmnvs	r4, pc, asr r3
 528:	725f7472 	subsvc	r7, pc, #1912602624	; 0x72000000
 52c:	705f6665 	subsvc	r6, pc, r5, ror #12
 530:	5f6b6300 	svcpl	0x006b6300
 534:	70616568 	rsbvc	r6, r1, r8, ror #10
 538:	7272655f 	rsbsvc	r6, r2, #398458880	; 0x17c00000
 53c:	0073726f 	rsbseq	r7, r3, pc, ror #4
 540:	61746f74 	cmnvs	r4, r4, ror pc
 544:	6f77006c 	svcvs	0x0077006c
 548:	6e006472 	mcrvs	4, 0, r6, cr0, cr2, {3}
 54c:	5f656d61 	svcpl	0x00656d61
 550:	006e656c 	rsbeq	r6, lr, ip, ror #10
 554:	20554e47 	subscs	r4, r5, r7, asr #28
 558:	20393943 	eorscs	r3, r9, r3, asr #18
 55c:	2e322e39 	mrccs	14, 1, r2, cr2, cr9, {1}
 560:	30322031 	eorscc	r2, r2, r1, lsr r0
 564:	30313931 	eorscc	r3, r1, r1, lsr r9
 568:	28203532 	stmdacs	r0!, {r1, r4, r5, r8, sl, ip, sp}
 56c:	656c6572 	strbvs	r6, [ip, #-1394]!	; 0xfffffa8e
 570:	29657361 	stmdbcs	r5!, {r0, r5, r6, r8, r9, ip, sp, lr}^
 574:	52415b20 	subpl	r5, r1, #32, 22	; 0x8000
 578:	72612f4d 	rsbvc	r2, r1, #308	; 0x134
 57c:	2d392d6d 	ldccs	13, cr2, [r9, #-436]!	; 0xfffffe4c
 580:	6e617262 	cdpvs	2, 6, cr7, cr1, cr2, {3}
 584:	72206863 	eorvc	r6, r0, #6488064	; 0x630000
 588:	73697665 	cmnvc	r9, #105906176	; 0x6500000
 58c:	206e6f69 	rsbcs	r6, lr, r9, ror #30
 590:	35373732 	ldrcc	r3, [r7, #-1842]!	; 0xfffff8ce
 594:	205d3939 	subscs	r3, sp, r9, lsr r9
 598:	70636d2d 	rsbvc	r6, r3, sp, lsr #26
 59c:	72613d75 	rsbvc	r3, r1, #7488	; 0x1d40
 5a0:	3731316d 	ldrcc	r3, [r1, -sp, ror #2]!
 5a4:	667a6a36 			; <UNDEFINED> instruction: 0x667a6a36
 5a8:	2d20732d 	stccs	3, cr7, [r0, #-180]!	; 0xffffff4c
 5ac:	6e75746d 	cdpvs	4, 7, cr7, cr5, cr13, {3}
 5b0:	72613d65 	rsbvc	r3, r1, #6464	; 0x1940
 5b4:	3731316d 	ldrcc	r3, [r1, -sp, ror #2]!
 5b8:	667a6a36 			; <UNDEFINED> instruction: 0x667a6a36
 5bc:	2d20732d 	stccs	3, cr7, [r0, #-180]!	; 0xffffff4c
 5c0:	6f6c666d 	svcvs	0x006c666d
 5c4:	612d7461 			; <UNDEFINED> instruction: 0x612d7461
 5c8:	733d6962 	teqvc	sp, #1605632	; 0x188000
 5cc:	2074666f 	rsbscs	r6, r4, pc, ror #12
 5d0:	72616d2d 	rsbvc	r6, r1, #2880	; 0xb40
 5d4:	6d2d206d 	stcvs	0, cr2, [sp, #-436]!	; 0xfffffe4c
 5d8:	68637261 	stmdavs	r3!, {r0, r5, r6, r9, ip, sp, lr}^
 5dc:	6d72613d 	ldfvse	f6, [r2, #-244]!	; 0xffffff0c
 5e0:	7a6b3676 	bvc	1acdfc0 <__bss_end__+0x1ac2cc0>
 5e4:	67672d20 	strbvs	r2, [r7, -r0, lsr #26]!
 5e8:	2d206264 	sfmcs	f6, 4, [r0, #-400]!	; 0xfffffe70
 5ec:	7361664f 	cmnvc	r1, #82837504	; 0x4f00000
 5f0:	732d2074 			; <UNDEFINED> instruction: 0x732d2074
 5f4:	673d6474 			; <UNDEFINED> instruction: 0x673d6474
 5f8:	3939756e 	ldmdbcc	r9!, {r1, r2, r3, r5, r6, r8, sl, ip, sp, lr}
 5fc:	66662d20 	strbtvs	r2, [r6], -r0, lsr #26
 600:	73656572 	cmnvc	r5, #478150656	; 0x1c800000
 604:	646e6174 	strbtvs	r6, [lr], #-372	; 0xfffffe8c
 608:	00676e69 	rsbeq	r6, r7, r9, ror #28
 60c:	735f6e66 	cmpvc	pc, #1632	; 0x660
 610:	74726174 	ldrbtvc	r6, [r2], #-372	; 0xfffffe8c
 614:	6464615f 	strbtvs	r6, [r4], #-351	; 0xfffffea1
 618:	552f0072 	strpl	r0, [pc, #-114]!	; 5ae <__code_start__-0x7a52>
 61c:	73726573 	cmnvc	r2, #482344960	; 0x1cc00000
 620:	6c696d2f 	stclvs	13, cr6, [r9], #-188	; 0xffffff44
 624:	532f7365 			; <UNDEFINED> instruction: 0x532f7365
 628:	6372756f 	cmnvs	r2, #465567744	; 0x1bc00000
 62c:	73632f65 	cmnvc	r3, #404	; 0x194
 630:	6c303432 	cfldrsvs	mvf3, [r0], #-200	; 0xffffff38
 634:	696c2f78 	stmdbvs	ip!, {r3, r4, r5, r6, r8, r9, sl, fp, sp}^
 638:	00697062 	rsbeq	r7, r9, r2, rrx
 63c:	72732f2e 	rsbsvc	r2, r3, #184	; 0xb8
 640:	61622f63 	cmnvs	r2, r3, ror #30
 644:	72746b63 	rsbsvc	r6, r4, #101376	; 0x18c00
 648:	2e656361 	cdpcs	3, 6, cr6, cr5, cr1, {3}
 64c:	75630063 	strbvc	r0, [r3, #-99]!	; 0xffffff9d
 650:	70665f72 	rsbvc	r5, r6, r2, ror pc
 654:	6d616e00 	stclvs	14, cr6, [r1, #-0]
 658:	666f5f65 	strbtvs	r5, [pc], -r5, ror #30
 65c:	7a697300 	bvc	1a5d264 <__bss_end__+0x1a51f64>
 660:	00745f65 	rsbseq	r5, r4, r5, ror #30
 664:	696c2f2e 	stmdbvs	ip!, {r1, r2, r3, r5, r8, r9, sl, fp, sp}^
 668:	6d2f6362 	stcvs	3, cr6, [pc, #-392]!	; 4e8 <__code_start__-0x7b18>
 66c:	65736d65 	ldrbvs	r6, [r3, #-3429]!	; 0xfffff29b
 670:	00632e74 	rsbeq	r2, r3, r4, ror lr
 674:	73677261 	cmnvc	r7, #268435462	; 0x10000006
 678:	5f617600 	svcpl	0x00617600
 67c:	6e697270 	mcrvs	2, 3, r7, cr9, cr0, {3}
 680:	5f006b74 	svcpl	0x00006b74
 684:	756e675f 	strbvc	r6, [lr, #-1887]!	; 0xfffff8a1
 688:	61765f63 	cmnvs	r6, r3, ror #30
 68c:	73696c5f 	cmnvc	r9, #24320	; 0x5f00
 690:	5f5f0074 	svcpl	0x005f0074
 694:	2e007061 	cdpcs	0, 0, cr7, cr0, cr1, {3}
 698:	62696c2f 	rsbvs	r6, r9, #12032	; 0x2f00
 69c:	72702f63 	rsbsvc	r2, r0, #396	; 0x18c
 6a0:	6b746e69 	blvs	1d1c04c <__bss_end__+0x1d10d4c>
 6a4:	5f00632e 	svcpl	0x0000632e
 6a8:	5f61765f 	svcpl	0x0061765f
 6ac:	7473696c 	ldrbtvc	r6, [r3], #-2412	; 0xfffff694
 6b0:	746e6900 	strbtvc	r6, [lr], #-2304	; 0xfffff700
 6b4:	616e7265 	cmnvs	lr, r5, ror #4
 6b8:	75705f6c 	ldrbvc	r5, [r0, #-3948]!	; 0xfffff094
 6bc:	2e006b74 	vmovcs.16	d0[1], r6
 6c0:	62696c2f 	rsbvs	r6, r9, #12032	; 0x2f00
 6c4:	75702f63 	ldrbvc	r2, [r0, #-3939]!	; 0xfffff09d
 6c8:	632e6b74 			; <UNDEFINED> instruction: 0x632e6b74
 6cc:	64736900 	ldrbtvs	r6, [r3], #-2304	; 0xfffff700
 6d0:	74696769 	strbtvc	r6, [r9], #-1897	; 0xfffff897
 6d4:	6e697500 	cdpvs	5, 6, cr7, cr9, cr0, {0}
 6d8:	5f343674 	svcpl	0x00343674
 6dc:	2f2e0074 	svccs	0x002e0074
 6e0:	6362696c 	cmnvs	r2, #108, 18	; 0x1b0000
 6e4:	2d61762f 	stclcs	6, cr7, [r1, #-188]!	; 0xffffff44
 6e8:	6e697270 	mcrvs	2, 3, r7, cr9, cr0, {3}
 6ec:	632e6b74 			; <UNDEFINED> instruction: 0x632e6b74
 6f0:	635f5f00 	cmpvs	pc, #0, 30
 6f4:	5f65646f 	svcpl	0x0065646f
 6f8:	72617473 	rsbvc	r7, r1, #1929379840	; 0x73000000
 6fc:	005f5f74 	subseq	r5, pc, r4, ror pc	; <UNPREDICTABLE>
 700:	74646977 	strbtvc	r6, [r4], #-2423	; 0xfffff689
 704:	75700068 	ldrbvc	r0, [r0, #-104]!	; 0xffffff98
 708:	665f6374 			; <UNDEFINED> instruction: 0x665f6374
 70c:	70720070 	rsbsvc	r0, r2, r0, ror r0
 710:	65735f69 	ldrbvs	r5, [r3, #-3945]!	; 0xfffff097
 714:	756f5f74 	strbvc	r5, [pc, #-3956]!	; fffff7a8 <__bss_end__+0xffff44a8>
 718:	74757074 	ldrbtvc	r7, [r5], #-116	; 0xffffff8c
 71c:	746d6600 	strbtvc	r6, [sp], #-1536	; 0xfffffa00
 720:	6174735f 	cmnvs	r4, pc, asr r3
 724:	73007472 	movwvc	r7, #1138	; 0x472
 728:	61637274 	smcvs	14116	; 0x3724
 72c:	74730074 	ldrbtvc	r0, [r3], #-116	; 0xffffff8c
 730:	79706372 	ldmdbvc	r0!, {r1, r4, r5, r6, r8, r9, sp, lr}^
 734:	67656e00 	strbvs	r6, [r5, -r0, lsl #28]!
 738:	5f00705f 	svcpl	0x0000705f
 73c:	646f635f 	strbtvs	r6, [pc], #-863	; 744 <__code_start__-0x78bc>
 740:	6e655f65 	cdpvs	15, 6, cr5, cr5, cr5, {3}
 744:	005f5f64 	subseq	r5, pc, r4, ror #30
 748:	74696d65 	strbtvc	r6, [r9], #-3429	; 0xfffff29b
 74c:	76657200 	strbtvc	r7, [r5], -r0, lsl #4
 750:	65737265 	ldrbvs	r7, [r3, #-613]!	; 0xfffffd9b
 754:	72747300 	rsbsvc	r7, r4, #0, 6
 758:	00706d63 	rsbseq	r6, r0, r3, ror #26
 75c:	73747570 	cmnvc	r4, #112, 10	; 0x1c000000
 760:	0070665f 	rsbseq	r6, r0, pc, asr r6
 764:	72705f5f 	rsbsvc	r5, r0, #380	; 0x17c
 768:	655f676f 	ldrbvs	r6, [pc, #-1903]	; 1 <__code_start__-0x7fff>
 76c:	5f5f646e 	svcpl	0x005f646e
 770:	6d756e00 	ldclvs	14, cr6, [r5, #-0]
 774:	74730031 	ldrbtvc	r0, [r3], #-49	; 0xffffffcf
 778:	6d636e72 	stclvs	14, cr6, [r3, #-456]!	; 0xfffffe38
 77c:	69730070 	ldmdbvs	r3!, {r4, r5, r6}^
 780:	64656e67 	strbtvs	r6, [r5], #-3687	; 0xfffff199
 784:	7200705f 	andvc	r7, r0, #95, 0	; 0x5f
 788:	725f6970 	subsvc	r6, pc, #112, 18	; 0x1c0000
 78c:	6f6f6265 	svcvs	0x006f6265
 790:	65640074 	strbvs	r0, [r4, #-116]!	; 0xffffff8c
 794:	5f79616c 	svcpl	0x0079616c
 798:	2e00736d 	cdpcs	3, 0, cr7, cr0, cr13, {3}
 79c:	6174732f 	cmnvs	r4, pc, lsr #6
 7a0:	732d6666 			; <UNDEFINED> instruction: 0x732d6666
 7a4:	632f6372 			; <UNDEFINED> instruction: 0x632f6372
 7a8:	6e61656c 	cdpvs	5, 6, cr6, cr1, cr12, {3}
 7ac:	6265722d 	rsbvs	r7, r5, #-805306366	; 0xd0000002
 7b0:	2e746f6f 	cdpcs	15, 7, cr6, cr4, cr15, {3}
 7b4:	61750063 	cmnvs	r5, r3, rrx
 7b8:	665f7472 			; <UNDEFINED> instruction: 0x665f7472
 7bc:	6873756c 	ldmdavs	r3!, {r2, r3, r5, r6, r8, sl, ip, sp, lr}^
 7c0:	0078745f 	rsbseq	r7, r8, pc, asr r4
 7c4:	7473635f 	ldrbtvc	r6, [r3], #-863	; 0xfffffca1
 7c8:	00747261 	rsbseq	r7, r4, r1, ror #4
 7cc:	5f737362 	svcpl	0x00737362
 7d0:	00646e65 	rsbeq	r6, r4, r5, ror #28
 7d4:	74726175 	ldrbtvc	r6, [r2], #-373	; 0xfffffe8b
 7d8:	696e695f 	stmdbvs	lr!, {r0, r1, r2, r3, r4, r6, r8, fp, sp, lr}^
 7dc:	75630074 	strbvc	r0, [r3, #-116]!	; 0xffffff8c
 7e0:	6d6f7473 	cfstrdvs	mvd7, [pc, #-460]!	; 61c <__code_start__-0x79e4>
 7e4:	616f6c5f 	cmnvs	pc, pc, asr ip	; <UNPREDICTABLE>
 7e8:	00726564 	rsbseq	r6, r2, r4, ror #10
 7ec:	74732f2e 	ldrbtvc	r2, [r3], #-3886	; 0xfffff0d2
 7f0:	2d666661 	stclcs	6, cr6, [r6, #-388]!	; 0xfffffe7c
 7f4:	2f637273 	svccs	0x00637273
 7f8:	61747363 	cmnvs	r4, r3, ror #6
 7fc:	632e7472 			; <UNDEFINED> instruction: 0x632e7472
 800:	756f5f00 	strbvc	r5, [pc, #-3840]!	; fffff908 <__bss_end__+0xffff4608>
 804:	79630074 	stmdbvc	r3!, {r2, r4, r5, r6}^
 808:	5f656c63 	svcpl	0x00656c63
 80c:	66666964 	strbtvs	r6, [r6], -r4, ror #18
 810:	73616c00 	cmnvc	r1, #0, 24
 814:	2f2e0074 	svccs	0x002e0074
 818:	66617473 			; <UNDEFINED> instruction: 0x66617473
 81c:	72732d66 	rsbsvc	r2, r3, #6528	; 0x1980
 820:	75632f63 	strbvc	r2, [r3, #-3939]!	; 0xfffff09d
 824:	6d6f7473 	cfstrdvs	mvd7, [pc, #-460]!	; 660 <__code_start__-0x79a0>
 828:	616f6c2d 	cmnvs	pc, sp, lsr #24
 82c:	2e726564 	cdpcs	5, 7, cr6, cr2, cr4, {3}
 830:	65720063 	ldrbvs	r0, [r2, #-99]!	; 0xffffff9d
 834:	746f6f62 	strbtvc	r6, [pc], #-3938	; 83c <__code_start__-0x77c4>
 838:	6c61635f 	stclvs	3, cr6, [r1], #-380	; 0xfffffe84
 83c:	74756f6c 	ldrbtvc	r6, [r5], #-3948	; 0xfffff094
 840:	5f4d5000 	svcpl	0x004d5000
 844:	474f4457 	smlsldmi	r4, pc, r7, r4	; <UNPREDICTABLE>
 848:	54555000 	ldrbpl	r5, [r5], #-0
 84c:	73003233 	movwvc	r3, #563	; 0x233
 850:	755f7465 	ldrbvc	r7, [pc, #-1125]	; 3f3 <__code_start__-0x7c0d>
 854:	5f726573 	svcpl	0x00726573
 858:	6576656c 	ldrbvs	r6, [r6, #-1388]!	; 0xfffffa94
 85c:	2f2e006c 	svccs	0x002e006c
 860:	66617473 			; <UNDEFINED> instruction: 0x66617473
 864:	72732d66 	rsbsvc	r2, r3, #6528	; 0x1980
 868:	65722f63 	ldrbvs	r2, [r2, #-3939]!	; 0xfffff09d
 86c:	746f6f62 	strbtvc	r6, [pc], #-3938	; 874 <__code_start__-0x778c>
 870:	5000632e 	andpl	r6, r0, lr, lsr #6
 874:	41505f4d 	cmpmi	r0, sp, asr #30
 878:	4f575353 	svcmi	0x00575353
 87c:	61004452 	tstvs	r0, r2, asr r4
 880:	73755f74 	cmnvc	r5, #116, 30	; 0x1d0
 884:	6c5f7265 	lfmvs	f7, 2, [pc], {101}	; 0x65
 888:	6c657665 	stclvs	6, cr7, [r5], #-404	; 0xfffffe6c
 88c:	5f4d5000 	svcpl	0x004d5000
 890:	43545352 	cmpmi	r4, #1207959553	; 0x48000001
 894:	4352575f 	cmpmi	r2, #24903680	; 0x17c0000
 898:	465f4746 	ldrbmi	r4, [pc], -r6, asr #14
 89c:	5f4c4c55 	svcpl	0x004c4c55
 8a0:	45534552 	ldrbmi	r4, [r3, #-1362]	; 0xfffffaae
 8a4:	4d500054 	ldclmi	0, cr0, [r0, #-336]	; 0xfffffeb0
 8a8:	5453525f 	ldrbpl	r5, [r3], #-607	; 0xfffffda1
 8ac:	70630043 	rsbvc	r0, r3, r3, asr #32
 8b0:	64007273 	strvs	r7, [r0], #-627	; 0xfffffd8d
 8b4:	625f7665 	subsvs	r7, pc, #105906176	; 0x6500000
 8b8:	69727261 	ldmdbvs	r2!, {r0, r5, r6, r9, ip, sp, lr}^
 8bc:	64007265 	strvs	r7, [r0], #-613	; 0xfffffd9b
 8c0:	79616c65 	stmdbvc	r1!, {r0, r2, r5, r6, sl, fp, sp, lr}^
 8c4:	6365735f 	cmnvs	r5, #2080374785	; 0x7c000001
 8c8:	732f2e00 			; <UNDEFINED> instruction: 0x732f2e00
 8cc:	66666174 			; <UNDEFINED> instruction: 0x66666174
 8d0:	6372732d 	cmnvs	r2, #-1275068416	; 0xb4000000
 8d4:	6d69742f 	cfstrdvs	mvd7, [r9, #-188]!	; 0xffffff44
 8d8:	632e7265 			; <UNDEFINED> instruction: 0x632e7265
 8dc:	54454700 	strbpl	r4, [r5], #-1792	; 0xfffff900
 8e0:	74003233 	strvc	r3, [r0], #-563	; 0xfffffdcd
 8e4:	72656d69 	rsbvc	r6, r5, #6720	; 0x1a40
 8e8:	7465675f 	strbtvc	r6, [r5], #-1887	; 0xfffff8a1
 8ec:	6573755f 	ldrbvs	r7, [r3, #-1375]!	; 0xfffffaa1
 8f0:	65640063 	strbvs	r0, [r4, #-99]!	; 0xffffff9d
 8f4:	5f79616c 	svcpl	0x0079616c
 8f8:	74007375 	strvc	r7, [r0], #-885	; 0xfffffc8b
 8fc:	72656d69 	rsbvc	r6, r5, #6720	; 0x1a40
 900:	7465675f 	strbtvc	r6, [r5], #-1887	; 0xfffff8a1
 904:	6573755f 	ldrbvs	r7, [r3, #-1375]!	; 0xfffffaa1
 908:	61725f63 	cmnvs	r2, r3, ror #30
 90c:	75700077 	ldrbvc	r0, [r0, #-119]!	; 0xffffff89
 910:	00323374 	eorseq	r3, r2, r4, ror r3
 914:	64756162 	ldrbtvs	r6, [r5], #-354	; 0xfffffe9e
 918:	6c61765f 	stclvs	6, cr7, [r1], #-380	; 0xfffffe84
 91c:	61747300 	cmnvs	r4, r0, lsl #6
 920:	61750074 	cmnvs	r5, r4, ror r0
 924:	635f7472 	cmpvs	pc, #1912602624	; 0x72000000
 928:	675f6e61 	ldrbvs	r6, [pc, -r1, ror #28]
 92c:	00637465 	rsbeq	r7, r3, r5, ror #8
 930:	4f495047 	svcmi	0x00495047
 934:	4e55465f 	mrcmi	6, 2, r4, cr5, cr15, {2}
 938:	554f5f43 	strbpl	r5, [pc, #-3907]	; fffff9fd <__bss_end__+0xffff46fd>
 93c:	54555054 	ldrbpl	r5, [r5], #-84	; 0xffffffac
 940:	78756100 	ldmdavc	r5!, {r8, sp, lr}^
 944:	7265705f 	rsbvc	r7, r5, #95, 0	; 0x5f
 948:	73687069 	cmnvc	r8, #105, 0	; 0x69
 94c:	72617500 	rsbvc	r7, r1, #0, 10
 950:	00632e74 	rsbeq	r2, r3, r4, ror lr
 954:	74726175 	ldrbtvc	r6, [r2], #-373	; 0xfffffe8b
 958:	6e61635f 	mcrvs	3, 3, r6, cr1, cr15, {2}
 95c:	7475705f 	ldrbtvc	r7, [r5], #-95	; 0xffffffa1
 960:	61750063 	cmnvs	r5, r3, rrx
 964:	745f7472 	ldrbvc	r7, [pc], #-1138	; 96c <__code_start__-0x7694>
 968:	73695f78 	cmnvc	r9, #120, 30	; 0x1e0
 96c:	706d655f 	rsbvc	r6, sp, pc, asr r5
 970:	47007974 	smlsdxmi	r0, r4, r9, r7
 974:	5f4f4950 	svcpl	0x004f4950
 978:	434e5546 	movtmi	r5, #58694	; 0xe546
 97c:	544c415f 	strbpl	r4, [ip], #-351	; 0xfffffea1
 980:	50470030 	subpl	r0, r7, r0, lsr r0
 984:	465f4f49 	ldrbmi	r4, [pc], -r9, asr #30
 988:	5f434e55 	svcpl	0x00434e55
 98c:	31544c41 	cmpcc	r4, r1, asr #24
 990:	49504700 	ldmdbmi	r0, {r8, r9, sl, lr}^
 994:	55465f4f 	strbpl	r5, [r6, #-3919]	; 0xfffff0b1
 998:	415f434e 	cmpmi	pc, lr, asr #6
 99c:	0032544c 	eorseq	r5, r2, ip, asr #8
 9a0:	4f495047 	svcmi	0x00495047
 9a4:	4e55465f 	mrcmi	6, 2, r4, cr5, cr15, {2}
 9a8:	4c415f43 	mcrrmi	15, 4, r5, r1, cr3
 9ac:	47003354 	smlsdmi	r0, r4, r3, r3
 9b0:	5f4f4950 	svcpl	0x004f4950
 9b4:	434e5546 	movtmi	r5, #58694	; 0xe546
 9b8:	544c415f 	strbpl	r4, [ip], #-351	; 0xfffffea1
 9bc:	682f0035 	stmdavs	pc!, {r0, r2, r4, r5}	; <UNPREDICTABLE>
 9c0:	2f656d6f 	svccs	0x00656d6f
 9c4:	6c676e65 	stclvs	14, cr6, [r7], #-404	; 0xfffffe6c
 9c8:	632f7265 			; <UNDEFINED> instruction: 0x632f7265
 9cc:	7373616c 	cmnvc	r3, #27
 9d0:	3273632f 	rsbscc	r6, r3, #-1140850688	; 0xbc000000
 9d4:	786c3034 	stmdavc	ip!, {r2, r4, r5, ip, sp}^
 9d8:	7332322d 	teqvc	r2, #-805306366	; 0xd0000002
 9dc:	6c2f7270 	sfmvs	f7, 4, [pc], #-448	; 824 <__code_start__-0x77dc>
 9e0:	69706269 	ldmdbvs	r0!, {r0, r3, r5, r6, r9, sp, lr}^
 9e4:	6174732f 	cmnvs	r4, pc, lsr #6
 9e8:	702d6666 	eorvc	r6, sp, r6, ror #12
 9ec:	61766972 	cmnvs	r6, r2, ror r9
 9f0:	62006574 	andvs	r6, r0, #116, 10	; 0x1d000000
 9f4:	00647561 	rsbeq	r7, r4, r1, ror #10
 9f8:	5f787561 	svcpl	0x00787561
 9fc:	62616e65 	rsbvs	r6, r1, #1616	; 0x650
 a00:	0073656c 	rsbseq	r6, r3, ip, ror #10
 a04:	74726175 	ldrbtvc	r6, [r2], #-373	; 0xfffffe8b
 a08:	7465675f 	strbtvc	r6, [r5], #-1887	; 0xfffff8a1
 a0c:	4e470063 	cdpmi	0, 4, cr0, cr7, cr3, {3}
 a10:	39432055 	stmdbcc	r3, {r0, r2, r4, r6, sp}^
 a14:	30312039 	eorscc	r2, r1, r9, lsr r0
 a18:	312e332e 			; <UNDEFINED> instruction: 0x312e332e
 a1c:	32303220 	eorscc	r3, r0, #32, 4
 a20:	32383031 	eorscc	r3, r8, #49, 0	; 0x31
 a24:	72282034 	eorvc	r2, r8, #52, 0	; 0x34
 a28:	61656c65 	cmnvs	r5, r5, ror #24
 a2c:	20296573 	eorcs	r6, r9, r3, ror r5
 a30:	70636d2d 	rsbvc	r6, r3, sp, lsr #26
 a34:	72613d75 	rsbvc	r3, r1, #7488	; 0x1d40
 a38:	3731316d 	ldrcc	r3, [r1, -sp, ror #2]!
 a3c:	667a6a36 			; <UNDEFINED> instruction: 0x667a6a36
 a40:	2d20732d 	stccs	3, cr7, [r0, #-180]!	; 0xffffff4c
 a44:	6e75746d 	cdpvs	4, 7, cr7, cr5, cr13, {3}
 a48:	72613d65 	rsbvc	r3, r1, #6464	; 0x1940
 a4c:	3731316d 	ldrcc	r3, [r1, -sp, ror #2]!
 a50:	667a6a36 			; <UNDEFINED> instruction: 0x667a6a36
 a54:	2d20732d 	stccs	3, cr7, [r0, #-180]!	; 0xffffff4c
 a58:	6f6c666d 	svcvs	0x006c666d
 a5c:	612d7461 			; <UNDEFINED> instruction: 0x612d7461
 a60:	733d6962 	teqvc	sp, #1605632	; 0x188000
 a64:	2074666f 	rsbscs	r6, r4, pc, ror #12
 a68:	72616d2d 	rsbvc	r6, r1, #2880	; 0xb40
 a6c:	6d2d206d 	stcvs	0, cr2, [sp, #-436]!	; 0xfffffe4c
 a70:	68637261 	stmdavs	r3!, {r0, r5, r6, r9, ip, sp, lr}^
 a74:	6d72613d 	ldfvse	f6, [r2, #-244]!	; 0xffffff0c
 a78:	7a6b3676 	bvc	1ace458 <__bss_end__+0x1ac3158>
 a7c:	67672d20 	strbvs	r2, [r7, -r0, lsr #26]!
 a80:	2d206264 	sfmcs	f6, 4, [r0, #-400]!	; 0xfffffe70
 a84:	2d20674f 	stccs	7, cr6, [r0, #-316]!	; 0xfffffec4
 a88:	3d647473 	cfstrdcc	mvd7, [r4, #-460]!	; 0xfffffe34
 a8c:	39756e67 	ldmdbcc	r5!, {r0, r1, r2, r5, r6, r9, sl, fp, sp, lr}^
 a90:	662d2039 			; <UNDEFINED> instruction: 0x662d2039
 a94:	65657266 	strbvs	r7, [r5, #-614]!	; 0xfffffd9a
 a98:	6e617473 	mcrvs	4, 3, r7, cr1, cr3, {3}
 a9c:	676e6964 	strbvs	r6, [lr, -r4, ror #18]!
 aa0:	746e6300 	strbtvc	r6, [lr], #-768	; 0xfffffd00
 aa4:	6175006c 	cmnvs	r5, ip, rrx
 aa8:	645f7472 	ldrbvs	r7, [pc], #-1138	; ab0 <__code_start__-0x7550>
 aac:	62617369 	rsbvs	r7, r1, #-1543503871	; 0xa4000001
 ab0:	7500656c 	strvc	r6, [r0, #-1388]	; 0xfffffa94
 ab4:	5f747261 	svcpl	0x00747261
 ab8:	5f736168 	svcpl	0x00736168
 abc:	61746164 	cmnvs	r4, r4, ror #2
 ac0:	49504700 	ldmdbmi	r0, {r8, r9, sl, lr}^
 ac4:	55465f4f 	strbpl	r5, [r6, #-3919]	; 0xfffff0b1
 ac8:	415f434e 	cmpmi	pc, lr, asr #6
 acc:	0034544c 	eorseq	r5, r4, ip, asr #8
 ad0:	695f726f 	ldmdbvs	pc, {r0, r1, r2, r3, r5, r6, r9, ip, sp, lr}^	; <UNPREDICTABLE>
 ad4:	0032336e 	eorseq	r3, r2, lr, ror #6
 ad8:	61726373 	cmnvs	r2, r3, ror r3
 adc:	00686374 	rsbeq	r6, r8, r4, ror r3
 ae0:	74726175 	ldrbtvc	r6, [r2], #-373	; 0xfffffe8b
 ae4:	646e6100 	strbtvs	r6, [lr], #-256	; 0xffffff00
 ae8:	336e695f 	cmncc	lr, #1556480	; 0x17c000
 aec:	61750032 	cmnvs	r5, r2, lsr r0
 af0:	705f7472 	subsvc	r7, pc, r2, ror r4	; <UNPREDICTABLE>
 af4:	00637475 	rsbeq	r7, r3, r5, ror r4
 af8:	4f495047 	svcmi	0x00495047
 afc:	4e55465f 	mrcmi	6, 2, r4, cr5, cr15, {2}
 b00:	4e495f43 	cdpmi	15, 4, cr5, cr9, cr3, {2}
 b04:	00545550 	subseq	r5, r4, r0, asr r5
 b08:	6f697067 	svcvs	0x00697067
 b0c:	7465735f 	strbtvc	r7, [r5], #-863	; 0xfffffca1
 b10:	6e75665f 	mrcvs	6, 3, r6, cr5, cr15, {2}
 b14:	6f697463 	svcvs	0x00697463
 b18:	6567006e 	strbvs	r0, [r7, #-110]!	; 0xffffff92
 b1c:	00323374 	eorseq	r3, r2, r4, ror r3
 b20:	6c616d6b 	stclvs	13, cr6, [r1], #-428	; 0xfffffe54
 b24:	5f636f6c 	svcpl	0x00636f6c
 b28:	70616568 	rsbvc	r6, r1, r8, ror #10
 b2c:	6174735f 	cmnvs	r4, pc, asr r3
 b30:	6d007472 	cfstrsvs	mvf7, [r0, #-456]	; 0xfffffe38
 b34:	6e5f7861 	cdpvs	8, 5, cr7, cr15, cr1, {3}
 b38:	65747962 	ldrbvs	r7, [r4, #-2402]!	; 0xfffff69e
 b3c:	65680073 	strbvs	r0, [r8, #-115]!	; 0xffffff8d
 b40:	6d5f7061 	ldclvs	0, cr7, [pc, #-388]	; 9c4 <__code_start__-0x763c>
 b44:	6b007861 	blvs	1ecd0 <__bss_end__+0x139d0>
 b48:	65657266 	strbvs	r7, [r5, #-614]!	; 0xfffffd9a
 b4c:	6c6c615f 	stfvse	f6, [ip], #-380	; 0xfffffe84
 b50:	756f7200 	strbvc	r7, [pc, #-512]!	; 958 <__code_start__-0x76a8>
 b54:	7075646e 	rsbsvc	r6, r5, lr, ror #8
 b58:	72666b00 	rsbvc	r6, r6, #0, 22
 b5c:	705f6565 	subsvc	r6, pc, r5, ror #10
 b60:	6100706f 	tstvs	r0, pc, rrx
 b64:	6e67696c 	vnmulvs.f16	s13, s14, s25	; <UNPREDICTABLE>
 b68:	746e656d 	strbtvc	r6, [lr], #-1389	; 0xfffffa93
 b6c:	78616d00 	stmdavc	r1!, {r8, sl, fp, sp, lr}^
 b70:	3233755f 	eorscc	r7, r3, #398458880	; 0x17c00000
 b74:	656e4f00 	strbvs	r4, [lr, #-3840]!	; 0xfffff100
 b78:	6b00424d 	blvs	114b4 <__bss_end__+0x61b4>
 b7c:	6c6c616d 	stfvse	f6, [ip], #-436	; 0xfffffe4c
 b80:	685f636f 	ldmdavs	pc, {r0, r1, r2, r3, r5, r6, r8, r9, sp, lr}^	; <UNPREDICTABLE>
 b84:	5f706165 	svcpl	0x00706165
 b88:	00646e65 	rsbeq	r6, r4, r5, ror #28
 b8c:	6c616d6b 	stclvs	13, cr6, [r1], #-428	; 0xfffffe54
 b90:	5f636f6c 	svcpl	0x00636f6c
 b94:	7a746f6e 	bvc	1d1c954 <__bss_end__+0x1d11654>
 b98:	006f7265 	rsbeq	r7, pc, r5, ror #4
 b9c:	705f7369 	subsvc	r7, pc, r9, ror #6
 ba0:	0032776f 	eorseq	r7, r2, pc, ror #14
 ba4:	6c616d6b 	stclvs	13, cr6, [r1], #-428	; 0xfffffe54
 ba8:	2e636f6c 	cdpcs	15, 6, cr6, cr3, cr12, {3}
 bac:	6d6b0063 	stclvs	0, cr0, [fp, #-396]!	; 0xfffffe74
 bb0:	6f6c6c61 	svcvs	0x006c6c61
 bb4:	6e695f63 	cdpvs	15, 6, cr5, cr9, cr3, {3}
 bb8:	69007469 	stmdbvs	r0, {r0, r3, r5, r6, sl, ip, sp, lr}
 bbc:	6c615f73 	stclvs	15, cr5, [r1], #-460	; 0xfffffe34
 bc0:	656e6769 	strbvs	r6, [lr, #-1897]!	; 0xfffff897
 bc4:	6d6b0064 	stclvs	0, cr0, [fp, #-400]!	; 0xfffffe70
 bc8:	6f6c6c61 	svcvs	0x006c6c61
 bcc:	65685f63 	strbvs	r5, [r8, #-3939]!	; 0xfffff09d
 bd0:	705f7061 	subsvc	r7, pc, r1, rrx
 bd4:	72007274 	andvc	r7, r0, #116, 4	; 0x40000007
 bd8:	725f6970 	subsvc	r6, pc, #112, 18	; 0x1c0000
 bdc:	74657365 	strbtvc	r7, [r5], #-869	; 0xfffffc9b
 be0:	7475705f 	ldrbtvc	r7, [r5], #-95	; 0xffffffa1
 be4:	6d6b0063 	stclvs	0, cr0, [fp, #-396]!	; 0xfffffe74
 be8:	6f6c6c61 	svcvs	0x006c6c61
 bec:	6c615f63 	stclvs	15, cr5, [r1], #-396	; 0xfffffe74
 bf0:	656e6769 	strbvs	r6, [lr, #-1897]!	; 0xfffff897
 bf4:	70670064 	rsbvc	r0, r7, r4, rrx
 bf8:	635f6f69 	cmpvs	pc, #420	; 0x1a4
 bfc:	0030726c 	eorseq	r7, r0, ip, ror #4
 c00:	6f697067 	svcvs	0x00697067
 c04:	7465735f 	strbtvc	r7, [r5], #-863	; 0xfffffca1
 c08:	70670030 	rsbvc	r0, r7, r0, lsr r0
 c0c:	775f6f69 	ldrbvc	r6, [pc, -r9, ror #30]
 c10:	65746972 	ldrbvs	r6, [r4, #-2418]!	; 0xfffff68e
 c14:	56454400 	strbpl	r4, [r5], -r0, lsl #8
 c18:	4c41565f 	mcrrmi	6, 5, r5, r1, cr15
 c1c:	67003233 	smladxvs	r0, r3, r2, r3
 c20:	5f6f6970 	svcpl	0x006f6970
 c24:	64616572 	strbtvs	r6, [r1], #-1394	; 0xfffffa8e
 c28:	732f2e00 			; <UNDEFINED> instruction: 0x732f2e00
 c2c:	672f6372 			; <UNDEFINED> instruction: 0x672f6372
 c30:	2e6f6970 			; <UNDEFINED> instruction: 0x2e6f6970
 c34:	70670063 	rsbvc	r0, r7, r3, rrx
 c38:	735f6f69 	cmpvc	pc, #420	; 0x1a4
 c3c:	695f7465 	ldmdbvs	pc, {r0, r2, r5, r6, sl, ip, sp, lr}^	; <UNPREDICTABLE>
 c40:	7475706e 	ldrbtvc	r7, [r5], #-110	; 0xffffff92
 c44:	69706700 	ldmdbvs	r0!, {r8, r9, sl, sp, lr}^
 c48:	65735f6f 	ldrbvs	r5, [r3, #-3951]!	; 0xfffff091
 c4c:	666f5f74 	uqsub16vs	r5, pc, r4	; <UNPREDICTABLE>
 c50:	70670066 	rsbvc	r0, r7, r6, rrx
 c54:	735f6f69 	cmpvc	pc, #420	; 0x1a4
 c58:	6f5f7465 	svcvs	0x005f7465
 c5c:	75707475 	ldrbvc	r7, [r0, #-1141]!	; 0xfffffb8b
 c60:	70670074 	rsbvc	r0, r7, r4, ror r0
 c64:	665f6f69 	ldrbvs	r6, [pc], -r9, ror #30
 c68:	5f636e75 	svcpl	0x00636e75
 c6c:	70670074 	rsbvc	r0, r7, r4, ror r0
 c70:	6c5f6f69 	mrrcvs	15, 6, r6, pc, cr9	; <UNPREDICTABLE>
 c74:	00307665 	eorseq	r7, r0, r5, ror #12
 c78:	6b6e6162 	blvs	1b99208 <__bss_end__+0x1b8df08>
 c7c:	69706700 	ldmdbvs	r0!, {r8, r9, sl, sp, lr}^
 c80:	65735f6f 	ldrbvs	r5, [r3, #-3951]!	; 0xfffff091
 c84:	6e6f5f74 	mcrvs	15, 3, r5, cr15, cr4, {3}
 c88:	746e6900 	strbtvc	r6, [lr], #-2304	; 0xfffff700
 c8c:	616e7265 	cmnvs	lr, r5, ror #4
 c90:	75705f6c 	ldrbvc	r5, [r0, #-3948]!	; 0xfffff094
 c94:	61686374 	smcvs	34356	; 0x8634
 c98:	70720072 	rsbsvc	r0, r2, r2, ror r0
 c9c:	65735f69 	ldrbvs	r5, [r3, #-3945]!	; 0xfffff097
 ca0:	75705f74 	ldrbvc	r5, [r0, #-3956]!	; 0xfffff08c
 ca4:	2e006374 	mcrcs	3, 0, r6, cr0, cr4, {3}
 ca8:	62696c2f 	rsbvs	r6, r9, #12032	; 0x2f00
 cac:	75702f63 	ldrbvc	r2, [r0, #-3939]!	; 0xfffff09d
 cb0:	61686374 	smcvs	34356	; 0x8634
 cb4:	00632e72 	rsbeq	r2, r3, r2, ror lr
 cb8:	696c2f2e 	stmdbvs	ip!, {r1, r2, r3, r5, r8, r9, sl, fp, sp}^
 cbc:	732f6362 			; <UNDEFINED> instruction: 0x732f6362
 cc0:	61637274 	smcvs	14116	; 0x3724
 cc4:	00632e74 	rsbeq	r2, r3, r4, ror lr
 cc8:	74736564 	ldrbtvc	r6, [r3], #-1380	; 0xfffffa9c
 ccc:	6c2f2e00 	stcvs	14, cr2, [pc], #-0	; cd4 <__code_start__-0x732c>
 cd0:	2f636269 	svccs	0x00636269
 cd4:	63727473 	cmnvs	r2, #1929379840	; 0x73000000
 cd8:	632e706d 			; <UNDEFINED> instruction: 0x632e706d
 cdc:	6c2f2e00 	stcvs	14, cr2, [pc], #-0	; ce4 <__code_start__-0x731c>
 ce0:	2f636269 	svccs	0x00636269
 ce4:	63727473 	cmnvs	r2, #1929379840	; 0x73000000
 ce8:	632e7970 			; <UNDEFINED> instruction: 0x632e7970
 cec:	6c2f2e00 	stcvs	14, cr2, [pc], #-0	; cf4 <__code_start__-0x730c>
 cf0:	2f636269 	svccs	0x00636269
 cf4:	6e727473 	mrcvs	4, 3, r7, cr2, cr3, {3}
 cf8:	2e706d63 	cdpcs	13, 7, cr6, cr0, cr3, {3}
 cfc:	2f2e0063 	svccs	0x002e0063
 d00:	66617473 			; <UNDEFINED> instruction: 0x66617473
 d04:	72732d66 	rsbsvc	r2, r3, #6528	; 0x1980
 d08:	65642f63 	strbvs	r2, [r4, #-3939]!	; 0xfffff09d
 d0c:	6c756166 	ldfvse	f6, [r5], #-408	; 0xfffffe68
 d10:	65722d74 	ldrbvs	r2, [r2, #-3444]!	; 0xfffff28c
 d14:	746f6f62 	strbtvc	r6, [pc], #-3938	; d1c <__code_start__-0x72e4>
 d18:	6c61632d 	stclvs	3, cr6, [r1], #-180	; 0xffffff4c
 d1c:	74756f6c 	ldrbtvc	r6, [r5], #-3948	; 0xfffff094
 d20:	Address 0x0000000000000d20 is out of bounds.


Disassembly of section .debug_frame:

00000000 <.debug_frame>:
   0:	0000000c 	andeq	r0, r0, ip
   4:	ffffffff 			; <UNDEFINED> instruction: 0xffffffff
   8:	7c020001 	stcvc	0, cr0, [r2], {1}
   c:	000d0c0e 	andeq	r0, sp, lr, lsl #24
  10:	00000020 	andeq	r0, r0, r0, lsr #32
  14:	00000000 	andeq	r0, r0, r0
  18:	00008044 	andeq	r8, r0, r4, asr #32
  1c:	000000a0 	andeq	r0, r0, r0, lsr #1
  20:	420c0d42 	andmi	r0, ip, #4224	; 0x1080
  24:	06850784 	streq	r0, [r5], r4, lsl #15
  28:	048b0586 	streq	r0, [fp], #1414	; 0x586
  2c:	028e038d 	addeq	r0, lr, #872415234	; 0x34000002
  30:	040b0c42 	streq	r0, [fp], #-3138	; 0xfffff3be
  34:	0000000c 	andeq	r0, r0, ip
  38:	ffffffff 			; <UNDEFINED> instruction: 0xffffffff
  3c:	7c020001 	stcvc	0, cr0, [r2], {1}
  40:	000d0c0e 	andeq	r0, sp, lr, lsl #24
  44:	0000001c 	andeq	r0, r0, ip, lsl r0
  48:	00000034 	andeq	r0, r0, r4, lsr r0
  4c:	000080f8 	strdeq	r8, [r0], -r8	; <UNPREDICTABLE>
  50:	0000001c 	andeq	r0, r0, ip, lsl r0
  54:	420c0d42 	andmi	r0, ip, #4224	; 0x1080
  58:	038d048b 	orreq	r0, sp, #-1962934272	; 0x8b000000
  5c:	0c42028e 	sfmeq	f0, 2, [r2], {142}	; 0x8e
  60:	0000040b 	andeq	r0, r0, fp, lsl #8
  64:	0000001c 	andeq	r0, r0, ip, lsl r0
  68:	00000034 	andeq	r0, r0, r4, lsr r0
  6c:	00008124 	andeq	r8, r0, r4, lsr #2
  70:	0000001c 	andeq	r0, r0, ip, lsl r0
  74:	420c0d42 	andmi	r0, ip, #4224	; 0x1080
  78:	038d048b 	orreq	r0, sp, #-1962934272	; 0x8b000000
  7c:	0c42028e 	sfmeq	f0, 2, [r2], {142}	; 0x8e
  80:	0000040b 	andeq	r0, r0, fp, lsl #8
  84:	0000001c 	andeq	r0, r0, ip, lsl r0
  88:	00000034 	andeq	r0, r0, r4, lsr r0
  8c:	00008154 	andeq	r8, r0, r4, asr r1
  90:	00000014 	andeq	r0, r0, r4, lsl r0
  94:	420c0d42 	andmi	r0, ip, #4224	; 0x1080
  98:	038d048b 	orreq	r0, sp, #-1962934272	; 0x8b000000
  9c:	0c42028e 	sfmeq	f0, 2, [r2], {142}	; 0x8e
  a0:	0000040b 	andeq	r0, r0, fp, lsl #8
  a4:	00000020 	andeq	r0, r0, r0, lsr #32
  a8:	00000034 	andeq	r0, r0, r4, lsr r0
  ac:	00008178 	andeq	r8, r0, r8, ror r1
  b0:	00000020 	andeq	r0, r0, r0, lsr #32
  b4:	420c0d42 	andmi	r0, ip, #4224	; 0x1080
  b8:	05850684 	streq	r0, [r5, #1668]	; 0x684
  bc:	038d048b 	orreq	r0, sp, #-1962934272	; 0x8b000000
  c0:	0c42028e 	sfmeq	f0, 2, [r2], {142}	; 0x8e
  c4:	0000040b 	andeq	r0, r0, fp, lsl #8
  c8:	00000024 	andeq	r0, r0, r4, lsr #32
  cc:	00000034 	andeq	r0, r0, r4, lsr r0
  d0:	000081ac 	andeq	r8, r0, ip, lsr #3
  d4:	00000038 	andeq	r0, r0, r8, lsr r0
  d8:	420c0d42 	andmi	r0, ip, #4224	; 0x1080
  dc:	07850884 	streq	r0, [r5, r4, lsl #17]
  e0:	05870686 	streq	r0, [r7, #1670]	; 0x686
  e4:	038d048b 	orreq	r0, sp, #-1962934272	; 0x8b000000
  e8:	0c42028e 	sfmeq	f0, 2, [r2], {142}	; 0x8e
  ec:	0000040b 	andeq	r0, r0, fp, lsl #8
  f0:	0000001c 	andeq	r0, r0, ip, lsl r0
  f4:	00000034 	andeq	r0, r0, r4, lsr r0
  f8:	000081f8 	strdeq	r8, [r0], -r8	; <UNPREDICTABLE>
  fc:	00000044 	andeq	r0, r0, r4, asr #32
 100:	420c0d42 	andmi	r0, ip, #4224	; 0x1080
 104:	038d048b 	orreq	r0, sp, #-1962934272	; 0x8b000000
 108:	0c42028e 	sfmeq	f0, 2, [r2], {142}	; 0x8e
 10c:	0000040b 	andeq	r0, r0, fp, lsl #8
 110:	0000001c 	andeq	r0, r0, ip, lsl r0
 114:	00000034 	andeq	r0, r0, r4, lsr r0
 118:	00008254 	andeq	r8, r0, r4, asr r2
 11c:	00000020 	andeq	r0, r0, r0, lsr #32
 120:	420c0d42 	andmi	r0, ip, #4224	; 0x1080
 124:	038d048b 	orreq	r0, sp, #-1962934272	; 0x8b000000
 128:	0c42028e 	sfmeq	f0, 2, [r2], {142}	; 0x8e
 12c:	0000040b 	andeq	r0, r0, fp, lsl #8
 130:	0000002c 	andeq	r0, r0, ip, lsr #32
 134:	00000034 	andeq	r0, r0, r4, lsr r0
 138:	00008280 	andeq	r8, r0, r0, lsl #5
 13c:	0000019c 	muleq	r0, ip, r1
 140:	420c0d42 	andmi	r0, ip, #4224	; 0x1080
 144:	07850884 	streq	r0, [r5, r4, lsl #17]
 148:	05870686 	streq	r0, [r7, #1670]	; 0x686
 14c:	038d048b 	orreq	r0, sp, #-1962934272	; 0x8b000000
 150:	0c42028e 	sfmeq	f0, 2, [r2], {142}	; 0x8e
 154:	a202040b 	andge	r0, r2, #184549376	; 0xb000000
 158:	200d0c0a 	andcs	r0, sp, sl, lsl #24
 15c:	00000b42 	andeq	r0, r0, r2, asr #22
 160:	00000028 	andeq	r0, r0, r8, lsr #32
 164:	00000034 	andeq	r0, r0, r4, lsr r0
 168:	00008428 	andeq	r8, r0, r8, lsr #8
 16c:	000000f0 	strdeq	r0, [r0], -r0	; <UNPREDICTABLE>
 170:	420c0d42 	andmi	r0, ip, #4224	; 0x1080
 174:	07850884 	streq	r0, [r5, r4, lsl #17]
 178:	05870686 	streq	r0, [r7, #1670]	; 0x686
 17c:	038d048b 	orreq	r0, sp, #-1962934272	; 0x8b000000
 180:	0c42028e 	sfmeq	f0, 2, [r2], {142}	; 0x8e
 184:	6a02040b 	bvs	811b8 <__bss_end__+0x75eb8>
 188:	00200d0c 	eoreq	r0, r0, ip, lsl #26
 18c:	0000000c 	andeq	r0, r0, ip
 190:	ffffffff 			; <UNDEFINED> instruction: 0xffffffff
 194:	7c020001 	stcvc	0, cr0, [r2], {1}
 198:	000d0c0e 	andeq	r0, sp, lr, lsl #24
 19c:	0000001c 	andeq	r0, r0, ip, lsl r0
 1a0:	0000018c 	andeq	r0, r0, ip, lsl #3
 1a4:	00008524 	andeq	r8, r0, r4, lsr #10
 1a8:	000000c4 	andeq	r0, r0, r4, asr #1
 1ac:	420c0d42 	andmi	r0, ip, #4224	; 0x1080
 1b0:	038d048b 	orreq	r0, sp, #-1962934272	; 0x8b000000
 1b4:	0c42028e 	sfmeq	f0, 2, [r2], {142}	; 0x8e
 1b8:	0000040b 	andeq	r0, r0, fp, lsl #8
 1bc:	00000020 	andeq	r0, r0, r0, lsr #32
 1c0:	0000018c 	andeq	r0, r0, ip, lsl #3
 1c4:	000085f8 	strdeq	r8, [r0], -r8	; <UNPREDICTABLE>
 1c8:	0000005c 	andeq	r0, r0, ip, asr r0
 1cc:	420c0d42 	andmi	r0, ip, #4224	; 0x1080
 1d0:	05850684 	streq	r0, [r5, #1668]	; 0x684
 1d4:	038d048b 	orreq	r0, sp, #-1962934272	; 0x8b000000
 1d8:	0c42028e 	sfmeq	f0, 2, [r2], {142}	; 0x8e
 1dc:	0000040b 	andeq	r0, r0, fp, lsl #8
 1e0:	00000020 	andeq	r0, r0, r0, lsr #32
 1e4:	0000018c 	andeq	r0, r0, ip, lsl #3
 1e8:	00008664 	andeq	r8, r0, r4, ror #12
 1ec:	000000b4 	strheq	r0, [r0], -r4
 1f0:	420c0d42 	andmi	r0, ip, #4224	; 0x1080
 1f4:	05850684 	streq	r0, [r5, #1668]	; 0x684
 1f8:	038d048b 	orreq	r0, sp, #-1962934272	; 0x8b000000
 1fc:	0c42028e 	sfmeq	f0, 2, [r2], {142}	; 0x8e
 200:	0000040b 	andeq	r0, r0, fp, lsl #8
 204:	0000000c 	andeq	r0, r0, ip
 208:	ffffffff 			; <UNDEFINED> instruction: 0xffffffff
 20c:	7c020001 	stcvc	0, cr0, [r2], {1}
 210:	000d0c0e 	andeq	r0, sp, lr, lsl #24
 214:	0000001c 	andeq	r0, r0, ip, lsl r0
 218:	00000204 	andeq	r0, r0, r4, lsl #4
 21c:	00008724 	andeq	r8, r0, r4, lsr #14
 220:	00000048 	andeq	r0, r0, r8, asr #32
 224:	420c0d42 	andmi	r0, ip, #4224	; 0x1080
 228:	038d048b 	orreq	r0, sp, #-1962934272	; 0x8b000000
 22c:	0c42028e 	sfmeq	f0, 2, [r2], {142}	; 0x8e
 230:	0000040b 	andeq	r0, r0, fp, lsl #8
 234:	0000002c 	andeq	r0, r0, ip, lsr #32
 238:	00000204 	andeq	r0, r0, r4, lsl #4
 23c:	00008778 	andeq	r8, r0, r8, ror r7
 240:	00000190 	muleq	r0, r0, r1
 244:	420c0d42 	andmi	r0, ip, #4224	; 0x1080
 248:	08850984 	stmeq	r5, {r2, r7, r8, fp}
 24c:	06870786 	streq	r0, [r7], r6, lsl #15
 250:	048b0588 	streq	r0, [fp], #1416	; 0x588
 254:	028e038d 	addeq	r0, lr, #872415234	; 0x34000002
 258:	040b0c42 	streq	r0, [fp], #-3138	; 0xfffff3be
 25c:	0d0cae02 	stceq	14, cr10, [ip, #-8]
 260:	00000024 	andeq	r0, r0, r4, lsr #32
 264:	00000020 	andeq	r0, r0, r0, lsr #32
 268:	00000204 	andeq	r0, r0, r4, lsl #4
 26c:	00008918 	andeq	r8, r0, r8, lsl r9
 270:	000000ac 	andeq	r0, r0, ip, lsr #1
 274:	420c0d42 	andmi	r0, ip, #4224	; 0x1080
 278:	038d048b 	orreq	r0, sp, #-1962934272	; 0x8b000000
 27c:	0c42028e 	sfmeq	f0, 2, [r2], {142}	; 0x8e
 280:	4402040b 	strmi	r0, [r2], #-1035	; 0xfffffbf5
 284:	00100d0c 	andseq	r0, r0, ip, lsl #26
 288:	00000028 	andeq	r0, r0, r8, lsr #32
 28c:	00000204 	andeq	r0, r0, r4, lsl #4
 290:	000089d4 	ldrdeq	r8, [r0], -r4
 294:	000000fc 	strdeq	r0, [r0], -ip
 298:	420c0d42 	andmi	r0, ip, #4224	; 0x1080
 29c:	09850a84 	stmibeq	r5, {r2, r7, r9, fp}
 2a0:	07870886 	streq	r0, [r7, r6, lsl #17]
 2a4:	05890688 	streq	r0, [r9, #1672]	; 0x688
 2a8:	038d048b 	orreq	r0, sp, #-1962934272	; 0x8b000000
 2ac:	0c42028e 	sfmeq	f0, 2, [r2], {142}	; 0x8e
 2b0:	0000040b 	andeq	r0, r0, fp, lsl #8
 2b4:	0000002c 	andeq	r0, r0, ip, lsr #32
 2b8:	00000204 	andeq	r0, r0, r4, lsl #4
 2bc:	00008ae0 	andeq	r8, r0, r0, ror #21
 2c0:	000000e4 	andeq	r0, r0, r4, ror #1
 2c4:	420c0d42 	andmi	r0, ip, #4224	; 0x1080
 2c8:	08850984 	stmeq	r5, {r2, r7, r8, fp}
 2cc:	06870786 	streq	r0, [r7], r6, lsl #15
 2d0:	048b0588 	streq	r0, [fp], #1416	; 0x588
 2d4:	028e038d 	addeq	r0, lr, #872415234	; 0x34000002
 2d8:	040b0c42 	streq	r0, [fp], #-3138	; 0xfffff3be
 2dc:	0d0c5c02 	stceq	12, cr5, [ip, #-8]
 2e0:	00000024 	andeq	r0, r0, r4, lsr #32
 2e4:	00000028 	andeq	r0, r0, r8, lsr #32
 2e8:	00000204 	andeq	r0, r0, r4, lsl #4
 2ec:	00008bd0 	ldrdeq	r8, [r0], -r0
 2f0:	000000ac 	andeq	r0, r0, ip, lsr #1
 2f4:	420c0d42 	andmi	r0, ip, #4224	; 0x1080
 2f8:	05850684 	streq	r0, [r5, #1668]	; 0x684
 2fc:	038d048b 	orreq	r0, sp, #-1962934272	; 0x8b000000
 300:	0c42028e 	sfmeq	f0, 2, [r2], {142}	; 0x8e
 304:	0a66040b 	beq	1981338 <__bss_end__+0x1976038>
 308:	42180d0c 	andsmi	r0, r8, #12, 26	; 0x300
 30c:	0000000b 	andeq	r0, r0, fp
 310:	0000001c 	andeq	r0, r0, ip, lsl r0
 314:	00000204 	andeq	r0, r0, r4, lsl #4
 318:	00008c90 	muleq	r0, r0, ip
 31c:	0000003c 	andeq	r0, r0, ip, lsr r0
 320:	420c0d42 	andmi	r0, ip, #4224	; 0x1080
 324:	038d048b 	orreq	r0, sp, #-1962934272	; 0x8b000000
 328:	0c42028e 	sfmeq	f0, 2, [r2], {142}	; 0x8e
 32c:	0000040b 	andeq	r0, r0, fp, lsl #8
 330:	00000024 	andeq	r0, r0, r4, lsr #32
 334:	00000204 	andeq	r0, r0, r4, lsl #4
 338:	00008ce0 	andeq	r8, r0, r0, ror #25
 33c:	000000d4 	ldrdeq	r0, [r0], -r4
 340:	420c0d42 	andmi	r0, ip, #4224	; 0x1080
 344:	07850884 	streq	r0, [r5, r4, lsl #17]
 348:	05870686 	streq	r0, [r7, #1670]	; 0x686
 34c:	038d048b 	orreq	r0, sp, #-1962934272	; 0x8b000000
 350:	0c42028e 	sfmeq	f0, 2, [r2], {142}	; 0x8e
 354:	0000040b 	andeq	r0, r0, fp, lsl #8
 358:	0000001c 	andeq	r0, r0, ip, lsl r0
 35c:	00000204 	andeq	r0, r0, r4, lsl #4
 360:	00008dc8 	andeq	r8, r0, r8, asr #27
 364:	00000014 	andeq	r0, r0, r4, lsl r0
 368:	420c0d42 	andmi	r0, ip, #4224	; 0x1080
 36c:	038d048b 	orreq	r0, sp, #-1962934272	; 0x8b000000
 370:	0c42028e 	sfmeq	f0, 2, [r2], {142}	; 0x8e
 374:	0000040b 	andeq	r0, r0, fp, lsl #8
 378:	0000001c 	andeq	r0, r0, ip, lsl r0
 37c:	00000204 	andeq	r0, r0, r4, lsl #4
 380:	00008df0 	strdeq	r8, [r0], -r0
 384:	00000050 	andeq	r0, r0, r0, asr r0
 388:	420c0d42 	andmi	r0, ip, #4224	; 0x1080
 38c:	038d048b 	orreq	r0, sp, #-1962934272	; 0x8b000000
 390:	0c42028e 	sfmeq	f0, 2, [r2], {142}	; 0x8e
 394:	0000040b 	andeq	r0, r0, fp, lsl #8
 398:	00000020 	andeq	r0, r0, r0, lsr #32
 39c:	00000204 	andeq	r0, r0, r4, lsl #4
 3a0:	00008e58 	andeq	r8, r0, r8, asr lr
 3a4:	00000058 	andeq	r0, r0, r8, asr r0
 3a8:	420c0d42 	andmi	r0, ip, #4224	; 0x1080
 3ac:	05850684 	streq	r0, [r5, #1668]	; 0x684
 3b0:	038d048b 	orreq	r0, sp, #-1962934272	; 0x8b000000
 3b4:	0c42028e 	sfmeq	f0, 2, [r2], {142}	; 0x8e
 3b8:	0000040b 	andeq	r0, r0, fp, lsl #8
 3bc:	0000001c 	andeq	r0, r0, ip, lsl r0
 3c0:	00000204 	andeq	r0, r0, r4, lsl #4
 3c4:	00008ebc 			; <UNDEFINED> instruction: 0x00008ebc
 3c8:	00000018 	andeq	r0, r0, r8, lsl r0
 3cc:	420c0d42 	andmi	r0, ip, #4224	; 0x1080
 3d0:	038d048b 	orreq	r0, sp, #-1962934272	; 0x8b000000
 3d4:	0c42028e 	sfmeq	f0, 2, [r2], {142}	; 0x8e
 3d8:	0000040b 	andeq	r0, r0, fp, lsl #8
 3dc:	0000001c 	andeq	r0, r0, ip, lsl r0
 3e0:	00000204 	andeq	r0, r0, r4, lsl #4
 3e4:	00008ee8 	andeq	r8, r0, r8, ror #29
 3e8:	00000030 	andeq	r0, r0, r0, lsr r0
 3ec:	420c0d42 	andmi	r0, ip, #4224	; 0x1080
 3f0:	038d048b 	orreq	r0, sp, #-1962934272	; 0x8b000000
 3f4:	0c42028e 	sfmeq	f0, 2, [r2], {142}	; 0x8e
 3f8:	0000040b 	andeq	r0, r0, fp, lsl #8
 3fc:	0000000c 	andeq	r0, r0, ip
 400:	ffffffff 			; <UNDEFINED> instruction: 0xffffffff
 404:	7c020001 	stcvc	0, cr0, [r2], {1}
 408:	000d0c0e 	andeq	r0, sp, lr, lsl #24
 40c:	0000001c 	andeq	r0, r0, ip, lsl r0
 410:	000003fc 	strdeq	r0, [r0], -ip
 414:	00008f20 	andeq	r8, r0, r0, lsr #30
 418:	00000080 	andeq	r0, r0, r0, lsl #1
 41c:	84180e42 	ldrhi	r0, [r8], #-3650	; 0xfffff1be
 420:	86058506 	strhi	r8, [r5], -r6, lsl #10
 424:	88038704 	stmdahi	r3, {r2, r8, r9, sl, pc}
 428:	00018e02 	andeq	r8, r1, r2, lsl #28
 42c:	0000000c 	andeq	r0, r0, ip
 430:	000003fc 	strdeq	r0, [r0], -ip
 434:	00008fa0 	andeq	r8, r0, r0, lsr #31
 438:	00000020 	andeq	r0, r0, r0, lsr #32
 43c:	0000000c 	andeq	r0, r0, ip
 440:	ffffffff 			; <UNDEFINED> instruction: 0xffffffff
 444:	7c020001 	stcvc	0, cr0, [r2], {1}
 448:	000d0c0e 	andeq	r0, sp, lr, lsl #24
 44c:	00000014 	andeq	r0, r0, r4, lsl r0
 450:	0000043c 	andeq	r0, r0, ip, lsr r4
 454:	00008fc0 	andeq	r8, r0, r0, asr #31
 458:	00000078 	andeq	r0, r0, r8, ror r0
 45c:	84080e42 	strhi	r0, [r8], #-3650	; 0xfffff1be
 460:	00018e02 	andeq	r8, r1, r2, lsl #28
 464:	0000000c 	andeq	r0, r0, ip
 468:	ffffffff 			; <UNDEFINED> instruction: 0xffffffff
 46c:	7c020001 	stcvc	0, cr0, [r2], {1}
 470:	000d0c0e 	andeq	r0, sp, lr, lsl #24
 474:	00000034 	andeq	r0, r0, r4, lsr r0
 478:	00000464 	andeq	r0, r0, r4, ror #8
 47c:	00009038 	andeq	r9, r0, r8, lsr r0
 480:	00000058 	andeq	r0, r0, r8, asr r0
 484:	80100e42 	andshi	r0, r0, r2, asr #28
 488:	82038104 	andhi	r8, r3, #1
 48c:	42018302 	andmi	r8, r1, #134217728	; 0x8000000
 490:	07841c0e 	streq	r1, [r4, lr, lsl #24]
 494:	058e0685 	streq	r0, [lr, #1669]	; 0x685
 498:	5a280e44 	bpl	a03db0 <__bss_end__+0x9f8ab0>
 49c:	ce421c0e 	cdpgt	12, 4, cr1, cr2, cr14, {0}
 4a0:	100ec4c5 	andne	ip, lr, r5, asr #9
 4a4:	c1c2c342 	bicgt	ip, r2, r2, asr #6
 4a8:	00000ec0 	andeq	r0, r0, r0, asr #29
 4ac:	0000000c 	andeq	r0, r0, ip
 4b0:	ffffffff 			; <UNDEFINED> instruction: 0xffffffff
 4b4:	7c020001 	stcvc	0, cr0, [r2], {1}
 4b8:	000d0c0e 	andeq	r0, sp, lr, lsl #24
 4bc:	00000018 	andeq	r0, r0, r8, lsl r0
 4c0:	000004ac 	andeq	r0, r0, ip, lsr #9
 4c4:	00009090 	muleq	r0, r0, r0
 4c8:	00000038 	andeq	r0, r0, r8, lsr r0
 4cc:	84100e42 	ldrhi	r0, [r0], #-3650	; 0xfffff1be
 4d0:	86038504 	strhi	r8, [r3], -r4, lsl #10
 4d4:	00018e02 	andeq	r8, r1, r2, lsl #28
 4d8:	0000000c 	andeq	r0, r0, ip
 4dc:	ffffffff 			; <UNDEFINED> instruction: 0xffffffff
 4e0:	7c020001 	stcvc	0, cr0, [r2], {1}
 4e4:	000d0c0e 	andeq	r0, sp, lr, lsl #24
 4e8:	0000002c 	andeq	r0, r0, ip, lsr #32
 4ec:	000004d8 	ldrdeq	r0, [r0], -r8
 4f0:	000090c8 	andeq	r9, r0, r8, asr #1
 4f4:	00000328 	andeq	r0, r0, r8, lsr #6
 4f8:	84180e42 	ldrhi	r0, [r8], #-3650	; 0xfffff1be
 4fc:	86058506 	strhi	r8, [r5], -r6, lsl #10
 500:	88038704 	stmdahi	r3, {r2, r8, r9, sl, pc}
 504:	46018e02 	strmi	r8, [r1], -r2, lsl #28
 508:	c002600e 	andgt	r6, r2, lr
 50c:	42180e0a 	andsmi	r0, r8, #160	; 0xa0
 510:	0a8e020b 	beq	fe380d44 <__bss_end__+0xfe375a44>
 514:	0b42180e 	bleq	1086554 <__bss_end__+0x107b254>
 518:	00000014 	andeq	r0, r0, r4, lsl r0
 51c:	000004d8 	ldrdeq	r0, [r0], -r8
 520:	000093f0 	strdeq	r9, [r0], -r0
 524:	00000060 	andeq	r0, r0, r0, rrx
 528:	8e040e52 	mcrhi	14, 0, r0, cr4, cr2, {2}
 52c:	100e4401 	andne	r4, lr, r1, lsl #8
 530:	0000002c 	andeq	r0, r0, ip, lsr #32
 534:	000004d8 	ldrdeq	r0, [r0], -r8
 538:	00009450 	andeq	r9, r0, r0, asr r4
 53c:	0000062c 	andeq	r0, r0, ip, lsr #12
 540:	84240e42 	strthi	r0, [r4], #-3650	; 0xfffff1be
 544:	86088509 	strhi	r8, [r8], -r9, lsl #10
 548:	88068707 	stmdahi	r6, {r0, r1, r2, r8, r9, sl, pc}
 54c:	8a048905 	bhi	122968 <__bss_end__+0x117668>
 550:	8e028b03 	vmlahi.f64	d8, d2, d3
 554:	c00e5201 	andgt	r5, lr, r1, lsl #4
 558:	0a860202 	beq	fe180d68 <__bss_end__+0xfe175a68>
 55c:	0b42240e 	bleq	108959c <__bss_end__+0x107e29c>
 560:	0000000c 	andeq	r0, r0, ip
 564:	ffffffff 			; <UNDEFINED> instruction: 0xffffffff
 568:	7c020001 	stcvc	0, cr0, [r2], {1}
 56c:	000d0c0e 	andeq	r0, sp, lr, lsl #24
 570:	00000014 	andeq	r0, r0, r4, lsl r0
 574:	00000560 	andeq	r0, r0, r0, ror #10
 578:	00009a7c 	andeq	r9, r0, ip, ror sl
 57c:	0000002c 	andeq	r0, r0, ip, lsr #32
 580:	84080e44 	strhi	r0, [r8], #-3652	; 0xfffff1bc
 584:	00018e02 	andeq	r8, r1, r2, lsl #28
 588:	0000000c 	andeq	r0, r0, ip
 58c:	ffffffff 			; <UNDEFINED> instruction: 0xffffffff
 590:	7c020001 	stcvc	0, cr0, [r2], {1}
 594:	000d0c0e 	andeq	r0, sp, lr, lsl #24
 598:	00000018 	andeq	r0, r0, r8, lsl r0
 59c:	00000588 	andeq	r0, r0, r8, lsl #11
 5a0:	00009aa8 	andeq	r9, r0, r8, lsr #21
 5a4:	00000128 	andeq	r0, r0, r8, lsr #2
 5a8:	84100e42 	ldrhi	r0, [r0], #-3650	; 0xfffff1be
 5ac:	86038504 	strhi	r8, [r3], -r4, lsl #10
 5b0:	00018e02 	andeq	r8, r1, r2, lsl #28
 5b4:	0000000c 	andeq	r0, r0, ip
 5b8:	ffffffff 			; <UNDEFINED> instruction: 0xffffffff
 5bc:	7c020001 	stcvc	0, cr0, [r2], {1}
 5c0:	000d0c0e 	andeq	r0, sp, lr, lsl #24
 5c4:	0000000c 	andeq	r0, r0, ip
 5c8:	000005b4 			; <UNDEFINED> instruction: 0x000005b4
 5cc:	00009bd0 	ldrdeq	r9, [r0], -r0
 5d0:	00000004 	andeq	r0, r0, r4
 5d4:	0000000c 	andeq	r0, r0, ip
 5d8:	ffffffff 			; <UNDEFINED> instruction: 0xffffffff
 5dc:	7c020001 	stcvc	0, cr0, [r2], {1}
 5e0:	000d0c0e 	andeq	r0, sp, lr, lsl #24
 5e4:	0000000c 	andeq	r0, r0, ip
 5e8:	000005d4 	ldrdeq	r0, [r0], -r4
 5ec:	00009bd4 	ldrdeq	r9, [r0], -r4
 5f0:	00000018 	andeq	r0, r0, r8, lsl r0
 5f4:	0000000c 	andeq	r0, r0, ip
 5f8:	000005d4 	ldrdeq	r0, [r0], -r4
 5fc:	00009bec 	andeq	r9, r0, ip, ror #23
 600:	00000014 	andeq	r0, r0, r4, lsl r0
 604:	00000014 	andeq	r0, r0, r4, lsl r0
 608:	000005d4 	ldrdeq	r0, [r0], -r4
 60c:	00009c00 	andeq	r9, r0, r0, lsl #24
 610:	00000060 	andeq	r0, r0, r0, rrx
 614:	84080e42 	strhi	r0, [r8], #-3650	; 0xfffff1be
 618:	00018e02 	andeq	r8, r1, r2, lsl #28
 61c:	0000000c 	andeq	r0, r0, ip
 620:	ffffffff 			; <UNDEFINED> instruction: 0xffffffff
 624:	7c020001 	stcvc	0, cr0, [r2], {1}
 628:	000d0c0e 	andeq	r0, sp, lr, lsl #24
 62c:	0000000c 	andeq	r0, r0, ip
 630:	0000061c 	andeq	r0, r0, ip, lsl r6
 634:	00009c60 	andeq	r9, r0, r0, ror #24
 638:	0000000c 	andeq	r0, r0, ip
 63c:	00000014 	andeq	r0, r0, r4, lsl r0
 640:	0000061c 	andeq	r0, r0, ip, lsl r6
 644:	00009c6c 	andeq	r9, r0, ip, ror #24
 648:	00000024 	andeq	r0, r0, r4, lsr #32
 64c:	84080e42 	strhi	r0, [r8], #-3650	; 0xfffff1be
 650:	00018e02 	andeq	r8, r1, r2, lsl #28
 654:	0000001c 	andeq	r0, r0, ip, lsl r0
 658:	0000061c 	andeq	r0, r0, ip, lsl r6
 65c:	00009c90 	muleq	r0, r0, ip
 660:	00000048 	andeq	r0, r0, r8, asr #32
 664:	84180e42 	ldrhi	r0, [r8], #-3650	; 0xfffff1be
 668:	86058506 	strhi	r8, [r5], -r6, lsl #10
 66c:	88038704 	stmdahi	r3, {r2, r8, r9, sl, pc}
 670:	00018e02 	andeq	r8, r1, r2, lsl #28
 674:	0000001c 	andeq	r0, r0, ip, lsl r0
 678:	0000061c 	andeq	r0, r0, ip, lsl r6
 67c:	00009cd8 	ldrdeq	r9, [r0], -r8
 680:	00000050 	andeq	r0, r0, r0, asr r0
 684:	84180e42 	ldrhi	r0, [r8], #-3650	; 0xfffff1be
 688:	86058506 	strhi	r8, [r5], -r6, lsl #10
 68c:	88038704 	stmdahi	r3, {r2, r8, r9, sl, pc}
 690:	00018e02 	andeq	r8, r1, r2, lsl #28
 694:	0000001c 	andeq	r0, r0, ip, lsl r0
 698:	0000061c 	andeq	r0, r0, ip, lsl r6
 69c:	00009d28 	andeq	r9, r0, r8, lsr #26
 6a0:	00000054 	andeq	r0, r0, r4, asr r0
 6a4:	84180e42 	ldrhi	r0, [r8], #-3650	; 0xfffff1be
 6a8:	86058506 	strhi	r8, [r5], -r6, lsl #10
 6ac:	88038704 	stmdahi	r3, {r2, r8, r9, sl, pc}
 6b0:	00018e02 	andeq	r8, r1, r2, lsl #28
 6b4:	0000000c 	andeq	r0, r0, ip
 6b8:	ffffffff 			; <UNDEFINED> instruction: 0xffffffff
 6bc:	7c020001 	stcvc	0, cr0, [r2], {1}
 6c0:	000d0c0e 	andeq	r0, sp, lr, lsl #24
 6c4:	00000018 	andeq	r0, r0, r8, lsl r0
 6c8:	000006b4 			; <UNDEFINED> instruction: 0x000006b4
 6cc:	00009d7c 	andeq	r9, r0, ip, ror sp
 6d0:	00000020 	andeq	r0, r0, r0, lsr #32
 6d4:	84100e42 	ldrhi	r0, [r0], #-3650	; 0xfffff1be
 6d8:	86038504 	strhi	r8, [r3], -r4, lsl #10
 6dc:	00018e02 	andeq	r8, r1, r2, lsl #28
 6e0:	00000018 	andeq	r0, r0, r8, lsl r0
 6e4:	000006b4 			; <UNDEFINED> instruction: 0x000006b4
 6e8:	00009d9c 	muleq	r0, ip, sp
 6ec:	00000020 	andeq	r0, r0, r0, lsr #32
 6f0:	84100e42 	ldrhi	r0, [r0], #-3650	; 0xfffff1be
 6f4:	86038504 	strhi	r8, [r3], -r4, lsl #10
 6f8:	00018e02 	andeq	r8, r1, r2, lsl #28
 6fc:	00000014 	andeq	r0, r0, r4, lsl r0
 700:	000006b4 			; <UNDEFINED> instruction: 0x000006b4
 704:	00009dbc 			; <UNDEFINED> instruction: 0x00009dbc
 708:	000000b0 	strheq	r0, [r0], -r0	; <UNPREDICTABLE>
 70c:	84080e42 	strhi	r0, [r8], #-3650	; 0xfffff1be
 710:	00018e02 	andeq	r8, r1, r2, lsl #28
 714:	00000014 	andeq	r0, r0, r4, lsl r0
 718:	000006b4 			; <UNDEFINED> instruction: 0x000006b4
 71c:	00009e6c 	andeq	r9, r0, ip, ror #28
 720:	00000018 	andeq	r0, r0, r8, lsl r0
 724:	84080e42 	strhi	r0, [r8], #-3650	; 0xfffff1be
 728:	00018e02 	andeq	r8, r1, r2, lsl #28
 72c:	00000014 	andeq	r0, r0, r4, lsl r0
 730:	000006b4 			; <UNDEFINED> instruction: 0x000006b4
 734:	00009e84 	andeq	r9, r0, r4, lsl #29
 738:	00000020 	andeq	r0, r0, r0, lsr #32
 73c:	84080e42 	strhi	r0, [r8], #-3650	; 0xfffff1be
 740:	00018e02 	andeq	r8, r1, r2, lsl #28
 744:	00000014 	andeq	r0, r0, r4, lsl r0
 748:	000006b4 			; <UNDEFINED> instruction: 0x000006b4
 74c:	00009ea4 	andeq	r9, r0, r4, lsr #29
 750:	00000030 	andeq	r0, r0, r0, lsr r0
 754:	84080e42 	strhi	r0, [r8], #-3650	; 0xfffff1be
 758:	00018e02 	andeq	r8, r1, r2, lsl #28
 75c:	00000014 	andeq	r0, r0, r4, lsl r0
 760:	000006b4 			; <UNDEFINED> instruction: 0x000006b4
 764:	00009ed4 	ldrdeq	r9, [r0], -r4
 768:	00000030 	andeq	r0, r0, r0, lsr r0
 76c:	84080e42 	strhi	r0, [r8], #-3650	; 0xfffff1be
 770:	00018e02 	andeq	r8, r1, r2, lsl #28
 774:	00000014 	andeq	r0, r0, r4, lsl r0
 778:	000006b4 			; <UNDEFINED> instruction: 0x000006b4
 77c:	00009f04 	andeq	r9, r0, r4, lsl #30
 780:	00000010 	andeq	r0, r0, r0, lsl r0
 784:	84080e42 	strhi	r0, [r8], #-3650	; 0xfffff1be
 788:	00018e02 	andeq	r8, r1, r2, lsl #28
 78c:	00000014 	andeq	r0, r0, r4, lsl r0
 790:	000006b4 			; <UNDEFINED> instruction: 0x000006b4
 794:	00009f14 	andeq	r9, r0, r4, lsl pc
 798:	00000020 	andeq	r0, r0, r0, lsr #32
 79c:	84080e42 	strhi	r0, [r8], #-3650	; 0xfffff1be
 7a0:	00018e02 	andeq	r8, r1, r2, lsl #28
 7a4:	00000014 	andeq	r0, r0, r4, lsl r0
 7a8:	000006b4 			; <UNDEFINED> instruction: 0x000006b4
 7ac:	00009f34 	andeq	r9, r0, r4, lsr pc
 7b0:	00000014 	andeq	r0, r0, r4, lsl r0
 7b4:	84080e42 	strhi	r0, [r8], #-3650	; 0xfffff1be
 7b8:	00018e02 	andeq	r8, r1, r2, lsl #28
 7bc:	00000014 	andeq	r0, r0, r4, lsl r0
 7c0:	000006b4 			; <UNDEFINED> instruction: 0x000006b4
 7c4:	00009f48 	andeq	r9, r0, r8, asr #30
 7c8:	00000024 	andeq	r0, r0, r4, lsr #32
 7cc:	84080e42 	strhi	r0, [r8], #-3650	; 0xfffff1be
 7d0:	00018e02 	andeq	r8, r1, r2, lsl #28
 7d4:	0000000c 	andeq	r0, r0, ip
 7d8:	ffffffff 			; <UNDEFINED> instruction: 0xffffffff
 7dc:	7c020001 	stcvc	0, cr0, [r2], {1}
 7e0:	000d0c0e 	andeq	r0, sp, lr, lsl #24
 7e4:	0000000c 	andeq	r0, r0, ip
 7e8:	000007d4 	ldrdeq	r0, [r0], -r4
 7ec:	00009f6c 	andeq	r9, r0, ip, ror #30
 7f0:	00000010 	andeq	r0, r0, r0, lsl r0
 7f4:	0000000c 	andeq	r0, r0, ip
 7f8:	000007d4 	ldrdeq	r0, [r0], -r4
 7fc:	00009f7c 	andeq	r9, r0, ip, ror pc
 800:	00000010 	andeq	r0, r0, r0, lsl r0
 804:	0000000c 	andeq	r0, r0, ip
 808:	000007d4 	ldrdeq	r0, [r0], -r4
 80c:	00009f8c 	andeq	r9, r0, ip, lsl #31
 810:	00000010 	andeq	r0, r0, r0, lsl r0
 814:	0000001c 	andeq	r0, r0, ip, lsl r0
 818:	000007d4 	ldrdeq	r0, [r0], -r4
 81c:	00009f9c 	muleq	r0, ip, pc	; <UNPREDICTABLE>
 820:	0000009c 	muleq	r0, ip, r0
 824:	8e040e42 	cdphi	14, 0, cr0, cr4, cr2, {2}
 828:	100e4201 	andne	r4, lr, r1, lsl #4
 82c:	040e0a58 	streq	r0, [lr], #-2648	; 0xfffff5a8
 830:	00000b42 	andeq	r0, r0, r2, asr #22
 834:	00000014 	andeq	r0, r0, r4, lsl r0
 838:	000007d4 	ldrdeq	r0, [r0], -r4
 83c:	0000a038 	andeq	sl, r0, r8, lsr r0
 840:	00000058 	andeq	r0, r0, r8, asr r0
 844:	84080e42 	strhi	r0, [r8], #-3650	; 0xfffff1be
 848:	00018e02 	andeq	r8, r1, r2, lsl #28
 84c:	0000001c 	andeq	r0, r0, ip, lsl r0
 850:	000007d4 	ldrdeq	r0, [r0], -r4
 854:	0000a090 	muleq	r0, r0, r0
 858:	00000098 	muleq	r0, r8, r0
 85c:	8e040e42 	cdphi	14, 0, cr0, cr4, cr2, {2}
 860:	100e4201 	andne	r4, lr, r1, lsl #4
 864:	040e0a58 	streq	r0, [lr], #-2648	; 0xfffff5a8
 868:	00000b42 	andeq	r0, r0, r2, asr #22
 86c:	00000020 	andeq	r0, r0, r0, lsr #32
 870:	000007d4 	ldrdeq	r0, [r0], -r4
 874:	0000a128 	andeq	sl, r0, r8, lsr #2
 878:	00000064 	andeq	r0, r0, r4, rrx
 87c:	840c0e42 	strhi	r0, [ip], #-3650	; 0xfffff1be
 880:	8e028503 	cfsh32hi	mvfx8, mvfx2, #3
 884:	180e4201 	stmdane	lr, {r0, r9, lr}
 888:	0c0e0a54 			; <UNDEFINED> instruction: 0x0c0e0a54
 88c:	00000b42 	andeq	r0, r0, r2, asr #22
 890:	0000001c 	andeq	r0, r0, ip, lsl r0
 894:	000007d4 	ldrdeq	r0, [r0], -r4
 898:	0000a18c 	andeq	sl, r0, ip, lsl #3
 89c:	00000118 	andeq	r0, r0, r8, lsl r1
 8a0:	8e040e42 	cdphi	14, 0, cr0, cr4, cr2, {2}
 8a4:	100e4201 	andne	r4, lr, r1, lsl #4
 8a8:	040e0a6c 	streq	r0, [lr], #-2668	; 0xfffff594
 8ac:	00000b42 	andeq	r0, r0, r2, asr #22
 8b0:	0000000c 	andeq	r0, r0, ip
 8b4:	000007d4 	ldrdeq	r0, [r0], -r4
 8b8:	0000a2a4 	andeq	sl, r0, r4, lsr #5
 8bc:	00000004 	andeq	r0, r0, r4
 8c0:	0000000c 	andeq	r0, r0, ip
 8c4:	000007d4 	ldrdeq	r0, [r0], -r4
 8c8:	0000a2a8 	andeq	sl, r0, r8, lsr #5
 8cc:	00000014 	andeq	r0, r0, r4, lsl r0
 8d0:	00000014 	andeq	r0, r0, r4, lsl r0
 8d4:	000007d4 	ldrdeq	r0, [r0], -r4
 8d8:	0000a2bc 			; <UNDEFINED> instruction: 0x0000a2bc
 8dc:	00000060 	andeq	r0, r0, r0, rrx
 8e0:	8e040e58 	mcrhi	14, 0, r0, cr4, cr8, {2}
 8e4:	100e4201 	andne	r4, lr, r1, lsl #4
 8e8:	0000000c 	andeq	r0, r0, ip
 8ec:	ffffffff 			; <UNDEFINED> instruction: 0xffffffff
 8f0:	7c020001 	stcvc	0, cr0, [r2], {1}
 8f4:	000d0c0e 	andeq	r0, sp, lr, lsl #24
 8f8:	00000020 	andeq	r0, r0, r0, lsr #32
 8fc:	000008e8 	andeq	r0, r0, r8, ror #17
 900:	0000a31c 	andeq	sl, r0, ip, lsl r3
 904:	00000060 	andeq	r0, r0, r0, rrx
 908:	84100e48 	ldrhi	r0, [r0], #-3656	; 0xfffff1b8
 90c:	86038504 	strhi	r8, [r3], -r4, lsl #10
 910:	64018e02 	strvs	r8, [r1], #-3586	; 0xfffff1fe
 914:	c4c5c6ce 	strbgt	ip, [r5], #1742	; 0x6ce
 918:	0000000e 	andeq	r0, r0, lr
 91c:	00000020 	andeq	r0, r0, r0, lsr #32
 920:	000008e8 	andeq	r0, r0, r8, ror #17
 924:	0000a37c 	andeq	sl, r0, ip, ror r3
 928:	00000058 	andeq	r0, r0, r8, asr r0
 92c:	84100e46 	ldrhi	r0, [r0], #-3654	; 0xfffff1ba
 930:	86038504 	strhi	r8, [r3], -r4, lsl #10
 934:	62018e02 	andvs	r8, r1, #2, 28
 938:	c4c5c6ce 	strbgt	ip, [r5], #1742	; 0x6ce
 93c:	0000000e 	andeq	r0, r0, lr
 940:	0000000c 	andeq	r0, r0, ip
 944:	000008e8 	andeq	r0, r0, r8, ror #17
 948:	0000a3d4 	ldrdeq	sl, [r0], -r4
 94c:	00000018 	andeq	r0, r0, r8, lsl r0
 950:	0000000c 	andeq	r0, r0, ip
 954:	000008e8 	andeq	r0, r0, r8, ror #17
 958:	0000a3ec 	andeq	sl, r0, ip, ror #7
 95c:	00000018 	andeq	r0, r0, r8, lsl r0
 960:	00000020 	andeq	r0, r0, r0, lsr #32
 964:	000008e8 	andeq	r0, r0, r8, ror #17
 968:	0000a404 	andeq	sl, r0, r4, lsl #8
 96c:	00000058 	andeq	r0, r0, r8, asr r0
 970:	84100e46 	ldrhi	r0, [r0], #-3654	; 0xfffff1ba
 974:	86038504 	strhi	r8, [r3], -r4, lsl #10
 978:	62018e02 	andvs	r8, r1, #2, 28
 97c:	c4c5c6ce 	strbgt	ip, [r5], #1742	; 0x6ce
 980:	0000000e 	andeq	r0, r0, lr
 984:	0000000c 	andeq	r0, r0, ip
 988:	000008e8 	andeq	r0, r0, r8, ror #17
 98c:	0000a45c 	andeq	sl, r0, ip, asr r4
 990:	00000030 	andeq	r0, r0, r0, lsr r0
 994:	00000014 	andeq	r0, r0, r4, lsl r0
 998:	000008e8 	andeq	r0, r0, r8, ror #17
 99c:	0000a48c 	andeq	sl, r0, ip, lsl #9
 9a0:	00000028 	andeq	r0, r0, r8, lsr #32
 9a4:	84080e42 	strhi	r0, [r8], #-3650	; 0xfffff1be
 9a8:	00018e02 	andeq	r8, r1, r2, lsl #28
 9ac:	0000000c 	andeq	r0, r0, ip
 9b0:	ffffffff 			; <UNDEFINED> instruction: 0xffffffff
 9b4:	7c020001 	stcvc	0, cr0, [r2], {1}
 9b8:	000d0c0e 	andeq	r0, sp, lr, lsl #24
 9bc:	00000014 	andeq	r0, r0, r4, lsl r0
 9c0:	000009ac 	andeq	r0, r0, ip, lsr #19
 9c4:	0000a4b4 			; <UNDEFINED> instruction: 0x0000a4b4
 9c8:	00000014 	andeq	r0, r0, r4, lsl r0
 9cc:	84080e42 	strhi	r0, [r8], #-3650	; 0xfffff1be
 9d0:	00018e02 	andeq	r8, r1, r2, lsl #28
 9d4:	0000000c 	andeq	r0, r0, ip
 9d8:	000009ac 	andeq	r0, r0, ip, lsr #19
 9dc:	0000a4c8 	andeq	sl, r0, r8, asr #9
 9e0:	00000018 	andeq	r0, r0, r8, lsl r0
 9e4:	0000000c 	andeq	r0, r0, ip
 9e8:	000009ac 	andeq	r0, r0, ip, lsr #19
 9ec:	0000a4e0 	andeq	sl, r0, r0, ror #9
 9f0:	00000010 	andeq	r0, r0, r0, lsl r0
 9f4:	0000000c 	andeq	r0, r0, ip
 9f8:	ffffffff 			; <UNDEFINED> instruction: 0xffffffff
 9fc:	7c020001 	stcvc	0, cr0, [r2], {1}
 a00:	000d0c0e 	andeq	r0, sp, lr, lsl #24
 a04:	0000000c 	andeq	r0, r0, ip
 a08:	000009f4 	strdeq	r0, [r0], -r4
 a0c:	0000a4f0 	strdeq	sl, [r0], -r0
 a10:	0000002c 	andeq	r0, r0, ip, lsr #32
 a14:	0000000c 	andeq	r0, r0, ip
 a18:	ffffffff 			; <UNDEFINED> instruction: 0xffffffff
 a1c:	7c020001 	stcvc	0, cr0, [r2], {1}
 a20:	000d0c0e 	andeq	r0, sp, lr, lsl #24
 a24:	0000000c 	andeq	r0, r0, ip
 a28:	00000a14 	andeq	r0, r0, r4, lsl sl
 a2c:	0000a51c 	andeq	sl, r0, ip, lsl r5
 a30:	00000044 	andeq	r0, r0, r4, asr #32
 a34:	0000000c 	andeq	r0, r0, ip
 a38:	ffffffff 			; <UNDEFINED> instruction: 0xffffffff
 a3c:	7c020001 	stcvc	0, cr0, [r2], {1}
 a40:	000d0c0e 	andeq	r0, sp, lr, lsl #24
 a44:	0000000c 	andeq	r0, r0, ip
 a48:	00000a34 	andeq	r0, r0, r4, lsr sl
 a4c:	0000a560 	andeq	sl, r0, r0, ror #10
 a50:	00000018 	andeq	r0, r0, r8, lsl r0
 a54:	0000000c 	andeq	r0, r0, ip
 a58:	ffffffff 			; <UNDEFINED> instruction: 0xffffffff
 a5c:	7c020001 	stcvc	0, cr0, [r2], {1}
 a60:	000d0c0e 	andeq	r0, sp, lr, lsl #24
 a64:	0000000c 	andeq	r0, r0, ip
 a68:	00000a54 	andeq	r0, r0, r4, asr sl
 a6c:	0000a578 	andeq	sl, r0, r8, ror r5
 a70:	00000030 	andeq	r0, r0, r0, lsr r0
 a74:	0000000c 	andeq	r0, r0, ip
 a78:	ffffffff 			; <UNDEFINED> instruction: 0xffffffff
 a7c:	7c020001 	stcvc	0, cr0, [r2], {1}
 a80:	000d0c0e 	andeq	r0, sp, lr, lsl #24
 a84:	0000000c 	andeq	r0, r0, ip
 a88:	00000a74 	andeq	r0, r0, r4, ror sl
 a8c:	0000a5a8 	andeq	sl, r0, r8, lsr #11
 a90:	00000004 	andeq	r0, r0, r4

Disassembly of section .debug_ranges:

00000000 <.debug_ranges>:
   0:	000001fc 	strdeq	r0, [r0], -ip
   4:	00000234 	andeq	r0, r0, r4, lsr r2
   8:	0000025c 	andeq	r0, r0, ip, asr r2
   c:	000002a4 	andeq	r0, r0, r4, lsr #5
	...
  18:	000000f0 	strdeq	r0, [r0], -r0	; <UNPREDICTABLE>
  1c:	00000114 	andeq	r0, r0, r4, lsl r1
  20:	00000120 	andeq	r0, r0, r0, lsr #2
  24:	000001c4 	andeq	r0, r0, r4, asr #3
	...
  30:	000000f0 	strdeq	r0, [r0], -r0	; <UNPREDICTABLE>
  34:	000000f8 	strdeq	r0, [r0], -r8
  38:	00000124 	andeq	r0, r0, r4, lsr #2
  3c:	00000140 	andeq	r0, r0, r0, asr #2
	...
  48:	000000f8 	strdeq	r0, [r0], -r8
  4c:	00000114 	andeq	r0, r0, r4, lsl r1
  50:	00000148 	andeq	r0, r0, r8, asr #2
  54:	000001c4 	andeq	r0, r0, r4, asr #3
	...
  60:	000002e0 	andeq	r0, r0, r0, ror #5
  64:	000002e8 	andeq	r0, r0, r8, ror #5
  68:	000002f4 	strdeq	r0, [r0], -r4
  6c:	00000350 	andeq	r0, r0, r0, asr r3
	...
  78:	000003ec 	andeq	r0, r0, ip, ror #7
  7c:	000003f4 	strdeq	r0, [r0], -r4
  80:	00000400 	andeq	r0, r0, r0, lsl #8
  84:	00000470 	andeq	r0, r0, r0, ror r4
	...
  90:	00000588 	andeq	r0, r0, r8, lsl #11
  94:	0000058c 	andeq	r0, r0, ip, lsl #11
  98:	00000590 	muleq	r0, r0, r5
  9c:	000005b4 			; <UNDEFINED> instruction: 0x000005b4
	...
  a8:	000005d4 	ldrdeq	r0, [r0], -r4
  ac:	000005dc 	ldrdeq	r0, [r0], -ip
  b0:	000005e0 	andeq	r0, r0, r0, ror #11
  b4:	00000688 	andeq	r0, r0, r8, lsl #13
	...
  c0:	000005e4 	andeq	r0, r0, r4, ror #11
  c4:	00000604 	andeq	r0, r0, r4, lsl #12
  c8:	00000618 	andeq	r0, r0, r8, lsl r6
  cc:	00000688 	andeq	r0, r0, r8, lsl #13
	...
  d8:	000005e4 	andeq	r0, r0, r4, ror #11
  dc:	00000600 	andeq	r0, r0, r0, lsl #12
  e0:	0000066c 	andeq	r0, r0, ip, ror #12
  e4:	00000688 	andeq	r0, r0, r8, lsl #13
	...
  f0:	00000014 	andeq	r0, r0, r4, lsl r0
  f4:	00000020 	andeq	r0, r0, r0, lsr #32
  f8:	0000002c 	andeq	r0, r0, ip, lsr #32
  fc:	00000058 	andeq	r0, r0, r8, asr r0
 100:	00000058 	andeq	r0, r0, r8, asr r0
 104:	00000064 	andeq	r0, r0, r4, rrx
	...
 110:	00000014 	andeq	r0, r0, r4, lsl r0
 114:	00000018 	andeq	r0, r0, r8, lsl r0
 118:	0000002c 	andeq	r0, r0, ip, lsr #32
 11c:	0000002c 	andeq	r0, r0, ip, lsr #32
 120:	00000034 	andeq	r0, r0, r4, lsr r0
 124:	00000038 	andeq	r0, r0, r8, lsr r0
 128:	0000003c 	andeq	r0, r0, ip, lsr r0
 12c:	00000050 	andeq	r0, r0, r0, asr r0
	...
 138:	0000002c 	andeq	r0, r0, ip, lsr #32
 13c:	0000002c 	andeq	r0, r0, ip, lsr #32
 140:	00000038 	andeq	r0, r0, r8, lsr r0
 144:	00000038 	andeq	r0, r0, r8, lsr r0
 148:	00000044 	andeq	r0, r0, r4, asr #32
 14c:	0000004c 	andeq	r0, r0, ip, asr #32
	...
 158:	000000a4 	andeq	r0, r0, r4, lsr #1
 15c:	00000148 	andeq	r0, r0, r8, asr #2
 160:	00000158 	andeq	r0, r0, r8, asr r1
 164:	0000015c 	andeq	r0, r0, ip, asr r1
 168:	00000274 	andeq	r0, r0, r4, ror r2
 16c:	00000278 	andeq	r0, r0, r8, ror r2
 170:	0000027c 	andeq	r0, r0, ip, ror r2
 174:	00000280 	andeq	r0, r0, r0, lsl #5
 178:	00000288 	andeq	r0, r0, r8, lsl #5
 17c:	0000029c 	muleq	r0, ip, r2
 180:	000002c0 	andeq	r0, r0, r0, asr #5
 184:	000002cc 	andeq	r0, r0, ip, asr #5
 188:	000002f0 	strdeq	r0, [r0], -r0	; <UNPREDICTABLE>
 18c:	000002f0 	strdeq	r0, [r0], -r0	; <UNPREDICTABLE>
 190:	000002f4 	strdeq	r0, [r0], -r4
 194:	000002f8 	strdeq	r0, [r0], -r8
	...
 1a0:	00000148 	andeq	r0, r0, r8, asr #2
 1a4:	00000158 	andeq	r0, r0, r8, asr r1
 1a8:	0000015c 	andeq	r0, r0, ip, asr r1
 1ac:	0000018c 	andeq	r0, r0, ip, lsl #3
 1b0:	0000029c 	muleq	r0, ip, r2
 1b4:	000002ac 	andeq	r0, r0, ip, lsr #5
	...
 1c0:	000003c8 	andeq	r0, r0, r8, asr #7
 1c4:	000003d0 	ldrdeq	r0, [r0], -r0	; <UNPREDICTABLE>
 1c8:	00000404 	andeq	r0, r0, r4, lsl #8
 1cc:	000004ac 	andeq	r0, r0, ip, lsr #9
 1d0:	000004c0 	andeq	r0, r0, r0, asr #9
 1d4:	00000920 	andeq	r0, r0, r0, lsr #18
 1d8:	00000928 	andeq	r0, r0, r8, lsr #18
 1dc:	000009b4 			; <UNDEFINED> instruction: 0x000009b4
	...
 1e8:	000003c8 	andeq	r0, r0, r8, asr #7
 1ec:	000003d0 	ldrdeq	r0, [r0], -r0	; <UNPREDICTABLE>
 1f0:	00000504 	andeq	r0, r0, r4, lsl #10
 1f4:	000005d0 	ldrdeq	r0, [r0], -r0	; <UNPREDICTABLE>
 1f8:	00000800 	andeq	r0, r0, r0, lsl #16
 1fc:	00000888 	andeq	r0, r0, r8, lsl #17
 200:	00000930 	andeq	r0, r0, r0, lsr r9
 204:	000009b4 			; <UNDEFINED> instruction: 0x000009b4
	...
 210:	00000404 	andeq	r0, r0, r4, lsl #8
 214:	00000408 	andeq	r0, r0, r8, lsl #8
 218:	00000414 	andeq	r0, r0, r4, lsl r4
 21c:	00000414 	andeq	r0, r0, r4, lsl r4
 220:	00000428 	andeq	r0, r0, r8, lsr #8
 224:	0000042c 	andeq	r0, r0, ip, lsr #8
	...
 230:	000005fc 	strdeq	r0, [r0], -ip
 234:	00000700 	andeq	r0, r0, r0, lsl #14
 238:	000007ec 	andeq	r0, r0, ip, ror #15
 23c:	000007f4 	strdeq	r0, [r0], -r4
 240:	00000888 	andeq	r0, r0, r8, lsl #17
 244:	00000894 	muleq	r0, r4, r8
 248:	000008a8 	andeq	r0, r0, r8, lsr #17
 24c:	000008bc 			; <UNDEFINED> instruction: 0x000008bc
 250:	00000910 	andeq	r0, r0, r0, lsl r9
 254:	00000920 	andeq	r0, r0, r0, lsr #18
	...
 260:	00000600 	andeq	r0, r0, r0, lsl #12
 264:	00000604 	andeq	r0, r0, r4, lsl #12
 268:	00000608 	andeq	r0, r0, r8, lsl #12
 26c:	000006b4 			; <UNDEFINED> instruction: 0x000006b4
 270:	000006cc 	andeq	r0, r0, ip, asr #13
 274:	000006d0 	ldrdeq	r0, [r0], -r0	; <UNPREDICTABLE>
 278:	000008a8 	andeq	r0, r0, r8, lsr #17
 27c:	000008b8 			; <UNDEFINED> instruction: 0x000008b8
 280:	00000910 	andeq	r0, r0, r0, lsl r9
 284:	00000920 	andeq	r0, r0, r0, lsr #18
	...
 290:	000006b4 			; <UNDEFINED> instruction: 0x000006b4
 294:	000006cc 	andeq	r0, r0, ip, asr #13
 298:	000006d0 	ldrdeq	r0, [r0], -r0	; <UNPREDICTABLE>
 29c:	00000700 	andeq	r0, r0, r0, lsl #14
 2a0:	000007ec 	andeq	r0, r0, ip, ror #15
 2a4:	000007f4 	strdeq	r0, [r0], -r4
 2a8:	00000888 	andeq	r0, r0, r8, lsl #17
 2ac:	00000894 	muleq	r0, r4, r8
 2b0:	000008b8 			; <UNDEFINED> instruction: 0x000008b8
 2b4:	000008bc 			; <UNDEFINED> instruction: 0x000008bc
	...
 2c0:	00000700 	andeq	r0, r0, r0, lsl #14
 2c4:	00000708 	andeq	r0, r0, r8, lsl #14
 2c8:	0000070c 	andeq	r0, r0, ip, lsl #14
 2cc:	000007ec 	andeq	r0, r0, ip, ror #15
 2d0:	00000894 	muleq	r0, r4, r8
 2d4:	000008a8 	andeq	r0, r0, r8, lsr #17
	...
 2e0:	00000728 	andeq	r0, r0, r8, lsr #14
 2e4:	000007a4 	andeq	r0, r0, r4, lsr #15
 2e8:	000007ac 	andeq	r0, r0, ip, lsr #15
 2ec:	000007b0 			; <UNDEFINED> instruction: 0x000007b0
 2f0:	00000894 	muleq	r0, r4, r8
 2f4:	00000898 	muleq	r0, r8, r8
 2f8:	0000089c 	muleq	r0, ip, r8
 2fc:	000008a0 	andeq	r0, r0, r0, lsr #17
	...
 308:	000007a4 	andeq	r0, r0, r4, lsr #15
 30c:	000007ac 	andeq	r0, r0, ip, lsr #15
 310:	000007b0 			; <UNDEFINED> instruction: 0x000007b0
 314:	000007ec 	andeq	r0, r0, ip, ror #15
 318:	00000898 	muleq	r0, r8, r8
 31c:	0000089c 	muleq	r0, ip, r8
 320:	000008a0 	andeq	r0, r0, r0, lsr #17
 324:	000008a8 	andeq	r0, r0, r8, lsr #17
	...
 330:	000000f0 	strdeq	r0, [r0], -r0	; <UNPREDICTABLE>
 334:	000000f8 	strdeq	r0, [r0], -r8
 338:	000000fc 	strdeq	r0, [r0], -ip
 33c:	00000108 	andeq	r0, r0, r8, lsl #2
	...
 348:	00009c00 	andeq	r9, r0, r0, lsl #24
 34c:	00009c00 	andeq	r9, r0, r0, lsl #24
 350:	00009c04 	andeq	r9, r0, r4, lsl #24
 354:	00009c0c 	andeq	r9, r0, ip, lsl #24
	...
 360:	00009bd4 	ldrdeq	r9, [r0], -r4
 364:	00009c60 	andeq	r9, r0, r0, ror #24
	...
 370:	00000030 	andeq	r0, r0, r0, lsr r0
 374:	00000030 	andeq	r0, r0, r0, lsr r0
 378:	00000038 	andeq	r0, r0, r8, lsr r0
 37c:	0000004c 	andeq	r0, r0, ip, asr #32
	...
 388:	0000004c 	andeq	r0, r0, ip, asr #32
 38c:	00000050 	andeq	r0, r0, r0, asr r0
 390:	00000050 	andeq	r0, r0, r0, asr r0
 394:	00000078 	andeq	r0, r0, r8, ror r0
	...
 3a0:	0000004c 	andeq	r0, r0, ip, asr #32
 3a4:	00000050 	andeq	r0, r0, r0, asr r0
 3a8:	00000050 	andeq	r0, r0, r0, asr r0
 3ac:	00000060 	andeq	r0, r0, r0, rrx
 3b0:	00000064 	andeq	r0, r0, r4, rrx
 3b4:	00000068 	andeq	r0, r0, r8, rrx
	...
 3c0:	0000004c 	andeq	r0, r0, ip, asr #32
 3c4:	00000050 	andeq	r0, r0, r0, asr r0
 3c8:	00000054 	andeq	r0, r0, r4, asr r0
 3cc:	00000060 	andeq	r0, r0, r0, rrx
	...
 3d8:	0000009c 	muleq	r0, ip, r0
 3dc:	000000a0 	andeq	r0, r0, r0, lsr #1
 3e0:	000000a0 	andeq	r0, r0, r0, lsr #1
 3e4:	000000c8 	andeq	r0, r0, r8, asr #1
	...
 3f0:	0000009c 	muleq	r0, ip, r0
 3f4:	000000a0 	andeq	r0, r0, r0, lsr #1
 3f8:	000000a0 	andeq	r0, r0, r0, lsr #1
 3fc:	000000b0 	strheq	r0, [r0], -r0	; <UNPREDICTABLE>
 400:	000000b4 	strheq	r0, [r0], -r4
 404:	000000b8 	strheq	r0, [r0], -r8
	...
 410:	0000009c 	muleq	r0, ip, r0
 414:	000000a0 	andeq	r0, r0, r0, lsr #1
 418:	000000a4 	andeq	r0, r0, r4, lsr #1
 41c:	000000b0 	strheq	r0, [r0], -r0	; <UNPREDICTABLE>
	...
 428:	000000c8 	andeq	r0, r0, r8, asr #1
 42c:	000000c8 	andeq	r0, r0, r8, asr #1
 430:	000000cc 	andeq	r0, r0, ip, asr #1
 434:	0000011c 	andeq	r0, r0, ip, lsl r1
	...
 440:	000000f0 	strdeq	r0, [r0], -r0	; <UNPREDICTABLE>
 444:	000000f4 	strdeq	r0, [r0], -r4
 448:	000000f4 	strdeq	r0, [r0], -r4
 44c:	0000011c 	andeq	r0, r0, ip, lsl r1
	...
 458:	000000f0 	strdeq	r0, [r0], -r0	; <UNPREDICTABLE>
 45c:	000000f4 	strdeq	r0, [r0], -r4
 460:	000000f4 	strdeq	r0, [r0], -r4
 464:	00000104 	andeq	r0, r0, r4, lsl #2
 468:	00000108 	andeq	r0, r0, r8, lsl #2
 46c:	0000010c 	andeq	r0, r0, ip, lsl #2
	...
 478:	000000f0 	strdeq	r0, [r0], -r0	; <UNPREDICTABLE>
 47c:	000000f4 	strdeq	r0, [r0], -r4
 480:	000000f8 	strdeq	r0, [r0], -r8
 484:	00000104 	andeq	r0, r0, r4, lsl #2
	...
 490:	00000134 	andeq	r0, r0, r4, lsr r1
 494:	00000134 	andeq	r0, r0, r4, lsr r1
 498:	00000134 	andeq	r0, r0, r4, lsr r1
 49c:	0000013c 	andeq	r0, r0, ip, lsr r1
	...
 4a8:	0000024c 	andeq	r0, r0, ip, asr #4
 4ac:	00000264 	andeq	r0, r0, r4, ror #4
 4b0:	000002c8 	andeq	r0, r0, r8, asr #5
 4b4:	000002e8 	andeq	r0, r0, r8, ror #5
	...
 4c0:	00000008 	andeq	r0, r0, r8
 4c4:	0000000c 	andeq	r0, r0, ip
 4c8:	00000014 	andeq	r0, r0, r4, lsl r0
 4cc:	00000054 	andeq	r0, r0, r4, asr r0
 4d0:	00000058 	andeq	r0, r0, r8, asr r0
 4d4:	00000060 	andeq	r0, r0, r0, rrx
	...
 4e0:	00000060 	andeq	r0, r0, r0, rrx
 4e4:	00000068 	andeq	r0, r0, r8, rrx
 4e8:	0000006c 	andeq	r0, r0, ip, rrx
 4ec:	000000ac 	andeq	r0, r0, ip, lsr #1
 4f0:	000000b0 	strheq	r0, [r0], -r0	; <UNPREDICTABLE>
 4f4:	000000b8 	strheq	r0, [r0], -r8
	...
 500:	00000068 	andeq	r0, r0, r8, rrx
 504:	00000068 	andeq	r0, r0, r8, rrx
 508:	0000006c 	andeq	r0, r0, ip, rrx
 50c:	000000ac 	andeq	r0, r0, ip, lsr #1
 510:	000000b0 	strheq	r0, [r0], -r0	; <UNPREDICTABLE>
 514:	000000b8 	strheq	r0, [r0], -r8
	...
 520:	000000e8 	andeq	r0, r0, r8, ror #1
 524:	000000f0 	strdeq	r0, [r0], -r0	; <UNPREDICTABLE>
 528:	000000f4 	strdeq	r0, [r0], -r4
 52c:	00000134 	andeq	r0, r0, r4, lsr r1
 530:	00000138 	andeq	r0, r0, r8, lsr r1
 534:	00000140 	andeq	r0, r0, r0, asr #2
	...
 540:	000000f0 	strdeq	r0, [r0], -r0	; <UNPREDICTABLE>
 544:	000000f0 	strdeq	r0, [r0], -r0	; <UNPREDICTABLE>
 548:	000000f4 	strdeq	r0, [r0], -r4
 54c:	00000134 	andeq	r0, r0, r4, lsr r1
 550:	00000138 	andeq	r0, r0, r8, lsr r1
 554:	00000140 	andeq	r0, r0, r0, asr #2
	...
 560:	00000144 	andeq	r0, r0, r4, asr #2
 564:	00000148 	andeq	r0, r0, r8, asr #2
 568:	00000150 	andeq	r0, r0, r0, asr r1
 56c:	0000015c 	andeq	r0, r0, ip, asr r1
	...
