
tests-2.0/part2-test5-gc.elf:     file format elf32-littlearm


Disassembly of section .text:

00008000 <__code_start__>:
    8000:	e3a00013 	mov	r0, #19, 0
    8004:	e3800080 	orr	r0, r0, #128, 0	; 0x80
    8008:	e129f000 	msr	CPSR_fc, r0
    800c:	e3a01000 	mov	r1, #0, 0
    8010:	ee071f95 	mcr	15, 0, r1, cr7, cr5, {4}
    8014:	e3a0d302 	mov	sp, #134217728	; 0x8000000
    8018:	e3a0b000 	mov	fp, #0, 0
    801c:	eb0006a0 	bl	9aa4 <_cstart>
    8020:	eb0006f5 	bl	9bfc <rpi_reboot>

00008024 <PUT32>:
    8024:	e5801000 	str	r1, [r0]
    8028:	e12fff1e 	bx	lr

0000802c <GET32>:
    802c:	e5900000 	ldr	r0, [r0]
    8030:	e12fff1e 	bx	lr

00008034 <BRANCHTO>:
    8034:	e12fff10 	bx	r0
    8038:	74736574 	ldrbtvc	r6, [r3], #-1396	; 0xfffffa8c
    803c:	00000000 	andeq	r0, r0, r0
    8040:	ff000008 			; <UNDEFINED> instruction: 0xff000008

00008044 <test>:
    8044:	e1a0c00d 	mov	ip, sp
    8048:	e92dd870 	push	{r4, r5, r6, fp, ip, lr, pc}
    804c:	e24cb004 	sub	fp, ip, #4, 0
    8050:	e24dd01c 	sub	sp, sp, #28, 0
    8054:	e3a06000 	mov	r6, #0, 0
    8058:	e1a05006 	mov	r5, r6
    805c:	e3560000 	cmp	r6, #0, 0
    8060:	da000005 	ble	807c <test+0x38>
    8064:	e59f0098 	ldr	r0, [pc, #152]	; 8104 <test+0xc0>
    8068:	eb0003f1 	bl	9034 <printk>
    806c:	eb00035d 	bl	8de8 <check_no_leak>
    8070:	e1a00005 	mov	r0, r5
    8074:	e24bd018 	sub	sp, fp, #24, 0
    8078:	e89da870 	ldm	sp, {r4, r5, r6, fp, sp, pc}
    807c:	e59f3084 	ldr	r3, [pc, #132]	; 8108 <test+0xc4>
    8080:	e50b3028 	str	r3, [fp, #-40]	; 0xffffffd8
    8084:	e59f3080 	ldr	r3, [pc, #128]	; 810c <test+0xc8>
    8088:	e50b3024 	str	r3, [fp, #-36]	; 0xffffffdc
    808c:	e3a03014 	mov	r3, #20, 0
    8090:	e50b3020 	str	r3, [fp, #-32]	; 0xffffffe0
    8094:	e24b301c 	sub	r3, fp, #28, 0
    8098:	e913000e 	ldmdb	r3, {r1, r2, r3}
    809c:	e3a0000c 	mov	r0, #12, 0
    80a0:	eb000122 	bl	8530 <ckalloc>
    80a4:	e1a04000 	mov	r4, r0
    80a8:	e3a0200c 	mov	r2, #12, 0
    80ac:	e3a01000 	mov	r1, #0, 0
    80b0:	eb0003c1 	bl	8fbc <memset>
    80b4:	e3a03000 	mov	r3, #0, 0
    80b8:	e5843000 	str	r3, [r4]
    80bc:	e1550003 	cmp	r5, r3
    80c0:	0a000004 	beq	80d8 <test+0x94>
    80c4:	e5953008 	ldr	r3, [r5, #8]
    80c8:	e3530000 	cmp	r3, #0, 0
    80cc:	1a000004 	bne	80e4 <test+0xa0>
    80d0:	e5854008 	str	r4, [r5, #8]
    80d4:	e5845004 	str	r5, [r4, #4]
    80d8:	e2866001 	add	r6, r6, #1, 0
    80dc:	e1a05004 	mov	r5, r4
    80e0:	eaffffdd 	b	805c <test+0x18>
    80e4:	e59f3024 	ldr	r3, [pc, #36]	; 8110 <test+0xcc>
    80e8:	e58d3000 	str	r3, [sp]
    80ec:	e3a03018 	mov	r3, #24, 0
    80f0:	e59f2014 	ldr	r2, [pc, #20]	; 810c <test+0xc8>
    80f4:	e59f100c 	ldr	r1, [pc, #12]	; 8108 <test+0xc4>
    80f8:	e59f0014 	ldr	r0, [pc, #20]	; 8114 <test+0xd0>
    80fc:	eb0003cc 	bl	9034 <printk>
    8100:	eb00065c 	bl	9a78 <clean_reboot>
    8104:	0000a5fc 	strdeq	sl, [r0], -ip
    8108:	0000a5c0 	andeq	sl, r0, r0, asr #11
    810c:	0000a718 	andeq	sl, r0, r8, lsl r7
    8110:	0000a5f0 	strdeq	sl, [r0], -r0
    8114:	0000a5dc 	ldrdeq	sl, [r0], -ip
    8118:	00726162 	rsbseq	r6, r2, r2, ror #2
    811c:	ff000004 			; <UNDEFINED> instruction: 0xff000004

00008120 <bar>:
    8120:	e1a0c00d 	mov	ip, sp
    8124:	e92dd800 	push	{fp, ip, lr, pc}
    8128:	e24cb004 	sub	fp, ip, #4, 0
    812c:	ebffffc4 	bl	8044 <test>
    8130:	e1a01000 	mov	r1, r0
    8134:	e3a00000 	mov	r0, #0, 0
    8138:	ebffffb9 	bl	8024 <PUT32>
    813c:	e3a00000 	mov	r0, #0, 0
    8140:	e89da800 	ldm	sp, {fp, sp, pc}
    8144:	6d746f6e 	ldclvs	15, cr6, [r4, #-440]!	; 0xfffffe48
    8148:	006e6961 	rsbeq	r6, lr, r1, ror #18
    814c:	ff000008 			; <UNDEFINED> instruction: 0xff000008

00008150 <notmain>:
    8150:	e1a0c00d 	mov	ip, sp
    8154:	e92dd800 	push	{fp, ip, lr, pc}
    8158:	e24cb004 	sub	fp, ip, #4, 0
    815c:	e24dd008 	sub	sp, sp, #8, 0
    8160:	e59f0064 	ldr	r0, [pc, #100]	; 81cc <notmain+0x7c>
    8164:	eb0003b2 	bl	9034 <printk>
    8168:	ebffffec 	bl	8120 <bar>
    816c:	e59f005c 	ldr	r0, [pc, #92]	; 81d0 <notmain+0x80>
    8170:	eb0003af 	bl	9034 <printk>
    8174:	eb000335 	bl	8e50 <check_should_leak>
    8178:	eb00034d 	bl	8eb4 <ck_gc>
    817c:	e1a01000 	mov	r1, r0
    8180:	e59f004c 	ldr	r0, [pc, #76]	; 81d4 <notmain+0x84>
    8184:	eb0003aa 	bl	9034 <printk>
    8188:	e59f0048 	ldr	r0, [pc, #72]	; 81d8 <notmain+0x88>
    818c:	eb0003a8 	bl	9034 <printk>
    8190:	eb000347 	bl	8eb4 <ck_gc>
    8194:	e3500000 	cmp	r0, #0, 0
    8198:	1a000004 	bne	81b0 <notmain+0x60>
    819c:	e59f0038 	ldr	r0, [pc, #56]	; 81dc <notmain+0x8c>
    81a0:	eb0003a3 	bl	9034 <printk>
    81a4:	eb00030f 	bl	8de8 <check_no_leak>
    81a8:	e24bd00c 	sub	sp, fp, #12, 0
    81ac:	e89da800 	ldm	sp, {fp, sp, pc}
    81b0:	e58d0000 	str	r0, [sp]
    81b4:	e3a03044 	mov	r3, #68, 0	; 0x44
    81b8:	e59f2020 	ldr	r2, [pc, #32]	; 81e0 <notmain+0x90>
    81bc:	e59f1020 	ldr	r1, [pc, #32]	; 81e4 <notmain+0x94>
    81c0:	e59f0020 	ldr	r0, [pc, #32]	; 81e8 <notmain+0x98>
    81c4:	eb00039a 	bl	9034 <printk>
    81c8:	eb00062a 	bl	9a78 <clean_reboot>
    81cc:	0000a62c 	andeq	sl, r0, ip, lsr #12
    81d0:	0000a668 	andeq	sl, r0, r8, ror #12
    81d4:	0000a67c 	andeq	sl, r0, ip, ror r6
    81d8:	0000a69c 	muleq	r0, ip, r6
    81dc:	0000a6fc 	strdeq	sl, [r0], -ip
    81e0:	0000a720 	andeq	sl, r0, r0, lsr #14
    81e4:	0000a5c0 	andeq	sl, r0, r0, asr #11
    81e8:	0000a6c0 	andeq	sl, r0, r0, asr #13
    81ec:	665f6b63 	ldrbvs	r6, [pc], -r3, ror #22
    81f0:	74737269 	ldrbtvc	r7, [r3], #-617	; 0xfffffd97
    81f4:	7264685f 	rsbvc	r6, r4, #6225920	; 0x5f0000
    81f8:	00000000 	andeq	r0, r0, r0
    81fc:	ff000010 			; <UNDEFINED> instruction: 0xff000010

00008200 <ck_first_hdr>:
    8200:	e1a0c00d 	mov	ip, sp
    8204:	e92dd800 	push	{fp, ip, lr, pc}
    8208:	e24cb004 	sub	fp, ip, #4, 0
    820c:	e59f3004 	ldr	r3, [pc, #4]	; 8218 <ck_first_hdr+0x18>
    8210:	e5930000 	ldr	r0, [r3]
    8214:	e89da800 	ldm	sp, {fp, sp, pc}
    8218:	0000aec8 	andeq	sl, r0, r8, asr #29
    821c:	6e5f6b63 	vnmlavs.f64	d22, d15, d19
    8220:	5f747865 	svcpl	0x00747865
    8224:	00726468 	rsbseq	r6, r2, r8, ror #8
    8228:	ff00000c 			; <UNDEFINED> instruction: 0xff00000c

0000822c <ck_next_hdr>:
    822c:	e1a0c00d 	mov	ip, sp
    8230:	e92dd800 	push	{fp, ip, lr, pc}
    8234:	e24cb004 	sub	fp, ip, #4, 0
    8238:	e3500000 	cmp	r0, #0, 0
    823c:	089da800 	ldmeq	sp, {fp, sp, pc}
    8240:	e5900000 	ldr	r0, [r0]
    8244:	e89da800 	ldm	sp, {fp, sp, pc}
    8248:	685f6b63 	ldmdavs	pc, {r0, r1, r5, r6, r8, r9, fp, sp, lr}^	; <UNPREDICTABLE>
    824c:	735f7264 	cmpvc	pc, #100, 4	; 0x40000006
    8250:	74726174 	ldrbtvc	r6, [r2], #-372	; 0xfffffe8c
    8254:	00000000 	andeq	r0, r0, r0
    8258:	ff000010 			; <UNDEFINED> instruction: 0xff000010

0000825c <ck_hdr_start>:
    825c:	e1a0c00d 	mov	ip, sp
    8260:	e92dd800 	push	{fp, ip, lr, pc}
    8264:	e24cb004 	sub	fp, ip, #4, 0
    8268:	e28000b4 	add	r0, r0, #180, 0	; 0xb4
    826c:	e89da800 	ldm	sp, {fp, sp, pc}
    8270:	685f6b63 	ldmdavs	pc, {r0, r1, r5, r6, r8, r9, fp, sp, lr}^	; <UNPREDICTABLE>
    8274:	655f7264 	ldrbvs	r7, [pc, #-612]	; 8018 <__code_start__+0x18>
    8278:	0000646e 	andeq	r6, r0, lr, ror #8
    827c:	ff00000c 			; <UNDEFINED> instruction: 0xff00000c

00008280 <ck_hdr_end>:
    8280:	e1a0c00d 	mov	ip, sp
    8284:	e92dd830 	push	{r4, r5, fp, ip, lr, pc}
    8288:	e24cb004 	sub	fp, ip, #4, 0
    828c:	e1a04000 	mov	r4, r0
    8290:	ebfffff1 	bl	825c <ck_hdr_start>
    8294:	e5943004 	ldr	r3, [r4, #4]
    8298:	e0800003 	add	r0, r0, r3
    829c:	e89da830 	ldm	sp, {r4, r5, fp, sp, pc}
    82a0:	705f6b63 	subsvc	r6, pc, r3, ror #22
    82a4:	695f7274 	ldmdbvs	pc, {r2, r4, r5, r6, r9, ip, sp, lr}^	; <UNPREDICTABLE>
    82a8:	6c625f6e 	stclvs	15, cr5, [r2], #-440	; 0xfffffe48
    82ac:	006b636f 	rsbeq	r6, fp, pc, ror #6
    82b0:	ff000010 			; <UNDEFINED> instruction: 0xff000010

000082b4 <ck_ptr_in_block>:
    82b4:	e1a0c00d 	mov	ip, sp
    82b8:	e92dd8f0 	push	{r4, r5, r6, r7, fp, ip, lr, pc}
    82bc:	e24cb004 	sub	fp, ip, #4, 0
    82c0:	e1a06000 	mov	r6, r0
    82c4:	e1a04001 	mov	r4, r1
    82c8:	ebffffe3 	bl	825c <ck_hdr_start>
    82cc:	e1a05000 	mov	r5, r0
    82d0:	e1a00006 	mov	r0, r6
    82d4:	ebffffe9 	bl	8280 <ck_hdr_end>
    82d8:	e1550004 	cmp	r5, r4
    82dc:	91540000 	cmpls	r4, r0
    82e0:	33a00001 	movcc	r0, #1, 0
    82e4:	23a00000 	movcs	r0, #0, 0
    82e8:	e89da8f0 	ldm	sp, {r4, r5, r6, r7, fp, sp, pc}
    82ec:	72666b63 	rsbvc	r6, r6, #101376	; 0x18c00
    82f0:	00006565 	andeq	r6, r0, r5, ror #10
    82f4:	ff000008 			; <UNDEFINED> instruction: 0xff000008

000082f8 <ckfree>:
    82f8:	e1a0c00d 	mov	ip, sp
    82fc:	e92dd8f0 	push	{r4, r5, r6, r7, fp, ip, lr, pc}
    8300:	e24cb004 	sub	fp, ip, #4, 0
    8304:	e24dd010 	sub	sp, sp, #16, 0
    8308:	e1a04000 	mov	r4, r0
    830c:	e24b0028 	sub	r0, fp, #40, 0	; 0x28
    8310:	e880000e 	stm	r0, {r1, r2, r3}
    8314:	e244c098 	sub	ip, r4, #152, 0	; 0x98
    8318:	e8900007 	ldm	r0, {r0, r1, r2}
    831c:	e88c000b 	stm	ip, {r0, r1, r3}
    8320:	e1a05000 	mov	r5, r0
    8324:	e51b6024 	ldr	r6, [fp, #-36]	; 0xffffffdc
    8328:	e51b7020 	ldr	r7, [fp, #-32]	; 0xffffffe0
    832c:	e1a03007 	mov	r3, r7
    8330:	e1a02006 	mov	r2, r6
    8334:	e1a01000 	mov	r1, r0
    8338:	e59f00fc 	ldr	r0, [pc, #252]	; 843c <ckfree+0x144>
    833c:	eb00033c 	bl	9034 <printk>
    8340:	e1a01004 	mov	r1, r4
    8344:	e59f00f4 	ldr	r0, [pc, #244]	; 8440 <ckfree+0x148>
    8348:	eb000339 	bl	9034 <printk>
    834c:	e51430ac 	ldr	r3, [r4, #-172]	; 0xffffff54
    8350:	e353000b 	cmp	r3, #11, 0
    8354:	1a00000d 	bne	8390 <ckfree+0x98>
    8358:	e3a03000 	mov	r3, #0, 0
    835c:	e353007f 	cmp	r3, #127, 0	; 0x7f
    8360:	ca000026 	bgt	8400 <ckfree+0x108>
    8364:	e0842003 	add	r2, r4, r3
    8368:	e5522082 	ldrb	r2, [r2, #-130]	; 0xffffff7e
    836c:	e35200fe 	cmp	r2, #254, 0	; 0xfe
    8370:	1a000010 	bne	83b8 <ckfree+0xc0>
    8374:	e51420b0 	ldr	r2, [r4, #-176]	; 0xffffff50
    8378:	e0832002 	add	r2, r3, r2
    837c:	e7d42002 	ldrb	r2, [r4, r2]
    8380:	e35200fe 	cmp	r2, #254, 0	; 0xfe
    8384:	1a000014 	bne	83dc <ckfree+0xe4>
    8388:	e2833001 	add	r3, r3, #1, 0
    838c:	eafffff2 	b	835c <ckfree+0x64>
    8390:	eb0002e1 	bl	8f1c <backtrace>
    8394:	e1a03007 	mov	r3, r7
    8398:	e1a02006 	mov	r2, r6
    839c:	e1a01005 	mov	r1, r5
    83a0:	e59f009c 	ldr	r0, [pc, #156]	; 8444 <ckfree+0x14c>
    83a4:	eb000322 	bl	9034 <printk>
    83a8:	e51410ac 	ldr	r1, [r4, #-172]	; 0xffffff54
    83ac:	e59f0094 	ldr	r0, [pc, #148]	; 8448 <ckfree+0x150>
    83b0:	eb00031f 	bl	9034 <printk>
    83b4:	eb0005af 	bl	9a78 <clean_reboot>
    83b8:	eb0002d7 	bl	8f1c <backtrace>
    83bc:	e1a03007 	mov	r3, r7
    83c0:	e1a02006 	mov	r2, r6
    83c4:	e1a01005 	mov	r1, r5
    83c8:	e59f0074 	ldr	r0, [pc, #116]	; 8444 <ckfree+0x14c>
    83cc:	eb000318 	bl	9034 <printk>
    83d0:	e59f0074 	ldr	r0, [pc, #116]	; 844c <ckfree+0x154>
    83d4:	eb000316 	bl	9034 <printk>
    83d8:	eb0005a6 	bl	9a78 <clean_reboot>
    83dc:	eb0002ce 	bl	8f1c <backtrace>
    83e0:	e1a03007 	mov	r3, r7
    83e4:	e1a02006 	mov	r2, r6
    83e8:	e1a01005 	mov	r1, r5
    83ec:	e59f0050 	ldr	r0, [pc, #80]	; 8444 <ckfree+0x14c>
    83f0:	eb00030f 	bl	9034 <printk>
    83f4:	e59f0054 	ldr	r0, [pc, #84]	; 8450 <ckfree+0x158>
    83f8:	eb00030d 	bl	9034 <printk>
    83fc:	eb00059d 	bl	9a78 <clean_reboot>
    8400:	e3a03000 	mov	r3, #0, 0
    8404:	e51420b0 	ldr	r2, [r4, #-176]	; 0xffffff50
    8408:	e1520003 	cmp	r2, r3
    840c:	83e02001 	mvnhi	r2, #1, 0
    8410:	87c42003 	strbhi	r2, [r4, r3]
    8414:	82833001 	addhi	r3, r3, #1, 0
    8418:	8afffff9 	bhi	8404 <ckfree+0x10c>
    841c:	e3a0300c 	mov	r3, #12, 0
    8420:	e50430ac 	str	r3, [r4, #-172]	; 0xffffff54
    8424:	e2444098 	sub	r4, r4, #152, 0	; 0x98
    8428:	e24b301c 	sub	r3, fp, #28, 0
    842c:	e9130007 	ldmdb	r3, {r0, r1, r2}
    8430:	e8840007 	stm	r4, {r0, r1, r2}
    8434:	e24bd01c 	sub	sp, fp, #28, 0
    8438:	e89da8f0 	ldm	sp, {r4, r5, r6, r7, fp, sp, pc}
    843c:	0000a728 	andeq	sl, r0, r8, lsr #14
    8440:	0000a734 	andeq	sl, r0, r4, lsr r7
    8444:	0000a744 	andeq	sl, r0, r4, asr #14
    8448:	0000a75c 	andeq	sl, r0, ip, asr r7
    844c:	0000a784 	andeq	sl, r0, r4, lsl #15
    8450:	0000a7a0 	andeq	sl, r0, r0, lsr #15
    8454:	64616873 	strbtvs	r6, [r1], #-2163	; 0xfffff78d
    8458:	6c5f776f 	mrrcvs	7, 6, r7, pc, cr15	; <UNPREDICTABLE>
    845c:	7461636f 	strbtvc	r6, [r1], #-879	; 0xfffffc91
    8460:	006e6f69 	rsbeq	r6, lr, r9, ror #30
    8464:	ff000010 			; <UNDEFINED> instruction: 0xff000010

00008468 <shadow_location>:
    8468:	e1a0c00d 	mov	ip, sp
    846c:	e92dd800 	push	{fp, ip, lr, pc}
    8470:	e24cb004 	sub	fp, ip, #4, 0
    8474:	e59f3030 	ldr	r3, [pc, #48]	; 84ac <shadow_location+0x44>
    8478:	e1500003 	cmp	r0, r3
    847c:	3a000006 	bcc	849c <shadow_location+0x34>
    8480:	e59f3028 	ldr	r3, [pc, #40]	; 84b0 <shadow_location+0x48>
    8484:	e5933004 	ldr	r3, [r3, #4]
    8488:	e1530000 	cmp	r3, r0
    848c:	9a000004 	bls	84a4 <shadow_location+0x3c>
    8490:	e3c00003 	bic	r0, r0, #3, 0
    8494:	e2800201 	add	r0, r0, #268435456	; 0x10000000
    8498:	e89da800 	ldm	sp, {fp, sp, pc}
    849c:	e3a00000 	mov	r0, #0, 0
    84a0:	e89da800 	ldm	sp, {fp, sp, pc}
    84a4:	e3a00000 	mov	r0, #0, 0
    84a8:	e89da800 	ldm	sp, {fp, sp, pc}
    84ac:	0000b2f8 	strdeq	fp, [r0], -r8
    84b0:	0000aec8 	andeq	sl, r0, r8, asr #29
    84b4:	705f6b63 	subsvc	r6, pc, r3, ror #22
    84b8:	695f7274 	ldmdbvs	pc, {r2, r4, r5, r6, r9, ip, sp, lr}^	; <UNPREDICTABLE>
    84bc:	6c615f73 	stclvs	15, cr5, [r1], #-460	; 0xfffffe34
    84c0:	65636f6c 	strbvs	r6, [r3, #-3948]!	; 0xfffff094
    84c4:	00000064 	andeq	r0, r0, r4, rrx
    84c8:	ff000014 			; <UNDEFINED> instruction: 0xff000014

000084cc <ck_ptr_is_alloced>:
    84cc:	e1a0c00d 	mov	ip, sp
    84d0:	e92dd830 	push	{r4, r5, fp, ip, lr, pc}
    84d4:	e24cb004 	sub	fp, ip, #4, 0
    84d8:	e1a05000 	mov	r5, r0
    84dc:	ebffffe1 	bl	8468 <shadow_location>
    84e0:	e2504000 	subs	r4, r0, #0, 0
    84e4:	0a000008 	beq	850c <ck_ptr_is_alloced+0x40>
    84e8:	e5944000 	ldr	r4, [r4]
    84ec:	e5943008 	ldr	r3, [r4, #8]
    84f0:	e353000c 	cmp	r3, #12, 0
    84f4:	0a000008 	beq	851c <ck_ptr_is_alloced+0x50>
    84f8:	e1a01005 	mov	r1, r5
    84fc:	e1a00004 	mov	r0, r4
    8500:	ebffff6b 	bl	82b4 <ck_ptr_in_block>
    8504:	e3500000 	cmp	r0, #0, 0
    8508:	0a000001 	beq	8514 <ck_ptr_is_alloced+0x48>
    850c:	e1a00004 	mov	r0, r4
    8510:	e89da830 	ldm	sp, {r4, r5, fp, sp, pc}
    8514:	e3a04000 	mov	r4, #0, 0
    8518:	eafffffb 	b	850c <ck_ptr_is_alloced+0x40>
    851c:	e3a04000 	mov	r4, #0, 0
    8520:	eafffff9 	b	850c <ck_ptr_is_alloced+0x40>
    8524:	6c616b63 			; <UNDEFINED> instruction: 0x6c616b63
    8528:	00636f6c 	rsbeq	r6, r3, ip, ror #30
    852c:	ff000008 			; <UNDEFINED> instruction: 0xff000008

00008530 <ckalloc>:
    8530:	e1a0c00d 	mov	ip, sp
    8534:	e92dd8f0 	push	{r4, r5, r6, r7, fp, ip, lr, pc}
    8538:	e24cb004 	sub	fp, ip, #4, 0
    853c:	e24dd010 	sub	sp, sp, #16, 0
    8540:	e1a05000 	mov	r5, r0
    8544:	e24b001c 	sub	r0, fp, #28, 0
    8548:	e900000e 	stmdb	r0, {r1, r2, r3}
    854c:	e2850f4d 	add	r0, r5, #308	; 0x134
    8550:	eb000098 	bl	87b8 <kr_malloc>
    8554:	e1a04000 	mov	r4, r0
    8558:	e2853da1 	add	r3, r5, #10304	; 0x2840
    855c:	e2833004 	add	r3, r3, #4, 0
    8560:	e0806003 	add	r6, r0, r3
    8564:	e59f30f0 	ldr	r3, [pc, #240]	; 865c <ckalloc+0x12c>
    8568:	e5933004 	ldr	r3, [r3, #4]
    856c:	e1530006 	cmp	r3, r6
    8570:	3a00000e 	bcc	85b0 <ckalloc+0x80>
    8574:	e3a020b4 	mov	r2, #180, 0	; 0xb4
    8578:	e3a01000 	mov	r1, #0, 0
    857c:	e1a00004 	mov	r0, r4
    8580:	eb00028d 	bl	8fbc <memset>
    8584:	e3a03000 	mov	r3, #0, 0
    8588:	e353007f 	cmp	r3, #127, 0	; 0x7f
    858c:	ca000011 	bgt	85d8 <ckalloc+0xa8>
    8590:	e0842003 	add	r2, r4, r3
    8594:	e3e01001 	mvn	r1, #1, 0
    8598:	e5c21032 	strb	r1, [r2, #50]	; 0x32
    859c:	e0832005 	add	r2, r3, r5
    85a0:	e28220b4 	add	r2, r2, #180, 0	; 0xb4
    85a4:	e7c41002 	strb	r1, [r4, r2]
    85a8:	e2833001 	add	r3, r3, #1, 0
    85ac:	eafffff5 	b	8588 <ckalloc+0x58>
    85b0:	e59f20a8 	ldr	r2, [pc, #168]	; 8660 <ckalloc+0x130>
    85b4:	e1530002 	cmp	r3, r2
    85b8:	31a03002 	movcc	r3, r2
    85bc:	e0462003 	sub	r2, r6, r3
    85c0:	e3a01000 	mov	r1, #0, 0
    85c4:	e2830201 	add	r0, r3, #268435456	; 0x10000000
    85c8:	eb00027b 	bl	8fbc <memset>
    85cc:	e59f3088 	ldr	r3, [pc, #136]	; 865c <ckalloc+0x12c>
    85d0:	e5836004 	str	r6, [r3, #4]
    85d4:	eaffffe6 	b	8574 <ckalloc+0x44>
    85d8:	e5845004 	str	r5, [r4, #4]
    85dc:	e3a0300b 	mov	r3, #11, 0
    85e0:	e5843008 	str	r3, [r4, #8]
    85e4:	e2843010 	add	r3, r4, #16, 0
    85e8:	e24b201c 	sub	r2, fp, #28, 0
    85ec:	e9120007 	ldmdb	r2, {r0, r1, r2}
    85f0:	e8830007 	stm	r3, {r0, r1, r2}
    85f4:	e51b3020 	ldr	r3, [fp, #-32]	; 0xffffffe0
    85f8:	e51b2024 	ldr	r2, [fp, #-36]	; 0xffffffdc
    85fc:	e51b1028 	ldr	r1, [fp, #-40]	; 0xffffffd8
    8600:	e59f005c 	ldr	r0, [pc, #92]	; 8664 <ckalloc+0x134>
    8604:	eb00028a 	bl	9034 <printk>
    8608:	e28470b4 	add	r7, r4, #180, 0	; 0xb4
    860c:	e1a02005 	mov	r2, r5
    8610:	e1a01007 	mov	r1, r7
    8614:	e59f004c 	ldr	r0, [pc, #76]	; 8668 <ckalloc+0x138>
    8618:	eb000285 	bl	9034 <printk>
    861c:	e3a06000 	mov	r6, #0, 0
    8620:	e1560005 	cmp	r6, r5
    8624:	8a000005 	bhi	8640 <ckalloc+0x110>
    8628:	e28600b4 	add	r0, r6, #180, 0	; 0xb4
    862c:	e0840000 	add	r0, r4, r0
    8630:	ebffff8c 	bl	8468 <shadow_location>
    8634:	e5804000 	str	r4, [r0]
    8638:	e2866004 	add	r6, r6, #4, 0
    863c:	eafffff7 	b	8620 <ckalloc+0xf0>
    8640:	e59f3014 	ldr	r3, [pc, #20]	; 865c <ckalloc+0x12c>
    8644:	e5932000 	ldr	r2, [r3]
    8648:	e5842000 	str	r2, [r4]
    864c:	e5834000 	str	r4, [r3]
    8650:	e1a00007 	mov	r0, r7
    8654:	e24bd01c 	sub	sp, fp, #28, 0
    8658:	e89da8f0 	ldm	sp, {r4, r5, r6, r7, fp, sp, pc}
    865c:	0000aec8 	andeq	sl, r0, r8, asr #29
    8660:	0000b2f8 	strdeq	fp, [r0], -r8
    8664:	0000a728 	andeq	sl, r0, r8, lsr #14
    8668:	0000a7bc 			; <UNDEFINED> instruction: 0x0000a7bc
    866c:	665f726b 	ldrbvs	r7, [pc], -fp, ror #4
    8670:	00656572 	rsbeq	r6, r5, r2, ror r5
    8674:	ff000008 			; <UNDEFINED> instruction: 0xff000008

00008678 <kr_free>:
    8678:	e1a0c00d 	mov	ip, sp
    867c:	e92dd800 	push	{fp, ip, lr, pc}
    8680:	e24cb004 	sub	fp, ip, #4, 0
    8684:	e2401008 	sub	r1, r0, #8, 0
    8688:	e59f30a8 	ldr	r3, [pc, #168]	; 8738 <kr_free+0xc0>
    868c:	e5933000 	ldr	r3, [r3]
    8690:	ea000000 	b	8698 <kr_free+0x20>
    8694:	e1a03002 	mov	r3, r2
    8698:	e1530001 	cmp	r3, r1
    869c:	2a000002 	bcs	86ac <kr_free+0x34>
    86a0:	e5932000 	ldr	r2, [r3]
    86a4:	e1520001 	cmp	r2, r1
    86a8:	8a000007 	bhi	86cc <kr_free+0x54>
    86ac:	e5932000 	ldr	r2, [r3]
    86b0:	e1520003 	cmp	r2, r3
    86b4:	8afffff6 	bhi	8694 <kr_free+0x1c>
    86b8:	e1530001 	cmp	r3, r1
    86bc:	3a000002 	bcc	86cc <kr_free+0x54>
    86c0:	e1520001 	cmp	r2, r1
    86c4:	91a03002 	movls	r3, r2
    86c8:	9afffff2 	bls	8698 <kr_free+0x20>
    86cc:	e510c004 	ldr	ip, [r0, #-4]
    86d0:	e081e18c 	add	lr, r1, ip, lsl #3
    86d4:	e5932000 	ldr	r2, [r3]
    86d8:	e15e0002 	cmp	lr, r2
    86dc:	0a000008 	beq	8704 <kr_free+0x8c>
    86e0:	e5002008 	str	r2, [r0, #-8]
    86e4:	e5932004 	ldr	r2, [r3, #4]
    86e8:	e083c182 	add	ip, r3, r2, lsl #3
    86ec:	e15c0001 	cmp	ip, r1
    86f0:	0a00000a 	beq	8720 <kr_free+0xa8>
    86f4:	e5831000 	str	r1, [r3]
    86f8:	e59f2038 	ldr	r2, [pc, #56]	; 8738 <kr_free+0xc0>
    86fc:	e5823000 	str	r3, [r2]
    8700:	e89da800 	ldm	sp, {fp, sp, pc}
    8704:	e5922004 	ldr	r2, [r2, #4]
    8708:	e08cc002 	add	ip, ip, r2
    870c:	e500c004 	str	ip, [r0, #-4]
    8710:	e5932000 	ldr	r2, [r3]
    8714:	e5922000 	ldr	r2, [r2]
    8718:	e5002008 	str	r2, [r0, #-8]
    871c:	eafffff0 	b	86e4 <kr_free+0x6c>
    8720:	e5101004 	ldr	r1, [r0, #-4]
    8724:	e0822001 	add	r2, r2, r1
    8728:	e5832004 	str	r2, [r3, #4]
    872c:	e5102008 	ldr	r2, [r0, #-8]
    8730:	e5832000 	str	r2, [r3]
    8734:	eaffffef 	b	86f8 <kr_free+0x80>
    8738:	0000aed0 	ldrdeq	sl, [r0], -r0
    873c:	65726f6d 	ldrbvs	r6, [r2, #-3949]!	; 0xfffff093
    8740:	65726f63 	ldrbvs	r6, [r2, #-3939]!	; 0xfffff09d
    8744:	00000000 	andeq	r0, r0, r0
    8748:	ff00000c 			; <UNDEFINED> instruction: 0xff00000c

0000874c <morecore>:
    874c:	e1a0c00d 	mov	ip, sp
    8750:	e92dd830 	push	{r4, r5, fp, ip, lr, pc}
    8754:	e24cb004 	sub	fp, ip, #4, 0
    8758:	e1a04000 	mov	r4, r0
    875c:	e3500b01 	cmp	r0, #1024	; 0x400
    8760:	33a04b01 	movcc	r4, #1024	; 0x400
    8764:	e1a01004 	mov	r1, r4
    8768:	e59f0030 	ldr	r0, [pc, #48]	; 87a0 <morecore+0x54>
    876c:	eb000230 	bl	9034 <printk>
    8770:	e1a00184 	lsl	r0, r4, #3
    8774:	eb000161 	bl	8d00 <sbrk>
    8778:	e3700001 	cmn	r0, #1, 0
    877c:	0a000005 	beq	8798 <morecore+0x4c>
    8780:	e5804004 	str	r4, [r0, #4]
    8784:	e2800008 	add	r0, r0, #8, 0
    8788:	ebffffba 	bl	8678 <kr_free>
    878c:	e59f3010 	ldr	r3, [pc, #16]	; 87a4 <morecore+0x58>
    8790:	e5930000 	ldr	r0, [r3]
    8794:	e89da830 	ldm	sp, {r4, r5, fp, sp, pc}
    8798:	e3a00000 	mov	r0, #0, 0
    879c:	e89da830 	ldm	sp, {r4, r5, fp, sp, pc}
    87a0:	0000a7d8 	ldrdeq	sl, [r0], -r8
    87a4:	0000aed0 	ldrdeq	sl, [r0], -r0
    87a8:	6d5f726b 	lfmvs	f7, 2, [pc, #-428]	; 8604 <ckalloc+0xd4>
    87ac:	6f6c6c61 	svcvs	0x006c6c61
    87b0:	00000063 	andeq	r0, r0, r3, rrx
    87b4:	ff00000c 			; <UNDEFINED> instruction: 0xff00000c

000087b8 <kr_malloc>:
    87b8:	e1a0c00d 	mov	ip, sp
    87bc:	e92dd830 	push	{r4, r5, fp, ip, lr, pc}
    87c0:	e24cb004 	sub	fp, ip, #4, 0
    87c4:	e2804007 	add	r4, r0, #7, 0
    87c8:	e1a041a4 	lsr	r4, r4, #3
    87cc:	e2844001 	add	r4, r4, #1, 0
    87d0:	e59f3090 	ldr	r3, [pc, #144]	; 8868 <kr_malloc+0xb0>
    87d4:	e5932000 	ldr	r2, [r3]
    87d8:	e3520000 	cmp	r2, #0, 0
    87dc:	0a000001 	beq	87e8 <kr_malloc+0x30>
    87e0:	e5920000 	ldr	r0, [r2]
    87e4:	ea000013 	b	8838 <kr_malloc+0x80>
    87e8:	e2832008 	add	r2, r3, #8, 0
    87ec:	e5832000 	str	r2, [r3]
    87f0:	e5832008 	str	r2, [r3, #8]
    87f4:	e3a01000 	mov	r1, #0, 0
    87f8:	e583100c 	str	r1, [r3, #12]
    87fc:	eafffff7 	b	87e0 <kr_malloc+0x28>
    8800:	0a000007 	beq	8824 <kr_malloc+0x6c>
    8804:	e0433004 	sub	r3, r3, r4
    8808:	e5803004 	str	r3, [r0, #4]
    880c:	e0800183 	add	r0, r0, r3, lsl #3
    8810:	e5804004 	str	r4, [r0, #4]
    8814:	e59f304c 	ldr	r3, [pc, #76]	; 8868 <kr_malloc+0xb0>
    8818:	e5832000 	str	r2, [r3]
    881c:	e2800008 	add	r0, r0, #8, 0
    8820:	e89da830 	ldm	sp, {r4, r5, fp, sp, pc}
    8824:	e5903000 	ldr	r3, [r0]
    8828:	e5823000 	str	r3, [r2]
    882c:	eafffff8 	b	8814 <kr_malloc+0x5c>
    8830:	e1a02000 	mov	r2, r0
    8834:	e5900000 	ldr	r0, [r0]
    8838:	e5903004 	ldr	r3, [r0, #4]
    883c:	e1530004 	cmp	r3, r4
    8840:	2affffee 	bcs	8800 <kr_malloc+0x48>
    8844:	e59f301c 	ldr	r3, [pc, #28]	; 8868 <kr_malloc+0xb0>
    8848:	e5933000 	ldr	r3, [r3]
    884c:	e1530000 	cmp	r3, r0
    8850:	1afffff6 	bne	8830 <kr_malloc+0x78>
    8854:	e3a00902 	mov	r0, #32768	; 0x8000
    8858:	ebffffbb 	bl	874c <morecore>
    885c:	e3500000 	cmp	r0, #0, 0
    8860:	1afffff2 	bne	8830 <kr_malloc+0x78>
    8864:	e89da830 	ldm	sp, {r4, r5, fp, sp, pc}
    8868:	0000aed0 	ldrdeq	sl, [r0], -r0
    886c:	685f6e69 	ldmdavs	pc, {r0, r3, r5, r6, r9, sl, fp, sp, lr}^	; <UNPREDICTABLE>
    8870:	00706165 	rsbseq	r6, r0, r5, ror #2
    8874:	ff000008 			; <UNDEFINED> instruction: 0xff000008

00008878 <in_heap>:
    8878:	e1a0c00d 	mov	ip, sp
    887c:	e92dd800 	push	{fp, ip, lr, pc}
    8880:	e24cb004 	sub	fp, ip, #4, 0
    8884:	e59f3030 	ldr	r3, [pc, #48]	; 88bc <in_heap+0x44>
    8888:	e5933000 	ldr	r3, [r3]
    888c:	e1530000 	cmp	r3, r0
    8890:	8a000005 	bhi	88ac <in_heap+0x34>
    8894:	e59f3020 	ldr	r3, [pc, #32]	; 88bc <in_heap+0x44>
    8898:	e5933004 	ldr	r3, [r3, #4]
    889c:	e1530000 	cmp	r3, r0
    88a0:	9a000003 	bls	88b4 <in_heap+0x3c>
    88a4:	e3a00001 	mov	r0, #1, 0
    88a8:	e89da800 	ldm	sp, {fp, sp, pc}
    88ac:	e3a00000 	mov	r0, #0, 0
    88b0:	e89da800 	ldm	sp, {fp, sp, pc}
    88b4:	e3a00000 	mov	r0, #0, 0
    88b8:	e89da800 	ldm	sp, {fp, sp, pc}
    88bc:	0000aee0 	andeq	sl, r0, r0, ror #29
    88c0:	705f7369 	subsvc	r7, pc, r9, ror #6
    88c4:	00007274 	andeq	r7, r0, r4, ror r2
    88c8:	ff000008 			; <UNDEFINED> instruction: 0xff000008

000088cc <is_ptr>:
    88cc:	e1a0c00d 	mov	ip, sp
    88d0:	e92dd830 	push	{r4, r5, fp, ip, lr, pc}
    88d4:	e24cb004 	sub	fp, ip, #4, 0
    88d8:	e1a04000 	mov	r4, r0
    88dc:	ebffffe5 	bl	8878 <in_heap>
    88e0:	e3500000 	cmp	r0, #0, 0
    88e4:	0a000002 	beq	88f4 <is_ptr+0x28>
    88e8:	e1a00004 	mov	r0, r4
    88ec:	ebfffef6 	bl	84cc <ck_ptr_is_alloced>
    88f0:	e89da830 	ldm	sp, {r4, r5, fp, sp, pc}
    88f4:	e3a00000 	mov	r0, #0, 0
    88f8:	e89da830 	ldm	sp, {r4, r5, fp, sp, pc}
    88fc:	6b72616d 	blvs	1ca0eb8 <__bss_end__+0x1c95bc0>
    8900:	00000000 	andeq	r0, r0, r0
    8904:	ff000008 			; <UNDEFINED> instruction: 0xff000008

00008908 <mark>:
    8908:	e1a0c00d 	mov	ip, sp
    890c:	e92dd830 	push	{r4, r5, fp, ip, lr, pc}
    8910:	e24cb004 	sub	fp, ip, #4, 0
    8914:	e24dd008 	sub	sp, sp, #8, 0
    8918:	e1500001 	cmp	r0, r1
    891c:	2a00000d 	bcs	8958 <mark+0x50>
    8920:	e1a04000 	mov	r4, r0
    8924:	e1a05001 	mov	r5, r1
    8928:	e3100003 	tst	r0, #3, 0
    892c:	1a000011 	bne	8978 <mark+0x70>
    8930:	e3110003 	tst	r1, #3, 0
    8934:	0a00001c 	beq	89ac <mark+0xa4>
    8938:	e59f30c8 	ldr	r3, [pc, #200]	; 8a08 <mark+0x100>
    893c:	e58d3000 	str	r3, [sp]
    8940:	e3a03056 	mov	r3, #86, 0	; 0x56
    8944:	e59f20c0 	ldr	r2, [pc, #192]	; 8a0c <mark+0x104>
    8948:	e59f10c0 	ldr	r1, [pc, #192]	; 8a10 <mark+0x108>
    894c:	e59f00c0 	ldr	r0, [pc, #192]	; 8a14 <mark+0x10c>
    8950:	eb0001b7 	bl	9034 <printk>
    8954:	eb000447 	bl	9a78 <clean_reboot>
    8958:	e59f30b8 	ldr	r3, [pc, #184]	; 8a18 <mark+0x110>
    895c:	e58d3000 	str	r3, [sp]
    8960:	e3a03052 	mov	r3, #82, 0	; 0x52
    8964:	e59f20a0 	ldr	r2, [pc, #160]	; 8a0c <mark+0x104>
    8968:	e59f10a0 	ldr	r1, [pc, #160]	; 8a10 <mark+0x108>
    896c:	e59f00a0 	ldr	r0, [pc, #160]	; 8a14 <mark+0x10c>
    8970:	eb0001af 	bl	9034 <printk>
    8974:	eb00043f 	bl	9a78 <clean_reboot>
    8978:	e59f309c 	ldr	r3, [pc, #156]	; 8a1c <mark+0x114>
    897c:	e58d3000 	str	r3, [sp]
    8980:	e3a03055 	mov	r3, #85, 0	; 0x55
    8984:	e59f2080 	ldr	r2, [pc, #128]	; 8a0c <mark+0x104>
    8988:	e59f1080 	ldr	r1, [pc, #128]	; 8a10 <mark+0x108>
    898c:	e59f0080 	ldr	r0, [pc, #128]	; 8a14 <mark+0x10c>
    8990:	eb0001a7 	bl	9034 <printk>
    8994:	eb000437 	bl	9a78 <clean_reboot>
    8998:	e3a01002 	mov	r1, #2, 0
    899c:	e1c013b0 	strh	r1, [r0, #48]	; 0x30
    89a0:	e3520000 	cmp	r2, #0, 0
    89a4:	0a00000f 	beq	89e8 <mark+0xe0>
    89a8:	e2844004 	add	r4, r4, #4, 0
    89ac:	e1540005 	cmp	r4, r5
    89b0:	8a000012 	bhi	8a00 <mark+0xf8>
    89b4:	e5940000 	ldr	r0, [r4]
    89b8:	ebffffc3 	bl	88cc <is_ptr>
    89bc:	e3500000 	cmp	r0, #0, 0
    89c0:	0afffff8 	beq	89a8 <mark+0xa0>
    89c4:	e28010b4 	add	r1, r0, #180, 0	; 0xb4
    89c8:	e1d023b0 	ldrh	r2, [r0, #48]	; 0x30
    89cc:	e3520001 	cmp	r2, #1, 0
    89d0:	8afffff4 	bhi	89a8 <mark+0xa0>
    89d4:	e5943000 	ldr	r3, [r4]
    89d8:	e1530001 	cmp	r3, r1
    89dc:	0affffed 	beq	8998 <mark+0x90>
    89e0:	e3a01001 	mov	r1, #1, 0
    89e4:	eaffffec 	b	899c <mark+0x94>
    89e8:	e5901004 	ldr	r1, [r0, #4]
    89ec:	e28110b4 	add	r1, r1, #180, 0	; 0xb4
    89f0:	e0801001 	add	r1, r0, r1
    89f4:	e2800004 	add	r0, r0, #4, 0
    89f8:	ebffffc2 	bl	8908 <mark>
    89fc:	eaffffe9 	b	89a8 <mark+0xa0>
    8a00:	e24bd014 	sub	sp, fp, #20, 0
    8a04:	e89da830 	ldm	sp, {r4, r5, fp, sp, pc}
    8a08:	0000a81c 	andeq	sl, r0, ip, lsl r8
    8a0c:	0000aac8 	andeq	sl, r0, r8, asr #21
    8a10:	0000a7fc 	strdeq	sl, [r0], -ip
    8a14:	0000a5dc 	ldrdeq	sl, [r0], -ip
    8a18:	0000a804 	andeq	sl, r0, r4, lsl #16
    8a1c:	0000a80c 	andeq	sl, r0, ip, lsl #16
    8a20:	6b72616d 	blvs	1ca0fdc <__bss_end__+0x1c95ce4>
    8a24:	6c6c615f 	stfvse	f6, [ip], #-380	; 0xfffffe84
    8a28:	00000000 	andeq	r0, r0, r0
    8a2c:	ff00000c 			; <UNDEFINED> instruction: 0xff00000c

00008a30 <mark_all>:
    8a30:	e1a0c00d 	mov	ip, sp
    8a34:	e92dd800 	push	{fp, ip, lr, pc}
    8a38:	e24cb004 	sub	fp, ip, #4, 0
    8a3c:	e24dd040 	sub	sp, sp, #64, 0	; 0x40
    8a40:	ebfffdee 	bl	8200 <ck_first_hdr>
    8a44:	e3500000 	cmp	r0, #0, 0
    8a48:	0a000005 	beq	8a64 <mark_all+0x34>
    8a4c:	e3a03000 	mov	r3, #0, 0
    8a50:	e580302c 	str	r3, [r0, #44]	; 0x2c
    8a54:	e5803028 	str	r3, [r0, #40]	; 0x28
    8a58:	e1c033b0 	strh	r3, [r0, #48]	; 0x30
    8a5c:	ebfffdf2 	bl	822c <ck_next_hdr>
    8a60:	eafffff7 	b	8a44 <mark_all+0x14>
    8a64:	e24b004c 	sub	r0, fp, #76, 0	; 0x4c
    8a68:	eb000129 	bl	8f14 <dump_regs>
    8a6c:	e3a03000 	mov	r3, #0, 0
    8a70:	e50b304c 	str	r3, [fp, #-76]	; 0xffffffb4
    8a74:	e50b3048 	str	r3, [fp, #-72]	; 0xffffffb8
    8a78:	e50b3044 	str	r3, [fp, #-68]	; 0xffffffbc
    8a7c:	e50b3040 	str	r3, [fp, #-64]	; 0xffffffc0
    8a80:	e24b1014 	sub	r1, fp, #20, 0
    8a84:	e24b004c 	sub	r0, fp, #76, 0	; 0x4c
    8a88:	ebffff9e 	bl	8908 <mark>
    8a8c:	e3a02302 	mov	r2, #134217728	; 0x8000000
    8a90:	e51b1018 	ldr	r1, [fp, #-24]	; 0xffffffe8
    8a94:	e59f002c 	ldr	r0, [pc, #44]	; 8ac8 <mark_all+0x98>
    8a98:	eb000165 	bl	9034 <printk>
    8a9c:	e3a01302 	mov	r1, #134217728	; 0x8000000
    8aa0:	e51b0018 	ldr	r0, [fp, #-24]	; 0xffffffe8
    8aa4:	ebffff97 	bl	8908 <mark>
    8aa8:	e59f101c 	ldr	r1, [pc, #28]	; 8acc <mark_all+0x9c>
    8aac:	e59f001c 	ldr	r0, [pc, #28]	; 8ad0 <mark_all+0xa0>
    8ab0:	ebffff94 	bl	8908 <mark>
    8ab4:	e59f1018 	ldr	r1, [pc, #24]	; 8ad4 <mark_all+0xa4>
    8ab8:	e59f0018 	ldr	r0, [pc, #24]	; 8ad8 <mark_all+0xa8>
    8abc:	ebffff91 	bl	8908 <mark>
    8ac0:	e24bd00c 	sub	sp, fp, #12, 0
    8ac4:	e89da800 	ldm	sp, {fp, sp, pc}
    8ac8:	0000a82c 	andeq	sl, r0, ip, lsr #16
    8acc:	0000b2f8 	strdeq	fp, [r0], -r8
    8ad0:	0000aec8 	andeq	sl, r0, r8, asr #29
    8ad4:	0000aec8 	andeq	sl, r0, r8, asr #29
    8ad8:	0000aeb4 			; <UNDEFINED> instruction: 0x0000aeb4
    8adc:	65657773 	strbvs	r7, [r5, #-1907]!	; 0xfffff88d
    8ae0:	656c5f70 	strbvs	r5, [ip, #-3952]!	; 0xfffff090
    8ae4:	00006b61 	andeq	r6, r0, r1, ror #22
    8ae8:	ff00000c 			; <UNDEFINED> instruction: 0xff00000c

00008aec <sweep_leak>:
    8aec:	e1a0c00d 	mov	ip, sp
    8af0:	e92ddbf0 	push	{r4, r5, r6, r7, r8, r9, fp, ip, lr, pc}
    8af4:	e24cb004 	sub	fp, ip, #4, 0
    8af8:	e1a07000 	mov	r7, r0
    8afc:	e59f00d0 	ldr	r0, [pc, #208]	; 8bd4 <sweep_leak+0xe8>
    8b00:	eb00014b 	bl	9034 <printk>
    8b04:	e59f00cc 	ldr	r0, [pc, #204]	; 8bd8 <sweep_leak+0xec>
    8b08:	eb000149 	bl	9034 <printk>
    8b0c:	ebffffc7 	bl	8a30 <mark_all>
    8b10:	ebfffdba 	bl	8200 <ck_first_hdr>
    8b14:	e1a04000 	mov	r4, r0
    8b18:	e3a08000 	mov	r8, #0, 0
    8b1c:	e1a06008 	mov	r6, r8
    8b20:	e1a05008 	mov	r5, r8
    8b24:	ea000007 	b	8b48 <sweep_leak+0x5c>
    8b28:	e2866001 	add	r6, r6, #1, 0
    8b2c:	e1a02004 	mov	r2, r4
    8b30:	e1a01005 	mov	r1, r5
    8b34:	e59f00a0 	ldr	r0, [pc, #160]	; 8bdc <sweep_leak+0xf0>
    8b38:	eb00013d 	bl	9034 <printk>
    8b3c:	e1a00004 	mov	r0, r4
    8b40:	ebfffdb9 	bl	822c <ck_next_hdr>
    8b44:	e1a04000 	mov	r4, r0
    8b48:	e3540000 	cmp	r4, #0, 0
    8b4c:	0a00000e 	beq	8b8c <sweep_leak+0xa0>
    8b50:	e5943008 	ldr	r3, [r4, #8]
    8b54:	e353000b 	cmp	r3, #11, 0
    8b58:	1afffff7 	bne	8b3c <sweep_leak+0x50>
    8b5c:	e2855001 	add	r5, r5, #1, 0
    8b60:	e1d433b0 	ldrh	r3, [r4, #48]	; 0x30
    8b64:	e3530000 	cmp	r3, #0, 0
    8b68:	0affffee 	beq	8b28 <sweep_leak+0x3c>
    8b6c:	e3530001 	cmp	r3, #1, 0
    8b70:	1afffff1 	bne	8b3c <sweep_leak+0x50>
    8b74:	e2888001 	add	r8, r8, #1, 0
    8b78:	e1a02004 	mov	r2, r4
    8b7c:	e1a01005 	mov	r1, r5
    8b80:	e59f0058 	ldr	r0, [pc, #88]	; 8be0 <sweep_leak+0xf4>
    8b84:	eb00012a 	bl	9034 <printk>
    8b88:	eaffffeb 	b	8b3c <sweep_leak+0x50>
    8b8c:	e1a01005 	mov	r1, r5
    8b90:	e59f004c 	ldr	r0, [pc, #76]	; 8be4 <sweep_leak+0xf8>
    8b94:	eb000126 	bl	9034 <printk>
    8b98:	e1963008 	orrs	r3, r6, r8
    8b9c:	1a000007 	bne	8bc0 <sweep_leak+0xd4>
    8ba0:	e59f0040 	ldr	r0, [pc, #64]	; 8be8 <sweep_leak+0xfc>
    8ba4:	eb000122 	bl	9034 <printk>
    8ba8:	e59f003c 	ldr	r0, [pc, #60]	; 8bec <sweep_leak+0x100>
    8bac:	eb000120 	bl	9034 <printk>
    8bb0:	e3570000 	cmp	r7, #0, 0
    8bb4:	10866008 	addne	r6, r6, r8
    8bb8:	e1a00006 	mov	r0, r6
    8bbc:	e89dabf0 	ldm	sp, {r4, r5, r6, r7, r8, r9, fp, sp, pc}
    8bc0:	e1a02008 	mov	r2, r8
    8bc4:	e1a01006 	mov	r1, r6
    8bc8:	e59f0020 	ldr	r0, [pc, #32]	; 8bf0 <sweep_leak+0x104>
    8bcc:	eb000118 	bl	9034 <printk>
    8bd0:	eafffff4 	b	8ba8 <sweep_leak+0xbc>
    8bd4:	0000a848 	andeq	sl, r0, r8, asr #16
    8bd8:	0000a884 	andeq	sl, r0, r4, lsl #17
    8bdc:	0000a89c 	muleq	r0, ip, r8
    8be0:	0000a8b0 			; <UNDEFINED> instruction: 0x0000a8b0
    8be4:	0000a8c8 	andeq	sl, r0, r8, asr #17
    8be8:	0000a8e8 	andeq	sl, r0, r8, ror #17
    8bec:	0000a940 	andeq	sl, r0, r0, asr #18
    8bf0:	0000a910 	andeq	sl, r0, r0, lsl r9
    8bf4:	65657773 	strbvs	r7, [r5, #-1907]!	; 0xfffff88d
    8bf8:	72665f70 	rsbvc	r5, r6, #112, 30	; 0x1c0
    8bfc:	00006565 	andeq	r6, r0, r5, ror #10
    8c00:	ff00000c 			; <UNDEFINED> instruction: 0xff00000c

00008c04 <sweep_free>:
    8c04:	e1a0c00d 	mov	ip, sp
    8c08:	e92dd9f0 	push	{r4, r5, r6, r7, r8, fp, ip, lr, pc}
    8c0c:	e24cb004 	sub	fp, ip, #4, 0
    8c10:	e24dd014 	sub	sp, sp, #20, 0
    8c14:	e59f00bc 	ldr	r0, [pc, #188]	; 8cd8 <sweep_free+0xd4>
    8c18:	eb000105 	bl	9034 <printk>
    8c1c:	e59f00b8 	ldr	r0, [pc, #184]	; 8cdc <sweep_free+0xd8>
    8c20:	eb000103 	bl	9034 <printk>
    8c24:	ebffff81 	bl	8a30 <mark_all>
    8c28:	ebfffd74 	bl	8200 <ck_first_hdr>
    8c2c:	e1a04000 	mov	r4, r0
    8c30:	e3a06000 	mov	r6, #0, 0
    8c34:	e1a07006 	mov	r7, r6
    8c38:	e1a05006 	mov	r5, r6
    8c3c:	ea000013 	b	8c90 <sweep_free+0x8c>
    8c40:	e2877001 	add	r7, r7, #1, 0
    8c44:	e5943004 	ldr	r3, [r4, #4]
    8c48:	e0866003 	add	r6, r6, r3
    8c4c:	e28480b4 	add	r8, r4, #180, 0	; 0xb4
    8c50:	e59f3088 	ldr	r3, [pc, #136]	; 8ce0 <sweep_free+0xdc>
    8c54:	e50b3030 	str	r3, [fp, #-48]	; 0xffffffd0
    8c58:	e59f3084 	ldr	r3, [pc, #132]	; 8ce4 <sweep_free+0xe0>
    8c5c:	e50b302c 	str	r3, [fp, #-44]	; 0xffffffd4
    8c60:	e59f3080 	ldr	r3, [pc, #128]	; 8ce8 <sweep_free+0xe4>
    8c64:	e50b3028 	str	r3, [fp, #-40]	; 0xffffffd8
    8c68:	e24b3024 	sub	r3, fp, #36, 0	; 0x24
    8c6c:	e913000e 	ldmdb	r3, {r1, r2, r3}
    8c70:	e1a00008 	mov	r0, r8
    8c74:	ebfffd9f 	bl	82f8 <ckfree>
    8c78:	e1a01008 	mov	r1, r8
    8c7c:	e59f0068 	ldr	r0, [pc, #104]	; 8cec <sweep_free+0xe8>
    8c80:	eb0000eb 	bl	9034 <printk>
    8c84:	e1a00004 	mov	r0, r4
    8c88:	ebfffd67 	bl	822c <ck_next_hdr>
    8c8c:	e1a04000 	mov	r4, r0
    8c90:	e3540000 	cmp	r4, #0, 0
    8c94:	0a000007 	beq	8cb8 <sweep_free+0xb4>
    8c98:	e2855001 	add	r5, r5, #1, 0
    8c9c:	e1d433b0 	ldrh	r3, [r4, #48]	; 0x30
    8ca0:	e3530000 	cmp	r3, #0, 0
    8ca4:	1afffff6 	bne	8c84 <sweep_free+0x80>
    8ca8:	e5943008 	ldr	r3, [r4, #8]
    8cac:	e353000b 	cmp	r3, #11, 0
    8cb0:	1afffff3 	bne	8c84 <sweep_free+0x80>
    8cb4:	eaffffe1 	b	8c40 <sweep_free+0x3c>
    8cb8:	e1a03006 	mov	r3, r6
    8cbc:	e1a02007 	mov	r2, r7
    8cc0:	e1a01005 	mov	r1, r5
    8cc4:	e59f0024 	ldr	r0, [pc, #36]	; 8cf0 <sweep_free+0xec>
    8cc8:	eb0000d9 	bl	9034 <printk>
    8ccc:	e1a00006 	mov	r0, r6
    8cd0:	e24bd020 	sub	sp, fp, #32, 0
    8cd4:	e89da9f0 	ldm	sp, {r4, r5, r6, r7, r8, fp, sp, pc}
    8cd8:	0000a848 	andeq	sl, r0, r8, asr #16
    8cdc:	0000a97c 	andeq	sl, r0, ip, ror r9
    8ce0:	0000a7fc 	strdeq	sl, [r0], -ip
    8ce4:	0000aad0 	ldrdeq	sl, [r0], -r0
    8ce8:	00000105 	andeq	r0, r0, r5, lsl #2
    8cec:	0000a98c 	andeq	sl, r0, ip, lsl #19
    8cf0:	0000a99c 	muleq	r0, ip, r9
    8cf4:	6b726273 	blvs	1ca16c8 <__bss_end__+0x1c963d0>
    8cf8:	00000000 	andeq	r0, r0, r0
    8cfc:	ff000008 			; <UNDEFINED> instruction: 0xff000008

00008d00 <sbrk>:
    8d00:	e1a0c00d 	mov	ip, sp
    8d04:	e92dd830 	push	{r4, r5, fp, ip, lr, pc}
    8d08:	e24cb004 	sub	fp, ip, #4, 0
    8d0c:	e24dd008 	sub	sp, sp, #8, 0
    8d10:	e2504000 	subs	r4, r0, #0, 0
    8d14:	da000010 	ble	8d5c <sbrk+0x5c>
    8d18:	e59f3074 	ldr	r3, [pc, #116]	; 8d94 <sbrk+0x94>
    8d1c:	e5933008 	ldr	r3, [r3, #8]
    8d20:	e3530000 	cmp	r3, #0, 0
    8d24:	1a000014 	bne	8d7c <sbrk+0x7c>
    8d28:	e59f5064 	ldr	r5, [pc, #100]	; 8d94 <sbrk+0x94>
    8d2c:	e3a00601 	mov	r0, #1048576	; 0x100000
    8d30:	e5850000 	str	r0, [r5]
    8d34:	e3a03602 	mov	r3, #2097152	; 0x200000
    8d38:	e5853004 	str	r3, [r5, #4]
    8d3c:	e1a01000 	mov	r1, r0
    8d40:	eb000494 	bl	9f98 <kmalloc_init_set_start>
    8d44:	e3a03001 	mov	r3, #1, 0
    8d48:	e5853008 	str	r3, [r5, #8]
    8d4c:	e1a00004 	mov	r0, r4
    8d50:	eb0004f3 	bl	a124 <kmalloc>
    8d54:	e24bd014 	sub	sp, fp, #20, 0
    8d58:	e89da830 	ldm	sp, {r4, r5, fp, sp, pc}
    8d5c:	e59f3034 	ldr	r3, [pc, #52]	; 8d98 <sbrk+0x98>
    8d60:	e58d3000 	str	r3, [sp]
    8d64:	e3a03017 	mov	r3, #23, 0
    8d68:	e59f202c 	ldr	r2, [pc, #44]	; 8d9c <sbrk+0x9c>
    8d6c:	e59f102c 	ldr	r1, [pc, #44]	; 8da0 <sbrk+0xa0>
    8d70:	e59f002c 	ldr	r0, [pc, #44]	; 8da4 <sbrk+0xa4>
    8d74:	eb0000ae 	bl	9034 <printk>
    8d78:	eb00033e 	bl	9a78 <clean_reboot>
    8d7c:	e3a03019 	mov	r3, #25, 0
    8d80:	e59f2014 	ldr	r2, [pc, #20]	; 8d9c <sbrk+0x9c>
    8d84:	e59f1014 	ldr	r1, [pc, #20]	; 8da0 <sbrk+0xa0>
    8d88:	e59f0018 	ldr	r0, [pc, #24]	; 8da8 <sbrk+0xa8>
    8d8c:	eb0000a8 	bl	9034 <printk>
    8d90:	eb000338 	bl	9a78 <clean_reboot>
    8d94:	0000aee0 	andeq	sl, r0, r0, ror #29
    8d98:	0000a9d0 	ldrdeq	sl, [r0], -r0
    8d9c:	0000aadc 	ldrdeq	sl, [r0], -ip
    8da0:	0000a7fc 	strdeq	sl, [r0], -ip
    8da4:	0000a5dc 	ldrdeq	sl, [r0], -ip
    8da8:	0000a9e0 	andeq	sl, r0, r0, ror #19
    8dac:	665f6b63 	ldrbvs	r6, [pc], -r3, ror #22
    8db0:	5f646e69 	svcpl	0x00646e69
    8db4:	6b61656c 	blvs	186236c <__bss_end__+0x1857074>
    8db8:	00000073 	andeq	r0, r0, r3, ror r0
    8dbc:	ff000010 			; <UNDEFINED> instruction: 0xff000010

00008dc0 <ck_find_leaks>:
    8dc0:	e1a0c00d 	mov	ip, sp
    8dc4:	e92dd800 	push	{fp, ip, lr, pc}
    8dc8:	e24cb004 	sub	fp, ip, #4, 0
    8dcc:	ebffff46 	bl	8aec <sweep_leak>
    8dd0:	e89da800 	ldm	sp, {fp, sp, pc}
    8dd4:	63656863 	cmnvs	r5, #6488064	; 0x630000
    8dd8:	6f6e5f6b 	svcvs	0x006e5f6b
    8ddc:	61656c5f 	cmnvs	r5, pc, asr ip
    8de0:	0000006b 	andeq	r0, r0, fp, rrx
    8de4:	ff000010 			; <UNDEFINED> instruction: 0xff000010

00008de8 <check_no_leak>:
    8de8:	e1a0c00d 	mov	ip, sp
    8dec:	e92dd800 	push	{fp, ip, lr, pc}
    8df0:	e24cb004 	sub	fp, ip, #4, 0
    8df4:	e3a00001 	mov	r0, #1, 0
    8df8:	ebfffff0 	bl	8dc0 <ck_find_leaks>
    8dfc:	e3500000 	cmp	r0, #0, 0
    8e00:	1a000002 	bne	8e10 <check_no_leak+0x28>
    8e04:	e59f001c 	ldr	r0, [pc, #28]	; 8e28 <check_no_leak+0x40>
    8e08:	eb000089 	bl	9034 <printk>
    8e0c:	e89da800 	ldm	sp, {fp, sp, pc}
    8e10:	e3a030e0 	mov	r3, #224, 0	; 0xe0
    8e14:	e59f2010 	ldr	r2, [pc, #16]	; 8e2c <check_no_leak+0x44>
    8e18:	e59f1010 	ldr	r1, [pc, #16]	; 8e30 <check_no_leak+0x48>
    8e1c:	e59f0010 	ldr	r0, [pc, #16]	; 8e34 <check_no_leak+0x4c>
    8e20:	eb000083 	bl	9034 <printk>
    8e24:	eb000313 	bl	9a78 <clean_reboot>
    8e28:	0000aa2c 	andeq	sl, r0, ip, lsr #20
    8e2c:	0000aae4 	andeq	sl, r0, r4, ror #21
    8e30:	0000a7fc 	strdeq	sl, [r0], -ip
    8e34:	0000aa00 	andeq	sl, r0, r0, lsl #20
    8e38:	63656863 	cmnvs	r5, #6488064	; 0x630000
    8e3c:	68735f6b 	ldmdavs	r3!, {r0, r1, r3, r5, r6, r8, r9, sl, fp, ip, lr}^
    8e40:	646c756f 	strbtvs	r7, [ip], #-1391	; 0xfffffa91
    8e44:	61656c5f 	cmnvs	r5, pc, asr ip
    8e48:	0000006b 	andeq	r0, r0, fp, rrx
    8e4c:	ff000014 			; <UNDEFINED> instruction: 0xff000014

00008e50 <check_should_leak>:
    8e50:	e1a0c00d 	mov	ip, sp
    8e54:	e92dd830 	push	{r4, r5, fp, ip, lr, pc}
    8e58:	e24cb004 	sub	fp, ip, #4, 0
    8e5c:	e3a00001 	mov	r0, #1, 0
    8e60:	ebffffd6 	bl	8dc0 <ck_find_leaks>
    8e64:	e2504000 	subs	r4, r0, #0, 0
    8e68:	0a000004 	beq	8e80 <check_should_leak+0x30>
    8e6c:	e1a01004 	mov	r1, r4
    8e70:	e59f0020 	ldr	r0, [pc, #32]	; 8e98 <check_should_leak+0x48>
    8e74:	eb00006e 	bl	9034 <printk>
    8e78:	e1a00004 	mov	r0, r4
    8e7c:	e89da830 	ldm	sp, {r4, r5, fp, sp, pc}
    8e80:	e3a030ef 	mov	r3, #239, 0	; 0xef
    8e84:	e59f2010 	ldr	r2, [pc, #16]	; 8e9c <check_should_leak+0x4c>
    8e88:	e59f1010 	ldr	r1, [pc, #16]	; 8ea0 <check_should_leak+0x50>
    8e8c:	e59f0010 	ldr	r0, [pc, #16]	; 8ea4 <check_should_leak+0x54>
    8e90:	eb000067 	bl	9034 <printk>
    8e94:	eb0002f7 	bl	9a78 <clean_reboot>
    8e98:	0000aa74 	andeq	sl, r0, r4, ror sl
    8e9c:	0000aaf4 	strdeq	sl, [r0], -r4
    8ea0:	0000a7fc 	strdeq	sl, [r0], -ip
    8ea4:	0000aa4c 	andeq	sl, r0, ip, asr #20
    8ea8:	675f6b63 	ldrbvs	r6, [pc, -r3, ror #22]
    8eac:	00000063 	andeq	r0, r0, r3, rrx
    8eb0:	ff000008 			; <UNDEFINED> instruction: 0xff000008

00008eb4 <ck_gc>:
    8eb4:	e1a0c00d 	mov	ip, sp
    8eb8:	e92dd800 	push	{fp, ip, lr, pc}
    8ebc:	e24cb004 	sub	fp, ip, #4, 0
    8ec0:	ebfffeda 	bl	8a30 <mark_all>
    8ec4:	ebffff4e 	bl	8c04 <sweep_free>
    8ec8:	e89da800 	ldm	sp, {fp, sp, pc}
    8ecc:	6c706d69 	ldclvs	13, cr6, [r0], #-420	; 0xfffffe5c
    8ed0:	6e656d65 	cdpvs	13, 6, cr6, cr5, cr5, {3}
    8ed4:	68745f74 	ldmdavs	r4!, {r2, r4, r5, r6, r8, r9, sl, fp, ip, lr}^
    8ed8:	00007369 	andeq	r7, r0, r9, ror #6
    8edc:	ff000010 			; <UNDEFINED> instruction: 0xff000010

00008ee0 <implement_this>:
    8ee0:	e1a0c00d 	mov	ip, sp
    8ee4:	e92dd800 	push	{fp, ip, lr, pc}
    8ee8:	e24cb004 	sub	fp, ip, #4, 0
    8eec:	e59f3010 	ldr	r3, [pc, #16]	; 8f04 <implement_this+0x24>
    8ef0:	e59f2010 	ldr	r2, [pc, #16]	; 8f08 <implement_this+0x28>
    8ef4:	e59f1010 	ldr	r1, [pc, #16]	; 8f0c <implement_this+0x2c>
    8ef8:	e59f0010 	ldr	r0, [pc, #16]	; 8f10 <implement_this+0x30>
    8efc:	eb00004c 	bl	9034 <printk>
    8f00:	eb0002dc 	bl	9a78 <clean_reboot>
    8f04:	0000011b 	andeq	r0, r0, fp, lsl r1
    8f08:	0000ab08 	andeq	sl, r0, r8, lsl #22
    8f0c:	0000a7fc 	strdeq	sl, [r0], -ip
    8f10:	0000aa98 	muleq	r0, r8, sl

00008f14 <dump_regs>:
    8f14:	e8a0ffff 	stmia	r0!, {r0, r1, r2, r3, r4, r5, r6, r7, r8, r9, sl, fp, ip, sp, lr, pc}
    8f18:	e12fff1e 	bx	lr

00008f1c <backtrace>:
    8f1c:	e92d41f0 	push	{r4, r5, r6, r7, r8, lr}
    8f20:	e1a0400b 	mov	r4, fp
    8f24:	e3540000 	cmp	r4, #0, 0
    8f28:	0a000016 	beq	8f88 <backtrace+0x6c>
    8f2c:	e3a07000 	mov	r7, #0, 0
    8f30:	e59f605c 	ldr	r6, [pc, #92]	; 8f94 <backtrace+0x78>
    8f34:	e59f505c 	ldr	r5, [pc, #92]	; 8f98 <backtrace+0x7c>
    8f38:	ea000002 	b	8f48 <backtrace+0x2c>
    8f3c:	e2877001 	add	r7, r7, #1, 0
    8f40:	e3570020 	cmp	r7, #32, 0
    8f44:	0a00000f 	beq	8f88 <backtrace+0x6c>
    8f48:	e5940000 	ldr	r0, [r4]
    8f4c:	e1a01007 	mov	r1, r7
    8f50:	e5103010 	ldr	r3, [r0, #-16]
    8f54:	e240200c 	sub	r2, r0, #12, 0
    8f58:	e31304ff 	tst	r3, #-16777216	; 0xff000000
    8f5c:	e2400010 	sub	r0, r0, #16, 0
    8f60:	e3c334ff 	bic	r3, r3, #-16777216	; 0xff000000
    8f64:	10403003 	subne	r3, r0, r3
    8f68:	01a03006 	moveq	r3, r6
    8f6c:	e1a00005 	mov	r0, r5
    8f70:	eb00002f 	bl	9034 <printk>
    8f74:	e514400c 	ldr	r4, [r4, #-12]
    8f78:	e3540000 	cmp	r4, #0, 0
    8f7c:	1affffee 	bne	8f3c <backtrace+0x20>
    8f80:	e1a00007 	mov	r0, r7
    8f84:	e8bd81f0 	pop	{r4, r5, r6, r7, r8, pc}
    8f88:	e3e07000 	mvn	r7, #0, 0
    8f8c:	e1a00007 	mov	r0, r7
    8f90:	e8bd81f0 	pop	{r4, r5, r6, r7, r8, pc}
    8f94:	0000ab18 	andeq	sl, r0, r8, lsl fp
    8f98:	0000ab1c 	andeq	sl, r0, ip, lsl fp

00008f9c <name_of>:
    8f9c:	e5103004 	ldr	r3, [r0, #-4]
    8fa0:	e2400004 	sub	r0, r0, #4, 0
    8fa4:	e31304ff 	tst	r3, #-16777216	; 0xff000000
    8fa8:	13c334ff 	bicne	r3, r3, #-16777216	; 0xff000000
    8fac:	10400003 	subne	r0, r0, r3
    8fb0:	059f0000 	ldreq	r0, [pc]	; 8fb8 <name_of+0x1c>
    8fb4:	e12fff1e 	bx	lr
    8fb8:	0000ab18 	andeq	sl, r0, r8, lsl fp

00008fbc <memset>:
    8fbc:	e92d4010 	push	{r4, lr}
    8fc0:	e0804002 	add	r4, r0, r2
    8fc4:	e1500004 	cmp	r0, r4
    8fc8:	28bd8010 	popcs	{r4, pc}
    8fcc:	e2423001 	sub	r3, r2, #1, 0
    8fd0:	e3530002 	cmp	r3, #2, 0
    8fd4:	e6ef1071 	uxtb	r1, r1
    8fd8:	e1a03000 	mov	r3, r0
    8fdc:	9a00000b 	bls	9010 <memset+0x54>
    8fe0:	e181e401 	orr	lr, r1, r1, lsl #8
    8fe4:	e18ee801 	orr	lr, lr, r1, lsl #16
    8fe8:	e3c2c003 	bic	ip, r2, #3, 0
    8fec:	e18eec01 	orr	lr, lr, r1, lsl #24
    8ff0:	e08cc000 	add	ip, ip, r0
    8ff4:	e483e004 	str	lr, [r3], #4
    8ff8:	e153000c 	cmp	r3, ip
    8ffc:	1afffffc 	bne	8ff4 <memset+0x38>
    9000:	e3c23003 	bic	r3, r2, #3, 0
    9004:	e1520003 	cmp	r2, r3
    9008:	e0803003 	add	r3, r0, r3
    900c:	08bd8010 	popeq	{r4, pc}
    9010:	e1a02003 	mov	r2, r3
    9014:	e4c21001 	strb	r1, [r2], #1
    9018:	e1540002 	cmp	r4, r2
    901c:	98bd8010 	popls	{r4, pc}
    9020:	e2832002 	add	r2, r3, #2, 0
    9024:	e1540002 	cmp	r4, r2
    9028:	e5c31001 	strb	r1, [r3, #1]
    902c:	85c31002 	strbhi	r1, [r3, #2]
    9030:	e8bd8010 	pop	{r4, pc}

00009034 <printk>:
    9034:	e92d000f 	push	{r0, r1, r2, r3}
    9038:	e92d4030 	push	{r4, r5, lr}
    903c:	e59f5040 	ldr	r5, [pc, #64]	; 9084 <printk+0x50>
    9040:	e24dd00c 	sub	sp, sp, #12, 0
    9044:	e28d301c 	add	r3, sp, #28, 0
    9048:	e3a01b01 	mov	r1, #1024	; 0x400
    904c:	e59d2018 	ldr	r2, [sp, #24]
    9050:	e1a00005 	mov	r0, r5
    9054:	e58d3004 	str	r3, [sp, #4]
    9058:	eb0000fb 	bl	944c <va_printk>
    905c:	e1a04000 	mov	r4, r0
    9060:	e59f3020 	ldr	r3, [pc, #32]	; 9088 <printk+0x54>
    9064:	e1a00005 	mov	r0, r5
    9068:	e5933000 	ldr	r3, [r3]
    906c:	e12fff33 	blx	r3
    9070:	e1a00004 	mov	r0, r4
    9074:	e28dd00c 	add	sp, sp, #12, 0
    9078:	e8bd4030 	pop	{r4, r5, lr}
    907c:	e28dd010 	add	sp, sp, #16, 0
    9080:	e12fff1e 	bx	lr
    9084:	0000aeec 	andeq	sl, r0, ip, ror #29
    9088:	0000aeb4 			; <UNDEFINED> instruction: 0x0000aeb4

0000908c <internal_putk>:
    908c:	e92d4070 	push	{r4, r5, r6, lr}
    9090:	e1a04000 	mov	r4, r0
    9094:	e5d00000 	ldrb	r0, [r0]
    9098:	e3500000 	cmp	r0, #0, 0
    909c:	0a000005 	beq	90b8 <internal_putk+0x2c>
    90a0:	e59f5018 	ldr	r5, [pc, #24]	; 90c0 <internal_putk+0x34>
    90a4:	e5953000 	ldr	r3, [r5]
    90a8:	e12fff33 	blx	r3
    90ac:	e5f40001 	ldrb	r0, [r4, #1]!
    90b0:	e3500000 	cmp	r0, #0, 0
    90b4:	1afffffa 	bne	90a4 <internal_putk+0x18>
    90b8:	e3a00001 	mov	r0, #1, 0
    90bc:	e8bd8070 	pop	{r4, r5, r6, pc}
    90c0:	0000aec4 	andeq	sl, r0, r4, asr #29

000090c4 <emit.constprop.0>:
    90c4:	e92d41f0 	push	{r4, r5, r6, r7, r8, lr}
    90c8:	e3530080 	cmp	r3, #128, 0	; 0x80
    90cc:	e1a0c000 	mov	ip, r0
    90d0:	e24dd048 	sub	sp, sp, #72, 0	; 0x48
    90d4:	e1a00001 	mov	r0, r1
    90d8:	ca000069 	bgt	9284 <emit.constprop.0+0x1c0>
    90dc:	e24c1002 	sub	r1, ip, #2, 0
    90e0:	e1a0c002 	mov	ip, r2
    90e4:	e351000e 	cmp	r1, #14, 0
    90e8:	979ff101 	ldrls	pc, [pc, r1, lsl #2]
    90ec:	ea0000a7 	b	9390 <emit.constprop.0+0x2cc>
    90f0:	0000925c 	andeq	r9, r0, ip, asr r2
    90f4:	00009390 	muleq	r0, r0, r3
    90f8:	00009390 	muleq	r0, r0, r3
    90fc:	00009390 	muleq	r0, r0, r3
    9100:	00009390 	muleq	r0, r0, r3
    9104:	00009390 	muleq	r0, r0, r3
    9108:	00009338 	andeq	r9, r0, r8, lsr r3
    910c:	00009390 	muleq	r0, r0, r3
    9110:	000092d8 	ldrdeq	r9, [r0], -r8
    9114:	00009390 	muleq	r0, r0, r3
    9118:	00009390 	muleq	r0, r0, r3
    911c:	00009390 	muleq	r0, r0, r3
    9120:	00009390 	muleq	r0, r0, r3
    9124:	00009390 	muleq	r0, r0, r3
    9128:	00009130 	andeq	r9, r0, r0, lsr r1
    912c:	e3a0307f 	mov	r3, #127, 0	; 0x7f
    9130:	e28d2008 	add	r2, sp, #8, 0
    9134:	e1a04002 	mov	r4, r2
    9138:	e59f1288 	ldr	r1, [pc, #648]	; 93c8 <emit.constprop.0+0x304>
    913c:	e20ce00f 	and	lr, ip, #15, 0
    9140:	e7d1e00e 	ldrb	lr, [r1, lr]
    9144:	e35c000f 	cmp	ip, #15, 0
    9148:	e4c4e001 	strb	lr, [r4], #1
    914c:	e1a0c22c 	lsr	ip, ip, #4
    9150:	8afffff9 	bhi	913c <emit.constprop.0+0x78>
    9154:	e3a0c078 	mov	ip, #120, 0	; 0x78
    9158:	e1a0e004 	mov	lr, r4
    915c:	e3a01030 	mov	r1, #48, 0	; 0x30
    9160:	e4cec002 	strb	ip, [lr], #2
    9164:	e5c41001 	strb	r1, [r4, #1]
    9168:	e04e1002 	sub	r1, lr, r2
    916c:	e1510003 	cmp	r1, r3
    9170:	aa000083 	bge	9384 <emit.constprop.0+0x2c0>
    9174:	e1510003 	cmp	r1, r3
    9178:	a3a0c001 	movge	ip, #1, 0
    917c:	b3a0c000 	movlt	ip, #0, 0
    9180:	e2434001 	sub	r4, r3, #1, 0
    9184:	e0444001 	sub	r4, r4, r1
    9188:	b0436001 	sublt	r6, r3, r1
    918c:	a3a06001 	movge	r6, #1, 0
    9190:	e3540002 	cmp	r4, #2, 0
    9194:	938cc001 	orrls	ip, ip, #1, 0
    9198:	e35c0000 	cmp	ip, #0, 0
    919c:	1a000075 	bne	9378 <emit.constprop.0+0x2b4>
    91a0:	e1a0c00e 	mov	ip, lr
    91a4:	e3c65003 	bic	r5, r6, #3, 0
    91a8:	e59f721c 	ldr	r7, [pc, #540]	; 93cc <emit.constprop.0+0x308>
    91ac:	e085500e 	add	r5, r5, lr
    91b0:	e48c7004 	str	r7, [ip], #4
    91b4:	e15c0005 	cmp	ip, r5
    91b8:	1afffffc 	bne	91b0 <emit.constprop.0+0xec>
    91bc:	e3c6c003 	bic	ip, r6, #3, 0
    91c0:	e156000c 	cmp	r6, ip
    91c4:	e08e500c 	add	r5, lr, ip
    91c8:	e08cc001 	add	ip, ip, r1
    91cc:	0a000008 	beq	91f4 <emit.constprop.0+0x130>
    91d0:	e3a07020 	mov	r7, #32, 0
    91d4:	e28c8001 	add	r8, ip, #1, 0
    91d8:	e1580003 	cmp	r8, r3
    91dc:	e5c57000 	strb	r7, [r5]
    91e0:	aa000003 	bge	91f4 <emit.constprop.0+0x130>
    91e4:	e28cc002 	add	ip, ip, #2, 0
    91e8:	e15c0003 	cmp	ip, r3
    91ec:	e5c57001 	strb	r7, [r5, #1]
    91f0:	b5c57002 	strblt	r7, [r5, #2]
    91f4:	e1510003 	cmp	r1, r3
    91f8:	a3a04000 	movge	r4, #0, 0
    91fc:	e08e6006 	add	r6, lr, r6
    9200:	e0461002 	sub	r1, r6, r2
    9204:	e08ee004 	add	lr, lr, r4
    9208:	e3a03000 	mov	r3, #0, 0
    920c:	e351007f 	cmp	r1, #127, 0	; 0x7f
    9210:	c241407f 	subgt	r4, r1, #127, 0	; 0x7f
    9214:	c0822004 	addgt	r2, r2, r4
    9218:	e152000e 	cmp	r2, lr
    921c:	e5c63000 	strb	r3, [r6]
    9220:	8a00004f 	bhi	9364 <emit.constprop.0+0x2a0>
    9224:	e28ee001 	add	lr, lr, #1, 0
    9228:	e1a0300e 	mov	r3, lr
    922c:	e240c001 	sub	ip, r0, #1, 0
    9230:	e5734001 	ldrb	r4, [r3, #-1]!
    9234:	e1530002 	cmp	r3, r2
    9238:	e5ec4001 	strb	r4, [ip, #1]!
    923c:	1afffffb 	bne	9230 <emit.constprop.0+0x16c>
    9240:	e04ee003 	sub	lr, lr, r3
    9244:	e3a03000 	mov	r3, #0, 0
    9248:	e080e00e 	add	lr, r0, lr
    924c:	e5ce3000 	strb	r3, [lr]
    9250:	e28dd048 	add	sp, sp, #72, 0	; 0x48
    9254:	e8bd81f0 	pop	{r4, r5, r6, r7, r8, pc}
    9258:	e3a0307f 	mov	r3, #127, 0	; 0x7f
    925c:	e28d2008 	add	r2, sp, #8, 0
    9260:	e1a0e002 	mov	lr, r2
    9264:	e59f1164 	ldr	r1, [pc, #356]	; 93d0 <emit.constprop.0+0x30c>
    9268:	e20c4001 	and	r4, ip, #1, 0
    926c:	e7d14004 	ldrb	r4, [r1, r4]
    9270:	e35c0001 	cmp	ip, #1, 0
    9274:	e4ce4001 	strb	r4, [lr], #1
    9278:	e1a0c0ac 	lsr	ip, ip, #1
    927c:	8afffff9 	bhi	9268 <emit.constprop.0+0x1a4>
    9280:	eaffffb8 	b	9168 <emit.constprop.0+0xa4>
    9284:	e24c3002 	sub	r3, ip, #2, 0
    9288:	e1a0c002 	mov	ip, r2
    928c:	e353000e 	cmp	r3, #14, 0
    9290:	979ff103 	ldrls	pc, [pc, r3, lsl #2]
    9294:	ea00003d 	b	9390 <emit.constprop.0+0x2cc>
    9298:	00009258 	andeq	r9, r0, r8, asr r2
    929c:	00009390 	muleq	r0, r0, r3
    92a0:	00009390 	muleq	r0, r0, r3
    92a4:	00009390 	muleq	r0, r0, r3
    92a8:	00009390 	muleq	r0, r0, r3
    92ac:	00009390 	muleq	r0, r0, r3
    92b0:	000093b0 			; <UNDEFINED> instruction: 0x000093b0
    92b4:	00009390 	muleq	r0, r0, r3
    92b8:	000092d4 	ldrdeq	r9, [r0], -r4
    92bc:	00009390 	muleq	r0, r0, r3
    92c0:	00009390 	muleq	r0, r0, r3
    92c4:	00009390 	muleq	r0, r0, r3
    92c8:	00009390 	muleq	r0, r0, r3
    92cc:	00009390 	muleq	r0, r0, r3
    92d0:	0000912c 	andeq	r9, r0, ip, lsr #2
    92d4:	e3a0307f 	mov	r3, #127, 0	; 0x7f
    92d8:	e59d1060 	ldr	r1, [sp, #96]	; 0x60
    92dc:	e59f70f0 	ldr	r7, [pc, #240]	; 93d4 <emit.constprop.0+0x310>
    92e0:	e0118fa2 	ands	r8, r1, r2, lsr #31
    92e4:	1262c000 	rsbne	ip, r2, #0, 0
    92e8:	e28d2008 	add	r2, sp, #8, 0
    92ec:	13a08001 	movne	r8, #1, 0
    92f0:	e1a0e002 	mov	lr, r2
    92f4:	e59f60dc 	ldr	r6, [pc, #220]	; 93d8 <emit.constprop.0+0x314>
    92f8:	e1a0500c 	mov	r5, ip
    92fc:	e0814c96 	umull	r4, r1, r6, ip
    9300:	e1a011a1 	lsr	r1, r1, #3
    9304:	e0814101 	add	r4, r1, r1, lsl #2
    9308:	e04cc084 	sub	ip, ip, r4, lsl #1
    930c:	e7d7400c 	ldrb	r4, [r7, ip]
    9310:	e3550009 	cmp	r5, #9, 0
    9314:	e1a0c001 	mov	ip, r1
    9318:	e1a0100e 	mov	r1, lr
    931c:	e4ce4001 	strb	r4, [lr], #1
    9320:	8afffff4 	bhi	92f8 <emit.constprop.0+0x234>
    9324:	e3580000 	cmp	r8, #0, 0
    9328:	13a0c02d 	movne	ip, #45, 0	; 0x2d
    932c:	15cec000 	strbne	ip, [lr]
    9330:	1281e002 	addne	lr, r1, #2, 0
    9334:	eaffff8b 	b	9168 <emit.constprop.0+0xa4>
    9338:	e3530001 	cmp	r3, #1, 0
    933c:	e5cd2008 	strb	r2, [sp, #8]
    9340:	c3a01001 	movgt	r1, #1, 0
    9344:	c28de009 	addgt	lr, sp, #9, 0
    9348:	c28d2008 	addgt	r2, sp, #8, 0
    934c:	caffff88 	bgt	9174 <emit.constprop.0+0xb0>
    9350:	e3a03000 	mov	r3, #0, 0
    9354:	e28de008 	add	lr, sp, #8, 0
    9358:	e1a0200e 	mov	r2, lr
    935c:	e5cd3009 	strb	r3, [sp, #9]
    9360:	eaffffaf 	b	9224 <emit.constprop.0+0x160>
    9364:	e1a0e000 	mov	lr, r0
    9368:	e3a03000 	mov	r3, #0, 0
    936c:	e5ce3000 	strb	r3, [lr]
    9370:	e28dd048 	add	sp, sp, #72, 0	; 0x48
    9374:	e8bd81f0 	pop	{r4, r5, r6, r7, r8, pc}
    9378:	e1a0c001 	mov	ip, r1
    937c:	e1a0500e 	mov	r5, lr
    9380:	eaffff92 	b	91d0 <emit.constprop.0+0x10c>
    9384:	e1a0600e 	mov	r6, lr
    9388:	e24ee001 	sub	lr, lr, #1, 0
    938c:	eaffff9d 	b	9208 <emit.constprop.0+0x144>
    9390:	e59f2044 	ldr	r2, [pc, #68]	; 93dc <emit.constprop.0+0x318>
    9394:	e3a03079 	mov	r3, #121, 0	; 0x79
    9398:	e59f1040 	ldr	r1, [pc, #64]	; 93e0 <emit.constprop.0+0x31c>
    939c:	e58d2000 	str	r2, [sp]
    93a0:	e59f003c 	ldr	r0, [pc, #60]	; 93e4 <emit.constprop.0+0x320>
    93a4:	e59f203c 	ldr	r2, [pc, #60]	; 93e8 <emit.constprop.0+0x324>
    93a8:	ebffff21 	bl	9034 <printk>
    93ac:	eb0001b1 	bl	9a78 <clean_reboot>
    93b0:	e5cd2008 	strb	r2, [sp, #8]
    93b4:	e3a0307f 	mov	r3, #127, 0	; 0x7f
    93b8:	e3a01001 	mov	r1, #1, 0
    93bc:	e28de009 	add	lr, sp, #9, 0
    93c0:	e28d2008 	add	r2, sp, #8, 0
    93c4:	eaffff6a 	b	9174 <emit.constprop.0+0xb0>
    93c8:	0000ab40 	andeq	sl, r0, r0, asr #22
    93cc:	20202020 	eorcs	r2, r0, r0, lsr #32
    93d0:	0000ab54 	andeq	sl, r0, r4, asr fp
    93d4:	0000ab58 	andeq	sl, r0, r8, asr fp
    93d8:	cccccccd 	stclgt	12, cr12, [ip], {205}	; 0xcd
    93dc:	0000a9dc 	ldrdeq	sl, [r0], -ip
    93e0:	0000ab2c 	andeq	sl, r0, ip, lsr #22
    93e4:	0000a5dc 	ldrdeq	sl, [r0], -ip
    93e8:	0000ac6c 	andeq	sl, r0, ip, ror #24

000093ec <rpi_set_output>:
    93ec:	e3500000 	cmp	r0, #0, 0
    93f0:	0a000005 	beq	940c <rpi_set_output+0x20>
    93f4:	e59f3038 	ldr	r3, [pc, #56]	; 9434 <rpi_set_output+0x48>
    93f8:	e3510000 	cmp	r1, #0, 0
    93fc:	e5830000 	str	r0, [r3]
    9400:	159f3030 	ldrne	r3, [pc, #48]	; 9438 <rpi_set_output+0x4c>
    9404:	15831000 	strne	r1, [r3]
    9408:	e12fff1e 	bx	lr
    940c:	e52de004 	push	{lr}		; (str lr, [sp, #-4]!)
    9410:	e59f2024 	ldr	r2, [pc, #36]	; 943c <rpi_set_output+0x50>
    9414:	e24dd00c 	sub	sp, sp, #12, 0
    9418:	e3a03020 	mov	r3, #32, 0
    941c:	e59f101c 	ldr	r1, [pc, #28]	; 9440 <rpi_set_output+0x54>
    9420:	e58d2000 	str	r2, [sp]
    9424:	e59f0018 	ldr	r0, [pc, #24]	; 9444 <rpi_set_output+0x58>
    9428:	e59f2018 	ldr	r2, [pc, #24]	; 9448 <rpi_set_output+0x5c>
    942c:	ebffff00 	bl	9034 <printk>
    9430:	eb000190 	bl	9a78 <clean_reboot>
    9434:	0000aec4 	andeq	sl, r0, r4, asr #29
    9438:	0000aeb4 			; <UNDEFINED> instruction: 0x0000aeb4
    943c:	0000ab64 	andeq	sl, r0, r4, ror #22
    9440:	0000ab2c 	andeq	sl, r0, ip, lsr #22
    9444:	0000a5dc 	ldrdeq	sl, [r0], -ip
    9448:	0000ac74 	andeq	sl, r0, r4, ror ip

0000944c <va_printk>:
    944c:	e92d4ff0 	push	{r4, r5, r6, r7, r8, r9, sl, fp, lr}
    9450:	e1a0b000 	mov	fp, r0
    9454:	e3a00000 	mov	r0, #0, 0
    9458:	e5cb0000 	strb	r0, [fp]
    945c:	e5d2c000 	ldrb	ip, [r2]
    9460:	e2417001 	sub	r7, r1, #1, 0
    9464:	e08b7007 	add	r7, fp, r7
    9468:	e15c0000 	cmp	ip, r0
    946c:	115b0007 	cmpne	fp, r7
    9470:	e24ddf47 	sub	sp, sp, #284	; 0x11c
    9474:	e58d2010 	str	r2, [sp, #16]
    9478:	2a000159 	bcs	99e4 <va_printk+0x598>
    947c:	e1a06002 	mov	r6, r2
    9480:	e1a08003 	mov	r8, r3
    9484:	e1a0400b 	mov	r4, fp
    9488:	e59fa5a4 	ldr	sl, [pc, #1444]	; 9a34 <va_printk+0x5e8>
    948c:	e58db00c 	str	fp, [sp, #12]
    9490:	ea000005 	b	94ac <va_printk+0x60>
    9494:	e4c4c001 	strb	ip, [r4], #1
    9498:	e2866001 	add	r6, r6, #1, 0
    949c:	e5d6c000 	ldrb	ip, [r6]
    94a0:	e35c0000 	cmp	ip, #0, 0
    94a4:	11570004 	cmpne	r7, r4
    94a8:	9a00002f 	bls	956c <va_printk+0x120>
    94ac:	e35c0025 	cmp	ip, #37, 0	; 0x25
    94b0:	1afffff7 	bne	9494 <va_printk+0x48>
    94b4:	e5d62001 	ldrb	r2, [r6, #1]
    94b8:	e3520025 	cmp	r2, #37, 0	; 0x25
    94bc:	04c4c001 	strbeq	ip, [r4], #1
    94c0:	02866002 	addeq	r6, r6, #2, 0
    94c4:	0afffff4 	beq	949c <va_printk+0x50>
    94c8:	e2423030 	sub	r3, r2, #48, 0	; 0x30
    94cc:	e3530009 	cmp	r3, #9, 0
    94d0:	e3a05000 	mov	r5, #0, 0
    94d4:	e2866001 	add	r6, r6, #1, 0
    94d8:	8a000008 	bhi	9500 <va_printk+0xb4>
    94dc:	e0855105 	add	r5, r5, r5, lsl #2
    94e0:	e0825085 	add	r5, r2, r5, lsl #1
    94e4:	e5f62001 	ldrb	r2, [r6, #1]!
    94e8:	e2455030 	sub	r5, r5, #48, 0	; 0x30
    94ec:	e2423030 	sub	r3, r2, #48, 0	; 0x30
    94f0:	e3530009 	cmp	r3, #9, 0
    94f4:	9afffff8 	bls	94dc <va_printk+0x90>
    94f8:	e355001f 	cmp	r5, #31, 0
    94fc:	8a00013a 	bhi	99ec <va_printk+0x5a0>
    9500:	e2423062 	sub	r3, r2, #98, 0	; 0x62
    9504:	e3530016 	cmp	r3, #22, 0
    9508:	979ff103 	ldrls	pc, [pc, r3, lsl #2]
    950c:	ea00011b 	b	9980 <va_printk+0x534>
    9510:	000097c4 	andeq	r9, r0, r4, asr #15
    9514:	000096c0 	andeq	r9, r0, r0, asr #13
    9518:	000096b8 			; <UNDEFINED> instruction: 0x000096b8
    951c:	00009980 	andeq	r9, r0, r0, lsl #19
    9520:	000099bc 			; <UNDEFINED> instruction: 0x000099bc
    9524:	00009980 	andeq	r9, r0, r0, lsl #19
    9528:	00009980 	andeq	r9, r0, r0, lsl #19
    952c:	00009980 	andeq	r9, r0, r0, lsl #19
    9530:	00009980 	andeq	r9, r0, r0, lsl #19
    9534:	00009980 	andeq	r9, r0, r0, lsl #19
    9538:	000095c8 	andeq	r9, r0, r8, asr #11
    953c:	00009980 	andeq	r9, r0, r0, lsl #19
    9540:	00009980 	andeq	r9, r0, r0, lsl #19
    9544:	00009980 	andeq	r9, r0, r0, lsl #19
    9548:	00009584 	andeq	r9, r0, r4, lsl #11
    954c:	00009980 	andeq	r9, r0, r0, lsl #19
    9550:	00009980 	andeq	r9, r0, r0, lsl #19
    9554:	000098bc 			; <UNDEFINED> instruction: 0x000098bc
    9558:	00009980 	andeq	r9, r0, r0, lsl #19
    955c:	00009694 	muleq	r0, r4, r6
    9560:	00009980 	andeq	r9, r0, r0, lsl #19
    9564:	00009980 	andeq	r9, r0, r0, lsl #19
    9568:	00009584 	andeq	r9, r0, r4, lsl #11
    956c:	e59db00c 	ldr	fp, [sp, #12]
    9570:	e3a03000 	mov	r3, #0, 0
    9574:	e4c43001 	strb	r3, [r4], #1
    9578:	e044000b 	sub	r0, r4, fp
    957c:	e28ddf47 	add	sp, sp, #284	; 0x11c
    9580:	e8bd8ff0 	pop	{r4, r5, r6, r7, r8, r9, sl, fp, pc}
    9584:	e3a01000 	mov	r1, #0, 0
    9588:	e1a03005 	mov	r3, r5
    958c:	e4982004 	ldr	r2, [r8], #4
    9590:	e3a00010 	mov	r0, #16, 0
    9594:	e58d1000 	str	r1, [sp]
    9598:	e28d1018 	add	r1, sp, #24, 0
    959c:	ebfffec8 	bl	90c4 <emit.constprop.0>
    95a0:	e1a05000 	mov	r5, r0
    95a4:	e2866001 	add	r6, r6, #1, 0
    95a8:	e2455001 	sub	r5, r5, #1, 0
    95ac:	e5f53001 	ldrb	r3, [r5, #1]!
    95b0:	e3530000 	cmp	r3, #0, 0
    95b4:	0affffb8 	beq	949c <va_printk+0x50>
    95b8:	e4c43001 	strb	r3, [r4], #1
    95bc:	e1570004 	cmp	r7, r4
    95c0:	8afffff9 	bhi	95ac <va_printk+0x160>
    95c4:	eaffffb4 	b	949c <va_printk+0x50>
    95c8:	e3a02003 	mov	r2, #3, 0
    95cc:	e1a00006 	mov	r0, r6
    95d0:	e59f1460 	ldr	r1, [pc, #1120]	; 9a38 <va_printk+0x5ec>
    95d4:	eb0003e6 	bl	a574 <strncmp>
    95d8:	e3500000 	cmp	r0, #0, 0
    95dc:	0a000005 	beq	95f8 <va_printk+0x1ac>
    95e0:	e3a02003 	mov	r2, #3, 0
    95e4:	e1a00006 	mov	r0, r6
    95e8:	e59f144c 	ldr	r1, [pc, #1100]	; 9a3c <va_printk+0x5f0>
    95ec:	eb0003e0 	bl	a574 <strncmp>
    95f0:	e3500000 	cmp	r0, #0, 0
    95f4:	1a00010b 	bne	9a28 <va_printk+0x5dc>
    95f8:	e2888007 	add	r8, r8, #7, 0
    95fc:	e3c88007 	bic	r8, r8, #7, 0
    9600:	e598b004 	ldr	fp, [r8, #4]
    9604:	e4989008 	ldr	r9, [r8], #8
    9608:	e1a0100b 	mov	r1, fp
    960c:	e59f042c 	ldr	r0, [pc, #1068]	; 9a40 <va_printk+0x5f4>
    9610:	ebfffe87 	bl	9034 <printk>
    9614:	e1a01009 	mov	r1, r9
    9618:	e59f0424 	ldr	r0, [pc, #1060]	; 9a44 <va_printk+0x5f8>
    961c:	ebfffe84 	bl	9034 <printk>
    9620:	e3a02003 	mov	r2, #3, 0
    9624:	e1a00006 	mov	r0, r6
    9628:	e59f1408 	ldr	r1, [pc, #1032]	; 9a38 <va_printk+0x5ec>
    962c:	eb0003d0 	bl	a574 <strncmp>
    9630:	e2503000 	subs	r3, r0, #0, 0
    9634:	e1a02003 	mov	r2, r3
    9638:	e2863002 	add	r3, r6, #2, 0
    963c:	e58d3014 	str	r3, [sp, #20]
    9640:	1a00009f 	bne	98c4 <va_printk+0x478>
    9644:	e1a06002 	mov	r6, r2
    9648:	e1a03005 	mov	r3, r5
    964c:	e58d2000 	str	r2, [sp]
    9650:	e28d1018 	add	r1, sp, #24, 0
    9654:	e1a0200b 	mov	r2, fp
    9658:	e3a00010 	mov	r0, #16, 0
    965c:	ebfffe98 	bl	90c4 <emit.constprop.0>
    9660:	e1a0c000 	mov	ip, r0
    9664:	e1a03005 	mov	r3, r5
    9668:	e58d6000 	str	r6, [sp]
    966c:	e28d1098 	add	r1, sp, #152, 0	; 0x98
    9670:	e1a02009 	mov	r2, r9
    9674:	e3a00010 	mov	r0, #16, 0
    9678:	e1a0500c 	mov	r5, ip
    967c:	ebfffe90 	bl	90c4 <emit.constprop.0>
    9680:	e28d0018 	add	r0, sp, #24, 0
    9684:	e28d109a 	add	r1, sp, #154, 0	; 0x9a
    9688:	e59d6014 	ldr	r6, [sp, #20]
    968c:	eb000396 	bl	a4ec <strcat>
    9690:	eaffffc3 	b	95a4 <va_printk+0x158>
    9694:	e3a01000 	mov	r1, #0, 0
    9698:	e1a03005 	mov	r3, r5
    969c:	e4982004 	ldr	r2, [r8], #4
    96a0:	e3a0000a 	mov	r0, #10, 0
    96a4:	e58d1000 	str	r1, [sp]
    96a8:	e28d1018 	add	r1, sp, #24, 0
    96ac:	ebfffe84 	bl	90c4 <emit.constprop.0>
    96b0:	e1a05000 	mov	r5, r0
    96b4:	eaffffba 	b	95a4 <va_printk+0x158>
    96b8:	e3a01001 	mov	r1, #1, 0
    96bc:	eafffff5 	b	9698 <va_printk+0x24c>
    96c0:	e4983004 	ldr	r3, [r8], #4
    96c4:	e3550001 	cmp	r5, #1, 0
    96c8:	e5cd3098 	strb	r3, [sp, #152]	; 0x98
    96cc:	9a0000a6 	bls	996c <va_printk+0x520>
    96d0:	e2453002 	sub	r3, r5, #2, 0
    96d4:	e3530002 	cmp	r3, #2, 0
    96d8:	e2451001 	sub	r1, r5, #1, 0
    96dc:	9a0000bc 	bls	99d4 <va_printk+0x588>
    96e0:	e59f0360 	ldr	r0, [pc, #864]	; 9a48 <va_printk+0x5fc>
    96e4:	e1a02121 	lsr	r2, r1, #2
    96e8:	e3520001 	cmp	r2, #1, 0
    96ec:	e58d0099 	str	r0, [sp, #153]	; 0x99
    96f0:	0a00000e 	beq	9730 <va_printk+0x2e4>
    96f4:	e3520002 	cmp	r2, #2, 0
    96f8:	e58d009d 	str	r0, [sp, #157]	; 0x9d
    96fc:	0a00000b 	beq	9730 <va_printk+0x2e4>
    9700:	e3520003 	cmp	r2, #3, 0
    9704:	e58d00a1 	str	r0, [sp, #161]	; 0xa1
    9708:	0a000008 	beq	9730 <va_printk+0x2e4>
    970c:	e3520004 	cmp	r2, #4, 0
    9710:	e58d00a5 	str	r0, [sp, #165]	; 0xa5
    9714:	0a000005 	beq	9730 <va_printk+0x2e4>
    9718:	e3520005 	cmp	r2, #5, 0
    971c:	e58d00a9 	str	r0, [sp, #169]	; 0xa9
    9720:	0a000002 	beq	9730 <va_printk+0x2e4>
    9724:	e3520007 	cmp	r2, #7, 0
    9728:	e58d00ad 	str	r0, [sp, #173]	; 0xad
    972c:	058d00b1 	streq	r0, [sp, #177]	; 0xb1
    9730:	e3c12003 	bic	r2, r1, #3, 0
    9734:	e1510002 	cmp	r1, r2
    9738:	e28dc099 	add	ip, sp, #153, 0	; 0x99
    973c:	e08c0002 	add	r0, ip, r2
    9740:	e2822001 	add	r2, r2, #1, 0
    9744:	0a000008 	beq	976c <va_printk+0x320>
    9748:	e3a0e020 	mov	lr, #32, 0
    974c:	e2829001 	add	r9, r2, #1, 0
    9750:	e1550009 	cmp	r5, r9
    9754:	e5c0e000 	strb	lr, [r0]
    9758:	da000003 	ble	976c <va_printk+0x320>
    975c:	e2822002 	add	r2, r2, #2, 0
    9760:	e1550002 	cmp	r5, r2
    9764:	e5c0e001 	strb	lr, [r0, #1]
    9768:	c5c0e002 	strbgt	lr, [r0, #2]
    976c:	e3a0e000 	mov	lr, #0, 0
    9770:	e28d0098 	add	r0, sp, #152, 0	; 0x98
    9774:	e08c2001 	add	r2, ip, r1
    9778:	e0422000 	sub	r2, r2, r0
    977c:	e352007f 	cmp	r2, #127, 0	; 0x7f
    9780:	c242207f 	subgt	r2, r2, #127, 0	; 0x7f
    9784:	e08c3003 	add	r3, ip, r3
    9788:	c0800002 	addgt	r0, r0, r2
    978c:	e1530000 	cmp	r3, r0
    9790:	e7cce001 	strb	lr, [ip, r1]
    9794:	3a00006c 	bcc	994c <va_printk+0x500>
    9798:	e283c001 	add	ip, r3, #1, 0
    979c:	e1a0300c 	mov	r3, ip
    97a0:	e28d5018 	add	r5, sp, #24, 0
    97a4:	e2452001 	sub	r2, r5, #1, 0
    97a8:	e5731001 	ldrb	r1, [r3, #-1]!
    97ac:	e1500003 	cmp	r0, r3
    97b0:	e5e21001 	strb	r1, [r2, #1]!
    97b4:	1afffffb 	bne	97a8 <va_printk+0x35c>
    97b8:	e04c3000 	sub	r3, ip, r0
    97bc:	e0853003 	add	r3, r5, r3
    97c0:	ea00003a 	b	98b0 <va_printk+0x464>
    97c4:	e28d1098 	add	r1, sp, #152, 0	; 0x98
    97c8:	e1a03001 	mov	r3, r1
    97cc:	e4980004 	ldr	r0, [r8], #4
    97d0:	e200c001 	and	ip, r0, #1, 0
    97d4:	e7dac00c 	ldrb	ip, [sl, ip]
    97d8:	e3500001 	cmp	r0, #1, 0
    97dc:	e1a02003 	mov	r2, r3
    97e0:	e1a000a0 	lsr	r0, r0, #1
    97e4:	e4c3c001 	strb	ip, [r3], #1
    97e8:	8afffff8 	bhi	97d0 <va_printk+0x384>
    97ec:	e0430001 	sub	r0, r3, r1
    97f0:	e1550000 	cmp	r5, r0
    97f4:	da000057 	ble	9958 <va_printk+0x50c>
    97f8:	e045c000 	sub	ip, r5, r0
    97fc:	e24ce001 	sub	lr, ip, #1, 0
    9800:	e35e0002 	cmp	lr, #2, 0
    9804:	e1a0e003 	mov	lr, r3
    9808:	9a00000a 	bls	9838 <va_printk+0x3ec>
    980c:	e3cc9003 	bic	r9, ip, #3, 0
    9810:	e0899003 	add	r9, r9, r3
    9814:	e59fb22c 	ldr	fp, [pc, #556]	; 9a48 <va_printk+0x5fc>
    9818:	e48eb004 	str	fp, [lr], #4
    981c:	e15e0009 	cmp	lr, r9
    9820:	1afffffb 	bne	9814 <va_printk+0x3c8>
    9824:	e3cce003 	bic	lr, ip, #3, 0
    9828:	e15e000c 	cmp	lr, ip
    982c:	e080000e 	add	r0, r0, lr
    9830:	e083e00e 	add	lr, r3, lr
    9834:	0a000008 	beq	985c <va_printk+0x410>
    9838:	e3a09020 	mov	r9, #32, 0
    983c:	e280b001 	add	fp, r0, #1, 0
    9840:	e155000b 	cmp	r5, fp
    9844:	e5ce9000 	strb	r9, [lr]
    9848:	da000003 	ble	985c <va_printk+0x410>
    984c:	e2800002 	add	r0, r0, #2, 0
    9850:	e1550000 	cmp	r5, r0
    9854:	e5ce9001 	strb	r9, [lr, #1]
    9858:	c5ce9002 	strbgt	r9, [lr, #2]
    985c:	e3a0e000 	mov	lr, #0, 0
    9860:	e083000c 	add	r0, r3, ip
    9864:	e0400001 	sub	r0, r0, r1
    9868:	e350007f 	cmp	r0, #127, 0	; 0x7f
    986c:	e082200c 	add	r2, r2, ip
    9870:	e7c3e00c 	strb	lr, [r3, ip]
    9874:	da000001 	ble	9880 <va_printk+0x434>
    9878:	e240007f 	sub	r0, r0, #127, 0	; 0x7f
    987c:	e0811000 	add	r1, r1, r0
    9880:	e1510002 	cmp	r1, r2
    9884:	8a000030 	bhi	994c <va_printk+0x500>
    9888:	e2822001 	add	r2, r2, #1, 0
    988c:	e1a03002 	mov	r3, r2
    9890:	e28d5018 	add	r5, sp, #24, 0
    9894:	e245c001 	sub	ip, r5, #1, 0
    9898:	e5730001 	ldrb	r0, [r3, #-1]!
    989c:	e1530001 	cmp	r3, r1
    98a0:	e5ec0001 	strb	r0, [ip, #1]!
    98a4:	1afffffb 	bne	9898 <va_printk+0x44c>
    98a8:	e0423003 	sub	r3, r2, r3
    98ac:	e0853003 	add	r3, r5, r3
    98b0:	e3a02000 	mov	r2, #0, 0
    98b4:	e5c32000 	strb	r2, [r3]
    98b8:	eaffff39 	b	95a4 <va_printk+0x158>
    98bc:	e4985004 	ldr	r5, [r8], #4
    98c0:	eaffff37 	b	95a4 <va_printk+0x158>
    98c4:	e3a02003 	mov	r2, #3, 0
    98c8:	e1a00006 	mov	r0, r6
    98cc:	e59f1168 	ldr	r1, [pc, #360]	; 9a3c <va_printk+0x5f0>
    98d0:	eb000327 	bl	a574 <strncmp>
    98d4:	e2503000 	subs	r3, r0, #0, 0
    98d8:	1a00004b 	bne	9a0c <va_printk+0x5c0>
    98dc:	e1a06003 	mov	r6, r3
    98e0:	e1a0200b 	mov	r2, fp
    98e4:	e58d3000 	str	r3, [sp]
    98e8:	e28d1018 	add	r1, sp, #24, 0
    98ec:	e1a03005 	mov	r3, r5
    98f0:	e3a0000a 	mov	r0, #10, 0
    98f4:	ebfffdf2 	bl	90c4 <emit.constprop.0>
    98f8:	e1a0c000 	mov	ip, r0
    98fc:	e1a03005 	mov	r3, r5
    9900:	e1a02009 	mov	r2, r9
    9904:	e28d1098 	add	r1, sp, #152, 0	; 0x98
    9908:	e3a0000a 	mov	r0, #10, 0
    990c:	e58d6000 	str	r6, [sp]
    9910:	e1a0500c 	mov	r5, ip
    9914:	ebfffdea 	bl	90c4 <emit.constprop.0>
    9918:	e59f112c 	ldr	r1, [pc, #300]	; 9a4c <va_printk+0x600>
    991c:	e28d0018 	add	r0, sp, #24, 0
    9920:	eb0002fc 	bl	a518 <strcmp>
    9924:	e3500000 	cmp	r0, #0, 0
    9928:	e28d1098 	add	r1, sp, #152, 0	; 0x98
    992c:	e28d0018 	add	r0, sp, #24, 0
    9930:	1a000002 	bne	9940 <va_printk+0x4f4>
    9934:	eb000308 	bl	a55c <strcpy>
    9938:	e59d6014 	ldr	r6, [sp, #20]
    993c:	eaffff18 	b	95a4 <va_printk+0x158>
    9940:	eb0002e9 	bl	a4ec <strcat>
    9944:	e59d6014 	ldr	r6, [sp, #20]
    9948:	eaffff15 	b	95a4 <va_printk+0x158>
    994c:	e28d5018 	add	r5, sp, #24, 0
    9950:	e1a03005 	mov	r3, r5
    9954:	eaffffd5 	b	98b0 <va_printk+0x464>
    9958:	e3a0c000 	mov	ip, #0, 0
    995c:	e350007f 	cmp	r0, #127, 0	; 0x7f
    9960:	e5c3c000 	strb	ip, [r3]
    9964:	caffffc3 	bgt	9878 <va_printk+0x42c>
    9968:	eaffffc6 	b	9888 <va_printk+0x43c>
    996c:	e3a02000 	mov	r2, #0, 0
    9970:	e28d3098 	add	r3, sp, #152, 0	; 0x98
    9974:	e1a00003 	mov	r0, r3
    9978:	e5cd2099 	strb	r2, [sp, #153]	; 0x99
    997c:	eaffff85 	b	9798 <va_printk+0x34c>
    9980:	e3a03000 	mov	r3, #0, 0
    9984:	e1a01002 	mov	r1, r2
    9988:	e5c63001 	strb	r3, [r6, #1]
    998c:	e59f00bc 	ldr	r0, [pc, #188]	; 9a50 <va_printk+0x604>
    9990:	ebfffda7 	bl	9034 <printk>
    9994:	e59f30b8 	ldr	r3, [pc, #184]	; 9a54 <va_printk+0x608>
    9998:	e59d0010 	ldr	r0, [sp, #16]
    999c:	e5933000 	ldr	r3, [r3]
    99a0:	e12fff33 	blx	r3
    99a4:	e3a030e2 	mov	r3, #226, 0	; 0xe2
    99a8:	e59f20a8 	ldr	r2, [pc, #168]	; 9a58 <va_printk+0x60c>
    99ac:	e59f10a8 	ldr	r1, [pc, #168]	; 9a5c <va_printk+0x610>
    99b0:	e59f00a8 	ldr	r0, [pc, #168]	; 9a60 <va_printk+0x614>
    99b4:	ebfffd9e 	bl	9034 <printk>
    99b8:	eb00002e 	bl	9a78 <clean_reboot>
    99bc:	e3a030be 	mov	r3, #190, 0	; 0xbe
    99c0:	e59f2090 	ldr	r2, [pc, #144]	; 9a58 <va_printk+0x60c>
    99c4:	e59f1090 	ldr	r1, [pc, #144]	; 9a5c <va_printk+0x610>
    99c8:	e59f0094 	ldr	r0, [pc, #148]	; 9a64 <va_printk+0x618>
    99cc:	ebfffd98 	bl	9034 <printk>
    99d0:	eb000028 	bl	9a78 <clean_reboot>
    99d4:	e28dc099 	add	ip, sp, #153, 0	; 0x99
    99d8:	e1a0000c 	mov	r0, ip
    99dc:	e3a02001 	mov	r2, #1, 0
    99e0:	eaffff58 	b	9748 <va_printk+0x2fc>
    99e4:	e1a0400b 	mov	r4, fp
    99e8:	eafffee0 	b	9570 <va_printk+0x124>
    99ec:	e3a03098 	mov	r3, #152, 0	; 0x98
    99f0:	e59f2070 	ldr	r2, [pc, #112]	; 9a68 <va_printk+0x61c>
    99f4:	e59f1060 	ldr	r1, [pc, #96]	; 9a5c <va_printk+0x610>
    99f8:	e58d2000 	str	r2, [sp]
    99fc:	e59f0068 	ldr	r0, [pc, #104]	; 9a6c <va_printk+0x620>
    9a00:	e59f2050 	ldr	r2, [pc, #80]	; 9a58 <va_printk+0x60c>
    9a04:	ebfffd8a 	bl	9034 <printk>
    9a08:	eb00001a 	bl	9a78 <clean_reboot>
    9a0c:	e3a030b6 	mov	r3, #182, 0	; 0xb6
    9a10:	e59f2040 	ldr	r2, [pc, #64]	; 9a58 <va_printk+0x60c>
    9a14:	e59f1040 	ldr	r1, [pc, #64]	; 9a5c <va_printk+0x610>
    9a18:	e59f0050 	ldr	r0, [pc, #80]	; 9a70 <va_printk+0x624>
    9a1c:	e58d6000 	str	r6, [sp]
    9a20:	ebfffd83 	bl	9034 <printk>
    9a24:	eb000013 	bl	9a78 <clean_reboot>
    9a28:	e3a0309f 	mov	r3, #159, 0	; 0x9f
    9a2c:	e59f2040 	ldr	r2, [pc, #64]	; 9a74 <va_printk+0x628>
    9a30:	eaffffef 	b	99f4 <va_printk+0x5a8>
    9a34:	0000ab54 	andeq	sl, r0, r4, asr fp
    9a38:	0000ab78 	andeq	sl, r0, r8, ror fp
    9a3c:	0000ab8c 	andeq	sl, r0, ip, lsl #23
    9a40:	0000ab7c 	andeq	sl, r0, ip, ror fp
    9a44:	0000ab84 	andeq	sl, r0, r4, lsl #23
    9a48:	20202020 	eorcs	r2, r0, r0, lsr #32
    9a4c:	0000a9dc 	ldrdeq	sl, [r0], -ip
    9a50:	0000ac1c 	andeq	sl, r0, ip, lsl ip
    9a54:	0000aeb4 			; <UNDEFINED> instruction: 0x0000aeb4
    9a58:	0000ac84 	andeq	sl, r0, r4, lsl #25
    9a5c:	0000ab2c 	andeq	sl, r0, ip, lsr #22
    9a60:	0000ac4c 	andeq	sl, r0, ip, asr #24
    9a64:	0000abf4 	strdeq	sl, [r0], -r4
    9a68:	0000ab6c 	andeq	sl, r0, ip, ror #22
    9a6c:	0000a5dc 	ldrdeq	sl, [r0], -ip
    9a70:	0000abcc 	andeq	sl, r0, ip, asr #23
    9a74:	0000ab90 	muleq	r0, r0, fp

00009a78 <clean_reboot>:
    9a78:	e59f301c 	ldr	r3, [pc, #28]	; 9a9c <clean_reboot+0x24>
    9a7c:	e92d4010 	push	{r4, lr}
    9a80:	e5933000 	ldr	r3, [r3]
    9a84:	e59f0014 	ldr	r0, [pc, #20]	; 9aa0 <clean_reboot+0x28>
    9a88:	e12fff33 	blx	r3
    9a8c:	eb000127 	bl	9f30 <uart_flush_tx>
    9a90:	e3a0000a 	mov	r0, #10, 0
    9a94:	eb00008e 	bl	9cd4 <delay_ms>
    9a98:	eb000057 	bl	9bfc <rpi_reboot>
    9a9c:	0000aeb4 			; <UNDEFINED> instruction: 0x0000aeb4
    9aa0:	0000ac90 	muleq	r0, r0, ip

00009aa4 <_cstart>:
    9aa4:	e92d4070 	push	{r4, r5, r6, lr}
    9aa8:	eb000047 	bl	9bcc <custom_loader>
    9aac:	e59f2108 	ldr	r2, [pc, #264]	; 9bbc <_cstart+0x118>
    9ab0:	e59fc108 	ldr	ip, [pc, #264]	; 9bc0 <_cstart+0x11c>
    9ab4:	e152000c 	cmp	r2, ip
    9ab8:	2a00002e 	bcs	9b78 <_cstart+0xd4>
    9abc:	e24c1001 	sub	r1, ip, #1, 0
    9ac0:	e0411002 	sub	r1, r1, r2
    9ac4:	e3510017 	cmp	r1, #23, 0
    9ac8:	e1a03122 	lsr	r3, r2, #2
    9acc:	e1a01121 	lsr	r1, r1, #2
    9ad0:	e2811001 	add	r1, r1, #1, 0
    9ad4:	e2033001 	and	r3, r3, #1, 0
    9ad8:	9a000035 	bls	9bb4 <_cstart+0x110>
    9adc:	e3530000 	cmp	r3, #0, 0
    9ae0:	11a00002 	movne	r0, r2
    9ae4:	13a0e000 	movne	lr, #0, 0
    9ae8:	e3a04000 	mov	r4, #0, 0
    9aec:	e3a05000 	mov	r5, #0, 0
    9af0:	e0411003 	sub	r1, r1, r3
    9af4:	01a00002 	moveq	r0, r2
    9af8:	e0823103 	add	r3, r2, r3, lsl #2
    9afc:	e1a020a1 	lsr	r2, r1, #1
    9b00:	1480e004 	strne	lr, [r0], #4
    9b04:	e0832182 	add	r2, r3, r2, lsl #3
    9b08:	e0c340f8 	strd	r4, [r3], #8
    9b0c:	e1520003 	cmp	r2, r3
    9b10:	1afffffc 	bne	9b08 <_cstart+0x64>
    9b14:	e3c13001 	bic	r3, r1, #1, 0
    9b18:	e1510003 	cmp	r1, r3
    9b1c:	e0803103 	add	r3, r0, r3, lsl #2
    9b20:	0a000014 	beq	9b78 <_cstart+0xd4>
    9b24:	e1a01003 	mov	r1, r3
    9b28:	e3a02000 	mov	r2, #0, 0
    9b2c:	e4812004 	str	r2, [r1], #4
    9b30:	e151000c 	cmp	r1, ip
    9b34:	2a00000f 	bcs	9b78 <_cstart+0xd4>
    9b38:	e2831008 	add	r1, r3, #8, 0
    9b3c:	e151000c 	cmp	r1, ip
    9b40:	e5832004 	str	r2, [r3, #4]
    9b44:	2a00000b 	bcs	9b78 <_cstart+0xd4>
    9b48:	e283100c 	add	r1, r3, #12, 0
    9b4c:	e151000c 	cmp	r1, ip
    9b50:	e5832008 	str	r2, [r3, #8]
    9b54:	2a000007 	bcs	9b78 <_cstart+0xd4>
    9b58:	e2831010 	add	r1, r3, #16, 0
    9b5c:	e151000c 	cmp	r1, ip
    9b60:	e583200c 	str	r2, [r3, #12]
    9b64:	2a000003 	bcs	9b78 <_cstart+0xd4>
    9b68:	e2831014 	add	r1, r3, #20, 0
    9b6c:	e151000c 	cmp	r1, ip
    9b70:	e5832010 	str	r2, [r3, #16]
    9b74:	35832014 	strcc	r2, [r3, #20]
    9b78:	eb00008e 	bl	9db8 <uart_init>
    9b7c:	e3a03001 	mov	r3, #1, 0
    9b80:	ee0f3f1c 	mcr	15, 0, r3, cr15, cr12, {0}
    9b84:	ee1f3f3c 	mrc	15, 0, r3, cr15, cr12, {1}
    9b88:	e59f4034 	ldr	r4, [pc, #52]	; 9bc4 <_cstart+0x120>
    9b8c:	e5843000 	str	r3, [r4]
    9b90:	ebfff96e 	bl	8150 <notmain>
    9b94:	ee1f3f3c 	mrc	15, 0, r3, cr15, cr12, {1}
    9b98:	e5941000 	ldr	r1, [r4]
    9b9c:	e59f0024 	ldr	r0, [pc, #36]	; 9bc8 <_cstart+0x124>
    9ba0:	e3510000 	cmp	r1, #0, 0
    9ba4:	10431001 	subne	r1, r3, r1
    9ba8:	e5843000 	str	r3, [r4]
    9bac:	ebfffd20 	bl	9034 <printk>
    9bb0:	ebffffb0 	bl	9a78 <clean_reboot>
    9bb4:	e1a03002 	mov	r3, r2
    9bb8:	eaffffd9 	b	9b24 <_cstart+0x80>
    9bbc:	0000aec8 	andeq	sl, r0, r8, asr #29
    9bc0:	0000b2f8 	strdeq	fp, [r0], -r8
    9bc4:	0000b2ec 	andeq	fp, r0, ip, ror #5
    9bc8:	0000ac9c 	muleq	r0, ip, ip

00009bcc <custom_loader>:
    9bcc:	e12fff1e 	bx	lr

00009bd0 <at_user_level>:
    9bd0:	e10f0000 	mrs	r0, CPSR
    9bd4:	e200001f 	and	r0, r0, #31, 0
    9bd8:	e2400010 	sub	r0, r0, #16, 0
    9bdc:	e16f0f10 	clz	r0, r0
    9be0:	e1a002a0 	lsr	r0, r0, #5
    9be4:	e12fff1e 	bx	lr

00009be8 <set_user_level>:
    9be8:	e10f3000 	mrs	r3, CPSR
    9bec:	e3c3301f 	bic	r3, r3, #31, 0
    9bf0:	e3833010 	orr	r3, r3, #16, 0
    9bf4:	e129f003 	msr	CPSR_fc, r3
    9bf8:	e12fff1e 	bx	lr

00009bfc <rpi_reboot>:
    9bfc:	e92d4010 	push	{r4, lr}
    9c00:	e10f3000 	mrs	r3, CPSR
    9c04:	e203301f 	and	r3, r3, #31, 0
    9c08:	e3530010 	cmp	r3, #16, 0
    9c0c:	1a000003 	bne	9c20 <rpi_reboot+0x24>
    9c10:	e10f3000 	mrs	r3, CPSR
    9c14:	e3c3301f 	bic	r3, r3, #31, 0
    9c18:	e3833010 	orr	r3, r3, #16, 0
    9c1c:	e129f003 	msr	CPSR_fc, r3
    9c20:	eb00025f 	bl	a5a4 <reboot_callout>
    9c24:	eb0000c1 	bl	9f30 <uart_flush_tx>
    9c28:	e3a0000a 	mov	r0, #10, 0
    9c2c:	eb000028 	bl	9cd4 <delay_ms>
    9c30:	e59f1014 	ldr	r1, [pc, #20]	; 9c4c <rpi_reboot+0x50>
    9c34:	e59f0014 	ldr	r0, [pc, #20]	; 9c50 <rpi_reboot+0x54>
    9c38:	ebfff8f9 	bl	8024 <PUT32>
    9c3c:	e59f1010 	ldr	r1, [pc, #16]	; 9c54 <rpi_reboot+0x58>
    9c40:	e59f0010 	ldr	r0, [pc, #16]	; 9c58 <rpi_reboot+0x5c>
    9c44:	ebfff8f6 	bl	8024 <PUT32>
    9c48:	eafffffe 	b	9c48 <rpi_reboot+0x4c>
    9c4c:	5a000001 	bpl	9c58 <rpi_reboot+0x5c>
    9c50:	20100024 	andscs	r0, r0, r4, lsr #32
    9c54:	5a000020 	bpl	9cdc <delay_ms+0x8>
    9c58:	2010001c 	andscs	r0, r0, ip, lsl r0

00009c5c <timer_get_usec_raw>:
    9c5c:	e59f0000 	ldr	r0, [pc]	; 9c64 <timer_get_usec_raw+0x8>
    9c60:	eafff8f1 	b	802c <GET32>
    9c64:	20003004 	andcs	r3, r0, r4

00009c68 <timer_get_usec>:
    9c68:	e92d4010 	push	{r4, lr}
    9c6c:	eb00024d 	bl	a5a8 <dev_barrier>
    9c70:	e59f0010 	ldr	r0, [pc, #16]	; 9c88 <timer_get_usec+0x20>
    9c74:	ebfff8ec 	bl	802c <GET32>
    9c78:	e1a04000 	mov	r4, r0
    9c7c:	eb000249 	bl	a5a8 <dev_barrier>
    9c80:	e1a00004 	mov	r0, r4
    9c84:	e8bd8010 	pop	{r4, pc}
    9c88:	20003004 	andcs	r3, r0, r4

00009c8c <delay_us>:
    9c8c:	e92d41f0 	push	{r4, r5, r6, r7, r8, lr}
    9c90:	e1a06000 	mov	r6, r0
    9c94:	eb000243 	bl	a5a8 <dev_barrier>
    9c98:	e59f0030 	ldr	r0, [pc, #48]	; 9cd0 <delay_us+0x44>
    9c9c:	ebfff8e2 	bl	802c <GET32>
    9ca0:	e1a05000 	mov	r5, r0
    9ca4:	eb00023f 	bl	a5a8 <dev_barrier>
    9ca8:	e59f7020 	ldr	r7, [pc, #32]	; 9cd0 <delay_us+0x44>
    9cac:	eb00023d 	bl	a5a8 <dev_barrier>
    9cb0:	e1a00007 	mov	r0, r7
    9cb4:	ebfff8dc 	bl	802c <GET32>
    9cb8:	e1a04000 	mov	r4, r0
    9cbc:	e0444005 	sub	r4, r4, r5
    9cc0:	eb000238 	bl	a5a8 <dev_barrier>
    9cc4:	e1540006 	cmp	r4, r6
    9cc8:	3afffff7 	bcc	9cac <delay_us+0x20>
    9ccc:	e8bd81f0 	pop	{r4, r5, r6, r7, r8, pc}
    9cd0:	20003004 	andcs	r3, r0, r4

00009cd4 <delay_ms>:
    9cd4:	e92d41f0 	push	{r4, r5, r6, r7, r8, lr}
    9cd8:	e0604280 	rsb	r4, r0, r0, lsl #5
    9cdc:	e0800104 	add	r0, r0, r4, lsl #2
    9ce0:	e1a04180 	lsl	r4, r0, #3
    9ce4:	eb00022f 	bl	a5a8 <dev_barrier>
    9ce8:	e59f0030 	ldr	r0, [pc, #48]	; 9d20 <delay_ms+0x4c>
    9cec:	ebfff8ce 	bl	802c <GET32>
    9cf0:	e1a06000 	mov	r6, r0
    9cf4:	eb00022b 	bl	a5a8 <dev_barrier>
    9cf8:	e59f7020 	ldr	r7, [pc, #32]	; 9d20 <delay_ms+0x4c>
    9cfc:	eb000229 	bl	a5a8 <dev_barrier>
    9d00:	e1a00007 	mov	r0, r7
    9d04:	ebfff8c8 	bl	802c <GET32>
    9d08:	e1a05000 	mov	r5, r0
    9d0c:	e0455006 	sub	r5, r5, r6
    9d10:	eb000224 	bl	a5a8 <dev_barrier>
    9d14:	e1540005 	cmp	r4, r5
    9d18:	8afffff7 	bhi	9cfc <delay_ms+0x28>
    9d1c:	e8bd81f0 	pop	{r4, r5, r6, r7, r8, pc}
    9d20:	20003004 	andcs	r3, r0, r4

00009d24 <delay_sec>:
    9d24:	e92d41f0 	push	{r4, r5, r6, r7, r8, lr}
    9d28:	e0604280 	rsb	r4, r0, r0, lsl #5
    9d2c:	e0644304 	rsb	r4, r4, r4, lsl #6
    9d30:	e0800184 	add	r0, r0, r4, lsl #3
    9d34:	e1a04300 	lsl	r4, r0, #6
    9d38:	eb00021a 	bl	a5a8 <dev_barrier>
    9d3c:	e59f0030 	ldr	r0, [pc, #48]	; 9d74 <delay_sec+0x50>
    9d40:	ebfff8b9 	bl	802c <GET32>
    9d44:	e1a06000 	mov	r6, r0
    9d48:	eb000216 	bl	a5a8 <dev_barrier>
    9d4c:	e59f7020 	ldr	r7, [pc, #32]	; 9d74 <delay_sec+0x50>
    9d50:	eb000214 	bl	a5a8 <dev_barrier>
    9d54:	e1a00007 	mov	r0, r7
    9d58:	ebfff8b3 	bl	802c <GET32>
    9d5c:	e1a05000 	mov	r5, r0
    9d60:	e0455006 	sub	r5, r5, r6
    9d64:	eb00020f 	bl	a5a8 <dev_barrier>
    9d68:	e1540005 	cmp	r4, r5
    9d6c:	8afffff7 	bhi	9d50 <delay_sec+0x2c>
    9d70:	e8bd81f0 	pop	{r4, r5, r6, r7, r8, pc}
    9d74:	20003004 	andcs	r3, r0, r4

00009d78 <and_in32>:
    9d78:	e92d4070 	push	{r4, r5, r6, lr}
    9d7c:	e1a04000 	mov	r4, r0
    9d80:	e1a05001 	mov	r5, r1
    9d84:	ebfff8a8 	bl	802c <GET32>
    9d88:	e0001005 	and	r1, r0, r5
    9d8c:	e1a00004 	mov	r0, r4
    9d90:	ebfff8a3 	bl	8024 <PUT32>
    9d94:	e8bd8070 	pop	{r4, r5, r6, pc}

00009d98 <or_in32>:
    9d98:	e92d4070 	push	{r4, r5, r6, lr}
    9d9c:	e1a04000 	mov	r4, r0
    9da0:	e1a05001 	mov	r5, r1
    9da4:	ebfff8a0 	bl	802c <GET32>
    9da8:	e1801005 	orr	r1, r0, r5
    9dac:	e1a00004 	mov	r0, r4
    9db0:	ebfff89b 	bl	8024 <PUT32>
    9db4:	e8bd8070 	pop	{r4, r5, r6, pc}

00009db8 <uart_init>:
    9db8:	e92d4010 	push	{r4, lr}
    9dbc:	e3a01002 	mov	r1, #2, 0
    9dc0:	e3a0000e 	mov	r0, #14, 0
    9dc4:	eb000153 	bl	a318 <gpio_set_function>
    9dc8:	e3a01002 	mov	r1, #2, 0
    9dcc:	e3a0000f 	mov	r0, #15, 0
    9dd0:	eb000150 	bl	a318 <gpio_set_function>
    9dd4:	eb0001f3 	bl	a5a8 <dev_barrier>
    9dd8:	e3a01001 	mov	r1, #1, 0
    9ddc:	e59f0064 	ldr	r0, [pc, #100]	; 9e48 <uart_init+0x90>
    9de0:	ebffffec 	bl	9d98 <or_in32>
    9de4:	eb0001ef 	bl	a5a8 <dev_barrier>
    9de8:	e59f405c 	ldr	r4, [pc, #92]	; 9e4c <uart_init+0x94>
    9dec:	e3a01000 	mov	r1, #0, 0
    9df0:	e1a00004 	mov	r0, r4
    9df4:	ebfff88a 	bl	8024 <PUT32>
    9df8:	e3a01000 	mov	r1, #0, 0
    9dfc:	e59f004c 	ldr	r0, [pc, #76]	; 9e50 <uart_init+0x98>
    9e00:	ebfff887 	bl	8024 <PUT32>
    9e04:	e3a01003 	mov	r1, #3, 0
    9e08:	e59f0044 	ldr	r0, [pc, #68]	; 9e54 <uart_init+0x9c>
    9e0c:	ebfff884 	bl	8024 <PUT32>
    9e10:	e3a01000 	mov	r1, #0, 0
    9e14:	e59f003c 	ldr	r0, [pc, #60]	; 9e58 <uart_init+0xa0>
    9e18:	ebfff881 	bl	8024 <PUT32>
    9e1c:	e3a010c7 	mov	r1, #199, 0	; 0xc7
    9e20:	e59f0034 	ldr	r0, [pc, #52]	; 9e5c <uart_init+0xa4>
    9e24:	ebfff87e 	bl	8024 <PUT32>
    9e28:	e59f1030 	ldr	r1, [pc, #48]	; 9e60 <uart_init+0xa8>
    9e2c:	e59f0030 	ldr	r0, [pc, #48]	; 9e64 <uart_init+0xac>
    9e30:	ebfff87b 	bl	8024 <PUT32>
    9e34:	e3a01003 	mov	r1, #3, 0
    9e38:	e1a00004 	mov	r0, r4
    9e3c:	ebfff878 	bl	8024 <PUT32>
    9e40:	eb0001d8 	bl	a5a8 <dev_barrier>
    9e44:	e8bd8010 	pop	{r4, pc}
    9e48:	20215004 	eorcs	r5, r1, r4
    9e4c:	20215060 	eorcs	r5, r1, r0, rrx
    9e50:	20215044 	eorcs	r5, r1, r4, asr #32
    9e54:	2021504c 	eorcs	r5, r1, ip, asr #32
    9e58:	20215050 	eorcs	r5, r1, r0, asr r0
    9e5c:	20215048 	eorcs	r5, r1, r8, asr #32
    9e60:	0000010e 	andeq	r0, r0, lr, lsl #2
    9e64:	20215068 	eorcs	r5, r1, r8, rrx

00009e68 <uart_can_getc>:
    9e68:	e92d4010 	push	{r4, lr}
    9e6c:	e59f0008 	ldr	r0, [pc, #8]	; 9e7c <uart_can_getc+0x14>
    9e70:	ebfff86d 	bl	802c <GET32>
    9e74:	e2000001 	and	r0, r0, #1, 0
    9e78:	e8bd8010 	pop	{r4, pc}
    9e7c:	20215064 	eorcs	r5, r1, r4, rrx

00009e80 <uart_can_putc>:
    9e80:	e92d4010 	push	{r4, lr}
    9e84:	e59f0010 	ldr	r0, [pc, #16]	; 9e9c <uart_can_putc+0x1c>
    9e88:	ebfff867 	bl	802c <GET32>
    9e8c:	e3100002 	tst	r0, #2, 0
    9e90:	13a00001 	movne	r0, #1, 0
    9e94:	03a00000 	moveq	r0, #0, 0
    9e98:	e8bd8010 	pop	{r4, pc}
    9e9c:	20215064 	eorcs	r5, r1, r4, rrx

00009ea0 <uart_getc>:
    9ea0:	e92d4010 	push	{r4, lr}
    9ea4:	eb0001bf 	bl	a5a8 <dev_barrier>
    9ea8:	ebffffee 	bl	9e68 <uart_can_getc>
    9eac:	e3500000 	cmp	r0, #0, 0
    9eb0:	0afffffc 	beq	9ea8 <uart_getc+0x8>
    9eb4:	e59f0010 	ldr	r0, [pc, #16]	; 9ecc <uart_getc+0x2c>
    9eb8:	ebfff85b 	bl	802c <GET32>
    9ebc:	e6ef4070 	uxtb	r4, r0
    9ec0:	eb0001b8 	bl	a5a8 <dev_barrier>
    9ec4:	e1a00004 	mov	r0, r4
    9ec8:	e8bd8010 	pop	{r4, pc}
    9ecc:	20215040 	eorcs	r5, r1, r0, asr #32

00009ed0 <uart_putc>:
    9ed0:	e92d4010 	push	{r4, lr}
    9ed4:	e1a04000 	mov	r4, r0
    9ed8:	eb0001b2 	bl	a5a8 <dev_barrier>
    9edc:	ebffffe7 	bl	9e80 <uart_can_putc>
    9ee0:	e3500000 	cmp	r0, #0, 0
    9ee4:	0afffffc 	beq	9edc <uart_putc+0xc>
    9ee8:	e6ef1074 	uxtb	r1, r4
    9eec:	e59f0008 	ldr	r0, [pc, #8]	; 9efc <uart_putc+0x2c>
    9ef0:	ebfff84b 	bl	8024 <PUT32>
    9ef4:	eb0001ab 	bl	a5a8 <dev_barrier>
    9ef8:	e8bd8010 	pop	{r4, pc}
    9efc:	20215040 	eorcs	r5, r1, r0, asr #32

00009f00 <uart_has_data>:
    9f00:	e92d4010 	push	{r4, lr}
    9f04:	eb0001a7 	bl	a5a8 <dev_barrier>
    9f08:	ebffffd6 	bl	9e68 <uart_can_getc>
    9f0c:	e8bd8010 	pop	{r4, pc}

00009f10 <uart_tx_is_empty>:
    9f10:	e92d4010 	push	{r4, lr}
    9f14:	eb0001a3 	bl	a5a8 <dev_barrier>
    9f18:	e59f000c 	ldr	r0, [pc, #12]	; 9f2c <uart_tx_is_empty+0x1c>
    9f1c:	ebfff842 	bl	802c <GET32>
    9f20:	e1a004a0 	lsr	r0, r0, #9
    9f24:	e2000001 	and	r0, r0, #1, 0
    9f28:	e8bd8010 	pop	{r4, pc}
    9f2c:	20215064 	eorcs	r5, r1, r4, rrx

00009f30 <uart_flush_tx>:
    9f30:	e92d4010 	push	{r4, lr}
    9f34:	ebfffff5 	bl	9f10 <uart_tx_is_empty>
    9f38:	e3500000 	cmp	r0, #0, 0
    9f3c:	0afffffc 	beq	9f34 <uart_flush_tx+0x4>
    9f40:	e8bd8010 	pop	{r4, pc}

00009f44 <uart_disable>:
    9f44:	e92d4010 	push	{r4, lr}
    9f48:	ebfffff8 	bl	9f30 <uart_flush_tx>
    9f4c:	eb000195 	bl	a5a8 <dev_barrier>
    9f50:	e3e01001 	mvn	r1, #1, 0
    9f54:	e59f0008 	ldr	r0, [pc, #8]	; 9f64 <uart_disable+0x20>
    9f58:	ebffff86 	bl	9d78 <and_in32>
    9f5c:	eb000191 	bl	a5a8 <dev_barrier>
    9f60:	e8bd8010 	pop	{r4, pc}
    9f64:	20215004 	eorcs	r5, r1, r4

00009f68 <kmalloc_heap_end>:
    9f68:	e59f3004 	ldr	r3, [pc, #4]	; 9f74 <kmalloc_heap_end+0xc>
    9f6c:	e5930000 	ldr	r0, [r3]
    9f70:	e12fff1e 	bx	lr
    9f74:	0000aeb8 			; <UNDEFINED> instruction: 0x0000aeb8

00009f78 <kmalloc_heap_start>:
    9f78:	e59f3004 	ldr	r3, [pc, #4]	; 9f84 <kmalloc_heap_start+0xc>
    9f7c:	e5930004 	ldr	r0, [r3, #4]
    9f80:	e12fff1e 	bx	lr
    9f84:	0000aeb8 			; <UNDEFINED> instruction: 0x0000aeb8

00009f88 <kmalloc_heap_ptr>:
    9f88:	e59f3004 	ldr	r3, [pc, #4]	; 9f94 <kmalloc_heap_ptr+0xc>
    9f8c:	e5930008 	ldr	r0, [r3, #8]
    9f90:	e12fff1e 	bx	lr
    9f94:	0000aeb8 			; <UNDEFINED> instruction: 0x0000aeb8

00009f98 <kmalloc_init_set_start>:
    9f98:	e52de004 	push	{lr}		; (str lr, [sp, #-4]!)
    9f9c:	e24dd00c 	sub	sp, sp, #12, 0
    9fa0:	e3510000 	cmp	r1, #0, 0
    9fa4:	0a00000a 	beq	9fd4 <kmalloc_init_set_start+0x3c>
    9fa8:	e59f306c 	ldr	r3, [pc, #108]	; a01c <kmalloc_init_set_start+0x84>
    9fac:	e5933008 	ldr	r3, [r3, #8]
    9fb0:	e1530000 	cmp	r3, r0
    9fb4:	8a00000e 	bhi	9ff4 <kmalloc_init_set_start+0x5c>
    9fb8:	e59f305c 	ldr	r3, [pc, #92]	; a01c <kmalloc_init_set_start+0x84>
    9fbc:	e5830008 	str	r0, [r3, #8]
    9fc0:	e5830004 	str	r0, [r3, #4]
    9fc4:	e0800001 	add	r0, r0, r1
    9fc8:	e5830000 	str	r0, [r3]
    9fcc:	e28dd00c 	add	sp, sp, #12, 0
    9fd0:	e49df004 	pop	{pc}		; (ldr pc, [sp], #4)
    9fd4:	e59f3044 	ldr	r3, [pc, #68]	; a020 <kmalloc_init_set_start+0x88>
    9fd8:	e58d3000 	str	r3, [sp]
    9fdc:	e3a03030 	mov	r3, #48, 0	; 0x30
    9fe0:	e59f203c 	ldr	r2, [pc, #60]	; a024 <kmalloc_init_set_start+0x8c>
    9fe4:	e59f103c 	ldr	r1, [pc, #60]	; a028 <kmalloc_init_set_start+0x90>
    9fe8:	e59f003c 	ldr	r0, [pc, #60]	; a02c <kmalloc_init_set_start+0x94>
    9fec:	ebfffc10 	bl	9034 <printk>
    9ff0:	ebfffea0 	bl	9a78 <clean_reboot>
    9ff4:	e59f3020 	ldr	r3, [pc, #32]	; a01c <kmalloc_init_set_start+0x84>
    9ff8:	e5933000 	ldr	r3, [r3]
    9ffc:	e58d3004 	str	r3, [sp, #4]
    a000:	e58d0000 	str	r0, [sp]
    a004:	e3a03034 	mov	r3, #52, 0	; 0x34
    a008:	e59f2014 	ldr	r2, [pc, #20]	; a024 <kmalloc_init_set_start+0x8c>
    a00c:	e59f1014 	ldr	r1, [pc, #20]	; a028 <kmalloc_init_set_start+0x90>
    a010:	e59f0018 	ldr	r0, [pc, #24]	; a030 <kmalloc_init_set_start+0x98>
    a014:	ebfffc06 	bl	9034 <printk>
    a018:	ebfffe96 	bl	9a78 <clean_reboot>
    a01c:	0000aeb8 			; <UNDEFINED> instruction: 0x0000aeb8
    a020:	0000acc4 	andeq	sl, r0, r4, asr #25
    a024:	0000ae50 	andeq	sl, r0, r0, asr lr
    a028:	0000acb8 			; <UNDEFINED> instruction: 0x0000acb8
    a02c:	0000a5dc 	ldrdeq	sl, [r0], -ip
    a030:	0000acd0 	ldrdeq	sl, [r0], -r0

0000a034 <kmalloc_init>:
    a034:	e92d4010 	push	{r4, lr}
    a038:	e59f303c 	ldr	r3, [pc, #60]	; a07c <kmalloc_init+0x48>
    a03c:	e5933000 	ldr	r3, [r3]
    a040:	e3530000 	cmp	r3, #0, 0
    a044:	1a000006 	bne	a064 <kmalloc_init+0x30>
    a048:	e59f302c 	ldr	r3, [pc, #44]	; a07c <kmalloc_init+0x48>
    a04c:	e3a02001 	mov	r2, #1, 0
    a050:	e5832000 	str	r2, [r3]
    a054:	e3a01201 	mov	r1, #268435456	; 0x10000000
    a058:	e3a00601 	mov	r0, #1048576	; 0x100000
    a05c:	ebffffcd 	bl	9f98 <kmalloc_init_set_start>
    a060:	e8bd8010 	pop	{r4, pc}
    a064:	e3a03040 	mov	r3, #64, 0	; 0x40
    a068:	e59f2010 	ldr	r2, [pc, #16]	; a080 <kmalloc_init+0x4c>
    a06c:	e59f1010 	ldr	r1, [pc, #16]	; a084 <kmalloc_init+0x50>
    a070:	e59f0010 	ldr	r0, [pc, #16]	; a088 <kmalloc_init+0x54>
    a074:	ebfffbee 	bl	9034 <printk>
    a078:	ebfffe7e 	bl	9a78 <clean_reboot>
    a07c:	0000b2f0 	strdeq	fp, [r0], -r0
    a080:	0000ae68 	andeq	sl, r0, r8, ror #28
    a084:	0000acb8 			; <UNDEFINED> instruction: 0x0000acb8
    a088:	0000ad14 	andeq	sl, r0, r4, lsl sp

0000a08c <kmalloc_notzero>:
    a08c:	e52de004 	push	{lr}		; (str lr, [sp, #-4]!)
    a090:	e24dd00c 	sub	sp, sp, #12, 0
    a094:	e3500000 	cmp	r0, #0, 0
    a098:	0a00000a 	beq	a0c8 <kmalloc_notzero+0x3c>
    a09c:	e2800007 	add	r0, r0, #7, 0
    a0a0:	e3c03007 	bic	r3, r0, #7, 0
    a0a4:	e59f2060 	ldr	r2, [pc, #96]	; a10c <kmalloc_notzero+0x80>
    a0a8:	e5920008 	ldr	r0, [r2, #8]
    a0ac:	e0801003 	add	r1, r0, r3
    a0b0:	e5821008 	str	r1, [r2, #8]
    a0b4:	e5922000 	ldr	r2, [r2]
    a0b8:	e1510002 	cmp	r1, r2
    a0bc:	8a000009 	bhi	a0e8 <kmalloc_notzero+0x5c>
    a0c0:	e28dd00c 	add	sp, sp, #12, 0
    a0c4:	e49df004 	pop	{pc}		; (ldr pc, [sp], #4)
    a0c8:	e59f3040 	ldr	r3, [pc, #64]	; a110 <kmalloc_notzero+0x84>
    a0cc:	e58d3000 	str	r3, [sp]
    a0d0:	e3a03048 	mov	r3, #72, 0	; 0x48
    a0d4:	e59f2038 	ldr	r2, [pc, #56]	; a114 <kmalloc_notzero+0x88>
    a0d8:	e59f1038 	ldr	r1, [pc, #56]	; a118 <kmalloc_notzero+0x8c>
    a0dc:	e59f0038 	ldr	r0, [pc, #56]	; a11c <kmalloc_notzero+0x90>
    a0e0:	ebfffbd3 	bl	9034 <printk>
    a0e4:	ebfffe63 	bl	9a78 <clean_reboot>
    a0e8:	e0422000 	sub	r2, r2, r0
    a0ec:	e58d2004 	str	r2, [sp, #4]
    a0f0:	e58d3000 	str	r3, [sp]
    a0f4:	e3a0304e 	mov	r3, #78, 0	; 0x4e
    a0f8:	e59f2014 	ldr	r2, [pc, #20]	; a114 <kmalloc_notzero+0x88>
    a0fc:	e59f1014 	ldr	r1, [pc, #20]	; a118 <kmalloc_notzero+0x8c>
    a100:	e59f0018 	ldr	r0, [pc, #24]	; a120 <kmalloc_notzero+0x94>
    a104:	ebfffbca 	bl	9034 <printk>
    a108:	ebfffe5a 	bl	9a78 <clean_reboot>
    a10c:	0000aeb8 			; <UNDEFINED> instruction: 0x0000aeb8
    a110:	0000acc8 	andeq	sl, r0, r8, asr #25
    a114:	0000ae78 	andeq	sl, r0, r8, ror lr
    a118:	0000acb8 			; <UNDEFINED> instruction: 0x0000acb8
    a11c:	0000a5dc 	ldrdeq	sl, [r0], -ip
    a120:	0000ad44 	andeq	sl, r0, r4, asr #26

0000a124 <kmalloc>:
    a124:	e92d4030 	push	{r4, r5, lr}
    a128:	e24dd00c 	sub	sp, sp, #12, 0
    a12c:	e2504000 	subs	r4, r0, #0, 0
    a130:	0a000008 	beq	a158 <kmalloc+0x34>
    a134:	e1a00004 	mov	r0, r4
    a138:	ebffffd3 	bl	a08c <kmalloc_notzero>
    a13c:	e1a05000 	mov	r5, r0
    a140:	e1a02004 	mov	r2, r4
    a144:	e3a01000 	mov	r1, #0, 0
    a148:	ebfffb9b 	bl	8fbc <memset>
    a14c:	e1a00005 	mov	r0, r5
    a150:	e28dd00c 	add	sp, sp, #12, 0
    a154:	e8bd8030 	pop	{r4, r5, pc}
    a158:	e59f3018 	ldr	r3, [pc, #24]	; a178 <kmalloc+0x54>
    a15c:	e58d3000 	str	r3, [sp]
    a160:	e3a03054 	mov	r3, #84, 0	; 0x54
    a164:	e59f2010 	ldr	r2, [pc, #16]	; a17c <kmalloc+0x58>
    a168:	e59f1010 	ldr	r1, [pc, #16]	; a180 <kmalloc+0x5c>
    a16c:	e59f0010 	ldr	r0, [pc, #16]	; a184 <kmalloc+0x60>
    a170:	ebfffbaf 	bl	9034 <printk>
    a174:	ebfffe3f 	bl	9a78 <clean_reboot>
    a178:	0000acc8 	andeq	sl, r0, r8, asr #25
    a17c:	0000ae88 	andeq	sl, r0, r8, lsl #29
    a180:	0000acb8 			; <UNDEFINED> instruction: 0x0000acb8
    a184:	0000a5dc 	ldrdeq	sl, [r0], -ip

0000a188 <kmalloc_aligned>:
    a188:	e52de004 	push	{lr}		; (str lr, [sp, #-4]!)
    a18c:	e24dd00c 	sub	sp, sp, #12, 0
    a190:	e3500000 	cmp	r0, #0, 0
    a194:	0a000014 	beq	a1ec <kmalloc_aligned+0x64>
    a198:	e2613000 	rsb	r3, r1, #0, 0
    a19c:	e1d13003 	bics	r3, r1, r3
    a1a0:	1a000019 	bne	a20c <kmalloc_aligned+0x84>
    a1a4:	e3510008 	cmp	r1, #8, 0
    a1a8:	33a01008 	movcc	r1, #8, 0
    a1ac:	e59f30c0 	ldr	r3, [pc, #192]	; a274 <kmalloc_aligned+0xec>
    a1b0:	e5932008 	ldr	r2, [r3, #8]
    a1b4:	e2613000 	rsb	r3, r1, #0, 0
    a1b8:	e1d1c003 	bics	ip, r1, r3
    a1bc:	1a00001b 	bne	a230 <kmalloc_aligned+0xa8>
    a1c0:	e0822001 	add	r2, r2, r1
    a1c4:	e2422001 	sub	r2, r2, #1, 0
    a1c8:	e0033002 	and	r3, r3, r2
    a1cc:	e2411001 	sub	r1, r1, #1, 0
    a1d0:	e1110003 	tst	r1, r3
    a1d4:	1a00001d 	bne	a250 <kmalloc_aligned+0xc8>
    a1d8:	e59f2094 	ldr	r2, [pc, #148]	; a274 <kmalloc_aligned+0xec>
    a1dc:	e5823008 	str	r3, [r2, #8]
    a1e0:	ebffffcf 	bl	a124 <kmalloc>
    a1e4:	e28dd00c 	add	sp, sp, #12, 0
    a1e8:	e49df004 	pop	{pc}		; (ldr pc, [sp], #4)
    a1ec:	e59f3084 	ldr	r3, [pc, #132]	; a278 <kmalloc_aligned+0xf0>
    a1f0:	e58d3000 	str	r3, [sp]
    a1f4:	e3a0305f 	mov	r3, #95, 0	; 0x5f
    a1f8:	e59f207c 	ldr	r2, [pc, #124]	; a27c <kmalloc_aligned+0xf4>
    a1fc:	e59f107c 	ldr	r1, [pc, #124]	; a280 <kmalloc_aligned+0xf8>
    a200:	e59f007c 	ldr	r0, [pc, #124]	; a284 <kmalloc_aligned+0xfc>
    a204:	ebfffb8a 	bl	9034 <printk>
    a208:	ebfffe1a 	bl	9a78 <clean_reboot>
    a20c:	eb0000ac 	bl	a4c4 <rpi_reset_putc>
    a210:	e59f3070 	ldr	r3, [pc, #112]	; a288 <kmalloc_aligned+0x100>
    a214:	e58d3000 	str	r3, [sp]
    a218:	e3a03060 	mov	r3, #96, 0	; 0x60
    a21c:	e59f2058 	ldr	r2, [pc, #88]	; a27c <kmalloc_aligned+0xf4>
    a220:	e59f1058 	ldr	r1, [pc, #88]	; a280 <kmalloc_aligned+0xf8>
    a224:	e59f0060 	ldr	r0, [pc, #96]	; a28c <kmalloc_aligned+0x104>
    a228:	ebfffb81 	bl	9034 <printk>
    a22c:	ebfffe11 	bl	9a78 <clean_reboot>
    a230:	e59f3058 	ldr	r3, [pc, #88]	; a290 <kmalloc_aligned+0x108>
    a234:	e58d3000 	str	r3, [sp]
    a238:	e3a03011 	mov	r3, #17, 0
    a23c:	e59f2050 	ldr	r2, [pc, #80]	; a294 <kmalloc_aligned+0x10c>
    a240:	e59f1038 	ldr	r1, [pc, #56]	; a280 <kmalloc_aligned+0xf8>
    a244:	e59f0038 	ldr	r0, [pc, #56]	; a284 <kmalloc_aligned+0xfc>
    a248:	ebfffb79 	bl	9034 <printk>
    a24c:	ebfffe09 	bl	9a78 <clean_reboot>
    a250:	eb00009b 	bl	a4c4 <rpi_reset_putc>
    a254:	e59f303c 	ldr	r3, [pc, #60]	; a298 <kmalloc_aligned+0x110>
    a258:	e58d3000 	str	r3, [sp]
    a25c:	e3a03068 	mov	r3, #104, 0	; 0x68
    a260:	e59f2014 	ldr	r2, [pc, #20]	; a27c <kmalloc_aligned+0xf4>
    a264:	e59f1014 	ldr	r1, [pc, #20]	; a280 <kmalloc_aligned+0xf8>
    a268:	e59f002c 	ldr	r0, [pc, #44]	; a29c <kmalloc_aligned+0x114>
    a26c:	ebfffb70 	bl	9034 <printk>
    a270:	ebfffe00 	bl	9a78 <clean_reboot>
    a274:	0000aeb8 			; <UNDEFINED> instruction: 0x0000aeb8
    a278:	0000acc8 	andeq	sl, r0, r8, asr #25
    a27c:	0000ae90 	muleq	r0, r0, lr
    a280:	0000acb8 			; <UNDEFINED> instruction: 0x0000acb8
    a284:	0000a5dc 	ldrdeq	sl, [r0], -ip
    a288:	0000adb8 			; <UNDEFINED> instruction: 0x0000adb8
    a28c:	0000ad84 	andeq	sl, r0, r4, lsl #27
    a290:	0000adcc 	andeq	sl, r0, ip, asr #27
    a294:	0000aea0 	andeq	sl, r0, r0, lsr #29
    a298:	0000ae04 	andeq	sl, r0, r4, lsl #28
    a29c:	0000add8 	ldrdeq	sl, [r0], -r8

0000a2a0 <kfree>:
    a2a0:	e12fff1e 	bx	lr

0000a2a4 <kfree_all>:
    a2a4:	e59f3008 	ldr	r3, [pc, #8]	; a2b4 <kfree_all+0x10>
    a2a8:	e5932004 	ldr	r2, [r3, #4]
    a2ac:	e5832008 	str	r2, [r3, #8]
    a2b0:	e12fff1e 	bx	lr
    a2b4:	0000aeb8 			; <UNDEFINED> instruction: 0x0000aeb8

0000a2b8 <kfree_pop>:
    a2b8:	e59f3048 	ldr	r3, [pc, #72]	; a308 <kfree_pop+0x50>
    a2bc:	e5933004 	ldr	r3, [r3, #4]
    a2c0:	e1530000 	cmp	r3, r0
    a2c4:	8a000006 	bhi	a2e4 <kfree_pop+0x2c>
    a2c8:	e59f3038 	ldr	r3, [pc, #56]	; a308 <kfree_pop+0x50>
    a2cc:	e5933000 	ldr	r3, [r3]
    a2d0:	e1530000 	cmp	r3, r0
    a2d4:	3a000002 	bcc	a2e4 <kfree_pop+0x2c>
    a2d8:	e59f3028 	ldr	r3, [pc, #40]	; a308 <kfree_pop+0x50>
    a2dc:	e5830008 	str	r0, [r3, #8]
    a2e0:	e12fff1e 	bx	lr
    a2e4:	e52de004 	push	{lr}		; (str lr, [sp, #-4]!)
    a2e8:	e24dd00c 	sub	sp, sp, #12, 0
    a2ec:	e58d0000 	str	r0, [sp]
    a2f0:	e3a03077 	mov	r3, #119, 0	; 0x77
    a2f4:	e59f2010 	ldr	r2, [pc, #16]	; a30c <kfree_pop+0x54>
    a2f8:	e59f1010 	ldr	r1, [pc, #16]	; a310 <kfree_pop+0x58>
    a2fc:	e59f0010 	ldr	r0, [pc, #16]	; a314 <kfree_pop+0x5c>
    a300:	ebfffb4b 	bl	9034 <printk>
    a304:	ebfffddb 	bl	9a78 <clean_reboot>
    a308:	0000aeb8 			; <UNDEFINED> instruction: 0x0000aeb8
    a30c:	0000aea8 	andeq	sl, r0, r8, lsr #29
    a310:	0000acb8 			; <UNDEFINED> instruction: 0x0000acb8
    a314:	0000ae20 	andeq	sl, r0, r0, lsr #28

0000a318 <gpio_set_function>:
    a318:	e350001f 	cmp	r0, #31, 0
    a31c:	812fff1e 	bxhi	lr
    a320:	e3d13007 	bics	r3, r1, #7, 0
    a324:	e92d4070 	push	{r4, r5, r6, lr}
    a328:	e1a05001 	mov	r5, r1
    a32c:	18bd8070 	popne	{r4, r5, r6, pc}
    a330:	e59f403c 	ldr	r4, [pc, #60]	; a374 <gpio_set_function+0x5c>
    a334:	e0843094 	umull	r3, r4, r4, r0
    a338:	e1a041a4 	lsr	r4, r4, #3
    a33c:	e2843302 	add	r3, r4, #134217728	; 0x8000000
    a340:	e2833702 	add	r3, r3, #524288	; 0x80000
    a344:	e1a06103 	lsl	r6, r3, #2
    a348:	e0844104 	add	r4, r4, r4, lsl #2
    a34c:	e0404084 	sub	r4, r0, r4, lsl #1
    a350:	e1a00006 	mov	r0, r6
    a354:	ebfff734 	bl	802c <GET32>
    a358:	e3a01007 	mov	r1, #7, 0
    a35c:	e0844084 	add	r4, r4, r4, lsl #1
    a360:	e1c01411 	bic	r1, r0, r1, lsl r4
    a364:	e1811415 	orr	r1, r1, r5, lsl r4
    a368:	e1a00006 	mov	r0, r6
    a36c:	e8bd4070 	pop	{r4, r5, r6, lr}
    a370:	eafff72b 	b	8024 <PUT32>
    a374:	cccccccd 	stclgt	12, cr12, [ip], {205}	; 0xcd

0000a378 <gpio_set_output>:
    a378:	e350001f 	cmp	r0, #31, 0
    a37c:	812fff1e 	bxhi	lr
    a380:	e92d4070 	push	{r4, r5, r6, lr}
    a384:	e59f4040 	ldr	r4, [pc, #64]	; a3cc <gpio_set_output+0x54>
    a388:	e0843094 	umull	r3, r4, r4, r0
    a38c:	e1a041a4 	lsr	r4, r4, #3
    a390:	e2843302 	add	r3, r4, #134217728	; 0x8000000
    a394:	e2833702 	add	r3, r3, #524288	; 0x80000
    a398:	e1a05103 	lsl	r5, r3, #2
    a39c:	e0844104 	add	r4, r4, r4, lsl #2
    a3a0:	e0404084 	sub	r4, r0, r4, lsl #1
    a3a4:	e1a00005 	mov	r0, r5
    a3a8:	ebfff71f 	bl	802c <GET32>
    a3ac:	e3a03007 	mov	r3, #7, 0
    a3b0:	e3a01001 	mov	r1, #1, 0
    a3b4:	e0844084 	add	r4, r4, r4, lsl #1
    a3b8:	e1c03413 	bic	r3, r0, r3, lsl r4
    a3bc:	e1831411 	orr	r1, r3, r1, lsl r4
    a3c0:	e1a00005 	mov	r0, r5
    a3c4:	e8bd4070 	pop	{r4, r5, r6, lr}
    a3c8:	eafff715 	b	8024 <PUT32>
    a3cc:	cccccccd 	stclgt	12, cr12, [ip], {205}	; 0xcd

0000a3d0 <gpio_set_on>:
    a3d0:	e1a03000 	mov	r3, r0
    a3d4:	e3a01001 	mov	r1, #1, 0
    a3d8:	e59f0004 	ldr	r0, [pc, #4]	; a3e4 <gpio_set_on+0x14>
    a3dc:	e1a01311 	lsl	r1, r1, r3
    a3e0:	eafff70f 	b	8024 <PUT32>
    a3e4:	2020001c 	eorcs	r0, r0, ip, lsl r0

0000a3e8 <gpio_set_off>:
    a3e8:	e1a03000 	mov	r3, r0
    a3ec:	e3a01001 	mov	r1, #1, 0
    a3f0:	e59f0004 	ldr	r0, [pc, #4]	; a3fc <gpio_set_off+0x14>
    a3f4:	e1a01311 	lsl	r1, r1, r3
    a3f8:	eafff709 	b	8024 <PUT32>
    a3fc:	20200028 	eorcs	r0, r0, r8, lsr #32

0000a400 <gpio_set_input>:
    a400:	e350001f 	cmp	r0, #31, 0
    a404:	812fff1e 	bxhi	lr
    a408:	e92d4070 	push	{r4, r5, r6, lr}
    a40c:	e59f5040 	ldr	r5, [pc, #64]	; a454 <gpio_set_input+0x54>
    a410:	e1a04000 	mov	r4, r0
    a414:	e0853095 	umull	r3, r5, r5, r0
    a418:	e1a051a5 	lsr	r5, r5, #3
    a41c:	e2850302 	add	r0, r5, #134217728	; 0x8000000
    a420:	e2800702 	add	r0, r0, #524288	; 0x80000
    a424:	e1a06100 	lsl	r6, r0, #2
    a428:	e1a00006 	mov	r0, r6
    a42c:	ebfff6fe 	bl	802c <GET32>
    a430:	e3a01007 	mov	r1, #7, 0
    a434:	e1a03000 	mov	r3, r0
    a438:	e0855105 	add	r5, r5, r5, lsl #2
    a43c:	e0444085 	sub	r4, r4, r5, lsl #1
    a440:	e0844084 	add	r4, r4, r4, lsl #1
    a444:	e1a00006 	mov	r0, r6
    a448:	e1c31411 	bic	r1, r3, r1, lsl r4
    a44c:	e8bd4070 	pop	{r4, r5, r6, lr}
    a450:	eafff6f3 	b	8024 <PUT32>
    a454:	cccccccd 	stclgt	12, cr12, [ip], {205}	; 0xcd

0000a458 <gpio_write>:
    a458:	e3510000 	cmp	r1, #0, 0
    a45c:	e3a03001 	mov	r3, #1, 0
    a460:	e1a01000 	mov	r1, r0
    a464:	0a000002 	beq	a474 <gpio_write+0x1c>
    a468:	e59f0010 	ldr	r0, [pc, #16]	; a480 <gpio_write+0x28>
    a46c:	e1a01113 	lsl	r1, r3, r1
    a470:	eafff6eb 	b	8024 <PUT32>
    a474:	e59f0008 	ldr	r0, [pc, #8]	; a484 <gpio_write+0x2c>
    a478:	e1a01113 	lsl	r1, r3, r1
    a47c:	eafff6e8 	b	8024 <PUT32>
    a480:	2020001c 	eorcs	r0, r0, ip, lsl r0
    a484:	20200028 	eorcs	r0, r0, r8, lsr #32

0000a488 <gpio_read>:
    a488:	e92d4010 	push	{r4, lr}
    a48c:	e1a04000 	mov	r4, r0
    a490:	e59f0014 	ldr	r0, [pc, #20]	; a4ac <gpio_read+0x24>
    a494:	e08002a4 	add	r0, r0, r4, lsr #5
    a498:	ebfff6e3 	bl	802c <GET32>
    a49c:	e204401f 	and	r4, r4, #31, 0
    a4a0:	e1a00430 	lsr	r0, r0, r4
    a4a4:	e2000001 	and	r0, r0, #1, 0
    a4a8:	e8bd8010 	pop	{r4, pc}
    a4ac:	20200034 	eorcs	r0, r0, r4, lsr r0

0000a4b0 <internal_putchar>:
    a4b0:	e92d4010 	push	{r4, lr}
    a4b4:	e1a04000 	mov	r4, r0
    a4b8:	ebfffe84 	bl	9ed0 <uart_putc>
    a4bc:	e1a00004 	mov	r0, r4
    a4c0:	e8bd8010 	pop	{r4, pc}

0000a4c4 <rpi_reset_putc>:
    a4c4:	e59f3008 	ldr	r3, [pc, #8]	; a4d4 <rpi_reset_putc+0x10>
    a4c8:	e59f2008 	ldr	r2, [pc, #8]	; a4d8 <rpi_reset_putc+0x14>
    a4cc:	e5832000 	str	r2, [r3]
    a4d0:	e12fff1e 	bx	lr
    a4d4:	0000aec4 	andeq	sl, r0, r4, asr #29
    a4d8:	0000a4b0 			; <UNDEFINED> instruction: 0x0000a4b0

0000a4dc <rpi_set_putc>:
    a4dc:	e59f3004 	ldr	r3, [pc, #4]	; a4e8 <rpi_set_putc+0xc>
    a4e0:	e5830000 	str	r0, [r3]
    a4e4:	e12fff1e 	bx	lr
    a4e8:	0000aec4 	andeq	sl, r0, r4, asr #29

0000a4ec <strcat>:
    a4ec:	e1a02000 	mov	r2, r0
    a4f0:	e1a03002 	mov	r3, r2
    a4f4:	e4d2c001 	ldrb	ip, [r2], #1
    a4f8:	e35c0000 	cmp	ip, #0, 0
    a4fc:	1afffffb 	bne	a4f0 <strcat+0x4>
    a500:	e2433001 	sub	r3, r3, #1, 0
    a504:	e4d12001 	ldrb	r2, [r1], #1
    a508:	e3520000 	cmp	r2, #0, 0
    a50c:	e5e32001 	strb	r2, [r3, #1]!
    a510:	1afffffb 	bne	a504 <strcat+0x18>
    a514:	e12fff1e 	bx	lr

0000a518 <strcmp>:
    a518:	e5d03000 	ldrb	r3, [r0]
    a51c:	e3530000 	cmp	r3, #0, 0
    a520:	05d12000 	ldrbeq	r2, [r1]
    a524:	1a000003 	bne	a538 <strcmp+0x20>
    a528:	ea000006 	b	a548 <strcmp+0x30>
    a52c:	e5f03001 	ldrb	r3, [r0, #1]!
    a530:	e3530000 	cmp	r3, #0, 0
    a534:	0a000005 	beq	a550 <strcmp+0x38>
    a538:	e1a0c001 	mov	ip, r1
    a53c:	e4d12001 	ldrb	r2, [r1], #1
    a540:	e1520003 	cmp	r2, r3
    a544:	0afffff8 	beq	a52c <strcmp+0x14>
    a548:	e0430002 	sub	r0, r3, r2
    a54c:	e12fff1e 	bx	lr
    a550:	e5dc2001 	ldrb	r2, [ip, #1]
    a554:	e0430002 	sub	r0, r3, r2
    a558:	e12fff1e 	bx	lr

0000a55c <strcpy>:
    a55c:	e2402001 	sub	r2, r0, #1, 0
    a560:	e4d13001 	ldrb	r3, [r1], #1
    a564:	e3530000 	cmp	r3, #0, 0
    a568:	e5e23001 	strb	r3, [r2, #1]!
    a56c:	1afffffb 	bne	a560 <strcpy+0x4>
    a570:	e12fff1e 	bx	lr

0000a574 <strncmp>:
    a574:	e0802002 	add	r2, r0, r2
    a578:	ea000003 	b	a58c <strncmp+0x18>
    a57c:	e4d03001 	ldrb	r3, [r0], #1
    a580:	e4d1c001 	ldrb	ip, [r1], #1
    a584:	e153000c 	cmp	r3, ip
    a588:	1a000003 	bne	a59c <strncmp+0x28>
    a58c:	e1500002 	cmp	r0, r2
    a590:	1afffff9 	bne	a57c <strncmp+0x8>
    a594:	e3a00000 	mov	r0, #0, 0
    a598:	e12fff1e 	bx	lr
    a59c:	e043000c 	sub	r0, r3, ip
    a5a0:	e12fff1e 	bx	lr

0000a5a4 <reboot_callout>:
    a5a4:	e12fff1e 	bx	lr

0000a5a8 <dev_barrier>:
    a5a8:	ea000002 	b	a5b8 <dsb>

0000a5ac <dmb>:
    a5ac:	e3a00000 	mov	r0, #0, 0
    a5b0:	ee070fba 	mcr	15, 0, r0, cr7, cr10, {5}
    a5b4:	e12fff1e 	bx	lr

0000a5b8 <dsb>:
    a5b8:	ee070f9a 	mcr	15, 0, r0, cr7, cr10, {4}
    a5bc:	e12fff1e 	bx	lr

Disassembly of section .rodata:

0000a5c0 <__FUNCTION__.4057-0x158>:
    a5c0:	74736574 	ldrbtvc	r6, [r3], #-1396	; 0xfffffa8c
    a5c4:	2e322d73 	mrccs	13, 1, r2, cr2, cr3, {3}
    a5c8:	61702f30 	cmnvs	r0, r0, lsr pc
    a5cc:	2d327472 	cfldrscs	mvf7, [r2, #-456]!	; 0xfffffe38
    a5d0:	74736574 	ldrbtvc	r6, [r3], #-1396	; 0xfffffa8c
    a5d4:	63672d35 	cmnvs	r7, #3392	; 0xd40
    a5d8:	0000632e 	andeq	r6, r0, lr, lsr #6
    a5dc:	494e4150 	stmdbmi	lr, {r4, r6, r8, lr}^
    a5e0:	73253a43 			; <UNDEFINED> instruction: 0x73253a43
    a5e4:	3a73253a 	bcc	1cd3ad4 <__bss_end__+0x1cc87dc>
    a5e8:	253a6425 	ldrcs	r6, [sl, #-1061]!	; 0xfffffbdb
    a5ec:	00000a73 	andeq	r0, r0, r3, ror sl
    a5f0:	3e2d6821 	cdpcc	8, 2, cr6, cr13, cr1, {1}
    a5f4:	76657270 			; <UNDEFINED> instruction: 0x76657270
    a5f8:	00000000 	andeq	r0, r0, r0
    a5fc:	43415254 	movtmi	r5, #4692	; 0x1254
    a600:	61683a45 	cmnvs	r8, r5, asr #20
    a604:	61206576 			; <UNDEFINED> instruction: 0x61206576
    a608:	76696c20 	strbtvc	r6, [r9], -r0, lsr #24
    a60c:	6f702065 	svcvs	0x00702065
    a610:	65746e69 	ldrbvs	r6, [r4, #-3689]!	; 0xfffff197
    a614:	683c2072 	ldmdavs	ip!, {r1, r4, r5, r6, sp}
    a618:	73203a3e 			; <UNDEFINED> instruction: 0x73203a3e
    a61c:	6c756f68 	ldclvs	15, cr6, [r5], #-416	; 0xfffffe60
    a620:	6f6e2064 	svcvs	0x006e2064
    a624:	656c2074 	strbvs	r2, [ip, #-116]!	; 0xffffff8c
    a628:	000a6b61 	andeq	r6, sl, r1, ror #22
    a62c:	74204347 	strtvc	r4, [r0], #-839	; 0xfffffcb9
    a630:	3a747365 	bcc	1d273cc <__bss_end__+0x1d1c0d4>
    a634:	65686320 	strbvs	r6, [r8, #-800]!	; 0xfffffce0
    a638:	6e696b63 	vnmulvs.f64	d22, d9, d19
    a63c:	68742067 	ldmdavs	r4!, {r0, r1, r2, r5, r6, sp}^
    a640:	61207461 			; <UNDEFINED> instruction: 0x61207461
    a644:	756f6420 	strbvc	r6, [pc, #-1056]!	; a22c <kmalloc_aligned+0xa4>
    a648:	2d796c62 	ldclcs	12, cr6, [r9, #-392]!	; 0xfffffe78
    a64c:	6b6e696c 	blvs	1ba4c04 <__bss_end__+0x1b9990c>
    a650:	6c206465 	cfstrsvs	mvf6, [r0], #-404	; 0xfffffe6c
    a654:	20747369 	rsbscs	r7, r4, r9, ror #6
    a658:	68207369 	stmdavs	r0!, {r0, r3, r5, r6, r8, r9, ip, sp, lr}
    a65c:	6c646e61 	stclvs	14, cr6, [r4], #-388	; 0xfffffe7c
    a660:	0a2e6465 	beq	ba37fc <__bss_end__+0xb98504>
    a664:	00000000 	andeq	r0, r0, r0
    a668:	43415254 	movtmi	r5, #4692	; 0x1254
    a66c:	68733a45 	ldmdavs	r3!, {r0, r2, r6, r9, fp, ip, sp}^
    a670:	646c756f 	strbtvs	r7, [ip], #-1391	; 0xfffffa91
    a674:	61656c20 	cmnvs	r5, r0, lsr #24
    a678:	00000a6b 	andeq	r0, r0, fp, ror #20
    a67c:	43415254 	movtmi	r5, #4692	; 0x1254
    a680:	6f633a45 	svcvs	0x00633a45
    a684:	6361706d 	cmnvs	r1, #109, 0	; 0x6d
    a688:	20646574 	rsbcs	r6, r4, r4, ror r5
    a68c:	6e5b203d 	mrcvs	0, 2, r2, cr11, cr13, {1}
    a690:	65747962 	ldrbvs	r7, [r4, #-2402]!	; 0xfffff69e
    a694:	64253d73 	strtvs	r3, [r5], #-3443	; 0xfffff28d
    a698:	00000a5d 	andeq	r0, r0, sp, asr sl
    a69c:	756f6873 	strbvc	r6, [pc, #-2163]!	; 9e31 <uart_init+0x79>
    a6a0:	6620646c 	strtvs	r6, [r0], -ip, ror #8
    a6a4:	20646e69 	rsbcs	r6, r4, r9, ror #28
    a6a8:	79622030 	stmdbvc	r2!, {r4, r5, sp}^
    a6ac:	20736574 	rsbscs	r6, r3, r4, ror r5
    a6b0:	73206e6f 			; <UNDEFINED> instruction: 0x73206e6f
    a6b4:	6e6f6365 	cdpvs	3, 6, cr6, cr15, cr5, {3}
    a6b8:	63672064 	cmnvs	r7, #100, 0	; 0x64
    a6bc:	0000000a 	andeq	r0, r0, sl
    a6c0:	494e4150 	stmdbmi	lr, {r4, r6, r8, lr}^
    a6c4:	73253a43 			; <UNDEFINED> instruction: 0x73253a43
    a6c8:	3a73253a 	bcc	1cd3bb8 <__bss_end__+0x1cc88c0>
    a6cc:	613a6425 	teqvs	sl, r5, lsr #8
    a6d0:	63657320 	cmnvs	r5, #32, 6	; 0x80000000
    a6d4:	20646e6f 	rsbcs	r6, r4, pc, ror #28
    a6d8:	73206367 			; <UNDEFINED> instruction: 0x73206367
    a6dc:	6c756f68 	ldclvs	15, cr6, [r5], #-416	; 0xfffffe60
    a6e0:	72662064 	rsbvc	r2, r6, #100, 0	; 0x64
    a6e4:	30206565 	eorcc	r6, r0, r5, ror #10
    a6e8:	74796220 	ldrbtvc	r6, [r9], #-544	; 0xfffffde0
    a6ec:	203a7365 	eorscs	r7, sl, r5, ror #6
    a6f0:	6e756f66 	cdpvs	15, 7, cr6, cr5, cr6, {3}
    a6f4:	64252064 	strtvs	r2, [r5], #-100	; 0xffffff9c
    a6f8:	00000a0a 	andeq	r0, r0, sl, lsl #20
    a6fc:	43415254 	movtmi	r5, #4692	; 0x1254
    a700:	68733a45 	ldmdavs	r3!, {r0, r2, r6, r9, fp, ip, sp}^
    a704:	646c756f 	strbtvs	r7, [ip], #-1391	; 0xfffffa91
    a708:	6e696620 	cdpvs	6, 6, cr6, cr9, cr0, {1}
    a70c:	6f6e2064 	svcvs	0x006e2064
    a710:	61656c20 	cmnvs	r5, r0, lsr #24
    a714:	00000a6b 	andeq	r0, r0, fp, ror #20

0000a718 <__FUNCTION__.4057>:
    a718:	74736574 	ldrbtvc	r6, [r3], #-1396	; 0xfffffa8c
    a71c:	00000000 	andeq	r0, r0, r0

0000a720 <__FUNCTION__.4068>:
    a720:	6d746f6e 	ldclvs	15, cr6, [r4, #-440]!	; 0xfffffe48
    a724:	006e6961 	rsbeq	r6, lr, r1, ror #18
    a728:	253a7325 	ldrcs	r7, [sl, #-805]!	; 0xfffffcdb
    a72c:	64253a73 	strtvs	r3, [r5], #-2675	; 0xfffff58d
    a730:	0000003a 	andeq	r0, r0, sl, lsr r0
    a734:	65657266 	strbvs	r7, [r5, #-614]!	; 0xfffffd9a
    a738:	20676e69 	rsbcs	r6, r7, r9, ror #28
    a73c:	0a702509 	beq	1c13b68 <__bss_end__+0x1c08870>
    a740:	00000000 	andeq	r0, r0, r0
    a744:	5f434f4c 	svcpl	0x00434f4c
    a748:	494e4150 	stmdbmi	lr, {r4, r6, r8, lr}^
    a74c:	25203a43 	strcs	r3, [r0, #-2627]!	; 0xfffff5bd
    a750:	73253a73 			; <UNDEFINED> instruction: 0x73253a73
    a754:	3a64253a 	bcc	1913c44 <__bss_end__+0x190894c>
    a758:	00000000 	andeq	r0, r0, r0
    a75c:	65657266 	strbvs	r7, [r5, #-614]!	; 0xfffffd9a
    a760:	20676e69 	rsbcs	r6, r7, r9, ror #28
    a764:	6c616e75 	stclvs	14, cr6, [r1], #-468	; 0xfffffe2c
    a768:	61636f6c 	cmnvs	r3, ip, ror #30
    a76c:	20646574 	rsbcs	r6, r4, r4, ror r5
    a770:	6f6d656d 	svcvs	0x006d656d
    a774:	203a7972 	eorscs	r7, sl, r2, ror r9
    a778:	74617473 	strbtvc	r7, [r1], #-1139	; 0xfffffb8d
    a77c:	64253d65 	strtvs	r3, [r5], #-3429	; 0xfffff29b
    a780:	0000000a 	andeq	r0, r0, sl
    a784:	7a646572 	bvc	1923d54 <__bss_end__+0x1918a5c>
    a788:	20656e6f 	rsbcs	r6, r5, pc, ror #28
    a78c:	77203123 	strvc	r3, [r0, -r3, lsr #2]!
    a790:	63207361 			; <UNDEFINED> instruction: 0x63207361
    a794:	7572726f 	ldrbvc	r7, [r2, #-623]!	; 0xfffffd91
    a798:	64657470 	strbtvs	r7, [r5], #-1136	; 0xfffffb90
    a79c:	00000a21 	andeq	r0, r0, r1, lsr #20
    a7a0:	7a646572 	bvc	1923d70 <__bss_end__+0x1918a78>
    a7a4:	20656e6f 	rsbcs	r6, r5, pc, ror #28
    a7a8:	77203223 	strvc	r3, [r0, -r3, lsr #4]!
    a7ac:	63207361 			; <UNDEFINED> instruction: 0x63207361
    a7b0:	7572726f 	ldrbvc	r7, [r2, #-623]!	; 0xfffffd91
    a7b4:	64657470 	strbtvs	r7, [r5], #-1136	; 0xfffffb90
    a7b8:	00000a21 	andeq	r0, r0, r1, lsr #20
    a7bc:	6f6c6c61 	svcvs	0x006c6c61
    a7c0:	69746163 	ldmdbvs	r4!, {r0, r1, r5, r6, r8, sp, lr}^
    a7c4:	2520676e 	strcs	r6, [r0, #-1902]!	; 0xfffff892
    a7c8:	25282070 	strcs	r2, [r8, #-112]!	; 0xffffff90
    a7cc:	79622064 	stmdbvc	r2!, {r2, r5, r6, sp}^
    a7d0:	29736574 	ldmdbcs	r3!, {r2, r4, r5, r6, r8, sl, sp, lr}^
    a7d4:	0000000a 	andeq	r0, r0, sl
    a7d8:	75716552 	ldrbvc	r6, [r1, #-1362]!	; 0xfffffaae
    a7dc:	74737265 	ldrbtvc	r7, [r3], #-613	; 0xfffffd9b
    a7e0:	20676e69 	rsbcs	r6, r7, r9, ror #28
    a7e4:	65726f6d 	ldrbvs	r6, [r2, #-3949]!	; 0xfffff093
    a7e8:	6d656d20 	stclvs	13, cr6, [r5, #-128]!	; 0xffffff80
    a7ec:	2079726f 	rsbscs	r7, r9, pc, ror #4
    a7f0:	29642528 	stmdbcs	r4!, {r3, r5, r8, sl, sp}^
    a7f4:	0a2e2e2e 	beq	b960b4 <__bss_end__+0xb8adbc>
    a7f8:	00000000 	andeq	r0, r0, r0
    a7fc:	672d6b63 	strvs	r6, [sp, -r3, ror #22]!
    a800:	00632e63 	rsbeq	r2, r3, r3, ror #28
    a804:	203c2070 	eorscs	r2, ip, r0, ror r0
    a808:	00000065 	andeq	r0, r0, r5, rrx
    a80c:	67696c61 	strbvs	r6, [r9, -r1, ror #24]!
    a810:	2864656e 	stmdacs	r4!, {r1, r2, r3, r5, r6, r8, sl, sp, lr}^
    a814:	34202c70 	strtcc	r2, [r0], #-3184	; 0xfffff390
    a818:	00000029 	andeq	r0, r0, r9, lsr #32
    a81c:	67696c61 	strbvs	r6, [r9, -r1, ror #24]!
    a820:	2864656e 	stmdacs	r4!, {r1, r2, r3, r5, r6, r8, sl, sp, lr}^
    a824:	34202c65 	strtcc	r2, [r0], #-3173	; 0xfffff39b
    a828:	00000029 	andeq	r0, r0, r9, lsr #32
    a82c:	63656863 	cmnvs	r5, #6488064	; 0x630000
    a830:	676e696b 	strbvs	r6, [lr, -fp, ror #18]!
    a834:	61747320 	cmnvs	r4, r0, lsr #6
    a838:	203a6b63 	eorscs	r6, sl, r3, ror #22
    a83c:	74207025 	strtvc	r7, [r0], #-37	; 0xffffffdb
    a840:	7025206f 	eorvc	r2, r5, pc, rrx
    a844:	0000000a 	andeq	r0, r0, sl
    a848:	2d2d2d2d 	stccs	13, cr2, [sp, #-180]!	; 0xffffff4c
    a84c:	2d2d2d2d 	stccs	13, cr2, [sp, #-180]!	; 0xffffff4c
    a850:	2d2d2d2d 	stccs	13, cr2, [sp, #-180]!	; 0xffffff4c
    a854:	2d2d2d2d 	stccs	13, cr2, [sp, #-180]!	; 0xffffff4c
    a858:	2d2d2d2d 	stccs	13, cr2, [sp, #-180]!	; 0xffffff4c
    a85c:	2d2d2d2d 	stccs	13, cr2, [sp, #-180]!	; 0xffffff4c
    a860:	2d2d2d2d 	stccs	13, cr2, [sp, #-180]!	; 0xffffff4c
    a864:	2d2d2d2d 	stccs	13, cr2, [sp, #-180]!	; 0xffffff4c
    a868:	2d2d2d2d 	stccs	13, cr2, [sp, #-180]!	; 0xffffff4c
    a86c:	2d2d2d2d 	stccs	13, cr2, [sp, #-180]!	; 0xffffff4c
    a870:	2d2d2d2d 	stccs	13, cr2, [sp, #-180]!	; 0xffffff4c
    a874:	2d2d2d2d 	stccs	13, cr2, [sp, #-180]!	; 0xffffff4c
    a878:	2d2d2d2d 	stccs	13, cr2, [sp, #-180]!	; 0xffffff4c
    a87c:	2d2d2d2d 	stccs	13, cr2, [sp, #-180]!	; 0xffffff4c
    a880:	00000a2d 	andeq	r0, r0, sp, lsr #20
    a884:	63656863 	cmnvs	r5, #6488064	; 0x630000
    a888:	676e696b 	strbvs	r6, [lr, -fp, ror #18]!
    a88c:	726f6620 	rsbvc	r6, pc, #32, 12	; 0x2000000
    a890:	61656c20 	cmnvs	r5, r0, lsr #24
    a894:	0a3a736b 	beq	ea7648 <__bss_end__+0xe9c350>
    a898:	00000000 	andeq	r0, r0, r0
    a89c:	4c3a4347 	ldcmi	3, cr4, [sl], #-284	; 0xfffffee4
    a8a0:	2054534f 	subscs	r5, r4, pc, asr #6
    a8a4:	2d206425 	cfstrscs	mvf6, [r0, #-148]!	; 0xffffff6c
    a8a8:	7025203e 	eorvc	r2, r5, lr, lsr r0
    a8ac:	0000000a 	andeq	r0, r0, sl
    a8b0:	4d3a4347 	ldcmi	3, cr4, [sl, #-284]!	; 0xfffffee4
    a8b4:	45425941 	strbmi	r5, [r2, #-2369]	; 0xfffff6bf
    a8b8:	534f4c20 	movtpl	r4, #64544	; 0xfc20
    a8bc:	64252054 	strtvs	r2, [r5], #-84	; 0xffffffac
    a8c0:	203e2d20 	eorscs	r2, lr, r0, lsr #26
    a8c4:	000a7025 	andeq	r7, sl, r5, lsr #32
    a8c8:	43415254 	movtmi	r5, #4692	; 0x1254
    a8cc:	47093a45 	strmi	r3, [r9, -r5, asr #20]
    a8d0:	68433a43 	stmdavs	r3, {r0, r1, r6, r9, fp, ip, sp}^
    a8d4:	656b6365 	strbvs	r6, [fp, #-869]!	; 0xfffffc9b
    a8d8:	64252064 	strtvs	r2, [r5], #-100	; 0xffffff9c
    a8dc:	6f6c6220 	svcvs	0x006c6220
    a8e0:	2e736b63 	vsubcs.f64	d22, d3, d19
    a8e4:	0000000a 	andeq	r0, r0, sl
    a8e8:	43415254 	movtmi	r5, #4692	; 0x1254
    a8ec:	09093a45 	stmdbeq	r9, {r0, r2, r6, r9, fp, ip, sp}
    a8f0:	533a4347 	teqpl	sl, #469762049	; 0x1c000001
    a8f4:	45434355 	strbmi	r4, [r3, #-853]	; 0xfffffcab
    a8f8:	203a5353 	eorscs	r5, sl, r3, asr r3
    a8fc:	6c206f4e 	stcvs	15, cr6, [r0], #-312	; 0xfffffec8
    a900:	736b6165 	cmnvc	fp, #1073741849	; 0x40000019
    a904:	756f6620 	strbvc	r6, [pc, #-1568]!	; a2ec <kfree_pop+0x34>
    a908:	0a21646e 	beq	863ac8 <__bss_end__+0x8587d0>
    a90c:	00000000 	andeq	r0, r0, r0
    a910:	43415254 	movtmi	r5, #4692	; 0x1254
    a914:	09093a45 	stmdbeq	r9, {r0, r2, r6, r9, fp, ip, sp}
    a918:	453a4347 	ldrmi	r4, [sl, #-839]!	; 0xfffffcb9
    a91c:	524f5252 	subpl	r5, pc, #536870917	; 0x20000005
    a920:	25203a53 	strcs	r3, [r0, #-2643]!	; 0xfffff5ad
    a924:	72652064 	rsbvc	r2, r5, #100, 0	; 0x64
    a928:	73726f72 	cmnvc	r2, #456	; 0x1c8
    a92c:	6425202c 	strtvs	r2, [r5], #-44	; 0xffffffd4
    a930:	79616d20 	stmdbvc	r1!, {r5, r8, sl, fp, sp, lr}^
    a934:	655f6562 	ldrbvs	r6, [pc, #-1378]	; a3da <gpio_set_on+0xa>
    a938:	726f7272 	rsbvc	r7, pc, #536870919	; 0x20000007
    a93c:	00000a73 	andeq	r0, r0, r3, ror sl
    a940:	2d2d2d2d 	stccs	13, cr2, [sp, #-180]!	; 0xffffff4c
    a944:	2d2d2d2d 	stccs	13, cr2, [sp, #-180]!	; 0xffffff4c
    a948:	2d2d2d2d 	stccs	13, cr2, [sp, #-180]!	; 0xffffff4c
    a94c:	2d2d2d2d 	stccs	13, cr2, [sp, #-180]!	; 0xffffff4c
    a950:	2d2d2d2d 	stccs	13, cr2, [sp, #-180]!	; 0xffffff4c
    a954:	2d2d2d2d 	stccs	13, cr2, [sp, #-180]!	; 0xffffff4c
    a958:	2d2d2d2d 	stccs	13, cr2, [sp, #-180]!	; 0xffffff4c
    a95c:	2d2d2d2d 	stccs	13, cr2, [sp, #-180]!	; 0xffffff4c
    a960:	2d2d2d2d 	stccs	13, cr2, [sp, #-180]!	; 0xffffff4c
    a964:	2d2d2d2d 	stccs	13, cr2, [sp, #-180]!	; 0xffffff4c
    a968:	2d2d2d2d 	stccs	13, cr2, [sp, #-180]!	; 0xffffff4c
    a96c:	2d2d2d2d 	stccs	13, cr2, [sp, #-180]!	; 0xffffff4c
    a970:	2d2d2d2d 	stccs	13, cr2, [sp, #-180]!	; 0xffffff4c
    a974:	2d2d2d2d 	stccs	13, cr2, [sp, #-180]!	; 0xffffff4c
    a978:	000a2d2d 	andeq	r2, sl, sp, lsr #26
    a97c:	706d6f63 	rsbvc	r6, sp, r3, ror #30
    a980:	69746361 	ldmdbvs	r4!, {r0, r5, r6, r8, r9, sp, lr}^
    a984:	0a3a676e 	beq	ea4744 <__bss_end__+0xe9944c>
    a988:	00000000 	andeq	r0, r0, r0
    a98c:	463a4347 	ldrtmi	r4, [sl], -r7, asr #6
    a990:	44454552 	strbmi	r4, [r5], #-1362	; 0xfffffaae
    a994:	0a702520 	beq	1c13e1c <__bss_end__+0x1c08b24>
    a998:	00000000 	andeq	r0, r0, r0
    a99c:	43415254 	movtmi	r5, #4692	; 0x1254
    a9a0:	47093a45 	strmi	r3, [r9, -r5, asr #20]
    a9a4:	68433a43 	stmdavs	r3, {r0, r1, r6, r9, fp, ip, sp}^
    a9a8:	656b6365 	strbvs	r6, [fp, #-869]!	; 0xfffffc9b
    a9ac:	64252064 	strtvs	r2, [r5], #-100	; 0xffffff9c
    a9b0:	6f6c6220 	svcvs	0x006c6220
    a9b4:	2c736b63 			; <UNDEFINED> instruction: 0x2c736b63
    a9b8:	65726620 	ldrbvs	r6, [r2, #-1568]!	; 0xfffff9e0
    a9bc:	25206465 	strcs	r6, [r0, #-1125]!	; 0xfffffb9b
    a9c0:	25202c64 	strcs	r2, [r0, #-3172]!	; 0xfffff39c
    a9c4:	79622064 	stmdbvc	r2!, {r2, r5, r6, sp}^
    a9c8:	0a736574 	beq	1ce3fa0 <__bss_end__+0x1cd8ca8>
    a9cc:	00000000 	andeq	r0, r0, r0
    a9d0:	72636e69 	rsbvc	r6, r3, #1680	; 0x690
    a9d4:	6e656d65 	cdpvs	13, 6, cr6, cr5, cr5, {3}
    a9d8:	203e2074 	eorscs	r2, lr, r4, ror r0
    a9dc:	00000030 	andeq	r0, r0, r0, lsr r0
    a9e0:	494e4150 	stmdbmi	lr, {r4, r6, r8, lr}^
    a9e4:	73253a43 			; <UNDEFINED> instruction: 0x73253a43
    a9e8:	3a73253a 	bcc	1cd3ed8 <__bss_end__+0x1cc8be0>
    a9ec:	6e3a6425 	cdpvs	4, 3, cr6, cr10, cr5, {1}
    a9f0:	6820746f 	stmdavs	r0!, {r0, r1, r2, r3, r5, r6, sl, ip, sp, lr}
    a9f4:	6c646e61 	stclvs	14, cr6, [r4], #-388	; 0xfffffe7c
    a9f8:	0a676e69 	beq	19e63a4 <__bss_end__+0x19db0ac>
    a9fc:	0000000a 	andeq	r0, r0, sl
    aa00:	494e4150 	stmdbmi	lr, {r4, r6, r8, lr}^
    aa04:	73253a43 			; <UNDEFINED> instruction: 0x73253a43
    aa08:	3a73253a 	bcc	1cd3ef8 <__bss_end__+0x1cc8c00>
    aa0c:	473a6425 	ldrmi	r6, [sl, -r5, lsr #8]!
    aa10:	73203a43 			; <UNDEFINED> instruction: 0x73203a43
    aa14:	6c756f68 	ldclvs	15, cr6, [r5], #-416	; 0xfffffe60
    aa18:	61682064 	cmnvs	r8, r4, rrx
    aa1c:	6e206576 	mcrvs	5, 1, r6, cr0, cr6, {3}
    aa20:	656c206f 	strbvs	r2, [ip, #-111]!	; 0xffffff91
    aa24:	21736b61 	cmncs	r3, r1, ror #22
    aa28:	00000a0a 	andeq	r0, r0, sl, lsl #20
    aa2c:	43415254 	movtmi	r5, #4692	; 0x1254
    aa30:	43473a45 	movtmi	r3, #31301	; 0x7a45
    aa34:	5553203a 	ldrbpl	r2, [r3, #-58]	; 0xffffffc6
    aa38:	53454343 	movtpl	r4, #21315	; 0x5343
    aa3c:	6e203a53 			; <UNDEFINED> instruction: 0x6e203a53
    aa40:	656c206f 	strbvs	r2, [ip, #-111]!	; 0xffffff91
    aa44:	21736b61 	cmncs	r3, r1, ror #22
    aa48:	0000000a 	andeq	r0, r0, sl
    aa4c:	494e4150 	stmdbmi	lr, {r4, r6, r8, lr}^
    aa50:	73253a43 			; <UNDEFINED> instruction: 0x73253a43
    aa54:	3a73253a 	bcc	1cd3f44 <__bss_end__+0x1cc8c4c>
    aa58:	473a6425 	ldrmi	r6, [sl, -r5, lsr #8]!
    aa5c:	73203a43 			; <UNDEFINED> instruction: 0x73203a43
    aa60:	6c756f68 	ldclvs	15, cr6, [r5], #-416	; 0xfffffe60
    aa64:	61682064 	cmnvs	r8, r4, rrx
    aa68:	6c206576 	cfstr32vs	mvfx6, [r0], #-472	; 0xfffffe28
    aa6c:	736b6165 	cmnvc	fp, #1073741849	; 0x40000019
    aa70:	000a0a21 	andeq	r0, sl, r1, lsr #20
    aa74:	43415254 	movtmi	r5, #4692	; 0x1254
    aa78:	43473a45 	movtmi	r3, #31301	; 0x7a45
    aa7c:	5553203a 	ldrbpl	r2, [r3, #-58]	; 0xffffffc6
    aa80:	53454343 	movtpl	r4, #21315	; 0x5343
    aa84:	66203a53 			; <UNDEFINED> instruction: 0x66203a53
    aa88:	646e756f 	strbtvs	r7, [lr], #-1391	; 0xfffffa91
    aa8c:	20642520 	rsbcs	r2, r4, r0, lsr #10
    aa90:	6b61656c 	blvs	1864048 <__bss_end__+0x1858d50>
    aa94:	000a2173 	andeq	r2, sl, r3, ror r1
    aa98:	494e4150 	stmdbmi	lr, {r4, r6, r8, lr}^
    aa9c:	73253a43 			; <UNDEFINED> instruction: 0x73253a43
    aaa0:	3a73253a 	bcc	1cd3f90 <__bss_end__+0x1cc8c98>
    aaa4:	643a6425 	ldrtvs	r6, [sl], #-1061	; 0xfffffbdb
    aaa8:	6e206469 	cdpvs	4, 2, cr6, cr0, cr9, {3}
    aaac:	6920746f 	stmdbvs	r0!, {r0, r1, r2, r3, r5, r6, sl, ip, sp, lr}
    aab0:	656c706d 	strbvs	r7, [ip, #-109]!	; 0xffffff93
    aab4:	746e656d 	strbtvc	r6, [lr], #-1389	; 0xfffffa93
    aab8:	6d756420 	cfldrdvs	mvd6, [r5, #-128]!	; 0xffffff80
    aabc:	65725f70 	ldrbvs	r5, [r2, #-3952]!	; 0xfffff090
    aac0:	0a217367 	beq	867864 <__bss_end__+0x85c56c>
    aac4:	0000000a 	andeq	r0, r0, sl

0000aac8 <__FUNCTION__.4072>:
    aac8:	6b72616d 	blvs	1ca3084 <__bss_end__+0x1c97d8c>
    aacc:	00000000 	andeq	r0, r0, r0

0000aad0 <__FUNCTION__.4129>:
    aad0:	65657773 	strbvs	r7, [r5, #-1907]!	; 0xfffff88d
    aad4:	72665f70 	rsbvc	r5, r6, #112, 30	; 0x1c0
    aad8:	00006565 	andeq	r6, r0, r5, ror #10

0000aadc <__FUNCTION__.4059>:
    aadc:	6b726273 	blvs	1ca34b0 <__bss_end__+0x1c981b8>
    aae0:	00000000 	andeq	r0, r0, r0

0000aae4 <__FUNCTION__.4116>:
    aae4:	63656863 	cmnvs	r5, #6488064	; 0x630000
    aae8:	6f6e5f6b 	svcvs	0x006e5f6b
    aaec:	61656c5f 	cmnvs	r5, pc, asr ip
    aaf0:	0000006b 	andeq	r0, r0, fp, rrx

0000aaf4 <__FUNCTION__.4121>:
    aaf4:	63656863 	cmnvs	r5, #6488064	; 0x630000
    aaf8:	68735f6b 	ldmdavs	r3!, {r0, r1, r3, r5, r6, r8, r9, sl, fp, ip, lr}^
    aafc:	646c756f 	strbtvs	r7, [ip], #-1391	; 0xfffffa91
    ab00:	61656c5f 	cmnvs	r5, pc, asr ip
    ab04:	0000006b 	andeq	r0, r0, fp, rrx

0000ab08 <__FUNCTION__.4140>:
    ab08:	6c706d69 	ldclvs	13, cr6, [r0], #-420	; 0xfffffe5c
    ab0c:	6e656d65 	cdpvs	13, 6, cr6, cr5, cr5, {3}
    ab10:	68745f74 	ldmdavs	r4!, {r2, r4, r5, r6, r8, r9, sl, fp, ip, lr}^
    ab14:	00007369 	andeq	r7, r0, r9, ror #6
    ab18:	003f3f3f 	eorseq	r3, pc, pc, lsr pc	; <UNPREDICTABLE>
    ab1c:	20642523 	rsbcs	r2, r4, r3, lsr #10
    ab20:	28207825 	stmdacs	r0!, {r0, r2, r5, fp, ip, sp, lr}
    ab24:	0a297325 	beq	a677c0 <__bss_end__+0xa5c4c8>
    ab28:	00000000 	andeq	r0, r0, r0
    ab2c:	696c2f2e 	stmdbvs	ip!, {r1, r2, r3, r5, r8, r9, sl, fp, sp}^
    ab30:	762f6362 	strtvc	r6, [pc], -r2, ror #6
    ab34:	72702d61 	rsbsvc	r2, r0, #6208	; 0x1840
    ab38:	6b746e69 	blvs	1d264e4 <__bss_end__+0x1d1b1ec>
    ab3c:	0000632e 	andeq	r6, r0, lr, lsr #6
    ab40:	33323130 	teqcc	r2, #12
    ab44:	37363534 			; <UNDEFINED> instruction: 0x37363534
    ab48:	62613938 	rsbvs	r3, r1, #56, 18	; 0xe0000
    ab4c:	66656463 	strbtvs	r6, [r5], -r3, ror #8
    ab50:	00000000 	andeq	r0, r0, r0
    ab54:	00003130 	andeq	r3, r0, r0, lsr r1
    ab58:	33323130 	teqcc	r2, #12
    ab5c:	37363534 			; <UNDEFINED> instruction: 0x37363534
    ab60:	00003938 	andeq	r3, r0, r8, lsr r9
    ab64:	63747570 	cmnvs	r4, #112, 10	; 0x1c000000
    ab68:	0070665f 	rsbseq	r6, r0, pc, asr r6
    ab6c:	74646977 	strbtvc	r6, [r4], #-2423	; 0xfffff689
    ab70:	203c2068 	eorscs	r2, ip, r8, rrx
    ab74:	00003233 	andeq	r3, r0, r3, lsr r2
    ab78:	00786c6c 	rsbseq	r6, r8, ip, ror #24
    ab7c:	253d3078 	ldrcs	r3, [sp, #-120]!	; 0xffffff88
    ab80:	00000a78 	andeq	r0, r0, r8, ror sl
    ab84:	253d3178 	ldrcs	r3, [sp, #-376]!	; 0xfffffe88
    ab88:	00000a78 	andeq	r0, r0, r8, ror sl
    ab8c:	00646c6c 	rsbeq	r6, r4, ip, ror #24
    ab90:	6e727473 	mrcvs	4, 3, r7, cr2, cr3, {3}
    ab94:	28706d63 	ldmdacs	r0!, {r0, r1, r5, r6, r8, sl, fp, sp, lr}^
    ab98:	202c7974 	eorcs	r7, ip, r4, ror r9
    ab9c:	786c6c22 	stmdavc	ip!, {r1, r5, sl, fp, sp, lr}^
    aba0:	33202c22 			; <UNDEFINED> instruction: 0x33202c22
    aba4:	3d3d2029 	ldccc	0, cr2, [sp, #-164]!	; 0xffffff5c
    aba8:	7c203020 	stcvc	0, cr3, [r0], #-128	; 0xffffff80
    abac:	7473207c 	ldrbtvc	r2, [r3], #-124	; 0xffffff84
    abb0:	6d636e72 	stclvs	14, cr6, [r3, #-456]!	; 0xfffffe38
    abb4:	79742870 	ldmdbvc	r4!, {r4, r5, r6, fp, sp}^
    abb8:	6c22202c 	stcvs	0, cr2, [r2], #-176	; 0xffffff50
    abbc:	2c22646c 	cfstrscs	mvf6, [r2], #-432	; 0xfffffe50
    abc0:	20293320 	eorcs	r3, r9, r0, lsr #6
    abc4:	30203d3d 	eorcc	r3, r0, sp, lsr sp
    abc8:	00000000 	andeq	r0, r0, r0
    abcc:	494e4150 	stmdbmi	lr, {r4, r6, r8, lr}^
    abd0:	73253a43 			; <UNDEFINED> instruction: 0x73253a43
    abd4:	3a73253a 	bcc	1cd40c4 <__bss_end__+0x1cc8dcc>
    abd8:	693a6425 	ldmdbvs	sl!, {r0, r2, r5, sl, sp, lr}
    abdc:	736f706d 	cmnvc	pc, #109, 0	; 0x6d
    abe0:	6c626973 			; <UNDEFINED> instruction: 0x6c626973
    abe4:	66203a65 	strtvs	r3, [r0], -r5, ror #20
    abe8:	3c3d746d 	cfldrscc	mvf7, [sp], #-436	; 0xfffffe4c
    abec:	0a3e7325 	beq	fa7888 <__bss_end__+0xf9c590>
    abf0:	0000000a 	andeq	r0, r0, sl
    abf4:	494e4150 	stmdbmi	lr, {r4, r6, r8, lr}^
    abf8:	73253a43 			; <UNDEFINED> instruction: 0x73253a43
    abfc:	3a73253a 	bcc	1cd40ec <__bss_end__+0x1cc8df4>
    ac00:	663a6425 	ldrtvs	r6, [sl], -r5, lsr #8
    ac04:	74616f6c 	strbtvc	r6, [r1], #-3948	; 0xfffff094
    ac08:	746f6e20 	strbtvc	r6, [pc], #-3616	; ac10 <__FUNCTION__.4140+0x108>
    ac0c:	616e6520 	cmnvs	lr, r0, lsr #10
    ac10:	64656c62 	strbtvs	r6, [r5], #-3170	; 0xfffff39e
    ac14:	0a212121 	beq	8530a0 <__bss_end__+0x847da8>
    ac18:	00000000 	andeq	r0, r0, r0
    ac1c:	6e697270 	mcrvs	2, 3, r7, cr9, cr0, {3}
    ac20:	203a6b74 	eorscs	r6, sl, r4, ror fp
    ac24:	20746f6e 	rsbscs	r6, r4, lr, ror #30
    ac28:	646e6168 	strbtvs	r6, [lr], #-360	; 0xfffffe98
    ac2c:	676e696c 	strbvs	r6, [lr, -ip, ror #18]!
    ac30:	65707320 	ldrbvs	r7, [r0, #-800]!	; 0xfffffce0
    ac34:	69666963 	stmdbvs	r6!, {r0, r1, r5, r6, r8, fp, sp, lr}^
    ac38:	27207265 	strcs	r7, [r0, -r5, ror #4]!
    ac3c:	20276325 	eorcs	r6, r7, r5, lsr #6
    ac40:	63736128 	cmnvs	r3, #10
    ac44:	253d6969 	ldrcs	r6, [sp, #-2409]!	; 0xfffff697
    ac48:	000a2964 	andeq	r2, sl, r4, ror #18
    ac4c:	494e4150 	stmdbmi	lr, {r4, r6, r8, lr}^
    ac50:	73253a43 			; <UNDEFINED> instruction: 0x73253a43
    ac54:	3a73253a 	bcc	1cd4144 <__bss_end__+0x1cc8e4c>
    ac58:	703a6425 	eorsvc	r6, sl, r5, lsr #8
    ac5c:	746e6972 	strbtvc	r6, [lr], #-2418	; 0xfffff68e
    ac60:	7265206b 	rsbvc	r2, r5, #107, 0	; 0x6b
    ac64:	0a726f72 	beq	1ca6a34 <__bss_end__+0x1c9b73c>
    ac68:	0000000a 	andeq	r0, r0, sl

0000ac6c <__FUNCTION__.4008>:
    ac6c:	74696d65 	strbtvc	r6, [r9], #-3429	; 0xfffff29b
    ac70:	00000000 	andeq	r0, r0, r0

0000ac74 <__FUNCTION__.3956>:
    ac74:	5f697072 	svcpl	0x00697072
    ac78:	5f746573 	svcpl	0x00746573
    ac7c:	7074756f 	rsbsvc	r7, r4, pc, ror #10
    ac80:	00007475 	andeq	r7, r0, r5, ror r4

0000ac84 <__FUNCTION__.4034>:
    ac84:	705f6176 	subsvc	r6, pc, r6, ror r1	; <UNPREDICTABLE>
    ac88:	746e6972 	strbtvc	r6, [lr], #-2418	; 0xfffff68e
    ac8c:	0000006b 	andeq	r0, r0, fp, rrx
    ac90:	454e4f44 	strbmi	r4, [lr, #-3908]	; 0xfffff0bc
    ac94:	0a212121 	beq	853120 <__bss_end__+0x847e28>
    ac98:	00000000 	andeq	r0, r0, r0
    ac9c:	6e75525b 	mrcvs	2, 3, r5, cr5, cr11, {2}
    aca0:	676e696e 	strbvs	r6, [lr, -lr, ror #18]!
    aca4:	6f6f7420 	svcvs	0x006f7420
    aca8:	6425206b 	strtvs	r2, [r5], #-107	; 0xffffff95
    acac:	63796320 	cmnvs	r9, #32, 6	; 0x80000000
    acb0:	5d73656c 	cfldr64pl	mvdx6, [r3, #-432]!	; 0xfffffe50
    acb4:	0000000a 	andeq	r0, r0, sl
    acb8:	6c616d6b 	stclvs	13, cr6, [r1], #-428	; 0xfffffe54
    acbc:	2e636f6c 	cdpcs	15, 6, cr6, cr3, cr12, {3}
    acc0:	00000063 	andeq	r0, r0, r3, rrx
    acc4:	5f78616d 	svcpl	0x0078616d
    acc8:	7479626e 	ldrbtvc	r6, [r9], #-622	; 0xfffffd92
    accc:	00007365 	andeq	r7, r0, r5, ror #6
    acd0:	494e4150 	stmdbmi	lr, {r4, r6, r8, lr}^
    acd4:	73253a43 			; <UNDEFINED> instruction: 0x73253a43
    acd8:	3a73253a 	bcc	1cd41c8 <__bss_end__+0x1cc8ed0>
    acdc:	733a6425 	teqvc	sl, #620756992	; 0x25000000
    ace0:	69747465 	ldmdbvs	r4!, {r0, r2, r5, r6, sl, ip, sp, lr}^
    ace4:	6820676e 	stmdavs	r0!, {r1, r2, r3, r5, r6, r8, r9, sl, sp, lr}
    ace8:	20706165 	rsbscs	r6, r0, r5, ror #2
    acec:	25206f74 	strcs	r6, [r0, #-3956]!	; 0xfffff08c
    acf0:	77203a70 			; <UNDEFINED> instruction: 0x77203a70
    acf4:	206c6c69 	rsbcs	r6, ip, r9, ror #24
    acf8:	20746968 	rsbscs	r6, r4, r8, ror #18
    acfc:	20656874 	rsbcs	r6, r5, r4, ror r8
    ad00:	20646c6f 	rsbcs	r6, r4, pc, ror #24
    ad04:	70616568 	rsbvc	r6, r1, r8, ror #10
    ad08:	20746120 	rsbscs	r6, r4, r0, lsr #2
    ad0c:	0a0a7025 	beq	2a6da8 <__bss_end__+0x29bab0>
    ad10:	00000000 	andeq	r0, r0, r0
    ad14:	494e4150 	stmdbmi	lr, {r4, r6, r8, lr}^
    ad18:	73253a43 			; <UNDEFINED> instruction: 0x73253a43
    ad1c:	3a73253a 	bcc	1cd420c <__bss_end__+0x1cc8f14>
    ad20:	613a6425 	teqvs	sl, r5, lsr #8
    ad24:	6165726c 	cmnvs	r5, ip, ror #4
    ad28:	63207964 			; <UNDEFINED> instruction: 0x63207964
    ad2c:	656c6c61 	strbvs	r6, [ip, #-3169]!	; 0xfffff39f
    ad30:	6d6b2064 	stclvs	0, cr2, [fp, #-400]!	; 0xfffffe70
    ad34:	6f6c6c61 	svcvs	0x006c6c61
    ad38:	6e695f63 	cdpvs	15, 6, cr5, cr9, cr3, {3}
    ad3c:	0a0a7469 	beq	2a7ee8 <__bss_end__+0x29cbf0>
    ad40:	00000000 	andeq	r0, r0, r0
    ad44:	494e4150 	stmdbmi	lr, {r4, r6, r8, lr}^
    ad48:	73253a43 			; <UNDEFINED> instruction: 0x73253a43
    ad4c:	3a73253a 	bcc	1cd423c <__bss_end__+0x1cc8f44>
    ad50:	253a6425 	ldrcs	r6, [sl, #-1061]!	; 0xfffffbdb
    ad54:	626e2064 	rsbvs	r2, lr, #100, 0	; 0x64
    ad58:	73657479 	cmnvc	r5, #2030043136	; 0x79000000
    ad5c:	63786520 	cmnvs	r8, #32, 10	; 0x8000000
    ad60:	65646565 	strbvs	r6, [r4, #-1381]!	; 0xfffffa9b
    ad64:	69732064 	ldmdbvs	r3!, {r2, r5, r6, sp}^
    ad68:	6f20657a 	svcvs	0x0020657a
    ad6c:	65682066 	strbvs	r2, [r8, #-102]!	; 0xffffff9a
    ad70:	62207061 	eorvs	r7, r0, #97, 0	; 0x61
    ad74:	75252079 	strvc	r2, [r5, #-121]!	; 0xffffff87
    ad78:	79626e20 	stmdbvc	r2!, {r5, r9, sl, fp, sp, lr}^
    ad7c:	0a736574 	beq	1ce4354 <__bss_end__+0x1cd905c>
    ad80:	0000000a 	andeq	r0, r0, sl
    ad84:	4f525245 	svcmi	0x00525245
    ad88:	73253a52 			; <UNDEFINED> instruction: 0x73253a52
    ad8c:	3a73253a 	bcc	1cd427c <__bss_end__+0x1cc8f84>
    ad90:	203a6425 	eorscs	r6, sl, r5, lsr #8
    ad94:	534c4146 	movtpl	r4, #49478	; 0xc146
    ad98:	253c2845 	ldrcs	r2, [ip, #-2117]!	; 0xfffff7bb
    ad9c:	3a293e73 	bcc	a5a770 <__bss_end__+0xa4f478>
    ada0:	73736120 	cmnvc	r3, #8
    ada4:	6e696d75 	mcrvs	13, 3, r6, cr9, cr5, {3}
    ada8:	6f702067 	svcvs	0x00702067
    adac:	20726577 	rsbscs	r6, r2, r7, ror r5
    adb0:	7420666f 	strtvc	r6, [r0], #-1647	; 0xfffff991
    adb4:	000a6f77 	andeq	r6, sl, r7, ror pc
    adb8:	705f7369 	subsvc	r7, pc, r9, ror #6
    adbc:	2832776f 	ldmdacs	r2!, {r0, r1, r2, r3, r5, r6, r8, r9, sl, ip, sp, lr}
    adc0:	67696c61 	strbvs	r6, [r9, -r1, ror #24]!
    adc4:	6e656d6e 	cdpvs	13, 6, cr6, cr5, cr14, {3}
    adc8:	00002974 	andeq	r2, r0, r4, ror r9
    adcc:	705f7369 	subsvc	r7, pc, r9, ror #6
    add0:	2832776f 	ldmdacs	r2!, {r0, r1, r2, r3, r5, r6, r8, r9, sl, ip, sp, lr}
    add4:	0000296e 	andeq	r2, r0, lr, ror #18
    add8:	4f525245 	svcmi	0x00525245
    addc:	73253a52 			; <UNDEFINED> instruction: 0x73253a52
    ade0:	3a73253a 	bcc	1cd42d0 <__bss_end__+0x1cc8fd8>
    ade4:	203a6425 	eorscs	r6, sl, r5, lsr #8
    ade8:	534c4146 	movtpl	r4, #49478	; 0xc146
    adec:	253c2845 	ldrcs	r2, [ip, #-2117]!	; 0xfffff7bb
    adf0:	3a293e73 	bcc	a5a7c4 <__bss_end__+0xa4f4cc>
    adf4:	706d6920 	rsbvc	r6, sp, r0, lsr #18
    adf8:	6973736f 	ldmdbvs	r3!, {r0, r1, r2, r3, r5, r6, r8, r9, ip, sp, lr}^
    adfc:	0a656c62 	beq	1965f8c <__bss_end__+0x195ac94>
    ae00:	00000000 	andeq	r0, r0, r0
    ae04:	615f7369 	cmpvs	pc, r9, ror #6
    ae08:	6e67696c 	vnmulvs.f16	s13, s14, s25	; <UNPREDICTABLE>
    ae0c:	68286465 	stmdavs	r8!, {r0, r2, r5, r6, sl, sp, lr}
    ae10:	6c61202c 	stclvs	0, cr2, [r1], #-176	; 0xffffff50
    ae14:	6d6e6769 	stclvs	7, cr6, [lr, #-420]!	; 0xfffffe5c
    ae18:	29746e65 	ldmdbcs	r4!, {r0, r2, r5, r6, r9, sl, fp, sp, lr}^
    ae1c:	00000000 	andeq	r0, r0, r0
    ae20:	494e4150 	stmdbmi	lr, {r4, r6, r8, lr}^
    ae24:	73253a43 			; <UNDEFINED> instruction: 0x73253a43
    ae28:	3a73253a 	bcc	1cd4318 <__bss_end__+0x1cc9020>
    ae2c:	703a6425 	eorsvc	r6, sl, r5, lsr #8
    ae30:	746e696f 	strbtvc	r6, [lr], #-2415	; 0xfffff691
    ae34:	25207265 	strcs	r7, [r0, #-613]!	; 0xfffffd9b
    ae38:	61772070 	cmnvs	r7, r0, ror r0
    ae3c:	656e2073 	strbvs	r2, [lr, #-115]!	; 0xffffff8d
    ae40:	20726576 	rsbscs	r6, r2, r6, ror r5
    ae44:	6f6c6c61 	svcvs	0x006c6c61
    ae48:	65746163 	ldrbvs	r6, [r4, #-355]!	; 0xfffffe9d
    ae4c:	000a0a64 	andeq	r0, sl, r4, ror #20

0000ae50 <__FUNCTION__.7>:
    ae50:	6c616d6b 	stclvs	13, cr6, [r1], #-428	; 0xfffffe54
    ae54:	5f636f6c 	svcpl	0x00636f6c
    ae58:	74696e69 	strbtvc	r6, [r9], #-3689	; 0xfffff197
    ae5c:	7465735f 	strbtvc	r7, [r5], #-863	; 0xfffffca1
    ae60:	6174735f 	cmnvs	r4, pc, asr r3
    ae64:	00007472 	andeq	r7, r0, r2, ror r4

0000ae68 <__FUNCTION__.5>:
    ae68:	6c616d6b 	stclvs	13, cr6, [r1], #-428	; 0xfffffe54
    ae6c:	5f636f6c 	svcpl	0x00636f6c
    ae70:	74696e69 	strbtvc	r6, [r9], #-3689	; 0xfffff197
    ae74:	00000000 	andeq	r0, r0, r0

0000ae78 <__FUNCTION__.4>:
    ae78:	6c616d6b 	stclvs	13, cr6, [r1], #-428	; 0xfffffe54
    ae7c:	5f636f6c 	svcpl	0x00636f6c
    ae80:	7a746f6e 	bvc	1d26c40 <__bss_end__+0x1d1b948>
    ae84:	006f7265 	rsbeq	r7, pc, r5, ror #4

0000ae88 <__FUNCTION__.2>:
    ae88:	6c616d6b 	stclvs	13, cr6, [r1], #-428	; 0xfffffe54
    ae8c:	00636f6c 	rsbeq	r6, r3, ip, ror #30

0000ae90 <__FUNCTION__.1>:
    ae90:	6c616d6b 	stclvs	13, cr6, [r1], #-428	; 0xfffffe54
    ae94:	5f636f6c 	svcpl	0x00636f6c
    ae98:	67696c61 	strbvs	r6, [r9, -r1, ror #24]!
    ae9c:	0064656e 	rsbeq	r6, r4, lr, ror #10

0000aea0 <__FUNCTION__.3>:
    aea0:	6e756f72 	mrcvs	15, 3, r6, cr5, cr2, {3}
    aea4:	00707564 	rsbseq	r7, r0, r4, ror #10

0000aea8 <__FUNCTION__.0>:
    aea8:	6572666b 	ldrbvs	r6, [r2, #-1643]!	; 0xfffff995
    aeac:	6f705f65 	svcvs	0x00705f65
    aeb0:	Address 0x000000000000aeb0 is out of bounds.


Disassembly of section .data:

0000aeb4 <putk>:
    aeb4:	0000908c 	andeq	r9, r0, ip, lsl #1

0000aeb8 <heap_end>:
    aeb8:	0020b2f8 	strdeq	fp, [r0], -r8	; <UNPREDICTABLE>

0000aebc <heap_start>:
    aebc:	0000b2f8 	strdeq	fp, [r0], -r8

0000aec0 <heap>:
    aec0:	0000b2f8 	strdeq	fp, [r0], -r8

0000aec4 <rpi_putchar>:
    aec4:	0000a4b0 			; <UNDEFINED> instruction: 0x0000a4b0

Disassembly of section .bss:

0000aec8 <__bss_start__>:
    aec8:	00000000 	andeq	r0, r0, r0

0000aecc <max_heap>:
    aecc:	00000000 	andeq	r0, r0, r0

0000aed0 <freep>:
	...

0000aed8 <base>:
	...

0000aee0 <heap_start>:
    aee0:	00000000 	andeq	r0, r0, r0

0000aee4 <heap_end>:
    aee4:	00000000 	andeq	r0, r0, r0

0000aee8 <init_p.4058>:
    aee8:	00000000 	andeq	r0, r0, r0

0000aeec <buf.3948>:
	...

0000b2ec <last.3941>:
    b2ec:	00000000 	andeq	r0, r0, r0

0000b2f0 <init_p.6>:
	...

Disassembly of section .ARM.attributes:

00000000 <.ARM.attributes>:
   0:	00002a41 	andeq	r2, r0, r1, asr #20
   4:	61656100 	cmnvs	r5, r0, lsl #2
   8:	01006962 	tsteq	r0, r2, ror #18
   c:	00000020 	andeq	r0, r0, r0, lsr #32
  10:	4b5a3605 	blmi	168d82c <__bss_end__+0x1682534>
  14:	08070600 	stmdaeq	r7, {r9, sl}
  18:	12010901 	andne	r0, r1, #16384	; 0x4000
  1c:	15011404 	strne	r1, [r1, #-1028]	; 0xfffffbfc
  20:	18031701 	stmdane	r3, {r0, r8, r9, sl, ip}
  24:	22011a01 	andcs	r1, r1, #4096	; 0x1000
  28:	Address 0x0000000000000028 is out of bounds.


Disassembly of section .comment:

00000000 <.comment>:
   0:	3a434347 	bcc	10d0d24 <__bss_end__+0x10c5a2c>
   4:	4e472820 	cdpmi	8, 4, cr2, cr7, cr0, {1}
   8:	6f542055 	svcvs	0x00542055
   c:	20736c6f 	rsbscs	r6, r3, pc, ror #24
  10:	20726f66 	rsbscs	r6, r2, r6, ror #30
  14:	206d7241 	rsbcs	r7, sp, r1, asr #4
  18:	65626d45 	strbvs	r6, [r2, #-3397]!	; 0xfffff2bb
  1c:	64656464 	strbtvs	r6, [r5], #-1124	; 0xfffffb9c
  20:	6f725020 	svcvs	0x00725020
  24:	73736563 	cmnvc	r3, #415236096	; 0x18c00000
  28:	2073726f 	rsbscs	r7, r3, pc, ror #4
  2c:	30322d39 	eorscc	r2, r2, r9, lsr sp
  30:	712d3931 			; <UNDEFINED> instruction: 0x712d3931
  34:	616d2d34 	cmnvs	sp, r4, lsr sp
  38:	29726f6a 	ldmdbcs	r2!, {r1, r3, r5, r6, r8, r9, sl, fp, sp, lr}^
  3c:	322e3920 	eorcc	r3, lr, #32, 18	; 0x80000
  40:	3220312e 	eorcc	r3, r0, #-2147483637	; 0x8000000b
  44:	31393130 	teqcc	r9, r0, lsr r1
  48:	20353230 	eorscs	r3, r5, r0, lsr r2
  4c:	6c657228 	sfmvs	f7, 2, [r5], #-160	; 0xffffff60
  50:	65736165 	ldrbvs	r6, [r3, #-357]!	; 0xfffffe9b
  54:	415b2029 	cmpmi	fp, r9, lsr #32
  58:	612f4d52 			; <UNDEFINED> instruction: 0x612f4d52
  5c:	392d6d72 	pushcc	{r1, r4, r5, r6, r8, sl, fp, sp, lr}
  60:	6172622d 	cmnvs	r2, sp, lsr #4
  64:	2068636e 	rsbcs	r6, r8, lr, ror #6
  68:	69766572 	ldmdbvs	r6!, {r1, r4, r5, r6, r8, sl, sp, lr}^
  6c:	6e6f6973 			; <UNDEFINED> instruction: 0x6e6f6973
  70:	37373220 	ldrcc	r3, [r7, -r0, lsr #4]!
  74:	5d393935 			; <UNDEFINED> instruction: 0x5d393935
  78:	43434700 	movtmi	r4, #14080	; 0x3700
  7c:	4728203a 			; <UNDEFINED> instruction: 0x4728203a
  80:	4120554e 			; <UNDEFINED> instruction: 0x4120554e
  84:	45206d72 	strmi	r6, [r0, #-3442]!	; 0xfffff28e
  88:	6465626d 	strbtvs	r6, [r5], #-621	; 0xfffffd93
  8c:	20646564 	rsbcs	r6, r4, r4, ror #10
  90:	6c6f6f54 	stclvs	15, cr6, [pc], #-336	; ffffff48 <__bss_end__+0xffff4c50>
  94:	69616863 	stmdbvs	r1!, {r0, r1, r5, r6, fp, sp, lr}^
  98:	3031206e 	eorscc	r2, r1, lr, rrx
  9c:	322d332e 	eorcc	r3, sp, #-1207959552	; 0xb8000000
  a0:	2e313230 	mrccs	2, 1, r3, cr1, cr0, {1}
  a4:	20293031 	eorcs	r3, r9, r1, lsr r0
  a8:	332e3031 			; <UNDEFINED> instruction: 0x332e3031
  ac:	3220312e 	eorcc	r3, r0, #-2147483637	; 0x8000000b
  b0:	30313230 	eorscc	r3, r1, r0, lsr r2
  b4:	20343238 	eorscs	r3, r4, r8, lsr r2
  b8:	6c657228 	sfmvs	f7, 2, [r5], #-160	; 0xffffff60
  bc:	65736165 	ldrbvs	r6, [r3, #-357]!	; 0xfffffe9b
  c0:	Address 0x00000000000000c0 is out of bounds.


Disassembly of section .debug_info:

00000000 <.debug_info>:
       0:	000004b3 			; <UNDEFINED> instruction: 0x000004b3
       4:	00000004 	andeq	r0, r0, r4
       8:	01040000 	mrseq	r0, (UNDEF: 4)
       c:	000000b4 	strheq	r0, [r0], -r4
      10:	0001d30c 	andeq	sp, r1, ip, lsl #6
      14:	00000a00 	andeq	r0, r0, r0, lsl #20
      18:	00803800 	addeq	r3, r0, r0, lsl #16
      1c:	0001b400 	andeq	fp, r1, r0, lsl #8
      20:	00000000 	andeq	r0, r0, r0
      24:	05040200 	streq	r0, [r4, #-512]	; 0xfffffe00
      28:	00746e69 	rsbseq	r6, r4, r9, ror #28
      2c:	a7070403 	strge	r0, [r7, -r3, lsl #8]
      30:	03000001 	movweq	r0, #1
      34:	00a80601 	adceq	r0, r8, r1, lsl #12
      38:	02030000 	andeq	r0, r3, #0, 0
      3c:	00000005 	andeq	r0, r0, r5
      40:	05040300 	streq	r0, [r4, #-768]	; 0xfffffd00
      44:	00000069 	andeq	r0, r0, r9, rrx
      48:	64050803 	strvs	r0, [r5], #-2051	; 0xfffff7fd
      4c:	03000000 	movweq	r0, #0
      50:	00a60801 	adceq	r0, r6, r1, lsl #16
      54:	02030000 	andeq	r0, r3, #0, 0
      58:	0001ee07 	andeq	lr, r1, r7, lsl #28
      5c:	01b40400 			; <UNDEFINED> instruction: 0x01b40400
      60:	34040000 	strcc	r0, [r4], #-0
      64:	00006919 	andeq	r6, r0, r9, lsl r9
      68:	07040300 	streq	r0, [r4, -r0, lsl #6]
      6c:	000001a2 	andeq	r0, r0, r2, lsr #3
      70:	9d070803 	stcls	8, cr0, [r7, #-12]
      74:	05000001 	streq	r0, [r0, #-1]
      78:	00000025 	andeq	r0, r0, r5, lsr #32
      7c:	00000086 	andeq	r0, r0, r6, lsl #1
      80:	00002506 	andeq	r2, r0, r6, lsl #10
      84:	40070000 	andmi	r0, r7, r0
      88:	03000000 	movweq	r0, #0
      8c:	00920e1c 	addseq	r0, r2, ip, lsl lr
      90:	04080000 	streq	r0, [r8], #-0
      94:	00000077 	andeq	r0, r0, r7, ror r0
      98:	00002505 	andeq	r2, r0, r5, lsl #10
      9c:	0000a700 	andeq	sl, r0, r0, lsl #14
      a0:	00a70600 	adceq	r0, r7, r0, lsl #12
      a4:	08000000 	stmdaeq	r0, {}	; <UNPREDICTABLE>
      a8:	0000b404 	andeq	fp, r0, r4, lsl #8
      ac:	08010300 	stmdaeq	r1, {r8, r9}
      b0:	000000af 	andeq	r0, r0, pc, lsr #1
      b4:	0000ad09 	andeq	sl, r0, r9, lsl #26
      b8:	06bc0700 	ldrteq	r0, [ip], r0, lsl #14
      bc:	21030000 	mrscs	r0, (UNDEF: 3)
      c0:	0000c50e 	andeq	ip, r0, lr, lsl #10
      c4:	98040800 	stmdals	r4, {fp}
      c8:	0a000000 	beq	d0 <__code_start__-0x7f30>
      cc:	0905020c 	stmdbeq	r5, {r2, r3, r9}
      d0:	000000fc 	strdeq	r0, [r0], -ip
      d4:	0000540b 	andeq	r5, r0, fp, lsl #8
      d8:	11070200 	mrsne	r0, (UNDEF: 39)
      dc:	000000a7 	andeq	r0, r0, r7, lsr #1
      e0:	005f0b00 	subseq	r0, pc, r0, lsl #22
      e4:	08020000 	stmdaeq	r2, {}	; <UNPREDICTABLE>
      e8:	0000a711 	andeq	sl, r0, r1, lsl r7
      ec:	960b0400 	strls	r0, [fp], -r0, lsl #8
      f0:	02000001 	andeq	r0, r0, #1, 0
      f4:	002c0e09 	eoreq	r0, ip, r9, lsl #28
      f8:	00080000 	andeq	r0, r8, r0
      fc:	00022d04 	andeq	r2, r2, r4, lsl #26
     100:	030a0200 	movweq	r0, #41472	; 0xa200
     104:	000000cb 	andeq	r0, r0, fp, asr #1
     108:	9907040c 	stmdbls	r7, {r2, r3, sl}
     10c:	05000000 	streq	r0, [r0, #-0]
     110:	002c11a8 	eoreq	r1, ip, r8, lsr #3
     114:	620d0000 	andvs	r0, sp, #0, 0
     118:	01007261 	tsteq	r0, r1, ror #4
     11c:	002c0a4c 	eoreq	r0, ip, ip, asr #20
     120:	81200000 			; <UNDEFINED> instruction: 0x81200000
     124:	00240000 	eoreq	r0, r4, r0
     128:	9c010000 	stcls	0, cr0, [r1], {-0}
     12c:	0000015b 	andeq	r0, r0, fp, asr r1
     130:	0100700e 	tsteq	r0, lr
     134:	01080b4d 	tsteq	r8, sp, asr #22
     138:	00040000 	andeq	r0, r4, r0
     13c:	00000000 	andeq	r0, r0, r0
     140:	300f0000 	andcc	r0, pc, r0
     144:	8a000081 	bhi	350 <__code_start__-0x7cb0>
     148:	10000002 	andne	r0, r0, r2
     14c:	0000813c 	andeq	r8, r0, ip, lsr r1
     150:	0000044d 	andeq	r0, r0, sp, asr #8
     154:	01500111 	cmpeq	r0, r1, lsl r1
     158:	12000030 	andne	r0, r0, #48, 0	; 0x30
     15c:	000001cb 	andeq	r0, r0, fp, asr #3
     160:	50062b01 	andpl	r2, r6, r1, lsl #22
     164:	9c000081 	stcls	0, cr0, [r0], {129}	; 0x81
     168:	01000000 	mrseq	r0, (UNDEF: 0)
     16c:	0002759c 	muleq	r2, ip, r5
     170:	00781300 	rsbseq	r1, r8, r0, lsl #6
     174:	2c0e3101 	stfcss	f3, [lr], {1}
     178:	0e000000 	cdpeq	0, 0, cr0, cr0, cr0, {0}
     17c:	4201006e 	andmi	r0, r1, #110, 0	; 0x6e
     180:	00002c0e 	andeq	r2, r0, lr, lsl #24
     184:	00002800 	andeq	r2, r0, r0, lsl #16
     188:	00002200 	andeq	r2, r0, r0, lsl #4
     18c:	007f1400 	rsbseq	r1, pc, r0, lsl #8
     190:	02850000 	addeq	r0, r5, #0, 0
     194:	03050000 	movweq	r0, #20480	; 0x5000
     198:	0000a720 	andeq	sl, r0, r0, lsr #14
     19c:	00816815 	addeq	r6, r1, r5, lsl r8
     1a0:	00045900 	andeq	r5, r4, r0, lsl #18
     1a4:	0001b300 	andeq	fp, r1, r0, lsl #6
     1a8:	50011100 	andpl	r1, r1, r0, lsl #2
     1ac:	a62c0305 	strtge	r0, [ip], -r5, lsl #6
     1b0:	0f000000 	svceq	0x00000000
     1b4:	0000816c 	andeq	r8, r0, ip, ror #2
     1b8:	00000116 	andeq	r0, r0, r6, lsl r1
     1bc:	00817415 	addeq	r7, r1, r5, lsl r4
     1c0:	00045900 	andeq	r5, r4, r0, lsl #18
     1c4:	0001d300 	andeq	sp, r1, r0, lsl #6
     1c8:	50011100 	andpl	r1, r1, r0, lsl #2
     1cc:	a6680305 	strbtge	r0, [r8], -r5, lsl #6
     1d0:	0f000000 	svceq	0x00000000
     1d4:	00008178 	andeq	r8, r0, r8, ror r1
     1d8:	00000465 	andeq	r0, r0, r5, ror #8
     1dc:	00817c0f 	addeq	r7, r1, pc, lsl #24
     1e0:	00047100 	andeq	r7, r4, r0, lsl #2
     1e4:	81881500 	orrhi	r1, r8, r0, lsl #10
     1e8:	04590000 	ldrbeq	r0, [r9], #-0
     1ec:	01fc0000 	mvnseq	r0, r0
     1f0:	01110000 	tsteq	r1, r0
     1f4:	7c030550 	cfstr32vc	mvfx0, [r3], {80}	; 0x50
     1f8:	000000a6 	andeq	r0, r0, r6, lsr #1
     1fc:	00819015 	addeq	r9, r1, r5, lsl r0
     200:	00045900 	andeq	r5, r4, r0, lsl #18
     204:	00021300 	andeq	r1, r2, r0, lsl #6
     208:	50011100 	andpl	r1, r1, r0, lsl #2
     20c:	a69c0305 	ldrge	r0, [ip], r5, lsl #6
     210:	0f000000 	svceq	0x00000000
     214:	00008194 	muleq	r0, r4, r1
     218:	00000471 	andeq	r0, r0, r1, ror r4
     21c:	0081a415 	addeq	sl, r1, r5, lsl r4
     220:	00045900 	andeq	r5, r4, r0, lsl #18
     224:	00023300 	andeq	r3, r2, r0, lsl #6
     228:	50011100 	andpl	r1, r1, r0, lsl #2
     22c:	a6fc0305 	ldrbtge	r0, [ip], r5, lsl #6
     230:	0f000000 	svceq	0x00000000
     234:	000081a8 	andeq	r8, r0, r8, lsr #3
     238:	0000047d 	andeq	r0, r0, sp, ror r4
     23c:	0081c815 	addeq	ip, r1, r5, lsl r8
     240:	00045900 	andeq	r5, r4, r0, lsl #18
     244:	00026b00 	andeq	r6, r2, r0, lsl #22
     248:	50011100 	andpl	r1, r1, r0, lsl #2
     24c:	a6c00305 	strbge	r0, [r0], r5, lsl #6
     250:	01110000 	tsteq	r1, r0
     254:	c0030551 	andgt	r0, r3, r1, asr r5
     258:	110000a5 	smlatbne	r0, r5, r0, r0
     25c:	03055201 	movweq	r5, #20993	; 0x5201
     260:	0000a720 	andeq	sl, r0, r0, lsr #14
     264:	02530111 	subseq	r0, r3, #1073741828	; 0x40000004
     268:	0f004408 	svceq	0x00004408
     26c:	000081cc 	andeq	r8, r0, ip, asr #3
     270:	00000489 	andeq	r0, r0, r9, lsl #9
     274:	00b41600 	adcseq	r1, r4, r0, lsl #12
     278:	02850000 	addeq	r0, r5, #0, 0
     27c:	2c170000 	ldccs	0, cr0, [r7], {-0}
     280:	07000000 	streq	r0, [r0, -r0]
     284:	02750900 	rsbseq	r0, r5, #0, 18
     288:	13180000 	tstne	r8, #0, 0
     28c:	01000002 	tsteq	r0, r2
     290:	0108070c 	tsteq	r8, ip, lsl #14
     294:	80440000 	subhi	r0, r4, r0
     298:	00d40000 	sbcseq	r0, r4, r0
     29c:	9c010000 	stcls	0, cr0, [r1], {-0}
     2a0:	000003fc 	strdeq	r0, [r0], -ip
     2a4:	0006ae19 	andeq	sl, r6, r9, lsl lr
     2a8:	0d010c00 	stceq	12, cr0, [r1, #-0]
     2ac:	0002d70c 	andeq	sp, r2, ip, lsl #14
     2b0:	00781a00 	rsbseq	r1, r8, r0, lsl #20
     2b4:	250d0e01 	strcs	r0, [sp, #-3585]	; 0xfffff1ff
     2b8:	00000000 	andeq	r0, r0, r0
     2bc:	0002280b 	andeq	r2, r2, fp, lsl #16
     2c0:	160f0100 	strne	r0, [pc], -r0, lsl #2
     2c4:	000003fc 	strdeq	r0, [r0], -ip
     2c8:	02180b04 	andseq	r0, r8, #4, 22	; 0x1000
     2cc:	10010000 	andne	r0, r1, r0
     2d0:	0003fc16 	andeq	pc, r3, r6, lsl ip	; <UNPREDICTABLE>
     2d4:	0e000800 	cdpeq	8, 0, cr0, cr0, cr0, {0}
     2d8:	11010068 	tstne	r1, r8, rrx
     2dc:	0003fc08 	andeq	pc, r3, r8, lsl #24
     2e0:	00005a00 	andeq	r5, r0, r0, lsl #20
     2e4:	00005200 	andeq	r5, r0, r0, lsl #4
     2e8:	007f1400 	rsbseq	r1, pc, r0, lsl #8
     2ec:	04120000 	ldreq	r0, [r2], #-0
     2f0:	03050000 	movweq	r0, #20480	; 0x5000
     2f4:	0000a718 	andeq	sl, r0, r8, lsl r7
     2f8:	0000001b 	andeq	r0, r0, fp, lsl r0
     2fc:	0003db00 	andeq	sp, r3, r0, lsl #22
     300:	00690e00 	rsbeq	r0, r9, r0, lsl #28
     304:	250d1301 	strcs	r1, [sp, #-769]	; 0xfffffcff
     308:	93000000 	movwls	r0, #0
     30c:	8f000000 	svchi	0x00000000
     310:	1c000000 	stcne	0, cr0, [r0], {-0}
     314:	00000020 	andeq	r0, r0, r0, lsr #32
     318:	0100650e 	tsteq	r0, lr, lsl #10
     31c:	03fc1614 	mvnseq	r1, #20, 12	; 0x1400000
     320:	00b60000 	adcseq	r0, r6, r0
     324:	00b20000 	adcseq	r0, r2, r0
     328:	171d0000 	ldrne	r0, [sp, -r0]
     32c:	7c000004 	stcvc	0, cr0, [r0], {4}
     330:	01000080 	smlabbeq	r0, r0, r0, r0
     334:	0000807c 	andeq	r8, r0, ip, ror r0
     338:	00000018 	andeq	r0, r0, r8, lsl r0
     33c:	6b1a1401 	blvs	685348 <__bss_end__+0x67a050>
     340:	1e000003 	cdpne	0, 0, cr0, cr0, cr3, {0}
     344:	00000440 	andeq	r0, r0, r0, asr #8
     348:	000000d6 	ldrdeq	r0, [r0], -r6
     34c:	000000d4 	ldrdeq	r0, [r0], -r4
     350:	0004341e 	andeq	r3, r4, lr, lsl r4
     354:	0000ec00 	andeq	lr, r0, r0, lsl #24
     358:	0000ea00 	andeq	lr, r0, r0, lsl #20
     35c:	04281e00 	strteq	r1, [r8], #-3584	; 0xfffff200
     360:	01060000 	mrseq	r0, (UNDEF: 6)
     364:	01040000 	mrseq	r0, (UNDEF: 4)
     368:	15000000 	strne	r0, [r0, #-0]
     36c:	000080a4 	andeq	r8, r0, r4, lsr #1
     370:	0000049e 	muleq	r0, lr, r4
     374:	0000037e 	andeq	r0, r0, lr, ror r3
     378:	01500111 	cmpeq	r0, r1, lsl r1
     37c:	b415003c 	ldrlt	r0, [r5], #-60	; 0xffffffc4
     380:	aa000080 	bge	588 <__code_start__-0x7a78>
     384:	9c000004 	stcls	0, cr0, [r0], {4}
     388:	11000003 	tstne	r0, r3
     38c:	74025001 	strvc	r5, [r2], #-1
     390:	51011100 	mrspl	r1, (UNDEF: 17)
     394:	01113001 	tsteq	r1, r1
     398:	003c0152 	eorseq	r0, ip, r2, asr r1
     39c:	00810015 	addeq	r0, r1, r5, lsl r0
     3a0:	00045900 	andeq	r5, r4, r0, lsl #18
     3a4:	0003d000 	andeq	sp, r3, r0
     3a8:	50011100 	andpl	r1, r1, r0, lsl #2
     3ac:	a5dc0305 	ldrbge	r0, [ip, #773]	; 0x305
     3b0:	01110000 	tsteq	r1, r0
     3b4:	587b0351 	ldmdapl	fp!, {r0, r4, r6, r8, r9}^
     3b8:	52011106 	andpl	r1, r1, #-2147483647	; 0x80000001
     3bc:	065c7b03 	ldrbeq	r7, [ip], -r3, lsl #22
     3c0:	01530111 	cmpeq	r3, r1, lsl r1
     3c4:	7d021148 	stfvcs	f1, [r2, #-288]	; 0xfffffee0
     3c8:	f0030500 			; <UNDEFINED> instruction: 0xf0030500
     3cc:	000000a5 	andeq	r0, r0, r5, lsr #1
     3d0:	0081040f 	addeq	r0, r1, pc, lsl #8
     3d4:	00048900 	andeq	r8, r4, r0, lsl #18
     3d8:	15000000 	strne	r0, [r0, #-0]
     3dc:	0000806c 	andeq	r8, r0, ip, rrx
     3e0:	00000459 	andeq	r0, r0, r9, asr r4
     3e4:	000003f2 	strdeq	r0, [r0], -r2
     3e8:	05500111 	ldrbeq	r0, [r0, #-273]	; 0xfffffeef
     3ec:	00a5fc03 	adceq	pc, r5, r3, lsl #24
     3f0:	700f0000 	andvc	r0, pc, r0
     3f4:	7d000080 	stcvc	0, cr0, [r0, #-512]	; 0xfffffe00
     3f8:	00000004 	andeq	r0, r0, r4
     3fc:	02a40408 	adceq	r0, r4, #8, 8	; 0x8000000
     400:	b4160000 	ldrlt	r0, [r6], #-0
     404:	12000000 	andne	r0, r0, #0, 0
     408:	17000004 	strne	r0, [r0, -r4]
     40c:	0000002c 	andeq	r0, r0, ip, lsr #32
     410:	02090004 	andeq	r0, r9, #4, 0
     414:	1f000004 	svcne	0x00000004
     418:	0000021d 	andeq	r0, r0, sp, lsl r2
     41c:	fc0b0d02 	stc2	13, cr0, [fp], {2}
     420:	03000000 	movweq	r0, #0
     424:	0000044d 	andeq	r0, r0, sp, asr #8
     428:	00005420 	andeq	r5, r0, r0, lsr #8
     42c:	220d0200 	andcs	r0, sp, #0, 4
     430:	000000a7 	andeq	r0, r0, r7, lsr #1
     434:	00005f20 	andeq	r5, r0, r0, lsr #30
     438:	340d0200 	strcc	r0, [sp], #-512	; 0xfffffe00
     43c:	000000a7 	andeq	r0, r0, r7, lsr #1
     440:	00019620 	andeq	r9, r1, r0, lsr #12
     444:	430d0200 	movwmi	r0, #53760	; 0xd200
     448:	0000002c 	andeq	r0, r0, ip, lsr #32
     44c:	00592100 	subseq	r2, r9, r0, lsl #2
     450:	00590000 	subseq	r0, r9, r0
     454:	b2030000 	andlt	r0, r3, #0, 0
     458:	067e2106 	ldrbteq	r2, [lr], -r6, lsl #2
     45c:	067e0000 	ldrbteq	r0, [lr], -r0
     460:	28030000 	stmdacs	r3, {}	; <UNPREDICTABLE>
     464:	02012106 	andeq	r2, r1, #-2147483647	; 0x80000001
     468:	02010000 	andeq	r0, r1, #0, 0
     46c:	71050000 	mrsvc	r0, (UNDEF: 5)
     470:	0079210a 	rsbseq	r2, r9, sl, lsl #2
     474:	00790000 	rsbseq	r0, r9, r0
     478:	6a050000 	bvs	140480 <__bss_end__+0x135188>
     47c:	01bd210a 			; <UNDEFINED> instruction: 0x01bd210a
     480:	01bd0000 			; <UNDEFINED> instruction: 0x01bd0000
     484:	6f050000 	svcvs	0x00050000
     488:	008c2106 	addeq	r2, ip, r6, lsl #2
     48c:	008c0000 	addeq	r0, ip, r0
     490:	6e030000 	cdpvs	0, 0, cr0, cr3, cr0, {0}
     494:	9e072206 	cdpls	2, 0, cr2, cr7, cr6, {0}
     498:	73657405 	cmnvc	r5, #83886080	; 0x5000000
     49c:	4c210074 	stcmi	0, cr0, [r1], #-464	; 0xfffffe30
     4a0:	4c000000 	stcmi	0, cr0, [r0], {-0}
     4a4:	05000000 	streq	r0, [r0, #-0]
     4a8:	7221084c 	eorvc	r0, r1, #76, 16	; 0x4c0000
     4ac:	72000000 	andvc	r0, r0, #0, 0
     4b0:	03000000 	movweq	r0, #0
     4b4:	160007f7 			; <UNDEFINED> instruction: 0x160007f7
     4b8:	04000008 	streq	r0, [r0], #-8
     4bc:	0001f200 	andeq	pc, r1, r0, lsl #4
     4c0:	b4010400 	strlt	r0, [r1], #-1024	; 0xfffffc00
     4c4:	0c000000 	stceq	0, cr0, [r0], {-0}
     4c8:	0000031c 	andeq	r0, r0, ip, lsl r3
     4cc:	0000000a 	andeq	r0, r0, sl
     4d0:	000081ec 	andeq	r8, r0, ip, ror #3
     4d4:	00000480 	andeq	r0, r0, r0, lsl #9
     4d8:	0000021b 	andeq	r0, r0, fp, lsl r2
     4dc:	69050402 	stmdbvs	r5, {r1, sl}
     4e0:	0300746e 	movweq	r7, #1134	; 0x46e
     4e4:	01a70704 			; <UNDEFINED> instruction: 0x01a70704
     4e8:	01030000 	mrseq	r0, (UNDEF: 3)
     4ec:	0000a806 	andeq	sl, r0, r6, lsl #16
     4f0:	05020300 	streq	r0, [r2, #-768]	; 0xfffffd00
     4f4:	00000000 	andeq	r0, r0, r0
     4f8:	69050403 	stmdbvs	r5, {r0, r1, sl}
     4fc:	03000000 	movweq	r0, #0
     500:	00640508 	rsbeq	r0, r4, r8, lsl #10
     504:	90040000 	andls	r0, r4, r0
     508:	03000002 	movweq	r0, #2
     50c:	005b182e 	subseq	r1, fp, lr, lsr #16
     510:	01030000 	mrseq	r0, (UNDEF: 3)
     514:	0000a608 	andeq	sl, r0, r8, lsl #12
     518:	02f50400 	rscseq	r0, r5, #0, 8
     51c:	31030000 	mrscc	r0, (UNDEF: 3)
     520:	00006e19 	andeq	r6, r0, r9, lsl lr
     524:	07020300 	streq	r0, [r2, -r0, lsl #6]
     528:	000001ee 	andeq	r0, r0, lr, ror #3
     52c:	0001b404 	andeq	fp, r1, r4, lsl #8
     530:	19340300 	ldmdbne	r4!, {r8, r9}
     534:	00000081 	andeq	r0, r0, r1, lsl #1
     538:	a2070403 	andge	r0, r7, #50331648	; 0x3000000
     53c:	03000001 	movweq	r0, #1
     540:	019d0708 	orrseq	r0, sp, r8, lsl #14
     544:	25050000 	strcs	r0, [r5, #-0]
     548:	9e000000 	cdpls	0, 0, cr0, cr0, cr0, {0}
     54c:	06000000 	streq	r0, [r0], -r0
     550:	00000025 	andeq	r0, r0, r5, lsr #32
     554:	00400700 	subeq	r0, r0, r0, lsl #14
     558:	1c040000 	stcne	0, cr0, [r4], {-0}
     55c:	0000aa0e 	andeq	sl, r0, lr, lsl #20
     560:	8f040800 	svchi	0x00040800
     564:	05000000 	streq	r0, [r0, #-0]
     568:	00000025 	andeq	r0, r0, r5, lsr #32
     56c:	000000bf 	strheq	r0, [r0], -pc	; <UNPREDICTABLE>
     570:	0000bf06 	andeq	fp, r0, r6, lsl #30
     574:	04080000 	streq	r0, [r8], #-0
     578:	000000cc 	andeq	r0, r0, ip, asr #1
     57c:	af080103 	svcge	0x00080103
     580:	09000000 	stmdbeq	r0, {}	; <UNPREDICTABLE>
     584:	000000c5 	andeq	r0, r0, r5, asr #1
     588:	0006bc07 	andeq	fp, r6, r7, lsl #24
     58c:	0e210400 	cdpeq	4, 2, cr0, cr1, cr0, {0}
     590:	000000dd 	ldrdeq	r0, [r0], -sp
     594:	00b00408 	adcseq	r0, r0, r8, lsl #8
     598:	0c0a0000 	stceq	0, cr0, [sl], {-0}
     59c:	14090505 	strne	r0, [r9], #-1285	; 0xfffffafb
     5a0:	0b000001 	bleq	5ac <__code_start__-0x7a54>
     5a4:	00000054 	andeq	r0, r0, r4, asr r0
     5a8:	bf110705 	svclt	0x00110705
     5ac:	00000000 	andeq	r0, r0, r0
     5b0:	00005f0b 	andeq	r5, r0, fp, lsl #30
     5b4:	11080500 	tstne	r8, r0, lsl #10
     5b8:	000000bf 	strheq	r0, [r0], -pc	; <UNPREDICTABLE>
     5bc:	01960b04 	orrseq	r0, r6, r4, lsl #22
     5c0:	09050000 	stmdbeq	r5, {}	; <UNPREDICTABLE>
     5c4:	00002c0e 	andeq	r2, r0, lr, lsl #24
     5c8:	04000800 	streq	r0, [r0], #-2048	; 0xfffff800
     5cc:	0000022d 	andeq	r0, r0, sp, lsr #4
     5d0:	e3030a05 	movw	r0, #14853	; 0x3a05
     5d4:	0c000000 	stceq	0, cr0, [r0], {-0}
     5d8:	005b0107 	subseq	r0, fp, r7, lsl #2
     5dc:	09020000 	stmdbeq	r2, {}	; <UNPREDICTABLE>
     5e0:	00013b0e 	andeq	r3, r1, lr, lsl #22
     5e4:	032b0d00 			; <UNDEFINED> instruction: 0x032b0d00
     5e8:	0d0b0000 	stceq	0, cr0, [fp, #-0]
     5ec:	00000256 	andeq	r0, r0, r6, asr r2
     5f0:	070c000c 	streq	r0, [ip, -ip]
     5f4:	00005b01 	andeq	r5, r0, r1, lsl #22
     5f8:	060a0200 	streq	r0, [sl], -r0, lsl #4
     5fc:	00000156 	andeq	r0, r0, r6, asr r1
     600:	0002740d 	andeq	r7, r2, sp, lsl #8
     604:	680d8000 	stmdavs	sp, {pc}
     608:	fe000002 	cdp2	0, 0, cr0, cr0, cr2, {0}
     60c:	02b40e00 	adcseq	r0, r4, #0, 28
     610:	02b40000 	adcseq	r0, r4, #0, 0
     614:	01e6100d 	mvneq	r1, sp
     618:	280b0000 	stmdacs	fp, {}	; <UNPREDICTABLE>
     61c:	02000002 	andeq	r0, r0, #2, 0
     620:	01e6140e 	mvneq	r1, lr, lsl #8
     624:	0b000000 	bleq	62c <__code_start__-0x79d4>
     628:	00000333 	andeq	r0, r0, r3, lsr r3
     62c:	750e0f02 	strvc	r0, [lr, #-3842]	; 0xfffff0fe
     630:	04000000 	streq	r0, [r0], #-0
     634:	0002d50b 	andeq	sp, r2, fp, lsl #10
     638:	0e100200 	cdpeq	2, 1, cr0, cr0, cr0, {0}
     63c:	00000075 	andeq	r0, r0, r5, ror r0
     640:	024d0b08 	subeq	r0, sp, #8, 22	; 0x2000
     644:	14020000 	strne	r0, [r2], #-0
     648:	0000750e 	andeq	r7, r0, lr, lsl #10
     64c:	cb0b0c00 	blgt	2c3654 <__bss_end__+0x2b835c>
     650:	02000002 	andeq	r0, r0, #2, 0
     654:	01140f16 	tsteq	r4, r6, lsl pc
     658:	0b100000 	bleq	400660 <__bss_end__+0x3f5368>
     65c:	0000036a 	andeq	r0, r0, sl, ror #6
     660:	140f1702 	strne	r1, [pc], #-1794	; 668 <__code_start__-0x7998>
     664:	1c000001 	stcne	0, cr0, [r0], {1}
     668:	0002db0b 	andeq	sp, r2, fp, lsl #22
     66c:	0e1a0200 	cdpeq	2, 1, cr0, cr10, cr0, {0}
     670:	00000075 	andeq	r0, r0, r5, ror r0
     674:	025c0b28 	subseq	r0, ip, #40, 22	; 0xa000
     678:	1b020000 	blne	80680 <__bss_end__+0x75388>
     67c:	0000750e 	andeq	r7, r0, lr, lsl #10
     680:	600b2c00 	andvs	r2, fp, r0, lsl #24
     684:	02000004 	andeq	r0, r0, #4, 0
     688:	00620e1d 	rsbeq	r0, r2, sp, lsl lr
     68c:	0f300000 	svceq	0x00300000
     690:	00317a72 	eorseq	r7, r1, r2, ror sl
     694:	ec0d1f02 	stc	15, cr1, [sp], {2}
     698:	32000001 	andcc	r0, r0, #1, 0
     69c:	56040800 	strpl	r0, [r4], -r0, lsl #16
     6a0:	10000001 	andne	r0, r0, r1
     6a4:	0000004f 	andeq	r0, r0, pc, asr #32
     6a8:	000001fc 	strdeq	r0, [r0], -ip
     6ac:	00002c11 	andeq	r2, r0, r1, lsl ip
     6b0:	04007f00 	streq	r7, [r0], #-3840	; 0xfffff100
     6b4:	00000247 	andeq	r0, r0, r7, asr #4
     6b8:	56032002 	strpl	r2, [r3], -r2
     6bc:	12000001 	andne	r0, r0, #1, 0
     6c0:	00990704 	addseq	r0, r9, r4, lsl #14
     6c4:	a8020000 	stmdage	r2, {}	; <UNPREDICTABLE>
     6c8:	00002c11 	andeq	r2, r0, r1, lsl ip
     6cc:	02a91300 	adceq	r1, r9, #0, 6
     6d0:	08010000 	stmdaeq	r1, {}	; <UNPREDICTABLE>
     6d4:	0002280f 	andeq	r2, r2, pc, lsl #16
     6d8:	c8030500 	stmdagt	r3, {r8, sl}
     6dc:	080000ae 	stmdaeq	r0, {r1, r2, r3, r5, r7}
     6e0:	0001fc04 	andeq	pc, r1, r4, lsl #24
     6e4:	02e60700 	rsceq	r0, r6, #0, 14
     6e8:	0b010000 	bleq	406f0 <__bss_end__+0x353f8>
     6ec:	0000c50d 	andeq	ip, r0, sp, lsl #10
     6f0:	034d1300 	movteq	r1, #54016	; 0xd300
     6f4:	0c010000 	stceq	0, cr0, [r1], {-0}
     6f8:	00024c0e 	andeq	r4, r2, lr, lsl #24
     6fc:	cc030500 	cfstr32gt	mvfx0, [r3], {-0}
     700:	080000ae 	stmdaeq	r0, {r1, r2, r3, r5, r7}
     704:	0000c504 	andeq	ip, r0, r4, lsl #10
     708:	004c1400 	subeq	r1, ip, r0, lsl #8
     70c:	8d010000 	stchi	0, cr0, [r1, #-0]
     710:	00020808 	andeq	r0, r2, r8, lsl #16
     714:	00853000 	addeq	r3, r5, r0
     718:	00013c00 	andeq	r3, r1, r0, lsl #24
     71c:	ec9c0100 	ldfs	f0, [ip], {0}
     720:	15000003 	strne	r0, [r0, #-3]
     724:	00000376 	andeq	r0, r0, r6, ror r3
     728:	751a8d01 	ldrvc	r8, [sl, #-3329]	; 0xfffff2ff
     72c:	24000000 	strcs	r0, [r0], #-0
     730:	1e000001 	cdpne	0, 0, cr0, cr0, cr1, {0}
     734:	16000001 	strne	r0, [r0], -r1
     738:	8d01006c 	stchi	0, cr0, [r1, #-432]	; 0xfffffe50
     73c:	0001142c 	andeq	r1, r1, ip, lsr #8
     740:	54910200 	ldrpl	r0, [r1], #512	; 0x200
     744:	00032617 	andeq	r2, r3, r7, lsl r6
     748:	0e8f0100 	rmfeqe	f0, f7, f0
     74c:	0000002c 	andeq	r0, r0, ip, lsr #32
     750:	00000158 	andeq	r0, r0, r8, asr r1
     754:	00000150 	andeq	r0, r0, r0, asr r1
     758:	01006818 	tsteq	r0, r8, lsl r8
     75c:	02280c90 	eoreq	r0, r8, #144, 24	; 0x9000
     760:	01a20000 			; <UNDEFINED> instruction: 0x01a20000
     764:	01980000 	orrseq	r0, r8, r0
     768:	65180000 	ldrvs	r0, [r8, #-0]
     76c:	0100646e 	tsteq	r0, lr, ror #8
     770:	024c0b92 	subeq	r0, ip, #149504	; 0x24800
     774:	01ea0000 	mvneq	r0, r0
     778:	01e40000 	mvneq	r0, r0
     77c:	b0190000 	andslt	r0, r9, r0
     780:	28000085 	stmdacs	r0, {r0, r2, r7}
     784:	f8000000 			; <UNDEFINED> instruction: 0xf8000000
     788:	17000002 	strne	r0, [r0, -r2]
     78c:	00000b29 	andeq	r0, r0, r9, lsr #22
     790:	4c0f9401 	cfstrsmi	mvf9, [pc], {1}
     794:	26000002 	strcs	r0, [r0], -r2
     798:	24000002 	strcs	r0, [r0], #-2
     79c:	1a000002 	bne	7ac <__code_start__-0x7854>
     7a0:	000085cc 	andeq	r8, r0, ip, asr #11
     7a4:	000007dd 	ldrdeq	r0, [r0], -sp
     7a8:	0151011b 	cmpeq	r1, fp, lsl r1
     7ac:	19000030 	stmdbne	r0, {r4, r5}
     7b0:	00008584 	andeq	r8, r0, r4, lsl #11
     7b4:	0000002c 	andeq	r0, r0, ip, lsr #32
     7b8:	00000318 	andeq	r0, r0, r8, lsl r3
     7bc:	01006918 	tsteq	r0, r8, lsl r9
     7c0:	00250e9d 	mlaeq	r5, sp, lr, r0
     7c4:	023f0000 	eorseq	r0, pc, #0, 0
     7c8:	02390000 	eorseq	r0, r9, #0, 0
     7cc:	19000000 	stmdbne	r0, {}	; <UNPREDICTABLE>
     7d0:	0000861c 	andeq	r8, r0, ip, lsl r6
     7d4:	00000024 	andeq	r0, r0, r4, lsr #32
     7d8:	0000036c 	andeq	r0, r0, ip, ror #6
     7dc:	01006918 	tsteq	r0, r8, lsl r9
     7e0:	00250ea9 	eoreq	r0, r5, r9, lsr #29
     7e4:	026d0000 	rsbeq	r0, sp, #0, 0
     7e8:	02690000 	rsbeq	r0, r9, #0, 0
     7ec:	281c0000 	ldmdacs	ip, {}	; <UNPREDICTABLE>
     7f0:	10000086 	andne	r0, r0, r6, lsl #1
     7f4:	18000000 	stmdane	r0, {}	; <UNPREDICTABLE>
     7f8:	00636f6c 	rsbeq	r6, r3, ip, ror #30
     7fc:	ec11ab01 			; <UNDEFINED> instruction: 0xec11ab01
     800:	8e000003 	cdphi	0, 0, cr0, cr0, cr3, {0}
     804:	8c000002 	stchi	0, cr0, [r0], {2}
     808:	1a000002 	bne	818 <__code_start__-0x77e8>
     80c:	00008634 	andeq	r8, r0, r4, lsr r6
     810:	000003f2 	strdeq	r0, [r0], -r2
     814:	0850011b 	ldmdaeq	r0, {r0, r1, r3, r4, r8}^
     818:	00760074 	rsbseq	r0, r6, r4, ror r0
     81c:	01b42322 			; <UNDEFINED> instruction: 0x01b42322
     820:	1d000000 	stcne	0, cr0, [r0, #-0]
     824:	00008554 	andeq	r8, r0, r4, asr r5
     828:	000007e9 	andeq	r0, r0, r9, ror #15
     82c:	00000381 	andeq	r0, r0, r1, lsl #7
     830:	0350011b 	cmpeq	r0, #-1073741818	; 0xc0000006
     834:	0002b475 	andeq	fp, r2, r5, ror r4
     838:	0085841d 	addeq	r8, r5, sp, lsl r4
     83c:	0007dd00 	andeq	sp, r7, r0, lsl #26
     840:	0003a000 	andeq	sl, r3, r0
     844:	50011b00 	andpl	r1, r1, r0, lsl #22
     848:	1b007402 	blne	1d858 <__bss_end__+0x12560>
     84c:	30015101 	andcc	r5, r1, r1, lsl #2
     850:	0252011b 	subseq	r0, r2, #-1073741818	; 0xc0000006
     854:	1d00b408 	cfstrsne	mvf11, [r0, #-32]	; 0xffffffe0
     858:	00008608 	andeq	r8, r0, r8, lsl #12
     85c:	000007f5 	strdeq	r0, [r0], -r5
     860:	000003cc 	andeq	r0, r0, ip, asr #7
     864:	0550011b 	ldrbeq	r0, [r0, #-283]	; 0xfffffee5
     868:	00a72803 	adceq	r2, r7, r3, lsl #16
     86c:	51011b00 	tstpl	r1, r0, lsl #22
     870:	06587b03 	ldrbeq	r7, [r8], -r3, lsl #22
     874:	0352011b 	cmpeq	r2, #-1073741818	; 0xc0000006
     878:	1b065c7b 	blne	197a6c <__bss_end__+0x18c774>
     87c:	7b035301 	blvc	d5488 <__bss_end__+0xca190>
     880:	1a000660 	bne	2208 <__code_start__-0x5df8>
     884:	0000861c 	andeq	r8, r0, ip, lsl r6
     888:	000007f5 	strdeq	r0, [r0], -r5
     88c:	0550011b 	ldrbeq	r0, [r0, #-283]	; 0xfffffee5
     890:	00a7bc03 	adceq	fp, r7, r3, lsl #24
     894:	51011b00 	tstpl	r1, r0, lsl #22
     898:	1b007702 	blne	1e4a8 <__bss_end__+0x131b0>
     89c:	75025201 	strvc	r5, [r2, #-513]	; 0xfffffdff
     8a0:	08000000 	stmdaeq	r0, {}	; <UNPREDICTABLE>
     8a4:	00022804 	andeq	r2, r2, r4, lsl #16
     8a8:	02bb1400 	adcseq	r1, fp, #0, 8
     8ac:	81010000 	mrshi	r0, (UNDEF: 1)
     8b0:	0003ec09 	andeq	lr, r3, r9, lsl #24
     8b4:	00846800 	addeq	r6, r4, r0, lsl #16
     8b8:	00004c00 	andeq	r4, r0, r0, lsl #24
     8bc:	219c0100 	orrscs	r0, ip, r0, lsl #2
     8c0:	15000004 	strne	r0, [r0, #-4]
     8c4:	00000356 	andeq	r0, r0, r6, asr r3
     8c8:	4c1f8101 	ldfmid	f0, [pc], {1}
     8cc:	ad000002 	stcge	0, cr0, [r0, #-8]
     8d0:	a1000002 	tstge	r0, r2
     8d4:	00000002 	andeq	r0, r0, r2
     8d8:	0002981e 	andeq	r9, r2, lr, lsl r8
     8dc:	06610100 	strbteq	r0, [r1], -r0, lsl #2
     8e0:	000082f8 	strdeq	r8, [r0], -r8	; <UNPREDICTABLE>
     8e4:	0000015c 	andeq	r0, r0, ip, asr r1
     8e8:	05e39c01 	strbeq	r9, [r3, #3073]!	; 0xc01
     8ec:	17150000 	ldrne	r0, [r5, -r0]
     8f0:	01000006 	tsteq	r0, r6
     8f4:	02081461 	andeq	r1, r8, #1627389952	; 0x61000000
     8f8:	03080000 	movweq	r0, #32768	; 0x8000
     8fc:	03000000 	movweq	r0, #0
     900:	6c160000 	ldcvs	0, cr0, [r6], {-0}
     904:	24610100 	strbtcs	r0, [r1], #-256	; 0xffffff00
     908:	00000114 	andeq	r0, r0, r4, lsl r1
     90c:	18549102 	ldmdane	r4, {r1, r8, ip, pc}^
     910:	63010068 	movwvs	r0, #4200	; 0x1068
     914:	0002280c 	andeq	r2, r2, ip, lsl #16
     918:	00034a00 	andeq	r4, r3, r0, lsl #20
     91c:	00034200 	andeq	r4, r3, r0, lsl #4
     920:	00381f00 	eorseq	r1, r8, r0, lsl #30
     924:	052a0000 	streq	r0, [sl, #-0]!
     928:	69180000 	ldmdbvs	r8, {}	; <UNPREDICTABLE>
     92c:	0e6b0100 	poweqe	f0, f3, f0
     930:	00000025 	andeq	r0, r0, r5, lsr #32
     934:	00000391 	muleq	r0, r1, r3
     938:	00000389 	andeq	r0, r0, r9, lsl #7
     93c:	0083bc20 	addeq	fp, r3, r0, lsr #24
     940:	00080100 	andeq	r0, r8, r0, lsl #2
     944:	83d01d00 	bicshi	r1, r0, #0, 26
     948:	07f50000 	ldrbeq	r0, [r5, r0]!
     94c:	04b70000 	ldrteq	r0, [r7], #0
     950:	011b0000 	tsteq	fp, r0
     954:	44030550 	strmi	r0, [r3], #-1360	; 0xfffffab0
     958:	1b0000a7 	blne	bfc <__code_start__-0x7404>
     95c:	75025101 	strvc	r5, [r2, #-257]	; 0xfffffeff
     960:	52011b00 	andpl	r1, r1, #0, 22
     964:	1b007602 	blne	1e174 <__bss_end__+0x12e7c>
     968:	77025301 	strvc	r5, [r2, -r1, lsl #6]
     96c:	d81d0000 	ldmdale	sp, {}	; <UNPREDICTABLE>
     970:	f5000083 			; <UNDEFINED> instruction: 0xf5000083
     974:	ce000007 	cdpgt	0, 0, cr0, cr0, cr7, {0}
     978:	1b000004 	blne	990 <__code_start__-0x7670>
     97c:	03055001 	movweq	r5, #20481	; 0x5001
     980:	0000a784 	andeq	sl, r0, r4, lsl #15
     984:	83dc2000 	bicshi	r2, ip, #0, 0
     988:	080d0000 	stmdaeq	sp, {}	; <UNPREDICTABLE>
     98c:	e0200000 	eor	r0, r0, r0
     990:	01000083 	smlabbeq	r0, r3, r0, r0
     994:	1d000008 	stcne	0, cr0, [r0, #-32]	; 0xffffffe0
     998:	000083f4 	strdeq	r8, [r0], -r4
     99c:	000007f5 	strdeq	r0, [r0], -r5
     9a0:	00000509 	andeq	r0, r0, r9, lsl #10
     9a4:	0550011b 	ldrbeq	r0, [r0, #-283]	; 0xfffffee5
     9a8:	00a74403 	adceq	r4, r7, r3, lsl #8
     9ac:	51011b00 	tstpl	r1, r0, lsl #22
     9b0:	1b007502 	blne	1ddc0 <__bss_end__+0x12ac8>
     9b4:	76025201 	strvc	r5, [r2], -r1, lsl #4
     9b8:	53011b00 	movwpl	r1, #6912	; 0x1b00
     9bc:	00007702 	andeq	r7, r0, r2, lsl #14
     9c0:	0083fc1d 	addeq	pc, r3, sp, lsl ip	; <UNPREDICTABLE>
     9c4:	0007f500 	andeq	pc, r7, r0, lsl #10
     9c8:	00052000 	andeq	r2, r5, r0
     9cc:	50011b00 	andpl	r1, r1, r0, lsl #22
     9d0:	a7a00305 	strge	r0, [r0, r5, lsl #6]!
     9d4:	20000000 	andcs	r0, r0, r0
     9d8:	00008400 	andeq	r8, r0, r0, lsl #8
     9dc:	0000080d 	andeq	r0, r0, sp, lsl #16
     9e0:	84001900 	strhi	r1, [r0], #-2304	; 0xfffff700
     9e4:	001c0000 	andseq	r0, ip, r0
     9e8:	054a0000 	strbeq	r0, [sl, #-0]
     9ec:	69180000 	ldmdbvs	r8, {}	; <UNPREDICTABLE>
     9f0:	0e780100 	rpweqe	f0, f0, f0
     9f4:	00000025 	andeq	r0, r0, r5, lsr #32
     9f8:	000003c7 	andeq	r0, r0, r7, asr #7
     9fc:	000003c5 	andeq	r0, r0, r5, asr #7
     a00:	83401d00 	movthi	r1, #3328	; 0xd00
     a04:	07f50000 	ldrbeq	r0, [r5, r0]!
     a08:	05730000 	ldrbeq	r0, [r3, #-0]!
     a0c:	011b0000 	tsteq	fp, r0
     a10:	28030550 	stmdacs	r3, {r4, r6, r8, sl}
     a14:	1b0000a7 	blne	cb8 <__code_start__-0x7348>
     a18:	75025101 	strvc	r5, [r2, #-257]	; 0xfffffeff
     a1c:	52011b00 	andpl	r1, r1, #0, 22
     a20:	1b007602 	blne	1e230 <__bss_end__+0x12f38>
     a24:	77025301 	strvc	r5, [r2, -r1, lsl #6]
     a28:	4c1d0000 	ldcmi	0, cr0, [sp], {-0}
     a2c:	f5000083 			; <UNDEFINED> instruction: 0xf5000083
     a30:	90000007 	andls	r0, r0, r7
     a34:	1b000005 	blne	a50 <__code_start__-0x75b0>
     a38:	03055001 	movweq	r5, #20481	; 0x5001
     a3c:	0000a734 	andeq	sl, r0, r4, lsr r7
     a40:	0251011b 	subseq	r0, r1, #-1073741818	; 0xc0000006
     a44:	20000074 	andcs	r0, r0, r4, ror r0
     a48:	00008394 	muleq	r0, r4, r3
     a4c:	00000801 	andeq	r0, r0, r1, lsl #16
     a50:	0083a81d 	addeq	sl, r3, sp, lsl r8
     a54:	0007f500 	andeq	pc, r7, r0, lsl #10
     a58:	0005c200 	andeq	ip, r5, r0, lsl #4
     a5c:	50011b00 	andpl	r1, r1, r0, lsl #22
     a60:	a7440305 	strbge	r0, [r4, -r5, lsl #6]
     a64:	011b0000 	tsteq	fp, r0
     a68:	00750251 	rsbseq	r0, r5, r1, asr r2
     a6c:	0252011b 	subseq	r0, r2, #-1073741818	; 0xc0000006
     a70:	011b0076 	tsteq	fp, r6, ror r0
     a74:	00770253 	rsbseq	r0, r7, r3, asr r2
     a78:	83b41d00 			; <UNDEFINED> instruction: 0x83b41d00
     a7c:	07f50000 	ldrbeq	r0, [r5, r0]!
     a80:	05d90000 	ldrbeq	r0, [r9]
     a84:	011b0000 	tsteq	fp, r0
     a88:	5c030550 	cfstr32pl	mvfx0, [r3], {80}	; 0x50
     a8c:	000000a7 	andeq	r0, r0, r7, lsr #1
     a90:	0083b820 	addeq	fp, r3, r0, lsr #16
     a94:	00080d00 	andeq	r0, r8, r0, lsl #26
     a98:	fe140000 	cdp2	0, 1, cr0, cr4, cr0, {0}
     a9c:	01000002 	tsteq	r0, r2
     aa0:	0228082f 	eoreq	r0, r8, #3080192	; 0x2f0000
     aa4:	84cc0000 	strbhi	r0, [ip], #0
     aa8:	00580000 	subseq	r0, r8, r0
     aac:	9c010000 	stcls	0, cr0, [r1], {-0}
     ab0:	00000660 	andeq	r0, r0, r0, ror #12
     ab4:	72747021 	rsbsvc	r7, r4, #33, 0	; 0x21
     ab8:	202f0100 	eorcs	r0, pc, r0, lsl #2
     abc:	00000208 	andeq	r0, r0, r8, lsl #4
     ac0:	000003de 	ldrdeq	r0, [r0], -lr
     ac4:	000003da 	ldrdeq	r0, [r0], -sl
     ac8:	74756f18 	ldrbtvc	r6, [r5], #-3864	; 0xfffff0e8
     acc:	0d320100 	ldfeqs	f0, [r2, #-0]
     ad0:	000003ec 	andeq	r0, r0, ip, ror #7
     ad4:	00000400 	andeq	r0, r0, r0, lsl #8
     ad8:	000003fc 	strdeq	r0, [r0], -ip
     adc:	00063522 	andeq	r3, r6, r2, lsr #10
     ae0:	00682300 	rsbeq	r2, r8, r0, lsl #6
     ae4:	28113c01 	ldmdacs	r1, {r0, sl, fp, ip, sp}
     ae8:	00000002 	andeq	r0, r0, r2
     aec:	0084e01d 	addeq	lr, r4, sp, lsl r0
     af0:	0003f200 	andeq	pc, r3, r0, lsl #4
     af4:	00064900 	andeq	r4, r6, r0, lsl #18
     af8:	50011b00 	andpl	r1, r1, r0, lsl #22
     afc:	00007502 	andeq	r7, r0, r2, lsl #10
     b00:	0085041a 	addeq	r0, r5, sl, lsl r4
     b04:	00066000 	andeq	r6, r6, r0
     b08:	50011b00 	andpl	r1, r1, r0, lsl #22
     b0c:	1b007402 	blne	1db1c <__bss_end__+0x12824>
     b10:	75025101 	strvc	r5, [r2, #-257]	; 0xfffffeff
     b14:	14000000 	strne	r0, [r0], #-0
     b18:	00000237 	andeq	r0, r0, r7, lsr r2
     b1c:	2c0a2801 	stccs	8, cr2, [sl], {1}
     b20:	b4000000 	strlt	r0, [r0], #-0
     b24:	38000082 	stmdacc	r0, {r1, r7}
     b28:	01000000 	mrseq	r0, (UNDEF: 0)
     b2c:	0006ed9c 	muleq	r6, ip, sp
     b30:	00682100 	rsbeq	r2, r8, r0, lsl #2
     b34:	28212801 	stmdacs	r1!, {r0, fp, sp}
     b38:	22000002 	andcs	r0, r0, #2, 0
     b3c:	1e000004 	cdpne	0, 0, cr0, cr0, cr4, {0}
     b40:	21000004 	tstcs	r0, r4
     b44:	00727470 	rsbseq	r7, r2, r0, ror r4
     b48:	082a2801 	stmdaeq	sl!, {r0, fp, sp}
     b4c:	44000002 	strmi	r0, [r0], #-2
     b50:	40000004 	andmi	r0, r0, r4
     b54:	18000004 	stmdane	r0, {r2}
     b58:	006e696d 	rsbeq	r6, lr, sp, ror #18
     b5c:	080b2a01 	stmdaeq	fp, {r0, r9, fp, sp}
     b60:	66000002 	strvs	r0, [r0], -r2
     b64:	62000004 	andvs	r0, r0, #4, 0
     b68:	18000004 	stmdane	r0, {r2}
     b6c:	0078616d 	rsbseq	r6, r8, sp, ror #2
     b70:	080b2b01 	stmdaeq	fp, {r0, r8, r9, fp, sp}
     b74:	86000002 	strhi	r0, [r0], -r2
     b78:	84000004 	strhi	r0, [r0], #-4
     b7c:	1d000004 	stcne	0, cr0, [r0, #-16]
     b80:	000082cc 	andeq	r8, r0, ip, asr #5
     b84:	00000751 	andeq	r0, r0, r1, asr r7
     b88:	000006dc 	ldrdeq	r0, [r0], -ip
     b8c:	0250011b 	subseq	r0, r0, #-1073741818	; 0xc0000006
     b90:	1a000076 	bne	d70 <__code_start__-0x7290>
     b94:	000082d8 	ldrdeq	r8, [r0], -r8	; <UNPREDICTABLE>
     b98:	000006ed 	andeq	r0, r0, sp, ror #13
     b9c:	0250011b 	subseq	r0, r0, #-1073741818	; 0xc0000006
     ba0:	00000076 	andeq	r0, r0, r6, ror r0
     ba4:	00035f14 	andeq	r5, r3, r4, lsl pc
     ba8:	07220100 	streq	r0, [r2, -r0, lsl #2]!
     bac:	00000208 	andeq	r0, r0, r8, lsl #4
     bb0:	00008280 	andeq	r8, r0, r0, lsl #5
     bb4:	00000020 	andeq	r0, r0, r0, lsr #32
     bb8:	07519c01 	ldrbeq	r9, [r1, -r1, lsl #24]
     bbc:	68210000 	stmdavs	r1!, {}	; <UNPREDICTABLE>
     bc0:	19220100 	stmdbne	r2!, {r8}
     bc4:	00000228 	andeq	r0, r0, r8, lsr #4
     bc8:	0000049d 	muleq	r0, sp, r4
     bcc:	00000499 	muleq	r0, r9, r4
     bd0:	0007c124 	andeq	ip, r7, r4, lsr #2
     bd4:	00829400 	addeq	r9, r2, r0, lsl #8
     bd8:	82940000 	addshi	r0, r4, #0, 0
     bdc:	00040000 	andeq	r0, r4, r0
     be0:	24010000 	strcs	r0, [r1], #-0
     be4:	00074026 	andeq	r4, r7, r6, lsr #32
     be8:	07d22500 	ldrbeq	r2, [r2, r0, lsl #10]
     bec:	04bd0000 	ldrteq	r0, [sp], #0
     bf0:	04bb0000 	ldrteq	r0, [fp], #0
     bf4:	1a000000 	bne	bfc <__code_start__-0x7404>
     bf8:	00008294 	muleq	r0, r4, r2
     bfc:	00000751 	andeq	r0, r0, r1, asr r7
     c00:	0250011b 	subseq	r0, r0, #-1073741818	; 0xc0000006
     c04:	00000074 	andeq	r0, r0, r4, ror r0
     c08:	00034014 	andeq	r4, r3, r4, lsl r0
     c0c:	071c0100 	ldreq	r0, [ip, -r0, lsl #2]
     c10:	00000208 	andeq	r0, r0, r8, lsl #4
     c14:	0000825c 	andeq	r8, r0, ip, asr r2
     c18:	00000014 	andeq	r0, r0, r4, lsl r0
     c1c:	077e9c01 	ldrbeq	r9, [lr, -r1, lsl #24]!
     c20:	68210000 	stmdavs	r1!, {}	; <UNPREDICTABLE>
     c24:	1b1c0100 	blne	70102c <__bss_end__+0x6f5d34>
     c28:	00000228 	andeq	r0, r0, r8, lsr #4
     c2c:	000004d4 	ldrdeq	r0, [r0], -r4
     c30:	000004d0 	ldrdeq	r0, [r0], -r0	; <UNPREDICTABLE>
     c34:	03101400 	tsteq	r0, #0, 8
     c38:	15010000 	strne	r0, [r1, #-0]
     c3c:	00022808 	andeq	r2, r2, r8, lsl #16
     c40:	00822c00 	addeq	r2, r2, r0, lsl #24
     c44:	00001c00 	andeq	r1, r0, r0, lsl #24
     c48:	ab9c0100 	blge	fe701050 <__bss_end__+0xfe6f5d58>
     c4c:	21000007 	tstcs	r0, r7
     c50:	15010070 	strne	r0, [r1, #-112]	; 0xffffff90
     c54:	0002281b 	andeq	r2, r2, fp, lsl r8
     c58:	0004f900 	andeq	pc, r4, r0, lsl #18
     c5c:	0004f500 	andeq	pc, r4, r0, lsl #10
     c60:	83260000 			; <UNDEFINED> instruction: 0x83260000
     c64:	01000002 	tsteq	r0, r2
     c68:	0228080f 	eoreq	r0, r8, #983040	; 0xf0000
     c6c:	82000000 	andhi	r0, r0, #0, 0
     c70:	001c0000 	andseq	r0, ip, r0
     c74:	9c010000 	stcls	0, cr0, [r1], {-0}
     c78:	00037327 	andeq	r7, r3, r7, lsr #6
     c7c:	18310200 	ldmdane	r1!, {r9}
     c80:	0000002c 	andeq	r0, r0, ip, lsr #32
     c84:	0007dd03 	andeq	sp, r7, r3, lsl #26
     c88:	00682800 	rsbeq	r2, r8, r0, lsl #16
     c8c:	28293102 	stmdacs	r9!, {r1, r8, ip, sp}
     c90:	00000002 	andeq	r0, r0, r2
     c94:	00007229 	andeq	r7, r0, r9, lsr #4
     c98:	00007200 	andeq	r7, r0, r0, lsl #4
     c9c:	07f70400 	ldrbeq	r0, [r7, r0, lsl #8]!
     ca0:	00037d29 	andeq	r7, r3, r9, lsr #26
     ca4:	00037d00 	andeq	r7, r3, r0, lsl #26
     ca8:	071e0600 	ldreq	r0, [lr, -r0, lsl #12]
     cac:	00067e29 	andeq	r7, r6, r9, lsr #28
     cb0:	00067e00 	andeq	r7, r6, r0, lsl #28
     cb4:	06280400 	strteq	r0, [r8], -r0, lsl #8
     cb8:	00029f29 	andeq	r9, r2, r9, lsr #30
     cbc:	00029f00 	andeq	r9, r2, r0, lsl #30
     cc0:	05040700 	streq	r0, [r4, #-1792]	; 0xfffff900
     cc4:	00008c29 	andeq	r8, r0, r9, lsr #24
     cc8:	00008c00 	andeq	r8, r0, r0, lsl #24
     ccc:	066e0400 	strbteq	r0, [lr], -r0, lsl #8
     cd0:	0002ec00 	andeq	lr, r2, r0, lsl #24
     cd4:	5c000400 	cfstrspl	mvf0, [r0], {-0}
     cd8:	04000004 	streq	r0, [r0], #-4
     cdc:	0000b401 	andeq	fp, r0, r1, lsl #8
     ce0:	03af0c00 			; <UNDEFINED> instruction: 0x03af0c00
     ce4:	03bb0000 			; <UNDEFINED> instruction: 0x03bb0000
     ce8:	866c0000 	strbthi	r0, [ip], -r0
     cec:	02000000 	andeq	r0, r0, #0, 0
     cf0:	06250000 	strteq	r0, [r5], -r0
     cf4:	04020000 	streq	r0, [r2], #-0
     cf8:	746e6905 	strbtvc	r6, [lr], #-2309	; 0xfffff6fb
     cfc:	07040300 	streq	r0, [r4, -r0, lsl #6]
     d00:	000001a7 	andeq	r0, r0, r7, lsr #3
     d04:	a8060103 	stmdage	r6, {r0, r1, r8}
     d08:	03000000 	movweq	r0, #0
     d0c:	00000502 	andeq	r0, r0, r2, lsl #10
     d10:	04030000 	streq	r0, [r3], #-0
     d14:	00006905 	andeq	r6, r0, r5, lsl #18
     d18:	05080300 	streq	r0, [r8, #-768]	; 0xfffffd00
     d1c:	00000064 	andeq	r0, r0, r4, rrx
     d20:	a6080103 	strge	r0, [r8], -r3, lsl #2
     d24:	03000000 	movweq	r0, #0
     d28:	01ee0702 	mvneq	r0, r2, lsl #14
     d2c:	04030000 	streq	r0, [r3], #-0
     d30:	0001a207 	andeq	sl, r1, r7, lsl #4
     d34:	07080300 	streq	r0, [r8, -r0, lsl #6]
     d38:	0000019d 	muleq	r0, sp, r1
     d3c:	00002504 	andeq	r2, r0, r4, lsl #10
     d40:	00007a00 	andeq	r7, r0, r0, lsl #20
     d44:	00250500 	eoreq	r0, r5, r0, lsl #10
     d48:	06000000 	streq	r0, [r0], -r0
     d4c:	00000040 	andeq	r0, r0, r0, asr #32
     d50:	860e1c02 	strhi	r1, [lr], -r2, lsl #24
     d54:	07000000 	streq	r0, [r0, -r0]
     d58:	00006b04 	andeq	r6, r0, r4, lsl #22
     d5c:	00250400 	eoreq	r0, r5, r0, lsl #8
     d60:	009b0000 	addseq	r0, fp, r0
     d64:	9b050000 	blls	140d6c <__bss_end__+0x135a74>
     d68:	00000000 	andeq	r0, r0, r0
     d6c:	00a80407 	adceq	r0, r8, r7, lsl #8
     d70:	01030000 	mrseq	r0, (UNDEF: 3)
     d74:	0000af08 	andeq	sl, r0, r8, lsl #30
     d78:	00a10800 	adceq	r0, r1, r0, lsl #16
     d7c:	bc060000 	stclt	0, cr0, [r6], {-0}
     d80:	02000006 	andeq	r0, r0, #6, 0
     d84:	00b90e21 	adcseq	r0, r9, r1, lsr #28
     d88:	04070000 	streq	r0, [r7], #-0
     d8c:	0000008c 	andeq	r0, r0, ip, lsl #1
     d90:	00039409 	andeq	r9, r3, r9, lsl #8
     d94:	05010800 	streq	r0, [r1, #-2048]	; 0xfffff800
     d98:	0000ec07 	andeq	lr, r0, r7, lsl #24
     d9c:	00640a00 	rsbeq	r0, r4, r0, lsl #20
     da0:	ec090701 	stc	7, cr0, [r9], {1}
     da4:	0a000000 	beq	dac <__code_start__-0x7254>
     da8:	08010070 	stmdaeq	r1, {r4, r5, r6}
     dac:	0000f308 	andeq	pc, r0, r8, lsl #6
     db0:	70660a00 	rsbvc	r0, r6, r0, lsl #20
     db4:	09090100 	stmdbeq	r9, {r8}
     db8:	000000f6 	strdeq	r0, [r0], -r6
     dbc:	04080300 	streq	r0, [r8], #-768	; 0xfffffd00
     dc0:	000003ef 	andeq	r0, r0, pc, ror #7
     dc4:	070c040b 	streq	r0, [ip, -fp, lsl #8]
     dc8:	0000f504 	andeq	pc, r0, r4, lsl #10
     dcc:	01080d00 	tsteq	r8, r0, lsl #26
     dd0:	0120020e 			; <UNDEFINED> instruction: 0x0120020e
     dd4:	700e0000 	andvc	r0, lr, r0
     dd8:	01007274 	tsteq	r0, r4, ror r2
     ddc:	01421110 	cmpeq	r2, r0, lsl r1
     de0:	0f000000 	svceq	0x00000000
     de4:	00000326 	andeq	r0, r0, r6, lsr #6
     de8:	2c0c1101 	stfcss	f1, [ip], {1}
     dec:	04000000 	streq	r0, [r0], #-0
     df0:	03870900 	orreq	r0, r7, #0, 18
     df4:	01080000 	mrseq	r0, (UNDEF: 8)
     df8:	01420f0c 	cmpeq	r2, ip, lsl #30
     dfc:	730a0000 	movwvc	r0, #40960	; 0xa000
     e00:	04120100 	ldreq	r0, [r2], #-256	; 0xffffff00
     e04:	000000fc 	strdeq	r0, [r0], -ip
     e08:	0100780a 	tsteq	r0, sl, lsl #16
     e0c:	00bf0e13 	adcseq	r0, pc, r3, lsl lr	; <UNPREDICTABLE>
     e10:	07000000 	streq	r0, [r0, -r0]
     e14:	00012004 	andeq	r2, r1, r4
     e18:	04091000 	streq	r1, [r9], #-0
     e1c:	14010000 	strne	r0, [r1], #-0
     e20:	00012003 	andeq	r2, r1, r3
     e24:	03f61100 	mvnseq	r1, #0
     e28:	18010000 	stmdane	r1, {}	; <UNPREDICTABLE>
     e2c:	0001480f 	andeq	r4, r1, pc, lsl #16
     e30:	d8030500 	stmdale	r3, {r8, sl}
     e34:	110000ae 	smlatbne	r0, lr, r0, r0
     e38:	000003a2 	andeq	r0, r0, r2, lsr #7
     e3c:	78101901 	ldmdavc	r0, {r0, r8, fp, ip}
     e40:	05000001 	streq	r0, [r0, #-1]
     e44:	00aed003 	adceq	sp, lr, r3
     e48:	48040700 	stmdami	r4, {r8, r9, sl}
     e4c:	12000001 	andne	r0, r0, #1, 0
     e50:	0000039a 	muleq	r0, sl, r3
     e54:	78065301 	stmdavc	r6, {r0, r8, r9, ip, lr}
     e58:	c4000086 	strgt	r0, [r0], #-134	; 0xffffff7a
     e5c:	01000000 	mrseq	r0, (UNDEF: 0)
     e60:	0001c79c 	muleq	r1, ip, r7
     e64:	70611300 	rsbvc	r1, r1, r0, lsl #6
     e68:	14530100 	ldrbne	r0, [r3], #-256	; 0xffffff00
     e6c:	000000f3 	strdeq	r0, [r0], -r3
     e70:	62145001 	andsvs	r5, r4, #1, 0
     e74:	55010070 	strpl	r0, [r1, #-112]	; 0xffffff90
     e78:	0001780a 	andeq	r7, r1, sl, lsl #16
     e7c:	00052200 	andeq	r2, r5, r0, lsl #4
     e80:	00051a00 	andeq	r1, r5, r0, lsl #20
     e84:	00701400 	rsbseq	r1, r0, r0, lsl #8
     e88:	780f5501 	stmdavc	pc, {r0, r8, sl, ip, lr}	; <UNPREDICTABLE>
     e8c:	5e000001 	cdppl	0, 0, cr0, cr0, cr1, {0}
     e90:	5a000005 	bpl	eac <__code_start__-0x7154>
     e94:	00000005 	andeq	r0, r0, r5
     e98:	00037d15 	andeq	r7, r3, r5, lsl sp
     e9c:	072b0100 	streq	r0, [fp, -r0, lsl #2]!
     ea0:	000000f3 	strdeq	r0, [r0], -r3
     ea4:	000087b8 			; <UNDEFINED> instruction: 0x000087b8
     ea8:	000000b4 	strheq	r0, [r0], -r4
     eac:	02419c01 	subeq	r9, r1, #256	; 0x100
     eb0:	76160000 	ldrvc	r0, [r6], -r0
     eb4:	01000003 	tsteq	r0, r3
     eb8:	002c1a2b 	eoreq	r1, ip, fp, lsr #20
     ebc:	05840000 	streq	r0, [r4]
     ec0:	057c0000 	ldrbeq	r0, [ip, #-0]!
     ec4:	70140000 	andsvc	r0, r4, r0
     ec8:	0a2d0100 	beq	b412d0 <__bss_end__+0xb35fd8>
     ecc:	00000178 	andeq	r0, r0, r8, ror r1
     ed0:	000005cc 	andeq	r0, r0, ip, asr #11
     ed4:	000005be 			; <UNDEFINED> instruction: 0x000005be
     ed8:	00038e17 	andeq	r8, r3, r7, lsl lr
     edc:	0e2d0100 	sufeqe	f0, f5, f0
     ee0:	00000178 	andeq	r0, r0, r8, ror r1
     ee4:	0000062e 	andeq	r0, r0, lr, lsr #12
     ee8:	00000624 	andeq	r0, r0, r4, lsr #12
     eec:	0003a817 	andeq	sl, r3, r7, lsl r8
     ef0:	0b2e0100 	bleq	b812f8 <__bss_end__+0xb76000>
     ef4:	0000002c 	andeq	r0, r0, ip, lsr #32
     ef8:	00000674 	andeq	r0, r0, r4, ror r6
     efc:	00000672 	andeq	r0, r0, r2, ror r6
     f00:	00885c18 	addeq	r5, r8, r8, lsl ip
     f04:	00024100 	andeq	r4, r2, r0, lsl #2
     f08:	50011900 	andpl	r1, r1, r0, lsl #18
     f0c:	80000a03 	andhi	r0, r0, r3, lsl #20
     f10:	001a0000 	andseq	r0, sl, r0
     f14:	01000004 	tsteq	r0, r4
     f18:	0178101c 	cmneq	r8, ip, lsl r0
     f1c:	874c0000 	strbhi	r0, [ip, -r0]
     f20:	005c0000 	subseq	r0, ip, r0
     f24:	9c010000 	stcls	0, cr0, [r1], {-0}
     f28:	000002d1 	ldrdeq	r0, [r0], -r1
     f2c:	00756e1b 	rsbseq	r6, r5, fp, lsl lr
     f30:	2c221c01 	stccs	12, cr1, [r2], #-4
     f34:	8b000000 	blhi	f3c <__code_start__-0x70c4>
     f38:	87000006 	strhi	r0, [r0, -r6]
     f3c:	14000006 	strne	r0, [r0], #-6
     f40:	01007063 	tsteq	r0, r3, rrx
     f44:	02d10821 	sbcseq	r0, r1, #2162688	; 0x210000
     f48:	06af0000 	strteq	r0, [pc], r0
     f4c:	06a90000 	strteq	r0, [r9], r0
     f50:	75140000 	ldrvc	r0, [r4, #-0]
     f54:	24010070 	strcs	r0, [r1], #-112	; 0xffffff90
     f58:	0001780a 	andeq	r7, r1, sl, lsl #16
     f5c:	0006de00 	andeq	sp, r6, r0, lsl #28
     f60:	0006da00 	andeq	sp, r6, r0, lsl #20
     f64:	87701c00 	ldrbhi	r1, [r0, -r0, lsl #24]!
     f68:	02d70000 	sbcseq	r0, r7, #0, 0
     f6c:	02b10000 	adcseq	r0, r1, #0, 0
     f70:	01190000 	tsteq	r9, r0
     f74:	d8030550 	stmdale	r3, {r4, r6, r8, sl}
     f78:	190000a7 	stmdbne	r0, {r0, r1, r2, r5, r7}
     f7c:	74025101 	strvc	r5, [r2], #-257	; 0xfffffeff
     f80:	781c0000 	ldmdavc	ip, {}	; <UNPREDICTABLE>
     f84:	e3000087 	movw	r0, #135	; 0x87
     f88:	c7000002 	strgt	r0, [r0, -r2]
     f8c:	19000002 	stmdbne	r0, {r1}
     f90:	74045001 	strvc	r5, [r4], #-1
     f94:	00243300 	eoreq	r3, r4, r0, lsl #6
     f98:	00878c1d 	addeq	r8, r7, sp, lsl ip
     f9c:	00017e00 	andeq	r7, r1, r0, lsl #28
     fa0:	04070000 	streq	r0, [r7], #-0
     fa4:	000000a1 	andeq	r0, r0, r1, lsr #1
     fa8:	00067e1e 	andeq	r7, r6, lr, lsl lr
     fac:	00067e00 	andeq	r7, r6, r0, lsl #28
     fb0:	06280200 	strteq	r0, [r8], -r0, lsl #4
     fb4:	0003fb1e 	andeq	pc, r3, lr, lsl fp	; <UNPREDICTABLE>
     fb8:	0003fb00 	andeq	pc, r3, r0, lsl #22
     fbc:	0b1a0300 	bleq	681bc4 <__bss_end__+0x6768cc>
     fc0:	000cb100 	andeq	fp, ip, r0, lsl #2
     fc4:	33000400 	movwcc	r0, #1024	; 0x400
     fc8:	04000006 	streq	r0, [r0], #-6
     fcc:	0000b401 	andeq	fp, r0, r1, lsl #8
     fd0:	04c40c00 	strbeq	r0, [r4], #3072	; 0xc00
     fd4:	000a0000 	andeq	r0, sl, r0
     fd8:	886c0000 	stmdahi	ip!, {}^	; <UNPREDICTABLE>
     fdc:	06a80000 	strteq	r0, [r8], r0
     fe0:	08510000 	ldmdaeq	r1, {}^	; <UNPREDICTABLE>
     fe4:	04020000 	streq	r0, [r2], #-0
     fe8:	746e6905 	strbtvc	r6, [lr], #-2309	; 0xfffff6fb
     fec:	07040300 	streq	r0, [r4, -r0, lsl #6]
     ff0:	000001a7 	andeq	r0, r0, r7, lsr #3
     ff4:	a8060103 	stmdage	r6, {r0, r1, r8}
     ff8:	03000000 	movweq	r0, #0
     ffc:	00000502 	andeq	r0, r0, r2, lsl #10
    1000:	04030000 	streq	r0, [r3], #-0
    1004:	00006905 	andeq	r6, r0, r5, lsl #18
    1008:	05080300 	streq	r0, [r8, #-768]	; 0xfffffd00
    100c:	00000064 	andeq	r0, r0, r4, rrx
    1010:	00029004 	andeq	r9, r2, r4
    1014:	182e0300 	stmdane	lr!, {r8, r9}
    1018:	0000005b 	andeq	r0, r0, fp, asr r0
    101c:	a6080103 	strge	r0, [r8], -r3, lsl #2
    1020:	04000000 	streq	r0, [r0], #-0
    1024:	000002f5 	strdeq	r0, [r0], -r5
    1028:	6e193103 	mufvse	f3, f1, f3
    102c:	03000000 	movweq	r0, #0
    1030:	01ee0702 	mvneq	r0, r2, lsl #14
    1034:	b4040000 	strlt	r0, [r4], #-0
    1038:	03000001 	movweq	r0, #1
    103c:	00811934 	addeq	r1, r1, r4, lsr r9
    1040:	04030000 	streq	r0, [r3], #-0
    1044:	0001a207 	andeq	sl, r1, r7, lsl #4
    1048:	07080300 	streq	r0, [r8, -r0, lsl #6]
    104c:	0000019d 	muleq	r0, sp, r1
    1050:	00002505 	andeq	r2, r0, r5, lsl #10
    1054:	00009e00 	andeq	r9, r0, r0, lsl #28
    1058:	00250600 	eoreq	r0, r5, r0, lsl #12
    105c:	07000000 	streq	r0, [r0, -r0]
    1060:	00000040 	andeq	r0, r0, r0, asr #32
    1064:	aa0e1c04 	bge	38807c <__bss_end__+0x37cd84>
    1068:	08000000 	stmdaeq	r0, {}	; <UNPREDICTABLE>
    106c:	00008f04 	andeq	r8, r0, r4, lsl #30
    1070:	00250500 	eoreq	r0, r5, r0, lsl #10
    1074:	00bf0000 	adcseq	r0, pc, r0
    1078:	bf060000 	svclt	0x00060000
    107c:	00000000 	andeq	r0, r0, r0
    1080:	00cc0408 	sbceq	r0, ip, r8, lsl #8
    1084:	01030000 	mrseq	r0, (UNDEF: 3)
    1088:	0000af08 	andeq	sl, r0, r8, lsl #30
    108c:	00c50900 	sbceq	r0, r5, r0, lsl #18
    1090:	bc070000 	stclt	0, cr0, [r7], {-0}
    1094:	04000006 	streq	r0, [r0], #-6
    1098:	00dd0e21 	sbcseq	r0, sp, r1, lsr #28
    109c:	04080000 	streq	r0, [r8], #-0
    10a0:	000000b0 	strheq	r0, [r0], -r0	; <UNPREDICTABLE>
    10a4:	05020c0a 	streq	r0, [r2, #-3082]	; 0xfffff3f6
    10a8:	00011409 	andeq	r1, r1, r9, lsl #8
    10ac:	00540b00 	subseq	r0, r4, r0, lsl #22
    10b0:	07020000 	streq	r0, [r2, -r0]
    10b4:	0000bf11 	andeq	fp, r0, r1, lsl pc
    10b8:	5f0b0000 	svcpl	0x000b0000
    10bc:	02000000 	andeq	r0, r0, #0, 0
    10c0:	00bf1108 	adcseq	r1, pc, r8, lsl #2
    10c4:	0b040000 	bleq	1010cc <__bss_end__+0xf5dd4>
    10c8:	00000196 	muleq	r0, r6, r1
    10cc:	2c0e0902 			; <UNDEFINED> instruction: 0x2c0e0902
    10d0:	08000000 	stmdaeq	r0, {}	; <UNPREDICTABLE>
    10d4:	022d0400 	eoreq	r0, sp, #0, 8
    10d8:	0a020000 	beq	810e0 <__bss_end__+0x75de8>
    10dc:	0000e303 	andeq	lr, r0, r3, lsl #6
    10e0:	01070c00 	tsteq	r7, r0, lsl #24
    10e4:	0000005b 	andeq	r0, r0, fp, asr r0
    10e8:	3b0e0905 	blcc	383504 <__bss_end__+0x37820c>
    10ec:	0d000001 	stceq	0, cr0, [r0, #-4]
    10f0:	0000032b 	andeq	r0, r0, fp, lsr #6
    10f4:	02560d0b 	subseq	r0, r6, #704	; 0x2c0
    10f8:	000c0000 	andeq	r0, ip, r0
    10fc:	5b01070c 	blpl	42d34 <__bss_end__+0x37a3c>
    1100:	05000000 	streq	r0, [r0, #-0]
    1104:	0156060a 	cmpeq	r6, sl, lsl #12
    1108:	740d0000 	strvc	r0, [sp], #-0
    110c:	80000002 	andhi	r0, r0, r2
    1110:	0002680d 	andeq	r6, r2, sp, lsl #16
    1114:	0e00fe00 	cdpeq	14, 0, cr15, cr0, cr0, {0}
    1118:	000002b4 			; <UNDEFINED> instruction: 0x000002b4
    111c:	100d05b4 			; <UNDEFINED> instruction: 0x100d05b4
    1120:	000001e6 	andeq	r0, r0, r6, ror #3
    1124:	0002280b 	andeq	r2, r2, fp, lsl #16
    1128:	140e0500 	strne	r0, [lr], #-1280	; 0xfffffb00
    112c:	000001e6 	andeq	r0, r0, r6, ror #3
    1130:	03330b00 	teqeq	r3, #0, 22
    1134:	0f050000 	svceq	0x00050000
    1138:	0000750e 	andeq	r7, r0, lr, lsl #10
    113c:	d50b0400 	strle	r0, [fp, #-1024]	; 0xfffffc00
    1140:	05000002 	streq	r0, [r0, #-2]
    1144:	00750e10 	rsbseq	r0, r5, r0, lsl lr
    1148:	0b080000 	bleq	201150 <__bss_end__+0x1f5e58>
    114c:	0000024d 	andeq	r0, r0, sp, asr #4
    1150:	750e1405 	strvc	r1, [lr, #-1029]	; 0xfffffbfb
    1154:	0c000000 	stceq	0, cr0, [r0], {-0}
    1158:	0002cb0b 	andeq	ip, r2, fp, lsl #22
    115c:	0f160500 	svceq	0x00160500
    1160:	00000114 	andeq	r0, r0, r4, lsl r1
    1164:	036a0b10 	cmneq	sl, #16, 22	; 0x4000
    1168:	17050000 	strne	r0, [r5, -r0]
    116c:	0001140f 	andeq	r1, r1, pc, lsl #8
    1170:	db0b1c00 	blle	2c8178 <__bss_end__+0x2bce80>
    1174:	05000002 	streq	r0, [r0, #-2]
    1178:	00750e1a 	rsbseq	r0, r5, sl, lsl lr
    117c:	0b280000 	bleq	a01184 <__bss_end__+0x9f5e8c>
    1180:	0000025c 	andeq	r0, r0, ip, asr r2
    1184:	750e1b05 	strvc	r1, [lr, #-2821]	; 0xfffff4fb
    1188:	2c000000 	stccs	0, cr0, [r0], {-0}
    118c:	0004600b 	andeq	r6, r4, fp
    1190:	0e1d0500 	cfmul32eq	mvfx0, mvfx13, mvfx0
    1194:	00000062 	andeq	r0, r0, r2, rrx
    1198:	7a720f30 	bvc	1c84e60 <__bss_end__+0x1c79b68>
    119c:	1f050031 	svcne	0x00050031
    11a0:	0001ec0d 	andeq	lr, r1, sp, lsl #24
    11a4:	08003200 	stmdaeq	r0, {r9, ip, sp}
    11a8:	00015604 	andeq	r5, r1, r4, lsl #12
    11ac:	004f1000 	subeq	r1, pc, r0
    11b0:	01fc0000 	mvnseq	r0, r0
    11b4:	2c110000 	ldccs	0, cr0, [r1], {-0}
    11b8:	7f000000 	svcvc	0x00000000
    11bc:	02470400 	subeq	r0, r7, #0, 8
    11c0:	20050000 	andcs	r0, r5, r0
    11c4:	00015603 	andeq	r5, r1, r3, lsl #12
    11c8:	07041200 	streq	r1, [r4, -r0, lsl #4]
    11cc:	00000099 	muleq	r0, r9, r0
    11d0:	2c11a805 	ldccs	8, cr10, [r1], {5}
    11d4:	13000000 	movwne	r0, #0
    11d8:	00000b24 	andeq	r0, r0, r4, lsr #22
    11dc:	080e1001 	stmdaeq	lr, {r0, ip}
    11e0:	05000002 	streq	r0, [r0, #-2]
    11e4:	00aee003 	adceq	lr, lr, r3
    11e8:	0b7f1300 	bleq	1fc5df0 <__bss_end__+0x1fbaaf8>
    11ec:	11010000 	mrsne	r0, (UNDEF: 1)
    11f0:	0002080e 	andeq	r0, r2, lr, lsl #16
    11f4:	e4030500 	str	r0, [r3], #-1280	; 0xfffffb00
    11f8:	140000ae 	strne	r0, [r0], #-174	; 0xffffff52
    11fc:	00000423 	andeq	r0, r0, r3, lsr #8
    1200:	06011901 	streq	r1, [r1], -r1, lsl #18
    1204:	00008ee0 	andeq	r8, r0, r0, ror #29
    1208:	00000034 	andeq	r0, r0, r4, lsr r0
    120c:	029a9c01 	addseq	r9, sl, #256	; 0x100
    1210:	7f150000 	svcvc	0x00150000
    1214:	aa000000 	bge	121c <__code_start__-0x6de4>
    1218:	05000002 	streq	r0, [r0, #-2]
    121c:	00ab0803 	adceq	r0, fp, r3, lsl #16
    1220:	8f001600 	svchi	0x00001600
    1224:	0c390000 	ldceq	0, cr0, [r9], #-0
    1228:	02900000 	addseq	r0, r0, #0, 0
    122c:	01170000 	tsteq	r7, r0
    1230:	98030550 	stmdals	r3, {r4, r6, r8, sl}
    1234:	170000aa 	strne	r0, [r0, -sl, lsr #1]
    1238:	03055101 	movweq	r5, #20737	; 0x5101
    123c:	0000a7fc 	strdeq	sl, [r0], -ip
    1240:	05520117 	ldrbeq	r0, [r2, #-279]	; 0xfffffee9
    1244:	00ab0803 	adceq	r0, fp, r3, lsl #16
    1248:	53011700 	movwpl	r1, #5888	; 0x1700
    124c:	011b0a03 	tsteq	fp, r3, lsl #20
    1250:	8f041800 	svchi	0x00041800
    1254:	0c450000 	mareq	acc0, r0, r5
    1258:	10000000 	andne	r0, r0, r0
    125c:	000000cc 	andeq	r0, r0, ip, asr #1
    1260:	000002aa 	andeq	r0, r0, sl, lsr #5
    1264:	00002c11 	andeq	r2, r0, r1, lsl ip
    1268:	09000e00 	stmdbeq	r0, {r9, sl, fp}
    126c:	0000029a 	muleq	r0, sl, r2
    1270:	00007919 	andeq	r7, r0, r9, lsl r9
    1274:	010f0100 	mrseq	r0, (UNDEF: 31)
    1278:	00002c0a 	andeq	r2, r0, sl, lsl #24
    127c:	008eb400 	addeq	fp, lr, r0, lsl #8
    1280:	00001800 	andeq	r1, r0, r0, lsl #16
    1284:	f29c0100 	vaddw.s16	q0, q6, d0
    1288:	1a000002 	bne	1298 <__code_start__-0x6d68>
    128c:	00000376 	andeq	r0, r0, r6, ror r3
    1290:	0e011201 	cdpeq	2, 0, cr1, cr1, cr1, {0}
    1294:	0000002c 	andeq	r0, r0, ip, lsr #32
    1298:	00000700 	andeq	r0, r0, r0, lsl #14
    129c:	000006fe 	strdeq	r0, [r0], -lr
    12a0:	008ec418 	addeq	ip, lr, r8, lsl r4
    12a4:	00079600 	andeq	r9, r7, r0, lsl #12
    12a8:	8ec81800 	cdphi	8, 12, cr1, cr8, cr0, {0}
    12ac:	02f20000 	rscseq	r0, r2, #0, 0
    12b0:	1b000000 	blne	12b8 <__code_start__-0x6d48>
    12b4:	00000511 	andeq	r0, r0, r1, lsl r5
    12b8:	2c11f701 	ldccs	7, cr15, [r1], {1}
    12bc:	04000000 	streq	r0, [r0], #-0
    12c0:	f000008c 			; <UNDEFINED> instruction: 0xf000008c
    12c4:	01000000 	mrseq	r0, (UNDEF: 0)
    12c8:	00045c9c 	muleq	r4, ip, ip
    12cc:	04401c00 	strbeq	r1, [r0], #-3072	; 0xfffff400
    12d0:	f9010000 			; <UNDEFINED> instruction: 0xf9010000
    12d4:	00002c0e 	andeq	r2, r0, lr, lsl #24
    12d8:	00071700 	andeq	r1, r7, r0, lsl #14
    12dc:	00071300 	andeq	r1, r7, r0, lsl #6
    12e0:	04af1c00 	strteq	r1, [pc], #3072	; 12e8 <__code_start__-0x6d18>
    12e4:	f9010000 			; <UNDEFINED> instruction: 0xf9010000
    12e8:	00002c1b 	andeq	r2, r0, fp, lsl ip
    12ec:	00073a00 	andeq	r3, r7, r0, lsl #20
    12f0:	00073600 	andeq	r3, r7, r0, lsl #12
    12f4:	044f1c00 	strbeq	r1, [pc], #-3072	; 12fc <__code_start__-0x6d04>
    12f8:	f9010000 			; <UNDEFINED> instruction: 0xf9010000
    12fc:	00002c27 	andeq	r2, r0, r7, lsr #24
    1300:	00075f00 	andeq	r5, r7, r0, lsl #30
    1304:	00075900 	andeq	r5, r7, r0, lsl #18
    1308:	007f1500 	rsbseq	r1, pc, r0, lsl #10
    130c:	046c0000 	strbteq	r0, [ip], #-0
    1310:	03050000 	movweq	r0, #20480	; 0x5000
    1314:	0000aad0 	ldrdeq	sl, [r0], -r0
    1318:	0000981d 	andeq	r9, r0, sp, lsl r8
    131c:	0003ff00 	andeq	pc, r3, r0, lsl #30
    1320:	00681e00 	rsbeq	r1, r8, r0, lsl #28
    1324:	7111fe01 	tstvc	r1, r1, lsl #28	; <UNPREDICTABLE>
    1328:	91000004 	tstls	r0, r4
    132c:	89000007 	stmdbhi	r0, {r0, r1, r2}
    1330:	1f000007 	svcne	0x00000007
    1334:	00000c03 	andeq	r0, r0, r3, lsl #24
    1338:	00008c50 	andeq	r8, r0, r0, asr ip
    133c:	008c5000 	addeq	r5, ip, r0
    1340:	00001800 	andeq	r1, r0, r0, lsl #16
    1344:	01050100 	mrseq	r0, (UNDEF: 21)
    1348:	0003b40d 	andeq	fp, r3, sp, lsl #8
    134c:	0c2c2000 	stceq	0, cr2, [ip], #-0
    1350:	07c70000 	strbeq	r0, [r7, r0]
    1354:	07c50000 	strbeq	r0, [r5, r0]
    1358:	20200000 	eorcs	r0, r0, r0
    135c:	df00000c 	svcle	0x0000000c
    1360:	dd000007 	stcle	0, cr0, [r0, #-28]	; 0xffffffe4
    1364:	20000007 	andcs	r0, r0, r7
    1368:	00000c14 	andeq	r0, r0, r4, lsl ip
    136c:	000007f9 	strdeq	r0, [r0], -r9
    1370:	000007f7 	strdeq	r0, [r0], -r7
    1374:	8c2c1800 	stchi	8, cr1, [ip], #-0
    1378:	0c600000 	stcleq	0, cr0, [r0], #-0
    137c:	78160000 	ldmdavc	r6, {}	; <UNPREDICTABLE>
    1380:	6c00008c 	stcvs	0, cr0, [r0], {140}	; 0x8c
    1384:	d100000c 	tstle	r0, ip
    1388:	17000003 	strne	r0, [r0, -r3]
    138c:	78025001 	stmdavc	r2, {r0, ip, lr}
    1390:	84160000 	ldrhi	r0, [r6], #-0
    1394:	3900008c 	stmdbcc	r0, {r2, r3, r7}
    1398:	ee00000c 	cdp	0, 0, cr0, cr0, cr12, {0}
    139c:	17000003 	strne	r0, [r0, -r3]
    13a0:	03055001 	movweq	r5, #20481	; 0x5001
    13a4:	0000a98c 	andeq	sl, r0, ip, lsl #19
    13a8:	02510117 	subseq	r0, r1, #-1073741819	; 0xc0000005
    13ac:	21000078 	tstcs	r0, r8, ror r0
    13b0:	00008c8c 	andeq	r8, r0, ip, lsl #25
    13b4:	00000c78 	andeq	r0, r0, r8, ror ip
    13b8:	02500117 	subseq	r0, r0, #-1073741819	; 0xc0000005
    13bc:	00000074 	andeq	r0, r0, r4, ror r0
    13c0:	008c1c16 	addeq	r1, ip, r6, lsl ip
    13c4:	000c3900 	andeq	r3, ip, r0, lsl #18
    13c8:	00041600 	andeq	r1, r4, r0, lsl #12
    13cc:	50011700 	andpl	r1, r1, r0, lsl #14
    13d0:	a8480305 	stmdage	r8, {r0, r2, r8, r9}^
    13d4:	16000000 	strne	r0, [r0], -r0
    13d8:	00008c24 	andeq	r8, r0, r4, lsr #24
    13dc:	00000c39 	andeq	r0, r0, r9, lsr ip
    13e0:	0000042d 	andeq	r0, r0, sp, lsr #8
    13e4:	05500117 	ldrbeq	r0, [r0, #-279]	; 0xfffffee9
    13e8:	00a97c03 	adceq	r7, r9, r3, lsl #24
    13ec:	28180000 	ldmdacs	r8, {}	; <UNPREDICTABLE>
    13f0:	9600008c 	strls	r0, [r0], -ip, lsl #1
    13f4:	21000007 	tstcs	r0, r7
    13f8:	00008ccc 	andeq	r8, r0, ip, asr #25
    13fc:	00000c39 	andeq	r0, r0, r9, lsr ip
    1400:	05500117 	ldrbeq	r0, [r0, #-279]	; 0xfffffee9
    1404:	00a99c03 	adceq	r9, r9, r3, lsl #24
    1408:	51011700 	tstpl	r1, r0, lsl #14
    140c:	17007502 	strne	r7, [r0, -r2, lsl #10]
    1410:	77025201 	strvc	r5, [r2, -r1, lsl #4]
    1414:	53011700 	movwpl	r1, #5888	; 0x1700
    1418:	00007602 	andeq	r7, r0, r2, lsl #12
    141c:	00cc1000 	sbceq	r1, ip, r0
    1420:	046c0000 	strbteq	r0, [ip], #-0
    1424:	2c110000 	ldccs	0, cr0, [r1], {-0}
    1428:	0a000000 	beq	1430 <__code_start__-0x6bd0>
    142c:	045c0900 	ldrbeq	r0, [ip], #-2304	; 0xfffff700
    1430:	04080000 	streq	r0, [r8], #-0
    1434:	000001fc 	strdeq	r0, [r0], -ip
    1438:	00020122 	andeq	r0, r2, r2, lsr #2
    143c:	0ae70100 	beq	ff9c1844 <__bss_end__+0xff9b654c>
    1440:	0000002c 	andeq	r0, r0, ip, lsr #32
    1444:	00008e50 	andeq	r8, r0, r0, asr lr
    1448:	00000058 	andeq	r0, r0, r8, asr r0
    144c:	051d9c01 	ldreq	r9, [sp, #-3073]	; 0xfffff3ff
    1450:	941c0000 	ldrls	r0, [ip], #-0
    1454:	01000004 	tsteq	r0, r4
    1458:	002c0eed 	eoreq	r0, ip, sp, ror #29
    145c:	08170000 	ldmdaeq	r7, {}	; <UNPREDICTABLE>
    1460:	08110000 	ldmdaeq	r1, {}	; <UNPREDICTABLE>
    1464:	7f150000 	svcvc	0x00150000
    1468:	2d000000 	stccs	0, cr0, [r0, #-0]
    146c:	05000005 	streq	r0, [r0, #-5]
    1470:	00aaf403 	adceq	pc, sl, r3, lsl #8
    1474:	8e641600 	cdphi	6, 6, cr1, cr4, cr0, {0}
    1478:	05cf0000 	strbeq	r0, [pc]	; 1480 <__code_start__-0x6b80>
    147c:	04c70000 	strbeq	r0, [r7], #0
    1480:	01170000 	tsteq	r7, r0
    1484:	00310150 	eorseq	r0, r1, r0, asr r1
    1488:	008e7816 	addeq	r7, lr, r6, lsl r8
    148c:	000c3900 	andeq	r3, ip, r0, lsl #18
    1490:	0004e400 	andeq	lr, r4, r0, lsl #8
    1494:	50011700 	andpl	r1, r1, r0, lsl #14
    1498:	aa740305 	bge	1d020b4 <__bss_end__+0x1cf6dbc>
    149c:	01170000 	tsteq	r7, r0
    14a0:	00740251 	rsbseq	r0, r4, r1, asr r2
    14a4:	8e941600 	cdphi	6, 9, cr1, cr4, cr0, {0}
    14a8:	0c390000 	ldceq	0, cr0, [r9], #-0
    14ac:	05130000 	ldreq	r0, [r3, #-0]
    14b0:	01170000 	tsteq	r7, r0
    14b4:	4c030550 	cfstr32mi	mvfx0, [r3], {80}	; 0x50
    14b8:	170000aa 	strne	r0, [r0, -sl, lsr #1]
    14bc:	03055101 	movweq	r5, #20737	; 0x5101
    14c0:	0000a7fc 	strdeq	sl, [r0], -ip
    14c4:	05520117 	ldrbeq	r0, [r2, #-279]	; 0xfffffee9
    14c8:	00aaf403 	adceq	pc, sl, r3, lsl #8
    14cc:	53011700 	movwpl	r1, #5888	; 0x1700
    14d0:	00ef0802 	rsceq	r0, pc, r2, lsl #16
    14d4:	008e9818 	addeq	r9, lr, r8, lsl r8
    14d8:	000c4500 	andeq	r4, ip, r0, lsl #10
    14dc:	cc100000 	ldcgt	0, cr0, [r0], {-0}
    14e0:	2d000000 	stccs	0, cr0, [r0, #-0]
    14e4:	11000005 	tstne	r0, r5
    14e8:	0000002c 	andeq	r0, r0, ip, lsr #32
    14ec:	1d090011 	stcne	0, cr0, [r9, #-68]	; 0xffffffbc
    14f0:	23000005 	movwcs	r0, #5
    14f4:	000001bd 			; <UNDEFINED> instruction: 0x000001bd
    14f8:	e806d901 	stmda	r6, {r0, r8, fp, ip, lr, pc}
    14fc:	5000008d 	andpl	r0, r0, sp, lsl #1
    1500:	01000000 	mrseq	r0, (UNDEF: 0)
    1504:	0005ba9c 	muleq	r5, ip, sl
    1508:	007f1500 	rsbseq	r1, pc, r0, lsl #10
    150c:	05ca0000 	strbeq	r0, [sl]
    1510:	03050000 	movweq	r0, #20480	; 0x5000
    1514:	0000aae4 	andeq	sl, r0, r4, ror #21
    1518:	008dfc16 	addeq	pc, sp, r6, lsl ip	; <UNPREDICTABLE>
    151c:	0005cf00 	andeq	ip, r5, r0, lsl #30
    1520:	00056a00 	andeq	r6, r5, r0, lsl #20
    1524:	50011700 	andpl	r1, r1, r0, lsl #14
    1528:	16003101 	strne	r3, [r0], -r1, lsl #2
    152c:	00008e0c 	andeq	r8, r0, ip, lsl #28
    1530:	00000c39 	andeq	r0, r0, r9, lsr ip
    1534:	00000581 	andeq	r0, r0, r1, lsl #11
    1538:	05500117 	ldrbeq	r0, [r0, #-279]	; 0xfffffee9
    153c:	00aa2c03 	adceq	r2, sl, r3, lsl #24
    1540:	24160000 	ldrcs	r0, [r6], #-0
    1544:	3900008e 	stmdbcc	r0, {r1, r2, r3, r7}
    1548:	b000000c 	andlt	r0, r0, ip
    154c:	17000005 	strne	r0, [r0, -r5]
    1550:	03055001 	movweq	r5, #20481	; 0x5001
    1554:	0000aa00 	andeq	sl, r0, r0, lsl #20
    1558:	05510117 	ldrbeq	r0, [r1, #-279]	; 0xfffffee9
    155c:	00a7fc03 	adceq	pc, r7, r3, lsl #24
    1560:	52011700 	andpl	r1, r1, #0, 14
    1564:	aae40305 	bge	ff902180 <__bss_end__+0xff8f6e88>
    1568:	01170000 	tsteq	r7, r0
    156c:	e0080253 	and	r0, r8, r3, asr r2
    1570:	8e281800 	cdphi	8, 2, cr1, cr8, cr0, {0}
    1574:	0c450000 	mareq	acc0, r0, r5
    1578:	10000000 	andne	r0, r0, r0
    157c:	000000cc 	andeq	r0, r0, ip, asr #1
    1580:	000005ca 	andeq	r0, r0, sl, asr #11
    1584:	00002c11 	andeq	r2, r0, r1, lsl ip
    1588:	09000d00 	stmdbeq	r0, {r8, sl, fp}
    158c:	000005ba 			; <UNDEFINED> instruction: 0x000005ba
    1590:	00046f22 	andeq	r6, r4, r2, lsr #30
    1594:	0ad20100 	beq	ff48199c <__bss_end__+0xff4766a4>
    1598:	0000002c 	andeq	r0, r0, ip, lsr #32
    159c:	00008dc0 	andeq	r8, r0, r0, asr #27
    15a0:	00000014 	andeq	r0, r0, r4, lsl r0
    15a4:	060f9c01 	streq	r9, [pc], -r1, lsl #24
    15a8:	1c240000 	stcne	0, cr0, [r4], #-0
    15ac:	01000005 	tsteq	r0, r5
    15b0:	00251cd2 	ldrdeq	r1, [r5], -r2	; <UNPREDICTABLE>
    15b4:	08440000 	stmdaeq	r4, {}^	; <UNPREDICTABLE>
    15b8:	08400000 	stmdaeq	r0, {}^	; <UNPREDICTABLE>
    15bc:	d0210000 	eorle	r0, r1, r0
    15c0:	0f00008d 	svceq	0x0000008d
    15c4:	17000006 	strne	r0, [r0, -r6]
    15c8:	f3035001 	vhadd.u8	d5, d3, d1
    15cc:	00005001 	andeq	r5, r0, r1
    15d0:	0004f71b 	andeq	pc, r4, fp, lsl r7	; <UNPREDICTABLE>
    15d4:	11a50100 			; <UNDEFINED> instruction: 0x11a50100
    15d8:	0000002c 	andeq	r0, r0, ip, lsr #32
    15dc:	00008aec 	andeq	r8, r0, ip, ror #21
    15e0:	00000108 	andeq	r0, r0, r8, lsl #2
    15e4:	07969c01 	ldreq	r9, [r6, r1, lsl #24]
    15e8:	1c240000 	stcne	0, cr0, [r4], #-0
    15ec:	01000005 	tsteq	r0, r5
    15f0:	002520a5 	eoreq	r2, r5, r5, lsr #1
    15f4:	08690000 	stmdaeq	r9!, {}^	; <UNPREDICTABLE>
    15f8:	08650000 	stmdaeq	r5!, {}^	; <UNPREDICTABLE>
    15fc:	401c0000 	andsmi	r0, ip, r0
    1600:	01000004 	tsteq	r0, r4
    1604:	002c0ea7 	eoreq	r0, ip, r7, lsr #29
    1608:	088b0000 	stmeq	fp, {}	; <UNPREDICTABLE>
    160c:	08870000 	stmeq	r7, {}	; <UNPREDICTABLE>
    1610:	831c0000 	tsthi	ip, #0, 0
    1614:	01000004 	tsteq	r0, r4
    1618:	002c1ba7 	eoreq	r1, ip, r7, lsr #23
    161c:	08b00000 	ldmeq	r0!, {}	; <UNPREDICTABLE>
    1620:	08aa0000 	stmiaeq	sl!, {}	; <UNPREDICTABLE>
    1624:	7d1c0000 	ldcvc	0, cr0, [ip, #-0]
    1628:	01000004 	tsteq	r0, r4
    162c:	002c27a7 	eoreq	r2, ip, r7, lsr #15
    1630:	08de0000 	ldmeq	lr, {}^	; <UNPREDICTABLE>
    1634:	08da0000 	ldmeq	sl, {}^	; <UNPREDICTABLE>
    1638:	801d0000 	andshi	r0, sp, r0
    163c:	f4000000 	vst4.8	{d0-d3}, [r0], r0
    1640:	1e000006 	cdpne	0, 0, cr0, cr0, cr6, {0}
    1644:	ac010068 	stcge	0, cr0, [r1], {104}	; 0x68
    1648:	00047111 	andeq	r7, r4, r1, lsl r1
    164c:	00090b00 	andeq	r0, r9, r0, lsl #22
    1650:	0008fd00 	andeq	pc, r8, r0, lsl #26
    1654:	8b141800 	blhi	50765c <__bss_end__+0x4fc364>
    1658:	0c600000 	stcleq	0, cr0, [r0], #-0
    165c:	3c160000 	ldccc	0, cr0, [r6], {-0}
    1660:	3900008b 	stmdbcc	r0, {r0, r1, r3, r7}
    1664:	c000000c 	andgt	r0, r0, ip
    1668:	17000006 	strne	r0, [r0, -r6]
    166c:	03055001 	movweq	r5, #20481	; 0x5001
    1670:	0000a89c 	muleq	r0, ip, r8
    1674:	02510117 	subseq	r0, r1, #-1073741819	; 0xc0000005
    1678:	01170075 	tsteq	r7, r5, ror r0
    167c:	00740252 	rsbseq	r0, r4, r2, asr r2
    1680:	8b441600 	blhi	1106e88 <__bss_end__+0x10fbb90>
    1684:	0c780000 	ldcleq	0, cr0, [r8], #-0
    1688:	06d40000 	ldrbeq	r0, [r4], r0
    168c:	01170000 	tsteq	r7, r0
    1690:	00740250 	rsbseq	r0, r4, r0, asr r2
    1694:	8b882100 	blhi	fe209a9c <__bss_end__+0xfe1fe7a4>
    1698:	0c390000 	ldceq	0, cr0, [r9], #-0
    169c:	01170000 	tsteq	r7, r0
    16a0:	b0030550 	andlt	r0, r3, r0, asr r5
    16a4:	170000a8 	strne	r0, [r0, -r8, lsr #1]
    16a8:	75025101 	strvc	r5, [r2, #-257]	; 0xfffffeff
    16ac:	52011700 	andpl	r1, r1, #0, 14
    16b0:	00007402 	andeq	r7, r0, r2, lsl #8
    16b4:	8b041600 	blhi	106ebc <__bss_end__+0xfbbc4>
    16b8:	0c390000 	ldceq	0, cr0, [r9], #-0
    16bc:	070b0000 	streq	r0, [fp, -r0]
    16c0:	01170000 	tsteq	r7, r0
    16c4:	48030550 	stmdami	r3, {r4, r6, r8, sl}
    16c8:	000000a8 	andeq	r0, r0, r8, lsr #1
    16cc:	008b0c16 	addeq	r0, fp, r6, lsl ip
    16d0:	000c3900 	andeq	r3, ip, r0, lsl #18
    16d4:	00072200 	andeq	r2, r7, r0, lsl #4
    16d8:	50011700 	andpl	r1, r1, r0, lsl #14
    16dc:	a8840305 	stmge	r4, {r0, r2, r8, r9}
    16e0:	18000000 	stmdane	r0, {}	; <UNPREDICTABLE>
    16e4:	00008b10 	andeq	r8, r0, r0, lsl fp
    16e8:	00000796 	muleq	r0, r6, r7
    16ec:	008b9816 	addeq	r9, fp, r6, lsl r8
    16f0:	000c3900 	andeq	r3, ip, r0, lsl #18
    16f4:	00074800 	andeq	r4, r7, r0, lsl #16
    16f8:	50011700 	andpl	r1, r1, r0, lsl #14
    16fc:	a8c80305 	stmiage	r8, {r0, r2, r8, r9}^
    1700:	01170000 	tsteq	r7, r0
    1704:	00750251 	rsbseq	r0, r5, r1, asr r2
    1708:	8ba81600 	blhi	fea06f10 <__bss_end__+0xfe9fbc18>
    170c:	0c390000 	ldceq	0, cr0, [r9], #-0
    1710:	075f0000 	ldrbeq	r0, [pc, -r0]
    1714:	01170000 	tsteq	r7, r0
    1718:	e8030550 	stmda	r3, {r4, r6, r8, sl}
    171c:	000000a8 	andeq	r0, r0, r8, lsr #1
    1720:	008bb016 	addeq	fp, fp, r6, lsl r0
    1724:	000c3900 	andeq	r3, ip, r0, lsl #18
    1728:	00077600 	andeq	r7, r7, r0, lsl #12
    172c:	50011700 	andpl	r1, r1, r0, lsl #14
    1730:	a9400305 	stmdbge	r0, {r0, r2, r8, r9}^
    1734:	21000000 	mrscs	r0, (UNDEF: 0)
    1738:	00008bd0 	ldrdeq	r8, [r0], -r0
    173c:	00000c39 	andeq	r0, r0, r9, lsr ip
    1740:	05500117 	ldrbeq	r0, [r0, #-279]	; 0xfffffee9
    1744:	00a91003 	adceq	r1, r9, r3
    1748:	51011700 	tstpl	r1, r0, lsl #14
    174c:	17007602 	strne	r7, [r0, -r2, lsl #12]
    1750:	78025201 	stmdavc	r2, {r0, r9, ip, lr}
    1754:	25000000 	strcs	r0, [r0, #-0]
    1758:	0000041a 	andeq	r0, r0, sl, lsl r4
    175c:	300d7901 	andcc	r7, sp, r1, lsl #18
    1760:	ac00008a 	stcge	0, cr0, [r0], {138}	; 0x8a
    1764:	01000000 	mrseq	r0, (UNDEF: 0)
    1768:	0008a49c 	muleq	r8, ip, r4
    176c:	048f1300 	streq	r1, [pc], #768	; 1774 <__code_start__-0x688c>
    1770:	85010000 	strhi	r0, [r1, #-0]
    1774:	0008a40e 	andeq	sl, r8, lr, lsl #8
    1778:	b0910300 	addslt	r0, r1, r0, lsl #6
    177c:	0410267f 	ldreq	r2, [r0], #-1663	; 0xfffff981
    1780:	96010000 	strls	r0, [r1], -r0
    1784:	0008b40f 	andeq	fp, r8, pc, lsl #8
    1788:	00000000 	andeq	r0, r0, r0
    178c:	04320708 	ldrteq	r0, [r2], #-1800	; 0xfffff8f8
    1790:	9b010000 	blls	41798 <__bss_end__+0x364a0>
    1794:	00007515 	andeq	r7, r0, r5, lsl r5
    1798:	04cc0700 	strbeq	r0, [ip], #1792	; 0x700
    179c:	9b010000 	blls	417a4 <__bss_end__+0x364ac>
    17a0:	00007524 	andeq	r7, r0, r4, lsr #10
    17a4:	05020700 	streq	r0, [r2, #-1792]	; 0xfffff900
    17a8:	9e010000 	cdpls	0, 0, cr0, cr1, cr0, {0}
    17ac:	00007515 	andeq	r7, r0, r5, lsl r5
    17b0:	049b0700 	ldreq	r0, [fp], #1792	; 0x700
    17b4:	9e010000 	cdpls	0, 0, cr0, cr1, cr0, {0}
    17b8:	00007525 	andeq	r7, r0, r5, lsr #10
    17bc:	8a402700 	bhi	100b3c4 <__bss_end__+0x10000cc>
    17c0:	00240000 	eoreq	r0, r4, r0
    17c4:	082e0000 	stmdaeq	lr!, {}	; <UNPREDICTABLE>
    17c8:	681e0000 	ldmdavs	lr, {}	; <UNPREDICTABLE>
    17cc:	117e0100 	cmnne	lr, r0, lsl #2
    17d0:	00000471 	andeq	r0, r0, r1, ror r4
    17d4:	00000964 	andeq	r0, r0, r4, ror #18
    17d8:	00000960 	andeq	r0, r0, r0, ror #18
    17dc:	008a4418 	addeq	r4, sl, r8, lsl r4
    17e0:	000c6000 	andeq	r6, ip, r0
    17e4:	8a601800 	bhi	18077ec <__bss_end__+0x17fc4f4>
    17e8:	0c780000 	ldcleq	0, cr0, [r8], #-0
    17ec:	16000000 	strne	r0, [r0], -r0
    17f0:	00008a6c 	andeq	r8, r0, ip, ror #20
    17f4:	00000c84 	andeq	r0, r0, r4, lsl #25
    17f8:	00000843 	andeq	r0, r0, r3, asr #16
    17fc:	03500117 	cmpeq	r0, #-1073741819	; 0xc0000005
    1800:	007fb47b 	rsbseq	fp, pc, fp, ror r4	; <UNPREDICTABLE>
    1804:	008a8c16 	addeq	r8, sl, r6, lsl ip
    1808:	0008ba00 	andeq	fp, r8, r0, lsl #20
    180c:	00085e00 	andeq	r5, r8, r0, lsl #28
    1810:	50011700 	andpl	r1, r1, r0, lsl #14
    1814:	7fb47b03 	svcvc	0x00b47b03
    1818:	02510117 	subseq	r0, r1, #-1073741819	; 0xc0000005
    181c:	16006c7b 			; <UNDEFINED> instruction: 0x16006c7b
    1820:	00008a9c 	muleq	r0, ip, sl
    1824:	00000c39 	andeq	r0, r0, r9, lsr ip
    1828:	0000087c 	andeq	r0, r0, ip, ror r8
    182c:	05500117 	ldrbeq	r0, [r0, #-279]	; 0xfffffee9
    1830:	00a82c03 	adceq	r2, r8, r3, lsl #24
    1834:	52011700 	andpl	r1, r1, #0, 14
    1838:	24474003 	strbcs	r4, [r7], #-3
    183c:	8aa81600 	bhi	fea07044 <__bss_end__+0xfe9fbd4c>
    1840:	08ba0000 	ldmeq	sl!, {}	; <UNPREDICTABLE>
    1844:	08910000 	ldmeq	r1, {}	; <UNPREDICTABLE>
    1848:	01170000 	tsteq	r7, r0
    184c:	47400351 	smlsldmi	r0, r0, r1, r3	; <UNPREDICTABLE>
    1850:	b4180024 	ldrlt	r0, [r8], #-36	; 0xffffffdc
    1854:	ba00008a 	blt	1a84 <__code_start__-0x657c>
    1858:	18000008 	stmdane	r0, {r3}
    185c:	00008ac0 	andeq	r8, r0, r0, asr #21
    1860:	000008ba 			; <UNDEFINED> instruction: 0x000008ba
    1864:	00751000 	rsbseq	r1, r5, r0
    1868:	08b40000 	ldmeq	r4!, {}	; <UNPREDICTABLE>
    186c:	2c110000 	ldccs	0, cr0, [r1], {-0}
    1870:	0f000000 	svceq	0x00000000
    1874:	75040800 	strvc	r0, [r4, #-2048]	; 0xfffff800
    1878:	25000000 	strcs	r0, [r0, #-0]
    187c:	00000460 	andeq	r0, r0, r0, ror #8
    1880:	080d5001 	stmdaeq	sp, {r0, ip, lr}
    1884:	18000089 	stmdane	r0, {r0, r3, r7}
    1888:	01000001 	tsteq	r0, r1
    188c:	000a469c 	muleq	sl, ip, r6
    1890:	00702800 	rsbseq	r2, r0, r0, lsl #16
    1894:	b41c5001 	ldrlt	r5, [ip], #-1
    1898:	90000008 	andls	r0, r0, r8
    189c:	82000009 	andhi	r0, r0, #9, 0
    18a0:	28000009 	stmdacs	r0, {r0, r3}
    18a4:	50010065 	andpl	r0, r1, r5, rrx
    18a8:	0008b429 	andeq	fp, r8, r9, lsr #8
    18ac:	0009f900 	andeq	pc, r9, r0, lsl #18
    18b0:	0009eb00 	andeq	lr, r9, r0, lsl #22
    18b4:	007f1500 	rsbseq	r1, pc, r0, lsl #10
    18b8:	0a560000 	beq	15818c0 <__bss_end__+0x15765c8>
    18bc:	03050000 	movweq	r0, #20480	; 0x5000
    18c0:	0000aac8 	andeq	sl, r0, r8, asr #21
    18c4:	00899827 	addeq	r9, r9, r7, lsr #16
    18c8:	00006800 	andeq	r6, r0, r0, lsl #16
    18cc:	00097f00 	andeq	r7, r9, r0, lsl #30
    18d0:	00691e00 	rsbeq	r1, r9, r0, lsl #28
    18d4:	b4145801 	ldrlt	r5, [r4], #-2049	; 0xfffff7ff
    18d8:	56000008 	strpl	r0, [r0], -r8
    18dc:	5400000a 	strpl	r0, [r0], #-10
    18e0:	2900000a 	stmdbcs	r0, {r1, r3}
    18e4:	00000050 	andeq	r0, r0, r0, asr r0
    18e8:	0100621e 	tsteq	r0, lr, lsl r2
    18ec:	0471105a 	ldrbteq	r1, [r1], #-90	; 0xffffffa6
    18f0:	0a6f0000 	beq	1bc18f8 <__bss_end__+0x1bb6600>
    18f4:	0a690000 	beq	1a418fc <__bss_end__+0x1a36604>
    18f8:	681d0000 	ldmdavs	sp, {}	; <UNPREDICTABLE>
    18fc:	74000000 	strvc	r0, [r0], #-0
    1900:	1e000009 	cdpne	0, 0, cr0, cr0, cr9, {0}
    1904:	00707865 	rsbseq	r7, r0, r5, ror #16
    1908:	75165d01 	ldrvc	r5, [r6, #-3329]	; 0xfffff2ff
    190c:	a4000000 	strge	r0, [r0], #-0
    1910:	9a00000a 	bls	1940 <__code_start__-0x66c0>
    1914:	1c00000a 	stcne	0, cr0, [r0], {10}
    1918:	0000045c 	andeq	r0, r0, ip, asr r4
    191c:	62165e01 	andsvs	r5, r6, #1, 28
    1920:	f0000000 			; <UNDEFINED> instruction: 0xf0000000
    1924:	ec00000a 	stc	0, cr0, [r0], {10}
    1928:	1800000a 	stmdane	r0, {r1, r3}
    192c:	000089fc 	strdeq	r8, [r0], -ip
    1930:	000008ba 			; <UNDEFINED> instruction: 0x000008ba
    1934:	89bc1800 	ldmibhi	ip!, {fp, ip}
    1938:	0a5b0000 	beq	16c1940 <__bss_end__+0x16b6648>
    193c:	00000000 	andeq	r0, r0, r0
    1940:	00895416 	addeq	r5, r9, r6, lsl r4
    1944:	000c3900 	andeq	r3, ip, r0, lsl #18
    1948:	0009b800 	andeq	fp, r9, r0, lsl #16
    194c:	50011700 	andpl	r1, r1, r0, lsl #14
    1950:	a5dc0305 	ldrbge	r0, [ip, #773]	; 0x305
    1954:	01170000 	tsteq	r7, r0
    1958:	fc030551 	stc2	5, cr0, [r3], {81}	; 0x51
    195c:	170000a7 	strne	r0, [r0, -r7, lsr #1]
    1960:	03055201 	movweq	r5, #20993	; 0x5201
    1964:	0000aac8 	andeq	sl, r0, r8, asr #21
    1968:	02530117 	subseq	r0, r3, #-1073741819	; 0xc0000005
    196c:	02175608 	andseq	r5, r7, #8, 12	; 0x800000
    1970:	0305007d 	movweq	r0, #20605	; 0x507d
    1974:	0000a81c 	andeq	sl, r0, ip, lsl r8
    1978:	89581800 	ldmdbhi	r8, {fp, ip}^
    197c:	0c450000 	mareq	acc0, r0, r5
    1980:	74160000 	ldrvc	r0, [r6], #-0
    1984:	39000089 	stmdbcc	r0, {r0, r3, r7}
    1988:	fa00000c 	blx	19c0 <__code_start__-0x6640>
    198c:	17000009 	strne	r0, [r0, -r9]
    1990:	03055001 	movweq	r5, #20481	; 0x5001
    1994:	0000a5dc 	ldrdeq	sl, [r0], -ip
    1998:	05510117 	ldrbeq	r0, [r1, #-279]	; 0xfffffee9
    199c:	00a7fc03 	adceq	pc, r7, r3, lsl #24
    19a0:	52011700 	andpl	r1, r1, #0, 14
    19a4:	aac80305 	bge	ff2025c0 <__bss_end__+0xff1f72c8>
    19a8:	01170000 	tsteq	r7, r0
    19ac:	52080253 	andpl	r0, r8, #805306373	; 0x30000005
    19b0:	007d0217 	rsbseq	r0, sp, r7, lsl r2
    19b4:	a8040305 	stmdage	r4, {r0, r2, r8, r9}
    19b8:	18000000 	stmdane	r0, {}	; <UNPREDICTABLE>
    19bc:	00008978 	andeq	r8, r0, r8, ror r9
    19c0:	00000c45 	andeq	r0, r0, r5, asr #24
    19c4:	00899416 	addeq	r9, r9, r6, lsl r4
    19c8:	000c3900 	andeq	r3, ip, r0, lsl #18
    19cc:	000a3c00 	andeq	r3, sl, r0, lsl #24
    19d0:	50011700 	andpl	r1, r1, r0, lsl #14
    19d4:	a5dc0305 	ldrbge	r0, [ip, #773]	; 0x305
    19d8:	01170000 	tsteq	r7, r0
    19dc:	fc030551 	stc2	5, cr0, [r3], {81}	; 0x51
    19e0:	170000a7 	strne	r0, [r0, -r7, lsr #1]
    19e4:	03055201 	movweq	r5, #20993	; 0x5201
    19e8:	0000aac8 	andeq	sl, r0, r8, asr #21
    19ec:	02530117 	subseq	r0, r3, #-1073741819	; 0xc0000005
    19f0:	02175508 	andseq	r5, r7, #8, 10	; 0x2000000
    19f4:	0305007d 	movweq	r0, #20605	; 0x507d
    19f8:	0000a80c 	andeq	sl, r0, ip, lsl #16
    19fc:	89981800 	ldmibhi	r8, {fp, ip}
    1a00:	0c450000 	mareq	acc0, r0, r5
    1a04:	10000000 	andne	r0, r0, r0
    1a08:	000000cc 	andeq	r0, r0, ip, asr #1
    1a0c:	00000a56 	andeq	r0, r0, r6, asr sl
    1a10:	00002c11 	andeq	r2, r0, r1, lsl ip
    1a14:	09000400 	stmdbeq	r0, {sl}
    1a18:	00000a46 	andeq	r0, r0, r6, asr #20
    1a1c:	0004a81b 	andeq	sl, r4, fp, lsl r8
    1a20:	0f3c0100 	svceq	0x003c0100
    1a24:	00000471 	andeq	r0, r0, r1, ror r4
    1a28:	000088cc 	andeq	r8, r0, ip, asr #17
    1a2c:	00000030 	andeq	r0, r0, r0, lsr r0
    1a30:	0ac09c01 	beq	ff028a3c <__bss_end__+0xff01d744>
    1a34:	17240000 	strne	r0, [r4, -r0]!
    1a38:	01000006 	tsteq	r0, r6
    1a3c:	00751f3c 	rsbseq	r1, r5, ip, lsr pc
    1a40:	0b120000 	bleq	481a48 <__bss_end__+0x476750>
    1a44:	0b0e0000 	bleq	381a4c <__bss_end__+0x376754>
    1a48:	701e0000 	andsvc	r0, lr, r0
    1a4c:	0b3e0100 	bleq	f81e54 <__bss_end__+0xf76b5c>
    1a50:	00000208 	andeq	r0, r0, r8, lsl #4
    1a54:	00000b34 	andeq	r0, r0, r4, lsr fp
    1a58:	00000b30 	andeq	r0, r0, r0, lsr fp
    1a5c:	0088e016 	addeq	lr, r8, r6, lsl r0
    1a60:	000ac000 	andeq	ip, sl, r0
    1a64:	000aaf00 	andeq	sl, sl, r0, lsl #30
    1a68:	50011700 	andpl	r1, r1, r0, lsl #14
    1a6c:	00007402 	andeq	r7, r0, r2, lsl #8
    1a70:	0088f021 	addeq	pc, r8, r1, lsr #32
    1a74:	000c9000 	andeq	r9, ip, r0
    1a78:	50011700 	andpl	r1, r1, r0, lsl #14
    1a7c:	00007402 	andeq	r7, r0, r2, lsl #8
    1a80:	04b61b00 	ldrteq	r1, [r6], #2816	; 0xb00
    1a84:	2b010000 	blcs	41a8c <__bss_end__+0x36794>
    1a88:	0000250c 	andeq	r2, r0, ip, lsl #10
    1a8c:	00887800 	addeq	r7, r8, r0, lsl #16
    1a90:	00004800 	andeq	r4, r0, r0, lsl #16
    1a94:	ed9c0100 	ldfs	f0, [ip]
    1a98:	2800000a 	stmdacs	r0, {r1, r3}
    1a9c:	2b010070 	blcs	41c64 <__bss_end__+0x3696c>
    1aa0:	0002081a 	andeq	r0, r2, sl, lsl r8
    1aa4:	000b5e00 	andeq	r5, fp, r0, lsl #28
    1aa8:	000b5200 	andeq	r5, fp, r0, lsl #4
    1aac:	fb220000 	blx	881ab6 <__bss_end__+0x8767be>
    1ab0:	01000003 	tsteq	r0, r3
    1ab4:	02080713 	andeq	r0, r8, #4980736	; 0x4c0000
    1ab8:	8d000000 	stchi	0, cr0, [r0, #-0]
    1abc:	00ac0000 	adceq	r0, ip, r0
    1ac0:	9c010000 	stcls	0, cr0, [r1], {-0}
    1ac4:	00000c03 	andeq	r0, r0, r3, lsl #24
    1ac8:	00046524 	andeq	r6, r4, r4, lsr #10
    1acc:	11130100 	tstne	r3, r0, lsl #2
    1ad0:	00000041 	andeq	r0, r0, r1, asr #32
    1ad4:	00000bbd 			; <UNDEFINED> instruction: 0x00000bbd
    1ad8:	00000bb1 			; <UNDEFINED> instruction: 0x00000bb1
    1adc:	00044813 	andeq	r4, r4, r3, lsl r8
    1ae0:	10150100 	andsne	r0, r5, r0, lsl #2
    1ae4:	00000025 	andeq	r0, r0, r5, lsr #32
    1ae8:	aee80305 	cdpge	3, 14, cr0, cr8, cr5, {0}
    1aec:	7f150000 	svcvc	0x00150000
    1af0:	56000000 	strpl	r0, [r0], -r0
    1af4:	0500000a 	streq	r0, [r0, #-10]
    1af8:	00aadc03 	adceq	sp, sl, r3, lsl #24
    1afc:	8d282700 	stchi	7, cr2, [r8, #-0]
    1b00:	00240000 	eoreq	r0, r4, r0
    1b04:	0b760000 	bleq	1d81b0c <__bss_end__+0x1d76814>
    1b08:	be1c0000 	cdplt	0, 1, cr0, cr12, cr0, {0}
    1b0c:	01000004 	tsteq	r0, r4
    1b10:	002c121c 	eoreq	r1, ip, ip, lsl r2
    1b14:	0c090000 	stceq	0, cr0, [r9], {-0}
    1b18:	0c070000 	stceq	0, cr0, [r7], {-0}
    1b1c:	44210000 	strtmi	r0, [r1], #-0
    1b20:	9c00008d 	stcls	0, cr0, [r0], {141}	; 0x8d
    1b24:	1700000c 	strne	r0, [r0, -ip]
    1b28:	40035001 	andmi	r5, r3, r1
    1b2c:	01172440 	tsteq	r7, r0, asr #8
    1b30:	40400351 	submi	r0, r0, r1, asr r3
    1b34:	16000024 	strne	r0, [r0], -r4, lsr #32
    1b38:	00008d54 	andeq	r8, r0, r4, asr sp
    1b3c:	00000ca8 	andeq	r0, r0, r8, lsr #25
    1b40:	00000b8a 	andeq	r0, r0, sl, lsl #23
    1b44:	02500117 	subseq	r0, r0, #-1073741819	; 0xc0000005
    1b48:	16000074 			; <UNDEFINED> instruction: 0x16000074
    1b4c:	00008d78 	andeq	r8, r0, r8, ror sp
    1b50:	00000c39 	andeq	r0, r0, r9, lsr ip
    1b54:	00000bc2 	andeq	r0, r0, r2, asr #23
    1b58:	05500117 	ldrbeq	r0, [r0, #-279]	; 0xfffffee9
    1b5c:	00a5dc03 	adceq	sp, r5, r3, lsl #24
    1b60:	51011700 	tstpl	r1, r0, lsl #14
    1b64:	a7fc0305 	ldrbge	r0, [ip, r5, lsl #6]!
    1b68:	01170000 	tsteq	r7, r0
    1b6c:	dc030552 	cfstr32le	mvfx0, [r3], {82}	; 0x52
    1b70:	170000aa 	strne	r0, [r0, -sl, lsr #1]
    1b74:	47015301 	strmi	r5, [r1, -r1, lsl #6]
    1b78:	007d0217 	rsbseq	r0, sp, r7, lsl r2
    1b7c:	a9d00305 	ldmibge	r0, {r0, r2, r8, r9}^
    1b80:	18000000 	stmdane	r0, {}	; <UNPREDICTABLE>
    1b84:	00008d7c 	andeq	r8, r0, ip, ror sp
    1b88:	00000c45 	andeq	r0, r0, r5, asr #24
    1b8c:	008d9016 	addeq	r9, sp, r6, lsl r0
    1b90:	000c3900 	andeq	r3, ip, r0, lsl #18
    1b94:	000bf900 	andeq	pc, fp, r0, lsl #18
    1b98:	50011700 	andpl	r1, r1, r0, lsl #14
    1b9c:	a9e00305 	stmibge	r0!, {r0, r2, r8, r9}^
    1ba0:	01170000 	tsteq	r7, r0
    1ba4:	fc030551 	stc2	5, cr0, [r3], {81}	; 0x51
    1ba8:	170000a7 	strne	r0, [r0, -r7, lsr #1]
    1bac:	03055201 	movweq	r5, #20993	; 0x5201
    1bb0:	0000aadc 	ldrdeq	sl, [r0], -ip
    1bb4:	01530117 	cmpeq	r3, r7, lsl r1
    1bb8:	94180049 	ldrls	r0, [r8], #-73	; 0xffffffb7
    1bbc:	4500008d 	strmi	r0, [r0, #-141]	; 0xffffff73
    1bc0:	0000000c 	andeq	r0, r0, ip
    1bc4:	00021d2a 	andeq	r1, r2, sl, lsr #26
    1bc8:	0b0d0200 	bleq	3423d0 <__bss_end__+0x3370d8>
    1bcc:	00000114 	andeq	r0, r0, r4, lsl r1
    1bd0:	000c3903 	andeq	r3, ip, r3, lsl #18
    1bd4:	00542b00 	subseq	r2, r4, r0, lsl #22
    1bd8:	0d020000 	stceq	0, cr0, [r2, #-0]
    1bdc:	0000bf22 	andeq	fp, r0, r2, lsr #30
    1be0:	005f2b00 	subseq	r2, pc, r0, lsl #22
    1be4:	0d020000 	stceq	0, cr0, [r2, #-0]
    1be8:	0000bf34 	andeq	fp, r0, r4, lsr pc
    1bec:	01962b00 	orrseq	r2, r6, r0, lsl #22
    1bf0:	0d020000 	stceq	0, cr0, [r2, #-0]
    1bf4:	00002c43 	andeq	r2, r0, r3, asr #24
    1bf8:	7e2c0000 	cdpvc	0, 2, cr0, cr12, cr0, {0}
    1bfc:	7e000006 	cdpvc	0, 0, cr0, cr0, cr6, {0}
    1c00:	04000006 	streq	r0, [r0], #-6
    1c04:	8c2c0628 	stchi	6, cr0, [ip], #-160	; 0xffffff60
    1c08:	8c000000 	stchi	0, cr0, [r0], {-0}
    1c0c:	04000000 	streq	r0, [r0], #-0
    1c10:	0d2d066e 	stceq	6, cr0, [sp, #-440]!	; 0xfffffe48
    1c14:	77730b9e 			; <UNDEFINED> instruction: 0x77730b9e
    1c18:	5f706565 	svcpl	0x00706565
    1c1c:	65657266 	strbvs	r7, [r5, #-614]!	; 0xfffffd9a
    1c20:	02832c00 	addeq	r2, r3, #0, 24
    1c24:	02830000 	addeq	r0, r3, #0, 0
    1c28:	29050000 	stmdbcs	r5, {}	; <UNPREDICTABLE>
    1c2c:	02982c08 	addseq	r2, r8, #8, 24	; 0x800
    1c30:	02980000 	addseq	r0, r8, #0, 0
    1c34:	4d050000 	stcmi	0, cr0, [r5, #-0]
    1c38:	03102c07 	tsteq	r0, #1792	; 0x700
    1c3c:	03100000 	tsteq	r0, #0, 0
    1c40:	2c050000 	stccs	0, cr0, [r5], {-0}
    1c44:	048a2c08 	streq	r2, [sl], #3080	; 0xc08
    1c48:	048a0000 	streq	r0, [sl], #0
    1c4c:	76010000 	strvc	r0, [r1], -r0
    1c50:	02fe2c06 	rscseq	r2, lr, #1536	; 0x600
    1c54:	02fe0000 	rscseq	r0, lr, #0, 0
    1c58:	48050000 	stmdami	r5, {}	; <UNPREDICTABLE>
    1c5c:	04e02c08 	strbteq	r2, [r0], #3080	; 0xc08
    1c60:	04e00000 	strbteq	r0, [r0], #0
    1c64:	83040000 	movwhi	r0, #16384	; 0x4000
    1c68:	04d82c06 	ldrbeq	r2, [r8], #3078	; 0xc06
    1c6c:	04d80000 	ldrbeq	r0, [r8], #0
    1c70:	7c040000 	stcvc	0, cr0, [r4], {-0}
    1c74:	02160007 	andseq	r0, r6, #7, 0
    1c78:	00040000 	andeq	r0, r4, r0
    1c7c:	00000901 	andeq	r0, r0, r1, lsl #18
    1c80:	053e0104 	ldreq	r0, [lr, #-260]!	; 0xfffffefc
    1c84:	3e0c0000 	cdpcc	0, 0, cr0, cr12, cr0, {0}
    1c88:	1c000006 	stcne	0, cr0, [r0], {6}
    1c8c:	1c000006 	stcne	0, cr0, [r0], {6}
    1c90:	a000008f 	andge	r0, r0, pc, lsl #1
    1c94:	8d000000 	stchi	0, cr0, [r0, #-0]
    1c98:	0200000d 	andeq	r0, r0, #13, 0
    1c9c:	6e690504 	cdpvs	5, 6, cr0, cr9, cr4, {0}
    1ca0:	04030074 	streq	r0, [r3], #-116	; 0xffffff8c
    1ca4:	0001a707 	andeq	sl, r1, r7, lsl #14
    1ca8:	06010300 	streq	r0, [r1], -r0, lsl #6
    1cac:	000000a8 	andeq	r0, r0, r8, lsr #1
    1cb0:	00050203 	andeq	r0, r5, r3, lsl #4
    1cb4:	03000000 	movweq	r0, #0
    1cb8:	00690504 	rsbeq	r0, r9, r4, lsl #10
    1cbc:	08030000 	stmdaeq	r3, {}	; <UNPREDICTABLE>
    1cc0:	00006405 	andeq	r6, r0, r5, lsl #8
    1cc4:	08010300 	stmdaeq	r1, {r8, r9}
    1cc8:	000000a6 	andeq	r0, r0, r6, lsr #1
    1ccc:	ee070203 	cdp	2, 0, cr0, cr7, cr3, {0}
    1cd0:	03000001 	movweq	r0, #1
    1cd4:	01a20704 			; <UNDEFINED> instruction: 0x01a20704
    1cd8:	08030000 	stmdaeq	r3, {}	; <UNPREDICTABLE>
    1cdc:	00019d07 	andeq	r9, r1, r7, lsl #26
    1ce0:	00250400 	eoreq	r0, r5, r0, lsl #8
    1ce4:	007a0000 	rsbseq	r0, sl, r0
    1ce8:	25050000 	strcs	r0, [r5, #-0]
    1cec:	00000000 	andeq	r0, r0, r0
    1cf0:	00004006 	andeq	r4, r0, r6
    1cf4:	0e1c0200 	cdpeq	2, 1, cr0, cr12, cr0, {0}
    1cf8:	00000086 	andeq	r0, r0, r6, lsl #1
    1cfc:	006b0407 	rsbeq	r0, fp, r7, lsl #8
    1d00:	25040000 	strcs	r0, [r4, #-0]
    1d04:	9b000000 	blls	1d0c <__code_start__-0x62f4>
    1d08:	05000000 	streq	r0, [r0, #-0]
    1d0c:	0000009b 	muleq	r0, fp, r0
    1d10:	a8040700 	stmdage	r4, {r8, r9, sl}
    1d14:	03000000 	movweq	r0, #0
    1d18:	00af0801 	adceq	r0, pc, r1, lsl #16
    1d1c:	a1080000 	mrsge	r0, (UNDEF: 8)
    1d20:	06000000 	streq	r0, [r0], -r0
    1d24:	000006bc 			; <UNDEFINED> instruction: 0x000006bc
    1d28:	b90e2102 	stmdblt	lr, {r1, r8, sp}
    1d2c:	07000000 	streq	r0, [r0, -r0]
    1d30:	00008c04 	andeq	r8, r0, r4, lsl #24
    1d34:	06570900 	ldrbeq	r0, [r7], -r0, lsl #18
    1d38:	42010000 	andmi	r0, r1, #0, 0
    1d3c:	00009b0d 	andeq	r9, r0, sp, lsl #22
    1d40:	00f70100 	rscseq	r0, r7, r0, lsl #2
    1d44:	0e0a0000 	cdpeq	0, 0, cr0, cr10, cr0, {0}
    1d48:	01000006 	tsteq	r0, r6
    1d4c:	002c1e42 	eoreq	r1, ip, r2, asr #28
    1d50:	300b0000 	andcc	r0, fp, r0
    1d54:	01000005 	tsteq	r0, r5
    1d58:	002c0e43 	eoreq	r0, ip, r3, asr #28
    1d5c:	0b0c0000 	bleq	301d64 <__bss_end__+0x2f6a6c>
    1d60:	00000535 	andeq	r0, r0, r5, lsr r5
    1d64:	2c124501 	cfldr32cs	mvfx4, [r2], {1}
    1d68:	00000000 	andeq	r0, r0, r0
    1d6c:	029f0d00 	addseq	r0, pc, #0, 26
    1d70:	1d010000 	stcne	0, cr0, [r1, #-0]
    1d74:	00002505 	andeq	r2, r0, r5, lsl #10
    1d78:	008f1c00 	addeq	r1, pc, r0, lsl #24
    1d7c:	00008000 	andeq	r8, r0, r0
    1d80:	be9c0100 	fmllte	f0, f4, f0
    1d84:	0e000001 	cdpeq	0, 0, cr0, cr0, cr1, {0}
    1d88:	00000650 	andeq	r0, r0, r0, asr r6
    1d8c:	be0f1e01 	cdplt	14, 0, cr1, cr15, cr1, {0}
    1d90:	21000001 	tstcs	r0, r1
    1d94:	1f00000c 	svcne	0x0000000c
    1d98:	0f00000c 	svceq	0x0000000c
    1d9c:	00008f24 	andeq	r8, r0, r4, lsr #30
    1da0:	0000005c 	andeq	r0, r0, ip, asr r0
    1da4:	01006910 	tsteq	r0, r0, lsl r9
    1da8:	00250e21 	eoreq	r0, r5, r1, lsr #28
    1dac:	0c380000 	ldceq	0, cr0, [r8], #-0
    1db0:	0c340000 	ldceq	0, cr0, [r4], #-0
    1db4:	b0110000 	andslt	r0, r1, r0
    1db8:	10000000 	andne	r0, r0, r0
    1dbc:	01006370 	tsteq	r0, r0, ror r3
    1dc0:	002c1222 	eoreq	r1, ip, r2, lsr #4
    1dc4:	0c590000 	mraeq	r0, r9, acc0
    1dc8:	0c570000 	mraeq	r0, r7, acc0
    1dcc:	bf120000 	svclt	0x00120000
    1dd0:	58000000 	stmdapl	r0, {}	; <UNPREDICTABLE>
    1dd4:	0100008f 	smlabbeq	r0, pc, r0, r0	; <UNPREDICTABLE>
    1dd8:	000000d0 	ldrdeq	r0, [r0], -r0	; <UNPREDICTABLE>
    1ddc:	a5092301 	strge	r2, [r9, #-769]	; 0xfffffcff
    1de0:	13000001 	movwne	r0, #1
    1de4:	000000d0 	ldrdeq	r0, [r0], -r0	; <UNPREDICTABLE>
    1de8:	00000c6e 	andeq	r0, r0, lr, ror #24
    1dec:	00000c6c 	andeq	r0, r0, ip, ror #24
    1df0:	0000d011 	andeq	sp, r0, r1, lsl r0
    1df4:	00dc1400 	sbcseq	r1, ip, r0, lsl #8
    1df8:	0c850000 	stceq	0, cr0, [r5], {0}
    1dfc:	0c810000 	stceq	0, cr0, [r1], {0}
    1e00:	e8150000 	ldmda	r5, {}	; <UNPREDICTABLE>
    1e04:	f8000000 			; <UNDEFINED> instruction: 0xf8000000
    1e08:	14000000 	strne	r0, [r0], #-0
    1e0c:	000000e9 	andeq	r0, r0, r9, ror #1
    1e10:	00000caa 	andeq	r0, r0, sl, lsr #25
    1e14:	00000ca4 	andeq	r0, r0, r4, lsr #25
    1e18:	16000000 	strne	r0, [r0], -r0
    1e1c:	00008f74 	andeq	r8, r0, r4, ror pc
    1e20:	0000020d 	andeq	r0, r0, sp, lsl #4
    1e24:	02500117 	subseq	r0, r0, #-1073741819	; 0xc0000005
    1e28:	01170075 	tsteq	r7, r5, ror r0
    1e2c:	00770251 	rsbseq	r0, r7, r1, asr r2
    1e30:	00000000 	andeq	r0, r0, r0
    1e34:	002c0407 	eoreq	r0, ip, r7, lsl #8
    1e38:	bf180000 	svclt	0x00180000
    1e3c:	9c000000 	stcls	0, cr0, [r0], {-0}
    1e40:	2000008f 	andcs	r0, r0, pc, lsl #1
    1e44:	01000000 	mrseq	r0, (UNDEF: 0)
    1e48:	00020d9c 	muleq	r2, ip, sp
    1e4c:	00d01300 	sbcseq	r1, r0, r0, lsl #6
    1e50:	0cea0000 	stcleq	0, cr0, [sl]
    1e54:	0ce40000 	stcleq	0, cr0, [r4]
    1e58:	dc140000 	ldcle	0, cr0, [r4], {-0}
    1e5c:	1e000000 	cdpne	0, 0, cr0, cr0, cr0, {0}
    1e60:	1800000d 	stmdane	r0, {r0, r2, r3}
    1e64:	1900000d 	stmdbne	r0, {r0, r2, r3}
    1e68:	000000e8 	andeq	r0, r0, r8, ror #1
    1e6c:	00008fa8 	andeq	r8, r0, r8, lsr #31
    1e70:	00000008 	andeq	r0, r0, r8
    1e74:	0000e914 	andeq	lr, r0, r4, lsl r9
    1e78:	000d5200 	andeq	r5, sp, r0, lsl #4
    1e7c:	000d4c00 	andeq	r4, sp, r0, lsl #24
    1e80:	1a000000 	bne	1e88 <__code_start__-0x6178>
    1e84:	0000067e 	andeq	r0, r0, lr, ror r6
    1e88:	0000067e 	andeq	r0, r0, lr, ror r6
    1e8c:	00062802 	andeq	r2, r6, r2, lsl #16
    1e90:	00000140 	andeq	r0, r0, r0, asr #2
    1e94:	0a6c0004 	beq	1b01eac <__bss_end__+0x1af6bb4>
    1e98:	01040000 	mrseq	r0, (UNDEF: 4)
    1e9c:	0000053e 	andeq	r0, r0, lr, lsr r5
    1ea0:	0006660c 	andeq	r6, r6, ip, lsl #12
    1ea4:	00061c00 	andeq	r1, r6, r0, lsl #24
    1ea8:	008fbc00 	addeq	fp, pc, r0, lsl #24
    1eac:	00007800 	andeq	r7, r0, r0, lsl #16
    1eb0:	000ec700 	andeq	ip, lr, r0, lsl #14
    1eb4:	05040200 	streq	r0, [r4, #-512]	; 0xfffffe00
    1eb8:	00746e69 	rsbseq	r6, r4, r9, ror #28
    1ebc:	00065f03 	andeq	r5, r6, r3, lsl #30
    1ec0:	17d10300 	ldrbne	r0, [r1, r0, lsl #6]
    1ec4:	00000038 	andeq	r0, r0, r8, lsr r0
    1ec8:	a7070404 	strge	r0, [r7, -r4, lsl #8]
    1ecc:	04000001 	streq	r0, [r0], #-1
    1ed0:	00a80601 	adceq	r0, r8, r1, lsl #12
    1ed4:	02040000 	andeq	r0, r4, #0, 0
    1ed8:	00000005 	andeq	r0, r0, r5
    1edc:	05040400 	streq	r0, [r4, #-1024]	; 0xfffffc00
    1ee0:	00000069 	andeq	r0, r0, r9, rrx
    1ee4:	64050804 	strvs	r0, [r5], #-2052	; 0xfffff7fc
    1ee8:	04000000 	streq	r0, [r0], #-0
    1eec:	00a60801 	adceq	r0, r6, r1, lsl #16
    1ef0:	02040000 	andeq	r0, r4, #0, 0
    1ef4:	0001ee07 	andeq	lr, r1, r7, lsl #28
    1ef8:	07040400 	streq	r0, [r4, -r0, lsl #8]
    1efc:	000001a2 	andeq	r0, r0, r2, lsr #3
    1f00:	9d070804 	stcls	8, cr0, [r7, #-16]
    1f04:	05000001 	streq	r0, [r0, #-1]
    1f08:	00000025 	andeq	r0, r0, r5, lsr #32
    1f0c:	00000086 	andeq	r0, r0, r6, lsl #1
    1f10:	00002506 	andeq	r2, r0, r6, lsl #10
    1f14:	40070000 	andmi	r0, r7, r0
    1f18:	02000000 	andeq	r0, r0, #0, 0
    1f1c:	00920e1c 	addseq	r0, r2, ip, lsl lr
    1f20:	04080000 	streq	r0, [r8], #-0
    1f24:	00000077 	andeq	r0, r0, r7, ror r0
    1f28:	00002505 	andeq	r2, r0, r5, lsl #10
    1f2c:	0000a700 	andeq	sl, r0, r0, lsl #14
    1f30:	00a70600 	adceq	r0, r7, r0, lsl #12
    1f34:	08000000 	stmdaeq	r0, {}	; <UNPREDICTABLE>
    1f38:	0000b404 	andeq	fp, r0, r4, lsl #8
    1f3c:	08010400 	stmdaeq	r1, {sl}
    1f40:	000000af 	andeq	r0, r0, pc, lsr #1
    1f44:	0000ad09 	andeq	sl, r0, r9, lsl #26
    1f48:	06bc0700 	ldrteq	r0, [ip], r0, lsl #14
    1f4c:	21020000 	mrscs	r0, (UNDEF: 2)
    1f50:	0000c50e 	andeq	ip, r0, lr, lsl #10
    1f54:	98040800 	stmdals	r4, {fp}
    1f58:	0a000000 	beq	1f60 <__code_start__-0x60a0>
    1f5c:	00000072 	andeq	r0, r0, r2, ror r0
    1f60:	3b070401 	blcc	1c2f6c <__bss_end__+0x1b7c74>
    1f64:	bc000001 	stclt	0, cr0, [r0], {1}
    1f68:	7800008f 	stmdavc	r0, {r0, r1, r2, r3, r7}
    1f6c:	01000000 	mrseq	r0, (UNDEF: 0)
    1f70:	00013b9c 	muleq	r1, ip, fp
    1f74:	705f0b00 	subsvc	r0, pc, r0, lsl #22
    1f78:	14040100 	strne	r0, [r4], #-256	; 0xffffff00
    1f7c:	0000013b 	andeq	r0, r0, fp, lsr r1
    1f80:	630c5001 	movwvs	r5, #49153	; 0xc001
    1f84:	1c040100 	stfnes	f0, [r4], {-0}
    1f88:	00000025 	andeq	r0, r0, r5, lsr #32
    1f8c:	00000d9c 	muleq	r0, ip, sp
    1f90:	00000d98 	muleq	r0, r8, sp
    1f94:	01006e0c 	tsteq	r0, ip, lsl #28
    1f98:	002c2604 	eoreq	r2, ip, r4, lsl #12
    1f9c:	0dc10000 	stcleq	0, cr0, [r1]
    1fa0:	0dbd0000 	ldceq	0, cr0, [sp]
    1fa4:	700d0000 	andvc	r0, sp, r0
    1fa8:	0b050100 	bleq	1423b0 <__bss_end__+0x1370b8>
    1fac:	0000013d 	andeq	r0, r0, sp, lsr r1
    1fb0:	00000df0 	strdeq	r0, [r0], -r0	; <UNPREDICTABLE>
    1fb4:	00000de2 	andeq	r0, r0, r2, ror #27
    1fb8:	0100650d 	tsteq	r0, sp, lsl #10
    1fbc:	013d1405 	teqeq	sp, r5, lsl #8
    1fc0:	0e4d0000 	cdpeq	0, 4, cr0, cr13, cr0, {0}
    1fc4:	0e4b0000 	cdpeq	0, 4, cr0, cr11, cr0, {0}
    1fc8:	0e000000 	cdpeq	0, 0, cr0, cr0, cr0, {0}
    1fcc:	ad040804 	stcge	8, cr0, [r4, #-16]
    1fd0:	00000000 	andeq	r0, r0, r0
    1fd4:	0000019d 	muleq	r0, sp, r1
    1fd8:	0b380004 	bleq	e01ff0 <__bss_end__+0xdf6cf8>
    1fdc:	01040000 	mrseq	r0, (UNDEF: 4)
    1fe0:	0000053e 	andeq	r0, r0, lr, lsr r5
    1fe4:	0006990c 	andeq	r9, r6, ip, lsl #18
    1fe8:	00061c00 	andeq	r1, r6, r0, lsl #24
    1fec:	00903400 	addseq	r3, r0, r0, lsl #8
    1ff0:	00005800 	andeq	r5, r0, r0, lsl #16
    1ff4:	000fec00 	andeq	lr, pc, r0, lsl #24
    1ff8:	06850200 	streq	r0, [r5], r0, lsl #4
    1ffc:	28020000 	stmdacs	r2, {}	; <UNPREDICTABLE>
    2000:	0000311b 	andeq	r3, r0, fp, lsl r1
    2004:	06a90300 	strteq	r0, [r9], r0, lsl #6
    2008:	04040000 	streq	r0, [r4], #-0
    200c:	00004800 	andeq	r4, r0, r0, lsl #16
    2010:	06940400 	ldreq	r0, [r4], r0, lsl #8
    2014:	00480000 	subeq	r0, r8, r0
    2018:	00000000 	andeq	r0, r0, r0
    201c:	ab020405 	blge	83038 <__bss_end__+0x77d40>
    2020:	02000006 	andeq	r0, r0, #6, 0
    2024:	00251863 	eoreq	r1, r5, r3, ror #16
    2028:	04060000 	streq	r0, [r6], #-0
    202c:	746e6905 	strbtvc	r6, [lr], #-2309	; 0xfffff6fb
    2030:	07040700 	streq	r0, [r4, -r0, lsl #14]
    2034:	000001a7 	andeq	r0, r0, r7, lsr #3
    2038:	a8060107 	stmdage	r6, {r0, r1, r2, r8}
    203c:	07000000 	streq	r0, [r0, -r0]
    2040:	00000502 	andeq	r0, r0, r2, lsl #10
    2044:	04070000 	streq	r0, [r7], #-0
    2048:	00006905 	andeq	r6, r0, r5, lsl #18
    204c:	05080700 	streq	r0, [r8, #-1792]	; 0xfffff900
    2050:	00000064 	andeq	r0, r0, r4, rrx
    2054:	a6080107 	strge	r0, [r8], -r7, lsl #2
    2058:	07000000 	streq	r0, [r0, -r0]
    205c:	01ee0702 	mvneq	r0, r2, lsl #14
    2060:	04070000 	streq	r0, [r7], #-0
    2064:	0001a207 	andeq	sl, r1, r7, lsl #4
    2068:	07080700 	streq	r0, [r8, -r0, lsl #14]
    206c:	0000019d 	muleq	r0, sp, r1
    2070:	00005608 	andeq	r5, r0, r8, lsl #12
    2074:	0000ab00 	andeq	sl, r0, r0, lsl #22
    2078:	00560900 	subseq	r0, r6, r0, lsl #18
    207c:	0a000000 	beq	2084 <__code_start__-0x5f7c>
    2080:	00000040 	andeq	r0, r0, r0, asr #32
    2084:	b70e1c03 	strlt	r1, [lr, -r3, lsl #24]
    2088:	0b000000 	bleq	2090 <__code_start__-0x5f70>
    208c:	00009c04 	andeq	r9, r0, r4, lsl #24
    2090:	00560800 	subseq	r0, r6, r0, lsl #16
    2094:	00cc0000 	sbceq	r0, ip, r0
    2098:	cc090000 	stcgt	0, cr0, [r9], {-0}
    209c:	00000000 	andeq	r0, r0, r0
    20a0:	00d9040b 	sbcseq	r0, r9, fp, lsl #8
    20a4:	01070000 	mrseq	r0, (UNDEF: 7)
    20a8:	0000af08 	andeq	sl, r0, r8, lsl #30
    20ac:	00d20c00 	sbcseq	r0, r2, r0, lsl #24
    20b0:	bc0a0000 	stclt	0, cr0, [sl], {-0}
    20b4:	03000006 	movweq	r0, #6
    20b8:	00ea0e21 	rsceq	r0, sl, r1, lsr #28
    20bc:	040b0000 	streq	r0, [fp], #-0
    20c0:	000000bd 	strheq	r0, [r0], -sp
    20c4:	00067e0d 	andeq	r7, r6, sp, lsl #28
    20c8:	05060100 	streq	r0, [r6, #-256]	; 0xffffff00
    20cc:	00000056 	andeq	r0, r0, r6, asr r0
    20d0:	00009034 	andeq	r9, r0, r4, lsr r0
    20d4:	00000058 	andeq	r0, r0, r8, asr r0
    20d8:	01839c01 	orreq	r9, r3, r1, lsl #24
    20dc:	660e0000 	strvs	r0, [lr], -r0
    20e0:	0100746d 	tsteq	r0, sp, ror #8
    20e4:	00cc1806 	sbceq	r1, ip, r6, lsl #16
    20e8:	91020000 	mrsls	r0, (UNDEF: 2)
    20ec:	62100f70 	andsvs	r0, r0, #112, 30	; 0x1c0
    20f0:	01006675 	tsteq	r0, r5, ror r6
    20f4:	01831108 	orreq	r1, r3, r8, lsl #2
    20f8:	03050000 	movweq	r0, #20480	; 0x5000
    20fc:	0000aeec 	andeq	sl, r0, ip, ror #29
    2100:	00067611 	andeq	r7, r6, r1, lsl r6
    2104:	0d090100 	stfeqs	f0, [r9, #-0]
    2108:	0000004a 	andeq	r0, r0, sl, asr #32
    210c:	125c9102 	subsne	r9, ip, #-2147483648	; 0x80000000
    2110:	01007a73 	tsteq	r0, r3, ror sl
    2114:	00560d0c 	subseq	r0, r6, ip, lsl #26
    2118:	0e660000 	cdpeq	0, 6, cr0, cr6, cr0, {0}
    211c:	0e600000 	cdpeq	0, 6, cr0, cr0, cr0, {0}
    2120:	5c130000 	ldcpl	0, cr0, [r3], {-0}
    2124:	94000090 	strls	r0, [r0], #-144	; 0xffffff70
    2128:	76000001 	strvc	r0, [r0], -r1
    212c:	14000001 	strne	r0, [r0], #-1
    2130:	75025001 	strvc	r5, [r2, #-1]
    2134:	51011400 	tstpl	r1, r0, lsl #8
    2138:	04000a03 	streq	r0, [r0], #-2563	; 0xfffff5fd
    213c:	03520114 	cmpeq	r2, #5
    2140:	14064891 	strne	r4, [r6], #-2193	; 0xfffff76f
    2144:	91025301 	tstls	r2, r1, lsl #6
    2148:	7015004c 	andsvc	r0, r5, ip, asr #32
    214c:	14000090 	strne	r0, [r0], #-144	; 0xffffff70
    2150:	75025001 	strvc	r5, [r2, #-1]
    2154:	16000000 	strne	r0, [r0], -r0
    2158:	000000d2 	ldrdeq	r0, [r0], -r2
    215c:	00000194 	muleq	r0, r4, r1
    2160:	00005d17 	andeq	r5, r0, r7, lsl sp
    2164:	0003ff00 	andeq	pc, r3, r0, lsl #30
    2168:	00067b18 	andeq	r7, r6, r8, lsl fp
    216c:	00067b00 	andeq	r7, r6, r0, lsl #22
    2170:	05020500 	streq	r0, [r2, #-1280]	; 0xfffffb00
    2174:	0000f300 	andeq	pc, r0, r0, lsl #6
    2178:	7a000400 	bvc	3180 <__code_start__-0x4e80>
    217c:	0400000c 	streq	r0, [r0], #-12
    2180:	00053e01 	andeq	r3, r5, r1, lsl #28
    2184:	06c10c00 	strbeq	r0, [r1], r0, lsl #24
    2188:	061c0000 	ldreq	r0, [ip], -r0
    218c:	908c0000 	addls	r0, ip, r0
    2190:	00380000 	eorseq	r0, r8, r0
    2194:	11100000 	tstne	r0, r0
    2198:	04020000 	streq	r0, [r2], #-0
    219c:	746e6905 	strbtvc	r6, [lr], #-2309	; 0xfffff6fb
    21a0:	07040300 	streq	r0, [r4, -r0, lsl #6]
    21a4:	000001a7 	andeq	r0, r0, r7, lsr #3
    21a8:	a8060103 	stmdage	r6, {r0, r1, r8}
    21ac:	03000000 	movweq	r0, #0
    21b0:	00000502 	andeq	r0, r0, r2, lsl #10
    21b4:	04030000 	streq	r0, [r3], #-0
    21b8:	00006905 	andeq	r6, r0, r5, lsl #18
    21bc:	05080300 	streq	r0, [r8, #-768]	; 0xfffffd00
    21c0:	00000064 	andeq	r0, r0, r4, rrx
    21c4:	a6080103 	strge	r0, [r8], -r3, lsl #2
    21c8:	03000000 	movweq	r0, #0
    21cc:	01ee0702 	mvneq	r0, r2, lsl #14
    21d0:	04030000 	streq	r0, [r3], #-0
    21d4:	0001a207 	andeq	sl, r1, r7, lsl #4
    21d8:	07080300 	streq	r0, [r8, -r0, lsl #6]
    21dc:	0000019d 	muleq	r0, sp, r1
    21e0:	00002504 	andeq	r2, r0, r4, lsl #10
    21e4:	00007a00 	andeq	r7, r0, r0, lsl #20
    21e8:	00250500 	eoreq	r0, r5, r0, lsl #10
    21ec:	06000000 	streq	r0, [r0], -r0
    21f0:	00000040 	andeq	r0, r0, r0, asr #32
    21f4:	860e1c02 	strhi	r1, [lr], -r2, lsl #24
    21f8:	07000000 	streq	r0, [r0, -r0]
    21fc:	00006b04 	andeq	r6, r0, r4, lsl #22
    2200:	00250400 	eoreq	r0, r5, r0, lsl #8
    2204:	009b0000 	addseq	r0, fp, r0
    2208:	9b050000 	blls	142210 <__bss_end__+0x136f18>
    220c:	00000000 	andeq	r0, r0, r0
    2210:	00a80407 	adceq	r0, r8, r7, lsl #8
    2214:	01030000 	mrseq	r0, (UNDEF: 3)
    2218:	0000af08 	andeq	sl, r0, r8, lsl #30
    221c:	00a10800 	adceq	r0, r1, r0, lsl #16
    2220:	bc060000 	stclt	0, cr0, [r6], {-0}
    2224:	02000006 	andeq	r0, r0, #6, 0
    2228:	00b90e21 	adcseq	r0, r9, r1, lsr #28
    222c:	04070000 	streq	r0, [r7], #-0
    2230:	0000008c 	andeq	r0, r0, ip, lsl #1
    2234:	0000ad09 	andeq	sl, r0, r9, lsl #26
    2238:	070c0100 	streq	r0, [ip, -r0, lsl #2]
    223c:	aeb40305 	cdpge	3, 11, cr0, cr4, cr5, {0}
    2240:	b30a0000 	movwlt	r0, #40960	; 0xa000
    2244:	01000006 	tsteq	r0, r6
    2248:	00250504 	eoreq	r0, r5, r4, lsl #10
    224c:	908c0000 	addls	r0, ip, r0
    2250:	00380000 	eorseq	r0, r8, r0
    2254:	9c010000 	stcls	0, cr0, [r1], {-0}
    2258:	0100700b 	tsteq	r0, fp
    225c:	009b1f04 	addseq	r1, fp, r4, lsl #30
    2260:	0e970000 	cdpeq	0, 9, cr0, cr7, cr0, {0}
    2264:	0e8f0000 	cdpeq	0, 8, cr0, cr15, cr0, {0}
    2268:	00000000 	andeq	r0, r0, r0
    226c:	00000c7f 	andeq	r0, r0, pc, ror ip
    2270:	0d180004 	ldceq	0, cr0, [r8, #-16]
    2274:	01040000 	mrseq	r0, (UNDEF: 4)
    2278:	0000053e 	andeq	r0, r0, lr, lsr r5
    227c:	0006e00c 	andeq	lr, r6, ip
    2280:	00061c00 	andeq	r1, r6, r0, lsl #24
    2284:	0090c400 	addseq	ip, r0, r0, lsl #8
    2288:	0009b400 	andeq	fp, r9, r0, lsl #8
    228c:	0011b400 	andseq	fp, r1, r0, lsl #8
    2290:	07080200 	streq	r0, [r8, -r0, lsl #4]
    2294:	0000019d 	muleq	r0, sp, r1
    2298:	a7070402 	strge	r0, [r7, -r2, lsl #8]
    229c:	03000001 	movweq	r0, #1
    22a0:	6e690504 	cdpvs	5, 6, cr0, cr9, cr4, {0}
    22a4:	01020074 	tsteq	r2, r4, ror r0
    22a8:	0000a806 	andeq	sl, r0, r6, lsl #16
    22ac:	05020200 	streq	r0, [r2, #-512]	; 0xfffffe00
    22b0:	00000000 	andeq	r0, r0, r0
    22b4:	69050402 	stmdbvs	r5, {r1, sl}
    22b8:	02000000 	andeq	r0, r0, #0, 0
    22bc:	00640508 	rsbeq	r0, r4, r8, lsl #10
    22c0:	01020000 	mrseq	r0, (UNDEF: 2)
    22c4:	0000a608 	andeq	sl, r0, r8, lsl #12
    22c8:	07020200 	streq	r0, [r2, -r0, lsl #4]
    22cc:	000001ee 	andeq	r0, r0, lr, ror #3
    22d0:	0001b404 	andeq	fp, r1, r4, lsl #8
    22d4:	19340200 	ldmdbne	r4!, {r9}
    22d8:	00000070 	andeq	r0, r0, r0, ror r0
    22dc:	a2070402 	andge	r0, r7, #33554432	; 0x2000000
    22e0:	04000001 	streq	r0, [r0], #-1
    22e4:	000006d7 	ldrdeq	r0, [r0], -r7
    22e8:	25193702 	ldrcs	r3, [r9, #-1794]	; 0xfffff8fe
    22ec:	05000000 	streq	r0, [r0, #-0]
    22f0:	00000033 	andeq	r0, r0, r3, lsr r0
    22f4:	00000092 	muleq	r0, r2, r0
    22f8:	00003306 	andeq	r3, r0, r6, lsl #6
    22fc:	40070000 	andmi	r0, r7, r0
    2300:	03000000 	movweq	r0, #0
    2304:	009e0e1c 	addseq	r0, lr, ip, lsl lr
    2308:	04080000 	streq	r0, [r8], #-0
    230c:	00000083 	andeq	r0, r0, r3, lsl #1
    2310:	00003305 	andeq	r3, r0, r5, lsl #6
    2314:	0000b300 	andeq	fp, r0, r0, lsl #6
    2318:	00b30600 	adcseq	r0, r3, r0, lsl #12
    231c:	08000000 	stmdaeq	r0, {}	; <UNPREDICTABLE>
    2320:	0000c004 	andeq	ip, r0, r4
    2324:	08010200 	stmdaeq	r1, {r9}
    2328:	000000af 	andeq	r0, r0, pc, lsr #1
    232c:	0000b909 	andeq	fp, r0, r9, lsl #18
    2330:	06bc0700 	ldrteq	r0, [ip], r0, lsl #14
    2334:	21030000 	mrscs	r0, (UNDEF: 3)
    2338:	0000d10e 	andeq	sp, r0, lr, lsl #2
    233c:	a4040800 	strge	r0, [r4], #-2048	; 0xfffff800
    2340:	07000000 	streq	r0, [r0, -r0]
    2344:	000006f3 	strdeq	r0, [r0], -r3
    2348:	b90d0b04 	stmdblt	sp, {r2, r8, r9, fp}
    234c:	07000000 	streq	r0, [r0, -r0]
    2350:	00000746 	andeq	r0, r0, r6, asr #14
    2354:	b90d0c04 	stmdblt	sp, {r2, sl, fp}
    2358:	07000000 	streq	r0, [r0, -r0]
    235c:	00000432 	andeq	r0, r0, r2, lsr r4
    2360:	b90d0d04 	stmdblt	sp, {r2, r8, sl, fp}
    2364:	07000000 	streq	r0, [r0, -r0]
    2368:	000004cc 	andeq	r0, r0, ip, asr #9
    236c:	b90d0e04 	stmdblt	sp, {r2, r9, sl, fp}
    2370:	07000000 	streq	r0, [r0, -r0]
    2374:	00000502 	andeq	r0, r0, r2, lsl #10
    2378:	b90d0f04 	stmdblt	sp, {r2, r8, r9, sl, fp}
    237c:	07000000 	streq	r0, [r0, -r0]
    2380:	0000049b 	muleq	r0, fp, r4
    2384:	b90d1004 	stmdblt	sp, {r2, ip}
    2388:	07000000 	streq	r0, [r0, -r0]
    238c:	0000076f 	andeq	r0, r0, pc, ror #14
    2390:	b90d1104 	stmdblt	sp, {r2, r8, ip}
    2394:	07000000 	streq	r0, [r0, -r0]
    2398:	000002e6 	andeq	r0, r0, r6, ror #5
    239c:	b90d1204 	stmdblt	sp, {r2, r9, ip}
    23a0:	04000000 	streq	r0, [r0], #-0
    23a4:	00000685 	andeq	r0, r0, r5, lsl #13
    23a8:	431b2805 	tstmi	fp, #327680	; 0x50000
    23ac:	0a000001 	beq	23b8 <__code_start__-0x5c48>
    23b0:	000006a9 	andeq	r0, r0, r9, lsr #13
    23b4:	5a000604 	bpl	3bcc <__code_start__-0x4434>
    23b8:	0b000001 	bleq	23c4 <__code_start__-0x5c3c>
    23bc:	00000694 	muleq	r0, r4, r6
    23c0:	0000015a 	andeq	r0, r0, sl, asr r1
    23c4:	040c0000 	streq	r0, [ip], #-0
    23c8:	0006ab04 	andeq	sl, r6, r4, lsl #22
    23cc:	18630500 	stmdane	r3!, {r8, sl}^
    23d0:	00000137 	andeq	r0, r0, r7, lsr r1
    23d4:	00067b0d 	andeq	r7, r6, sp, lsl #22
    23d8:	05810100 	streq	r0, [r1, #256]	; 0x100
    23dc:	00000033 	andeq	r0, r0, r3, lsr r0
    23e0:	0000944c 	andeq	r9, r0, ip, asr #8
    23e4:	0000062c 	andeq	r0, r0, ip, lsr #12
    23e8:	086a9c01 	stmdaeq	sl!, {r0, sl, fp, ip, pc}^
    23ec:	620e0000 	andvs	r0, lr, #0, 0
    23f0:	01006675 	tsteq	r0, r5, ror r6
    23f4:	086a1581 	stmdaeq	sl!, {r0, r7, r8, sl, ip}^
    23f8:	0ed70000 	cdpeq	0, 13, cr0, cr7, cr0, {0}
    23fc:	0ecd0000 	cdpeq	0, 12, cr0, cr13, cr0, {0}
    2400:	6e0e0000 	cdpvs	0, 0, cr0, cr14, cr0, {0}
    2404:	1e810100 	rmfnes	f0, f1, f0
    2408:	00000033 	andeq	r0, r0, r3, lsr r0
    240c:	00000f24 	andeq	r0, r0, r4, lsr #30
    2410:	00000f1c 	andeq	r0, r0, ip, lsl pc
    2414:	746d660e 	strbtvc	r6, [sp], #-1550	; 0xfffff9f2
    2418:	2d810100 	stfcss	f0, [r1]
    241c:	000000b3 	strheq	r0, [r0], -r3
    2420:	00000f76 	andeq	r0, r0, r6, ror pc
    2424:	00000f5e 	andeq	r0, r0, lr, asr pc
    2428:	0006760f 	andeq	r7, r6, pc, lsl #12
    242c:	3a810100 	bcc	fe042834 <__bss_end__+0xfe03753c>
    2430:	0000015c 	andeq	r0, r0, ip, asr r1
    2434:	0000103a 	andeq	r1, r0, sl, lsr r0
    2438:	0000100a 	andeq	r1, r0, sl
    243c:	01007010 	tsteq	r0, r0, lsl r0
    2440:	086a0882 	stmdaeq	sl!, {r1, r7, fp}^
    2444:	119a0000 	orrsne	r0, sl, r0
    2448:	11840000 	orrne	r0, r4, r0
    244c:	65100000 	ldrvs	r0, [r0, #-0]
    2450:	12820100 	addne	r0, r2, #0
    2454:	0000086a 	andeq	r0, r0, sl, ror #16
    2458:	00001223 	andeq	r1, r0, r3, lsr #4
    245c:	00001221 	andeq	r1, r0, r1, lsr #4
    2460:	00307810 	eorseq	r7, r0, r0, lsl r8
    2464:	640e8301 	strvs	r8, [lr], #-769	; 0xfffffcff
    2468:	3c000000 	stccc	0, cr0, [r0], {-0}
    246c:	36000012 			; <UNDEFINED> instruction: 0x36000012
    2470:	10000012 	andne	r0, r0, r2, lsl r0
    2474:	01003178 	tsteq	r0, r8, ror r1
    2478:	00641183 	rsbeq	r1, r4, r3, lsl #3
    247c:	126b0000 	rsbne	r0, fp, #0, 0
    2480:	12650000 	rsbne	r0, r5, #0, 0
    2484:	28110000 	ldmdacs	r1, {}	; <UNPREDICTABLE>
    2488:	01000007 	tsteq	r0, r7
    248c:	00b31186 	adcseq	r1, r3, r6, lsl #3
    2490:	129c0000 	addsne	r0, ip, #0, 0
    2494:	12940000 	addsne	r0, r4, #0, 0
    2498:	7f120000 	svcvc	0x00120000
    249c:	80000000 	andhi	r0, r0, r0
    24a0:	05000008 	streq	r0, [r0, #-8]
    24a4:	00ac8403 	adceq	r8, ip, r3, lsl #8
    24a8:	01801300 	orreq	r1, r0, r0, lsl #6
    24ac:	73100000 	tstvc	r0, #0, 0
    24b0:	0a910100 	beq	fe4428b8 <__bss_end__+0xfe4375c0>
    24b4:	0000086a 	andeq	r0, r0, sl, ror #16
    24b8:	000012e2 	andeq	r1, r0, r2, ror #5
    24bc:	000012d6 	ldrdeq	r1, [r0], -r6
    24c0:	6d756e14 	ldclvs	14, cr6, [r5, #-80]!	; 0xffffffb0
    24c4:	0d910100 	ldfeqs	f0, [r1]
    24c8:	00000885 	andeq	r0, r0, r5, lsl #17
    24cc:	7dd89103 	ldfvcp	f1, [r8, #12]
    24d0:	00077c15 	andeq	r7, r7, r5, lsl ip
    24d4:	17910100 	ldrne	r0, [r1, r0, lsl #2]
    24d8:	00000885 	andeq	r0, r0, r5, lsl #17
    24dc:	7ed89103 	atnvce	f1, f3
    24e0:	00070211 	andeq	r0, r7, r1, lsl r2
    24e4:	0d920100 	ldfeqs	f0, [r2]
    24e8:	0000002c 	andeq	r0, r0, ip, lsr #32
    24ec:	00001334 	andeq	r1, r0, r4, lsr r3
    24f0:	0000132c 	andeq	r1, r0, ip, lsr #6
    24f4:	0001a816 	andeq	sl, r1, r6, lsl r8
    24f8:	0004f100 	andeq	pc, r4, r0, lsl #2
    24fc:	79741000 	ldmdbvc	r4!, {ip}^
    2500:	1d9e0100 	ldfnes	f0, [lr]
    2504:	000000b3 	strheq	r0, [r0], -r3
    2508:	00001375 	andeq	r1, r0, r5, ror r3
    250c:	00001369 	andeq	r1, r0, r9, ror #6
    2510:	00787814 	rsbseq	r7, r8, r4, lsl r8
    2514:	771aa201 	ldrvc	sl, [sl, -r1, lsl #4]
    2518:	06000000 	streq	r0, [r0], -r0
    251c:	5b049359 	blpl	127288 <__bss_end__+0x11bf90>
    2520:	d8170493 	ldmdale	r7, {r0, r1, r4, r7, sl}
    2524:	3a000095 	bcc	2780 <__code_start__-0x5880>
    2528:	d800000c 	stmdale	r0, {r2, r3}
    252c:	18000002 	stmdane	r0, {r1}
    2530:	76025001 	strvc	r5, [r2], -r1
    2534:	51011800 	tstpl	r1, r0, lsl #16
    2538:	ab780305 	blge	1e03154 <__bss_end__+0x1df7e5c>
    253c:	01180000 	tsteq	r8, r0
    2540:	00330152 	eorseq	r0, r3, r2, asr r1
    2544:	0095f017 	addseq	pc, r5, r7, lsl r0	; <UNPREDICTABLE>
    2548:	000c3a00 	andeq	r3, ip, r0, lsl #20
    254c:	0002fa00 	andeq	pc, r2, r0, lsl #20
    2550:	50011800 	andpl	r1, r1, r0, lsl #16
    2554:	18007602 	stmdane	r0, {r1, r9, sl, ip, sp, lr}
    2558:	03055101 	movweq	r5, #20737	; 0x5101
    255c:	0000ab8c 	andeq	sl, r0, ip, lsl #23
    2560:	01520118 	cmpeq	r2, r8, lsl r1
    2564:	14170033 	ldrne	r0, [r7], #-51	; 0xffffffcd
    2568:	46000096 			; <UNDEFINED> instruction: 0x46000096
    256c:	1700000c 	strne	r0, [r0, -ip]
    2570:	18000003 	stmdane	r0, {r0, r1}
    2574:	03055001 	movweq	r5, #20481	; 0x5001
    2578:	0000ab7c 	andeq	sl, r0, ip, ror fp
    257c:	02510118 	subseq	r0, r1, #6
    2580:	1700007b 	smlsdxne	r0, fp, r0, r0
    2584:	00009620 	andeq	r9, r0, r0, lsr #12
    2588:	00000c46 	andeq	r0, r0, r6, asr #24
    258c:	00000334 	andeq	r0, r0, r4, lsr r3
    2590:	05500118 	ldrbeq	r0, [r0, #-280]	; 0xfffffee8
    2594:	00ab8403 	adceq	r8, fp, r3, lsl #8
    2598:	51011800 	tstpl	r1, r0, lsl #16
    259c:	00007902 	andeq	r7, r0, r2, lsl #18
    25a0:	00963017 	addseq	r3, r6, r7, lsl r0
    25a4:	000c3a00 	andeq	r3, ip, r0, lsl #20
    25a8:	00035600 	andeq	r5, r3, r0, lsl #12
    25ac:	50011800 	andpl	r1, r1, r0, lsl #16
    25b0:	18007602 	stmdane	r0, {r1, r9, sl, ip, sp, lr}
    25b4:	03055101 	movweq	r5, #20737	; 0x5101
    25b8:	0000ab78 	andeq	sl, r0, r8, ror fp
    25bc:	01520118 	cmpeq	r2, r8, lsl r1
    25c0:	60170033 	andsvs	r0, r7, r3, lsr r0
    25c4:	a4000096 	strge	r0, [r0], #-150	; 0xffffff6a
    25c8:	8300000a 	movwhi	r0, #10
    25cc:	18000003 	stmdane	r0, {r0, r1}
    25d0:	40015001 	andmi	r5, r1, r1
    25d4:	03510118 	cmpeq	r1, #6
    25d8:	187dd091 	ldmdane	sp!, {r0, r4, r7, ip, lr, pc}^
    25dc:	7b025201 	blvc	96de8 <__bss_end__+0x8baf0>
    25e0:	53011800 	movwpl	r1, #6144	; 0x1800
    25e4:	18007502 	stmdane	r0, {r1, r8, sl, ip, sp, lr}
    25e8:	02007d02 	andeq	r7, r0, #128	; 0x80
    25ec:	17000076 	smlsdxne	r0, r6, r0, r0
    25f0:	00009680 	andeq	r9, r0, r0, lsl #13
    25f4:	00000aa4 	andeq	r0, r0, r4, lsr #21
    25f8:	000003aa 	andeq	r0, r0, sl, lsr #7
    25fc:	01500118 	cmpeq	r0, r8, lsl r1
    2600:	51011840 	tstpl	r1, r0, asr #16
    2604:	7ed09103 	atnvcs	f1, f3
    2608:	02520118 	subseq	r0, r2, #6
    260c:	02180079 	andseq	r0, r8, #121, 0	; 0x79
    2610:	7602007d 			; <UNDEFINED> instruction: 0x7602007d
    2614:	90170000 	andsls	r0, r7, r0
    2618:	52000096 	andpl	r0, r0, #150, 0	; 0x96
    261c:	c600000c 	strgt	r0, [r0], -ip
    2620:	18000003 	stmdane	r0, {r0, r1}
    2624:	91035001 	tstls	r3, r1
    2628:	01187dd0 			; <UNDEFINED> instruction: 0x01187dd0
    262c:	d2910351 	addsle	r0, r1, #1140850689	; 0x44000001
    2630:	d417007e 	ldrle	r0, [r7], #-126	; 0xffffff82
    2634:	3a000098 	bcc	289c <__code_start__-0x5764>
    2638:	e800000c 	stmda	r0, {r2, r3}
    263c:	18000003 	stmdane	r0, {r0, r1}
    2640:	76025001 	strvc	r5, [r2], -r1
    2644:	51011800 	tstpl	r1, r0, lsl #16
    2648:	ab8c0305 	blge	fe303264 <__bss_end__+0xfe2f7f6c>
    264c:	01180000 	tsteq	r8, r0
    2650:	00330152 	eorseq	r0, r3, r2, asr r1
    2654:	0098f817 	addseq	pc, r8, r7, lsl r8	; <UNPREDICTABLE>
    2658:	000aa400 	andeq	sl, sl, r0, lsl #8
    265c:	00041500 	andeq	r1, r4, r0, lsl #10
    2660:	50011800 	andpl	r1, r1, r0, lsl #16
    2664:	01183a01 	tsteq	r8, r1, lsl #20
    2668:	d0910351 	addsle	r0, r1, r1, asr r3
    266c:	5201187d 	andpl	r1, r1, #8192000	; 0x7d0000
    2670:	18007b02 	stmdane	r0, {r1, r8, r9, fp, ip, sp, lr}
    2674:	75025301 	strvc	r5, [r2, #-769]	; 0xfffffcff
    2678:	7d021800 	stcvc	8, cr1, [r2, #-0]
    267c:	00760200 	rsbseq	r0, r6, r0, lsl #4
    2680:	99181700 	ldmdbls	r8, {r8, r9, sl, ip}
    2684:	0aa40000 	beq	fe90268c <__bss_end__+0xfe8f7394>
    2688:	043c0000 	ldrteq	r0, [ip], #-0
    268c:	01180000 	tsteq	r8, r0
    2690:	183a0150 	ldmdane	sl!, {r4, r6, r8}
    2694:	91035101 	tstls	r3, r1, lsl #2
    2698:	01187ed0 			; <UNDEFINED> instruction: 0x01187ed0
    269c:	00790252 	rsbseq	r0, r9, r2, asr r2
    26a0:	007d0218 	rsbseq	r0, sp, r8, lsl r2
    26a4:	00007602 	andeq	r7, r0, r2, lsl #12
    26a8:	00992417 	addseq	r2, r9, r7, lsl r4
    26ac:	000c5e00 	andeq	r5, ip, r0, lsl #28
    26b0:	00045a00 	andeq	r5, r4, r0, lsl #20
    26b4:	50011800 	andpl	r1, r1, r0, lsl #16
    26b8:	7dd09103 	ldfvcp	f1, [r0, #12]
    26bc:	05510118 	ldrbeq	r0, [r1, #-280]	; 0xfffffee8
    26c0:	00a9dc03 	adceq	sp, r9, r3, lsl #24
    26c4:	38170000 	ldmdacc	r7, {}	; <UNPREDICTABLE>
    26c8:	6a000099 	bvs	2934 <__code_start__-0x56cc>
    26cc:	7600000c 	strvc	r0, [r0], -ip
    26d0:	18000004 	stmdane	r0, {r2}
    26d4:	91035001 	tstls	r3, r1
    26d8:	01187dd0 			; <UNDEFINED> instruction: 0x01187dd0
    26dc:	d0910351 	addsle	r0, r1, r1, asr r3
    26e0:	4419007e 	ldrmi	r0, [r9], #-126	; 0xffffff82
    26e4:	52000099 	andpl	r0, r0, #153, 0	; 0x99
    26e8:	1700000c 	strne	r0, [r0, -ip]
    26ec:	00009a08 	andeq	r9, r0, r8, lsl #20
    26f0:	00000c46 	andeq	r0, r0, r6, asr #24
    26f4:	000004a8 	andeq	r0, r0, r8, lsr #9
    26f8:	05500118 	ldrbeq	r0, [r0, #-280]	; 0xfffffee8
    26fc:	00a5dc03 	adceq	sp, r5, r3, lsl #24
    2700:	51011800 	tstpl	r1, r0, lsl #16
    2704:	ab2c0305 	blge	b03320 <__bss_end__+0xaf8028>
    2708:	01180000 	tsteq	r8, r0
    270c:	84030552 	strhi	r0, [r3], #-1362	; 0xfffffaae
    2710:	000000ac 	andeq	r0, r0, ip, lsr #1
    2714:	009a0c19 	addseq	r0, sl, r9, lsl ip
    2718:	000c7600 	andeq	r7, ip, r0, lsl #12
    271c:	9a241700 	bls	908324 <__bss_end__+0x8fd02c>
    2720:	0c460000 	mareq	acc0, r0, r6
    2724:	04e70000 	strbteq	r0, [r7], #0
    2728:	01180000 	tsteq	r8, r0
    272c:	cc030550 	cfstr32gt	mvfx0, [r3], {80}	; 0x50
    2730:	180000ab 	stmdane	r0, {r0, r1, r3, r5, r7}
    2734:	03055101 	movweq	r5, #20737	; 0x5101
    2738:	0000ab2c 	andeq	sl, r0, ip, lsr #22
    273c:	05520118 	ldrbeq	r0, [r2, #-280]	; 0xfffffee8
    2740:	00ac8403 	adceq	r8, ip, r3, lsl #8
    2744:	53011800 	movwpl	r1, #6144	; 0x1800
    2748:	18b60802 	ldmne	r6!, {r1, fp}
    274c:	02007d02 	andeq	r7, r0, #128	; 0x80
    2750:	19000076 	stmdbne	r0, {r1, r2, r4, r5, r6}
    2754:	00009a28 	andeq	r9, r0, r8, lsr #20
    2758:	00000c76 	andeq	r0, r0, r6, ror ip
    275c:	09e31a00 	stmibeq	r3!, {r9, fp, ip}^
    2760:	94d80000 	ldrbls	r0, [r8], #0
    2764:	00040000 	andeq	r0, r4, r0
    2768:	000001d0 	ldrdeq	r0, [r0], -r0	; <UNPREDICTABLE>
    276c:	150a9401 	strne	r9, [sl, #-1025]	; 0xfffffbff
    2770:	1b000005 	blne	278c <__code_start__-0x5874>
    2774:	000009f4 	strdeq	r0, [r0], -r4
    2778:	000013d1 	ldrdeq	r1, [r0], -r1	; <UNPREDICTABLE>
    277c:	000013cd 	andeq	r1, r0, sp, asr #7
    2780:	08951a00 	ldmeq	r5, {r9, fp, ip}
    2784:	96c00000 	strbls	r0, [r0], r0
    2788:	00010000 	andeq	r0, r1, r0
    278c:	000001f0 	strdeq	r0, [r0], -r0	; <UNPREDICTABLE>
    2790:	4b09dc01 	blmi	27979c <__bss_end__+0x26e4a4>
    2794:	1b000006 	blne	27b4 <__code_start__-0x584c>
    2798:	000008be 			; <UNDEFINED> instruction: 0x000008be
    279c:	000013ff 	strdeq	r1, [r0], -pc	; <UNPREDICTABLE>
    27a0:	000013f9 	strdeq	r1, [r0], -r9
    27a4:	0008e01b 	andeq	lr, r8, fp, lsl r0
    27a8:	00143400 	andseq	r3, r4, r0, lsl #8
    27ac:	00142e00 	andseq	r2, r4, r0, lsl #28
    27b0:	08d41b00 	ldmeq	r4, {r8, r9, fp, ip}^
    27b4:	14660000 	strbtne	r0, [r6], #-0
    27b8:	14600000 	strbtne	r0, [r0], #-0
    27bc:	c81c0000 	ldmdagt	ip, {}	; <UNPREDICTABLE>
    27c0:	1b000008 	blne	27e8 <__code_start__-0x5818>
    27c4:	000008b2 			; <UNDEFINED> instruction: 0x000008b2
    27c8:	00001497 	muleq	r0, r7, r4
    27cc:	0000148f 	andeq	r1, r0, pc, lsl #9
    27d0:	0008a61b 	andeq	sl, r8, fp, lsl r6
    27d4:	0014da00 	andseq	sp, r4, r0, lsl #20
    27d8:	0014d400 	andseq	sp, r4, r0, lsl #8
    27dc:	01f01300 	mvnseq	r1, r0, lsl #6
    27e0:	ec1d0000 	ldc	0, cr0, [sp], {-0}
    27e4:	03000008 	movweq	r0, #8
    27e8:	1e7ed891 	mrcne	8, 3, sp, cr14, cr1, {4}
    27ec:	000008f8 	strdeq	r0, [r0], -r8
    27f0:	00001514 	andeq	r1, r0, r4, lsl r5
    27f4:	00001506 	andeq	r1, r0, r6, lsl #10
    27f8:	0009021f 	andeq	r0, r9, pc, lsl r2
    27fc:	09a31a00 	stmibeq	r3!, {r9, fp, ip}
    2800:	96cc0000 	strbls	r0, [ip], r0
    2804:	00040000 	andeq	r0, r4, r0
    2808:	00000220 	andeq	r0, r0, r0, lsr #4
    280c:	e2097c01 	and	r7, r9, #256	; 0x100
    2810:	1b000005 	blne	282c <__code_start__-0x57d4>
    2814:	000009ca 	andeq	r0, r0, sl, asr #19
    2818:	0000157e 	andeq	r1, r0, lr, ror r5
    281c:	00001578 	andeq	r1, r0, r8, ror r5
    2820:	0009be1b 	andeq	fp, r9, fp, lsl lr
    2824:	0015b300 	andseq	fp, r5, r0, lsl #6
    2828:	0015a700 	andseq	sl, r5, r0, lsl #14
    282c:	09b41b00 	ldmibeq	r4!, {r8, r9, fp, ip}
    2830:	16190000 	ldrne	r0, [r9], -r0
    2834:	16090000 	strne	r0, [r9], -r0
    2838:	20130000 	andscs	r0, r3, r0
    283c:	1e000002 	cdpne	0, 0, cr0, cr0, cr2, {0}
    2840:	000009d6 	ldrdeq	r0, [r0], -r6
    2844:	00001696 	muleq	r0, r6, r6
    2848:	00001688 	andeq	r1, r0, r8, lsl #13
    284c:	4f200000 	svcmi	0x00200000
    2850:	94000009 	strls	r0, [r0], #-9
    2854:	02000097 	andeq	r0, r0, #151, 0	; 0x97
    2858:	00025000 	andeq	r5, r2, r0
    285c:	097c0100 	ldmdbeq	ip!, {r8}^
    2860:	0009801b 	andeq	r8, r9, fp, lsl r0
    2864:	0016f600 	andseq	pc, r6, r0, lsl #12
    2868:	0016f000 	andseq	pc, r6, r0
    286c:	09761b00 	ldmdbeq	r6!, {r8, r9, fp, ip}^
    2870:	172c0000 	strne	r0, [ip, -r0]!
    2874:	17220000 	strne	r0, [r2, -r0]!
    2878:	6c1b0000 	ldcvs	0, cr0, [fp], {-0}
    287c:	7b000009 	blvc	28a8 <__code_start__-0x5758>
    2880:	77000017 	smladvc	r0, r7, r0, r0
    2884:	1b000017 	blne	28e8 <__code_start__-0x5718>
    2888:	00000960 	andeq	r0, r0, r0, ror #18
    288c:	000017ab 	andeq	r1, r0, fp, lsr #15
    2890:	0000179d 	muleq	r0, sp, r7
    2894:	00025013 	andeq	r5, r2, r3, lsl r0
    2898:	098c1e00 	stmibeq	ip, {r9, sl, fp, ip}
    289c:	18100000 	ldmdane	r0, {}	; <UNPREDICTABLE>
    28a0:	180e0000 	stmdane	lr, {}	; <UNPREDICTABLE>
    28a4:	981e0000 	ldmdals	lr, {}	; <UNPREDICTABLE>
    28a8:	2a000009 	bcs	28d4 <__code_start__-0x572c>
    28ac:	24000018 	strcs	r0, [r0], #-24	; 0xffffffe8
    28b0:	00000018 	andeq	r0, r0, r8, lsl r0
    28b4:	1a000000 	bne	28bc <__code_start__-0x5744>
    28b8:	00000895 	muleq	r0, r5, r8
    28bc:	000097d0 	ldrdeq	r9, [r0], -r0
    28c0:	02800000 	addeq	r0, r0, #0, 0
    28c4:	d6010000 	strle	r0, [r1], -r0
    28c8:	00078909 	andeq	r8, r7, r9, lsl #18
    28cc:	08be1b00 	ldmeq	lr!, {r8, r9, fp, ip}
    28d0:	185d0000 	ldmdane	sp, {}^	; <UNPREDICTABLE>
    28d4:	18590000 	ldmdane	r9, {}^	; <UNPREDICTABLE>
    28d8:	e01b0000 	ands	r0, fp, r0
    28dc:	83000008 	movwhi	r0, #8
    28e0:	7f000018 	svcvc	0x00000018
    28e4:	1b000018 	blne	294c <__code_start__-0x56b4>
    28e8:	000008d4 	ldrdeq	r0, [r0], -r4
    28ec:	000018a7 	andeq	r1, r0, r7, lsr #17
    28f0:	000018a3 	andeq	r1, r0, r3, lsr #17
    28f4:	0008c81c 	andeq	ip, r8, ip, lsl r8
    28f8:	08b21b00 	ldmeq	r2!, {r8, r9, fp, ip}
    28fc:	18cb0000 	stmiane	fp, {}^	; <UNPREDICTABLE>
    2900:	18c50000 	stmiane	r5, {}^	; <UNPREDICTABLE>
    2904:	a61b0000 	ldrge	r0, [fp], -r0
    2908:	fe000008 	cdp2	0, 0, cr0, cr0, cr8, {0}
    290c:	fa000018 	blx	2974 <__code_start__-0x568c>
    2910:	13000018 	movwne	r0, #24
    2914:	00000280 	andeq	r0, r0, r0, lsl #5
    2918:	0008ec1d 	andeq	lr, r8, sp, lsl ip
    291c:	d8910300 	ldmle	r1, {r8, r9}
    2920:	08f81e7e 	ldmeq	r8!, {r1, r2, r3, r4, r5, r6, r9, sl, fp, ip}^
    2924:	19280000 	stmdbne	r8!, {}	; <UNPREDICTABLE>
    2928:	191e0000 	ldmdbne	lr, {}	; <UNPREDICTABLE>
    292c:	021e0000 	andseq	r0, lr, #0, 0
    2930:	6d000009 	stcvs	0, cr0, [r0, #-36]	; 0xffffffdc
    2934:	69000019 	stmdbvs	r0, {r0, r3, r4}
    2938:	1a000019 	bne	29a4 <__code_start__-0x565c>
    293c:	000009a3 	andeq	r0, r0, r3, lsr #19
    2940:	000097ec 	andeq	r9, r0, ip, ror #15
    2944:	02a00003 	adceq	r0, r0, #3, 0
    2948:	7c010000 	stcvc	0, cr0, [r1], {-0}
    294c:	00072009 	andeq	r2, r7, r9
    2950:	09ca1b00 	stmibeq	sl, {r8, r9, fp, ip}^
    2954:	198f0000 	stmibne	pc, {}	; <UNPREDICTABLE>
    2958:	198b0000 	stmibne	fp, {}	; <UNPREDICTABLE>
    295c:	be1b0000 	cdplt	0, 1, cr0, cr11, cr0, {0}
    2960:	b1000009 	tstlt	r0, r9
    2964:	ad000019 	stcge	0, cr0, [r0, #-100]	; 0xffffff9c
    2968:	1b000019 	blne	29d4 <__code_start__-0x562c>
    296c:	000009b4 			; <UNDEFINED> instruction: 0x000009b4
    2970:	000019db 	ldrdeq	r1, [r0], -fp
    2974:	000019cf 	andeq	r1, r0, pc, asr #19
    2978:	0002a013 	andeq	sl, r2, r3, lsl r0
    297c:	09d61e00 	ldmibeq	r6, {r9, sl, fp, ip}^
    2980:	1a370000 	bne	dc2988 <__bss_end__+0xdb7690>
    2984:	1a2b0000 	bne	ac298c <__bss_end__+0xab7694>
    2988:	00000000 	andeq	r0, r0, r0
    298c:	00094f20 	andeq	r4, r9, r0, lsr #30
    2990:	00987400 	addseq	r7, r8, r0, lsl #8
    2994:	c8000200 	stmdagt	r0, {r9}
    2998:	01000002 	tsteq	r0, r2
    299c:	801b097c 	andshi	r0, fp, ip, ror r9
    29a0:	87000009 	strhi	r0, [r0, -r9]
    29a4:	8300001a 	movwhi	r0, #26
    29a8:	1b00001a 	blne	2a18 <__code_start__-0x55e8>
    29ac:	00000976 	andeq	r0, r0, r6, ror r9
    29b0:	00001aaf 	andeq	r1, r0, pc, lsr #21
    29b4:	00001aa5 	andeq	r1, r0, r5, lsr #21
    29b8:	00096c1b 	andeq	r6, r9, fp, lsl ip
    29bc:	001afb00 	andseq	pc, sl, r0, lsl #22
    29c0:	001af700 	andseq	pc, sl, r0, lsl #14
    29c4:	09601b00 	stmdbeq	r0!, {r8, r9, fp, ip}^
    29c8:	1b290000 	blne	a429d0 <__bss_end__+0xa376d8>
    29cc:	1b1d0000 	blne	7429d4 <__bss_end__+0x7376dc>
    29d0:	c8130000 	ldmdagt	r3, {}	; <UNPREDICTABLE>
    29d4:	1e000002 	cdpne	0, 0, cr0, cr0, cr2, {0}
    29d8:	0000098c 	andeq	r0, r0, ip, lsl #19
    29dc:	00001b83 	andeq	r1, r0, r3, lsl #23
    29e0:	00001b7f 	andeq	r1, r0, pc, ror fp
    29e4:	0009981e 	andeq	r9, r9, lr, lsl r8
    29e8:	001ba900 	andseq	sl, fp, r0, lsl #18
    29ec:	001ba500 	andseq	sl, fp, r0, lsl #10
    29f0:	00000000 	andeq	r0, r0, r0
    29f4:	95a01700 	strls	r1, [r0, #1792]!	; 0x700
    29f8:	0aa40000 	beq	fe902a00 <__bss_end__+0xfe8f7708>
    29fc:	07af0000 	streq	r0, [pc, r0]!
    2a00:	01180000 	tsteq	r8, r0
    2a04:	18400150 	stmdane	r0, {r4, r6, r8}^
    2a08:	91035101 	tstls	r3, r1, lsl #2
    2a0c:	01187dd0 			; <UNDEFINED> instruction: 0x01187dd0
    2a10:	00750253 	rsbseq	r0, r5, r3, asr r2
    2a14:	007d0218 	rsbseq	r0, sp, r8, lsl r2
    2a18:	17003001 	strne	r3, [r0, -r1]
    2a1c:	000096b0 			; <UNDEFINED> instruction: 0x000096b0
    2a20:	00000aa4 	andeq	r0, r0, r4, lsr #21
    2a24:	000007cf 	andeq	r0, r0, pc, asr #15
    2a28:	01500118 	cmpeq	r0, r8, lsl r1
    2a2c:	5101183a 	tstpl	r1, sl, lsr r8
    2a30:	7dd09103 	ldfvcp	f1, [r0, #12]
    2a34:	02530118 	subseq	r0, r3, #6
    2a38:	17000075 	smlsdxne	r0, r5, r0, r0
    2a3c:	00009994 	muleq	r0, r4, r9
    2a40:	00000c46 	andeq	r0, r0, r6, asr #24
    2a44:	000007e6 	andeq	r0, r0, r6, ror #15
    2a48:	05500118 	ldrbeq	r0, [r0, #-280]	; 0xfffffee8
    2a4c:	00ac1c03 	adceq	r1, ip, r3, lsl #24
    2a50:	a4210000 	strtge	r0, [r1], #-0
    2a54:	f8000099 			; <UNDEFINED> instruction: 0xf8000099
    2a58:	18000007 	stmdane	r0, {r0, r1, r2}
    2a5c:	91045001 	tstls	r4, r1
    2a60:	00067dc8 	andeq	r7, r6, r8, asr #27
    2a64:	0099b817 	addseq	fp, r9, r7, lsl r8
    2a68:	000c4600 	andeq	r4, ip, r0, lsl #12
    2a6c:	00082700 	andeq	r2, r8, r0, lsl #14
    2a70:	50011800 	andpl	r1, r1, r0, lsl #16
    2a74:	ac4c0305 	mcrrge	3, 0, r0, ip, cr5
    2a78:	01180000 	tsteq	r8, r0
    2a7c:	2c030551 	cfstr32cs	mvfx0, [r3], {81}	; 0x51
    2a80:	180000ab 	stmdane	r0, {r0, r1, r3, r5, r7}
    2a84:	03055201 	movweq	r5, #20993	; 0x5201
    2a88:	0000ac84 	andeq	sl, r0, r4, lsl #25
    2a8c:	02530118 	subseq	r0, r3, #6
    2a90:	1900e208 	stmdbne	r0, {r3, r9, sp, lr, pc}
    2a94:	000099bc 			; <UNDEFINED> instruction: 0x000099bc
    2a98:	00000c76 	andeq	r0, r0, r6, ror ip
    2a9c:	0099d017 	addseq	sp, r9, r7, lsl r0
    2aa0:	000c4600 	andeq	r4, ip, r0, lsl #12
    2aa4:	00085f00 	andeq	r5, r8, r0, lsl #30
    2aa8:	50011800 	andpl	r1, r1, r0, lsl #16
    2aac:	abf40305 	blge	ffd036c8 <__bss_end__+0xffcf83d0>
    2ab0:	01180000 	tsteq	r8, r0
    2ab4:	2c030551 	cfstr32cs	mvfx0, [r3], {81}	; 0x51
    2ab8:	180000ab 	stmdane	r0, {r0, r1, r3, r5, r7}
    2abc:	03055201 	movweq	r5, #20993	; 0x5201
    2ac0:	0000ac84 	andeq	sl, r0, r4, lsl #25
    2ac4:	02530118 	subseq	r0, r3, #6
    2ac8:	1900be08 	stmdbne	r0, {r3, r9, sl, fp, ip, sp, pc}
    2acc:	000099d4 	ldrdeq	r9, [r0], -r4
    2ad0:	00000c76 	andeq	r0, r0, r6, ror ip
    2ad4:	04080000 	streq	r0, [r8], #-0
    2ad8:	000000b9 	strheq	r0, [r0], -r9
    2adc:	0000c022 	andeq	ip, r0, r2, lsr #32
    2ae0:	00088000 	andeq	r8, r8, r0
    2ae4:	002c2300 	eoreq	r2, ip, r0, lsl #6
    2ae8:	00090000 	andeq	r0, r9, r0
    2aec:	00087009 	andeq	r7, r8, r9
    2af0:	00b92200 	adcseq	r2, r9, r0, lsl #4
    2af4:	08950000 	ldmeq	r5, {}	; <UNPREDICTABLE>
    2af8:	2c230000 	stccs	0, cr0, [r3], #-0
    2afc:	7f000000 	svcvc	0x00000000
    2b00:	07532400 	ldrbeq	r2, [r3, -r0, lsl #8]
    2b04:	49010000 	stmdbmi	r1, {}	; <UNPREDICTABLE>
    2b08:	00086a01 	andeq	r6, r8, r1, lsl #20
    2b0c:	092a0100 	stmdbeq	sl!, {r8}
    2b10:	f6250000 			; <UNDEFINED> instruction: 0xf6250000
    2b14:	01000003 	tsteq	r0, r3
    2b18:	002c0f49 	eoreq	r0, ip, r9, asr #30
    2b1c:	64260000 	strtvs	r0, [r6], #-0
    2b20:	01007473 	tsteq	r0, r3, ror r4
    2b24:	086a1b49 	stmdaeq	sl!, {r0, r3, r6, r8, r9, fp, ip}^
    2b28:	6e260000 	cdpvs	0, 2, cr0, cr6, cr0, {0}
    2b2c:	24490100 	strbcs	r0, [r9], #-256	; 0xffffff00
    2b30:	00000033 	andeq	r0, r0, r3, lsr r0
    2b34:	6c617626 	stclvs	6, cr7, [r1], #-152	; 0xffffff68
    2b38:	2b490100 	blcs	1242f40 <__bss_end__+0x1237c48>
    2b3c:	00000033 	andeq	r0, r0, r3, lsr r0
    2b40:	00070225 	andeq	r0, r7, r5, lsr #4
    2b44:	34490100 	strbcc	r0, [r9], #-256	; 0xffffff00
    2b48:	00000033 	andeq	r0, r0, r3, lsr r0
    2b4c:	00070825 	andeq	r0, r7, r5, lsr #16
    2b50:	3f490100 	svccc	0x00490100
    2b54:	00000033 	andeq	r0, r0, r3, lsr r0
    2b58:	66756227 	ldrbtvs	r6, [r5], -r7, lsr #4
    2b5c:	074e0100 	strbeq	r0, [lr, -r0, lsl #2]
    2b60:	0000092a 	andeq	r0, r0, sl, lsr #18
    2b64:	01007027 	tsteq	r0, r7, lsr #32
    2b68:	086a114e 	stmdaeq	sl!, {r1, r2, r3, r6, r8, ip}^
    2b6c:	75270000 	strvc	r0, [r7, #-0]!
    2b70:	0b4f0100 	bleq	13c2f78 <__bss_end__+0x13b7c80>
    2b74:	0000002c 	andeq	r0, r0, ip, lsr #32
    2b78:	00007f12 	andeq	r7, r0, r2, lsl pc
    2b7c:	00094a00 	andeq	r4, r9, r0, lsl #20
    2b80:	6c030500 	cfstr32vs	mvfx0, [r3], {-0}
    2b84:	280000ac 	stmdacs	r0, {r2, r3, r5, r7}
    2b88:	00074029 	andeq	r4, r7, r9, lsr #32
    2b8c:	0d540100 	ldfeqe	f0, [r4, #-0]
    2b90:	0000002c 	andeq	r0, r0, ip, lsr #32
    2b94:	b9220000 	stmdblt	r2!, {}	; <UNPREDICTABLE>
    2b98:	3a000000 	bcc	2ba0 <__code_start__-0x5460>
    2b9c:	23000009 	movwcs	r0, #9
    2ba0:	0000002c 	andeq	r0, r0, ip, lsr #32
    2ba4:	c022003f 	eorgt	r0, r2, pc, lsr r0
    2ba8:	4a000000 	bmi	2bb0 <__code_start__-0x5450>
    2bac:	23000009 	movwcs	r0, #9
    2bb0:	0000002c 	andeq	r0, r0, ip, lsr #32
    2bb4:	3a090004 	bcc	242bcc <__bss_end__+0x2378d4>
    2bb8:	24000009 	strcs	r0, [r0], #-9
    2bbc:	00000760 	andeq	r0, r0, r0, ror #14
    2bc0:	6a0e3801 	bvs	390bcc <__bss_end__+0x3858d4>
    2bc4:	01000008 	tsteq	r0, r8
    2bc8:	000009a3 	andeq	r0, r0, r3, lsr #19
    2bcc:	74736426 	ldrbtvc	r6, [r3], #-1062	; 0xfffffbda
    2bd0:	1c380100 	ldfnes	f0, [r8], #-0
    2bd4:	0000086a 	andeq	r0, r0, sl, ror #16
    2bd8:	01006e26 	tsteq	r0, r6, lsr #28
    2bdc:	00332538 	eorseq	r2, r3, r8, lsr r5
    2be0:	70260000 	eorvc	r0, r6, r0
    2be4:	2e380100 	rsfcse	f0, f0, f0
    2be8:	0000086a 	andeq	r0, r0, sl, ror #16
    2bec:	000b2925 	andeq	r2, fp, r5, lsr #18
    2bf0:	37380100 	ldrcc	r0, [r8, -r0, lsl #2]!
    2bf4:	0000086a 	andeq	r0, r0, sl, ror #16
    2bf8:	6e656c27 	cdpvs	12, 6, cr6, cr5, cr7, {1}
    2bfc:	063a0100 	ldrteq	r0, [sl], -r0, lsl #2
    2c00:	00000033 	andeq	r0, r0, r3, lsr r0
    2c04:	01007327 	tsteq	r0, r7, lsr #6
    2c08:	086a083e 	stmdaeq	sl!, {r1, r2, r3, r4, r5, fp}^
    2c0c:	2a000000 	bcs	2c14 <__code_start__-0x53ec>
    2c10:	00646170 	rsbeq	r6, r4, r0, ror r1
    2c14:	6a0e2e01 	bvs	38e420 <__bss_end__+0x383128>
    2c18:	01000008 	tsteq	r0, r8
    2c1c:	000009e3 	andeq	r0, r0, r3, ror #19
    2c20:	01007026 	tsteq	r0, r6, lsr #32
    2c24:	086a182e 	stmdaeq	sl!, {r1, r2, r3, r5, fp, ip}^
    2c28:	f6250000 			; <UNDEFINED> instruction: 0xf6250000
    2c2c:	01000003 	tsteq	r0, r3
    2c30:	086a222e 	stmdaeq	sl!, {r1, r2, r3, r5, r9, sp}^
    2c34:	02250000 	eoreq	r0, r5, #0, 0
    2c38:	01000007 	tsteq	r0, r7
    2c3c:	00332c2e 	eorseq	r2, r3, lr, lsr #24
    2c40:	6c270000 	stcvs	0, cr0, [r7], #-0
    2c44:	01006e65 	tsteq	r0, r5, ror #28
    2c48:	0033062f 	eorseq	r0, r3, pc, lsr #12
    2c4c:	24000000 	strcs	r0, [r0], #-0
    2c50:	000006cf 	andeq	r0, r0, pc, asr #13
    2c54:	330c2701 	movwcc	r2, #50945	; 0xc701
    2c58:	01000000 	mrseq	r0, (UNDEF: 0)
    2c5c:	000009ff 	strdeq	r0, [r0], -pc	; <UNPREDICTABLE>
    2c60:	01006326 	tsteq	r0, r6, lsr #6
    2c64:	00331827 	eorseq	r1, r3, r7, lsr #16
    2c68:	2b000000 	blcs	2c70 <__code_start__-0x5390>
    2c6c:	00000719 	andeq	r0, r0, r9, lsl r7
    2c70:	ec061f01 	stc	15, cr1, [r6], {1}
    2c74:	60000093 	mulvs	r0, r3, r0
    2c78:	01000000 	mrseq	r0, (UNDEF: 0)
    2c7c:	000a8f9c 	muleq	sl, ip, pc	; <UNPREDICTABLE>
    2c80:	07110f00 	ldreq	r0, [r1, -r0, lsl #30]
    2c84:	1f010000 	svcne	0x00010000
    2c88:	00009e1b 	andeq	r9, r0, fp, lsl lr
    2c8c:	001bce00 	andseq	ip, fp, r0, lsl #28
    2c90:	001bca00 	andseq	ip, fp, r0, lsl #20
    2c94:	07580f00 	ldrbeq	r0, [r8, -r0, lsl #30]
    2c98:	1f010000 	svcne	0x00010000
    2c9c:	0000d130 	andeq	sp, r0, r0, lsr r1
    2ca0:	001bf300 	andseq	pc, fp, r0, lsl #6
    2ca4:	001bef00 	andseq	lr, fp, r0, lsl #30
    2ca8:	007f1200 	rsbseq	r1, pc, r0, lsl #4
    2cac:	0a9f0000 	beq	fe7c2cb4 <__bss_end__+0xfe7b79bc>
    2cb0:	03050000 	movweq	r0, #20480	; 0x5000
    2cb4:	0000ac74 	andeq	sl, r0, r4, ror ip
    2cb8:	00943017 	addseq	r3, r4, r7, lsl r0
    2cbc:	000c4600 	andeq	r4, ip, r0, lsl #12
    2cc0:	000a8500 	andeq	r8, sl, r0, lsl #10
    2cc4:	50011800 	andpl	r1, r1, r0, lsl #16
    2cc8:	a5dc0305 	ldrbge	r0, [ip, #773]	; 0x305
    2ccc:	01180000 	tsteq	r8, r0
    2cd0:	2c030551 	cfstr32cs	mvfx0, [r3], {81}	; 0x51
    2cd4:	180000ab 	stmdane	r0, {r0, r1, r3, r5, r7}
    2cd8:	03055201 	movweq	r5, #20993	; 0x5201
    2cdc:	0000ac74 	andeq	sl, r0, r4, ror ip
    2ce0:	02530118 	subseq	r0, r3, #6
    2ce4:	02182008 	andseq	r2, r8, #8, 0
    2ce8:	0305007d 	movweq	r0, #20605	; 0x507d
    2cec:	0000ab64 	andeq	sl, r0, r4, ror #22
    2cf0:	94341900 	ldrtls	r1, [r4], #-2304	; 0xfffff700
    2cf4:	0c760000 	ldcleq	0, cr0, [r6], #-0
    2cf8:	22000000 	andcs	r0, r0, #0, 0
    2cfc:	000000c0 	andeq	r0, r0, r0, asr #1
    2d00:	00000a9f 	muleq	r0, pc, sl	; <UNPREDICTABLE>
    2d04:	00002c23 	andeq	r2, r0, r3, lsr #24
    2d08:	09000e00 	stmdbeq	r0, {r9, sl, fp}
    2d0c:	00000a8f 	andeq	r0, r0, pc, lsl #21
    2d10:	0008952c 	andeq	r9, r8, ip, lsr #10
    2d14:	0090c400 	addseq	ip, r0, r0, lsl #8
    2d18:	00032800 	andeq	r2, r3, r0, lsl #16
    2d1c:	3a9c0100 	bcc	fe703124 <__bss_end__+0xfe6f7e2c>
    2d20:	1b00000c 	blne	2d58 <__code_start__-0x52a8>
    2d24:	000008a6 	andeq	r0, r0, r6, lsr #17
    2d28:	00001c2c 	andeq	r1, r0, ip, lsr #24
    2d2c:	00001c14 	andeq	r1, r0, r4, lsl ip
    2d30:	0008b21b 	andeq	fp, r8, fp, lsl r2
    2d34:	001cd600 	andseq	sp, ip, r0, lsl #12
    2d38:	001cce00 	andseq	ip, ip, r0, lsl #28
    2d3c:	08c81b00 	stmiaeq	r8, {r8, r9, fp, ip}^
    2d40:	1d2d0000 	stcne	0, cr0, [sp, #-0]
    2d44:	1d0d0000 	stcne	0, cr0, [sp, #-0]
    2d48:	d41b0000 	ldrle	r0, [fp], #-0
    2d4c:	03000008 	movweq	r0, #8
    2d50:	f500001e 			; <UNDEFINED> instruction: 0xf500001e
    2d54:	2d00001d 	stccs	0, cr0, [r0, #-116]	; 0xffffff8c
    2d58:	000008e0 	andeq	r0, r0, r0, ror #17
    2d5c:	1d009102 	stfned	f1, [r0, #-8]
    2d60:	000008ec 	andeq	r0, r0, ip, ror #17
    2d64:	7fa89103 	svcvc	0x00a89103
    2d68:	0008f81e 	andeq	pc, r8, lr, lsl r8	; <UNPREDICTABLE>
    2d6c:	001e9700 	andseq	r9, lr, r0, lsl #14
    2d70:	001e6300 	andseq	r6, lr, r0, lsl #6
    2d74:	09021e00 	stmdbeq	r2, {r9, sl, fp, ip}
    2d78:	1ffe0000 	svcne	0x00fe0000
    2d7c:	1fdc0000 	svcne	0x00dc0000
    2d80:	be2e0000 	cdplt	0, 2, cr0, cr14, cr0, {0}
    2d84:	80000008 	andhi	r0, r0, r8
    2d88:	0009a31a 	andeq	sl, r9, sl, lsl r3
    2d8c:	00916800 	addseq	r6, r1, r0, lsl #16
    2d90:	18000400 	stmdane	r0, {sl}
    2d94:	01000001 	tsteq	r0, r1
    2d98:	0b6d097c 	bleq	1b45390 <__bss_end__+0x1b3a098>
    2d9c:	ca1b0000 	bgt	6c2da4 <__bss_end__+0x6b7aac>
    2da0:	e6000009 	str	r0, [r0], -r9
    2da4:	dc000020 	stcle	0, cr0, [r0], {32}
    2da8:	1b000020 	blne	2e30 <__code_start__-0x51d0>
    2dac:	000009be 			; <UNDEFINED> instruction: 0x000009be
    2db0:	0000213a 	andeq	r2, r0, sl, lsr r1
    2db4:	0000212a 	andeq	r2, r0, sl, lsr #2
    2db8:	0009b41b 	andeq	fp, r9, fp, lsl r4
    2dbc:	0021ba00 	eoreq	fp, r1, r0, lsl #20
    2dc0:	0021a600 	eoreq	sl, r1, r0, lsl #12
    2dc4:	01181300 	tsteq	r8, r0, lsl #6
    2dc8:	d61e0000 	ldrle	r0, [lr], -r0
    2dcc:	4c000009 	stcmi	0, cr0, [r0], {9}
    2dd0:	3c000022 	stccc	0, cr0, [r0], {34}	; 0x22
    2dd4:	00000022 	andeq	r0, r0, r2, lsr #32
    2dd8:	094f1a00 	stmdbeq	pc, {r9, fp, ip}^	; <UNPREDICTABLE>
    2ddc:	92200000 	eorls	r0, r0, #0, 0
    2de0:	00020000 	andeq	r0, r2, r0
    2de4:	00000160 	andeq	r0, r0, r0, ror #2
    2de8:	d8097c01 	stmdale	r9, {r0, sl, fp, ip, sp, lr}
    2dec:	1b00000b 	blne	2e20 <__code_start__-0x51e0>
    2df0:	00000980 	andeq	r0, r0, r0, lsl #19
    2df4:	000022b8 			; <UNDEFINED> instruction: 0x000022b8
    2df8:	000022b0 			; <UNDEFINED> instruction: 0x000022b0
    2dfc:	0009761b 	andeq	r7, r9, fp, lsl r6
    2e00:	0022f700 	eoreq	pc, r2, r0, lsl #14
    2e04:	0022ef00 	eoreq	lr, r2, r0, lsl #30
    2e08:	096c1b00 	stmdbeq	ip!, {r8, r9, fp, ip}^
    2e0c:	23360000 	teqcs	r6, #0, 0
    2e10:	23320000 	teqcs	r2, #0, 0
    2e14:	601b0000 	andsvs	r0, fp, r0
    2e18:	66000009 	strvs	r0, [r0], -r9
    2e1c:	58000023 	stmdapl	r0, {r0, r1, r5}
    2e20:	13000023 	movwne	r0, #35	; 0x23
    2e24:	00000160 	andeq	r0, r0, r0, ror #2
    2e28:	00098c1e 	andeq	r8, r9, lr, lsl ip
    2e2c:	0023cb00 	eoreq	ip, r3, r0, lsl #22
    2e30:	0023c500 	eoreq	ip, r3, r0, lsl #10
    2e34:	09981e00 	ldmibeq	r8, {r9, sl, fp, ip}
    2e38:	23fd0000 	mvnscs	r0, #0, 0
    2e3c:	23f90000 	mvnscs	r0, #0, 0
    2e40:	00000000 	andeq	r0, r0, r0
    2e44:	00091b2f 	andeq	r1, r9, pc, lsr #22
    2e48:	0092d800 	addseq	sp, r2, r0, lsl #16
    2e4c:	00006000 	andeq	r6, r0, r0
    2e50:	000bf700 	andeq	pc, fp, r0, lsl #14
    2e54:	091c1e00 	ldmdbeq	ip, {r9, sl, fp, ip}
    2e58:	241f0000 	ldrcs	r0, [pc], #-0	; 2e60 <__code_start__-0x51a0>
    2e5c:	241b0000 	ldrcs	r0, [fp], #-0
    2e60:	17000000 	strne	r0, [r0, -r0]
    2e64:	000093ac 	andeq	r9, r0, ip, lsr #7
    2e68:	00000c46 	andeq	r0, r0, r6, asr #24
    2e6c:	00000c30 	andeq	r0, r0, r0, lsr ip
    2e70:	05500118 	ldrbeq	r0, [r0, #-280]	; 0xfffffee8
    2e74:	00a5dc03 	adceq	sp, r5, r3, lsl #24
    2e78:	51011800 	tstpl	r1, r0, lsl #16
    2e7c:	ab2c0305 	blge	b03a98 <__bss_end__+0xaf87a0>
    2e80:	01180000 	tsteq	r8, r0
    2e84:	6c030552 	cfstr32vs	mvfx0, [r3], {82}	; 0x52
    2e88:	180000ac 	stmdane	r0, {r2, r3, r5, r7}
    2e8c:	08025301 	stmdaeq	r2, {r0, r8, r9, ip, lr}
    2e90:	7d021879 	stcvc	8, cr1, [r2, #-484]	; 0xfffffe1c
    2e94:	dc030500 	cfstr32le	mvfx0, [r3], {-0}
    2e98:	000000a9 	andeq	r0, r0, r9, lsr #1
    2e9c:	0093b019 	addseq	fp, r3, r9, lsl r0
    2ea0:	000c7600 	andeq	r7, ip, r0, lsl #12
    2ea4:	81300000 	teqhi	r0, r0
    2ea8:	81000007 	tsthi	r0, r7
    2eac:	03000007 	movweq	r0, #7
    2eb0:	7e3005f0 	mrcvc	5, 1, r0, cr0, cr0, {7}
    2eb4:	7e000006 	cdpvc	0, 0, cr0, cr0, cr6, {0}
    2eb8:	03000006 	movweq	r0, #6
    2ebc:	32300628 	eorscc	r0, r0, #40, 12	; 0x2800000
    2ec0:	32000007 	andcc	r0, r0, #7, 0
    2ec4:	03000007 	movweq	r0, #7
    2ec8:	683007f3 	ldmdavs	r0!, {r0, r1, r4, r5, r6, r7, r8, r9, sl}
    2ecc:	68000007 	stmdavs	r0, {r0, r1, r2}
    2ed0:	03000007 	movweq	r0, #7
    2ed4:	393005ef 	ldmdbcc	r0!, {r0, r1, r2, r3, r5, r6, r7, r8, sl}
    2ed8:	39000007 	stmdbcc	r0, {r0, r1, r2}
    2edc:	03000007 	movweq	r0, #7
    2ee0:	8c3007f2 	ldchi	7, cr0, [r0], #-968	; 0xfffffc38
    2ee4:	8c000000 	stchi	0, cr0, [r0], {-0}
    2ee8:	03000000 	movweq	r0, #0
    2eec:	2f00066e 	svccs	0x0000066e
    2ef0:	04000001 	streq	r0, [r0], #-1
    2ef4:	000fbb00 	andeq	fp, pc, r0, lsl #22
    2ef8:	3e010400 	cfcpyscc	mvf0, mvf1
    2efc:	0c000005 	stceq	0, cr0, [r0], {5}
    2f00:	0000079d 	muleq	r0, sp, r7
    2f04:	0000061c 	andeq	r0, r0, ip, lsl r6
    2f08:	00009a78 	andeq	r9, r0, r8, ror sl
    2f0c:	0000002c 	andeq	r0, r0, ip, lsr #32
    2f10:	00001ab2 			; <UNDEFINED> instruction: 0x00001ab2
    2f14:	69050402 	stmdbvs	r5, {r1, sl}
    2f18:	0300746e 	movweq	r7, #1134	; 0x46e
    2f1c:	01a70704 			; <UNDEFINED> instruction: 0x01a70704
    2f20:	01030000 	mrseq	r0, (UNDEF: 3)
    2f24:	0000a806 	andeq	sl, r0, r6, lsl #16
    2f28:	05020300 	streq	r0, [r2, #-768]	; 0xfffffd00
    2f2c:	00000000 	andeq	r0, r0, r0
    2f30:	69050403 	stmdbvs	r5, {r0, r1, sl}
    2f34:	03000000 	movweq	r0, #0
    2f38:	00640508 	rsbeq	r0, r4, r8, lsl #10
    2f3c:	01030000 	mrseq	r0, (UNDEF: 3)
    2f40:	0000a608 	andeq	sl, r0, r8, lsl #12
    2f44:	07020300 	streq	r0, [r2, -r0, lsl #6]
    2f48:	000001ee 	andeq	r0, r0, lr, ror #3
    2f4c:	a2070403 	andge	r0, r7, #50331648	; 0x3000000
    2f50:	03000001 	movweq	r0, #1
    2f54:	019d0708 	orrseq	r0, sp, r8, lsl #14
    2f58:	25040000 	strcs	r0, [r4, #-0]
    2f5c:	7a000000 	bvc	2f64 <__code_start__-0x509c>
    2f60:	05000000 	streq	r0, [r0, #-0]
    2f64:	00000025 	andeq	r0, r0, r5, lsr #32
    2f68:	00400600 	subeq	r0, r0, r0, lsl #12
    2f6c:	1c020000 	stcne	0, cr0, [r2], {-0}
    2f70:	0000860e 	andeq	r8, r0, lr, lsl #12
    2f74:	6b040700 	blvs	104b7c <__bss_end__+0xf9884>
    2f78:	04000000 	streq	r0, [r0], #-0
    2f7c:	00000025 	andeq	r0, r0, r5, lsr #32
    2f80:	0000009b 	muleq	r0, fp, r0
    2f84:	00009b05 	andeq	r9, r0, r5, lsl #22
    2f88:	04070000 	streq	r0, [r7], #-0
    2f8c:	000000a8 	andeq	r0, r0, r8, lsr #1
    2f90:	af080103 	svcge	0x00080103
    2f94:	08000000 	stmdaeq	r0, {}	; <UNPREDICTABLE>
    2f98:	000000a1 	andeq	r0, r0, r1, lsr #1
    2f9c:	0006bc06 	andeq	fp, r6, r6, lsl #24
    2fa0:	0e210200 	cdpeq	2, 2, cr0, cr1, cr0, {0}
    2fa4:	000000b9 	strheq	r0, [r0], -r9
    2fa8:	008c0407 	addeq	r0, ip, r7, lsl #8
    2fac:	8c090000 	stchi	0, cr0, [r9], {-0}
    2fb0:	01000000 	mrseq	r0, (UNDEF: 0)
    2fb4:	9a780604 	bls	1e047cc <__bss_end__+0x1df94d4>
    2fb8:	002c0000 	eoreq	r0, ip, r0
    2fbc:	9c010000 	stcls	0, cr0, [r1], {-0}
    2fc0:	0000010e 	andeq	r0, r0, lr, lsl #2
    2fc4:	009a8c0a 	addseq	r8, sl, sl, lsl #24
    2fc8:	0000e800 	andeq	lr, r0, r0, lsl #16
    2fcc:	50010b00 	andpl	r0, r1, r0, lsl #22
    2fd0:	ac900305 	ldcge	3, cr0, [r0], {5}
    2fd4:	0c000000 	stceq	0, cr0, [r0], {-0}
    2fd8:	00009a90 	muleq	r0, r0, sl
    2fdc:	0000010e 	andeq	r0, r0, lr, lsl #2
    2fe0:	009a980d 	addseq	r9, sl, sp, lsl #16
    2fe4:	00011a00 	andeq	r1, r1, r0, lsl #20
    2fe8:	00010400 	andeq	r0, r1, r0, lsl #8
    2fec:	50010b00 	andpl	r0, r1, r0, lsl #22
    2ff0:	0c003a01 			; <UNDEFINED> instruction: 0x0c003a01
    2ff4:	00009a9c 	muleq	r0, ip, sl
    2ff8:	00000126 	andeq	r0, r0, r6, lsr #2
    2ffc:	07b80e00 	ldreq	r0, [r8, r0, lsl #28]!
    3000:	07b80000 	ldreq	r0, [r8, r0]!
    3004:	4d020000 	stcmi	0, cr0, [r2, #-0]
    3008:	07940e06 	ldreq	r0, [r4, r6, lsl #28]
    300c:	07940000 	ldreq	r0, [r4, r0]
    3010:	58020000 	stmdapl	r2, {}	; <UNPREDICTABLE>
    3014:	07890e06 	streq	r0, [r9, r6, lsl #28]
    3018:	07890000 	streq	r0, [r9, r0]
    301c:	6b020000 	blvs	83024 <__bss_end__+0x77d2c>
    3020:	02b10006 	adcseq	r0, r1, #6, 0
    3024:	00040000 	andeq	r0, r4, r0
    3028:	0000107b 	andeq	r1, r0, fp, ror r0
    302c:	053e0104 	ldreq	r0, [lr, #-260]!	; 0xfffffefc
    3030:	ee0c0000 	cdp	0, 0, cr0, cr12, cr0, {0}
    3034:	1c000007 	stcne	0, cr0, [r0], {7}
    3038:	a4000006 	strge	r0, [r0], #-6
    303c:	2800009a 	stmdacs	r0, {r1, r3, r4, r7}
    3040:	3d000001 	stccc	0, cr0, [r0, #-4]
    3044:	0200001b 	andeq	r0, r0, #27, 0
    3048:	6e690504 	cdpvs	5, 6, cr0, cr9, cr4, {0}
    304c:	04030074 	streq	r0, [r3], #-116	; 0xffffff8c
    3050:	0001a707 	andeq	sl, r1, r7, lsl #14
    3054:	06010300 	streq	r0, [r1], -r0, lsl #6
    3058:	000000a8 	andeq	r0, r0, r8, lsr #1
    305c:	00050203 	andeq	r0, r5, r3, lsl #4
    3060:	03000000 	movweq	r0, #0
    3064:	00690504 	rsbeq	r0, r9, r4, lsl #10
    3068:	08030000 	stmdaeq	r3, {}	; <UNPREDICTABLE>
    306c:	00006405 	andeq	r6, r0, r5, lsl #8
    3070:	08010300 	stmdaeq	r1, {r8, r9}
    3074:	000000a6 	andeq	r0, r0, r6, lsr #1
    3078:	ee070203 	cdp	2, 0, cr0, cr7, cr3, {0}
    307c:	03000001 	movweq	r0, #1
    3080:	01a20704 			; <UNDEFINED> instruction: 0x01a20704
    3084:	08030000 	stmdaeq	r3, {}	; <UNPREDICTABLE>
    3088:	00019d07 	andeq	r9, r1, r7, lsl #26
    308c:	00250400 	eoreq	r0, r5, r0, lsl #8
    3090:	007a0000 	rsbseq	r0, sl, r0
    3094:	25050000 	strcs	r0, [r5, #-0]
    3098:	00000000 	andeq	r0, r0, r0
    309c:	00004006 	andeq	r4, r0, r6
    30a0:	0e1c0200 	cdpeq	2, 1, cr0, cr12, cr0, {0}
    30a4:	00000086 	andeq	r0, r0, r6, lsl #1
    30a8:	006b0407 	rsbeq	r0, fp, r7, lsl #8
    30ac:	25040000 	strcs	r0, [r4, #-0]
    30b0:	9b000000 	blls	30b8 <__code_start__-0x4f48>
    30b4:	05000000 	streq	r0, [r0, #-0]
    30b8:	0000009b 	muleq	r0, fp, r0
    30bc:	a8040700 	stmdage	r4, {r8, r9, sl}
    30c0:	03000000 	movweq	r0, #0
    30c4:	00af0801 	adceq	r0, pc, r1, lsl #16
    30c8:	a1080000 	mrsge	r0, (UNDEF: 8)
    30cc:	06000000 	streq	r0, [r0], -r0
    30d0:	000006bc 			; <UNDEFINED> instruction: 0x000006bc
    30d4:	b90e2102 	stmdblt	lr, {r1, r8, sp}
    30d8:	07000000 	streq	r0, [r0, -r0]
    30dc:	00008c04 	andeq	r8, r0, r4, lsl #24
    30e0:	07c60900 	strbeq	r0, [r6, r0, lsl #18]
    30e4:	11010000 	mrsne	r0, (UNDEF: 1)
    30e8:	009aa406 	addseq	sl, sl, r6, lsl #8
    30ec:	00012800 	andeq	r2, r1, r0, lsl #16
    30f0:	269c0100 	ldrcs	r0, [ip], r0, lsl #2
    30f4:	06000002 	streq	r0, [r0], -r2
    30f8:	00000432 	andeq	r0, r0, r2, lsr r4
    30fc:	25101201 	ldrcs	r1, [r0, #-513]	; 0xfffffdff
    3100:	06000000 	streq	r0, [r0], -r0
    3104:	000004cc 	andeq	r0, r0, ip, asr #9
    3108:	251f1201 	ldrcs	r1, [pc, #-513]	; 2f0f <__code_start__-0x50f1>
    310c:	0a000000 	beq	3114 <__code_start__-0x4eec>
    3110:	000001cb 	andeq	r0, r0, fp, asr #3
    3114:	0b071301 	bleq	1c7d20 <__bss_end__+0x1bca28>
    3118:	00737362 	rsbseq	r7, r3, r2, ror #6
    311c:	260a1701 	strcs	r1, [sl], -r1, lsl #14
    3120:	57000002 	strpl	r0, [r0, -r2]
    3124:	3f000024 	svccc	0x00000024
    3128:	0c000024 	stceq	0, cr0, [r0], {36}	; 0x24
    312c:	000007ce 	andeq	r0, r0, lr, asr #15
    3130:	260a1801 	strcs	r1, [sl], -r1, lsl #16
    3134:	0d000002 	stceq	0, cr0, [r0, #-8]
    3138:	0000080e 	andeq	r0, r0, lr, lsl #16
    313c:	2c0e2501 	cfstr32cs	mvfx2, [lr], {1}
    3140:	f1000000 	cps	#0
    3144:	ef000024 	svc	0x00000024
    3148:	0e000024 	cdpeq	0, 0, cr0, cr0, cr4, {1}
    314c:	00009b7c 	andeq	r9, r0, ip, ror fp
    3150:	00000008 	andeq	r0, r0, r8
    3154:	0000014a 	andeq	r0, r0, sl, asr #2
    3158:	006e690b 	rsbeq	r6, lr, fp, lsl #18
    315c:	2c052101 	stfcss	f2, [r5], {1}
    3160:	06000000 	streq	r0, [r0], -r0
    3164:	04000025 	streq	r0, [r0], #-37	; 0xffffffdb
    3168:	00000025 	andeq	r0, r0, r5, lsr #32
    316c:	00022c0f 	andeq	r2, r2, pc, lsl #24
    3170:	009b8400 	addseq	r8, fp, r0, lsl #8
    3174:	9b840200 	blls	fe10397c <__bss_end__+0xfe0f8684>
    3178:	000c0000 	andeq	r0, ip, r0
    317c:	23010000 	movwcs	r0, #4096	; 0x1000
    3180:	00019905 	andeq	r9, r1, r5, lsl #18
    3184:	024f1000 	subeq	r1, pc, #0, 0
    3188:	251c0000 	ldrcs	r0, [ip, #-0]
    318c:	251a0000 	ldrcs	r0, [sl, #-0]
    3190:	5b100000 	blpl	403198 <__bss_end__+0x3f7ea0>
    3194:	32000002 	andcc	r0, r0, #2, 0
    3198:	30000025 	andcc	r0, r0, r5, lsr #32
    319c:	11000025 	tstne	r0, r5, lsr #32
    31a0:	00000267 	andeq	r0, r0, r7, ror #4
    31a4:	00009b84 	andeq	r9, r0, r4, lsl #23
    31a8:	00000004 	andeq	r0, r0, r4
    31ac:	00026810 	andeq	r6, r2, r0, lsl r8
    31b0:	00254700 	eoreq	r4, r5, r0, lsl #14
    31b4:	00254500 	eoreq	r4, r5, r0, lsl #10
    31b8:	12000000 	andne	r0, r0, #0, 0
    31bc:	0000022c 	andeq	r0, r0, ip, lsr #4
    31c0:	00009b94 	muleq	r0, r4, fp
    31c4:	0002f001 	andeq	pc, r2, r1
    31c8:	15250100 	strne	r0, [r5, #-256]!	; 0xffffff00
    31cc:	000001ea 	andeq	r0, r0, sl, ror #3
    31d0:	0002f013 	andeq	pc, r2, r3, lsl r0	; <UNPREDICTABLE>
    31d4:	024f1000 	subeq	r1, pc, #0, 0
    31d8:	255e0000 	ldrbcs	r0, [lr, #-0]
    31dc:	255a0000 	ldrbcs	r0, [sl, #-0]
    31e0:	5b100000 	blpl	4031e8 <__bss_end__+0x3f7ef0>
    31e4:	7f000002 	svcvc	0x00000002
    31e8:	7d000025 	stcvc	0, cr0, [r0, #-148]	; 0xffffff6c
    31ec:	11000025 	tstne	r0, r5, lsr #32
    31f0:	00000267 	andeq	r0, r0, r7, ror #4
    31f4:	00009b94 	muleq	r0, r4, fp
    31f8:	00000004 	andeq	r0, r0, r4
    31fc:	00026810 	andeq	r6, r2, r0, lsl r8
    3200:	00259400 	eoreq	r9, r5, r0, lsl #8
    3204:	00259200 	eoreq	r9, r5, r0, lsl #4
    3208:	00000000 	andeq	r0, r0, r0
    320c:	009aac14 	addseq	sl, sl, r4, lsl ip
    3210:	00027600 	andeq	r7, r2, r0, lsl #12
    3214:	9b7c1400 	blls	1f0821c <__bss_end__+0x1efcf24>
    3218:	02830000 	addeq	r0, r3, #0, 0
    321c:	94140000 	ldrls	r0, [r4], #-0
    3220:	8f00009b 	svchi	0x0000009b
    3224:	15000002 	strne	r0, [r0, #-2]
    3228:	00009bb0 			; <UNDEFINED> instruction: 0x00009bb0
    322c:	0000029c 	muleq	r0, ip, r2
    3230:	0000021c 	andeq	r0, r0, ip, lsl r2
    3234:	05500116 	ldrbeq	r0, [r0, #-278]	; 0xfffffeea
    3238:	00ac9c03 	adceq	r9, ip, r3, lsl #24
    323c:	b4140000 	ldrlt	r0, [r4], #-0
    3240:	a800009b 	stmdage	r0, {r0, r1, r3, r4, r7}
    3244:	00000002 	andeq	r0, r0, r2
    3248:	00250407 	eoreq	r0, r5, r7, lsl #8
    324c:	08170000 	ldmdaeq	r7, {}	; <UNPREDICTABLE>
    3250:	01000008 	tsteq	r0, r8
    3254:	002c1104 	eoreq	r1, ip, r4, lsl #2
    3258:	76010000 	strvc	r0, [r1], -r0
    325c:	18000002 	stmdane	r0, {r1}
    3260:	00000813 	andeq	r0, r0, r3, lsl r8
    3264:	2c150501 	cfldr32cs	mvfx0, [r5], {1}
    3268:	05000000 	streq	r0, [r0, #-0]
    326c:	00b2ec03 	adcseq	lr, r2, r3, lsl #24
    3270:	080e0c00 	stmdaeq	lr, {sl, fp}
    3274:	07010000 	streq	r0, [r1, -r0]
    3278:	00002c0e 	andeq	r2, r0, lr, lsl #24
    327c:	75631900 	strbvc	r1, [r3, #-2304]!	; 0xfffff700
    3280:	09010072 	stmdbeq	r1, {r1, r4, r5, r6}
    3284:	00002c0e 	andeq	r2, r0, lr, lsl #24
    3288:	030c1a00 	movweq	r1, #51712	; 0xca00
    328c:	01000008 	tsteq	r0, r8
    3290:	002c1409 	eoreq	r1, ip, r9, lsl #8
    3294:	00000000 	andeq	r0, r0, r0
    3298:	0007e01b 	andeq	lr, r7, fp, lsl r0
    329c:	0007e000 	andeq	lr, r7, r0
    32a0:	01360200 	teqeq	r6, r0, lsl #4
    32a4:	07d61c06 	ldrbeq	r1, [r6, r6, lsl #24]
    32a8:	07d60000 	ldrbeq	r0, [r6, r0]
    32ac:	3b020000 	blcc	832b4 <__bss_end__+0x77fbc>
    32b0:	01cb1b06 	biceq	r1, fp, r6, lsl #22
    32b4:	01cb0000 	biceq	r0, fp, r0
    32b8:	0a020000 	beq	832c0 <__bss_end__+0x77fc8>
    32bc:	7e1c0601 	cfmsub32vc	mvax0, mvfx0, mvfx12, mvfx1
    32c0:	7e000006 	cdpvc	0, 0, cr0, cr0, cr6, {0}
    32c4:	02000006 	andeq	r0, r0, #6, 0
    32c8:	8c1c0628 	ldchi	6, cr0, [ip], {40}	; 0x28
    32cc:	8c000000 	stchi	0, cr0, [r0], {-0}
    32d0:	02000000 	andeq	r0, r0, #0, 0
    32d4:	ce00066e 	cfmadd32gt	mvax3, mvfx0, mvfx0, mvfx14
    32d8:	04000000 	streq	r0, [r0], #-0
    32dc:	00121900 	andseq	r1, r2, r0, lsl #18
    32e0:	3e010400 	cfcpyscc	mvf0, mvf1
    32e4:	0c000005 	stceq	0, cr0, [r0], {5}
    32e8:	00000818 	andeq	r0, r0, r8, lsl r8
    32ec:	0000061c 	andeq	r0, r0, ip, lsl r6
    32f0:	00009bcc 	andeq	r9, r0, ip, asr #23
    32f4:	00000004 	andeq	r0, r0, r4
    32f8:	00001cb7 			; <UNDEFINED> instruction: 0x00001cb7
    32fc:	69050402 	stmdbvs	r5, {r1, sl}
    3300:	0300746e 	movweq	r7, #1134	; 0x46e
    3304:	01a70704 			; <UNDEFINED> instruction: 0x01a70704
    3308:	01030000 	mrseq	r0, (UNDEF: 3)
    330c:	0000a806 	andeq	sl, r0, r6, lsl #16
    3310:	05020300 	streq	r0, [r2, #-768]	; 0xfffffd00
    3314:	00000000 	andeq	r0, r0, r0
    3318:	69050403 	stmdbvs	r5, {r0, r1, sl}
    331c:	03000000 	movweq	r0, #0
    3320:	00640508 	rsbeq	r0, r4, r8, lsl #10
    3324:	01030000 	mrseq	r0, (UNDEF: 3)
    3328:	0000a608 	andeq	sl, r0, r8, lsl #12
    332c:	07020300 	streq	r0, [r2, -r0, lsl #6]
    3330:	000001ee 	andeq	r0, r0, lr, ror #3
    3334:	a2070403 	andge	r0, r7, #50331648	; 0x3000000
    3338:	03000001 	movweq	r0, #1
    333c:	019d0708 	orrseq	r0, sp, r8, lsl #14
    3340:	25040000 	strcs	r0, [r4, #-0]
    3344:	7a000000 	bvc	334c <__code_start__-0x4cb4>
    3348:	05000000 	streq	r0, [r0, #-0]
    334c:	00000025 	andeq	r0, r0, r5, lsr #32
    3350:	00400600 	subeq	r0, r0, r0, lsl #12
    3354:	1c020000 	stcne	0, cr0, [r2], {-0}
    3358:	0000860e 	andeq	r8, r0, lr, lsl #12
    335c:	6b040700 	blvs	104f64 <__bss_end__+0xf9c6c>
    3360:	04000000 	streq	r0, [r0], #-0
    3364:	00000025 	andeq	r0, r0, r5, lsr #32
    3368:	0000009b 	muleq	r0, fp, r0
    336c:	00009b05 	andeq	r9, r0, r5, lsl #22
    3370:	04070000 	streq	r0, [r7], #-0
    3374:	000000a8 	andeq	r0, r0, r8, lsr #1
    3378:	af080103 	svcge	0x00080103
    337c:	08000000 	stmdaeq	r0, {}	; <UNPREDICTABLE>
    3380:	000000a1 	andeq	r0, r0, r1, lsr #1
    3384:	0006bc06 	andeq	fp, r6, r6, lsl #24
    3388:	0e210200 	cdpeq	2, 2, cr0, cr1, cr0, {0}
    338c:	000000b9 	strheq	r0, [r0], -r9
    3390:	008c0407 	addeq	r0, ip, r7, lsl #8
    3394:	e0090000 	and	r0, r9, r0
    3398:	01000007 	tsteq	r0, r7
    339c:	9bcc0604 	blls	ff304bb4 <__bss_end__+0xff2f98bc>
    33a0:	00040000 	andeq	r0, r4, r0
    33a4:	9c010000 	stcls	0, cr0, [r1], {-0}
    33a8:	00027d00 	andeq	r7, r2, r0, lsl #26
    33ac:	92000400 	andls	r0, r0, #0, 8
    33b0:	04000012 	streq	r0, [r0], #-18	; 0xffffffee
    33b4:	00053e01 	andeq	r3, r5, r1, lsl #28
    33b8:	085a0c00 	ldmdaeq	sl, {sl, fp}^
    33bc:	061c0000 	ldreq	r0, [ip], -r0
    33c0:	03200000 	nopeq	{0}	; <UNPREDICTABLE>
    33c4:	00000000 	andeq	r0, r0, r0
    33c8:	1d380000 	ldcne	0, cr0, [r8, #-0]
    33cc:	04020000 	streq	r0, [r2], #-0
    33d0:	746e6905 	strbtvc	r6, [lr], #-2309	; 0xfffff6fb
    33d4:	00250300 	eoreq	r0, r5, r0, lsl #6
    33d8:	04040000 	streq	r0, [r4], #-0
    33dc:	0001a707 	andeq	sl, r1, r7, lsl #14
    33e0:	06010400 	streq	r0, [r1], -r0, lsl #8
    33e4:	000000a8 	andeq	r0, r0, r8, lsr #1
    33e8:	00050204 	andeq	r0, r5, r4, lsl #4
    33ec:	04000000 	streq	r0, [r0], #-0
    33f0:	00690504 	rsbeq	r0, r9, r4, lsl #10
    33f4:	08040000 	stmdaeq	r4, {}	; <UNPREDICTABLE>
    33f8:	00006405 	andeq	r6, r0, r5, lsl #8
    33fc:	08010400 	stmdaeq	r1, {sl}
    3400:	000000a6 	andeq	r0, r0, r6, lsr #1
    3404:	ee070204 	cdp	2, 0, cr0, cr7, cr4, {0}
    3408:	04000001 	streq	r0, [r0], #-1
    340c:	01a20704 			; <UNDEFINED> instruction: 0x01a20704
    3410:	08040000 	stmdaeq	r4, {}	; <UNPREDICTABLE>
    3414:	00019d07 	andeq	r9, r1, r7, lsl #26
    3418:	00250500 	eoreq	r0, r5, r0, lsl #10
    341c:	007f0000 	rsbseq	r0, pc, r0
    3420:	25060000 	strcs	r0, [r6, #-0]
    3424:	00000000 	andeq	r0, r0, r0
    3428:	00004007 	andeq	r4, r0, r7
    342c:	0e1c0200 	cdpeq	2, 1, cr0, cr12, cr0, {0}
    3430:	0000008b 	andeq	r0, r0, fp, lsl #1
    3434:	00700408 	rsbseq	r0, r0, r8, lsl #8
    3438:	25050000 	strcs	r0, [r5, #-0]
    343c:	a0000000 	andge	r0, r0, r0
    3440:	06000000 	streq	r0, [r0], -r0
    3444:	000000a0 	andeq	r0, r0, r0, lsr #1
    3448:	ad040800 	stcge	8, cr0, [r4, #-0]
    344c:	04000000 	streq	r0, [r0], #-0
    3450:	00af0801 	adceq	r0, pc, r1, lsl #16
    3454:	a6030000 	strge	r0, [r3], -r0
    3458:	07000000 	streq	r0, [r0, -r0]
    345c:	000006bc 			; <UNDEFINED> instruction: 0x000006bc
    3460:	be0e2102 	adflte	f2, f6, f2
    3464:	08000000 	stmdaeq	r0, {}	; <UNPREDICTABLE>
    3468:	00009104 	andeq	r9, r0, r4, lsl #2
    346c:	087e0900 	ldmdaeq	lr!, {r8, fp}^
    3470:	0d010000 	stceq	0, cr0, [r1, #-0]
    3474:	00003111 	andeq	r3, r0, r1, lsl r1
    3478:	07890a00 	streq	r0, [r9, r0, lsl #20]
    347c:	1f010000 	svcne	0x00010000
    3480:	009bfc06 	addseq	pc, fp, r6, lsl #24
    3484:	00006000 	andeq	r6, r0, r0
    3488:	d59c0100 	ldrle	r0, [ip, #256]	; 0x100
    348c:	0b000001 	bleq	3498 <__code_start__-0x4b68>
    3490:	000008a2 	andeq	r0, r0, r2, lsr #17
    3494:	2c0f2c01 	stccs	12, cr2, [pc], {1}
    3498:	1c000000 	stcne	0, cr0, [r0], {-0}
    349c:	0b201000 	bleq	8074a4 <__bss_end__+0x7fc1ac>
    34a0:	00000843 	andeq	r0, r0, r3, asr #16
    34a4:	2c0f2d01 	stccs	13, cr2, [pc], {1}
    34a8:	24000000 	strcs	r0, [r0], #-0
    34ac:	0b201000 	bleq	8074b4 <__bss_end__+0x7fc1bc>
    34b0:	0000086f 	andeq	r0, r0, pc, ror #16
    34b4:	2c0f2e01 	stccs	14, cr2, [pc], {1}
    34b8:	00000000 	andeq	r0, r0, r0
    34bc:	0c5a0000 	mraeq	r0, sl, acc0
    34c0:	00000889 	andeq	r0, r0, r9, lsl #17
    34c4:	2c0f2f01 	stccs	15, cr2, [pc], {1}
    34c8:	20000000 	andcs	r0, r0, r0
    34cc:	0001ef0d 	andeq	lr, r1, sp, lsl #30
    34d0:	009bfc00 	addseq	pc, fp, r0, lsl #24
    34d4:	03080200 	movweq	r0, #33280	; 0x8200
    34d8:	20010000 	andcs	r0, r1, r0
    34dc:	00014c08 	andeq	r4, r1, r8, lsl #24
    34e0:	03080e00 	movweq	r0, #36352	; 0x8e00
    34e4:	000f0000 	andeq	r0, pc, r0
    34e8:	ab000002 	blge	34f8 <__code_start__-0x4b08>
    34ec:	a7000025 	strge	r0, [r0, -r5, lsr #32]
    34f0:	00000025 	andeq	r0, r0, r5, lsr #32
    34f4:	01d51000 	bicseq	r1, r5, r0
    34f8:	9c100000 	ldcls	0, cr0, [r0], {-0}
    34fc:	10010000 	andne	r0, r1, r0
    3500:	1000009c 	mulne	r0, ip, r0
    3504:	01000000 	mrseq	r0, (UNDEF: 0)
    3508:	01730921 	cmneq	r3, r1, lsr #18
    350c:	e20f0000 	and	r0, pc, #0, 0
    3510:	d2000001 	andle	r0, r0, #1, 0
    3514:	ca000025 	bgt	35b0 <__code_start__-0x4a50>
    3518:	00000025 	andeq	r0, r0, r5, lsr #32
    351c:	009c2411 	addseq	r2, ip, r1, lsl r4
    3520:	00024f00 	andeq	r4, r2, r0, lsl #30
    3524:	9c281100 	stflss	f1, [r8], #-0
    3528:	025c0000 	subseq	r0, ip, #0, 0
    352c:	30120000 	andscc	r0, r2, r0
    3530:	6800009c 	stmdavs	r0, {r2, r3, r4, r7}
    3534:	98000002 	stmdals	r0, {r1}
    3538:	13000001 	movwne	r0, #1
    353c:	3a015001 	bcc	57548 <__bss_end__+0x4c250>
    3540:	9c3c1200 	lfmls	f1, 4, [ip], #-0
    3544:	02740000 	rsbseq	r0, r4, #0, 0
    3548:	01b80000 			; <UNDEFINED> instruction: 0x01b80000
    354c:	01130000 	tsteq	r3, r0
    3550:	240c0550 	strcs	r0, [ip], #-1360	; 0xfffffab0
    3554:	13201000 	nopne	{0}	; <UNPREDICTABLE>
    3558:	0c055101 	stfeqs	f5, [r5], {1}
    355c:	5a000001 	bpl	3568 <__code_start__-0x4a98>
    3560:	9c481400 	cfstrdls	mvd1, [r8], {-0}
    3564:	02740000 	rsbseq	r0, r4, #0, 0
    3568:	01130000 	tsteq	r3, r0
    356c:	1c0c0550 	cfstr32ne	mvfx0, [ip], {80}	; 0x50
    3570:	13201000 	nopne	{0}	; <UNPREDICTABLE>
    3574:	0c055101 	stfeqs	f5, [r5], {1}
    3578:	5a000020 	bpl	3600 <__code_start__-0x4a00>
    357c:	4b150000 	blmi	543584 <__bss_end__+0x53828c>
    3580:	01000008 	tsteq	r0, r8
    3584:	ef010617 	svc	0x00010617
    3588:	09000001 	stmdbeq	r0, {r0}
    358c:	000008aa 	andeq	r0, r0, sl, lsr #17
    3590:	310e1801 	tstcc	lr, r1, lsl #16
    3594:	00000000 	andeq	r0, r0, r0
    3598:	00087b16 	andeq	r7, r8, r6, lsl fp
    359c:	050e0100 	streq	r0, [lr, #-256]	; 0xffffff00
    35a0:	00000025 	andeq	r0, r0, r5, lsr #32
    35a4:	00020d01 	andeq	r0, r2, r1, lsl #26
    35a8:	08aa0900 	stmiaeq	sl!, {r8, fp}
    35ac:	0f010000 	svceq	0x00010000
    35b0:	0000310e 	andeq	r3, r0, lr, lsl #2
    35b4:	ef170000 	svc	0x00170000
    35b8:	d0000001 	andle	r0, r0, r1
    35bc:	1800009b 	stmdane	r0, {r0, r1, r3, r4, r7}
    35c0:	01000000 	mrseq	r0, (UNDEF: 0)
    35c4:	00022e9c 	muleq	r2, ip, lr
    35c8:	02000f00 	andeq	r0, r0, #0, 30
    35cc:	260f0000 	strcs	r0, [pc], -r0
    35d0:	260b0000 	strcs	r0, [fp], -r0
    35d4:	17000000 	strne	r0, [r0, -r0]
    35d8:	000001d5 	ldrdeq	r0, [r0], -r5
    35dc:	00009be8 	andeq	r9, r0, r8, ror #23
    35e0:	00000014 	andeq	r0, r0, r4, lsl r0
    35e4:	024f9c01 	subeq	r9, pc, #256	; 0x100
    35e8:	e20f0000 	and	r0, pc, #0, 0
    35ec:	36000001 	strcc	r0, [r0], -r1
    35f0:	2e000026 	cdpcs	0, 0, cr0, cr0, cr6, {1}
    35f4:	00000026 	andeq	r0, r0, r6, lsr #32
    35f8:	00083418 	andeq	r3, r8, r8, lsl r4
    35fc:	00083400 	andeq	r3, r8, r0, lsl #8
    3600:	013b0200 	teqeq	fp, r0, lsl #4
    3604:	07b81906 	ldreq	r1, [r8, r6, lsl #18]!
    3608:	07b80000 	ldreq	r0, [r8, r0]!
    360c:	4d020000 	stcmi	0, cr0, [r2, #-0]
    3610:	07941906 	ldreq	r1, [r4, r6, lsl #18]
    3614:	07940000 	ldreq	r0, [r4, r0]
    3618:	58020000 	stmdapl	r2, {}	; <UNPREDICTABLE>
    361c:	00591906 	subseq	r1, r9, r6, lsl #18
    3620:	00590000 	subseq	r0, r9, r0
    3624:	b2020000 	andlt	r0, r2, #0, 0
    3628:	053f0006 	ldreq	r0, [pc, #-6]!	; 362a <__code_start__-0x49d6>
    362c:	00040000 	andeq	r0, r4, r0
    3630:	00001415 	andeq	r1, r0, r5, lsl r4
    3634:	053e0104 	ldreq	r0, [lr, #-260]!	; 0xfffffefc
    3638:	c50c0000 	strgt	r0, [ip, #-0]
    363c:	1c000008 	stcne	0, cr0, [r0], {8}
    3640:	5c000006 	stcpl	0, cr0, [r0], {6}
    3644:	1c00009c 	stcne	0, cr0, [r0], {156}	; 0x9c
    3648:	50000001 	andpl	r0, r0, r1
    364c:	0200001e 	andeq	r0, r0, #30, 0
    3650:	6e690504 	cdpvs	5, 6, cr0, cr9, cr4, {0}
    3654:	04030074 	streq	r0, [r3], #-116	; 0xffffff8c
    3658:	0001a707 	andeq	sl, r1, r7, lsl #14
    365c:	06010300 	streq	r0, [r1], -r0, lsl #6
    3660:	000000a8 	andeq	r0, r0, r8, lsr #1
    3664:	00050203 	andeq	r0, r5, r3, lsl #4
    3668:	03000000 	movweq	r0, #0
    366c:	00690504 	rsbeq	r0, r9, r4, lsl #10
    3670:	08030000 	stmdaeq	r3, {}	; <UNPREDICTABLE>
    3674:	00006405 	andeq	r6, r0, r5, lsl #8
    3678:	08010300 	stmdaeq	r1, {r8, r9}
    367c:	000000a6 	andeq	r0, r0, r6, lsr #1
    3680:	ee070203 	cdp	2, 0, cr0, cr7, cr3, {0}
    3684:	03000001 	movweq	r0, #1
    3688:	01a20704 			; <UNDEFINED> instruction: 0x01a20704
    368c:	08030000 	stmdaeq	r3, {}	; <UNPREDICTABLE>
    3690:	00019d07 	andeq	r9, r1, r7, lsl #26
    3694:	00250400 	eoreq	r0, r5, r0, lsl #8
    3698:	007a0000 	rsbseq	r0, sl, r0
    369c:	25050000 	strcs	r0, [r5, #-0]
    36a0:	00000000 	andeq	r0, r0, r0
    36a4:	00004006 	andeq	r4, r0, r6
    36a8:	0e1c0200 	cdpeq	2, 1, cr0, cr12, cr0, {0}
    36ac:	00000086 	andeq	r0, r0, r6, lsl #1
    36b0:	006b0407 	rsbeq	r0, fp, r7, lsl #8
    36b4:	25040000 	strcs	r0, [r4, #-0]
    36b8:	9b000000 	blls	36c0 <__code_start__-0x4940>
    36bc:	05000000 	streq	r0, [r0, #-0]
    36c0:	0000009b 	muleq	r0, fp, r0
    36c4:	a8040700 	stmdage	r4, {r8, r9, sl}
    36c8:	03000000 	movweq	r0, #0
    36cc:	00af0801 	adceq	r0, pc, r1, lsl #16
    36d0:	a1080000 	mrsge	r0, (UNDEF: 8)
    36d4:	06000000 	streq	r0, [r0], -r0
    36d8:	000006bc 			; <UNDEFINED> instruction: 0x000006bc
    36dc:	b90e2102 	stmdblt	lr, {r1, r8, sp}
    36e0:	07000000 	streq	r0, [r0, -r0]
    36e4:	00008c04 	andeq	r8, r0, r4, lsl #24
    36e8:	08bb0900 	ldmeq	fp!, {r8, fp}
    36ec:	1e010000 	cdpne	0, 0, cr0, cr1, cr0, {0}
    36f0:	009d2406 	addseq	r2, sp, r6, lsl #8
    36f4:	00005400 	andeq	r5, r0, r0, lsl #8
    36f8:	0b9c0100 	bleq	fe703b00 <__bss_end__+0xfe6f8808>
    36fc:	0a000002 	beq	370c <__code_start__-0x48f4>
    3700:	00636573 	rsbeq	r6, r3, r3, ror r5
    3704:	2c191e01 	ldccs	14, cr1, [r9], {1}
    3708:	73000000 	movwvc	r0, #0
    370c:	6f000026 	svcvs	0x00000026
    3710:	0b000026 	bleq	37b0 <__code_start__-0x4850>
    3714:	0000020b 	andeq	r0, r0, fp, lsl #4
    3718:	00009d24 	andeq	r9, r0, r4, lsr #26
    371c:	0003e802 	andeq	lr, r3, r2, lsl #16
    3720:	051f0100 	ldreq	r0, [pc, #-256]	; 3628 <__code_start__-0x49d8>
    3724:	0002180c 	andeq	r1, r2, ip, lsl #16
    3728:	00269800 	eoreq	r9, r6, r0, lsl #16
    372c:	00269400 	eoreq	r9, r6, r0, lsl #8
    3730:	02240d00 	eoreq	r0, r4, #0, 26
    3734:	9d380000 	ldcls	0, cr0, [r8, #-0]
    3738:	38000000 	stmdacc	r0, {}	; <UNPREDICTABLE>
    373c:	4000009d 	mulmi	r0, sp, r0
    3740:	01000000 	mrseq	r0, (UNDEF: 0)
    3744:	310c051c 	tstcc	ip, ip, lsl r5
    3748:	c5000002 	strgt	r0, [r0, #-2]
    374c:	c3000026 	movwgt	r0, #38	; 0x26
    3750:	0e000026 	cdpeq	0, 0, cr0, cr0, cr6, {1}
    3754:	0000023c 	andeq	r0, r0, ip, lsr r2
    3758:	000026da 	ldrdeq	r2, [r0], -sl
    375c:	000026d8 	ldrdeq	r2, [r0], -r8
    3760:	0002550f 	andeq	r5, r2, pc, lsl #10
    3764:	009d3800 	addseq	r3, sp, r0, lsl #16
    3768:	9d380200 	lfmls	f0, 4, [r8, #-0]
    376c:	00140000 	andseq	r0, r4, r0
    3770:	13010000 	movwne	r0, #4096	; 0x1000
    3774:	00019c13 	andeq	r9, r1, r3, lsl ip
    3778:	02660e00 	rsbeq	r0, r6, #0, 28
    377c:	26f10000 	ldrbtcs	r0, [r1], r0
    3780:	26ed0000 	strbtcs	r0, [sp], r0
    3784:	710f0000 	mrsvc	r0, CPSR
    3788:	3c000002 	stccc	0, cr0, [r0], {2}
    378c:	0100009d 	swpeq	r0, sp, [r0]	; <UNPREDICTABLE>
    3790:	00009d3c 	andeq	r9, r0, ip, lsr sp
    3794:	0000000c 	andeq	r0, r0, ip
    3798:	89120d01 	ldmdbhi	r2, {r0, r8, sl, fp}
    379c:	10000001 	andne	r0, r0, r1
    37a0:	00009d44 	andeq	r9, r0, r4, asr #26
    37a4:	0000052a 	andeq	r0, r0, sl, lsr #10
    37a8:	05500111 	ldrbeq	r0, [r0, #-273]	; 0xfffffeef
    37ac:	0030040c 	eorseq	r0, r0, ip, lsl #8
    37b0:	12000020 	andne	r0, r0, #32, 0
    37b4:	00009d3c 	andeq	r9, r0, ip, lsr sp
    37b8:	00000536 	andeq	r0, r0, r6, lsr r5
    37bc:	009d4c12 	addseq	r4, sp, r2, lsl ip
    37c0:	00053600 	andeq	r3, r5, r0, lsl #12
    37c4:	47130000 	ldrmi	r0, [r3, -r0]
    37c8:	00000002 	andeq	r0, r0, r2
    37cc:	14000004 	strne	r0, [r0], #-4
    37d0:	00000248 	andeq	r0, r0, r8, asr #4
    37d4:	0002550b 	andeq	r5, r2, fp, lsl #10
    37d8:	009d5000 	addseq	r5, sp, r0
    37dc:	04180200 	ldreq	r0, [r8], #-512	; 0xfffffe00
    37e0:	15010000 	strne	r0, [r1, #-0]
    37e4:	04181517 	ldreq	r1, [r8], #-1303	; 0xfffffae9
    37e8:	660e0000 	strvs	r0, [lr], -r0
    37ec:	11000002 	tstne	r0, r2
    37f0:	0f000027 	svceq	0x00000027
    37f4:	16000027 	strne	r0, [r0], -r7, lsr #32
    37f8:	00000271 	andeq	r0, r0, r1, ror r2
    37fc:	00009d54 	andeq	r9, r0, r4, asr sp
    3800:	00043801 	andeq	r3, r4, r1, lsl #16
    3804:	120d0100 	andne	r0, sp, #0
    3808:	000001f3 	strdeq	r0, [r0], -r3
    380c:	009d5c10 	addseq	r5, sp, r0, lsl ip
    3810:	00052a00 	andeq	r2, r5, r0, lsl #20
    3814:	50011100 	andpl	r1, r1, r0, lsl #2
    3818:	00007702 	andeq	r7, r0, r2, lsl #14
    381c:	9d541200 	lfmls	f1, 2, [r4, #-0]
    3820:	05360000 	ldreq	r0, [r6, #-0]!
    3824:	68120000 	ldmdavs	r2, {}	; <UNPREDICTABLE>
    3828:	3600009d 			; <UNDEFINED> instruction: 0x3600009d
    382c:	00000005 	andeq	r0, r0, r5
    3830:	00000000 	andeq	r0, r0, r0
    3834:	07941700 	ldreq	r1, [r4, r0, lsl #14]
    3838:	1b010000 	blne	43840 <__bss_end__+0x38548>
    383c:	02240106 	eoreq	r0, r4, #-2147483647	; 0x80000001
    3840:	6d180000 	ldcvs	0, cr0, [r8, #-0]
    3844:	1b010073 	blne	43a18 <__bss_end__+0x38720>
    3848:	00002c18 	andeq	r2, r0, r8, lsl ip
    384c:	01170000 	tsteq	r7, r0
    3850:	01000009 	tsteq	r0, r9
    3854:	55010612 	strpl	r0, [r1, #-1554]	; 0xfffff9ee
    3858:	18000002 	stmdane	r0, {r1}
    385c:	01007375 	tsteq	r0, r5, ror r3
    3860:	002c1812 	eoreq	r1, ip, r2, lsl r8
    3864:	72190000 	andsvc	r0, r9, #0, 0
    3868:	13010062 	movwne	r0, #4194	; 0x1062
    386c:	00002c0e 	andeq	r2, r0, lr, lsl #24
    3870:	72191a00 	andsvc	r1, r9, #0, 20
    3874:	15010061 	strne	r0, [r1, #-97]	; 0xffffff9f
    3878:	00002c12 	andeq	r2, r0, r2, lsl ip
    387c:	1b000000 	blne	3884 <__code_start__-0x477c>
    3880:	000008df 	ldrdeq	r0, [r0], -pc	; <UNPREDICTABLE>
    3884:	2c0a0901 			; <UNDEFINED> instruction: 0x2c0a0901
    3888:	01000000 	mrseq	r0, (UNDEF: 0)
    388c:	00000271 	andeq	r0, r0, r1, ror r2
    3890:	01007519 	tsteq	r0, r9, lsl r5
    3894:	002c0e0d 	eoreq	r0, ip, sp, lsl #28
    3898:	1c000000 	stcne	0, cr0, [r0], {-0}
    389c:	000008ee 	andeq	r0, r0, lr, ror #17
    38a0:	2c0a0401 	cfstrscs	mvf0, [sl], {1}
    38a4:	01000000 	mrseq	r0, (UNDEF: 0)
    38a8:	0002711d 	andeq	r7, r2, sp, lsl r1
    38ac:	009c5c00 	addseq	r5, ip, r0, lsl #24
    38b0:	00000c00 	andeq	r0, r0, r0, lsl #24
    38b4:	a59c0100 	ldrge	r0, [ip, #256]	; 0x100
    38b8:	1e000002 	cdpne	0, 0, cr0, cr0, cr2, {0}
    38bc:	00009c64 	andeq	r9, r0, r4, ror #24
    38c0:	0000052a 	andeq	r0, r0, sl, lsr #10
    38c4:	05500111 	ldrbeq	r0, [r0, #-273]	; 0xfffffeef
    38c8:	0030040c 	eorseq	r0, r0, ip, lsl #8
    38cc:	1d000020 	stcne	0, cr0, [r0, #-128]	; 0xffffff80
    38d0:	00000255 	andeq	r0, r0, r5, asr r2
    38d4:	00009c68 	andeq	r9, r0, r8, ror #24
    38d8:	00000024 	andeq	r0, r0, r4, lsr #32
    38dc:	03059c01 	movweq	r9, #23553	; 0x5c01
    38e0:	660e0000 	strvs	r0, [lr], -r0
    38e4:	28000002 	stmdacs	r0, {r1}
    38e8:	24000027 	strcs	r0, [r0], #-39	; 0xffffffd9
    38ec:	0f000027 	svceq	0x00000027
    38f0:	00000271 	andeq	r0, r0, r1, ror r2
    38f4:	00009c70 	andeq	r9, r0, r0, ror ip
    38f8:	009c7001 	addseq	r7, ip, r1
    38fc:	00000c00 	andeq	r0, r0, r0, lsl #24
    3900:	120d0100 	andne	r0, sp, #0
    3904:	000002f2 	strdeq	r0, [r0], -r2
    3908:	009c7810 	addseq	r7, ip, r0, lsl r8
    390c:	00052a00 	andeq	r2, r5, r0, lsl #20
    3910:	50011100 	andpl	r1, r1, r0, lsl #2
    3914:	30040c05 	andcc	r0, r4, r5, lsl #24
    3918:	00002000 	andeq	r2, r0, r0
    391c:	009c7012 	addseq	r7, ip, r2, lsl r0
    3920:	00053600 	andeq	r3, r5, r0, lsl #12
    3924:	9c801200 	sfmls	f1, 4, [r0], {0}
    3928:	05360000 	ldreq	r0, [r6, #-0]!
    392c:	1d000000 	stcne	0, cr0, [r0, #-0]
    3930:	00000224 	andeq	r0, r0, r4, lsr #4
    3934:	00009c8c 	andeq	r9, r0, ip, lsl #25
    3938:	00000048 	andeq	r0, r0, r8, asr #32
    393c:	04079c01 	streq	r9, [r7], #-3073	; 0xfffff3ff
    3940:	310c0000 	mrscc	r0, (UNDEF: 12)
    3944:	4a000002 	bmi	3954 <__code_start__-0x46ac>
    3948:	46000027 	strmi	r0, [r0], -r7, lsr #32
    394c:	0e000027 	cdpeq	0, 0, cr0, cr0, cr7, {1}
    3950:	0000023c 	andeq	r0, r0, ip, lsr r2
    3954:	0000276a 	andeq	r2, r0, sl, ror #14
    3958:	00002768 	andeq	r2, r0, r8, ror #14
    395c:	00025516 	andeq	r5, r2, r6, lsl r5
    3960:	009c8c00 	addseq	r8, ip, r0, lsl #24
    3964:	03300200 	teqeq	r0, #0, 4
    3968:	13010000 	movwne	r0, #4096	; 0x1000
    396c:	00039a13 	andeq	r9, r3, r3, lsl sl
    3970:	03301500 	teqeq	r0, #0, 10
    3974:	660e0000 	strvs	r0, [lr], -r0
    3978:	81000002 	tsthi	r0, r2
    397c:	7d000027 	stcvc	0, cr0, [r0, #-156]	; 0xffffff64
    3980:	0f000027 	svceq	0x00000027
    3984:	00000271 	andeq	r0, r0, r1, ror r2
    3988:	00009c98 	muleq	r0, r8, ip
    398c:	009c9801 	addseq	r9, ip, r1, lsl #16
    3990:	00000c00 	andeq	r0, r0, r0, lsl #24
    3994:	120d0100 	andne	r0, sp, #0
    3998:	00000386 	andeq	r0, r0, r6, lsl #7
    399c:	009ca010 	addseq	sl, ip, r0, lsl r0
    39a0:	00052a00 	andeq	r2, r5, r0, lsl #20
    39a4:	50011100 	andpl	r1, r1, r0, lsl #2
    39a8:	30040c05 	andcc	r0, r4, r5, lsl #24
    39ac:	00002000 	andeq	r2, r0, r0
    39b0:	009c9812 	addseq	r9, ip, r2, lsl r8
    39b4:	00053600 	andeq	r3, r5, r0, lsl #12
    39b8:	9ca81200 	sfmls	f1, 4, [r8]
    39bc:	05360000 	ldreq	r0, [r6, #-0]!
    39c0:	00000000 	andeq	r0, r0, r0
    39c4:	00024713 	andeq	r4, r2, r3, lsl r7
    39c8:	00034800 	andeq	r4, r3, r0, lsl #16
    39cc:	02481400 	subeq	r1, r8, #0, 8
    39d0:	550b0000 	strpl	r0, [fp, #-0]
    39d4:	ac000002 	stcge	0, cr0, [r0], {2}
    39d8:	0200009c 	andeq	r0, r0, #156, 0	; 0x9c
    39dc:	00000360 	andeq	r0, r0, r0, ror #6
    39e0:	15171501 	ldrne	r1, [r7, #-1281]	; 0xfffffaff
    39e4:	00000360 	andeq	r0, r0, r0, ror #6
    39e8:	0002660e 	andeq	r6, r2, lr, lsl #12
    39ec:	0027a100 	eoreq	sl, r7, r0, lsl #2
    39f0:	00279f00 	eoreq	r9, r7, r0, lsl #30
    39f4:	02711600 	rsbseq	r1, r1, #0, 12
    39f8:	9cb00000 	ldcls	0, cr0, [r0]
    39fc:	80010000 	andhi	r0, r1, r0
    3a00:	01000003 	tsteq	r0, r3
    3a04:	03f1120d 	mvnseq	r1, #-805306368	; 0xd0000000
    3a08:	b8100000 	ldmdalt	r0, {}	; <UNPREDICTABLE>
    3a0c:	2a00009c 	bcs	3c84 <__code_start__-0x437c>
    3a10:	11000005 	tstne	r0, r5
    3a14:	77025001 	strvc	r5, [r2, -r1]
    3a18:	12000000 	andne	r0, r0, #0, 0
    3a1c:	00009cb0 			; <UNDEFINED> instruction: 0x00009cb0
    3a20:	00000536 	andeq	r0, r0, r6, lsr r5
    3a24:	009cc412 	addseq	ip, ip, r2, lsl r4
    3a28:	00053600 	andeq	r3, r5, r0, lsl #12
    3a2c:	00000000 	andeq	r0, r0, r0
    3a30:	020b1d00 	andeq	r1, fp, #0, 26
    3a34:	9cd40000 	ldclls	0, cr0, [r4], {0}
    3a38:	00500000 	subseq	r0, r0, r0
    3a3c:	9c010000 	stcls	0, cr0, [r1], {-0}
    3a40:	0000052a 	andeq	r0, r0, sl, lsr #10
    3a44:	0002180c 	andeq	r1, r2, ip, lsl #16
    3a48:	0027b800 	eoreq	fp, r7, r0, lsl #16
    3a4c:	0027b400 	eoreq	fp, r7, r0, lsl #8
    3a50:	02240d00 	eoreq	r0, r4, #0, 26
    3a54:	9ce40000 	stclls	0, cr0, [r4]
    3a58:	e4000000 	str	r0, [r0], #-0
    3a5c:	4000009c 	mulmi	r0, ip, r0
    3a60:	01000000 	mrseq	r0, (UNDEF: 0)
    3a64:	310c051c 	tstcc	ip, ip, lsl r5
    3a68:	db000002 	blle	3a78 <__code_start__-0x4588>
    3a6c:	d9000027 	stmdble	r0, {r0, r1, r2, r5}
    3a70:	0e000027 	cdpeq	0, 0, cr0, cr0, cr7, {1}
    3a74:	0000023c 	andeq	r0, r0, ip, lsr r2
    3a78:	000027f0 	strdeq	r2, [r0], -r0
    3a7c:	000027ee 	andeq	r2, r0, lr, ror #15
    3a80:	0002550f 	andeq	r5, r2, pc, lsl #10
    3a84:	009ce400 	addseq	lr, ip, r0, lsl #8
    3a88:	9ce40200 	sfmls	f0, 2, [r4]
    3a8c:	00140000 	andseq	r0, r4, r0
    3a90:	13010000 	movwne	r0, #4096	; 0x1000
    3a94:	0004bc13 	andeq	fp, r4, r3, lsl ip
    3a98:	02660e00 	rsbeq	r0, r6, #0, 28
    3a9c:	28070000 	stmdacs	r7, {}	; <UNPREDICTABLE>
    3aa0:	28030000 	stmdacs	r3, {}	; <UNPREDICTABLE>
    3aa4:	710f0000 	mrsvc	r0, CPSR
    3aa8:	e8000002 	stmda	r0, {r1}
    3aac:	0100009c 	swpeq	r0, ip, [r0]	; <UNPREDICTABLE>
    3ab0:	00009ce8 	andeq	r9, r0, r8, ror #25
    3ab4:	0000000c 	andeq	r0, r0, ip
    3ab8:	a9120d01 	ldmdbge	r2, {r0, r8, sl, fp}
    3abc:	10000004 	andne	r0, r0, r4
    3ac0:	00009cf0 	strdeq	r9, [r0], -r0
    3ac4:	0000052a 	andeq	r0, r0, sl, lsr #10
    3ac8:	05500111 	ldrbeq	r0, [r0, #-273]	; 0xfffffeef
    3acc:	0030040c 	eorseq	r0, r0, ip, lsl #8
    3ad0:	12000020 	andne	r0, r0, #32, 0
    3ad4:	00009ce8 	andeq	r9, r0, r8, ror #25
    3ad8:	00000536 	andeq	r0, r0, r6, lsr r5
    3adc:	009cf812 	addseq	pc, ip, r2, lsl r8	; <UNPREDICTABLE>
    3ae0:	00053600 	andeq	r3, r5, r0, lsl #12
    3ae4:	47130000 	ldrmi	r0, [r3, -r0]
    3ae8:	98000002 	stmdals	r0, {r1}
    3aec:	14000003 	strne	r0, [r0], #-3
    3af0:	00000248 	andeq	r0, r0, r8, asr #4
    3af4:	0002550b 	andeq	r5, r2, fp, lsl #10
    3af8:	009cfc00 	addseq	pc, ip, r0, lsl #24
    3afc:	03b00200 	movseq	r0, #0, 4
    3b00:	15010000 	strne	r0, [r1, #-0]
    3b04:	03b01517 	movseq	r1, #96468992	; 0x5c00000
    3b08:	660e0000 	strvs	r0, [lr], -r0
    3b0c:	27000002 	strcs	r0, [r0, -r2]
    3b10:	25000028 	strcs	r0, [r0, #-40]	; 0xffffffd8
    3b14:	16000028 	strne	r0, [r0], -r8, lsr #32
    3b18:	00000271 	andeq	r0, r0, r1, ror r2
    3b1c:	00009d00 	andeq	r9, r0, r0, lsl #26
    3b20:	0003d001 	andeq	sp, r3, r1
    3b24:	120d0100 	andne	r0, sp, #0
    3b28:	00000513 	andeq	r0, r0, r3, lsl r5
    3b2c:	009d0810 	addseq	r0, sp, r0, lsl r8
    3b30:	00052a00 	andeq	r2, r5, r0, lsl #20
    3b34:	50011100 	andpl	r1, r1, r0, lsl #2
    3b38:	00007702 	andeq	r7, r0, r2, lsl #14
    3b3c:	9d001200 	sfmls	f1, 4, [r0, #-0]
    3b40:	05360000 	ldreq	r0, [r6, #-0]!
    3b44:	14120000 	ldrne	r0, [r2], #-0
    3b48:	3600009d 			; <UNDEFINED> instruction: 0x3600009d
    3b4c:	00000005 	andeq	r0, r0, r5
    3b50:	00000000 	andeq	r0, r0, r0
    3b54:	0008d91f 	andeq	sp, r8, pc, lsl r9
    3b58:	0008d900 	andeq	sp, r8, r0, lsl #18
    3b5c:	0ac70200 	beq	ff1c4364 <__bss_end__+0xff1b906c>
    3b60:	0008af1f 	andeq	sl, r8, pc, lsl pc
    3b64:	0008af00 	andeq	sl, r8, r0, lsl #30
    3b68:	06a10200 	strteq	r0, [r1], r0, lsl #4
    3b6c:	0005cd00 	andeq	ip, r5, r0, lsl #26
    3b70:	e4000400 	str	r0, [r0], #-1024	; 0xfffffc00
    3b74:	04000015 	streq	r0, [r0], #-21	; 0xffffffeb
    3b78:	000a0a01 	andeq	r0, sl, r1, lsl #20
    3b7c:	09490c00 	stmdbeq	r9, {sl, fp}^
    3b80:	09ba0000 	ldmibeq	sl!, {}	; <UNPREDICTABLE>
    3b84:	9d780000 	ldclls	0, cr0, [r8, #-0]
    3b88:	01f00000 	mvnseq	r0, r0
    3b8c:	204e0000 	subcs	r0, lr, r0
    3b90:	04020000 	streq	r0, [r2], #-0
    3b94:	746e6905 	strbtvc	r6, [lr], #-2309	; 0xfffff6fb
    3b98:	07040300 	streq	r0, [r4, -r0, lsl #6]
    3b9c:	000001a7 	andeq	r0, r0, r7, lsr #3
    3ba0:	00002c04 	andeq	r2, r0, r4, lsl #24
    3ba4:	06010300 	streq	r0, [r1], -r0, lsl #6
    3ba8:	000000a8 	andeq	r0, r0, r8, lsr #1
    3bac:	00050203 	andeq	r0, r5, r3, lsl #4
    3bb0:	03000000 	movweq	r0, #0
    3bb4:	00690504 	rsbeq	r0, r9, r4, lsl #10
    3bb8:	08030000 	stmdaeq	r3, {}	; <UNPREDICTABLE>
    3bbc:	00006405 	andeq	r6, r0, r5, lsl #8
    3bc0:	08010300 	stmdaeq	r1, {r8, r9}
    3bc4:	000000a6 	andeq	r0, r0, r6, lsr #1
    3bc8:	ee070203 	cdp	2, 0, cr0, cr7, cr3, {0}
    3bcc:	05000001 	streq	r0, [r0, #-1]
    3bd0:	000001b4 			; <UNDEFINED> instruction: 0x000001b4
    3bd4:	6e193405 	cfmulsvs	mvf3, mvf9, mvf5
    3bd8:	03000000 	movweq	r0, #0
    3bdc:	01a20704 			; <UNDEFINED> instruction: 0x01a20704
    3be0:	08030000 	stmdaeq	r3, {}	; <UNPREDICTABLE>
    3be4:	00019d07 	andeq	r9, r1, r7, lsl #26
    3be8:	08010300 	stmdaeq	r1, {r8, r9}
    3bec:	000000af 	andeq	r0, r0, pc, lsr #1
    3bf0:	54010706 	strpl	r0, [r1], #-1798	; 0xfffff8fa
    3bf4:	04000000 	streq	r0, [r0], #-0
    3bf8:	00c20e0c 	sbceq	r0, r2, ip, lsl #28
    3bfc:	f4070000 	vst4.8	{d0-d3}, [r7], r0
    3c00:	0000000a 	andeq	r0, r0, sl
    3c04:	00092c07 	andeq	r2, r9, r7, lsl #24
    3c08:	6f070100 	svcvs	0x00070100
    3c0c:	04000009 	streq	r0, [r0], #-9
    3c10:	00097e07 	andeq	r7, r9, r7, lsl #28
    3c14:	8d070500 	cfstr32hi	mvfx0, [r7, #-0]
    3c18:	06000009 	streq	r0, [r0], -r9
    3c1c:	00099c07 	andeq	r9, r9, r7, lsl #24
    3c20:	bd070700 	stclt	7, cr0, [r7, #-0]
    3c24:	0300000a 	movweq	r0, #10
    3c28:	0009ab07 	andeq	sl, r9, r7, lsl #22
    3c2c:	08000200 	stmdaeq	r0, {r9}
    3c30:	0000093d 	andeq	r0, r0, sp, lsr r9
    3c34:	0806022c 	stmdaeq	r6, {r2, r3, r5, r9}
    3c38:	0000015e 	andeq	r0, r0, lr, asr r1
    3c3c:	006f6909 	rsbeq	r6, pc, r9, lsl #18
    3c40:	33090902 	movwcc	r0, #39170	; 0x9902
    3c44:	00000000 	andeq	r0, r0, r0
    3c48:	72656909 	rsbvc	r6, r5, #147456	; 0x24000
    3c4c:	090a0200 	stmdbeq	sl, {r9}
    3c50:	00000033 	andeq	r0, r0, r3, lsr r0
    3c54:	69690904 	stmdbvs	r9!, {r2, r8, fp}^
    3c58:	11020072 	tstne	r2, r2, ror r0
    3c5c:	00003309 	andeq	r3, r0, r9, lsl #6
    3c60:	6c090800 	stcvs	8, cr0, [r9], {-0}
    3c64:	02007263 	andeq	r7, r0, #805306374	; 0x30000006
    3c68:	00330913 	eorseq	r0, r3, r3, lsl r9
    3c6c:	090c0000 	stmdbeq	ip, {}	; <UNPREDICTABLE>
    3c70:	0072636d 	rsbseq	r6, r2, sp, ror #6
    3c74:	33091402 	movwcc	r1, #37890	; 0x9402
    3c78:	10000000 	andne	r0, r0, r0
    3c7c:	72736c09 	rsbsvc	r6, r3, #2304	; 0x900
    3c80:	09150200 	ldmdbeq	r5, {r9}
    3c84:	00000033 	andeq	r0, r0, r3, lsr r0
    3c88:	736d0914 	cmnvc	sp, #20, 18	; 0x50000
    3c8c:	16020072 			; <UNDEFINED> instruction: 0x16020072
    3c90:	00003309 	andeq	r3, r0, r9, lsl #6
    3c94:	d40a1800 	strle	r1, [sl], #-2048	; 0xfffff800
    3c98:	0200000a 	andeq	r0, r0, #10, 0
    3c9c:	00330917 	eorseq	r0, r3, r7, lsl r9
    3ca0:	0a1c0000 	beq	703ca8 <__bss_end__+0x6f89b0>
    3ca4:	00000a9d 	muleq	r0, sp, sl
    3ca8:	33091b02 	movwcc	r1, #39682	; 0x9b02
    3cac:	20000000 	andcs	r0, r0, r0
    3cb0:	0009190a 	andeq	r1, r9, sl, lsl #18
    3cb4:	091d0200 	ldmdbeq	sp, {r9}
    3cb8:	00000033 	andeq	r0, r0, r3, lsr r0
    3cbc:	09ef0a24 	stmibeq	pc!, {r2, r5, r9, fp}^	; <UNPREDICTABLE>
    3cc0:	1e020000 	cdpne	0, 0, cr0, cr2, cr0, {0}
    3cc4:	00003309 	andeq	r3, r0, r9, lsl #6
    3cc8:	0b002800 	bleq	dcd0 <__bss_end__+0x29d8>
    3ccc:	000009f4 	strdeq	r0, [r0], -r4
    3cd0:	74090801 	strvc	r0, [r9], #-2049	; 0xfffff7ff
    3cd4:	04000001 	streq	r0, [r0], #-1
    3cd8:	0c202150 	stfeqs	f2, [r0], #-320	; 0xfffffec0
    3cdc:	00003304 	andeq	r3, r0, r4, lsl #6
    3ce0:	016e0d00 	cmneq	lr, r0, lsl #26
    3ce4:	dc0b0000 	stcle	0, cr0, [fp], {-0}
    3ce8:	0100000a 	tsteq	r0, sl
    3cec:	018f2329 	orreq	r2, pc, r9, lsr #6
    3cf0:	50400000 	subpl	r0, r0, r0
    3cf4:	040c2021 	streq	r2, [ip], #-33	; 0xffffffdf
    3cf8:	000000c2 	andeq	r0, r0, r2, asr #1
    3cfc:	0001890d 	andeq	r8, r1, sp, lsl #18
    3d00:	07b80e00 	ldreq	r0, [r8, r0, lsl #28]!
    3d04:	cc010000 	stcgt	0, cr0, [r1], {-0}
    3d08:	009f3006 	addseq	r3, pc, r6
    3d0c:	00001400 	andeq	r1, r0, r0, lsl #8
    3d10:	b49c0100 	ldrlt	r0, [ip], #256	; 0x100
    3d14:	0f000001 	svceq	0x00000001
    3d18:	00009f38 	andeq	r9, r0, r8, lsr pc
    3d1c:	000001b4 			; <UNDEFINED> instruction: 0x000001b4
    3d20:	095e1000 	ldmdbeq	lr, {ip}^
    3d24:	b6010000 	strlt	r0, [r1], -r0
    3d28:	00002505 	andeq	r2, r0, r5, lsl #10
    3d2c:	009f1000 	addseq	r1, pc, r0
    3d30:	00002000 	andeq	r2, r0, r0
    3d34:	eb9c0100 	bl	fe70413c <__bss_end__+0xfe6f8e44>
    3d38:	0f000001 	svceq	0x00000001
    3d3c:	00009f18 	andeq	r9, r0, r8, lsl pc
    3d40:	000005a0 	andeq	r0, r0, r0, lsr #11
    3d44:	009f2011 	addseq	r2, pc, r1, lsl r0	; <UNPREDICTABLE>
    3d48:	0005ac00 	andeq	sl, r5, r0, lsl #24
    3d4c:	50011200 	andpl	r1, r1, r0, lsl #4
    3d50:	50640c05 	rsbpl	r0, r4, r5, lsl #24
    3d54:	00002021 	andeq	r2, r0, r1, lsr #32
    3d58:	000aaf10 	andeq	sl, sl, r0, lsl pc
    3d5c:	05b30100 	ldreq	r0, [r3, #256]!	; 0x100
    3d60:	00000025 	andeq	r0, r0, r5, lsr #32
    3d64:	00009f00 	andeq	r9, r0, r0, lsl #30
    3d68:	00000010 	andeq	r0, r0, r0, lsl r0
    3d6c:	02189c01 	andseq	r9, r8, #256	; 0x100
    3d70:	080f0000 	stmdaeq	pc, {}	; <UNPREDICTABLE>
    3d74:	a000009f 	mulge	r0, pc, r0	; <UNPREDICTABLE>
    3d78:	0f000005 	svceq	0x00000005
    3d7c:	00009f0c 	andeq	r9, r0, ip, lsl #30
    3d80:	00000309 	andeq	r0, r0, r9, lsl #6
    3d84:	0aea0e00 	beq	ffa8758c <__bss_end__+0xffa7c294>
    3d88:	ab010000 	blge	43d90 <__bss_end__+0x38a98>
    3d8c:	009ed006 	addseq	sp, lr, r6
    3d90:	00003000 	andeq	r3, r0, r0
    3d94:	7c9c0100 	ldfvcs	f0, [ip], {0}
    3d98:	13000002 	movwne	r0, #2
    3d9c:	ab010063 	blge	43f30 <__bss_end__+0x38c38>
    3da0:	00002c19 	andeq	r2, r0, r9, lsl ip
    3da4:	00283e00 	eoreq	r3, r8, r0, lsl #28
    3da8:	00283a00 	eoreq	r3, r8, r0, lsl #20
    3dac:	9edc0f00 	cdpls	15, 13, cr0, cr12, cr0, {0}
    3db0:	05a00000 	streq	r0, [r0, #0]!
    3db4:	e00f0000 	and	r0, pc, r0
    3db8:	db00009e 	blle	4038 <__code_start__-0x3fc8>
    3dbc:	14000002 	strne	r0, [r0], #-2
    3dc0:	00009ef4 	strdeq	r9, [r0], -r4
    3dc4:	000005b8 			; <UNDEFINED> instruction: 0x000005b8
    3dc8:	00000272 	andeq	r0, r0, r2, ror r2
    3dcc:	05500112 	ldrbeq	r0, [r0, #-274]	; 0xfffffeee
    3dd0:	2150400c 	cmpcs	r0, ip
    3dd4:	51011220 	tstpl	r1, r0, lsr #4
    3dd8:	08007405 	stmdaeq	r0, {r0, r2, sl, ip, sp, lr}
    3ddc:	0f001aff 	svceq	0x00001aff
    3de0:	00009ef8 	strdeq	r9, [r0], -r8
    3de4:	000005a0 	andeq	r0, r0, r0, lsr #11
    3de8:	0a001000 	beq	7df0 <__code_start__-0x210>
    3dec:	a3010000 	movwge	r0, #4096	; 0x1000
    3df0:	00002505 	andeq	r2, r0, r5, lsl #10
    3df4:	009ea000 	addseq	sl, lr, r0
    3df8:	00003000 	andeq	r3, r0, r0
    3dfc:	db9c0100 	blle	fe704204 <__bss_end__+0xfe6f8f0c>
    3e00:	15000002 	strne	r0, [r0, #-2]
    3e04:	a7010063 	strge	r0, [r1, -r3, rrx]
    3e08:	00002509 	andeq	r2, r0, r9, lsl #10
    3e0c:	00285e00 	eoreq	r5, r8, r0, lsl #28
    3e10:	00285c00 	eoreq	r5, r8, r0, lsl #24
    3e14:	9ea80f00 	cdpls	15, 10, cr0, cr8, cr0, {0}
    3e18:	05a00000 	streq	r0, [r0, #0]!
    3e1c:	ac0f0000 	stcge	0, cr0, [pc], {-0}
    3e20:	0900009e 	stmdbeq	r0, {r1, r2, r3, r4, r7}
    3e24:	14000003 	strne	r0, [r0], #-3
    3e28:	00009ebc 			; <UNDEFINED> instruction: 0x00009ebc
    3e2c:	000005ac 	andeq	r0, r0, ip, lsr #11
    3e30:	000002d1 	ldrdeq	r0, [r0], -r1
    3e34:	05500112 	ldrbeq	r0, [r0, #-274]	; 0xfffffeee
    3e38:	2150400c 	cmpcs	r0, ip
    3e3c:	c40f0020 	strgt	r0, [pc], #-32	; 3e44 <__code_start__-0x41bc>
    3e40:	a000009e 	mulge	r0, lr, r0
    3e44:	00000005 	andeq	r0, r0, r5
    3e48:	00095010 	andeq	r5, r9, r0, lsl r0
    3e4c:	05940100 	ldreq	r0, [r4, #256]	; 0x100
    3e50:	00000025 	andeq	r0, r0, r5, lsr #32
    3e54:	00009e80 	andeq	r9, r0, r0, lsl #29
    3e58:	00000020 	andeq	r0, r0, r0, lsr #32
    3e5c:	03099c01 	movweq	r9, #39937	; 0x9c01
    3e60:	8c110000 	ldchi	0, cr0, [r1], {-0}
    3e64:	ac00009e 	stcge	0, cr0, [r0], {158}	; 0x9e
    3e68:	12000005 	andne	r0, r0, #5, 0
    3e6c:	0c055001 	stceq	0, cr5, [r5], {1}
    3e70:	20215064 	eorcs	r5, r1, r4, rrx
    3e74:	1e100000 	cdpne	0, 1, cr0, cr0, cr0, {0}
    3e78:	01000009 	tsteq	r0, r9
    3e7c:	0025058b 	eoreq	r0, r5, fp, lsl #11
    3e80:	9e680000 	cdpls	0, 6, cr0, cr8, cr0, {0}
    3e84:	00180000 	andseq	r0, r8, r0
    3e88:	9c010000 	stcls	0, cr0, [r1], {-0}
    3e8c:	00000337 	andeq	r0, r0, r7, lsr r3
    3e90:	009e7411 	addseq	r7, lr, r1, lsl r4
    3e94:	0005ac00 	andeq	sl, r5, r0, lsl #24
    3e98:	50011200 	andpl	r1, r1, r0, lsl #4
    3e9c:	50640c05 	rsbpl	r0, r4, r5, lsl #24
    3ea0:	00002021 	andeq	r2, r0, r1, lsr #32
    3ea4:	0007d60e 	andeq	sp, r7, lr, lsl #12
    3ea8:	06450100 	strbeq	r0, [r5], -r0, lsl #2
    3eac:	00009db8 			; <UNDEFINED> instruction: 0x00009db8
    3eb0:	000000b0 	strheq	r0, [r0], -r0	; <UNPREDICTABLE>
    3eb4:	04849c01 	streq	r9, [r4], #3073	; 0xc01
    3eb8:	10160000 	andsne	r0, r6, r0
    3ebc:	01000009 	tsteq	r0, r9
    3ec0:	00620e7e 	rsbeq	r0, r2, lr, ror lr
    3ec4:	010e0000 	mrseq	r0, (UNDEF: 14)
    3ec8:	009dc814 	addseq	ip, sp, r4, lsl r8
    3ecc:	0005c400 	andeq	ip, r5, r0, lsl #8
    3ed0:	00037300 	andeq	r7, r3, r0, lsl #6
    3ed4:	50011200 	andpl	r1, r1, r0, lsl #4
    3ed8:	01123e01 	tsteq	r2, r1, lsl #28
    3edc:	00320151 	eorseq	r0, r2, r1, asr r1
    3ee0:	009dd414 	addseq	sp, sp, r4, lsl r4
    3ee4:	0005c400 	andeq	ip, r5, r0, lsl #8
    3ee8:	00038b00 	andeq	r8, r3, r0, lsl #22
    3eec:	50011200 	andpl	r1, r1, r0, lsl #4
    3ef0:	01123f01 	tsteq	r2, r1, lsl #30
    3ef4:	00320151 	eorseq	r0, r2, r1, asr r1
    3ef8:	009dd80f 	addseq	sp, sp, pc, lsl #16
    3efc:	0005a000 	andeq	sl, r5, r0
    3f00:	9de41400 	cfstrdls	mvd1, [r4]
    3f04:	053d0000 	ldreq	r0, [sp, #-0]!
    3f08:	03b00000 	movseq	r0, #0, 0
    3f0c:	01120000 	tsteq	r2, r0
    3f10:	040c0550 	streq	r0, [ip], #-1360	; 0xfffffab0
    3f14:	12202150 	eorne	r2, r0, #20
    3f18:	31015101 	tstcc	r1, r1, lsl #2
    3f1c:	9de80f00 	stclls	15, cr0, [r8]
    3f20:	05a00000 	streq	r0, [r0, #0]!
    3f24:	f8140000 			; <UNDEFINED> instruction: 0xf8140000
    3f28:	b800009d 	stmdalt	r0, {r0, r2, r3, r4, r7}
    3f2c:	d2000005 	andle	r0, r0, #5, 0
    3f30:	12000003 	andne	r0, r0, #3, 0
    3f34:	74025001 	strvc	r5, [r2], #-1
    3f38:	51011200 	mrspl	r1, R9_usr
    3f3c:	14003001 	strne	r3, [r0], #-1
    3f40:	00009e04 	andeq	r9, r0, r4, lsl #28
    3f44:	000005b8 			; <UNDEFINED> instruction: 0x000005b8
    3f48:	000003ee 	andeq	r0, r0, lr, ror #7
    3f4c:	05500112 	ldrbeq	r0, [r0, #-274]	; 0xfffffeee
    3f50:	2150440c 	cmpcs	r0, ip, lsl #8
    3f54:	51011220 	tstpl	r1, r0, lsr #4
    3f58:	14003001 	strne	r3, [r0], #-1
    3f5c:	00009e10 	andeq	r9, r0, r0, lsl lr
    3f60:	000005b8 			; <UNDEFINED> instruction: 0x000005b8
    3f64:	0000040a 	andeq	r0, r0, sl, lsl #8
    3f68:	05500112 	ldrbeq	r0, [r0, #-274]	; 0xfffffeee
    3f6c:	21504c0c 	cmpcs	r0, ip, lsl #24
    3f70:	51011220 	tstpl	r1, r0, lsr #4
    3f74:	14003301 	strne	r3, [r0], #-769	; 0xfffffcff
    3f78:	00009e1c 	andeq	r9, r0, ip, lsl lr
    3f7c:	000005b8 			; <UNDEFINED> instruction: 0x000005b8
    3f80:	00000426 	andeq	r0, r0, r6, lsr #8
    3f84:	05500112 	ldrbeq	r0, [r0, #-274]	; 0xfffffeee
    3f88:	2150500c 	cmpcs	r0, ip
    3f8c:	51011220 	tstpl	r1, r0, lsr #4
    3f90:	14003001 	strne	r3, [r0], #-1
    3f94:	00009e28 	andeq	r9, r0, r8, lsr #28
    3f98:	000005b8 			; <UNDEFINED> instruction: 0x000005b8
    3f9c:	00000443 	andeq	r0, r0, r3, asr #8
    3fa0:	05500112 	ldrbeq	r0, [r0, #-274]	; 0xfffffeee
    3fa4:	2150480c 	cmpcs	r0, ip, lsl #16
    3fa8:	51011220 	tstpl	r1, r0, lsr #4
    3fac:	00c70802 	sbceq	r0, r7, r2, lsl #16
    3fb0:	009e3414 	addseq	r3, lr, r4, lsl r4
    3fb4:	0005b800 	andeq	fp, r5, r0, lsl #16
    3fb8:	00046100 	andeq	r6, r4, r0, lsl #2
    3fbc:	50011200 	andpl	r1, r1, r0, lsl #4
    3fc0:	50680c05 	rsbpl	r0, r8, r5, lsl #24
    3fc4:	01122021 	tsteq	r2, r1, lsr #32
    3fc8:	0e0a0351 	mcreq	3, 0, r0, cr10, cr1, {2}
    3fcc:	40140001 	andsmi	r0, r4, r1
    3fd0:	b800009e 	stmdalt	r0, {r1, r2, r3, r4, r7}
    3fd4:	7a000005 	bvc	3ff0 <__code_start__-0x4010>
    3fd8:	12000004 	andne	r0, r0, #4, 0
    3fdc:	74025001 	strvc	r5, [r2], #-1
    3fe0:	51011200 	mrspl	r1, R9_usr
    3fe4:	0f003301 	svceq	0x00003301
    3fe8:	00009e44 	andeq	r9, r0, r4, asr #28
    3fec:	000005a0 	andeq	r0, r0, r0, lsr #11
    3ff0:	0aa20e00 	beq	fe8877f8 <__bss_end__+0xfe87c500>
    3ff4:	35010000 	strcc	r0, [r1, #-0]
    3ff8:	009f4406 	addseq	r4, pc, r6, lsl #8
    3ffc:	00002400 	andeq	r2, r0, r0, lsl #8
    4000:	d39c0100 	orrsle	r0, ip, #0
    4004:	0f000004 	svceq	0x00000004
    4008:	00009f4c 	andeq	r9, r0, ip, asr #30
    400c:	00000194 	muleq	r0, r4, r1
    4010:	009f500f 	addseq	r5, pc, pc
    4014:	0005a000 	andeq	sl, r5, r0
    4018:	9f5c1400 	svcls	0x005c1400
    401c:	04d30000 	ldrbeq	r0, [r3], #0
    4020:	04c90000 	strbeq	r0, [r9], #0
    4024:	01120000 	tsteq	r2, r0
    4028:	040c0550 	streq	r0, [ip], #-1360	; 0xfffffab0
    402c:	12202150 	eorne	r2, r0, #20
    4030:	09025101 	stmdbeq	r2, {r0, r8, ip, lr}
    4034:	600f00fe 	strdvs	r0, [pc], -lr
    4038:	a000009f 	mulge	r0, pc, r0	; <UNPREDICTABLE>
    403c:	00000005 	andeq	r0, r0, r5
    4040:	000ae117 	andeq	lr, sl, r7, lsl r1
    4044:	0d310100 	ldfeqs	f0, [r1, #-0]
    4048:	00009d78 	andeq	r9, r0, r8, ror sp
    404c:	00000020 	andeq	r0, r0, r0, lsr #32
    4050:	05369c01 	ldreq	r9, [r6, #-3073]!	; 0xfffff3ff
    4054:	17180000 	ldrne	r0, [r8, -r0]
    4058:	01000006 	tsteq	r0, r6
    405c:	05362531 	ldreq	r2, [r6, #-1329]!	; 0xfffffacf
    4060:	28750000 	ldmdacs	r5!, {}^	; <UNPREDICTABLE>
    4064:	28710000 	ldmdacs	r1!, {}^	; <UNPREDICTABLE>
    4068:	76130000 	ldrvc	r0, [r3], -r0
    406c:	01006c61 	tsteq	r0, r1, ror #24
    4070:	002c3431 	eoreq	r3, ip, r1, lsr r4
    4074:	28970000 	ldmcs	r7, {}	; <UNPREDICTABLE>
    4078:	28930000 	ldmcs	r3, {}	; <UNPREDICTABLE>
    407c:	88140000 	ldmdahi	r4, {}	; <UNPREDICTABLE>
    4080:	ac00009d 	stcge	0, cr0, [r0], {157}	; 0x9d
    4084:	25000005 	strcs	r0, [r0, #-5]
    4088:	12000005 	andne	r0, r0, #5, 0
    408c:	74025001 	strvc	r5, [r2], #-1
    4090:	94110000 	ldrls	r0, [r1], #-0
    4094:	b800009d 	stmdalt	r0, {r0, r2, r3, r4, r7}
    4098:	12000005 	andne	r0, r0, #5, 0
    409c:	74025001 	strvc	r5, [r2], #-1
    40a0:	0c000000 	stceq	0, cr0, [r0], {-0}
    40a4:	00053c04 	andeq	r3, r5, r4, lsl #24
    40a8:	cc171900 			; <UNDEFINED> instruction: 0xcc171900
    40ac:	0100000a 	tsteq	r0, sl
    40b0:	9d980d2e 	ldcls	13, cr0, [r8, #184]	; 0xb8
    40b4:	00200000 	eoreq	r0, r0, r0
    40b8:	9c010000 	stcls	0, cr0, [r1], {-0}
    40bc:	000005a0 	andeq	r0, r0, r0, lsr #11
    40c0:	00061718 	andeq	r1, r6, r8, lsl r7
    40c4:	242e0100 	strtcs	r0, [lr], #-256	; 0xffffff00
    40c8:	00000536 	andeq	r0, r0, r6, lsr r5
    40cc:	000028b9 			; <UNDEFINED> instruction: 0x000028b9
    40d0:	000028b5 			; <UNDEFINED> instruction: 0x000028b5
    40d4:	6c617613 	stclvs	6, cr7, [r1], #-76	; 0xffffffb4
    40d8:	332e0100 			; <UNDEFINED> instruction: 0x332e0100
    40dc:	0000002c 	andeq	r0, r0, ip, lsr #32
    40e0:	000028db 	ldrdeq	r2, [r0], -fp
    40e4:	000028d7 	ldrdeq	r2, [r0], -r7
    40e8:	009da814 	addseq	sl, sp, r4, lsl r8
    40ec:	0005ac00 	andeq	sl, r5, r0, lsl #24
    40f0:	00058f00 	andeq	r8, r5, r0, lsl #30
    40f4:	50011200 	andpl	r1, r1, r0, lsl #4
    40f8:	00007402 	andeq	r7, r0, r2, lsl #8
    40fc:	009db411 	addseq	fp, sp, r1, lsl r4
    4100:	0005b800 	andeq	fp, r5, r0, lsl #16
    4104:	50011200 	andpl	r1, r1, r0, lsl #4
    4108:	00007402 	andeq	r7, r0, r2, lsl #8
    410c:	08af1a00 	stmiaeq	pc!, {r9, fp, ip}	; <UNPREDICTABLE>
    4110:	08af0000 	stmiaeq	pc!, {}	; <UNPREDICTABLE>
    4114:	a1030000 	mrsge	r0, (UNDEF: 3)
    4118:	0b161a06 	bleq	58a938 <__bss_end__+0x57f640>
    411c:	0b160000 	bleq	584124 <__bss_end__+0x578e2c>
    4120:	c8030000 	stmdagt	r3, {}	; <UNPREDICTABLE>
    4124:	090a1a0b 	stmdbeq	sl, {r0, r1, r3, r9, fp, ip}
    4128:	090a0000 	stmdbeq	sl, {}	; <UNPREDICTABLE>
    412c:	b3030000 	movwlt	r0, #12288	; 0x3000
    4130:	0b041a06 	bleq	10a950 <__bss_end__+0xff658>
    4134:	0b040000 	bleq	10413c <__bss_end__+0xf8e44>
    4138:	19040000 	stmdbne	r4, {}	; <UNPREDICTABLE>
    413c:	08e90006 	stmiaeq	r9!, {r1, r2}^
    4140:	00040000 	andeq	r0, r4, r0
    4144:	0000177c 	andeq	r1, r0, ip, ror r7
    4148:	0a0a0104 	beq	284560 <__bss_end__+0x279268>
    414c:	a00c0000 	andge	r0, ip, r0
    4150:	ba00000b 	blt	4184 <__code_start__-0x3e7c>
    4154:	68000009 	stmdavs	r0, {r0, r3}
    4158:	b000009f 	mullt	r0, pc, r0	; <UNPREDICTABLE>
    415c:	57000003 	strpl	r0, [r0, -r3]
    4160:	02000022 	andeq	r0, r0, #34, 0	; 0x22
    4164:	6e690504 	cdpvs	5, 6, cr0, cr9, cr4, {0}
    4168:	04030074 	streq	r0, [r3], #-116	; 0xffffff8c
    416c:	0001a707 	andeq	sl, r1, r7, lsl #14
    4170:	06010300 	streq	r0, [r1], -r0, lsl #6
    4174:	000000a8 	andeq	r0, r0, r8, lsr #1
    4178:	00050203 	andeq	r0, r5, r3, lsl #4
    417c:	03000000 	movweq	r0, #0
    4180:	00690504 	rsbeq	r0, r9, r4, lsl #10
    4184:	08030000 	stmdaeq	r3, {}	; <UNPREDICTABLE>
    4188:	00006405 	andeq	r6, r0, r5, lsl #8
    418c:	08010300 	stmdaeq	r1, {r8, r9}
    4190:	000000a6 	andeq	r0, r0, r6, lsr #1
    4194:	ee070203 	cdp	2, 0, cr0, cr7, cr3, {0}
    4198:	04000001 	streq	r0, [r0], #-1
    419c:	000001b4 			; <UNDEFINED> instruction: 0x000001b4
    41a0:	69193403 	ldmdbvs	r9, {r0, r1, sl, ip, sp}
    41a4:	03000000 	movweq	r0, #0
    41a8:	01a20704 			; <UNDEFINED> instruction: 0x01a20704
    41ac:	08030000 	stmdaeq	r3, {}	; <UNPREDICTABLE>
    41b0:	00019d07 	andeq	r9, r1, r7, lsl #26
    41b4:	08010300 	stmdaeq	r1, {r8, r9}
    41b8:	000000af 	andeq	r0, r0, pc, lsr #1
    41bc:	00007705 	andeq	r7, r0, r5, lsl #14
    41c0:	04080300 	streq	r0, [r8], #-768	; 0xfffffd00
    41c4:	000003ef 	andeq	r0, r0, pc, ror #7
    41c8:	07070406 	streq	r0, [r7, -r6, lsl #8]
    41cc:	00002c04 	andeq	r2, r0, r4, lsl #24
    41d0:	061f0100 	ldreq	r0, [pc], -r0, lsl #2
    41d4:	000000a4 	andeq	r0, r0, r4, lsr #1
    41d8:	000b3a08 	andeq	r3, fp, r8, lsl #20
    41dc:	20000000 	andcs	r0, r0, r0
    41e0:	e6090000 	str	r0, [r9], -r0
    41e4:	01000002 	tsteq	r0, r2
    41e8:	00770d22 	rsbseq	r0, r7, r2, lsr #26
    41ec:	b90a0000 	stmdblt	sl, {}	; <UNPREDICTABLE>
    41f0:	01000004 	tsteq	r0, r4
    41f4:	00c20e23 	sbceq	r0, r2, r3, lsr #28
    41f8:	03050000 	movweq	r0, #20480	; 0x5000
    41fc:	0000aec0 	andeq	sl, r0, r0, asr #29
    4200:	0077040b 	rsbseq	r0, r7, fp, lsl #8
    4204:	240a0000 	strcs	r0, [sl], #-0
    4208:	0100000b 	tsteq	r0, fp
    420c:	00c20e24 	sbceq	r0, r2, r4, lsr #28
    4210:	03050000 	movweq	r0, #20480	; 0x5000
    4214:	0000aebc 			; <UNDEFINED> instruction: 0x0000aebc
    4218:	000b7f0a 	andeq	r7, fp, sl, lsl #30
    421c:	0e250100 	sufeqs	f0, f5, f0
    4220:	000000c2 	andeq	r0, r0, r2, asr #1
    4224:	aeb80305 	cdpge	3, 11, cr0, cr8, cr5, {0}
    4228:	550c0000 	strpl	r0, [ip, #-0]
    422c:	0100000b 	tsteq	r0, fp
    4230:	a2b80675 	adcsge	r0, r8, #122683392	; 0x7500000
    4234:	00600000 	rsbeq	r0, r0, r0
    4238:	9c010000 	stcls	0, cr0, [r1], {-0}
    423c:	00000164 	andeq	r0, r0, r4, ror #2
    4240:	0100700d 	tsteq	r0, sp
    4244:	008a1675 	addeq	r1, sl, r5, ror r6
    4248:	28ff0000 	ldmcs	pc!, {}^	; <UNPREDICTABLE>
    424c:	28f90000 	ldmcs	r9!, {}^	; <UNPREDICTABLE>
    4250:	7f0e0000 	svcvc	0x000e0000
    4254:	74000000 	strvc	r0, [r0], #-0
    4258:	05000001 	streq	r0, [r0, #-1]
    425c:	00aea803 	adceq	sl, lr, r3, lsl #16
    4260:	a3040f00 	movwge	r0, #20224	; 0x4f00
    4264:	08bc0000 	ldmeq	ip!, {}	; <UNPREDICTABLE>
    4268:	015a0000 	cmpeq	sl, r0
    426c:	01100000 	tsteq	r0, r0
    4270:	20030550 	andcs	r0, r3, r0, asr r5
    4274:	100000ae 	andne	r0, r0, lr, lsr #1
    4278:	03055101 	movweq	r5, #20737	; 0x5101
    427c:	0000acb8 			; <UNDEFINED> instruction: 0x0000acb8
    4280:	05520110 	ldrbeq	r0, [r2, #-272]	; 0xfffffef0
    4284:	00aea803 	adceq	sl, lr, r3, lsl #16
    4288:	53011000 	movwpl	r1, #4096	; 0x1000
    428c:	10770802 	rsbsne	r0, r7, r2, lsl #16
    4290:	03007d02 	movweq	r7, #3330	; 0xd02
    4294:	005001f3 	ldrsheq	r0, [r0], #-19	; 0xffffffed
    4298:	00a30811 	adceq	r0, r3, r1, lsl r8
    429c:	0008c800 	andeq	ip, r8, r0, lsl #16
    42a0:	7e120000 	cdpvc	0, 1, cr0, cr2, cr0, {0}
    42a4:	74000000 	strvc	r0, [r0], #-0
    42a8:	13000001 	movwne	r0, #1
    42ac:	0000002c 	andeq	r0, r0, ip, lsr #32
    42b0:	64050009 	strvs	r0, [r5], #-9
    42b4:	14000001 	strne	r0, [r0], #-1
    42b8:	00000b43 	andeq	r0, r0, r3, asr #22
    42bc:	a4067201 	strge	r7, [r6], #-513	; 0xfffffdff
    42c0:	140000a2 	strne	r0, [r0], #-162	; 0xffffff5e
    42c4:	01000000 	mrseq	r0, (UNDEF: 0)
    42c8:	02990c9c 	addseq	r0, r9, #156, 24	; 0x9c00
    42cc:	6f010000 	svcvs	0x00010000
    42d0:	00a2a006 	adceq	sl, r2, r6
    42d4:	00000400 	andeq	r0, r0, r0, lsl #8
    42d8:	ae9c0100 	fmlgee	f0, f4, f0
    42dc:	15000001 	strne	r0, [r0, #-1]
    42e0:	6f010070 	svcvs	0x00010070
    42e4:	00008a12 	andeq	r8, r0, r2, lsl sl
    42e8:	00500100 	subseq	r0, r0, r0, lsl #2
    42ec:	000be216 	andeq	lr, fp, r6, lsl r2
    42f0:	075e0100 	ldrbeq	r0, [lr, -r0, lsl #2]
    42f4:	0000008a 	andeq	r0, r0, sl, lsl #1
    42f8:	0000a188 	andeq	sl, r0, r8, lsl #3
    42fc:	00000118 	andeq	r0, r0, r8, lsl r1
    4300:	042c9c01 	strteq	r9, [ip], #-3073	; 0xfffff3ff
    4304:	76170000 	ldrvc	r0, [r7], -r0
    4308:	01000003 	tsteq	r0, r3
    430c:	002c205e 	eoreq	r2, ip, lr, asr r0
    4310:	29400000 	stmdbcs	r0, {}^	; <UNPREDICTABLE>
    4314:	292c0000 	stmdbcs	ip!, {}	; <UNPREDICTABLE>
    4318:	5f170000 	svcpl	0x00170000
    431c:	0100000b 	tsteq	r0, fp
    4320:	002c315e 	eoreq	r3, ip, lr, asr r1
    4324:	29d90000 	ldmibcs	r9, {}^	; <UNPREDICTABLE>
    4328:	29c50000 	stmibcs	r5, {}^	; <UNPREDICTABLE>
    432c:	7f0e0000 	svcvc	0x000e0000
    4330:	3c000000 	stccc	0, cr0, [r0], {-0}
    4334:	05000004 	streq	r0, [r0, #-4]
    4338:	00ae9003 	adceq	r9, lr, r3
    433c:	00681800 	rsbeq	r1, r8, r0, lsl #16
    4340:	2c0e6601 	stccs	6, cr6, [lr], {1}
    4344:	8f000000 	svchi	0x00000000
    4348:	8300002a 	movwhi	r0, #42	; 0x2a
    434c:	1900002a 	stmdbne	r0, {r1, r3, r5}
    4350:	00000854 	andeq	r0, r0, r4, asr r8
    4354:	0000a198 	muleq	r0, r8, r1
    4358:	00a19804 	adceq	r9, r1, r4, lsl #16
    435c:	00000400 	andeq	r0, r0, r0, lsl #8
    4360:	05600100 	strbeq	r0, [r0, #-256]!	; 0xffffff00
    4364:	00000238 	andeq	r0, r0, r8, lsr r2
    4368:	0008651a 	andeq	r6, r8, sl, lsl r5
    436c:	002ae300 	eoreq	lr, sl, r0, lsl #6
    4370:	002ae100 	eoreq	lr, sl, r0, lsl #2
    4374:	96190000 	ldrls	r0, [r9], -r0
    4378:	a4000008 	strge	r0, [r0], #-8
    437c:	020000a1 	andeq	r0, r0, #161, 0	; 0xa1
    4380:	0000a1a4 	andeq	sl, r0, r4, lsr #3
    4384:	00000008 	andeq	r0, r0, r8
    4388:	6c116101 	ldfvss	f6, [r1], {1}
    438c:	1a000002 	bne	439c <__code_start__-0x3c64>
    4390:	000008b1 			; <UNDEFINED> instruction: 0x000008b1
    4394:	00002af8 	strdeq	r2, [r0], -r8
    4398:	00002af6 	strdeq	r2, [r0], -r6
    439c:	0008a71a 	andeq	sl, r8, sl, lsl r7
    43a0:	002b0e00 	eoreq	r0, fp, r0, lsl #28
    43a4:	002b0c00 	eoreq	r0, fp, r0, lsl #24
    43a8:	1f1b0000 	svcne	0x001b0000
    43ac:	b4000008 	strlt	r0, [r0], #-8
    43b0:	010000a1 	smlatbeq	r0, r1, r0, r0
    43b4:	00000468 	andeq	r0, r0, r8, ror #8
    43b8:	0a096701 	beq	25dfc4 <__bss_end__+0x252ccc>
    43bc:	1a000003 	bne	43d0 <__code_start__-0x3c30>
    43c0:	0000083a 	andeq	r0, r0, sl, lsr r8
    43c4:	00002b27 	andeq	r2, r0, r7, lsr #22
    43c8:	00002b21 	andeq	r2, r0, r1, lsr #22
    43cc:	0008301a 	andeq	r3, r8, sl, lsl r0
    43d0:	002b6e00 	eoreq	r6, fp, r0, lsl #28
    43d4:	002b6600 	eoreq	r6, fp, r0, lsl #12
    43d8:	04681c00 	strbteq	r1, [r8], #-3072	; 0xfffff400
    43dc:	54190000 	ldrpl	r0, [r9], #-0
    43e0:	b4000008 	strlt	r0, [r0], #-8
    43e4:	040000a1 	streq	r0, [r0], #-161	; 0xffffff5f
    43e8:	0000a1b4 			; <UNDEFINED> instruction: 0x0000a1b4
    43ec:	00000004 	andeq	r0, r0, r4
    43f0:	c7051101 	strgt	r1, [r5, -r1, lsl #2]
    43f4:	1a000002 	bne	4404 <__code_start__-0x3bfc>
    43f8:	00000865 	andeq	r0, r0, r5, ror #16
    43fc:	00002bac 	andeq	r2, r0, ip, lsr #23
    4400:	00002baa 	andeq	r2, r0, sl, lsr #23
    4404:	a24c0f00 	subge	r0, ip, #0, 30
    4408:	08bc0000 	ldmeq	ip!, {}	; <UNPREDICTABLE>
    440c:	02ff0000 	rscseq	r0, pc, #0, 0
    4410:	01100000 	tsteq	r0, r0
    4414:	dc030550 	cfstr32le	mvfx0, [r3], {80}	; 0x50
    4418:	100000a5 	andne	r0, r0, r5, lsr #1
    441c:	03055101 	movweq	r5, #20737	; 0x5101
    4420:	0000acb8 			; <UNDEFINED> instruction: 0x0000acb8
    4424:	05520110 	ldrbeq	r0, [r2, #-272]	; 0xfffffef0
    4428:	00aea003 	adceq	sl, lr, r3
    442c:	53011000 	movwpl	r1, #4096	; 0x1000
    4430:	02104101 	andseq	r4, r0, #1073741824	; 0x40000000
    4434:	0305007d 	movweq	r0, #20605	; 0x507d
    4438:	0000adcc 	andeq	sl, r0, ip, asr #27
    443c:	a2501100 	subsge	r1, r0, #0
    4440:	08c80000 	stmiaeq	r8, {}^	; <UNPREDICTABLE>
    4444:	00000000 	andeq	r0, r0, r0
    4448:	00087019 	andeq	r7, r8, r9, lsl r0
    444c:	00a1cc00 	adceq	ip, r1, r0, lsl #24
    4450:	a1cc0300 	bicge	r0, ip, r0, lsl #6
    4454:	00040000 	andeq	r0, r4, r0
    4458:	68010000 	stmdavs	r1, {}	; <UNPREDICTABLE>
    445c:	00033e05 	andeq	r3, r3, r5, lsl #28
    4460:	088b1a00 	stmeq	fp, {r9, fp, ip}
    4464:	2bc10000 	blcs	ff04446c <__bss_end__+0xff039174>
    4468:	2bbf0000 	blcs	fefc4470 <__bss_end__+0xfefb9178>
    446c:	811a0000 	tsthi	sl, r0
    4470:	d6000008 	strle	r0, [r0], -r8
    4474:	d400002b 	strle	r0, [r0], #-43	; 0xffffffd5
    4478:	0000002b 	andeq	r0, r0, fp, lsr #32
    447c:	00a1e40f 	adceq	lr, r1, pc, lsl #8
    4480:	00044100 	andeq	r4, r4, r0, lsl #2
    4484:	00035300 	andeq	r5, r3, r0, lsl #6
    4488:	50011000 	andpl	r1, r1, r0
    448c:	5001f303 	andpl	pc, r1, r3, lsl #6
    4490:	a2080f00 	andge	r0, r8, #0, 30
    4494:	08bc0000 	ldmeq	ip!, {}	; <UNPREDICTABLE>
    4498:	038c0000 	orreq	r0, ip, #0, 0
    449c:	01100000 	tsteq	r0, r0
    44a0:	dc030550 	cfstr32le	mvfx0, [r3], {80}	; 0x50
    44a4:	100000a5 	andne	r0, r0, r5, lsr #1
    44a8:	03055101 	movweq	r5, #20737	; 0x5101
    44ac:	0000acb8 			; <UNDEFINED> instruction: 0x0000acb8
    44b0:	05520110 	ldrbeq	r0, [r2, #-272]	; 0xfffffef0
    44b4:	00ae9003 	adceq	r9, lr, r3
    44b8:	53011000 	movwpl	r1, #4096	; 0x1000
    44bc:	105f0802 	subsne	r0, pc, r2, lsl #16
    44c0:	05007d02 	streq	r7, [r0, #-3330]	; 0xfffff2fe
    44c4:	00acc803 	adceq	ip, ip, r3, lsl #16
    44c8:	0c110000 	ldceq	0, cr0, [r1], {-0}
    44cc:	c80000a2 	stmdagt	r0, {r1, r5, r7}
    44d0:	11000008 	tstne	r0, r8
    44d4:	0000a210 	andeq	sl, r0, r0, lsl r2
    44d8:	000008d4 	ldrdeq	r0, [r0], -r4
    44dc:	00a22c0f 	adceq	r2, r2, pc, lsl #24
    44e0:	0008bc00 	andeq	fp, r8, r0, lsl #24
    44e4:	0003d700 	andeq	sp, r3, r0, lsl #14
    44e8:	50011000 	andpl	r1, r1, r0
    44ec:	ad840305 	stcge	3, cr0, [r4, #20]
    44f0:	01100000 	tsteq	r0, r0
    44f4:	b8030551 	stmdalt	r3, {r0, r4, r6, r8, sl}
    44f8:	100000ac 	andne	r0, r0, ip, lsr #1
    44fc:	03055201 	movweq	r5, #20993	; 0x5201
    4500:	0000ae90 	muleq	r0, r0, lr
    4504:	02530110 	subseq	r0, r3, #4
    4508:	02106008 	andseq	r6, r0, #8, 0
    450c:	0305007d 	movweq	r0, #20605	; 0x507d
    4510:	0000adb8 			; <UNDEFINED> instruction: 0x0000adb8
    4514:	a2301100 	eorsge	r1, r0, #0
    4518:	08c80000 	stmiaeq	r8, {}^	; <UNPREDICTABLE>
    451c:	54110000 	ldrpl	r0, [r1], #-0
    4520:	d40000a2 	strle	r0, [r0], #-162	; 0xffffff5e
    4524:	0f000008 	svceq	0x00000008
    4528:	0000a270 	andeq	sl, r0, r0, ror r2
    452c:	000008bc 			; <UNDEFINED> instruction: 0x000008bc
    4530:	00000422 	andeq	r0, r0, r2, lsr #8
    4534:	05500110 	ldrbeq	r0, [r0, #-272]	; 0xfffffef0
    4538:	00add803 	adceq	sp, sp, r3, lsl #16
    453c:	51011000 	mrspl	r1, (UNDEF: 1)
    4540:	acb80305 	ldcge	3, cr0, [r8], #20
    4544:	01100000 	tsteq	r0, r0
    4548:	90030552 	andls	r0, r3, r2, asr r5
    454c:	100000ae 	andne	r0, r0, lr, lsr #1
    4550:	08025301 	stmdaeq	r2, {r0, r8, r9, ip, lr}
    4554:	7d021068 	stcvc	0, cr1, [r2, #-416]	; 0xfffffe60
    4558:	04030500 	streq	r0, [r3], #-1280	; 0xfffffb00
    455c:	000000ae 	andeq	r0, r0, lr, lsr #1
    4560:	00a27411 	adceq	r7, r2, r1, lsl r4
    4564:	0008c800 	andeq	ip, r8, r0, lsl #16
    4568:	7e120000 	cdpvc	0, 1, cr0, cr2, cr0, {0}
    456c:	3c000000 	stccc	0, cr0, [r0], {-0}
    4570:	13000004 	movwne	r0, #4
    4574:	0000002c 	andeq	r0, r0, ip, lsr #32
    4578:	2c05000f 	stccs	0, cr0, [r5], {15}
    457c:	16000004 	strne	r0, [r0], -r4
    4580:	000004d8 	ldrdeq	r0, [r0], -r8
    4584:	8a075301 	bhi	1d9190 <__bss_end__+0x1cde98>
    4588:	24000000 	strcs	r0, [r0], #-0
    458c:	640000a1 	strvs	r0, [r0], #-161	; 0xffffff5f
    4590:	01000000 	mrseq	r0, (UNDEF: 0)
    4594:	0005089c 	muleq	r5, ip, r8
    4598:	03761700 	cmneq	r6, #0, 14
    459c:	53010000 	movwpl	r0, #4096	; 0x1000
    45a0:	00002c18 	andeq	r2, r0, r8, lsl ip
    45a4:	002bf100 	eoreq	pc, fp, r0, lsl #2
    45a8:	002be900 	eoreq	lr, fp, r0, lsl #18
    45ac:	007f0e00 	rsbseq	r0, pc, r0, lsl #28
    45b0:	05180000 	ldreq	r0, [r8, #-0]
    45b4:	03050000 	movweq	r0, #20480	; 0x5000
    45b8:	0000ae88 	andeq	sl, r0, r8, lsl #29
    45bc:	0006171d 	andeq	r1, r6, sp, lsl r7
    45c0:	0b550100 	bleq	15449c8 <__bss_end__+0x15396d0>
    45c4:	0000008a 	andeq	r0, r0, sl, lsl #1
    45c8:	00002c29 	andeq	r2, r0, r9, lsr #24
    45cc:	00002c25 	andeq	r2, r0, r5, lsr #24
    45d0:	00a13c0f 	adceq	r3, r1, pc, lsl #24
    45d4:	00051d00 	andeq	r1, r5, r0, lsl #26
    45d8:	0004a600 	andeq	sl, r4, r0, lsl #12
    45dc:	50011000 	andpl	r1, r1, r0
    45e0:	00007402 	andeq	r7, r0, r2, lsl #8
    45e4:	00a14c0f 	adceq	r4, r1, pc, lsl #24
    45e8:	0008e000 	andeq	lr, r8, r0
    45ec:	0004c500 	andeq	ip, r4, r0, lsl #10
    45f0:	50011000 	andpl	r1, r1, r0
    45f4:	10007502 	andne	r7, r0, r2, lsl #10
    45f8:	30015101 	andcc	r5, r1, r1, lsl #2
    45fc:	02520110 	subseq	r0, r2, #4
    4600:	0f000074 	svceq	0x00000074
    4604:	0000a174 	andeq	sl, r0, r4, ror r1
    4608:	000008bc 			; <UNDEFINED> instruction: 0x000008bc
    460c:	000004fe 	strdeq	r0, [r0], -lr
    4610:	05500110 	ldrbeq	r0, [r0, #-272]	; 0xfffffef0
    4614:	00a5dc03 	adceq	sp, r5, r3, lsl #24
    4618:	51011000 	mrspl	r1, (UNDEF: 1)
    461c:	acb80305 	ldcge	3, cr0, [r8], #20
    4620:	01100000 	tsteq	r0, r0
    4624:	88030552 	stmdahi	r3, {r1, r4, r6, r8, sl}
    4628:	100000ae 	andne	r0, r0, lr, lsr #1
    462c:	08025301 	stmdaeq	r2, {r0, r8, r9, ip, lr}
    4630:	7d021054 	stcvc	0, cr1, [r2, #-336]	; 0xfffffeb0
    4634:	c8030500 	stmdagt	r3, {r8, sl}
    4638:	000000ac 	andeq	r0, r0, ip, lsr #1
    463c:	00a17811 	adceq	r7, r1, r1, lsl r8
    4640:	0008c800 	andeq	ip, r8, r0, lsl #16
    4644:	7e120000 	cdpvc	0, 1, cr0, cr2, cr0, {0}
    4648:	18000000 	stmdane	r0, {}	; <UNPREDICTABLE>
    464c:	13000005 	movwne	r0, #5
    4650:	0000002c 	andeq	r0, r0, ip, lsr #32
    4654:	08050007 	stmdaeq	r5, {r0, r1, r2}
    4658:	16000005 	strne	r0, [r0], -r5
    465c:	00000b88 	andeq	r0, r0, r8, lsl #23
    4660:	8a074701 	bhi	1d626c <__bss_end__+0x1caf74>
    4664:	8c000000 	stchi	0, cr0, [r0], {-0}
    4668:	980000a0 	stmdals	r0, {r5, r7}
    466c:	01000000 	mrseq	r0, (UNDEF: 0)
    4670:	00062b9c 	muleq	r6, ip, fp
    4674:	03761700 	cmneq	r6, #0, 14
    4678:	47010000 	strmi	r0, [r1, -r0]
    467c:	00002c20 	andeq	r2, r0, r0, lsr #24
    4680:	002c5700 	eoreq	r5, ip, r0, lsl #14
    4684:	002c4700 	eoreq	r4, ip, r0, lsl #14
    4688:	007f0e00 	rsbseq	r0, pc, r0, lsl #28
    468c:	043c0000 	ldrteq	r0, [ip], #-0
    4690:	03050000 	movweq	r0, #20480	; 0x5000
    4694:	0000ae78 	andeq	sl, r0, r8, ror lr
    4698:	0006171d 	andeq	r1, r6, sp, lsl r7
    469c:	0b4b0100 	bleq	12c4aa4 <__bss_end__+0x12b97ac>
    46a0:	0000008a 	andeq	r0, r0, sl, lsl #1
    46a4:	00002ccb 	andeq	r2, r0, fp, asr #25
    46a8:	00002cc5 	andeq	r2, r0, r5, asr #25
    46ac:	00081f1b 	andeq	r1, r8, fp, lsl pc
    46b0:	00a09c00 	adceq	r9, r0, r0, lsl #24
    46b4:	04500300 	ldrbeq	r0, [r0], #-768	; 0xfffffd00
    46b8:	49010000 	stmdbmi	r1, {}	; <UNPREDICTABLE>
    46bc:	0005a30e 	andeq	sl, r5, lr, lsl #6
    46c0:	083a1a00 	ldmdaeq	sl!, {r9, fp, ip}
    46c4:	2cfa0000 	ldclcs	0, cr0, [sl]
    46c8:	2cf80000 	ldclcs	0, cr0, [r8]
    46cc:	301a0000 	andscc	r0, sl, r0
    46d0:	12000008 	andne	r0, r0, #8, 0
    46d4:	0e00002d 	cdpeq	0, 0, cr0, cr0, cr13, {1}
    46d8:	1e00002d 	cdpne	0, 0, cr0, cr0, cr13, {1}
    46dc:	00000450 	andeq	r0, r0, r0, asr r4
    46e0:	a0e40f00 	rscge	r0, r4, r0, lsl #30
    46e4:	08bc0000 	ldmeq	ip!, {}	; <UNPREDICTABLE>
    46e8:	05dc0000 	ldrbeq	r0, [ip]
    46ec:	01100000 	tsteq	r0, r0
    46f0:	dc030550 	cfstr32le	mvfx0, [r3], {80}	; 0x50
    46f4:	100000a5 	andne	r0, r0, r5, lsr #1
    46f8:	03055101 	movweq	r5, #20737	; 0x5101
    46fc:	0000acb8 			; <UNDEFINED> instruction: 0x0000acb8
    4700:	05520110 	ldrbeq	r0, [r2, #-272]	; 0xfffffef0
    4704:	00ae7803 	adceq	r7, lr, r3, lsl #16
    4708:	53011000 	movwpl	r1, #4096	; 0x1000
    470c:	10480802 	subne	r0, r8, r2, lsl #16
    4710:	05007d02 	streq	r7, [r0, #-3330]	; 0xfffff2fe
    4714:	00acc803 	adceq	ip, ip, r3, lsl #16
    4718:	e8110000 	ldmda	r1, {}	; <UNPREDICTABLE>
    471c:	c80000a0 	stmdagt	r0, {r5, r7}
    4720:	0f000008 	svceq	0x00000008
    4724:	0000a108 	andeq	sl, r0, r8, lsl #2
    4728:	000008bc 			; <UNDEFINED> instruction: 0x000008bc
    472c:	00000621 	andeq	r0, r0, r1, lsr #12
    4730:	05500110 	ldrbeq	r0, [r0, #-272]	; 0xfffffef0
    4734:	00ad4403 	adceq	r4, sp, r3, lsl #8
    4738:	51011000 	mrspl	r1, (UNDEF: 1)
    473c:	acb80305 	ldcge	3, cr0, [r8], #20
    4740:	01100000 	tsteq	r0, r0
    4744:	78030552 	stmdavc	r3, {r1, r4, r6, r8, sl}
    4748:	100000ae 	andne	r0, r0, lr, lsr #1
    474c:	08025301 	stmdaeq	r2, {r0, r8, r9, ip, lr}
    4750:	7d02104e 	stcvc	0, cr1, [r2, #-312]	; 0xfffffec8
    4754:	01f30800 	mvnseq	r0, r0, lsl #16
    4758:	09072350 	stmdbeq	r7, {r4, r6, r8, r9, sp}
    475c:	11001af8 	strdne	r1, [r0, -r8]
    4760:	0000a10c 	andeq	sl, r0, ip, lsl #2
    4764:	000008c8 	andeq	r0, r0, r8, asr #17
    4768:	0baa0c00 	bleq	fea87770 <__bss_end__+0xfea7c478>
    476c:	3c010000 	stccc	0, cr0, [r1], {-0}
    4770:	00a03406 	adceq	r3, r0, r6, lsl #8
    4774:	00005800 	andeq	r5, r0, r0, lsl #16
    4778:	cf9c0100 	svcgt	0x009c0100
    477c:	0a000006 	beq	479c <__code_start__-0x3864>
    4780:	00000448 	andeq	r0, r0, r8, asr #8
    4784:	25103d01 	ldrcs	r3, [r0, #-3329]	; 0xfffff2ff
    4788:	05000000 	streq	r0, [r0, #-0]
    478c:	00b2f003 	adcseq	pc, r2, r3
    4790:	007f0e00 	rsbseq	r0, pc, r0, lsl #28
    4794:	06df0000 	ldrbeq	r0, [pc], r0
    4798:	03050000 	movweq	r0, #20480	; 0x5000
    479c:	0000ae68 	andeq	sl, r0, r8, ror #28
    47a0:	2c040707 	stccs	7, cr0, [r4], {7}
    47a4:	01000000 	mrseq	r0, (UNDEF: 0)
    47a8:	067a0a42 	ldrbteq	r0, [sl], -r2, asr #20
    47ac:	71080000 	mrsvc	r0, (UNDEF: 8)
    47b0:	0000000b 	andeq	r0, r0, fp
    47b4:	00001000 	andeq	r1, r0, r0
    47b8:	00a0600f 	adceq	r6, r0, pc
    47bc:	0006e400 	andeq	lr, r6, r0, lsl #8
    47c0:	00069600 	andeq	r9, r6, r0, lsl #12
    47c4:	50011000 	andpl	r1, r1, r0
    47c8:	24404003 	strbcs	r4, [r0], #-3
    47cc:	03510110 	cmpeq	r1, #4
    47d0:	00244840 	eoreq	r4, r4, r0, asr #16
    47d4:	00a0780f 	adceq	r7, r0, pc, lsl #16
    47d8:	0008bc00 	andeq	fp, r8, r0, lsl #24
    47dc:	0006c500 	andeq	ip, r6, r0, lsl #10
    47e0:	50011000 	andpl	r1, r1, r0
    47e4:	ad140305 	ldcge	3, cr0, [r4, #-20]	; 0xffffffec
    47e8:	01100000 	tsteq	r0, r0
    47ec:	b8030551 	stmdalt	r3, {r0, r4, r6, r8, sl}
    47f0:	100000ac 	andne	r0, r0, ip, lsr #1
    47f4:	03055201 	movweq	r5, #20993	; 0x5201
    47f8:	0000ae68 	andeq	sl, r0, r8, ror #28
    47fc:	02530110 	subseq	r0, r3, #4
    4800:	11004008 	tstne	r0, r8
    4804:	0000a07c 	andeq	sl, r0, ip, ror r0
    4808:	000008c8 	andeq	r0, r0, r8, asr #17
    480c:	007e1200 	rsbseq	r1, lr, r0, lsl #4
    4810:	06df0000 	ldrbeq	r0, [pc], r0
    4814:	2c130000 	ldccs	0, cr0, [r3], {-0}
    4818:	0c000000 	stceq	0, cr0, [r0], {-0}
    481c:	06cf0500 	strbeq	r0, [pc], r0, lsl #10
    4820:	e00c0000 	and	r0, ip, r0
    4824:	01000004 	tsteq	r0, r4
    4828:	9f98062d 	svcls	0x0098062d
    482c:	009c0000 	addseq	r0, ip, r0
    4830:	9c010000 	stcls	0, cr0, [r1], {-0}
    4834:	000007c8 	andeq	r0, r0, r8, asr #15
    4838:	00061617 	andeq	r1, r6, r7, lsl r6
    483c:	262d0100 	strtcs	r0, [sp], -r0, lsl #2
    4840:	0000002c 	andeq	r0, r0, ip, lsr #32
    4844:	00002d40 	andeq	r2, r0, r0, asr #26
    4848:	00002d32 	andeq	r2, r0, r2, lsr sp
    484c:	000b2f17 	andeq	r2, fp, r7, lsl pc
    4850:	362d0100 	strtcc	r0, [sp], -r0, lsl #2
    4854:	0000002c 	andeq	r0, r0, ip, lsr #32
    4858:	00002da8 	andeq	r2, r0, r8, lsr #27
    485c:	00002da0 	andeq	r2, r0, r0, lsr #27
    4860:	0006171d 	andeq	r1, r6, sp, lsl r7
    4864:	0b2e0100 	bleq	b84c6c <__bss_end__+0xb79974>
    4868:	000000c2 	andeq	r0, r0, r2, asr #1
    486c:	00002df0 	strdeq	r2, [r0], -r0
    4870:	00002de2 	andeq	r2, r0, r2, ror #27
    4874:	00007f0e 	andeq	r7, r0, lr, lsl #30
    4878:	0007d800 	andeq	sp, r7, r0, lsl #16
    487c:	50030500 	andpl	r0, r3, r0, lsl #10
    4880:	0f0000ae 	svceq	0x000000ae
    4884:	00009ff0 	strdeq	r9, [r0], -r0
    4888:	000008bc 			; <UNDEFINED> instruction: 0x000008bc
    488c:	0000077e 	andeq	r0, r0, lr, ror r7
    4890:	05500110 	ldrbeq	r0, [r0, #-272]	; 0xfffffef0
    4894:	00a5dc03 	adceq	sp, r5, r3, lsl #24
    4898:	51011000 	mrspl	r1, (UNDEF: 1)
    489c:	acb80305 	ldcge	3, cr0, [r8], #20
    48a0:	01100000 	tsteq	r0, r0
    48a4:	50030552 	andpl	r0, r3, r2, asr r5
    48a8:	100000ae 	andne	r0, r0, lr, lsr #1
    48ac:	08025301 	stmdaeq	r2, {r0, r8, r9, ip, lr}
    48b0:	7d021030 	stcvc	0, cr1, [r2, #-192]	; 0xffffff40
    48b4:	c4030500 	strgt	r0, [r3], #-1280	; 0xfffffb00
    48b8:	000000ac 	andeq	r0, r0, ip, lsr #1
    48bc:	009ff411 	addseq	pc, pc, r1, lsl r4	; <UNPREDICTABLE>
    48c0:	0008c800 	andeq	ip, r8, r0, lsl #16
    48c4:	a0180f00 	andsge	r0, r8, r0, lsl #30
    48c8:	08bc0000 	ldmeq	ip!, {}	; <UNPREDICTABLE>
    48cc:	07be0000 	ldreq	r0, [lr, r0]!
    48d0:	01100000 	tsteq	r0, r0
    48d4:	d0030550 	andle	r0, r3, r0, asr r5
    48d8:	100000ac 	andne	r0, r0, ip, lsr #1
    48dc:	03055101 	movweq	r5, #20737	; 0x5101
    48e0:	0000acb8 			; <UNDEFINED> instruction: 0x0000acb8
    48e4:	05520110 	ldrbeq	r0, [r2, #-272]	; 0xfffffef0
    48e8:	00ae5003 	adceq	r5, lr, r3
    48ec:	53011000 	movwpl	r1, #4096	; 0x1000
    48f0:	10340802 	eorsne	r0, r4, r2, lsl #16
    48f4:	03007d02 	movweq	r7, #3330	; 0xd02
    48f8:	005001f3 	ldrsheq	r0, [r0], #-19	; 0xffffffed
    48fc:	00a01c11 	adceq	r1, r0, r1, lsl ip
    4900:	0008c800 	andeq	ip, r8, r0, lsl #16
    4904:	7e120000 	cdpvc	0, 1, cr0, cr2, cr0, {0}
    4908:	d8000000 	stmdale	r0, {}	; <UNPREDICTABLE>
    490c:	13000007 	movwne	r0, #7
    4910:	0000002c 	andeq	r0, r0, ip, lsr #32
    4914:	c8050016 	stmdagt	r5, {r1, r2, r4}
    4918:	1f000007 	svcne	0x00000007
    491c:	00000bc2 	andeq	r0, r0, r2, asr #23
    4920:	8a072a01 	bhi	1cf12c <__bss_end__+0x1c3e34>
    4924:	88000000 	stmdahi	r0, {}	; <UNPREDICTABLE>
    4928:	1000009f 	mulne	r0, pc, r0	; <UNPREDICTABLE>
    492c:	01000000 	mrseq	r0, (UNDEF: 0)
    4930:	0b1c1f9c 	bleq	70c7a8 <__bss_end__+0x7014b0>
    4934:	29010000 	stmdbcs	r1, {}	; <UNPREDICTABLE>
    4938:	00008a07 	andeq	r8, r0, r7, lsl #20
    493c:	009f7800 	addseq	r7, pc, r0, lsl #16
    4940:	00001000 	andeq	r1, r0, r0
    4944:	1f9c0100 	svcne	0x009c0100
    4948:	00000b77 	andeq	r0, r0, r7, ror fp
    494c:	8a072801 	bhi	1ce958 <__bss_end__+0x1c3660>
    4950:	68000000 	stmdavs	r0, {}	; <UNPREDICTABLE>
    4954:	1000009f 	mulne	r0, pc, r0	; <UNPREDICTABLE>
    4958:	01000000 	mrseq	r0, (UNDEF: 0)
    495c:	0b4d209c 	bleq	134cbd4 <__bss_end__+0x13418dc>
    4960:	10010000 	andne	r0, r1, r0
    4964:	00002c18 	andeq	r2, r0, r8, lsl ip
    4968:	08540300 	ldmdaeq	r4, {r8, r9}^
    496c:	78210000 	stmdavc	r1!, {}	; <UNPREDICTABLE>
    4970:	29100100 	ldmdbcs	r0, {r8}
    4974:	0000002c 	andeq	r0, r0, ip, lsr #32
    4978:	01006e21 	tsteq	r0, r1, lsr #28
    497c:	002c3510 	eoreq	r3, ip, r0, lsl r5
    4980:	7f0e0000 	svcvc	0x000e0000
    4984:	18000000 	stmdane	r0, {}	; <UNPREDICTABLE>
    4988:	05000005 	streq	r0, [r0, #-5]
    498c:	00aea003 	adceq	sl, lr, r3
    4990:	98200000 	stmdals	r0!, {}	; <UNPREDICTABLE>
    4994:	0100000b 	tsteq	r0, fp
    4998:	002c180d 	eoreq	r1, ip, sp, lsl #16
    499c:	70030000 	andvc	r0, r3, r0
    49a0:	21000008 	tstcs	r0, r8
    49a4:	0d010078 	stceq	0, cr0, [r1, #-480]	; 0xfffffe20
    49a8:	00002c29 	andeq	r2, r0, r9, lsr #24
    49ac:	b7200000 	strlt	r0, [r0, -r0]!
    49b0:	0100000b 	tsteq	r0, fp
    49b4:	002c1807 	eoreq	r1, ip, r7, lsl #16
    49b8:	96030000 	strls	r0, [r3], -r0
    49bc:	21000008 	tstcs	r0, r8
    49c0:	07010078 	smlsdxeq	r1, r8, r0, r0
    49c4:	00002c2c 	andeq	r2, r0, ip, lsr #24
    49c8:	006e2100 	rsbeq	r2, lr, r0, lsl #2
    49cc:	2c380701 	ldccs	7, cr0, [r8], #-4
    49d0:	00000000 	andeq	r0, r0, r0
    49d4:	000b6920 	andeq	r6, fp, r0, lsr #18
    49d8:	18040100 	stmdane	r4, {r8}
    49dc:	0000005d 	andeq	r0, r0, sp, asr r0
    49e0:	0008bc03 	andeq	fp, r8, r3, lsl #24
    49e4:	00782100 	rsbseq	r2, r8, r0, lsl #2
    49e8:	5d290401 	cfstrspl	mvf0, [r9, #-4]!
    49ec:	21000000 	mrscs	r0, (UNDEF: 0)
    49f0:	04010079 	streq	r0, [r1], #-121	; 0xffffff87
    49f4:	00005d35 	andeq	r5, r0, r5, lsr sp
    49f8:	7e220000 	cdpvc	0, 2, cr0, cr2, cr0, {0}
    49fc:	7e000006 	cdpvc	0, 0, cr0, cr0, cr6, {0}
    4a00:	02000006 	andeq	r0, r0, #6, 0
    4a04:	8c220628 	stchi	6, cr0, [r2], #-160	; 0xffffff60
    4a08:	8c000000 	stchi	0, cr0, [r0], {-0}
    4a0c:	02000000 	andeq	r0, r0, #0, 0
    4a10:	d322066e 			; <UNDEFINED> instruction: 0xd322066e
    4a14:	d300000b 	movwle	r0, #11
    4a18:	0200000b 	andeq	r0, r0, #11, 0
    4a1c:	7222061d 	eorvc	r0, r2, #30408704	; 0x1d00000
    4a20:	72000000 	andvc	r0, r0, #0, 0
    4a24:	02000000 	andeq	r0, r0, #0, 0
    4a28:	730007f7 	movwvc	r0, #2039	; 0x7f7
    4a2c:	04000006 	streq	r0, [r0], #-6
    4a30:	00199f00 	andseq	r9, r9, r0, lsl #30
    4a34:	3e010400 	cfcpyscc	mvf0, mvf1
    4a38:	0c000005 	stceq	0, cr0, [r0], {5}
    4a3c:	00000c25 	andeq	r0, r0, r5, lsr #24
    4a40:	0000061c 	andeq	r0, r0, ip, lsl r6
    4a44:	0000a318 	andeq	sl, r0, r8, lsl r3
    4a48:	00000198 	muleq	r0, r8, r1
    4a4c:	000025ee 	andeq	r2, r0, lr, ror #11
    4a50:	9d070802 	stcls	8, cr0, [r7, #-8]
    4a54:	02000001 	andeq	r0, r0, #1, 0
    4a58:	01a70704 			; <UNDEFINED> instruction: 0x01a70704
    4a5c:	04030000 	streq	r0, [r3], #-0
    4a60:	746e6905 	strbtvc	r6, [lr], #-2309	; 0xfffff6fb
    4a64:	002c0400 	eoreq	r0, ip, r0, lsl #8
    4a68:	01020000 	mrseq	r0, (UNDEF: 2)
    4a6c:	0000a806 	andeq	sl, r0, r6, lsl #16
    4a70:	05020200 	streq	r0, [r2, #-512]	; 0xfffffe00
    4a74:	00000000 	andeq	r0, r0, r0
    4a78:	69050402 	stmdbvs	r5, {r1, sl}
    4a7c:	02000000 	andeq	r0, r0, #0, 0
    4a80:	00640508 	rsbeq	r0, r4, r8, lsl #10
    4a84:	01020000 	mrseq	r0, (UNDEF: 2)
    4a88:	0000a608 	andeq	sl, r0, r8, lsl #12
    4a8c:	07020200 	streq	r0, [r2, -r0, lsl #4]
    4a90:	000001ee 	andeq	r0, r0, lr, ror #3
    4a94:	0001b405 	andeq	fp, r1, r5, lsl #8
    4a98:	19340300 	ldmdbne	r4!, {r8, r9}
    4a9c:	00000075 	andeq	r0, r0, r5, ror r0
    4aa0:	a2070402 	andge	r0, r7, #33554432	; 0x2000000
    4aa4:	06000001 	streq	r0, [r0], -r1
    4aa8:	00000033 	andeq	r0, r0, r3, lsr r0
    4aac:	0000008b 	andeq	r0, r0, fp, lsl #1
    4ab0:	00003307 	andeq	r3, r0, r7, lsl #6
    4ab4:	40080000 	andmi	r0, r8, r0
    4ab8:	02000000 	andeq	r0, r0, #0, 0
    4abc:	00970e1c 	addseq	r0, r7, ip, lsl lr
    4ac0:	04090000 	streq	r0, [r9], #-0
    4ac4:	0000007c 	andeq	r0, r0, ip, ror r0
    4ac8:	00003306 	andeq	r3, r0, r6, lsl #6
    4acc:	0000ac00 	andeq	sl, r0, r0, lsl #24
    4ad0:	00ac0700 	adceq	r0, ip, r0, lsl #14
    4ad4:	09000000 	stmdbeq	r0, {}	; <UNPREDICTABLE>
    4ad8:	0000b904 	andeq	fp, r0, r4, lsl #18
    4adc:	08010200 	stmdaeq	r1, {r9}
    4ae0:	000000af 	andeq	r0, r0, pc, lsr #1
    4ae4:	0000b204 	andeq	fp, r0, r4, lsl #4
    4ae8:	06bc0800 	ldrteq	r0, [ip], r0, lsl #16
    4aec:	21020000 	mrscs	r0, (UNDEF: 2)
    4af0:	0000ca0e 	andeq	ip, r0, lr, lsl #20
    4af4:	9d040900 	vstrls.16	s0, [r4, #-0]	; <UNPREDICTABLE>
    4af8:	0a000000 	beq	4b00 <__code_start__-0x3500>
    4afc:	005b0107 	subseq	r0, fp, r7, lsl #2
    4b00:	0c040000 	stceq	0, cr0, [r4], {-0}
    4b04:	00010f0e 	andeq	r0, r1, lr, lsl #30
    4b08:	0af40b00 	beq	ffd07710 <__bss_end__+0xffcfc418>
    4b0c:	0b000000 	bleq	4b14 <__code_start__-0x34ec>
    4b10:	0000092c 	andeq	r0, r0, ip, lsr #18
    4b14:	096f0b01 	stmdbeq	pc!, {r0, r8, r9, fp}^	; <UNPREDICTABLE>
    4b18:	0b040000 	bleq	104b20 <__bss_end__+0xf9828>
    4b1c:	0000097e 	andeq	r0, r0, lr, ror r9
    4b20:	098d0b05 	stmibeq	sp, {r0, r2, r8, r9, fp}
    4b24:	0b060000 	bleq	184b2c <__bss_end__+0x179834>
    4b28:	0000099c 	muleq	r0, ip, r9
    4b2c:	0abd0b07 	beq	fef47750 <__bss_end__+0xfef3c458>
    4b30:	0b030000 	bleq	c4b38 <__bss_end__+0xb9840>
    4b34:	000009ab 	andeq	r0, r0, fp, lsr #19
    4b38:	5e050002 	cdppl	0, 0, cr0, cr5, cr2, {0}
    4b3c:	0400000c 	streq	r0, [r0], #-12
    4b40:	00d00315 	sbcseq	r0, r0, r5, lsl r3
    4b44:	fc0c0000 	stc2	0, cr0, [ip], {-0}
    4b48:	0100000b 	tsteq	r0, fp
    4b4c:	003a171d 	eorseq	r1, sl, sp, lsl r7
    4b50:	001c0000 	andseq	r0, ip, r0
    4b54:	f20c2020 	vhadd.s8	d2, d12, d16
    4b58:	0100000b 	tsteq	r0, fp
    4b5c:	003a171e 	eorseq	r1, sl, lr, lsl r7
    4b60:	00280000 	eoreq	r0, r8, r0
    4b64:	6a0c2020 	bvs	30cbec <__bss_end__+0x3018f4>
    4b68:	0100000c 	tsteq	r0, ip
    4b6c:	003a171f 	eorseq	r1, sl, pc, lsl r7
    4b70:	00340000 	eorseq	r0, r4, r0
    4b74:	1b0d2020 	blne	34cbfc <__bss_end__+0x341904>
    4b78:	0100000c 	tsteq	r0, ip
    4b7c:	00330551 	eorseq	r0, r3, r1, asr r5
    4b80:	a4880000 	strge	r0, [r8], #0
    4b84:	00280000 	eoreq	r0, r8, r0
    4b88:	9c010000 	stcls	0, cr0, [r1], {-0}
    4b8c:	000001ba 			; <UNDEFINED> instruction: 0x000001ba
    4b90:	6e69700e 	cdpvs	0, 6, cr7, cr9, cr14, {0}
    4b94:	18510100 	ldmdane	r1, {r8}^
    4b98:	0000002c 	andeq	r0, r0, ip, lsr #32
    4b9c:	00002e56 	andeq	r2, r0, r6, asr lr
    4ba0:	00002e50 	andeq	r2, r0, r0, asr lr
    4ba4:	000c740f 	andeq	r7, ip, pc, lsl #8
    4ba8:	0e520100 	rdfeqs	f0, f2, f0
    4bac:	0000002c 	andeq	r0, r0, ip, lsr #32
    4bb0:	00002e8c 	andeq	r2, r0, ip, lsl #29
    4bb4:	00002e82 	andeq	r2, r0, r2, lsl #29
    4bb8:	66666f10 	uqadd16vs	r6, r6, r0
    4bbc:	0e530100 	rdfeqs	f0, f3, f0
    4bc0:	0000002c 	andeq	r0, r0, ip, lsr #32
    4bc4:	00002efa 	strdeq	r2, [r0], -sl
    4bc8:	00002ef4 	strdeq	r2, [r0], -r4
    4bcc:	00a49c11 	adceq	r9, r4, r1, lsl ip
    4bd0:	00065e00 	andeq	r5, r6, r0, lsl #28
    4bd4:	50011200 	andpl	r1, r1, r0, lsl #4
    4bd8:	3500740a 	strcc	r7, [r0, #-1034]	; 0xfffffbf6
    4bdc:	80b42325 	adcshi	r2, r4, r5, lsr #6
    4be0:	00028180 	andeq	r8, r2, r0, lsl #3
    4be4:	0c061300 	stceq	3, cr1, [r6], {-0}
    4be8:	4a010000 	bmi	44bf0 <__bss_end__+0x398f8>
    4bec:	00a45806 	adceq	r5, r4, r6, lsl #16
    4bf0:	00003000 	andeq	r3, r0, r0
    4bf4:	759c0100 	ldrvc	r0, [ip, #256]	; 0x100
    4bf8:	0e000002 	cdpeq	0, 0, cr0, cr0, cr2, {0}
    4bfc:	006e6970 	rsbeq	r6, lr, r0, ror r9
    4c00:	2c1a4a01 			; <UNDEFINED> instruction: 0x2c1a4a01
    4c04:	37000000 	strcc	r0, [r0, -r0]
    4c08:	2b00002f 	blcs	4ccc <__code_start__-0x3334>
    4c0c:	0e00002f 	cdpeq	0, 0, cr0, cr0, cr15, {1}
    4c10:	4a010076 	bmi	44df0 <__bss_end__+0x39af8>
    4c14:	00002c28 	andeq	r2, r0, r8, lsr #24
    4c18:	002f8b00 	eoreq	r8, pc, r0, lsl #22
    4c1c:	002f8700 	eoreq	r8, pc, r0, lsl #14
    4c20:	038d1400 	orreq	r1, sp, #0, 8
    4c24:	a4680000 	strbtge	r0, [r8], #-0
    4c28:	20010000 	andcs	r0, r1, r0
    4c2c:	01000005 	tsteq	r0, r5
    4c30:	0235094c 	eorseq	r0, r5, #76, 18	; 0x130000
    4c34:	9a150000 	bls	544c3c <__bss_end__+0x539944>
    4c38:	b2000003 	andlt	r0, r0, #3, 0
    4c3c:	ac00002f 	stcge	0, cr0, [r0], {47}	; 0x2f
    4c40:	1600002f 	strne	r0, [r0], -pc, lsr #32
    4c44:	0000a474 	andeq	sl, r0, r4, ror r4
    4c48:	0000066a 	andeq	r0, r0, sl, ror #12
    4c4c:	05500112 	ldrbeq	r0, [r0, #-274]	; 0xfffffeee
    4c50:	20001c0c 	andcs	r1, r0, ip, lsl #24
    4c54:	51011220 	tstpl	r1, r0, lsr #4
    4c58:	01f33105 	mvnseq	r3, r5, lsl #2
    4c5c:	00002450 	andeq	r2, r0, r0, asr r4
    4c60:	00037317 	andeq	r7, r3, r7, lsl r3
    4c64:	00a47400 	adceq	r7, r4, r0, lsl #8
    4c68:	a4740200 	ldrbtge	r0, [r4], #-512	; 0xfffffe00
    4c6c:	00140000 	andseq	r0, r4, r0
    4c70:	4e010000 	cdpmi	0, 0, cr0, cr1, cr0, {0}
    4c74:	03801509 	orreq	r1, r0, #37748736	; 0x2400000
    4c78:	2fe40000 	svccs	0x00e40000
    4c7c:	2fde0000 	svccs	0x00de0000
    4c80:	80160000 	andshi	r0, r6, r0
    4c84:	6a0000a4 	bvs	4f1c <__code_start__-0x30e4>
    4c88:	12000006 	andne	r0, r0, #6, 0
    4c8c:	0c055001 	stceq	0, cr5, [r5], {1}
    4c90:	20200028 	eorcs	r0, r0, r8, lsr #32
    4c94:	05510112 	ldrbeq	r0, [r1, #-274]	; 0xfffffeee
    4c98:	5001f331 	andpl	pc, r1, r1, lsr r3	; <UNPREDICTABLE>
    4c9c:	00000024 	andeq	r0, r0, r4, lsr #32
    4ca0:	000c3213 	andeq	r3, ip, r3, lsl r2
    4ca4:	06450100 	strbeq	r0, [r5], -r0, lsl #2
    4ca8:	0000a400 	andeq	sl, r0, r0, lsl #8
    4cac:	00000058 	andeq	r0, r0, r8, asr r0
    4cb0:	03739c01 	cmneq	r3, #256	; 0x100
    4cb4:	700e0000 	andvc	r0, lr, r0
    4cb8:	01006e69 	tsteq	r0, r9, ror #28
    4cbc:	002c1e45 	eoreq	r1, ip, r5, asr #28
    4cc0:	30160000 	andscc	r0, r6, r0
    4cc4:	30100000 	andscc	r0, r0, r0
    4cc8:	a5180000 	ldrge	r0, [r8, #-0]
    4ccc:	00000004 	andeq	r0, r0, r4
    4cd0:	020000a4 	andeq	r0, r0, #164, 0	; 0xa4
    4cd4:	000004e0 	andeq	r0, r0, r0, ror #9
    4cd8:	19054601 	stmdbne	r5, {r0, r9, sl, lr}
    4cdc:	000004be 			; <UNDEFINED> instruction: 0x000004be
    4ce0:	04b21500 	ldrteq	r1, [r2], #1280	; 0x500
    4ce4:	30480000 	subcc	r0, r8, r0
    4ce8:	30420000 	subcc	r0, r2, r0
    4cec:	e01a0000 	ands	r0, sl, r0
    4cf0:	1b000004 	blne	4d08 <__code_start__-0x32f8>
    4cf4:	000004ca 	andeq	r0, r0, sl, asr #9
    4cf8:	0004d61b 	andeq	sp, r4, fp, lsl r6
    4cfc:	04e01b00 	strbteq	r1, [r0], #2816	; 0xb00
    4d00:	a5180000 	ldrge	r0, [r8, #-0]
    4d04:	08000004 	stmdaeq	r0, {r2}
    4d08:	000000a4 	andeq	r0, r0, r4, lsr #1
    4d0c:	00000500 	andeq	r0, r0, r0, lsl #10
    4d10:	19062801 	stmdbne	r6, {r0, fp, sp}
    4d14:	000004be 			; <UNDEFINED> instruction: 0x000004be
    4d18:	04b21500 	ldrteq	r1, [r2], #1280	; 0x500
    4d1c:	307a0000 	rsbscc	r0, sl, r0
    4d20:	30740000 	rsbscc	r0, r4, r0
    4d24:	001a0000 	andseq	r0, sl, r0
    4d28:	1c000005 	stcne	0, cr0, [r0], {5}
    4d2c:	000004ca 	andeq	r0, r0, sl, asr #9
    4d30:	000030ac 	andeq	r3, r0, ip, lsr #1
    4d34:	000030a6 	andeq	r3, r0, r6, lsr #1
    4d38:	0004d61c 	andeq	sp, r4, ip, lsl r6
    4d3c:	0030ee00 	eorseq	lr, r0, r0, lsl #28
    4d40:	0030e800 	eorseq	lr, r0, r0, lsl #16
    4d44:	04e01c00 	strbteq	r1, [r0], #3072	; 0xc00
    4d48:	31440000 	mrscc	r0, (UNDEF: 68)
    4d4c:	313c0000 	teqcc	ip, r0
    4d50:	301d0000 	andscc	r0, sp, r0
    4d54:	5e0000a4 	cdppl	0, 0, cr0, cr0, cr4, {5}
    4d58:	3b000006 	blcc	4d78 <__code_start__-0x3288>
    4d5c:	12000003 	andne	r0, r0, #3, 0
    4d60:	76025001 	strvc	r5, [r2], -r1
    4d64:	54160000 	ldrpl	r0, [r6], #-0
    4d68:	6a0000a4 	bvs	5000 <__code_start__-0x3000>
    4d6c:	12000006 	andne	r0, r0, #6, 0
    4d70:	f3255001 	vhadd.u32	d5, d5, d1
    4d74:	2cf75001 	ldclcs	0, cr5, [r7], #4
    4d78:	25f425f7 	ldrbcs	r2, [r4, #1527]!	; 0x5f7
    4d7c:	cccccd08 	stclgt	13, cr12, [ip], {8}
    4d80:	000000cc 	andeq	r0, r0, ip, asr #1
    4d84:	20081e00 	andcs	r1, r8, r0, lsl #28
    4d88:	f72525f7 			; <UNDEFINED> instruction: 0xf72525f7
    4d8c:	3300f72c 	movwcc	pc, #1836	; 0x72c	; <UNPREDICTABLE>
    4d90:	80802325 	addhi	r2, r0, r5, lsr #6
    4d94:	243240a0 	ldrtcs	r4, [r2], #-160	; 0xffffff60
    4d98:	00000000 	andeq	r0, r0, r0
    4d9c:	411e0000 	tstmi	lr, r0
    4da0:	0100000c 	tsteq	r0, ip
    4da4:	8d030d40 	stchi	13, cr0, [r3, #-256]	; 0xffffff00
    4da8:	1f000003 	svcne	0x00000003
    4dac:	006e6970 	rsbeq	r6, lr, r0, ror r9
    4db0:	2c234001 	stccs	0, cr4, [r3], #-4
    4db4:	00000000 	andeq	r0, r0, r0
    4db8:	000c791e 	andeq	r7, ip, lr, lsl r9
    4dbc:	0d3b0100 	ldfeqs	f0, [fp, #-0]
    4dc0:	0003a703 	andeq	sl, r3, r3, lsl #14
    4dc4:	69701f00 	ldmdbvs	r0!, {r8, r9, sl, fp, ip}^
    4dc8:	3b01006e 	blcc	44f88 <__bss_end__+0x39c90>
    4dcc:	00002c22 	andeq	r2, r0, r2, lsr #24
    4dd0:	4e130000 	cdpmi	0, 1, cr0, cr3, cr0, {0}
    4dd4:	0100000c 	tsteq	r0, ip
    4dd8:	a3780636 	cmnge	r8, #56623104	; 0x3600000
    4ddc:	00580000 	subseq	r0, r8, r0
    4de0:	9c010000 	stcls	0, cr0, [r1], {-0}
    4de4:	000004a5 	andeq	r0, r0, r5, lsr #9
    4de8:	6e69700e 	cdpvs	0, 6, cr7, cr9, cr14, {0}
    4dec:	1f360100 	svcne	0x00360100
    4df0:	0000002c 	andeq	r0, r0, ip, lsr #32
    4df4:	000031a2 	andeq	r3, r0, r2, lsr #3
    4df8:	0000319e 	muleq	r0, lr, r1
    4dfc:	0004a518 	andeq	sl, r4, r8, lsl r5
    4e00:	00a37800 	adceq	r7, r3, r0, lsl #16
    4e04:	04a00200 	strteq	r0, [r0], #512	; 0x200
    4e08:	37010000 	strcc	r0, [r1, -r0]
    4e0c:	04be1905 	ldrteq	r1, [lr], #2309	; 0x905
    4e10:	15010000 	strne	r0, [r1, #-0]
    4e14:	000004b2 			; <UNDEFINED> instruction: 0x000004b2
    4e18:	000031c7 	andeq	r3, r0, r7, asr #3
    4e1c:	000031c3 	andeq	r3, r0, r3, asr #3
    4e20:	0004a01a 	andeq	sl, r4, sl, lsl r0
    4e24:	04ca1b00 	strbeq	r1, [sl], #2816	; 0xb00
    4e28:	d61b0000 	ldrle	r0, [fp], -r0
    4e2c:	1b000004 	blne	4e44 <__code_start__-0x31bc>
    4e30:	000004e0 	andeq	r0, r0, r0, ror #9
    4e34:	0004a518 	andeq	sl, r4, r8, lsl r5
    4e38:	00a38000 	adceq	r8, r3, r0
    4e3c:	04c00000 	strbeq	r0, [r0], #0
    4e40:	28010000 	stmdacs	r1, {}	; <UNPREDICTABLE>
    4e44:	04be1906 	ldrteq	r1, [lr], #2310	; 0x906
    4e48:	15010000 	strne	r0, [r1, #-0]
    4e4c:	000004b2 			; <UNDEFINED> instruction: 0x000004b2
    4e50:	000031ec 	andeq	r3, r0, ip, ror #3
    4e54:	000031e8 	andeq	r3, r0, r8, ror #3
    4e58:	0004c01a 	andeq	ip, r4, sl, lsl r0
    4e5c:	04ca1c00 	strbeq	r1, [sl], #3072	; 0xc00
    4e60:	32110000 	andscc	r0, r1, #0, 0
    4e64:	320d0000 	andcc	r0, sp, #0, 0
    4e68:	d61c0000 	ldrle	r0, [ip], -r0
    4e6c:	5d000004 	stcpl	0, cr0, [r0, #-16]
    4e70:	57000032 	smladxpl	r0, r2, r0, r0
    4e74:	1c000032 	stcne	0, cr0, [r0], {50}	; 0x32
    4e78:	000004e0 	andeq	r0, r0, r0, ror #9
    4e7c:	000032b3 			; <UNDEFINED> instruction: 0x000032b3
    4e80:	000032ab 	andeq	r3, r0, fp, lsr #5
    4e84:	00a3ac1d 	adceq	sl, r3, sp, lsl ip
    4e88:	00065e00 	andeq	r5, r6, r0, lsl #28
    4e8c:	00046d00 	andeq	r6, r4, r0, lsl #26
    4e90:	50011200 	andpl	r1, r1, r0, lsl #4
    4e94:	00007502 	andeq	r7, r0, r2, lsl #10
    4e98:	00a3cc16 	adceq	ip, r3, r6, lsl ip
    4e9c:	00066a00 	andeq	r6, r6, r0, lsl #20
    4ea0:	50011200 	andpl	r1, r1, r0, lsl #4
    4ea4:	5001f325 	andpl	pc, r1, r5, lsr #6
    4ea8:	25f72cf7 	ldrbcs	r2, [r7, #3319]!	; 0xcf7
    4eac:	cd0825f4 	cfstr32gt	mvfx2, [r8, #-976]	; 0xfffffc30
    4eb0:	00cccccc 	sbceq	ip, ip, ip, asr #25
    4eb4:	1e000000 	cdpne	0, 0, cr0, cr0, cr0, {0}
    4eb8:	25f72008 	ldrbcs	r2, [r7, #8]!
    4ebc:	f72cf725 			; <UNDEFINED> instruction: 0xf72cf725
    4ec0:	23253300 			; <UNDEFINED> instruction: 0x23253300
    4ec4:	40a08080 	adcmi	r8, r0, r0, lsl #1
    4ec8:	00002432 	andeq	r2, r0, r2, lsr r4
    4ecc:	00000000 	andeq	r0, r0, r0
    4ed0:	000b041e 	andeq	r0, fp, lr, lsl r4
    4ed4:	06280100 	strteq	r0, [r8], -r0, lsl #2
    4ed8:	0004eb01 	andeq	lr, r4, r1, lsl #22
    4edc:	69701f00 	ldmdbvs	r0!, {r8, r9, sl, fp, ip}^
    4ee0:	2801006e 	stmdacs	r1, {r1, r2, r3, r5, r6}
    4ee4:	00002c21 	andeq	r2, r0, r1, lsr #24
    4ee8:	005f2000 	subseq	r2, pc, r0
    4eec:	28010000 	stmdacs	r1, {}	; <UNPREDICTABLE>
    4ef0:	00010f32 	andeq	r0, r1, r2, lsr pc
    4ef4:	666f2100 	strbtvs	r2, [pc], -r0, lsl #2
    4ef8:	2d010066 	stccs	0, cr0, [r1, #-408]	; 0xfffffe68
    4efc:	00002c0e 	andeq	r2, r0, lr, lsl #24
    4f00:	00672100 	rsbeq	r2, r7, r0, lsl #2
    4f04:	2c0e2e01 	stccs	14, cr2, [lr], {1}
    4f08:	21000000 	mrscs	r0, (UNDEF: 0)
    4f0c:	30010076 	andcc	r0, r1, r6, ror r0
    4f10:	00002c0e 	andeq	r2, r0, lr, lsl #24
    4f14:	11220000 			; <UNDEFINED> instruction: 0x11220000
    4f18:	0200000c 	andeq	r0, r0, #12, 0
    4f1c:	006918b6 	strhteq	r1, [r9], #-134	; 0xffffff7a
    4f20:	07030000 	streq	r0, [r3, -r0]
    4f24:	1f000005 	svcne	0x00000005
    4f28:	b6020078 			; <UNDEFINED> instruction: 0xb6020078
    4f2c:	0000692b 	andeq	r6, r0, fp, lsr #18
    4f30:	a5230000 	strge	r0, [r3, #-0]!
    4f34:	18000004 	stmdane	r0, {r2}
    4f38:	600000a3 	andvs	r0, r0, r3, lsr #1
    4f3c:	01000000 	mrseq	r0, (UNDEF: 0)
    4f40:	0005e49c 	muleq	r5, ip, r4
    4f44:	04b21500 	ldrteq	r1, [r2], #1280	; 0x500
    4f48:	32f20000 	rscscc	r0, r2, #0, 0
    4f4c:	32ee0000 	rsccc	r0, lr, #0, 0
    4f50:	be150000 	cdplt	0, 1, cr0, cr5, cr0, {0}
    4f54:	17000004 	strne	r0, [r0, -r4]
    4f58:	13000033 	movwne	r0, #51	; 0x33
    4f5c:	1b000033 	blne	5030 <__code_start__-0x2fd0>
    4f60:	000004ca 	andeq	r0, r0, sl, asr #9
    4f64:	0004d61b 	andeq	sp, r4, fp, lsl r6
    4f68:	04e01b00 	strbteq	r1, [r0], #2816	; 0xb00
    4f6c:	a5180000 	ldrge	r0, [r8, #-0]
    4f70:	20000004 	andcs	r0, r0, r4
    4f74:	000000a3 	andeq	r0, r0, r3, lsr #1
    4f78:	00000480 	andeq	r0, r0, r0, lsl #9
    4f7c:	15062801 	strne	r2, [r6, #-2049]	; 0xfffff7ff
    4f80:	000004be 			; <UNDEFINED> instruction: 0x000004be
    4f84:	0000333c 	andeq	r3, r0, ip, lsr r3
    4f88:	00003338 	andeq	r3, r0, r8, lsr r3
    4f8c:	0004b215 	andeq	fp, r4, r5, lsl r2
    4f90:	00336100 	eorseq	r6, r3, r0, lsl #2
    4f94:	00335d00 	eorseq	r5, r3, r0, lsl #26
    4f98:	04801a00 	streq	r1, [r0], #2560	; 0xa00
    4f9c:	ca1c0000 	bgt	704fa4 <__bss_end__+0x6f9cac>
    4fa0:	86000004 	strhi	r0, [r0], -r4
    4fa4:	82000033 	andhi	r0, r0, #51, 0	; 0x33
    4fa8:	1c000033 	stcne	0, cr0, [r0], {51}	; 0x33
    4fac:	000004d6 	ldrdeq	r0, [r0], -r6
    4fb0:	000033d2 	ldrdeq	r3, [r0], -r2
    4fb4:	000033cc 	andeq	r3, r0, ip, asr #7
    4fb8:	0004e01c 	andeq	lr, r4, ip, lsl r0
    4fbc:	00342800 	eorseq	r2, r4, r0, lsl #16
    4fc0:	00342000 	eorseq	r2, r4, r0
    4fc4:	a3581d00 	cmpge	r8, #0, 26
    4fc8:	065e0000 	ldrbeq	r0, [lr], -r0
    4fcc:	05ae0000 	streq	r0, [lr, #0]!
    4fd0:	01120000 	tsteq	r2, r0
    4fd4:	00760250 	rsbseq	r0, r6, r0, asr r2
    4fd8:	a3741600 	cmnge	r4, #0, 12
    4fdc:	066a0000 	strbteq	r0, [sl], -r0
    4fe0:	01120000 	tsteq	r2, r0
    4fe4:	01f32550 	mvnseq	r2, r0, asr r5
    4fe8:	f72cf750 			; <UNDEFINED> instruction: 0xf72cf750
    4fec:	0825f425 	stmdaeq	r5!, {r0, r2, r5, sl, ip, sp, lr, pc}
    4ff0:	cccccccd 	stclgt	12, cr12, [ip], {205}	; 0xcd
    4ff4:	00000000 	andeq	r0, r0, r0
    4ff8:	f720081e 			; <UNDEFINED> instruction: 0xf720081e
    4ffc:	2cf72525 	cfldr64cs	mvdx2, [r7], #148	; 0x94
    5000:	253300f7 	ldrcs	r0, [r3, #-247]!	; 0xffffff09
    5004:	a0808023 	addge	r8, r0, r3, lsr #32
    5008:	00243240 	eoreq	r3, r4, r0, asr #4
    500c:	23000000 	movwcs	r0, #0
    5010:	0000038d 	andeq	r0, r0, sp, lsl #7
    5014:	0000a3d0 	ldrdeq	sl, [r0], -r0
    5018:	00000018 	andeq	r0, r0, r8, lsl r0
    501c:	06219c01 	strteq	r9, [r1], -r1, lsl #24
    5020:	9a150000 	bls	545028 <__bss_end__+0x539d30>
    5024:	7e000003 	cdpvc	0, 0, cr0, cr0, cr3, {0}
    5028:	78000034 	stmdavc	r0, {r2, r4, r5}
    502c:	16000034 			; <UNDEFINED> instruction: 0x16000034
    5030:	0000a3e4 	andeq	sl, r0, r4, ror #7
    5034:	0000066a 	andeq	r0, r0, sl, ror #12
    5038:	05500112 	ldrbeq	r0, [r0, #-274]	; 0xfffffeee
    503c:	20001c0c 	andcs	r1, r0, ip, lsl #24
    5040:	51011220 	tstpl	r1, r0, lsr #4
    5044:	01f33105 	mvnseq	r3, r5, lsl #2
    5048:	00002450 	andeq	r2, r0, r0, asr r4
    504c:	00037323 	andeq	r7, r3, r3, lsr #6
    5050:	00a3e800 	adceq	lr, r3, r0, lsl #16
    5054:	00001800 	andeq	r1, r0, r0, lsl #16
    5058:	5e9c0100 	fmlple	f0, f4, f0
    505c:	15000006 	strne	r0, [r0, #-6]
    5060:	00000380 	andeq	r0, r0, r0, lsl #7
    5064:	000034b0 			; <UNDEFINED> instruction: 0x000034b0
    5068:	000034aa 	andeq	r3, r0, sl, lsr #9
    506c:	00a3fc16 	adceq	pc, r3, r6, lsl ip	; <UNPREDICTABLE>
    5070:	00066a00 	andeq	r6, r6, r0, lsl #20
    5074:	50011200 	andpl	r1, r1, r0, lsl #4
    5078:	00280c05 	eoreq	r0, r8, r5, lsl #24
    507c:	01122020 	tsteq	r2, r0, lsr #32
    5080:	f3310551 	vqrshl.u64	q0, <illegal reg q0.5>, <illegal reg q0.5>
    5084:	00245001 	eoreq	r5, r4, r1
    5088:	08d92400 	ldmeq	r9, {sl, sp}^
    508c:	08d90000 	ldmeq	r9, {}^	; <UNPREDICTABLE>
    5090:	c7020000 	strgt	r0, [r2, -r0]
    5094:	0059240a 	subseq	r2, r9, sl, lsl #8
    5098:	00590000 	subseq	r0, r9, r0
    509c:	b2020000 	andlt	r0, r2, #0, 0
    50a0:	01490006 	cmpeq	r9, r6
    50a4:	00040000 	andeq	r0, r4, r0
    50a8:	00001bcd 	andeq	r1, r0, sp, asr #23
    50ac:	053e0104 	ldreq	r0, [lr, #-260]!	; 0xfffffefc
    50b0:	a30c0000 	movwge	r0, #49152	; 0xc000
    50b4:	1c00000c 	stcne	0, cr0, [r0], {12}
    50b8:	b0000006 	andlt	r0, r0, r6
    50bc:	3c0000a4 	stccc	0, cr0, [r0], {164}	; 0xa4
    50c0:	7b000000 	blvc	50c8 <__code_start__-0x2f38>
    50c4:	02000028 	andeq	r0, r0, #40, 0	; 0x28
    50c8:	6e690504 	cdpvs	5, 6, cr0, cr9, cr4, {0}
    50cc:	04030074 	streq	r0, [r3], #-116	; 0xffffff8c
    50d0:	0001a707 	andeq	sl, r1, r7, lsl #14
    50d4:	06010300 	streq	r0, [r1], -r0, lsl #6
    50d8:	000000a8 	andeq	r0, r0, r8, lsr #1
    50dc:	00050203 	andeq	r0, r5, r3, lsl #4
    50e0:	03000000 	movweq	r0, #0
    50e4:	00690504 	rsbeq	r0, r9, r4, lsl #10
    50e8:	08030000 	stmdaeq	r3, {}	; <UNPREDICTABLE>
    50ec:	00006405 	andeq	r6, r0, r5, lsl #8
    50f0:	08010300 	stmdaeq	r1, {r8, r9}
    50f4:	000000a6 	andeq	r0, r0, r6, lsr #1
    50f8:	ee070203 	cdp	2, 0, cr0, cr7, cr3, {0}
    50fc:	03000001 	movweq	r0, #1
    5100:	01a20704 			; <UNDEFINED> instruction: 0x01a20704
    5104:	08030000 	stmdaeq	r3, {}	; <UNPREDICTABLE>
    5108:	00019d07 	andeq	r9, r1, r7, lsl #26
    510c:	00250400 	eoreq	r0, r5, r0, lsl #8
    5110:	007a0000 	rsbseq	r0, sl, r0
    5114:	25050000 	strcs	r0, [r5, #-0]
    5118:	00000000 	andeq	r0, r0, r0
    511c:	00004006 	andeq	r4, r0, r6
    5120:	0e1c0200 	cdpeq	2, 1, cr0, cr12, cr0, {0}
    5124:	00000086 	andeq	r0, r0, r6, lsl #1
    5128:	006b0407 	rsbeq	r0, fp, r7, lsl #8
    512c:	25040000 	strcs	r0, [r4, #-0]
    5130:	9b000000 	blls	5138 <__code_start__-0x2ec8>
    5134:	05000000 	streq	r0, [r0, #-0]
    5138:	0000009b 	muleq	r0, fp, r0
    513c:	a8040700 	stmdage	r4, {r8, r9, sl}
    5140:	03000000 	movweq	r0, #0
    5144:	00af0801 	adceq	r0, pc, r1, lsl #16
    5148:	a1080000 	mrsge	r0, (UNDEF: 8)
    514c:	06000000 	streq	r0, [r0], -r0
    5150:	000006bc 			; <UNDEFINED> instruction: 0x000006bc
    5154:	b90e2102 	stmdblt	lr, {r1, r8, sp}
    5158:	07000000 	streq	r0, [r0, -r0]
    515c:	00008c04 	andeq	r8, r0, r4, lsl #24
    5160:	007a0900 	rsbseq	r0, sl, r0, lsl #18
    5164:	06010000 	streq	r0, [r1], -r0
    5168:	c4030507 	strgt	r0, [r3], #-1287	; 0xfffffaf9
    516c:	0a0000ae 	beq	542c <__code_start__-0x2bd4>
    5170:	00000c96 	muleq	r0, r6, ip
    5174:	dc060b01 			; <UNDEFINED> instruction: 0xdc060b01
    5178:	100000a4 	andne	r0, r0, r4, lsr #1
    517c:	01000000 	mrseq	r0, (UNDEF: 0)
    5180:	0000f19c 	muleq	r0, ip, r1
    5184:	70660b00 	rsbvc	r0, r6, r0, lsl #22
    5188:	190b0100 	stmdbne	fp, {r8}
    518c:	00000086 	andeq	r0, r0, r6, lsl #1
    5190:	0c005001 	stceq	0, cr5, [r0], {1}
    5194:	00000bd3 	ldrdeq	r0, [r0], -r3
    5198:	c4060801 	strgt	r0, [r6], #-2049	; 0xfffff7ff
    519c:	180000a4 	stmdane	r0, {r2, r5, r7}
    51a0:	01000000 	mrseq	r0, (UNDEF: 0)
    51a4:	0c850d9c 	stceq	13, cr0, [r5], {156}	; 0x9c
    51a8:	03010000 	movweq	r0, #4096	; 0x1000
    51ac:	0000250c 	andeq	r2, r0, ip, lsl #10
    51b0:	00a4b000 	adceq	fp, r4, r0
    51b4:	00001400 	andeq	r1, r0, r0, lsl #8
    51b8:	409c0100 	addsmi	r0, ip, r0, lsl #2
    51bc:	0e000001 	cdpeq	0, 0, cr0, cr0, cr1, {0}
    51c0:	03010063 	movweq	r0, #4195	; 0x1063
    51c4:	00002521 	andeq	r2, r0, r1, lsr #10
    51c8:	0034e000 	eorseq	lr, r4, r0
    51cc:	0034dc00 	eorseq	sp, r4, r0, lsl #24
    51d0:	a4bc0f00 	ldrtge	r0, [ip], #3840	; 0xf00
    51d4:	01400000 	mrseq	r0, (UNDEF: 64)
    51d8:	01100000 	tsteq	r0, r0
    51dc:	00740250 	rsbseq	r0, r4, r0, asr r2
    51e0:	ea110000 	b	4451e8 <__bss_end__+0x439ef0>
    51e4:	ea00000a 	b	5214 <__code_start__-0x2dec>
    51e8:	0200000a 	andeq	r0, r0, #10, 0
    51ec:	37000642 	strcc	r0, [r0, -r2, asr #12]
    51f0:	04000001 	streq	r0, [r0], #-1
    51f4:	001cdc00 	andseq	sp, ip, r0, lsl #24
    51f8:	3e010400 	cfcpyscc	mvf0, mvf1
    51fc:	0c000005 	stceq	0, cr0, [r0], {5}
    5200:	00000cb9 			; <UNDEFINED> instruction: 0x00000cb9
    5204:	0000061c 	andeq	r0, r0, ip, lsl r6
    5208:	0000a4ec 	andeq	sl, r0, ip, ror #9
    520c:	0000002c 	andeq	r0, r0, ip, lsr #32
    5210:	0000291d 	andeq	r2, r0, sp, lsl r9
    5214:	69050402 	stmdbvs	r5, {r1, sl}
    5218:	0300746e 	movweq	r7, #1134	; 0x46e
    521c:	01a70704 			; <UNDEFINED> instruction: 0x01a70704
    5220:	01030000 	mrseq	r0, (UNDEF: 3)
    5224:	0000a806 	andeq	sl, r0, r6, lsl #16
    5228:	05020300 	streq	r0, [r2, #-768]	; 0xfffffd00
    522c:	00000000 	andeq	r0, r0, r0
    5230:	69050403 	stmdbvs	r5, {r0, r1, sl}
    5234:	03000000 	movweq	r0, #0
    5238:	00640508 	rsbeq	r0, r4, r8, lsl #10
    523c:	01030000 	mrseq	r0, (UNDEF: 3)
    5240:	0000a608 	andeq	sl, r0, r8, lsl #12
    5244:	07020300 	streq	r0, [r2, -r0, lsl #6]
    5248:	000001ee 	andeq	r0, r0, lr, ror #3
    524c:	a2070403 	andge	r0, r7, #50331648	; 0x3000000
    5250:	03000001 	movweq	r0, #1
    5254:	019d0708 	orrseq	r0, sp, r8, lsl #14
    5258:	25040000 	strcs	r0, [r4, #-0]
    525c:	7a000000 	bvc	5264 <__code_start__-0x2d9c>
    5260:	05000000 	streq	r0, [r0, #-0]
    5264:	00000025 	andeq	r0, r0, r5, lsr #32
    5268:	00400600 	subeq	r0, r0, r0, lsl #12
    526c:	1c020000 	stcne	0, cr0, [r2], {-0}
    5270:	0000860e 	andeq	r8, r0, lr, lsl #12
    5274:	6b040700 	blvs	106e7c <__bss_end__+0xfbb84>
    5278:	04000000 	streq	r0, [r0], #-0
    527c:	00000025 	andeq	r0, r0, r5, lsr #32
    5280:	0000009b 	muleq	r0, fp, r0
    5284:	00009b05 	andeq	r9, r0, r5, lsl #22
    5288:	04070000 	streq	r0, [r7], #-0
    528c:	000000a8 	andeq	r0, r0, r8, lsr #1
    5290:	af080103 	svcge	0x00080103
    5294:	08000000 	stmdaeq	r0, {}	; <UNPREDICTABLE>
    5298:	000000a1 	andeq	r0, r0, r1, lsr #1
    529c:	0006bc06 	andeq	fp, r6, r6, lsl #24
    52a0:	0e210200 	cdpeq	2, 2, cr0, cr1, cr0, {0}
    52a4:	000000b9 	strheq	r0, [r0], -r9
    52a8:	008c0407 	addeq	r0, ip, r7, lsl #8
    52ac:	32090000 	andcc	r0, r9, #0, 0
    52b0:	01000007 	tsteq	r0, r7
    52b4:	01340704 	teqeq	r4, r4, lsl #14
    52b8:	a4ec0000 	strbtge	r0, [ip], #0
    52bc:	002c0000 	eoreq	r0, ip, r0
    52c0:	9c010000 	stcls	0, cr0, [r1], {-0}
    52c4:	00000134 	andeq	r0, r0, r4, lsr r1
    52c8:	000cb40a 	andeq	fp, ip, sl, lsl #8
    52cc:	15040100 	strne	r0, [r4, #-256]	; 0xffffff00
    52d0:	00000134 	andeq	r0, r0, r4, lsr r1
    52d4:	730b5001 	movwvc	r5, #45057	; 0xb001
    52d8:	01006372 	tsteq	r0, r2, ror r3
    52dc:	009b2704 	addseq	r2, fp, r4, lsl #14
    52e0:	35020000 	strcc	r0, [r2, #-0]
    52e4:	34fe0000 	ldrbtcc	r0, [lr], #0
    52e8:	730c0000 	movwvc	r0, #49152	; 0xc000
    52ec:	05010031 	streq	r0, [r1, #-49]	; 0xffffffcf
    52f0:	0001340b 	andeq	r3, r1, fp, lsl #8
    52f4:	00353100 	eorseq	r3, r5, r0, lsl #2
    52f8:	00352300 	eorseq	r2, r5, r0, lsl #6
    52fc:	32730c00 	rsbscc	r0, r3, #0, 24
    5300:	11060100 	mrsne	r0, (UNDEF: 22)
    5304:	0000009b 	muleq	r0, fp, r0
    5308:	00003590 	muleq	r0, r0, r5
    530c:	0000358a 	andeq	r3, r0, sl, lsl #11
    5310:	0100630c 	tsteq	r0, ip, lsl #6
    5314:	00a10a07 	adceq	r0, r1, r7, lsl #20
    5318:	35c10000 	strbcc	r0, [r1]
    531c:	35bb0000 	ldrcc	r0, [fp, #0]!
    5320:	07000000 	streq	r0, [r0, -r0]
    5324:	0000a104 	andeq	sl, r0, r4, lsl #2
    5328:	00f70000 	rscseq	r0, r7, r0
    532c:	00040000 	andeq	r0, r4, r0
    5330:	00001d92 	muleq	r0, r2, sp
    5334:	053e0104 	ldreq	r0, [lr, #-260]!	; 0xfffffefc
    5338:	c90c0000 	stmdbgt	ip, {}	; <UNPREDICTABLE>
    533c:	1c00000c 	stcne	0, cr0, [r0], {12}
    5340:	18000006 	stmdane	r0, {r1, r2}
    5344:	440000a5 	strmi	r0, [r0], #-165	; 0xffffff5b
    5348:	03000000 	movweq	r0, #0
    534c:	0200002a 	andeq	r0, r0, #42, 0	; 0x2a
    5350:	6e690504 	cdpvs	5, 6, cr0, cr9, cr4, {0}
    5354:	04030074 	streq	r0, [r3], #-116	; 0xffffff8c
    5358:	0001a707 	andeq	sl, r1, r7, lsl #14
    535c:	06010300 	streq	r0, [r1], -r0, lsl #6
    5360:	000000a8 	andeq	r0, r0, r8, lsr #1
    5364:	00050203 	andeq	r0, r5, r3, lsl #4
    5368:	03000000 	movweq	r0, #0
    536c:	00690504 	rsbeq	r0, r9, r4, lsl #10
    5370:	08030000 	stmdaeq	r3, {}	; <UNPREDICTABLE>
    5374:	00006405 	andeq	r6, r0, r5, lsl #8
    5378:	08010300 	stmdaeq	r1, {r8, r9}
    537c:	000000a6 	andeq	r0, r0, r6, lsr #1
    5380:	ee070203 	cdp	2, 0, cr0, cr7, cr3, {0}
    5384:	03000001 	movweq	r0, #1
    5388:	01a20704 			; <UNDEFINED> instruction: 0x01a20704
    538c:	08030000 	stmdaeq	r3, {}	; <UNPREDICTABLE>
    5390:	00019d07 	andeq	r9, r1, r7, lsl #26
    5394:	00250400 	eoreq	r0, r5, r0, lsl #8
    5398:	007a0000 	rsbseq	r0, sl, r0
    539c:	25050000 	strcs	r0, [r5, #-0]
    53a0:	00000000 	andeq	r0, r0, r0
    53a4:	00004006 	andeq	r4, r0, r6
    53a8:	0e1c0200 	cdpeq	2, 1, cr0, cr12, cr0, {0}
    53ac:	00000086 	andeq	r0, r0, r6, lsl #1
    53b0:	006b0407 	rsbeq	r0, fp, r7, lsl #8
    53b4:	25040000 	strcs	r0, [r4, #-0]
    53b8:	9b000000 	blls	53c0 <__code_start__-0x2c40>
    53bc:	05000000 	streq	r0, [r0, #-0]
    53c0:	0000009b 	muleq	r0, fp, r0
    53c4:	a8040700 	stmdage	r4, {r8, r9, sl}
    53c8:	03000000 	movweq	r0, #0
    53cc:	00af0801 	adceq	r0, pc, r1, lsl #16
    53d0:	a1080000 	mrsge	r0, (UNDEF: 8)
    53d4:	06000000 	streq	r0, [r0], -r0
    53d8:	000006bc 			; <UNDEFINED> instruction: 0x000006bc
    53dc:	b90e2102 	stmdblt	lr, {r1, r8, sp}
    53e0:	07000000 	streq	r0, [r0, -r0]
    53e4:	00008c04 	andeq	r8, r0, r4, lsl #24
    53e8:	07680900 	strbeq	r0, [r8, -r0, lsl #18]!
    53ec:	03010000 	movweq	r0, #4096	; 0x1000
    53f0:	00002505 	andeq	r2, r0, r5, lsl #10
    53f4:	00a51800 	adceq	r1, r5, r0, lsl #16
    53f8:	00004400 	andeq	r4, r0, r0, lsl #8
    53fc:	0a9c0100 	beq	fe705804 <__bss_end__+0xfe6fa50c>
    5400:	03010061 	movweq	r0, #4193	; 0x1061
    5404:	00009b18 	andeq	r9, r0, r8, lsl fp
    5408:	0035f800 	eorseq	pc, r5, r0, lsl #16
    540c:	0035ec00 	eorseq	lr, r5, r0, lsl #24
    5410:	00620a00 	rsbeq	r0, r2, r0, lsl #20
    5414:	9b270301 	blls	9c6020 <__bss_end__+0x9bad28>
    5418:	4c000000 	stcmi	0, cr0, [r0], {-0}
    541c:	46000036 			; <UNDEFINED> instruction: 0x46000036
    5420:	00000036 	andeq	r0, r0, r6, lsr r0
    5424:	00010f00 	andeq	r0, r1, r0, lsl #30
    5428:	21000400 	tstcs	r0, r0, lsl #8
    542c:	0400001e 	streq	r0, [r0], #-30	; 0xffffffe2
    5430:	00053e01 	andeq	r3, r5, r1, lsl #28
    5434:	0cd90c00 	ldcleq	12, cr0, [r9], {0}
    5438:	061c0000 	ldreq	r0, [ip], -r0
    543c:	a55c0000 	ldrbge	r0, [ip, #-0]
    5440:	00180000 	andseq	r0, r8, r0
    5444:	2ab90000 	bcs	fee4544c <__bss_end__+0xfee3a154>
    5448:	04020000 	streq	r0, [r2], #-0
    544c:	746e6905 	strbtvc	r6, [lr], #-2309	; 0xfffff6fb
    5450:	07040300 	streq	r0, [r4, -r0, lsl #6]
    5454:	000001a7 	andeq	r0, r0, r7, lsr #3
    5458:	a8060103 	stmdage	r6, {r0, r1, r8}
    545c:	03000000 	movweq	r0, #0
    5460:	00000502 	andeq	r0, r0, r2, lsl #10
    5464:	04030000 	streq	r0, [r3], #-0
    5468:	00006905 	andeq	r6, r0, r5, lsl #18
    546c:	05080300 	streq	r0, [r8, #-768]	; 0xfffffd00
    5470:	00000064 	andeq	r0, r0, r4, rrx
    5474:	a6080103 	strge	r0, [r8], -r3, lsl #2
    5478:	03000000 	movweq	r0, #0
    547c:	01ee0702 	mvneq	r0, r2, lsl #14
    5480:	04030000 	streq	r0, [r3], #-0
    5484:	0001a207 	andeq	sl, r1, r7, lsl #4
    5488:	07080300 	streq	r0, [r8, -r0, lsl #6]
    548c:	0000019d 	muleq	r0, sp, r1
    5490:	00002504 	andeq	r2, r0, r4, lsl #10
    5494:	00007a00 	andeq	r7, r0, r0, lsl #20
    5498:	00250500 	eoreq	r0, r5, r0, lsl #10
    549c:	06000000 	streq	r0, [r0], -r0
    54a0:	00000040 	andeq	r0, r0, r0, asr #32
    54a4:	860e1c02 	strhi	r1, [lr], -r2, lsl #24
    54a8:	07000000 	streq	r0, [r0, -r0]
    54ac:	00006b04 	andeq	r6, r0, r4, lsl #22
    54b0:	00250400 	eoreq	r0, r5, r0, lsl #8
    54b4:	009b0000 	addseq	r0, fp, r0
    54b8:	9b050000 	blls	1454c0 <__bss_end__+0x13a1c8>
    54bc:	00000000 	andeq	r0, r0, r0
    54c0:	00a80407 	adceq	r0, r8, r7, lsl #8
    54c4:	01030000 	mrseq	r0, (UNDEF: 3)
    54c8:	0000af08 	andeq	sl, r0, r8, lsl #30
    54cc:	00a10800 	adceq	r0, r1, r0, lsl #16
    54d0:	bc060000 	stclt	0, cr0, [r6], {-0}
    54d4:	02000006 	andeq	r0, r0, #6, 0
    54d8:	00b90e21 	adcseq	r0, r9, r1, lsr #28
    54dc:	04070000 	streq	r0, [r7], #-0
    54e0:	0000008c 	andeq	r0, r0, ip, lsl #1
    54e4:	00073909 	andeq	r3, r7, r9, lsl #18
    54e8:	07030100 	streq	r0, [r3, -r0, lsl #2]
    54ec:	0000010c 	andeq	r0, r0, ip, lsl #2
    54f0:	0000a55c 	andeq	sl, r0, ip, asr r5
    54f4:	00000018 	andeq	r0, r0, r8, lsl r0
    54f8:	010c9c01 	tsteq	ip, r1, lsl #24
    54fc:	730a0000 	movwvc	r0, #40960	; 0xa000
    5500:	03010031 	movweq	r0, #4145	; 0x1031
    5504:	00010c15 	andeq	r0, r1, r5, lsl ip
    5508:	0b500100 	bleq	1405910 <__bss_end__+0x13fa618>
    550c:	01003273 	tsteq	r0, r3, ror r2
    5510:	009b2603 	addseq	r2, fp, r3, lsl #12
    5514:	367b0000 	ldrbtcc	r0, [fp], -r0
    5518:	36750000 	ldrbtcc	r0, [r5], -r0
    551c:	730c0000 	movwvc	r0, #49152	; 0xc000
    5520:	14040100 	strne	r0, [r4], #-256	; 0xffffff00
    5524:	0000010c 	andeq	r0, r0, ip, lsl #2
    5528:	000036a8 	andeq	r3, r0, r8, lsr #13
    552c:	000036a6 	andeq	r3, r0, r6, lsr #13
    5530:	a1040700 	tstge	r4, r0, lsl #14
    5534:	00000000 	andeq	r0, r0, r0
    5538:	0000014e 	andeq	r0, r0, lr, asr #2
    553c:	1ed70004 	cdpne	0, 13, cr0, cr7, cr4, {0}
    5540:	01040000 	mrseq	r0, (UNDEF: 4)
    5544:	0000053e 	andeq	r0, r0, lr, lsr r5
    5548:	000ce90c 	andeq	lr, ip, ip, lsl #18
    554c:	00061c00 	andeq	r1, r6, r0, lsl #24
    5550:	00a57400 	adceq	r7, r5, r0, lsl #8
    5554:	00003000 	andeq	r3, r0, r0
    5558:	002b5a00 	eoreq	r5, fp, r0, lsl #20
    555c:	05040200 	streq	r0, [r4, #-512]	; 0xfffffe00
    5560:	00746e69 	rsbseq	r6, r4, r9, ror #28
    5564:	00065f03 	andeq	r5, r6, r3, lsl #30
    5568:	17d10300 	ldrbne	r0, [r1, r0, lsl #6]
    556c:	00000038 	andeq	r0, r0, r8, lsr r0
    5570:	a7070404 	strge	r0, [r7, -r4, lsl #8]
    5574:	04000001 	streq	r0, [r0], #-1
    5578:	00a80601 	adceq	r0, r8, r1, lsl #12
    557c:	02040000 	andeq	r0, r4, #0, 0
    5580:	00000005 	andeq	r0, r0, r5
    5584:	05040400 	streq	r0, [r4, #-1024]	; 0xfffffc00
    5588:	00000069 	andeq	r0, r0, r9, rrx
    558c:	64050804 	strvs	r0, [r5], #-2052	; 0xfffff7fc
    5590:	04000000 	streq	r0, [r0], #-0
    5594:	00a60801 	adceq	r0, r6, r1, lsl #16
    5598:	5b050000 	blpl	1455a0 <__bss_end__+0x13a2a8>
    559c:	04000000 	streq	r0, [r0], #-0
    55a0:	01ee0702 	mvneq	r0, r2, lsl #14
    55a4:	04040000 	streq	r0, [r4], #-0
    55a8:	0001a207 	andeq	sl, r1, r7, lsl #4
    55ac:	07080400 	streq	r0, [r8, -r0, lsl #8]
    55b0:	0000019d 	muleq	r0, sp, r1
    55b4:	00002506 	andeq	r2, r0, r6, lsl #10
    55b8:	00008b00 	andeq	r8, r0, r0, lsl #22
    55bc:	00250700 	eoreq	r0, r5, r0, lsl #14
    55c0:	08000000 	stmdaeq	r0, {}	; <UNPREDICTABLE>
    55c4:	00000040 	andeq	r0, r0, r0, asr #32
    55c8:	970e1c02 	strls	r1, [lr, -r2, lsl #24]
    55cc:	09000000 	stmdbeq	r0, {}	; <UNPREDICTABLE>
    55d0:	00007c04 	andeq	r7, r0, r4, lsl #24
    55d4:	00250600 	eoreq	r0, r5, r0, lsl #12
    55d8:	00ac0000 	adceq	r0, ip, r0
    55dc:	ac070000 	stcge	0, cr0, [r7], {-0}
    55e0:	00000000 	andeq	r0, r0, r0
    55e4:	00b90409 	adcseq	r0, r9, r9, lsl #8
    55e8:	01040000 	mrseq	r0, (UNDEF: 4)
    55ec:	0000af08 	andeq	sl, r0, r8, lsl #30
    55f0:	00b20500 	adcseq	r0, r2, r0, lsl #10
    55f4:	bc080000 	stclt	0, cr0, [r8], {-0}
    55f8:	02000006 	andeq	r0, r0, #6, 0
    55fc:	00ca0e21 	sbceq	r0, sl, r1, lsr #28
    5600:	04090000 	streq	r0, [r9], #-0
    5604:	0000009d 	muleq	r0, sp, r0
    5608:	0007810a 	andeq	r8, r7, sl, lsl #2
    560c:	05040100 	streq	r0, [r4, #-256]	; 0xffffff00
    5610:	00000025 	andeq	r0, r0, r5, lsr #32
    5614:	0000a574 	andeq	sl, r0, r4, ror r5
    5618:	00000030 	andeq	r0, r0, r0, lsr r0
    561c:	014b9c01 	cmpeq	fp, r1, lsl #24
    5620:	5f0b0000 	svcpl	0x000b0000
    5624:	01003173 	tsteq	r0, r3, ror r1
    5628:	00ac1904 	adceq	r1, ip, r4, lsl #18
    562c:	36bf0000 	ldrtcc	r0, [pc], r0
    5630:	36bb0000 	ldrtcc	r0, [fp], r0
    5634:	5f0b0000 	svcpl	0x000b0000
    5638:	01003273 	tsteq	r0, r3, ror r2
    563c:	00ac2a04 	adceq	r2, ip, r4, lsl #20
    5640:	36e40000 	strbtcc	r0, [r4], r0
    5644:	36e00000 	strbtcc	r0, [r0], r0
    5648:	6e0b0000 	cdpvs	0, 0, cr0, cr11, cr0, {0}
    564c:	36040100 	strcc	r0, [r4], -r0, lsl #2
    5650:	0000002c 	andeq	r0, r0, ip, lsr #32
    5654:	0000370f 	andeq	r3, r0, pc, lsl #14
    5658:	00003705 	andeq	r3, r0, r5, lsl #14
    565c:	0031730c 	eorseq	r7, r1, ip, lsl #6
    5660:	4b1a0501 	blmi	686a6c <__bss_end__+0x67b774>
    5664:	66000001 	strvs	r0, [r0], -r1
    5668:	5e000037 	mcrpl	0, 0, r0, cr0, cr7, {1}
    566c:	0c000037 	stceq	0, cr0, [r0], {55}	; 0x37
    5670:	01003273 	tsteq	r0, r3, ror r2
    5674:	014b2c05 	cmpeq	fp, r5, lsl #24
    5678:	37a40000 	strcc	r0, [r4, r0]!
    567c:	379e0000 	ldrcc	r0, [lr, r0]
    5680:	09000000 	stmdbeq	r0, {}	; <UNPREDICTABLE>
    5684:	00006204 	andeq	r6, r0, r4, lsl #4
    5688:	00ce0000 	sbceq	r0, lr, r0
    568c:	00040000 	andeq	r0, r4, r0
    5690:	00001f8b 	andeq	r1, r0, fp, lsl #31
    5694:	053e0104 	ldreq	r0, [lr, #-260]!	; 0xfffffefc
    5698:	fa0c0000 	blx	3056a0 <__bss_end__+0x2fa3a8>
    569c:	1c00000c 	stcne	0, cr0, [r0], {12}
    56a0:	a4000006 	strge	r0, [r0], #-6
    56a4:	040000a5 	streq	r0, [r0], #-165	; 0xffffff5b
    56a8:	5b000000 	blpl	56b0 <__code_start__-0x2950>
    56ac:	0200002c 	andeq	r0, r0, #44, 0	; 0x2c
    56b0:	6e690504 	cdpvs	5, 6, cr0, cr9, cr4, {0}
    56b4:	04030074 	streq	r0, [r3], #-116	; 0xffffff8c
    56b8:	0001a707 	andeq	sl, r1, r7, lsl #14
    56bc:	06010300 	streq	r0, [r1], -r0, lsl #6
    56c0:	000000a8 	andeq	r0, r0, r8, lsr #1
    56c4:	00050203 	andeq	r0, r5, r3, lsl #4
    56c8:	03000000 	movweq	r0, #0
    56cc:	00690504 	rsbeq	r0, r9, r4, lsl #10
    56d0:	08030000 	stmdaeq	r3, {}	; <UNPREDICTABLE>
    56d4:	00006405 	andeq	r6, r0, r5, lsl #8
    56d8:	08010300 	stmdaeq	r1, {r8, r9}
    56dc:	000000a6 	andeq	r0, r0, r6, lsr #1
    56e0:	ee070203 	cdp	2, 0, cr0, cr7, cr3, {0}
    56e4:	03000001 	movweq	r0, #1
    56e8:	01a20704 			; <UNDEFINED> instruction: 0x01a20704
    56ec:	08030000 	stmdaeq	r3, {}	; <UNPREDICTABLE>
    56f0:	00019d07 	andeq	r9, r1, r7, lsl #26
    56f4:	00250400 	eoreq	r0, r5, r0, lsl #8
    56f8:	007a0000 	rsbseq	r0, sl, r0
    56fc:	25050000 	strcs	r0, [r5, #-0]
    5700:	00000000 	andeq	r0, r0, r0
    5704:	00004006 	andeq	r4, r0, r6
    5708:	0e1c0200 	cdpeq	2, 1, cr0, cr12, cr0, {0}
    570c:	00000086 	andeq	r0, r0, r6, lsl #1
    5710:	006b0407 	rsbeq	r0, fp, r7, lsl #8
    5714:	25040000 	strcs	r0, [r4, #-0]
    5718:	9b000000 	blls	5720 <__code_start__-0x28e0>
    571c:	05000000 	streq	r0, [r0, #-0]
    5720:	0000009b 	muleq	r0, fp, r0
    5724:	a8040700 	stmdage	r4, {r8, r9, sl}
    5728:	03000000 	movweq	r0, #0
    572c:	00af0801 	adceq	r0, pc, r1, lsl #16
    5730:	a1080000 	mrsge	r0, (UNDEF: 8)
    5734:	06000000 	streq	r0, [r0], -r0
    5738:	000006bc 			; <UNDEFINED> instruction: 0x000006bc
    573c:	b90e2102 	stmdblt	lr, {r1, r8, sp}
    5740:	07000000 	streq	r0, [r0, -r0]
    5744:	00008c04 	andeq	r8, r0, r4, lsl #24
    5748:	08340900 	ldmdaeq	r4!, {r8, fp}
    574c:	03010000 	movweq	r0, #4096	; 0x1000
    5750:	00a5a406 	adceq	sl, r5, r6, lsl #8
    5754:	00000400 	andeq	r0, r0, r0, lsl #8
    5758:	009c0100 	addseq	r0, ip, r0, lsl #2

Disassembly of section .debug_abbrev:

00000000 <.debug_abbrev>:
       0:	25011101 	strcs	r1, [r1, #-257]	; 0xfffffeff
       4:	030b130e 	movweq	r1, #45838	; 0xb30e
       8:	110e1b0e 	tstne	lr, lr, lsl #22
       c:	10061201 	andne	r1, r6, r1, lsl #4
      10:	02000017 	andeq	r0, r0, #23, 0
      14:	0b0b0024 	bleq	2c00ac <__bss_end__+0x2b4db4>
      18:	08030b3e 	stmdaeq	r3, {r1, r2, r3, r4, r5, r8, r9, fp}
      1c:	24030000 	strcs	r0, [r3], #-0
      20:	3e0b0b00 	vmlacc.f64	d0, d11, d0
      24:	000e030b 	andeq	r0, lr, fp, lsl #6
      28:	00160400 	andseq	r0, r6, r0, lsl #8
      2c:	0b3a0e03 	bleq	e83840 <__bss_end__+0xe78548>
      30:	0b390b3b 	bleq	e42d24 <__bss_end__+0xe37a2c>
      34:	00001349 	andeq	r1, r0, r9, asr #6
      38:	27011505 	strcs	r1, [r1, -r5, lsl #10]
      3c:	01134919 	tsteq	r3, r9, lsl r9
      40:	06000013 			; <UNDEFINED> instruction: 0x06000013
      44:	13490005 	movtne	r0, #36869	; 0x9005
      48:	34070000 	strcc	r0, [r7], #-0
      4c:	3a0e0300 	bcc	380c54 <__bss_end__+0x37595c>
      50:	390b3b0b 	stmdbcc	fp, {r0, r1, r3, r8, r9, fp, ip, sp}
      54:	3f13490b 	svccc	0x0013490b
      58:	00193c19 	andseq	r3, r9, r9, lsl ip
      5c:	000f0800 	andeq	r0, pc, r0, lsl #16
      60:	13490b0b 	movtne	r0, #39691	; 0x9b0b
      64:	26090000 	strcs	r0, [r9], -r0
      68:	00134900 	andseq	r4, r3, r0, lsl #18
      6c:	01130a00 	tsteq	r3, r0, lsl #20
      70:	0b3a0b0b 	bleq	e82ca4 <__bss_end__+0xe779ac>
      74:	0b390b3b 	bleq	e42d68 <__bss_end__+0xe37a70>
      78:	00001301 	andeq	r1, r0, r1, lsl #6
      7c:	03000d0b 	movweq	r0, #3339	; 0xd0b
      80:	3b0b3a0e 	blcc	2ce8c0 <__bss_end__+0x2c35c8>
      84:	490b390b 	stmdbmi	fp, {r0, r1, r3, r8, fp, ip, sp}
      88:	000b3813 	andeq	r3, fp, r3, lsl r8
      8c:	000f0c00 	andeq	r0, pc, r0, lsl #24
      90:	00000b0b 	andeq	r0, r0, fp, lsl #22
      94:	3f012e0d 	svccc	0x00012e0d
      98:	3a080319 	bcc	200d04 <__bss_end__+0x1f5a0c>
      9c:	390b3b0b 	stmdbcc	fp, {r0, r1, r3, r8, r9, fp, ip, sp}
      a0:	4919270b 	ldmdbmi	r9, {r0, r1, r3, r8, r9, sl, sp}
      a4:	12011113 	andne	r1, r1, #-1073741820	; 0xc0000004
      a8:	97184006 	ldrls	r4, [r8, -r6]
      ac:	13011942 	movwne	r1, #6466	; 0x1942
      b0:	340e0000 	strcc	r0, [lr], #-0
      b4:	3a080300 	bcc	200cbc <__bss_end__+0x1f59c4>
      b8:	390b3b0b 	stmdbcc	fp, {r0, r1, r3, r8, r9, fp, ip, sp}
      bc:	0213490b 	andseq	r4, r3, #180224	; 0x2c000
      c0:	1742b717 	smlaldne	fp, r2, r7, r7
      c4:	890f0000 	stmdbhi	pc, {}	; <UNPREDICTABLE>
      c8:	11000182 	smlabbne	r0, r2, r1, r0
      cc:	00133101 	andseq	r3, r3, r1, lsl #2
      d0:	82891000 	addhi	r1, r9, #0, 0
      d4:	01110101 	tsteq	r1, r1, lsl #2
      d8:	00001331 	andeq	r1, r0, r1, lsr r3
      dc:	01828a11 	orreq	r8, r2, r1, lsl sl
      e0:	91180200 	tstls	r8, r0, lsl #4
      e4:	00001842 	andeq	r1, r0, r2, asr #16
      e8:	3f012e12 	svccc	0x00012e12
      ec:	3a0e0319 	bcc	380d58 <__bss_end__+0x375a60>
      f0:	390b3b0b 	stmdbcc	fp, {r0, r1, r3, r8, r9, fp, ip, sp}
      f4:	1119270b 	tstne	r9, fp, lsl #14
      f8:	40061201 	andmi	r1, r6, r1, lsl #4
      fc:	19429718 	stmdbne	r2, {r3, r4, r8, r9, sl, ip, pc}^
     100:	00001301 	andeq	r1, r0, r1, lsl #6
     104:	03003413 	movweq	r3, #1043	; 0x413
     108:	3b0b3a08 	blcc	2ce930 <__bss_end__+0x2c3638>
     10c:	490b390b 	stmdbmi	fp, {r0, r1, r3, r8, fp, ip, sp}
     110:	14000013 	strne	r0, [r0], #-19	; 0xffffffed
     114:	0e030034 	mcreq	0, 0, r0, cr3, cr4, {1}
     118:	19341349 	ldmdbne	r4!, {r0, r3, r6, r8, r9, ip}
     11c:	00001802 	andeq	r1, r0, r2, lsl #16
     120:	01828915 	orreq	r8, r2, r5, lsl r9
     124:	31011101 	tstcc	r1, r1, lsl #2
     128:	00130113 	andseq	r0, r3, r3, lsl r1
     12c:	01011600 	tsteq	r1, r0, lsl #12
     130:	13011349 	movwne	r1, #4937	; 0x1349
     134:	21170000 	tstcs	r7, r0
     138:	2f134900 	svccs	0x00134900
     13c:	1800000b 	stmdane	r0, {r0, r1, r3}
     140:	193f012e 	ldmdbne	pc!, {r1, r2, r3, r5, r8}	; <UNPREDICTABLE>
     144:	0b3a0e03 	bleq	e83958 <__bss_end__+0xe78660>
     148:	0b390b3b 	bleq	e42e3c <__bss_end__+0xe37b44>
     14c:	13491927 	movtne	r1, #39207	; 0x9927
     150:	06120111 			; <UNDEFINED> instruction: 0x06120111
     154:	42971840 	addsmi	r1, r7, #64, 16	; 0x400000
     158:	00130119 	andseq	r0, r3, r9, lsl r1
     15c:	01131900 	tsteq	r3, r0, lsl #18
     160:	0b0b0e03 	bleq	2c3974 <__bss_end__+0x2b867c>
     164:	0b3b0b3a 	bleq	ec2e54 <__bss_end__+0xeb7b5c>
     168:	13010b39 	movwne	r0, #6969	; 0x1b39
     16c:	0d1a0000 	ldceq	0, cr0, [sl, #-0]
     170:	3a080300 	bcc	200d78 <__bss_end__+0x1f5a80>
     174:	390b3b0b 	stmdbcc	fp, {r0, r1, r3, r8, r9, fp, ip, sp}
     178:	3813490b 	ldmdacc	r3, {r0, r1, r3, r8, fp, lr}
     17c:	1b00000b 	blne	1b0 <__code_start__-0x7e50>
     180:	1755010b 	ldrbne	r0, [r5, -fp, lsl #2]
     184:	00001301 	andeq	r1, r0, r1, lsl #6
     188:	55010b1c 	strpl	r0, [r1, #-2844]	; 0xfffff4e4
     18c:	1d000017 	stcne	0, cr0, [r0, #-92]	; 0xffffffa4
     190:	1331011d 	teqne	r1, #1073741831	; 0x40000007
     194:	42b80152 	adcsmi	r0, r8, #-2147483628	; 0x80000014
     198:	1201110b 	andne	r1, r1, #-1073741822	; 0xc0000002
     19c:	590b5806 	stmdbpl	fp, {r1, r2, fp, ip, lr}
     1a0:	010b570b 	tsteq	fp, fp, lsl #14
     1a4:	1e000013 	mcrne	0, 0, r0, cr0, cr3, {0}
     1a8:	13310005 	teqne	r1, #5, 0
     1ac:	42b71702 	adcsmi	r1, r7, #524288	; 0x80000
     1b0:	1f000017 	svcne	0x00000017
     1b4:	0e03012e 	adfeqsp	f0, f3, #0.5
     1b8:	0b3b0b3a 	bleq	ec2ea8 <__bss_end__+0xeb7bb0>
     1bc:	19270b39 	stmdbne	r7!, {r0, r3, r4, r5, r8, r9, fp}
     1c0:	0b201349 	bleq	804eec <__bss_end__+0x7f9bf4>
     1c4:	00001301 	andeq	r1, r0, r1, lsl #6
     1c8:	03000520 	movweq	r0, #1312	; 0x520
     1cc:	3b0b3a0e 	blcc	2cea0c <__bss_end__+0x2c3714>
     1d0:	490b390b 	stmdbmi	fp, {r0, r1, r3, r8, fp, ip, sp}
     1d4:	21000013 	tstcs	r0, r3, lsl r0
     1d8:	193f002e 	ldmdbne	pc!, {r1, r2, r3, r5}	; <UNPREDICTABLE>
     1dc:	0e6e193c 			; <UNDEFINED> instruction: 0x0e6e193c
     1e0:	0b3a0e03 	bleq	e839f4 <__bss_end__+0xe786fc>
     1e4:	0b390b3b 	bleq	e42ed8 <__bss_end__+0xe37be0>
     1e8:	36220000 	strtcc	r0, [r2], -r0
     1ec:	00180200 	andseq	r0, r8, r0, lsl #4
     1f0:	11010000 	mrsne	r0, (UNDEF: 1)
     1f4:	130e2501 	movwne	r2, #58625	; 0xe501
     1f8:	1b0e030b 	blne	380e2c <__bss_end__+0x375b34>
     1fc:	1201110e 	andne	r1, r1, #-2147483645	; 0x80000003
     200:	00171006 	andseq	r1, r7, r6
     204:	00240200 	eoreq	r0, r4, r0, lsl #4
     208:	0b3e0b0b 	bleq	f82e3c <__bss_end__+0xf77b44>
     20c:	00000803 	andeq	r0, r0, r3, lsl #16
     210:	0b002403 	bleq	9224 <emit.constprop.0+0x160>
     214:	030b3e0b 	movweq	r3, #48651	; 0xbe0b
     218:	0400000e 	streq	r0, [r0], #-14
     21c:	0e030016 	mcreq	0, 0, r0, cr3, cr6, {0}
     220:	0b3b0b3a 	bleq	ec2f10 <__bss_end__+0xeb7c18>
     224:	13490b39 	movtne	r0, #39737	; 0x9b39
     228:	15050000 	strne	r0, [r5, #-0]
     22c:	49192701 	ldmdbmi	r9, {r0, r8, r9, sl, sp}
     230:	00130113 	andseq	r0, r3, r3, lsl r1
     234:	00050600 	andeq	r0, r5, r0, lsl #12
     238:	00001349 	andeq	r1, r0, r9, asr #6
     23c:	03003407 	movweq	r3, #1031	; 0x407
     240:	3b0b3a0e 	blcc	2cea80 <__bss_end__+0x2c3788>
     244:	490b390b 	stmdbmi	fp, {r0, r1, r3, r8, fp, ip, sp}
     248:	3c193f13 	ldccc	15, cr3, [r9], {19}
     24c:	08000019 	stmdaeq	r0, {r0, r3, r4}
     250:	0b0b000f 	bleq	2c0294 <__bss_end__+0x2b4f9c>
     254:	00001349 	andeq	r1, r0, r9, asr #6
     258:	49002609 	stmdbmi	r0, {r0, r3, r9, sl, sp}
     25c:	0a000013 	beq	2b0 <__code_start__-0x7d50>
     260:	0b0b0113 	bleq	2c06b4 <__bss_end__+0x2b53bc>
     264:	0b3b0b3a 	bleq	ec2f54 <__bss_end__+0xeb7c5c>
     268:	13010b39 	movwne	r0, #6969	; 0x1b39
     26c:	0d0b0000 	stceq	0, cr0, [fp, #-0]
     270:	3a0e0300 	bcc	380e78 <__bss_end__+0x375b80>
     274:	390b3b0b 	stmdbcc	fp, {r0, r1, r3, r8, r9, fp, ip, sp}
     278:	3813490b 	ldmdacc	r3, {r0, r1, r3, r8, fp, lr}
     27c:	0c00000b 	stceq	0, cr0, [r0], {11}
     280:	0b3e0104 	bleq	f80698 <__bss_end__+0xf753a0>
     284:	13490b0b 	movtne	r0, #39691	; 0x9b0b
     288:	0b3b0b3a 	bleq	ec2f78 <__bss_end__+0xeb7c80>
     28c:	13010b39 	movwne	r0, #6969	; 0x1b39
     290:	280d0000 	stmdacs	sp, {}	; <UNPREDICTABLE>
     294:	1c0e0300 	stcne	3, cr0, [lr], {-0}
     298:	0e00000b 	cdpeq	0, 0, cr0, cr0, cr11, {0}
     29c:	0e030113 	mcreq	1, 0, r0, cr3, cr3, {0}
     2a0:	0b3a0b0b 	bleq	e82ed4 <__bss_end__+0xe77bdc>
     2a4:	0b390b3b 	bleq	e42f98 <__bss_end__+0xe37ca0>
     2a8:	00001301 	andeq	r1, r0, r1, lsl #6
     2ac:	03000d0f 	movweq	r0, #3343	; 0xd0f
     2b0:	3b0b3a08 	blcc	2cead8 <__bss_end__+0x2c37e0>
     2b4:	490b390b 	stmdbmi	fp, {r0, r1, r3, r8, fp, ip, sp}
     2b8:	000b3813 	andeq	r3, fp, r3, lsl r8
     2bc:	01011000 	mrseq	r1, (UNDEF: 1)
     2c0:	13011349 	movwne	r1, #4937	; 0x1349
     2c4:	21110000 	tstcs	r1, r0
     2c8:	2f134900 	svccs	0x00134900
     2cc:	1200000b 	andne	r0, r0, #11, 0
     2d0:	0b0b000f 	bleq	2c0314 <__bss_end__+0x2b501c>
     2d4:	34130000 	ldrcc	r0, [r3], #-0
     2d8:	3a0e0300 	bcc	380ee0 <__bss_end__+0x375be8>
     2dc:	390b3b0b 	stmdbcc	fp, {r0, r1, r3, r8, r9, fp, ip, sp}
     2e0:	0213490b 	andseq	r4, r3, #180224	; 0x2c000
     2e4:	14000018 	strne	r0, [r0], #-24	; 0xffffffe8
     2e8:	193f012e 	ldmdbne	pc!, {r1, r2, r3, r5, r8}	; <UNPREDICTABLE>
     2ec:	0b3a0e03 	bleq	e83b00 <__bss_end__+0xe78808>
     2f0:	0b390b3b 	bleq	e42fe4 <__bss_end__+0xe37cec>
     2f4:	13491927 	movtne	r1, #39207	; 0x9927
     2f8:	06120111 			; <UNDEFINED> instruction: 0x06120111
     2fc:	42971840 	addsmi	r1, r7, #64, 16	; 0x400000
     300:	00130119 	andseq	r0, r3, r9, lsl r1
     304:	00051500 	andeq	r1, r5, r0, lsl #10
     308:	0b3a0e03 	bleq	e83b1c <__bss_end__+0xe78824>
     30c:	0b390b3b 	bleq	e43000 <__bss_end__+0xe37d08>
     310:	17021349 	strne	r1, [r2, -r9, asr #6]
     314:	001742b7 			; <UNDEFINED> instruction: 0x001742b7
     318:	00051600 	andeq	r1, r5, r0, lsl #12
     31c:	0b3a0803 	bleq	e82330 <__bss_end__+0xe77038>
     320:	0b390b3b 	bleq	e43014 <__bss_end__+0xe37d1c>
     324:	18021349 	stmdane	r2, {r0, r3, r6, r8, r9, ip}
     328:	34170000 	ldrcc	r0, [r7], #-0
     32c:	3a0e0300 	bcc	380f34 <__bss_end__+0x375c3c>
     330:	390b3b0b 	stmdbcc	fp, {r0, r1, r3, r8, r9, fp, ip, sp}
     334:	0213490b 	andseq	r4, r3, #180224	; 0x2c000
     338:	1742b717 	smlaldne	fp, r2, r7, r7
     33c:	34180000 	ldrcc	r0, [r8], #-0
     340:	3a080300 	bcc	200f48 <__bss_end__+0x1f5c50>
     344:	390b3b0b 	stmdbcc	fp, {r0, r1, r3, r8, r9, fp, ip, sp}
     348:	0213490b 	andseq	r4, r3, #180224	; 0x2c000
     34c:	1742b717 	smlaldne	fp, r2, r7, r7
     350:	0b190000 	bleq	640358 <__bss_end__+0x635060>
     354:	12011101 	andne	r1, r1, #1073741824	; 0x40000000
     358:	00130106 	andseq	r0, r3, r6, lsl #2
     35c:	82891a00 	addhi	r1, r9, #0, 20
     360:	01110101 	tsteq	r1, r1, lsl #2
     364:	00001331 	andeq	r1, r0, r1, lsr r3
     368:	01828a1b 	orreq	r8, r2, fp, lsl sl
     36c:	91180200 	tstls	r8, r0, lsl #4
     370:	00001842 	andeq	r1, r0, r2, asr #16
     374:	11010b1c 	tstne	r1, ip, lsl fp
     378:	00061201 	andeq	r1, r6, r1, lsl #4
     37c:	82891d00 	addhi	r1, r9, #0, 26
     380:	01110101 	tsteq	r1, r1, lsl #2
     384:	13011331 	movwne	r1, #4913	; 0x1331
     388:	2e1e0000 	cdpcs	0, 1, cr0, cr14, cr0, {0}
     38c:	03193f01 	tsteq	r9, #1, 30
     390:	3b0b3a0e 	blcc	2cebd0 <__bss_end__+0x2c38d8>
     394:	270b390b 	strcs	r3, [fp, -fp, lsl #18]
     398:	12011119 	andne	r1, r1, #1073741830	; 0x40000006
     39c:	97184006 	ldrls	r4, [r8, -r6]
     3a0:	13011942 	movwne	r1, #6466	; 0x1942
     3a4:	0b1f0000 	bleq	7c03ac <__bss_end__+0x7b50b4>
     3a8:	01175501 	tsteq	r7, r1, lsl #10
     3ac:	20000013 	andcs	r0, r0, r3, lsl r0
     3b0:	00018289 	andeq	r8, r1, r9, lsl #5
     3b4:	13310111 	teqne	r1, #1073741828	; 0x40000004
     3b8:	05210000 	streq	r0, [r1, #-0]!
     3bc:	3a080300 	bcc	200fc4 <__bss_end__+0x1f5ccc>
     3c0:	390b3b0b 	stmdbcc	fp, {r0, r1, r3, r8, r9, fp, ip, sp}
     3c4:	0213490b 	andseq	r4, r3, #180224	; 0x2c000
     3c8:	1742b717 	smlaldne	fp, r2, r7, r7
     3cc:	0b220000 	bleq	8803d4 <__bss_end__+0x8750dc>
     3d0:	00130101 	andseq	r0, r3, r1, lsl #2
     3d4:	00342300 	eorseq	r2, r4, r0, lsl #6
     3d8:	0b3a0803 	bleq	e823ec <__bss_end__+0xe770f4>
     3dc:	0b390b3b 	bleq	e430d0 <__bss_end__+0xe37dd8>
     3e0:	00001349 	andeq	r1, r0, r9, asr #6
     3e4:	31011d24 	tstcc	r1, r4, lsr #26
     3e8:	b8015213 	stmdalt	r1, {r0, r1, r4, r9, ip, lr}
     3ec:	01110b42 	tsteq	r1, r2, asr #22
     3f0:	0b580612 	bleq	1601c40 <__bss_end__+0x15f6948>
     3f4:	0b570b59 	bleq	15c3160 <__bss_end__+0x15b7e68>
     3f8:	00001301 	andeq	r1, r0, r1, lsl #6
     3fc:	31000525 	tstcc	r0, r5, lsr #10
     400:	b7170213 			; <UNDEFINED> instruction: 0xb7170213
     404:	00001742 	andeq	r1, r0, r2, asr #14
     408:	3f002e26 	svccc	0x00002e26
     40c:	3a0e0319 	bcc	381078 <__bss_end__+0x375d80>
     410:	390b3b0b 	stmdbcc	fp, {r0, r1, r3, r8, r9, fp, ip, sp}
     414:	4919270b 	ldmdbmi	r9, {r0, r1, r3, r8, r9, sl, sp}
     418:	12011113 	andne	r1, r1, #-1073741820	; 0xc0000004
     41c:	97184006 	ldrls	r4, [r8, -r6]
     420:	00001942 	andeq	r1, r0, r2, asr #18
     424:	03012e27 	movweq	r2, #7719	; 0x1e27
     428:	3b0b3a0e 	blcc	2cec68 <__bss_end__+0x2c3970>
     42c:	270b390b 	strcs	r3, [fp, -fp, lsl #18]
     430:	20134919 	andscs	r4, r3, r9, lsl r9
     434:	0013010b 	andseq	r0, r3, fp, lsl #2
     438:	00052800 	andeq	r2, r5, r0, lsl #16
     43c:	0b3a0803 	bleq	e82450 <__bss_end__+0xe77158>
     440:	0b390b3b 	bleq	e43134 <__bss_end__+0xe37e3c>
     444:	00001349 	andeq	r1, r0, r9, asr #6
     448:	3f002e29 	svccc	0x00002e29
     44c:	6e193c19 	mrcvs	12, 0, r3, cr9, cr9, {0}
     450:	3a0e030e 	bcc	381090 <__bss_end__+0x375d98>
     454:	390b3b0b 	stmdbcc	fp, {r0, r1, r3, r8, r9, fp, ip, sp}
     458:	0000000b 	andeq	r0, r0, fp
     45c:	25011101 	strcs	r1, [r1, #-257]	; 0xfffffeff
     460:	030b130e 	movweq	r1, #45838	; 0xb30e
     464:	110e1b0e 	tstne	lr, lr, lsl #22
     468:	10061201 	andne	r1, r6, r1, lsl #4
     46c:	02000017 	andeq	r0, r0, #23, 0
     470:	0b0b0024 	bleq	2c0508 <__bss_end__+0x2b5210>
     474:	08030b3e 	stmdaeq	r3, {r1, r2, r3, r4, r5, r8, r9, fp}
     478:	24030000 	strcs	r0, [r3], #-0
     47c:	3e0b0b00 	vmlacc.f64	d0, d11, d0
     480:	000e030b 	andeq	r0, lr, fp, lsl #6
     484:	01150400 	tsteq	r5, r0, lsl #8
     488:	13491927 	movtne	r1, #39207	; 0x9927
     48c:	00001301 	andeq	r1, r0, r1, lsl #6
     490:	49000505 	stmdbmi	r0, {r0, r2, r8, sl}
     494:	06000013 			; <UNDEFINED> instruction: 0x06000013
     498:	0e030034 	mcreq	0, 0, r0, cr3, cr4, {1}
     49c:	0b3b0b3a 	bleq	ec318c <__bss_end__+0xeb7e94>
     4a0:	13490b39 	movtne	r0, #39737	; 0x9b39
     4a4:	193c193f 	ldmdbne	ip!, {r0, r1, r2, r3, r4, r5, r8, fp, ip}
     4a8:	0f070000 	svceq	0x00070000
     4ac:	490b0b00 	stmdbmi	fp, {r8, r9, fp}
     4b0:	08000013 	stmdaeq	r0, {r0, r1, r4}
     4b4:	13490026 	movtne	r0, #36902	; 0x9026
     4b8:	17090000 	strne	r0, [r9, -r0]
     4bc:	0b0e0301 	bleq	3810c8 <__bss_end__+0x375dd0>
     4c0:	3b0b3a0b 	blcc	2cecf4 <__bss_end__+0x2c39fc>
     4c4:	010b390b 	tsteq	fp, fp, lsl #18
     4c8:	0a000013 	beq	51c <__code_start__-0x7ae4>
     4cc:	0803000d 	stmdaeq	r3, {r0, r2, r3}
     4d0:	0b3b0b3a 	bleq	ec31c0 <__bss_end__+0xeb7ec8>
     4d4:	13490b39 	movtne	r0, #39737	; 0x9b39
     4d8:	0f0b0000 	svceq	0x000b0000
     4dc:	000b0b00 	andeq	r0, fp, r0, lsl #22
     4e0:	00150c00 	andseq	r0, r5, r0, lsl #24
     4e4:	00001927 	andeq	r1, r0, r7, lsr #18
     4e8:	0b01130d 	bleq	45124 <__bss_end__+0x39e2c>
     4ec:	3b0b3a0b 	blcc	2ced20 <__bss_end__+0x2c3a28>
     4f0:	010b390b 	tsteq	fp, fp, lsl #18
     4f4:	0e000013 	mcreq	0, 0, r0, cr0, cr3, {0}
     4f8:	0803000d 	stmdaeq	r3, {r0, r2, r3}
     4fc:	0b3b0b3a 	bleq	ec31ec <__bss_end__+0xeb7ef4>
     500:	13490b39 	movtne	r0, #39737	; 0x9b39
     504:	00000b38 	andeq	r0, r0, r8, lsr fp
     508:	03000d0f 	movweq	r0, #3343	; 0xd0f
     50c:	3b0b3a0e 	blcc	2ced4c <__bss_end__+0x2c3a54>
     510:	490b390b 	stmdbmi	fp, {r0, r1, r3, r8, fp, ip, sp}
     514:	000b3813 	andeq	r3, fp, r3, lsl r8
     518:	00161000 	andseq	r1, r6, r0
     51c:	0b3a0e03 	bleq	e83d30 <__bss_end__+0xe78a38>
     520:	0b390b3b 	bleq	e43214 <__bss_end__+0xe37f1c>
     524:	00001349 	andeq	r1, r0, r9, asr #6
     528:	03003411 	movweq	r3, #1041	; 0x411
     52c:	3b0b3a0e 	blcc	2ced6c <__bss_end__+0x2c3a74>
     530:	490b390b 	stmdbmi	fp, {r0, r1, r3, r8, fp, ip, sp}
     534:	00180213 	andseq	r0, r8, r3, lsl r2
     538:	012e1200 			; <UNDEFINED> instruction: 0x012e1200
     53c:	0e03193f 			; <UNDEFINED> instruction: 0x0e03193f
     540:	0b3b0b3a 	bleq	ec3230 <__bss_end__+0xeb7f38>
     544:	19270b39 	stmdbne	r7!, {r0, r3, r4, r5, r8, r9, fp}
     548:	06120111 			; <UNDEFINED> instruction: 0x06120111
     54c:	42971840 	addsmi	r1, r7, #64, 16	; 0x400000
     550:	00130119 	andseq	r0, r3, r9, lsl r1
     554:	00051300 	andeq	r1, r5, r0, lsl #6
     558:	0b3a0803 	bleq	e8256c <__bss_end__+0xe77274>
     55c:	0b390b3b 	bleq	e43250 <__bss_end__+0xe37f58>
     560:	18021349 	stmdane	r2, {r0, r3, r6, r8, r9, ip}
     564:	34140000 	ldrcc	r0, [r4], #-0
     568:	3a080300 	bcc	201170 <__bss_end__+0x1f5e78>
     56c:	390b3b0b 	stmdbcc	fp, {r0, r1, r3, r8, r9, fp, ip, sp}
     570:	0213490b 	andseq	r4, r3, #180224	; 0x2c000
     574:	1742b717 	smlaldne	fp, r2, r7, r7
     578:	2e150000 	cdpcs	0, 1, cr0, cr5, cr0, {0}
     57c:	03193f01 	tsteq	r9, #1, 30
     580:	3b0b3a0e 	blcc	2cedc0 <__bss_end__+0x2c3ac8>
     584:	270b390b 	strcs	r3, [fp, -fp, lsl #18]
     588:	11134919 	tstne	r3, r9, lsl r9
     58c:	40061201 	andmi	r1, r6, r1, lsl #4
     590:	19429718 	stmdbne	r2, {r3, r4, r8, r9, sl, ip, pc}^
     594:	00001301 	andeq	r1, r0, r1, lsl #6
     598:	03000516 	movweq	r0, #1302	; 0x516
     59c:	3b0b3a0e 	blcc	2ceddc <__bss_end__+0x2c3ae4>
     5a0:	490b390b 	stmdbmi	fp, {r0, r1, r3, r8, fp, ip, sp}
     5a4:	b7170213 			; <UNDEFINED> instruction: 0xb7170213
     5a8:	00001742 	andeq	r1, r0, r2, asr #14
     5ac:	03003417 	movweq	r3, #1047	; 0x417
     5b0:	3b0b3a0e 	blcc	2cedf0 <__bss_end__+0x2c3af8>
     5b4:	490b390b 	stmdbmi	fp, {r0, r1, r3, r8, fp, ip, sp}
     5b8:	b7170213 			; <UNDEFINED> instruction: 0xb7170213
     5bc:	00001742 	andeq	r1, r0, r2, asr #14
     5c0:	01828918 	orreq	r8, r2, r8, lsl r9
     5c4:	31011101 	tstcc	r1, r1, lsl #2
     5c8:	19000013 	stmdbne	r0, {r0, r1, r4}
     5cc:	0001828a 	andeq	r8, r1, sl, lsl #5
     5d0:	42911802 	addsmi	r1, r1, #131072	; 0x20000
     5d4:	1a000018 	bne	63c <__code_start__-0x79c4>
     5d8:	0e03012e 	adfeqsp	f0, f3, #0.5
     5dc:	0b3b0b3a 	bleq	ec32cc <__bss_end__+0xeb7fd4>
     5e0:	19270b39 	stmdbne	r7!, {r0, r3, r4, r5, r8, r9, fp}
     5e4:	01111349 	tsteq	r1, r9, asr #6
     5e8:	18400612 	stmdane	r0, {r1, r4, r9, sl}^
     5ec:	01194297 			; <UNDEFINED> instruction: 0x01194297
     5f0:	1b000013 	blne	644 <__code_start__-0x79bc>
     5f4:	08030005 	stmdaeq	r3, {r0, r2}
     5f8:	0b3b0b3a 	bleq	ec32e8 <__bss_end__+0xeb7ff0>
     5fc:	13490b39 	movtne	r0, #39737	; 0x9b39
     600:	42b71702 	adcsmi	r1, r7, #524288	; 0x80000
     604:	1c000017 	stcne	0, cr0, [r0], {23}
     608:	01018289 	smlabbeq	r1, r9, r2, r8
     60c:	13310111 	teqne	r1, #1073741828	; 0x40000004
     610:	00001301 	andeq	r1, r0, r1, lsl #6
     614:	0182891d 	orreq	r8, r2, sp, lsl r9
     618:	31011100 	mrscc	r1, (UNDEF: 17)
     61c:	1e000013 	mcrne	0, 0, r0, cr0, cr3, {0}
     620:	193f002e 	ldmdbne	pc!, {r1, r2, r3, r5}	; <UNPREDICTABLE>
     624:	0e6e193c 			; <UNDEFINED> instruction: 0x0e6e193c
     628:	0b3a0e03 	bleq	e83e3c <__bss_end__+0xe78b44>
     62c:	0b390b3b 	bleq	e43320 <__bss_end__+0xe38028>
     630:	01000000 	mrseq	r0, (UNDEF: 0)
     634:	0e250111 	mcreq	1, 1, r0, cr5, cr1, {0}
     638:	0e030b13 	vmoveq.32	d3[0], r0
     63c:	01110e1b 	tsteq	r1, fp, lsl lr
     640:	17100612 			; <UNDEFINED> instruction: 0x17100612
     644:	24020000 	strcs	r0, [r2], #-0
     648:	3e0b0b00 	vmlacc.f64	d0, d11, d0
     64c:	0008030b 	andeq	r0, r8, fp, lsl #6
     650:	00240300 	eoreq	r0, r4, r0, lsl #6
     654:	0b3e0b0b 	bleq	f83288 <__bss_end__+0xf77f90>
     658:	00000e03 	andeq	r0, r0, r3, lsl #28
     65c:	03001604 	movweq	r1, #1540	; 0x604
     660:	3b0b3a0e 	blcc	2ceea0 <__bss_end__+0x2c3ba8>
     664:	490b390b 	stmdbmi	fp, {r0, r1, r3, r8, fp, ip, sp}
     668:	05000013 	streq	r0, [r0, #-19]	; 0xffffffed
     66c:	19270115 	stmdbne	r7!, {r0, r2, r4, r8}
     670:	13011349 	movwne	r1, #4937	; 0x1349
     674:	05060000 	streq	r0, [r6, #-0]
     678:	00134900 	andseq	r4, r3, r0, lsl #18
     67c:	00340700 	eorseq	r0, r4, r0, lsl #14
     680:	0b3a0e03 	bleq	e83e94 <__bss_end__+0xe78b9c>
     684:	0b390b3b 	bleq	e43378 <__bss_end__+0xe38080>
     688:	193f1349 	ldmdbne	pc!, {r0, r3, r6, r8, r9, ip}	; <UNPREDICTABLE>
     68c:	0000193c 	andeq	r1, r0, ip, lsr r9
     690:	0b000f08 	bleq	42b8 <__code_start__-0x3d48>
     694:	0013490b 	andseq	r4, r3, fp, lsl #18
     698:	00260900 	eoreq	r0, r6, r0, lsl #18
     69c:	00001349 	andeq	r1, r0, r9, asr #6
     6a0:	0b01130a 	bleq	452d0 <__bss_end__+0x39fd8>
     6a4:	3b0b3a0b 	blcc	2ceed8 <__bss_end__+0x2c3be0>
     6a8:	010b390b 	tsteq	fp, fp, lsl #18
     6ac:	0b000013 	bleq	700 <__code_start__-0x7900>
     6b0:	0e03000d 	cdpeq	0, 0, cr0, cr3, cr13, {0}
     6b4:	0b3b0b3a 	bleq	ec33a4 <__bss_end__+0xeb80ac>
     6b8:	13490b39 	movtne	r0, #39737	; 0x9b39
     6bc:	00000b38 	andeq	r0, r0, r8, lsr fp
     6c0:	3e01040c 	cdpcc	4, 0, cr0, cr1, cr12, {0}
     6c4:	490b0b0b 	stmdbmi	fp, {r0, r1, r3, r8, r9, fp}
     6c8:	3b0b3a13 	blcc	2cef1c <__bss_end__+0x2c3c24>
     6cc:	010b390b 	tsteq	fp, fp, lsl #18
     6d0:	0d000013 	stceq	0, cr0, [r0, #-76]	; 0xffffffb4
     6d4:	0e030028 	cdpeq	0, 0, cr0, cr3, cr8, {1}
     6d8:	00000b1c 	andeq	r0, r0, ip, lsl fp
     6dc:	0301130e 	movweq	r1, #4878	; 0x130e
     6e0:	3a0b0b0e 	bcc	2c3320 <__bss_end__+0x2b8028>
     6e4:	390b3b0b 	stmdbcc	fp, {r0, r1, r3, r8, r9, fp, ip, sp}
     6e8:	0013010b 	andseq	r0, r3, fp, lsl #2
     6ec:	000d0f00 	andeq	r0, sp, r0, lsl #30
     6f0:	0b3a0803 	bleq	e82704 <__bss_end__+0xe7740c>
     6f4:	0b390b3b 	bleq	e433e8 <__bss_end__+0xe380f0>
     6f8:	0b381349 	bleq	e05424 <__bss_end__+0xdfa12c>
     6fc:	01100000 	tsteq	r0, r0
     700:	01134901 	tsteq	r3, r1, lsl #18
     704:	11000013 	tstne	r0, r3, lsl r0
     708:	13490021 	movtne	r0, #36897	; 0x9021
     70c:	00000b2f 	andeq	r0, r0, pc, lsr #22
     710:	0b000f12 	bleq	4360 <__code_start__-0x3ca0>
     714:	1300000b 	movwne	r0, #11
     718:	0e030034 	mcreq	0, 0, r0, cr3, cr4, {1}
     71c:	0b3b0b3a 	bleq	ec340c <__bss_end__+0xeb8114>
     720:	13490b39 	movtne	r0, #39737	; 0x9b39
     724:	00001802 	andeq	r1, r0, r2, lsl #16
     728:	3f012e14 	svccc	0x00012e14
     72c:	3a0e0319 	bcc	381398 <__bss_end__+0x3760a0>
     730:	39053b0b 	stmdbcc	r5, {r0, r1, r3, r8, r9, fp, ip, sp}
     734:	1119270b 	tstne	r9, fp, lsl #14
     738:	40061201 	andmi	r1, r6, r1, lsl #4
     73c:	19429718 	stmdbne	r2, {r3, r4, r8, r9, sl, ip, pc}^
     740:	00001301 	andeq	r1, r0, r1, lsl #6
     744:	03003415 	movweq	r3, #1045	; 0x415
     748:	3413490e 	ldrcc	r4, [r3], #-2318	; 0xfffff6f2
     74c:	00180219 	andseq	r0, r8, r9, lsl r2
     750:	82891600 	addhi	r1, r9, #0, 12
     754:	01110101 	tsteq	r1, r1, lsl #2
     758:	13011331 	movwne	r1, #4913	; 0x1331
     75c:	8a170000 	bhi	5c0764 <__bss_end__+0x5b546c>
     760:	02000182 	andeq	r0, r0, #-2147483616	; 0x80000020
     764:	18429118 	stmdane	r2, {r3, r4, r8, ip, pc}^
     768:	89180000 	ldmdbhi	r8, {}	; <UNPREDICTABLE>
     76c:	11000182 	smlabbne	r0, r2, r1, r0
     770:	00133101 	andseq	r3, r3, r1, lsl #2
     774:	012e1900 			; <UNDEFINED> instruction: 0x012e1900
     778:	0e03193f 			; <UNDEFINED> instruction: 0x0e03193f
     77c:	053b0b3a 	ldreq	r0, [fp, #-2874]!	; 0xfffff4c6
     780:	19270b39 	stmdbne	r7!, {r0, r3, r4, r5, r8, r9, fp}
     784:	01111349 	tsteq	r1, r9, asr #6
     788:	18400612 	stmdane	r0, {r1, r4, r9, sl}^
     78c:	01194297 			; <UNDEFINED> instruction: 0x01194297
     790:	1a000013 	bne	7e4 <__code_start__-0x781c>
     794:	0e030034 	mcreq	0, 0, r0, cr3, cr4, {1}
     798:	053b0b3a 	ldreq	r0, [fp, #-2874]!	; 0xfffff4c6
     79c:	13490b39 	movtne	r0, #39737	; 0x9b39
     7a0:	42b71702 	adcsmi	r1, r7, #524288	; 0x80000
     7a4:	1b000017 	blne	808 <__code_start__-0x77f8>
     7a8:	0e03012e 	adfeqsp	f0, f3, #0.5
     7ac:	0b3b0b3a 	bleq	ec349c <__bss_end__+0xeb81a4>
     7b0:	19270b39 	stmdbne	r7!, {r0, r3, r4, r5, r8, r9, fp}
     7b4:	01111349 	tsteq	r1, r9, asr #6
     7b8:	18400612 	stmdane	r0, {r1, r4, r9, sl}^
     7bc:	01194297 			; <UNDEFINED> instruction: 0x01194297
     7c0:	1c000013 	stcne	0, cr0, [r0], {19}
     7c4:	0e030034 	mcreq	0, 0, r0, cr3, cr4, {1}
     7c8:	0b3b0b3a 	bleq	ec34b8 <__bss_end__+0xeb81c0>
     7cc:	13490b39 	movtne	r0, #39737	; 0x9b39
     7d0:	42b71702 	adcsmi	r1, r7, #524288	; 0x80000
     7d4:	1d000017 	stcne	0, cr0, [r0, #-92]	; 0xffffffa4
     7d8:	1755010b 	ldrbne	r0, [r5, -fp, lsl #2]
     7dc:	00001301 	andeq	r1, r0, r1, lsl #6
     7e0:	0300341e 	movweq	r3, #1054	; 0x41e
     7e4:	3b0b3a08 	blcc	2cf00c <__bss_end__+0x2c3d14>
     7e8:	490b390b 	stmdbmi	fp, {r0, r1, r3, r8, fp, ip, sp}
     7ec:	b7170213 			; <UNDEFINED> instruction: 0xb7170213
     7f0:	00001742 	andeq	r1, r0, r2, asr #14
     7f4:	31011d1f 	tstcc	r1, pc, lsl sp
     7f8:	b8015213 	stmdalt	r1, {r0, r1, r4, r9, ip, lr}
     7fc:	01110b42 	tsteq	r1, r2, asr #22
     800:	0b580612 	bleq	1602050 <__bss_end__+0x15f6d58>
     804:	0b570559 	bleq	15c1d70 <__bss_end__+0x15b6a78>
     808:	00001301 	andeq	r1, r0, r1, lsl #6
     80c:	31000520 	tstcc	r0, r0, lsr #10
     810:	b7170213 			; <UNDEFINED> instruction: 0xb7170213
     814:	00001742 	andeq	r1, r0, r2, asr #14
     818:	01828921 	orreq	r8, r2, r1, lsr #18
     81c:	31011101 	tstcc	r1, r1, lsl #2
     820:	22000013 	andcs	r0, r0, #19, 0
     824:	193f012e 	ldmdbne	pc!, {r1, r2, r3, r5, r8}	; <UNPREDICTABLE>
     828:	0b3a0e03 	bleq	e8403c <__bss_end__+0xe78d44>
     82c:	0b390b3b 	bleq	e43520 <__bss_end__+0xe38228>
     830:	13491927 	movtne	r1, #39207	; 0x9927
     834:	06120111 			; <UNDEFINED> instruction: 0x06120111
     838:	42971840 	addsmi	r1, r7, #64, 16	; 0x400000
     83c:	00130119 	andseq	r0, r3, r9, lsl r1
     840:	012e2300 			; <UNDEFINED> instruction: 0x012e2300
     844:	0e03193f 			; <UNDEFINED> instruction: 0x0e03193f
     848:	0b3b0b3a 	bleq	ec3538 <__bss_end__+0xeb8240>
     84c:	19270b39 	stmdbne	r7!, {r0, r3, r4, r5, r8, r9, fp}
     850:	06120111 			; <UNDEFINED> instruction: 0x06120111
     854:	42971840 	addsmi	r1, r7, #64, 16	; 0x400000
     858:	00130119 	andseq	r0, r3, r9, lsl r1
     85c:	00052400 	andeq	r2, r5, r0, lsl #8
     860:	0b3a0e03 	bleq	e84074 <__bss_end__+0xe78d7c>
     864:	0b390b3b 	bleq	e43558 <__bss_end__+0xe38260>
     868:	17021349 	strne	r1, [r2, -r9, asr #6]
     86c:	001742b7 			; <UNDEFINED> instruction: 0x001742b7
     870:	012e2500 			; <UNDEFINED> instruction: 0x012e2500
     874:	0b3a0e03 	bleq	e84088 <__bss_end__+0xe78d90>
     878:	0b390b3b 	bleq	e4356c <__bss_end__+0xe38274>
     87c:	01111927 	tsteq	r1, r7, lsr #18
     880:	18400612 	stmdane	r0, {r1, r4, r9, sl}^
     884:	01194297 			; <UNDEFINED> instruction: 0x01194297
     888:	26000013 			; <UNDEFINED> instruction: 0x26000013
     88c:	0e030034 	mcreq	0, 0, r0, cr3, cr4, {1}
     890:	0b3b0b3a 	bleq	ec3580 <__bss_end__+0xeb8288>
     894:	13490b39 	movtne	r0, #39737	; 0x9b39
     898:	0000061c 	andeq	r0, r0, ip, lsl r6
     89c:	11010b27 	tstne	r1, r7, lsr #22
     8a0:	01061201 	tsteq	r6, r1, lsl #4
     8a4:	28000013 	stmdacs	r0, {r0, r1, r4}
     8a8:	08030005 	stmdaeq	r3, {r0, r2}
     8ac:	0b3b0b3a 	bleq	ec359c <__bss_end__+0xeb82a4>
     8b0:	13490b39 	movtne	r0, #39737	; 0x9b39
     8b4:	42b71702 	adcsmi	r1, r7, #524288	; 0x80000
     8b8:	29000017 	stmdbcs	r0, {r0, r1, r2, r4}
     8bc:	1755010b 	ldrbne	r0, [r5, -fp, lsl #2]
     8c0:	2e2a0000 	cdpcs	0, 2, cr0, cr10, cr0, {0}
     8c4:	3a0e0301 	bcc	3814d0 <__bss_end__+0x3761d8>
     8c8:	390b3b0b 	stmdbcc	fp, {r0, r1, r3, r8, r9, fp, ip, sp}
     8cc:	4919270b 	ldmdbmi	r9, {r0, r1, r3, r8, r9, sl, sp}
     8d0:	010b2013 	tsteq	fp, r3, lsl r0
     8d4:	2b000013 	blcs	928 <__code_start__-0x76d8>
     8d8:	0e030005 	cdpeq	0, 0, cr0, cr3, cr5, {0}
     8dc:	0b3b0b3a 	bleq	ec35cc <__bss_end__+0xeb82d4>
     8e0:	13490b39 	movtne	r0, #39737	; 0x9b39
     8e4:	2e2c0000 	cdpcs	0, 2, cr0, cr12, cr0, {0}
     8e8:	3c193f00 	ldccc	15, cr3, [r9], {-0}
     8ec:	030e6e19 	movweq	r6, #60953	; 0xee19
     8f0:	3b0b3a0e 	blcc	2cf130 <__bss_end__+0x2c3e38>
     8f4:	000b390b 	andeq	r3, fp, fp, lsl #18
     8f8:	00362d00 	eorseq	r2, r6, r0, lsl #26
     8fc:	00001802 	andeq	r1, r0, r2, lsl #16
     900:	01110100 	tsteq	r1, r0, lsl #2
     904:	0b130e25 	bleq	4c41a0 <__bss_end__+0x4b8ea8>
     908:	0e1b0e03 	cdpeq	14, 1, cr0, cr11, cr3, {0}
     90c:	06120111 			; <UNDEFINED> instruction: 0x06120111
     910:	00001710 	andeq	r1, r0, r0, lsl r7
     914:	0b002402 	bleq	9924 <va_printk+0x4d8>
     918:	030b3e0b 	movweq	r3, #48651	; 0xbe0b
     91c:	03000008 	movweq	r0, #8
     920:	0b0b0024 	bleq	2c09b8 <__bss_end__+0x2b56c0>
     924:	0e030b3e 	vmoveq.16	d3[0], r0
     928:	15040000 	strne	r0, [r4, #-0]
     92c:	49192701 	ldmdbmi	r9, {r0, r8, r9, sl, sp}
     930:	00130113 	andseq	r0, r3, r3, lsl r1
     934:	00050500 	andeq	r0, r5, r0, lsl #10
     938:	00001349 	andeq	r1, r0, r9, asr #6
     93c:	03003406 	movweq	r3, #1030	; 0x406
     940:	3b0b3a0e 	blcc	2cf180 <__bss_end__+0x2c3e88>
     944:	490b390b 	stmdbmi	fp, {r0, r1, r3, r8, fp, ip, sp}
     948:	3c193f13 	ldccc	15, cr3, [r9], {19}
     94c:	07000019 	smladeq	r0, r9, r0, r0
     950:	0b0b000f 	bleq	2c0994 <__bss_end__+0x2b569c>
     954:	00001349 	andeq	r1, r0, r9, asr #6
     958:	49002608 	stmdbmi	r0, {r3, r9, sl, sp}
     95c:	09000013 	stmdbeq	r0, {r0, r1, r4}
     960:	193f012e 	ldmdbne	pc!, {r1, r2, r3, r5, r8}	; <UNPREDICTABLE>
     964:	0b3a0e03 	bleq	e84178 <__bss_end__+0xe78e80>
     968:	0b390b3b 	bleq	e4365c <__bss_end__+0xe38364>
     96c:	13491927 	movtne	r1, #39207	; 0x9927
     970:	13010b20 	movwne	r0, #6944	; 0x1b20
     974:	050a0000 	streq	r0, [sl, #-0]
     978:	3a0e0300 	bcc	381580 <__bss_end__+0x376288>
     97c:	390b3b0b 	stmdbcc	fp, {r0, r1, r3, r8, r9, fp, ip, sp}
     980:	0013490b 	andseq	r4, r3, fp, lsl #18
     984:	00340b00 	eorseq	r0, r4, r0, lsl #22
     988:	0b3a0e03 	bleq	e8419c <__bss_end__+0xe78ea4>
     98c:	0b390b3b 	bleq	e43680 <__bss_end__+0xe38388>
     990:	00001349 	andeq	r1, r0, r9, asr #6
     994:	00010b0c 	andeq	r0, r1, ip, lsl #22
     998:	012e0d00 			; <UNDEFINED> instruction: 0x012e0d00
     99c:	0e03193f 			; <UNDEFINED> instruction: 0x0e03193f
     9a0:	0b3b0b3a 	bleq	ec3690 <__bss_end__+0xeb8398>
     9a4:	13490b39 	movtne	r0, #39737	; 0x9b39
     9a8:	06120111 			; <UNDEFINED> instruction: 0x06120111
     9ac:	42971840 	addsmi	r1, r7, #64, 16	; 0x400000
     9b0:	00130119 	andseq	r0, r3, r9, lsl r1
     9b4:	00340e00 	eorseq	r0, r4, r0, lsl #28
     9b8:	0b3a0e03 	bleq	e841cc <__bss_end__+0xe78ed4>
     9bc:	0b390b3b 	bleq	e436b0 <__bss_end__+0xe383b8>
     9c0:	17021349 	strne	r1, [r2, -r9, asr #6]
     9c4:	001742b7 			; <UNDEFINED> instruction: 0x001742b7
     9c8:	010b0f00 	tsteq	fp, r0, lsl #30
     9cc:	06120111 			; <UNDEFINED> instruction: 0x06120111
     9d0:	34100000 	ldrcc	r0, [r0], #-0
     9d4:	3a080300 	bcc	2015dc <__bss_end__+0x1f62e4>
     9d8:	390b3b0b 	stmdbcc	fp, {r0, r1, r3, r8, r9, fp, ip, sp}
     9dc:	0213490b 	andseq	r4, r3, #180224	; 0x2c000
     9e0:	1742b717 	smlaldne	fp, r2, r7, r7
     9e4:	0b110000 	bleq	4409ec <__bss_end__+0x4356f4>
     9e8:	00175501 	andseq	r5, r7, r1, lsl #10
     9ec:	011d1200 	tsteq	sp, r0, lsl #4
     9f0:	01521331 	cmpeq	r2, r1, lsr r3
     9f4:	550b42b8 	strpl	r4, [fp, #-696]	; 0xfffffd48
     9f8:	590b5817 	stmdbpl	fp, {r0, r1, r2, r4, fp, ip, lr}
     9fc:	010b570b 	tsteq	fp, fp, lsl #14
     a00:	13000013 	movwne	r0, #19
     a04:	13310005 	teqne	r1, #5, 0
     a08:	42b71702 	adcsmi	r1, r7, #524288	; 0x80000
     a0c:	14000017 	strne	r0, [r0], #-23	; 0xffffffe9
     a10:	13310034 	teqne	r1, #52, 0	; 0x34
     a14:	42b71702 	adcsmi	r1, r7, #524288	; 0x80000
     a18:	15000017 	strne	r0, [r0, #-23]	; 0xffffffe9
     a1c:	1331010b 	teqne	r1, #-1073741822	; 0xc0000002
     a20:	00001755 	andeq	r1, r0, r5, asr r7
     a24:	01828916 	orreq	r8, r2, r6, lsl r9
     a28:	31011101 	tstcc	r1, r1, lsl #2
     a2c:	17000013 	smladne	r0, r3, r0, r0
     a30:	0001828a 	andeq	r8, r1, sl, lsl #5
     a34:	42911802 	addsmi	r1, r1, #131072	; 0x20000
     a38:	18000018 	stmdane	r0, {r3, r4}
     a3c:	1331012e 	teqne	r1, #-2147483637	; 0x8000000b
     a40:	06120111 			; <UNDEFINED> instruction: 0x06120111
     a44:	42971840 	addsmi	r1, r7, #64, 16	; 0x400000
     a48:	00130119 	andseq	r0, r3, r9, lsl r1
     a4c:	010b1900 	tsteq	fp, r0, lsl #18
     a50:	01111331 	tsteq	r1, r1, lsr r3
     a54:	00000612 	andeq	r0, r0, r2, lsl r6
     a58:	3f002e1a 	svccc	0x00002e1a
     a5c:	6e193c19 	mrcvs	12, 0, r3, cr9, cr9, {0}
     a60:	3a0e030e 	bcc	3816a0 <__bss_end__+0x3763a8>
     a64:	390b3b0b 	stmdbcc	fp, {r0, r1, r3, r8, r9, fp, ip, sp}
     a68:	0000000b 	andeq	r0, r0, fp
     a6c:	25011101 	strcs	r1, [r1, #-257]	; 0xfffffeff
     a70:	030b130e 	movweq	r1, #45838	; 0xb30e
     a74:	110e1b0e 	tstne	lr, lr, lsl #22
     a78:	10061201 	andne	r1, r6, r1, lsl #4
     a7c:	02000017 	andeq	r0, r0, #23, 0
     a80:	0b0b0024 	bleq	2c0b18 <__bss_end__+0x2b5820>
     a84:	08030b3e 	stmdaeq	r3, {r1, r2, r3, r4, r5, r8, r9, fp}
     a88:	16030000 	strne	r0, [r3], -r0
     a8c:	3a0e0300 	bcc	381694 <__bss_end__+0x37639c>
     a90:	390b3b0b 	stmdbcc	fp, {r0, r1, r3, r8, r9, fp, ip, sp}
     a94:	0013490b 	andseq	r4, r3, fp, lsl #18
     a98:	00240400 	eoreq	r0, r4, r0, lsl #8
     a9c:	0b3e0b0b 	bleq	f836d0 <__bss_end__+0xf783d8>
     aa0:	00000e03 	andeq	r0, r0, r3, lsl #28
     aa4:	27011505 	strcs	r1, [r1, -r5, lsl #10]
     aa8:	01134919 	tsteq	r3, r9, lsl r9
     aac:	06000013 			; <UNDEFINED> instruction: 0x06000013
     ab0:	13490005 	movtne	r0, #36869	; 0x9005
     ab4:	34070000 	strcc	r0, [r7], #-0
     ab8:	3a0e0300 	bcc	3816c0 <__bss_end__+0x3763c8>
     abc:	390b3b0b 	stmdbcc	fp, {r0, r1, r3, r8, r9, fp, ip, sp}
     ac0:	3f13490b 	svccc	0x0013490b
     ac4:	00193c19 	andseq	r3, r9, r9, lsl ip
     ac8:	000f0800 	andeq	r0, pc, r0, lsl #16
     acc:	13490b0b 	movtne	r0, #39691	; 0x9b0b
     ad0:	26090000 	strcs	r0, [r9], -r0
     ad4:	00134900 	andseq	r4, r3, r0, lsl #18
     ad8:	012e0a00 			; <UNDEFINED> instruction: 0x012e0a00
     adc:	0e03193f 			; <UNDEFINED> instruction: 0x0e03193f
     ae0:	0b3b0b3a 	bleq	ec37d0 <__bss_end__+0xeb84d8>
     ae4:	19270b39 	stmdbne	r7!, {r0, r3, r4, r5, r8, r9, fp}
     ae8:	01111349 	tsteq	r1, r9, asr #6
     aec:	18400612 	stmdane	r0, {r1, r4, r9, sl}^
     af0:	01194297 			; <UNDEFINED> instruction: 0x01194297
     af4:	0b000013 	bleq	b48 <__code_start__-0x74b8>
     af8:	08030005 	stmdaeq	r3, {r0, r2}
     afc:	0b3b0b3a 	bleq	ec37ec <__bss_end__+0xeb84f4>
     b00:	13490b39 	movtne	r0, #39737	; 0x9b39
     b04:	00001802 	andeq	r1, r0, r2, lsl #16
     b08:	0300050c 	movweq	r0, #1292	; 0x50c
     b0c:	3b0b3a08 	blcc	2cf334 <__bss_end__+0x2c403c>
     b10:	490b390b 	stmdbmi	fp, {r0, r1, r3, r8, fp, ip, sp}
     b14:	b7170213 			; <UNDEFINED> instruction: 0xb7170213
     b18:	00001742 	andeq	r1, r0, r2, asr #14
     b1c:	0300340d 	movweq	r3, #1037	; 0x40d
     b20:	3b0b3a08 	blcc	2cf348 <__bss_end__+0x2c4050>
     b24:	490b390b 	stmdbmi	fp, {r0, r1, r3, r8, fp, ip, sp}
     b28:	b7170213 			; <UNDEFINED> instruction: 0xb7170213
     b2c:	00001742 	andeq	r1, r0, r2, asr #14
     b30:	0b000f0e 	bleq	4770 <__code_start__-0x3890>
     b34:	0000000b 	andeq	r0, r0, fp
     b38:	25011101 	strcs	r1, [r1, #-257]	; 0xfffffeff
     b3c:	030b130e 	movweq	r1, #45838	; 0xb30e
     b40:	110e1b0e 	tstne	lr, lr, lsl #22
     b44:	10061201 	andne	r1, r6, r1, lsl #4
     b48:	02000017 	andeq	r0, r0, #23, 0
     b4c:	0e030016 	mcreq	0, 0, r0, cr3, cr6, {0}
     b50:	0b3b0b3a 	bleq	ec3840 <__bss_end__+0xeb8548>
     b54:	13490b39 	movtne	r0, #39737	; 0x9b39
     b58:	13030000 	movwne	r0, #12288	; 0x3000
     b5c:	0b0e0301 	bleq	381768 <__bss_end__+0x376470>
     b60:	3b0b3a0b 	blcc	2cf394 <__bss_end__+0x2c409c>
     b64:	0013010b 	andseq	r0, r3, fp, lsl #2
     b68:	000d0400 	andeq	r0, sp, r0, lsl #8
     b6c:	13490e03 	movtne	r0, #40451	; 0x9e03
     b70:	19340b38 	ldmdbne	r4!, {r3, r4, r5, r8, r9, fp}
     b74:	0f050000 	svceq	0x00050000
     b78:	000b0b00 	andeq	r0, fp, r0, lsl #22
     b7c:	00240600 	eoreq	r0, r4, r0, lsl #12
     b80:	0b3e0b0b 	bleq	f837b4 <__bss_end__+0xf784bc>
     b84:	00000803 	andeq	r0, r0, r3, lsl #16
     b88:	0b002407 	bleq	9bac <_cstart+0x108>
     b8c:	030b3e0b 	movweq	r3, #48651	; 0xbe0b
     b90:	0800000e 	stmdaeq	r0, {r1, r2, r3}
     b94:	19270115 	stmdbne	r7!, {r0, r2, r4, r8}
     b98:	13011349 	movwne	r1, #4937	; 0x1349
     b9c:	05090000 	streq	r0, [r9, #-0]
     ba0:	00134900 	andseq	r4, r3, r0, lsl #18
     ba4:	00340a00 	eorseq	r0, r4, r0, lsl #20
     ba8:	0b3a0e03 	bleq	e843bc <__bss_end__+0xe790c4>
     bac:	0b390b3b 	bleq	e438a0 <__bss_end__+0xe385a8>
     bb0:	193f1349 	ldmdbne	pc!, {r0, r3, r6, r8, r9, ip}	; <UNPREDICTABLE>
     bb4:	0000193c 	andeq	r1, r0, ip, lsr r9
     bb8:	0b000f0b 	bleq	47ec <__code_start__-0x3814>
     bbc:	0013490b 	andseq	r4, r3, fp, lsl #18
     bc0:	00260c00 	eoreq	r0, r6, r0, lsl #24
     bc4:	00001349 	andeq	r1, r0, r9, asr #6
     bc8:	3f012e0d 	svccc	0x00012e0d
     bcc:	3a0e0319 	bcc	381838 <__bss_end__+0x376540>
     bd0:	390b3b0b 	stmdbcc	fp, {r0, r1, r3, r8, r9, fp, ip, sp}
     bd4:	4919270b 	ldmdbmi	r9, {r0, r1, r3, r8, r9, sl, sp}
     bd8:	12011113 	andne	r1, r1, #-1073741820	; 0xc0000004
     bdc:	97184006 	ldrls	r4, [r8, -r6]
     be0:	13011942 	movwne	r1, #6466	; 0x1942
     be4:	050e0000 	streq	r0, [lr, #-0]
     be8:	3a080300 	bcc	2017f0 <__bss_end__+0x1f64f8>
     bec:	390b3b0b 	stmdbcc	fp, {r0, r1, r3, r8, r9, fp, ip, sp}
     bf0:	0213490b 	andseq	r4, r3, #180224	; 0x2c000
     bf4:	0f000018 	svceq	0x00000018
     bf8:	00000018 	andeq	r0, r0, r8, lsl r0
     bfc:	03003410 	movweq	r3, #1040	; 0x410
     c00:	3b0b3a08 	blcc	2cf428 <__bss_end__+0x2c4130>
     c04:	490b390b 	stmdbmi	fp, {r0, r1, r3, r8, fp, ip, sp}
     c08:	00180213 	andseq	r0, r8, r3, lsl r2
     c0c:	00341100 	eorseq	r1, r4, r0, lsl #2
     c10:	0b3a0e03 	bleq	e84424 <__bss_end__+0xe7912c>
     c14:	0b390b3b 	bleq	e43908 <__bss_end__+0xe38610>
     c18:	18021349 	stmdane	r2, {r0, r3, r6, r8, r9, ip}
     c1c:	34120000 	ldrcc	r0, [r2], #-0
     c20:	3a080300 	bcc	201828 <__bss_end__+0x1f6530>
     c24:	390b3b0b 	stmdbcc	fp, {r0, r1, r3, r8, r9, fp, ip, sp}
     c28:	0213490b 	andseq	r4, r3, #180224	; 0x2c000
     c2c:	1742b717 	smlaldne	fp, r2, r7, r7
     c30:	89130000 	ldmdbhi	r3, {}	; <UNPREDICTABLE>
     c34:	11010182 	smlabbne	r1, r2, r1, r0
     c38:	01133101 	tsteq	r3, r1, lsl #2
     c3c:	14000013 	strne	r0, [r0], #-19	; 0xffffffed
     c40:	0001828a 	andeq	r8, r1, sl, lsl #5
     c44:	42911802 	addsmi	r1, r1, #131072	; 0x20000
     c48:	15000018 	strne	r0, [r0, #-24]	; 0xffffffe8
     c4c:	01018289 	smlabbeq	r1, r9, r2, r8
     c50:	00000111 	andeq	r0, r0, r1, lsl r1
     c54:	49010116 	stmdbmi	r1, {r1, r2, r4, r8}
     c58:	00130113 	andseq	r0, r3, r3, lsl r1
     c5c:	00211700 	eoreq	r1, r1, r0, lsl #14
     c60:	052f1349 	streq	r1, [pc, #-841]!	; 91f <__code_start__-0x76e1>
     c64:	2e180000 	cdpcs	0, 1, cr0, cr8, cr0, {0}
     c68:	3c193f00 	ldccc	15, cr3, [r9], {-0}
     c6c:	030e6e19 	movweq	r6, #60953	; 0xee19
     c70:	3b0b3a0e 	blcc	2cf4b0 <__bss_end__+0x2c41b8>
     c74:	000b390b 	andeq	r3, fp, fp, lsl #18
     c78:	11010000 	mrsne	r0, (UNDEF: 1)
     c7c:	130e2501 	movwne	r2, #58625	; 0xe501
     c80:	1b0e030b 	blne	3818b4 <__bss_end__+0x3765bc>
     c84:	1201110e 	andne	r1, r1, #-2147483645	; 0x80000003
     c88:	00171006 	andseq	r1, r7, r6
     c8c:	00240200 	eoreq	r0, r4, r0, lsl #4
     c90:	0b3e0b0b 	bleq	f838c4 <__bss_end__+0xf785cc>
     c94:	00000803 	andeq	r0, r0, r3, lsl #16
     c98:	0b002403 	bleq	9cac <delay_us+0x20>
     c9c:	030b3e0b 	movweq	r3, #48651	; 0xbe0b
     ca0:	0400000e 	streq	r0, [r0], #-14
     ca4:	19270115 	stmdbne	r7!, {r0, r2, r4, r8}
     ca8:	13011349 	movwne	r1, #4937	; 0x1349
     cac:	05050000 	streq	r0, [r5, #-0]
     cb0:	00134900 	andseq	r4, r3, r0, lsl #18
     cb4:	00340600 	eorseq	r0, r4, r0, lsl #12
     cb8:	0b3a0e03 	bleq	e844cc <__bss_end__+0xe791d4>
     cbc:	0b390b3b 	bleq	e439b0 <__bss_end__+0xe386b8>
     cc0:	193f1349 	ldmdbne	pc!, {r0, r3, r6, r8, r9, ip}	; <UNPREDICTABLE>
     cc4:	0000193c 	andeq	r1, r0, ip, lsr r9
     cc8:	0b000f07 	bleq	48ec <__code_start__-0x3714>
     ccc:	0013490b 	andseq	r4, r3, fp, lsl #18
     cd0:	00260800 	eoreq	r0, r6, r0, lsl #16
     cd4:	00001349 	andeq	r1, r0, r9, asr #6
     cd8:	47003409 	strmi	r3, [r0, -r9, lsl #8]
     cdc:	3b0b3a13 	blcc	2cf530 <__bss_end__+0x2c4238>
     ce0:	020b390b 	andeq	r3, fp, #180224	; 0x2c000
     ce4:	0a000018 	beq	d4c <__code_start__-0x72b4>
     ce8:	193f012e 	ldmdbne	pc!, {r1, r2, r3, r5, r8}	; <UNPREDICTABLE>
     cec:	0b3a0e03 	bleq	e84500 <__bss_end__+0xe79208>
     cf0:	0b390b3b 	bleq	e439e4 <__bss_end__+0xe386ec>
     cf4:	13491927 	movtne	r1, #39207	; 0x9927
     cf8:	06120111 			; <UNDEFINED> instruction: 0x06120111
     cfc:	42961840 	addsmi	r1, r6, #64, 16	; 0x400000
     d00:	0b000019 	bleq	d6c <__code_start__-0x7294>
     d04:	08030005 	stmdaeq	r3, {r0, r2}
     d08:	0b3b0b3a 	bleq	ec39f8 <__bss_end__+0xeb8700>
     d0c:	13490b39 	movtne	r0, #39737	; 0x9b39
     d10:	42b71702 	adcsmi	r1, r7, #524288	; 0x80000
     d14:	00000017 	andeq	r0, r0, r7, lsl r0
     d18:	25011101 	strcs	r1, [r1, #-257]	; 0xfffffeff
     d1c:	030b130e 	movweq	r1, #45838	; 0xb30e
     d20:	110e1b0e 	tstne	lr, lr, lsl #22
     d24:	10061201 	andne	r1, r6, r1, lsl #4
     d28:	02000017 	andeq	r0, r0, #23, 0
     d2c:	0b0b0024 	bleq	2c0dc4 <__bss_end__+0x2b5acc>
     d30:	0e030b3e 	vmoveq.16	d3[0], r0
     d34:	24030000 	strcs	r0, [r3], #-0
     d38:	3e0b0b00 	vmlacc.f64	d0, d11, d0
     d3c:	0008030b 	andeq	r0, r8, fp, lsl #6
     d40:	00160400 	andseq	r0, r6, r0, lsl #8
     d44:	0b3a0e03 	bleq	e84558 <__bss_end__+0xe79260>
     d48:	0b390b3b 	bleq	e43a3c <__bss_end__+0xe38744>
     d4c:	00001349 	andeq	r1, r0, r9, asr #6
     d50:	27011505 	strcs	r1, [r1, -r5, lsl #10]
     d54:	01134919 	tsteq	r3, r9, lsl r9
     d58:	06000013 			; <UNDEFINED> instruction: 0x06000013
     d5c:	13490005 	movtne	r0, #36869	; 0x9005
     d60:	34070000 	strcc	r0, [r7], #-0
     d64:	3a0e0300 	bcc	38196c <__bss_end__+0x376674>
     d68:	390b3b0b 	stmdbcc	fp, {r0, r1, r3, r8, r9, fp, ip, sp}
     d6c:	3f13490b 	svccc	0x0013490b
     d70:	00193c19 	andseq	r3, r9, r9, lsl ip
     d74:	000f0800 	andeq	r0, pc, r0, lsl #16
     d78:	13490b0b 	movtne	r0, #39691	; 0x9b0b
     d7c:	26090000 	strcs	r0, [r9], -r0
     d80:	00134900 	andseq	r4, r3, r0, lsl #18
     d84:	01130a00 	tsteq	r3, r0, lsl #20
     d88:	0b0b0e03 	bleq	2c459c <__bss_end__+0x2b92a4>
     d8c:	0b3b0b3a 	bleq	ec3a7c <__bss_end__+0xeb8784>
     d90:	00001301 	andeq	r1, r0, r1, lsl #6
     d94:	03000d0b 	movweq	r0, #3339	; 0xd0b
     d98:	3813490e 	ldmdacc	r3, {r1, r2, r3, r8, fp, lr}
     d9c:	0019340b 	andseq	r3, r9, fp, lsl #8
     da0:	000f0c00 	andeq	r0, pc, r0, lsl #24
     da4:	00000b0b 	andeq	r0, r0, fp, lsl #22
     da8:	3f012e0d 	svccc	0x00012e0d
     dac:	3a0e0319 	bcc	381a18 <__bss_end__+0x376720>
     db0:	390b3b0b 	stmdbcc	fp, {r0, r1, r3, r8, r9, fp, ip, sp}
     db4:	4919270b 	ldmdbmi	r9, {r0, r1, r3, r8, r9, sl, sp}
     db8:	12011113 	andne	r1, r1, #-1073741820	; 0xc0000004
     dbc:	97184006 	ldrls	r4, [r8, -r6]
     dc0:	13011942 	movwne	r1, #6466	; 0x1942
     dc4:	050e0000 	streq	r0, [lr, #-0]
     dc8:	3a080300 	bcc	2019d0 <__bss_end__+0x1f66d8>
     dcc:	390b3b0b 	stmdbcc	fp, {r0, r1, r3, r8, r9, fp, ip, sp}
     dd0:	0213490b 	andseq	r4, r3, #180224	; 0x2c000
     dd4:	1742b717 	smlaldne	fp, r2, r7, r7
     dd8:	050f0000 	streq	r0, [pc, #-0]	; de0 <__code_start__-0x7220>
     ddc:	3a0e0300 	bcc	3819e4 <__bss_end__+0x3766ec>
     de0:	390b3b0b 	stmdbcc	fp, {r0, r1, r3, r8, r9, fp, ip, sp}
     de4:	0213490b 	andseq	r4, r3, #180224	; 0x2c000
     de8:	1742b717 	smlaldne	fp, r2, r7, r7
     dec:	34100000 	ldrcc	r0, [r0], #-0
     df0:	3a080300 	bcc	2019f8 <__bss_end__+0x1f6700>
     df4:	390b3b0b 	stmdbcc	fp, {r0, r1, r3, r8, r9, fp, ip, sp}
     df8:	0213490b 	andseq	r4, r3, #180224	; 0x2c000
     dfc:	1742b717 	smlaldne	fp, r2, r7, r7
     e00:	34110000 	ldrcc	r0, [r1], #-0
     e04:	3a0e0300 	bcc	381a0c <__bss_end__+0x376714>
     e08:	390b3b0b 	stmdbcc	fp, {r0, r1, r3, r8, r9, fp, ip, sp}
     e0c:	0213490b 	andseq	r4, r3, #180224	; 0x2c000
     e10:	1742b717 	smlaldne	fp, r2, r7, r7
     e14:	34120000 	ldrcc	r0, [r2], #-0
     e18:	490e0300 	stmdbmi	lr, {r8, r9}
     e1c:	02193413 	andseq	r3, r9, #318767104	; 0x13000000
     e20:	13000018 	movwne	r0, #24
     e24:	1755010b 	ldrbne	r0, [r5, -fp, lsl #2]
     e28:	34140000 	ldrcc	r0, [r4], #-0
     e2c:	3a080300 	bcc	201a34 <__bss_end__+0x1f673c>
     e30:	390b3b0b 	stmdbcc	fp, {r0, r1, r3, r8, r9, fp, ip, sp}
     e34:	0213490b 	andseq	r4, r3, #180224	; 0x2c000
     e38:	15000018 	strne	r0, [r0, #-24]	; 0xffffffe8
     e3c:	0e030034 	mcreq	0, 0, r0, cr3, cr4, {1}
     e40:	0b3b0b3a 	bleq	ec3b30 <__bss_end__+0xeb8838>
     e44:	13490b39 	movtne	r0, #39737	; 0x9b39
     e48:	00001802 	andeq	r1, r0, r2, lsl #16
     e4c:	55010b16 	strpl	r0, [r1, #-2838]	; 0xfffff4ea
     e50:	00130117 	andseq	r0, r3, r7, lsl r1
     e54:	82891700 	addhi	r1, r9, #0, 14
     e58:	01110101 	tsteq	r1, r1, lsl #2
     e5c:	13011331 	movwne	r1, #4913	; 0x1331
     e60:	8a180000 	bhi	600e68 <__bss_end__+0x5f5b70>
     e64:	02000182 	andeq	r0, r0, #-2147483616	; 0x80000020
     e68:	18429118 	stmdane	r2, {r3, r4, r8, ip, pc}^
     e6c:	89190000 	ldmdbhi	r9, {}	; <UNPREDICTABLE>
     e70:	11000182 	smlabbne	r0, r2, r1, r0
     e74:	00133101 	andseq	r3, r3, r1, lsl #2
     e78:	011d1a00 	tsteq	sp, r0, lsl #20
     e7c:	01521331 	cmpeq	r2, r1, lsr r3
     e80:	550542b8 	strpl	r4, [r5, #-696]	; 0xfffffd48
     e84:	590b5817 	stmdbpl	fp, {r0, r1, r2, r4, fp, ip, lr}
     e88:	010b570b 	tsteq	fp, fp, lsl #14
     e8c:	1b000013 	blne	ee0 <__code_start__-0x7120>
     e90:	13310005 	teqne	r1, #5, 0
     e94:	42b71702 	adcsmi	r1, r7, #524288	; 0x80000
     e98:	1c000017 	stcne	0, cr0, [r0], {23}
     e9c:	13310005 	teqne	r1, #5, 0
     ea0:	341d0000 	ldrcc	r0, [sp], #-0
     ea4:	02133100 	andseq	r3, r3, #0
     ea8:	1e000018 	mcrne	0, 0, r0, cr0, cr8, {0}
     eac:	13310034 	teqne	r1, #52, 0	; 0x34
     eb0:	42b71702 	adcsmi	r1, r7, #524288	; 0x80000
     eb4:	1f000017 	svcne	0x00000017
     eb8:	13310034 	teqne	r1, #52, 0	; 0x34
     ebc:	1d200000 	stcne	0, cr0, [r0, #-0]
     ec0:	52133101 	andspl	r3, r3, #1073741824	; 0x40000000
     ec4:	0542b801 	strbeq	fp, [r2, #-2049]	; 0xfffff7ff
     ec8:	0b581755 	bleq	1606c24 <__bss_end__+0x15fb92c>
     ecc:	0b570b59 	bleq	15c3c38 <__bss_end__+0x15b8940>
     ed0:	89210000 	stmdbhi	r1!, {}	; <UNPREDICTABLE>
     ed4:	11010182 	smlabbne	r1, r2, r1, r0
     ed8:	00130101 	andseq	r0, r3, r1, lsl #2
     edc:	01012200 	mrseq	r2, R9_usr
     ee0:	13011349 	movwne	r1, #4937	; 0x1349
     ee4:	21230000 			; <UNDEFINED> instruction: 0x21230000
     ee8:	2f134900 	svccs	0x00134900
     eec:	2400000b 	strcs	r0, [r0], #-11
     ef0:	0e03012e 	adfeqsp	f0, f3, #0.5
     ef4:	0b3b0b3a 	bleq	ec3be4 <__bss_end__+0xeb88ec>
     ef8:	19270b39 	stmdbne	r7!, {r0, r3, r4, r5, r8, r9, fp}
     efc:	0b201349 	bleq	805c28 <__bss_end__+0x7fa930>
     f00:	00001301 	andeq	r1, r0, r1, lsl #6
     f04:	03000525 	movweq	r0, #1317	; 0x525
     f08:	3b0b3a0e 	blcc	2cf748 <__bss_end__+0x2c4450>
     f0c:	490b390b 	stmdbmi	fp, {r0, r1, r3, r8, fp, ip, sp}
     f10:	26000013 			; <UNDEFINED> instruction: 0x26000013
     f14:	08030005 	stmdaeq	r3, {r0, r2}
     f18:	0b3b0b3a 	bleq	ec3c08 <__bss_end__+0xeb8910>
     f1c:	13490b39 	movtne	r0, #39737	; 0x9b39
     f20:	34270000 	strtcc	r0, [r7], #-0
     f24:	3a080300 	bcc	201b2c <__bss_end__+0x1f6834>
     f28:	390b3b0b 	stmdbcc	fp, {r0, r1, r3, r8, r9, fp, ip, sp}
     f2c:	0013490b 	andseq	r4, r3, fp, lsl #18
     f30:	010b2800 	tsteq	fp, r0, lsl #16
     f34:	34290000 	strtcc	r0, [r9], #-0
     f38:	3a0e0300 	bcc	381b40 <__bss_end__+0x376848>
     f3c:	390b3b0b 	stmdbcc	fp, {r0, r1, r3, r8, r9, fp, ip, sp}
     f40:	0013490b 	andseq	r4, r3, fp, lsl #18
     f44:	012e2a00 			; <UNDEFINED> instruction: 0x012e2a00
     f48:	0b3a0803 	bleq	e82f5c <__bss_end__+0xe77c64>
     f4c:	0b390b3b 	bleq	e43c40 <__bss_end__+0xe38948>
     f50:	13491927 	movtne	r1, #39207	; 0x9927
     f54:	13010b20 	movwne	r0, #6944	; 0x1b20
     f58:	2e2b0000 	cdpcs	0, 2, cr0, cr11, cr0, {0}
     f5c:	03193f01 	tsteq	r9, #1, 30
     f60:	3b0b3a0e 	blcc	2cf7a0 <__bss_end__+0x2c44a8>
     f64:	270b390b 	strcs	r3, [fp, -fp, lsl #18]
     f68:	12011119 	andne	r1, r1, #1073741830	; 0x40000006
     f6c:	97184006 	ldrls	r4, [r8, -r6]
     f70:	13011942 	movwne	r1, #6466	; 0x1942
     f74:	2e2c0000 	cdpcs	0, 2, cr0, cr12, cr0, {0}
     f78:	11133101 	tstne	r3, r1, lsl #2
     f7c:	40061201 	andmi	r1, r6, r1, lsl #4
     f80:	19429718 	stmdbne	r2, {r3, r4, r8, r9, sl, ip, pc}^
     f84:	00001301 	andeq	r1, r0, r1, lsl #6
     f88:	3100052d 	tstcc	r0, sp, lsr #10
     f8c:	00180213 	andseq	r0, r8, r3, lsl r2
     f90:	00052e00 	andeq	r2, r5, r0, lsl #28
     f94:	0b1c1331 	bleq	705c60 <__bss_end__+0x6fa968>
     f98:	0b2f0000 	bleq	bc0fa0 <__bss_end__+0xbb5ca8>
     f9c:	11133101 	tstne	r3, r1, lsl #2
     fa0:	01061201 	tsteq	r6, r1, lsl #4
     fa4:	30000013 	andcc	r0, r0, r3, lsl r0
     fa8:	193f002e 	ldmdbne	pc!, {r1, r2, r3, r5}	; <UNPREDICTABLE>
     fac:	0e6e193c 			; <UNDEFINED> instruction: 0x0e6e193c
     fb0:	0b3a0e03 	bleq	e847c4 <__bss_end__+0xe794cc>
     fb4:	0b390b3b 	bleq	e43ca8 <__bss_end__+0xe389b0>
     fb8:	01000000 	mrseq	r0, (UNDEF: 0)
     fbc:	0e250111 	mcreq	1, 1, r0, cr5, cr1, {0}
     fc0:	0e030b13 	vmoveq.32	d3[0], r0
     fc4:	01110e1b 	tsteq	r1, fp, lsl lr
     fc8:	17100612 			; <UNDEFINED> instruction: 0x17100612
     fcc:	24020000 	strcs	r0, [r2], #-0
     fd0:	3e0b0b00 	vmlacc.f64	d0, d11, d0
     fd4:	0008030b 	andeq	r0, r8, fp, lsl #6
     fd8:	00240300 	eoreq	r0, r4, r0, lsl #6
     fdc:	0b3e0b0b 	bleq	f83c10 <__bss_end__+0xf78918>
     fe0:	00000e03 	andeq	r0, r0, r3, lsl #28
     fe4:	27011504 	strcs	r1, [r1, -r4, lsl #10]
     fe8:	01134919 	tsteq	r3, r9, lsl r9
     fec:	05000013 	streq	r0, [r0, #-19]	; 0xffffffed
     ff0:	13490005 	movtne	r0, #36869	; 0x9005
     ff4:	34060000 	strcc	r0, [r6], #-0
     ff8:	3a0e0300 	bcc	381c00 <__bss_end__+0x376908>
     ffc:	390b3b0b 	stmdbcc	fp, {r0, r1, r3, r8, r9, fp, ip, sp}
    1000:	3f13490b 	svccc	0x0013490b
    1004:	00193c19 	andseq	r3, r9, r9, lsl ip
    1008:	000f0700 	andeq	r0, pc, r0, lsl #14
    100c:	13490b0b 	movtne	r0, #39691	; 0x9b0b
    1010:	26080000 	strcs	r0, [r8], -r0
    1014:	00134900 	andseq	r4, r3, r0, lsl #18
    1018:	012e0900 			; <UNDEFINED> instruction: 0x012e0900
    101c:	0e03193f 			; <UNDEFINED> instruction: 0x0e03193f
    1020:	0b3b0b3a 	bleq	ec3d10 <__bss_end__+0xeb8a18>
    1024:	19270b39 	stmdbne	r7!, {r0, r3, r4, r5, r8, r9, fp}
    1028:	11190187 	tstne	r9, r7, lsl #3
    102c:	40061201 	andmi	r1, r6, r1, lsl #4
    1030:	19429718 	stmdbne	r2, {r3, r4, r8, r9, sl, ip, pc}^
    1034:	00001301 	andeq	r1, r0, r1, lsl #6
    1038:	0182890a 	orreq	r8, r2, sl, lsl #18
    103c:	01011101 	tsteq	r1, r1, lsl #2
    1040:	0b000013 	bleq	1094 <__code_start__-0x6f6c>
    1044:	0001828a 	andeq	r8, r1, sl, lsl #5
    1048:	42911802 	addsmi	r1, r1, #131072	; 0x20000
    104c:	0c000018 	stceq	0, cr0, [r0], {24}
    1050:	00018289 	andeq	r8, r1, r9, lsl #5
    1054:	13310111 	teqne	r1, #1073741828	; 0x40000004
    1058:	890d0000 	stmdbhi	sp, {}	; <UNPREDICTABLE>
    105c:	11010182 	smlabbne	r1, r2, r1, r0
    1060:	01133101 	tsteq	r3, r1, lsl #2
    1064:	0e000013 	mcreq	0, 0, r0, cr0, cr3, {0}
    1068:	193f002e 	ldmdbne	pc!, {r1, r2, r3, r5}	; <UNPREDICTABLE>
    106c:	0e6e193c 			; <UNDEFINED> instruction: 0x0e6e193c
    1070:	0b3a0e03 	bleq	e84884 <__bss_end__+0xe7958c>
    1074:	0b390b3b 	bleq	e43d68 <__bss_end__+0xe38a70>
    1078:	01000000 	mrseq	r0, (UNDEF: 0)
    107c:	0e250111 	mcreq	1, 1, r0, cr5, cr1, {0}
    1080:	0e030b13 	vmoveq.32	d3[0], r0
    1084:	01110e1b 	tsteq	r1, fp, lsl lr
    1088:	17100612 			; <UNDEFINED> instruction: 0x17100612
    108c:	24020000 	strcs	r0, [r2], #-0
    1090:	3e0b0b00 	vmlacc.f64	d0, d11, d0
    1094:	0008030b 	andeq	r0, r8, fp, lsl #6
    1098:	00240300 	eoreq	r0, r4, r0, lsl #6
    109c:	0b3e0b0b 	bleq	f83cd0 <__bss_end__+0xf789d8>
    10a0:	00000e03 	andeq	r0, r0, r3, lsl #28
    10a4:	27011504 	strcs	r1, [r1, -r4, lsl #10]
    10a8:	01134919 	tsteq	r3, r9, lsl r9
    10ac:	05000013 	streq	r0, [r0, #-19]	; 0xffffffed
    10b0:	13490005 	movtne	r0, #36869	; 0x9005
    10b4:	34060000 	strcc	r0, [r6], #-0
    10b8:	3a0e0300 	bcc	381cc0 <__bss_end__+0x3769c8>
    10bc:	390b3b0b 	stmdbcc	fp, {r0, r1, r3, r8, r9, fp, ip, sp}
    10c0:	3f13490b 	svccc	0x0013490b
    10c4:	00193c19 	andseq	r3, r9, r9, lsl ip
    10c8:	000f0700 	andeq	r0, pc, r0, lsl #14
    10cc:	13490b0b 	movtne	r0, #39691	; 0x9b0b
    10d0:	26080000 	strcs	r0, [r8], -r0
    10d4:	00134900 	andseq	r4, r3, r0, lsl #18
    10d8:	012e0900 			; <UNDEFINED> instruction: 0x012e0900
    10dc:	0e03193f 			; <UNDEFINED> instruction: 0x0e03193f
    10e0:	0b3b0b3a 	bleq	ec3dd0 <__bss_end__+0xeb8ad8>
    10e4:	01110b39 	tsteq	r1, r9, lsr fp
    10e8:	18400612 	stmdane	r0, {r1, r4, r9, sl}^
    10ec:	01194297 			; <UNDEFINED> instruction: 0x01194297
    10f0:	0a000013 	beq	1144 <__code_start__-0x6ebc>
    10f4:	193f002e 	ldmdbne	pc!, {r1, r2, r3, r5}	; <UNPREDICTABLE>
    10f8:	0b3a0e03 	bleq	e8490c <__bss_end__+0xe79614>
    10fc:	0b390b3b 	bleq	e43df0 <__bss_end__+0xe38af8>
    1100:	193c1927 	ldmdbne	ip!, {r0, r1, r2, r5, r8, fp, ip}
    1104:	340b0000 	strcc	r0, [fp], #-0
    1108:	3a080300 	bcc	201d10 <__bss_end__+0x1f6a18>
    110c:	390b3b0b 	stmdbcc	fp, {r0, r1, r3, r8, r9, fp, ip, sp}
    1110:	0213490b 	andseq	r4, r3, #180224	; 0x2c000
    1114:	1742b717 	smlaldne	fp, r2, r7, r7
    1118:	340c0000 	strcc	r0, [ip], #-0
    111c:	3a0e0300 	bcc	381d24 <__bss_end__+0x376a2c>
    1120:	390b3b0b 	stmdbcc	fp, {r0, r1, r3, r8, r9, fp, ip, sp}
    1124:	0013490b 	andseq	r4, r3, fp, lsl #18
    1128:	00340d00 	eorseq	r0, r4, r0, lsl #26
    112c:	0b3a0e03 	bleq	e84940 <__bss_end__+0xe79648>
    1130:	0b390b3b 	bleq	e43e24 <__bss_end__+0xe38b2c>
    1134:	17021349 	strne	r1, [r2, -r9, asr #6]
    1138:	001742b7 			; <UNDEFINED> instruction: 0x001742b7
    113c:	010b0e00 	tsteq	fp, r0, lsl #28
    1140:	06120111 			; <UNDEFINED> instruction: 0x06120111
    1144:	00001301 	andeq	r1, r0, r1, lsl #6
    1148:	31011d0f 	tstcc	r1, pc, lsl #26
    114c:	b8015213 	stmdalt	r1, {r0, r1, r4, r9, ip, lr}
    1150:	01110b42 	tsteq	r1, r2, asr #22
    1154:	0b580612 	bleq	16029a4 <__bss_end__+0x15f76ac>
    1158:	0b570b59 	bleq	15c3ec4 <__bss_end__+0x15b8bcc>
    115c:	00001301 	andeq	r1, r0, r1, lsl #6
    1160:	31003410 	tstcc	r0, r0, lsl r4
    1164:	b7170213 			; <UNDEFINED> instruction: 0xb7170213
    1168:	00001742 	andeq	r1, r0, r2, asr #14
    116c:	31010b11 	tstcc	r1, r1, lsl fp
    1170:	12011113 	andne	r1, r1, #-1073741820	; 0xc0000004
    1174:	12000006 	andne	r0, r0, #6, 0
    1178:	1331011d 	teqne	r1, #1073741831	; 0x40000007
    117c:	42b80152 	adcsmi	r0, r8, #-2147483628	; 0x80000014
    1180:	5817550b 	ldmdapl	r7, {r0, r1, r3, r8, sl, ip, lr}
    1184:	570b590b 	strpl	r5, [fp, -fp, lsl #18]
    1188:	0013010b 	andseq	r0, r3, fp, lsl #2
    118c:	010b1300 	mrseq	r1, (UNDEF: 59)
    1190:	00001755 	andeq	r1, r0, r5, asr r7
    1194:	01828914 	orreq	r8, r2, r4, lsl r9
    1198:	31011100 	mrscc	r1, (UNDEF: 17)
    119c:	15000013 	strne	r0, [r0, #-19]	; 0xffffffed
    11a0:	01018289 	smlabbeq	r1, r9, r2, r8
    11a4:	13310111 	teqne	r1, #1073741828	; 0x40000004
    11a8:	00001301 	andeq	r1, r0, r1, lsl #6
    11ac:	01828a16 	orreq	r8, r2, r6, lsl sl
    11b0:	91180200 	tstls	r8, r0, lsl #4
    11b4:	00001842 	andeq	r1, r0, r2, asr #16
    11b8:	03012e17 	movweq	r2, #7703	; 0x1e17
    11bc:	3b0b3a0e 	blcc	2cf9fc <__bss_end__+0x2c4704>
    11c0:	270b390b 	strcs	r3, [fp, -fp, lsl #18]
    11c4:	20134919 	andscs	r4, r3, r9, lsl r9
    11c8:	0013010b 	andseq	r0, r3, fp, lsl #2
    11cc:	00341800 	eorseq	r1, r4, r0, lsl #16
    11d0:	0b3a0e03 	bleq	e849e4 <__bss_end__+0xe796ec>
    11d4:	0b390b3b 	bleq	e43ec8 <__bss_end__+0xe38bd0>
    11d8:	18021349 	stmdane	r2, {r0, r3, r6, r8, r9, ip}
    11dc:	34190000 	ldrcc	r0, [r9], #-0
    11e0:	3a080300 	bcc	201de8 <__bss_end__+0x1f6af0>
    11e4:	390b3b0b 	stmdbcc	fp, {r0, r1, r3, r8, r9, fp, ip, sp}
    11e8:	0013490b 	andseq	r4, r3, fp, lsl #18
    11ec:	010b1a00 	tsteq	fp, r0, lsl #20
    11f0:	2e1b0000 	cdpcs	0, 1, cr0, cr11, cr0, {0}
    11f4:	3c193f00 	ldccc	15, cr3, [r9], {-0}
    11f8:	030e6e19 	movweq	r6, #60953	; 0xee19
    11fc:	3b0b3a0e 	blcc	2cfa3c <__bss_end__+0x2c4744>
    1200:	000b3905 	andeq	r3, fp, r5, lsl #18
    1204:	002e1c00 	eoreq	r1, lr, r0, lsl #24
    1208:	193c193f 	ldmdbne	ip!, {r0, r1, r2, r3, r4, r5, r8, fp, ip}
    120c:	0e030e6e 	cdpeq	14, 0, cr0, cr3, cr14, {3}
    1210:	0b3b0b3a 	bleq	ec3f00 <__bss_end__+0xeb8c08>
    1214:	00000b39 	andeq	r0, r0, r9, lsr fp
    1218:	01110100 	tsteq	r1, r0, lsl #2
    121c:	0b130e25 	bleq	4c4ab8 <__bss_end__+0x4b97c0>
    1220:	0e1b0e03 	cdpeq	14, 1, cr0, cr11, cr3, {0}
    1224:	06120111 			; <UNDEFINED> instruction: 0x06120111
    1228:	00001710 	andeq	r1, r0, r0, lsl r7
    122c:	0b002402 	bleq	a23c <kmalloc_aligned+0xb4>
    1230:	030b3e0b 	movweq	r3, #48651	; 0xbe0b
    1234:	03000008 	movweq	r0, #8
    1238:	0b0b0024 	bleq	2c12d0 <__bss_end__+0x2b5fd8>
    123c:	0e030b3e 	vmoveq.16	d3[0], r0
    1240:	15040000 	strne	r0, [r4, #-0]
    1244:	49192701 	ldmdbmi	r9, {r0, r8, r9, sl, sp}
    1248:	00130113 	andseq	r0, r3, r3, lsl r1
    124c:	00050500 	andeq	r0, r5, r0, lsl #10
    1250:	00001349 	andeq	r1, r0, r9, asr #6
    1254:	03003406 	movweq	r3, #1030	; 0x406
    1258:	3b0b3a0e 	blcc	2cfa98 <__bss_end__+0x2c47a0>
    125c:	490b390b 	stmdbmi	fp, {r0, r1, r3, r8, fp, ip, sp}
    1260:	3c193f13 	ldccc	15, cr3, [r9], {19}
    1264:	07000019 	smladeq	r0, r9, r0, r0
    1268:	0b0b000f 	bleq	2c12ac <__bss_end__+0x2b5fb4>
    126c:	00001349 	andeq	r1, r0, r9, asr #6
    1270:	49002608 	stmdbmi	r0, {r3, r9, sl, sp}
    1274:	09000013 	stmdbeq	r0, {r0, r1, r4}
    1278:	193f002e 	ldmdbne	pc!, {r1, r2, r3, r5}	; <UNPREDICTABLE>
    127c:	0b3a0e03 	bleq	e84a90 <__bss_end__+0xe79798>
    1280:	0b390b3b 	bleq	e43f74 <__bss_end__+0xe38c7c>
    1284:	01111927 	tsteq	r1, r7, lsr #18
    1288:	18400612 	stmdane	r0, {r1, r4, r9, sl}^
    128c:	00194297 	mulseq	r9, r7, r2
    1290:	11010000 	mrsne	r0, (UNDEF: 1)
    1294:	130e2501 	movwne	r2, #58625	; 0xe501
    1298:	1b0e030b 	blne	381ecc <__bss_end__+0x376bd4>
    129c:	1117550e 	tstne	r7, lr, lsl #10
    12a0:	00171001 	andseq	r1, r7, r1
    12a4:	00240200 	eoreq	r0, r4, r0, lsl #4
    12a8:	0b3e0b0b 	bleq	f83edc <__bss_end__+0xf78be4>
    12ac:	00000803 	andeq	r0, r0, r3, lsl #16
    12b0:	49002603 	stmdbmi	r0, {r0, r1, r9, sl, sp}
    12b4:	04000013 	streq	r0, [r0], #-19	; 0xffffffed
    12b8:	0b0b0024 	bleq	2c1350 <__bss_end__+0x2b6058>
    12bc:	0e030b3e 	vmoveq.16	d3[0], r0
    12c0:	15050000 	strne	r0, [r5, #-0]
    12c4:	49192701 	ldmdbmi	r9, {r0, r8, r9, sl, sp}
    12c8:	00130113 	andseq	r0, r3, r3, lsl r1
    12cc:	00050600 	andeq	r0, r5, r0, lsl #12
    12d0:	00001349 	andeq	r1, r0, r9, asr #6
    12d4:	03003407 	movweq	r3, #1031	; 0x407
    12d8:	3b0b3a0e 	blcc	2cfb18 <__bss_end__+0x2c4820>
    12dc:	490b390b 	stmdbmi	fp, {r0, r1, r3, r8, fp, ip, sp}
    12e0:	3c193f13 	ldccc	15, cr3, [r9], {19}
    12e4:	08000019 	stmdaeq	r0, {r0, r3, r4}
    12e8:	0b0b000f 	bleq	2c132c <__bss_end__+0x2b6034>
    12ec:	00001349 	andeq	r1, r0, r9, asr #6
    12f0:	03003409 	movweq	r3, #1033	; 0x409
    12f4:	3b0b3a0e 	blcc	2cfb34 <__bss_end__+0x2c483c>
    12f8:	490b390b 	stmdbmi	fp, {r0, r1, r3, r8, fp, ip, sp}
    12fc:	0a000013 	beq	1350 <__code_start__-0x6cb0>
    1300:	193f012e 	ldmdbne	pc!, {r1, r2, r3, r5, r8}	; <UNPREDICTABLE>
    1304:	0b3a0e03 	bleq	e84b18 <__bss_end__+0xe79820>
    1308:	0b390b3b 	bleq	e43ffc <__bss_end__+0xe38d04>
    130c:	01871927 	orreq	r1, r7, r7, lsr #18
    1310:	12011119 	andne	r1, r1, #1073741830	; 0x40000006
    1314:	97184006 	ldrls	r4, [r8, -r6]
    1318:	13011942 	movwne	r1, #6466	; 0x1942
    131c:	340b0000 	strcc	r0, [fp], #-0
    1320:	3a0e0300 	bcc	381f28 <__bss_end__+0x376c30>
    1324:	390b3b0b 	stmdbcc	fp, {r0, r1, r3, r8, r9, fp, ip, sp}
    1328:	1c13490b 			; <UNDEFINED> instruction: 0x1c13490b
    132c:	0c000006 	stceq	0, cr0, [r0], {6}
    1330:	0e030034 	mcreq	0, 0, r0, cr3, cr4, {1}
    1334:	0b3b0b3a 	bleq	ec4024 <__bss_end__+0xeb8d2c>
    1338:	13490b39 	movtne	r0, #39737	; 0x9b39
    133c:	00000b1c 	andeq	r0, r0, ip, lsl fp
    1340:	31011d0d 	tstcc	r1, sp, lsl #26
    1344:	b8015213 	stmdalt	r1, {r0, r1, r4, r9, ip, lr}
    1348:	17550b42 	ldrbne	r0, [r5, -r2, asr #22]
    134c:	0b590b58 	bleq	16440b4 <__bss_end__+0x1638dbc>
    1350:	13010b57 	movwne	r0, #6999	; 0x1b57
    1354:	0b0e0000 	bleq	38135c <__bss_end__+0x376064>
    1358:	00175501 	andseq	r5, r7, r1, lsl #10
    135c:	00340f00 	eorseq	r0, r4, r0, lsl #30
    1360:	17021331 	smladxne	r2, r1, r3, r1
    1364:	001742b7 			; <UNDEFINED> instruction: 0x001742b7
    1368:	011d1000 	tsteq	sp, r0
    136c:	01521331 	cmpeq	r2, r1, lsr r3
    1370:	110b42b8 			; <UNDEFINED> instruction: 0x110b42b8
    1374:	58061201 	stmdapl	r6, {r0, r9, ip}
    1378:	570b590b 	strpl	r5, [fp, -fp, lsl #18]
    137c:	0013010b 	andseq	r0, r3, fp, lsl #2
    1380:	82891100 	addhi	r1, r9, #0
    1384:	01110001 	tsteq	r1, r1
    1388:	00001331 	andeq	r1, r0, r1, lsr r3
    138c:	01828912 	orreq	r8, r2, r2, lsl r9
    1390:	31011101 	tstcc	r1, r1, lsl #2
    1394:	00130113 	andseq	r0, r3, r3, lsl r1
    1398:	828a1300 	addhi	r1, sl, #0, 6
    139c:	18020001 	stmdane	r2, {r0}
    13a0:	00184291 	mulseq	r8, r1, r2
    13a4:	82891400 	addhi	r1, r9, #0, 8
    13a8:	01110101 	tsteq	r1, r1, lsl #2
    13ac:	00001331 	andeq	r1, r0, r1, lsr r3
    13b0:	3f012e15 	svccc	0x00012e15
    13b4:	3a0e0319 	bcc	382020 <__bss_end__+0x376d28>
    13b8:	390b3b0b 	stmdbcc	fp, {r0, r1, r3, r8, r9, fp, ip, sp}
    13bc:	2019270b 	andscs	r2, r9, fp, lsl #14
    13c0:	0013010b 	andseq	r0, r3, fp, lsl #2
    13c4:	012e1600 			; <UNDEFINED> instruction: 0x012e1600
    13c8:	0e03193f 			; <UNDEFINED> instruction: 0x0e03193f
    13cc:	0b3b0b3a 	bleq	ec40bc <__bss_end__+0xeb8dc4>
    13d0:	19270b39 	stmdbne	r7!, {r0, r3, r4, r5, r8, r9, fp}
    13d4:	0b201349 	bleq	806100 <__bss_end__+0x7fae08>
    13d8:	00001301 	andeq	r1, r0, r1, lsl #6
    13dc:	31012e17 	tstcc	r1, r7, lsl lr
    13e0:	12011113 	andne	r1, r1, #-1073741820	; 0xc0000004
    13e4:	97184006 	ldrls	r4, [r8, -r6]
    13e8:	13011942 	movwne	r1, #6466	; 0x1942
    13ec:	2e180000 	cdpcs	0, 1, cr0, cr8, cr0, {0}
    13f0:	3c193f00 	ldccc	15, cr3, [r9], {-0}
    13f4:	030e6e19 	movweq	r6, #60953	; 0xee19
    13f8:	3b0b3a0e 	blcc	2cfc38 <__bss_end__+0x2c4940>
    13fc:	000b3905 	andeq	r3, fp, r5, lsl #18
    1400:	002e1900 	eoreq	r1, lr, r0, lsl #18
    1404:	193c193f 	ldmdbne	ip!, {r0, r1, r2, r3, r4, r5, r8, fp, ip}
    1408:	0e030e6e 	cdpeq	14, 0, cr0, cr3, cr14, {3}
    140c:	0b3b0b3a 	bleq	ec40fc <__bss_end__+0xeb8e04>
    1410:	00000b39 	andeq	r0, r0, r9, lsr fp
    1414:	01110100 	tsteq	r1, r0, lsl #2
    1418:	0b130e25 	bleq	4c4cb4 <__bss_end__+0x4b99bc>
    141c:	0e1b0e03 	cdpeq	14, 1, cr0, cr11, cr3, {0}
    1420:	06120111 			; <UNDEFINED> instruction: 0x06120111
    1424:	00001710 	andeq	r1, r0, r0, lsl r7
    1428:	0b002402 	bleq	a438 <gpio_set_input+0x38>
    142c:	030b3e0b 	movweq	r3, #48651	; 0xbe0b
    1430:	03000008 	movweq	r0, #8
    1434:	0b0b0024 	bleq	2c14cc <__bss_end__+0x2b61d4>
    1438:	0e030b3e 	vmoveq.16	d3[0], r0
    143c:	15040000 	strne	r0, [r4, #-0]
    1440:	49192701 	ldmdbmi	r9, {r0, r8, r9, sl, sp}
    1444:	00130113 	andseq	r0, r3, r3, lsl r1
    1448:	00050500 	andeq	r0, r5, r0, lsl #10
    144c:	00001349 	andeq	r1, r0, r9, asr #6
    1450:	03003406 	movweq	r3, #1030	; 0x406
    1454:	3b0b3a0e 	blcc	2cfc94 <__bss_end__+0x2c499c>
    1458:	490b390b 	stmdbmi	fp, {r0, r1, r3, r8, fp, ip, sp}
    145c:	3c193f13 	ldccc	15, cr3, [r9], {19}
    1460:	07000019 	smladeq	r0, r9, r0, r0
    1464:	0b0b000f 	bleq	2c14a8 <__bss_end__+0x2b61b0>
    1468:	00001349 	andeq	r1, r0, r9, asr #6
    146c:	49002608 	stmdbmi	r0, {r3, r9, sl, sp}
    1470:	09000013 	stmdbeq	r0, {r0, r1, r4}
    1474:	193f012e 	ldmdbne	pc!, {r1, r2, r3, r5, r8}	; <UNPREDICTABLE>
    1478:	0b3a0e03 	bleq	e84c8c <__bss_end__+0xe79994>
    147c:	0b390b3b 	bleq	e44170 <__bss_end__+0xe38e78>
    1480:	01111927 	tsteq	r1, r7, lsr #18
    1484:	18400612 	stmdane	r0, {r1, r4, r9, sl}^
    1488:	01194297 			; <UNDEFINED> instruction: 0x01194297
    148c:	0a000013 	beq	14e0 <__code_start__-0x6b20>
    1490:	08030005 	stmdaeq	r3, {r0, r2}
    1494:	0b3b0b3a 	bleq	ec4184 <__bss_end__+0xeb8e8c>
    1498:	13490b39 	movtne	r0, #39737	; 0x9b39
    149c:	42b71702 	adcsmi	r1, r7, #524288	; 0x80000
    14a0:	0b000017 	bleq	1504 <__code_start__-0x6afc>
    14a4:	1331011d 	teqne	r1, #1073741831	; 0x40000007
    14a8:	42b80152 	adcsmi	r0, r8, #-2147483628	; 0x80000014
    14ac:	5817550b 	ldmdapl	r7, {r0, r1, r3, r8, sl, ip, lr}
    14b0:	570b590b 	strpl	r5, [fp, -fp, lsl #18]
    14b4:	0c00000b 	stceq	0, cr0, [r0], {11}
    14b8:	13310005 	teqne	r1, #5, 0
    14bc:	42b71702 	adcsmi	r1, r7, #524288	; 0x80000
    14c0:	0d000017 	stceq	0, cr0, [r0, #-92]	; 0xffffffa4
    14c4:	1331011d 	teqne	r1, #1073741831	; 0x40000007
    14c8:	42b80152 	adcsmi	r0, r8, #-2147483628	; 0x80000014
    14cc:	1201110b 	andne	r1, r1, #-1073741822	; 0xc0000002
    14d0:	590b5806 	stmdbpl	fp, {r1, r2, fp, ip, lr}
    14d4:	000b570b 	andeq	r5, fp, fp, lsl #14
    14d8:	00340e00 	eorseq	r0, r4, r0, lsl #28
    14dc:	17021331 	smladxne	r2, r1, r3, r1
    14e0:	001742b7 			; <UNDEFINED> instruction: 0x001742b7
    14e4:	011d0f00 	tsteq	sp, r0, lsl #30
    14e8:	01521331 	cmpeq	r2, r1, lsr r3
    14ec:	110b42b8 			; <UNDEFINED> instruction: 0x110b42b8
    14f0:	58061201 	stmdapl	r6, {r0, r9, ip}
    14f4:	570b590b 	strpl	r5, [fp, -fp, lsl #18]
    14f8:	0013010b 	andseq	r0, r3, fp, lsl #2
    14fc:	82891000 	addhi	r1, r9, #0, 0
    1500:	01110101 	tsteq	r1, r1, lsl #2
    1504:	00001331 	andeq	r1, r0, r1, lsr r3
    1508:	01828a11 	orreq	r8, r2, r1, lsl sl
    150c:	91180200 	tstls	r8, r0, lsl #4
    1510:	00001842 	andeq	r1, r0, r2, asr #16
    1514:	01828912 	orreq	r8, r2, r2, lsl r9
    1518:	31011100 	mrscc	r1, (UNDEF: 17)
    151c:	13000013 	movwne	r0, #19
    1520:	1331010b 	teqne	r1, #-1073741822	; 0xc0000002
    1524:	00001755 	andeq	r1, r0, r5, asr r7
    1528:	31003414 	tstcc	r0, r4, lsl r4
    152c:	15000013 	strne	r0, [r0, #-19]	; 0xffffffed
    1530:	1755010b 	ldrbne	r0, [r5, -fp, lsl #2]
    1534:	1d160000 	ldcne	0, cr0, [r6, #-0]
    1538:	52133101 	andspl	r3, r3, #1073741824	; 0x40000000
    153c:	0b42b801 	bleq	10af548 <__bss_end__+0x10a4250>
    1540:	0b581755 	bleq	160729c <__bss_end__+0x15fbfa4>
    1544:	0b570b59 	bleq	15c42b0 <__bss_end__+0x15b8fb8>
    1548:	00001301 	andeq	r1, r0, r1, lsl #6
    154c:	3f012e17 	svccc	0x00012e17
    1550:	3a0e0319 	bcc	3821bc <__bss_end__+0x376ec4>
    1554:	390b3b0b 	stmdbcc	fp, {r0, r1, r3, r8, r9, fp, ip, sp}
    1558:	2019270b 	andscs	r2, r9, fp, lsl #14
    155c:	0013010b 	andseq	r0, r3, fp, lsl #2
    1560:	00051800 	andeq	r1, r5, r0, lsl #16
    1564:	0b3a0803 	bleq	e83578 <__bss_end__+0xe78280>
    1568:	0b390b3b 	bleq	e4425c <__bss_end__+0xe38f64>
    156c:	00001349 	andeq	r1, r0, r9, asr #6
    1570:	03003419 	movweq	r3, #1049	; 0x419
    1574:	3b0b3a08 	blcc	2cfd9c <__bss_end__+0x2c4aa4>
    1578:	490b390b 	stmdbmi	fp, {r0, r1, r3, r8, fp, ip, sp}
    157c:	1a000013 	bne	15d0 <__code_start__-0x6a30>
    1580:	0000010b 	andeq	r0, r0, fp, lsl #2
    1584:	3f012e1b 	svccc	0x00012e1b
    1588:	3a0e0319 	bcc	3821f4 <__bss_end__+0x376efc>
    158c:	390b3b0b 	stmdbcc	fp, {r0, r1, r3, r8, r9, fp, ip, sp}
    1590:	4919270b 	ldmdbmi	r9, {r0, r1, r3, r8, r9, sl, sp}
    1594:	010b2013 	tsteq	fp, r3, lsl r0
    1598:	1c000013 	stcne	0, cr0, [r0], {19}
    159c:	193f002e 	ldmdbne	pc!, {r1, r2, r3, r5}	; <UNPREDICTABLE>
    15a0:	0b3a0e03 	bleq	e84db4 <__bss_end__+0xe79abc>
    15a4:	0b390b3b 	bleq	e44298 <__bss_end__+0xe38fa0>
    15a8:	13491927 	movtne	r1, #39207	; 0x9927
    15ac:	00000b20 	andeq	r0, r0, r0, lsr #22
    15b0:	31012e1d 	tstcc	r1, sp, lsl lr
    15b4:	12011113 	andne	r1, r1, #-1073741820	; 0xc0000004
    15b8:	97184006 	ldrls	r4, [r8, -r6]
    15bc:	13011942 	movwne	r1, #6466	; 0x1942
    15c0:	891e0000 	ldmdbhi	lr, {}	; <UNPREDICTABLE>
    15c4:	11010182 	smlabbne	r1, r2, r1, r0
    15c8:	19429501 	stmdbne	r2, {r0, r8, sl, ip, pc}^
    15cc:	00001331 	andeq	r1, r0, r1, lsr r3
    15d0:	3f002e1f 	svccc	0x00002e1f
    15d4:	6e193c19 	mrcvs	12, 0, r3, cr9, cr9, {0}
    15d8:	3a0e030e 	bcc	382218 <__bss_end__+0x376f20>
    15dc:	390b3b0b 	stmdbcc	fp, {r0, r1, r3, r8, r9, fp, ip, sp}
    15e0:	0000000b 	andeq	r0, r0, fp
    15e4:	25011101 	strcs	r1, [r1, #-257]	; 0xfffffeff
    15e8:	030b130e 	movweq	r1, #45838	; 0xb30e
    15ec:	110e1b0e 	tstne	lr, lr, lsl #22
    15f0:	10061201 	andne	r1, r6, r1, lsl #4
    15f4:	02000017 	andeq	r0, r0, #23, 0
    15f8:	0b0b0024 	bleq	2c1690 <__bss_end__+0x2b6398>
    15fc:	08030b3e 	stmdaeq	r3, {r1, r2, r3, r4, r5, r8, r9, fp}
    1600:	24030000 	strcs	r0, [r3], #-0
    1604:	3e0b0b00 	vmlacc.f64	d0, d11, d0
    1608:	000e030b 	andeq	r0, lr, fp, lsl #6
    160c:	00350400 	eorseq	r0, r5, r0, lsl #8
    1610:	00001349 	andeq	r1, r0, r9, asr #6
    1614:	03001605 	movweq	r1, #1541	; 0x605
    1618:	3b0b3a0e 	blcc	2cfe58 <__bss_end__+0x2c4b60>
    161c:	490b390b 	stmdbmi	fp, {r0, r1, r3, r8, fp, ip, sp}
    1620:	06000013 			; <UNDEFINED> instruction: 0x06000013
    1624:	0b3e0104 	bleq	f81a3c <__bss_end__+0xf76744>
    1628:	13490b0b 	movtne	r0, #39691	; 0x9b0b
    162c:	0b3b0b3a 	bleq	ec431c <__bss_end__+0xeb9024>
    1630:	13010b39 	movwne	r0, #6969	; 0x1b39
    1634:	28070000 	stmdacs	r7, {}	; <UNPREDICTABLE>
    1638:	1c0e0300 	stcne	3, cr0, [lr], {-0}
    163c:	0800000b 	stmdaeq	r0, {r0, r1, r3}
    1640:	0e030113 	mcreq	1, 0, r0, cr3, cr3, {0}
    1644:	0b3a0b0b 	bleq	e84278 <__bss_end__+0xe78f80>
    1648:	0b390b3b 	bleq	e4433c <__bss_end__+0xe39044>
    164c:	00001301 	andeq	r1, r0, r1, lsl #6
    1650:	03000d09 	movweq	r0, #3337	; 0xd09
    1654:	3b0b3a08 	blcc	2cfe7c <__bss_end__+0x2c4b84>
    1658:	490b390b 	stmdbmi	fp, {r0, r1, r3, r8, fp, ip, sp}
    165c:	000b3813 	andeq	r3, fp, r3, lsl r8
    1660:	000d0a00 	andeq	r0, sp, r0, lsl #20
    1664:	0b3a0e03 	bleq	e84e78 <__bss_end__+0xe79b80>
    1668:	0b390b3b 	bleq	e4435c <__bss_end__+0xe39064>
    166c:	0b381349 	bleq	e06398 <__bss_end__+0xdfb0a0>
    1670:	340b0000 	strcc	r0, [fp], #-0
    1674:	3a0e0300 	bcc	38227c <__bss_end__+0x376f84>
    1678:	390b3b0b 	stmdbcc	fp, {r0, r1, r3, r8, r9, fp, ip, sp}
    167c:	1c13490b 			; <UNDEFINED> instruction: 0x1c13490b
    1680:	0c000006 	stceq	0, cr0, [r0], {6}
    1684:	0b0b000f 	bleq	2c16c8 <__bss_end__+0x2b63d0>
    1688:	00001349 	andeq	r1, r0, r9, asr #6
    168c:	4900260d 	stmdbmi	r0, {r0, r2, r3, r9, sl, sp}
    1690:	0e000013 	mcreq	0, 0, r0, cr0, cr3, {0}
    1694:	193f012e 	ldmdbne	pc!, {r1, r2, r3, r5, r8}	; <UNPREDICTABLE>
    1698:	0b3a0e03 	bleq	e84eac <__bss_end__+0xe79bb4>
    169c:	0b390b3b 	bleq	e44390 <__bss_end__+0xe39098>
    16a0:	01111927 	tsteq	r1, r7, lsr #18
    16a4:	18400612 	stmdane	r0, {r1, r4, r9, sl}^
    16a8:	01194297 			; <UNDEFINED> instruction: 0x01194297
    16ac:	0f000013 	svceq	0x00000013
    16b0:	00018289 	andeq	r8, r1, r9, lsl #5
    16b4:	13310111 	teqne	r1, #1073741828	; 0x40000004
    16b8:	2e100000 	cdpcs	0, 1, cr0, cr0, cr0, {0}
    16bc:	03193f01 	tsteq	r9, #1, 30
    16c0:	3b0b3a0e 	blcc	2cff00 <__bss_end__+0x2c4c08>
    16c4:	270b390b 	strcs	r3, [fp, -fp, lsl #18]
    16c8:	11134919 	tstne	r3, r9, lsl r9
    16cc:	40061201 	andmi	r1, r6, r1, lsl #4
    16d0:	19429718 	stmdbne	r2, {r3, r4, r8, r9, sl, ip, pc}^
    16d4:	00001301 	andeq	r1, r0, r1, lsl #6
    16d8:	01828911 	orreq	r8, r2, r1, lsl r9
    16dc:	31011101 	tstcc	r1, r1, lsl #2
    16e0:	12000013 	andne	r0, r0, #19, 0
    16e4:	0001828a 	andeq	r8, r1, sl, lsl #5
    16e8:	42911802 	addsmi	r1, r1, #131072	; 0x20000
    16ec:	13000018 	movwne	r0, #24
    16f0:	08030005 	stmdaeq	r3, {r0, r2}
    16f4:	0b3b0b3a 	bleq	ec43e4 <__bss_end__+0xeb90ec>
    16f8:	13490b39 	movtne	r0, #39737	; 0x9b39
    16fc:	42b71702 	adcsmi	r1, r7, #524288	; 0x80000
    1700:	14000017 	strne	r0, [r0], #-23	; 0xffffffe9
    1704:	01018289 	smlabbeq	r1, r9, r2, r8
    1708:	13310111 	teqne	r1, #1073741828	; 0x40000004
    170c:	00001301 	andeq	r1, r0, r1, lsl #6
    1710:	03003415 	movweq	r3, #1045	; 0x415
    1714:	3b0b3a08 	blcc	2cff3c <__bss_end__+0x2c4c44>
    1718:	490b390b 	stmdbmi	fp, {r0, r1, r3, r8, fp, ip, sp}
    171c:	b7170213 			; <UNDEFINED> instruction: 0xb7170213
    1720:	00001742 	andeq	r1, r0, r2, asr #14
    1724:	03003416 	movweq	r3, #1046	; 0x416
    1728:	3b0b3a0e 	blcc	2cff68 <__bss_end__+0x2c4c70>
    172c:	490b390b 	stmdbmi	fp, {r0, r1, r3, r8, fp, ip, sp}
    1730:	00051c13 	andeq	r1, r5, r3, lsl ip
    1734:	012e1700 			; <UNDEFINED> instruction: 0x012e1700
    1738:	0b3a0e03 	bleq	e84f4c <__bss_end__+0xe79c54>
    173c:	0b390b3b 	bleq	e44430 <__bss_end__+0xe39138>
    1740:	01111927 	tsteq	r1, r7, lsr #18
    1744:	18400612 	stmdane	r0, {r1, r4, r9, sl}^
    1748:	01194297 			; <UNDEFINED> instruction: 0x01194297
    174c:	18000013 	stmdane	r0, {r0, r1, r4}
    1750:	0e030005 	cdpeq	0, 0, cr0, cr3, cr5, {0}
    1754:	0b3b0b3a 	bleq	ec4444 <__bss_end__+0xeb914c>
    1758:	13490b39 	movtne	r0, #39737	; 0x9b39
    175c:	42b71702 	adcsmi	r1, r7, #524288	; 0x80000
    1760:	19000017 	stmdbne	r0, {r0, r1, r2, r4}
    1764:	00000035 	andeq	r0, r0, r5, lsr r0
    1768:	3f002e1a 	svccc	0x00002e1a
    176c:	6e193c19 	mrcvs	12, 0, r3, cr9, cr9, {0}
    1770:	3a0e030e 	bcc	3823b0 <__bss_end__+0x3770b8>
    1774:	390b3b0b 	stmdbcc	fp, {r0, r1, r3, r8, r9, fp, ip, sp}
    1778:	0000000b 	andeq	r0, r0, fp
    177c:	25011101 	strcs	r1, [r1, #-257]	; 0xfffffeff
    1780:	030b130e 	movweq	r1, #45838	; 0xb30e
    1784:	110e1b0e 	tstne	lr, lr, lsl #22
    1788:	10061201 	andne	r1, r6, r1, lsl #4
    178c:	02000017 	andeq	r0, r0, #23, 0
    1790:	0b0b0024 	bleq	2c1828 <__bss_end__+0x2b6530>
    1794:	08030b3e 	stmdaeq	r3, {r1, r2, r3, r4, r5, r8, r9, fp}
    1798:	24030000 	strcs	r0, [r3], #-0
    179c:	3e0b0b00 	vmlacc.f64	d0, d11, d0
    17a0:	000e030b 	andeq	r0, lr, fp, lsl #6
    17a4:	00160400 	andseq	r0, r6, r0, lsl #8
    17a8:	0b3a0e03 	bleq	e84fbc <__bss_end__+0xe79cc4>
    17ac:	0b390b3b 	bleq	e444a0 <__bss_end__+0xe391a8>
    17b0:	00001349 	andeq	r1, r0, r9, asr #6
    17b4:	49002605 	stmdbmi	r0, {r0, r2, r9, sl, sp}
    17b8:	06000013 			; <UNDEFINED> instruction: 0x06000013
    17bc:	0b0b000f 	bleq	2c1800 <__bss_end__+0x2b6508>
    17c0:	04070000 	streq	r0, [r7], #-0
    17c4:	0b0b3e01 	bleq	2d0fd0 <__bss_end__+0x2c5cd8>
    17c8:	3a13490b 	bcc	4d3bfc <__bss_end__+0x4c8904>
    17cc:	390b3b0b 	stmdbcc	fp, {r0, r1, r3, r8, r9, fp, ip, sp}
    17d0:	0013010b 	andseq	r0, r3, fp, lsl #2
    17d4:	00280800 	eoreq	r0, r8, r0, lsl #16
    17d8:	061c0e03 	ldreq	r0, [ip], -r3, lsl #28
    17dc:	34090000 	strcc	r0, [r9], #-0
    17e0:	3a0e0300 	bcc	3823e8 <__bss_end__+0x3770f0>
    17e4:	390b3b0b 	stmdbcc	fp, {r0, r1, r3, r8, r9, fp, ip, sp}
    17e8:	3f13490b 	svccc	0x0013490b
    17ec:	00193c19 	andseq	r3, r9, r9, lsl ip
    17f0:	00340a00 	eorseq	r0, r4, r0, lsl #20
    17f4:	0b3a0e03 	bleq	e85008 <__bss_end__+0xe79d10>
    17f8:	0b390b3b 	bleq	e444ec <__bss_end__+0xe391f4>
    17fc:	18021349 	stmdane	r2, {r0, r3, r6, r8, r9, ip}
    1800:	0f0b0000 	svceq	0x000b0000
    1804:	490b0b00 	stmdbmi	fp, {r8, r9, fp}
    1808:	0c000013 	stceq	0, cr0, [r0], {19}
    180c:	193f012e 	ldmdbne	pc!, {r1, r2, r3, r5, r8}	; <UNPREDICTABLE>
    1810:	0b3a0e03 	bleq	e85024 <__bss_end__+0xe79d2c>
    1814:	0b390b3b 	bleq	e44508 <__bss_end__+0xe39210>
    1818:	01111927 	tsteq	r1, r7, lsr #18
    181c:	18400612 	stmdane	r0, {r1, r4, r9, sl}^
    1820:	01194297 			; <UNDEFINED> instruction: 0x01194297
    1824:	0d000013 	stceq	0, cr0, [r0, #-76]	; 0xffffffb4
    1828:	08030005 	stmdaeq	r3, {r0, r2}
    182c:	0b3b0b3a 	bleq	ec451c <__bss_end__+0xeb9224>
    1830:	13490b39 	movtne	r0, #39737	; 0x9b39
    1834:	42b71702 	adcsmi	r1, r7, #524288	; 0x80000
    1838:	0e000017 	mcreq	0, 0, r0, cr0, cr7, {0}
    183c:	0e030034 	mcreq	0, 0, r0, cr3, cr4, {1}
    1840:	19341349 	ldmdbne	r4!, {r0, r3, r6, r8, r9, ip}
    1844:	00001802 	andeq	r1, r0, r2, lsl #16
    1848:	0182890f 	orreq	r8, r2, pc, lsl #18
    184c:	31011101 	tstcc	r1, r1, lsl #2
    1850:	00130113 	andseq	r0, r3, r3, lsl r1
    1854:	828a1000 	addhi	r1, sl, #0, 0
    1858:	18020001 	stmdane	r2, {r0}
    185c:	00184291 	mulseq	r8, r1, r2
    1860:	82891100 	addhi	r1, r9, #0
    1864:	01110001 	tsteq	r1, r1
    1868:	00001331 	andeq	r1, r0, r1, lsr r3
    186c:	49010112 	stmdbmi	r1, {r1, r4, r8}
    1870:	00130113 	andseq	r0, r3, r3, lsl r1
    1874:	00211300 	eoreq	r1, r1, r0, lsl #6
    1878:	0b2f1349 	bleq	bc65a4 <__bss_end__+0xbbb2ac>
    187c:	2e140000 	cdpcs	0, 1, cr0, cr4, cr0, {0}
    1880:	03193f00 	tsteq	r9, #0, 30
    1884:	3b0b3a0e 	blcc	2d00c4 <__bss_end__+0x2c4dcc>
    1888:	270b390b 	strcs	r3, [fp, -fp, lsl #18]
    188c:	12011119 	andne	r1, r1, #1073741830	; 0x40000006
    1890:	97184006 	ldrls	r4, [r8, -r6]
    1894:	00001942 	andeq	r1, r0, r2, asr #18
    1898:	03000515 	movweq	r0, #1301	; 0x515
    189c:	3b0b3a08 	blcc	2d00c4 <__bss_end__+0x2c4dcc>
    18a0:	490b390b 	stmdbmi	fp, {r0, r1, r3, r8, fp, ip, sp}
    18a4:	00180213 	andseq	r0, r8, r3, lsl r2
    18a8:	012e1600 			; <UNDEFINED> instruction: 0x012e1600
    18ac:	0e03193f 			; <UNDEFINED> instruction: 0x0e03193f
    18b0:	0b3b0b3a 	bleq	ec45a0 <__bss_end__+0xeb92a8>
    18b4:	19270b39 	stmdbne	r7!, {r0, r3, r4, r5, r8, r9, fp}
    18b8:	01111349 	tsteq	r1, r9, asr #6
    18bc:	18400612 	stmdane	r0, {r1, r4, r9, sl}^
    18c0:	01194297 			; <UNDEFINED> instruction: 0x01194297
    18c4:	17000013 	smladne	r0, r3, r0, r0
    18c8:	0e030005 	cdpeq	0, 0, cr0, cr3, cr5, {0}
    18cc:	0b3b0b3a 	bleq	ec45bc <__bss_end__+0xeb92c4>
    18d0:	13490b39 	movtne	r0, #39737	; 0x9b39
    18d4:	42b71702 	adcsmi	r1, r7, #524288	; 0x80000
    18d8:	18000017 	stmdane	r0, {r0, r1, r2, r4}
    18dc:	08030034 	stmdaeq	r3, {r2, r4, r5}
    18e0:	0b3b0b3a 	bleq	ec45d0 <__bss_end__+0xeb92d8>
    18e4:	13490b39 	movtne	r0, #39737	; 0x9b39
    18e8:	42b71702 	adcsmi	r1, r7, #524288	; 0x80000
    18ec:	19000017 	stmdbne	r0, {r0, r1, r2, r4}
    18f0:	1331011d 	teqne	r1, #1073741831	; 0x40000007
    18f4:	42b80152 	adcsmi	r0, r8, #-2147483628	; 0x80000014
    18f8:	1201110b 	andne	r1, r1, #-1073741822	; 0xc0000002
    18fc:	590b5806 	stmdbpl	fp, {r1, r2, fp, ip, lr}
    1900:	010b570b 	tsteq	fp, fp, lsl #14
    1904:	1a000013 	bne	1958 <__code_start__-0x66a8>
    1908:	13310005 	teqne	r1, #5, 0
    190c:	42b71702 	adcsmi	r1, r7, #524288	; 0x80000
    1910:	1b000017 	blne	1974 <__code_start__-0x668c>
    1914:	1331011d 	teqne	r1, #1073741831	; 0x40000007
    1918:	42b80152 	adcsmi	r0, r8, #-2147483628	; 0x80000014
    191c:	5817550b 	ldmdapl	r7, {r0, r1, r3, r8, sl, ip, lr}
    1920:	570b590b 	strpl	r5, [fp, -fp, lsl #18]
    1924:	0013010b 	andseq	r0, r3, fp, lsl #2
    1928:	010b1c00 	tsteq	fp, r0, lsl #24
    192c:	00001755 	andeq	r1, r0, r5, asr r7
    1930:	0300341d 	movweq	r3, #1053	; 0x41d
    1934:	3b0b3a0e 	blcc	2d0174 <__bss_end__+0x2c4e7c>
    1938:	490b390b 	stmdbmi	fp, {r0, r1, r3, r8, fp, ip, sp}
    193c:	b7170213 			; <UNDEFINED> instruction: 0xb7170213
    1940:	00001742 	andeq	r1, r0, r2, asr #14
    1944:	55000b1e 	strpl	r0, [r0, #-2846]	; 0xfffff4e2
    1948:	1f000017 	svcne	0x00000017
    194c:	193f002e 	ldmdbne	pc!, {r1, r2, r3, r5}	; <UNPREDICTABLE>
    1950:	0b3a0e03 	bleq	e85164 <__bss_end__+0xe79e6c>
    1954:	0b390b3b 	bleq	e44648 <__bss_end__+0xe39350>
    1958:	13491927 	movtne	r1, #39207	; 0x9927
    195c:	06120111 			; <UNDEFINED> instruction: 0x06120111
    1960:	42971840 	addsmi	r1, r7, #64, 16	; 0x400000
    1964:	20000019 	andcs	r0, r0, r9, lsl r0
    1968:	0e03012e 	adfeqsp	f0, f3, #0.5
    196c:	0b3b0b3a 	bleq	ec465c <__bss_end__+0xeb9364>
    1970:	19270b39 	stmdbne	r7!, {r0, r3, r4, r5, r8, r9, fp}
    1974:	0b201349 	bleq	8066a0 <__bss_end__+0x7fb3a8>
    1978:	00001301 	andeq	r1, r0, r1, lsl #6
    197c:	03000521 	movweq	r0, #1313	; 0x521
    1980:	3b0b3a08 	blcc	2d01a8 <__bss_end__+0x2c4eb0>
    1984:	490b390b 	stmdbmi	fp, {r0, r1, r3, r8, fp, ip, sp}
    1988:	22000013 	andcs	r0, r0, #19, 0
    198c:	193f002e 	ldmdbne	pc!, {r1, r2, r3, r5}	; <UNPREDICTABLE>
    1990:	0e6e193c 			; <UNDEFINED> instruction: 0x0e6e193c
    1994:	0b3a0e03 	bleq	e851a8 <__bss_end__+0xe79eb0>
    1998:	0b390b3b 	bleq	e4468c <__bss_end__+0xe39394>
    199c:	01000000 	mrseq	r0, (UNDEF: 0)
    19a0:	0e250111 	mcreq	1, 1, r0, cr5, cr1, {0}
    19a4:	0e030b13 	vmoveq.32	d3[0], r0
    19a8:	01110e1b 	tsteq	r1, fp, lsl lr
    19ac:	17100612 			; <UNDEFINED> instruction: 0x17100612
    19b0:	24020000 	strcs	r0, [r2], #-0
    19b4:	3e0b0b00 	vmlacc.f64	d0, d11, d0
    19b8:	000e030b 	andeq	r0, lr, fp, lsl #6
    19bc:	00240300 	eoreq	r0, r4, r0, lsl #6
    19c0:	0b3e0b0b 	bleq	f845f4 <__bss_end__+0xf792fc>
    19c4:	00000803 	andeq	r0, r0, r3, lsl #16
    19c8:	49002604 	stmdbmi	r0, {r2, r9, sl, sp}
    19cc:	05000013 	streq	r0, [r0, #-19]	; 0xffffffed
    19d0:	0e030016 	mcreq	0, 0, r0, cr3, cr6, {0}
    19d4:	0b3b0b3a 	bleq	ec46c4 <__bss_end__+0xeb93cc>
    19d8:	13490b39 	movtne	r0, #39737	; 0x9b39
    19dc:	15060000 	strne	r0, [r6, #-0]
    19e0:	49192701 	ldmdbmi	r9, {r0, r8, r9, sl, sp}
    19e4:	00130113 	andseq	r0, r3, r3, lsl r1
    19e8:	00050700 	andeq	r0, r5, r0, lsl #14
    19ec:	00001349 	andeq	r1, r0, r9, asr #6
    19f0:	03003408 	movweq	r3, #1032	; 0x408
    19f4:	3b0b3a0e 	blcc	2d0234 <__bss_end__+0x2c4f3c>
    19f8:	490b390b 	stmdbmi	fp, {r0, r1, r3, r8, fp, ip, sp}
    19fc:	3c193f13 	ldccc	15, cr3, [r9], {19}
    1a00:	09000019 	stmdbeq	r0, {r0, r3, r4}
    1a04:	0b0b000f 	bleq	2c1a48 <__bss_end__+0x2b6750>
    1a08:	00001349 	andeq	r1, r0, r9, asr #6
    1a0c:	3e01040a 	cdpcc	4, 0, cr0, cr1, cr10, {0}
    1a10:	490b0b0b 	stmdbmi	fp, {r0, r1, r3, r8, r9, fp}
    1a14:	3b0b3a13 	blcc	2d0268 <__bss_end__+0x2c4f70>
    1a18:	010b390b 	tsteq	fp, fp, lsl #18
    1a1c:	0b000013 	bleq	1a70 <__code_start__-0x6590>
    1a20:	0e030028 	cdpeq	0, 0, cr0, cr3, cr8, {1}
    1a24:	00000b1c 	andeq	r0, r0, ip, lsl fp
    1a28:	0300340c 	movweq	r3, #1036	; 0x40c
    1a2c:	3b0b3a0e 	blcc	2d026c <__bss_end__+0x2c4f74>
    1a30:	490b390b 	stmdbmi	fp, {r0, r1, r3, r8, fp, ip, sp}
    1a34:	00061c13 	andeq	r1, r6, r3, lsl ip
    1a38:	012e0d00 			; <UNDEFINED> instruction: 0x012e0d00
    1a3c:	0e03193f 			; <UNDEFINED> instruction: 0x0e03193f
    1a40:	0b3b0b3a 	bleq	ec4730 <__bss_end__+0xeb9438>
    1a44:	19270b39 	stmdbne	r7!, {r0, r3, r4, r5, r8, r9, fp}
    1a48:	01111349 	tsteq	r1, r9, asr #6
    1a4c:	18400612 	stmdane	r0, {r1, r4, r9, sl}^
    1a50:	01194297 			; <UNDEFINED> instruction: 0x01194297
    1a54:	0e000013 	mcreq	0, 0, r0, cr0, cr3, {0}
    1a58:	08030005 	stmdaeq	r3, {r0, r2}
    1a5c:	0b3b0b3a 	bleq	ec474c <__bss_end__+0xeb9454>
    1a60:	13490b39 	movtne	r0, #39737	; 0x9b39
    1a64:	42b71702 	adcsmi	r1, r7, #524288	; 0x80000
    1a68:	0f000017 	svceq	0x00000017
    1a6c:	0e030034 	mcreq	0, 0, r0, cr3, cr4, {1}
    1a70:	0b3b0b3a 	bleq	ec4760 <__bss_end__+0xeb9468>
    1a74:	13490b39 	movtne	r0, #39737	; 0x9b39
    1a78:	42b71702 	adcsmi	r1, r7, #524288	; 0x80000
    1a7c:	10000017 	andne	r0, r0, r7, lsl r0
    1a80:	08030034 	stmdaeq	r3, {r2, r4, r5}
    1a84:	0b3b0b3a 	bleq	ec4774 <__bss_end__+0xeb947c>
    1a88:	13490b39 	movtne	r0, #39737	; 0x9b39
    1a8c:	42b71702 	adcsmi	r1, r7, #524288	; 0x80000
    1a90:	11000017 	tstne	r0, r7, lsl r0
    1a94:	01018289 	smlabbeq	r1, r9, r2, r8
    1a98:	13310111 	teqne	r1, #1073741828	; 0x40000004
    1a9c:	8a120000 	bhi	481aa4 <__bss_end__+0x4767ac>
    1aa0:	02000182 	andeq	r0, r0, #-2147483616	; 0x80000020
    1aa4:	18429118 	stmdane	r2, {r3, r4, r8, ip, pc}^
    1aa8:	2e130000 	cdpcs	0, 1, cr0, cr3, cr0, {0}
    1aac:	03193f01 	tsteq	r9, #1, 30
    1ab0:	3b0b3a0e 	blcc	2d02f0 <__bss_end__+0x2c4ff8>
    1ab4:	270b390b 	strcs	r3, [fp, -fp, lsl #18]
    1ab8:	12011119 	andne	r1, r1, #1073741830	; 0x40000006
    1abc:	97184006 	ldrls	r4, [r8, -r6]
    1ac0:	13011942 	movwne	r1, #6466	; 0x1942
    1ac4:	1d140000 	ldcne	0, cr0, [r4, #-0]
    1ac8:	52133101 	andspl	r3, r3, #1073741824	; 0x40000000
    1acc:	0b42b801 	bleq	10afad8 <__bss_end__+0x10a47e0>
    1ad0:	0b581755 	bleq	160782c <__bss_end__+0x15fc534>
    1ad4:	0b570b59 	bleq	15c4840 <__bss_end__+0x15b9548>
    1ad8:	00001301 	andeq	r1, r0, r1, lsl #6
    1adc:	31000515 	tstcc	r0, r5, lsl r5
    1ae0:	b7170213 			; <UNDEFINED> instruction: 0xb7170213
    1ae4:	00001742 	andeq	r1, r0, r2, asr #14
    1ae8:	01828916 	orreq	r8, r2, r6, lsl r9
    1aec:	95011101 	strls	r1, [r1, #-257]	; 0xfffffeff
    1af0:	13311942 	teqne	r1, #1081344	; 0x108000
    1af4:	1d170000 	ldcne	0, cr0, [r7, #-0]
    1af8:	52133101 	andspl	r3, r3, #1073741824	; 0x40000000
    1afc:	0b42b801 	bleq	10afb08 <__bss_end__+0x10a4810>
    1b00:	06120111 			; <UNDEFINED> instruction: 0x06120111
    1b04:	0b590b58 	bleq	164486c <__bss_end__+0x1639574>
    1b08:	00000b57 	andeq	r0, r0, r7, asr fp
    1b0c:	31011d18 	tstcc	r1, r8, lsl sp
    1b10:	b8015213 	stmdalt	r1, {r0, r1, r4, r9, ip, lr}
    1b14:	17550b42 	ldrbne	r0, [r5, -r2, asr #22]
    1b18:	0b590b58 	bleq	1644880 <__bss_end__+0x1639588>
    1b1c:	00000b57 	andeq	r0, r0, r7, asr fp
    1b20:	31000519 	tstcc	r0, r9, lsl r5
    1b24:	000b1c13 	andeq	r1, fp, r3, lsl ip
    1b28:	010b1a00 	tsteq	fp, r0, lsl #20
    1b2c:	00001755 	andeq	r1, r0, r5, asr r7
    1b30:	3100341b 	tstcc	r0, fp, lsl r4
    1b34:	1c000013 	stcne	0, cr0, [r0], {19}
    1b38:	13310034 	teqne	r1, #52, 0	; 0x34
    1b3c:	42b71702 	adcsmi	r1, r7, #524288	; 0x80000
    1b40:	1d000017 	stcne	0, cr0, [r0, #-92]	; 0xffffffa4
    1b44:	01018289 	smlabbeq	r1, r9, r2, r8
    1b48:	13310111 	teqne	r1, #1073741828	; 0x40000004
    1b4c:	00001301 	andeq	r1, r0, r1, lsl #6
    1b50:	3f012e1e 	svccc	0x00012e1e
    1b54:	3a0e0319 	bcc	3827c0 <__bss_end__+0x3774c8>
    1b58:	390b3b0b 	stmdbcc	fp, {r0, r1, r3, r8, r9, fp, ip, sp}
    1b5c:	2019270b 	andscs	r2, r9, fp, lsl #14
    1b60:	0013010b 	andseq	r0, r3, fp, lsl #2
    1b64:	00051f00 	andeq	r1, r5, r0, lsl #30
    1b68:	0b3a0803 	bleq	e83b7c <__bss_end__+0xe78884>
    1b6c:	0b390b3b 	bleq	e44860 <__bss_end__+0xe39568>
    1b70:	00001349 	andeq	r1, r0, r9, asr #6
    1b74:	03000520 	movweq	r0, #1312	; 0x520
    1b78:	3b0b3a0e 	blcc	2d03b8 <__bss_end__+0x2c50c0>
    1b7c:	490b390b 	stmdbmi	fp, {r0, r1, r3, r8, fp, ip, sp}
    1b80:	21000013 	tstcs	r0, r3, lsl r0
    1b84:	08030034 	stmdaeq	r3, {r2, r4, r5}
    1b88:	0b3b0b3a 	bleq	ec4878 <__bss_end__+0xeb9580>
    1b8c:	13490b39 	movtne	r0, #39737	; 0x9b39
    1b90:	2e220000 	cdpcs	0, 2, cr0, cr2, cr0, {0}
    1b94:	3a0e0301 	bcc	3827a0 <__bss_end__+0x3774a8>
    1b98:	390b3b0b 	stmdbcc	fp, {r0, r1, r3, r8, r9, fp, ip, sp}
    1b9c:	4919270b 	ldmdbmi	r9, {r0, r1, r3, r8, r9, sl, sp}
    1ba0:	010b2013 	tsteq	fp, r3, lsl r0
    1ba4:	23000013 	movwcs	r0, #19
    1ba8:	1331012e 	teqne	r1, #-2147483637	; 0x8000000b
    1bac:	06120111 			; <UNDEFINED> instruction: 0x06120111
    1bb0:	42971840 	addsmi	r1, r7, #64, 16	; 0x400000
    1bb4:	00130119 	andseq	r0, r3, r9, lsl r1
    1bb8:	002e2400 	eoreq	r2, lr, r0, lsl #8
    1bbc:	193c193f 	ldmdbne	ip!, {r0, r1, r2, r3, r4, r5, r8, fp, ip}
    1bc0:	0e030e6e 	cdpeq	14, 0, cr0, cr3, cr14, {3}
    1bc4:	0b3b0b3a 	bleq	ec48b4 <__bss_end__+0xeb95bc>
    1bc8:	00000b39 	andeq	r0, r0, r9, lsr fp
    1bcc:	01110100 	tsteq	r1, r0, lsl #2
    1bd0:	0b130e25 	bleq	4c546c <__bss_end__+0x4ba174>
    1bd4:	0e1b0e03 	cdpeq	14, 1, cr0, cr11, cr3, {0}
    1bd8:	06120111 			; <UNDEFINED> instruction: 0x06120111
    1bdc:	00001710 	andeq	r1, r0, r0, lsl r7
    1be0:	0b002402 	bleq	abf0 <__FUNCTION__.4140+0xe8>
    1be4:	030b3e0b 	movweq	r3, #48651	; 0xbe0b
    1be8:	03000008 	movweq	r0, #8
    1bec:	0b0b0024 	bleq	2c1c84 <__bss_end__+0x2b698c>
    1bf0:	0e030b3e 	vmoveq.16	d3[0], r0
    1bf4:	15040000 	strne	r0, [r4, #-0]
    1bf8:	49192701 	ldmdbmi	r9, {r0, r8, r9, sl, sp}
    1bfc:	00130113 	andseq	r0, r3, r3, lsl r1
    1c00:	00050500 	andeq	r0, r5, r0, lsl #10
    1c04:	00001349 	andeq	r1, r0, r9, asr #6
    1c08:	03003406 	movweq	r3, #1030	; 0x406
    1c0c:	3b0b3a0e 	blcc	2d044c <__bss_end__+0x2c5154>
    1c10:	490b390b 	stmdbmi	fp, {r0, r1, r3, r8, fp, ip, sp}
    1c14:	3c193f13 	ldccc	15, cr3, [r9], {19}
    1c18:	07000019 	smladeq	r0, r9, r0, r0
    1c1c:	0b0b000f 	bleq	2c1c60 <__bss_end__+0x2b6968>
    1c20:	00001349 	andeq	r1, r0, r9, asr #6
    1c24:	49002608 	stmdbmi	r0, {r3, r9, sl, sp}
    1c28:	09000013 	stmdbeq	r0, {r0, r1, r4}
    1c2c:	13470034 	movtne	r0, #28724	; 0x7034
    1c30:	0b3b0b3a 	bleq	ec4920 <__bss_end__+0xeb9628>
    1c34:	18020b39 	stmdane	r2, {r0, r3, r4, r5, r8, r9, fp}
    1c38:	2e0a0000 	cdpcs	0, 0, cr0, cr10, cr0, {0}
    1c3c:	03193f01 	tsteq	r9, #1, 30
    1c40:	3b0b3a0e 	blcc	2d0480 <__bss_end__+0x2c5188>
    1c44:	270b390b 	strcs	r3, [fp, -fp, lsl #18]
    1c48:	12011119 	andne	r1, r1, #1073741830	; 0x40000006
    1c4c:	97184006 	ldrls	r4, [r8, -r6]
    1c50:	13011942 	movwne	r1, #6466	; 0x1942
    1c54:	050b0000 	streq	r0, [fp, #-0]
    1c58:	3a080300 	bcc	202860 <__bss_end__+0x1f7568>
    1c5c:	390b3b0b 	stmdbcc	fp, {r0, r1, r3, r8, r9, fp, ip, sp}
    1c60:	0213490b 	andseq	r4, r3, #180224	; 0x2c000
    1c64:	0c000018 	stceq	0, cr0, [r0], {24}
    1c68:	193f002e 	ldmdbne	pc!, {r1, r2, r3, r5}	; <UNPREDICTABLE>
    1c6c:	0b3a0e03 	bleq	e85480 <__bss_end__+0xe7a188>
    1c70:	0b390b3b 	bleq	e44964 <__bss_end__+0xe3966c>
    1c74:	01111927 	tsteq	r1, r7, lsr #18
    1c78:	18400612 	stmdane	r0, {r1, r4, r9, sl}^
    1c7c:	00194297 	mulseq	r9, r7, r2
    1c80:	012e0d00 			; <UNDEFINED> instruction: 0x012e0d00
    1c84:	0b3a0e03 	bleq	e85498 <__bss_end__+0xe7a1a0>
    1c88:	0b390b3b 	bleq	e4497c <__bss_end__+0xe39684>
    1c8c:	13491927 	movtne	r1, #39207	; 0x9927
    1c90:	06120111 			; <UNDEFINED> instruction: 0x06120111
    1c94:	42971840 	addsmi	r1, r7, #64, 16	; 0x400000
    1c98:	00130119 	andseq	r0, r3, r9, lsl r1
    1c9c:	00050e00 	andeq	r0, r5, r0, lsl #28
    1ca0:	0b3a0803 	bleq	e83cb4 <__bss_end__+0xe789bc>
    1ca4:	0b390b3b 	bleq	e44998 <__bss_end__+0xe396a0>
    1ca8:	17021349 	strne	r1, [r2, -r9, asr #6]
    1cac:	001742b7 			; <UNDEFINED> instruction: 0x001742b7
    1cb0:	82890f00 	addhi	r0, r9, #0, 30
    1cb4:	01110101 	tsteq	r1, r1, lsl #2
    1cb8:	00001331 	andeq	r1, r0, r1, lsr r3
    1cbc:	01828a10 	orreq	r8, r2, r0, lsl sl
    1cc0:	91180200 	tstls	r8, r0, lsl #4
    1cc4:	00001842 	andeq	r1, r0, r2, asr #16
    1cc8:	3f002e11 	svccc	0x00002e11
    1ccc:	6e193c19 	mrcvs	12, 0, r3, cr9, cr9, {0}
    1cd0:	3a0e030e 	bcc	382910 <__bss_end__+0x377618>
    1cd4:	390b3b0b 	stmdbcc	fp, {r0, r1, r3, r8, r9, fp, ip, sp}
    1cd8:	0000000b 	andeq	r0, r0, fp
    1cdc:	25011101 	strcs	r1, [r1, #-257]	; 0xfffffeff
    1ce0:	030b130e 	movweq	r1, #45838	; 0xb30e
    1ce4:	110e1b0e 	tstne	lr, lr, lsl #22
    1ce8:	10061201 	andne	r1, r6, r1, lsl #4
    1cec:	02000017 	andeq	r0, r0, #23, 0
    1cf0:	0b0b0024 	bleq	2c1d88 <__bss_end__+0x2b6a90>
    1cf4:	08030b3e 	stmdaeq	r3, {r1, r2, r3, r4, r5, r8, r9, fp}
    1cf8:	24030000 	strcs	r0, [r3], #-0
    1cfc:	3e0b0b00 	vmlacc.f64	d0, d11, d0
    1d00:	000e030b 	andeq	r0, lr, fp, lsl #6
    1d04:	01150400 	tsteq	r5, r0, lsl #8
    1d08:	13491927 	movtne	r1, #39207	; 0x9927
    1d0c:	00001301 	andeq	r1, r0, r1, lsl #6
    1d10:	49000505 	stmdbmi	r0, {r0, r2, r8, sl}
    1d14:	06000013 			; <UNDEFINED> instruction: 0x06000013
    1d18:	0e030034 	mcreq	0, 0, r0, cr3, cr4, {1}
    1d1c:	0b3b0b3a 	bleq	ec4a0c <__bss_end__+0xeb9714>
    1d20:	13490b39 	movtne	r0, #39737	; 0x9b39
    1d24:	193c193f 	ldmdbne	ip!, {r0, r1, r2, r3, r4, r5, r8, fp, ip}
    1d28:	0f070000 	svceq	0x00070000
    1d2c:	490b0b00 	stmdbmi	fp, {r8, r9, fp}
    1d30:	08000013 	stmdaeq	r0, {r0, r1, r4}
    1d34:	13490026 	movtne	r0, #36902	; 0x9026
    1d38:	2e090000 	cdpcs	0, 0, cr0, cr9, cr0, {0}
    1d3c:	03193f01 	tsteq	r9, #1, 30
    1d40:	3b0b3a0e 	blcc	2d0580 <__bss_end__+0x2c5288>
    1d44:	270b390b 	strcs	r3, [fp, -fp, lsl #18]
    1d48:	11134919 	tstne	r3, r9, lsl r9
    1d4c:	40061201 	andmi	r1, r6, r1, lsl #4
    1d50:	19429718 	stmdbne	r2, {r3, r4, r8, r9, sl, ip, pc}^
    1d54:	00001301 	andeq	r1, r0, r1, lsl #6
    1d58:	0300050a 	movweq	r0, #1290	; 0x50a
    1d5c:	3b0b3a0e 	blcc	2d059c <__bss_end__+0x2c52a4>
    1d60:	490b390b 	stmdbmi	fp, {r0, r1, r3, r8, fp, ip, sp}
    1d64:	00180213 	andseq	r0, r8, r3, lsl r2
    1d68:	00050b00 	andeq	r0, r5, r0, lsl #22
    1d6c:	0b3a0803 	bleq	e83d80 <__bss_end__+0xe78a88>
    1d70:	0b390b3b 	bleq	e44a64 <__bss_end__+0xe3976c>
    1d74:	17021349 	strne	r1, [r2, -r9, asr #6]
    1d78:	001742b7 			; <UNDEFINED> instruction: 0x001742b7
    1d7c:	00340c00 	eorseq	r0, r4, r0, lsl #24
    1d80:	0b3a0803 	bleq	e83d94 <__bss_end__+0xe78a9c>
    1d84:	0b390b3b 	bleq	e44a78 <__bss_end__+0xe39780>
    1d88:	17021349 	strne	r1, [r2, -r9, asr #6]
    1d8c:	001742b7 			; <UNDEFINED> instruction: 0x001742b7
    1d90:	11010000 	mrsne	r0, (UNDEF: 1)
    1d94:	130e2501 	movwne	r2, #58625	; 0xe501
    1d98:	1b0e030b 	blne	3829cc <__bss_end__+0x3776d4>
    1d9c:	1201110e 	andne	r1, r1, #-2147483645	; 0x80000003
    1da0:	00171006 	andseq	r1, r7, r6
    1da4:	00240200 	eoreq	r0, r4, r0, lsl #4
    1da8:	0b3e0b0b 	bleq	f849dc <__bss_end__+0xf796e4>
    1dac:	00000803 	andeq	r0, r0, r3, lsl #16
    1db0:	0b002403 	bleq	adc4 <__FUNCTION__.4034+0x140>
    1db4:	030b3e0b 	movweq	r3, #48651	; 0xbe0b
    1db8:	0400000e 	streq	r0, [r0], #-14
    1dbc:	19270115 	stmdbne	r7!, {r0, r2, r4, r8}
    1dc0:	13011349 	movwne	r1, #4937	; 0x1349
    1dc4:	05050000 	streq	r0, [r5, #-0]
    1dc8:	00134900 	andseq	r4, r3, r0, lsl #18
    1dcc:	00340600 	eorseq	r0, r4, r0, lsl #12
    1dd0:	0b3a0e03 	bleq	e855e4 <__bss_end__+0xe7a2ec>
    1dd4:	0b390b3b 	bleq	e44ac8 <__bss_end__+0xe397d0>
    1dd8:	193f1349 	ldmdbne	pc!, {r0, r3, r6, r8, r9, ip}	; <UNPREDICTABLE>
    1ddc:	0000193c 	andeq	r1, r0, ip, lsr r9
    1de0:	0b000f07 	bleq	5a04 <__code_start__-0x25fc>
    1de4:	0013490b 	andseq	r4, r3, fp, lsl #18
    1de8:	00260800 	eoreq	r0, r6, r0, lsl #16
    1dec:	00001349 	andeq	r1, r0, r9, asr #6
    1df0:	3f012e09 	svccc	0x00012e09
    1df4:	3a0e0319 	bcc	382a60 <__bss_end__+0x377768>
    1df8:	390b3b0b 	stmdbcc	fp, {r0, r1, r3, r8, r9, fp, ip, sp}
    1dfc:	4919270b 	ldmdbmi	r9, {r0, r1, r3, r8, r9, sl, sp}
    1e00:	12011113 	andne	r1, r1, #-1073741820	; 0xc0000004
    1e04:	97184006 	ldrls	r4, [r8, -r6]
    1e08:	00001942 	andeq	r1, r0, r2, asr #18
    1e0c:	0300050a 	movweq	r0, #1290	; 0x50a
    1e10:	3b0b3a08 	blcc	2d0638 <__bss_end__+0x2c5340>
    1e14:	490b390b 	stmdbmi	fp, {r0, r1, r3, r8, fp, ip, sp}
    1e18:	b7170213 			; <UNDEFINED> instruction: 0xb7170213
    1e1c:	00001742 	andeq	r1, r0, r2, asr #14
    1e20:	01110100 	tsteq	r1, r0, lsl #2
    1e24:	0b130e25 	bleq	4c56c0 <__bss_end__+0x4ba3c8>
    1e28:	0e1b0e03 	cdpeq	14, 1, cr0, cr11, cr3, {0}
    1e2c:	06120111 			; <UNDEFINED> instruction: 0x06120111
    1e30:	00001710 	andeq	r1, r0, r0, lsl r7
    1e34:	0b002402 	bleq	ae44 <__FUNCTION__.4034+0x1c0>
    1e38:	030b3e0b 	movweq	r3, #48651	; 0xbe0b
    1e3c:	03000008 	movweq	r0, #8
    1e40:	0b0b0024 	bleq	2c1ed8 <__bss_end__+0x2b6be0>
    1e44:	0e030b3e 	vmoveq.16	d3[0], r0
    1e48:	15040000 	strne	r0, [r4, #-0]
    1e4c:	49192701 	ldmdbmi	r9, {r0, r8, r9, sl, sp}
    1e50:	00130113 	andseq	r0, r3, r3, lsl r1
    1e54:	00050500 	andeq	r0, r5, r0, lsl #10
    1e58:	00001349 	andeq	r1, r0, r9, asr #6
    1e5c:	03003406 	movweq	r3, #1030	; 0x406
    1e60:	3b0b3a0e 	blcc	2d06a0 <__bss_end__+0x2c53a8>
    1e64:	490b390b 	stmdbmi	fp, {r0, r1, r3, r8, fp, ip, sp}
    1e68:	3c193f13 	ldccc	15, cr3, [r9], {19}
    1e6c:	07000019 	smladeq	r0, r9, r0, r0
    1e70:	0b0b000f 	bleq	2c1eb4 <__bss_end__+0x2b6bbc>
    1e74:	00001349 	andeq	r1, r0, r9, asr #6
    1e78:	49002608 	stmdbmi	r0, {r3, r9, sl, sp}
    1e7c:	09000013 	stmdbeq	r0, {r0, r1, r4}
    1e80:	193f012e 	ldmdbne	pc!, {r1, r2, r3, r5, r8}	; <UNPREDICTABLE>
    1e84:	0b3a0e03 	bleq	e85698 <__bss_end__+0xe7a3a0>
    1e88:	0b390b3b 	bleq	e44b7c <__bss_end__+0xe39884>
    1e8c:	13491927 	movtne	r1, #39207	; 0x9927
    1e90:	06120111 			; <UNDEFINED> instruction: 0x06120111
    1e94:	42971840 	addsmi	r1, r7, #64, 16	; 0x400000
    1e98:	00130119 	andseq	r0, r3, r9, lsl r1
    1e9c:	00050a00 	andeq	r0, r5, r0, lsl #20
    1ea0:	0b3a0803 	bleq	e83eb4 <__bss_end__+0xe78bbc>
    1ea4:	0b390b3b 	bleq	e44b98 <__bss_end__+0xe398a0>
    1ea8:	18021349 	stmdane	r2, {r0, r3, r6, r8, r9, ip}
    1eac:	050b0000 	streq	r0, [fp, #-0]
    1eb0:	3a080300 	bcc	202ab8 <__bss_end__+0x1f77c0>
    1eb4:	390b3b0b 	stmdbcc	fp, {r0, r1, r3, r8, r9, fp, ip, sp}
    1eb8:	0213490b 	andseq	r4, r3, #180224	; 0x2c000
    1ebc:	1742b717 	smlaldne	fp, r2, r7, r7
    1ec0:	340c0000 	strcc	r0, [ip], #-0
    1ec4:	3a080300 	bcc	202acc <__bss_end__+0x1f77d4>
    1ec8:	390b3b0b 	stmdbcc	fp, {r0, r1, r3, r8, r9, fp, ip, sp}
    1ecc:	0213490b 	andseq	r4, r3, #180224	; 0x2c000
    1ed0:	1742b717 	smlaldne	fp, r2, r7, r7
    1ed4:	01000000 	mrseq	r0, (UNDEF: 0)
    1ed8:	0e250111 	mcreq	1, 1, r0, cr5, cr1, {0}
    1edc:	0e030b13 	vmoveq.32	d3[0], r0
    1ee0:	01110e1b 	tsteq	r1, fp, lsl lr
    1ee4:	17100612 			; <UNDEFINED> instruction: 0x17100612
    1ee8:	24020000 	strcs	r0, [r2], #-0
    1eec:	3e0b0b00 	vmlacc.f64	d0, d11, d0
    1ef0:	0008030b 	andeq	r0, r8, fp, lsl #6
    1ef4:	00160300 	andseq	r0, r6, r0, lsl #6
    1ef8:	0b3a0e03 	bleq	e8570c <__bss_end__+0xe7a414>
    1efc:	0b390b3b 	bleq	e44bf0 <__bss_end__+0xe398f8>
    1f00:	00001349 	andeq	r1, r0, r9, asr #6
    1f04:	0b002404 	bleq	af1c <buf.3948+0x30>
    1f08:	030b3e0b 	movweq	r3, #48651	; 0xbe0b
    1f0c:	0500000e 	streq	r0, [r0, #-14]
    1f10:	13490026 	movtne	r0, #36902	; 0x9026
    1f14:	15060000 	strne	r0, [r6, #-0]
    1f18:	49192701 	ldmdbmi	r9, {r0, r8, r9, sl, sp}
    1f1c:	00130113 	andseq	r0, r3, r3, lsl r1
    1f20:	00050700 	andeq	r0, r5, r0, lsl #14
    1f24:	00001349 	andeq	r1, r0, r9, asr #6
    1f28:	03003408 	movweq	r3, #1032	; 0x408
    1f2c:	3b0b3a0e 	blcc	2d076c <__bss_end__+0x2c5474>
    1f30:	490b390b 	stmdbmi	fp, {r0, r1, r3, r8, fp, ip, sp}
    1f34:	3c193f13 	ldccc	15, cr3, [r9], {19}
    1f38:	09000019 	stmdbeq	r0, {r0, r3, r4}
    1f3c:	0b0b000f 	bleq	2c1f80 <__bss_end__+0x2b6c88>
    1f40:	00001349 	andeq	r1, r0, r9, asr #6
    1f44:	3f012e0a 	svccc	0x00012e0a
    1f48:	3a0e0319 	bcc	382bb4 <__bss_end__+0x3778bc>
    1f4c:	390b3b0b 	stmdbcc	fp, {r0, r1, r3, r8, r9, fp, ip, sp}
    1f50:	4919270b 	ldmdbmi	r9, {r0, r1, r3, r8, r9, sl, sp}
    1f54:	12011113 	andne	r1, r1, #-1073741820	; 0xc0000004
    1f58:	97184006 	ldrls	r4, [r8, -r6]
    1f5c:	13011942 	movwne	r1, #6466	; 0x1942
    1f60:	050b0000 	streq	r0, [fp, #-0]
    1f64:	3a080300 	bcc	202b6c <__bss_end__+0x1f7874>
    1f68:	390b3b0b 	stmdbcc	fp, {r0, r1, r3, r8, r9, fp, ip, sp}
    1f6c:	0213490b 	andseq	r4, r3, #180224	; 0x2c000
    1f70:	1742b717 	smlaldne	fp, r2, r7, r7
    1f74:	340c0000 	strcc	r0, [ip], #-0
    1f78:	3a080300 	bcc	202b80 <__bss_end__+0x1f7888>
    1f7c:	390b3b0b 	stmdbcc	fp, {r0, r1, r3, r8, r9, fp, ip, sp}
    1f80:	0213490b 	andseq	r4, r3, #180224	; 0x2c000
    1f84:	1742b717 	smlaldne	fp, r2, r7, r7
    1f88:	01000000 	mrseq	r0, (UNDEF: 0)
    1f8c:	0e250111 	mcreq	1, 1, r0, cr5, cr1, {0}
    1f90:	0e030b13 	vmoveq.32	d3[0], r0
    1f94:	01110e1b 	tsteq	r1, fp, lsl lr
    1f98:	17100612 			; <UNDEFINED> instruction: 0x17100612
    1f9c:	24020000 	strcs	r0, [r2], #-0
    1fa0:	3e0b0b00 	vmlacc.f64	d0, d11, d0
    1fa4:	0008030b 	andeq	r0, r8, fp, lsl #6
    1fa8:	00240300 	eoreq	r0, r4, r0, lsl #6
    1fac:	0b3e0b0b 	bleq	f84be0 <__bss_end__+0xf798e8>
    1fb0:	00000e03 	andeq	r0, r0, r3, lsl #28
    1fb4:	27011504 	strcs	r1, [r1, -r4, lsl #10]
    1fb8:	01134919 	tsteq	r3, r9, lsl r9
    1fbc:	05000013 	streq	r0, [r0, #-19]	; 0xffffffed
    1fc0:	13490005 	movtne	r0, #36869	; 0x9005
    1fc4:	34060000 	strcc	r0, [r6], #-0
    1fc8:	3a0e0300 	bcc	382bd0 <__bss_end__+0x3778d8>
    1fcc:	390b3b0b 	stmdbcc	fp, {r0, r1, r3, r8, r9, fp, ip, sp}
    1fd0:	3f13490b 	svccc	0x0013490b
    1fd4:	00193c19 	andseq	r3, r9, r9, lsl ip
    1fd8:	000f0700 	andeq	r0, pc, r0, lsl #14
    1fdc:	13490b0b 	movtne	r0, #39691	; 0x9b0b
    1fe0:	26080000 	strcs	r0, [r8], -r0
    1fe4:	00134900 	andseq	r4, r3, r0, lsl #18
    1fe8:	002e0900 	eoreq	r0, lr, r0, lsl #18
    1fec:	0e03193f 			; <UNDEFINED> instruction: 0x0e03193f
    1ff0:	0b3b0b3a 	bleq	ec4ce0 <__bss_end__+0xeb99e8>
    1ff4:	19270b39 	stmdbne	r7!, {r0, r3, r4, r5, r8, r9, fp}
    1ff8:	06120111 			; <UNDEFINED> instruction: 0x06120111
    1ffc:	42971840 	addsmi	r1, r7, #64, 16	; 0x400000
    2000:	00000019 	andeq	r0, r0, r9, lsl r0

Disassembly of section .debug_loc:

00000000 <.debug_loc>:
       0:	00000000 	andeq	r0, r0, r0
       4:	000000fc 	strdeq	r0, [r0], -ip
       8:	00000100 	andeq	r0, r0, r0, lsl #2
       c:	00500001 	subseq	r0, r0, r1
      10:	03000001 	movweq	r0, #1
      14:	01000001 	tsteq	r0, r1
      18:	00005100 	andeq	r5, r0, r0, lsl #2
	...
      28:	0000015c 	andeq	r0, r0, ip, asr r1
      2c:	00000168 	andeq	r0, r0, r8, ror #2
      30:	78500001 	ldmdavc	r0, {r0}^
      34:	8c000001 	stchi	0, cr0, [r0], {1}
      38:	01000001 	tsteq	r0, r1
      3c:	018c5000 	orreq	r5, ip, r0
      40:	018f0000 	orreq	r0, pc, r0
      44:	00020000 	andeq	r0, r2, r0
      48:	0000007d 	andeq	r0, r0, sp, ror r0
      4c:	00000000 	andeq	r0, r0, r0
      50:	00010000 	andeq	r0, r1, r0
      54:	00010100 	andeq	r0, r1, r0, lsl #2
      58:	001c0000 	andseq	r0, ip, r0
      5c:	00240000 	eoreq	r0, r4, r0
      60:	00020000 	andeq	r0, r2, r0
      64:	00249f30 	eoreq	r9, r4, r0, lsr pc
      68:	00a00000 	adceq	r0, r0, r0
      6c:	00010000 	andeq	r0, r1, r0
      70:	0000a055 	andeq	sl, r0, r5, asr r0
      74:	0000ac00 	andeq	sl, r0, r0, lsl #24
      78:	54000100 	strpl	r0, [r0], #-256	; 0xffffff00
      7c:	000000ac 	andeq	r0, r0, ip, lsr #1
      80:	000000e0 	andeq	r0, r0, r0, ror #1
      84:	00550001 	subseq	r0, r5, r1
      88:	00000000 	andeq	r0, r0, r0
      8c:	03000000 	movweq	r0, #0
      90:	1c000000 	stcne	0, cr0, [r0], {-0}
      94:	24000000 	strcs	r0, [r0], #-0
      98:	02000000 	andeq	r0, r0, #0, 0
      9c:	249f3000 	ldrcs	r3, [pc], #0	; a4 <__code_start__-0x7f5c>
      a0:	e0000000 	and	r0, r0, r0
      a4:	01000000 	mrseq	r0, (UNDEF: 0)
      a8:	00005600 	andeq	r5, r0, r0, lsl #12
	...
      b4:	00700000 	rsbseq	r0, r0, r0
      b8:	007b0000 	rsbseq	r0, fp, r0
      bc:	00010000 	andeq	r0, r1, r0
      c0:	00007b50 	andeq	r7, r0, r0, asr fp
      c4:	0000e000 	andeq	lr, r0, r0
      c8:	54000100 	strpl	r0, [r0], #-256	; 0xffffff00
	...
      d4:	00440001 	subeq	r0, r4, r1
      d8:	005c0000 	subseq	r0, ip, r0
      dc:	00020000 	andeq	r0, r2, r0
      e0:	00009f44 	andeq	r9, r0, r4, asr #30
      e4:	00000000 	andeq	r0, r0, r0
      e8:	00010000 	andeq	r0, r1, r0
      ec:	00000044 	andeq	r0, r0, r4, asr #32
      f0:	0000005c 	andeq	r0, r0, ip, asr r0
      f4:	95f20006 	ldrbls	r0, [r2, #6]!
      f8:	00000004 	andeq	r0, r0, r4
	...
     104:	00440001 	subeq	r0, r4, r1
     108:	005c0000 	subseq	r0, ip, r0
     10c:	00060000 	andeq	r0, r6, r0
     110:	00a5c003 	adceq	ip, r5, r3
     114:	00009f00 	andeq	r9, r0, r0, lsl #30
	...
     124:	00000344 	andeq	r0, r0, r4, asr #6
     128:	0000035c 	andeq	r0, r0, ip, asr r3
     12c:	5c500001 	mrrcpl	0, 0, r0, r0, cr1	; <UNPREDICTABLE>
     130:	70000003 	andvc	r0, r0, r3
     134:	01000004 	tsteq	r0, r4
     138:	04705500 	ldrbteq	r5, [r0], #-1280	; 0xfffffb00
     13c:	04800000 	streq	r0, [r0], #0
     140:	00040000 	andeq	r0, r4, r0
     144:	9f5001f3 	svcls	0x005001f3
	...
     150:	00000001 	andeq	r0, r0, r1
     154:	00000000 	andeq	r0, r0, r0
     158:	00000360 	andeq	r0, r0, r0, ror #6
     15c:	00000364 	andeq	r0, r0, r4, ror #6
     160:	b4750004 	ldrbtlt	r0, [r5], #-4
     164:	03649f02 	cmneq	r4, #2, 30
     168:	03670000 	cmneq	r7, #0, 0
     16c:	00010000 	andeq	r0, r1, r0
     170:	00036750 	andeq	r6, r3, r0, asr r7
     174:	00047000 	andeq	r7, r4, r0
     178:	75000400 	strvc	r0, [r0, #-1024]	; 0xfffffc00
     17c:	709f02b4 			; <UNDEFINED> instruction: 0x709f02b4
     180:	80000004 	andhi	r0, r0, r4
     184:	07000004 	streq	r0, [r0, -r4]
     188:	5001f300 	andpl	pc, r1, r0, lsl #6
     18c:	9f02b423 	svcls	0x0002b423
	...
     1a0:	036c0000 	cmneq	ip, #0, 0
     1a4:	03880000 	orreq	r0, r8, #0, 0
     1a8:	00010000 	andeq	r0, r1, r0
     1ac:	00038850 	andeq	r8, r3, r0, asr r8
     1b0:	0003c400 	andeq	ip, r3, r0, lsl #8
     1b4:	54000100 	strpl	r0, [r0], #-256	; 0xffffff00
     1b8:	000003c4 	andeq	r0, r0, r4, asr #7
     1bc:	000003dc 	ldrdeq	r0, [r0], -ip
     1c0:	dc500001 	mrrcle	0, 0, r0, r0, cr1	; <UNPREDICTABLE>
     1c4:	70000003 	andvc	r0, r0, r3
     1c8:	01000004 	tsteq	r0, r4
     1cc:	04705400 	ldrbteq	r5, [r0], #-1024	; 0xfffffc00
     1d0:	04800000 	streq	r0, [r0], #0
     1d4:	00040000 	andeq	r0, r4, r0
     1d8:	9f7ecc70 	svcls	0x007ecc70
	...
     1e8:	03780000 	cmneq	r8, #0, 0
     1ec:	04340000 	ldrteq	r0, [r4], #-0
     1f0:	00010000 	andeq	r0, r1, r0
     1f4:	00043456 	andeq	r3, r4, r6, asr r4
     1f8:	00047000 	andeq	r7, r4, r0
     1fc:	74000900 	strvc	r0, [r0], #-2304	; 0xfffff700
     200:	22007500 	andcs	r7, r0, #0, 10
     204:	9f50c423 	svcls	0x0050c423
     208:	00000470 	andeq	r0, r0, r0, ror r4
     20c:	00000480 	andeq	r0, r0, r0, lsl #9
     210:	0070000a 	rsbseq	r0, r0, sl
     214:	225001f3 	subscs	r0, r0, #-1073741764	; 0xc000003c
     218:	9f4f9023 	svcls	0x004f9023
	...
     224:	03d00000 	bicseq	r0, r0, #0, 0
     228:	03df0000 	bicseq	r0, pc, #0, 0
     22c:	00010000 	andeq	r0, r1, r0
     230:	00000053 	andeq	r0, r0, r3, asr r0
     234:	00000000 	andeq	r0, r0, r0
     238:	00000200 	andeq	r0, r0, r0, lsl #4
     23c:	98000000 	stmdals	r0, {}	; <UNPREDICTABLE>
     240:	9c000003 	stcls	0, cr0, [r0], {3}
     244:	02000003 	andeq	r0, r0, #3, 0
     248:	9c9f3000 	ldcls	0, cr3, [pc], {0}
     24c:	c4000003 	strgt	r0, [r0], #-3
     250:	01000003 	tsteq	r0, r3
     254:	03ec5300 	mvneq	r5, #0, 6
     258:	03f40000 	mvnseq	r0, #0, 0
     25c:	00010000 	andeq	r0, r1, r0
     260:	00000053 	andeq	r0, r0, r3, asr r0
     264:	00000000 	andeq	r0, r0, r0
     268:	00000300 	andeq	r0, r0, r0, lsl #6
     26c:	00043000 	andeq	r3, r4, r0
     270:	00043400 	andeq	r3, r4, r0, lsl #8
     274:	30000200 	andcc	r0, r0, r0, lsl #4
     278:	0004349f 	muleq	r4, pc, r4	; <UNPREDICTABLE>
     27c:	00047000 	andeq	r7, r4, r0
     280:	56000100 	strpl	r0, [r0], -r0, lsl #2
	...
     28c:	04480000 	strbeq	r0, [r8], #-0
     290:	04540000 	ldrbeq	r0, [r4], #-0
     294:	00010000 	andeq	r0, r1, r0
     298:	00000050 	andeq	r0, r0, r0, asr r0
	...
     2ac:	00027c00 	andeq	r7, r2, r0, lsl #24
     2b0:	0002a800 	andeq	sl, r2, r0, lsl #16
     2b4:	50000100 	andpl	r0, r0, r0, lsl #2
     2b8:	000002a8 	andeq	r0, r0, r8, lsr #5
     2bc:	000002b0 			; <UNDEFINED> instruction: 0x000002b0
     2c0:	01f30004 	mvnseq	r0, r4
     2c4:	02b09f50 	adcseq	r9, r0, #80, 30	; 0x140
     2c8:	02b40000 	adcseq	r0, r4, #0, 0
     2cc:	00010000 	andeq	r0, r1, r0
     2d0:	0002b450 	andeq	fp, r2, r0, asr r4
     2d4:	0002b800 	andeq	fp, r2, r0, lsl #16
     2d8:	f3000400 	vshl.u8	d0, d0, d0
     2dc:	b89f5001 	ldmlt	pc, {r0, ip, lr}	; <UNPREDICTABLE>
     2e0:	bc000002 	stclt	0, cr0, [r0], {2}
     2e4:	01000002 	tsteq	r0, r2
     2e8:	02bc5000 	adcseq	r5, ip, #0, 0
     2ec:	02c80000 	sbceq	r0, r8, #0, 0
     2f0:	00040000 	andeq	r0, r4, r0
     2f4:	9f5001f3 	svcls	0x005001f3
	...
     308:	0000010c 	andeq	r0, r0, ip, lsl #2
     30c:	00000124 	andeq	r0, r0, r4, lsr #2
     310:	24500001 	ldrbcs	r0, [r0], #-1
     314:	3c000001 	stccc	0, cr0, [r0], {1}
     318:	01000002 	tsteq	r0, r2
     31c:	023c5400 	eorseq	r5, ip, #0, 8
     320:	02500000 	subseq	r0, r0, #0, 0
     324:	00040000 	andeq	r0, r4, r0
     328:	9f019874 	svcls	0x00019874
     32c:	00000250 	andeq	r0, r0, r0, asr r2
     330:	00000268 	andeq	r0, r0, r8, ror #4
     334:	01f30004 	mvnseq	r0, r4
     338:	00009f50 	andeq	r9, r0, r0, asr pc
     33c:	00000000 	andeq	r0, r0, r0
     340:	02010000 	andeq	r0, r1, #0, 0
     344:	00000002 	andeq	r0, r0, r2
     348:	01280000 			; <UNDEFINED> instruction: 0x01280000
     34c:	01280000 			; <UNDEFINED> instruction: 0x01280000
     350:	00010000 	andeq	r0, r1, r0
     354:	00012854 	andeq	r2, r1, r4, asr r8
     358:	00023c00 	andeq	r3, r2, r0, lsl #24
     35c:	74000400 	strvc	r0, [r0], #-1024	; 0xfffffc00
     360:	3c9f7ecc 	ldccc	14, cr7, [pc], {204}	; 0xcc
     364:	50000002 	andpl	r0, r0, r2
     368:	03000002 	movweq	r0, #2
     36c:	9f647400 	svcls	0x00647400
     370:	00000250 	andeq	r0, r0, r0, asr r2
     374:	00000268 	andeq	r0, r0, r8, ror #4
     378:	01f30007 	mvnseq	r0, r7
     37c:	1cb40850 	ldcne	8, cr0, [r4], #320	; 0x140
     380:	0000009f 	muleq	r0, pc, r0	; <UNPREDICTABLE>
	...
     390:	00017000 	andeq	r7, r1, r0
     394:	0001a400 	andeq	sl, r1, r0, lsl #8
     398:	53000100 	movwpl	r0, #256	; 0x100
     39c:	000001cc 	andeq	r0, r0, ip, asr #3
     3a0:	000001cf 	andeq	r0, r0, pc, asr #3
     3a4:	f0530001 			; <UNDEFINED> instruction: 0xf0530001
     3a8:	f3000001 	vhadd.u8	d0, d0, d1
     3ac:	01000001 	tsteq	r0, r1
     3b0:	02145300 	andseq	r5, r4, #0, 6
     3b4:	02180000 	andseq	r0, r8, #0, 0
     3b8:	00010000 	andeq	r0, r1, r0
     3bc:	00000053 	andeq	r0, r0, r3, asr r0
     3c0:	00000000 	andeq	r0, r0, r0
     3c4:	18000000 	stmdane	r0, {}	; <UNPREDICTABLE>
     3c8:	34000002 	strcc	r0, [r0], #-2
     3cc:	01000002 	tsteq	r0, r2
     3d0:	00005300 	andeq	r5, r0, r0, lsl #6
	...
     3dc:	02e00000 	rsceq	r0, r0, #0, 0
     3e0:	02f30000 	rscseq	r0, r3, #0, 0
     3e4:	00010000 	andeq	r0, r1, r0
     3e8:	0002f350 	andeq	pc, r2, r0, asr r3	; <UNPREDICTABLE>
     3ec:	00033800 	andeq	r3, r3, r0, lsl #16
     3f0:	55000100 	strpl	r0, [r0, #-256]	; 0xffffff00
	...
     400:	000002f4 	strdeq	r0, [r0], -r4
     404:	00000314 	andeq	r0, r0, r4, lsl r3
     408:	30500001 	subscc	r0, r0, r1
     40c:	38000003 	stmdacc	r0, {r0, r1}
     410:	01000003 	tsteq	r0, r3
     414:	00005000 	andeq	r5, r0, r0
	...
     420:	00c80000 	sbceq	r0, r8, r0
     424:	00df0000 	sbcseq	r0, pc, r0
     428:	00010000 	andeq	r0, r1, r0
     42c:	0000df50 	andeq	sp, r0, r0, asr pc
     430:	00010000 	andeq	r0, r1, r0
     434:	56000100 	strpl	r0, [r0], -r0, lsl #2
	...
     444:	000000c8 	andeq	r0, r0, r8, asr #1
     448:	000000df 	ldrdeq	r0, [r0], -pc	; <UNPREDICTABLE>
     44c:	df510001 	svcle	0x00510001
     450:	00000000 	andeq	r0, r0, r0
     454:	01000001 	tsteq	r0, r1
     458:	00005400 	andeq	r5, r0, r0, lsl #8
	...
     464:	00e40000 	rsceq	r0, r4, r0
     468:	00e80000 	rsceq	r0, r8, r0
     46c:	00010000 	andeq	r0, r1, r0
     470:	0000e850 	andeq	lr, r0, r0, asr r8
     474:	00010000 	andeq	r0, r1, r0
     478:	55000100 	strpl	r0, [r0, #-256]	; 0xffffff00
	...
     484:	00ec0000 	rsceq	r0, ip, r0
     488:	00f80000 	rscseq	r0, r8, r0
     48c:	00010000 	andeq	r0, r1, r0
     490:	00000050 	andeq	r0, r0, r0, asr r0
	...
     49c:	00009400 	andeq	r9, r0, r0, lsl #8
     4a0:	0000a700 	andeq	sl, r0, r0, lsl #14
     4a4:	50000100 	andpl	r0, r0, r0, lsl #2
     4a8:	000000a7 	andeq	r0, r0, r7, lsr #1
     4ac:	000000b4 	strheq	r0, [r0], -r4
     4b0:	00540001 	subseq	r0, r4, r1
	...
     4bc:	0000a800 	andeq	sl, r0, r0, lsl #16
     4c0:	0000ac00 	andeq	sl, r0, r0, lsl #24
     4c4:	54000100 	strpl	r0, [r0], #-256	; 0xffffff00
	...
     4d4:	00000070 	andeq	r0, r0, r0, ror r0
     4d8:	00000080 	andeq	r0, r0, r0, lsl #1
     4dc:	80500001 	subshi	r0, r0, r1
     4e0:	84000000 	strhi	r0, [r0], #-0
     4e4:	04000000 	streq	r0, [r0], #-0
     4e8:	7ecc7000 	cdpvc	0, 12, cr7, cr12, cr0, {0}
     4ec:	0000009f 	muleq	r0, pc, r0	; <UNPREDICTABLE>
	...
     4f8:	00004000 	andeq	r4, r0, r0
     4fc:	00005800 	andeq	r5, r0, r0, lsl #16
     500:	50000100 	andpl	r0, r0, r0, lsl #2
     504:	00000058 	andeq	r0, r0, r8, asr r0
     508:	0000005c 	andeq	r0, r0, ip, asr r0
     50c:	01f30004 	mvnseq	r0, r4
     510:	00009f50 	andeq	r9, r0, r0, asr pc
	...
     520:	001c0000 	andseq	r0, ip, r0
     524:	008c0000 	addeq	r0, ip, r0
     528:	00010000 	andeq	r0, r1, r0
     52c:	00008c51 	andeq	r8, r0, r1, asr ip
     530:	00009800 	andeq	r9, r0, r0, lsl #16
     534:	70000300 	andvc	r0, r0, r0, lsl #6
     538:	00989f78 	addseq	r9, r8, r8, ror pc
     53c:	00b80000 	adcseq	r0, r8, r0
     540:	00010000 	andeq	r0, r1, r0
     544:	0000b851 	andeq	fp, r0, r1, asr r8
     548:	0000d000 	andeq	sp, r0, r0
     54c:	70000300 	andvc	r0, r0, r0, lsl #6
     550:	00009f78 	andeq	r9, r0, r8, ror pc
	...
     55c:	00240000 	eoreq	r0, r4, r0
     560:	005c0000 	subseq	r0, ip, r0
     564:	00010000 	andeq	r0, r1, r0
     568:	00006053 	andeq	r6, r0, r3, asr r0
     56c:	0000d000 	andeq	sp, r0, r0
     570:	53000100 	movwpl	r0, #256	; 0x100
	...
     584:	0000014c 	andeq	r0, r0, ip, asr #2
     588:	00000178 	andeq	r0, r0, r8, ror r1
     58c:	78500001 	ldmdavc	r0, {r0}^
     590:	7c000001 	stcvc	0, cr0, [r0], {1}
     594:	04000001 	streq	r0, [r0], #-1
     598:	5001f300 	andpl	pc, r1, r0, lsl #6
     59c:	00017c9f 	muleq	r1, pc, ip	; <UNPREDICTABLE>
     5a0:	00019400 	andeq	r9, r1, r0, lsl #8
     5a4:	50000100 	andpl	r0, r0, r0, lsl #2
     5a8:	00000194 	muleq	r0, r4, r1
     5ac:	00000200 	andeq	r0, r0, r0, lsl #4
     5b0:	01f30004 	mvnseq	r0, r4
     5b4:	00009f50 	andeq	r9, r0, r0, asr pc
	...
     5c4:	00010100 	andeq	r0, r1, r0, lsl #2
     5c8:	00000000 	andeq	r0, r0, r0
     5cc:	00000178 	andeq	r0, r0, r8, ror r1
     5d0:	0000017c 	andeq	r0, r0, ip, ror r1
     5d4:	94500001 	ldrbls	r0, [r0], #-1
     5d8:	b4000001 	strlt	r0, [r0], #-1
     5dc:	01000001 	tsteq	r0, r1
     5e0:	01b45000 			; <UNDEFINED> instruction: 0x01b45000
     5e4:	01b80000 			; <UNDEFINED> instruction: 0x01b80000
     5e8:	00030000 	andeq	r0, r3, r0
     5ec:	b89f7870 	ldmlt	pc, {r4, r5, r6, fp, ip, sp, lr}	; <UNPREDICTABLE>
     5f0:	c4000001 	strgt	r0, [r0], #-1
     5f4:	01000001 	tsteq	r0, r1
     5f8:	01c45000 	biceq	r5, r4, r0
     5fc:	01cc0000 	biceq	r0, ip, r0
     600:	00020000 	andeq	r0, r2, r0
     604:	01cc0070 	biceq	r0, ip, r0, ror r0
     608:	01ec0000 	mvneq	r0, r0
     60c:	00010000 	andeq	r0, r1, r0
     610:	0001f050 	andeq	pc, r1, r0, asr r0	; <UNPREDICTABLE>
     614:	00020000 	andeq	r0, r2, r0
     618:	50000100 	andpl	r0, r0, r0, lsl #2
	...
     624:	00010100 	andeq	r0, r1, r0, lsl #2
     628:	00010000 	andeq	r0, r1, r0
     62c:	016c0000 	cmneq	ip, r0
     630:	017c0000 	cmneq	ip, r0
     634:	00010000 	andeq	r0, r1, r0
     638:	00017c52 	andeq	r7, r1, r2, asr ip
     63c:	00019400 	andeq	r9, r1, r0, lsl #8
     640:	03000600 	movweq	r0, #1536	; 0x600
     644:	0000aed8 	ldrdeq	sl, [r0], -r8
     648:	0001949f 	muleq	r1, pc, r4	; <UNPREDICTABLE>
     64c:	0001c400 	andeq	ip, r1, r0, lsl #8
     650:	52000100 	andpl	r0, r0, #0
     654:	000001c4 	andeq	r0, r0, r4, asr #3
     658:	000001cc 	andeq	r0, r0, ip, asr #3
     65c:	cc500001 	mrrcgt	0, 0, r0, r0, cr1	; <UNPREDICTABLE>
     660:	ef000001 	svc	0x00000001
     664:	01000001 	tsteq	r0, r1
     668:	00005200 	andeq	r5, r0, r0, lsl #4
	...
     674:	00000164 	andeq	r0, r0, r4, ror #2
     678:	00000200 	andeq	r0, r0, r0, lsl #4
     67c:	00540001 	subseq	r0, r4, r1
	...
     688:	e0000000 	and	r0, r0, r0
     68c:	f8000000 			; <UNDEFINED> instruction: 0xf8000000
     690:	01000000 	mrseq	r0, (UNDEF: 0)
     694:	00f85000 	rscseq	r5, r8, r0
     698:	013c0000 	teqeq	ip, r0
     69c:	00010000 	andeq	r0, r1, r0
     6a0:	00000054 	andeq	r0, r0, r4, asr r0
	...
     6ac:	0c000000 	stceq	0, cr0, [r0], {-0}
     6b0:	1c000001 	stcne	0, cr0, [r0], {1}
     6b4:	01000001 	tsteq	r0, r1
     6b8:	011c5000 	tsteq	ip, r0
     6bc:	011f0000 	tsteq	pc, r0
     6c0:	00030000 	andeq	r0, r3, r0
     6c4:	2c9f7870 	ldccs	8, cr7, [pc], {112}	; 0x70
     6c8:	30000001 	andcc	r0, r0, r1
     6cc:	01000001 	tsteq	r0, r1
     6d0:	00005000 	andeq	r5, r0, r0
     6d4:	00000000 	andeq	r0, r0, r0
     6d8:	00010000 	andeq	r0, r1, r0
     6dc:	01140000 	tsteq	r4, r0
     6e0:	011c0000 	tsteq	ip, r0
     6e4:	00010000 	andeq	r0, r1, r0
     6e8:	00011c50 	andeq	r1, r1, r0, asr ip
     6ec:	00011f00 	andeq	r1, r1, r0, lsl #30
     6f0:	70000300 	andvc	r0, r0, r0, lsl #6
     6f4:	00009f78 	andeq	r9, r0, r8, ror pc
	...
     700:	0000065c 	andeq	r0, r0, ip, asr r6
     704:	00000660 	andeq	r0, r0, r0, ror #12
     708:	00500001 	subseq	r0, r0, r1
     70c:	00000000 	andeq	r0, r0, r0
     710:	01000000 	mrseq	r0, (UNDEF: 0)
     714:	a8000000 	stmdage	r0, {}	; <UNPREDICTABLE>
     718:	d4000003 	strle	r0, [r0], #-3
     71c:	02000003 	andeq	r0, r0, #3, 0
     720:	d49f3000 	ldrle	r3, [pc], #0	; 728 <__code_start__-0x78d8>
     724:	6c000003 	stcvs	0, cr0, [r0], {3}
     728:	01000004 	tsteq	r0, r4
     72c:	00005500 	andeq	r5, r0, r0, lsl #10
     730:	00000000 	andeq	r0, r0, r0
     734:	00010000 	andeq	r0, r1, r0
     738:	03a80000 			; <UNDEFINED> instruction: 0x03a80000
     73c:	03d40000 	bicseq	r0, r4, #0, 0
     740:	00020000 	andeq	r0, r2, r0
     744:	03d49f30 	bicseq	r9, r4, #48, 30	; 0xc0
     748:	046c0000 	strbteq	r0, [ip], #-0
     74c:	00010000 	andeq	r0, r1, r0
     750:	00000057 	andeq	r0, r0, r7, asr r0
     754:	00000000 	andeq	r0, r0, r0
     758:	00000100 	andeq	r0, r0, r0, lsl #2
     75c:	a8000000 	stmdage	r0, {}	; <UNPREDICTABLE>
     760:	d4000003 	strle	r0, [r0], #-3
     764:	02000003 	andeq	r0, r0, #3, 0
     768:	d49f3000 	ldrle	r3, [pc], #0	; 770 <__code_start__-0x7890>
     76c:	6c000003 	stcvs	0, cr0, [r0], {3}
     770:	01000004 	tsteq	r0, r4
     774:	046c5600 	strbteq	r5, [ip], #-1536	; 0xfffffa00
     778:	04880000 	streq	r0, [r8], #0
     77c:	00010000 	andeq	r0, r1, r0
     780:	00000050 	andeq	r0, r0, r0, asr r0
	...
     790:	0003c400 	andeq	ip, r3, r0, lsl #8
     794:	00040800 	andeq	r0, r4, r0, lsl #16
     798:	50000100 	andpl	r0, r0, r0, lsl #2
     79c:	00000408 	andeq	r0, r0, r8, lsl #8
     7a0:	00000424 	andeq	r0, r0, r4, lsr #8
     7a4:	24540001 	ldrbcs	r0, [r4], #-1
     7a8:	5c000004 	stcpl	0, cr0, [r0], {4}
     7ac:	01000004 	tsteq	r0, r4
     7b0:	045c5000 	ldrbeq	r5, [ip], #-0
     7b4:	046c0000 	strbteq	r0, [ip], #-0
     7b8:	00010000 	andeq	r0, r1, r0
     7bc:	00000054 	andeq	r0, r0, r4, asr r0
     7c0:	00000000 	andeq	r0, r0, r0
     7c4:	e4000000 	str	r0, [r0], #-0
     7c8:	fc000003 	stc2	0, cr0, [r0], {3}
     7cc:	04000003 	streq	r0, [r0], #-3
     7d0:	01050a00 	tsteq	r5, r0, lsl #20
     7d4:	0000009f 	muleq	r0, pc, r0	; <UNPREDICTABLE>
     7d8:	00000000 	andeq	r0, r0, r0
     7dc:	e4000000 	str	r0, [r0], #-0
     7e0:	fc000003 	stc2	0, cr0, [r0], {3}
     7e4:	06000003 	streq	r0, [r0], -r3
     7e8:	1c12f200 	lfmne	f7, 1, [r2], {-0}
	...
     7f8:	0003e400 	andeq	lr, r3, r0, lsl #8
     7fc:	0003fc00 	andeq	pc, r3, r0, lsl #24
     800:	03000600 	movweq	r0, #1536	; 0x600
     804:	0000a7fc 	strdeq	sl, [r0], -ip
     808:	0000009f 	muleq	r0, pc, r0	; <UNPREDICTABLE>
	...
     814:	f8000000 			; <UNDEFINED> instruction: 0xf8000000
     818:	08000005 	stmdaeq	r0, {r0, r2}
     81c:	01000006 	tsteq	r0, r6
     820:	06085000 	streq	r5, [r8], -r0
     824:	060b0000 	streq	r0, [fp], -r0
     828:	00010000 	andeq	r0, r1, r0
     82c:	00060b51 	andeq	r0, r6, r1, asr fp
     830:	00063c00 	andeq	r3, r6, r0, lsl #24
     834:	54000100 	strpl	r0, [r0], #-256	; 0xffffff00
	...
     844:	00000554 	andeq	r0, r0, r4, asr r5
     848:	00000563 	andeq	r0, r0, r3, ror #10
     84c:	63500001 	cmpvs	r0, #1, 0
     850:	68000005 	stmdavs	r0, {r0, r2}
     854:	04000005 	streq	r0, [r0], #-5
     858:	5001f300 	andpl	pc, r1, r0, lsl #6
     85c:	0000009f 	muleq	r0, pc, r0	; <UNPREDICTABLE>
	...
     868:	00028000 	andeq	r8, r2, r0
     86c:	00029400 	andeq	r9, r2, r0, lsl #8
     870:	50000100 	andpl	r0, r0, r0, lsl #2
     874:	00000294 	muleq	r0, r4, r2
     878:	00000388 	andeq	r0, r0, r8, lsl #7
     87c:	00570001 	subseq	r0, r7, r1
     880:	00000000 	andeq	r0, r0, r0
     884:	01000000 	mrseq	r0, (UNDEF: 0)
     888:	90000000 	andls	r0, r0, r0
     88c:	bc000002 	stclt	0, cr0, [r0], {2}
     890:	02000002 	andeq	r0, r0, #2, 0
     894:	bc9f3000 	ldclt	0, cr3, [pc], {0}
     898:	88000002 	stmdahi	r0, {r1}
     89c:	01000003 	tsteq	r0, r3
     8a0:	00005500 	andeq	r5, r0, r0, lsl #10
     8a4:	00000000 	andeq	r0, r0, r0
     8a8:	00010000 	andeq	r0, r1, r0
     8ac:	00000000 	andeq	r0, r0, r0
     8b0:	00000290 	muleq	r0, r0, r2
     8b4:	000002bc 			; <UNDEFINED> instruction: 0x000002bc
     8b8:	9f300002 	svcls	0x00300002
     8bc:	000002bc 			; <UNDEFINED> instruction: 0x000002bc
     8c0:	0000034c 	andeq	r0, r0, ip, asr #6
     8c4:	54560001 	ldrbpl	r0, [r6], #-1
     8c8:	88000003 	stmdahi	r0, {r0, r1}
     8cc:	01000003 	tsteq	r0, r3
     8d0:	00005600 	andeq	r5, r0, r0, lsl #12
     8d4:	00000000 	andeq	r0, r0, r0
     8d8:	00010000 	andeq	r0, r1, r0
     8dc:	02900000 	addseq	r0, r0, #0, 0
     8e0:	02bc0000 	adcseq	r0, ip, #0, 0
     8e4:	00020000 	andeq	r0, r2, r0
     8e8:	02bc9f30 	adcseq	r9, ip, #48, 30	; 0xc0
     8ec:	03880000 	orreq	r0, r8, #0, 0
     8f0:	00010000 	andeq	r0, r1, r0
     8f4:	00000058 	andeq	r0, r0, r8, asr r0
	...
     908:	ac000000 	stcge	0, cr0, [r0], {-0}
     90c:	cc000002 	stcgt	0, cr0, [r0], {2}
     910:	01000002 	tsteq	r0, r2
     914:	02cc5000 	sbceq	r5, ip, #0, 0
     918:	02dc0000 	sbcseq	r0, ip, #0, 0
     91c:	00010000 	andeq	r0, r1, r0
     920:	0002dc54 	andeq	sp, r2, r4, asr ip
     924:	00031800 	andeq	r1, r3, r0, lsl #16
     928:	50000100 	andpl	r0, r0, r0, lsl #2
     92c:	00000318 	andeq	r0, r0, r8, lsl r3
     930:	0000031b 	andeq	r0, r0, fp, lsl r3
     934:	1b520001 	blne	1480940 <__bss_end__+0x1475648>
     938:	20000003 	andcs	r0, r0, r3
     93c:	01000003 	tsteq	r0, r3
     940:	03205400 	nopeq	{0}	; <UNPREDICTABLE>
     944:	03280000 			; <UNDEFINED> instruction: 0x03280000
     948:	00010000 	andeq	r0, r1, r0
     94c:	00032850 	andeq	r2, r3, r0, asr r8
     950:	00038800 	andeq	r8, r3, r0, lsl #16
     954:	54000100 	strpl	r0, [r0], #-256	; 0xffffff00
	...
     964:	000001d8 	ldrdeq	r0, [r0], -r8
     968:	000001f3 	strdeq	r0, [r0], -r3
     96c:	f4500001 			; <UNDEFINED> instruction: 0xf4500001
     970:	fc000001 	stc2	0, cr0, [r0], {1}
     974:	01000001 	tsteq	r0, r1
     978:	00005000 	andeq	r5, r0, r0
	...
     990:	0000009c 	muleq	r0, ip, r0
     994:	000000e4 	andeq	r0, r0, r4, ror #1
     998:	e4500001 	ldrb	r0, [r0], #-1
     99c:	ec000000 	stc	0, cr0, [r0], {-0}
     9a0:	01000000 	mrseq	r0, (UNDEF: 0)
     9a4:	00ec5400 	rsceq	r5, ip, r0, lsl #8
     9a8:	01040000 	mrseq	r0, (UNDEF: 4)
     9ac:	00010000 	andeq	r0, r1, r0
     9b0:	00010450 	andeq	r0, r1, r0, asr r4
     9b4:	00010c00 	andeq	r0, r1, r0, lsl #24
     9b8:	f3000400 	vshl.u8	d0, d0, d0
     9bc:	0c9f5001 	ldceq	0, cr5, [pc], {1}
     9c0:	24000001 	strcs	r0, [r0], #-1
     9c4:	01000001 	tsteq	r0, r1
     9c8:	01245000 			; <UNDEFINED> instruction: 0x01245000
     9cc:	012c0000 			; <UNDEFINED> instruction: 0x012c0000
     9d0:	00010000 	andeq	r0, r1, r0
     9d4:	00012c54 	andeq	r2, r1, r4, asr ip
     9d8:	0001b400 	andeq	fp, r1, r0, lsl #8
     9dc:	f3000400 	vshl.u8	d0, d0, d0
     9e0:	009f5001 	addseq	r5, pc, r1
	...
     9f8:	00009c00 	andeq	r9, r0, r0, lsl #24
     9fc:	0000e000 	andeq	lr, r0, r0
     a00:	51000100 	mrspl	r0, (UNDEF: 16)
     a04:	000000e0 	andeq	r0, r0, r0, ror #1
     a08:	000000ec 	andeq	r0, r0, ip, ror #1
     a0c:	ec550001 	mrrc	0, 0, r0, r5, cr1
     a10:	00000000 	andeq	r0, r0, r0
     a14:	01000001 	tsteq	r0, r1
     a18:	01005100 	mrseq	r5, (UNDEF: 16)
     a1c:	010c0000 	mrseq	r0, (UNDEF: 12)
     a20:	00040000 	andeq	r0, r4, r0
     a24:	9f5101f3 	svcls	0x005101f3
     a28:	0000010c 	andeq	r0, r0, ip, lsl #2
     a2c:	00000120 	andeq	r0, r0, r0, lsr #2
     a30:	20510001 	subscs	r0, r1, r1
     a34:	9c000001 	stcls	0, cr0, [r0], {1}
     a38:	01000001 	tsteq	r0, r1
     a3c:	019c5500 	orrseq	r5, ip, r0, lsl #10
     a40:	01b40000 			; <UNDEFINED> instruction: 0x01b40000
     a44:	00040000 	andeq	r0, r4, r0
     a48:	9f5101f3 	svcls	0x005101f3
	...
     a54:	012c0000 			; <UNDEFINED> instruction: 0x012c0000
     a58:	019c0000 	orrseq	r0, ip, r0
     a5c:	00010000 	andeq	r0, r1, r0
     a60:	00000054 	andeq	r0, r0, r4, asr r0
	...
     a6c:	2c000000 	stccs	0, cr0, [r0], {-0}
     a70:	3c000001 	stccc	0, cr0, [r0], {1}
     a74:	01000001 	tsteq	r0, r1
     a78:	01505000 	cmpeq	r0, r0
     a7c:	018c0000 	orreq	r0, ip, r0
     a80:	00010000 	andeq	r0, r1, r0
     a84:	00018c50 	andeq	r8, r1, r0, asr ip
     a88:	00018f00 	andeq	r8, r1, r0, lsl #30
     a8c:	70000300 	andvc	r0, r0, r0, lsl #6
     a90:	00009f7c 	andeq	r9, r0, ip, ror pc
	...
     aa4:	0000012c 	andeq	r0, r0, ip, lsr #2
     aa8:	00000130 	andeq	r0, r0, r0, lsr r1
     aac:	30510001 	subscc	r0, r1, r1
     ab0:	3c000001 	stccc	0, cr0, [r0], {1}
     ab4:	04000001 	streq	r0, [r0], #-1
     ab8:	01b47000 			; <UNDEFINED> instruction: 0x01b47000
     abc:	00015c9f 	muleq	r1, pc, ip	; <UNPREDICTABLE>
     ac0:	00017800 	andeq	r7, r1, r0, lsl #16
     ac4:	51000100 	mrspl	r0, (UNDEF: 16)
     ac8:	00000178 	andeq	r0, r0, r8, ror r1
     acc:	0000018c 	andeq	r0, r0, ip, lsl #3
     ad0:	b4700004 	ldrbtlt	r0, [r0], #-4
     ad4:	018c9f01 	orreq	r9, ip, r1, lsl #30
     ad8:	018f0000 	orreq	r0, pc, r0
     adc:	00040000 	andeq	r0, r4, r0
     ae0:	9f01b070 	svcls	0x0001b070
	...
     af0:	0000012c 	andeq	r0, r0, ip, lsr #2
     af4:	0000013c 	andeq	r0, r0, ip, lsr r1
     af8:	60520001 	subsvs	r0, r2, r1
     afc:	8f000001 	svchi	0x00000001
     b00:	01000001 	tsteq	r0, r1
     b04:	00005200 	andeq	r5, r0, r0, lsl #4
	...
     b10:	00600000 	rsbeq	r0, r0, r0
     b14:	00730000 	rsbseq	r0, r3, r0
     b18:	00010000 	andeq	r0, r1, r0
     b1c:	00007350 	andeq	r7, r0, r0, asr r3
     b20:	00009000 	andeq	r9, r0, r0
     b24:	54000100 	strpl	r0, [r0], #-256	; 0xffffff00
	...
     b30:	00000001 	andeq	r0, r0, r1
     b34:	00000070 	andeq	r0, r0, r0, ror r0
     b38:	00000073 	andeq	r0, r0, r3, ror r0
     b3c:	73500001 	cmpvc	r0, #1, 0
     b40:	90000000 	andls	r0, r0, r0
     b44:	01000000 	mrseq	r0, (UNDEF: 0)
     b48:	00005400 	andeq	r5, r0, r0, lsl #8
	...
     b5c:	000c0000 	andeq	r0, ip, r0
     b60:	003c0000 	eorseq	r0, ip, r0
     b64:	00010000 	andeq	r0, r1, r0
     b68:	00003c50 	andeq	r3, r0, r0, asr ip
     b6c:	00004000 	andeq	r4, r0, r0
     b70:	f3000400 	vshl.u8	d0, d0, d0
     b74:	409f5001 	addsmi	r5, pc, r1
     b78:	44000000 	strmi	r0, [r0], #-0
     b7c:	01000000 	mrseq	r0, (UNDEF: 0)
     b80:	00445000 	subeq	r5, r4, r0
     b84:	00480000 	subeq	r0, r8, r0
     b88:	00040000 	andeq	r0, r4, r0
     b8c:	9f5001f3 	svcls	0x005001f3
     b90:	00000048 	andeq	r0, r0, r8, asr #32
     b94:	0000004c 	andeq	r0, r0, ip, asr #32
     b98:	4c500001 	mrrcmi	0, 0, r0, r0, cr1	; <UNPREDICTABLE>
     b9c:	54000000 	strpl	r0, [r0], #-0
     ba0:	04000000 	streq	r0, [r0], #-0
     ba4:	5001f300 	andpl	pc, r1, r0, lsl #6
     ba8:	0000009f 	muleq	r0, pc, r0	; <UNPREDICTABLE>
	...
     bbc:	00049400 	andeq	r9, r4, r0, lsl #8
     bc0:	0004c400 	andeq	ip, r4, r0, lsl #8
     bc4:	50000100 	andpl	r0, r0, r0, lsl #2
     bc8:	000004c4 	andeq	r0, r0, r4, asr #9
     bcc:	000004f0 	strdeq	r0, [r0], -r0	; <UNPREDICTABLE>
     bd0:	f0540001 			; <UNDEFINED> instruction: 0xf0540001
     bd4:	08000004 	stmdaeq	r0, {r2}
     bd8:	01000005 	tsteq	r0, r5
     bdc:	05085000 	streq	r5, [r8, #-0]
     be0:	05100000 	ldreq	r0, [r0, #-0]
     be4:	00010000 	andeq	r0, r1, r0
     be8:	00051054 	andeq	r1, r5, r4, asr r0
     bec:	00052000 	andeq	r2, r5, r0
     bf0:	50000100 	andpl	r0, r0, r0, lsl #2
     bf4:	00000520 	andeq	r0, r0, r0, lsr #10
     bf8:	00000540 	andeq	r0, r0, r0, asr #10
     bfc:	00540001 	subseq	r0, r4, r1
     c00:	00000000 	andeq	r0, r0, r0
     c04:	02000000 	andeq	r0, r0, #0, 0
     c08:	0004bc00 	andeq	fp, r4, r0, lsl #24
     c0c:	0004f000 	andeq	pc, r4, r0
     c10:	40000400 	andmi	r0, r0, r0, lsl #8
     c14:	009f2440 	addseq	r2, pc, r0, asr #8
	...
     c20:	00000800 	andeq	r0, r0, r0, lsl #16
     c24:	00008000 	andeq	r8, r0, r0
     c28:	54000100 	strpl	r0, [r0], #-256	; 0xffffff00
	...
     c34:	00000002 	andeq	r0, r0, r2
     c38:	00000008 	andeq	r0, r0, r8
     c3c:	00000020 	andeq	r0, r0, r0, lsr #32
     c40:	9f300002 	svcls	0x00300002
     c44:	00000020 	andeq	r0, r0, r0, lsr #32
     c48:	0000006c 	andeq	r0, r0, ip, rrx
     c4c:	00570001 	subseq	r0, r7, r1
	...
     c58:	00003c00 	andeq	r3, r0, r0, lsl #24
     c5c:	00005700 	andeq	r5, r0, r0, lsl #14
     c60:	52000100 	andpl	r0, r0, #0
	...
     c6c:	003c0001 	eorseq	r0, ip, r1
     c70:	00500000 	subseq	r0, r0, r0
     c74:	00010000 	andeq	r0, r1, r0
     c78:	00000052 	andeq	r0, r0, r2, asr r0
     c7c:	00000000 	andeq	r0, r0, r0
     c80:	00000300 	andeq	r0, r0, r0, lsl #6
     c84:	00003c00 	andeq	r3, r0, r0, lsl #24
     c88:	00004800 	andeq	r4, r0, r0, lsl #16
     c8c:	53000100 	movwpl	r0, #256	; 0x100
     c90:	00000048 	andeq	r0, r0, r8, asr #32
     c94:	00000050 	andeq	r0, r0, r0, asr r0
     c98:	00700002 	rsbseq	r0, r0, r2
	...
     ca8:	00380000 	eorseq	r0, r8, r0
     cac:	00480000 	subeq	r0, r8, r0
     cb0:	00090000 	andeq	r0, r9, r0
     cb4:	ff0c0073 			; <UNDEFINED> instruction: 0xff0c0073
     cb8:	1a00ffff 	bne	40cbc <__bss_end__+0x359c4>
     cbc:	0000489f 	muleq	r0, pc, r8	; <UNPREDICTABLE>
     cc0:	00004c00 	andeq	r4, r0, r0, lsl #24
     cc4:	53000100 	movwpl	r0, #256	; 0x100
     cc8:	0000004c 	andeq	r0, r0, ip, asr #32
     ccc:	00000050 	andeq	r0, r0, r0, asr r0
     cd0:	0070000a 	rsbseq	r0, r0, sl
     cd4:	ffff0c06 			; <UNDEFINED> instruction: 0xffff0c06
     cd8:	9f1a00ff 	svcls	0x001a00ff
	...
     ce8:	00800000 	addeq	r0, r0, r0
     cec:	00880000 	addeq	r0, r8, r0
     cf0:	00010000 	andeq	r0, r1, r0
     cf4:	00008850 	andeq	r8, r0, r0, asr r8
     cf8:	00009400 	andeq	r9, r0, r0, lsl #8
     cfc:	70000300 	andvc	r0, r0, r0, lsl #6
     d00:	00949f04 	addseq	r9, r4, r4, lsl #30
     d04:	00a00000 	adceq	r0, r0, r0
     d08:	00040000 	andeq	r0, r4, r0
     d0c:	9f5001f3 	svcls	0x005001f3
	...
     d1c:	00840000 	addeq	r0, r4, r0
     d20:	00900000 	addseq	r0, r0, r0
     d24:	00010000 	andeq	r0, r1, r0
     d28:	00009053 	andeq	r9, r0, r3, asr r0
     d2c:	00009400 	andeq	r9, r0, r0, lsl #8
     d30:	70000200 	andvc	r0, r0, r0, lsl #4
     d34:	00009400 	andeq	r9, r0, r0, lsl #8
     d38:	0000a000 	andeq	sl, r0, r0
     d3c:	f3000500 	vrshl.u8	d0, d0, d0
     d40:	1c345001 	ldcne	0, cr5, [r4], #-4
	...
     d4c:	00000001 	andeq	r0, r0, r1
     d50:	008c0000 	addeq	r0, ip, r0
     d54:	00900000 	addseq	r0, r0, r0
     d58:	00090000 	andeq	r0, r9, r0
     d5c:	ff0c0073 			; <UNDEFINED> instruction: 0xff0c0073
     d60:	1a00ffff 	bne	40d64 <__bss_end__+0x35a6c>
     d64:	0000909f 	muleq	r0, pc, r0	; <UNPREDICTABLE>
     d68:	00009400 	andeq	r9, r0, r0, lsl #8
     d6c:	70000a00 	andvc	r0, r0, r0, lsl #20
     d70:	ff0c0600 			; <UNDEFINED> instruction: 0xff0c0600
     d74:	1a00ffff 	bne	40d78 <__bss_end__+0x35a80>
     d78:	0000949f 	muleq	r0, pc, r4	; <UNPREDICTABLE>
     d7c:	0000a000 	andeq	sl, r0, r0
     d80:	f3000d00 	vpadd.f32	d0, d0, d0
     d84:	1c345001 	ldcne	0, cr5, [r4], #-4
     d88:	ffff0c06 			; <UNDEFINED> instruction: 0xffff0c06
     d8c:	9f1a00ff 	svcls	0x001a00ff
	...
     da0:	0000001c 	andeq	r0, r0, ip, lsl r0
     da4:	1c510001 	mrrcne	0, 0, r0, r1, cr1
     da8:	78000000 	stmdavc	r0, {}	; <UNPREDICTABLE>
     dac:	04000000 	streq	r0, [r0], #-0
     db0:	5101f300 	mrspl	pc, SP_irq	; <UNPREDICTABLE>
     db4:	0000009f 	muleq	r0, pc, r0	; <UNPREDICTABLE>
	...
     dc4:	00005800 	andeq	r5, r0, r0, lsl #16
     dc8:	52000100 	andpl	r0, r0, #0
     dcc:	00000058 	andeq	r0, r0, r8, asr r0
     dd0:	00000078 	andeq	r0, r0, r8, ror r0
     dd4:	01f30004 	mvnseq	r0, r4
     dd8:	00009f52 	andeq	r9, r0, r2, asr pc
     ddc:	00000000 	andeq	r0, r0, r0
     de0:	00020000 	andeq	r0, r2, r0
     de4:	00010100 	andeq	r0, r1, r0, lsl #2
     de8:	00010100 	andeq	r0, r1, r0, lsl #2
     dec:	00010100 	andeq	r0, r1, r0, lsl #2
     df0:	00000000 	andeq	r0, r0, r0
     df4:	00000038 	andeq	r0, r0, r8, lsr r0
     df8:	54500001 	ldrbpl	r0, [r0], #-1
     dfc:	54000000 	strpl	r0, [r0], #-0
     e00:	01000000 	mrseq	r0, (UNDEF: 0)
     e04:	00545300 	subseq	r5, r4, r0, lsl #6
     e08:	005c0000 	subseq	r0, ip, r0
     e0c:	00030000 	andeq	r0, r3, r0
     e10:	5c9f0173 	ldfpls	f0, [pc], {115}	; 0x73
     e14:	64000000 	strvs	r0, [r0], #-0
     e18:	01000000 	mrseq	r0, (UNDEF: 0)
     e1c:	00645200 	rsbeq	r5, r4, r0, lsl #4
     e20:	00680000 	rsbeq	r0, r8, r0
     e24:	00030000 	andeq	r0, r3, r0
     e28:	689f0273 	ldmvs	pc, {r0, r1, r4, r5, r6, r9}	; <UNPREDICTABLE>
     e2c:	74000000 	strvc	r0, [r0], #-0
     e30:	01000000 	mrseq	r0, (UNDEF: 0)
     e34:	00745200 	rsbseq	r5, r4, r0, lsl #4
     e38:	00780000 	rsbseq	r0, r8, r0
     e3c:	00030000 	andeq	r0, r3, r0
     e40:	009f0172 	addseq	r0, pc, r2, ror r1	; <UNPREDICTABLE>
	...
     e4c:	00000800 	andeq	r0, r0, r0, lsl #16
     e50:	00007800 	andeq	r7, r0, r0, lsl #16
     e54:	54000100 	strpl	r0, [r0], #-256	; 0xffffff00
	...
     e64:	002c0000 	eoreq	r0, ip, r0
     e68:	00340000 	eorseq	r0, r4, r0
     e6c:	00010000 	andeq	r0, r1, r0
     e70:	00003450 	andeq	r3, r0, r0, asr r4
     e74:	00004800 	andeq	r4, r0, r0, lsl #16
     e78:	54000100 	strpl	r0, [r0], #-256	; 0xffffff00
     e7c:	00000048 	andeq	r0, r0, r8, asr #32
     e80:	00000058 	andeq	r0, r0, r8, asr r0
     e84:	00500001 	subseq	r0, r0, r1
	...
     e90:	01010000 	mrseq	r0, (UNDEF: 1)
     e94:	00000000 	andeq	r0, r0, r0
     e98:	0c000000 	stceq	0, cr0, [r0], {-0}
     e9c:	01000000 	mrseq	r0, (UNDEF: 0)
     ea0:	000c5000 	andeq	r5, ip, r0
     ea4:	00200000 	eoreq	r0, r0, r0
     ea8:	00010000 	andeq	r0, r1, r0
     eac:	00002054 	andeq	r2, r0, r4, asr r0
     eb0:	00002400 	andeq	r2, r0, r0, lsl #8
     eb4:	74000300 	strvc	r0, [r0], #-768	; 0xfffffd00
     eb8:	00249f01 	eoreq	r9, r4, r1, lsl #30
     ebc:	00380000 	eorseq	r0, r8, r0
     ec0:	00010000 	andeq	r0, r1, r0
     ec4:	00000054 	andeq	r0, r0, r4, asr r0
	...
     ed4:	88000000 	stmdahi	r0, {}	; <UNPREDICTABLE>
     ed8:	94000003 	strls	r0, [r0], #-3
     edc:	01000003 	tsteq	r0, r3
     ee0:	03945000 	orrseq	r5, r4, #0, 0
     ee4:	03d00000 	bicseq	r0, r0, #0, 0
     ee8:	00010000 	andeq	r0, r1, r0
     eec:	0003d05b 	andeq	sp, r3, fp, asr r0
     ef0:	00092000 	andeq	r2, r9, r0
     ef4:	f3000400 	vshl.u8	d0, d0, d0
     ef8:	209f5001 	addscs	r5, pc, r1
     efc:	28000009 	stmdacs	r0, {r0, r3}
     f00:	01000009 	tsteq	r0, r9
     f04:	09285b00 	stmdbeq	r8!, {r8, r9, fp, ip, lr}
     f08:	09b40000 	ldmibeq	r4!, {}	; <UNPREDICTABLE>
     f0c:	00040000 	andeq	r0, r4, r0
     f10:	9f5001f3 	svcls	0x005001f3
	...
     f24:	00000388 	andeq	r0, r0, r8, lsl #7
     f28:	000003d0 	ldrdeq	r0, [r0], -r0	; <UNPREDICTABLE>
     f2c:	d0510001 	subsle	r0, r1, r1
     f30:	20000003 	andcs	r0, r0, r3
     f34:	04000009 	streq	r0, [r0], #-9
     f38:	5101f300 	mrspl	pc, SP_irq	; <UNPREDICTABLE>
     f3c:	0009209f 	muleq	r9, pc, r0	; <UNPREDICTABLE>
     f40:	00092800 	andeq	r2, r9, r0, lsl #16
     f44:	51000100 	mrspl	r0, (UNDEF: 16)
     f48:	00000928 	andeq	r0, r0, r8, lsr #18
     f4c:	000009b4 			; <UNDEFINED> instruction: 0x000009b4
     f50:	01f30004 	mvnseq	r0, r4
     f54:	00009f51 	andeq	r9, r0, r1, asr pc
	...
     f64:	00000100 	andeq	r0, r0, r0, lsl #2
     f68:	00000001 	andeq	r0, r0, r1
	...
     f74:	03880000 	orreq	r0, r8, #0, 0
     f78:	03d00000 	bicseq	r0, r0, #0, 0
     f7c:	00010000 	andeq	r0, r1, r0
     f80:	0003d052 	andeq	sp, r3, r2, asr r0
     f84:	00040000 	andeq	r0, r4, r0
     f88:	56000100 	strpl	r0, [r0], -r0, lsl #2
     f8c:	00000414 	andeq	r0, r0, r4, lsl r4
     f90:	00000424 	andeq	r0, r0, r4, lsr #8
     f94:	24560001 	ldrbcs	r0, [r6], #-1
     f98:	28000004 	stmdacs	r0, {r2}
     f9c:	03000004 	movweq	r0, #4
     fa0:	9f7f7600 	svcls	0x007f7600
     fa4:	000004a8 	andeq	r0, r0, r8, lsr #9
     fa8:	000004ac 	andeq	r0, r0, ip, lsr #9
     fac:	e0560001 	subs	r0, r6, r1
     fb0:	04000004 	streq	r0, [r0], #-4
     fb4:	01000005 	tsteq	r0, r5
     fb8:	057c5600 	ldrbeq	r5, [ip, #-1536]!	; 0xfffffa00
     fbc:	05880000 	streq	r0, [r8]
     fc0:	00010000 	andeq	r0, r1, r0
     fc4:	00058853 	andeq	r8, r5, r3, asr r8
     fc8:	0005d000 	andeq	sp, r5, r0
     fcc:	91000300 	mrsls	r0, LR_irq
     fd0:	08007dcc 	stmdaeq	r0, {r2, r3, r6, r7, r8, sl, fp, ip, sp, lr}
     fd4:	080f0000 	stmdaeq	pc, {}	; <UNPREDICTABLE>
     fd8:	00010000 	andeq	r0, r1, r0
     fdc:	00080f53 	andeq	r0, r8, r3, asr pc
     fe0:	00088800 	andeq	r8, r8, r0, lsl #16
     fe4:	91000300 	mrsls	r0, LR_irq
     fe8:	09207dcc 	stmdbeq	r0!, {r2, r3, r6, r7, r8, sl, fp, ip, sp, lr}
     fec:	09280000 	stmdbeq	r8!, {}	; <UNPREDICTABLE>
     ff0:	00010000 	andeq	r0, r1, r0
     ff4:	00094852 	andeq	r4, r9, r2, asr r8
     ff8:	00096400 	andeq	r6, r9, r0, lsl #8
     ffc:	91000300 	mrsls	r0, LR_irq
    1000:	00007dcc 	andeq	r7, r0, ip, asr #27
	...
    1014:	00010100 	andeq	r0, r1, r0, lsl #2
    1018:	00010100 	andeq	r0, r1, r0, lsl #2
    101c:	02000000 	andeq	r0, r0, #0, 0
    1020:	02000002 	andeq	r0, r0, #2, 0
    1024:	01000002 	tsteq	r0, r2
    1028:	02000001 	andeq	r0, r0, #1, 0
    102c:	01000002 	tsteq	r0, r2
    1030:	00000001 	andeq	r0, r0, r1
    1034:	00000000 	andeq	r0, r0, r0
    1038:	03880000 	orreq	r0, r8, #0, 0
    103c:	03ac0000 			; <UNDEFINED> instruction: 0x03ac0000
    1040:	00010000 	andeq	r0, r1, r0
    1044:	0003ac53 	andeq	sl, r3, r3, asr ip
    1048:	0003c000 	andeq	ip, r3, r0
    104c:	53000300 	movwpl	r0, #768	; 0x300
    1050:	03d00493 	bicseq	r0, r0, #-1828716544	; 0x93000000
    1054:	03e80000 	mvneq	r0, #0, 0
    1058:	00030000 	andeq	r0, r3, r0
    105c:	e8049358 	stmda	r4, {r3, r4, r6, r8, r9, ip, pc}
    1060:	ac000003 	stcge	0, cr0, [r0], {3}
    1064:	03000004 	movweq	r0, #4
    1068:	04935800 	ldreq	r5, [r3], #2048	; 0x800
    106c:	000004ac 	andeq	r0, r0, ip, lsr #9
    1070:	000004b0 			; <UNDEFINED> instruction: 0x000004b0
    1074:	c0530001 	subsgt	r0, r3, r1
    1078:	c0000004 	andgt	r0, r0, r4
    107c:	03000004 	movweq	r0, #4
    1080:	04935800 	ldreq	r5, [r3], #2048	; 0x800
    1084:	000004c0 	andeq	r0, r0, r0, asr #9
    1088:	000004cc 	andeq	r0, r0, ip, asr #9
    108c:	04780005 	ldrbteq	r0, [r8], #-5
    1090:	cc04939f 	stcgt	3, cr9, [r4], {159}	; 0x9f
    1094:	e0000004 	and	r0, r0, r4
    1098:	03000004 	movweq	r0, #4
    109c:	04935800 	ldreq	r5, [r3], #2048	; 0x800
    10a0:	000004e0 	andeq	r0, r0, r0, ror #9
    10a4:	00000538 	andeq	r0, r0, r8, lsr r5
    10a8:	93580003 	cmpls	r8, #3, 0
    10ac:	00053804 	andeq	r3, r5, r4, lsl #16
    10b0:	00053c00 	andeq	r3, r5, r0, lsl #24
    10b4:	78000500 	stmdavc	r0, {r8, sl}
    10b8:	04939f79 	ldreq	r9, [r3], #3961	; 0xf79
    10bc:	000005d0 	ldrdeq	r0, [r0], -r0	; <UNPREDICTABLE>
    10c0:	000005d0 	ldrdeq	r0, [r0], -r0	; <UNPREDICTABLE>
    10c4:	93580003 	cmpls	r8, #3, 0
    10c8:	0005d004 	andeq	sp, r5, r4
    10cc:	0005d400 	andeq	sp, r5, r0, lsl #8
    10d0:	78000500 	stmdavc	r0, {r8, sl}
    10d4:	04939f04 	ldreq	r9, [r3], #3844	; 0xf04
    10d8:	000005f4 	strdeq	r0, [r0], -r4
    10dc:	000005f4 	strdeq	r0, [r0], -r4
    10e0:	93580003 	cmpls	r8, #3, 0
    10e4:	0005f404 	andeq	pc, r5, r4, lsl #8
    10e8:	0005fc00 	andeq	pc, r5, r0, lsl #24
    10ec:	78000500 	stmdavc	r0, {r8, sl}
    10f0:	04939f04 	ldreq	r9, [r3], #3844	; 0xf04
    10f4:	000005fc 	strdeq	r0, [r0], -ip
    10f8:	000005fc 	strdeq	r0, [r0], -ip
    10fc:	93580003 	cmpls	r8, #3, 0
    1100:	0005fc04 	andeq	pc, r5, r4, lsl #24
    1104:	00060000 	andeq	r0, r6, r0
    1108:	78000500 	stmdavc	r0, {r8, sl}
    110c:	04939f04 	ldreq	r9, [r3], #3844	; 0xf04
    1110:	00000600 	andeq	r0, r0, r0, lsl #12
    1114:	00000700 	andeq	r0, r0, r0, lsl #14
    1118:	93580003 	cmpls	r8, #3, 0
    111c:	00070004 	andeq	r0, r7, r4
    1120:	00070c00 	andeq	r0, r7, r0, lsl #24
    1124:	78000500 	stmdavc	r0, {r8, sl}
    1128:	04939f04 	ldreq	r9, [r3], #3844	; 0xf04
    112c:	0000070c 	andeq	r0, r0, ip, lsl #14
    1130:	000007f8 	strdeq	r0, [r0], -r8
    1134:	93580003 	cmpls	r8, #3, 0
    1138:	0007f804 	andeq	pc, r7, r4, lsl #16
    113c:	0007fc00 	andeq	pc, r7, r0, lsl #24
    1140:	78000500 	stmdavc	r0, {r8, sl}
    1144:	04939f04 	ldreq	r9, [r3], #3844	; 0xf04
    1148:	000007fc 	strdeq	r0, [r0], -ip
    114c:	00000800 	andeq	r0, r0, r0, lsl #16
    1150:	93580003 	cmpls	r8, #3, 0
    1154:	00088804 	andeq	r8, r8, r4, lsl #16
    1158:	00092000 	andeq	r2, r9, r0
    115c:	58000300 	stmdapl	r0, {r8, r9}
    1160:	09200493 	stmdbeq	r0!, {r0, r1, r4, r7, sl}
    1164:	09280000 	stmdbeq	r8!, {}	; <UNPREDICTABLE>
    1168:	00030000 	andeq	r0, r3, r0
    116c:	64049353 	strvs	r9, [r4], #-851	; 0xfffffcad
    1170:	b4000009 	strlt	r0, [r0], #-9
    1174:	03000009 	movweq	r0, #9
    1178:	04935800 	ldreq	r5, [r3], #2048	; 0x800
	...
    1184:	00000001 	andeq	r0, r0, r1
    1188:	00000000 	andeq	r0, r0, r0
    118c:	00020200 	andeq	r0, r2, r0, lsl #4
    1190:	01010000 	mrseq	r0, (UNDEF: 1)
    1194:	00000001 	andeq	r0, r0, r1
    1198:	03ac0000 			; <UNDEFINED> instruction: 0x03ac0000
    119c:	03d00000 	bicseq	r0, r0, #0, 0
    11a0:	00010000 	andeq	r0, r1, r0
    11a4:	0003d05b 	andeq	sp, r3, fp, asr r0
    11a8:	0003d400 	andeq	sp, r3, r0, lsl #8
    11ac:	54000100 	strpl	r0, [r0], #-256	; 0xffffff00
    11b0:	000003d4 	ldrdeq	r0, [r0], -r4
    11b4:	000003d8 	ldrdeq	r0, [r0], -r8
    11b8:	7f740003 	svcvc	0x00740003
    11bc:	0003d89f 	muleq	r3, pc, r8	; <UNPREDICTABLE>
    11c0:	0003fc00 	andeq	pc, r3, r0, lsl #24
    11c4:	54000100 	strpl	r0, [r0], #-256	; 0xffffff00
    11c8:	000004a8 	andeq	r0, r0, r8, lsr #9
    11cc:	000004ac 	andeq	r0, r0, ip, lsr #9
    11d0:	ac540001 	mrrcge	0, 0, r0, r4, cr1
    11d4:	b4000004 	strlt	r0, [r0], #-4
    11d8:	03000004 	movweq	r0, #4
    11dc:	9f017400 	svcls	0x00017400
    11e0:	000004b4 			; <UNDEFINED> instruction: 0x000004b4
    11e4:	000004c0 	andeq	r0, r0, r0, asr #9
    11e8:	e4540001 	ldrb	r0, [r4], #-1
    11ec:	f4000004 	vst4.8	{d0-d3}, [r0], r4
    11f0:	01000004 	tsteq	r0, r4
    11f4:	04f45400 	ldrbteq	r5, [r4], #1024	; 0x400
    11f8:	04f80000 	ldrbteq	r0, [r8], #0
    11fc:	00030000 	andeq	r0, r3, r0
    1200:	f89f0174 			; <UNDEFINED> instruction: 0xf89f0174
    1204:	04000004 	streq	r0, [r0], #-4
    1208:	01000005 	tsteq	r0, r5
    120c:	09205400 	stmdbeq	r0!, {sl, ip, lr}
    1210:	09280000 	stmdbeq	r8!, {}	; <UNPREDICTABLE>
    1214:	00010000 	andeq	r0, r1, r0
    1218:	0000005b 	andeq	r0, r0, fp, asr r0
    121c:	00000000 	andeq	r0, r0, r0
    1220:	ac000100 	stfges	f0, [r0], {-0}
    1224:	b4000003 	strlt	r0, [r0], #-3
    1228:	01000009 	tsteq	r0, r9
    122c:	00005700 	andeq	r5, r0, r0, lsl #14
    1230:	00000000 	andeq	r0, r0, r0
    1234:	00020000 	andeq	r0, r2, r0
    1238:	00000000 	andeq	r0, r0, r0
    123c:	0000057c 	andeq	r0, r0, ip, ror r5
    1240:	000005d0 	ldrdeq	r0, [r0], -r0	; <UNPREDICTABLE>
    1244:	005b0001 	subseq	r0, fp, r1
    1248:	88000008 	stmdahi	r0, {r3}
    124c:	01000008 	tsteq	r0, r8
    1250:	09485b00 	stmdbeq	r8, {r8, r9, fp, ip, lr}^
    1254:	09640000 	stmdbeq	r4!, {}^	; <UNPREDICTABLE>
    1258:	00010000 	andeq	r0, r1, r0
    125c:	0000005b 	andeq	r0, r0, fp, asr r0
    1260:	00000000 	andeq	r0, r0, r0
    1264:	00000300 	andeq	r0, r0, r0, lsl #6
    1268:	7c000000 	stcvc	0, cr0, [r0], {-0}
    126c:	d0000005 	andle	r0, r0, r5
    1270:	01000005 	tsteq	r0, r5
    1274:	08005900 	stmdaeq	r0, {r8, fp, ip, lr}
    1278:	08880000 	stmeq	r8, {}	; <UNPREDICTABLE>
    127c:	00010000 	andeq	r0, r1, r0
    1280:	00094859 	andeq	r4, r9, r9, asr r8
    1284:	00096400 	andeq	r6, r9, r0, lsl #8
    1288:	59000100 	stmdbpl	r0, {r8}
	...
    1294:	00000004 	andeq	r0, r0, r4
    1298:	00000000 	andeq	r0, r0, r0
    129c:	000003ac 	andeq	r0, r0, ip, lsr #7
    12a0:	000003d0 	ldrdeq	r0, [r0], -r0	; <UNPREDICTABLE>
    12a4:	d0520001 	subsle	r0, r2, r1
    12a8:	20000003 	andcs	r0, r0, r3
    12ac:	04000009 	streq	r0, [r0], #-9
    12b0:	5201f300 	andpl	pc, r1, #0, 6
    12b4:	0009209f 	muleq	r9, pc, r0	; <UNPREDICTABLE>
    12b8:	00092800 	andeq	r2, r9, r0, lsl #16
    12bc:	52000100 	andpl	r0, r0, #0
    12c0:	00000928 	andeq	r0, r0, r8, lsr #18
    12c4:	000009b4 			; <UNDEFINED> instruction: 0x000009b4
    12c8:	01f30004 	mvnseq	r0, r4
    12cc:	00009f52 	andeq	r9, r0, r2, asr pc
    12d0:	00000000 	andeq	r0, r0, r0
    12d4:	01000000 	mrseq	r0, (UNDEF: 0)
    12d8:	00000001 	andeq	r0, r0, r1
    12dc:	00010000 	andeq	r0, r1, r0
    12e0:	04e00000 	strbteq	r0, [r0], #0
    12e4:	04e00000 	strbteq	r0, [r0], #0
    12e8:	00010000 	andeq	r0, r1, r0
    12ec:	0004e050 	andeq	lr, r4, r0, asr r0
    12f0:	0004e800 	andeq	lr, r4, r0, lsl #16
    12f4:	55000100 	strpl	r0, [r0, #-256]	; 0xffffff00
    12f8:	000005b8 			; <UNDEFINED> instruction: 0x000005b8
    12fc:	000005d0 	ldrdeq	r0, [r0], -r0	; <UNPREDICTABLE>
    1300:	f0550001 			; <UNDEFINED> instruction: 0xf0550001
    1304:	f4000005 	vst4.8	{d0-d3}, [r0], r5
    1308:	01000005 	tsteq	r0, r5
    130c:	07f45000 	ldrbeq	r5, [r4, r0]!
    1310:	07f80000 	ldrbeq	r0, [r8, r0]!
    1314:	00010000 	andeq	r0, r1, r0
    1318:	00085055 	andeq	r5, r8, r5, asr r0
    131c:	00088800 	andeq	r8, r8, r0, lsl #16
    1320:	55000100 	strpl	r0, [r0, #-256]	; 0xffffff00
	...
    132c:	00000002 	andeq	r0, r0, r2
    1330:	00000000 	andeq	r0, r0, r0
    1334:	00000414 	andeq	r0, r0, r4, lsl r4
    1338:	00000418 	andeq	r0, r0, r8, lsl r4
    133c:	9f300002 	svcls	0x00300002
    1340:	00000418 	andeq	r0, r0, r8, lsl r4
    1344:	0000041c 	andeq	r0, r0, ip, lsl r4
    1348:	28550001 	ldmdacs	r5, {r0}^
    134c:	3c000004 	stccc	0, cr0, [r0], {4}
    1350:	01000004 	tsteq	r0, r4
    1354:	09285500 	stmdbeq	r8!, {r8, sl, ip, lr}
    1358:	09300000 	ldmdbeq	r0!, {}	; <UNPREDICTABLE>
    135c:	00010000 	andeq	r0, r1, r0
    1360:	00000055 	andeq	r0, r0, r5, asr r0
    1364:	00000000 	andeq	r0, r0, r0
    1368:	00000100 	andeq	r0, r0, r0, lsl #2
	...
    1374:	00050400 	andeq	r0, r5, r0, lsl #8
    1378:	00058400 	andeq	r8, r5, r0, lsl #8
    137c:	56000100 	strpl	r0, [r0], -r0, lsl #2
    1380:	00000584 	andeq	r0, r0, r4, lsl #11
    1384:	00000588 	andeq	r0, r0, r8, lsl #11
    1388:	7e730003 	cdpvc	0, 7, cr0, cr3, cr3, {0}
    138c:	0005889f 	muleq	r5, pc, r8	; <UNPREDICTABLE>
    1390:	0005d000 	andeq	sp, r5, r0
    1394:	91000700 	tstls	r0, r0, lsl #14
    1398:	32067dcc 	andcc	r7, r6, #204, 26	; 0x3300
    139c:	08009f1c 	stmdaeq	r0, {r2, r3, r4, r8, r9, sl, fp, ip, pc}
    13a0:	081c0000 	ldmdaeq	ip, {}	; <UNPREDICTABLE>
    13a4:	00010000 	andeq	r0, r1, r0
    13a8:	00081c56 	andeq	r1, r8, r6, asr ip
    13ac:	00088800 	andeq	r8, r8, r0, lsl #16
    13b0:	91000700 	tstls	r0, r0, lsl #14
    13b4:	32067dcc 	andcc	r7, r6, #204, 26	; 0x3300
    13b8:	09489f1c 	stmdbeq	r8, {r2, r3, r4, r8, r9, sl, fp, ip, pc}^
    13bc:	09b40000 	ldmibeq	r4!, {}	; <UNPREDICTABLE>
    13c0:	00010000 	andeq	r0, r1, r0
    13c4:	00000056 	andeq	r0, r0, r6, asr r0
    13c8:	00000000 	andeq	r0, r0, r0
    13cc:	02060400 	andeq	r0, r6, #0, 8
    13d0:	00041404 	andeq	r1, r4, r4, lsl #8
    13d4:	00041400 	andeq	r1, r4, r0, lsl #8
    13d8:	72000600 	andvc	r0, r0, #0, 12
    13dc:	1aff0800 	bne	fffc33e4 <__bss_end__+0xfffb80ec>
    13e0:	0004289f 	muleq	r4, pc, r8	; <UNPREDICTABLE>
    13e4:	00042800 	andeq	r2, r4, r0, lsl #16
    13e8:	72000600 	andvc	r0, r0, #0, 12
    13ec:	1aff0800 	bne	fffc33f4 <__bss_end__+0xfffb80fc>
    13f0:	0000009f 	muleq	r0, pc, r0	; <UNPREDICTABLE>
    13f4:	00000000 	andeq	r0, r0, r0
    13f8:	00000200 	andeq	r0, r0, r0, lsl #4
    13fc:	fc000000 	stc2	0, cr0, [r0], {-0}
    1400:	00000005 	andeq	r0, r0, r5
    1404:	03000007 	movweq	r0, #7
    1408:	9f800800 	svcls	0x00800800
    140c:	000008a8 	andeq	r0, r0, r8, lsr #17
    1410:	000008bc 			; <UNDEFINED> instruction: 0x000008bc
    1414:	80080003 	andhi	r0, r8, r3
    1418:	0009109f 	muleq	r9, pc, r0	; <UNPREDICTABLE>
    141c:	00092000 	andeq	r2, r9, r0
    1420:	08000300 	stmdaeq	r0, {r8, r9}
    1424:	00009f80 	andeq	r9, r0, r0, lsl #31
    1428:	00000000 	andeq	r0, r0, r0
    142c:	00010000 	andeq	r0, r1, r0
    1430:	00000000 	andeq	r0, r0, r0
    1434:	000005fc 	strdeq	r0, [r0], -ip
    1438:	00000700 	andeq	r0, r0, r0, lsl #14
    143c:	9f300002 	svcls	0x00300002
    1440:	000008a8 	andeq	r0, r0, r8, lsr #17
    1444:	000008bc 			; <UNDEFINED> instruction: 0x000008bc
    1448:	9f300002 	svcls	0x00300002
    144c:	00000910 	andeq	r0, r0, r0, lsl r9
    1450:	00000920 	andeq	r0, r0, r0, lsr #18
    1454:	9f300002 	svcls	0x00300002
	...
    1460:	00000001 	andeq	r0, r0, r1
    1464:	05fc0000 	ldrbeq	r0, [ip, #0]!
    1468:	06e00000 	strbteq	r0, [r0], r0
    146c:	00010000 	andeq	r0, r1, r0
    1470:	0008a855 	andeq	sl, r8, r5, asr r8
    1474:	0008bc00 	andeq	fp, r8, r0, lsl #24
    1478:	55000100 	strpl	r0, [r0, #-256]	; 0xffffff00
    147c:	00000910 	andeq	r0, r0, r0, lsl r9
    1480:	00000920 	andeq	r0, r0, r0, lsr #18
    1484:	00550001 	subseq	r0, r5, r1
    1488:	00000000 	andeq	r0, r0, r0
    148c:	01000000 	mrseq	r0, (UNDEF: 0)
    1490:	00000000 	andeq	r0, r0, r0
    1494:	fc000000 	stc2	0, cr0, [r0], {-0}
    1498:	e0000005 	and	r0, r0, r5
    149c:	04000006 	streq	r0, [r0], #-6
    14a0:	7dd09100 	ldfvcp	f1, [r0]
    14a4:	0006e09f 	muleq	r6, pc, r0	; <UNPREDICTABLE>
    14a8:	00070000 	andeq	r0, r7, r0
    14ac:	55000100 	strpl	r0, [r0, #-256]	; 0xffffff00
    14b0:	000008a8 	andeq	r0, r0, r8, lsr #17
    14b4:	000008bc 			; <UNDEFINED> instruction: 0x000008bc
    14b8:	d0910004 	addsle	r0, r1, r4
    14bc:	09109f7d 	ldmdbeq	r0, {r0, r2, r3, r4, r5, r6, r8, r9, sl, fp, ip, pc}
    14c0:	09200000 	stmdbeq	r0!, {}	; <UNPREDICTABLE>
    14c4:	00040000 	andeq	r0, r4, r0
    14c8:	9f7dd091 	svcls	0x007dd091
	...
    14d4:	00000001 	andeq	r0, r0, r1
    14d8:	05fc0000 	ldrbeq	r0, [ip, #0]!
    14dc:	07000000 	streq	r0, [r0, -r0]
    14e0:	00020000 	andeq	r0, r2, r0
    14e4:	08a89f38 	stmiaeq	r8!, {r3, r4, r5, r8, r9, sl, fp, ip, pc}
    14e8:	08bc0000 	ldmeq	ip!, {}	; <UNPREDICTABLE>
    14ec:	00020000 	andeq	r0, r2, r0
    14f0:	09109f38 	ldmdbeq	r0, {r3, r4, r5, r8, r9, sl, fp, ip, pc}
    14f4:	09200000 	stmdbeq	r0!, {}	; <UNPREDICTABLE>
    14f8:	00020000 	andeq	r0, r2, r0
    14fc:	00009f38 	andeq	r9, r0, r8, lsr pc
    1500:	00000000 	andeq	r0, r0, r0
    1504:	07040000 	streq	r0, [r4, -r0]
    1508:	00000007 	andeq	r0, r0, r7
	...
    1514:	000005fc 	strdeq	r0, [r0], -ip
    1518:	000005fc 	strdeq	r0, [r0], -ip
    151c:	d0910004 	addsle	r0, r1, r4
    1520:	05fc9f7e 	ldrbeq	r9, [ip, #3966]!	; 0xf7e
    1524:	06780000 	ldrbteq	r0, [r8], -r0
    1528:	00040000 	andeq	r0, r4, r0
    152c:	9f7ed191 	svcls	0x007ed191
    1530:	00000678 	andeq	r0, r0, r8, ror r6
    1534:	000006d4 	ldrdeq	r0, [r0], -r4
    1538:	d45c0001 	ldrble	r0, [ip], #-1
    153c:	00000006 	andeq	r0, r0, r6
    1540:	04000007 	streq	r0, [r0], #-7
    1544:	7ed19100 	atnvcs	f1, f0
    1548:	0008a89f 	muleq	r8, pc, r8	; <UNPREDICTABLE>
    154c:	0008bc00 	andeq	fp, r8, r0, lsl #24
    1550:	91000400 	tstls	r0, r0, lsl #8
    1554:	109f7ed1 			; <UNDEFINED> instruction: 0x109f7ed1
    1558:	14000009 	strne	r0, [r0], #-9
    155c:	04000009 	streq	r0, [r0], #-9
    1560:	7ed19100 	atnvcs	f1, f0
    1564:	0009149f 	muleq	r9, pc, r4	; <UNPREDICTABLE>
    1568:	00092000 	andeq	r2, r9, r0
    156c:	5c000100 	stfpls	f0, [r0], {-0}
	...
    1578:	01000104 	tsteq	r0, r4, lsl #2
    157c:	06080000 	streq	r0, [r8], -r0
    1580:	06d00000 	ldrbeq	r0, [r0], r0
    1584:	00010000 	andeq	r0, r1, r0
    1588:	0008a855 	andeq	sl, r8, r5, asr r8
    158c:	0008b800 	andeq	fp, r8, r0, lsl #16
    1590:	55000100 	strpl	r0, [r0, #-256]	; 0xffffff00
    1594:	00000910 	andeq	r0, r0, r0, lsl r9
    1598:	00000920 	andeq	r0, r0, r0, lsr #18
    159c:	00550001 	subseq	r0, r5, r1
    15a0:	00000000 	andeq	r0, r0, r0
    15a4:	04000000 	streq	r0, [r0], #-0
    15a8:	00000000 	andeq	r0, r0, r0
    15ac:	00000001 	andeq	r0, r0, r1
    15b0:	08000001 	stmdaeq	r0, {r0}
    15b4:	b0000006 	andlt	r0, r0, r6
    15b8:	04000006 	streq	r0, [r0], #-6
    15bc:	7ed09100 	atnvcs	f1, f0
    15c0:	0006b09f 	muleq	r6, pc, r0	; <UNPREDICTABLE>
    15c4:	0006c800 	andeq	ip, r6, r0, lsl #16
    15c8:	50000100 	andpl	r0, r0, r0, lsl #2
    15cc:	000006c8 	andeq	r0, r0, r8, asr #13
    15d0:	000006d0 	ldrdeq	r0, [r0], -r0	; <UNPREDICTABLE>
    15d4:	d0910004 	addsle	r0, r1, r4
    15d8:	08a89f7e 	stmiaeq	r8!, {r1, r2, r3, r4, r5, r6, r8, r9, sl, fp, ip, pc}
    15dc:	08b00000 	ldmeq	r0!, {}	; <UNPREDICTABLE>
    15e0:	00040000 	andeq	r0, r4, r0
    15e4:	9f7ed091 	svcls	0x007ed091
    15e8:	000008b0 			; <UNDEFINED> instruction: 0x000008b0
    15ec:	000008b8 			; <UNDEFINED> instruction: 0x000008b8
    15f0:	10530001 	subsne	r0, r3, r1
    15f4:	20000009 	andcs	r0, r0, r9
    15f8:	04000009 	streq	r0, [r0], #-9
    15fc:	7ed09100 	atnvcs	f1, f0
    1600:	0000009f 	muleq	r0, pc, r0	; <UNPREDICTABLE>
    1604:	00000000 	andeq	r0, r0, r0
    1608:	00000400 	andeq	r0, r0, r0, lsl #8
    160c:	01010101 	tsteq	r1, r1, lsl #2
    1610:	00020303 	andeq	r0, r2, r3, lsl #6
    1614:	00000001 	andeq	r0, r0, r1
    1618:	00060800 	andeq	r0, r6, r0, lsl #16
    161c:	00062400 	andeq	r2, r6, r0, lsl #8
    1620:	91000400 	tstls	r0, r0, lsl #8
    1624:	849f7ed1 	ldrhi	r7, [pc], #3793	; 162c <__code_start__-0x69d4>
    1628:	84000006 	strhi	r0, [r0], #-6
    162c:	01000006 	tsteq	r0, r6
    1630:	06845000 	streq	r5, [r4], r0
    1634:	06980000 	ldreq	r0, [r8], r0
    1638:	00030000 	andeq	r0, r3, r0
    163c:	989f0170 	ldmls	pc, {r4, r5, r6, r8}	; <UNPREDICTABLE>
    1640:	a4000006 	strge	r0, [r0], #-6
    1644:	03000006 	movweq	r0, #6
    1648:	9f027000 	svcls	0x00027000
    164c:	000006a4 	andeq	r0, r0, r4, lsr #13
    1650:	000006a8 	andeq	r0, r0, r8, lsr #13
    1654:	03700003 	cmneq	r0, #3, 0
    1658:	0008a89f 	muleq	r8, pc, r8	; <UNPREDICTABLE>
    165c:	0008b800 	andeq	fp, r8, r0, lsl #16
    1660:	91000400 	tstls	r0, r0, lsl #8
    1664:	109f7ed1 			; <UNDEFINED> instruction: 0x109f7ed1
    1668:	14000009 	strne	r0, [r0], #-9
    166c:	04000009 	streq	r0, [r0], #-9
    1670:	7ed19100 	atnvcs	f1, f0
    1674:	0009149f 	muleq	r9, pc, r4	; <UNPREDICTABLE>
    1678:	00092000 	andeq	r2, r9, r0
    167c:	5c000100 	stfpls	f0, [r0], {-0}
	...
    1688:	01000006 	tsteq	r0, r6
    168c:	01010101 	tsteq	r1, r1, lsl #2
    1690:	01000201 	tsteq	r0, r1, lsl #4
    1694:	06080000 	streq	r0, [r8], -r0
    1698:	06240000 	strteq	r0, [r4], -r0
    169c:	00020000 	andeq	r0, r2, r0
    16a0:	06849f31 			; <UNDEFINED> instruction: 0x06849f31
    16a4:	06940000 	ldreq	r0, [r4], r0
    16a8:	00010000 	andeq	r0, r1, r0
    16ac:	00069452 	andeq	r9, r6, r2, asr r4
    16b0:	0006a400 	andeq	sl, r6, r0, lsl #8
    16b4:	59000100 	stmdbpl	r0, {r8}
    16b8:	000006a4 	andeq	r0, r0, r4, lsr #13
    16bc:	000006a8 	andeq	r0, r0, r8, lsr #13
    16c0:	a8520001 	ldmdage	r2, {r0}^
    16c4:	a8000006 	stmdage	r0, {r1, r2}
    16c8:	03000006 	movweq	r0, #6
    16cc:	9f017200 	svcls	0x00017200
    16d0:	000008a8 	andeq	r0, r0, r8, lsr #17
    16d4:	000008b8 			; <UNDEFINED> instruction: 0x000008b8
    16d8:	9f310002 	svcls	0x00310002
    16dc:	00000910 	andeq	r0, r0, r0, lsl r9
    16e0:	00000920 	andeq	r0, r0, r0, lsr #18
    16e4:	9f310002 	svcls	0x00310002
	...
    16f0:	00060601 	andeq	r0, r6, r1, lsl #12
    16f4:	06d00001 	ldrbeq	r0, [r0], r1
    16f8:	06d00000 	ldrbeq	r0, [r0], r0
    16fc:	00040000 	andeq	r0, r4, r0
    1700:	9f7ed091 	svcls	0x007ed091
    1704:	000006d0 	ldrdeq	r0, [r0], -r0	; <UNPREDICTABLE>
    1708:	00000700 	andeq	r0, r0, r0, lsl #14
    170c:	b8500001 	ldmdalt	r0, {r0}^
    1710:	bc000008 	stclt	0, cr0, [r0], {8}
    1714:	01000008 	tsteq	r0, r8
    1718:	00005300 	andeq	r5, r0, r0, lsl #6
    171c:	00000000 	andeq	r0, r0, r0
    1720:	08010000 	stmdaeq	r1, {}	; <UNPREDICTABLE>
    1724:	01000000 	mrseq	r0, (UNDEF: 0)
    1728:	07010001 	streq	r0, [r1, -r1]
    172c:	000006d0 	ldrdeq	r0, [r0], -r0	; <UNPREDICTABLE>
    1730:	000006d0 	ldrdeq	r0, [r0], -r0	; <UNPREDICTABLE>
    1734:	007c0006 	rsbseq	r0, ip, r6
    1738:	9f220071 	svcls	0x00220071
    173c:	000006e4 	andeq	r0, r0, r4, ror #13
    1740:	000006e8 	andeq	r0, r0, r8, ror #13
    1744:	7f730003 	svcvc	0x00730003
    1748:	0006e89f 	muleq	r6, pc, r8	; <UNPREDICTABLE>
    174c:	0006f000 	andeq	pc, r6, r0
    1750:	53000100 	movwpl	r0, #256	; 0x100
    1754:	000006f0 	strdeq	r0, [r0], -r0	; <UNPREDICTABLE>
    1758:	000006f8 	strdeq	r0, [r0], -r8
    175c:	7f730003 	svcvc	0x00730003
    1760:	0008b89f 	muleq	r8, pc, r8	; <UNPREDICTABLE>
    1764:	0008b800 	andeq	fp, r8, r0, lsl #16
    1768:	91000400 	tstls	r0, r0, lsl #8
    176c:	009f7ed1 			; <UNDEFINED> instruction: 0x009f7ed1
    1770:	00000000 	andeq	r0, r0, r0
    1774:	01000000 	mrseq	r0, (UNDEF: 0)
    1778:	d0000100 	andle	r0, r0, r0, lsl #2
    177c:	00000006 	andeq	r0, r0, r6
    1780:	03000007 	movweq	r0, #7
    1784:	9f800800 	svcls	0x00800800
    1788:	000008b8 			; <UNDEFINED> instruction: 0x000008b8
    178c:	000008bc 			; <UNDEFINED> instruction: 0x000008bc
    1790:	80080003 	andhi	r0, r8, r3
    1794:	0000009f 	muleq	r0, pc, r0	; <UNPREDICTABLE>
    1798:	00000000 	andeq	r0, r0, r0
    179c:	00000100 	andeq	r0, r0, r0, lsl #2
    17a0:	01010000 	mrseq	r0, (UNDEF: 1)
    17a4:	02000000 	andeq	r0, r0, #0, 0
    17a8:	d0000101 	andle	r0, r0, r1, lsl #2
    17ac:	e0000006 	and	r0, r0, r6
    17b0:	04000006 	streq	r0, [r0], #-6
    17b4:	7dd09100 	ldfvcp	f1, [r0]
    17b8:	0006e09f 	muleq	r6, pc, r0	; <UNPREDICTABLE>
    17bc:	0006e400 	andeq	lr, r6, r0, lsl #8
    17c0:	55000100 	strpl	r0, [r0, #-256]	; 0xffffff00
    17c4:	000006e4 	andeq	r0, r0, r4, ror #13
    17c8:	000006e4 	andeq	r0, r0, r4, ror #13
    17cc:	01720003 	cmneq	r2, r3
    17d0:	0006e49f 	muleq	r6, pc, r4	; <UNPREDICTABLE>
    17d4:	0006f000 	andeq	pc, r6, r0
    17d8:	72000300 	andvc	r0, r0, #0, 6
    17dc:	06f09f02 	ldrbteq	r9, [r0], r2, lsl #30
    17e0:	07000000 	streq	r0, [r0, -r0]
    17e4:	00030000 	andeq	r0, r3, r0
    17e8:	ec9f0172 	ldfs	f0, [pc], {114}	; 0x72
    17ec:	f4000007 	vst4.8	{d0-d3}, [r0], r7
    17f0:	03000007 	movweq	r0, #7
    17f4:	9f017300 	svcls	0x00017300
    17f8:	000008b8 			; <UNDEFINED> instruction: 0x000008b8
    17fc:	000008bc 			; <UNDEFINED> instruction: 0x000008bc
    1800:	d0910004 	addsle	r0, r1, r4
    1804:	00009f7d 	andeq	r9, r0, sp, ror pc
    1808:	00000000 	andeq	r0, r0, r0
    180c:	00040000 	andeq	r0, r4, r0
    1810:	000008b8 			; <UNDEFINED> instruction: 0x000008b8
    1814:	000008bc 			; <UNDEFINED> instruction: 0x000008bc
    1818:	9f320002 	svcls	0x00320002
	...
    1824:	00000007 	andeq	r0, r0, r7
    1828:	06d00006 	ldrbeq	r0, [r0], r6
    182c:	06e00000 	strbteq	r0, [r0], r0
    1830:	00040000 	andeq	r0, r4, r0
    1834:	9f7dd091 	svcls	0x007dd091
    1838:	000006e0 	andeq	r0, r0, r0, ror #13
    183c:	00000700 	andeq	r0, r0, r0, lsl #14
    1840:	b8550001 	ldmdalt	r5, {r0}^
    1844:	bc000008 	stclt	0, cr0, [r0], {8}
    1848:	04000008 	streq	r0, [r0], #-8
    184c:	7dd09100 	ldfvcp	f1, [r0]
    1850:	0000009f 	muleq	r0, pc, r0	; <UNPREDICTABLE>
    1854:	00000000 	andeq	r0, r0, r0
    1858:	00000100 	andeq	r0, r0, r0, lsl #2
    185c:	00070c00 	andeq	r0, r7, r0, lsl #24
    1860:	0007ec00 	andeq	lr, r7, r0, lsl #24
    1864:	08000300 	stmdaeq	r0, {r8, r9}
    1868:	08949f80 	ldmeq	r4, {r7, r8, r9, sl, fp, ip, pc}
    186c:	08a80000 	stmiaeq	r8!, {}	; <UNPREDICTABLE>
    1870:	00030000 	andeq	r0, r3, r0
    1874:	009f8008 	addseq	r8, pc, r8
	...
    1880:	0c000000 	stceq	0, cr0, [r0], {-0}
    1884:	ec000007 	stc	0, cr0, [r0], {7}
    1888:	02000007 	andeq	r0, r0, #7, 0
    188c:	949f3000 	ldrls	r3, [pc], #0	; 1894 <__code_start__-0x676c>
    1890:	a8000008 	stmdage	r0, {r3}
    1894:	02000008 	andeq	r0, r0, #8, 0
    1898:	009f3000 	addseq	r3, pc, r0
	...
    18a4:	0c000000 	stceq	0, cr0, [r0], {-0}
    18a8:	d0000007 	andle	r0, r0, r7
    18ac:	01000007 	tsteq	r0, r7
    18b0:	08945500 	ldmeq	r4, {r8, sl, ip, lr}
    18b4:	08a80000 	stmiaeq	r8!, {}	; <UNPREDICTABLE>
    18b8:	00010000 	andeq	r0, r1, r0
    18bc:	00000055 	andeq	r0, r0, r5, asr r0
	...
    18c8:	0c000000 	stceq	0, cr0, [r0], {-0}
    18cc:	d0000007 	andle	r0, r0, r7
    18d0:	04000007 	streq	r0, [r0], #-7
    18d4:	7dd09100 	ldfvcp	f1, [r0]
    18d8:	0007d09f 	muleq	r7, pc, r0	; <UNPREDICTABLE>
    18dc:	0007ec00 	andeq	lr, r7, r0, lsl #24
    18e0:	55000100 	strpl	r0, [r0, #-256]	; 0xffffff00
    18e4:	00000894 	muleq	r0, r4, r8
    18e8:	000008a8 	andeq	r0, r0, r8, lsr #17
    18ec:	d0910004 	addsle	r0, r1, r4
    18f0:	00009f7d 	andeq	r9, r0, sp, ror pc
	...
    18fc:	070c0000 	streq	r0, [ip, -r0]
    1900:	07ec0000 	strbeq	r0, [ip, r0]!
    1904:	00020000 	andeq	r0, r2, r0
    1908:	08949f32 	ldmeq	r4, {r1, r4, r5, r8, r9, sl, fp, ip, pc}
    190c:	08a80000 	stmiaeq	r8!, {}	; <UNPREDICTABLE>
    1910:	00020000 	andeq	r0, r2, r0
    1914:	00009f32 	andeq	r9, r0, r2, lsr pc
    1918:	00000000 	andeq	r0, r0, r0
    191c:	05030000 	streq	r0, [r3, #-0]
    1920:	00000005 	andeq	r0, r0, r5
    1924:	00000000 	andeq	r0, r0, r0
    1928:	0000070c 	andeq	r0, r0, ip, lsl #14
    192c:	0000070c 	andeq	r0, r0, ip, lsl #14
    1930:	0c510001 	mrrceq	0, 0, r0, r1, cr1
    1934:	1c000007 	stcne	0, cr0, [r0], {7}
    1938:	01000007 	tsteq	r0, r7
    193c:	071c5300 	ldreq	r5, [ip, -r0, lsl #6]
    1940:	07240000 	streq	r0, [r4, -r0]!
    1944:	00030000 	andeq	r0, r3, r0
    1948:	249f0172 	ldrcs	r0, [pc], #370	; 1950 <__code_start__-0x66b0>
    194c:	cc000007 	stcgt	0, cr0, [r0], {7}
    1950:	01000007 	tsteq	r0, r7
    1954:	08945300 	ldmeq	r4, {r8, r9, ip, lr}
    1958:	08a80000 	stmiaeq	r8!, {}	; <UNPREDICTABLE>
    195c:	00010000 	andeq	r0, r1, r0
    1960:	00000053 	andeq	r0, r0, r3, asr r0
    1964:	00000000 	andeq	r0, r0, r0
    1968:	01000500 	tsteq	r0, r0, lsl #10
    196c:	00070c00 	andeq	r0, r7, r0, lsl #24
    1970:	00072000 	andeq	r2, r7, r0
    1974:	50000100 	andpl	r0, r0, r0, lsl #2
    1978:	00000724 	andeq	r0, r0, r4, lsr #14
    197c:	0000072c 	andeq	r0, r0, ip, lsr #14
    1980:	00500001 	subseq	r0, r0, r1
    1984:	00000000 	andeq	r0, r0, r0
    1988:	03000000 	movweq	r0, #0
    198c:	28010001 	stmdacs	r1, {r0}
    1990:	b0000007 	andlt	r0, r0, r7
    1994:	01000007 	tsteq	r0, r7
    1998:	08945500 	ldmeq	r4, {r8, sl, ip, lr}
    199c:	08a00000 	stmiaeq	r0!, {}	; <UNPREDICTABLE>
    19a0:	00010000 	andeq	r0, r1, r0
    19a4:	00000055 	andeq	r0, r0, r5, asr r0
    19a8:	00000000 	andeq	r0, r0, r0
    19ac:	00010300 	andeq	r0, r1, r0, lsl #6
    19b0:	00072801 	andeq	r2, r7, r1, lsl #16
    19b4:	0007b000 	andeq	fp, r7, r0
    19b8:	51000100 	mrspl	r0, (UNDEF: 16)
    19bc:	00000894 	muleq	r0, r4, r8
    19c0:	000008a0 	andeq	r0, r0, r0, lsr #17
    19c4:	00510001 	subseq	r0, r1, r1
    19c8:	00000000 	andeq	r0, r0, r0
    19cc:	03000000 	movweq	r0, #0
    19d0:	01010000 	mrseq	r0, (UNDEF: 1)
    19d4:	03030101 	movweq	r0, #12545	; 0x3101
    19d8:	28010002 	stmdacs	r1, {r1}
    19dc:	50000007 	andpl	r0, r0, r7
    19e0:	01000007 	tsteq	r0, r7
    19e4:	07745300 	ldrbeq	r5, [r4, -r0, lsl #6]!
    19e8:	07740000 	ldrbeq	r0, [r4, -r0]!
    19ec:	00010000 	andeq	r0, r1, r0
    19f0:	0007745e 	andeq	r7, r7, lr, asr r4
    19f4:	00078800 	andeq	r8, r7, r0, lsl #16
    19f8:	7e000300 	cdpvc	3, 0, cr0, cr0, cr0, {0}
    19fc:	07889f01 	streq	r9, [r8, r1, lsl #30]
    1a00:	07940000 	ldreq	r0, [r4, r0]
    1a04:	00030000 	andeq	r0, r3, r0
    1a08:	949f027e 	ldrls	r0, [pc], #638	; 1a10 <__code_start__-0x65f0>
    1a0c:	98000007 	stmdals	r0, {r0, r1, r2}
    1a10:	03000007 	movweq	r0, #7
    1a14:	9f037e00 	svcls	0x00037e00
    1a18:	00000894 	muleq	r0, r4, r8
    1a1c:	000008a0 	andeq	r0, r0, r0, lsr #17
    1a20:	00530001 	subseq	r0, r3, r1
	...
    1a2c:	01010000 	mrseq	r0, (UNDEF: 1)
    1a30:	01010101 	tsteq	r1, r1, lsl #2
    1a34:	2c010002 	stccs	0, cr0, [r1], {2}
    1a38:	50000007 	andpl	r0, r0, r7
    1a3c:	01000007 	tsteq	r0, r7
    1a40:	07745000 	ldrbeq	r5, [r4, -r0]!
    1a44:	07840000 	streq	r0, [r4, r0]
    1a48:	00010000 	andeq	r0, r1, r0
    1a4c:	00078450 	andeq	r8, r7, r0, asr r4
    1a50:	00079400 	andeq	r9, r7, r0, lsl #8
    1a54:	5b000100 	blpl	1e5c <__code_start__-0x61a4>
    1a58:	00000794 	muleq	r0, r4, r7
    1a5c:	00000798 	muleq	r0, r8, r7
    1a60:	98500001 	ldmdals	r0, {r0}^
    1a64:	98000007 	stmdals	r0, {r0, r1, r2}
    1a68:	03000007 	movweq	r0, #7
    1a6c:	9f017000 	svcls	0x00017000
    1a70:	00000894 	muleq	r0, r4, r8
    1a74:	000008a0 	andeq	r0, r0, r0, lsr #17
    1a78:	00500001 	subseq	r0, r0, r1
    1a7c:	00000000 	andeq	r0, r0, r0
    1a80:	01000000 	mrseq	r0, (UNDEF: 0)
    1a84:	b0000100 	andlt	r0, r0, r0, lsl #2
    1a88:	ec000007 	stc	0, cr0, [r0], {7}
    1a8c:	01000007 	tsteq	r0, r7
    1a90:	08a05100 	stmiaeq	r0!, {r8, ip, lr}
    1a94:	08a80000 	stmiaeq	r8!, {}	; <UNPREDICTABLE>
    1a98:	00010000 	andeq	r0, r1, r0
    1a9c:	00000051 	andeq	r0, r0, r1, asr r0
    1aa0:	00000000 	andeq	r0, r0, r0
    1aa4:	00000100 	andeq	r0, r0, r0, lsl #2
    1aa8:	01010000 	mrseq	r0, (UNDEF: 1)
    1aac:	b0000100 	andlt	r0, r0, r0, lsl #2
    1ab0:	b4000007 	strlt	r0, [r0], #-7
    1ab4:	06000007 	streq	r0, [r0], -r7
    1ab8:	7c007300 	stcvc	3, cr7, [r0], {-0}
    1abc:	d49f2200 	ldrle	r2, [pc], #512	; 1ac4 <__code_start__-0x653c>
    1ac0:	d8000007 	stmdale	r0, {r0, r1, r2}
    1ac4:	03000007 	movweq	r0, #7
    1ac8:	9f7f7300 	svcls	0x007f7300
    1acc:	000007d8 	ldrdeq	r0, [r0], -r8
    1ad0:	000007e0 	andeq	r0, r0, r0, ror #15
    1ad4:	e0530001 	subs	r0, r3, r1
    1ad8:	e8000007 	stmda	r0, {r0, r1, r2}
    1adc:	03000007 	movweq	r0, #7
    1ae0:	9f7f7300 	svcls	0x007f7300
    1ae4:	000008a0 	andeq	r0, r0, r0, lsr #17
    1ae8:	000008a8 	andeq	r0, r0, r8, lsr #17
    1aec:	00530001 	subseq	r0, r3, r1
    1af0:	00000000 	andeq	r0, r0, r0
    1af4:	01000000 	mrseq	r0, (UNDEF: 0)
    1af8:	b0000100 	andlt	r0, r0, r0, lsl #2
    1afc:	ec000007 	stc	0, cr0, [r0], {7}
    1b00:	03000007 	movweq	r0, #7
    1b04:	9f800800 	svcls	0x00800800
    1b08:	000008a0 	andeq	r0, r0, r0, lsr #17
    1b0c:	000008a8 	andeq	r0, r0, r8, lsr #17
    1b10:	80080003 	andhi	r0, r8, r3
    1b14:	0000009f 	muleq	r0, pc, r0	; <UNPREDICTABLE>
    1b18:	00000000 	andeq	r0, r0, r0
    1b1c:	00000100 	andeq	r0, r0, r0, lsl #2
    1b20:	01010000 	mrseq	r0, (UNDEF: 1)
    1b24:	01000000 	mrseq	r0, (UNDEF: 0)
    1b28:	0007b000 	andeq	fp, r7, r0
    1b2c:	0007d000 	andeq	sp, r7, r0
    1b30:	91000400 	tstls	r0, r0, lsl #8
    1b34:	d09f7dd0 			; <UNDEFINED> instruction: 0xd09f7dd0
    1b38:	d4000007 	strle	r0, [r0], #-7
    1b3c:	01000007 	tsteq	r0, r7
    1b40:	07d45500 	ldrbeq	r5, [r4, r0, lsl #10]
    1b44:	07d40000 	ldrbeq	r0, [r4, r0]
    1b48:	00030000 	andeq	r0, r3, r0
    1b4c:	d49f017c 	ldrle	r0, [pc], #380	; 1b54 <__code_start__-0x64ac>
    1b50:	e0000007 	and	r0, r0, r7
    1b54:	03000007 	movweq	r0, #7
    1b58:	9f027c00 	svcls	0x00027c00
    1b5c:	000007e0 	andeq	r0, r0, r0, ror #15
    1b60:	000007ec 	andeq	r0, r0, ip, ror #15
    1b64:	017c0003 	cmneq	ip, r3
    1b68:	0008a09f 	muleq	r8, pc, r0	; <UNPREDICTABLE>
    1b6c:	0008a800 	andeq	sl, r8, r0, lsl #16
    1b70:	91000400 	tstls	r0, r0, lsl #8
    1b74:	009f7dd0 			; <UNDEFINED> instruction: 0x009f7dd0
    1b78:	00000000 	andeq	r0, r0, r0
    1b7c:	04000000 	streq	r0, [r0], #-0
    1b80:	b0000400 	andlt	r0, r0, r0, lsl #8
    1b84:	b4000007 	strlt	r0, [r0], #-7
    1b88:	03000007 	movweq	r0, #7
    1b8c:	9f017000 	svcls	0x00017000
    1b90:	000008a0 	andeq	r0, r0, r0, lsr #17
    1b94:	000008a8 	andeq	r0, r0, r8, lsr #17
    1b98:	01700003 	cmneq	r0, r3
    1b9c:	0000009f 	muleq	r0, pc, r0	; <UNPREDICTABLE>
    1ba0:	00000000 	andeq	r0, r0, r0
    1ba4:	00000100 	andeq	r0, r0, r0, lsl #2
    1ba8:	0007bc00 	andeq	fp, r7, r0, lsl #24
    1bac:	0007d000 	andeq	sp, r7, r0
    1bb0:	91000400 	tstls	r0, r0, lsl #8
    1bb4:	d09f7dd0 			; <UNDEFINED> instruction: 0xd09f7dd0
    1bb8:	ec000007 	stc	0, cr0, [r0], {7}
    1bbc:	01000007 	tsteq	r0, r7
    1bc0:	00005500 	andeq	r5, r0, r0, lsl #10
	...
    1bcc:	03280000 			; <UNDEFINED> instruction: 0x03280000
    1bd0:	03640000 	cmneq	r4, #0, 0
    1bd4:	00010000 	andeq	r0, r1, r0
    1bd8:	00036450 	andeq	r6, r3, r0, asr r4
    1bdc:	00038800 	andeq	r8, r3, r0, lsl #16
    1be0:	f3000400 	vshl.u8	d0, d0, d0
    1be4:	009f5001 	addseq	r5, pc, r1
	...
    1bf0:	28000000 	stmdacs	r0, {}	; <UNPREDICTABLE>
    1bf4:	5c000003 	stcpl	0, cr0, [r0], {3}
    1bf8:	01000003 	tsteq	r0, r3
    1bfc:	035c5100 	cmpeq	ip, #0
    1c00:	03880000 	orreq	r0, r8, #0, 0
    1c04:	00040000 	andeq	r0, r4, r0
    1c08:	9f5101f3 	svcls	0x005101f3
	...
    1c30:	00000014 	andeq	r0, r0, r4, lsl r0
    1c34:	14500001 	ldrbne	r0, [r0], #-1
    1c38:	20000000 	andcs	r0, r0, r0
    1c3c:	01000000 	mrseq	r0, (UNDEF: 0)
    1c40:	00205c00 	eoreq	r5, r0, r0, lsl #24
    1c44:	00680000 	rsbeq	r0, r8, r0
    1c48:	00030000 	andeq	r0, r3, r0
    1c4c:	689f0271 	ldmvs	pc, {r0, r4, r5, r6, r9}	; <UNPREDICTABLE>
    1c50:	6c000000 	stcvs	0, cr0, [r0], {-0}
    1c54:	03000000 	movweq	r0, #0
    1c58:	9f027300 	svcls	0x00027300
    1c5c:	0000006c 	andeq	r0, r0, ip, rrx
    1c60:	00000194 	muleq	r0, r4, r1
    1c64:	01f30004 	mvnseq	r0, r4
    1c68:	01949f50 	orrseq	r9, r4, r0, asr pc
    1c6c:	01980000 	orrseq	r0, r8, r0
    1c70:	00030000 	andeq	r0, r3, r0
    1c74:	989f0273 	ldmls	pc, {r0, r1, r4, r5, r6, r9}	; <UNPREDICTABLE>
    1c78:	c0000001 	andgt	r0, r0, r1
    1c7c:	04000001 	streq	r0, [r0], #-1
    1c80:	5001f300 	andpl	pc, r1, r0, lsl #6
    1c84:	0001c09f 	muleq	r1, pc, r0	; <UNPREDICTABLE>
    1c88:	0001c800 	andeq	ip, r1, r0, lsl #16
    1c8c:	5c000100 	stfpls	f0, [r0], {-0}
    1c90:	000001c8 	andeq	r0, r0, r8, asr #3
    1c94:	00000214 	andeq	r0, r0, r4, lsl r2
    1c98:	02730003 	rsbseq	r0, r3, #3, 0
    1c9c:	0002149f 	muleq	r2, pc, r4	; <UNPREDICTABLE>
    1ca0:	0002ec00 	andeq	lr, r2, r0, lsl #24
    1ca4:	f3000400 	vshl.u8	d0, d0, d0
    1ca8:	ec9f5001 	ldc	0, cr5, [pc], {1}
    1cac:	f4000002 	vst4.8	{d0-d3}, [r0], r2
    1cb0:	03000002 	movweq	r0, #2
    1cb4:	9f027300 	svcls	0x00027300
    1cb8:	000002f4 	strdeq	r0, [r0], -r4
    1cbc:	00000328 	andeq	r0, r0, r8, lsr #6
    1cc0:	01f30004 	mvnseq	r0, r4
    1cc4:	00009f50 	andeq	r9, r0, r0, asr pc
	...
    1cd8:	001c0000 	andseq	r0, ip, r0
    1cdc:	00010000 	andeq	r0, r1, r0
    1ce0:	00001c51 	andeq	r1, r0, r1, asr ip
    1ce4:	0002e000 	andeq	lr, r2, r0
    1ce8:	50000100 	andpl	r0, r0, r0, lsl #2
    1cec:	000002e0 	andeq	r0, r0, r0, ror #5
    1cf0:	000002ec 	andeq	r0, r0, ip, ror #5
    1cf4:	01f30004 	mvnseq	r0, r4
    1cf8:	02ec9f51 	rsceq	r9, ip, #324	; 0x144
    1cfc:	03280000 			; <UNDEFINED> instruction: 0x03280000
    1d00:	00010000 	andeq	r0, r1, r0
    1d04:	00000050 	andeq	r0, r0, r0, asr r0
	...
    1d10:	00010000 	andeq	r0, r1, r0
    1d14:	00000000 	andeq	r0, r0, r0
    1d18:	02020000 	andeq	r0, r2, #0, 0
	...
    1d30:	00007000 	andeq	r7, r0, r0
    1d34:	52000100 	andpl	r0, r0, #0
    1d38:	00000070 	andeq	r0, r0, r0, ror r0
    1d3c:	00000078 	andeq	r0, r0, r8, ror r0
    1d40:	785c0001 	ldmdavc	ip, {r0}^
    1d44:	a4000000 	strge	r0, [r0], #-0
    1d48:	04000000 	streq	r0, [r0], #-0
    1d4c:	5201f300 	andpl	pc, r1, #0, 6
    1d50:	0001949f 	muleq	r1, pc, r4	; <UNPREDICTABLE>
    1d54:	00019c00 	andeq	r9, r1, r0, lsl #24
    1d58:	52000100 	andpl	r0, r0, #0
    1d5c:	0000019c 	muleq	r0, ip, r1
    1d60:	000001a4 	andeq	r0, r0, r4, lsr #3
    1d64:	a45c0001 	ldrbge	r0, [ip], #-1
    1d68:	c0000001 	andgt	r0, r0, r1
    1d6c:	04000001 	streq	r0, [r0], #-1
    1d70:	5201f300 	andpl	pc, r1, #0, 6
    1d74:	0001c09f 	muleq	r1, pc, r0	; <UNPREDICTABLE>
    1d78:	00022000 	andeq	r2, r2, r0
    1d7c:	52000100 	andpl	r0, r0, #0
    1d80:	00000220 	andeq	r0, r0, r0, lsr #4
    1d84:	00000228 	andeq	r0, r0, r8, lsr #4
    1d88:	00720004 	rsbseq	r0, r2, r4
    1d8c:	02289f1f 	eoreq	r9, r8, #124	; 0x7c
    1d90:	02740000 	rsbseq	r0, r4, #0, 0
    1d94:	00050000 	andeq	r0, r5, r0
    1d98:	1f5201f3 	svcne	0x005201f3
    1d9c:	0002749f 	muleq	r2, pc, r4	; <UNPREDICTABLE>
    1da0:	00028800 	andeq	r8, r2, r0, lsl #16
    1da4:	52000100 	andpl	r0, r0, #0
    1da8:	00000288 	andeq	r0, r0, r8, lsl #5
    1dac:	000002a0 	andeq	r0, r0, r0, lsr #5
    1db0:	cc5c0001 	mrrcgt	0, 0, r0, ip, cr1
    1db4:	d0000002 	andle	r0, r0, r2
    1db8:	01000002 	tsteq	r0, r2
    1dbc:	02d05200 	sbcseq	r5, r0, #0, 4
    1dc0:	02e70000 	rsceq	r0, r7, #0, 0
    1dc4:	00010000 	andeq	r0, r1, r0
    1dc8:	0002e75c 	andeq	lr, r2, ip, asr r7
    1dcc:	0002ec00 	andeq	lr, r2, r0, lsl #24
    1dd0:	f3000400 	vshl.u8	d0, d0, d0
    1dd4:	ec9f5201 	lfm	f5, 4, [pc], {1}
    1dd8:	00000002 	andeq	r0, r0, r2
    1ddc:	01000003 	tsteq	r0, r3
    1de0:	03005200 	movweq	r5, #512	; 0x200
    1de4:	03280000 			; <UNDEFINED> instruction: 0x03280000
    1de8:	00010000 	andeq	r0, r1, r0
    1dec:	0000005c 	andeq	r0, r0, ip, asr r0
	...
    1e04:	68000000 	stmdavs	r0, {}	; <UNPREDICTABLE>
    1e08:	01000000 	mrseq	r0, (UNDEF: 0)
    1e0c:	00685300 	rsbeq	r5, r8, r0, lsl #6
    1e10:	006c0000 	rsbeq	r0, ip, r0
    1e14:	00030000 	andeq	r0, r3, r0
    1e18:	949f7f08 	ldrls	r7, [pc], #3848	; 1e20 <__code_start__-0x61e0>
    1e1c:	98000001 	stmdals	r0, {r0}
    1e20:	03000001 	movweq	r0, #1
    1e24:	9f7f0800 	svcls	0x007f0800
    1e28:	000001c0 	andeq	r0, r0, r0, asr #3
    1e2c:	00000214 	andeq	r0, r0, r4, lsl r2
    1e30:	7f080003 	svcvc	0x00080003
    1e34:	0002749f 	muleq	r2, pc, r4	; <UNPREDICTABLE>
    1e38:	00029000 	andeq	r9, r2, r0
    1e3c:	53000100 	movwpl	r0, #256	; 0x100
    1e40:	00000290 	muleq	r0, r0, r2
    1e44:	000002a0 	andeq	r0, r0, r0, lsr #5
    1e48:	01f30004 	mvnseq	r0, r4
    1e4c:	02ec9f53 	rsceq	r9, ip, #332	; 0x14c
    1e50:	03280000 			; <UNDEFINED> instruction: 0x03280000
    1e54:	00030000 	andeq	r0, r3, r0
    1e58:	009f7f08 	addseq	r7, pc, r8, lsl #30
    1e5c:	00000000 	andeq	r0, r0, r0
    1e60:	01000000 	mrseq	r0, (UNDEF: 0)
    1e64:	00000000 	andeq	r0, r0, r0
    1e68:	00000202 	andeq	r0, r0, r2, lsl #4
    1e6c:	00000101 	andeq	r0, r0, r1, lsl #2
    1e70:	00000000 	andeq	r0, r0, r0
    1e74:	02020000 	andeq	r0, r2, #0, 0
    1e78:	01000000 	mrseq	r0, (UNDEF: 0)
	...
    1e84:	00000101 	andeq	r0, r0, r1, lsl #2
    1e88:	02020000 	andeq	r0, r2, #0, 0
    1e8c:	00000000 	andeq	r0, r0, r0
    1e90:	01010000 	mrseq	r0, (UNDEF: 1)
    1e94:	18000000 	stmdane	r0, {}	; <UNPREDICTABLE>
    1e98:	70000000 	andvc	r0, r0, r0
    1e9c:	04000000 	streq	r0, [r0], #-0
    1ea0:	7fa09100 	svcvc	0x00a09100
    1ea4:	0000709f 	muleq	r0, pc, r0	; <UNPREDICTABLE>
    1ea8:	00007800 	andeq	r7, r0, r0, lsl #16
    1eac:	52000100 	andpl	r0, r0, #0
    1eb0:	00000078 	andeq	r0, r0, r8, ror r0
    1eb4:	00000078 	andeq	r0, r0, r8, ror r0
    1eb8:	78540001 	ldmdavc	r4, {r0}^
    1ebc:	88000000 	stmdahi	r0, {}	; <UNPREDICTABLE>
    1ec0:	03000000 	movweq	r0, #0
    1ec4:	9f017400 	svcls	0x00017400
    1ec8:	00000088 	andeq	r0, r0, r8, lsl #1
    1ecc:	00000090 	muleq	r0, r0, r0
    1ed0:	90540001 	subsls	r0, r4, r1
    1ed4:	a0000000 	andge	r0, r0, r0
    1ed8:	03000000 	movweq	r0, #0
    1edc:	9f027400 	svcls	0x00027400
    1ee0:	000000a0 	andeq	r0, r0, r0, lsr #1
    1ee4:	000000b0 	strheq	r0, [r0], -r0	; <UNPREDICTABLE>
    1ee8:	945e0001 	ldrbls	r0, [lr], #-1
    1eec:	9c000001 	stcls	0, cr0, [r0], {1}
    1ef0:	04000001 	streq	r0, [r0], #-1
    1ef4:	7fa09100 	svcvc	0x00a09100
    1ef8:	00019c9f 	muleq	r1, pc, ip	; <UNPREDICTABLE>
    1efc:	0001a400 	andeq	sl, r1, r0, lsl #8
    1f00:	52000100 	andpl	r0, r0, #0
    1f04:	000001a4 	andeq	r0, r0, r4, lsr #3
    1f08:	000001a4 	andeq	r0, r0, r4, lsr #3
    1f0c:	a45e0001 	ldrbge	r0, [lr], #-1
    1f10:	b4000001 	strlt	r0, [r0], #-1
    1f14:	03000001 	movweq	r0, #1
    1f18:	9f017e00 	svcls	0x00017e00
    1f1c:	000001b4 			; <UNDEFINED> instruction: 0x000001b4
    1f20:	000001c0 	andeq	r0, r0, r0, asr #3
    1f24:	c05e0001 	subsgt	r0, lr, r1
    1f28:	28000001 	stmdacs	r0, {r0}
    1f2c:	04000002 	streq	r0, [r0], #-2
    1f30:	7fa09100 	svcvc	0x00a09100
    1f34:	0002289f 	muleq	r2, pc, r8	; <UNPREDICTABLE>
    1f38:	00023400 	andeq	r3, r2, r0, lsl #8
    1f3c:	52000100 	andpl	r0, r0, #0
    1f40:	00000234 	andeq	r0, r0, r4, lsr r2
    1f44:	00000258 	andeq	r0, r0, r8, asr r2
    1f48:	585e0001 	ldmdapl	lr, {r0}^
    1f4c:	5c000002 	stcpl	0, cr0, [r0], {2}
    1f50:	03000002 	movweq	r0, #2
    1f54:	9f017e00 	svcls	0x00017e00
    1f58:	0000025c 	andeq	r0, r0, ip, asr r2
    1f5c:	00000264 	andeq	r0, r0, r4, ror #4
    1f60:	645e0001 	ldrbvs	r0, [lr], #-1
    1f64:	70000002 	andvc	r0, r0, r2
    1f68:	03000002 	movweq	r0, #2
    1f6c:	9f027100 	svcls	0x00027100
    1f70:	00000270 	andeq	r0, r0, r0, ror r2
    1f74:	00000274 	andeq	r0, r0, r4, ror r2
    1f78:	745e0001 	ldrbvc	r0, [lr], #-1
    1f7c:	74000002 	strvc	r0, [r0], #-2
    1f80:	04000002 	streq	r0, [r0], #-2
    1f84:	7fa09100 	svcvc	0x00a09100
    1f88:	0002749f 	muleq	r2, pc, r4	; <UNPREDICTABLE>
    1f8c:	0002a000 	andeq	sl, r2, r0
    1f90:	91000400 	tstls	r0, r0, lsl #8
    1f94:	c09f7fa1 	addsgt	r7, pc, r1, lsr #31
    1f98:	c8000002 	stmdagt	r0, {r1}
    1f9c:	01000002 	tsteq	r0, r2
    1fa0:	02c85e00 	sbceq	r5, r8, #0, 28
    1fa4:	02cc0000 	sbceq	r0, ip, #0, 0
    1fa8:	00010000 	andeq	r0, r1, r0
    1fac:	0002cc56 	andeq	ip, r2, r6, asr ip
    1fb0:	0002ec00 	andeq	lr, r2, r0, lsl #24
    1fb4:	91000400 	tstls	r0, r0, lsl #8
    1fb8:	ec9f7fa0 	ldc	15, cr7, [pc], {160}	; 0xa0
    1fbc:	fc000002 	stc2	0, cr0, [r0], {2}
    1fc0:	04000002 	streq	r0, [r0], #-2
    1fc4:	7fa19100 	svcvc	0x00a19100
    1fc8:	0002fc9f 	muleq	r2, pc, ip	; <UNPREDICTABLE>
    1fcc:	00032800 	andeq	r2, r3, r0, lsl #16
    1fd0:	5e000100 	adfpls	f0, f0, f0
	...
    1fe8:	01000000 	mrseq	r0, (UNDEF: 0)
    1fec:	00000001 	andeq	r0, r0, r1
	...
    1ffc:	00200000 	eoreq	r0, r0, r0
    2000:	00700000 	rsbseq	r0, r0, r0
    2004:	00010000 	andeq	r0, r1, r0
    2008:	00007052 	andeq	r7, r0, r2, asr r0
    200c:	00009400 	andeq	r9, r0, r0, lsl #8
    2010:	5c000100 	stfpls	f0, [r0], {-0}
    2014:	00000194 	muleq	r0, r4, r1
    2018:	0000019c 	muleq	r0, ip, r1
    201c:	9c520001 	mrrcls	0, 0, r0, r2, cr1
    2020:	c0000001 	andgt	r0, r0, r1
    2024:	01000001 	tsteq	r0, r1
    2028:	01c85c00 	biceq	r5, r8, r0, lsl #24
    202c:	02100000 	andseq	r0, r0, #0, 0
    2030:	00010000 	andeq	r0, r1, r0
    2034:	0002105c 	andeq	r1, r2, ip, asr r0
    2038:	00022400 	andeq	r2, r2, r0, lsl #8
    203c:	52000100 	andpl	r0, r0, #0
    2040:	00000224 	andeq	r0, r0, r4, lsr #4
    2044:	00000248 	andeq	r0, r0, r8, asr #4
    2048:	485c0001 	ldmdami	ip, {r0}^
    204c:	5c000002 	stcpl	0, cr0, [r0], {2}
    2050:	01000002 	tsteq	r0, r2
    2054:	025c5500 	subseq	r5, ip, #0, 10
    2058:	02680000 	rsbeq	r0, r8, #0, 0
    205c:	00010000 	andeq	r0, r1, r0
    2060:	0002685c 	andeq	r6, r2, ip, asr r8
    2064:	00027400 	andeq	r7, r2, r0, lsl #8
    2068:	75001900 	strvc	r1, [r0, #-2304]	; 0xfffff700
    206c:	f72cf700 			; <UNDEFINED> instruction: 0xf72cf700
    2070:	f7007625 			; <UNDEFINED> instruction: 0xf7007625
    2074:	1e25f72c 	cdpne	7, 2, cr15, cr5, cr12, {1}
    2078:	25f72008 	ldrbcs	r2, [r7, #8]!
    207c:	f72cf725 			; <UNDEFINED> instruction: 0xf72cf725
    2080:	9f253300 	svcls	0x00253300
    2084:	00000274 	andeq	r0, r0, r4, ror r2
    2088:	00000288 	andeq	r0, r0, r8, lsl #5
    208c:	88520001 	ldmdahi	r2, {r0}^
    2090:	a0000002 	andge	r0, r0, r2
    2094:	01000002 	tsteq	r0, r2
    2098:	02cc5c00 	sbceq	r5, ip, #0, 24
    209c:	02d00000 	sbcseq	r0, r0, #0, 0
    20a0:	00010000 	andeq	r0, r1, r0
    20a4:	0002d052 	andeq	sp, r2, r2, asr r0
    20a8:	0002e700 	andeq	lr, r2, r0, lsl #14
    20ac:	5c000100 	stfpls	f0, [r0], {-0}
    20b0:	000002e7 	andeq	r0, r0, r7, ror #5
    20b4:	000002ec 	andeq	r0, r0, ip, ror #5
    20b8:	01f30004 	mvnseq	r0, r4
    20bc:	02ec9f52 	rsceq	r9, ip, #328	; 0x148
    20c0:	03000000 	movweq	r0, #0
    20c4:	00010000 	andeq	r0, r1, r0
    20c8:	00030052 	andeq	r0, r3, r2, asr r0
    20cc:	00032800 	andeq	r2, r3, r0, lsl #16
    20d0:	5c000100 	stfpls	f0, [r0], {-0}
	...
    20dc:	00040004 	andeq	r0, r4, r4
    20e0:	00000100 	andeq	r0, r0, r0, lsl #2
    20e4:	00a40004 	adceq	r0, r4, r4
    20e8:	00b00000 	adcseq	r0, r0, r0
    20ec:	00010000 	andeq	r0, r1, r0
    20f0:	00027c53 	andeq	r7, r2, r3, asr ip
    20f4:	00029000 	andeq	r9, r2, r0
    20f8:	53000100 	movwpl	r0, #256	; 0x100
    20fc:	00000290 	muleq	r0, r0, r2
    2100:	0000029c 	muleq	r0, ip, r2
    2104:	01f30004 	mvnseq	r0, r4
    2108:	02c09f53 	sbceq	r9, r0, #332	; 0x14c
    210c:	02cc0000 	sbceq	r0, ip, #0, 0
    2110:	00010000 	andeq	r0, r1, r0
    2114:	0002f053 	andeq	pc, r2, r3, asr r0	; <UNPREDICTABLE>
    2118:	00032800 	andeq	r2, r3, r0, lsl #16
    211c:	08000300 	stmdaeq	r0, {r8, r9}
    2120:	00009f7f 	andeq	r9, r0, pc, ror pc
    2124:	00000000 	andeq	r0, r0, r0
    2128:	00040000 	andeq	r0, r4, r0
    212c:	00040100 	andeq	r0, r4, r0, lsl #2
    2130:	00000100 	andeq	r0, r0, r0, lsl #2
    2134:	00040000 	andeq	r0, r4, r0
    2138:	00a40000 	adceq	r0, r4, r0
    213c:	00b00000 	adcseq	r0, r0, r0
    2140:	00010000 	andeq	r0, r1, r0
    2144:	0000b052 	andeq	fp, r0, r2, asr r0
    2148:	00015c00 	andeq	r5, r1, r0, lsl #24
    214c:	91000400 	tstls	r0, r0, lsl #8
    2150:	7c9f7fa0 	ldcvc	15, cr7, [pc], {160}	; 0xa0
    2154:	94000002 	strls	r0, [r0], #-2
    2158:	04000002 	streq	r0, [r0], #-2
    215c:	7fa09100 	svcvc	0x00a09100
    2160:	0002949f 	muleq	r2, pc, r4	; <UNPREDICTABLE>
    2164:	00029c00 	andeq	r9, r2, r0, lsl #24
    2168:	5e000100 	adfpls	f0, f0, f0
    216c:	000002b4 			; <UNDEFINED> instruction: 0x000002b4
    2170:	000002c0 	andeq	r0, r0, r0, asr #5
    2174:	a0910004 	addsge	r0, r1, r4
    2178:	02c09f7f 	sbceq	r9, r0, #508	; 0x1fc
    217c:	02cc0000 	sbceq	r0, ip, #0, 0
    2180:	00010000 	andeq	r0, r1, r0
    2184:	0002f052 	andeq	pc, r2, r2, asr r0	; <UNPREDICTABLE>
    2188:	00030000 	andeq	r0, r3, r0
    218c:	91000400 	tstls	r0, r0, lsl #8
    2190:	009f7fa0 	addseq	r7, pc, r0, lsr #31
    2194:	28000003 	stmdacs	r0, {r0, r1}
    2198:	01000003 	tsteq	r0, r3
    219c:	00005200 	andeq	r5, r0, r0, lsl #4
    21a0:	00000000 	andeq	r0, r0, r0
    21a4:	00040000 	andeq	r0, r4, r0
    21a8:	01010100 	mrseq	r0, (UNDEF: 17)
    21ac:	02030301 	andeq	r0, r3, #67108864	; 0x4000000
    21b0:	00000104 	andeq	r0, r0, r4, lsl #2
    21b4:	00040000 	andeq	r0, r4, r0
    21b8:	00a40000 	adceq	r0, r4, r0
    21bc:	00b00000 	adcseq	r0, r0, r0
    21c0:	00010000 	andeq	r0, r1, r0
    21c4:	00010c5e 	andeq	r0, r1, lr, asr ip
    21c8:	00010c00 	andeq	r0, r1, r0, lsl #24
    21cc:	55000100 	strpl	r0, [r0, #-256]	; 0xffffff00
    21d0:	0000010c 	andeq	r0, r0, ip, lsl #2
    21d4:	00000120 	andeq	r0, r0, r0, lsr #2
    21d8:	01750003 	cmneq	r5, r3
    21dc:	0001209f 	muleq	r1, pc, r0	; <UNPREDICTABLE>
    21e0:	00012c00 	andeq	r2, r1, r0, lsl #24
    21e4:	75000300 	strvc	r0, [r0, #-768]	; 0xfffffd00
    21e8:	012c9f02 			; <UNDEFINED> instruction: 0x012c9f02
    21ec:	01300000 	teqeq	r0, r0
    21f0:	00030000 	andeq	r0, r3, r0
    21f4:	7c9f0375 	ldcvc	3, cr0, [pc], {117}	; 0x75
    21f8:	9c000002 	stcls	0, cr0, [r0], {2}
    21fc:	04000002 	streq	r0, [r0], #-2
    2200:	7fa19100 	svcvc	0x00a19100
    2204:	0002c09f 	muleq	r2, pc, r0	; <UNPREDICTABLE>
    2208:	0002c800 	andeq	ip, r2, r0, lsl #16
    220c:	5e000100 	adfpls	f0, f0, f0
    2210:	000002c8 	andeq	r0, r0, r8, asr #5
    2214:	000002cc 	andeq	r0, r0, ip, asr #5
    2218:	f0560001 			; <UNDEFINED> instruction: 0xf0560001
    221c:	fc000002 	stc2	0, cr0, [r0], {2}
    2220:	04000002 	streq	r0, [r0], #-2
    2224:	7fa19100 	svcvc	0x00a19100
    2228:	0002fc9f 	muleq	r2, pc, ip	; <UNPREDICTABLE>
    222c:	00032800 	andeq	r2, r3, r0, lsl #16
    2230:	5e000100 	adfpls	f0, f0, f0
	...
    223c:	01000000 	mrseq	r0, (UNDEF: 0)
    2240:	01010101 	tsteq	r1, r1, lsl #2
    2244:	01060201 	tsteq	r6, r1, lsl #4
    2248:	00060000 	andeq	r0, r6, r0
    224c:	000000a8 	andeq	r0, r0, r8, lsr #1
    2250:	000000b0 	strheq	r0, [r0], -r0	; <UNPREDICTABLE>
    2254:	0c510001 	mrrceq	0, 0, r0, r1, cr1
    2258:	1c000001 	stcne	0, cr0, [r0], {1}
    225c:	01000001 	tsteq	r0, r1
    2260:	011c5c00 	tsteq	ip, r0, lsl #24
    2264:	012c0000 			; <UNDEFINED> instruction: 0x012c0000
    2268:	00010000 	andeq	r0, r1, r0
    226c:	00012c58 	andeq	r2, r1, r8, asr ip
    2270:	00013000 	andeq	r3, r1, r0
    2274:	5c000100 	stfpls	f0, [r0], {-0}
    2278:	00000130 	andeq	r0, r0, r0, lsr r1
    227c:	00000130 	andeq	r0, r0, r0, lsr r1
    2280:	017c0003 	cmneq	ip, r3
    2284:	00027c9f 	muleq	r2, pc, ip	; <UNPREDICTABLE>
    2288:	00029c00 	andeq	r9, r2, r0, lsl #24
    228c:	31000200 	mrscc	r0, R8_usr
    2290:	0002c09f 	muleq	r2, pc, r0	; <UNPREDICTABLE>
    2294:	0002cc00 	andeq	ip, r2, r0, lsl #24
    2298:	51000100 	mrspl	r0, (UNDEF: 16)
    229c:	000002f0 	strdeq	r0, [r0], -r0	; <UNPREDICTABLE>
    22a0:	00000328 	andeq	r0, r0, r8, lsr #6
    22a4:	9f310002 	svcls	0x00310002
	...
    22b0:	01060601 	tsteq	r6, r1, lsl #12
    22b4:	01000001 	tsteq	r0, r1
    22b8:	0000015c 	andeq	r0, r0, ip, asr r1
    22bc:	0000015c 	andeq	r0, r0, ip, asr r1
    22c0:	a0910004 	addsge	r0, r1, r4
    22c4:	015c9f7f 	cmpeq	ip, pc, ror pc
    22c8:	018c0000 	orreq	r0, ip, r0
    22cc:	00010000 	andeq	r0, r1, r0
    22d0:	00029c52 	andeq	r9, r2, r2, asr ip
    22d4:	0002a000 	andeq	sl, r2, r0
    22d8:	5e000100 	adfpls	f0, f0, f0
    22dc:	000002a0 	andeq	r0, r0, r0, lsr #5
    22e0:	000002ac 	andeq	r0, r0, ip, lsr #5
    22e4:	00520001 	subseq	r0, r2, r1
	...
    22f0:	01010000 	mrseq	r0, (UNDEF: 1)
    22f4:	6c070100 	stfvss	f0, [r7], {-0}
    22f8:	70000001 	andvc	r0, r0, r1
    22fc:	03000001 	movweq	r0, #1
    2300:	9f7f7300 	svcls	0x007f7300
    2304:	00000170 	andeq	r0, r0, r0, ror r1
    2308:	00000178 	andeq	r0, r0, r8, ror r1
    230c:	78530001 	ldmdavc	r3, {r0}^
    2310:	84000001 	strhi	r0, [r0], #-1
    2314:	03000001 	movweq	r0, #1
    2318:	9f7f7300 	svcls	0x007f7300
    231c:	0000029c 	muleq	r0, ip, r2
    2320:	0000029c 	muleq	r0, ip, r2
    2324:	a1910004 	orrsge	r0, r1, r4
    2328:	00009f7f 	andeq	r9, r0, pc, ror pc
    232c:	00000000 	andeq	r0, r0, r0
    2330:	01010000 	mrseq	r0, (UNDEF: 1)
    2334:	015c0101 	cmpeq	ip, r1, lsl #2
    2338:	018c0000 	orreq	r0, ip, r0
    233c:	00030000 	andeq	r0, r3, r0
    2340:	9c9f8008 	ldcls	0, cr8, [pc], {8}
    2344:	ac000002 	stcge	0, cr0, [r0], {2}
    2348:	03000002 	movweq	r0, #2
    234c:	9f800800 	svcls	0x00800800
	...
    2358:	01000001 	tsteq	r0, r1
    235c:	01000001 	tsteq	r0, r1
    2360:	01010101 	tsteq	r1, r1, lsl #2
    2364:	015c0101 	cmpeq	ip, r1, lsl #2
    2368:	016c0000 	cmneq	ip, r0
    236c:	00010000 	andeq	r0, r1, r0
    2370:	00016c50 	andeq	r6, r1, r0, asr ip
    2374:	00016c00 	andeq	r6, r1, r0, lsl #24
    2378:	7c000300 	stcvc	3, cr0, [r0], {-0}
    237c:	016c9f01 	cmneq	ip, r1, lsl #30
    2380:	01780000 	cmneq	r8, r0
    2384:	00030000 	andeq	r0, r3, r0
    2388:	789f027c 	ldmvc	pc, {r2, r3, r4, r5, r6, r9}	; <UNPREDICTABLE>
    238c:	88000001 	stmdahi	r0, {r0}
    2390:	03000001 	movweq	r0, #1
    2394:	9f017c00 	svcls	0x00017c00
    2398:	00000188 	andeq	r0, r0, r8, lsl #3
    239c:	0000018c 	andeq	r0, r0, ip, lsl #3
    23a0:	017e0003 	cmneq	lr, r3
    23a4:	00029c9f 	muleq	r2, pc, ip	; <UNPREDICTABLE>
    23a8:	0002a400 	andeq	sl, r2, r0, lsl #8
    23ac:	50000100 	andpl	r0, r0, r0, lsl #2
    23b0:	000002a4 	andeq	r0, r0, r4, lsr #5
    23b4:	000002ac 	andeq	r0, r0, ip, lsr #5
    23b8:	017e0003 	cmneq	lr, r3
    23bc:	0000009f 	muleq	r0, pc, r0	; <UNPREDICTABLE>
    23c0:	00000000 	andeq	r0, r0, r0
    23c4:	04000400 	streq	r0, [r0], #-1024	; 0xfffffc00
    23c8:	5c010000 	stcpl	0, cr0, [r1], {-0}
    23cc:	60000001 	andvs	r0, r0, r1
    23d0:	03000001 	movweq	r0, #1
    23d4:	9f017100 	svcls	0x00017100
    23d8:	0000029c 	muleq	r0, ip, r2
    23dc:	000002a0 	andeq	r0, r0, r0, lsr #5
    23e0:	9f320002 	svcls	0x00320002
    23e4:	000002a0 	andeq	r0, r0, r0, lsr #5
    23e8:	000002ac 	andeq	r0, r0, ip, lsr #5
    23ec:	01710003 	cmneq	r1, r3
    23f0:	0000009f 	muleq	r0, pc, r0	; <UNPREDICTABLE>
    23f4:	00000000 	andeq	r0, r0, r0
    23f8:	06000700 	streq	r0, [r0], -r0, lsl #14
    23fc:	00015c00 	andeq	r5, r1, r0, lsl #24
    2400:	00019400 	andeq	r9, r1, r0, lsl #8
    2404:	50000100 	andpl	r0, r0, r0, lsl #2
    2408:	0000029c 	muleq	r0, ip, r2
    240c:	000002b4 			; <UNDEFINED> instruction: 0x000002b4
    2410:	00500001 	subseq	r0, r0, r1
    2414:	00000000 	andeq	r0, r0, r0
    2418:	01000000 	mrseq	r0, (UNDEF: 0)
    241c:	14000101 	strne	r0, [r0], #-257	; 0xfffffeff
    2420:	20000002 	andcs	r0, r0, r2
    2424:	02000002 	andeq	r0, r0, #2, 0
    2428:	209f3000 	addscs	r3, pc, r0
    242c:	34000002 	strcc	r0, [r0], #-2
    2430:	02000002 	andeq	r0, r0, #2, 0
    2434:	009f3100 	addseq	r3, pc, r0, lsl #2
	...
    2440:	00000101 	andeq	r0, r0, r1, lsl #2
    2444:	00000101 	andeq	r0, r0, r1, lsl #2
    2448:	00000101 	andeq	r0, r0, r1, lsl #2
    244c:	00000101 	andeq	r0, r0, r1, lsl #2
    2450:	00000101 	andeq	r0, r0, r1, lsl #2
    2454:	80010202 	andhi	r0, r1, r2, lsl #4
    2458:	80000000 	andhi	r0, r0, r0
    245c:	01000000 	mrseq	r0, (UNDEF: 0)
    2460:	00805300 	addeq	r5, r0, r0, lsl #6
    2464:	008c0000 	addeq	r0, ip, r0
    2468:	00030000 	andeq	r0, r3, r0
    246c:	8c9f0473 	cfldrshi	mvf0, [pc], {115}	; 0x73
    2470:	94000000 	strls	r0, [r0], #-0
    2474:	01000000 	mrseq	r0, (UNDEF: 0)
    2478:	00945100 	addseq	r5, r4, r0, lsl #2
    247c:	00980000 	addseq	r0, r8, r0
    2480:	00030000 	andeq	r0, r3, r0
    2484:	989f0873 	ldmls	pc, {r0, r1, r4, r5, r6, fp}	; <UNPREDICTABLE>
    2488:	a4000000 	strge	r0, [r0], #-0
    248c:	01000000 	mrseq	r0, (UNDEF: 0)
    2490:	00a45100 	adceq	r5, r4, r0, lsl #2
    2494:	00a80000 	adceq	r0, r8, r0
    2498:	00030000 	andeq	r0, r3, r0
    249c:	a89f0c73 	ldmge	pc, {r0, r1, r4, r5, r6, sl, fp}	; <UNPREDICTABLE>
    24a0:	b4000000 	strlt	r0, [r0], #-0
    24a4:	01000000 	mrseq	r0, (UNDEF: 0)
    24a8:	00b45100 	adcseq	r5, r4, r0, lsl #2
    24ac:	00b80000 	adcseq	r0, r8, r0
    24b0:	00030000 	andeq	r0, r3, r0
    24b4:	b89f1073 	ldmlt	pc, {r0, r1, r4, r5, r6, ip}	; <UNPREDICTABLE>
    24b8:	c4000000 	strgt	r0, [r0], #-0
    24bc:	01000000 	mrseq	r0, (UNDEF: 0)
    24c0:	00c45100 	sbceq	r5, r4, r0, lsl #2
    24c4:	00c80000 	sbceq	r0, r8, r0
    24c8:	00030000 	andeq	r0, r3, r0
    24cc:	c89f1473 	ldmgt	pc, {r0, r1, r4, r5, r6, sl, ip}	; <UNPREDICTABLE>
    24d0:	d0000000 	andle	r0, r0, r0
    24d4:	01000000 	mrseq	r0, (UNDEF: 0)
    24d8:	00d05100 	sbcseq	r5, r0, r0, lsl #2
    24dc:	00d40000 	sbcseq	r0, r4, r0
    24e0:	00030000 	andeq	r0, r3, r0
    24e4:	009f0471 	addseq	r0, pc, r1, ror r4	; <UNPREDICTABLE>
    24e8:	00000000 	andeq	r0, r0, r0
    24ec:	01000000 	mrseq	r0, (UNDEF: 0)
    24f0:	00010800 	andeq	r0, r1, r0, lsl #16
    24f4:	00010b00 	andeq	r0, r1, r0, lsl #22
    24f8:	51000100 	mrspl	r0, (UNDEF: 16)
	...
    2504:	00d80002 	sbcseq	r0, r8, r2
    2508:	01100000 	tsteq	r0, r0
    250c:	00020000 	andeq	r0, r2, r0
    2510:	00009f31 	andeq	r9, r0, r1, lsr pc
    2514:	00000000 	andeq	r0, r0, r0
    2518:	03050000 	movweq	r0, #20480	; 0x5000
    251c:	000000e0 	andeq	r0, r0, r0, ror #1
    2520:	000000e4 	andeq	r0, r0, r4, ror #1
    2524:	9f300002 	svcls	0x00300002
	...
    2530:	00e40001 	rsceq	r0, r4, r1
    2534:	00ef0000 	rsceq	r0, pc, r0
    2538:	00010000 	andeq	r0, r1, r0
    253c:	00000053 	andeq	r0, r0, r3, asr r0
    2540:	00000000 	andeq	r0, r0, r0
    2544:	e4010000 	str	r0, [r1], #-0
    2548:	ec000000 	stc	0, cr0, [r0], {-0}
    254c:	01000000 	mrseq	r0, (UNDEF: 0)
    2550:	00005300 	andeq	r5, r0, r0, lsl #6
    2554:	00000000 	andeq	r0, r0, r0
    2558:	00040000 	andeq	r0, r4, r0
    255c:	00f00100 	rscseq	r0, r0, r0, lsl #2
    2560:	01040000 	mrseq	r0, (UNDEF: 4)
    2564:	00020000 	andeq	r0, r2, r0
    2568:	01049f30 	tsteq	r4, r0, lsr pc
    256c:	01080000 	mrseq	r0, (UNDEF: 8)
    2570:	00010000 	andeq	r0, r1, r0
    2574:	00000051 	andeq	r0, r0, r1, asr r0
    2578:	00000000 	andeq	r0, r0, r0
    257c:	f4000100 	vst4.8	{d0,d2,d4,d6}, [r0], r0
    2580:	0b000000 	bleq	2588 <__code_start__-0x5a78>
    2584:	01000001 	tsteq	r0, r1
    2588:	00005300 	andeq	r5, r0, r0, lsl #6
    258c:	00000000 	andeq	r0, r0, r0
    2590:	01000000 	mrseq	r0, (UNDEF: 0)
    2594:	000000f4 	strdeq	r0, [r0], -r4
    2598:	00000108 	andeq	r0, r0, r8, lsl #2
    259c:	00530001 	subseq	r0, r3, r1
    25a0:	00000000 	andeq	r0, r0, r0
    25a4:	04000000 	streq	r0, [r0], #-0
    25a8:	fc010000 	stc2	0, cr0, [r1], {-0}
    25ac:	0400009b 	streq	r0, [r0], #-155	; 0xffffff65
    25b0:	0200009c 	andeq	r0, r0, #156, 0	; 0x9c
    25b4:	049f3000 	ldreq	r3, [pc], #0	; 25bc <__code_start__-0x5a44>
    25b8:	0400009c 	streq	r0, [r0], #-156	; 0xffffff64
    25bc:	0100009c 	swpeq	r0, ip, [r0]	; <UNPREDICTABLE>
    25c0:	00005300 	andeq	r5, r0, r0, lsl #6
    25c4:	00000000 	andeq	r0, r0, r0
    25c8:	00030000 	andeq	r0, r3, r0
    25cc:	00000000 	andeq	r0, r0, r0
    25d0:	9c100000 	ldcls	0, cr0, [r0], {-0}
    25d4:	9c140000 	ldcls	0, cr0, [r4], {-0}
    25d8:	00020000 	andeq	r0, r2, r0
    25dc:	9c149f30 	ldcls	15, cr9, [r4], {48}	; 0x30
    25e0:	9c180000 	ldcls	0, cr0, [r8], {-0}
    25e4:	00010000 	andeq	r0, r1, r0
    25e8:	009c1853 	addseq	r1, ip, r3, asr r8
    25ec:	009c1c00 	addseq	r1, ip, r0, lsl #24
    25f0:	73000500 	movwvc	r0, #1280	; 0x500
    25f4:	9f214000 	svcls	0x00214000
    25f8:	00009c1c 	andeq	r9, r0, ip, lsl ip
    25fc:	00009c20 	andeq	r9, r0, r0, lsr #24
    2600:	00530001 	subseq	r0, r3, r1
    2604:	00000000 	andeq	r0, r0, r0
    2608:	02000000 	andeq	r0, r0, #0, 0
    260c:	d0000000 	andle	r0, r0, r0
    2610:	d400009b 	strle	r0, [r0], #-155	; 0xffffff65
    2614:	0200009b 	andeq	r0, r0, #155, 0	; 0x9b
    2618:	d49f3000 	ldrle	r3, [pc], #0	; 2620 <__code_start__-0x59e0>
    261c:	d800009b 	stmdale	r0, {r0, r1, r3, r4, r7}
    2620:	0100009b 	swpeq	r0, fp, [r0]	; <UNPREDICTABLE>
    2624:	00005000 	andeq	r5, r0, r0
    2628:	00000000 	andeq	r0, r0, r0
    262c:	00020000 	andeq	r0, r2, r0
    2630:	00000000 	andeq	r0, r0, r0
    2634:	9be80000 	blls	ffa0263c <__bss_end__+0xff9f7344>
    2638:	9bec0000 	blls	ffb02640 <__bss_end__+0xffaf7348>
    263c:	00020000 	andeq	r0, r2, r0
    2640:	9bec9f30 	blls	ffb2a308 <__bss_end__+0xffb1f010>
    2644:	9bf00000 	blls	ffc0264c <__bss_end__+0xffbf7354>
    2648:	00010000 	andeq	r0, r1, r0
    264c:	009bf053 	addseq	pc, fp, r3, asr r0	; <UNPREDICTABLE>
    2650:	009bf400 	addseq	pc, fp, r0, lsl #8
    2654:	73000500 	movwvc	r0, #1280	; 0x500
    2658:	9f214000 	svcls	0x00214000
    265c:	00009bf4 	strdeq	r9, [r0], -r4
    2660:	00009bfc 	strdeq	r9, [r0], -ip
    2664:	00530001 	subseq	r0, r3, r1
	...
    2670:	c8000000 	stmdagt	r0, {}	; <UNPREDICTABLE>
    2674:	d8000000 	stmdale	r0, {}	; <UNPREDICTABLE>
    2678:	01000000 	mrseq	r0, (UNDEF: 0)
    267c:	00d85000 	sbcseq	r5, r8, r0
    2680:	011c0000 	tsteq	ip, r0
    2684:	00040000 	andeq	r0, r4, r0
    2688:	9f5001f3 	svcls	0x005001f3
	...
    2694:	00000002 	andeq	r0, r0, r2
    2698:	000000c8 	andeq	r0, r0, r8, asr #1
    269c:	000000d8 	ldrdeq	r0, [r0], -r8
    26a0:	00700007 	rsbseq	r0, r0, r7
    26a4:	1e03e80a 	cdpne	8, 0, cr14, cr3, cr10, {0}
    26a8:	0000d89f 	muleq	r0, pc, r8	; <UNPREDICTABLE>
    26ac:	00011c00 	andeq	r1, r1, r0, lsl #24
    26b0:	f3000800 	vsub.i8	d0, d0, d0
    26b4:	e80a5001 	stmda	sl, {r0, ip, lr}
    26b8:	009f1e03 	addseq	r1, pc, r3, lsl #28
	...
    26c4:	0000dc00 	andeq	sp, r0, r0, lsl #24
    26c8:	00011c00 	andeq	r1, r1, r0, lsl #24
    26cc:	54000100 	strpl	r0, [r0], #-256	; 0xffffff00
	...
    26d8:	00f00001 	rscseq	r0, r0, r1
    26dc:	011c0000 	tsteq	ip, r0
    26e0:	00010000 	andeq	r0, r1, r0
    26e4:	00000056 	andeq	r0, r0, r6, asr r0
	...
    26f0:	0000ec00 	andeq	lr, r0, r0, lsl #24
    26f4:	0000ef00 	andeq	lr, r0, r0, lsl #30
    26f8:	50000100 	andpl	r0, r0, r0, lsl #2
    26fc:	000000ef 	andeq	r0, r0, pc, ror #1
    2700:	0000011c 	andeq	r0, r0, ip, lsl r1
    2704:	00560001 	subseq	r0, r6, r1
	...
    2710:	00010400 	andeq	r0, r1, r0, lsl #8
    2714:	00010b00 	andeq	r0, r1, r0, lsl #22
    2718:	50000100 	andpl	r0, r0, r0, lsl #2
	...
    2728:	00000020 	andeq	r0, r0, r0, lsr #32
    272c:	00000023 	andeq	r0, r0, r3, lsr #32
    2730:	23500001 	cmpcs	r0, #1, 0
    2734:	30000000 	andcc	r0, r0, r0
    2738:	01000000 	mrseq	r0, (UNDEF: 0)
    273c:	00005400 	andeq	r5, r0, r0, lsl #8
	...
    2748:	00300000 	eorseq	r0, r0, r0
    274c:	003b0000 	eorseq	r0, fp, r0
    2750:	00010000 	andeq	r0, r1, r0
    2754:	00003b50 	andeq	r3, r0, r0, asr fp
    2758:	00007800 	andeq	r7, r0, r0, lsl #16
    275c:	56000100 	strpl	r0, [r0], -r0, lsl #2
	...
    2768:	004c0001 	subeq	r0, ip, r1
    276c:	00780000 	rsbseq	r0, r8, r0
    2770:	00010000 	andeq	r0, r1, r0
    2774:	00000055 	andeq	r0, r0, r5, asr r0
	...
    2780:	00004800 	andeq	r4, r0, r0, lsl #16
    2784:	00004b00 	andeq	r4, r0, r0, lsl #22
    2788:	50000100 	andpl	r0, r0, r0, lsl #2
    278c:	0000004b 	andeq	r0, r0, fp, asr #32
    2790:	00000078 	andeq	r0, r0, r8, ror r0
    2794:	00550001 	subseq	r0, r5, r1
	...
    27a0:	00006000 	andeq	r6, r0, r0
    27a4:	00006700 	andeq	r6, r0, r0, lsl #14
    27a8:	50000100 	andpl	r0, r0, r0, lsl #2
	...
    27b8:	00000078 	andeq	r0, r0, r8, ror r0
    27bc:	00000084 	andeq	r0, r0, r4, lsl #1
    27c0:	84500001 	ldrbhi	r0, [r0], #-1
    27c4:	c8000000 	stmdagt	r0, {}	; <UNPREDICTABLE>
    27c8:	04000000 	streq	r0, [r0], #-0
    27cc:	5001f300 	andpl	pc, r1, r0, lsl #6
    27d0:	0000009f 	muleq	r0, pc, r0	; <UNPREDICTABLE>
    27d4:	00000000 	andeq	r0, r0, r0
    27d8:	88000000 	stmdahi	r0, {}	; <UNPREDICTABLE>
    27dc:	c8000000 	stmdagt	r0, {}	; <UNPREDICTABLE>
    27e0:	01000000 	mrseq	r0, (UNDEF: 0)
    27e4:	00005400 	andeq	r5, r0, r0, lsl #8
    27e8:	00000000 	andeq	r0, r0, r0
    27ec:	00010000 	andeq	r0, r1, r0
    27f0:	0000009c 	muleq	r0, ip, r0
    27f4:	000000c8 	andeq	r0, r0, r8, asr #1
    27f8:	00560001 	subseq	r0, r6, r1
	...
    2804:	98000000 	stmdals	r0, {}	; <UNPREDICTABLE>
    2808:	9b000000 	blls	2810 <__code_start__-0x57f0>
    280c:	01000000 	mrseq	r0, (UNDEF: 0)
    2810:	009b5000 	addseq	r5, fp, r0
    2814:	00c80000 	sbceq	r0, r8, r0
    2818:	00010000 	andeq	r0, r1, r0
    281c:	00000056 	andeq	r0, r0, r6, asr r0
    2820:	00000000 	andeq	r0, r0, r0
    2824:	b0000000 	andlt	r0, r0, r0
    2828:	b7000000 	strlt	r0, [r0, -r0]
    282c:	01000000 	mrseq	r0, (UNDEF: 0)
    2830:	00005000 	andeq	r5, r0, r0
	...
    283c:	01580000 	cmpeq	r8, r0
    2840:	01630000 	cmneq	r3, r0
    2844:	00010000 	andeq	r0, r1, r0
    2848:	00016350 	andeq	r6, r1, r0, asr r3
    284c:	00018800 	andeq	r8, r1, r0, lsl #16
    2850:	54000100 	strpl	r0, [r0], #-256	; 0xffffff00
	...
    285c:	01480000 	mrseq	r0, (UNDEF: 72)
    2860:	01580000 	cmpeq	r8, r0
    2864:	00010000 	andeq	r0, r1, r0
    2868:	00000054 	andeq	r0, r0, r4, asr r0
	...
    2878:	00000f00 	andeq	r0, r0, r0, lsl #30
    287c:	50000100 	andpl	r0, r0, r0, lsl #2
    2880:	0000000f 	andeq	r0, r0, pc
    2884:	00000020 	andeq	r0, r0, r0, lsr #32
    2888:	00540001 	subseq	r0, r4, r1
	...
    2898:	0f000000 	svceq	0x00000000
    289c:	01000000 	mrseq	r0, (UNDEF: 0)
    28a0:	000f5100 	andeq	r5, pc, r0, lsl #2
    28a4:	00200000 	eoreq	r0, r0, r0
    28a8:	00010000 	andeq	r0, r1, r0
    28ac:	00000055 	andeq	r0, r0, r5, asr r0
	...
    28b8:	00002000 	andeq	r2, r0, r0
    28bc:	00002f00 	andeq	r2, r0, r0, lsl #30
    28c0:	50000100 	andpl	r0, r0, r0, lsl #2
    28c4:	0000002f 	andeq	r0, r0, pc, lsr #32
    28c8:	00000040 	andeq	r0, r0, r0, asr #32
    28cc:	00540001 	subseq	r0, r4, r1
	...
    28d8:	20000000 	andcs	r0, r0, r0
    28dc:	2f000000 	svccs	0x00000000
    28e0:	01000000 	mrseq	r0, (UNDEF: 0)
    28e4:	002f5100 	eoreq	r5, pc, r0, lsl #2
    28e8:	00400000 	subeq	r0, r0, r0
    28ec:	00010000 	andeq	r0, r1, r0
    28f0:	00000055 	andeq	r0, r0, r5, asr r0
	...
    28fc:	50000000 	andpl	r0, r0, r0
    2900:	98000003 	stmdals	r0, {r0, r1}
    2904:	01000003 	tsteq	r0, r3
    2908:	03985000 	orrseq	r5, r8, #0, 0
    290c:	039b0000 	orrseq	r0, fp, #0, 0
    2910:	00020000 	andeq	r0, r2, r0
    2914:	039b6891 	orrseq	r6, fp, #9502720	; 0x910000
    2918:	03b00000 	movseq	r0, #0, 0
    291c:	00040000 	andeq	r0, r4, r0
    2920:	9f5001f3 	svcls	0x005001f3
	...
    2940:	00000220 	andeq	r0, r0, r0, lsr #4
    2944:	0000027b 	andeq	r0, r0, fp, ror r2
    2948:	7b500001 	blvc	1402954 <__bss_end__+0x13f765c>
    294c:	84000002 	strhi	r0, [r0], #-2
    2950:	04000002 	streq	r0, [r0], #-2
    2954:	5001f300 	andpl	pc, r1, r0, lsl #6
    2958:	0002849f 	muleq	r2, pc, r4	; <UNPREDICTABLE>
    295c:	00029c00 	andeq	r9, r2, r0, lsl #24
    2960:	50000100 	andpl	r0, r0, r0, lsl #2
    2964:	0000029c 	muleq	r0, ip, r2
    2968:	000002a4 	andeq	r0, r0, r4, lsr #5
    296c:	01f30004 	mvnseq	r0, r4
    2970:	02a49f50 	adceq	r9, r4, #80, 30	; 0x140
    2974:	02a70000 	adceq	r0, r7, #0, 0
    2978:	00010000 	andeq	r0, r1, r0
    297c:	0002a750 	andeq	sl, r2, r0, asr r7
    2980:	0002c800 	andeq	ip, r2, r0, lsl #16
    2984:	f3000400 	vshl.u8	d0, d0, d0
    2988:	c89f5001 	ldmgt	pc, {r0, ip, lr}	; <UNPREDICTABLE>
    298c:	e0000002 	and	r0, r0, r2
    2990:	01000002 	tsteq	r0, r2
    2994:	02e05000 	rsceq	r5, r0, #0, 0
    2998:	02e80000 	rsceq	r0, r8, #0, 0
    299c:	00040000 	andeq	r0, r4, r0
    29a0:	9f5001f3 	svcls	0x005001f3
    29a4:	000002e8 	andeq	r0, r0, r8, ror #5
    29a8:	000002eb 	andeq	r0, r0, fp, ror #5
    29ac:	eb500001 	bl	14029b8 <__bss_end__+0x13f76c0>
    29b0:	38000002 	stmdacc	r0, {r1}
    29b4:	04000003 	streq	r0, [r0], #-3
    29b8:	5001f300 	andpl	pc, r1, r0, lsl #6
    29bc:	0000009f 	muleq	r0, pc, r0	; <UNPREDICTABLE>
	...
    29d8:	00022000 	andeq	r2, r2, r0
    29dc:	00024400 	andeq	r4, r2, r0, lsl #8
    29e0:	51000100 	mrspl	r0, (UNDEF: 16)
    29e4:	00000244 	andeq	r0, r0, r4, asr #4
    29e8:	00000268 	andeq	r0, r0, r8, ror #4
    29ec:	68510001 	ldmdavs	r1, {r0}^
    29f0:	7b000002 	blvc	2a00 <__code_start__-0x5600>
    29f4:	03000002 	movweq	r0, #2
    29f8:	9f017100 	svcls	0x00017100
    29fc:	0000027b 	andeq	r0, r0, fp, ror r2
    2a00:	00000284 	andeq	r0, r0, r4, lsl #5
    2a04:	f3380017 	vqadd.u64	d0, d8, d7
    2a08:	01f35101 	mvnseq	r5, r1, lsl #2
    2a0c:	244b4051 	strbcs	r4, [fp], #-81	; 0xffffffaf
    2a10:	00080c22 	andeq	r0, r8, r2, lsr #24
    2a14:	282d8000 	stmdacs	sp!, {pc}
    2a18:	13160001 	tstne	r6, #1, 0
    2a1c:	0002849f 	muleq	r2, pc, r4	; <UNPREDICTABLE>
    2a20:	00029800 	andeq	r9, r2, r0, lsl #16
    2a24:	51000100 	mrspl	r0, (UNDEF: 16)
    2a28:	00000298 	muleq	r0, r8, r2
    2a2c:	000002a4 	andeq	r0, r0, r4, lsr #5
    2a30:	01f30004 	mvnseq	r0, r4
    2a34:	02a49f51 	adceq	r9, r4, #324	; 0x144
    2a38:	02a70000 	adceq	r0, r7, #0, 0
    2a3c:	00010000 	andeq	r0, r1, r0
    2a40:	0002a751 	andeq	sl, r2, r1, asr r7
    2a44:	0002c800 	andeq	ip, r2, r0, lsl #16
    2a48:	f3000400 	vshl.u8	d0, d0, d0
    2a4c:	c89f5101 	ldmgt	pc, {r0, r8, ip, lr}	; <UNPREDICTABLE>
    2a50:	dc000002 	stcle	0, cr0, [r0], {2}
    2a54:	01000002 	tsteq	r0, r2
    2a58:	02dc5100 	sbcseq	r5, ip, #0
    2a5c:	03380000 	teqeq	r8, #0, 0
    2a60:	00170000 	andseq	r0, r7, r0
    2a64:	5101f338 	tstpl	r1, r8, lsr r3	; <UNPREDICTABLE>
    2a68:	405101f3 	ldrshmi	r0, [r1], #-19	; 0xffffffed
    2a6c:	0c22244b 	cfstrseq	mvf2, [r2], #-300	; 0xfffffed4
    2a70:	80000008 	andhi	r0, r0, r8
    2a74:	0001282d 	andeq	r2, r1, sp, lsr #16
    2a78:	009f1316 	addseq	r1, pc, r6, lsl r3	; <UNPREDICTABLE>
	...
    2a8c:	4c000000 	stcmi	0, cr0, [r0], {-0}
    2a90:	5c000002 	stcpl	0, cr0, [r0], {2}
    2a94:	01000002 	tsteq	r0, r2
    2a98:	025c5200 	subseq	r5, ip, #0, 4
    2a9c:	02640000 	rsbeq	r0, r4, #0, 0
    2aa0:	00050000 	andeq	r0, r5, r0
    2aa4:	00aec003 	adceq	ip, lr, r3
    2aa8:	00026400 	andeq	r6, r2, r0, lsl #8
    2aac:	00027b00 	andeq	r7, r2, r0, lsl #22
    2ab0:	53000100 	movwpl	r0, #256	; 0x100
    2ab4:	000002c8 	andeq	r0, r0, r8, asr #5
    2ab8:	000002d8 	ldrdeq	r0, [r0], -r8
    2abc:	d8520001 	ldmdale	r2, {r0}^
    2ac0:	e3000002 	movw	r0, #2
    2ac4:	05000002 	streq	r0, [r0, #-2]
    2ac8:	aec00300 	cdpge	3, 12, cr0, cr0, cr0, {0}
    2acc:	02e80000 	rsceq	r0, r8, #0, 0
    2ad0:	02eb0000 	rsceq	r0, fp, #0, 0
    2ad4:	00010000 	andeq	r0, r1, r0
    2ad8:	00000053 	andeq	r0, r0, r3, asr r0
    2adc:	00000000 	andeq	r0, r0, r0
    2ae0:	30000400 	andcc	r0, r0, r0, lsl #8
    2ae4:	34000002 	strcc	r0, [r0], #-2
    2ae8:	01000002 	tsteq	r0, r2
    2aec:	00005100 	andeq	r5, r0, r0, lsl #2
    2af0:	00000000 	andeq	r0, r0, r0
    2af4:	00020000 	andeq	r0, r2, r0
    2af8:	0000023c 	andeq	r0, r0, ip, lsr r2
    2afc:	00000244 	andeq	r0, r0, r4, asr #4
    2b00:	9f380002 	svcls	0x00380002
	...
    2b0c:	023c0002 	eorseq	r0, ip, #2, 0
    2b10:	02440000 	subeq	r0, r4, #0, 0
    2b14:	00010000 	andeq	r0, r1, r0
    2b18:	00000051 	andeq	r0, r0, r1, asr r0
    2b1c:	00000000 	andeq	r0, r0, r0
    2b20:	00000100 	andeq	r0, r0, r0, lsl #2
    2b24:	4c000000 	stcmi	0, cr0, [r0], {-0}
    2b28:	64000002 	strvs	r0, [r0], #-2
    2b2c:	01000002 	tsteq	r0, r2
    2b30:	02c85100 	sbceq	r5, r8, #0
    2b34:	02dc0000 	sbcseq	r0, ip, #0, 0
    2b38:	00010000 	andeq	r0, r1, r0
    2b3c:	0002dc51 	andeq	sp, r2, r1, asr ip
    2b40:	0002e800 	andeq	lr, r2, r0, lsl #16
    2b44:	38001700 	stmdacc	r0, {r8, r9, sl, ip}
    2b48:	f35101f3 	vbsl	q8, <illegal reg q8.5>, <illegal reg q9.5>
    2b4c:	4b405101 	blmi	1016f58 <__bss_end__+0x100bc60>
    2b50:	080c2224 	stmdaeq	ip, {r2, r5, r9, sp}
    2b54:	2d800000 	stccs	0, cr0, [r0]
    2b58:	16000128 	strne	r0, [r0], -r8, lsr #2
    2b5c:	00009f13 	andeq	r9, r0, r3, lsl pc
    2b60:	00000000 	andeq	r0, r0, r0
    2b64:	00010000 	andeq	r0, r1, r0
    2b68:	00000000 	andeq	r0, r0, r0
    2b6c:	024c0000 	subeq	r0, ip, #0, 0
    2b70:	025c0000 	subseq	r0, ip, #0, 0
    2b74:	00010000 	andeq	r0, r1, r0
    2b78:	00025c52 	andeq	r5, r2, r2, asr ip
    2b7c:	00026400 	andeq	r6, r2, r0, lsl #8
    2b80:	03000500 	movweq	r0, #1280	; 0x500
    2b84:	0000aec0 	andeq	sl, r0, r0, asr #29
    2b88:	000002c8 	andeq	r0, r0, r8, asr #5
    2b8c:	000002d8 	ldrdeq	r0, [r0], -r8
    2b90:	d8520001 	ldmdale	r2, {r0}^
    2b94:	e3000002 	movw	r0, #2
    2b98:	05000002 	streq	r0, [r0, #-2]
    2b9c:	aec00300 	cdpge	3, 12, cr0, cr0, cr0, {0}
	...
    2ba8:	00040000 	andeq	r0, r4, r0
    2bac:	0000024c 	andeq	r0, r0, ip, asr #4
    2bb0:	00000250 	andeq	r0, r0, r0, asr r2
    2bb4:	00510001 	subseq	r0, r1, r1
    2bb8:	00000000 	andeq	r0, r0, r0
    2bbc:	03000000 	movweq	r0, #0
    2bc0:	00026400 	andeq	r6, r2, r0, lsl #8
    2bc4:	00026800 	andeq	r6, r2, r0, lsl #16
    2bc8:	51000100 	mrspl	r0, (UNDEF: 16)
	...
    2bd4:	02640003 	rsbeq	r0, r4, #3, 0
    2bd8:	02680000 	rsbeq	r0, r8, #0, 0
    2bdc:	00010000 	andeq	r0, r1, r0
    2be0:	00000053 	andeq	r0, r0, r3, asr r0
	...
    2bf0:	0001bc00 	andeq	fp, r1, r0, lsl #24
    2bf4:	0001d300 	andeq	sp, r1, r0, lsl #6
    2bf8:	50000100 	andpl	r0, r0, r0, lsl #2
    2bfc:	000001d3 	ldrdeq	r0, [r0], -r3
    2c00:	000001f0 	strdeq	r0, [r0], -r0	; <UNPREDICTABLE>
    2c04:	f0540001 			; <UNDEFINED> instruction: 0xf0540001
    2c08:	08000001 	stmdaeq	r0, {r0}
    2c0c:	01000002 	tsteq	r0, r2
    2c10:	02085000 	andeq	r5, r8, #0, 0
    2c14:	02200000 	eoreq	r0, r0, #0, 0
    2c18:	00010000 	andeq	r0, r1, r0
    2c1c:	00000054 	andeq	r0, r0, r4, asr r0
	...
    2c28:	0001d800 	andeq	sp, r1, r0, lsl #16
    2c2c:	0001e300 	andeq	lr, r1, r0, lsl #6
    2c30:	50000100 	andpl	r0, r0, r0, lsl #2
    2c34:	000001e3 	andeq	r0, r0, r3, ror #3
    2c38:	000001f0 	strdeq	r0, [r0], -r0	; <UNPREDICTABLE>
    2c3c:	00550001 	subseq	r0, r5, r1
	...
    2c54:	24000000 	strcs	r0, [r0], #-0
    2c58:	38000001 	stmdacc	r0, {r0}
    2c5c:	01000001 	tsteq	r0, r1
    2c60:	01385000 	teqeq	r8, r0
    2c64:	013c0000 	teqeq	ip, r0
    2c68:	00030000 	andeq	r0, r3, r0
    2c6c:	3c9f7970 			; <UNDEFINED> instruction: 0x3c9f7970
    2c70:	60000001 	andvs	r0, r0, r1
    2c74:	01000001 	tsteq	r0, r1
    2c78:	01605300 	cmneq	r0, r0, lsl #6
    2c7c:	01780000 	cmneq	r8, r0
    2c80:	00010000 	andeq	r0, r1, r0
    2c84:	00017850 	andeq	r7, r1, r0, asr r8
    2c88:	00018000 	andeq	r8, r1, r0
    2c8c:	f3000400 	vshl.u8	d0, d0, d0
    2c90:	809f5001 	addshi	r5, pc, r1
    2c94:	90000001 	andls	r0, r0, r1
    2c98:	01000001 	tsteq	r0, r1
    2c9c:	01905300 	orrseq	r5, r0, r0, lsl #6
    2ca0:	019f0000 	orrseq	r0, pc, r0
    2ca4:	00020000 	andeq	r0, r2, r0
    2ca8:	019f6891 			; <UNDEFINED> instruction: 0x019f6891
    2cac:	01bc0000 			; <UNDEFINED> instruction: 0x01bc0000
    2cb0:	00090000 	andeq	r0, r9, r0
    2cb4:	235001f3 	cmpcs	r0, #-1073741764	; 0xc000003c
    2cb8:	1af80907 	bne	ffe050dc <__bss_end__+0xffdf9de4>
    2cbc:	0000009f 	muleq	r0, pc, r0	; <UNPREDICTABLE>
	...
    2cc8:	44000000 	strmi	r0, [r0], #-0
    2ccc:	60000001 	andvs	r0, r0, r1
    2cd0:	01000001 	tsteq	r0, r1
    2cd4:	01805000 	orreq	r5, r0, r0
    2cd8:	019c0000 	orrseq	r0, ip, r0
    2cdc:	00010000 	andeq	r0, r1, r0
    2ce0:	00019c50 	andeq	r9, r1, r0, asr ip
    2ce4:	00019f00 	andeq	r9, r1, r0, lsl #30
    2ce8:	03000500 	movweq	r0, #1280	; 0x500
    2cec:	0000aec0 	andeq	sl, r0, r0, asr #29
	...
    2cf8:	01340003 	teqeq	r4, r3
    2cfc:	013c0000 	teqeq	ip, r0
    2d00:	00020000 	andeq	r0, r2, r0
    2d04:	00009f38 	andeq	r9, r0, r8, lsr pc
    2d08:	00000000 	andeq	r0, r0, r0
    2d0c:	00030000 	andeq	r0, r3, r0
    2d10:	01340000 	teqeq	r4, r0
    2d14:	01380000 	teqeq	r8, r0
    2d18:	00010000 	andeq	r0, r1, r0
    2d1c:	00013850 	andeq	r3, r1, r0, asr r8
    2d20:	00013c00 	andeq	r3, r1, r0, lsl #24
    2d24:	70000300 	andvc	r0, r0, r0, lsl #6
    2d28:	00009f79 	andeq	r9, r0, r9, ror pc
	...
    2d40:	00000030 	andeq	r0, r0, r0, lsr r0
    2d44:	00000060 	andeq	r0, r0, r0, rrx
    2d48:	60500001 	subsvs	r0, r0, r1
    2d4c:	6c000000 	stcvs	0, cr0, [r0], {-0}
    2d50:	05000000 	streq	r0, [r0, #-0]
    2d54:	aec00300 	cdpge	3, 12, cr0, cr0, cr0, {0}
    2d58:	006c0000 	rsbeq	r0, ip, r0
    2d5c:	00840000 	addeq	r0, r4, r0
    2d60:	00010000 	andeq	r0, r1, r0
    2d64:	00008450 	andeq	r8, r0, r0, asr r4
    2d68:	00008c00 	andeq	r8, r0, r0, lsl #24
    2d6c:	f3000400 	vshl.u8	d0, d0, d0
    2d70:	8c9f5001 	ldchi	0, cr5, [pc], {1}
    2d74:	ac000000 	stcge	0, cr0, [r0], {-0}
    2d78:	01000000 	mrseq	r0, (UNDEF: 0)
    2d7c:	00ac5000 	adceq	r5, ip, r0
    2d80:	00af0000 	adceq	r0, pc, r0
    2d84:	00020000 	andeq	r0, r2, r0
    2d88:	00af6891 	umlaleq	r6, pc, r1, r8	; <UNPREDICTABLE>
    2d8c:	00cc0000 	sbceq	r0, ip, r0
    2d90:	00040000 	andeq	r0, r4, r0
    2d94:	9f5001f3 	svcls	0x005001f3
	...
    2da8:	00000030 	andeq	r0, r0, r0, lsr r0
    2dac:	00000080 	andeq	r0, r0, r0, lsl #1
    2db0:	80510001 	subshi	r0, r1, r1
    2db4:	8c000000 	stchi	0, cr0, [r0], {-0}
    2db8:	04000000 	streq	r0, [r0], #-0
    2dbc:	5101f300 	mrspl	pc, SP_irq	; <UNPREDICTABLE>
    2dc0:	00008c9f 	muleq	r0, pc, ip	; <UNPREDICTABLE>
    2dc4:	0000a800 	andeq	sl, r0, r0, lsl #16
    2dc8:	51000100 	mrspl	r0, (UNDEF: 16)
    2dcc:	000000a8 	andeq	r0, r0, r8, lsr #1
    2dd0:	000000cc 	andeq	r0, r0, ip, asr #1
    2dd4:	01f30004 	mvnseq	r0, r4
    2dd8:	00009f51 	andeq	r9, r0, r1, asr pc
    2ddc:	00000000 	andeq	r0, r0, r0
    2de0:	00010000 	andeq	r0, r1, r0
	...
    2df0:	00000038 	andeq	r0, r0, r8, lsr r0
    2df4:	00000060 	andeq	r0, r0, r0, rrx
    2df8:	60500001 	subsvs	r0, r0, r1
    2dfc:	6c000000 	stcvs	0, cr0, [r0], {-0}
    2e00:	05000000 	streq	r0, [r0, #-0]
    2e04:	aec00300 	cdpge	3, 12, cr0, cr0, cr0, {0}
    2e08:	006c0000 	rsbeq	r0, ip, r0
    2e0c:	00840000 	addeq	r0, r4, r0
    2e10:	00010000 	andeq	r0, r1, r0
    2e14:	00008450 	andeq	r8, r0, r0, asr r4
    2e18:	00008c00 	andeq	r8, r0, r0, lsl #24
    2e1c:	f3000400 	vshl.u8	d0, d0, d0
    2e20:	8c9f5001 	ldchi	0, cr5, [pc], {1}
    2e24:	ac000000 	stcge	0, cr0, [r0], {-0}
    2e28:	01000000 	mrseq	r0, (UNDEF: 0)
    2e2c:	00ac5000 	adceq	r5, ip, r0
    2e30:	00af0000 	adceq	r0, pc, r0
    2e34:	00020000 	andeq	r0, r2, r0
    2e38:	00af6891 	umlaleq	r6, pc, r1, r8	; <UNPREDICTABLE>
    2e3c:	00cc0000 	sbceq	r0, ip, r0
    2e40:	00040000 	andeq	r0, r4, r0
    2e44:	9f5001f3 	svcls	0x005001f3
	...
    2e54:	01700000 	cmneq	r0, r0
    2e58:	017c0000 	cmneq	ip, r0
    2e5c:	00010000 	andeq	r0, r1, r0
    2e60:	00017c50 	andeq	r7, r1, r0, asr ip
    2e64:	00018800 	andeq	r8, r1, r0, lsl #16
    2e68:	54000100 	strpl	r0, [r0], #-256	; 0xffffff00
    2e6c:	00000188 	andeq	r0, r0, r8, lsl #3
    2e70:	00000198 	muleq	r0, r8, r1
    2e74:	01f30004 	mvnseq	r0, r4
    2e78:	00009f50 	andeq	r9, r0, r0, asr pc
	...
    2e8c:	00000178 	andeq	r0, r0, r8, ror r1
    2e90:	0000017c 	andeq	r0, r0, ip, ror r1
    2e94:	0070000b 	rsbseq	r0, r0, fp
    2e98:	b4232535 	strtlt	r2, [r3], #-1333	; 0xfffffacb
    2e9c:	02818080 	addeq	r8, r1, #128, 0	; 0x80
    2ea0:	00017c9f 	muleq	r1, pc, ip	; <UNPREDICTABLE>
    2ea4:	00018000 	andeq	r8, r1, r0
    2ea8:	74000b00 	strvc	r0, [r0], #-2816	; 0xfffff500
    2eac:	23253500 			; <UNDEFINED> instruction: 0x23253500
    2eb0:	818080b4 	strhhi	r8, [r0, r4]
    2eb4:	01809f02 	orreq	r9, r0, r2, lsl #30
    2eb8:	01830000 	orreq	r0, r3, r0
    2ebc:	00010000 	andeq	r0, r1, r0
    2ec0:	00018350 	andeq	r8, r1, r0, asr r3
    2ec4:	00018800 	andeq	r8, r1, r0, lsl #16
    2ec8:	74000b00 	strvc	r0, [r0], #-2816	; 0xfffff500
    2ecc:	23253500 			; <UNDEFINED> instruction: 0x23253500
    2ed0:	818080b4 	strhhi	r8, [r0, r4]
    2ed4:	01889f02 	orreq	r9, r8, r2, lsl #30
    2ed8:	01980000 	orrseq	r0, r8, r0
    2edc:	000c0000 	andeq	r0, ip, r0
    2ee0:	355001f3 	ldrbcc	r0, [r0, #-499]	; 0xfffffe0d
    2ee4:	80b42325 	adcshi	r2, r4, r5, lsr #6
    2ee8:	9f028180 	svcls	0x00028180
	...
    2ef4:	00000001 	andeq	r0, r0, r1
    2ef8:	01780000 	cmneq	r8, r0
    2efc:	017c0000 	cmneq	ip, r0
    2f00:	00050000 	andeq	r0, r5, r0
    2f04:	1a4f0070 	bne	13c30cc <__bss_end__+0x13b7dd4>
    2f08:	00017c9f 	muleq	r1, pc, ip	; <UNPREDICTABLE>
    2f0c:	00018800 	andeq	r8, r1, r0, lsl #16
    2f10:	74000500 	strvc	r0, [r0], #-1280	; 0xfffffb00
    2f14:	9f1a4f00 	svcls	0x001a4f00
    2f18:	00000188 	andeq	r0, r0, r8, lsl #3
    2f1c:	00000198 	muleq	r0, r8, r1
    2f20:	00540001 	subseq	r0, r4, r1
	...
    2f34:	40000000 	andmi	r0, r0, r0
    2f38:	54000001 	strpl	r0, [r0], #-1
    2f3c:	01000001 	tsteq	r0, r1
    2f40:	01545000 	cmpeq	r4, r0
    2f44:	01580000 	cmpeq	r8, r0
    2f48:	00010000 	andeq	r0, r1, r0
    2f4c:	00015851 	andeq	r5, r1, r1, asr r8
    2f50:	00015c00 	andeq	r5, r1, r0, lsl #24
    2f54:	f3000400 	vshl.u8	d0, d0, d0
    2f58:	5c9f5001 	ldcpl	0, cr5, [pc], {1}
    2f5c:	60000001 	andvs	r0, r0, r1
    2f60:	01000001 	tsteq	r0, r1
    2f64:	01605000 	cmneq	r0, r0
    2f68:	01640000 	cmneq	r4, r0
    2f6c:	00010000 	andeq	r0, r1, r0
    2f70:	00016451 	andeq	r6, r1, r1, asr r4
    2f74:	00017000 	andeq	r7, r1, r0
    2f78:	f3000400 	vshl.u8	d0, d0, d0
    2f7c:	009f5001 	addseq	r5, pc, r1
	...
    2f88:	40000000 	andmi	r0, r0, r0
    2f8c:	4c000001 	stcmi	0, cr0, [r0], {1}
    2f90:	01000001 	tsteq	r0, r1
    2f94:	014c5100 	mrseq	r5, (UNDEF: 92)
    2f98:	01700000 	cmneq	r0, r0
    2f9c:	00040000 	andeq	r0, r4, r0
    2fa0:	9f5101f3 	svcls	0x005101f3
	...
    2fac:	00000001 	andeq	r0, r0, r1
    2fb0:	01500000 	cmpeq	r0, r0
    2fb4:	01540000 	cmpeq	r4, r0
    2fb8:	00010000 	andeq	r0, r1, r0
    2fbc:	00015450 	andeq	r5, r1, r0, asr r4
    2fc0:	00015800 	andeq	r5, r1, r0, lsl #16
    2fc4:	51000100 	mrspl	r0, (UNDEF: 16)
    2fc8:	00000158 	andeq	r0, r0, r8, asr r1
    2fcc:	0000015c 	andeq	r0, r0, ip, asr r1
    2fd0:	01f30004 	mvnseq	r0, r4
    2fd4:	00009f50 	andeq	r9, r0, r0, asr pc
    2fd8:	00000000 	andeq	r0, r0, r0
    2fdc:	00020000 	andeq	r0, r2, r0
    2fe0:	00000000 	andeq	r0, r0, r0
    2fe4:	0000015c 	andeq	r0, r0, ip, asr r1
    2fe8:	00000160 	andeq	r0, r0, r0, ror #2
    2fec:	60500001 	subsvs	r0, r0, r1
    2ff0:	64000001 	strvs	r0, [r0], #-1
    2ff4:	01000001 	tsteq	r0, r1
    2ff8:	01645100 	cmneq	r4, r0, lsl #2
    2ffc:	01700000 	cmneq	r0, r0
    3000:	00040000 	andeq	r0, r4, r0
    3004:	9f5001f3 	svcls	0x005001f3
	...
    3014:	00e80000 	rsceq	r0, r8, r0
    3018:	01080000 	mrseq	r0, (UNDEF: 8)
    301c:	00010000 	andeq	r0, r1, r0
    3020:	00010850 	andeq	r0, r1, r0, asr r8
    3024:	00012800 	andeq	r2, r1, r0, lsl #16
    3028:	54000100 	strpl	r0, [r0], #-256	; 0xffffff00
    302c:	00000128 	andeq	r0, r0, r8, lsr #2
    3030:	00000140 	andeq	r0, r0, r0, asr #2
    3034:	01f30004 	mvnseq	r0, r4
    3038:	00009f50 	andeq	r9, r0, r0, asr pc
    303c:	00000000 	andeq	r0, r0, r0
    3040:	00020000 	andeq	r0, r2, r0
    3044:	00000000 	andeq	r0, r0, r0
    3048:	000000e8 	andeq	r0, r0, r8, ror #1
    304c:	00000108 	andeq	r0, r0, r8, lsl #2
    3050:	08500001 	ldmdaeq	r0, {r0}^
    3054:	28000001 	stmdacs	r0, {r0}
    3058:	01000001 	tsteq	r0, r1
    305c:	01285400 			; <UNDEFINED> instruction: 0x01285400
    3060:	01400000 	mrseq	r0, (UNDEF: 64)
    3064:	00040000 	andeq	r0, r4, r0
    3068:	9f5001f3 	svcls	0x005001f3
	...
    3078:	00f00000 	rscseq	r0, r0, r0
    307c:	01080000 	mrseq	r0, (UNDEF: 8)
    3080:	00010000 	andeq	r0, r1, r0
    3084:	00010850 	andeq	r0, r1, r0, asr r8
    3088:	00012800 	andeq	r2, r1, r0, lsl #16
    308c:	54000100 	strpl	r0, [r0], #-256	; 0xffffff00
    3090:	00000128 	andeq	r0, r0, r8, lsr #2
    3094:	00000140 	andeq	r0, r0, r0, asr #2
    3098:	01f30004 	mvnseq	r0, r4
    309c:	00009f50 	andeq	r9, r0, r0, asr pc
    30a0:	00000000 	andeq	r0, r0, r0
    30a4:	00030000 	andeq	r0, r3, r0
    30a8:	00000000 	andeq	r0, r0, r0
    30ac:	000000f0 	strdeq	r0, [r0], -r0	; <UNPREDICTABLE>
    30b0:	00000108 	andeq	r0, r0, r8, lsl #2
    30b4:	00700007 	rsbseq	r0, r0, r7
    30b8:	1e331d3a 	mrcne	13, 1, r1, cr3, cr10, {1}
    30bc:	0001089f 	muleq	r1, pc, r8	; <UNPREDICTABLE>
    30c0:	00012800 	andeq	r2, r1, r0, lsl #16
    30c4:	74000700 	strvc	r0, [r0], #-1792	; 0xfffff900
    30c8:	331d3a00 	tstcc	sp, #0, 20
    30cc:	01289f1e 			; <UNDEFINED> instruction: 0x01289f1e
    30d0:	01400000 	mrseq	r0, (UNDEF: 64)
    30d4:	00080000 	andeq	r0, r8, r0
    30d8:	3a5001f3 	bcc	14038ac <__bss_end__+0x13f85b4>
    30dc:	9f1e331d 	svcls	0x001e331d
	...
    30ec:	01100000 	tsteq	r0, r0
    30f0:	01380000 	teqeq	r8, r0
    30f4:	00010000 	andeq	r0, r1, r0
    30f8:	00013856 	andeq	r3, r1, r6, asr r8
    30fc:	00013b00 	andeq	r3, r1, r0, lsl #22
    3100:	50000100 	andpl	r0, r0, r0, lsl #2
    3104:	0000013b 	andeq	r0, r0, fp, lsr r1
    3108:	00000140 	andeq	r0, r0, r0, asr #2
    310c:	01f30026 	mvnseq	r0, r6, lsr #32
    3110:	f72cf750 			; <UNDEFINED> instruction: 0xf72cf750
    3114:	0825f425 	stmdaeq	r5!, {r0, r2, r5, sl, ip, sp, lr, pc}
    3118:	cccccccd 	stclgt	12, cr12, [ip], {205}	; 0xcd
    311c:	00000000 	andeq	r0, r0, r0
    3120:	f720081e 			; <UNDEFINED> instruction: 0xf720081e
    3124:	2cf72525 	cfldr64cs	mvdx2, [r7], #148	; 0x94
    3128:	253300f7 	ldrcs	r0, [r3, #-247]!	; 0xffffff09
    312c:	a0808023 	addge	r8, r0, r3, lsr #32
    3130:	9f243240 	svcls	0x00243240
	...
    313c:	00010100 	andeq	r0, r1, r0, lsl #2
    3140:	00000000 	andeq	r0, r0, r0
    3144:	00000120 	andeq	r0, r0, r0, lsr #2
    3148:	00000120 	andeq	r0, r0, r0, lsr #2
    314c:	20500001 	subscs	r0, r0, r1
    3150:	28000001 	stmdacs	r0, {r0}
    3154:	0d000001 	stceq	0, cr0, [r0, #-4]
    3158:	00743700 	rsbseq	r3, r4, r0, lsl #14
    315c:	1e331d3a 	mrcne	13, 1, r1, cr3, cr10, {1}
    3160:	00702024 	rsbseq	r2, r0, r4, lsr #32
    3164:	01289f1a 			; <UNDEFINED> instruction: 0x01289f1a
    3168:	01300000 	teqeq	r0, r0
    316c:	000e0000 	andeq	r0, lr, r0
    3170:	5001f337 	andpl	pc, r1, r7, lsr r3	; <UNPREDICTABLE>
    3174:	1e331d3a 	mrcne	13, 1, r1, cr3, cr10, {1}
    3178:	00702024 	rsbseq	r2, r0, r4, lsr #32
    317c:	01309f1a 	teqeq	r0, sl, lsl pc
    3180:	013b0000 	teqeq	fp, r0
    3184:	000e0000 	andeq	r0, lr, r0
    3188:	5001f337 	andpl	pc, r1, r7, lsr r3	; <UNPREDICTABLE>
    318c:	1e331d3a 	mrcne	13, 1, r1, cr3, cr10, {1}
    3190:	00732024 	rsbseq	r2, r3, r4, lsr #32
    3194:	00009f1a 	andeq	r9, r0, sl, lsl pc
	...
    31a0:	00600000 	rsbeq	r0, r0, r0
    31a4:	00900000 	addseq	r0, r0, r0
    31a8:	00010000 	andeq	r0, r1, r0
    31ac:	00009050 	andeq	r9, r0, r0, asr r0
    31b0:	0000b800 	andeq	fp, r0, r0, lsl #16
    31b4:	f3000400 	vshl.u8	d0, d0, d0
    31b8:	009f5001 	addseq	r5, pc, r1
    31bc:	00000000 	andeq	r0, r0, r0
    31c0:	02000000 	andeq	r0, r0, #0, 0
    31c4:	60000000 	andvs	r0, r0, r0
    31c8:	90000000 	andls	r0, r0, r0
    31cc:	01000000 	mrseq	r0, (UNDEF: 0)
    31d0:	00905000 	addseq	r5, r0, r0
    31d4:	00b80000 	adcseq	r0, r8, r0
    31d8:	00040000 	andeq	r0, r4, r0
    31dc:	9f5001f3 	svcls	0x005001f3
	...
    31ec:	00000068 	andeq	r0, r0, r8, rrx
    31f0:	00000090 	muleq	r0, r0, r0
    31f4:	90500001 	subsls	r0, r0, r1
    31f8:	b8000000 	stmdalt	r0, {}	; <UNPREDICTABLE>
    31fc:	04000000 	streq	r0, [r0], #-0
    3200:	5001f300 	andpl	pc, r1, r0, lsl #6
    3204:	0000009f 	muleq	r0, pc, r0	; <UNPREDICTABLE>
	...
    3210:	0000a000 	andeq	sl, r0, r0
    3214:	0000b000 	andeq	fp, r0, r0
    3218:	54000100 	strpl	r0, [r0], #-256	; 0xffffff00
    321c:	000000b0 	strheq	r0, [r0], -r0	; <UNPREDICTABLE>
    3220:	000000b8 	strheq	r0, [r0], -r8
    3224:	01f30029 	mvnseq	r0, r9, lsr #32
    3228:	5001f350 	andpl	pc, r1, r0, asr r3	; <UNPREDICTABLE>
    322c:	25f72cf7 	ldrbcs	r2, [r7, #3319]!	; 0xcf7
    3230:	cd0825f4 	cfstr32gt	mvfx2, [r8, #-976]	; 0xfffffc30
    3234:	00cccccc 	sbceq	ip, ip, ip, asr #25
    3238:	1e000000 	cdpne	0, 0, cr0, cr0, cr0, {0}
    323c:	25f72008 	ldrbcs	r2, [r7, #8]!
    3240:	f72cf725 			; <UNDEFINED> instruction: 0xf72cf725
    3244:	35253300 	strcc	r3, [r5, #-768]!	; 0xfffffd00
    3248:	1c24311e 	stfnes	f3, [r4], #-120	; 0xffffff88
    324c:	009f1e33 	addseq	r1, pc, r3, lsr lr	; <UNPREDICTABLE>
    3250:	00000000 	andeq	r0, r0, r0
    3254:	01000000 	mrseq	r0, (UNDEF: 0)
    3258:	00000000 	andeq	r0, r0, r0
    325c:	0000a000 	andeq	sl, r0, r0
    3260:	0000b000 	andeq	fp, r0, r0
    3264:	55000100 	strpl	r0, [r0, #-256]	; 0xffffff00
    3268:	000000b0 	strheq	r0, [r0], -r0	; <UNPREDICTABLE>
    326c:	000000b3 	strheq	r0, [r0], -r3
    3270:	b3500001 	cmplt	r0, #1, 0
    3274:	b8000000 	stmdalt	r0, {}	; <UNPREDICTABLE>
    3278:	26000000 	strcs	r0, [r0], -r0
    327c:	5001f300 	andpl	pc, r1, r0, lsl #6
    3280:	25f72cf7 	ldrbcs	r2, [r7, #3319]!	; 0xcf7
    3284:	cd0825f4 	cfstr32gt	mvfx2, [r8, #-976]	; 0xfffffc30
    3288:	00cccccc 	sbceq	ip, ip, ip, asr #25
    328c:	1e000000 	cdpne	0, 0, cr0, cr0, cr0, {0}
    3290:	25f72008 	ldrbcs	r2, [r7, #8]!
    3294:	f72cf725 			; <UNDEFINED> instruction: 0xf72cf725
    3298:	23253300 			; <UNDEFINED> instruction: 0x23253300
    329c:	40a08080 	adcmi	r8, r0, r0, lsl #1
    32a0:	009f2432 	addseq	r2, pc, r2, lsr r4	; <UNPREDICTABLE>
    32a4:	00000000 	andeq	r0, r0, r0
    32a8:	02000000 	andeq	r0, r0, #0, 0
    32ac:	01010000 	mrseq	r0, (UNDEF: 1)
    32b0:	a0000000 	andge	r0, r0, r0
    32b4:	a4000000 	strge	r0, [r0], #-0
    32b8:	01000000 	mrseq	r0, (UNDEF: 0)
    32bc:	00a45000 	adceq	r5, r4, r0
    32c0:	00a40000 	adceq	r0, r4, r0
    32c4:	00010000 	andeq	r0, r1, r0
    32c8:	0000a453 	andeq	sl, r0, r3, asr r4
    32cc:	0000a800 	andeq	sl, r0, r0, lsl #16
    32d0:	31000800 	tstcc	r0, r0, lsl #16
    32d4:	73240074 			; <UNDEFINED> instruction: 0x73240074
    32d8:	a89f2100 	ldmge	pc, {r8, sp}	; <UNPREDICTABLE>
    32dc:	b3000000 	movwlt	r0, #0
    32e0:	01000000 	mrseq	r0, (UNDEF: 0)
    32e4:	00005100 	andeq	r5, r0, r0, lsl #2
	...
    32f4:	003c0000 	eorseq	r0, ip, r0
    32f8:	00010000 	andeq	r0, r1, r0
    32fc:	00003c50 	andeq	r3, r0, r0, asr ip
    3300:	00006000 	andeq	r6, r0, r0
    3304:	f3000400 	vshl.u8	d0, d0, d0
    3308:	009f5001 	addseq	r5, pc, r1
	...
    3318:	3f000000 	svccc	0x00000000
    331c:	01000000 	mrseq	r0, (UNDEF: 0)
    3320:	003f5100 	eorseq	r5, pc, r0, lsl #2
    3324:	00600000 	rsbeq	r0, r0, r0
    3328:	00040000 	andeq	r0, r4, r0
    332c:	9f5101f3 	svcls	0x005101f3
	...
    333c:	00000008 	andeq	r0, r0, r8
    3340:	0000003f 	andeq	r0, r0, pc, lsr r0
    3344:	3f510001 	svccc	0x00510001
    3348:	60000000 	andvs	r0, r0, r0
    334c:	04000000 	streq	r0, [r0], #-0
    3350:	5101f300 	mrspl	pc, SP_irq	; <UNPREDICTABLE>
    3354:	0000009f 	muleq	r0, pc, r0	; <UNPREDICTABLE>
	...
    3360:	00000800 	andeq	r0, r0, r0, lsl #16
    3364:	00003c00 	andeq	r3, r0, r0, lsl #24
    3368:	50000100 	andpl	r0, r0, r0, lsl #2
    336c:	0000003c 	andeq	r0, r0, ip, lsr r0
    3370:	00000060 	andeq	r0, r0, r0, rrx
    3374:	01f30004 	mvnseq	r0, r4
    3378:	00009f50 	andeq	r9, r0, r0, asr pc
	...
    3384:	00480000 	subeq	r0, r8, r0
    3388:	00580000 	subseq	r0, r8, r0
    338c:	00010000 	andeq	r0, r1, r0
    3390:	00005854 	andeq	r5, r0, r4, asr r8
    3394:	00006000 	andeq	r6, r0, r0
    3398:	f3002900 	vmls.i8	d2, d0, d0
    339c:	01f35001 	mvnseq	r5, r1
    33a0:	f72cf750 			; <UNDEFINED> instruction: 0xf72cf750
    33a4:	0825f425 	stmdaeq	r5!, {r0, r2, r5, sl, ip, sp, lr, pc}
    33a8:	cccccccd 	stclgt	12, cr12, [ip], {205}	; 0xcd
    33ac:	00000000 	andeq	r0, r0, r0
    33b0:	f720081e 			; <UNDEFINED> instruction: 0xf720081e
    33b4:	2cf72525 	cfldr64cs	mvdx2, [r7], #148	; 0x94
    33b8:	253300f7 	ldrcs	r0, [r3, #-247]!	; 0xffffff09
    33bc:	24311e35 	ldrtcs	r1, [r1], #-3637	; 0xfffff1cb
    33c0:	9f1e331c 	svcls	0x001e331c
	...
    33cc:	00000001 	andeq	r0, r0, r1
    33d0:	00480000 	subeq	r0, r8, r0
    33d4:	00580000 	subseq	r0, r8, r0
    33d8:	00010000 	andeq	r0, r1, r0
    33dc:	00005856 	andeq	r5, r0, r6, asr r8
    33e0:	00005b00 	andeq	r5, r0, r0, lsl #22
    33e4:	50000100 	andpl	r0, r0, r0, lsl #2
    33e8:	0000005b 	andeq	r0, r0, fp, asr r0
    33ec:	00000060 	andeq	r0, r0, r0, rrx
    33f0:	01f30026 	mvnseq	r0, r6, lsr #32
    33f4:	f72cf750 			; <UNDEFINED> instruction: 0xf72cf750
    33f8:	0825f425 	stmdaeq	r5!, {r0, r2, r5, sl, ip, sp, lr, pc}
    33fc:	cccccccd 	stclgt	12, cr12, [ip], {205}	; 0xcd
    3400:	00000000 	andeq	r0, r0, r0
    3404:	f720081e 			; <UNDEFINED> instruction: 0xf720081e
    3408:	2cf72525 	cfldr64cs	mvdx2, [r7], #148	; 0x94
    340c:	253300f7 	ldrcs	r0, [r3, #-247]!	; 0xffffff09
    3410:	a0808023 	addge	r8, r0, r3, lsr #32
    3414:	9f243240 	svcls	0x00243240
	...
    3420:	01000002 	tsteq	r0, r2
    3424:	00000001 	andeq	r0, r0, r1
    3428:	00000048 	andeq	r0, r0, r8, asr #32
    342c:	0000004c 	andeq	r0, r0, ip, asr #32
    3430:	4c500001 	mrrcmi	0, 0, r0, r0, cr1	; <UNPREDICTABLE>
    3434:	4c000000 	stcmi	0, cr0, [r0], {-0}
    3438:	01000000 	mrseq	r0, (UNDEF: 0)
    343c:	004c5100 	subeq	r5, ip, r0, lsl #2
    3440:	00500000 	subseq	r0, r0, r0
    3444:	000c0000 	andeq	r0, ip, r0
    3448:	ff080075 			; <UNDEFINED> instruction: 0xff080075
    344c:	2400741a 	strcs	r7, [r0], #-1050	; 0xfffffbe6
    3450:	9f210071 	svcls	0x00210071
    3454:	00000050 	andeq	r0, r0, r0, asr r0
    3458:	00000054 	andeq	r0, r0, r4, asr r0
    345c:	74370012 	ldrtvc	r0, [r7], #-18	; 0xffffffee
    3460:	70202400 	eorvc	r2, r0, r0, lsl #8
    3464:	00751a00 	rsbseq	r1, r5, r0, lsl #20
    3468:	741aff08 	ldrvc	pc, [sl], #-3848	; 0xfffff0f8
    346c:	9f212400 	svcls	0x00212400
	...
    347c:	00b80000 	adcseq	r0, r8, r0
    3480:	00c40000 	sbceq	r0, r4, r0
    3484:	00010000 	andeq	r0, r1, r0
    3488:	0000c450 	andeq	ip, r0, r0, asr r4
    348c:	0000cb00 	andeq	ip, r0, r0, lsl #22
    3490:	53000100 	movwpl	r0, #256	; 0x100
    3494:	000000cb 	andeq	r0, r0, fp, asr #1
    3498:	000000d0 	ldrdeq	r0, [r0], -r0	; <UNPREDICTABLE>
    349c:	01f30004 	mvnseq	r0, r4
    34a0:	00009f50 	andeq	r9, r0, r0, asr pc
	...
    34b0:	000000d0 	ldrdeq	r0, [r0], -r0	; <UNPREDICTABLE>
    34b4:	000000dc 	ldrdeq	r0, [r0], -ip
    34b8:	dc500001 	mrrcle	0, 0, r0, r0, cr1	; <UNPREDICTABLE>
    34bc:	e3000000 	movw	r0, #0
    34c0:	01000000 	mrseq	r0, (UNDEF: 0)
    34c4:	00e35300 	rsceq	r5, r3, r0, lsl #6
    34c8:	00e80000 	rsceq	r0, r8, r0
    34cc:	00040000 	andeq	r0, r4, r0
    34d0:	9f5001f3 	svcls	0x005001f3
	...
    34e4:	0000000b 	andeq	r0, r0, fp
    34e8:	0b500001 	bleq	14034f4 <__bss_end__+0x13f81fc>
    34ec:	14000000 	strne	r0, [r0], #-0
    34f0:	01000000 	mrseq	r0, (UNDEF: 0)
    34f4:	00005400 	andeq	r5, r0, r0, lsl #8
	...
    3504:	00180000 	andseq	r0, r8, r0
    3508:	00010000 	andeq	r0, r1, r0
    350c:	00001851 	andeq	r1, r0, r1, asr r8
    3510:	00002c00 	andeq	r2, r0, r0, lsl #24
    3514:	f3000400 	vshl.u8	d0, d0, d0
    3518:	009f5101 	addseq	r5, pc, r1, lsl #2
    351c:	00000000 	andeq	r0, r0, r0
    3520:	02000000 	andeq	r0, r0, #0, 0
	...
    352c:	00000101 	andeq	r0, r0, r1, lsl #2
    3530:	00000000 	andeq	r0, r0, r0
    3534:	00000400 	andeq	r0, r0, r0, lsl #8
    3538:	50000100 	andpl	r0, r0, r0, lsl #2
    353c:	00000004 	andeq	r0, r0, r4
    3540:	00000008 	andeq	r0, r0, r8
    3544:	08520001 	ldmdaeq	r2, {r0}^
    3548:	0c000000 	stceq	0, cr0, [r0], {-0}
    354c:	03000000 	movweq	r0, #0
    3550:	9f017200 	svcls	0x00017200
    3554:	0000000c 	andeq	r0, r0, ip
    3558:	00000018 	andeq	r0, r0, r8, lsl r0
    355c:	18520001 	ldmdane	r2, {r0}^
    3560:	1c000000 	stcne	0, cr0, [r0], {-0}
    3564:	01000000 	mrseq	r0, (UNDEF: 0)
    3568:	001c5300 	andseq	r5, ip, r0, lsl #6
    356c:	00240000 	eoreq	r0, r4, r0
    3570:	00030000 	andeq	r0, r3, r0
    3574:	249f0173 	ldrcs	r0, [pc], #371	; 357c <__code_start__-0x4a84>
    3578:	2c000000 	stccs	0, cr0, [r0], {-0}
    357c:	01000000 	mrseq	r0, (UNDEF: 0)
    3580:	00005300 	andeq	r5, r0, r0, lsl #6
    3584:	00000000 	andeq	r0, r0, r0
    3588:	02030000 	andeq	r0, r3, #0, 0
    358c:	00000002 	andeq	r0, r0, r2
    3590:	00000000 	andeq	r0, r0, r0
    3594:	00000018 	andeq	r0, r0, r8, lsl r0
    3598:	18510001 	ldmdane	r1, {r0}^
    359c:	1c000000 	stcne	0, cr0, [r0], {-0}
    35a0:	03000000 	movweq	r0, #0
    35a4:	9f017100 	svcls	0x00017100
    35a8:	0000001c 	andeq	r0, r0, ip, lsl r0
    35ac:	0000002c 	andeq	r0, r0, ip, lsr #32
    35b0:	00510001 	subseq	r0, r1, r1
	...
    35c0:	00000800 	andeq	r0, r0, r0, lsl #16
    35c4:	00000c00 	andeq	r0, r0, r0, lsl #24
    35c8:	72000200 	andvc	r0, r0, #0, 4
    35cc:	00000c00 	andeq	r0, r0, r0, lsl #24
    35d0:	00001800 	andeq	r1, r0, r0, lsl #16
    35d4:	73000200 	movwvc	r0, #512	; 0x200
    35d8:	00001c00 	andeq	r1, r0, r0, lsl #24
    35dc:	00002c00 	andeq	r2, r0, r0, lsl #24
    35e0:	52000100 	andpl	r0, r0, #0
	...
    35fc:	00000014 	andeq	r0, r0, r4, lsl r0
    3600:	14500001 	ldrbne	r0, [r0], #-1
    3604:	18000000 	stmdane	r0, {}	; <UNPREDICTABLE>
    3608:	03000000 	movweq	r0, #0
    360c:	9f017000 	svcls	0x00017000
    3610:	00000018 	andeq	r0, r0, r8, lsl r0
    3614:	00000020 	andeq	r0, r0, r0, lsr #32
    3618:	24500001 	ldrbcs	r0, [r0], #-1
    361c:	28000000 	stmdacs	r0, {}	; <UNPREDICTABLE>
    3620:	01000000 	mrseq	r0, (UNDEF: 0)
    3624:	00285000 	eoreq	r5, r8, r0
    3628:	00300000 	eorseq	r0, r0, r0
    362c:	00030000 	andeq	r0, r3, r0
    3630:	389f0170 	ldmcc	pc, {r4, r5, r6, r8}	; <UNPREDICTABLE>
    3634:	40000000 	andmi	r0, r0, r0
    3638:	01000000 	mrseq	r0, (UNDEF: 0)
    363c:	00005000 	andeq	r5, r0, r0
	...
    3650:	00000024 	andeq	r0, r0, r4, lsr #32
    3654:	24510001 	ldrbcs	r0, [r1], #-1
    3658:	28000000 	stmdacs	r0, {}	; <UNPREDICTABLE>
    365c:	01000000 	mrseq	r0, (UNDEF: 0)
    3660:	00285c00 	eoreq	r5, r8, r0, lsl #24
    3664:	00440000 	subeq	r0, r4, r0
    3668:	00010000 	andeq	r0, r1, r0
    366c:	00000051 	andeq	r0, r0, r1, asr r0
    3670:	00000000 	andeq	r0, r0, r0
    3674:	02020000 	andeq	r0, r2, #0, 0
    3678:	00000000 	andeq	r0, r0, r0
    367c:	04000000 	streq	r0, [r0], #-0
    3680:	01000000 	mrseq	r0, (UNDEF: 0)
    3684:	00045100 	andeq	r5, r4, r0, lsl #2
    3688:	00080000 	andeq	r0, r8, r0
    368c:	00030000 	andeq	r0, r3, r0
    3690:	089f0171 	ldmeq	pc, {r0, r4, r5, r6, r8}	; <UNPREDICTABLE>
    3694:	18000000 	stmdane	r0, {}	; <UNPREDICTABLE>
    3698:	01000000 	mrseq	r0, (UNDEF: 0)
    369c:	00005100 	andeq	r5, r0, r0, lsl #2
    36a0:	00000000 	andeq	r0, r0, r0
    36a4:	00020000 	andeq	r0, r2, r0
    36a8:	00000000 	andeq	r0, r0, r0
    36ac:	00000004 	andeq	r0, r0, r4
    36b0:	00500001 	subseq	r0, r0, r1
	...
    36c0:	08000000 	stmdaeq	r0, {}	; <UNPREDICTABLE>
    36c4:	01000000 	mrseq	r0, (UNDEF: 0)
    36c8:	00085000 	andeq	r5, r8, r0
    36cc:	00300000 	eorseq	r0, r0, r0
    36d0:	00040000 	andeq	r0, r4, r0
    36d4:	9f5001f3 	svcls	0x005001f3
	...
    36e8:	00000008 	andeq	r0, r0, r8
    36ec:	08510001 	ldmdaeq	r1, {r0}^
    36f0:	30000000 	andcc	r0, r0, r0
    36f4:	04000000 	streq	r0, [r0], #-0
    36f8:	5101f300 	mrspl	pc, SP_irq	; <UNPREDICTABLE>
    36fc:	0000009f 	muleq	r0, pc, r0	; <UNPREDICTABLE>
	...
    3708:	01000000 	mrseq	r0, (UNDEF: 0)
    370c:	00000202 	andeq	r0, r0, r2, lsl #4
    3710:	04000000 	streq	r0, [r0], #-0
    3714:	01000000 	mrseq	r0, (UNDEF: 0)
    3718:	00045200 	andeq	r5, r4, r0, lsl #4
    371c:	00080000 	andeq	r0, r8, r0
    3720:	00040000 	andeq	r0, r4, r0
    3724:	9f5201f3 	svcls	0x005201f3
    3728:	00000008 	andeq	r0, r0, r8
    372c:	00000018 	andeq	r0, r0, r8, lsl r0
    3730:	01f30006 	mvnseq	r0, r6
    3734:	9f1c3152 	svcls	0x001c3152
    3738:	00000018 	andeq	r0, r0, r8, lsl r0
    373c:	00000018 	andeq	r0, r0, r8, lsl r0
    3740:	01f30004 	mvnseq	r0, r4
    3744:	00189f52 	andseq	r9, r8, r2, asr pc
    3748:	00300000 	eorseq	r0, r0, r0
    374c:	00060000 	andeq	r0, r6, r0
    3750:	315201f3 	ldrshcc	r0, [r2, #-19]	; 0xffffffed
    3754:	00009f1c 	andeq	r9, r0, ip, lsl pc
    3758:	00000000 	andeq	r0, r0, r0
    375c:	00020000 	andeq	r0, r2, r0
    3760:	00010000 	andeq	r0, r1, r0
    3764:	00000000 	andeq	r0, r0, r0
    3768:	000c0000 	andeq	r0, ip, r0
    376c:	00010000 	andeq	r0, r1, r0
    3770:	00000c50 	andeq	r0, r0, r0, asr ip
    3774:	00001800 	andeq	r1, r0, r0, lsl #16
    3778:	70000300 	andvc	r0, r0, r0, lsl #6
    377c:	00189f7f 	andseq	r9, r8, pc, ror pc
    3780:	00240000 	eoreq	r0, r4, r0
    3784:	00010000 	andeq	r0, r1, r0
    3788:	00002850 	andeq	r2, r0, r0, asr r8
    378c:	00002c00 	andeq	r2, r0, r0, lsl #24
    3790:	70000300 	andvc	r0, r0, r0, lsl #6
    3794:	00009f7f 	andeq	r9, r0, pc, ror pc
    3798:	00000000 	andeq	r0, r0, r0
    379c:	00020000 	andeq	r0, r2, r0
	...
    37a8:	0000000c 	andeq	r0, r0, ip
    37ac:	0c510001 	mrrceq	0, 0, r0, r1, cr1
    37b0:	10000000 	andne	r0, r0, r0
    37b4:	03000000 	movweq	r0, #0
    37b8:	9f017100 	svcls	0x00017100
    37bc:	00000010 	andeq	r0, r0, r0, lsl r0
    37c0:	00000030 	andeq	r0, r0, r0, lsr r0
    37c4:	00510001 	subseq	r0, r1, r1
    37c8:	00000000 	andeq	r0, r0, r0
    37cc:	Address 0x00000000000037cc is out of bounds.


Disassembly of section .debug_aranges:

00000000 <.debug_aranges>:
   0:	0000001c 	andeq	r0, r0, ip, lsl r0
   4:	00000002 	andeq	r0, r0, r2
   8:	00040000 	andeq	r0, r4, r0
   c:	00000000 	andeq	r0, r0, r0
  10:	00008038 	andeq	r8, r0, r8, lsr r0
  14:	000001b4 			; <UNDEFINED> instruction: 0x000001b4
	...
  20:	0000001c 	andeq	r0, r0, ip, lsl r0
  24:	04b70002 	ldrteq	r0, [r7], #2
  28:	00040000 	andeq	r0, r4, r0
  2c:	00000000 	andeq	r0, r0, r0
  30:	000081ec 	andeq	r8, r0, ip, ror #3
  34:	00000480 	andeq	r0, r0, r0, lsl #9
	...
  40:	0000001c 	andeq	r0, r0, ip, lsl r0
  44:	0cd10002 	ldcleq	0, cr0, [r1], {2}
  48:	00040000 	andeq	r0, r4, r0
  4c:	00000000 	andeq	r0, r0, r0
  50:	0000866c 	andeq	r8, r0, ip, ror #12
  54:	00000200 	andeq	r0, r0, r0, lsl #4
	...
  60:	0000001c 	andeq	r0, r0, ip, lsl r0
  64:	0fc10002 	svceq	0x00c10002
  68:	00040000 	andeq	r0, r4, r0
  6c:	00000000 	andeq	r0, r0, r0
  70:	0000886c 	andeq	r8, r0, ip, ror #16
  74:	000006a8 	andeq	r0, r0, r8, lsr #13
	...
  80:	0000001c 	andeq	r0, r0, ip, lsl r0
  84:	1c760002 	ldclne	0, cr0, [r6], #-8
  88:	00040000 	andeq	r0, r4, r0
  8c:	00000000 	andeq	r0, r0, r0
  90:	00008f1c 	andeq	r8, r0, ip, lsl pc
  94:	000000a0 	andeq	r0, r0, r0, lsr #1
	...
  a0:	0000001c 	andeq	r0, r0, ip, lsl r0
  a4:	1e900002 	cdpne	0, 9, cr0, cr0, cr2, {0}
  a8:	00040000 	andeq	r0, r4, r0
  ac:	00000000 	andeq	r0, r0, r0
  b0:	00008fbc 			; <UNDEFINED> instruction: 0x00008fbc
  b4:	00000078 	andeq	r0, r0, r8, ror r0
	...
  c0:	0000001c 	andeq	r0, r0, ip, lsl r0
  c4:	1fd40002 	svcne	0x00d40002
  c8:	00040000 	andeq	r0, r4, r0
  cc:	00000000 	andeq	r0, r0, r0
  d0:	00009034 	andeq	r9, r0, r4, lsr r0
  d4:	00000058 	andeq	r0, r0, r8, asr r0
	...
  e0:	0000001c 	andeq	r0, r0, ip, lsl r0
  e4:	21750002 	cmncs	r5, r2
  e8:	00040000 	andeq	r0, r4, r0
  ec:	00000000 	andeq	r0, r0, r0
  f0:	0000908c 	andeq	r9, r0, ip, lsl #1
  f4:	00000038 	andeq	r0, r0, r8, lsr r0
	...
 100:	0000001c 	andeq	r0, r0, ip, lsl r0
 104:	226c0002 	rsbcs	r0, ip, #2, 0
 108:	00040000 	andeq	r0, r4, r0
 10c:	00000000 	andeq	r0, r0, r0
 110:	000090c4 	andeq	r9, r0, r4, asr #1
 114:	000009b4 			; <UNDEFINED> instruction: 0x000009b4
	...
 120:	0000001c 	andeq	r0, r0, ip, lsl r0
 124:	2eef0002 	cdpcs	0, 14, cr0, cr15, cr2, {0}
 128:	00040000 	andeq	r0, r4, r0
 12c:	00000000 	andeq	r0, r0, r0
 130:	00009a78 	andeq	r9, r0, r8, ror sl
 134:	0000002c 	andeq	r0, r0, ip, lsr #32
	...
 140:	0000001c 	andeq	r0, r0, ip, lsl r0
 144:	30220002 	eorcc	r0, r2, r2
 148:	00040000 	andeq	r0, r4, r0
 14c:	00000000 	andeq	r0, r0, r0
 150:	00009aa4 	andeq	r9, r0, r4, lsr #21
 154:	00000128 	andeq	r0, r0, r8, lsr #2
	...
 160:	0000001c 	andeq	r0, r0, ip, lsl r0
 164:	32d70002 	sbcscc	r0, r7, #2, 0
 168:	00040000 	andeq	r0, r4, r0
 16c:	00000000 	andeq	r0, r0, r0
 170:	00009bcc 	andeq	r9, r0, ip, asr #23
 174:	00000004 	andeq	r0, r0, r4
	...
 180:	0000001c 	andeq	r0, r0, ip, lsl r0
 184:	33a90002 			; <UNDEFINED> instruction: 0x33a90002
 188:	00040000 	andeq	r0, r4, r0
 18c:	00000000 	andeq	r0, r0, r0
 190:	00009bd0 	ldrdeq	r9, [r0], -r0
 194:	0000008c 	andeq	r0, r0, ip, lsl #1
	...
 1a0:	0000001c 	andeq	r0, r0, ip, lsl r0
 1a4:	362a0002 	strtcc	r0, [sl], -r2
 1a8:	00040000 	andeq	r0, r4, r0
 1ac:	00000000 	andeq	r0, r0, r0
 1b0:	00009c5c 	andeq	r9, r0, ip, asr ip
 1b4:	0000011c 	andeq	r0, r0, ip, lsl r1
	...
 1c0:	0000001c 	andeq	r0, r0, ip, lsl r0
 1c4:	3b6d0002 	blcc	1b401d4 <__bss_end__+0x1b34edc>
 1c8:	00040000 	andeq	r0, r4, r0
 1cc:	00000000 	andeq	r0, r0, r0
 1d0:	00009d78 	andeq	r9, r0, r8, ror sp
 1d4:	000001f0 	strdeq	r0, [r0], -r0	; <UNPREDICTABLE>
	...
 1e0:	0000001c 	andeq	r0, r0, ip, lsl r0
 1e4:	413e0002 	teqmi	lr, r2
 1e8:	00040000 	andeq	r0, r4, r0
 1ec:	00000000 	andeq	r0, r0, r0
 1f0:	00009f68 	andeq	r9, r0, r8, ror #30
 1f4:	000003b0 			; <UNDEFINED> instruction: 0x000003b0
	...
 200:	0000001c 	andeq	r0, r0, ip, lsl r0
 204:	4a2b0002 	bmi	ac0214 <__bss_end__+0xab4f1c>
 208:	00040000 	andeq	r0, r4, r0
 20c:	00000000 	andeq	r0, r0, r0
 210:	0000a318 	andeq	sl, r0, r8, lsl r3
 214:	00000198 	muleq	r0, r8, r1
	...
 220:	0000001c 	andeq	r0, r0, ip, lsl r0
 224:	50a20002 	adcpl	r0, r2, r2
 228:	00040000 	andeq	r0, r4, r0
 22c:	00000000 	andeq	r0, r0, r0
 230:	0000a4b0 			; <UNDEFINED> instruction: 0x0000a4b0
 234:	0000003c 	andeq	r0, r0, ip, lsr r0
	...
 240:	0000001c 	andeq	r0, r0, ip, lsl r0
 244:	51ef0002 	mvnpl	r0, r2
 248:	00040000 	andeq	r0, r4, r0
 24c:	00000000 	andeq	r0, r0, r0
 250:	0000a4ec 	andeq	sl, r0, ip, ror #9
 254:	0000002c 	andeq	r0, r0, ip, lsr #32
	...
 260:	0000001c 	andeq	r0, r0, ip, lsl r0
 264:	532a0002 			; <UNDEFINED> instruction: 0x532a0002
 268:	00040000 	andeq	r0, r4, r0
 26c:	00000000 	andeq	r0, r0, r0
 270:	0000a518 	andeq	sl, r0, r8, lsl r5
 274:	00000044 	andeq	r0, r0, r4, asr #32
	...
 280:	0000001c 	andeq	r0, r0, ip, lsl r0
 284:	54250002 	strtpl	r0, [r5], #-2
 288:	00040000 	andeq	r0, r4, r0
 28c:	00000000 	andeq	r0, r0, r0
 290:	0000a55c 	andeq	sl, r0, ip, asr r5
 294:	00000018 	andeq	r0, r0, r8, lsl r0
	...
 2a0:	0000001c 	andeq	r0, r0, ip, lsl r0
 2a4:	55380002 	ldrpl	r0, [r8, #-2]!
 2a8:	00040000 	andeq	r0, r4, r0
 2ac:	00000000 	andeq	r0, r0, r0
 2b0:	0000a574 	andeq	sl, r0, r4, ror r5
 2b4:	00000030 	andeq	r0, r0, r0, lsr r0
	...
 2c0:	0000001c 	andeq	r0, r0, ip, lsl r0
 2c4:	568a0002 	strpl	r0, [sl], r2
 2c8:	00040000 	andeq	r0, r4, r0
 2cc:	00000000 	andeq	r0, r0, r0
 2d0:	0000a5a4 	andeq	sl, r0, r4, lsr #11
 2d4:	00000004 	andeq	r0, r0, r4
	...

Disassembly of section .debug_ranges:

00000000 <.debug_ranges>:
   0:	0000001c 	andeq	r0, r0, ip, lsl r0
   4:	00000020 	andeq	r0, r0, r0, lsr #32
   8:	00000024 	andeq	r0, r0, r4, lsr #32
   c:	0000002c 	andeq	r0, r0, ip, lsr #32
  10:	00000044 	andeq	r0, r0, r4, asr #32
  14:	000000e0 	andeq	r0, r0, r0, ror #1
	...
  20:	00000044 	andeq	r0, r0, r4, asr #32
  24:	000000a0 	andeq	r0, r0, r0, lsr #1
  28:	000000a4 	andeq	r0, r0, r4, lsr #1
  2c:	000000e0 	andeq	r0, r0, r0, ror #1
	...
  38:	0000016c 	andeq	r0, r0, ip, ror #2
  3c:	000001a4 	andeq	r0, r0, r4, lsr #3
  40:	000001cc 	andeq	r0, r0, ip, asr #3
  44:	00000214 	andeq	r0, r0, r4, lsl r2
	...
  50:	0000012c 	andeq	r0, r0, ip, lsr #2
  54:	0000013c 	andeq	r0, r0, ip, lsr r1
  58:	00000148 	andeq	r0, r0, r8, asr #2
  5c:	00000194 	muleq	r0, r4, r1
	...
  68:	0000012c 	andeq	r0, r0, ip, lsr #2
  6c:	0000013c 	andeq	r0, r0, ip, lsr r1
  70:	00000158 	andeq	r0, r0, r8, asr r1
  74:	00000194 	muleq	r0, r4, r1
	...
  80:	000002a4 	andeq	r0, r0, r4, lsr #5
  84:	000002ac 	andeq	r0, r0, ip, lsr #5
  88:	000002b8 			; <UNDEFINED> instruction: 0x000002b8
  8c:	00000320 	andeq	r0, r0, r0, lsr #6
	...
  98:	000003bc 			; <UNDEFINED> instruction: 0x000003bc
  9c:	000003c4 	andeq	r0, r0, r4, asr #7
  a0:	000003d0 	ldrdeq	r0, [r0], -r0	; <UNPREDICTABLE>
  a4:	0000044c 	andeq	r0, r0, ip, asr #8
	...
  b0:	00000014 	andeq	r0, r0, r4, lsl r0
  b4:	00000020 	andeq	r0, r0, r0, lsr #32
  b8:	0000002c 	andeq	r0, r0, ip, lsr #32
  bc:	00000058 	andeq	r0, r0, r8, asr r0
  c0:	00000058 	andeq	r0, r0, r8, asr r0
  c4:	00000064 	andeq	r0, r0, r4, rrx
	...
  d0:	00000014 	andeq	r0, r0, r4, lsl r0
  d4:	00000018 	andeq	r0, r0, r8, lsl r0
  d8:	0000002c 	andeq	r0, r0, ip, lsr #32
  dc:	0000002c 	andeq	r0, r0, ip, lsr #32
  e0:	00000034 	andeq	r0, r0, r4, lsr r0
  e4:	00000038 	andeq	r0, r0, r8, lsr r0
  e8:	0000003c 	andeq	r0, r0, ip, lsr r0
  ec:	00000050 	andeq	r0, r0, r0, asr r0
	...
  f8:	0000002c 	andeq	r0, r0, ip, lsr #32
  fc:	0000002c 	andeq	r0, r0, ip, lsr #32
 100:	00000038 	andeq	r0, r0, r8, lsr r0
 104:	00000038 	andeq	r0, r0, r8, lsr r0
 108:	00000044 	andeq	r0, r0, r4, asr #32
 10c:	0000004c 	andeq	r0, r0, ip, asr #32
	...
 118:	000000a4 	andeq	r0, r0, r4, lsr #1
 11c:	00000148 	andeq	r0, r0, r8, asr #2
 120:	00000158 	andeq	r0, r0, r8, asr r1
 124:	0000015c 	andeq	r0, r0, ip, asr r1
 128:	00000274 	andeq	r0, r0, r4, ror r2
 12c:	00000278 	andeq	r0, r0, r8, ror r2
 130:	0000027c 	andeq	r0, r0, ip, ror r2
 134:	00000280 	andeq	r0, r0, r0, lsl #5
 138:	00000288 	andeq	r0, r0, r8, lsl #5
 13c:	0000029c 	muleq	r0, ip, r2
 140:	000002c0 	andeq	r0, r0, r0, asr #5
 144:	000002cc 	andeq	r0, r0, ip, asr #5
 148:	000002f0 	strdeq	r0, [r0], -r0	; <UNPREDICTABLE>
 14c:	000002f0 	strdeq	r0, [r0], -r0	; <UNPREDICTABLE>
 150:	000002f4 	strdeq	r0, [r0], -r4
 154:	000002f8 	strdeq	r0, [r0], -r8
	...
 160:	00000148 	andeq	r0, r0, r8, asr #2
 164:	00000158 	andeq	r0, r0, r8, asr r1
 168:	0000015c 	andeq	r0, r0, ip, asr r1
 16c:	0000018c 	andeq	r0, r0, ip, lsl #3
 170:	0000029c 	muleq	r0, ip, r2
 174:	000002ac 	andeq	r0, r0, ip, lsr #5
	...
 180:	000003c8 	andeq	r0, r0, r8, asr #7
 184:	000003d0 	ldrdeq	r0, [r0], -r0	; <UNPREDICTABLE>
 188:	00000404 	andeq	r0, r0, r4, lsl #8
 18c:	000004ac 	andeq	r0, r0, ip, lsr #9
 190:	000004c0 	andeq	r0, r0, r0, asr #9
 194:	00000920 	andeq	r0, r0, r0, lsr #18
 198:	00000928 	andeq	r0, r0, r8, lsr #18
 19c:	000009b4 			; <UNDEFINED> instruction: 0x000009b4
	...
 1a8:	000003c8 	andeq	r0, r0, r8, asr #7
 1ac:	000003d0 	ldrdeq	r0, [r0], -r0	; <UNPREDICTABLE>
 1b0:	00000504 	andeq	r0, r0, r4, lsl #10
 1b4:	000005d0 	ldrdeq	r0, [r0], -r0	; <UNPREDICTABLE>
 1b8:	00000800 	andeq	r0, r0, r0, lsl #16
 1bc:	00000888 	andeq	r0, r0, r8, lsl #17
 1c0:	00000930 	andeq	r0, r0, r0, lsr r9
 1c4:	000009b4 			; <UNDEFINED> instruction: 0x000009b4
	...
 1d0:	00000404 	andeq	r0, r0, r4, lsl #8
 1d4:	00000408 	andeq	r0, r0, r8, lsl #8
 1d8:	00000414 	andeq	r0, r0, r4, lsl r4
 1dc:	00000414 	andeq	r0, r0, r4, lsl r4
 1e0:	00000428 	andeq	r0, r0, r8, lsr #8
 1e4:	0000042c 	andeq	r0, r0, ip, lsr #8
	...
 1f0:	000005fc 	strdeq	r0, [r0], -ip
 1f4:	00000700 	andeq	r0, r0, r0, lsl #14
 1f8:	000007ec 	andeq	r0, r0, ip, ror #15
 1fc:	000007f4 	strdeq	r0, [r0], -r4
 200:	00000888 	andeq	r0, r0, r8, lsl #17
 204:	00000894 	muleq	r0, r4, r8
 208:	000008a8 	andeq	r0, r0, r8, lsr #17
 20c:	000008bc 			; <UNDEFINED> instruction: 0x000008bc
 210:	00000910 	andeq	r0, r0, r0, lsl r9
 214:	00000920 	andeq	r0, r0, r0, lsr #18
	...
 220:	00000600 	andeq	r0, r0, r0, lsl #12
 224:	00000604 	andeq	r0, r0, r4, lsl #12
 228:	00000608 	andeq	r0, r0, r8, lsl #12
 22c:	000006b4 			; <UNDEFINED> instruction: 0x000006b4
 230:	000006cc 	andeq	r0, r0, ip, asr #13
 234:	000006d0 	ldrdeq	r0, [r0], -r0	; <UNPREDICTABLE>
 238:	000008a8 	andeq	r0, r0, r8, lsr #17
 23c:	000008b8 			; <UNDEFINED> instruction: 0x000008b8
 240:	00000910 	andeq	r0, r0, r0, lsl r9
 244:	00000920 	andeq	r0, r0, r0, lsr #18
	...
 250:	000006b4 			; <UNDEFINED> instruction: 0x000006b4
 254:	000006cc 	andeq	r0, r0, ip, asr #13
 258:	000006d0 	ldrdeq	r0, [r0], -r0	; <UNPREDICTABLE>
 25c:	00000700 	andeq	r0, r0, r0, lsl #14
 260:	000007ec 	andeq	r0, r0, ip, ror #15
 264:	000007f4 	strdeq	r0, [r0], -r4
 268:	00000888 	andeq	r0, r0, r8, lsl #17
 26c:	00000894 	muleq	r0, r4, r8
 270:	000008b8 			; <UNDEFINED> instruction: 0x000008b8
 274:	000008bc 			; <UNDEFINED> instruction: 0x000008bc
	...
 280:	00000700 	andeq	r0, r0, r0, lsl #14
 284:	00000708 	andeq	r0, r0, r8, lsl #14
 288:	0000070c 	andeq	r0, r0, ip, lsl #14
 28c:	000007ec 	andeq	r0, r0, ip, ror #15
 290:	00000894 	muleq	r0, r4, r8
 294:	000008a8 	andeq	r0, r0, r8, lsr #17
	...
 2a0:	00000728 	andeq	r0, r0, r8, lsr #14
 2a4:	000007a4 	andeq	r0, r0, r4, lsr #15
 2a8:	000007ac 	andeq	r0, r0, ip, lsr #15
 2ac:	000007b0 			; <UNDEFINED> instruction: 0x000007b0
 2b0:	00000894 	muleq	r0, r4, r8
 2b4:	00000898 	muleq	r0, r8, r8
 2b8:	0000089c 	muleq	r0, ip, r8
 2bc:	000008a0 	andeq	r0, r0, r0, lsr #17
	...
 2c8:	000007a4 	andeq	r0, r0, r4, lsr #15
 2cc:	000007ac 	andeq	r0, r0, ip, lsr #15
 2d0:	000007b0 			; <UNDEFINED> instruction: 0x000007b0
 2d4:	000007ec 	andeq	r0, r0, ip, ror #15
 2d8:	00000898 	muleq	r0, r8, r8
 2dc:	0000089c 	muleq	r0, ip, r8
 2e0:	000008a0 	andeq	r0, r0, r0, lsr #17
 2e4:	000008a8 	andeq	r0, r0, r8, lsr #17
	...
 2f0:	000000f0 	strdeq	r0, [r0], -r0	; <UNPREDICTABLE>
 2f4:	000000f8 	strdeq	r0, [r0], -r8
 2f8:	000000fc 	strdeq	r0, [r0], -ip
 2fc:	00000108 	andeq	r0, r0, r8, lsl #2
	...
 308:	00009bfc 	strdeq	r9, [r0], -ip
 30c:	00009bfc 	strdeq	r9, [r0], -ip
 310:	00009c00 	andeq	r9, r0, r0, lsl #24
 314:	00009c08 	andeq	r9, r0, r8, lsl #24
	...
 320:	00009bd0 	ldrdeq	r9, [r0], -r0
 324:	00009c5c 	andeq	r9, r0, ip, asr ip
	...
 330:	00000030 	andeq	r0, r0, r0, lsr r0
 334:	00000030 	andeq	r0, r0, r0, lsr r0
 338:	00000038 	andeq	r0, r0, r8, lsr r0
 33c:	0000004c 	andeq	r0, r0, ip, asr #32
	...
 348:	0000004c 	andeq	r0, r0, ip, asr #32
 34c:	00000050 	andeq	r0, r0, r0, asr r0
 350:	00000050 	andeq	r0, r0, r0, asr r0
 354:	00000078 	andeq	r0, r0, r8, ror r0
	...
 360:	0000004c 	andeq	r0, r0, ip, asr #32
 364:	00000050 	andeq	r0, r0, r0, asr r0
 368:	00000050 	andeq	r0, r0, r0, asr r0
 36c:	00000060 	andeq	r0, r0, r0, rrx
 370:	00000064 	andeq	r0, r0, r4, rrx
 374:	00000068 	andeq	r0, r0, r8, rrx
	...
 380:	0000004c 	andeq	r0, r0, ip, asr #32
 384:	00000050 	andeq	r0, r0, r0, asr r0
 388:	00000054 	andeq	r0, r0, r4, asr r0
 38c:	00000060 	andeq	r0, r0, r0, rrx
	...
 398:	0000009c 	muleq	r0, ip, r0
 39c:	000000a0 	andeq	r0, r0, r0, lsr #1
 3a0:	000000a0 	andeq	r0, r0, r0, lsr #1
 3a4:	000000c8 	andeq	r0, r0, r8, asr #1
	...
 3b0:	0000009c 	muleq	r0, ip, r0
 3b4:	000000a0 	andeq	r0, r0, r0, lsr #1
 3b8:	000000a0 	andeq	r0, r0, r0, lsr #1
 3bc:	000000b0 	strheq	r0, [r0], -r0	; <UNPREDICTABLE>
 3c0:	000000b4 	strheq	r0, [r0], -r4
 3c4:	000000b8 	strheq	r0, [r0], -r8
	...
 3d0:	0000009c 	muleq	r0, ip, r0
 3d4:	000000a0 	andeq	r0, r0, r0, lsr #1
 3d8:	000000a4 	andeq	r0, r0, r4, lsr #1
 3dc:	000000b0 	strheq	r0, [r0], -r0	; <UNPREDICTABLE>
	...
 3e8:	000000c8 	andeq	r0, r0, r8, asr #1
 3ec:	000000c8 	andeq	r0, r0, r8, asr #1
 3f0:	000000cc 	andeq	r0, r0, ip, asr #1
 3f4:	0000011c 	andeq	r0, r0, ip, lsl r1
	...
 400:	000000f0 	strdeq	r0, [r0], -r0	; <UNPREDICTABLE>
 404:	000000f4 	strdeq	r0, [r0], -r4
 408:	000000f4 	strdeq	r0, [r0], -r4
 40c:	0000011c 	andeq	r0, r0, ip, lsl r1
	...
 418:	000000f0 	strdeq	r0, [r0], -r0	; <UNPREDICTABLE>
 41c:	000000f4 	strdeq	r0, [r0], -r4
 420:	000000f4 	strdeq	r0, [r0], -r4
 424:	00000104 	andeq	r0, r0, r4, lsl #2
 428:	00000108 	andeq	r0, r0, r8, lsl #2
 42c:	0000010c 	andeq	r0, r0, ip, lsl #2
	...
 438:	000000f0 	strdeq	r0, [r0], -r0	; <UNPREDICTABLE>
 43c:	000000f4 	strdeq	r0, [r0], -r4
 440:	000000f8 	strdeq	r0, [r0], -r8
 444:	00000104 	andeq	r0, r0, r4, lsl #2
	...
 450:	00000134 	andeq	r0, r0, r4, lsr r1
 454:	00000134 	andeq	r0, r0, r4, lsr r1
 458:	00000134 	andeq	r0, r0, r4, lsr r1
 45c:	0000013c 	andeq	r0, r0, ip, lsr r1
	...
 468:	0000024c 	andeq	r0, r0, ip, asr #4
 46c:	00000264 	andeq	r0, r0, r4, ror #4
 470:	000002c8 	andeq	r0, r0, r8, asr #5
 474:	000002e8 	andeq	r0, r0, r8, ror #5
	...
 480:	00000008 	andeq	r0, r0, r8
 484:	0000000c 	andeq	r0, r0, ip
 488:	00000014 	andeq	r0, r0, r4, lsl r0
 48c:	00000054 	andeq	r0, r0, r4, asr r0
 490:	00000058 	andeq	r0, r0, r8, asr r0
 494:	00000060 	andeq	r0, r0, r0, rrx
	...
 4a0:	00000060 	andeq	r0, r0, r0, rrx
 4a4:	00000068 	andeq	r0, r0, r8, rrx
 4a8:	0000006c 	andeq	r0, r0, ip, rrx
 4ac:	000000ac 	andeq	r0, r0, ip, lsr #1
 4b0:	000000b0 	strheq	r0, [r0], -r0	; <UNPREDICTABLE>
 4b4:	000000b8 	strheq	r0, [r0], -r8
	...
 4c0:	00000068 	andeq	r0, r0, r8, rrx
 4c4:	00000068 	andeq	r0, r0, r8, rrx
 4c8:	0000006c 	andeq	r0, r0, ip, rrx
 4cc:	000000ac 	andeq	r0, r0, ip, lsr #1
 4d0:	000000b0 	strheq	r0, [r0], -r0	; <UNPREDICTABLE>
 4d4:	000000b8 	strheq	r0, [r0], -r8
	...
 4e0:	000000e8 	andeq	r0, r0, r8, ror #1
 4e4:	000000f0 	strdeq	r0, [r0], -r0	; <UNPREDICTABLE>
 4e8:	000000f4 	strdeq	r0, [r0], -r4
 4ec:	00000134 	andeq	r0, r0, r4, lsr r1
 4f0:	00000138 	andeq	r0, r0, r8, lsr r1
 4f4:	00000140 	andeq	r0, r0, r0, asr #2
	...
 500:	000000f0 	strdeq	r0, [r0], -r0	; <UNPREDICTABLE>
 504:	000000f0 	strdeq	r0, [r0], -r0	; <UNPREDICTABLE>
 508:	000000f4 	strdeq	r0, [r0], -r4
 50c:	00000134 	andeq	r0, r0, r4, lsr r1
 510:	00000138 	andeq	r0, r0, r8, lsr r1
 514:	00000140 	andeq	r0, r0, r0, asr #2
	...
 520:	00000144 	andeq	r0, r0, r4, asr #2
 524:	00000148 	andeq	r0, r0, r8, asr #2
 528:	00000150 	andeq	r0, r0, r0, asr r1
 52c:	0000015c 	andeq	r0, r0, ip, asr r1
	...

Disassembly of section .debug_line:

00000000 <.debug_line>:
       0:	00000217 	andeq	r0, r0, r7, lsl r2
       4:	00e90003 	rsceq	r0, r9, r3
       8:	01020000 	mrseq	r0, (UNDEF: 2)
       c:	000d0efb 	strdeq	r0, [sp], -fp
      10:	01010101 	tsteq	r1, r1, lsl #2
      14:	01000000 	mrseq	r0, (UNDEF: 0)
      18:	74010000 	strvc	r0, [r1], #-0
      1c:	73747365 	cmnvc	r4, #-1811939327	; 0x94000001
      20:	302e322d 	eorcc	r3, lr, sp, lsr #4
      24:	2f002e00 	svccs	0x00002e00
      28:	72657355 	rsbvc	r7, r5, #1409286145	; 0x54000001
      2c:	696d2f73 	stmdbvs	sp!, {r0, r1, r4, r5, r6, r8, r9, sl, fp, sp}^
      30:	2f73656c 	svccs	0x0073656c
      34:	72756f53 	rsbsvc	r6, r5, #332	; 0x14c
      38:	632f6563 			; <UNDEFINED> instruction: 0x632f6563
      3c:	30343273 	eorscc	r3, r4, r3, ror r2
      40:	6c2f786c 	stcvs	8, cr7, [pc], #-432	; fffffe98 <__bss_end__+0xffff4ba0>
      44:	69706269 	ldmdbvs	r0!, {r0, r3, r5, r6, r9, sp, lr}^
      48:	636e692f 	cmnvs	lr, #770048	; 0xbc000
      4c:	6564756c 	strbvs	r7, [r4, #-1388]!	; 0xfffffa94
      50:	706f2f00 	rsbvc	r2, pc, r0, lsl #30
      54:	6f682f74 	svcvs	0x00682f74
      58:	7262656d 	rsbvc	r6, r2, #457179136	; 0x1b400000
      5c:	432f7765 			; <UNDEFINED> instruction: 0x432f7765
      60:	616c6c65 	cmnvs	ip, r5, ror #24
      64:	72612f72 	rsbvc	r2, r1, #456	; 0x1c8
      68:	6f6e2d6d 	svcvs	0x006e2d6d
      6c:	652d656e 	strvs	r6, [sp, #-1390]!	; 0xfffffa92
      70:	2d696261 	sfmcs	f6, 2, [r9, #-388]!	; 0xfffffe7c
      74:	2d392f39 	ldccs	15, cr2, [r9, #-228]!	; 0xffffff1c
      78:	39313032 	ldmdbcc	r1!, {r1, r4, r5, ip, sp}
      7c:	632d3471 			; <UNDEFINED> instruction: 0x632d3471
      80:	37303173 			; <UNDEFINED> instruction: 0x37303173
      84:	696c2f65 	stmdbvs	ip!, {r0, r2, r5, r6, r8, r9, sl, fp, sp}^
      88:	63672f62 	cmnvs	r7, #392	; 0x188
      8c:	72612f63 	rsbvc	r2, r1, #396	; 0x18c
      90:	6f6e2d6d 	svcvs	0x006e2d6d
      94:	652d656e 	strvs	r6, [sp, #-1390]!	; 0xfffffa92
      98:	2f696261 	svccs	0x00696261
      9c:	2e322e39 	mrccs	14, 1, r2, cr2, cr9, {1}
      a0:	6e692f31 	mcrvs	15, 3, r2, cr9, cr1, {1}
      a4:	64756c63 	ldrbtvs	r6, [r5], #-3171	; 0xfffff39d
      a8:	70000065 	andvc	r0, r0, r5, rrx
      ac:	32747261 	rsbscc	r7, r4, #268435462	; 0x10000006
      b0:	7365742d 	cmnvc	r5, #754974720	; 0x2d000000
      b4:	672d3574 			; <UNDEFINED> instruction: 0x672d3574
      b8:	00632e63 	rsbeq	r2, r3, r3, ror #28
      bc:	73000001 	movwvc	r0, #1
      c0:	6c2d6372 	stcvs	3, cr6, [sp], #-456	; 0xfffffe38
      c4:	682e636f 	stmdavs	lr!, {r0, r1, r2, r3, r5, r6, r8, r9, sp, lr}
      c8:	00000200 	andeq	r0, r0, r0, lsl #4
      cc:	2e697072 	mcrcs	0, 3, r7, cr9, cr2, {3}
      d0:	00030068 	andeq	r0, r3, r8, rrx
      d4:	64747300 	ldrbtvs	r7, [r4], #-768	; 0xfffffd00
      d8:	2d746e69 	ldclcs	14, cr6, [r4, #-420]!	; 0xfffffe5c
      dc:	2e636367 	cdpcs	3, 6, cr6, cr3, cr7, {3}
      e0:	00040068 	andeq	r0, r4, r8, rrx
      e4:	616b6300 	cmnvs	fp, r0, lsl #6
      e8:	636f6c6c 	cmnvs	pc, #108, 24	; 0x6c00
      ec:	0200682e 	andeq	r6, r0, #3014656	; 0x2e0000
      f0:	05000000 	streq	r0, [r0, #-0]
      f4:	02050012 	andeq	r0, r5, #18, 0
      f8:	00008044 	andeq	r8, r0, r4, asr #32
      fc:	05010b03 	streq	r0, [r1, #-2819]	; 0xfffff4fd
     100:	05188305 	ldreq	r8, [r8, #-773]	; 0xfffffcfb
     104:	0d050109 	stfeqs	f0, [r5, #-36]	; 0xffffffdc
     108:	08050106 	stmdaeq	r5, {r1, r2, r8}
     10c:	0014052c 	andseq	r0, r4, ip, lsr #10
     110:	06010402 	streq	r0, [r1], -r2, lsl #8
     114:	00050530 	andeq	r0, r5, r0, lsr r5
     118:	06010402 	streq	r0, [r1], -r2, lsl #8
     11c:	10030601 	andne	r0, r3, r1, lsl #12
     120:	134a014a 	movtne	r0, #41290	; 0xa14a
     124:	06010530 			; <UNDEFINED> instruction: 0x06010530
     128:	06090513 			; <UNDEFINED> instruction: 0x06090513
     12c:	04666d03 	strbteq	r6, [r6], #-3331	; 0xfffff2fd
     130:	030b0502 	movweq	r0, #46338	; 0xb502
     134:	05050179 	streq	r0, [r5, #-377]	; 0xfffffe87
     138:	060c0513 			; <UNDEFINED> instruction: 0x060c0513
     13c:	0104ba01 	tsteq	r4, r1, lsl #20
     140:	05181a05 	ldreq	r1, [r8, #-2565]	; 0xfffff5fb
     144:	679f0609 	ldrvs	r0, [pc, r9, lsl #12]
     148:	01060e05 	tsteq	r6, r5, lsl #28
     14c:	4b060905 	blmi	182568 <__bss_end__+0x177270>
     150:	01060b05 	tsteq	r6, r5, lsl #22
     154:	4b060d05 	blmi	183570 <__bss_end__+0x178278>
     158:	04020001 	streq	r0, [r2], #-1
     15c:	02006602 	andeq	r6, r0, #2097152	; 0x200000
     160:	00010204 	andeq	r0, r1, r4, lsl #4
     164:	13020402 	movwne	r0, #9218	; 0x2402
     168:	02001505 	andeq	r1, r0, #20971520	; 0x1400000
     16c:	01060204 	tsteq	r6, r4, lsl #4
     170:	02000d05 	andeq	r0, r0, #320	; 0x140
     174:	2f060204 	svccs	0x00060204
     178:	02001505 	andeq	r1, r0, #20971520	; 0x1400000
     17c:	01060204 	tsteq	r6, r4, lsl #4
     180:	02000905 	andeq	r0, r0, #81920	; 0x14000
     184:	30060204 	andcc	r0, r6, r4, lsl #4
     188:	02040200 	andeq	r0, r4, #0, 4
     18c:	1b050106 	blne	1405ac <__bss_end__+0x1352b4>
     190:	02040200 	andeq	r0, r4, #0, 4
     194:	01770306 	cmneq	r7, r6, lsl #6
     198:	02001c05 	andeq	r1, r0, #1280	; 0x500
     19c:	01060204 	tsteq	r6, r4, lsl #4
     1a0:	02000b05 	andeq	r0, r0, #5120	; 0x1400
     1a4:	09030204 	stmdbeq	r3, {r2, r9}
     1a8:	000d052e 	andeq	r0, sp, lr, lsr #10
     1ac:	06010402 	streq	r0, [r1], -r2, lsl #8
     1b0:	04020046 	streq	r0, [r2], #-70	; 0xffffffba
     1b4:	02000101 	andeq	r0, r0, #1073741824	; 0x40000000
     1b8:	05d60104 	ldrbeq	r0, [r6, #260]	; 0x104
     1bc:	f2340314 	vcge.s<illegal width 64>	d0, d4, d4
     1c0:	05670505 	strbeq	r0, [r7, #-1285]!	; 0xfffffafb
     1c4:	0501060f 	streq	r0, [r1, #-1551]	; 0xfffff9f1
     1c8:	064b0605 	strbeq	r0, [fp], -r5, lsl #12
     1cc:	052f062e 	streq	r0, [pc, #-1582]!	; fffffba6 <__bss_end__+0xffff48ae>
     1d0:	05130601 	ldreq	r0, [r3, #-1537]	; 0xfffff9ff
     1d4:	5b030614 	blpl	c1a2c <__bss_end__+0xb6734>
     1d8:	8305059e 	movwhi	r0, #21918	; 0x559e
     1dc:	0612054f 	ldreq	r0, [r2], -pc, asr #10
     1e0:	06050501 	streq	r0, [r5], -r1, lsl #10
     1e4:	134a0131 	movtne	r0, #41265	; 0xa131
     1e8:	012e0903 			; <UNDEFINED> instruction: 0x012e0903
     1ec:	054b1582 	strbeq	r1, [fp, #-1410]	; 0xfffffa7e
     1f0:	05010612 	streq	r0, [r1, #-1554]	; 0xfffff9ee
     1f4:	052f0605 	streq	r0, [pc, #-1541]!	; fffffbf7 <__bss_end__+0xffff48ff>
     1f8:	2e010607 	cfmadd32cs	mvax0, mvfx0, mvfx1, mvfx7
     1fc:	2f060905 	svccs	0x00060905
     200:	01140505 	tsteq	r4, r5, lsl #10
     204:	2e062e06 	cdpcs	14, 0, cr2, cr6, cr6, {0}
     208:	06010513 			; <UNDEFINED> instruction: 0x06010513
     20c:	0609052f 	streq	r0, [r9], -pc, lsr #10
     210:	9e060146 	adflssm	f0, f6, f6
     214:	12022e06 	andne	r2, r2, #96	; 0x60
     218:	06010100 	streq	r0, [r1], -r0, lsl #2
     21c:	03000004 	movweq	r0, #4
     220:	0000f400 	andeq	pc, r0, r0, lsl #8
     224:	fb010200 	blx	40a2e <__bss_end__+0x35736>
     228:	01000d0e 	tsteq	r0, lr, lsl #26
     22c:	00010101 	andeq	r0, r1, r1, lsl #2
     230:	00010000 	andeq	r0, r1, r0
     234:	6f2f0100 	svcvs	0x002f0100
     238:	682f7470 	stmdavs	pc!, {r4, r5, r6, sl, ip, sp, lr}	; <UNPREDICTABLE>
     23c:	62656d6f 	rsbvs	r6, r5, #7104	; 0x1bc0
     240:	2f776572 	svccs	0x00776572
     244:	6c6c6543 	cfstr64vs	mvdx6, [ip], #-268	; 0xfffffef4
     248:	612f7261 			; <UNDEFINED> instruction: 0x612f7261
     24c:	6e2d6d72 	mcrvs	13, 1, r6, cr13, cr2, {3}
     250:	2d656e6f 	stclcs	14, cr6, [r5, #-444]!	; 0xfffffe44
     254:	69626165 	stmdbvs	r2!, {r0, r2, r5, r6, r8, sp, lr}^
     258:	392f392d 	stmdbcc	pc!, {r0, r2, r3, r5, r8, fp, ip, sp}	; <UNPREDICTABLE>
     25c:	3130322d 	teqcc	r0, sp, lsr #4
     260:	2d347139 	ldfcss	f7, [r4, #-228]!	; 0xffffff1c
     264:	30317363 	eorscc	r7, r1, r3, ror #6
     268:	6c2f6537 	cfstr32vs	mvfx6, [pc], #-220	; 194 <__code_start__-0x7e6c>
     26c:	672f6269 	strvs	r6, [pc, -r9, ror #4]!
     270:	612f6363 			; <UNDEFINED> instruction: 0x612f6363
     274:	6e2d6d72 	mcrvs	13, 1, r6, cr13, cr2, {3}
     278:	2d656e6f 	stclcs	14, cr6, [r5, #-444]!	; 0xfffffe44
     27c:	69626165 	stmdbvs	r2!, {r0, r2, r5, r6, r8, sp, lr}^
     280:	322e392f 	eorcc	r3, lr, #770048	; 0xbc000
     284:	692f312e 	stmdbvs	pc!, {r1, r2, r3, r5, r8, ip, sp}	; <UNPREDICTABLE>
     288:	756c636e 	strbvc	r6, [ip, #-878]!	; 0xfffffc92
     28c:	2f006564 	svccs	0x00006564
     290:	72657355 	rsbvc	r7, r5, #1409286145	; 0x54000001
     294:	696d2f73 	stmdbvs	sp!, {r0, r1, r4, r5, r6, r8, r9, sl, fp, sp}^
     298:	2f73656c 	svccs	0x0073656c
     29c:	72756f53 	rsbsvc	r6, r5, #332	; 0x14c
     2a0:	632f6563 			; <UNDEFINED> instruction: 0x632f6563
     2a4:	30343273 	eorscc	r3, r4, r3, ror r2
     2a8:	6c2f786c 	stcvs	8, cr7, [pc], #-432	; 100 <__code_start__-0x7f00>
     2ac:	69706269 	ldmdbvs	r0!, {r0, r3, r5, r6, r9, sp, lr}^
     2b0:	636e692f 	cmnvs	lr, #770048	; 0xbc000
     2b4:	6564756c 	strbvs	r7, [r4, #-1388]!	; 0xfffffa94
     2b8:	6b630000 	blvs	18c02c0 <__bss_end__+0x18b4fc8>
     2bc:	6f6c6c61 	svcvs	0x006c6c61
     2c0:	00632e63 	rsbeq	r2, r3, r3, ror #28
     2c4:	63000000 	movwvs	r0, #0
     2c8:	6c6c616b 	stfvse	f6, [ip], #-428	; 0xfffffe54
     2cc:	682e636f 	stmdavs	lr!, {r0, r1, r2, r3, r5, r6, r8, r9, sp, lr}
     2d0:	00000000 	andeq	r0, r0, r0
     2d4:	69647473 	stmdbvs	r4!, {r0, r1, r4, r5, r6, sl, ip, sp, lr}^
     2d8:	672d746e 	strvs	r7, [sp, -lr, ror #8]!
     2dc:	682e6363 	stmdavs	lr!, {r0, r1, r5, r6, r8, r9, sp, lr}
     2e0:	00000100 	andeq	r0, r0, r0, lsl #2
     2e4:	2e697072 	mcrcs	0, 3, r7, cr9, cr2, {3}
     2e8:	00020068 	andeq	r0, r2, r8, rrx
     2ec:	63727300 	cmnvs	r2, #0, 6
     2f0:	636f6c2d 	cmnvs	pc, #11520	; 0x2d00
     2f4:	0000682e 	andeq	r6, r0, lr, lsr #16
     2f8:	726b0000 	rsbvc	r0, fp, #0, 0
     2fc:	6c616d2d 	stclvs	13, cr6, [r1], #-180	; 0xffffff4c
     300:	2e636f6c 	cdpcs	15, 6, cr6, cr3, cr12, {3}
     304:	00000068 	andeq	r0, r0, r8, rrx
     308:	63616200 	cmnvs	r1, #0, 4
     30c:	6172746b 	cmnvs	r2, fp, ror #8
     310:	682e6563 	stmdavs	lr!, {r0, r1, r5, r6, r8, sl, sp, lr}
     314:	00000200 	andeq	r0, r0, r0, lsl #4
     318:	00010500 	andeq	r0, r1, r0, lsl #10
     31c:	82000205 	andhi	r0, r0, #1342177280	; 0x50000000
     320:	0f030000 	svceq	0x00030000
     324:	67050501 	strvs	r0, [r5, -r1, lsl #10]
     328:	13060105 	movwne	r0, #24837	; 0x6105
     32c:	0106f606 	tsteq	r6, r6, lsl #12	; <UNPREDICTABLE>
     330:	67060505 	strvs	r0, [r6, -r5, lsl #10]
     334:	01060805 	tsteq	r6, r5, lsl #16
     338:	0609052e 	streq	r0, [r9], -lr, lsr #10
     33c:	0611052f 	ldreq	r0, [r1], -pc, lsr #10
     340:	30010501 	andcc	r0, r1, r1, lsl #10
     344:	0106bd06 	tsteq	r6, r6, lsl #26
     348:	67060505 	strvs	r0, [r6, -r5, lsl #10]
     34c:	13060105 	movwne	r0, #24837	; 0x6105
     350:	06a2062e 	strteq	r0, [r2], lr, lsr #12
     354:	06050501 	streq	r0, [r5], -r1, lsl #10
     358:	06140583 	ldreq	r0, [r4], -r3, lsl #11
     35c:	05020401 	streq	r0, [r2, #-1025]	; 0xfffffbff
     360:	0d030618 	stceq	6, cr0, [r3, #-96]	; 0xffffffa0
     364:	1305052e 	movwne	r0, #21806	; 0x552e
     368:	01060d05 	tsteq	r6, r5, lsl #26
     36c:	0501042e 	streq	r0, [r1, #-1070]	; 0xfffffbd2
     370:	01730301 	cmneq	r3, r1, lsl #6
     374:	0106da06 	tsteq	r6, r6, lsl #20
     378:	9f060505 	svcls	0x00060505
     37c:	01061105 	tsteq	r6, r5, lsl #2
     380:	0605052e 	streq	r0, [r5], -lr, lsr #10
     384:	0611052f 	ldreq	r0, [r1], -pc, lsr #10
     388:	05052e01 	streq	r2, [r5, #-3585]	; 0xfffff1ff
     38c:	01052f06 	tsteq	r5, r6, lsl #30
     390:	06661306 	strbteq	r1, [r6], -r6, lsl #6
     394:	069e3503 	ldreq	r3, [lr], r3, lsl #10
     398:	0505ba01 	streq	fp, [r5, #-2561]	; 0xfffff5ff
     39c:	13132f06 	tstne	r3, #6, 30
     3a0:	01061105 	tsteq	r6, r5, lsl #2
     3a4:	68060505 	stmdavs	r6, {r0, r2, r8, sl}
     3a8:	1366f201 	msrne	SPSR_sx, #268435456	; 0x10000000
     3ac:	01060a05 	tsteq	r6, r5, lsl #20
     3b0:	052e0805 	streq	r0, [lr, #-2053]!	; 0xfffff7fb
     3b4:	15054d0e 	strne	r4, [r5, #-3342]	; 0xfffff2f2
     3b8:	01040200 	mrseq	r0, R12_usr
     3bc:	05052e06 	streq	r2, [r5, #-3590]	; 0xfffff1fa
     3c0:	01040200 	mrseq	r0, R12_usr
     3c4:	09050106 	stmdbeq	r5, {r1, r2, r8}
     3c8:	13054c06 	movwne	r4, #23558	; 0x5c06
     3cc:	0c050106 	stfeqs	f0, [r5], {6}
     3d0:	060d054a 	streq	r0, [sp], -sl, asr #10
     3d4:	1409054c 	strne	r0, [r9], #-1356	; 0xfffffab4
     3d8:	01062205 	tsteq	r6, r5, lsl #4
     3dc:	052e3105 	streq	r3, [lr, #-261]!	; 0xfffffefb
     3e0:	0c052e0d 	stceq	14, cr2, [r5], {13}
     3e4:	000d052e 	andeq	r0, sp, lr, lsr #10
     3e8:	06020402 	streq	r0, [r2], -r2, lsl #8
     3ec:	0029054c 	eoreq	r0, r9, ip, asr #10
     3f0:	03020402 	movweq	r0, #9218	; 0x2402
     3f4:	2a050178 	bcs	1409dc <__bss_end__+0x1356e4>
     3f8:	02040200 	andeq	r0, r4, #0, 4
     3fc:	02000106 	andeq	r0, r0, #-2147483647	; 0x80000001
     400:	002e0204 	eoreq	r0, lr, r4, lsl #4
     404:	2e020402 	cdpcs	4, 0, cr0, cr2, cr2, {0}
     408:	10060905 	andne	r0, r6, r5, lsl #18
     40c:	669e2e01 	ldrvs	r2, [lr], r1, lsl #28
     410:	01340d05 	teqeq	r4, r5, lsl #26
     414:	324a9e2e 	subcc	r9, sl, #736	; 0x2e0
     418:	4a9e2e01 	bmi	fe78bc24 <__bss_end__+0xfe78092c>
     41c:	0e052e06 	cdpeq	14, 0, cr2, cr5, cr6, {0}
     420:	00150517 	andseq	r0, r5, r7, lsl r5
     424:	06010402 	streq	r0, [r1], -r2, lsl #8
     428:	001a052e 	andseq	r0, sl, lr, lsr #10
     42c:	06010402 	streq	r0, [r1], -r2, lsl #8
     430:	00050501 	andeq	r0, r5, r1, lsl #10
     434:	2e010402 	cdpcs	4, 0, cr0, cr1, cr2, {0}
     438:	02000905 	andeq	r0, r0, #81920	; 0x14000
     43c:	30060304 	andcc	r0, r6, r4, lsl #6
     440:	02001d05 	andeq	r1, r0, #320	; 0x140
     444:	01060304 	tsteq	r6, r4, lsl #6
     448:	02002a05 	andeq	r2, r0, #20480	; 0x5000
     44c:	48060304 	stmdami	r6, {r2, r8, r9}
     450:	02002b05 	andeq	r2, r0, #5120	; 0x1400
     454:	01060304 	tsteq	r6, r4, lsl #6
     458:	03040200 	movweq	r0, #16896	; 0x4200
     45c:	0402002e 	streq	r0, [r2], #-46	; 0xffffffd2
     460:	05052e03 	streq	r2, [r5, #-3587]	; 0xfffff1fd
     464:	0e051706 	cdpeq	7, 0, cr1, cr5, cr6, {0}
     468:	052e0106 	streq	r0, [lr, #-262]!	; 0xfffffefa
     46c:	052f0605 	streq	r0, [pc, #-1541]!	; fffffe6f <__bss_end__+0xffff4b77>
     470:	2e010611 	mcrcs	6, 0, r0, cr1, cr1, {0}
     474:	4a670105 	bmi	19c0890 <__bss_end__+0x19b5598>
     478:	065b0806 	ldrbeq	r0, [fp], -r6, lsl #16
     47c:	06050501 	streq	r0, [r5], -r1, lsl #10
     480:	06080567 	streq	r0, [r8], -r7, ror #10
     484:	00300501 	eorseq	r0, r0, r1, lsl #10
     488:	66010402 	strvs	r0, [r1], -r2, lsl #8
     48c:	02002405 	andeq	r2, r0, #83886080	; 0x5000000
     490:	054a0104 	strbeq	r0, [sl, #-260]	; 0xfffffefc
     494:	054e0605 	strbeq	r0, [lr, #-1541]	; 0xfffff9fb
     498:	0501062b 	streq	r0, [r1, #-1579]	; 0xfffff9d5
     49c:	0c052e33 	stceq	14, cr2, [r5], {51}	; 0x33
     4a0:	2c10052e 	cfldr32cs	mvfx0, [r0], {46}	; 0x2e
     4a4:	01052e2e 	tsteq	r5, lr, lsr #28
     4a8:	a8030631 	stmdage	r3, {r0, r4, r5, r9, sl}
     4ac:	0620087f 			; <UNDEFINED> instruction: 0x0620087f
     4b0:	06050501 	streq	r0, [r5], -r1, lsl #10
     4b4:	06130584 	ldreq	r0, [r3], -r4, lsl #11
     4b8:	06050501 	streq	r0, [r5], -r1, lsl #10
     4bc:	0608052f 	streq	r0, [r8], -pc, lsr #10
     4c0:	00110501 	andseq	r0, r1, r1, lsl #10
     4c4:	4a010402 	bmi	414d4 <__bss_end__+0x361dc>
     4c8:	02001605 	andeq	r1, r0, #5242880	; 0x500000
     4cc:	052e0104 	streq	r0, [lr, #-260]!	; 0xfffffefc
     4d0:	0402000d 	streq	r0, [r2], #-13
     4d4:	2a052e01 	bcs	14bce0 <__bss_end__+0x1409e8>
     4d8:	02040200 	andeq	r0, r4, #0, 4
     4dc:	0402004a 	streq	r0, [r2], #-74	; 0xffffffb6
     4e0:	27054a02 	strcs	r4, [r5, -r2, lsl #20]
     4e4:	02040200 	andeq	r0, r4, #0, 4
     4e8:	0301052e 	movweq	r0, #5422	; 0x152e
     4ec:	0c054a13 			; <UNDEFINED> instruction: 0x0c054a13
     4f0:	4a4a7203 	bmi	129cd04 <__bss_end__+0x1291a0c>
     4f4:	03060105 	movweq	r0, #24837	; 0x6105
     4f8:	069e00d6 			; <UNDEFINED> instruction: 0x069e00d6
     4fc:	0505ba01 	streq	fp, [r5, #-2561]	; 0xfffff5ff
     500:	05132f06 	ldreq	r2, [r3, #-3846]	; 0xfffff0fa
     504:	2e010610 	mcrcs	6, 0, r0, cr1, cr0, {0}
     508:	0605052e 	streq	r0, [r5], -lr, lsr #10
     50c:	06240530 			; <UNDEFINED> instruction: 0x06240530
     510:	4a0b0501 	bmi	2c191c <__bss_end__+0x2b6624>
     514:	2f060505 	svccs	0x00060505
     518:	01060d05 	tsteq	r6, r5, lsl #26
     51c:	054a0805 	strbeq	r0, [sl, #-2053]	; 0xfffff7fb
     520:	85510605 	ldrbhi	r0, [r1, #-1541]	; 0xfffff9fb
     524:	05010a05 	streq	r0, [r1, #-2565]	; 0xfffff5fb
     528:	0501060e 	streq	r0, [r1, #-1550]	; 0xfffff9f2
     52c:	04020015 	streq	r0, [r2], #-21	; 0xffffffeb
     530:	052e0601 	streq	r0, [lr, #-1537]!	; 0xfffff9ff
     534:	04020005 	streq	r0, [r2], #-5
     538:	05010601 	streq	r0, [r1, #-1537]	; 0xfffff9ff
     53c:	04020009 	streq	r0, [r2], #-9
     540:	054c0603 	strbeq	r0, [ip, #-1539]	; 0xfffff9fd
     544:	04020013 	streq	r0, [r2], #-19	; 0xffffffed
     548:	05010603 	streq	r0, [r1, #-1539]	; 0xfffff9fd
     54c:	04020009 	streq	r0, [r2], #-9
     550:	05670603 	strbeq	r0, [r7, #-1539]!	; 0xfffff9fd
     554:	04020026 	streq	r0, [r2], #-38	; 0xffffffda
     558:	05010603 	streq	r0, [r1, #-1539]	; 0xfffff9fd
     55c:	0402002b 	streq	r0, [r2], #-43	; 0xffffffd5
     560:	29054a03 	stmdbcs	r5, {r0, r1, r9, fp, lr}
     564:	03040200 	movweq	r0, #16896	; 0x4200
     568:	2a052b06 	bcs	14b188 <__bss_end__+0x13fe90>
     56c:	03040200 	movweq	r0, #16896	; 0x4200
     570:	02000106 	andeq	r0, r0, #-2147483647	; 0x80000001
     574:	002e0304 	eoreq	r0, lr, r4, lsl #6
     578:	2e030402 	cdpcs	4, 0, cr0, cr3, cr2, {0}
     57c:	03060905 	movweq	r0, #26885	; 0x6905
     580:	0f050177 	svceq	0x00050177
     584:	09050106 	stmdbeq	r5, {r1, r2, r8}
     588:	66066706 	strvs	r6, [r6], -r6, lsl #14
     58c:	12052f06 	andne	r2, r5, #6, 30
     590:	05660106 	strbeq	r0, [r6, #-262]!	; 0xfffffefa
     594:	0d030605 	stceq	6, cr0, [r3, #-20]	; 0xffffffec
     598:	06150501 	ldreq	r0, [r5], -r1, lsl #10
     59c:	06050501 	streq	r0, [r5], -r1, lsl #10
     5a0:	060e052f 	streq	r0, [lr], -pc, lsr #10
     5a4:	05052e01 	streq	r2, [r5, #-3585]	; 0xfffff1ff
     5a8:	12052f06 	andne	r2, r5, #6, 30
     5ac:	05050106 	streq	r0, [r5, #-262]	; 0xfffffefa
     5b0:	9e018406 	cdpls	4, 0, cr8, cr1, cr6, {0}
     5b4:	0a05149e 	beq	145834 <__bss_end__+0x13a53c>
     5b8:	060e0501 	streq	r0, [lr], -r1, lsl #10
     5bc:	00150501 	andseq	r0, r5, r1, lsl #10
     5c0:	06010402 	streq	r0, [r1], -r2, lsl #8
     5c4:	0005052e 	andeq	r0, r5, lr, lsr #10
     5c8:	06010402 	streq	r0, [r1], -r2, lsl #8
     5cc:	00090501 	andeq	r0, r9, r1, lsl #10
     5d0:	06030402 	streq	r0, [r3], -r2, lsl #8
     5d4:	0017054c 	andseq	r0, r7, ip, asr #10
     5d8:	06030402 	streq	r0, [r3], -r2, lsl #8
     5dc:	00090501 	andeq	r0, r9, r1, lsl #10
     5e0:	06030402 	streq	r0, [r3], -r2, lsl #8
     5e4:	000e0567 	andeq	r0, lr, r7, ror #10
     5e8:	06030402 	streq	r0, [r3], -r2, lsl #8
     5ec:	00220501 	eoreq	r0, r2, r1, lsl #10
     5f0:	06030402 	streq	r0, [r3], -r2, lsl #8
     5f4:	0024052b 	eoreq	r0, r4, fp, lsr #10
     5f8:	06030402 	streq	r0, [r3], -r2, lsl #8
     5fc:	04020001 	streq	r0, [r2], #-1
     600:	02002e03 	andeq	r2, r0, #3, 28	; 0x30
     604:	052e0304 	streq	r0, [lr, #-772]!	; 0xfffffcfc
     608:	05180605 	ldreq	r0, [r8, #-1541]	; 0xfffff9fb
     60c:	0501060d 	streq	r0, [r1, #-1549]	; 0xfffff9f3
     610:	05670605 	strbeq	r0, [r7, #-1541]!	; 0xfffff9fb
     614:	05010610 	streq	r0, [r1, #-1552]	; 0xfffff9f0
     618:	05300605 	ldreq	r0, [r0, #-1541]!	; 0xfffff9fb
     61c:	66140601 	ldrvs	r0, [r4], -r1, lsl #12
     620:	01000802 	tsteq	r0, r2, lsl #16
     624:	00022801 	andeq	r2, r2, r1, lsl #16
     628:	64000300 	strvs	r0, [r0], #-768	; 0xfffffd00
     62c:	02000000 	andeq	r0, r0, #0, 0
     630:	0d0efb01 	vstreq	d15, [lr, #-4]
     634:	01010100 	mrseq	r0, (UNDEF: 17)
     638:	00000001 	andeq	r0, r0, r1
     63c:	01000001 	tsteq	r0, r1
     640:	6573552f 	ldrbvs	r5, [r3, #-1327]!	; 0xfffffad1
     644:	6d2f7372 	stcvs	3, cr7, [pc, #-456]!	; 484 <__code_start__-0x7b7c>
     648:	73656c69 	cmnvc	r5, #26880	; 0x6900
     64c:	756f532f 	strbvc	r5, [pc, #-815]!	; 325 <__code_start__-0x7cdb>
     650:	2f656372 	svccs	0x00656372
     654:	34327363 	ldrtcc	r7, [r2], #-867	; 0xfffffc9d
     658:	2f786c30 	svccs	0x00786c30
     65c:	7062696c 	rsbvc	r6, r2, ip, ror #18
     660:	6e692f69 	cdpvs	15, 6, cr2, cr9, cr9, {3}
     664:	64756c63 	ldrbtvs	r6, [r5], #-3171	; 0xfffff39d
     668:	6b000065 	blvs	804 <__code_start__-0x77fc>
     66c:	616d2d72 	smcvs	53970	; 0xd2d2
     670:	636f6c6c 	cmnvs	pc, #108, 24	; 0x6c00
     674:	0000632e 	andeq	r6, r0, lr, lsr #6
     678:	70720000 	rsbsvc	r0, r2, r0
     67c:	00682e69 	rsbeq	r2, r8, r9, ror #28
     680:	6b000001 	blvs	68c <__code_start__-0x7974>
     684:	616d2d72 	smcvs	53970	; 0xd2d2
     688:	636f6c6c 	cmnvs	pc, #108, 24	; 0x6c00
     68c:	0000682e 	andeq	r6, r0, lr, lsr #16
     690:	05000000 	streq	r0, [r0, #-0]
     694:	02050001 	andeq	r0, r5, #1, 0
     698:	00008678 	andeq	r8, r0, r8, ror r6
     69c:	0100d303 	tsteq	r0, r3, lsl #6
     6a0:	02050106 	andeq	r0, r5, #-2147483647	; 0x80000001
     6a4:	05136706 	ldreq	r6, [r3, #-1798]	; 0xfffff8fa
     6a8:	05010605 	streq	r0, [r1, #-1541]	; 0xfffff9fb
     6ac:	052f0602 	streq	r0, [pc, #-1538]!	; b2 <__code_start__-0x7f4e>
     6b0:	05010609 	streq	r0, [r1, #-1545]	; 0xfffff9f7
     6b4:	052e4a02 	streq	r4, [lr, #-2562]!	; 0xfffff5fe
     6b8:	04020012 	streq	r0, [r2], #-18	; 0xffffffee
     6bc:	052e0601 	streq	r0, [lr, #-1537]!	; 0xfffff9ff
     6c0:	04020002 	streq	r0, [r2], #-2
     6c4:	05010601 	streq	r0, [r1, #-1537]	; 0xfffff9ff
     6c8:	04020027 	streq	r0, [r2], #-39	; 0xffffffd9
     6cc:	12054a03 	andne	r4, r5, #12288	; 0x3000
     6d0:	03040200 	movweq	r0, #16896	; 0x4200
     6d4:	0603052e 	streq	r0, [r3], -lr, lsr #10
     6d8:	0610054b 	ldreq	r0, [r0], -fp, asr #10
     6dc:	2e060501 	cfsh32cs	mvfx0, mvfx6, #1
     6e0:	02001505 	andeq	r1, r0, #20971520	; 0x1400000
     6e4:	054a0104 	strbeq	r0, [sl, #-260]	; 0xfffffefc
     6e8:	04020020 	streq	r0, [r2], #-32	; 0xffffffe0
     6ec:	02004a02 	andeq	r4, r0, #8192	; 0x2000
     6f0:	054a0204 	strbeq	r0, [sl, #-516]	; 0xfffffdfc
     6f4:	05300602 	ldreq	r0, [r0, #-1538]!	; 0xfffff9fe
     6f8:	05010610 	streq	r0, [r1, #-1552]	; 0xfffff9f0
     6fc:	1d052e09 	stcne	14, cr2, [r5, #-36]	; 0xffffffdc
     700:	2e05052e 	cfsh32cs	mvfx0, mvfx5, #30
     704:	50060305 	andpl	r0, r6, r5, lsl #6
     708:	01060d05 	tsteq	r6, r5, lsl #26
     70c:	2f060205 	svccs	0x00060205
     710:	01060e05 	tsteq	r6, r5, lsl #28
     714:	052e0805 	streq	r0, [lr, #-2053]!	; 0xfffff7fb
     718:	03052e05 	movweq	r2, #24069	; 0x5e05
     71c:	0c055006 	stceq	0, cr5, [r5], {6}
     720:	02050106 	andeq	r0, r5, #-2147483647	; 0x80000001
     724:	08052f06 	stmdaeq	r5, {r1, r2, r8, r9, sl, fp, sp}
     728:	01050106 	tsteq	r5, r6, lsl #2
     72c:	0603054b 	streq	r0, [r3], -fp, asr #10
     730:	052e7303 	streq	r7, [lr, #-771]!	; 0xfffffcfd
     734:	0501061c 	streq	r0, [r1, #-1564]	; 0xfffff9e4
     738:	03052e0e 	movweq	r2, #24078	; 0x5e0e
     73c:	13054b06 	movwne	r4, #23302	; 0x5b06
     740:	1a050106 	bne	140b60 <__bss_end__+0x135868>
     744:	2e0d052e 	cfsh32cs	mvfx0, mvfx13, #30
     748:	50060305 	andpl	r0, r6, r5, lsl #6
     74c:	01061505 	tsteq	r6, r5, lsl #10
     750:	052e0d05 	streq	r0, [lr, #-3333]!	; 0xfffff2fb
     754:	054b0603 	strbeq	r0, [fp, #-1539]	; 0xfffff9fd
     758:	05010613 	streq	r0, [r1, #-1555]	; 0xfffff9ed
     75c:	01052e0c 	tsteq	r5, ip, lsl #28
     760:	7fb90306 	svcvc	0x00b90306
     764:	050106d6 	streq	r0, [r1, #-1750]	; 0xfffff92a
     768:	05830602 	streq	r0, [r3, #1538]	; 0x602
     76c:	05010605 	streq	r0, [r1, #-1541]	; 0xfffff9fb
     770:	02052f06 	andeq	r2, r5, #6, 30
     774:	05672f06 	strbeq	r2, [r7, #-3846]!	; 0xfffff0fa
     778:	0501060d 	streq	r0, [r1, #-1549]	; 0xfffff9f3
     77c:	054b0602 	strbeq	r0, [fp, #-1538]	; 0xfffff9fe
     780:	05010605 	streq	r0, [r1, #-1541]	; 0xfffff9fb
     784:	134c0602 	movtne	r0, #50690	; 0xc602
     788:	01060d05 	tsteq	r6, r5, lsl #26
     78c:	2f060205 	svccs	0x00060205
     790:	2f062e06 	svccs	0x00062e06
     794:	01060905 	tsteq	r6, r5, lsl #18
     798:	05620a05 	strbeq	r0, [r2, #-2565]!	; 0xfffff5fb
     79c:	da063301 	ble	18d3a8 <__bss_end__+0x1820b0>
     7a0:	02050106 	andeq	r0, r5, #-2147483647	; 0x80000001
     7a4:	14136706 	ldrne	r6, [r3], #-1798	; 0xfffff8fa
     7a8:	01062405 	tsteq	r6, r5, lsl #8
     7ac:	052e2905 	streq	r2, [lr, #-2309]!	; 0xfffff6fb
     7b0:	02052e09 	andeq	r2, r5, #144	; 0x90
     7b4:	0d052f06 	stceq	15, cr2, [r5, #-24]	; 0xffffffe8
     7b8:	05050106 	streq	r0, [r5, #-262]	; 0xfffffefa
     7bc:	0602054a 	streq	r0, [r2], -sl, asr #10
     7c0:	06090550 			; <UNDEFINED> instruction: 0x06090550
     7c4:	03052e01 	movweq	r2, #24065	; 0x5e01
     7c8:	16052a06 	strne	r2, [r5], -r6, lsl #20
     7cc:	0e050106 	adfeqs	f0, f5, f6
     7d0:	0603054a 	streq	r0, [r3], -sl, asr #10
     7d4:	060f052f 	streq	r0, [pc], -pc, lsr #10
     7d8:	06040501 	streq	r0, [r4], -r1, lsl #10
     7dc:	0607056d 	streq	r0, [r7], -sp, ror #10
     7e0:	06050501 	streq	r0, [r5], -r1, lsl #10
     7e4:	060f0534 			; <UNDEFINED> instruction: 0x060f0534
     7e8:	06050501 	streq	r0, [r5], -r1, lsl #10
     7ec:	0607054b 	streq	r0, [r7], -fp, asr #10
     7f0:	06050501 	streq	r0, [r5], -r1, lsl #10
     7f4:	060f052f 	streq	r0, [pc], -pc, lsr #10
     7f8:	06040501 	streq	r0, [r4], -r1, lsl #10
     7fc:	060a0530 			; <UNDEFINED> instruction: 0x060a0530
     800:	06040501 	streq	r0, [r4], -r1, lsl #10
     804:	060b054b 	streq	r0, [fp], -fp, asr #10
     808:	05052e01 	streq	r2, [r5, #-3585]	; 0xfffff1ff
     80c:	2e770306 	cdpcs	3, 7, cr0, cr7, cr6, {0}
     810:	01061805 	tsteq	r6, r5, lsl #16
     814:	052e1205 	streq	r1, [lr, #-517]!	; 0xfffffdfb
     818:	7a03061a 	bvc	c2088 <__bss_end__+0xb6d90>
     81c:	0118054a 	tsteq	r8, sl, asr #10
     820:	01062005 	tsteq	r6, r5
     824:	052e2705 	streq	r2, [lr, #-1797]!	; 0xfffff8fb
     828:	05300603 	ldreq	r0, [r0, #-1539]!	; 0xfffff9fd
     82c:	0501060b 	streq	r0, [r1, #-1547]	; 0xfffff9f5
     830:	03052e06 	movweq	r2, #24070	; 0x5e06
     834:	4a0f0306 	bmi	3c1454 <__bss_end__+0x3b615c>
     838:	01060905 	tsteq	r6, r5, lsl #18
     83c:	054a0605 	strbeq	r0, [sl, #-1541]	; 0xfffff9fb
     840:	054c0604 	strbeq	r0, [ip, #-1540]	; 0xfffff9fc
     844:	2e01060d 	cfmadd32cs	mvax0, mvfx0, mvfx1, mvfx13
     848:	2e2e0705 	cdpcs	7, 2, cr0, cr14, cr5, {0}
     84c:	01000602 	tsteq	r0, r2, lsl #12
     850:	00053801 	andeq	r3, r5, r1, lsl #16
     854:	d4000300 	strle	r0, [r0], #-768	; 0xfffffd00
     858:	02000000 	andeq	r0, r0, #0, 0
     85c:	0d0efb01 	vstreq	d15, [lr, #-4]
     860:	01010100 	mrseq	r0, (UNDEF: 17)
     864:	00000001 	andeq	r0, r0, r1
     868:	01000001 	tsteq	r0, r1
     86c:	74706f2f 	ldrbtvc	r6, [r0], #-3887	; 0xfffff0d1
     870:	6d6f682f 	stclvs	8, cr6, [pc, #-188]!	; 7bc <__code_start__-0x7844>
     874:	65726265 	ldrbvs	r6, [r2, #-613]!	; 0xfffffd9b
     878:	65432f77 	strbvs	r2, [r3, #-3959]	; 0xfffff089
     87c:	72616c6c 	rsbvc	r6, r1, #108, 24	; 0x6c00
     880:	6d72612f 	ldfvse	f6, [r2, #-188]!	; 0xffffff44
     884:	6e6f6e2d 	cdpvs	14, 6, cr6, cr15, cr13, {1}
     888:	61652d65 	cmnvs	r5, r5, ror #26
     88c:	392d6962 	pushcc	{r1, r5, r6, r8, fp, sp, lr}
     890:	322d392f 	eorcc	r3, sp, #770048	; 0xbc000
     894:	71393130 	teqvc	r9, r0, lsr r1
     898:	73632d34 	cmnvc	r3, #52, 26	; 0xd00
     89c:	65373031 	ldrvs	r3, [r7, #-49]!	; 0xffffffcf
     8a0:	62696c2f 	rsbvs	r6, r9, #12032	; 0x2f00
     8a4:	6363672f 	cmnvs	r3, #12320768	; 0xbc0000
     8a8:	6d72612f 	ldfvse	f6, [r2, #-188]!	; 0xffffff44
     8ac:	6e6f6e2d 	cdpvs	14, 6, cr6, cr15, cr13, {1}
     8b0:	61652d65 	cmnvs	r5, r5, ror #26
     8b4:	392f6962 	stmdbcc	pc!, {r1, r5, r6, r8, fp, sp, lr}	; <UNPREDICTABLE>
     8b8:	312e322e 			; <UNDEFINED> instruction: 0x312e322e
     8bc:	636e692f 	cmnvs	lr, #770048	; 0xbc000
     8c0:	6564756c 	strbvs	r7, [r4, #-1388]!	; 0xfffffa94
     8c4:	73552f00 	cmpvc	r5, #0, 30
     8c8:	2f737265 	svccs	0x00737265
     8cc:	656c696d 	strbvs	r6, [ip, #-2413]!	; 0xfffff693
     8d0:	6f532f73 	svcvs	0x00532f73
     8d4:	65637275 	strbvs	r7, [r3, #-629]!	; 0xfffffd8b
     8d8:	3273632f 	rsbscc	r6, r3, #-1140850688	; 0xbc000000
     8dc:	786c3034 	stmdavc	ip!, {r2, r4, r5, ip, sp}^
     8e0:	62696c2f 	rsbvs	r6, r9, #12032	; 0x2f00
     8e4:	692f6970 	stmdbvs	pc!, {r4, r5, r6, r8, fp, sp, lr}	; <UNPREDICTABLE>
     8e8:	756c636e 	strbvc	r6, [ip, #-878]!	; 0xfffffc92
     8ec:	00006564 	andeq	r6, r0, r4, ror #10
     8f0:	672d6b63 	strvs	r6, [sp, -r3, ror #22]!
     8f4:	00632e63 	rsbeq	r2, r3, r3, ror #28
     8f8:	73000000 	movwvc	r0, #0
     8fc:	6c2d6372 	stcvs	3, cr6, [sp], #-456	; 0xfffffe38
     900:	682e636f 	stmdavs	lr!, {r0, r1, r2, r3, r5, r6, r8, r9, sp, lr}
     904:	00000000 	andeq	r0, r0, r0
     908:	69647473 	stmdbvs	r4!, {r0, r1, r4, r5, r6, sl, ip, sp, lr}^
     90c:	672d746e 	strvs	r7, [sp, -lr, ror #8]!
     910:	682e6363 	stmdavs	lr!, {r0, r1, r5, r6, r8, r9, sp, lr}
     914:	00000100 	andeq	r0, r0, r0, lsl #2
     918:	2e697072 	mcrcs	0, 3, r7, cr9, cr2, {3}
     91c:	00020068 	andeq	r0, r2, r8, rrx
     920:	616b6300 	cmnvs	fp, r0, lsl #6
     924:	636f6c6c 	cmnvs	pc, #108, 24	; 0x6c00
     928:	0000682e 	andeq	r6, r0, lr, lsr #16
     92c:	05000000 	streq	r0, [r0, #-0]
     930:	02050001 	andeq	r0, r5, #1, 0
     934:	00008878 	andeq	r8, r0, r8, ror r8
     938:	06012b03 	streq	r2, [r1], -r3, lsl #22
     93c:	06050501 	streq	r0, [r5], -r1, lsl #10
     940:	060b0568 	streq	r0, [fp], -r8, ror #10
     944:	4a080501 	bmi	201d50 <__bss_end__+0x1f6a58>
     948:	02001d05 	andeq	r1, r0, #320	; 0x140
     94c:	054a0104 	strbeq	r0, [sl, #-260]	; 0xfffffefc
     950:	04020018 	streq	r0, [r2], #-24	; 0xffffffe8
     954:	0c054a01 			; <UNDEFINED> instruction: 0x0c054a01
     958:	10052e4d 	andne	r2, r5, sp, asr #28
     95c:	052e2e2c 	streq	r2, [lr, #-3628]!	; 0xfffff1d4
     960:	03063101 	movweq	r3, #24833	; 0x6101
     964:	01069e0b 	tsteq	r6, fp, lsl #28
     968:	83060505 	movwhi	r0, #25861	; 0x6505
     96c:	060a0514 			; <UNDEFINED> instruction: 0x060a0514
     970:	2e080501 	cfsh32cs	mvfx0, mvfx8, #1
     974:	4c060505 	cfstr32mi	mvfx0, [r6], {5}
     978:	01060c05 	tsteq	r6, r5, lsl #24
     97c:	05651005 	strbeq	r1, [r5, #-5]!
     980:	03063001 	movweq	r3, #24577	; 0x6001
     984:	0106820e 	tsteq	r6, lr, lsl #4
     988:	83060505 	movwhi	r0, #25861	; 0x6505
     98c:	04020001 	streq	r0, [r2], #-1
     990:	02008202 	andeq	r8, r0, #536870912	; 0x20000000
     994:	00010204 	andeq	r0, r1, r4, lsl #4
     998:	15020402 	strne	r0, [r2, #-1026]	; 0xfffffbfe
     99c:	02040200 	andeq	r0, r4, #0, 4
     9a0:	04020001 	streq	r0, [r2], #-1
     9a4:	02004a02 	andeq	r4, r0, #8192	; 0x2000
     9a8:	00010204 	andeq	r0, r1, r4, lsl #4
     9ac:	13020402 	movwne	r0, #9218	; 0x2402
     9b0:	02040200 	andeq	r0, r4, #0, 4
     9b4:	04020001 	streq	r0, [r2], #-1
     9b8:	02004a01 	andeq	r4, r0, #4096	; 0x1000
     9bc:	00010104 	andeq	r0, r1, r4, lsl #2
     9c0:	06010402 	streq	r0, [r1], -r2, lsl #8
     9c4:	0402009e 	streq	r0, [r2], #-158	; 0xffffff62
     9c8:	02002e01 	andeq	r2, r0, #1, 28
     9cc:	2e060104 	adfcss	f0, f6, f4
     9d0:	01040200 	mrseq	r0, R12_usr
     9d4:	0402002a 	streq	r0, [r2], #-42	; 0xffffffd6
     9d8:	02000101 	andeq	r0, r0, #1073741824	; 0x40000000
     9dc:	9e060104 	adflss	f0, f6, f4
     9e0:	01040200 	mrseq	r0, R12_usr
     9e4:	0402002e 	streq	r0, [r2], #-46	; 0xffffffd2
     9e8:	002e0601 	eoreq	r0, lr, r1, lsl #12
     9ec:	31010402 	tstcc	r1, r2, lsl #8
     9f0:	01040200 	mrseq	r0, R12_usr
     9f4:	04020001 	streq	r0, [r2], #-1
     9f8:	009e0601 	addseq	r0, lr, r1, lsl #12
     9fc:	2e010402 	cdpcs	4, 0, cr0, cr1, cr2, {0}
     a00:	01040200 	mrseq	r0, R12_usr
     a04:	19052e06 	stmdbne	r5, {r1, r2, r9, sl, fp, sp}
     a08:	2e0d0306 	cdpcs	3, 0, cr0, cr13, cr6, {0}
     a0c:	04040200 	streq	r0, [r4], #-512	; 0xfffffe00
     a10:	0011052e 	andseq	r0, r1, lr, lsr #10
     a14:	06040402 	streq	r0, [r4], -r2, lsl #8
     a18:	00140532 	andseq	r0, r4, r2, lsr r5
     a1c:	06040402 	streq	r0, [r4], -r2, lsl #8
     a20:	000d0501 	andeq	r0, sp, r1, lsl #10
     a24:	06020402 	streq	r0, [r2], -r2, lsl #8
     a28:	00230552 	eoreq	r0, r3, r2, asr r5
     a2c:	03020402 	movweq	r0, #9218	; 0x2402
     a30:	2405016a 	strcs	r0, [r5], #-362	; 0xfffffe96
     a34:	02040200 	andeq	r0, r4, #0, 4
     a38:	1b050106 	blne	140e58 <__bss_end__+0x135b60>
     a3c:	01040200 	mrseq	r0, R12_usr
     a40:	05052e06 	streq	r2, [r5, #-3590]	; 0xfffff1fa
     a44:	01040200 	mrseq	r0, R12_usr
     a48:	09050106 	stmdbeq	r5, {r1, r2, r8}
     a4c:	14054c06 	strne	r4, [r5], #-3078	; 0xfffff3fa
     a50:	09050106 	stmdbeq	r5, {r1, r2, r8}
     a54:	0c054b06 			; <UNDEFINED> instruction: 0x0c054b06
     a58:	052e0106 	streq	r0, [lr, #-262]!	; 0xfffffefa
     a5c:	0530060d 	ldreq	r0, [r0, #-1549]!	; 0xfffff9f3
     a60:	05010629 	streq	r0, [r1, #-1577]	; 0xfffff9d7
     a64:	052f060d 	streq	r0, [pc, #-1549]!	; 45f <__code_start__-0x7ba1>
     a68:	05010616 	streq	r0, [r1, #-1558]	; 0xfffff9ea
     a6c:	0530060d 	ldreq	r0, [r0, #-1549]!	; 0xfffff9f3
     a70:	05010610 	streq	r0, [r1, #-1552]	; 0xfffff9f0
     a74:	054c0611 	strbeq	r0, [ip, #-1553]	; 0xfffff9ef
     a78:	0501061c 	streq	r0, [r1, #-1564]	; 0xfffff9e4
     a7c:	05662e19 	strbeq	r2, [r6, #-3609]!	; 0xfffff1e7
     a80:	05340615 	ldreq	r0, [r4, #-1557]!	; 0xfffff9eb
     a84:	0501064d 	streq	r0, [r1, #-1613]	; 0xfffff9b3
     a88:	2e662e15 	mcrcs	14, 3, r2, cr6, cr5, {0}
     a8c:	0301052e 	movweq	r0, #5422	; 0x152e
     a90:	064a0109 	strbeq	r0, [sl], -r9, lsl #2
     a94:	3c080903 			; <UNDEFINED> instruction: 0x3c080903
     a98:	05860505 	streq	r0, [r6, #1285]	; 0x505
     a9c:	1505010a 	strne	r0, [r5, #-266]	; 0xfffffef6
     aa0:	25050106 	strcs	r0, [r5, #-262]	; 0xfffffefa
     aa4:	01040200 	mrseq	r0, R12_usr
     aa8:	05052e06 	streq	r2, [r5, #-3590]	; 0xfffff1fa
     aac:	01040200 	mrseq	r0, R12_usr
     ab0:	09050106 	stmdbeq	r5, {r1, r2, r8}
     ab4:	03040200 	movweq	r0, #16896	; 0x4200
     ab8:	32054c06 	andcc	r4, r5, #1536	; 0x600
     abc:	03040200 	movweq	r0, #16896	; 0x4200
     ac0:	21050106 	tstcs	r5, r6, lsl #2
     ac4:	03040200 	movweq	r0, #16896	; 0x4200
     ac8:	0011054a 	andseq	r0, r1, sl, asr #10
     acc:	2e030402 	cdpcs	4, 0, cr0, cr3, cr2, {0}
     ad0:	02002805 	andeq	r2, r0, #327680	; 0x50000
     ad4:	2c060304 	stccs	3, cr0, [r6], {4}
     ad8:	02002c05 	andeq	r2, r0, #1280	; 0x500
     adc:	01060304 	tsteq	r6, r4, lsl #6
     ae0:	03040200 	movweq	r0, #16896	; 0x4200
     ae4:	0402002e 	streq	r0, [r2], #-46	; 0xffffffd2
     ae8:	05052e03 	streq	r2, [r5, #-3587]	; 0xfffff1fd
     aec:	06131906 	ldreq	r1, [r3], -r6, lsl #18
     af0:	0530062e 	ldreq	r0, [r0, #-1582]!	; 0xfffff9d2
     af4:	0501060d 	streq	r0, [r1, #-1549]	; 0xfffff9f3
     af8:	054b0605 	strbeq	r0, [fp, #-1541]	; 0xfffff9fb
     afc:	0501060d 	streq	r0, [r1, #-1549]	; 0xfffff9f3
     b00:	052f0605 	streq	r0, [pc, #-1541]!	; 503 <__code_start__-0x7afd>
     b04:	0501060d 	streq	r0, [r1, #-1549]	; 0xfffff9f3
     b08:	052f0605 	streq	r0, [pc, #-1541]!	; 50b <__code_start__-0x7af5>
     b0c:	0501060d 	streq	r0, [r1, #-1549]	; 0xfffff9f3
     b10:	6a350605 	bvs	d4232c <__bss_end__+0xd37034>
     b14:	13698313 	cmnne	r9, #1275068416	; 0x4c000000
     b18:	01051368 	tsteq	r5, r8, ror #6
     b1c:	08066706 	stmdaeq	r6, {r1, r2, r8, r9, sl, sp, lr}
     b20:	0501065e 	streq	r0, [r1, #-1630]	; 0xfffff9a2
     b24:	13830605 	orrne	r0, r3, #5242880	; 0x500000
     b28:	2f062e06 	svccs	0x00062e06
     b2c:	0a052f4c 	beq	14c864 <__bss_end__+0x14156c>
     b30:	06150501 	ldreq	r0, [r5], -r1, lsl #10
     b34:	27054a01 	strcs	r4, [r5, -r1, lsl #20]
     b38:	2e1b050d 	cfmul32cs	mvfx0, mvfx11, mvfx13
     b3c:	052e0e05 	streq	r0, [lr, #-3589]!	; 0xfffff1fb
     b40:	0d053305 	stceq	3, cr3, [r5, #-20]	; 0xffffffec
     b44:	2e090306 	cdpcs	3, 0, cr0, cr9, cr6, {0}
     b48:	01061305 	tsteq	r6, r5, lsl #6
     b4c:	2f060d05 	svccs	0x00060d05
     b50:	28056606 	stmdacs	r5, {r1, r2, r9, sl, sp, lr}
     b54:	02040200 	andeq	r0, r4, #0, 4
     b58:	2e760306 	cdpcs	3, 7, cr0, cr6, cr6, {0}
     b5c:	02002c05 	andeq	r2, r0, #1280	; 0x500
     b60:	01060204 	tsteq	r6, r4, lsl #4
     b64:	02002505 	andeq	r2, r0, #20971520	; 0x1400000
     b68:	66060104 	strvs	r0, [r6], -r4, lsl #2
     b6c:	02000505 	andeq	r0, r0, #20971520	; 0x1400000
     b70:	01060104 	tsteq	r6, r4, lsl #2
     b74:	4c060905 			; <UNDEFINED> instruction: 0x4c060905
     b78:	01060e05 	tsteq	r6, r5, lsl #28
     b7c:	052e0c05 	streq	r0, [lr, #-3077]!	; 0xfffff3fb
     b80:	054e0609 	strbeq	r0, [lr, #-1545]	; 0xfffff9f7
     b84:	05010610 	streq	r0, [r1, #-1552]	; 0xfffff9f0
     b88:	052f0609 	streq	r0, [pc, #-1545]!	; 587 <__code_start__-0x7a79>
     b8c:	0501060e 	streq	r0, [r1, #-1550]	; 0xfffff9f2
     b90:	0e052e0c 	cdpeq	14, 0, cr2, cr5, cr12, {0}
     b94:	11054f06 	tstne	r5, r6, lsl #30
     b98:	0d050106 	stfeqs	f0, [r5, #-24]	; 0xffffffe8
     b9c:	19054c06 	stmdbne	r5, {r1, r2, sl, fp, lr}
     ba0:	0d050106 	stfeqs	f0, [r5, #-24]	; 0xffffffe8
     ba4:	66062f06 	strvs	r2, [r6], -r6, lsl #30
     ba8:	05052e2e 	streq	r2, [r5, #-3630]	; 0xfffff1d2
     bac:	06011606 	streq	r1, [r1], -r6, lsl #12
     bb0:	132e064a 			; <UNDEFINED> instruction: 0x132e064a
     bb4:	01060805 	tsteq	r6, r5, lsl #16
     bb8:	4b060905 	blmi	182fd4 <__bss_end__+0x177cdc>
     bbc:	02004a01 	andeq	r4, r0, #4096	; 0x1000
     bc0:	05140104 	ldreq	r0, [r4, #-260]	; 0xfffffefc
     bc4:	04020005 	streq	r0, [r2], #-5
     bc8:	02001401 	andeq	r1, r0, #16777216	; 0x1000000
     bcc:	054b0104 	strbeq	r0, [fp, #-260]	; 0xfffffefc
     bd0:	04020008 	streq	r0, [r2], #-8
     bd4:	05010601 	streq	r0, [r1, #-1537]	; 0xfffff9ff
     bd8:	05300609 	ldreq	r0, [r0, #-1545]!	; 0xfffff9f7
     bdc:	05010617 	streq	r0, [r1, #-1559]	; 0xfffff9e9
     be0:	09053401 	stmdbeq	r5, {r0, sl, ip, sp}
     be4:	4a750306 	bmi	1d41804 <__bss_end__+0x1d3650c>
     be8:	03010501 	movweq	r0, #5377	; 0x1501
     bec:	01220235 			; <UNDEFINED> instruction: 0x01220235
     bf0:	13830505 	orrne	r0, r3, #20971520	; 0x1400000
     bf4:	052f4c4b 	streq	r4, [pc, #-3147]!	; ffffffb1 <__bss_end__+0xffff4cb9>
     bf8:	1505010a 	strne	r0, [r5, #-266]	; 0xfffffef6
     bfc:	054a0106 	strbeq	r0, [sl, #-262]	; 0xfffffefa
     c00:	1b050d27 	blne	1440a4 <__bss_end__+0x138dac>
     c04:	2e0e052e 	cfsh32cs	mvfx0, mvfx14, #30
     c08:	05330505 	ldreq	r0, [r3, #-1285]!	; 0xfffffafb
     c0c:	0533060d 	ldreq	r0, [r3, #-1549]!	; 0xfffff9f3
     c10:	05010613 	streq	r0, [r1, #-1555]	; 0xfffff9ed
     c14:	052f060d 	streq	r0, [pc, #-1549]!	; 60f <__code_start__-0x79f1>
     c18:	0501061e 	streq	r0, [r1, #-1566]	; 0xfffff9e2
     c1c:	0d052e1a 	stceq	14, cr2, [r5, #-104]	; 0xffffff98
     c20:	02042f06 	andeq	r2, r4, #6, 30
     c24:	88030b05 	stmdahi	r3, {r0, r2, r8, r9, fp}
     c28:	05052e7e 	streq	r2, [r5, #-3710]	; 0xfffff182
     c2c:	060c0513 			; <UNDEFINED> instruction: 0x060c0513
     c30:	0104ba01 	tsteq	r4, r1, lsl #20
     c34:	f7030d05 			; <UNDEFINED> instruction: 0xf7030d05
     c38:	06660101 	strbteq	r0, [r6], -r1, lsl #2
     c3c:	0028052f 	eoreq	r0, r8, pc, lsr #10
     c40:	03020402 	movweq	r0, #9218	; 0x2402
     c44:	2c056678 	stccs	6, cr6, [r5], {120}	; 0x78
     c48:	02040200 	andeq	r0, r4, #0, 4
     c4c:	25050106 	strcs	r0, [r5, #-262]	; 0xfffffefa
     c50:	01040200 	mrseq	r0, R12_usr
     c54:	05056606 	streq	r6, [r5, #-1542]	; 0xfffff9fa
     c58:	01040200 	mrseq	r0, R12_usr
     c5c:	09050106 	stmdbeq	r5, {r1, r2, r8}
     c60:	10054c06 	andne	r4, r5, r6, lsl #24
     c64:	09050106 	stmdbeq	r5, {r1, r2, r8}
     c68:	0e052f06 	cdpeq	15, 0, cr2, cr5, cr6, {0}
     c6c:	0c050106 	stfeqs	f0, [r5], {6}
     c70:	001e052e 	andseq	r0, lr, lr, lsr #10
     c74:	4a010402 	bmi	41c84 <__bss_end__+0x3698c>
     c78:	02001a05 	andeq	r1, r0, #20480	; 0x5000
     c7c:	002e0104 	eoreq	r0, lr, r4, lsl #2
     c80:	66010402 	strvs	r0, [r1], -r2, lsl #8
     c84:	03060505 	movweq	r0, #25861	; 0x6505
     c88:	06010109 	streq	r0, [r1], -r9, lsl #2
     c8c:	142e0682 	strtne	r0, [lr], #-1666	; 0xfffff97e
     c90:	13060105 	movwne	r0, #24837	; 0x6105
     c94:	87030666 	strhi	r0, [r3, -r6, ror #12]
     c98:	063c087e 			; <UNDEFINED> instruction: 0x063c087e
     c9c:	06050501 	streq	r0, [r5], -r1, lsl #10
     ca0:	00011483 	andeq	r1, r1, r3, lsl #9
     ca4:	4a020402 	bmi	81cb4 <__bss_end__+0x769bc>
     ca8:	02040200 	andeq	r0, r4, #0, 4
     cac:	04020001 	streq	r0, [r2], #-1
     cb0:	09051302 	stmdbeq	r5, {r1, r8, r9, ip}
     cb4:	02040200 	andeq	r0, r4, #0, 4
     cb8:	08050106 	stmdaeq	r5, {r1, r2, r8}
     cbc:	02040200 	andeq	r0, r4, #0, 4
     cc0:	0609054a 	streq	r0, [r9], -sl, asr #10
     cc4:	0513154b 	ldreq	r1, [r3, #-1355]	; 0xfffffab5
     cc8:	4a010614 	bmi	42520 <__bss_end__+0x37228>
     ccc:	2f060905 	svccs	0x00060905
     cd0:	01061205 	tsteq	r6, r5, lsl #4
     cd4:	4b060905 	blmi	1830f0 <__bss_end__+0x177df8>
     cd8:	0610054b 	ldreq	r0, [r0], -fp, asr #10
     cdc:	06050501 	streq	r0, [r5], -r1, lsl #10
     ce0:	060c054c 	streq	r0, [ip], -ip, asr #10
     ce4:	4b010501 	blmi	420f0 <__bss_end__+0x36df8>
     ce8:	02000505 	andeq	r0, r0, #20971520	; 0x1400000
     cec:	03060104 	movweq	r0, #24836	; 0x6104
     cf0:	02004a74 	andeq	r4, r0, #116, 20	; 0x74000
     cf4:	00010104 	andeq	r0, r1, r4, lsl #2
     cf8:	06010402 	streq	r0, [r1], -r2, lsl #8
     cfc:	040200ba 	streq	r0, [r2], #-186	; 0xffffff46
     d00:	052e0601 	streq	r0, [lr, #-1537]!	; 0xfffff9ff
     d04:	06013009 	streq	r3, [r1], -r9
     d08:	052e0682 	streq	r0, [lr, #-1666]!	; 0xfffff97e
     d0c:	01ba0301 			; <UNDEFINED> instruction: 0x01ba0301
     d10:	01067408 	tsteq	r6, r8, lsl #8
     d14:	68060505 	stmdavs	r6, {r0, r2, r8, sl}
     d18:	01060c05 	tsteq	r6, r5, lsl #24
     d1c:	062f0105 	strteq	r0, [pc], -r5, lsl #2
     d20:	6a0505be 	bvs	142420 <__bss_end__+0x137128>
     d24:	06090513 			; <UNDEFINED> instruction: 0x06090513
     d28:	4a080501 	bmi	202134 <__bss_end__+0x1f6e3c>
     d2c:	4b060905 	blmi	183148 <__bss_end__+0x177e50>
     d30:	054a0114 	strbeq	r0, [sl, #-276]	; 0xfffffeec
     d34:	01051305 	tsteq	r5, r5, lsl #6
     d38:	09051306 	stmdbeq	r5, {r1, r2, r8, r9, ip}
     d3c:	9e012a06 	vmlals.f32	s4, s2, s12
     d40:	60080105 	andvs	r0, r8, r5, lsl #2
     d44:	136a0505 	cmnne	sl, #20971520	; 0x1400000
     d48:	01061705 	tsteq	r6, r5, lsl #14
     d4c:	4b060505 	blmi	182168 <__bss_end__+0x176e70>
     d50:	01060805 	tsteq	r6, r5, lsl #16
     d54:	4b060905 	blmi	183170 <__bss_end__+0x177e78>
     d58:	4a060114 	bmi	1811b0 <__bss_end__+0x175eb8>
     d5c:	05052e06 	streq	r2, [r5, #-3590]	; 0xfffff1fa
     d60:	01051313 	tsteq	r5, r3, lsl r3
     d64:	09051306 	stmdbeq	r5, {r1, r2, r8, r9, ip}
     d68:	9e014506 	cfsh32ls	mvfx4, mvfx1, #6
     d6c:	21030105 	tstcs	r3, r5, lsl #2
     d70:	670505f2 			; <UNDEFINED> instruction: 0x670505f2
     d74:	0617052f 	ldreq	r0, [r7], -pc, lsr #10
     d78:	06050501 	streq	r0, [r5], -r1, lsl #10
     d7c:	06010532 			; <UNDEFINED> instruction: 0x06010532
     d80:	05bd0613 	ldreq	r0, [sp, #1555]!	; 0x613
     d84:	9e016705 	cdpls	7, 0, cr6, cr1, cr5, {0}
     d88:	01000a02 	tsteq	r0, r2, lsl #20
     d8c:	00013601 	andeq	r3, r1, r1, lsl #12
     d90:	5b000300 	blpl	1998 <__code_start__-0x6668>
     d94:	02000000 	andeq	r0, r0, #0, 0
     d98:	0d0efb01 	vstreq	d15, [lr, #-4]
     d9c:	01010100 	mrseq	r0, (UNDEF: 17)
     da0:	00000001 	andeq	r0, r0, r1
     da4:	01000001 	tsteq	r0, r1
     da8:	72732f2e 	rsbsvc	r2, r3, #184	; 0xb8
     dac:	552f0063 	strpl	r0, [pc, #-99]!	; d51 <__code_start__-0x72af>
     db0:	73726573 	cmnvc	r2, #482344960	; 0x1cc00000
     db4:	6c696d2f 	stclvs	13, cr6, [r9], #-188	; 0xffffff44
     db8:	532f7365 			; <UNDEFINED> instruction: 0x532f7365
     dbc:	6372756f 	cmnvs	r2, #465567744	; 0x1bc00000
     dc0:	73632f65 	cmnvc	r3, #404	; 0x194
     dc4:	6c303432 	cfldrsvs	mvf3, [r0], #-200	; 0xffffff38
     dc8:	696c2f78 	stmdbvs	ip!, {r3, r4, r5, r6, r8, r9, sl, fp, sp}^
     dcc:	2f697062 	svccs	0x00697062
     dd0:	6c636e69 	stclvs	14, cr6, [r3], #-420	; 0xfffffe5c
     dd4:	00656475 	rsbeq	r6, r5, r5, ror r4
     dd8:	63616200 	cmnvs	r1, #0, 4
     ddc:	6172746b 	cmnvs	r2, fp, ror #8
     de0:	632e6563 			; <UNDEFINED> instruction: 0x632e6563
     de4:	00000100 	andeq	r0, r0, r0, lsl #2
     de8:	2e697072 	mcrcs	0, 3, r7, cr9, cr2, {3}
     dec:	00020068 	andeq	r0, r2, r8, rrx
     df0:	11050000 	mrsne	r0, (UNDEF: 5)
     df4:	1c020500 	cfstr32ne	mvfx0, [r2], {-0}
     df8:	0300008f 	movweq	r0, #143	; 0x8f
     dfc:	0505011c 	streq	r0, [r5, #-284]	; 0xfffffee4
     e00:	11051313 	tstne	r5, r3, lsl r3
     e04:	05051006 	streq	r1, [r5, #-6]
     e08:	05300630 	ldreq	r0, [r0, #-1584]!	; 0xfffff9d0
     e0c:	1505010a 	strne	r0, [r5, #-266]	; 0xfffffef6
     e10:	06050501 	streq	r0, [r5], -r1, lsl #10
     e14:	4a0e0501 	bmi	382220 <__bss_end__+0x376f28>
     e18:	27031005 	strcs	r1, [r3, -r5]
     e1c:	0309052e 	movweq	r0, #38190	; 0x952e
     e20:	054a2e5b 	strbeq	r2, [sl, #-3675]	; 0xfffff1a5
     e24:	0402002f 	streq	r0, [r2], #-47	; 0xffffffd1
     e28:	15051002 	strne	r1, [r5, #-2]
     e2c:	02040200 	andeq	r0, r4, #0, 4
     e30:	05052e06 	streq	r2, [r5, #-3590]	; 0xfffff1fa
     e34:	02040200 	andeq	r0, r4, #0, 4
     e38:	09050106 	stmdbeq	r5, {r1, r2, r8}
     e3c:	23034b06 	movwcs	r4, #15110	; 0x3b06
     e40:	06170501 	ldreq	r0, [r7], -r1, lsl #10
     e44:	05015d03 	streq	r5, [r1, #-3331]	; 0xfffff2fd
     e48:	0e052f09 	cdpeq	15, 0, cr2, cr5, cr9, {0}
     e4c:	052e2003 	streq	r2, [lr, #-3]!
     e50:	05310609 	ldreq	r0, [r1, #-1545]!	; 0xfffff9f7
     e54:	5c030612 	stcpl	6, cr0, [r3], {18}
     e58:	06090501 	streq	r0, [r9], -r1, lsl #10
     e5c:	030d052f 	movweq	r0, #54575	; 0xd52f
     e60:	0505011f 	streq	r0, [r5, #-287]	; 0xfffffee1
     e64:	08051313 	stmdaeq	r5, {r0, r1, r4, r8, r9, ip}
     e68:	31050106 	tstcc	r5, r6, lsl #2
     e6c:	3012052d 	andscc	r0, r2, sp, lsr #10
     e70:	2e2f3105 	sufcse	f3, f7, f5
     e74:	2e141005 	cdpcs	0, 1, cr1, cr4, cr5, {0}
     e78:	5b030905 	blpl	c3294 <__bss_end__+0xb7f9c>
     e7c:	054b0601 	strbeq	r0, [fp, #-1537]	; 0xfffff9ff
     e80:	1f050f2e 	svcne	0x00050f2e
     e84:	09051506 	stmdbeq	r5, {r1, r2, r8, sl, ip}
     e88:	0c052f06 	stceq	15, cr2, [r5], {6}
     e8c:	01050106 	tsteq	r5, r6, lsl #2
     e90:	490c0550 	stmdbmi	ip, {r4, r6, r8, sl}
     e94:	052f0105 	streq	r0, [pc, #-261]!	; d97 <__code_start__-0x7269>
     e98:	1703062d 	strne	r0, [r3, -sp, lsr #12]
     e9c:	13050582 	movwne	r0, #21890	; 0x5582
     ea0:	01060e05 	tsteq	r6, r5, lsl #28
     ea4:	2f060505 	svccs	0x00060505
     ea8:	11063105 	tstne	r6, r5, lsl #2
     eac:	052f0805 	streq	r0, [pc, #-2053]!	; 6af <__code_start__-0x7951>
     eb0:	132f0609 			; <UNDEFINED> instruction: 0x132f0609
     eb4:	11061205 	tstne	r6, r5, lsl #4
     eb8:	2e2f3105 	sufcse	f3, f7, f5
     ebc:	05141005 	ldreq	r1, [r4, #-5]
     ec0:	04023001 	streq	r3, [r2], #-1
     ec4:	21010100 	mrscs	r0, (UNDEF: 17)
     ec8:	03000001 	movweq	r0, #1
     ecc:	0000be00 	andeq	fp, r0, r0, lsl #28
     ed0:	fb010200 	blx	416da <__bss_end__+0x363e2>
     ed4:	01000d0e 	tsteq	r0, lr, lsl #26
     ed8:	00010101 	andeq	r0, r1, r1, lsl #2
     edc:	00010000 	andeq	r0, r1, r0
     ee0:	2f2e0100 	svccs	0x002e0100
     ee4:	6362696c 	cmnvs	r2, #108, 18	; 0x1b0000
     ee8:	73552f00 	cmpvc	r5, #0, 30
     eec:	2f737265 	svccs	0x00737265
     ef0:	656c696d 	strbvs	r6, [ip, #-2413]!	; 0xfffff693
     ef4:	6f532f73 	svcvs	0x00532f73
     ef8:	65637275 	strbvs	r7, [r3, #-629]!	; 0xfffffd8b
     efc:	3273632f 	rsbscc	r6, r3, #-1140850688	; 0xbc000000
     f00:	786c3034 	stmdavc	ip!, {r2, r4, r5, ip, sp}^
     f04:	62696c2f 	rsbvs	r6, r9, #12032	; 0x2f00
     f08:	692f6970 	stmdbvs	pc!, {r4, r5, r6, r8, fp, sp, lr}	; <UNPREDICTABLE>
     f0c:	756c636e 	strbvc	r6, [ip, #-878]!	; 0xfffffc92
     f10:	2f006564 	svccs	0x00006564
     f14:	2f74706f 	svccs	0x0074706f
     f18:	656d6f68 	strbvs	r6, [sp, #-3944]!	; 0xfffff098
     f1c:	77657262 	strbvc	r7, [r5, -r2, ror #4]!
     f20:	6c65432f 	stclvs	3, cr4, [r5], #-188	; 0xffffff44
     f24:	2f72616c 	svccs	0x0072616c
     f28:	2d6d7261 	sfmcs	f7, 2, [sp, #-388]!	; 0xfffffe7c
     f2c:	656e6f6e 	strbvs	r6, [lr, #-3950]!	; 0xfffff092
     f30:	6261652d 	rsbvs	r6, r1, #188743680	; 0xb400000
     f34:	2f392d69 	svccs	0x00392d69
     f38:	30322d39 	eorscc	r2, r2, r9, lsr sp
     f3c:	34713931 	ldrbtcc	r3, [r1], #-2353	; 0xfffff6cf
     f40:	3173632d 	cmncc	r3, sp, lsr #6
     f44:	2f653730 	svccs	0x00653730
     f48:	2f62696c 	svccs	0x0062696c
     f4c:	2f636367 	svccs	0x00636367
     f50:	2d6d7261 	sfmcs	f7, 2, [sp, #-388]!	; 0xfffffe7c
     f54:	656e6f6e 	strbvs	r6, [lr, #-3950]!	; 0xfffff092
     f58:	6261652d 	rsbvs	r6, r1, #188743680	; 0xb400000
     f5c:	2e392f69 	cdpcs	15, 3, cr2, cr9, cr9, {3}
     f60:	2f312e32 	svccs	0x00312e32
     f64:	6c636e69 	stclvs	14, cr6, [r3], #-420	; 0xfffffe5c
     f68:	00656475 	rsbeq	r6, r5, r5, ror r4
     f6c:	6d656d00 	stclvs	13, cr6, [r5, #-0]
     f70:	2e746573 	mrccs	5, 3, r6, cr4, cr3, {3}
     f74:	00010063 	andeq	r0, r1, r3, rrx
     f78:	69707200 	ldmdbvs	r0!, {r9, ip, sp, lr}^
     f7c:	0200682e 	andeq	r6, r0, #3014656	; 0x2e0000
     f80:	74730000 	ldrbtvc	r0, [r3], #-0
     f84:	66656464 	strbtvs	r6, [r5], -r4, ror #8
     f88:	0300682e 	movweq	r6, #2094	; 0x82e
     f8c:	05000000 	streq	r0, [r0, #-0]
     f90:	02050029 	andeq	r0, r5, #41, 0	; 0x29
     f94:	00008fbc 			; <UNDEFINED> instruction: 0x00008fbc
     f98:	13050515 	movwne	r0, #21781	; 0x5515
     f9c:	11062905 	tstne	r6, r5, lsl #18
     fa0:	052f1405 	streq	r1, [pc, #-1029]!	; ba3 <__code_start__-0x745d>
     fa4:	05300605 	ldreq	r0, [r0, #-1541]!	; 0xfffff9fb
     fa8:	9e06010a 	adflss	f0, f6, #2.0
     fac:	d7060905 	strle	r0, [r6, -r5, lsl #18]
     fb0:	01060e05 	tsteq	r6, r5, lsl #28
     fb4:	2d060a05 	vstrcs	s0, [r6, #-20]	; 0xffffffec
     fb8:	05bb0905 	ldreq	r0, [fp, #2309]!	; 0x905
     fbc:	2e01060e 	cfmadd32cs	mvax0, mvfx0, mvfx1, mvfx14
     fc0:	2d060a05 	vstrcs	s0, [r6, #-20]	; 0xffffffec
     fc4:	054b0905 	strbeq	r0, [fp, #-2309]	; 0xfffff6fb
     fc8:	0501060b 	streq	r0, [r1, #-1547]	; 0xfffff9f5
     fcc:	0e052d0a 	cdpeq	13, 0, cr2, cr5, cr10, {0}
     fd0:	060a052f 	streq	r0, [sl], -pc, lsr #10
     fd4:	060e052d 	streq	r0, [lr], -sp, lsr #10
     fd8:	06090513 			; <UNDEFINED> instruction: 0x06090513
     fdc:	110a052e 	tstne	sl, lr, lsr #10
     fe0:	05140505 	ldreq	r0, [r4, #-1285]	; 0xfffffafb
     fe4:	02130601 	andseq	r0, r3, #1048576	; 0x100000
     fe8:	01010002 	tsteq	r1, r2
     fec:	00000120 	andeq	r0, r0, r0, lsr #2
     ff0:	00db0003 	sbcseq	r0, fp, r3
     ff4:	01020000 	mrseq	r0, (UNDEF: 2)
     ff8:	000d0efb 	strdeq	r0, [sp], -fp
     ffc:	01010101 	tsteq	r1, r1, lsl #2
    1000:	01000000 	mrseq	r0, (UNDEF: 0)
    1004:	2e010000 	cdpcs	0, 0, cr0, cr1, cr0, {0}
    1008:	62696c2f 	rsbvs	r6, r9, #12032	; 0x2f00
    100c:	6f2f0063 	svcvs	0x002f0063
    1010:	682f7470 	stmdavs	pc!, {r4, r5, r6, sl, ip, sp, lr}	; <UNPREDICTABLE>
    1014:	62656d6f 	rsbvs	r6, r5, #7104	; 0x1bc0
    1018:	2f776572 	svccs	0x00776572
    101c:	6c6c6543 	cfstr64vs	mvdx6, [ip], #-268	; 0xfffffef4
    1020:	612f7261 			; <UNDEFINED> instruction: 0x612f7261
    1024:	6e2d6d72 	mcrvs	13, 1, r6, cr13, cr2, {3}
    1028:	2d656e6f 	stclcs	14, cr6, [r5, #-444]!	; 0xfffffe44
    102c:	69626165 	stmdbvs	r2!, {r0, r2, r5, r6, r8, sp, lr}^
    1030:	392f392d 	stmdbcc	pc!, {r0, r2, r3, r5, r8, fp, ip, sp}	; <UNPREDICTABLE>
    1034:	3130322d 	teqcc	r0, sp, lsr #4
    1038:	2d347139 	ldfcss	f7, [r4, #-228]!	; 0xffffff1c
    103c:	30317363 	eorscc	r7, r1, r3, ror #6
    1040:	6c2f6537 	cfstr32vs	mvfx6, [pc], #-220	; f6c <__code_start__-0x7094>
    1044:	672f6269 	strvs	r6, [pc, -r9, ror #4]!
    1048:	612f6363 			; <UNDEFINED> instruction: 0x612f6363
    104c:	6e2d6d72 	mcrvs	13, 1, r6, cr13, cr2, {3}
    1050:	2d656e6f 	stclcs	14, cr6, [r5, #-444]!	; 0xfffffe44
    1054:	69626165 	stmdbvs	r2!, {r0, r2, r5, r6, r8, sp, lr}^
    1058:	322e392f 	eorcc	r3, lr, #770048	; 0xbc000
    105c:	692f312e 	stmdbvs	pc!, {r1, r2, r3, r5, r8, ip, sp}	; <UNPREDICTABLE>
    1060:	756c636e 	strbvc	r6, [ip, #-878]!	; 0xfffffc92
    1064:	2f006564 	svccs	0x00006564
    1068:	72657355 	rsbvc	r7, r5, #1409286145	; 0x54000001
    106c:	696d2f73 	stmdbvs	sp!, {r0, r1, r4, r5, r6, r8, r9, sl, fp, sp}^
    1070:	2f73656c 	svccs	0x0073656c
    1074:	72756f53 	rsbsvc	r6, r5, #332	; 0x14c
    1078:	632f6563 			; <UNDEFINED> instruction: 0x632f6563
    107c:	30343273 	eorscc	r3, r4, r3, ror r2
    1080:	6c2f786c 	stcvs	8, cr7, [pc], #-432	; ed8 <__code_start__-0x7128>
    1084:	69706269 	ldmdbvs	r0!, {r0, r3, r5, r6, r9, sp, lr}^
    1088:	636e692f 	cmnvs	lr, #770048	; 0xbc000
    108c:	6564756c 	strbvs	r7, [r4, #-1388]!	; 0xfffffa94
    1090:	72700000 	rsbsvc	r0, r0, #0, 0
    1094:	6b746e69 	blvs	1d1ca40 <__bss_end__+0x1d11748>
    1098:	0100632e 	tsteq	r0, lr, lsr #6
    109c:	74730000 	ldrbtvc	r0, [r3], #-0
    10a0:	67726164 	ldrbvs	r6, [r2, -r4, ror #2]!
    10a4:	0200682e 	andeq	r6, r0, #3014656	; 0x2e0000
    10a8:	70720000 	rsbsvc	r0, r2, r0
    10ac:	00682e69 	rsbeq	r2, r8, r9, ror #28
    10b0:	3c000003 	stccc	0, cr0, [r0], {3}
    10b4:	6c697562 	cfstr64vs	mvdx7, [r9], #-392	; 0xfffffe78
    10b8:	6e692d74 	mcrvs	13, 3, r2, cr9, cr4, {3}
    10bc:	0000003e 	andeq	r0, r0, lr, lsr r0
    10c0:	2d617600 	stclcs	6, cr7, [r1, #-0]
    10c4:	6e697270 	mcrvs	2, 3, r7, cr9, cr0, {3}
    10c8:	682e6b74 	stmdavs	lr!, {r2, r4, r5, r6, r8, r9, fp, sp, lr}
    10cc:	00000100 	andeq	r0, r0, r0, lsl #2
    10d0:	00220500 	eoreq	r0, r2, r0, lsl #10
    10d4:	90340205 	eorsls	r0, r4, r5, lsl #4
    10d8:	05170000 	ldreq	r0, [r7, #-0]
    10dc:	14131405 	ldrne	r1, [r3], #-1029	; 0xfffffbfb
    10e0:	0d062205 	sfmeq	f2, 4, [r6, #-20]	; 0xffffffec
    10e4:	05501205 	ldrbeq	r1, [r0, #-517]	; 0xfffffdfb
    10e8:	2e7a0322 	cdpcs	3, 7, cr0, cr10, cr2, {1}
    10ec:	05330505 	ldreq	r0, [r3, #-1285]!	; 0xfffffafb
    10f0:	05052f12 	streq	r2, [r5, #-3858]	; 0xfffff0ee
    10f4:	06090565 	streq	r0, [r9], -r5, ror #10
    10f8:	0612052f 	ldreq	r0, [r2], -pc, lsr #10
    10fc:	06050501 	streq	r0, [r5], -r1, lsl #10
    1100:	4a06164b 	bmi	186a34 <__bss_end__+0x17b73c>
    1104:	01055006 	tsteq	r5, r6
    1108:	02661306 	rsbeq	r1, r6, #402653184	; 0x18000000
    110c:	01010008 	tsteq	r1, r8
    1110:	000000a0 	andeq	r0, r0, r0, lsr #1
    1114:	00570003 	subseq	r0, r7, r3
    1118:	01020000 	mrseq	r0, (UNDEF: 2)
    111c:	000d0efb 	strdeq	r0, [sp], -fp
    1120:	01010101 	tsteq	r1, r1, lsl #2
    1124:	01000000 	mrseq	r0, (UNDEF: 0)
    1128:	2e010000 	cdpcs	0, 0, cr0, cr1, cr0, {0}
    112c:	62696c2f 	rsbvs	r6, r9, #12032	; 0x2f00
    1130:	552f0063 	strpl	r0, [pc, #-99]!	; 10d5 <__code_start__-0x6f2b>
    1134:	73726573 	cmnvc	r2, #482344960	; 0x1cc00000
    1138:	6c696d2f 	stclvs	13, cr6, [r9], #-188	; 0xffffff44
    113c:	532f7365 			; <UNDEFINED> instruction: 0x532f7365
    1140:	6372756f 	cmnvs	r2, #465567744	; 0x1bc00000
    1144:	73632f65 	cmnvc	r3, #404	; 0x194
    1148:	6c303432 	cfldrsvs	mvf3, [r0], #-200	; 0xffffff38
    114c:	696c2f78 	stmdbvs	ip!, {r3, r4, r5, r6, r8, r9, sl, fp, sp}^
    1150:	2f697062 	svccs	0x00697062
    1154:	6c636e69 	stclvs	14, cr6, [r3], #-420	; 0xfffffe5c
    1158:	00656475 	rsbeq	r6, r5, r5, ror r4
    115c:	74757000 	ldrbtvc	r7, [r5], #-0
    1160:	00632e6b 	rsbeq	r2, r3, fp, ror #28
    1164:	72000001 	andvc	r0, r0, #1, 0
    1168:	682e6970 	stmdavs	lr!, {r4, r5, r6, r8, fp, sp, lr}
    116c:	00000200 	andeq	r0, r0, r0, lsl #4
    1170:	00220500 	eoreq	r0, r2, r0, lsl #10
    1174:	908c0205 	addls	r0, ip, r5, lsl #4
    1178:	05150000 	ldreq	r0, [r5, #-0]
    117c:	22051305 	andcs	r1, r5, #335544320	; 0x14000000
    1180:	052e1106 	streq	r1, [lr, #-262]!	; 0xfffffefa
    1184:	052f060b 	streq	r0, [pc, #-1547]!	; b81 <__code_start__-0x747f>
    1188:	052e0605 	streq	r0, [lr, #-1541]!	; 0xfffff9fb
    118c:	04020009 	streq	r0, [r2], #-9
    1190:	05670602 	strbeq	r0, [r7, #-1538]!	; 0xfffff9fe
    1194:	0402000f 	streq	r0, [r2], #-15
    1198:	0b054902 	bleq	1535a8 <__bss_end__+0x1482b0>
    119c:	02040200 	andeq	r0, r4, #0, 4
    11a0:	00050501 	andeq	r0, r5, r1, lsl #10
    11a4:	06020402 	streq	r0, [r2], -r2, lsl #8
    11a8:	054e062e 	strbeq	r0, [lr, #-1582]	; 0xfffff9d2
    11ac:	02130601 	andseq	r0, r3, #1048576	; 0x100000
    11b0:	01010006 	tsteq	r1, r6
    11b4:	000008fa 	strdeq	r0, [r0], -sl
    11b8:	00f10003 	rscseq	r0, r1, r3
    11bc:	01020000 	mrseq	r0, (UNDEF: 2)
    11c0:	000d0efb 	strdeq	r0, [sp], -fp
    11c4:	01010101 	tsteq	r1, r1, lsl #2
    11c8:	01000000 	mrseq	r0, (UNDEF: 0)
    11cc:	2e010000 	cdpcs	0, 0, cr0, cr1, cr0, {0}
    11d0:	62696c2f 	rsbvs	r6, r9, #12032	; 0x2f00
    11d4:	6f2f0063 	svcvs	0x002f0063
    11d8:	682f7470 	stmdavs	pc!, {r4, r5, r6, sl, ip, sp, lr}	; <UNPREDICTABLE>
    11dc:	62656d6f 	rsbvs	r6, r5, #7104	; 0x1bc0
    11e0:	2f776572 	svccs	0x00776572
    11e4:	6c6c6543 	cfstr64vs	mvdx6, [ip], #-268	; 0xfffffef4
    11e8:	612f7261 			; <UNDEFINED> instruction: 0x612f7261
    11ec:	6e2d6d72 	mcrvs	13, 1, r6, cr13, cr2, {3}
    11f0:	2d656e6f 	stclcs	14, cr6, [r5, #-444]!	; 0xfffffe44
    11f4:	69626165 	stmdbvs	r2!, {r0, r2, r5, r6, r8, sp, lr}^
    11f8:	392f392d 	stmdbcc	pc!, {r0, r2, r3, r5, r8, fp, ip, sp}	; <UNPREDICTABLE>
    11fc:	3130322d 	teqcc	r0, sp, lsr #4
    1200:	2d347139 	ldfcss	f7, [r4, #-228]!	; 0xffffff1c
    1204:	30317363 	eorscc	r7, r1, r3, ror #6
    1208:	6c2f6537 	cfstr32vs	mvfx6, [pc], #-220	; 1134 <__code_start__-0x6ecc>
    120c:	672f6269 	strvs	r6, [pc, -r9, ror #4]!
    1210:	612f6363 			; <UNDEFINED> instruction: 0x612f6363
    1214:	6e2d6d72 	mcrvs	13, 1, r6, cr13, cr2, {3}
    1218:	2d656e6f 	stclcs	14, cr6, [r5, #-444]!	; 0xfffffe44
    121c:	69626165 	stmdbvs	r2!, {r0, r2, r5, r6, r8, sp, lr}^
    1220:	322e392f 	eorcc	r3, lr, #770048	; 0xbc000
    1224:	692f312e 	stmdbvs	pc!, {r1, r2, r3, r5, r8, ip, sp}	; <UNPREDICTABLE>
    1228:	756c636e 	strbvc	r6, [ip, #-878]!	; 0xfffffc92
    122c:	2f006564 	svccs	0x00006564
    1230:	72657355 	rsbvc	r7, r5, #1409286145	; 0x54000001
    1234:	696d2f73 	stmdbvs	sp!, {r0, r1, r4, r5, r6, r8, r9, sl, fp, sp}^
    1238:	2f73656c 	svccs	0x0073656c
    123c:	72756f53 	rsbsvc	r6, r5, #332	; 0x14c
    1240:	632f6563 			; <UNDEFINED> instruction: 0x632f6563
    1244:	30343273 	eorscc	r3, r4, r3, ror r2
    1248:	6c2f786c 	stcvs	8, cr7, [pc], #-432	; 10a0 <__code_start__-0x6f60>
    124c:	69706269 	ldmdbvs	r0!, {r0, r3, r5, r6, r9, sp, lr}^
    1250:	636e692f 	cmnvs	lr, #770048	; 0xbc000
    1254:	6564756c 	strbvs	r7, [r4, #-1388]!	; 0xfffffa94
    1258:	61760000 	cmnvs	r6, r0
    125c:	6972702d 	ldmdbvs	r2!, {r0, r2, r3, r5, ip, sp, lr}^
    1260:	2e6b746e 	cdpcs	4, 6, cr7, cr11, cr14, {3}
    1264:	00010063 	andeq	r0, r1, r3, rrx
    1268:	64747300 	ldrbtvs	r7, [r4], #-768	; 0xfffffd00
    126c:	2d746e69 	ldclcs	14, cr6, [r4, #-420]!	; 0xfffffe5c
    1270:	2e636367 	cdpcs	3, 6, cr6, cr3, cr7, {3}
    1274:	00020068 	andeq	r0, r2, r8, rrx
    1278:	69707200 	ldmdbvs	r0!, {r9, ip, sp, lr}^
    127c:	0300682e 	movweq	r6, #2094	; 0x82e
    1280:	70720000 	rsbsvc	r0, r2, r0
    1284:	6e692d69 	cdpvs	13, 6, cr2, cr9, cr9, {3}
    1288:	6e726574 	mrcvs	5, 3, r6, cr2, cr4, {3}
    128c:	682e6c61 	stmdavs	lr!, {r0, r5, r6, sl, fp, sp, lr}
    1290:	00000300 	andeq	r0, r0, r0, lsl #6
    1294:	61647473 	smcvs	18243	; 0x4743
    1298:	682e6772 	stmdavs	lr!, {r1, r4, r5, r6, r8, r9, sl, sp, lr}
    129c:	00000200 	andeq	r0, r0, r0, lsl #4
    12a0:	6975623c 	ldmdbvs	r5!, {r2, r3, r4, r5, r9, sp, lr}^
    12a4:	692d746c 	pushvs	{r2, r3, r5, r6, sl, ip, sp, lr}
    12a8:	00003e6e 	andeq	r3, r0, lr, ror #28
    12ac:	05000000 	streq	r0, [r0, #-0]
    12b0:	02050001 	andeq	r0, r5, #1, 0
    12b4:	000090c4 	andeq	r9, r0, r4, asr #1
    12b8:	0100c803 	tsteq	r0, r3, lsl #16
    12bc:	05140205 	ldreq	r0, [r4, #-517]	; 0xfffffdfb
    12c0:	05100601 	ldreq	r0, [r0, #-1537]	; 0xfffff9ff
    12c4:	01053004 	tsteq	r5, r4
    12c8:	04054a2c 	streq	r4, [r5], #-2604	; 0xfffff5d4
    12cc:	06020530 			; <UNDEFINED> instruction: 0x06020530
    12d0:	0b051331 	bleq	145f9c <__bss_end__+0x13aca4>
    12d4:	02052e06 	andeq	r2, r5, #96	; 0x60
    12d8:	09053006 	stmdbeq	r5, {r1, r2, ip, sp}
    12dc:	0d240206 	sfmeq	f0, 4, [r4, #-24]!	; 0xffffffe8
    12e0:	0d052e2e 	stceq	14, cr2, [r5, #-184]	; 0xffffff48
    12e4:	4a170306 	bmi	5c1f04 <__bss_end__+0x5b6c0c>
    12e8:	05131105 	ldreq	r1, [r3, #-261]	; 0xfffffefb
    12ec:	0501062d 	streq	r0, [r1, #-1581]	; 0xfffff9d3
    12f0:	0d052e16 	stceq	14, cr2, [r5, #-88]	; 0xffffffa8
    12f4:	2d16052f 	cfldr32cs	mvfx0, [r6, #-188]	; 0xffffff44
    12f8:	2f061405 	svccs	0x00061405
    12fc:	01061705 	tsteq	r6, r5, lsl #14
    1300:	062e0d05 	strteq	r0, [lr], -r5, lsl #26
    1304:	0612052f 	ldreq	r0, [r2], -pc, lsr #10
    1308:	2d2f2e01 	stccs	14, cr2, [pc, #-4]!	; 130c <__code_start__-0x6cf4>
    130c:	2f060d05 	svccs	0x00060d05
    1310:	01061205 	tsteq	r6, r5, lsl #4
    1314:	2f061905 	svccs	0x00061905
    1318:	11030405 	tstne	r3, r5, lsl #8
    131c:	02050101 	andeq	r0, r5, #1073741824	; 0x40000000
    1320:	030e0515 	movweq	r0, #58645	; 0xe515
    1324:	05017fb2 	streq	r7, [r1, #-4018]	; 0xfffff04e
    1328:	06051302 	streq	r1, [r5], -r2, lsl #6
    132c:	02050106 	andeq	r0, r5, #-2147483647	; 0x80000001
    1330:	08053006 	stmdaeq	r5, {r1, r2, ip, sp}
    1334:	06020501 	streq	r0, [r2], -r1, lsl #10
    1338:	08054a01 	stmdaeq	r5, {r0, r9, fp, lr}
    133c:	03059108 	movweq	r9, #20744	; 0x5108
    1340:	08054a06 	stmdaeq	r5, {r1, r2, r9, fp, lr}
    1344:	15050106 	strne	r0, [r5, #-262]	; 0xfffffefa
    1348:	08052d06 	stmdaeq	r5, {r1, r2, r8, sl, fp, sp}
    134c:	d7030501 	strle	r0, [r3, -r1, lsl #10]
    1350:	01060805 	tsteq	r6, r5, lsl #16
    1354:	052d1805 	streq	r1, [sp, #-2053]!	; 0xfffff7fb
    1358:	08052e02 	stmdaeq	r5, {r1, r9, sl, fp, sp}
    135c:	0615052f 	ldreq	r0, [r5], -pc, lsr #10
    1360:	0108052d 	tsteq	r8, sp, lsr #10
    1364:	01060205 	tsteq	r6, r5, lsl #4
    1368:	2f060305 	svccs	0x00060305
    136c:	11061805 	tstne	r6, r5, lsl #16
    1370:	052e0205 	streq	r0, [lr, #-517]!	; 0xfffffdfb
    1374:	15052f08 	strne	r2, [r5, #-3848]	; 0xfffff0f8
    1378:	08052d06 	stmdaeq	r5, {r1, r2, r8, sl, fp, sp}
    137c:	13030501 	movwne	r0, #13569	; 0x3501
    1380:	01060805 	tsteq	r6, r5, lsl #16
    1384:	2d061505 	cfstr32cs	mvfx1, [r6, #-20]	; 0xffffffec
    1388:	06010805 	streq	r0, [r1], -r5, lsl #16
    138c:	06020501 	streq	r0, [r2], -r1, lsl #10
    1390:	060505a0 	streq	r0, [r5], -r0, lsr #11
    1394:	36040501 	strcc	r0, [r4], -r1, lsl #10
    1398:	052f1105 	streq	r1, [pc, #-261]!	; 129b <__code_start__-0x6d65>
    139c:	02052e09 	andeq	r2, r5, #144	; 0x90
    13a0:	03050533 	movweq	r0, #21811	; 0x5533
    13a4:	02052e72 	andeq	r2, r5, #1824	; 0x720
    13a8:	01062f06 	tsteq	r6, r6, lsl #30
    13ac:	16060e05 	strne	r0, [r6], -r5, lsl #28
    13b0:	13140205 	tstne	r4, #1342177280	; 0x50000000
    13b4:	05130305 	ldreq	r0, [r3, #-773]	; 0xfffffcfb
    13b8:	05151402 	ldreq	r1, [r5, #-1026]	; 0xfffffbfe
    13bc:	0205010b 	andeq	r0, r5, #-1073741822	; 0xc0000002
    13c0:	052e0106 	streq	r0, [lr, #-262]!	; 0xfffffefa
    13c4:	05670603 	strbeq	r0, [r7, #-1539]!	; 0xfffff9fd
    13c8:	0501060a 	streq	r0, [r1, #-1546]	; 0xfffff9f6
    13cc:	0a052d02 	beq	14c7dc <__bss_end__+0x1414e4>
    13d0:	0617052f 	ldreq	r0, [r7], -pc, lsr #10
    13d4:	010b052d 	tsteq	fp, sp, lsr #10
    13d8:	01060205 	tsteq	r6, r5, lsl #4
    13dc:	2e4c0905 	vmlacs.f16	s1, s24, s10	; <UNPREDICTABLE>
    13e0:	2e060205 	cdpcs	2, 0, cr0, cr6, cr5, {0}
    13e4:	01060905 	tsteq	r6, r5, lsl #18
    13e8:	30060205 	andcc	r0, r6, r5, lsl #4
    13ec:	01050106 	tsteq	r5, r6, lsl #2
    13f0:	05013803 	streq	r3, [r1, #-2051]	; 0xfffff7fd
    13f4:	4a4f0309 	bmi	13c2020 <__bss_end__+0x13b6d28>
    13f8:	19052e2e 	stmdbne	r5, {r1, r2, r3, r5, r9, sl, fp, sp}
    13fc:	4a270306 	bmi	9c201c <__bss_end__+0x9b6d24>
    1400:	05131a05 	ldreq	r1, [r3, #-2565]	; 0xfffff5fb
    1404:	05010628 	streq	r0, [r1, #-1576]	; 0xfffff9d8
    1408:	04052e1f 	streq	r2, [r5], #-3615	; 0xfffff1e1
    140c:	2d1f052f 	cfldr32cs	mvfx0, [pc, #-188]	; 1358 <__code_start__-0x6ca8>
    1410:	2f060b05 	svccs	0x00060b05
    1414:	01060e05 	tsteq	r6, r5, lsl #28
    1418:	052e0405 	streq	r0, [lr, #-1029]!	; 0xfffffbfb
    141c:	59030602 	stmdbpl	r3, {r1, r9, sl}
    1420:	0b05134a 	bleq	146150 <__bss_end__+0x13ae58>
    1424:	02052e06 	andeq	r2, r5, #96	; 0x60
    1428:	09053006 	stmdbeq	r5, {r1, r2, ip, sp}
    142c:	0d240206 	sfmeq	f0, 4, [r4, #-24]!	; 0xffffffe8
    1430:	36060405 	strcc	r0, [r6], -r5, lsl #8
    1434:	06060513 			; <UNDEFINED> instruction: 0x06060513
    1438:	06050501 	streq	r0, [r5], -r1, lsl #10
    143c:	05131367 	ldreq	r1, [r3, #-871]	; 0xfffffc99
    1440:	05110609 	ldreq	r0, [r1, #-1545]	; 0xfffff9f7
    1444:	0b052b0d 	bleq	14c080 <__bss_end__+0x140d88>
    1448:	2c0d0530 	cfstr32cs	mvfx0, [sp], {48}	; 0x30
    144c:	05351b05 	ldreq	r1, [r5, #-2821]!	; 0xfffff4fb
    1450:	052d0604 	streq	r0, [sp, #-1540]!	; 0xfffff9fc
    1454:	1b051305 	blne	146070 <__bss_end__+0x13ad78>
    1458:	0a052e06 	beq	14cc78 <__bss_end__+0x141980>
    145c:	2f040582 	svccs	0x00040582
    1460:	052e0e05 	streq	r0, [lr, #-3589]!	; 0xfffff1fb
    1464:	0b05490a 	bleq	153894 <__bss_end__+0x14859c>
    1468:	04052f06 	streq	r2, [r5], #-3846	; 0xfffff0fa
    146c:	2f060106 	svccs	0x00060106
    1470:	01060605 	tsteq	r6, r5, lsl #12
    1474:	2f060505 	svccs	0x00060505
    1478:	01060a05 	tsteq	r6, r5, lsl #20
    147c:	2e07052e 	cfsh32cs	mvfx0, mvfx7, #30
    1480:	04052e2e 	streq	r2, [r5], #-3630	; 0xfffff1d2
    1484:	010d0306 	tsteq	sp, r6, lsl #6
    1488:	03060205 	movweq	r0, #25093	; 0x6205
    148c:	09050146 	stmdbeq	r5, {r1, r2, r6, r8}
    1490:	052e3a03 	streq	r3, [lr, #-2563]!	; 0xfffff5fd
    1494:	032f0604 			; <UNDEFINED> instruction: 0x032f0604
    1498:	0501010d 	streq	r0, [r1, #-269]	; 0xfffffef3
    149c:	0e051502 	cfsh32eq	mvfx1, mvfx5, #2
    14a0:	017fb203 	cmneq	pc, r3, lsl #4
    14a4:	14130205 	ldrne	r0, [r3], #-517	; 0xfffffdfb
    14a8:	05010805 	streq	r0, [r1, #-2053]	; 0xfffff7fb
    14ac:	03100606 	tsteq	r0, #6291456	; 0x600000
    14b0:	02052e3c 	andeq	r2, r5, #60, 28	; 0x3c0
    14b4:	064a4603 	strbeq	r4, [sl], -r3, lsl #12
    14b8:	06050530 			; <UNDEFINED> instruction: 0x06050530
    14bc:	052e2e01 	streq	r2, [lr, #-3585]!	; 0xfffff1ff
    14c0:	064b0602 	strbeq	r0, [fp], -r2, lsl #12
    14c4:	060e0501 	streq	r0, [lr], -r1, lsl #10
    14c8:	14020516 	strne	r0, [r2], #-1302	; 0xfffffaea
    14cc:	05151513 	ldreq	r1, [r5, #-1299]	; 0xfffffaed
    14d0:	0205010b 	andeq	r0, r5, #-1073741822	; 0xc0000002
    14d4:	30062e06 	andcc	r2, r6, r6, lsl #28
    14d8:	01060905 	tsteq	r6, r5, lsl #18
    14dc:	4c060205 	sfmmi	f0, 4, [r6], {5}
    14e0:	01050106 	tsteq	r5, r6, lsl #2
    14e4:	05013803 	streq	r3, [r1, #-2051]	; 0xfffff7fd
    14e8:	4a6e0306 	bmi	1b82108 <__bss_end__+0x1b76e10>
    14ec:	46030205 	strmi	r0, [r3], -r5, lsl #4
    14f0:	052e4a66 	streq	r4, [lr, #-2662]!	; 0xfffff59a
    14f4:	c8030604 	stmdagt	r3, {r2, r9, sl}
    14f8:	01010100 	mrseq	r0, (UNDEF: 17)
    14fc:	822e0601 	eorhi	r0, lr, #1048576	; 0x100000
    1500:	72034a06 	andvc	r4, r3, #24576	; 0x6000
    1504:	0609052e 	streq	r0, [r9], -lr, lsr #10
    1508:	06040501 	streq	r0, [r4], -r1, lsl #10
    150c:	010d032f 	tsteq	sp, pc, lsr #6
    1510:	15020501 	strne	r0, [r2, #-1281]	; 0xfffffaff
    1514:	b2030e05 	andlt	r0, r3, #80	; 0x50
    1518:	0205017f 	andeq	r0, r5, #-1073741793	; 0xc000001f
    151c:	08051413 	stmdaeq	r5, {r0, r1, r4, sl, ip}
    1520:	06090501 	streq	r0, [r9], -r1, lsl #10
    1524:	05011b03 	streq	r1, [r1, #-2819]	; 0xfffff4fd
    1528:	2e630306 	cdpcs	3, 6, cr0, cr3, cr6, {0}
    152c:	2e2e3c03 	cdpcs	12, 2, cr3, cr14, cr3, {0}
    1530:	0648052e 	strbeq	r0, [r8], -lr, lsr #10
    1534:	087fb403 	ldmdaeq	pc!, {r0, r1, sl, ip, sp, pc}^	; <UNPREDICTABLE>
    1538:	1305053c 	movwne	r0, #21820	; 0x553c
    153c:	002e0601 	eoreq	r0, lr, r1, lsl #12
    1540:	06020402 	streq	r0, [r2], -r2, lsl #8
    1544:	0402002e 	streq	r0, [r2], #-46	; 0xffffffd2
    1548:	02000102 	andeq	r0, r0, #-2147483648	; 0x80000000
    154c:	05130204 	ldreq	r0, [r3, #-516]	; 0xfffffdfc
    1550:	04020011 	streq	r0, [r2], #-17	; 0xffffffef
    1554:	05010602 	streq	r0, [r1, #-1538]	; 0xfffff9fe
    1558:	04020007 	streq	r0, [r2], #-7
    155c:	11052f02 	tstne	r5, r2, lsl #30
    1560:	02040200 	andeq	r0, r4, #0, 4
    1564:	0005052d 	andeq	r0, r5, sp, lsr #10
    1568:	06020402 	streq	r0, [r2], -r2, lsl #8
    156c:	0009052f 	andeq	r0, r9, pc, lsr #10
    1570:	13020402 	movwne	r0, #9218	; 0x2402
    1574:	02000e05 	andeq	r0, r0, #80	; 0x50
    1578:	01060204 	tsteq	r6, r4, lsl #4
    157c:	02000505 	andeq	r0, r0, #20971520	; 0x1400000
    1580:	63060104 	movwvs	r0, #24836	; 0x6104
    1584:	01040200 	mrseq	r0, R12_usr
    1588:	00480501 	subeq	r0, r8, r1, lsl #10
    158c:	06010402 	streq	r0, [r1], -r2, lsl #8
    1590:	00050511 	andeq	r0, r5, r1, lsl r5
    1594:	2f010402 	svccs	0x00010402
    1598:	02004805 	andeq	r4, r0, #327680	; 0x50000
    159c:	052d0104 	streq	r0, [sp, #-260]!	; 0xfffffefc
    15a0:	04020005 	streq	r0, [r2], #-5
    15a4:	02002f01 	andeq	r2, r0, #1, 30
    15a8:	004a0104 	subeq	r0, sl, r4, lsl #2
    15ac:	4a010402 	bmi	425bc <__bss_end__+0x372c4>
    15b0:	01040200 	mrseq	r0, R12_usr
    15b4:	40054a06 	andmi	r4, r5, r6, lsl #20
    15b8:	d600e103 	strle	lr, [r0], -r3, lsl #2
    15bc:	09050106 	stmdbeq	r5, {r1, r2, r8}
    15c0:	08052e4e 	stmdaeq	r5, {r1, r2, r3, r6, r9, sl, fp, sp}
    15c4:	291e0530 	ldmdbcs	lr, {r4, r5, r8, sl}
    15c8:	052e1205 	streq	r1, [lr, #-517]!	; 0xfffffdfb
    15cc:	0205330d 	andeq	r3, r5, #872415232	; 0x34000000
    15d0:	05054506 	streq	r4, [r5, #-1286]	; 0xfffffafa
    15d4:	14020513 	strne	r0, [r2], #-1299	; 0xfffffaed
    15d8:	05130505 	ldreq	r0, [r3, #-1285]	; 0xfffffafb
    15dc:	08051302 	stmdaeq	r5, {r1, r8, r9, ip}
    15e0:	06400501 	strbeq	r0, [r0], -r1, lsl #10
    15e4:	2e017a03 	vmlacs.f32	s14, s2, s6
    15e8:	66340d05 	ldrtvs	r0, [r4], -r5, lsl #26
    15ec:	20031105 	andcs	r1, r3, r5, lsl #2
    15f0:	04054a4a 	streq	r4, [r5], #-2634	; 0xfffff5b6
    15f4:	01620306 	cmneq	r2, r6, lsl #6
    15f8:	01060905 	tsteq	r6, r5, lsl #18
    15fc:	052e0f05 	streq	r0, [lr, #-3845]!	; 0xfffff0fb
    1600:	052c0608 	streq	r0, [ip, #-1544]!	; 0xfffff9f8
    1604:	052e060d 	streq	r0, [lr, #-1549]!	; 0xfffff9f3
    1608:	05670603 	strbeq	r0, [r7, #-1539]!	; 0xfffff9fd
    160c:	05010605 	streq	r0, [r1, #-1541]	; 0xfffff9fb
    1610:	054d0608 	strbeq	r0, [sp, #-1544]	; 0xfffff9f8
    1614:	0501060e 	streq	r0, [r1, #-1550]	; 0xfffff9f2
    1618:	09052e0a 	stmdbeq	r5, {r1, r3, r9, sl, fp, sp}
    161c:	0604052f 	streq	r0, [r4], -pc, lsr #10
    1620:	0607052f 	streq	r0, [r7], -pc, lsr #10
    1624:	2c0a0501 	cfstr32cs	mvfx0, [sl], {1}
    1628:	32060405 	andcc	r0, r6, #83886080	; 0x5000000
    162c:	03062d05 	movweq	r2, #27909	; 0x6d05
    1630:	05017f98 	streq	r7, [r1, #-3992]	; 0xfffff068
    1634:	00ed0309 	rsceq	r0, sp, r9, lsl #6
    1638:	2c0d052e 	cfstr32cs	mvfx0, [sp], {46}	; 0x2e
    163c:	052b0705 	streq	r0, [fp, #-1797]!	; 0xfffff8fb
    1640:	13300604 	teqne	r0, #4, 12	; 0x400000
    1644:	01090514 	tsteq	r9, r4, lsl r5
    1648:	93030c05 	movwls	r0, #15365	; 0x3c05
    164c:	1d05017f 	stfnes	f0, [r5, #-508]	; 0xfffffe04
    1650:	05010601 	streq	r0, [r1, #-1537]	; 0xfffff9ff
    1654:	00ed0309 	rsceq	r0, sp, r9, lsl #6
    1658:	06050501 	streq	r0, [r5], -r1, lsl #10
    165c:	0612052f 	ldreq	r0, [r2], -pc, lsr #10
    1660:	052d2e01 	streq	r2, [sp, #-3585]!	; 0xfffff1ff
    1664:	05052f0b 	streq	r2, [r5, #-3851]	; 0xfffff0f5
    1668:	09052f06 	stmdbeq	r5, {r1, r2, r8, r9, sl, fp, sp}
    166c:	030c0510 	movweq	r0, #50448	; 0xc510
    1670:	05017f93 	streq	r7, [r1, #-3987]	; 0xfffff06d
    1674:	2d05011d 	stfcss	f0, [r5, #-116]	; 0xffffff8c
    1678:	09050106 	stmdbeq	r5, {r1, r2, r8}
    167c:	2e00ed03 	cdpcs	13, 0, cr14, cr0, cr3, {0}
    1680:	4e060405 	cdpmi	4, 0, cr0, cr6, cr5, {0}
    1684:	04020001 	streq	r0, [r2], #-1
    1688:	02004a02 	andeq	r4, r0, #8192	; 0x2000
    168c:	00010204 	andeq	r0, r1, r4, lsl #4
    1690:	15020402 	strne	r0, [r2, #-1026]	; 0xfffffbfe
    1694:	02040200 	andeq	r0, r4, #0, 4
    1698:	12360206 	eorsne	r0, r6, #1610612736	; 0x60000000
    169c:	02040200 	andeq	r0, r4, #0, 4
    16a0:	0602052e 	streq	r0, [r2], -lr, lsr #10
    16a4:	0100d103 	tsteq	r0, r3, lsl #2
    16a8:	01060705 	tsteq	r6, r5, lsl #14
    16ac:	0602052e 	streq	r0, [r2], -lr, lsr #10
    16b0:	060b052f 	streq	r0, [fp], -pc, lsr #10
    16b4:	2f010501 	svccs	0x00010501
    16b8:	03060505 	movweq	r0, #25861	; 0x6505
    16bc:	09054a65 	stmdbeq	r5, {r0, r2, r5, r6, r9, fp, lr}
    16c0:	05660106 	strbeq	r0, [r6, #-262]!	; 0xfffffefa
    16c4:	059f0605 	ldreq	r0, [pc, #1541]	; 1cd1 <__code_start__-0x632f>
    16c8:	01110304 	tsteq	r1, r4, lsl #6
    16cc:	01060705 	tsteq	r6, r5, lsl #14
    16d0:	31060405 	tstcc	r6, r5, lsl #8
    16d4:	05010a05 	streq	r0, [r1, #-2565]	; 0xfffff5fb
    16d8:	04020013 	streq	r0, [r2], #-19	; 0xffffffed
    16dc:	052e0601 	streq	r0, [lr, #-1537]!	; 0xfffff9ff
    16e0:	04020010 	streq	r0, [r2], #-16
    16e4:	05052e01 	streq	r2, [r5, #-3585]	; 0xfffff1ff
    16e8:	0a054b06 	beq	154308 <__bss_end__+0x149010>
    16ec:	2d060106 	stfcss	f0, [r6, #-24]	; 0xffffffe8
    16f0:	01060405 	tsteq	r6, r5, lsl #8
    16f4:	03061105 	movweq	r1, #24837	; 0x6105
    16f8:	13667fb6 	cmnne	r6, #728	; 0x2d8
    16fc:	04020001 	streq	r0, [r2], #-1
    1700:	06ba0602 	ldrteq	r0, [sl], r2, lsl #12
    1704:	051401ba 	ldreq	r0, [r4, #-442]	; 0xfffffe46
    1708:	2e13061a 	mrccs	6, 0, r0, cr3, cr10, {0}
    170c:	4e11052e 	cfmul64mi	mvdx0, mvdx1, mvdx14
    1710:	68140567 	ldmdavs	r4, {r0, r1, r2, r5, r6, r8, sl}
    1714:	05821305 	streq	r1, [r2, #773]	; 0x305
    1718:	4a780315 	bmi	1e02374 <__bss_end__+0x1df707c>
    171c:	4b061105 	blmi	185b38 <__bss_end__+0x17a840>
    1720:	13141313 	tstne	r4, #1275068416	; 0x4c000000
    1724:	06130514 			; <UNDEFINED> instruction: 0x06130514
    1728:	06090501 	streq	r0, [r9], -r1, lsl #10
    172c:	060d052f 	streq	r0, [sp], -pc, lsr #10
    1730:	052e2e01 	streq	r2, [lr, #-3585]!	; 0xfffff1ff
    1734:	0d05bb09 	vstreq	d11, [r5, #-36]	; 0xffffffdc
    1738:	0609059d 			; <UNDEFINED> instruction: 0x0609059d
    173c:	2f15052f 	svccs	0x0015052f
    1740:	4a750306 	bmi	1d42360 <__bss_end__+0x1d37068>
    1744:	4a2e0b03 	bmi	b84358 <__bss_end__+0xb79060>
    1748:	03060505 	movweq	r0, #25861	; 0x6505
    174c:	09050123 	stmdbeq	r5, {r0, r1, r5, r8}
    1750:	052e0106 	streq	r0, [lr, #-262]!	; 0xfffffefa
    1754:	03d70605 	bicseq	r0, r7, #5242880	; 0x500000
    1758:	0e032e6e 	cdpeq	14, 0, cr2, cr3, cr14, {3}
    175c:	06090501 	streq	r0, [r9], -r1, lsl #10
    1760:	06050501 	streq	r0, [r5], -r1, lsl #10
    1764:	054a1003 	strbeq	r1, [sl, #-3]
    1768:	7eed0301 	cdpvc	3, 14, cr0, cr13, cr1, {0}
    176c:	14020501 	strne	r0, [r2], #-1281	; 0xfffffaff
    1770:	05141315 	ldreq	r1, [r4, #-789]	; 0xfffffceb
    1774:	011a0304 	tsteq	sl, r4, lsl #6
    1778:	01060905 	tsteq	r6, r5, lsl #18
    177c:	46030205 	strmi	r0, [r3], -r5, lsl #4
    1780:	0309052e 	movweq	r0, #38190	; 0x952e
    1784:	04052e3a 	streq	r2, [r5], #-3642	; 0xfffff1c6
    1788:	0d032f06 	stceq	15, cr2, [r3, #-24]	; 0xffffffe8
    178c:	02050101 	andeq	r0, r5, #1073741824	; 0x40000000
    1790:	030e0515 	movweq	r0, #58645	; 0xe515
    1794:	05017fb2 	streq	r7, [r1, #-4018]	; 0xfffff04e
    1798:	05141302 	ldreq	r1, [r4, #-770]	; 0xfffffcfe
    179c:	02050108 	andeq	r0, r5, #2
    17a0:	08050106 	stmdaeq	r5, {r1, r2, r8}
    17a4:	0603059f 			; <UNDEFINED> instruction: 0x0603059f
    17a8:	0501064a 	streq	r0, [r1, #-1610]	; 0xfffff9b6
    17ac:	15052e08 	strne	r2, [r5, #-3592]	; 0xfffff1f8
    17b0:	08052d06 	stmdaeq	r5, {r1, r2, r8, sl, fp, sp}
    17b4:	2f030501 	svccs	0x00030501
    17b8:	08050106 	stmdaeq	r5, {r1, r2, r8}
    17bc:	0615052e 	ldreq	r0, [r5], -lr, lsr #10
    17c0:	0108052d 	tsteq	r8, sp, lsr #10
    17c4:	062f0305 	strteq	r0, [pc], -r5, lsl #6
    17c8:	2e080501 	cfsh32cs	mvfx0, mvfx8, #1
    17cc:	2d061505 	cfstr32cs	mvfx1, [r6, #-20]	; 0xffffffec
    17d0:	05010805 	streq	r0, [r1, #-2053]	; 0xfffff7fb
    17d4:	01062f03 	tsteq	r6, r3, lsl #30
    17d8:	052e0805 	streq	r0, [lr, #-2053]!	; 0xfffff7fb
    17dc:	052d0615 	streq	r0, [sp, #-1557]!	; 0xfffff9eb
    17e0:	03050108 	movweq	r0, #20744	; 0x5108
    17e4:	0501062f 	streq	r0, [r1, #-1583]	; 0xfffff9d1
    17e8:	15052e08 	strne	r2, [r5, #-3592]	; 0xfffff1f8
    17ec:	08052d06 	stmdaeq	r5, {r1, r2, r8, sl, fp, sp}
    17f0:	2f030501 	svccs	0x00030501
    17f4:	08050106 	stmdaeq	r5, {r1, r2, r8}
    17f8:	0615052e 	ldreq	r0, [r5], -lr, lsr #10
    17fc:	0108052d 	tsteq	r8, sp, lsr #10
    1800:	05130305 	ldreq	r0, [r3, #-773]	; 0xfffffcfb
    1804:	05010608 	streq	r0, [r1, #-1544]	; 0xfffff9f8
    1808:	052d0615 	streq	r0, [sp, #-1557]!	; 0xfffff9eb
    180c:	66060108 	strvs	r0, [r6], -r8, lsl #2
    1810:	67060305 	strvs	r0, [r6, -r5, lsl #6]
    1814:	01060805 	tsteq	r6, r5, lsl #16
    1818:	052d1805 	streq	r1, [sp, #-2053]!	; 0xfffff7fb
    181c:	08052e02 	stmdaeq	r5, {r1, r9, sl, fp, sp}
    1820:	0615052f 	ldreq	r0, [r5], -pc, lsr #10
    1824:	0108052d 	tsteq	r8, sp, lsr #10
    1828:	01060205 	tsteq	r6, r5, lsl #4
    182c:	2f060305 	svccs	0x00060305
    1830:	11061805 	tstne	r6, r5, lsl #16
    1834:	052e0205 	streq	r0, [lr, #-517]!	; 0xfffffdfb
    1838:	15052f08 	strne	r2, [r5, #-3848]	; 0xfffff0f8
    183c:	08052d06 	stmdaeq	r5, {r1, r2, r8, sl, fp, sp}
    1840:	13030501 	movwne	r0, #13569	; 0x3501
    1844:	01060805 	tsteq	r6, r5, lsl #16
    1848:	2d061505 	cfstr32cs	mvfx1, [r6, #-20]	; 0xffffffec
    184c:	05010805 	streq	r0, [r1, #-2053]	; 0xfffff7fb
    1850:	4a140605 	bmi	50306c <__bss_end__+0x4f7d74>
    1854:	2e060205 	cdpcs	2, 0, cr0, cr6, cr5, {0}
    1858:	19060e05 	stmdbne	r6, {r0, r2, r9, sl, fp}
    185c:	052f0405 	streq	r0, [pc, #-1029]!	; 145f <__code_start__-0x6ba1>
    1860:	09052f11 	stmdbeq	r5, {r0, r4, r8, r9, sl, fp, sp}
    1864:	3302054a 	movwcc	r0, #9546	; 0x254a
    1868:	72030505 	andvc	r0, r3, #20971520	; 0x1400000
    186c:	0602052e 	streq	r0, [r2], -lr, lsr #10
    1870:	0501062f 	streq	r0, [r1, #-1583]	; 0xfffff9d1
    1874:	0516060e 	ldreq	r0, [r6, #-1550]	; 0xfffff9f2
    1878:	05131402 	ldreq	r1, [r3, #-1026]	; 0xfffffbfe
    187c:	02051303 	andeq	r1, r5, #201326592	; 0xc000000
    1880:	0b051514 	bleq	146cd8 <__bss_end__+0x13b9e0>
    1884:	06020501 	streq	r0, [r2], -r1, lsl #10
    1888:	05662e01 	strbeq	r2, [r6, #-3585]!	; 0xfffff1ff
    188c:	052f0603 	streq	r0, [pc, #-1539]!	; 1291 <__code_start__-0x6d6f>
    1890:	0501060a 	streq	r0, [r1, #-1546]	; 0xfffff9f6
    1894:	0a052d02 	beq	14cca4 <__bss_end__+0x1419ac>
    1898:	0617052f 	ldreq	r0, [r7], -pc, lsr #10
    189c:	010b052d 	tsteq	fp, sp, lsr #10
    18a0:	01060205 	tsteq	r6, r5, lsl #4
    18a4:	05054a4a 	streq	r4, [r5, #-2634]	; 0xfffff5b6
    18a8:	01950306 	orrseq	r0, r5, r6, lsl #6
    18ac:	06110501 	ldreq	r0, [r1], -r1, lsl #10
    18b0:	017ef803 	cmneq	lr, r3, lsl #16	; <UNPREDICTABLE>
    18b4:	88031b05 	stmdahi	r3, {r0, r2, r8, r9, fp, ip}
    18b8:	01054a01 	tsteq	r5, r1, lsl #20
    18bc:	7ef30306 	cdpvc	3, 15, cr0, cr3, cr6, {0}
    18c0:	1402052e 	strne	r0, [r2], #-1326	; 0xfffffad2
    18c4:	05141315 	ldreq	r1, [r4, #-789]	; 0xfffffceb
    18c8:	01220319 			; <UNDEFINED> instruction: 0x01220319
    18cc:	05131a05 	ldreq	r1, [r3, #-2565]	; 0xfffff5fb
    18d0:	05010628 	streq	r0, [r1, #-1576]	; 0xfffff9d8
    18d4:	04052e1f 	streq	r2, [r5], #-3615	; 0xfffff1e1
    18d8:	4a0e052f 	bmi	382d9c <__bss_end__+0x377aa4>
    18dc:	052d1f05 	streq	r1, [sp, #-3845]!	; 0xfffff0fb
    18e0:	052f060b 	streq	r0, [pc, #-1547]!	; 12dd <__code_start__-0x6d23>
    18e4:	06010604 	streq	r0, [r1], -r4, lsl #12
    18e8:	02050132 	andeq	r0, r5, #-2147483636	; 0x8000000c
    18ec:	030e0515 	movweq	r0, #58645	; 0xe515
    18f0:	05017fb2 	streq	r7, [r1, #-4018]	; 0xfffff04e
    18f4:	06051302 	streq	r1, [r5], -r2, lsl #6
    18f8:	02050106 	andeq	r0, r5, #-2147483647	; 0x80000001
    18fc:	08053006 	stmdaeq	r5, {r1, r2, ip, sp}
    1900:	06020501 	streq	r0, [r2], -r1, lsl #10
    1904:	06030501 	streq	r0, [r3], -r1, lsl #10
    1908:	08052108 	stmdaeq	r5, {r3, r8, sp}
    190c:	15050106 	strne	r0, [r5, #-262]	; 0xfffffefa
    1910:	08054906 	stmdaeq	r5, {r1, r2, r8, fp, lr}
    1914:	d7030501 	strle	r0, [r3, -r1, lsl #10]
    1918:	01060805 	tsteq	r6, r5, lsl #16
    191c:	052d1805 	streq	r1, [sp, #-2053]!	; 0xfffff7fb
    1920:	08052e02 	stmdaeq	r5, {r1, r9, sl, fp, sp}
    1924:	0615052f 	ldreq	r0, [r5], -pc, lsr #10
    1928:	0108052d 	tsteq	r8, sp, lsr #10
    192c:	01060205 	tsteq	r6, r5, lsl #4
    1930:	2f060305 	svccs	0x00060305
    1934:	11061805 	tstne	r6, r5, lsl #16
    1938:	052e0205 	streq	r0, [lr, #-517]!	; 0xfffffdfb
    193c:	15052f08 	strne	r2, [r5, #-3848]	; 0xfffff0f8
    1940:	08052d06 	stmdaeq	r5, {r1, r2, r8, sl, fp, sp}
    1944:	13030501 	movwne	r0, #13569	; 0x3501
    1948:	01060805 	tsteq	r6, r5, lsl #16
    194c:	2d061505 	cfstr32cs	mvfx1, [r6, #-20]	; 0xffffffec
    1950:	05010805 	streq	r0, [r1, #-2053]	; 0xfffff7fb
    1954:	05140605 	ldreq	r0, [r4, #-1541]	; 0xfffff9fb
    1958:	05660602 	strbeq	r0, [r6, #-1538]!	; 0xfffff9fe
    195c:	051a0604 	ldreq	r0, [sl, #-1540]	; 0xfffff9fc
    1960:	4a780305 	bmi	1e0257c <__bss_end__+0x1df7284>
    1964:	2f060205 	svccs	0x00060205
    1968:	0e050106 	adfeqs	f0, f5, f6
    196c:	02051606 	andeq	r1, r5, #6291456	; 0x600000
    1970:	04051314 	streq	r1, [r5], #-788	; 0xfffffcec
    1974:	03050106 	movweq	r0, #20742	; 0x5106
    1978:	11052f06 	tstne	r5, r6, lsl #30
    197c:	09050106 	stmdbeq	r5, {r1, r2, r8}
    1980:	0602052e 	streq	r0, [r2], -lr, lsr #10
    1984:	0b051530 	bleq	146e4c <__bss_end__+0x13bb54>
    1988:	06020501 	streq	r0, [r2], -r1, lsl #10
    198c:	2e4a4a01 	vmlacs.f32	s9, s20, s2
    1990:	2f060305 	svccs	0x00060305
    1994:	01060a05 	tsteq	r6, r5, lsl #20
    1998:	052d0205 	streq	r0, [sp, #-517]!	; 0xfffffdfb
    199c:	17052f0a 	strne	r2, [r5, -sl, lsl #30]
    19a0:	0b052d06 	bleq	14cdc0 <__bss_end__+0x141ac8>
    19a4:	06020501 	streq	r0, [r2], -r1, lsl #10
    19a8:	062e4a01 	strteq	r4, [lr], -r1, lsl #20
    19ac:	06090514 			; <UNDEFINED> instruction: 0x06090514
    19b0:	06020501 	streq	r0, [r2], -r1, lsl #10
    19b4:	0501064c 	streq	r0, [r1, #-1612]	; 0xfffff9b4
    19b8:	98030605 	stmdals	r3, {r0, r2, r9, sl}
    19bc:	052a0101 	streq	r0, [sl, #-257]!	; 0xfffffeff
    19c0:	05010607 	streq	r0, [r1, #-1543]	; 0xfffff9f9
    19c4:	052f0605 	streq	r0, [pc, #-1541]!	; 13c7 <__code_start__-0x6c39>
    19c8:	2e530318 	mrccs	3, 2, r0, cr3, cr8, {0}
    19cc:	01061b05 	tsteq	r6, r5, lsl #22
    19d0:	05821a05 	streq	r1, [r2, #2565]	; 0xa05
    19d4:	054b0609 	strbeq	r0, [fp, #-1545]	; 0xfffff9f7
    19d8:	2e01060d 	cfmadd32cs	mvax0, mvfx0, mvfx1, mvfx13
    19dc:	05d70905 	ldrbeq	r0, [r7, #2309]	; 0x905
    19e0:	09059d0d 	stmdbeq	r5, {r0, r2, r3, r8, sl, fp, ip, pc}
    19e4:	15052f06 	strne	r2, [r5, #-3846]	; 0xfffff0fa
    19e8:	06180530 			; <UNDEFINED> instruction: 0x06180530
    19ec:	66170501 	ldrvs	r0, [r7], -r1, lsl #10
    19f0:	052f1905 	streq	r1, [pc, #-2309]!	; 10f3 <__code_start__-0x6f0d>
    19f4:	19054917 	stmdbne	r5, {r0, r1, r2, r4, r8, fp, lr}
    19f8:	15052f06 	strne	r2, [r5, #-3846]	; 0xfffff0fa
    19fc:	2e6f0306 	cdpcs	3, 6, cr0, cr15, cr6, {0}
    1a00:	03061905 	movweq	r1, #26885	; 0x6905
    1a04:	15054a13 	strne	r4, [r5, #-2579]	; 0xfffff5ed
    1a08:	2e6d0306 	cdpcs	3, 6, cr0, cr13, cr6, {0}
    1a0c:	0302054a 	movweq	r0, #9546	; 0x254a
    1a10:	66017fa0 	strvs	r7, [r1], -r0, lsr #31
    1a14:	01720306 	cmneq	r2, r6, lsl #6
    1a18:	01060505 	tsteq	r6, r5, lsl #10
    1a1c:	05360405 	ldreq	r0, [r6, #-1029]!	; 0xfffffbfb
    1a20:	2e780305 	cdpcs	3, 7, cr0, cr8, cr5, {0}
    1a24:	2f060205 	svccs	0x00060205
    1a28:	0e050106 	adfeqs	f0, f5, f6
    1a2c:	02051606 	andeq	r1, r5, #6291456	; 0x600000
    1a30:	04051314 	streq	r1, [r5], #-788	; 0xfffffcec
    1a34:	054a0106 	strbeq	r0, [sl, #-262]	; 0xfffffefa
    1a38:	78030602 	stmdavc	r3, {r1, r9, sl}
    1a3c:	06050501 	streq	r0, [r5], -r1, lsl #10
    1a40:	02054a01 	andeq	r4, r5, #4096	; 0x1000
    1a44:	01064b06 	tsteq	r6, r6, lsl #22
    1a48:	16060e05 	strne	r0, [r6], -r5, lsl #28
    1a4c:	13140205 	tstne	r4, #1342177280	; 0x50000000
    1a50:	0b051515 	bleq	146eac <__bss_end__+0x13bbb4>
    1a54:	052e0601 	streq	r0, [lr, #-1537]!	; 0xfffff9ff
    1a58:	9e030611 	mcrls	6, 0, r0, cr3, cr1, {0}
    1a5c:	22050101 	andcs	r0, r5, #1073741824	; 0x40000000
    1a60:	05050106 	streq	r0, [r5, #-262]	; 0xfffffefa
    1a64:	2d22052f 	cfstr32cs	mvfx0, [r2, #-188]!	; 0xffffff44
    1a68:	2f060505 	svccs	0x00060505
    1a6c:	054b1105 	strbeq	r1, [fp, #-261]	; 0xfffffefb
    1a70:	9e018305 	cdpls	3, 0, cr8, cr1, cr5, {0}
    1a74:	012e5c03 			; <UNDEFINED> instruction: 0x012e5c03
    1a78:	0602059e 			; <UNDEFINED> instruction: 0x0602059e
    1a7c:	2e7ef303 	cdpcs	3, 7, cr15, cr14, cr3, {0}
    1a80:	2c06052e 	cfstr32cs	mvfx0, [r6], {46}	; 0x2e
    1a84:	030d054a 	movweq	r0, #54602	; 0xd54a
    1a88:	050100d8 	streq	r0, [r1, #-216]	; 0xffffff28
    1a8c:	04020004 	streq	r0, [r2], #-4
    1a90:	11030601 	tstne	r3, r1, lsl #12
    1a94:	0402004a 	streq	r0, [r2], #-74	; 0xffffffb6
    1a98:	11050101 	tstne	r5, r1, lsl #2
    1a9c:	9e065106 	adflss	f5, f6, f6
    1aa0:	17031505 	strne	r1, [r3, -r5, lsl #10]
    1aa4:	05ba012e 	ldreq	r0, [sl, #302]!	; 0x12e
    1aa8:	2e690311 	mcrcs	3, 3, r0, cr9, cr1, {0}
    1aac:	00280201 	eoreq	r0, r8, r1, lsl #4
    1ab0:	00870101 	addeq	r0, r7, r1, lsl #2
    1ab4:	00030000 	andeq	r0, r3, r0
    1ab8:	00000064 	andeq	r0, r0, r4, rrx
    1abc:	0efb0102 	cdpeq	1, 15, cr0, cr11, cr2, {0}
    1ac0:	0101000d 	tsteq	r1, sp
    1ac4:	00000101 	andeq	r0, r0, r1, lsl #2
    1ac8:	00000100 	andeq	r0, r0, r0, lsl #2
    1acc:	732f2e01 			; <UNDEFINED> instruction: 0x732f2e01
    1ad0:	66666174 			; <UNDEFINED> instruction: 0x66666174
    1ad4:	6372732d 	cmnvs	r2, #-1275068416	; 0xb4000000
    1ad8:	73552f00 	cmpvc	r5, #0, 30
    1adc:	2f737265 	svccs	0x00737265
    1ae0:	656c696d 	strbvs	r6, [ip, #-2413]!	; 0xfffff693
    1ae4:	6f532f73 	svcvs	0x00532f73
    1ae8:	65637275 	strbvs	r7, [r3, #-629]!	; 0xfffffd8b
    1aec:	3273632f 	rsbscc	r6, r3, #-1140850688	; 0xbc000000
    1af0:	786c3034 	stmdavc	ip!, {r2, r4, r5, ip, sp}^
    1af4:	62696c2f 	rsbvs	r6, r9, #12032	; 0x2f00
    1af8:	692f6970 	stmdbvs	pc!, {r4, r5, r6, r8, fp, sp, lr}	; <UNPREDICTABLE>
    1afc:	756c636e 	strbvc	r6, [ip, #-878]!	; 0xfffffc92
    1b00:	00006564 	andeq	r6, r0, r4, ror #10
    1b04:	61656c63 	cmnvs	r5, r3, ror #24
    1b08:	65722d6e 	ldrbvs	r2, [r2, #-3438]!	; 0xfffff292
    1b0c:	746f6f62 	strbtvc	r6, [pc], #-3938	; 1b14 <__code_start__-0x64ec>
    1b10:	0100632e 	tsteq	r0, lr, lsr #6
    1b14:	70720000 	rsbsvc	r0, r2, r0
    1b18:	00682e69 	rsbeq	r2, r8, r9, ror #28
    1b1c:	00000002 	andeq	r0, r0, r2
    1b20:	05001905 	streq	r1, [r0, #-2309]	; 0xfffff6fb
    1b24:	009a7802 	addseq	r7, sl, r2, lsl #16
    1b28:	05051500 	streq	r1, [r5, #-1280]	; 0xfffffb00
    1b2c:	06190513 			; <UNDEFINED> instruction: 0x06190513
    1b30:	2f05052d 	svccs	0x0005052d
    1b34:	4b2f6706 	blmi	bdb754 <__bss_end__+0xbd045c>
    1b38:	01000602 	tsteq	r0, r2, lsl #12
    1b3c:	00017601 	andeq	r7, r1, r1, lsl #12
    1b40:	5e000300 	cdppl	3, 0, cr0, cr0, cr0, {0}
    1b44:	02000000 	andeq	r0, r0, #0, 0
    1b48:	0d0efb01 	vstreq	d15, [lr, #-4]
    1b4c:	01010100 	mrseq	r0, (UNDEF: 17)
    1b50:	00000001 	andeq	r0, r0, r1
    1b54:	01000001 	tsteq	r0, r1
    1b58:	74732f2e 	ldrbtvc	r2, [r3], #-3886	; 0xfffff0d2
    1b5c:	2d666661 	stclcs	6, cr6, [r6, #-388]!	; 0xfffffe7c
    1b60:	00637273 	rsbeq	r7, r3, r3, ror r2
    1b64:	6573552f 	ldrbvs	r5, [r3, #-1327]!	; 0xfffffad1
    1b68:	6d2f7372 	stcvs	3, cr7, [pc, #-456]!	; 19a8 <__code_start__-0x6658>
    1b6c:	73656c69 	cmnvc	r5, #26880	; 0x6900
    1b70:	756f532f 	strbvc	r5, [pc, #-815]!	; 1849 <__code_start__-0x67b7>
    1b74:	2f656372 	svccs	0x00656372
    1b78:	34327363 	ldrtcc	r7, [r2], #-867	; 0xfffffc9d
    1b7c:	2f786c30 	svccs	0x00786c30
    1b80:	7062696c 	rsbvc	r6, r2, ip, ror #18
    1b84:	6e692f69 	cdpvs	15, 6, cr2, cr9, cr9, {3}
    1b88:	64756c63 	ldrbtvs	r6, [r5], #-3171	; 0xfffff39d
    1b8c:	63000065 	movwvs	r0, #101	; 0x65
    1b90:	72617473 	rsbvc	r7, r1, #1929379840	; 0x73000000
    1b94:	00632e74 	rsbeq	r2, r3, r4, ror lr
    1b98:	72000001 	andvc	r0, r0, #1, 0
    1b9c:	682e6970 	stmdavs	lr!, {r4, r5, r6, r8, fp, sp, lr}
    1ba0:	00000200 	andeq	r0, r0, r0, lsl #4
    1ba4:	00100500 	andseq	r0, r0, r0, lsl #10
    1ba8:	9aa40205 	bls	fe9023c4 <__bss_end__+0xfe8f70cc>
    1bac:	10030000 	andne	r0, r3, r0
    1bb0:	13050501 	movwne	r0, #21761	; 0x5501
    1bb4:	05130205 	ldreq	r0, [r3, #-517]	; 0xfffffdfb
    1bb8:	10051405 	andne	r1, r5, r5, lsl #8
    1bbc:	05050e06 	streq	r0, [r5, #-3590]	; 0xfffff1fa
    1bc0:	13300632 	teqne	r0, #52428800	; 0x3200000
    1bc4:	010a0514 	tsteq	sl, r4, lsl r5
    1bc8:	91080905 	tstls	r8, r5, lsl #18
    1bcc:	01061005 	tsteq	r6, r5
    1bd0:	059a0a05 	ldreq	r0, [sl, #2565]	; 0xa05
    1bd4:	0a056a10 	beq	15c41c <__bss_end__+0x151124>
    1bd8:	09052d06 	stmdbeq	r5, {r1, r2, r8, sl, fp, sp}
    1bdc:	0610052f 	ldreq	r0, [r0], -pc, lsr #10
    1be0:	060a0501 	streq	r0, [sl], -r1, lsl #10
    1be4:	bb09052d 	bllt	2430a0 <__bss_end__+0x237da8>
    1be8:	01061005 	tsteq	r6, r5
    1bec:	65060a05 	strvs	r0, [r6, #-2565]	; 0xfffff5fb
    1bf0:	054b0905 	strbeq	r0, [fp, #-2309]	; 0xfffff6fb
    1bf4:	0501060d 	streq	r0, [r1, #-1549]	; 0xfffff9f3
    1bf8:	10052d0a 	andne	r2, r5, sl, lsl #26
    1bfc:	060a052f 	streq	r0, [sl], -pc, lsr #10
    1c00:	2f09052d 	svccs	0x0009052d
    1c04:	01060d05 	tsteq	r6, r5, lsl #26
    1c08:	052d0a05 	streq	r0, [sp, #-2565]!	; 0xfffff5fb
    1c0c:	0a052f10 	beq	14d854 <__bss_end__+0x14255c>
    1c10:	09052d06 	stmdbeq	r5, {r1, r2, r8, sl, fp, sp}
    1c14:	060d052f 	streq	r0, [sp], -pc, lsr #10
    1c18:	2d0a0501 	cfstr32cs	mvfx0, [sl, #-4]
    1c1c:	052f1005 	streq	r1, [pc, #-5]!	; 1c1f <__code_start__-0x63e1>
    1c20:	052d060a 	streq	r0, [sp, #-1546]!	; 0xfffff9f6
    1c24:	0d052f09 	stceq	15, cr2, [r5, #-36]	; 0xffffffdc
    1c28:	0a050106 	beq	142048 <__bss_end__+0x136d50>
    1c2c:	2f10052d 	svccs	0x0010052d
    1c30:	2d060a05 	vstrcs	s0, [r6, #-20]	; 0xffffffec
    1c34:	05130905 	ldreq	r0, [r3, #-2309]	; 0xfffff6fb
    1c38:	05010610 	streq	r0, [r1, #-1552]	; 0xfffff9f0
    1c3c:	052d060a 	streq	r0, [sp, #-1546]!	; 0xfffff9f6
    1c40:	01321505 	teqeq	r2, r5, lsl #10
    1c44:	05144a01 	ldreq	r4, [r4, #-2561]	; 0xfffff5ff
    1c48:	01610311 	cmneq	r1, r1, lsl r3
    1c4c:	14130505 	ldrne	r0, [r3], #-1285	; 0xfffffafb
    1c50:	01140514 	tsteq	r4, r4, lsl r5
    1c54:	01062e01 	tsteq	r6, r1, lsl #28
    1c58:	13060505 	movwne	r0, #25861	; 0x6505
    1c5c:	060a0515 			; <UNDEFINED> instruction: 0x060a0515
    1c60:	06050501 	streq	r0, [r5], -r1, lsl #10
    1c64:	0601064b 	streq	r0, [r1], -fp, asr #12
    1c68:	2f011603 	svccs	0x00011603
    1c6c:	5f031105 	svcpl	0x00031105
    1c70:	13050501 	movwne	r0, #21761	; 0x5501
    1c74:	14051414 	strne	r1, [r5], #-1044	; 0xfffffbec
    1c78:	062e0101 	strteq	r0, [lr], -r1, lsl #2
    1c7c:	06050501 	streq	r0, [r5], -r1, lsl #10
    1c80:	06080513 			; <UNDEFINED> instruction: 0x06080513
    1c84:	03050501 	movweq	r0, #21761	; 0x5501
    1c88:	07052e1c 	smladeq	r5, ip, lr, r2
    1c8c:	052e6403 	streq	r6, [lr, #-1027]!	; 0xfffffbfd
    1c90:	052f0609 	streq	r0, [pc, #-1545]!	; 168f <__code_start__-0x6971>
    1c94:	0501060e 	streq	r0, [r1, #-1550]	; 0xfffff9f2
    1c98:	05300605 	ldreq	r0, [r0, #-1541]!	; 0xfffff9fb
    1c9c:	0501060a 	streq	r0, [r1, #-1546]	; 0xfffff9f6
    1ca0:	062f0605 	strteq	r0, [pc], -r5, lsl #12
    1ca4:	18030601 	stmdane	r3, {r0, r9, sl}
    1ca8:	30020501 	andcc	r0, r2, r1, lsl #10
    1cac:	03060a05 	movweq	r0, #27141	; 0x6a05
    1cb0:	0c022e6f 	stceq	14, cr2, [r2], {111}	; 0x6f
    1cb4:	7d010100 	stfvcs	f0, [r1, #-0]
    1cb8:	03000000 	movweq	r0, #0
    1cbc:	00006500 	andeq	r6, r0, r0, lsl #10
    1cc0:	fb010200 	blx	424ca <__bss_end__+0x371d2>
    1cc4:	01000d0e 	tsteq	r0, lr, lsl #26
    1cc8:	00010101 	andeq	r0, r1, r1, lsl #2
    1ccc:	00010000 	andeq	r0, r1, r0
    1cd0:	2f2e0100 	svccs	0x002e0100
    1cd4:	66617473 			; <UNDEFINED> instruction: 0x66617473
    1cd8:	72732d66 	rsbsvc	r2, r3, #6528	; 0x1980
    1cdc:	552f0063 	strpl	r0, [pc, #-99]!	; 1c81 <__code_start__-0x637f>
    1ce0:	73726573 	cmnvc	r2, #482344960	; 0x1cc00000
    1ce4:	6c696d2f 	stclvs	13, cr6, [r9], #-188	; 0xffffff44
    1ce8:	532f7365 			; <UNDEFINED> instruction: 0x532f7365
    1cec:	6372756f 	cmnvs	r2, #465567744	; 0x1bc00000
    1cf0:	73632f65 	cmnvc	r3, #404	; 0x194
    1cf4:	6c303432 	cfldrsvs	mvf3, [r0], #-200	; 0xffffff38
    1cf8:	696c2f78 	stmdbvs	ip!, {r3, r4, r5, r6, r8, r9, sl, fp, sp}^
    1cfc:	2f697062 	svccs	0x00697062
    1d00:	6c636e69 	stclvs	14, cr6, [r3], #-420	; 0xfffffe5c
    1d04:	00656475 	rsbeq	r6, r5, r5, ror r4
    1d08:	73756300 	cmnvc	r5, #0, 6
    1d0c:	2d6d6f74 	stclcs	15, cr6, [sp, #-464]!	; 0xfffffe30
    1d10:	64616f6c 	strbtvs	r6, [r1], #-3948	; 0xfffff094
    1d14:	632e7265 			; <UNDEFINED> instruction: 0x632e7265
    1d18:	00000100 	andeq	r0, r0, r0, lsl #2
    1d1c:	2e697072 	mcrcs	0, 3, r7, cr9, cr2, {3}
    1d20:	00020068 	andeq	r0, r2, r8, rrx
    1d24:	1a050000 	bne	141d2c <__bss_end__+0x136a34>
    1d28:	cc020500 	cfstr32gt	mvfx0, [r2], {-0}
    1d2c:	1500009b 	strne	r0, [r0, #-155]	; 0xffffff65
    1d30:	02140105 	andseq	r0, r4, #1073741825	; 0x40000001
    1d34:	01010002 	tsteq	r1, r2
    1d38:	00000114 	andeq	r0, r0, r4, lsl r1
    1d3c:	005e0003 	subseq	r0, lr, r3
    1d40:	01020000 	mrseq	r0, (UNDEF: 2)
    1d44:	000d0efb 	strdeq	r0, [sp], -fp
    1d48:	01010101 	tsteq	r1, r1, lsl #2
    1d4c:	01000000 	mrseq	r0, (UNDEF: 0)
    1d50:	2e010000 	cdpcs	0, 0, cr0, cr1, cr0, {0}
    1d54:	6174732f 	cmnvs	r4, pc, lsr #6
    1d58:	732d6666 			; <UNDEFINED> instruction: 0x732d6666
    1d5c:	2f006372 	svccs	0x00006372
    1d60:	72657355 	rsbvc	r7, r5, #1409286145	; 0x54000001
    1d64:	696d2f73 	stmdbvs	sp!, {r0, r1, r4, r5, r6, r8, r9, sl, fp, sp}^
    1d68:	2f73656c 	svccs	0x0073656c
    1d6c:	72756f53 	rsbsvc	r6, r5, #332	; 0x14c
    1d70:	632f6563 			; <UNDEFINED> instruction: 0x632f6563
    1d74:	30343273 	eorscc	r3, r4, r3, ror r2
    1d78:	6c2f786c 	stcvs	8, cr7, [pc], #-432	; 1bd0 <__code_start__-0x6430>
    1d7c:	69706269 	ldmdbvs	r0!, {r0, r3, r5, r6, r9, sp, lr}^
    1d80:	636e692f 	cmnvs	lr, #770048	; 0xbc000
    1d84:	6564756c 	strbvs	r7, [r4, #-1388]!	; 0xfffffa94
    1d88:	65720000 	ldrbvs	r0, [r2, #-0]!
    1d8c:	746f6f62 	strbtvc	r6, [pc], #-3938	; 1d94 <__code_start__-0x626c>
    1d90:	0100632e 	tsteq	r0, lr, lsr #6
    1d94:	70720000 	rsbsvc	r0, r2, r0
    1d98:	00682e69 	rsbeq	r2, r8, r9, ror #28
    1d9c:	00000002 	andeq	r0, r0, r2
    1da0:	05001905 	streq	r1, [r0, #-2309]	; 0xfffff6fb
    1da4:	009bd002 	addseq	sp, fp, r2
    1da8:	010d0300 	mrseq	r0, SP_mon
    1dac:	13130505 	tstne	r3, #20971520	; 0x1400000
    1db0:	06130531 			; <UNDEFINED> instruction: 0x06130531
    1db4:	2f010501 	svccs	0x00010501
    1db8:	85061b05 	strhi	r1, [r6, #-2821]	; 0xfffff4fb
    1dbc:	14130505 	ldrne	r0, [r3], #-1285	; 0xfffffafb
    1dc0:	052f0905 	streq	r0, [pc, #-2309]!	; 14c3 <__code_start__-0x6b3d>
    1dc4:	05010616 	streq	r0, [r1, #-1558]	; 0xfffff9ea
    1dc8:	052f0605 	streq	r0, [pc, #-1541]!	; 17cb <__code_start__-0x6835>
    1dcc:	0511060e 	ldreq	r0, [r1, #-1550]	; 0xfffff9f2
    1dd0:	01052f05 	tsteq	r5, r5, lsl #30
    1dd4:	0617052f 	ldreq	r0, [r7], -pc, lsr #10
    1dd8:	13050530 	movwne	r0, #21808	; 0x5530
    1ddc:	13016e03 	movwne	r6, #7683	; 0x1e03
    1de0:	06170513 			; <UNDEFINED> instruction: 0x06170513
    1de4:	05010f03 	streq	r0, [r1, #-3843]	; 0xfffff0fd
    1de8:	2e710305 	cdpcs	3, 7, cr0, cr1, cr5, {0}
    1dec:	13053106 	movwne	r3, #20742	; 0x5106
    1df0:	07050106 	streq	r0, [r5, -r6, lsl #2]
    1df4:	052e0d03 	streq	r0, [lr, #-3331]!	; 0xfffff2fd
    1df8:	054b0609 	strbeq	r0, [fp, #-1545]	; 0xfffff9f7
    1dfc:	01760306 	cmneq	r6, r6, lsl #6
    1e00:	14130505 	ldrne	r0, [r3], #-1285	; 0xfffffafb
    1e04:	052f0905 	streq	r0, [pc, #-2309]!	; 1507 <__code_start__-0x6af9>
    1e08:	05010616 	streq	r0, [r1, #-1558]	; 0xfffff9ea
    1e0c:	052f0605 	streq	r0, [pc, #-1541]!	; 180f <__code_start__-0x67f1>
    1e10:	0511060e 	ldreq	r0, [r1, #-1550]	; 0xfffff9f2
    1e14:	062e2f05 	strteq	r2, [lr], -r5, lsl #30
    1e18:	30010a03 	andcc	r0, r1, r3, lsl #20
    1e1c:	13134d2f 	tstne	r3, #3008	; 0xbc0
    1e20:	00671513 	rsbeq	r1, r7, r3, lsl r5
    1e24:	67010402 	strvs	r0, [r1, -r2, lsl #8]
    1e28:	02000d05 	andeq	r0, r0, #320	; 0x140
    1e2c:	05010104 	streq	r0, [r1, #-260]	; 0xfffffefc
    1e30:	0402000a 	streq	r0, [r2], #-10
    1e34:	05050101 	streq	r0, [r5, #-257]	; 0xfffffeff
    1e38:	01040200 	mrseq	r0, R12_usr
    1e3c:	000d0501 	andeq	r0, sp, r1, lsl #10
    1e40:	01010402 	tsteq	r1, r2, lsl #8
    1e44:	02000a05 	andeq	r0, r0, #20480	; 0x5000
    1e48:	02010104 	andeq	r0, r1, #1
    1e4c:	0101000a 	tsteq	r1, sl
    1e50:	000001fa 	strdeq	r0, [r0], -sl
    1e54:	005d0003 	subseq	r0, sp, r3
    1e58:	01020000 	mrseq	r0, (UNDEF: 2)
    1e5c:	000d0efb 	strdeq	r0, [sp], -fp
    1e60:	01010101 	tsteq	r1, r1, lsl #2
    1e64:	01000000 	mrseq	r0, (UNDEF: 0)
    1e68:	2e010000 	cdpcs	0, 0, cr0, cr1, cr0, {0}
    1e6c:	6174732f 	cmnvs	r4, pc, lsr #6
    1e70:	732d6666 			; <UNDEFINED> instruction: 0x732d6666
    1e74:	2f006372 	svccs	0x00006372
    1e78:	72657355 	rsbvc	r7, r5, #1409286145	; 0x54000001
    1e7c:	696d2f73 	stmdbvs	sp!, {r0, r1, r4, r5, r6, r8, r9, sl, fp, sp}^
    1e80:	2f73656c 	svccs	0x0073656c
    1e84:	72756f53 	rsbsvc	r6, r5, #332	; 0x14c
    1e88:	632f6563 			; <UNDEFINED> instruction: 0x632f6563
    1e8c:	30343273 	eorscc	r3, r4, r3, ror r2
    1e90:	6c2f786c 	stcvs	8, cr7, [pc], #-432	; 1ce8 <__code_start__-0x6318>
    1e94:	69706269 	ldmdbvs	r0!, {r0, r3, r5, r6, r9, sp, lr}^
    1e98:	636e692f 	cmnvs	lr, #770048	; 0xbc000
    1e9c:	6564756c 	strbvs	r7, [r4, #-1388]!	; 0xfffffa94
    1ea0:	69740000 	ldmdbvs	r4!, {}^	; <UNPREDICTABLE>
    1ea4:	2e72656d 	cdpcs	5, 7, cr6, cr2, cr13, {3}
    1ea8:	00010063 	andeq	r0, r1, r3, rrx
    1eac:	69707200 	ldmdbvs	r0!, {r9, ip, sp, lr}^
    1eb0:	0200682e 	andeq	r6, r0, #3014656	; 0x2e0000
    1eb4:	05000000 	streq	r0, [r0, #-0]
    1eb8:	02050023 	andeq	r0, r5, #35, 0	; 0x23
    1ebc:	00009c5c 	andeq	r9, r0, ip, asr ip
    1ec0:	13050515 	movwne	r0, #21781	; 0x5515
    1ec4:	01060c05 	tsteq	r6, r5, lsl #24
    1ec8:	6a061f05 	bvs	189ae4 <__bss_end__+0x17e7ec>
    1ecc:	05150505 	ldreq	r0, [r5, #-1285]	; 0xfffffafb
    1ed0:	050f061f 	streq	r0, [pc, #-1567]	; 18b9 <__code_start__-0x6747>
    1ed4:	2f063105 	svccs	0x00063105
    1ed8:	77030a05 	strvc	r0, [r3, -r5, lsl #20]
    1edc:	13050501 	movwne	r0, #21761	; 0x5501
    1ee0:	01060c05 	tsteq	r6, r5, lsl #24
    1ee4:	06050566 	streq	r0, [r5], -r6, ror #10
    1ee8:	2f010903 	svccs	0x00010903
    1eec:	13060105 	movwne	r0, #24837	; 0x6105
    1ef0:	68061c05 	stmdavs	r6, {r0, r2, sl, fp, ip}
    1ef4:	05130505 	ldreq	r0, [r3, #-1285]	; 0xfffffafb
    1ef8:	0176030a 	cmneq	r6, sl, lsl #6
    1efc:	05150505 	ldreq	r0, [r5, #-1285]	; 0xfffffafb
    1f00:	2e18061c 	mrccs	6, 0, r0, cr8, cr12, {0}
    1f04:	7a030505 	bvc	c3320 <__bss_end__+0xb8028>
    1f08:	052f062e 	streq	r0, [pc, #-1582]!	; 18e2 <__code_start__-0x671e>
    1f0c:	0177030a 	cmneq	r7, sl, lsl #6
    1f10:	05130505 	ldreq	r0, [r3, #-1285]	; 0xfffffafb
    1f14:	6601060c 	strvs	r0, [r1], -ip, lsl #12
    1f18:	03060505 	movweq	r0, #25861	; 0x6505
    1f1c:	062f0109 	strteq	r0, [pc], -r9, lsl #2
    1f20:	030c0501 	movweq	r0, #50433	; 0xc501
    1f24:	05050176 	streq	r0, [r5, #-374]	; 0xfffffe8a
    1f28:	2e0f0306 	cdpcs	3, 0, cr0, cr15, cr6, {0}
    1f2c:	05130905 	ldreq	r0, [r3, #-2309]	; 0xfffff6fb
    1f30:	0174030a 	cmneq	r4, sl, lsl #6
    1f34:	2f150505 	svccs	0x00150505
    1f38:	77030a05 	strvc	r0, [r3, -r5, lsl #20]
    1f3c:	13050501 	movwne	r0, #21761	; 0x5501
    1f40:	01060c05 	tsteq	r6, r5, lsl #24
    1f44:	06050566 	streq	r0, [r5], -r6, ror #10
    1f48:	05010903 	streq	r0, [r1, #-2307]	; 0xfffff6fd
    1f4c:	051a0611 	ldreq	r0, [sl, #-1553]	; 0xfffff9ef
    1f50:	2e780305 	cdpcs	3, 7, cr0, cr8, cr5, {0}
    1f54:	09052f06 	stmdbeq	r5, {r1, r2, r8, r9, sl, fp, sp}
    1f58:	060c0519 			; <UNDEFINED> instruction: 0x060c0519
    1f5c:	061c0501 	ldreq	r0, [ip], -r1, lsl #10
    1f60:	13050587 	movwne	r0, #21895	; 0x5587
    1f64:	11061c05 	tstne	r6, r5, lsl #24
    1f68:	4a2f0505 	bmi	bc3384 <__bss_end__+0xbb808c>
    1f6c:	03060605 	movweq	r0, #26117	; 0x6605
    1f70:	05052e76 	streq	r2, [r5, #-3702]	; 0xfffff18a
    1f74:	030a0513 	movweq	r0, #42259	; 0xa513
    1f78:	05050176 	streq	r0, [r5, #-374]	; 0xfffffe8a
    1f7c:	0a052f15 	beq	14dbd8 <__bss_end__+0x1428e0>
    1f80:	05017703 	streq	r7, [r1, #-1795]	; 0xfffff8fd
    1f84:	0c051305 	stceq	3, cr1, [r5], {5}
    1f88:	05660106 	strbeq	r0, [r6, #-262]!	; 0xfffffefa
    1f8c:	09030605 	stmdbeq	r3, {r0, r2, r9, sl}
    1f90:	01062f01 	tsteq	r6, r1, lsl #30
    1f94:	76030c05 	strvc	r0, [r3], -r5, lsl #24
    1f98:	06050501 	streq	r0, [r5], -r1, lsl #10
    1f9c:	052e0f03 	streq	r0, [lr, #-3843]!	; 0xfffff0fd
    1fa0:	0a051309 	beq	146bcc <__bss_end__+0x13b8d4>
    1fa4:	05017403 	streq	r7, [r1, #-1027]	; 0xfffffbfd
    1fa8:	052f1505 	streq	r1, [pc, #-1285]!	; 1aab <__code_start__-0x6555>
    1fac:	0177030a 	cmneq	r7, sl, lsl #6
    1fb0:	05130505 	ldreq	r0, [r3, #-1285]	; 0xfffffafb
    1fb4:	6601060c 	strvs	r0, [r1], -ip, lsl #12
    1fb8:	03060505 	movweq	r0, #25861	; 0x6505
    1fbc:	11050109 	tstne	r5, r9, lsl #2
    1fc0:	05051a06 	streq	r1, [r5, #-2566]	; 0xfffff5fa
    1fc4:	062e7803 	strteq	r7, [lr], -r3, lsl #16
    1fc8:	1909052f 	stmdbne	r9, {r0, r1, r2, r3, r5, r8, sl}
    1fcc:	01060c05 	tsteq	r6, r5, lsl #24
    1fd0:	8a061e05 	bhi	1897ec <__bss_end__+0x17e4f4>
    1fd4:	05130505 	ldreq	r0, [r3, #-1285]	; 0xfffffafb
    1fd8:	05050e06 	streq	r0, [r5, #-3590]	; 0xfffff1fa
    1fdc:	061e0513 			; <UNDEFINED> instruction: 0x061e0513
    1fe0:	2c050514 	cfstr32cs	mvfx0, [r5], {20}
    1fe4:	06060566 	streq	r0, [r6], -r6, ror #10
    1fe8:	052e7603 	streq	r7, [lr, #-1539]!	; 0xfffff9fd
    1fec:	0a051305 	beq	146c08 <__bss_end__+0x13b910>
    1ff0:	05017603 	streq	r7, [r1, #-1539]	; 0xfffff9fd
    1ff4:	052f1505 	streq	r1, [pc, #-1285]!	; 1af7 <__code_start__-0x6509>
    1ff8:	0177030a 	cmneq	r7, sl, lsl #6
    1ffc:	05130505 	ldreq	r0, [r3, #-1285]	; 0xfffffafb
    2000:	6601060c 	strvs	r0, [r1], -ip, lsl #12
    2004:	03060505 	movweq	r0, #25861	; 0x6505
    2008:	062f0109 	strteq	r0, [pc], -r9, lsl #2
    200c:	030c0501 	movweq	r0, #50433	; 0xc501
    2010:	05050176 	streq	r0, [r5, #-374]	; 0xfffffe8a
    2014:	2e0f0306 	cdpcs	3, 0, cr0, cr15, cr6, {0}
    2018:	05130905 	ldreq	r0, [r3, #-2309]	; 0xfffff6fb
    201c:	0174030a 	cmneq	r4, sl, lsl #6
    2020:	2f150505 	svccs	0x00150505
    2024:	77030a05 	strvc	r0, [r3, -r5, lsl #20]
    2028:	13050501 	movwne	r0, #21761	; 0x5501
    202c:	01060c05 	tsteq	r6, r5, lsl #24
    2030:	06050566 	streq	r0, [r5], -r6, ror #10
    2034:	05010903 	streq	r0, [r1, #-2307]	; 0xfffff6fd
    2038:	051a0611 	ldreq	r0, [sl, #-1553]	; 0xfffff9ef
    203c:	2e780305 	cdpcs	3, 7, cr0, cr8, cr5, {0}
    2040:	09052f06 	stmdbeq	r5, {r1, r2, r8, r9, sl, fp, sp}
    2044:	060c0519 			; <UNDEFINED> instruction: 0x060c0519
    2048:	00080201 	andeq	r0, r8, r1, lsl #4
    204c:	02050101 	andeq	r0, r5, #1073741824	; 0x40000000
    2050:	00030000 	andeq	r0, r3, r0
    2054:	000000c9 	andeq	r0, r0, r9, asr #1
    2058:	0efb0102 	cdpeq	1, 15, cr0, cr11, cr2, {0}
    205c:	0101000d 	tsteq	r1, sp
    2060:	00000101 	andeq	r0, r0, r1, lsl #2
    2064:	00000100 	andeq	r0, r0, r0, lsl #2
    2068:	6f682f01 	svcvs	0x00682f01
    206c:	652f656d 	strvs	r6, [pc, #-1389]!	; 1b07 <__code_start__-0x64f9>
    2070:	656c676e 	strbvs	r6, [ip, #-1902]!	; 0xfffff892
    2074:	6c632f72 	stclvs	15, cr2, [r3], #-456	; 0xfffffe38
    2078:	2f737361 	svccs	0x00737361
    207c:	34327363 	ldrtcc	r7, [r2], #-867	; 0xfffffc9d
    2080:	2d786c30 	ldclcs	12, cr6, [r8, #-192]!	; 0xffffff40
    2084:	70733232 	rsbsvc	r3, r3, r2, lsr r2
    2088:	6c2f2f72 	stcvs	15, cr2, [pc], #-456	; 1ec8 <__code_start__-0x6138>
    208c:	69706269 	ldmdbvs	r0!, {r0, r3, r5, r6, r9, sp, lr}^
    2090:	636e692f 	cmnvs	lr, #770048	; 0xbc000
    2094:	6564756c 	strbvs	r7, [r4, #-1388]!	; 0xfffffa94
    2098:	73752f00 	cmnvc	r5, #0, 30
    209c:	68732f72 	ldmdavs	r3!, {r1, r4, r5, r6, r8, r9, sl, fp, sp}^
    20a0:	2f657261 	svccs	0x00657261
    20a4:	2d636367 	stclcs	3, cr6, [r3, #-412]!	; 0xfffffe64
    20a8:	2d6d7261 	sfmcs	f7, 2, [sp, #-388]!	; 0xfffffe7c
    20ac:	656e6f6e 	strbvs	r6, [lr, #-3950]!	; 0xfffff092
    20b0:	6261652d 	rsbvs	r6, r1, #188743680	; 0xb400000
    20b4:	30312d69 	eorscc	r2, r1, r9, ror #26
    20b8:	322d332e 	eorcc	r3, sp, #-1207959552	; 0xb8000000
    20bc:	2e313230 	mrccs	2, 1, r3, cr1, cr0, {1}
    20c0:	6c2f3031 	stcvs	0, cr3, [pc], #-196	; 2004 <__code_start__-0x5ffc>
    20c4:	672f6269 	strvs	r6, [pc, -r9, ror #4]!
    20c8:	612f6363 			; <UNDEFINED> instruction: 0x612f6363
    20cc:	6e2d6d72 	mcrvs	13, 1, r6, cr13, cr2, {3}
    20d0:	2d656e6f 	stclcs	14, cr6, [r5, #-444]!	; 0xfffffe44
    20d4:	69626165 	stmdbvs	r2!, {r0, r2, r5, r6, r8, sp, lr}^
    20d8:	2e30312f 	rsfcssp	f3, f0, #10.0
    20dc:	2f312e33 	svccs	0x00312e33
    20e0:	6c636e69 	stclvs	14, cr6, [r3], #-420	; 0xfffffe5c
    20e4:	00656475 	rsbeq	r6, r5, r5, ror r4
    20e8:	72617500 	rsbvc	r7, r1, #0, 10
    20ec:	00632e74 	rsbeq	r2, r3, r4, ror lr
    20f0:	75000000 	strvc	r0, [r0, #-0]
    20f4:	2e747261 	cdpcs	2, 7, cr7, cr4, cr1, {3}
    20f8:	00010068 	andeq	r0, r1, r8, rrx
    20fc:	69707200 	ldmdbvs	r0!, {r9, ip, sp, lr}^
    2100:	0100682e 	tsteq	r0, lr, lsr #16
    2104:	70670000 	rsbvc	r0, r7, r0
    2108:	682e6f69 	stmdavs	lr!, {r0, r3, r5, r6, r8, r9, sl, fp, sp, lr}
    210c:	00000100 	andeq	r0, r0, r0, lsl #2
    2110:	69647473 	stmdbvs	r4!, {r0, r1, r4, r5, r6, sl, ip, sp, lr}^
    2114:	672d746e 	strvs	r7, [sp, -lr, ror #8]!
    2118:	682e6363 	stmdavs	lr!, {r0, r1, r5, r6, r8, r9, sp, lr}
    211c:	00000200 	andeq	r0, r0, r0, lsl #4
    2120:	00390500 	eorseq	r0, r9, r0, lsl #10
    2124:	9d780205 	lfmls	f0, 2, [r8, #-20]!	; 0xffffffec
    2128:	30030000 	andcc	r0, r3, r0
    212c:	05010601 	streq	r0, [r1, #-1537]	; 0xfffff9ff
    2130:	05670605 	strbeq	r0, [r7, #-1541]!	; 0xfffff9fb
    2134:	05010611 	streq	r0, [r1, #-1553]	; 0xfffff9ef
    2138:	01052e05 	tsteq	r5, r5, lsl #28
    213c:	06380567 	ldrteq	r0, [r8], -r7, ror #10
    2140:	05010629 	streq	r0, [r1, #-1577]	; 0xfffff9d7
    2144:	05670605 	strbeq	r0, [r7, #-1541]!	; 0xfffff9fb
    2148:	05010611 	streq	r0, [r1, #-1553]	; 0xfffff9ef
    214c:	01052e05 	tsteq	r5, r5, lsl #28
    2150:	06160567 	ldreq	r0, [r6], -r7, ror #10
    2154:	052e1503 	streq	r1, [lr, #-1283]!	; 0xfffffafd
    2158:	68673505 	stmdavs	r7!, {r0, r2, r8, sl, ip, sp}^
    215c:	0c036835 	stceq	8, cr6, [r3], {53}	; 0x35
    2160:	696b852e 	stmdbvs	fp!, {r1, r2, r3, r5, r8, sl, pc}^
    2164:	660c0369 	strvs	r0, [ip], -r9, ror #6
    2168:	05676b13 	strbeq	r6, [r7, #-2835]!	; 0xfffff4ed
    216c:	052f0601 	streq	r0, [pc, #-1537]!	; 1b73 <__code_start__-0x648d>
    2170:	25080619 	strcs	r0, [r8, #-1561]	; 0xfffff9e7
    2174:	05340505 	ldreq	r0, [r4, #-1285]!	; 0xfffffafb
    2178:	0501060d 	streq	r0, [r1, #-1549]	; 0xfffff9f3
    217c:	19054c01 	stmdbne	r5, {r0, sl, fp, lr}
    2180:	05056706 	streq	r6, [r5, #-1798]	; 0xfffff8fa
    2184:	060d0536 			; <UNDEFINED> instruction: 0x060d0536
    2188:	4a280501 	bmi	a03594 <__bss_end__+0x9f829c>
    218c:	05300105 	ldreq	r0, [r0, #-261]!	; 0xfffffefb
    2190:	05870615 	streq	r0, [r7, #1557]	; 0x615
    2194:	052f2f05 	streq	r2, [pc, #-3845]!	; 1297 <__code_start__-0x6d69>
    2198:	04020009 	streq	r0, [r2], #-9
    219c:	0a051301 	beq	146da8 <__bss_end__+0x13bab0>
    21a0:	01040200 	mrseq	r0, R12_usr
    21a4:	000c0511 	andeq	r0, ip, r1, lsl r5
    21a8:	06010402 	streq	r0, [r1], -r2, lsl #8
    21ac:	000a0501 	andeq	r0, sl, r1, lsl #10
    21b0:	2e010402 	cdpcs	4, 0, cr0, cr1, cr2, {0}
    21b4:	4c060505 	cfstr32mi	mvfx0, [r6], {5}
    21b8:	01060e05 	tsteq	r6, r5, lsl #28
    21bc:	054a0905 	strbeq	r0, [sl, #-2309]	; 0xfffff6fb
    21c0:	2f2f0605 	svccs	0x002f0605
    21c4:	13060105 	movwne	r0, #24837	; 0x6105
    21c8:	67061c05 	strvs	r1, [r6, -r5, lsl #24]
    21cc:	05050106 	streq	r0, [r5, #-262]	; 0xfffffefa
    21d0:	052f4b06 	streq	r4, [pc, #-2822]!	; 16d2 <__code_start__-0x692e>
    21d4:	04020009 	streq	r0, [r2], #-9
    21d8:	0a051301 	beq	146de4 <__bss_end__+0x13baec>
    21dc:	01040200 	mrseq	r0, R12_usr
    21e0:	000c0511 	andeq	r0, ip, r1, lsl r5
    21e4:	06010402 	streq	r0, [r1], -r2, lsl #8
    21e8:	000a0501 	andeq	r0, sl, r1, lsl #10
    21ec:	2e010402 	cdpcs	4, 0, cr0, cr1, cr2, {0}
    21f0:	4c060505 	cfstr32mi	mvfx0, [r6], {5}
    21f4:	06010567 	streq	r0, [r1], -r7, ror #10
    21f8:	0619052f 	ldreq	r0, [r9], -pc, lsr #10
    21fc:	2e1b054c 	cfmac32cs	mvfx0, mvfx11, mvfx12
    2200:	052e2a05 	streq	r2, [lr, #-2565]!	; 0xfffff5fb
    2204:	05010631 	streq	r0, [r1, #-1585]	; 0xfffff9cf
    2208:	1c052e42 	stcne	14, cr2, [r5], {66}	; 0x42
    220c:	05053106 	streq	r3, [r5, #-262]	; 0xfffffefa
    2210:	2e09032f 	cdpcs	3, 0, cr0, cr9, cr15, {1}
    2214:	01060e05 	tsteq	r6, r5, lsl #28
    2218:	054a2105 	strbeq	r2, [sl, #-261]	; 0xfffffefb
    221c:	2e0a0301 	cdpcs	3, 0, cr0, cr10, cr1, {0}
    2220:	68061a05 	stmdavs	r6, {r0, r2, r9, fp, ip}
    2224:	02000905 	andeq	r0, r0, #81920	; 0x14000
    2228:	05300104 	ldreq	r0, [r0, #-260]!	; 0xfffffefc
    222c:	0402000a 	streq	r0, [r2], #-10
    2230:	0c051101 	stfeqs	f1, [r5], {1}
    2234:	01040200 	mrseq	r0, R12_usr
    2238:	0a050106 	beq	142658 <__bss_end__+0x137360>
    223c:	01040200 	mrseq	r0, R12_usr
    2240:	0619052e 	ldreq	r0, [r9], -lr, lsr #10
    2244:	667ee803 	ldrbtvs	lr, [lr], -r3, lsl #16
    2248:	2f2f0505 	svccs	0x002f0505
    224c:	0105672f 	tsteq	r5, pc, lsr #14
    2250:	04022f06 	streq	r2, [r2], #-3846	; 0xfffff0fa
    2254:	93010100 	movwls	r0, #4352	; 0x1100
    2258:	03000003 	movweq	r0, #3
    225c:	0000b800 	andeq	fp, r0, r0, lsl #16
    2260:	fb010200 	blx	42a6a <__bss_end__+0x37772>
    2264:	01000d0e 	tsteq	r0, lr, lsl #26
    2268:	00010101 	andeq	r0, r1, r1, lsl #2
    226c:	00010000 	andeq	r0, r1, r0
    2270:	682f0100 	stmdavs	pc!, {r8}	; <UNPREDICTABLE>
    2274:	2f656d6f 	svccs	0x00656d6f
    2278:	6c676e65 	stclvs	14, cr6, [r7], #-404	; 0xfffffe6c
    227c:	632f7265 			; <UNDEFINED> instruction: 0x632f7265
    2280:	7373616c 	cmnvc	r3, #27
    2284:	3273632f 	rsbscc	r6, r3, #-1140850688	; 0xbc000000
    2288:	786c3034 	stmdavc	ip!, {r2, r4, r5, ip, sp}^
    228c:	7332322d 	teqvc	r2, #-805306366	; 0xd0000002
    2290:	2f2f7270 	svccs	0x002f7270
    2294:	7062696c 	rsbvc	r6, r2, ip, ror #18
    2298:	6e692f69 	cdpvs	15, 6, cr2, cr9, cr9, {3}
    229c:	64756c63 	ldrbtvs	r6, [r5], #-3171	; 0xfffff39d
    22a0:	752f0065 	strvc	r0, [pc, #-101]!	; 2243 <__code_start__-0x5dbd>
    22a4:	732f7273 			; <UNDEFINED> instruction: 0x732f7273
    22a8:	65726168 	ldrbvs	r6, [r2, #-360]!	; 0xfffffe98
    22ac:	6363672f 	cmnvs	r3, #12320768	; 0xbc0000
    22b0:	6d72612d 	ldfvse	f6, [r2, #-180]!	; 0xffffff4c
    22b4:	6e6f6e2d 	cdpvs	14, 6, cr6, cr15, cr13, {1}
    22b8:	61652d65 	cmnvs	r5, r5, ror #26
    22bc:	312d6962 			; <UNDEFINED> instruction: 0x312d6962
    22c0:	2d332e30 	ldccs	14, cr2, [r3, #-192]!	; 0xffffff40
    22c4:	31323032 	teqcc	r2, r2, lsr r0
    22c8:	2f30312e 	svccs	0x0030312e
    22cc:	2f62696c 	svccs	0x0062696c
    22d0:	2f636367 	svccs	0x00636367
    22d4:	2d6d7261 	sfmcs	f7, 2, [sp, #-388]!	; 0xfffffe7c
    22d8:	656e6f6e 	strbvs	r6, [lr, #-3950]!	; 0xfffff092
    22dc:	6261652d 	rsbvs	r6, r1, #188743680	; 0xb400000
    22e0:	30312f69 	eorscc	r2, r1, r9, ror #30
    22e4:	312e332e 			; <UNDEFINED> instruction: 0x312e332e
    22e8:	636e692f 	cmnvs	lr, #770048	; 0xbc000
    22ec:	6564756c 	strbvs	r7, [r4, #-1388]!	; 0xfffffa94
    22f0:	6d6b0000 	stclvs	0, cr0, [fp, #-0]
    22f4:	6f6c6c61 	svcvs	0x006c6c61
    22f8:	00632e63 	rsbeq	r2, r3, r3, ror #28
    22fc:	72000000 	andvc	r0, r0, #0, 0
    2300:	682e6970 	stmdavs	lr!, {r4, r5, r6, r8, fp, sp, lr}
    2304:	00000100 	andeq	r0, r0, r0, lsl #2
    2308:	69647473 	stmdbvs	r4!, {r0, r1, r4, r5, r6, sl, ip, sp, lr}^
    230c:	672d746e 	strvs	r7, [sp, -lr, ror #8]!
    2310:	682e6363 	stmdavs	lr!, {r0, r1, r5, r6, r8, r9, sp, lr}
    2314:	00000200 	andeq	r0, r0, r0, lsl #4
    2318:	001e0500 	andseq	r0, lr, r0, lsl #10
    231c:	9f680205 	svcls	0x00680205
    2320:	27030000 	strcs	r0, [r3, -r0]
    2324:	01200501 			; <UNDEFINED> instruction: 0x01200501
    2328:	01063105 	tsteq	r6, r5, lsl #2
    232c:	83062005 	movwhi	r2, #24581	; 0x6005
    2330:	05012205 	streq	r2, [r1, #-517]	; 0xfffffdfb
    2334:	05010635 	streq	r0, [r1, #-1589]	; 0xfffff9cb
    2338:	0583061e 	streq	r0, [r3, #1566]	; 0x61e
    233c:	2d050120 	stfcss	f0, [r5, #-128]	; 0xffffff80
    2340:	42050106 	andmi	r0, r5, #-2147483647	; 0x80000001
    2344:	01068506 	tsteq	r6, r6, lsl #10
    2348:	4b060505 	blmi	183764 <__bss_end__+0x17846c>
    234c:	2e060114 	mcrcs	1, 0, r0, cr6, cr4, {0}
    2350:	02040200 	andeq	r0, r4, #0, 4
    2354:	02002e06 	andeq	r2, r0, #96	; 0x60
    2358:	00010204 	andeq	r0, r1, r4, lsl #4
    235c:	15020402 	strne	r0, [r2, #-1026]	; 0xfffffbfe
    2360:	02000d05 	andeq	r0, r0, #320	; 0x140
    2364:	01060204 	tsteq	r6, r4, lsl #4
    2368:	02000705 	andeq	r0, r0, #1310720	; 0x140000
    236c:	054a0204 	strbeq	r0, [sl, #-516]	; 0xfffffdfc
    2370:	054b0609 	strbeq	r0, [fp, #-1545]	; 0xfffff9f7
    2374:	17051505 	strne	r1, [r5, -r5, lsl #10]
    2378:	10050106 	andne	r0, r5, r6, lsl #2
    237c:	0605054a 	streq	r0, [r5], -sl, asr #10
    2380:	061b052f 	ldreq	r0, [fp], -pc, lsr #10
    2384:	2e0e0501 	cfsh32cs	mvfx0, mvfx14, #1
    2388:	052f0105 	streq	r0, [pc, #-261]!	; 228b <__code_start__-0x5d75>
    238c:	04020005 	streq	r0, [r2], #-5
    2390:	77030601 	strvc	r0, [r3, -r1, lsl #12]
    2394:	0402004a 	streq	r0, [r2], #-74	; 0xffffffb6
    2398:	02000101 	andeq	r0, r0, #1073741824	; 0x40000000
    239c:	9e060104 	adflss	f0, f6, f4
    23a0:	01040200 	mrseq	r0, R12_usr
    23a4:	0402002e 	streq	r0, [r2], #-46	; 0xffffffd2
    23a8:	052e0601 	streq	r0, [lr, #-1537]!	; 0xfffff9ff
    23ac:	06013209 	streq	r3, [r1], -r9, lsl #4
    23b0:	2e062ed6 	mcrcs	14, 0, r2, cr6, cr6, {6}
    23b4:	05de1905 	ldrbeq	r1, [lr, #2309]	; 0x905
    23b8:	05142f05 	ldreq	r2, [r4, #-3845]	; 0xfffff0fb
    23bc:	05010608 	streq	r0, [r1, #-1544]	; 0xfffff9f8
    23c0:	09054a07 	stmdbeq	r5, {r0, r1, r2, r9, fp, lr}
    23c4:	05054b06 	streq	r4, [r5, #-2822]	; 0xfffff4fa
    23c8:	060c0513 			; <UNDEFINED> instruction: 0x060c0513
    23cc:	06050501 	streq	r0, [r5], -r1, lsl #10
    23d0:	01051367 	tsteq	r5, r7, ror #6
    23d4:	09056706 	stmdbeq	r5, {r1, r2, r8, r9, sl, sp, lr}
    23d8:	9e012a06 	vmlals.f32	s4, s2, s12
    23dc:	06a52805 	strteq	r2, [r5], r5, lsl #16
    23e0:	06050501 	streq	r0, [r5], -r1, lsl #10
    23e4:	2e06014b 	adfcssm	f0, f6, #3.0
    23e8:	13012e06 	movwne	r2, #7686	; 0x1e06
    23ec:	47031805 	strmi	r1, [r3, -r5, lsl #16]
    23f0:	13050501 	movwne	r0, #21761	; 0x5501
    23f4:	06010601 	streq	r0, [r1], -r1, lsl #12
    23f8:	1301150f 	movwne	r1, #5391	; 0x150f
    23fc:	01060e05 	tsteq	r6, r5, lsl #28
    2400:	2e2e1605 	cfmadda32cs	mvax0, mvax1, mvfx14, mvfx5
    2404:	03060505 	movweq	r0, #25861	; 0x6505
    2408:	0b050139 	bleq	1428f4 <__bss_end__+0x1375fc>
    240c:	05050106 	streq	r0, [r5, #-262]	; 0xfffffefa
    2410:	0a054b06 	beq	155030 <__bss_end__+0x149d38>
    2414:	05050106 	streq	r0, [r5, #-262]	; 0xfffffefa
    2418:	0d054b06 	vstreq	d4, [r5, #-24]	; 0xffffffe8
    241c:	07050106 	streq	r0, [r5, -r6, lsl #2]
    2420:	4d01052e 	cfstr32mi	mvfx0, [r1, #-184]	; 0xffffff48
    2424:	02000505 	andeq	r0, r0, #20971520	; 0x1400000
    2428:	03060104 	movweq	r0, #24836	; 0x6104
    242c:	02004a78 	andeq	r4, r0, #120, 20	; 0x78000
    2430:	00010104 	andeq	r0, r1, r4, lsl #2
    2434:	06010402 	streq	r0, [r1], -r2, lsl #8
    2438:	040200ba 	streq	r0, [r2], #-186	; 0xffffff46
    243c:	052e0601 	streq	r0, [lr, #-1537]!	; 0xfffff9ff
    2440:	06013409 	streq	r3, [r1], -r9, lsl #8
    2444:	2e066682 	cfmadd32cs	mvax4, mvfx6, mvfx6, mvfx2
    2448:	06db2005 	ldrbeq	r2, [fp], r5
    244c:	06050501 	streq	r0, [r5], -r1, lsl #10
    2450:	0200014b 	andeq	r0, r0, #-1073741806	; 0xc0000012
    2454:	004a0204 	subeq	r0, sl, r4, lsl #4
    2458:	01020402 	tsteq	r2, r2, lsl #8
    245c:	02040200 	andeq	r0, r4, #0, 4
    2460:	00120513 	andseq	r0, r2, r3, lsl r5
    2464:	06020402 	streq	r0, [r2], -r2, lsl #8
    2468:	04020001 	streq	r0, [r2], #-1
    246c:	02002e02 	andeq	r2, r0, #2, 28
    2470:	052e0204 	streq	r0, [lr, #-516]!	; 0xfffffdfc
    2474:	04020005 	streq	r0, [r2], #-5
    2478:	002f0602 	eoreq	r0, pc, r2, lsl #12
    247c:	67020402 	strvs	r0, [r2, -r2, lsl #8]
    2480:	02000105 	andeq	r0, r0, #1073741825	; 0x40000001
    2484:	13060204 	movwne	r0, #25092	; 0x6204
    2488:	02000505 	andeq	r0, r0, #20971520	; 0x1400000
    248c:	62060104 	andvs	r0, r6, #1
    2490:	01040200 	mrseq	r0, R12_usr
    2494:	04020001 	streq	r0, [r2], #-1
    2498:	00ba0601 	adcseq	r0, sl, r1, lsl #12
    249c:	06010402 	streq	r0, [r1], -r2, lsl #8
    24a0:	033c052e 	teqeq	ip, #192937984	; 0xb800000
    24a4:	01069e0a 	tsteq	r6, sl, lsl #28
    24a8:	4b060505 	blmi	1838c4 <__bss_end__+0x1785cc>
    24ac:	062e0601 	strteq	r0, [lr], -r1, lsl #12
    24b0:	0113012e 	tsteq	r3, lr, lsr #2
    24b4:	ad031805 	stcge	8, cr1, [r3, #-20]	; 0xffffffec
    24b8:	0505017f 	streq	r0, [r5, #-383]	; 0xfffffe81
    24bc:	06110513 			; <UNDEFINED> instruction: 0x06110513
    24c0:	05052e01 	streq	r2, [r5, #-3585]	; 0xfffff1ff
    24c4:	0100d203 	tsteq	r0, r3, lsl #4
    24c8:	05134a06 	ldreq	r4, [r3, #-2566]	; 0xfffff5fa
    24cc:	7fa30318 	svcvc	0x00a30318
    24d0:	13050501 	movwne	r0, #21761	; 0x5501
    24d4:	01061605 	tsteq	r6, r5, lsl #12
    24d8:	0605054a 	streq	r0, [r5], -sl, asr #10
    24dc:	0100e103 	tsteq	r0, r3, lsl #2
    24e0:	01061205 	tsteq	r6, r5, lsl #4
    24e4:	4b060505 	blmi	183900 <__bss_end__+0x178608>
    24e8:	a9031805 	stmdbge	r3, {r0, r2, fp, ip}
    24ec:	0505017f 	streq	r0, [r5, #-383]	; 0xfffffe81
    24f0:	18050113 	stmdane	r5, {r0, r1, r4, r8}
    24f4:	1305050e 	movwne	r0, #21774	; 0x550e
    24f8:	01061105 	tsteq	r6, r5, lsl #2
    24fc:	1505052e 	strne	r0, [r5, #-1326]	; 0xfffffad2
    2500:	13014a06 	movwne	r4, #6662	; 0x1a06
    2504:	01060e05 	tsteq	r6, r5, lsl #28
    2508:	2e16052e 	cfmul64cs	mvdx0, mvdx6, mvdx14
    250c:	0605052e 	streq	r0, [r5], -lr, lsr #10
    2510:	0100d603 	tsteq	r0, r3, lsl #12
    2514:	03180501 	tsteq	r8, #4194304	; 0x400000
    2518:	05017f9f 	streq	r7, [r1, #-3999]	; 0xfffff061
    251c:	19051305 	stmdbne	r5, {r0, r2, r8, r9, ip}
    2520:	052e0106 	streq	r0, [lr, #-262]!	; 0xfffffefa
    2524:	00e00305 	rsceq	r0, r0, r5, lsl #6
    2528:	04020001 	streq	r0, [r2], #-1
    252c:	004a0602 	subeq	r0, sl, r2, lsl #12
    2530:	14020402 	strne	r0, [r2], #-1026	; 0xfffffbfe
    2534:	02000a05 	andeq	r0, r0, #20480	; 0x5000
    2538:	01060204 	tsteq	r6, r4, lsl #4
    253c:	02000505 	andeq	r0, r0, #20971520	; 0x1400000
    2540:	4b060204 	blmi	182d58 <__bss_end__+0x177a60>
    2544:	02000c05 	andeq	r0, r0, #1280	; 0x500
    2548:	01060204 	tsteq	r6, r4, lsl #4
    254c:	02000105 	andeq	r0, r0, #1073741825	; 0x40000001
    2550:	052f0204 	streq	r0, [pc, #-516]!	; 2354 <__code_start__-0x5cac>
    2554:	04020005 	streq	r0, [r2], #-5
    2558:	73030601 	movwvc	r0, #13825	; 0x3601
    255c:	0402004a 	streq	r0, [r2], #-74	; 0xffffffb6
    2560:	02000101 	andeq	r0, r0, #1073741824	; 0x40000000
    2564:	9e060104 	adflss	f0, f6, f4
    2568:	01040200 	mrseq	r0, R12_usr
    256c:	0402002e 	streq	r0, [r2], #-46	; 0xffffffd2
    2570:	002e0601 	eoreq	r0, lr, r1, lsl #12
    2574:	2f010402 	svccs	0x00010402
    2578:	01040200 	mrseq	r0, R12_usr
    257c:	0402002e 	streq	r0, [r2], #-46	; 0xffffffd2
    2580:	b103d601 	tstlt	r3, r1, lsl #12
    2584:	06012e7f 			; <UNDEFINED> instruction: 0x06012e7f
    2588:	062e2e82 	strteq	r2, [lr], -r2, lsl #29
    258c:	002e062e 	eoreq	r0, lr, lr, lsr #12
    2590:	06010402 	streq	r0, [r1], -r2, lsl #8
    2594:	0100d703 	tsteq	r0, r3, lsl #14
    2598:	01040200 	mrseq	r0, R12_usr
    259c:	0402002e 	streq	r0, [r2], #-46	; 0xffffffd2
    25a0:	1505d601 	strne	sp, [r5, #-1537]	; 0xfffff9ff
    25a4:	17057b08 	strne	r7, [r5, -r8, lsl #22]
    25a8:	31160501 	tstcc	r6, r1, lsl #10
    25ac:	05011805 	streq	r1, [r1, #-2053]	; 0xfffff7fb
    25b0:	0501061d 	streq	r0, [r1, #-1565]	; 0xfffff9e3
    25b4:	1905662b 	stmdbne	r5, {r0, r1, r3, r5, r9, sl, sp, lr}
    25b8:	05054d06 	streq	r4, [r5, #-3334]	; 0xfffff2fa
    25bc:	060c0513 			; <UNDEFINED> instruction: 0x060c0513
    25c0:	4a070501 	bmi	1c39cc <__bss_end__+0x1b86d4>
    25c4:	02002505 	andeq	r2, r0, #20971520	; 0x1400000
    25c8:	054a0104 	strbeq	r0, [sl, #-260]	; 0xfffffefc
    25cc:	0402001e 	streq	r0, [r2], #-30	; 0xffffffe2
    25d0:	09054a01 	stmdbeq	r5, {r0, r9, fp, lr}
    25d4:	05054b06 	streq	r4, [r5, #-2822]	; 0xfffff4fa
    25d8:	060a0513 			; <UNDEFINED> instruction: 0x060a0513
    25dc:	63190501 	tstvs	r9, #4194304	; 0x400000
    25e0:	4c060905 			; <UNDEFINED> instruction: 0x4c060905
    25e4:	069e0601 	ldreq	r0, [lr], r1, lsl #12
    25e8:	000a022e 	andeq	r0, sl, lr, lsr #4
    25ec:	02890101 	addeq	r0, r9, #1073741824	; 0x40000000
    25f0:	00030000 	andeq	r0, r3, r0
    25f4:	000000c9 	andeq	r0, r0, r9, asr #1
    25f8:	0efb0102 	cdpeq	1, 15, cr0, cr11, cr2, {0}
    25fc:	0101000d 	tsteq	r1, sp
    2600:	00000101 	andeq	r0, r0, r1, lsl #2
    2604:	00000100 	andeq	r0, r0, r0, lsl #2
    2608:	732f2e01 			; <UNDEFINED> instruction: 0x732f2e01
    260c:	2f006372 	svccs	0x00006372
    2610:	72657355 	rsbvc	r7, r5, #1409286145	; 0x54000001
    2614:	696d2f73 	stmdbvs	sp!, {r0, r1, r4, r5, r6, r8, r9, sl, fp, sp}^
    2618:	2f73656c 	svccs	0x0073656c
    261c:	72756f53 	rsbsvc	r6, r5, #332	; 0x14c
    2620:	632f6563 			; <UNDEFINED> instruction: 0x632f6563
    2624:	30343273 	eorscc	r3, r4, r3, ror r2
    2628:	6c2f786c 	stcvs	8, cr7, [pc], #-432	; 2480 <__code_start__-0x5b80>
    262c:	69706269 	ldmdbvs	r0!, {r0, r3, r5, r6, r9, sp, lr}^
    2630:	636e692f 	cmnvs	lr, #770048	; 0xbc000
    2634:	6564756c 	strbvs	r7, [r4, #-1388]!	; 0xfffffa94
    2638:	706f2f00 	rsbvc	r2, pc, r0, lsl #30
    263c:	6f682f74 	svcvs	0x00682f74
    2640:	7262656d 	rsbvc	r6, r2, #457179136	; 0x1b400000
    2644:	432f7765 			; <UNDEFINED> instruction: 0x432f7765
    2648:	616c6c65 	cmnvs	ip, r5, ror #24
    264c:	72612f72 	rsbvc	r2, r1, #456	; 0x1c8
    2650:	6f6e2d6d 	svcvs	0x006e2d6d
    2654:	652d656e 	strvs	r6, [sp, #-1390]!	; 0xfffffa92
    2658:	2d696261 	sfmcs	f6, 2, [r9, #-388]!	; 0xfffffe7c
    265c:	2d392f39 	ldccs	15, cr2, [r9, #-228]!	; 0xffffff1c
    2660:	39313032 	ldmdbcc	r1!, {r1, r4, r5, ip, sp}
    2664:	632d3471 			; <UNDEFINED> instruction: 0x632d3471
    2668:	37303173 			; <UNDEFINED> instruction: 0x37303173
    266c:	696c2f65 	stmdbvs	ip!, {r0, r2, r5, r6, r8, r9, sl, fp, sp}^
    2670:	63672f62 	cmnvs	r7, #392	; 0x188
    2674:	72612f63 	rsbvc	r2, r1, #396	; 0x18c
    2678:	6f6e2d6d 	svcvs	0x006e2d6d
    267c:	652d656e 	strvs	r6, [sp, #-1390]!	; 0xfffffa92
    2680:	2f696261 	svccs	0x00696261
    2684:	2e322e39 	mrccs	14, 1, r2, cr2, cr9, {1}
    2688:	6e692f31 	mcrvs	15, 3, r2, cr9, cr1, {1}
    268c:	64756c63 	ldrbtvs	r6, [r5], #-3171	; 0xfffff39d
    2690:	67000065 	strvs	r0, [r0, -r5, rrx]
    2694:	2e6f6970 			; <UNDEFINED> instruction: 0x2e6f6970
    2698:	00010063 	andeq	r0, r1, r3, rrx
    269c:	69707200 	ldmdbvs	r0!, {r9, ip, sp, lr}^
    26a0:	0200682e 	andeq	r6, r0, #3014656	; 0x2e0000
    26a4:	74730000 	ldrbtvc	r0, [r3], #-0
    26a8:	746e6964 	strbtvc	r6, [lr], #-2404	; 0xfffff69c
    26ac:	6363672d 	cmnvs	r3, #11796480	; 0xb40000
    26b0:	0300682e 	movweq	r6, #2094	; 0x82e
    26b4:	70670000 	rsbvc	r0, r7, r0
    26b8:	682e6f69 	stmdavs	lr!, {r0, r3, r5, r6, r8, r9, sl, fp, sp, lr}
    26bc:	00000200 	andeq	r0, r0, r0, lsl #4
    26c0:	00380500 	eorseq	r0, r8, r0, lsl #10
    26c4:	a3180205 	tstge	r8, #1342177280	; 0x50000000
    26c8:	27030000 	strcs	r0, [r3, -r0]
    26cc:	13050501 	movwne	r0, #21761	; 0x5501
    26d0:	01060705 	tsteq	r6, r5, lsl #14
    26d4:	49060605 	stmdbmi	r6, {r0, r2, r9, sl}
    26d8:	05150505 	ldreq	r0, [r5, #-1285]	; 0xfffffafb
    26dc:	05010607 	streq	r0, [r1, #-1543]	; 0xfffff9f9
    26e0:	07052b38 	smladxeq	r5, r8, fp, r2
    26e4:	0605054d 	streq	r0, [r5], -sp, asr #10
    26e8:	06180530 			; <UNDEFINED> instruction: 0x06180530
    26ec:	671c0501 	ldrvs	r0, [ip, -r1, lsl #10]
    26f0:	054a0e05 	strbeq	r0, [sl, #-3589]	; 0xfffff1fb
    26f4:	12052d18 	andne	r2, r5, #24, 26	; 0x600
    26f8:	052f2e4d 	streq	r2, [pc, #-3661]!	; 18b3 <__code_start__-0x674d>
    26fc:	05052a0e 	streq	r2, [r5, #-2574]	; 0xfffff5f2
    2700:	13142f06 	tstne	r4, #6, 30
    2704:	01060705 	tsteq	r6, r5, lsl #14
    2708:	2f060505 	svccs	0x00060505
    270c:	2e2e0613 	mcrcs	6, 1, r0, cr14, cr3, {0}
    2710:	05130105 	ldreq	r0, [r3, #-261]	; 0xfffffefb
    2714:	052e2d05 	streq	r2, [lr, #-3333]!	; 0xfffff2fb
    2718:	05000624 	streq	r0, [r0, #-1572]	; 0xfffff9dc
    271c:	00a37802 	adceq	r7, r3, r2, lsl #16
    2720:	05051500 	streq	r1, [r5, #-1280]	; 0xfffffb00
    2724:	03060513 	movweq	r0, #25875	; 0x6513
    2728:	05050171 	streq	r0, [r5, #-369]	; 0xfffffe8f
    272c:	06070513 			; <UNDEFINED> instruction: 0x06070513
    2730:	06060501 	streq	r0, [r6], -r1, lsl #10
    2734:	15050549 	strne	r0, [r5, #-1353]	; 0xfffffab7
    2738:	06240514 			; <UNDEFINED> instruction: 0x06240514
    273c:	05010903 	streq	r0, [r1, #-2307]	; 0xfffff6fd
    2740:	2e770318 	mrccs	3, 3, r0, cr7, cr8, {0}
    2744:	05671c05 	strbeq	r1, [r7, #-3077]!	; 0xfffff3fb
    2748:	18054a0e 	stmdane	r5, {r1, r2, r3, r9, fp, lr}
    274c:	4d12052d 	cfldr32mi	mvfx0, [r2, #-180]	; 0xffffff4c
    2750:	0f052f2e 	svceq	0x00052f2e
    2754:	290e052f 	stmdbcs	lr, {r0, r1, r2, r3, r5, r8, sl}
    2758:	2f060505 	svccs	0x00060505
    275c:	07051314 	smladeq	r5, r4, r3, r1
    2760:	05050106 	streq	r0, [r5, #-262]	; 0xfffffefa
    2764:	06132f06 	ldreq	r2, [r3], -r6, lsl #30
    2768:	3301052e 	movwcc	r0, #5422	; 0x152e
    276c:	2e290505 	cfsh64cs	mvdx0, mvdx9, #5
    2770:	00062705 	andeq	r2, r6, r5, lsl #14
    2774:	a3d00205 	bicsge	r0, r0, #1342177280	; 0x50000000
    2778:	051a0000 	ldreq	r0, [sl, #-0]
    277c:	27051305 	strcs	r1, [r5, -r5, lsl #6]
    2780:	18051106 	stmdane	r5, {r1, r2, r8, ip}
    2784:	2e05052f 	cfsh32cs	mvfx0, mvfx5, #31
    2788:	28054a2e 	stmdacs	r5, {r1, r2, r3, r5, r9, fp, lr}
    278c:	02050006 	andeq	r0, r5, #6, 0
    2790:	0000a3e8 	andeq	sl, r0, r8, ror #7
    2794:	13050516 	movwne	r0, #21782	; 0x5516
    2798:	11062805 	tstne	r6, r5, lsl #16
    279c:	052f1805 	streq	r1, [pc, #-2053]!	; 1f9f <__code_start__-0x6061>
    27a0:	4a2e2e05 	bmi	b8dfbc <__bss_end__+0xb82cc4>
    27a4:	00062305 	andeq	r2, r6, r5, lsl #6
    27a8:	a4000205 	strge	r0, [r0], #-517	; 0xfffffdfb
    27ac:	05160000 	ldreq	r0, [r6, #-0]
    27b0:	06051305 	streq	r1, [r5], -r5, lsl #6
    27b4:	05016203 	streq	r6, [r1, #-515]	; 0xfffffdfd
    27b8:	07051305 	streq	r1, [r5, -r5, lsl #6]
    27bc:	06050106 	streq	r0, [r5], -r6, lsl #2
    27c0:	05054906 	streq	r4, [r5, #-2310]	; 0xfffff6fa
    27c4:	05131415 	ldreq	r1, [r3, #-1045]	; 0xfffffbeb
    27c8:	17030623 	strne	r0, [r3, -r3, lsr #12]
    27cc:	03220501 			; <UNDEFINED> instruction: 0x03220501
    27d0:	1c052e69 	stcne	14, cr2, [r5], {105}	; 0x69
    27d4:	0e052e82 	cdpeq	14, 0, cr2, cr5, cr2, {4}
    27d8:	0605052e 	streq	r0, [r5], -lr, lsr #10
    27dc:	06120530 			; <UNDEFINED> instruction: 0x06120530
    27e0:	052d4b01 	streq	r4, [sp, #-2817]!	; 0xfffff4ff
    27e4:	132f0605 			; <UNDEFINED> instruction: 0x132f0605
    27e8:	06180513 			; <UNDEFINED> instruction: 0x06180513
    27ec:	05017a03 	streq	r7, [r1, #-2563]	; 0xfffff5fd
    27f0:	05054a0e 	streq	r4, [r5, #-2574]	; 0xfffff5f2
    27f4:	01052e34 	tsteq	r5, r4, lsr lr
    27f8:	052e1403 	streq	r1, [lr, #-1027]!	; 0xfffffbfd
    27fc:	2e6c0305 	cdpcs	3, 6, cr0, cr12, cr5, {0}
    2800:	062b052e 	strteq	r0, [fp], -lr, lsr #10
    2804:	58020500 	stmdapl	r2, {r8, sl}
    2808:	030000a4 	movweq	r0, #164	; 0xa4
    280c:	05050117 	streq	r0, [r5, #-279]	; 0xfffffee9
    2810:	06070513 			; <UNDEFINED> instruction: 0x06070513
    2814:	03180501 	tsteq	r8, #4194304	; 0x400000
    2818:	2b052e71 	blcs	14e1e4 <__bss_end__+0x142eec>
    281c:	052e0e03 	streq	r0, [lr, #-3587]!	; 0xfffff1fd
    2820:	09052f07 	stmdbeq	r5, {r0, r1, r2, r8, r9, sl, fp, sp}
    2824:	0d052f06 	stceq	15, cr2, [r5, #-24]	; 0xffffffe8
    2828:	05016f03 	streq	r6, [r1, #-3843]	; 0xfffff0fd
    282c:	2e061305 	cdpcs	3, 0, cr1, cr6, cr5, {0}
    2830:	09052e2e 	stmdbeq	r5, {r1, r2, r3, r5, r9, sl, fp, sp}
    2834:	01120306 	tsteq	r2, r6, lsl #6
    2838:	72030d05 	andvc	r0, r3, #320	; 0x140
    283c:	13050501 	movwne	r0, #21761	; 0x5501
    2840:	052e2e06 	streq	r2, [lr, #-3590]!	; 0xfffff1fa
    2844:	1003061d 	andne	r0, r3, sp, lsl r6
    2848:	13050566 	movwne	r0, #21862	; 0x5566
    284c:	11061d05 	tstne	r6, r5, lsl #26
    2850:	0605052e 	streq	r0, [r5], -lr, lsr #10
    2854:	0e051330 	mcreq	3, 0, r1, cr5, cr0, {1}
    2858:	17051006 	strne	r1, [r5, -r6]
    285c:	02042e30 	andeq	r2, r4, #48, 28	; 0x300
    2860:	03063005 	movweq	r3, #24581	; 0x6005
    2864:	042e00e2 	strteq	r0, [lr], #-226	; 0xffffff1e
    2868:	060e0501 	streq	r0, [lr], -r1, lsl #10
    286c:	017f9d03 	cmneq	pc, r3, lsl #26
    2870:	052f2305 	streq	r2, [pc, #-773]!	; 2573 <__code_start__-0x5a8d>
    2874:	06022f01 	streq	r2, [r2], -r1, lsl #30
    2878:	9e010100 	adflss	f0, f1, f0
    287c:	03000000 	movweq	r0, #0
    2880:	00005a00 	andeq	r5, r0, r0, lsl #20
    2884:	fb010200 	blx	4308e <__bss_end__+0x37d96>
    2888:	01000d0e 	tsteq	r0, lr, lsl #26
    288c:	00010101 	andeq	r0, r1, r1, lsl #2
    2890:	00010000 	andeq	r0, r1, r0
    2894:	2f2e0100 	svccs	0x002e0100
    2898:	6362696c 	cmnvs	r2, #108, 18	; 0x1b0000
    289c:	73552f00 	cmpvc	r5, #0, 30
    28a0:	2f737265 	svccs	0x00737265
    28a4:	656c696d 	strbvs	r6, [ip, #-2413]!	; 0xfffff693
    28a8:	6f532f73 	svcvs	0x00532f73
    28ac:	65637275 	strbvs	r7, [r3, #-629]!	; 0xfffffd8b
    28b0:	3273632f 	rsbscc	r6, r3, #-1140850688	; 0xbc000000
    28b4:	786c3034 	stmdavc	ip!, {r2, r4, r5, ip, sp}^
    28b8:	62696c2f 	rsbvs	r6, r9, #12032	; 0x2f00
    28bc:	692f6970 	stmdbvs	pc!, {r4, r5, r6, r8, fp, sp, lr}	; <UNPREDICTABLE>
    28c0:	756c636e 	strbvc	r6, [ip, #-878]!	; 0xfffffc92
    28c4:	00006564 	andeq	r6, r0, r4, ror #10
    28c8:	63747570 	cmnvs	r4, #112, 10	; 0x1c000000
    28cc:	2e726168 	rpwcssz	f6, f2, #0.0
    28d0:	00010063 	andeq	r0, r1, r3, rrx
    28d4:	69707200 	ldmdbvs	r0!, {r9, ip, sp, lr}^
    28d8:	0200682e 	andeq	r6, r0, #3014656	; 0x2e0000
    28dc:	05000000 	streq	r0, [r0, #-0]
    28e0:	02050024 	andeq	r0, r5, #36, 0	; 0x24
    28e4:	0000a4b0 			; <UNDEFINED> instruction: 0x0000a4b0
    28e8:	01260514 			; <UNDEFINED> instruction: 0x01260514
    28ec:	01062405 	tsteq	r6, r5, lsl #8
    28f0:	2e26052e 	cfsh64cs	mvdx0, mvdx6, #30
    28f4:	2e063405 	cdpcs	4, 0, cr3, cr6, cr5, {0}
    28f8:	01060105 	tsteq	r6, r5, lsl #2
    28fc:	4f061b05 	svcmi	0x00061b05
    2900:	05130505 	ldreq	r0, [r3, #-1285]	; 0xfffffafb
    2904:	05010611 	streq	r0, [r1, #-1553]	; 0xfffff9ef
    2908:	23056701 	movwcs	r6, #22273	; 0x5701
    290c:	05056706 	streq	r6, [r5, #-1798]	; 0xfffff8fa
    2910:	06110513 			; <UNDEFINED> instruction: 0x06110513
    2914:	4b010501 	blmi	43d20 <__bss_end__+0x38a28>
    2918:	01000402 	tsteq	r0, r2, lsl #8
    291c:	0000e201 	andeq	lr, r0, r1, lsl #4
    2920:	59000300 	stmdbpl	r0, {r8, r9}
    2924:	02000000 	andeq	r0, r0, #0, 0
    2928:	0d0efb01 	vstreq	d15, [lr, #-4]
    292c:	01010100 	mrseq	r0, (UNDEF: 17)
    2930:	00000001 	andeq	r0, r0, r1
    2934:	01000001 	tsteq	r0, r1
    2938:	696c2f2e 	stmdbvs	ip!, {r1, r2, r3, r5, r8, r9, sl, fp, sp}^
    293c:	2f006362 	svccs	0x00006362
    2940:	72657355 	rsbvc	r7, r5, #1409286145	; 0x54000001
    2944:	696d2f73 	stmdbvs	sp!, {r0, r1, r4, r5, r6, r8, r9, sl, fp, sp}^
    2948:	2f73656c 	svccs	0x0073656c
    294c:	72756f53 	rsbsvc	r6, r5, #332	; 0x14c
    2950:	632f6563 			; <UNDEFINED> instruction: 0x632f6563
    2954:	30343273 	eorscc	r3, r4, r3, ror r2
    2958:	6c2f786c 	stcvs	8, cr7, [pc], #-432	; 27b0 <__code_start__-0x5850>
    295c:	69706269 	ldmdbvs	r0!, {r0, r3, r5, r6, r9, sp, lr}^
    2960:	636e692f 	cmnvs	lr, #770048	; 0xbc000
    2964:	6564756c 	strbvs	r7, [r4, #-1388]!	; 0xfffffa94
    2968:	74730000 	ldrbtvc	r0, [r3], #-0
    296c:	74616372 	strbtvc	r6, [r1], #-882	; 0xfffffc8e
    2970:	0100632e 	tsteq	r0, lr, lsr #6
    2974:	70720000 	rsbsvc	r0, r2, r0
    2978:	00682e69 	rsbeq	r2, r8, r9, ror #28
    297c:	00000002 	andeq	r0, r0, r2
    2980:	05002c05 	streq	r2, [r0, #-3077]	; 0xfffff3fb
    2984:	00a4ec02 	adceq	lr, r4, r2, lsl #24
    2988:	05051500 	streq	r1, [r5, #-1280]	; 0xfffffb00
    298c:	0b051313 	bleq	1475e0 <__bss_end__+0x13c2e8>
    2990:	05051106 	streq	r1, [r5, #-262]	; 0xfffffefa
    2994:	01040200 	mrseq	r0, R12_usr
    2998:	02003006 	andeq	r3, r0, #6, 0
    299c:	05150104 	ldreq	r0, [r5, #-260]	; 0xfffffefc
    29a0:	04020009 	streq	r0, [r2], #-9
    29a4:	0b051301 	bleq	1475b0 <__bss_end__+0x13c2b8>
    29a8:	01040200 	mrseq	r0, R12_usr
    29ac:	0005052f 	andeq	r0, r5, pc, lsr #10
    29b0:	06010402 	streq	r0, [r1], -r2, lsl #8
    29b4:	04020001 	streq	r0, [r2], #-1
    29b8:	4e062e01 	cdpmi	14, 0, cr2, cr6, cr1, {0}
    29bc:	01060805 	tsteq	r6, r5, lsl #16
    29c0:	02000505 	andeq	r0, r0, #20971520	; 0x1400000
    29c4:	2f060104 	svccs	0x00060104
    29c8:	02000905 	andeq	r0, r0, #81920	; 0x14000
    29cc:	05130104 	ldreq	r0, [r3, #-260]	; 0xfffffefc
    29d0:	0402000b 	streq	r0, [r2], #-11
    29d4:	05010601 	streq	r0, [r1, #-1537]	; 0xfffff9ff
    29d8:	04020009 	streq	r0, [r2], #-9
    29dc:	052f0601 	streq	r0, [pc, #-1537]!	; 23e3 <__code_start__-0x5c1d>
    29e0:	04020005 	streq	r0, [r2], #-5
    29e4:	05130601 	ldreq	r0, [r3, #-1537]	; 0xfffff9ff
    29e8:	0402000f 	streq	r0, [r2], #-15
    29ec:	0d052d01 	stceq	13, cr2, [r5, #-4]
    29f0:	01040200 	mrseq	r0, R12_usr
    29f4:	05052f06 	streq	r2, [r5, #-3846]	; 0xfffff0fa
    29f8:	01040200 	mrseq	r0, R12_usr
    29fc:	04020106 	streq	r0, [r2], #-262	; 0xfffffefa
    2a00:	b2010100 	andlt	r0, r1, #0
    2a04:	03000000 	movweq	r0, #0
    2a08:	00005900 	andeq	r5, r0, r0, lsl #18
    2a0c:	fb010200 	blx	43216 <__bss_end__+0x37f1e>
    2a10:	01000d0e 	tsteq	r0, lr, lsl #26
    2a14:	00010101 	andeq	r0, r1, r1, lsl #2
    2a18:	00010000 	andeq	r0, r1, r0
    2a1c:	2f2e0100 	svccs	0x002e0100
    2a20:	6362696c 	cmnvs	r2, #108, 18	; 0x1b0000
    2a24:	73552f00 	cmpvc	r5, #0, 30
    2a28:	2f737265 	svccs	0x00737265
    2a2c:	656c696d 	strbvs	r6, [ip, #-2413]!	; 0xfffff693
    2a30:	6f532f73 	svcvs	0x00532f73
    2a34:	65637275 	strbvs	r7, [r3, #-629]!	; 0xfffffd8b
    2a38:	3273632f 	rsbscc	r6, r3, #-1140850688	; 0xbc000000
    2a3c:	786c3034 	stmdavc	ip!, {r2, r4, r5, ip, sp}^
    2a40:	62696c2f 	rsbvs	r6, r9, #12032	; 0x2f00
    2a44:	692f6970 	stmdbvs	pc!, {r4, r5, r6, r8, fp, sp, lr}	; <UNPREDICTABLE>
    2a48:	756c636e 	strbvc	r6, [ip, #-878]!	; 0xfffffc92
    2a4c:	00006564 	andeq	r6, r0, r4, ror #10
    2a50:	63727473 	cmnvs	r2, #1929379840	; 0x73000000
    2a54:	632e706d 			; <UNDEFINED> instruction: 0x632e706d
    2a58:	00000100 	andeq	r0, r0, r0, lsl #2
    2a5c:	2e697072 	mcrcs	0, 3, r7, cr9, cr2, {3}
    2a60:	00020068 	andeq	r0, r2, r8, rrx
    2a64:	2a050000 	bcs	142a6c <__bss_end__+0x137774>
    2a68:	18020500 	stmdane	r2, {r8, sl}
    2a6c:	140000a5 	strne	r0, [r0], #-165	; 0xffffff5b
    2a70:	05130905 	ldreq	r0, [r3, #-2309]	; 0xfffff6fb
    2a74:	05010610 	streq	r0, [r1, #-1552]	; 0xfffff9f0
    2a78:	052e060f 	streq	r0, [lr, #-1551]!	; 0xfffff9f1
    2a7c:	05820610 	streq	r0, [r2, #1552]	; 0x610
    2a80:	11052e0f 	tstne	r5, pc, lsl #28
    2a84:	01040200 	mrseq	r0, R12_usr
    2a88:	1c054b06 			; <UNDEFINED> instruction: 0x1c054b06
    2a8c:	01040200 	mrseq	r0, R12_usr
    2a90:	0f052d06 	svceq	0x00052d06
    2a94:	01040200 	mrseq	r0, R12_usr
    2a98:	13052e06 	movwne	r2, #24070	; 0x5e06
    2a9c:	01040200 	mrseq	r0, R12_usr
    2aa0:	09050106 	stmdbeq	r5, {r1, r2, r8}
    2aa4:	01054c06 	tsteq	r5, r6, lsl #24
    2aa8:	054a1306 	strbeq	r1, [sl, #-774]	; 0xfffffcfa
    2aac:	052d0609 	streq	r0, [sp, #-1545]!	; 0xfffff9f7
    2ab0:	2e130601 	cfmsub32cs	mvax0, mvfx0, mvfx3, mvfx1
    2ab4:	01000202 	tsteq	r0, r2, lsl #4
    2ab8:	00009d01 	andeq	r9, r0, r1, lsl #26
    2abc:	59000300 	stmdbpl	r0, {r8, r9}
    2ac0:	02000000 	andeq	r0, r0, #0, 0
    2ac4:	0d0efb01 	vstreq	d15, [lr, #-4]
    2ac8:	01010100 	mrseq	r0, (UNDEF: 17)
    2acc:	00000001 	andeq	r0, r0, r1
    2ad0:	01000001 	tsteq	r0, r1
    2ad4:	696c2f2e 	stmdbvs	ip!, {r1, r2, r3, r5, r8, r9, sl, fp, sp}^
    2ad8:	2f006362 	svccs	0x00006362
    2adc:	72657355 	rsbvc	r7, r5, #1409286145	; 0x54000001
    2ae0:	696d2f73 	stmdbvs	sp!, {r0, r1, r4, r5, r6, r8, r9, sl, fp, sp}^
    2ae4:	2f73656c 	svccs	0x0073656c
    2ae8:	72756f53 	rsbsvc	r6, r5, #332	; 0x14c
    2aec:	632f6563 			; <UNDEFINED> instruction: 0x632f6563
    2af0:	30343273 	eorscc	r3, r4, r3, ror r2
    2af4:	6c2f786c 	stcvs	8, cr7, [pc], #-432	; 294c <__code_start__-0x56b4>
    2af8:	69706269 	ldmdbvs	r0!, {r0, r3, r5, r6, r9, sp, lr}^
    2afc:	636e692f 	cmnvs	lr, #770048	; 0xbc000
    2b00:	6564756c 	strbvs	r7, [r4, #-1388]!	; 0xfffffa94
    2b04:	74730000 	ldrbtvc	r0, [r3], #-0
    2b08:	79706372 	ldmdbvc	r0!, {r1, r4, r5, r6, r8, r9, sp, lr}^
    2b0c:	0100632e 	tsteq	r0, lr, lsr #6
    2b10:	70720000 	rsbsvc	r0, r2, r0
    2b14:	00682e69 	rsbeq	r2, r8, r9, ror #28
    2b18:	00000002 	andeq	r0, r0, r2
    2b1c:	05002a05 	streq	r2, [r0, #-2565]	; 0xfffff5fb
    2b20:	00a55c02 	adceq	r5, r5, r2, lsl #24
    2b24:	05051400 	streq	r1, [r5, #-1024]	; 0xfffffc00
    2b28:	22051313 	andcs	r1, r5, #1275068416	; 0x4c000000
    2b2c:	01040200 	mrseq	r0, R12_usr
    2b30:	000b052e 	andeq	r0, fp, lr, lsr #10
    2b34:	01010402 	tsteq	r1, r2, lsl #8
    2b38:	02001505 	andeq	r1, r0, #20971520	; 0x1400000
    2b3c:	01060104 	tsteq	r6, r4, lsl #2
    2b40:	02000b05 	andeq	r0, r0, #5120	; 0x1400
    2b44:	052e0104 	streq	r0, [lr, #-260]!	; 0xfffffefc
    2b48:	04020013 	streq	r0, [r2], #-19	; 0xffffffed
    2b4c:	0b052e01 	bleq	14e358 <__bss_end__+0x143060>
    2b50:	01040200 	mrseq	r0, R12_usr
    2b54:	0004022e 	andeq	r0, r4, lr, lsr #4
    2b58:	00fd0101 	rscseq	r0, sp, r1, lsl #2
    2b5c:	00030000 	andeq	r0, r3, r0
    2b60:	000000bf 	strheq	r0, [r0], -pc	; <UNPREDICTABLE>
    2b64:	0efb0102 	cdpeq	1, 15, cr0, cr11, cr2, {0}
    2b68:	0101000d 	tsteq	r1, sp
    2b6c:	00000101 	andeq	r0, r0, r1, lsl #2
    2b70:	00000100 	andeq	r0, r0, r0, lsl #2
    2b74:	6c2f2e01 	stcvs	14, cr2, [pc], #-4	; 2b78 <__code_start__-0x5488>
    2b78:	00636269 	rsbeq	r6, r3, r9, ror #4
    2b7c:	6573552f 	ldrbvs	r5, [r3, #-1327]!	; 0xfffffad1
    2b80:	6d2f7372 	stcvs	3, cr7, [pc, #-456]!	; 29c0 <__code_start__-0x5640>
    2b84:	73656c69 	cmnvc	r5, #26880	; 0x6900
    2b88:	756f532f 	strbvc	r5, [pc, #-815]!	; 2861 <__code_start__-0x579f>
    2b8c:	2f656372 	svccs	0x00656372
    2b90:	34327363 	ldrtcc	r7, [r2], #-867	; 0xfffffc9d
    2b94:	2f786c30 	svccs	0x00786c30
    2b98:	7062696c 	rsbvc	r6, r2, ip, ror #18
    2b9c:	6e692f69 	cdpvs	15, 6, cr2, cr9, cr9, {3}
    2ba0:	64756c63 	ldrbtvs	r6, [r5], #-3171	; 0xfffff39d
    2ba4:	6f2f0065 	svcvs	0x002f0065
    2ba8:	682f7470 	stmdavs	pc!, {r4, r5, r6, sl, ip, sp, lr}	; <UNPREDICTABLE>
    2bac:	62656d6f 	rsbvs	r6, r5, #7104	; 0x1bc0
    2bb0:	2f776572 	svccs	0x00776572
    2bb4:	6c6c6543 	cfstr64vs	mvdx6, [ip], #-268	; 0xfffffef4
    2bb8:	612f7261 			; <UNDEFINED> instruction: 0x612f7261
    2bbc:	6e2d6d72 	mcrvs	13, 1, r6, cr13, cr2, {3}
    2bc0:	2d656e6f 	stclcs	14, cr6, [r5, #-444]!	; 0xfffffe44
    2bc4:	69626165 	stmdbvs	r2!, {r0, r2, r5, r6, r8, sp, lr}^
    2bc8:	392f392d 	stmdbcc	pc!, {r0, r2, r3, r5, r8, fp, ip, sp}	; <UNPREDICTABLE>
    2bcc:	3130322d 	teqcc	r0, sp, lsr #4
    2bd0:	2d347139 	ldfcss	f7, [r4, #-228]!	; 0xffffff1c
    2bd4:	30317363 	eorscc	r7, r1, r3, ror #6
    2bd8:	6c2f6537 	cfstr32vs	mvfx6, [pc], #-220	; 2b04 <__code_start__-0x54fc>
    2bdc:	672f6269 	strvs	r6, [pc, -r9, ror #4]!
    2be0:	612f6363 			; <UNDEFINED> instruction: 0x612f6363
    2be4:	6e2d6d72 	mcrvs	13, 1, r6, cr13, cr2, {3}
    2be8:	2d656e6f 	stclcs	14, cr6, [r5, #-444]!	; 0xfffffe44
    2bec:	69626165 	stmdbvs	r2!, {r0, r2, r5, r6, r8, sp, lr}^
    2bf0:	322e392f 	eorcc	r3, lr, #770048	; 0xbc000
    2bf4:	692f312e 	stmdbvs	pc!, {r1, r2, r3, r5, r8, ip, sp}	; <UNPREDICTABLE>
    2bf8:	756c636e 	strbvc	r6, [ip, #-878]!	; 0xfffffc92
    2bfc:	00006564 	andeq	r6, r0, r4, ror #10
    2c00:	6e727473 	mrcvs	4, 3, r7, cr2, cr3, {3}
    2c04:	2e706d63 	cdpcs	13, 7, cr6, cr0, cr3, {3}
    2c08:	00010063 	andeq	r0, r1, r3, rrx
    2c0c:	69707200 	ldmdbvs	r0!, {r9, ip, sp, lr}^
    2c10:	0200682e 	andeq	r6, r0, #3014656	; 0x2e0000
    2c14:	74730000 	ldrbtvc	r0, [r3], #-0
    2c18:	66656464 	strbtvs	r6, [r5], -r4, ror #8
    2c1c:	0300682e 	movweq	r6, #2094	; 0x82e
    2c20:	05000000 	streq	r0, [r0, #-0]
    2c24:	02050039 	andeq	r0, r5, #57, 0	; 0x39
    2c28:	0000a574 	andeq	sl, r0, r4, ror r5
    2c2c:	13050515 	movwne	r0, #21781	; 0x5515
    2c30:	060a0513 			; <UNDEFINED> instruction: 0x060a0513
    2c34:	2f0c052e 	svccs	0x000c052e
    2c38:	052e1305 	streq	r1, [lr, #-773]!	; 0xfffffcfb
    2c3c:	09052e0b 	stmdbeq	r5, {r0, r1, r3, r9, sl, fp, sp}
    2c40:	0a054a06 	beq	155460 <__bss_end__+0x14a168>
    2c44:	05010611 	streq	r0, [r1, #-1553]	; 0xfffff9ef
    2c48:	01054e0c 	tsteq	r5, ip, lsl #28
    2c4c:	060d052f 	streq	r0, [sp], -pc, lsr #10
    2c50:	061b052b 	ldreq	r0, [fp], -fp, lsr #10
    2c54:	02022e01 	andeq	r2, r2, #1, 28
    2c58:	8a010100 	bhi	43060 <__bss_end__+0x37d68>
    2c5c:	03000000 	movweq	r0, #0
    2c60:	00006e00 	andeq	r6, r0, r0, lsl #28
    2c64:	fb010200 	blx	4346e <__bss_end__+0x38176>
    2c68:	01000d0e 	tsteq	r0, lr, lsl #26
    2c6c:	00010101 	andeq	r0, r1, r1, lsl #2
    2c70:	00010000 	andeq	r0, r1, r0
    2c74:	2f2e0100 	svccs	0x002e0100
    2c78:	66617473 			; <UNDEFINED> instruction: 0x66617473
    2c7c:	72732d66 	rsbsvc	r2, r3, #6528	; 0x1980
    2c80:	552f0063 	strpl	r0, [pc, #-99]!	; 2c25 <__code_start__-0x53db>
    2c84:	73726573 	cmnvc	r2, #482344960	; 0x1cc00000
    2c88:	6c696d2f 	stclvs	13, cr6, [r9], #-188	; 0xffffff44
    2c8c:	532f7365 			; <UNDEFINED> instruction: 0x532f7365
    2c90:	6372756f 	cmnvs	r2, #465567744	; 0x1bc00000
    2c94:	73632f65 	cmnvc	r3, #404	; 0x194
    2c98:	6c303432 	cfldrsvs	mvf3, [r0], #-200	; 0xffffff38
    2c9c:	696c2f78 	stmdbvs	ip!, {r3, r4, r5, r6, r8, r9, sl, fp, sp}^
    2ca0:	2f697062 	svccs	0x00697062
    2ca4:	6c636e69 	stclvs	14, cr6, [r3], #-420	; 0xfffffe5c
    2ca8:	00656475 	rsbeq	r6, r5, r5, ror r4
    2cac:	66656400 	strbtvs	r6, [r5], -r0, lsl #8
    2cb0:	746c7561 	strbtvc	r7, [ip], #-1377	; 0xfffffa9f
    2cb4:	6265722d 	rsbvs	r7, r5, #-805306366	; 0xd0000002
    2cb8:	2d746f6f 	ldclcs	15, cr6, [r4, #-444]!	; 0xfffffe44
    2cbc:	6c6c6163 	stfvse	f6, [ip], #-396	; 0xfffffe74
    2cc0:	2e74756f 	cdpcs	5, 7, cr7, cr4, cr15, {3}
    2cc4:	00010063 	andeq	r0, r1, r3, rrx
    2cc8:	69707200 	ldmdbvs	r0!, {r9, ip, sp, lr}^
    2ccc:	0200682e 	andeq	r6, r0, #3014656	; 0x2e0000
    2cd0:	05000000 	streq	r0, [r0, #-0]
    2cd4:	0205001b 	andeq	r0, r5, #27, 0
    2cd8:	0000a5a4 	andeq	sl, r0, r4, lsr #11
    2cdc:	011c0514 	tsteq	ip, r4, lsl r5
    2ce0:	01060105 	tsteq	r6, r5, lsl #2
    2ce4:	01000202 	tsteq	r0, r2, lsl #4
    2ce8:	Address 0x0000000000002ce8 is out of bounds.


Disassembly of section .debug_str:

00000000 <.debug_str>:
   0:	726f6873 	rsbvc	r6, pc, #7536640	; 0x730000
   4:	6e692074 	mcrvs	0, 3, r2, cr9, cr4, {3}
   8:	552f0074 	strpl	r0, [pc, #-116]!	; ffffff9c <__bss_end__+0xffff4ca4>
   c:	73726573 	cmnvc	r2, #482344960	; 0x1cc00000
  10:	6c696d2f 	stclvs	13, cr6, [r9], #-188	; 0xffffff44
  14:	532f7365 			; <UNDEFINED> instruction: 0x532f7365
  18:	6372756f 	cmnvs	r2, #465567744	; 0x1bc00000
  1c:	73632f65 	cmnvc	r3, #404	; 0x194
  20:	6c303432 	cfldrsvs	mvf3, [r0], #-200	; 0xffffff38
  24:	616c2f78 	smcvs	49912	; 0xc2f8
  28:	392f7362 	stmdbcc	pc!, {r1, r5, r6, r8, r9, ip, sp, lr}	; <UNPREDICTABLE>
  2c:	6d656d2d 	stclvs	13, cr6, [r5, #-180]!	; 0xffffff4c
  30:	63656863 	cmnvs	r5, #6488064	; 0x630000
  34:	74732d6b 	ldrbtvc	r2, [r3], #-3435	; 0xfffff295
  38:	632f7461 			; <UNDEFINED> instruction: 0x632f7461
  3c:	0065646f 	rsbeq	r6, r5, pc, ror #8
  40:	5f697072 	svcpl	0x00697072
  44:	63747570 	cmnvs	r4, #112, 10	; 0x1c000000
  48:	00726168 	rsbseq	r6, r2, r8, ror #2
  4c:	6c616b63 			; <UNDEFINED> instruction: 0x6c616b63
  50:	00636f6c 	rsbeq	r6, r3, ip, ror #30
  54:	656c6966 	strbvs	r6, [ip, #-2406]!	; 0xfffff69a
  58:	54555000 	ldrbpl	r5, [r5], #-0
  5c:	66003233 			; <UNDEFINED> instruction: 0x66003233
  60:	00636e75 	rsbeq	r6, r3, r5, ror lr
  64:	676e6f6c 	strbvs	r6, [lr, -ip, ror #30]!
  68:	6e6f6c20 	cdpvs	12, 6, cr6, cr15, cr0, {1}
  6c:	6e692067 	cdpvs	0, 6, cr2, cr9, cr7, {3}
  70:	656d0074 	strbvs	r0, [sp, #-116]!	; 0xffffff8c
  74:	7465736d 	strbtvc	r7, [r5], #-877	; 0xfffffc93
  78:	5f6b6300 	svcpl	0x006b6300
  7c:	5f006367 	svcpl	0x00006367
  80:	4e55465f 	mrcmi	6, 2, r4, cr5, cr15, {2}
  84:	4f495443 	svcmi	0x00495443
  88:	005f5f4e 	subseq	r5, pc, lr, asr #30
  8c:	61656c63 	cmnvs	r5, r3, ror #24
  90:	65725f6e 	ldrbvs	r5, [r2, #-3950]!	; 0xfffff092
  94:	746f6f62 	strbtvc	r6, [pc], #-3938	; 9c <__code_start__-0x7f64>
  98:	5f6b6300 	svcpl	0x006b6300
  9c:	62726576 	rsbsvs	r6, r2, #494927872	; 0x1d800000
  a0:	5f65736f 	svcpl	0x0065736f
  a4:	6e750070 	mrcvs	0, 3, r0, cr5, cr0, {3}
  a8:	6e676973 			; <UNDEFINED> instruction: 0x6e676973
  ac:	63206465 			; <UNDEFINED> instruction: 0x63206465
  b0:	00726168 	rsbseq	r6, r2, r8, ror #2
  b4:	20554e47 	subscs	r4, r5, r7, asr #28
  b8:	20393943 	eorscs	r3, r9, r3, asr #18
  bc:	2e322e39 	mrccs	14, 1, r2, cr2, cr9, {1}
  c0:	30322031 	eorscc	r2, r2, r1, lsr r0
  c4:	30313931 	eorscc	r3, r1, r1, lsr r9
  c8:	28203532 	stmdacs	r0!, {r1, r4, r5, r8, sl, ip, sp}
  cc:	656c6572 	strbvs	r6, [ip, #-1394]!	; 0xfffffa8e
  d0:	29657361 	stmdbcs	r5!, {r0, r5, r6, r8, r9, ip, sp, lr}^
  d4:	52415b20 	subpl	r5, r1, #32, 22	; 0x8000
  d8:	72612f4d 	rsbvc	r2, r1, #308	; 0x134
  dc:	2d392d6d 	ldccs	13, cr2, [r9, #-436]!	; 0xfffffe4c
  e0:	6e617262 	cdpvs	2, 6, cr7, cr1, cr2, {3}
  e4:	72206863 	eorvc	r6, r0, #6488064	; 0x630000
  e8:	73697665 	cmnvc	r9, #105906176	; 0x6500000
  ec:	206e6f69 	rsbcs	r6, lr, r9, ror #30
  f0:	35373732 	ldrcc	r3, [r7, #-1842]!	; 0xfffff8ce
  f4:	205d3939 	subscs	r3, sp, r9, lsr r9
  f8:	70636d2d 	rsbvc	r6, r3, sp, lsr #26
  fc:	72613d75 	rsbvc	r3, r1, #7488	; 0x1d40
 100:	3731316d 	ldrcc	r3, [r1, -sp, ror #2]!
 104:	667a6a36 			; <UNDEFINED> instruction: 0x667a6a36
 108:	2d20732d 	stccs	3, cr7, [r0, #-180]!	; 0xffffff4c
 10c:	6e75746d 	cdpvs	4, 7, cr7, cr5, cr13, {3}
 110:	72613d65 	rsbvc	r3, r1, #6464	; 0x1940
 114:	3731316d 	ldrcc	r3, [r1, -sp, ror #2]!
 118:	667a6a36 			; <UNDEFINED> instruction: 0x667a6a36
 11c:	2d20732d 	stccs	3, cr7, [r0, #-180]!	; 0xffffff4c
 120:	6b6f706d 	blvs	1bdc2dc <__bss_end__+0x1bd0fe4>
 124:	75662d65 	strbvc	r2, [r6, #-3429]!	; 0xfffff29b
 128:	6974636e 	ldmdbvs	r4!, {r1, r2, r3, r5, r6, r8, r9, sp, lr}^
 12c:	6e2d6e6f 	cdpvs	14, 2, cr6, cr13, cr15, {3}
 130:	20656d61 	rsbcs	r6, r5, r1, ror #26
 134:	6c666d2d 	stclvs	13, cr6, [r6], #-180	; 0xffffff4c
 138:	2d74616f 	ldfcse	f6, [r4, #-444]!	; 0xfffffe44
 13c:	3d696261 	sfmcc	f6, 2, [r9, #-388]!	; 0xfffffe7c
 140:	74666f73 	strbtvc	r6, [r6], #-3955	; 0xfffff08d
 144:	616d2d20 	cmnvs	sp, r0, lsr #26
 148:	2d206d72 	stccs	13, cr6, [r0, #-456]!	; 0xfffffe38
 14c:	6372616d 	cmnvs	r2, #1073741851	; 0x4000001b
 150:	72613d68 	rsbvc	r3, r1, #104, 26	; 0x1a00
 154:	6b36766d 	blvs	d9db10 <__bss_end__+0xd92818>
 158:	672d207a 			; <UNDEFINED> instruction: 0x672d207a
 15c:	20626467 	rsbcs	r6, r2, r7, ror #8
 160:	20674f2d 	rsbcs	r4, r7, sp, lsr #30
 164:	6474732d 	ldrbtvs	r7, [r4], #-813	; 0xfffffcd3
 168:	756e673d 	strbvc	r6, [lr, #-1853]!	; 0xfffff8c3
 16c:	2d203939 			; <UNDEFINED> instruction: 0x2d203939
 170:	65726666 	ldrbvs	r6, [r2, #-1638]!	; 0xfffff99a
 174:	61747365 	cmnvs	r4, r5, ror #6
 178:	6e69646e 	cdpvs	4, 6, cr6, cr9, cr14, {3}
 17c:	662d2067 	strtvs	r2, [sp], -r7, rrx
 180:	6f2d6f6e 	svcvs	0x002d6f6e
 184:	2d74696d 			; <UNDEFINED> instruction: 0x2d74696d
 188:	6d617266 	sfmvs	f7, 2, [r1, #-408]!	; 0xfffffe68
 18c:	6f702d65 	svcvs	0x00702d65
 190:	65746e69 	ldrbvs	r6, [r4, #-3689]!	; 0xfffff197
 194:	696c0072 	stmdbvs	ip!, {r1, r4, r5, r6}^
 198:	6f6e656e 	svcvs	0x006e656e
 19c:	6e6f6c00 	cdpvs	12, 6, cr6, cr15, cr0, {0}
 1a0:	6f6c2067 	svcvs	0x006c2067
 1a4:	7520676e 	strvc	r6, [r0, #-1902]!	; 0xfffff892
 1a8:	6769736e 	strbvs	r7, [r9, -lr, ror #6]!
 1ac:	2064656e 	rsbcs	r6, r4, lr, ror #10
 1b0:	00746e69 	rsbseq	r6, r4, r9, ror #28
 1b4:	746e6975 	strbtvc	r6, [lr], #-2421	; 0xfffff68b
 1b8:	745f3233 	ldrbvc	r3, [pc], #-563	; 1c0 <__code_start__-0x7e40>
 1bc:	65686300 	strbvs	r6, [r8, #-768]!	; 0xfffffd00
 1c0:	6e5f6b63 	vnmlavs.f64	d22, d15, d19
 1c4:	656c5f6f 	strbvs	r5, [ip, #-3951]!	; 0xfffff091
 1c8:	6e006b61 	vmlsvs.f64	d6, d0, d17
 1cc:	616d746f 	cmnvs	sp, pc, ror #8
 1d0:	74006e69 	strvc	r6, [r0], #-3689	; 0xfffff197
 1d4:	73747365 	cmnvc	r4, #-1811939327	; 0x94000001
 1d8:	302e322d 	eorcc	r3, lr, sp, lsr #4
 1dc:	7261702f 	rsbvc	r7, r1, #47, 0	; 0x2f
 1e0:	742d3274 	strtvc	r3, [sp], #-628	; 0xfffffd8c
 1e4:	35747365 	ldrbcc	r7, [r4, #-869]!	; 0xfffffc9b
 1e8:	2e63672d 	cdpcs	7, 6, cr6, cr3, cr13, {1}
 1ec:	68730063 	ldmdavs	r3!, {r0, r1, r5, r6}^
 1f0:	2074726f 	rsbscs	r7, r4, pc, ror #4
 1f4:	69736e75 	ldmdbvs	r3!, {r0, r2, r4, r5, r6, r9, sl, fp, sp, lr}^
 1f8:	64656e67 	strbtvs	r6, [r5], #-3687	; 0xfffff199
 1fc:	746e6920 	strbtvc	r6, [lr], #-2336	; 0xfffff6e0
 200:	65686300 	strbvs	r6, [r8, #-768]!	; 0xfffffd00
 204:	735f6b63 	cmpvc	pc, #101376	; 0x18c00
 208:	6c756f68 	ldclvs	15, cr6, [r5], #-416	; 0xfffffe60
 20c:	656c5f64 	strbvs	r5, [ip, #-3940]!	; 0xfffff09c
 210:	74006b61 	strvc	r6, [r0], #-2913	; 0xfffff49f
 214:	00747365 	rsbseq	r7, r4, r5, ror #6
 218:	76657270 			; <UNDEFINED> instruction: 0x76657270
 21c:	63727300 	cmnvs	r2, #0, 6
 220:	636f6c5f 	cmnvs	pc, #24320	; 0x5f00
 224:	006b6d5f 	rsbeq	r6, fp, pc, asr sp
 228:	7478656e 	ldrbtvc	r6, [r8], #-1390	; 0xfffffa92
 22c:	63727300 	cmnvs	r2, #0, 6
 230:	636f6c5f 	cmnvs	pc, #24320	; 0x5f00
 234:	6300745f 	movwvs	r7, #1119	; 0x45f
 238:	74705f6b 	ldrbtvc	r5, [r0], #-3947	; 0xfffff095
 23c:	6e695f72 	mcrvs	15, 3, r5, cr9, cr2, {3}
 240:	6f6c625f 	svcvs	0x006c625f
 244:	68006b63 	stmdavs	r0, {r0, r1, r5, r6, r8, r9, fp, sp, lr}
 248:	745f7264 	ldrbvc	r7, [pc], #-612	; 250 <__code_start__-0x7db0>
 24c:	6f6c6200 	svcvs	0x006c6200
 250:	695f6b63 	ldmdbvs	pc, {r0, r1, r5, r6, r8, r9, fp, sp, lr}^	; <UNPREDICTABLE>
 254:	52460064 	subpl	r0, r6, #100, 0	; 0x64
 258:	00444545 	subeq	r4, r4, r5, asr #10
 25c:	73666572 	cmnvc	r6, #478150656	; 0x1c800000
 260:	64696d5f 	strbtvs	r6, [r9], #-3423	; 0xfffff2a1
 264:	00656c64 	rsbeq	r6, r5, r4, ror #24
 268:	5a444552 	bpl	11117b8 <__bss_end__+0x11064c0>
 26c:	5f454e4f 	svcpl	0x00454e4f
 270:	004c4156 	subeq	r4, ip, r6, asr r1
 274:	5a444552 	bpl	11117c4 <__bss_end__+0x11064cc>
 278:	5f454e4f 	svcpl	0x00454e4f
 27c:	5459424e 	ldrbpl	r4, [r9], #-590	; 0xfffffdb2
 280:	63005345 	movwvs	r5, #837	; 0x345
 284:	69665f6b 	stmdbvs	r6!, {r0, r1, r3, r5, r6, r8, r9, sl, fp, ip, lr}^
 288:	5f747372 	svcpl	0x00747372
 28c:	00726468 	rsbseq	r6, r2, r8, ror #8
 290:	746e6975 	strbtvc	r6, [lr], #-2421	; 0xfffff68b
 294:	00745f38 	rsbseq	r5, r4, r8, lsr pc
 298:	72666b63 	rsbvc	r6, r6, #101376	; 0x18c00
 29c:	62006565 	andvs	r6, r0, #423624704	; 0x19400000
 2a0:	746b6361 	strbtvc	r6, [fp], #-865	; 0xfffffc9f
 2a4:	65636172 	strbvs	r6, [r3, #-370]!	; 0xfffffe8e
 2a8:	6c6c6100 	stfvse	f6, [ip], #-0
 2ac:	6c5f636f 	mrrcvs	3, 6, r6, pc, cr15	; <UNPREDICTABLE>
 2b0:	00747369 	rsbseq	r7, r4, r9, ror #6
 2b4:	685f6b63 	ldmdavs	pc, {r0, r1, r5, r6, r8, r9, fp, sp, lr}^	; <UNPREDICTABLE>
 2b8:	73007264 	movwvc	r7, #612	; 0x264
 2bc:	6f646168 	svcvs	0x00646168
 2c0:	6f6c5f77 	svcvs	0x006c5f77
 2c4:	69746163 	ldmdbvs	r4!, {r0, r1, r5, r6, r8, sp, lr}^
 2c8:	61006e6f 	tstvs	r0, pc, ror #28
 2cc:	636f6c6c 	cmnvs	pc, #108, 24	; 0x6c00
 2d0:	636f6c5f 	cmnvs	pc, #24320	; 0x5f00
 2d4:	61747300 	cmnvs	r4, r0, lsl #6
 2d8:	72006574 	andvc	r6, r0, #116, 10	; 0x1d000000
 2dc:	5f736665 	svcpl	0x00736665
 2e0:	72617473 	rsbvc	r7, r1, #1929379840	; 0x73000000
 2e4:	5f5f0074 	svcpl	0x005f0074
 2e8:	70616568 	rsbvc	r6, r1, r8, ror #10
 2ec:	6174735f 	cmnvs	r4, pc, asr r3
 2f0:	5f5f7472 	svcpl	0x005f7472
 2f4:	6e697500 	cdpvs	5, 6, cr7, cr9, cr0, {0}
 2f8:	5f363174 	svcpl	0x00363174
 2fc:	6b630074 	blvs	18c04d4 <__bss_end__+0x18b51dc>
 300:	7274705f 	rsbsvc	r7, r4, #95, 0	; 0x5f
 304:	5f73695f 	svcpl	0x0073695f
 308:	6f6c6c61 	svcvs	0x006c6c61
 30c:	00646563 	rsbeq	r6, r4, r3, ror #10
 310:	6e5f6b63 	vnmlavs.f64	d22, d15, d19
 314:	5f747865 	svcpl	0x00747865
 318:	00726468 	rsbseq	r6, r2, r8, ror #8
 31c:	6c616b63 			; <UNDEFINED> instruction: 0x6c616b63
 320:	2e636f6c 	cdpcs	15, 6, cr6, cr3, cr12, {3}
 324:	69730063 	ldmdbvs	r3!, {r0, r1, r5, r6}^
 328:	4100657a 	tstmi	r0, sl, ror r5
 32c:	434f4c4c 	movtmi	r4, #64588	; 0xfc4c
 330:	6e004445 	cdpvs	4, 0, cr4, cr0, cr5, {2}
 334:	65747962 	ldrbvs	r7, [r4, #-2402]!	; 0xfffff69e
 338:	6c615f73 	stclvs	15, cr5, [r1], #-460	; 0xfffffe34
 33c:	00636f6c 	rsbeq	r6, r3, ip, ror #30
 340:	685f6b63 	ldmdavs	pc, {r0, r1, r5, r6, r8, r9, fp, sp, lr}^	; <UNPREDICTABLE>
 344:	735f7264 	cmpvc	pc, #100, 4	; 0x40000006
 348:	74726174 	ldrbtvc	r6, [r2], #-372	; 0xfffffe8c
 34c:	78616d00 	stmdavc	r1!, {r8, sl, fp, sp, lr}^
 350:	6165685f 	cmnvs	r5, pc, asr r8
 354:	726f0070 	rsbvc	r0, pc, #112, 0	; 0x70
 358:	6e696769 	cdpvs	7, 6, cr6, cr9, cr9, {3}
 35c:	63006c61 	movwvs	r6, #3169	; 0xc61
 360:	64685f6b 	strbtvs	r5, [r8], #-3947	; 0xfffff095
 364:	6e655f72 	mcrvs	15, 3, r5, cr5, cr2, {3}
 368:	72660064 	rsbvc	r0, r6, #100, 0	; 0x64
 36c:	6c5f6565 	cfldr64vs	mvdx6, [pc], {101}	; 0x65
 370:	6300636f 	movwvs	r6, #879	; 0x36f
 374:	626e5f6b 	rsbvs	r5, lr, #428	; 0x1ac
 378:	73657479 	cmnvc	r5, #2030043136	; 0x79000000
 37c:	5f726b00 	svcpl	0x00726b00
 380:	6c6c616d 	stfvse	f6, [ip], #-436	; 0xfffffe4c
 384:	6800636f 	stmdavs	r0, {r0, r1, r2, r3, r5, r6, r8, r9, sp, lr}
 388:	65646165 	strbvs	r6, [r4, #-357]!	; 0xfffffe9b
 38c:	72700072 	rsbsvc	r0, r0, #114, 0	; 0x72
 390:	00707665 	rsbseq	r7, r0, r5, ror #12
 394:	67696c61 	strbvs	r6, [r9, -r1, ror #24]!
 398:	726b006e 	rsbvc	r0, fp, #110, 0	; 0x6e
 39c:	6572665f 	ldrbvs	r6, [r2, #-1631]!	; 0xfffff9a1
 3a0:	72660065 	rsbvc	r0, r6, #101, 0	; 0x65
 3a4:	00706565 	rsbseq	r6, r0, r5, ror #10
 3a8:	696e756e 	stmdbvs	lr!, {r1, r2, r3, r5, r6, r8, sl, ip, sp, lr}^
 3ac:	6b007374 	blvs	1d184 <__bss_end__+0x11e8c>
 3b0:	616d2d72 	smcvs	53970	; 0xd2d2
 3b4:	636f6c6c 	cmnvs	pc, #108, 24	; 0x6c00
 3b8:	2f00632e 	svccs	0x0000632e
 3bc:	72657355 	rsbvc	r7, r5, #1409286145	; 0x54000001
 3c0:	696d2f73 	stmdbvs	sp!, {r0, r1, r4, r5, r6, r8, r9, sl, fp, sp}^
 3c4:	2f73656c 	svccs	0x0073656c
 3c8:	72756f53 	rsbsvc	r6, r5, #332	; 0x14c
 3cc:	632f6563 			; <UNDEFINED> instruction: 0x632f6563
 3d0:	30343273 	eorscc	r3, r4, r3, ror r2
 3d4:	6c2f786c 	stcvs	8, cr7, [pc], #-432	; 22c <__code_start__-0x7dd4>
 3d8:	2f736261 	svccs	0x00736261
 3dc:	65642d36 	strbvs	r2, [r4, #-3382]!	; 0xfffff2ca
 3e0:	2d677562 	cfstr64cs	mvdx7, [r7, #-392]!	; 0xfffffe78
 3e4:	6f6c6c61 	svcvs	0x006c6c61
 3e8:	6f632f63 	svcvs	0x00632f63
 3ec:	64006564 	strvs	r6, [r0], #-1380	; 0xfffffa9c
 3f0:	6c62756f 	cfstr64vs	mvdx7, [r2], #-444	; 0xfffffe44
 3f4:	61620065 	cmnvs	r2, r5, rrx
 3f8:	73006573 	movwvc	r6, #1395	; 0x573
 3fc:	006b7262 	rsbeq	r7, fp, r2, ror #4
 400:	65726f6d 	ldrbvs	r6, [r2, #-3949]!	; 0xfffff093
 404:	65726f63 	ldrbvs	r6, [r2, #-3939]!	; 0xfffff09d
 408:	61654800 	cmnvs	r5, r0, lsl #16
 40c:	00726564 	rsbseq	r6, r2, r4, ror #10
 410:	63617473 	cmnvs	r1, #1929379840	; 0x73000000
 414:	6f745f6b 	svcvs	0x00745f6b
 418:	616d0070 	smcvs	53248	; 0xd000
 41c:	615f6b72 	cmpvs	pc, r2, ror fp	; <UNPREDICTABLE>
 420:	69006c6c 	stmdbvs	r0, {r2, r3, r5, r6, sl, fp, sp, lr}
 424:	656c706d 	strbvs	r7, [ip, #-109]!	; 0xffffff93
 428:	746e656d 	strbtvc	r6, [lr], #-1389	; 0xfffffa93
 42c:	6968745f 	stmdbvs	r8!, {r0, r1, r2, r3, r4, r6, sl, ip, sp, lr}^
 430:	5f5f0073 	svcpl	0x005f0073
 434:	5f737362 	svcpl	0x00737362
 438:	72617473 	rsbvc	r7, r1, #1929379840	; 0x73000000
 43c:	005f5f74 	subseq	r5, pc, r4, ror pc	; <UNPREDICTABLE>
 440:	6f6c626e 	svcvs	0x006c626e
 444:	00736b63 	rsbseq	r6, r3, r3, ror #22
 448:	74696e69 	strbtvc	r6, [r9], #-3689	; 0xfffff197
 44c:	6e00705f 	mcrvs	0, 0, r7, cr0, cr15, {2}
 450:	65747962 	ldrbvs	r7, [r4, #-2402]!	; 0xfffff69e
 454:	72665f73 	rsbvc	r5, r6, #460	; 0x1cc
 458:	00646565 	rsbeq	r6, r4, r5, ror #10
 45c:	5f646c6f 	svcpl	0x00646c6f
 460:	6b72616d 	blvs	1c98a1c <__bss_end__+0x1c8d724>
 464:	636e6900 	cmnvs	lr, #0, 18
 468:	656d6572 	strbvs	r6, [sp, #-1394]!	; 0xfffffa8e
 46c:	6300746e 	movwvs	r7, #1134	; 0x46e
 470:	69665f6b 	stmdbvs	r6!, {r0, r1, r3, r5, r6, r8, r9, sl, fp, ip, lr}^
 474:	6c5f646e 	cfldrdvs	mvd6, [pc], {110}	; 0x6e
 478:	736b6165 	cmnvc	fp, #1073741849	; 0x40000019
 47c:	79616d00 	stmdbvc	r1!, {r8, sl, fp, sp, lr}^
 480:	655f6562 	ldrbvs	r6, [pc, #-1378]	; ffffff26 <__bss_end__+0xffff4c2e>
 484:	726f7272 	rsbvc	r7, pc, #536870919	; 0x20000007
 488:	75640073 	strbvc	r0, [r4, #-115]!	; 0xffffff8d
 48c:	725f706d 	subsvc	r7, pc, #109, 0	; 0x6d
 490:	00736765 	rsbseq	r6, r3, r5, ror #14
 494:	61656c6e 	cmnvs	r5, lr, ror #24
 498:	5f00736b 	svcpl	0x0000736b
 49c:	7461645f 	strbtvc	r6, [r1], #-1119	; 0xfffffba1
 4a0:	6e655f61 	cdpvs	15, 6, cr5, cr5, cr1, {3}
 4a4:	005f5f64 	subseq	r5, pc, r4, ror #30
 4a8:	705f7369 	subsvc	r7, pc, r9, ror #6
 4ac:	6e007274 	mcrvs	2, 0, r7, cr0, cr4, {3}
 4b0:	65657266 	strbvs	r7, [r5, #-614]!	; 0xfffffd9a
 4b4:	6e690064 	cdpvs	0, 6, cr0, cr9, cr4, {3}
 4b8:	6165685f 	cmnvs	r5, pc, asr r8
 4bc:	6e6f0070 	mcrvs	0, 3, r0, cr15, cr0, {3}
 4c0:	00626d65 	rsbeq	r6, r2, r5, ror #26
 4c4:	672d6b63 	strvs	r6, [sp, -r3, ror #22]!
 4c8:	00632e63 	rsbeq	r2, r3, r3, ror #28
 4cc:	73625f5f 	cmnvc	r2, #380	; 0x17c
 4d0:	6e655f73 	mcrvs	15, 3, r5, cr5, cr3, {3}
 4d4:	005f5f64 	subseq	r5, pc, r4, ror #30
 4d8:	6c616d6b 	stclvs	13, cr6, [r1], #-428	; 0xfffffe54
 4dc:	00636f6c 	rsbeq	r6, r3, ip, ror #30
 4e0:	6c616d6b 	stclvs	13, cr6, [r1], #-428	; 0xfffffe54
 4e4:	5f636f6c 	svcpl	0x00636f6c
 4e8:	74696e69 	strbtvc	r6, [r9], #-3689	; 0xfffff197
 4ec:	7465735f 	strbtvc	r7, [r5], #-863	; 0xfffffca1
 4f0:	6174735f 	cmnvs	r4, pc, asr r3
 4f4:	73007472 	movwvc	r7, #1138	; 0x472
 4f8:	70656577 	rsbvc	r6, r5, r7, ror r5
 4fc:	61656c5f 	cmnvs	r5, pc, asr ip
 500:	5f5f006b 	svcpl	0x005f006b
 504:	61746164 	cmnvs	r4, r4, ror #2
 508:	6174735f 	cmnvs	r4, pc, asr r3
 50c:	5f5f7472 	svcpl	0x005f7472
 510:	65777300 	ldrbvs	r7, [r7, #-768]!	; 0xfffffd00
 514:	665f7065 	ldrbvs	r7, [pc], -r5, rrx
 518:	00656572 	rsbeq	r6, r5, r2, ror r5
 51c:	6e726177 	mrcvs	1, 3, r6, cr2, cr7, {3}
 520:	5f6f6e5f 	svcpl	0x006f6e5f
 524:	72617473 	rsbvc	r7, r1, #1929379840	; 0x73000000
 528:	65725f74 	ldrbvs	r5, [r2, #-3956]!	; 0xfffff08c
 52c:	00705f66 	rsbseq	r5, r0, r6, ror #30
 530:	64726f77 	ldrbtvs	r6, [r2], #-3959	; 0xfffff089
 534:	6d616e00 	stclvs	14, cr6, [r1, #-0]
 538:	656c5f65 	strbvs	r5, [ip, #-3941]!	; 0xfffff09b
 53c:	4e47006e 	cdpmi	0, 4, cr0, cr7, cr14, {3}
 540:	39432055 	stmdbcc	r3, {r0, r2, r4, r6, sp}^
 544:	2e392039 	mrccs	0, 1, r2, cr9, cr9, {1}
 548:	20312e32 	eorscs	r2, r1, r2, lsr lr
 54c:	39313032 	ldmdbcc	r1!, {r1, r4, r5, ip, sp}
 550:	35323031 	ldrcc	r3, [r2, #-49]!	; 0xffffffcf
 554:	65722820 	ldrbvs	r2, [r2, #-2080]!	; 0xfffff7e0
 558:	7361656c 	cmnvc	r1, #108, 10	; 0x1b000000
 55c:	5b202965 	blpl	80aaf8 <__bss_end__+0x7ff800>
 560:	2f4d5241 	svccs	0x004d5241
 564:	2d6d7261 	sfmcs	f7, 2, [sp, #-388]!	; 0xfffffe7c
 568:	72622d39 	rsbvc	r2, r2, #3648	; 0xe40
 56c:	68636e61 	stmdavs	r3!, {r0, r5, r6, r9, sl, fp, sp, lr}^
 570:	76657220 	strbtvc	r7, [r5], -r0, lsr #4
 574:	6f697369 	svcvs	0x00697369
 578:	3732206e 	ldrcc	r2, [r2, -lr, rrx]!
 57c:	39393537 	ldmdbcc	r9!, {r0, r1, r2, r4, r5, r8, sl, ip, sp}
 580:	6d2d205d 	stcvs	0, cr2, [sp, #-372]!	; 0xfffffe8c
 584:	3d757063 	ldclcc	0, cr7, [r5, #-396]!	; 0xfffffe74
 588:	316d7261 	cmncc	sp, r1, ror #4
 58c:	6a363731 	bvs	d8e258 <__bss_end__+0xd82f60>
 590:	732d667a 			; <UNDEFINED> instruction: 0x732d667a
 594:	746d2d20 	strbtvc	r2, [sp], #-3360	; 0xfffff2e0
 598:	3d656e75 	stclcc	14, cr6, [r5, #-468]!	; 0xfffffe2c
 59c:	316d7261 	cmncc	sp, r1, ror #4
 5a0:	6a363731 	bvs	d8e26c <__bss_end__+0xd82f74>
 5a4:	732d667a 			; <UNDEFINED> instruction: 0x732d667a
 5a8:	666d2d20 	strbtvs	r2, [sp], -r0, lsr #26
 5ac:	74616f6c 	strbtvc	r6, [r1], #-3948	; 0xfffff094
 5b0:	6962612d 	stmdbvs	r2!, {r0, r2, r3, r5, r8, sp, lr}^
 5b4:	666f733d 			; <UNDEFINED> instruction: 0x666f733d
 5b8:	6d2d2074 	stcvs	0, cr2, [sp, #-464]!	; 0xfffffe30
 5bc:	206d7261 	rsbcs	r7, sp, r1, ror #4
 5c0:	72616d2d 	rsbvc	r6, r1, #2880	; 0xb40
 5c4:	613d6863 	teqvs	sp, r3, ror #16
 5c8:	36766d72 			; <UNDEFINED> instruction: 0x36766d72
 5cc:	2d207a6b 	vstmdbcs	r0!, {s14-s120}
 5d0:	62646767 	rsbvs	r6, r4, #27000832	; 0x19c0000
 5d4:	67672d20 	strbvs	r2, [r7, -r0, lsr #26]!
 5d8:	2d206264 	sfmcs	f6, 4, [r0, #-400]!	; 0xfffffe70
 5dc:	7361664f 	cmnvc	r1, #82837504	; 0x4f00000
 5e0:	4f2d2074 	svcmi	0x002d2074
 5e4:	74736166 	ldrbtvc	r6, [r3], #-358	; 0xfffffe9a
 5e8:	74732d20 	ldrbtvc	r2, [r3], #-3360	; 0xfffff2e0
 5ec:	6e673d64 	cdpvs	13, 6, cr3, cr7, cr4, {3}
 5f0:	20393975 	eorscs	r3, r9, r5, ror r9
 5f4:	6474732d 	ldrbtvs	r7, [r4], #-813	; 0xfffffcd3
 5f8:	756e673d 	strbvc	r6, [lr, #-1853]!	; 0xfffff8c3
 5fc:	2d203939 			; <UNDEFINED> instruction: 0x2d203939
 600:	65726666 	ldrbvs	r6, [r2, #-1638]!	; 0xfffff99a
 604:	61747365 	cmnvs	r4, r5, ror #6
 608:	6e69646e 	cdpvs	4, 6, cr6, cr9, cr14, {3}
 60c:	6e660067 	cdpvs	0, 6, cr0, cr6, cr7, {3}
 610:	6174735f 	cmnvs	r4, pc, asr r3
 614:	615f7472 	cmpvs	pc, r2, ror r4	; <UNPREDICTABLE>
 618:	00726464 	rsbseq	r6, r2, r4, ror #8
 61c:	6573552f 	ldrbvs	r5, [r3, #-1327]!	; 0xfffffad1
 620:	6d2f7372 	stcvs	3, cr7, [pc, #-456]!	; 460 <__code_start__-0x7ba0>
 624:	73656c69 	cmnvc	r5, #26880	; 0x6900
 628:	756f532f 	strbvc	r5, [pc, #-815]!	; 301 <__code_start__-0x7cff>
 62c:	2f656372 	svccs	0x00656372
 630:	34327363 	ldrtcc	r7, [r2], #-867	; 0xfffffc9d
 634:	2f786c30 	svccs	0x00786c30
 638:	7062696c 	rsbvc	r6, r2, ip, ror #18
 63c:	2f2e0069 	svccs	0x002e0069
 640:	2f637273 	svccs	0x00637273
 644:	6b636162 	blvs	18d8bd4 <__bss_end__+0x18cd8dc>
 648:	63617274 	cmnvs	r1, #116, 4	; 0x40000007
 64c:	00632e65 	rsbeq	r2, r3, r5, ror #28
 650:	5f727563 	svcpl	0x00727563
 654:	6e007066 	cdpvs	0, 0, cr7, cr0, cr6, {3}
 658:	5f656d61 	svcpl	0x00656d61
 65c:	7300666f 	movwvc	r6, #1647	; 0x66f
 660:	5f657a69 	svcpl	0x00657a69
 664:	2f2e0074 	svccs	0x002e0074
 668:	6362696c 	cmnvs	r2, #108, 18	; 0x1b0000
 66c:	6d656d2f 	stclvs	13, cr6, [r5, #-188]!	; 0xffffff44
 670:	2e746573 	mrccs	5, 3, r6, cr4, cr3, {3}
 674:	72610063 	rsbvc	r0, r1, #99, 0	; 0x63
 678:	76007367 	strvc	r7, [r0], -r7, ror #6
 67c:	72705f61 	rsbsvc	r5, r0, #388	; 0x184
 680:	6b746e69 	blvs	1d1c02c <__bss_end__+0x1d10d34>
 684:	675f5f00 	ldrbvs	r5, [pc, -r0, lsl #30]
 688:	5f63756e 	svcpl	0x0063756e
 68c:	6c5f6176 	ldfvse	f6, [pc], {118}	; 0x76
 690:	00747369 	rsbseq	r7, r4, r9, ror #6
 694:	70615f5f 	rsbvc	r5, r1, pc, asr pc
 698:	6c2f2e00 	stcvs	14, cr2, [pc], #-0	; 6a0 <__code_start__-0x7960>
 69c:	2f636269 	svccs	0x00636269
 6a0:	6e697270 	mcrvs	2, 3, r7, cr9, cr0, {3}
 6a4:	632e6b74 			; <UNDEFINED> instruction: 0x632e6b74
 6a8:	765f5f00 	ldrbvc	r5, [pc], -r0, lsl #30
 6ac:	696c5f61 	stmdbvs	ip!, {r0, r5, r6, r8, r9, sl, fp, ip, lr}^
 6b0:	69007473 	stmdbvs	r0, {r0, r1, r4, r5, r6, sl, ip, sp, lr}
 6b4:	7265746e 	rsbvc	r7, r5, #1845493760	; 0x6e000000
 6b8:	5f6c616e 	svcpl	0x006c616e
 6bc:	6b747570 	blvs	1d1dc84 <__bss_end__+0x1d1298c>
 6c0:	6c2f2e00 	stcvs	14, cr2, [pc], #-0	; 6c8 <__code_start__-0x7938>
 6c4:	2f636269 	svccs	0x00636269
 6c8:	6b747570 	blvs	1d1dc90 <__bss_end__+0x1d12998>
 6cc:	6900632e 	stmdbvs	r0, {r1, r2, r3, r5, r8, r9, sp, lr}
 6d0:	67696473 			; <UNDEFINED> instruction: 0x67696473
 6d4:	75007469 	strvc	r7, [r0, #-1129]	; 0xfffffb97
 6d8:	36746e69 	ldrbtcc	r6, [r4], -r9, ror #28
 6dc:	00745f34 	rsbseq	r5, r4, r4, lsr pc
 6e0:	696c2f2e 	stmdbvs	ip!, {r1, r2, r3, r5, r8, r9, sl, fp, sp}^
 6e4:	762f6362 	strtvc	r6, [pc], -r2, ror #6
 6e8:	72702d61 	rsbsvc	r2, r0, #6208	; 0x1840
 6ec:	6b746e69 	blvs	1d1c098 <__bss_end__+0x1d10da0>
 6f0:	5f00632e 	svcpl	0x0000632e
 6f4:	646f635f 	strbtvs	r6, [pc], #-863	; 6fc <__code_start__-0x7904>
 6f8:	74735f65 	ldrbtvc	r5, [r3], #-3941	; 0xfffff09b
 6fc:	5f747261 	svcpl	0x00747261
 700:	6977005f 	ldmdbvs	r7!, {r0, r1, r2, r3, r4, r6}^
 704:	00687464 	rsbeq	r7, r8, r4, ror #8
 708:	6e676973 			; <UNDEFINED> instruction: 0x6e676973
 70c:	705f6465 	subsvc	r6, pc, r5, ror #8
 710:	74757000 	ldrbtvc	r7, [r5], #-0
 714:	70665f63 	rsbvc	r5, r6, r3, ror #30
 718:	69707200 	ldmdbvs	r0!, {r9, ip, sp, lr}^
 71c:	7465735f 	strbtvc	r7, [r5], #-863	; 0xfffffca1
 720:	74756f5f 	ldrbtvc	r6, [r5], #-3935	; 0xfffff0a1
 724:	00747570 	rsbseq	r7, r4, r0, ror r5
 728:	5f746d66 	svcpl	0x00746d66
 72c:	72617473 	rsbvc	r7, r1, #1929379840	; 0x73000000
 730:	74730074 	ldrbtvc	r0, [r3], #-116	; 0xffffff8c
 734:	74616372 	strbtvc	r6, [r1], #-882	; 0xfffffc8e
 738:	72747300 	rsbsvc	r7, r4, #0, 6
 73c:	00797063 	rsbseq	r7, r9, r3, rrx
 740:	5f67656e 	svcpl	0x0067656e
 744:	5f5f0070 	svcpl	0x005f0070
 748:	65646f63 	strbvs	r6, [r4, #-3939]!	; 0xfffff09d
 74c:	646e655f 	strbtvs	r6, [lr], #-1375	; 0xfffffaa1
 750:	65005f5f 	strvs	r5, [r0, #-3935]	; 0xfffff0a1
 754:	0074696d 	rsbseq	r6, r4, sp, ror #18
 758:	73747570 	cmnvc	r4, #112, 10	; 0x1c000000
 75c:	0070665f 	rsbseq	r6, r0, pc, asr r6
 760:	65766572 	ldrbvs	r6, [r6, #-1394]!	; 0xfffffa8e
 764:	00657372 	rsbeq	r7, r5, r2, ror r3
 768:	63727473 	cmnvs	r2, #1929379840	; 0x73000000
 76c:	5f00706d 	svcpl	0x0000706d
 770:	6f72705f 	svcvs	0x0072705f
 774:	6e655f67 	cdpvs	15, 6, cr5, cr5, cr7, {3}
 778:	005f5f64 	subseq	r5, pc, r4, ror #30
 77c:	316d756e 	cmncc	sp, lr, ror #10
 780:	72747300 	rsbsvc	r7, r4, #0, 6
 784:	706d636e 	rsbvc	r6, sp, lr, ror #6
 788:	69707200 	ldmdbvs	r0!, {r9, ip, sp, lr}^
 78c:	6265725f 	rsbvs	r7, r5, #-268435451	; 0xf0000005
 790:	00746f6f 	rsbseq	r6, r4, pc, ror #30
 794:	616c6564 	cmnvs	ip, r4, ror #10
 798:	736d5f79 	cmnvc	sp, #484	; 0x1e4
 79c:	732f2e00 			; <UNDEFINED> instruction: 0x732f2e00
 7a0:	66666174 			; <UNDEFINED> instruction: 0x66666174
 7a4:	6372732d 	cmnvs	r2, #-1275068416	; 0xb4000000
 7a8:	656c632f 	strbvs	r6, [ip, #-815]!	; 0xfffffcd1
 7ac:	722d6e61 	eorvc	r6, sp, #1552	; 0x610
 7b0:	6f6f6265 	svcvs	0x006f6265
 7b4:	00632e74 	rsbeq	r2, r3, r4, ror lr
 7b8:	74726175 	ldrbtvc	r6, [r2], #-373	; 0xfffffe8b
 7bc:	756c665f 	strbvc	r6, [ip, #-1631]!	; 0xfffff9a1
 7c0:	745f6873 	ldrbvc	r6, [pc], #-2163	; 7c8 <__code_start__-0x7838>
 7c4:	635f0078 	cmpvs	pc, #120, 0	; 0x78
 7c8:	72617473 	rsbvc	r7, r1, #1929379840	; 0x73000000
 7cc:	73620074 	cmnvc	r2, #116, 0	; 0x74
 7d0:	6e655f73 	mcrvs	15, 3, r5, cr5, cr3, {3}
 7d4:	61750064 	cmnvs	r5, r4, rrx
 7d8:	695f7472 	ldmdbvs	pc, {r1, r4, r5, r6, sl, ip, sp, lr}^	; <UNPREDICTABLE>
 7dc:	0074696e 	rsbseq	r6, r4, lr, ror #18
 7e0:	74737563 	ldrbtvc	r7, [r3], #-1379	; 0xfffffa9d
 7e4:	6c5f6d6f 	mrrcvs	13, 6, r6, pc, cr15	; <UNPREDICTABLE>
 7e8:	6564616f 	strbvs	r6, [r4, #-367]!	; 0xfffffe91
 7ec:	2f2e0072 	svccs	0x002e0072
 7f0:	66617473 			; <UNDEFINED> instruction: 0x66617473
 7f4:	72732d66 	rsbsvc	r2, r3, #6528	; 0x1980
 7f8:	73632f63 	cmnvc	r3, #396	; 0x18c
 7fc:	74726174 	ldrbtvc	r6, [r2], #-372	; 0xfffffe8c
 800:	5f00632e 	svcpl	0x0000632e
 804:	0074756f 	rsbseq	r7, r4, pc, ror #10
 808:	6c637963 			; <UNDEFINED> instruction: 0x6c637963
 80c:	69645f65 	stmdbvs	r4!, {r0, r2, r5, r6, r8, r9, sl, fp, ip, lr}^
 810:	6c006666 	stcvs	6, cr6, [r0], {102}	; 0x66
 814:	00747361 	rsbseq	r7, r4, r1, ror #6
 818:	74732f2e 	ldrbtvc	r2, [r3], #-3886	; 0xfffff0d2
 81c:	2d666661 	stclcs	6, cr6, [r6, #-388]!	; 0xfffffe7c
 820:	2f637273 	svccs	0x00637273
 824:	74737563 	ldrbtvc	r7, [r3], #-1379	; 0xfffffa9d
 828:	6c2d6d6f 	stcvs	13, cr6, [sp], #-444	; 0xfffffe44
 82c:	6564616f 	strbvs	r6, [r4, #-367]!	; 0xfffffe91
 830:	00632e72 	rsbeq	r2, r3, r2, ror lr
 834:	6f626572 	svcvs	0x00626572
 838:	635f746f 	cmpvs	pc, #1862270976	; 0x6f000000
 83c:	6f6c6c61 	svcvs	0x006c6c61
 840:	50007475 	andpl	r7, r0, r5, ror r4
 844:	44575f4d 	ldrbmi	r5, [r7], #-3917	; 0xfffff0b3
 848:	7300474f 	movwvc	r4, #1871	; 0x74f
 84c:	755f7465 	ldrbvc	r7, [pc, #-1125]	; 3ef <__code_start__-0x7c11>
 850:	5f726573 	svcpl	0x00726573
 854:	6576656c 	ldrbvs	r6, [r6, #-1388]!	; 0xfffffa94
 858:	2f2e006c 	svccs	0x002e006c
 85c:	66617473 			; <UNDEFINED> instruction: 0x66617473
 860:	72732d66 	rsbsvc	r2, r3, #6528	; 0x1980
 864:	65722f63 	ldrbvs	r2, [r2, #-3939]!	; 0xfffff09d
 868:	746f6f62 	strbtvc	r6, [pc], #-3938	; 870 <__code_start__-0x7790>
 86c:	5000632e 	andpl	r6, r0, lr, lsr #6
 870:	41505f4d 	cmpmi	r0, sp, asr #30
 874:	4f575353 	svcmi	0x00575353
 878:	61004452 	tstvs	r0, r2, asr r4
 87c:	73755f74 	cmnvc	r5, #116, 30	; 0x1d0
 880:	6c5f7265 	lfmvs	f7, 2, [pc], {101}	; 0x65
 884:	6c657665 	stclvs	6, cr7, [r5], #-404	; 0xfffffe6c
 888:	5f4d5000 	svcpl	0x004d5000
 88c:	43545352 	cmpmi	r4, #1207959553	; 0x48000001
 890:	4352575f 	cmpmi	r2, #24903680	; 0x17c0000
 894:	465f4746 	ldrbmi	r4, [pc], -r6, asr #14
 898:	5f4c4c55 	svcpl	0x004c4c55
 89c:	45534552 	ldrbmi	r4, [r3, #-1362]	; 0xfffffaae
 8a0:	4d500054 	ldclmi	0, cr0, [r0, #-336]	; 0xfffffeb0
 8a4:	5453525f 	ldrbpl	r5, [r3], #-607	; 0xfffffda1
 8a8:	70630043 	rsbvc	r0, r3, r3, asr #32
 8ac:	64007273 	strvs	r7, [r0], #-627	; 0xfffffd8d
 8b0:	625f7665 	subsvs	r7, pc, #105906176	; 0x6500000
 8b4:	69727261 	ldmdbvs	r2!, {r0, r5, r6, r9, ip, sp, lr}^
 8b8:	64007265 	strvs	r7, [r0], #-613	; 0xfffffd9b
 8bc:	79616c65 	stmdbvc	r1!, {r0, r2, r5, r6, sl, fp, sp, lr}^
 8c0:	6365735f 	cmnvs	r5, #2080374785	; 0x7c000001
 8c4:	732f2e00 			; <UNDEFINED> instruction: 0x732f2e00
 8c8:	66666174 			; <UNDEFINED> instruction: 0x66666174
 8cc:	6372732d 	cmnvs	r2, #-1275068416	; 0xb4000000
 8d0:	6d69742f 	cfstrdvs	mvd7, [r9, #-188]!	; 0xffffff44
 8d4:	632e7265 			; <UNDEFINED> instruction: 0x632e7265
 8d8:	54454700 	strbpl	r4, [r5], #-1792	; 0xfffff900
 8dc:	74003233 	strvc	r3, [r0], #-563	; 0xfffffdcd
 8e0:	72656d69 	rsbvc	r6, r5, #6720	; 0x1a40
 8e4:	7465675f 	strbtvc	r6, [r5], #-1887	; 0xfffff8a1
 8e8:	6573755f 	ldrbvs	r7, [r3, #-1375]!	; 0xfffffaa1
 8ec:	69740063 	ldmdbvs	r4!, {r0, r1, r5, r6}^
 8f0:	5f72656d 	svcpl	0x0072656d
 8f4:	5f746567 	svcpl	0x00746567
 8f8:	63657375 	cmnvs	r5, #-738197503	; 0xd4000001
 8fc:	7761725f 			; <UNDEFINED> instruction: 0x7761725f
 900:	6c656400 	cfstrdvs	mvd6, [r5], #-0
 904:	755f7961 	ldrbvc	r7, [pc, #-2401]	; ffffffab <__bss_end__+0xffff4cb3>
 908:	75700073 	ldrbvc	r0, [r0, #-115]!	; 0xffffff8d
 90c:	00323374 	eorseq	r3, r2, r4, ror r3
 910:	64756162 	ldrbtvs	r6, [r5], #-354	; 0xfffffe9e
 914:	6c61765f 	stclvs	6, cr7, [r1], #-380	; 0xfffffe84
 918:	61747300 	cmnvs	r4, r0, lsl #6
 91c:	61750074 	cmnvs	r5, r4, ror r0
 920:	635f7472 	cmpvs	pc, #1912602624	; 0x72000000
 924:	675f6e61 	ldrbvs	r6, [pc, -r1, ror #28]
 928:	00637465 	rsbeq	r7, r3, r5, ror #8
 92c:	4f495047 	svcmi	0x00495047
 930:	4e55465f 	mrcmi	6, 2, r4, cr5, cr15, {2}
 934:	554f5f43 	strbpl	r5, [pc, #-3907]	; fffff9f9 <__bss_end__+0xffff4701>
 938:	54555054 	ldrbpl	r5, [r5], #-84	; 0xffffffac
 93c:	78756100 	ldmdavc	r5!, {r8, sp, lr}^
 940:	7265705f 	rsbvc	r7, r5, #95, 0	; 0x5f
 944:	73687069 	cmnvc	r8, #105, 0	; 0x69
 948:	72617500 	rsbvc	r7, r1, #0, 10
 94c:	00632e74 	rsbeq	r2, r3, r4, ror lr
 950:	74726175 	ldrbtvc	r6, [r2], #-373	; 0xfffffe8b
 954:	6e61635f 	mcrvs	3, 3, r6, cr1, cr15, {2}
 958:	7475705f 	ldrbtvc	r7, [r5], #-95	; 0xffffffa1
 95c:	61750063 	cmnvs	r5, r3, rrx
 960:	745f7472 	ldrbvc	r7, [pc], #-1138	; 968 <__code_start__-0x7698>
 964:	73695f78 	cmnvc	r9, #120, 30	; 0x1e0
 968:	706d655f 	rsbvc	r6, sp, pc, asr r5
 96c:	47007974 	smlsdxmi	r0, r4, r9, r7
 970:	5f4f4950 	svcpl	0x004f4950
 974:	434e5546 	movtmi	r5, #58694	; 0xe546
 978:	544c415f 	strbpl	r4, [ip], #-351	; 0xfffffea1
 97c:	50470030 	subpl	r0, r7, r0, lsr r0
 980:	465f4f49 	ldrbmi	r4, [pc], -r9, asr #30
 984:	5f434e55 	svcpl	0x00434e55
 988:	31544c41 	cmpcc	r4, r1, asr #24
 98c:	49504700 	ldmdbmi	r0, {r8, r9, sl, lr}^
 990:	55465f4f 	strbpl	r5, [r6, #-3919]	; 0xfffff0b1
 994:	415f434e 	cmpmi	pc, lr, asr #6
 998:	0032544c 	eorseq	r5, r2, ip, asr #8
 99c:	4f495047 	svcmi	0x00495047
 9a0:	4e55465f 	mrcmi	6, 2, r4, cr5, cr15, {2}
 9a4:	4c415f43 	mcrrmi	15, 4, r5, r1, cr3
 9a8:	47003354 	smlsdmi	r0, r4, r3, r3
 9ac:	5f4f4950 	svcpl	0x004f4950
 9b0:	434e5546 	movtmi	r5, #58694	; 0xe546
 9b4:	544c415f 	strbpl	r4, [ip], #-351	; 0xfffffea1
 9b8:	682f0035 	stmdavs	pc!, {r0, r2, r4, r5}	; <UNPREDICTABLE>
 9bc:	2f656d6f 	svccs	0x00656d6f
 9c0:	6c676e65 	stclvs	14, cr6, [r7], #-404	; 0xfffffe6c
 9c4:	632f7265 			; <UNDEFINED> instruction: 0x632f7265
 9c8:	7373616c 	cmnvc	r3, #27
 9cc:	3273632f 	rsbscc	r6, r3, #-1140850688	; 0xbc000000
 9d0:	786c3034 	stmdavc	ip!, {r2, r4, r5, ip, sp}^
 9d4:	7332322d 	teqvc	r2, #-805306366	; 0xd0000002
 9d8:	6c2f7270 	sfmvs	f7, 4, [pc], #-448	; 820 <__code_start__-0x77e0>
 9dc:	69706269 	ldmdbvs	r0!, {r0, r3, r5, r6, r9, sp, lr}^
 9e0:	6174732f 	cmnvs	r4, pc, lsr #6
 9e4:	702d6666 	eorvc	r6, sp, r6, ror #12
 9e8:	61766972 	cmnvs	r6, r2, ror r9
 9ec:	62006574 	andvs	r6, r0, #116, 10	; 0x1d000000
 9f0:	00647561 	rsbeq	r7, r4, r1, ror #10
 9f4:	5f787561 	svcpl	0x00787561
 9f8:	62616e65 	rsbvs	r6, r1, #1616	; 0x650
 9fc:	0073656c 	rsbseq	r6, r3, ip, ror #10
 a00:	74726175 	ldrbtvc	r6, [r2], #-373	; 0xfffffe8b
 a04:	7465675f 	strbtvc	r6, [r5], #-1887	; 0xfffff8a1
 a08:	4e470063 	cdpmi	0, 4, cr0, cr7, cr3, {3}
 a0c:	39432055 	stmdbcc	r3, {r0, r2, r4, r6, sp}^
 a10:	30312039 	eorscc	r2, r1, r9, lsr r0
 a14:	312e332e 			; <UNDEFINED> instruction: 0x312e332e
 a18:	32303220 	eorscc	r3, r0, #32, 4
 a1c:	32383031 	eorscc	r3, r8, #49, 0	; 0x31
 a20:	72282034 	eorvc	r2, r8, #52, 0	; 0x34
 a24:	61656c65 	cmnvs	r5, r5, ror #24
 a28:	20296573 	eorcs	r6, r9, r3, ror r5
 a2c:	70636d2d 	rsbvc	r6, r3, sp, lsr #26
 a30:	72613d75 	rsbvc	r3, r1, #7488	; 0x1d40
 a34:	3731316d 	ldrcc	r3, [r1, -sp, ror #2]!
 a38:	667a6a36 			; <UNDEFINED> instruction: 0x667a6a36
 a3c:	2d20732d 	stccs	3, cr7, [r0, #-180]!	; 0xffffff4c
 a40:	6e75746d 	cdpvs	4, 7, cr7, cr5, cr13, {3}
 a44:	72613d65 	rsbvc	r3, r1, #6464	; 0x1940
 a48:	3731316d 	ldrcc	r3, [r1, -sp, ror #2]!
 a4c:	667a6a36 			; <UNDEFINED> instruction: 0x667a6a36
 a50:	2d20732d 	stccs	3, cr7, [r0, #-180]!	; 0xffffff4c
 a54:	6f6c666d 	svcvs	0x006c666d
 a58:	612d7461 			; <UNDEFINED> instruction: 0x612d7461
 a5c:	733d6962 	teqvc	sp, #1605632	; 0x188000
 a60:	2074666f 	rsbscs	r6, r4, pc, ror #12
 a64:	72616d2d 	rsbvc	r6, r1, #2880	; 0xb40
 a68:	6d2d206d 	stcvs	0, cr2, [sp, #-436]!	; 0xfffffe4c
 a6c:	68637261 	stmdavs	r3!, {r0, r5, r6, r9, ip, sp, lr}^
 a70:	6d72613d 	ldfvse	f6, [r2, #-244]!	; 0xffffff0c
 a74:	7a6b3676 	bvc	1ace454 <__bss_end__+0x1ac315c>
 a78:	67672d20 	strbvs	r2, [r7, -r0, lsr #26]!
 a7c:	2d206264 	sfmcs	f6, 4, [r0, #-400]!	; 0xfffffe70
 a80:	2d20674f 	stccs	7, cr6, [r0, #-316]!	; 0xfffffec4
 a84:	3d647473 	cfstrdcc	mvd7, [r4, #-460]!	; 0xfffffe34
 a88:	39756e67 	ldmdbcc	r5!, {r0, r1, r2, r5, r6, r9, sl, fp, sp, lr}^
 a8c:	662d2039 			; <UNDEFINED> instruction: 0x662d2039
 a90:	65657266 	strbvs	r7, [r5, #-614]!	; 0xfffffd9a
 a94:	6e617473 	mcrvs	4, 3, r7, cr1, cr3, {3}
 a98:	676e6964 	strbvs	r6, [lr, -r4, ror #18]!
 a9c:	746e6300 	strbtvc	r6, [lr], #-768	; 0xfffffd00
 aa0:	6175006c 	cmnvs	r5, ip, rrx
 aa4:	645f7472 	ldrbvs	r7, [pc], #-1138	; aac <__code_start__-0x7554>
 aa8:	62617369 	rsbvs	r7, r1, #-1543503871	; 0xa4000001
 aac:	7500656c 	strvc	r6, [r0, #-1388]	; 0xfffffa94
 ab0:	5f747261 	svcpl	0x00747261
 ab4:	5f736168 	svcpl	0x00736168
 ab8:	61746164 	cmnvs	r4, r4, ror #2
 abc:	49504700 	ldmdbmi	r0, {r8, r9, sl, lr}^
 ac0:	55465f4f 	strbpl	r5, [r6, #-3919]	; 0xfffff0b1
 ac4:	415f434e 	cmpmi	pc, lr, asr #6
 ac8:	0034544c 	eorseq	r5, r4, ip, asr #8
 acc:	695f726f 	ldmdbvs	pc, {r0, r1, r2, r3, r5, r6, r9, ip, sp, lr}^	; <UNPREDICTABLE>
 ad0:	0032336e 	eorseq	r3, r2, lr, ror #6
 ad4:	61726373 	cmnvs	r2, r3, ror r3
 ad8:	00686374 	rsbeq	r6, r8, r4, ror r3
 adc:	74726175 	ldrbtvc	r6, [r2], #-373	; 0xfffffe8b
 ae0:	646e6100 	strbtvs	r6, [lr], #-256	; 0xffffff00
 ae4:	336e695f 	cmncc	lr, #1556480	; 0x17c000
 ae8:	61750032 	cmnvs	r5, r2, lsr r0
 aec:	705f7472 	subsvc	r7, pc, r2, ror r4	; <UNPREDICTABLE>
 af0:	00637475 	rsbeq	r7, r3, r5, ror r4
 af4:	4f495047 	svcmi	0x00495047
 af8:	4e55465f 	mrcmi	6, 2, r4, cr5, cr15, {2}
 afc:	4e495f43 	cdpmi	15, 4, cr5, cr9, cr3, {2}
 b00:	00545550 	subseq	r5, r4, r0, asr r5
 b04:	6f697067 	svcvs	0x00697067
 b08:	7465735f 	strbtvc	r7, [r5], #-863	; 0xfffffca1
 b0c:	6e75665f 	mrcvs	6, 3, r6, cr5, cr15, {2}
 b10:	6f697463 	svcvs	0x00697463
 b14:	6567006e 	strbvs	r0, [r7, #-110]!	; 0xffffff92
 b18:	00323374 	eorseq	r3, r2, r4, ror r3
 b1c:	6c616d6b 	stclvs	13, cr6, [r1], #-428	; 0xfffffe54
 b20:	5f636f6c 	svcpl	0x00636f6c
 b24:	70616568 	rsbvc	r6, r1, r8, ror #10
 b28:	6174735f 	cmnvs	r4, pc, asr r3
 b2c:	6d007472 	cfstrsvs	mvf7, [r0, #-456]	; 0xfffffe38
 b30:	6e5f7861 	cdpvs	8, 5, cr7, cr15, cr1, {3}
 b34:	65747962 	ldrbvs	r7, [r4, #-2402]!	; 0xfffff69e
 b38:	65680073 	strbvs	r0, [r8, #-115]!	; 0xffffff8d
 b3c:	6d5f7061 	ldclvs	0, cr7, [pc, #-388]	; 9c0 <__code_start__-0x7640>
 b40:	6b007861 	blvs	1eccc <__bss_end__+0x139d4>
 b44:	65657266 	strbvs	r7, [r5, #-614]!	; 0xfffffd9a
 b48:	6c6c615f 	stfvse	f6, [ip], #-380	; 0xfffffe84
 b4c:	756f7200 	strbvc	r7, [pc, #-512]!	; 954 <__code_start__-0x76ac>
 b50:	7075646e 	rsbsvc	r6, r5, lr, ror #8
 b54:	72666b00 	rsbvc	r6, r6, #0, 22
 b58:	705f6565 	subsvc	r6, pc, r5, ror #10
 b5c:	6100706f 	tstvs	r0, pc, rrx
 b60:	6e67696c 	vnmulvs.f16	s13, s14, s25	; <UNPREDICTABLE>
 b64:	746e656d 	strbtvc	r6, [lr], #-1389	; 0xfffffa93
 b68:	78616d00 	stmdavc	r1!, {r8, sl, fp, sp, lr}^
 b6c:	3233755f 	eorscc	r7, r3, #398458880	; 0x17c00000
 b70:	656e4f00 	strbvs	r4, [lr, #-3840]!	; 0xfffff100
 b74:	6b00424d 	blvs	114b0 <__bss_end__+0x61b8>
 b78:	6c6c616d 	stfvse	f6, [ip], #-436	; 0xfffffe4c
 b7c:	685f636f 	ldmdavs	pc, {r0, r1, r2, r3, r5, r6, r8, r9, sp, lr}^	; <UNPREDICTABLE>
 b80:	5f706165 	svcpl	0x00706165
 b84:	00646e65 	rsbeq	r6, r4, r5, ror #28
 b88:	6c616d6b 	stclvs	13, cr6, [r1], #-428	; 0xfffffe54
 b8c:	5f636f6c 	svcpl	0x00636f6c
 b90:	7a746f6e 	bvc	1d1c950 <__bss_end__+0x1d11658>
 b94:	006f7265 	rsbeq	r7, pc, r5, ror #4
 b98:	705f7369 	subsvc	r7, pc, r9, ror #6
 b9c:	0032776f 	eorseq	r7, r2, pc, ror #14
 ba0:	6c616d6b 	stclvs	13, cr6, [r1], #-428	; 0xfffffe54
 ba4:	2e636f6c 	cdpcs	15, 6, cr6, cr3, cr12, {3}
 ba8:	6d6b0063 	stclvs	0, cr0, [fp, #-396]!	; 0xfffffe74
 bac:	6f6c6c61 	svcvs	0x006c6c61
 bb0:	6e695f63 	cdpvs	15, 6, cr5, cr9, cr3, {3}
 bb4:	69007469 	stmdbvs	r0, {r0, r3, r5, r6, sl, ip, sp, lr}
 bb8:	6c615f73 	stclvs	15, cr5, [r1], #-460	; 0xfffffe34
 bbc:	656e6769 	strbvs	r6, [lr, #-1897]!	; 0xfffff897
 bc0:	6d6b0064 	stclvs	0, cr0, [fp, #-400]!	; 0xfffffe70
 bc4:	6f6c6c61 	svcvs	0x006c6c61
 bc8:	65685f63 	strbvs	r5, [r8, #-3939]!	; 0xfffff09d
 bcc:	705f7061 	subsvc	r7, pc, r1, rrx
 bd0:	72007274 	andvc	r7, r0, #116, 4	; 0x40000007
 bd4:	725f6970 	subsvc	r6, pc, #112, 18	; 0x1c0000
 bd8:	74657365 	strbtvc	r7, [r5], #-869	; 0xfffffc9b
 bdc:	7475705f 	ldrbtvc	r7, [r5], #-95	; 0xffffffa1
 be0:	6d6b0063 	stclvs	0, cr0, [fp, #-396]!	; 0xfffffe74
 be4:	6f6c6c61 	svcvs	0x006c6c61
 be8:	6c615f63 	stclvs	15, cr5, [r1], #-396	; 0xfffffe74
 bec:	656e6769 	strbvs	r6, [lr, #-1897]!	; 0xfffff897
 bf0:	70670064 	rsbvc	r0, r7, r4, rrx
 bf4:	635f6f69 	cmpvs	pc, #420	; 0x1a4
 bf8:	0030726c 	eorseq	r7, r0, ip, ror #4
 bfc:	6f697067 	svcvs	0x00697067
 c00:	7465735f 	strbtvc	r7, [r5], #-863	; 0xfffffca1
 c04:	70670030 	rsbvc	r0, r7, r0, lsr r0
 c08:	775f6f69 	ldrbvc	r6, [pc, -r9, ror #30]
 c0c:	65746972 	ldrbvs	r6, [r4, #-2418]!	; 0xfffff68e
 c10:	56454400 	strbpl	r4, [r5], -r0, lsl #8
 c14:	4c41565f 	mcrrmi	6, 5, r5, r1, cr15
 c18:	67003233 	smladxvs	r0, r3, r2, r3
 c1c:	5f6f6970 	svcpl	0x006f6970
 c20:	64616572 	strbtvs	r6, [r1], #-1394	; 0xfffffa8e
 c24:	732f2e00 			; <UNDEFINED> instruction: 0x732f2e00
 c28:	672f6372 			; <UNDEFINED> instruction: 0x672f6372
 c2c:	2e6f6970 			; <UNDEFINED> instruction: 0x2e6f6970
 c30:	70670063 	rsbvc	r0, r7, r3, rrx
 c34:	735f6f69 	cmpvc	pc, #420	; 0x1a4
 c38:	695f7465 	ldmdbvs	pc, {r0, r2, r5, r6, sl, ip, sp, lr}^	; <UNPREDICTABLE>
 c3c:	7475706e 	ldrbtvc	r7, [r5], #-110	; 0xffffff92
 c40:	69706700 	ldmdbvs	r0!, {r8, r9, sl, sp, lr}^
 c44:	65735f6f 	ldrbvs	r5, [r3, #-3951]!	; 0xfffff091
 c48:	666f5f74 	uqsub16vs	r5, pc, r4	; <UNPREDICTABLE>
 c4c:	70670066 	rsbvc	r0, r7, r6, rrx
 c50:	735f6f69 	cmpvc	pc, #420	; 0x1a4
 c54:	6f5f7465 	svcvs	0x005f7465
 c58:	75707475 	ldrbvc	r7, [r0, #-1141]!	; 0xfffffb8b
 c5c:	70670074 	rsbvc	r0, r7, r4, ror r0
 c60:	665f6f69 	ldrbvs	r6, [pc], -r9, ror #30
 c64:	5f636e75 	svcpl	0x00636e75
 c68:	70670074 	rsbvc	r0, r7, r4, ror r0
 c6c:	6c5f6f69 	mrrcvs	15, 6, r6, pc, cr9	; <UNPREDICTABLE>
 c70:	00307665 	eorseq	r7, r0, r5, ror #12
 c74:	6b6e6162 	blvs	1b99204 <__bss_end__+0x1b8df0c>
 c78:	69706700 	ldmdbvs	r0!, {r8, r9, sl, sp, lr}^
 c7c:	65735f6f 	ldrbvs	r5, [r3, #-3951]!	; 0xfffff091
 c80:	6e6f5f74 	mcrvs	15, 3, r5, cr15, cr4, {3}
 c84:	746e6900 	strbtvc	r6, [lr], #-2304	; 0xfffff700
 c88:	616e7265 	cmnvs	lr, r5, ror #4
 c8c:	75705f6c 	ldrbvc	r5, [r0, #-3948]!	; 0xfffff094
 c90:	61686374 	smcvs	34356	; 0x8634
 c94:	70720072 	rsbsvc	r0, r2, r2, ror r0
 c98:	65735f69 	ldrbvs	r5, [r3, #-3945]!	; 0xfffff097
 c9c:	75705f74 	ldrbvc	r5, [r0, #-3956]!	; 0xfffff08c
 ca0:	2e006374 	mcrcs	3, 0, r6, cr0, cr4, {3}
 ca4:	62696c2f 	rsbvs	r6, r9, #12032	; 0x2f00
 ca8:	75702f63 	ldrbvc	r2, [r0, #-3939]!	; 0xfffff09d
 cac:	61686374 	smcvs	34356	; 0x8634
 cb0:	00632e72 	rsbeq	r2, r3, r2, ror lr
 cb4:	74736564 	ldrbtvc	r6, [r3], #-1380	; 0xfffffa9c
 cb8:	6c2f2e00 	stcvs	14, cr2, [pc], #-0	; cc0 <__code_start__-0x7340>
 cbc:	2f636269 	svccs	0x00636269
 cc0:	63727473 	cmnvs	r2, #1929379840	; 0x73000000
 cc4:	632e7461 			; <UNDEFINED> instruction: 0x632e7461
 cc8:	6c2f2e00 	stcvs	14, cr2, [pc], #-0	; cd0 <__code_start__-0x7330>
 ccc:	2f636269 	svccs	0x00636269
 cd0:	63727473 	cmnvs	r2, #1929379840	; 0x73000000
 cd4:	632e706d 			; <UNDEFINED> instruction: 0x632e706d
 cd8:	6c2f2e00 	stcvs	14, cr2, [pc], #-0	; ce0 <__code_start__-0x7320>
 cdc:	2f636269 	svccs	0x00636269
 ce0:	63727473 	cmnvs	r2, #1929379840	; 0x73000000
 ce4:	632e7970 			; <UNDEFINED> instruction: 0x632e7970
 ce8:	6c2f2e00 	stcvs	14, cr2, [pc], #-0	; cf0 <__code_start__-0x7310>
 cec:	2f636269 	svccs	0x00636269
 cf0:	6e727473 	mrcvs	4, 3, r7, cr2, cr3, {3}
 cf4:	2e706d63 	cdpcs	13, 7, cr6, cr0, cr3, {3}
 cf8:	2f2e0063 	svccs	0x002e0063
 cfc:	66617473 			; <UNDEFINED> instruction: 0x66617473
 d00:	72732d66 	rsbsvc	r2, r3, #6528	; 0x1980
 d04:	65642f63 	strbvs	r2, [r4, #-3939]!	; 0xfffff09d
 d08:	6c756166 	ldfvse	f6, [r5], #-408	; 0xfffffe68
 d0c:	65722d74 	ldrbvs	r2, [r2, #-3444]!	; 0xfffff28c
 d10:	746f6f62 	strbtvc	r6, [pc], #-3938	; d18 <__code_start__-0x72e8>
 d14:	6c61632d 	stclvs	3, cr6, [r1], #-180	; 0xffffff4c
 d18:	74756f6c 	ldrbtvc	r6, [r5], #-3948	; 0xfffff094
 d1c:	Address 0x0000000000000d1c is out of bounds.


Disassembly of section .debug_frame:

00000000 <.debug_frame>:
   0:	0000000c 	andeq	r0, r0, ip
   4:	ffffffff 			; <UNDEFINED> instruction: 0xffffffff
   8:	7c020001 	stcvc	0, cr0, [r2], {1}
   c:	000d0c0e 	andeq	r0, sp, lr, lsl #24
  10:	00000028 	andeq	r0, r0, r8, lsr #32
  14:	00000000 	andeq	r0, r0, r0
  18:	00008044 	andeq	r8, r0, r4, asr #32
  1c:	000000d4 	ldrdeq	r0, [r0], -r4
  20:	420c0d42 	andmi	r0, ip, #4224	; 0x1080
  24:	06850784 	streq	r0, [r5], r4, lsl #15
  28:	048b0586 	streq	r0, [fp], #1414	; 0x586
  2c:	028e038d 	addeq	r0, lr, #872415234	; 0x34000002
  30:	040b0c42 	streq	r0, [fp], #-3138	; 0xfffff3be
  34:	0d0c0a54 	vstreq	s0, [ip, #-336]	; 0xfffffeb0
  38:	000b421c 	andeq	r4, fp, ip, lsl r2
  3c:	0000001c 	andeq	r0, r0, ip, lsl r0
  40:	00000000 	andeq	r0, r0, r0
  44:	00008120 	andeq	r8, r0, r0, lsr #2
  48:	00000024 	andeq	r0, r0, r4, lsr #32
  4c:	420c0d42 	andmi	r0, ip, #4224	; 0x1080
  50:	038d048b 	orreq	r0, sp, #-1962934272	; 0x8b000000
  54:	0c42028e 	sfmeq	f0, 2, [r2], {142}	; 0x8e
  58:	0000040b 	andeq	r0, r0, fp, lsl #8
  5c:	00000024 	andeq	r0, r0, r4, lsr #32
  60:	00000000 	andeq	r0, r0, r0
  64:	00008150 	andeq	r8, r0, r0, asr r1
  68:	0000009c 	muleq	r0, ip, r0
  6c:	420c0d42 	andmi	r0, ip, #4224	; 0x1080
  70:	038d048b 	orreq	r0, sp, #-1962934272	; 0x8b000000
  74:	0c42028e 	sfmeq	f0, 2, [r2], {142}	; 0x8e
  78:	0a68040b 	beq	1a010ac <__bss_end__+0x19f5db4>
  7c:	42100d0c 	andsmi	r0, r0, #12, 26	; 0x300
  80:	0000000b 	andeq	r0, r0, fp
  84:	0000000c 	andeq	r0, r0, ip
  88:	ffffffff 			; <UNDEFINED> instruction: 0xffffffff
  8c:	7c020001 	stcvc	0, cr0, [r2], {1}
  90:	000d0c0e 	andeq	r0, sp, lr, lsl #24
  94:	0000001c 	andeq	r0, r0, ip, lsl r0
  98:	00000084 	andeq	r0, r0, r4, lsl #1
  9c:	00008200 	andeq	r8, r0, r0, lsl #4
  a0:	0000001c 	andeq	r0, r0, ip, lsl r0
  a4:	420c0d42 	andmi	r0, ip, #4224	; 0x1080
  a8:	038d048b 	orreq	r0, sp, #-1962934272	; 0x8b000000
  ac:	0c42028e 	sfmeq	f0, 2, [r2], {142}	; 0x8e
  b0:	0000040b 	andeq	r0, r0, fp, lsl #8
  b4:	0000001c 	andeq	r0, r0, ip, lsl r0
  b8:	00000084 	andeq	r0, r0, r4, lsl #1
  bc:	0000822c 	andeq	r8, r0, ip, lsr #4
  c0:	0000001c 	andeq	r0, r0, ip, lsl r0
  c4:	420c0d42 	andmi	r0, ip, #4224	; 0x1080
  c8:	038d048b 	orreq	r0, sp, #-1962934272	; 0x8b000000
  cc:	0c42028e 	sfmeq	f0, 2, [r2], {142}	; 0x8e
  d0:	0000040b 	andeq	r0, r0, fp, lsl #8
  d4:	0000001c 	andeq	r0, r0, ip, lsl r0
  d8:	00000084 	andeq	r0, r0, r4, lsl #1
  dc:	0000825c 	andeq	r8, r0, ip, asr r2
  e0:	00000014 	andeq	r0, r0, r4, lsl r0
  e4:	420c0d42 	andmi	r0, ip, #4224	; 0x1080
  e8:	038d048b 	orreq	r0, sp, #-1962934272	; 0x8b000000
  ec:	0c42028e 	sfmeq	f0, 2, [r2], {142}	; 0x8e
  f0:	0000040b 	andeq	r0, r0, fp, lsl #8
  f4:	00000020 	andeq	r0, r0, r0, lsr #32
  f8:	00000084 	andeq	r0, r0, r4, lsl #1
  fc:	00008280 	andeq	r8, r0, r0, lsl #5
 100:	00000020 	andeq	r0, r0, r0, lsr #32
 104:	420c0d42 	andmi	r0, ip, #4224	; 0x1080
 108:	05850684 	streq	r0, [r5, #1668]	; 0x684
 10c:	038d048b 	orreq	r0, sp, #-1962934272	; 0x8b000000
 110:	0c42028e 	sfmeq	f0, 2, [r2], {142}	; 0x8e
 114:	0000040b 	andeq	r0, r0, fp, lsl #8
 118:	00000024 	andeq	r0, r0, r4, lsr #32
 11c:	00000084 	andeq	r0, r0, r4, lsl #1
 120:	000082b4 			; <UNDEFINED> instruction: 0x000082b4
 124:	00000038 	andeq	r0, r0, r8, lsr r0
 128:	420c0d42 	andmi	r0, ip, #4224	; 0x1080
 12c:	07850884 	streq	r0, [r5, r4, lsl #17]
 130:	05870686 	streq	r0, [r7, #1670]	; 0x686
 134:	038d048b 	orreq	r0, sp, #-1962934272	; 0x8b000000
 138:	0c42028e 	sfmeq	f0, 2, [r2], {142}	; 0x8e
 13c:	0000040b 	andeq	r0, r0, fp, lsl #8
 140:	00000028 	andeq	r0, r0, r8, lsr #32
 144:	00000084 	andeq	r0, r0, r4, lsl #1
 148:	000082f8 	strdeq	r8, [r0], -r8	; <UNPREDICTABLE>
 14c:	0000015c 	andeq	r0, r0, ip, asr r1
 150:	420c0d42 	andmi	r0, ip, #4224	; 0x1080
 154:	07850884 	streq	r0, [r5, r4, lsl #17]
 158:	05870686 	streq	r0, [r7, #1670]	; 0x686
 15c:	038d048b 	orreq	r0, sp, #-1962934272	; 0x8b000000
 160:	0c42028e 	sfmeq	f0, 2, [r2], {142}	; 0x8e
 164:	9a02040b 	bls	81198 <__bss_end__+0x75ea0>
 168:	00200d0c 	eoreq	r0, r0, ip, lsl #26
 16c:	0000001c 	andeq	r0, r0, ip, lsl r0
 170:	00000084 	andeq	r0, r0, r4, lsl #1
 174:	00008468 	andeq	r8, r0, r8, ror #8
 178:	0000004c 	andeq	r0, r0, ip, asr #32
 17c:	420c0d42 	andmi	r0, ip, #4224	; 0x1080
 180:	038d048b 	orreq	r0, sp, #-1962934272	; 0x8b000000
 184:	0c42028e 	sfmeq	f0, 2, [r2], {142}	; 0x8e
 188:	0000040b 	andeq	r0, r0, fp, lsl #8
 18c:	00000020 	andeq	r0, r0, r0, lsr #32
 190:	00000084 	andeq	r0, r0, r4, lsl #1
 194:	000084cc 	andeq	r8, r0, ip, asr #9
 198:	00000058 	andeq	r0, r0, r8, asr r0
 19c:	420c0d42 	andmi	r0, ip, #4224	; 0x1080
 1a0:	05850684 	streq	r0, [r5, #1668]	; 0x684
 1a4:	038d048b 	orreq	r0, sp, #-1962934272	; 0x8b000000
 1a8:	0c42028e 	sfmeq	f0, 2, [r2], {142}	; 0x8e
 1ac:	0000040b 	andeq	r0, r0, fp, lsl #8
 1b0:	00000028 	andeq	r0, r0, r8, lsr #32
 1b4:	00000084 	andeq	r0, r0, r4, lsl #1
 1b8:	00008530 	andeq	r8, r0, r0, lsr r5
 1bc:	0000013c 	andeq	r0, r0, ip, lsr r1
 1c0:	420c0d42 	andmi	r0, ip, #4224	; 0x1080
 1c4:	07850884 	streq	r0, [r5, r4, lsl #17]
 1c8:	05870686 	streq	r0, [r7, #1670]	; 0x686
 1cc:	038d048b 	orreq	r0, sp, #-1962934272	; 0x8b000000
 1d0:	0c42028e 	sfmeq	f0, 2, [r2], {142}	; 0x8e
 1d4:	8e02040b 	cdphi	4, 0, cr0, cr2, cr11, {0}
 1d8:	00200d0c 	eoreq	r0, r0, ip, lsl #26
 1dc:	0000000c 	andeq	r0, r0, ip
 1e0:	ffffffff 			; <UNDEFINED> instruction: 0xffffffff
 1e4:	7c020001 	stcvc	0, cr0, [r2], {1}
 1e8:	000d0c0e 	andeq	r0, sp, lr, lsl #24
 1ec:	0000001c 	andeq	r0, r0, ip, lsl r0
 1f0:	000001dc 	ldrdeq	r0, [r0], -ip
 1f4:	00008678 	andeq	r8, r0, r8, ror r6
 1f8:	000000c4 	andeq	r0, r0, r4, asr #1
 1fc:	420c0d42 	andmi	r0, ip, #4224	; 0x1080
 200:	038d048b 	orreq	r0, sp, #-1962934272	; 0x8b000000
 204:	0c42028e 	sfmeq	f0, 2, [r2], {142}	; 0x8e
 208:	0000040b 	andeq	r0, r0, fp, lsl #8
 20c:	00000020 	andeq	r0, r0, r0, lsr #32
 210:	000001dc 	ldrdeq	r0, [r0], -ip
 214:	0000874c 	andeq	r8, r0, ip, asr #14
 218:	0000005c 	andeq	r0, r0, ip, asr r0
 21c:	420c0d42 	andmi	r0, ip, #4224	; 0x1080
 220:	05850684 	streq	r0, [r5, #1668]	; 0x684
 224:	038d048b 	orreq	r0, sp, #-1962934272	; 0x8b000000
 228:	0c42028e 	sfmeq	f0, 2, [r2], {142}	; 0x8e
 22c:	0000040b 	andeq	r0, r0, fp, lsl #8
 230:	00000020 	andeq	r0, r0, r0, lsr #32
 234:	000001dc 	ldrdeq	r0, [r0], -ip
 238:	000087b8 			; <UNDEFINED> instruction: 0x000087b8
 23c:	000000b4 	strheq	r0, [r0], -r4
 240:	420c0d42 	andmi	r0, ip, #4224	; 0x1080
 244:	05850684 	streq	r0, [r5, #1668]	; 0x684
 248:	038d048b 	orreq	r0, sp, #-1962934272	; 0x8b000000
 24c:	0c42028e 	sfmeq	f0, 2, [r2], {142}	; 0x8e
 250:	0000040b 	andeq	r0, r0, fp, lsl #8
 254:	0000000c 	andeq	r0, r0, ip
 258:	ffffffff 			; <UNDEFINED> instruction: 0xffffffff
 25c:	7c020001 	stcvc	0, cr0, [r2], {1}
 260:	000d0c0e 	andeq	r0, sp, lr, lsl #24
 264:	0000001c 	andeq	r0, r0, ip, lsl r0
 268:	00000254 	andeq	r0, r0, r4, asr r2
 26c:	00008878 	andeq	r8, r0, r8, ror r8
 270:	00000048 	andeq	r0, r0, r8, asr #32
 274:	420c0d42 	andmi	r0, ip, #4224	; 0x1080
 278:	038d048b 	orreq	r0, sp, #-1962934272	; 0x8b000000
 27c:	0c42028e 	sfmeq	f0, 2, [r2], {142}	; 0x8e
 280:	0000040b 	andeq	r0, r0, fp, lsl #8
 284:	00000020 	andeq	r0, r0, r0, lsr #32
 288:	00000254 	andeq	r0, r0, r4, asr r2
 28c:	000088cc 	andeq	r8, r0, ip, asr #17
 290:	00000030 	andeq	r0, r0, r0, lsr r0
 294:	420c0d42 	andmi	r0, ip, #4224	; 0x1080
 298:	05850684 	streq	r0, [r5, #1668]	; 0x684
 29c:	038d048b 	orreq	r0, sp, #-1962934272	; 0x8b000000
 2a0:	0c42028e 	sfmeq	f0, 2, [r2], {142}	; 0x8e
 2a4:	0000040b 	andeq	r0, r0, fp, lsl #8
 2a8:	00000024 	andeq	r0, r0, r4, lsr #32
 2ac:	00000254 	andeq	r0, r0, r4, asr r2
 2b0:	00008908 	andeq	r8, r0, r8, lsl #18
 2b4:	00000118 	andeq	r0, r0, r8, lsl r1
 2b8:	420c0d42 	andmi	r0, ip, #4224	; 0x1080
 2bc:	05850684 	streq	r0, [r5, #1668]	; 0x684
 2c0:	038d048b 	orreq	r0, sp, #-1962934272	; 0x8b000000
 2c4:	0c42028e 	sfmeq	f0, 2, [r2], {142}	; 0x8e
 2c8:	7802040b 	stmdavc	r2, {r0, r1, r3, sl}
 2cc:	00180d0c 	andseq	r0, r8, ip, lsl #26
 2d0:	00000020 	andeq	r0, r0, r0, lsr #32
 2d4:	00000254 	andeq	r0, r0, r4, asr r2
 2d8:	00008a30 	andeq	r8, r0, r0, lsr sl
 2dc:	000000ac 	andeq	r0, r0, ip, lsr #1
 2e0:	420c0d42 	andmi	r0, ip, #4224	; 0x1080
 2e4:	038d048b 	orreq	r0, sp, #-1962934272	; 0x8b000000
 2e8:	0c42028e 	sfmeq	f0, 2, [r2], {142}	; 0x8e
 2ec:	4402040b 	strmi	r0, [r2], #-1035	; 0xfffffbf5
 2f0:	00100d0c 	andseq	r0, r0, ip, lsl #26
 2f4:	00000028 	andeq	r0, r0, r8, lsr #32
 2f8:	00000254 	andeq	r0, r0, r4, asr r2
 2fc:	00008aec 	andeq	r8, r0, ip, ror #21
 300:	00000108 	andeq	r0, r0, r8, lsl #2
 304:	420c0d42 	andmi	r0, ip, #4224	; 0x1080
 308:	09850a84 	stmibeq	r5, {r2, r7, r9, fp}
 30c:	07870886 	streq	r0, [r7, r6, lsl #17]
 310:	05890688 	streq	r0, [r9, #1672]	; 0x688
 314:	038d048b 	orreq	r0, sp, #-1962934272	; 0x8b000000
 318:	0c42028e 	sfmeq	f0, 2, [r2], {142}	; 0x8e
 31c:	0000040b 	andeq	r0, r0, fp, lsl #8
 320:	0000002c 	andeq	r0, r0, ip, lsr #32
 324:	00000254 	andeq	r0, r0, r4, asr r2
 328:	00008c04 	andeq	r8, r0, r4, lsl #24
 32c:	000000f0 	strdeq	r0, [r0], -r0	; <UNPREDICTABLE>
 330:	420c0d42 	andmi	r0, ip, #4224	; 0x1080
 334:	08850984 	stmeq	r5, {r2, r7, r8, fp}
 338:	06870786 	streq	r0, [r7], r6, lsl #15
 33c:	048b0588 	streq	r0, [fp], #1416	; 0x588
 340:	028e038d 	addeq	r0, lr, #872415234	; 0x34000002
 344:	040b0c42 	streq	r0, [fp], #-3138	; 0xfffff3be
 348:	0d0c6202 	sfmeq	f6, 4, [ip, #-8]
 34c:	00000024 	andeq	r0, r0, r4, lsr #32
 350:	00000028 	andeq	r0, r0, r8, lsr #32
 354:	00000254 	andeq	r0, r0, r4, asr r2
 358:	00008d00 	andeq	r8, r0, r0, lsl #26
 35c:	000000ac 	andeq	r0, r0, ip, lsr #1
 360:	420c0d42 	andmi	r0, ip, #4224	; 0x1080
 364:	05850684 	streq	r0, [r5, #1668]	; 0x684
 368:	038d048b 	orreq	r0, sp, #-1962934272	; 0x8b000000
 36c:	0c42028e 	sfmeq	f0, 2, [r2], {142}	; 0x8e
 370:	0a66040b 	beq	19813a4 <__bss_end__+0x19760ac>
 374:	42180d0c 	andsmi	r0, r8, #12, 26	; 0x300
 378:	0000000b 	andeq	r0, r0, fp
 37c:	0000001c 	andeq	r0, r0, ip, lsl r0
 380:	00000254 	andeq	r0, r0, r4, asr r2
 384:	00008dc0 	andeq	r8, r0, r0, asr #27
 388:	00000014 	andeq	r0, r0, r4, lsl r0
 38c:	420c0d42 	andmi	r0, ip, #4224	; 0x1080
 390:	038d048b 	orreq	r0, sp, #-1962934272	; 0x8b000000
 394:	0c42028e 	sfmeq	f0, 2, [r2], {142}	; 0x8e
 398:	0000040b 	andeq	r0, r0, fp, lsl #8
 39c:	0000001c 	andeq	r0, r0, ip, lsl r0
 3a0:	00000254 	andeq	r0, r0, r4, asr r2
 3a4:	00008de8 	andeq	r8, r0, r8, ror #27
 3a8:	00000050 	andeq	r0, r0, r0, asr r0
 3ac:	420c0d42 	andmi	r0, ip, #4224	; 0x1080
 3b0:	038d048b 	orreq	r0, sp, #-1962934272	; 0x8b000000
 3b4:	0c42028e 	sfmeq	f0, 2, [r2], {142}	; 0x8e
 3b8:	0000040b 	andeq	r0, r0, fp, lsl #8
 3bc:	00000020 	andeq	r0, r0, r0, lsr #32
 3c0:	00000254 	andeq	r0, r0, r4, asr r2
 3c4:	00008e50 	andeq	r8, r0, r0, asr lr
 3c8:	00000058 	andeq	r0, r0, r8, asr r0
 3cc:	420c0d42 	andmi	r0, ip, #4224	; 0x1080
 3d0:	05850684 	streq	r0, [r5, #1668]	; 0x684
 3d4:	038d048b 	orreq	r0, sp, #-1962934272	; 0x8b000000
 3d8:	0c42028e 	sfmeq	f0, 2, [r2], {142}	; 0x8e
 3dc:	0000040b 	andeq	r0, r0, fp, lsl #8
 3e0:	0000001c 	andeq	r0, r0, ip, lsl r0
 3e4:	00000254 	andeq	r0, r0, r4, asr r2
 3e8:	00008eb4 			; <UNDEFINED> instruction: 0x00008eb4
 3ec:	00000018 	andeq	r0, r0, r8, lsl r0
 3f0:	420c0d42 	andmi	r0, ip, #4224	; 0x1080
 3f4:	038d048b 	orreq	r0, sp, #-1962934272	; 0x8b000000
 3f8:	0c42028e 	sfmeq	f0, 2, [r2], {142}	; 0x8e
 3fc:	0000040b 	andeq	r0, r0, fp, lsl #8
 400:	0000001c 	andeq	r0, r0, ip, lsl r0
 404:	00000254 	andeq	r0, r0, r4, asr r2
 408:	00008ee0 	andeq	r8, r0, r0, ror #29
 40c:	00000034 	andeq	r0, r0, r4, lsr r0
 410:	420c0d42 	andmi	r0, ip, #4224	; 0x1080
 414:	038d048b 	orreq	r0, sp, #-1962934272	; 0x8b000000
 418:	0c42028e 	sfmeq	f0, 2, [r2], {142}	; 0x8e
 41c:	0000040b 	andeq	r0, r0, fp, lsl #8
 420:	0000000c 	andeq	r0, r0, ip
 424:	ffffffff 			; <UNDEFINED> instruction: 0xffffffff
 428:	7c020001 	stcvc	0, cr0, [r2], {1}
 42c:	000d0c0e 	andeq	r0, sp, lr, lsl #24
 430:	0000001c 	andeq	r0, r0, ip, lsl r0
 434:	00000420 	andeq	r0, r0, r0, lsr #8
 438:	00008f1c 	andeq	r8, r0, ip, lsl pc
 43c:	00000080 	andeq	r0, r0, r0, lsl #1
 440:	84180e42 	ldrhi	r0, [r8], #-3650	; 0xfffff1be
 444:	86058506 	strhi	r8, [r5], -r6, lsl #10
 448:	88038704 	stmdahi	r3, {r2, r8, r9, sl, pc}
 44c:	00018e02 	andeq	r8, r1, r2, lsl #28
 450:	0000000c 	andeq	r0, r0, ip
 454:	00000420 	andeq	r0, r0, r0, lsr #8
 458:	00008f9c 	muleq	r0, ip, pc	; <UNPREDICTABLE>
 45c:	00000020 	andeq	r0, r0, r0, lsr #32
 460:	0000000c 	andeq	r0, r0, ip
 464:	ffffffff 			; <UNDEFINED> instruction: 0xffffffff
 468:	7c020001 	stcvc	0, cr0, [r2], {1}
 46c:	000d0c0e 	andeq	r0, sp, lr, lsl #24
 470:	00000014 	andeq	r0, r0, r4, lsl r0
 474:	00000460 	andeq	r0, r0, r0, ror #8
 478:	00008fbc 			; <UNDEFINED> instruction: 0x00008fbc
 47c:	00000078 	andeq	r0, r0, r8, ror r0
 480:	84080e42 	strhi	r0, [r8], #-3650	; 0xfffff1be
 484:	00018e02 	andeq	r8, r1, r2, lsl #28
 488:	0000000c 	andeq	r0, r0, ip
 48c:	ffffffff 			; <UNDEFINED> instruction: 0xffffffff
 490:	7c020001 	stcvc	0, cr0, [r2], {1}
 494:	000d0c0e 	andeq	r0, sp, lr, lsl #24
 498:	00000034 	andeq	r0, r0, r4, lsr r0
 49c:	00000488 	andeq	r0, r0, r8, lsl #9
 4a0:	00009034 	andeq	r9, r0, r4, lsr r0
 4a4:	00000058 	andeq	r0, r0, r8, asr r0
 4a8:	80100e42 	andshi	r0, r0, r2, asr #28
 4ac:	82038104 	andhi	r8, r3, #1
 4b0:	42018302 	andmi	r8, r1, #134217728	; 0x8000000
 4b4:	07841c0e 	streq	r1, [r4, lr, lsl #24]
 4b8:	058e0685 	streq	r0, [lr, #1669]	; 0x685
 4bc:	5a280e44 	bpl	a03dd4 <__bss_end__+0x9f8adc>
 4c0:	ce421c0e 	cdpgt	12, 4, cr1, cr2, cr14, {0}
 4c4:	100ec4c5 	andne	ip, lr, r5, asr #9
 4c8:	c1c2c342 	bicgt	ip, r2, r2, asr #6
 4cc:	00000ec0 	andeq	r0, r0, r0, asr #29
 4d0:	0000000c 	andeq	r0, r0, ip
 4d4:	ffffffff 			; <UNDEFINED> instruction: 0xffffffff
 4d8:	7c020001 	stcvc	0, cr0, [r2], {1}
 4dc:	000d0c0e 	andeq	r0, sp, lr, lsl #24
 4e0:	00000018 	andeq	r0, r0, r8, lsl r0
 4e4:	000004d0 	ldrdeq	r0, [r0], -r0	; <UNPREDICTABLE>
 4e8:	0000908c 	andeq	r9, r0, ip, lsl #1
 4ec:	00000038 	andeq	r0, r0, r8, lsr r0
 4f0:	84100e42 	ldrhi	r0, [r0], #-3650	; 0xfffff1be
 4f4:	86038504 	strhi	r8, [r3], -r4, lsl #10
 4f8:	00018e02 	andeq	r8, r1, r2, lsl #28
 4fc:	0000000c 	andeq	r0, r0, ip
 500:	ffffffff 			; <UNDEFINED> instruction: 0xffffffff
 504:	7c020001 	stcvc	0, cr0, [r2], {1}
 508:	000d0c0e 	andeq	r0, sp, lr, lsl #24
 50c:	0000002c 	andeq	r0, r0, ip, lsr #32
 510:	000004fc 	strdeq	r0, [r0], -ip
 514:	000090c4 	andeq	r9, r0, r4, asr #1
 518:	00000328 	andeq	r0, r0, r8, lsr #6
 51c:	84180e42 	ldrhi	r0, [r8], #-3650	; 0xfffff1be
 520:	86058506 	strhi	r8, [r5], -r6, lsl #10
 524:	88038704 	stmdahi	r3, {r2, r8, r9, sl, pc}
 528:	46018e02 	strmi	r8, [r1], -r2, lsl #28
 52c:	c002600e 	andgt	r6, r2, lr
 530:	42180e0a 	andsmi	r0, r8, #160	; 0xa0
 534:	0a8e020b 	beq	fe380d68 <__bss_end__+0xfe375a70>
 538:	0b42180e 	bleq	1086578 <__bss_end__+0x107b280>
 53c:	00000014 	andeq	r0, r0, r4, lsl r0
 540:	000004fc 	strdeq	r0, [r0], -ip
 544:	000093ec 	andeq	r9, r0, ip, ror #7
 548:	00000060 	andeq	r0, r0, r0, rrx
 54c:	8e040e52 	mcrhi	14, 0, r0, cr4, cr2, {2}
 550:	100e4401 	andne	r4, lr, r1, lsl #8
 554:	0000002c 	andeq	r0, r0, ip, lsr #32
 558:	000004fc 	strdeq	r0, [r0], -ip
 55c:	0000944c 	andeq	r9, r0, ip, asr #8
 560:	0000062c 	andeq	r0, r0, ip, lsr #12
 564:	84240e42 	strthi	r0, [r4], #-3650	; 0xfffff1be
 568:	86088509 	strhi	r8, [r8], -r9, lsl #10
 56c:	88068707 	stmdahi	r6, {r0, r1, r2, r8, r9, sl, pc}
 570:	8a048905 	bhi	12298c <__bss_end__+0x117694>
 574:	8e028b03 	vmlahi.f64	d8, d2, d3
 578:	c00e5201 	andgt	r5, lr, r1, lsl #4
 57c:	0a860202 	beq	fe180d8c <__bss_end__+0xfe175a94>
 580:	0b42240e 	bleq	10895c0 <__bss_end__+0x107e2c8>
 584:	0000000c 	andeq	r0, r0, ip
 588:	ffffffff 			; <UNDEFINED> instruction: 0xffffffff
 58c:	7c020001 	stcvc	0, cr0, [r2], {1}
 590:	000d0c0e 	andeq	r0, sp, lr, lsl #24
 594:	00000014 	andeq	r0, r0, r4, lsl r0
 598:	00000584 	andeq	r0, r0, r4, lsl #11
 59c:	00009a78 	andeq	r9, r0, r8, ror sl
 5a0:	0000002c 	andeq	r0, r0, ip, lsr #32
 5a4:	84080e44 	strhi	r0, [r8], #-3652	; 0xfffff1bc
 5a8:	00018e02 	andeq	r8, r1, r2, lsl #28
 5ac:	0000000c 	andeq	r0, r0, ip
 5b0:	ffffffff 			; <UNDEFINED> instruction: 0xffffffff
 5b4:	7c020001 	stcvc	0, cr0, [r2], {1}
 5b8:	000d0c0e 	andeq	r0, sp, lr, lsl #24
 5bc:	00000018 	andeq	r0, r0, r8, lsl r0
 5c0:	000005ac 	andeq	r0, r0, ip, lsr #11
 5c4:	00009aa4 	andeq	r9, r0, r4, lsr #21
 5c8:	00000128 	andeq	r0, r0, r8, lsr #2
 5cc:	84100e42 	ldrhi	r0, [r0], #-3650	; 0xfffff1be
 5d0:	86038504 	strhi	r8, [r3], -r4, lsl #10
 5d4:	00018e02 	andeq	r8, r1, r2, lsl #28
 5d8:	0000000c 	andeq	r0, r0, ip
 5dc:	ffffffff 			; <UNDEFINED> instruction: 0xffffffff
 5e0:	7c020001 	stcvc	0, cr0, [r2], {1}
 5e4:	000d0c0e 	andeq	r0, sp, lr, lsl #24
 5e8:	0000000c 	andeq	r0, r0, ip
 5ec:	000005d8 	ldrdeq	r0, [r0], -r8
 5f0:	00009bcc 	andeq	r9, r0, ip, asr #23
 5f4:	00000004 	andeq	r0, r0, r4
 5f8:	0000000c 	andeq	r0, r0, ip
 5fc:	ffffffff 			; <UNDEFINED> instruction: 0xffffffff
 600:	7c020001 	stcvc	0, cr0, [r2], {1}
 604:	000d0c0e 	andeq	r0, sp, lr, lsl #24
 608:	0000000c 	andeq	r0, r0, ip
 60c:	000005f8 	strdeq	r0, [r0], -r8
 610:	00009bd0 	ldrdeq	r9, [r0], -r0
 614:	00000018 	andeq	r0, r0, r8, lsl r0
 618:	0000000c 	andeq	r0, r0, ip
 61c:	000005f8 	strdeq	r0, [r0], -r8
 620:	00009be8 	andeq	r9, r0, r8, ror #23
 624:	00000014 	andeq	r0, r0, r4, lsl r0
 628:	00000014 	andeq	r0, r0, r4, lsl r0
 62c:	000005f8 	strdeq	r0, [r0], -r8
 630:	00009bfc 	strdeq	r9, [r0], -ip
 634:	00000060 	andeq	r0, r0, r0, rrx
 638:	84080e42 	strhi	r0, [r8], #-3650	; 0xfffff1be
 63c:	00018e02 	andeq	r8, r1, r2, lsl #28
 640:	0000000c 	andeq	r0, r0, ip
 644:	ffffffff 			; <UNDEFINED> instruction: 0xffffffff
 648:	7c020001 	stcvc	0, cr0, [r2], {1}
 64c:	000d0c0e 	andeq	r0, sp, lr, lsl #24
 650:	0000000c 	andeq	r0, r0, ip
 654:	00000640 	andeq	r0, r0, r0, asr #12
 658:	00009c5c 	andeq	r9, r0, ip, asr ip
 65c:	0000000c 	andeq	r0, r0, ip
 660:	00000014 	andeq	r0, r0, r4, lsl r0
 664:	00000640 	andeq	r0, r0, r0, asr #12
 668:	00009c68 	andeq	r9, r0, r8, ror #24
 66c:	00000024 	andeq	r0, r0, r4, lsr #32
 670:	84080e42 	strhi	r0, [r8], #-3650	; 0xfffff1be
 674:	00018e02 	andeq	r8, r1, r2, lsl #28
 678:	0000001c 	andeq	r0, r0, ip, lsl r0
 67c:	00000640 	andeq	r0, r0, r0, asr #12
 680:	00009c8c 	andeq	r9, r0, ip, lsl #25
 684:	00000048 	andeq	r0, r0, r8, asr #32
 688:	84180e42 	ldrhi	r0, [r8], #-3650	; 0xfffff1be
 68c:	86058506 	strhi	r8, [r5], -r6, lsl #10
 690:	88038704 	stmdahi	r3, {r2, r8, r9, sl, pc}
 694:	00018e02 	andeq	r8, r1, r2, lsl #28
 698:	0000001c 	andeq	r0, r0, ip, lsl r0
 69c:	00000640 	andeq	r0, r0, r0, asr #12
 6a0:	00009cd4 	ldrdeq	r9, [r0], -r4
 6a4:	00000050 	andeq	r0, r0, r0, asr r0
 6a8:	84180e42 	ldrhi	r0, [r8], #-3650	; 0xfffff1be
 6ac:	86058506 	strhi	r8, [r5], -r6, lsl #10
 6b0:	88038704 	stmdahi	r3, {r2, r8, r9, sl, pc}
 6b4:	00018e02 	andeq	r8, r1, r2, lsl #28
 6b8:	0000001c 	andeq	r0, r0, ip, lsl r0
 6bc:	00000640 	andeq	r0, r0, r0, asr #12
 6c0:	00009d24 	andeq	r9, r0, r4, lsr #26
 6c4:	00000054 	andeq	r0, r0, r4, asr r0
 6c8:	84180e42 	ldrhi	r0, [r8], #-3650	; 0xfffff1be
 6cc:	86058506 	strhi	r8, [r5], -r6, lsl #10
 6d0:	88038704 	stmdahi	r3, {r2, r8, r9, sl, pc}
 6d4:	00018e02 	andeq	r8, r1, r2, lsl #28
 6d8:	0000000c 	andeq	r0, r0, ip
 6dc:	ffffffff 			; <UNDEFINED> instruction: 0xffffffff
 6e0:	7c020001 	stcvc	0, cr0, [r2], {1}
 6e4:	000d0c0e 	andeq	r0, sp, lr, lsl #24
 6e8:	00000018 	andeq	r0, r0, r8, lsl r0
 6ec:	000006d8 	ldrdeq	r0, [r0], -r8
 6f0:	00009d78 	andeq	r9, r0, r8, ror sp
 6f4:	00000020 	andeq	r0, r0, r0, lsr #32
 6f8:	84100e42 	ldrhi	r0, [r0], #-3650	; 0xfffff1be
 6fc:	86038504 	strhi	r8, [r3], -r4, lsl #10
 700:	00018e02 	andeq	r8, r1, r2, lsl #28
 704:	00000018 	andeq	r0, r0, r8, lsl r0
 708:	000006d8 	ldrdeq	r0, [r0], -r8
 70c:	00009d98 	muleq	r0, r8, sp
 710:	00000020 	andeq	r0, r0, r0, lsr #32
 714:	84100e42 	ldrhi	r0, [r0], #-3650	; 0xfffff1be
 718:	86038504 	strhi	r8, [r3], -r4, lsl #10
 71c:	00018e02 	andeq	r8, r1, r2, lsl #28
 720:	00000014 	andeq	r0, r0, r4, lsl r0
 724:	000006d8 	ldrdeq	r0, [r0], -r8
 728:	00009db8 			; <UNDEFINED> instruction: 0x00009db8
 72c:	000000b0 	strheq	r0, [r0], -r0	; <UNPREDICTABLE>
 730:	84080e42 	strhi	r0, [r8], #-3650	; 0xfffff1be
 734:	00018e02 	andeq	r8, r1, r2, lsl #28
 738:	00000014 	andeq	r0, r0, r4, lsl r0
 73c:	000006d8 	ldrdeq	r0, [r0], -r8
 740:	00009e68 	andeq	r9, r0, r8, ror #28
 744:	00000018 	andeq	r0, r0, r8, lsl r0
 748:	84080e42 	strhi	r0, [r8], #-3650	; 0xfffff1be
 74c:	00018e02 	andeq	r8, r1, r2, lsl #28
 750:	00000014 	andeq	r0, r0, r4, lsl r0
 754:	000006d8 	ldrdeq	r0, [r0], -r8
 758:	00009e80 	andeq	r9, r0, r0, lsl #29
 75c:	00000020 	andeq	r0, r0, r0, lsr #32
 760:	84080e42 	strhi	r0, [r8], #-3650	; 0xfffff1be
 764:	00018e02 	andeq	r8, r1, r2, lsl #28
 768:	00000014 	andeq	r0, r0, r4, lsl r0
 76c:	000006d8 	ldrdeq	r0, [r0], -r8
 770:	00009ea0 	andeq	r9, r0, r0, lsr #29
 774:	00000030 	andeq	r0, r0, r0, lsr r0
 778:	84080e42 	strhi	r0, [r8], #-3650	; 0xfffff1be
 77c:	00018e02 	andeq	r8, r1, r2, lsl #28
 780:	00000014 	andeq	r0, r0, r4, lsl r0
 784:	000006d8 	ldrdeq	r0, [r0], -r8
 788:	00009ed0 	ldrdeq	r9, [r0], -r0
 78c:	00000030 	andeq	r0, r0, r0, lsr r0
 790:	84080e42 	strhi	r0, [r8], #-3650	; 0xfffff1be
 794:	00018e02 	andeq	r8, r1, r2, lsl #28
 798:	00000014 	andeq	r0, r0, r4, lsl r0
 79c:	000006d8 	ldrdeq	r0, [r0], -r8
 7a0:	00009f00 	andeq	r9, r0, r0, lsl #30
 7a4:	00000010 	andeq	r0, r0, r0, lsl r0
 7a8:	84080e42 	strhi	r0, [r8], #-3650	; 0xfffff1be
 7ac:	00018e02 	andeq	r8, r1, r2, lsl #28
 7b0:	00000014 	andeq	r0, r0, r4, lsl r0
 7b4:	000006d8 	ldrdeq	r0, [r0], -r8
 7b8:	00009f10 	andeq	r9, r0, r0, lsl pc
 7bc:	00000020 	andeq	r0, r0, r0, lsr #32
 7c0:	84080e42 	strhi	r0, [r8], #-3650	; 0xfffff1be
 7c4:	00018e02 	andeq	r8, r1, r2, lsl #28
 7c8:	00000014 	andeq	r0, r0, r4, lsl r0
 7cc:	000006d8 	ldrdeq	r0, [r0], -r8
 7d0:	00009f30 	andeq	r9, r0, r0, lsr pc
 7d4:	00000014 	andeq	r0, r0, r4, lsl r0
 7d8:	84080e42 	strhi	r0, [r8], #-3650	; 0xfffff1be
 7dc:	00018e02 	andeq	r8, r1, r2, lsl #28
 7e0:	00000014 	andeq	r0, r0, r4, lsl r0
 7e4:	000006d8 	ldrdeq	r0, [r0], -r8
 7e8:	00009f44 	andeq	r9, r0, r4, asr #30
 7ec:	00000024 	andeq	r0, r0, r4, lsr #32
 7f0:	84080e42 	strhi	r0, [r8], #-3650	; 0xfffff1be
 7f4:	00018e02 	andeq	r8, r1, r2, lsl #28
 7f8:	0000000c 	andeq	r0, r0, ip
 7fc:	ffffffff 			; <UNDEFINED> instruction: 0xffffffff
 800:	7c020001 	stcvc	0, cr0, [r2], {1}
 804:	000d0c0e 	andeq	r0, sp, lr, lsl #24
 808:	0000000c 	andeq	r0, r0, ip
 80c:	000007f8 	strdeq	r0, [r0], -r8
 810:	00009f68 	andeq	r9, r0, r8, ror #30
 814:	00000010 	andeq	r0, r0, r0, lsl r0
 818:	0000000c 	andeq	r0, r0, ip
 81c:	000007f8 	strdeq	r0, [r0], -r8
 820:	00009f78 	andeq	r9, r0, r8, ror pc
 824:	00000010 	andeq	r0, r0, r0, lsl r0
 828:	0000000c 	andeq	r0, r0, ip
 82c:	000007f8 	strdeq	r0, [r0], -r8
 830:	00009f88 	andeq	r9, r0, r8, lsl #31
 834:	00000010 	andeq	r0, r0, r0, lsl r0
 838:	0000001c 	andeq	r0, r0, ip, lsl r0
 83c:	000007f8 	strdeq	r0, [r0], -r8
 840:	00009f98 	muleq	r0, r8, pc	; <UNPREDICTABLE>
 844:	0000009c 	muleq	r0, ip, r0
 848:	8e040e42 	cdphi	14, 0, cr0, cr4, cr2, {2}
 84c:	100e4201 	andne	r4, lr, r1, lsl #4
 850:	040e0a58 	streq	r0, [lr], #-2648	; 0xfffff5a8
 854:	00000b42 	andeq	r0, r0, r2, asr #22
 858:	00000014 	andeq	r0, r0, r4, lsl r0
 85c:	000007f8 	strdeq	r0, [r0], -r8
 860:	0000a034 	andeq	sl, r0, r4, lsr r0
 864:	00000058 	andeq	r0, r0, r8, asr r0
 868:	84080e42 	strhi	r0, [r8], #-3650	; 0xfffff1be
 86c:	00018e02 	andeq	r8, r1, r2, lsl #28
 870:	0000001c 	andeq	r0, r0, ip, lsl r0
 874:	000007f8 	strdeq	r0, [r0], -r8
 878:	0000a08c 	andeq	sl, r0, ip, lsl #1
 87c:	00000098 	muleq	r0, r8, r0
 880:	8e040e42 	cdphi	14, 0, cr0, cr4, cr2, {2}
 884:	100e4201 	andne	r4, lr, r1, lsl #4
 888:	040e0a58 	streq	r0, [lr], #-2648	; 0xfffff5a8
 88c:	00000b42 	andeq	r0, r0, r2, asr #22
 890:	00000020 	andeq	r0, r0, r0, lsr #32
 894:	000007f8 	strdeq	r0, [r0], -r8
 898:	0000a124 	andeq	sl, r0, r4, lsr #2
 89c:	00000064 	andeq	r0, r0, r4, rrx
 8a0:	840c0e42 	strhi	r0, [ip], #-3650	; 0xfffff1be
 8a4:	8e028503 	cfsh32hi	mvfx8, mvfx2, #3
 8a8:	180e4201 	stmdane	lr, {r0, r9, lr}
 8ac:	0c0e0a54 			; <UNDEFINED> instruction: 0x0c0e0a54
 8b0:	00000b42 	andeq	r0, r0, r2, asr #22
 8b4:	0000001c 	andeq	r0, r0, ip, lsl r0
 8b8:	000007f8 	strdeq	r0, [r0], -r8
 8bc:	0000a188 	andeq	sl, r0, r8, lsl #3
 8c0:	00000118 	andeq	r0, r0, r8, lsl r1
 8c4:	8e040e42 	cdphi	14, 0, cr0, cr4, cr2, {2}
 8c8:	100e4201 	andne	r4, lr, r1, lsl #4
 8cc:	040e0a6c 	streq	r0, [lr], #-2668	; 0xfffff594
 8d0:	00000b42 	andeq	r0, r0, r2, asr #22
 8d4:	0000000c 	andeq	r0, r0, ip
 8d8:	000007f8 	strdeq	r0, [r0], -r8
 8dc:	0000a2a0 	andeq	sl, r0, r0, lsr #5
 8e0:	00000004 	andeq	r0, r0, r4
 8e4:	0000000c 	andeq	r0, r0, ip
 8e8:	000007f8 	strdeq	r0, [r0], -r8
 8ec:	0000a2a4 	andeq	sl, r0, r4, lsr #5
 8f0:	00000014 	andeq	r0, r0, r4, lsl r0
 8f4:	00000014 	andeq	r0, r0, r4, lsl r0
 8f8:	000007f8 	strdeq	r0, [r0], -r8
 8fc:	0000a2b8 			; <UNDEFINED> instruction: 0x0000a2b8
 900:	00000060 	andeq	r0, r0, r0, rrx
 904:	8e040e58 	mcrhi	14, 0, r0, cr4, cr8, {2}
 908:	100e4201 	andne	r4, lr, r1, lsl #4
 90c:	0000000c 	andeq	r0, r0, ip
 910:	ffffffff 			; <UNDEFINED> instruction: 0xffffffff
 914:	7c020001 	stcvc	0, cr0, [r2], {1}
 918:	000d0c0e 	andeq	r0, sp, lr, lsl #24
 91c:	00000020 	andeq	r0, r0, r0, lsr #32
 920:	0000090c 	andeq	r0, r0, ip, lsl #18
 924:	0000a318 	andeq	sl, r0, r8, lsl r3
 928:	00000060 	andeq	r0, r0, r0, rrx
 92c:	84100e48 	ldrhi	r0, [r0], #-3656	; 0xfffff1b8
 930:	86038504 	strhi	r8, [r3], -r4, lsl #10
 934:	64018e02 	strvs	r8, [r1], #-3586	; 0xfffff1fe
 938:	c4c5c6ce 	strbgt	ip, [r5], #1742	; 0x6ce
 93c:	0000000e 	andeq	r0, r0, lr
 940:	00000020 	andeq	r0, r0, r0, lsr #32
 944:	0000090c 	andeq	r0, r0, ip, lsl #18
 948:	0000a378 	andeq	sl, r0, r8, ror r3
 94c:	00000058 	andeq	r0, r0, r8, asr r0
 950:	84100e46 	ldrhi	r0, [r0], #-3654	; 0xfffff1ba
 954:	86038504 	strhi	r8, [r3], -r4, lsl #10
 958:	62018e02 	andvs	r8, r1, #2, 28
 95c:	c4c5c6ce 	strbgt	ip, [r5], #1742	; 0x6ce
 960:	0000000e 	andeq	r0, r0, lr
 964:	0000000c 	andeq	r0, r0, ip
 968:	0000090c 	andeq	r0, r0, ip, lsl #18
 96c:	0000a3d0 	ldrdeq	sl, [r0], -r0
 970:	00000018 	andeq	r0, r0, r8, lsl r0
 974:	0000000c 	andeq	r0, r0, ip
 978:	0000090c 	andeq	r0, r0, ip, lsl #18
 97c:	0000a3e8 	andeq	sl, r0, r8, ror #7
 980:	00000018 	andeq	r0, r0, r8, lsl r0
 984:	00000020 	andeq	r0, r0, r0, lsr #32
 988:	0000090c 	andeq	r0, r0, ip, lsl #18
 98c:	0000a400 	andeq	sl, r0, r0, lsl #8
 990:	00000058 	andeq	r0, r0, r8, asr r0
 994:	84100e46 	ldrhi	r0, [r0], #-3654	; 0xfffff1ba
 998:	86038504 	strhi	r8, [r3], -r4, lsl #10
 99c:	62018e02 	andvs	r8, r1, #2, 28
 9a0:	c4c5c6ce 	strbgt	ip, [r5], #1742	; 0x6ce
 9a4:	0000000e 	andeq	r0, r0, lr
 9a8:	0000000c 	andeq	r0, r0, ip
 9ac:	0000090c 	andeq	r0, r0, ip, lsl #18
 9b0:	0000a458 	andeq	sl, r0, r8, asr r4
 9b4:	00000030 	andeq	r0, r0, r0, lsr r0
 9b8:	00000014 	andeq	r0, r0, r4, lsl r0
 9bc:	0000090c 	andeq	r0, r0, ip, lsl #18
 9c0:	0000a488 	andeq	sl, r0, r8, lsl #9
 9c4:	00000028 	andeq	r0, r0, r8, lsr #32
 9c8:	84080e42 	strhi	r0, [r8], #-3650	; 0xfffff1be
 9cc:	00018e02 	andeq	r8, r1, r2, lsl #28
 9d0:	0000000c 	andeq	r0, r0, ip
 9d4:	ffffffff 			; <UNDEFINED> instruction: 0xffffffff
 9d8:	7c020001 	stcvc	0, cr0, [r2], {1}
 9dc:	000d0c0e 	andeq	r0, sp, lr, lsl #24
 9e0:	00000014 	andeq	r0, r0, r4, lsl r0
 9e4:	000009d0 	ldrdeq	r0, [r0], -r0	; <UNPREDICTABLE>
 9e8:	0000a4b0 			; <UNDEFINED> instruction: 0x0000a4b0
 9ec:	00000014 	andeq	r0, r0, r4, lsl r0
 9f0:	84080e42 	strhi	r0, [r8], #-3650	; 0xfffff1be
 9f4:	00018e02 	andeq	r8, r1, r2, lsl #28
 9f8:	0000000c 	andeq	r0, r0, ip
 9fc:	000009d0 	ldrdeq	r0, [r0], -r0	; <UNPREDICTABLE>
 a00:	0000a4c4 	andeq	sl, r0, r4, asr #9
 a04:	00000018 	andeq	r0, r0, r8, lsl r0
 a08:	0000000c 	andeq	r0, r0, ip
 a0c:	000009d0 	ldrdeq	r0, [r0], -r0	; <UNPREDICTABLE>
 a10:	0000a4dc 	ldrdeq	sl, [r0], -ip
 a14:	00000010 	andeq	r0, r0, r0, lsl r0
 a18:	0000000c 	andeq	r0, r0, ip
 a1c:	ffffffff 			; <UNDEFINED> instruction: 0xffffffff
 a20:	7c020001 	stcvc	0, cr0, [r2], {1}
 a24:	000d0c0e 	andeq	r0, sp, lr, lsl #24
 a28:	0000000c 	andeq	r0, r0, ip
 a2c:	00000a18 	andeq	r0, r0, r8, lsl sl
 a30:	0000a4ec 	andeq	sl, r0, ip, ror #9
 a34:	0000002c 	andeq	r0, r0, ip, lsr #32
 a38:	0000000c 	andeq	r0, r0, ip
 a3c:	ffffffff 			; <UNDEFINED> instruction: 0xffffffff
 a40:	7c020001 	stcvc	0, cr0, [r2], {1}
 a44:	000d0c0e 	andeq	r0, sp, lr, lsl #24
 a48:	0000000c 	andeq	r0, r0, ip
 a4c:	00000a38 	andeq	r0, r0, r8, lsr sl
 a50:	0000a518 	andeq	sl, r0, r8, lsl r5
 a54:	00000044 	andeq	r0, r0, r4, asr #32
 a58:	0000000c 	andeq	r0, r0, ip
 a5c:	ffffffff 			; <UNDEFINED> instruction: 0xffffffff
 a60:	7c020001 	stcvc	0, cr0, [r2], {1}
 a64:	000d0c0e 	andeq	r0, sp, lr, lsl #24
 a68:	0000000c 	andeq	r0, r0, ip
 a6c:	00000a58 	andeq	r0, r0, r8, asr sl
 a70:	0000a55c 	andeq	sl, r0, ip, asr r5
 a74:	00000018 	andeq	r0, r0, r8, lsl r0
 a78:	0000000c 	andeq	r0, r0, ip
 a7c:	ffffffff 			; <UNDEFINED> instruction: 0xffffffff
 a80:	7c020001 	stcvc	0, cr0, [r2], {1}
 a84:	000d0c0e 	andeq	r0, sp, lr, lsl #24
 a88:	0000000c 	andeq	r0, r0, ip
 a8c:	00000a78 	andeq	r0, r0, r8, ror sl
 a90:	0000a574 	andeq	sl, r0, r4, ror r5
 a94:	00000030 	andeq	r0, r0, r0, lsr r0
 a98:	0000000c 	andeq	r0, r0, ip
 a9c:	ffffffff 			; <UNDEFINED> instruction: 0xffffffff
 aa0:	7c020001 	stcvc	0, cr0, [r2], {1}
 aa4:	000d0c0e 	andeq	r0, sp, lr, lsl #24
 aa8:	0000000c 	andeq	r0, r0, ip
 aac:	00000a98 	muleq	r0, r8, sl
 ab0:	0000a5a4 	andeq	sl, r0, r4, lsr #11
 ab4:	00000004 	andeq	r0, r0, r4
