
tests-2.0/part1-test1-no-bug.elf:     file format elf32-littlearm


Disassembly of section .text:

00008000 <__code_start__>:
    8000:	e3a00013 	mov	r0, #19, 0
    8004:	e3800080 	orr	r0, r0, #128, 0	; 0x80
    8008:	e129f000 	msr	CPSR_fc, r0
    800c:	e3a01000 	mov	r1, #0, 0
    8010:	ee071f95 	mcr	15, 0, r1, cr7, cr5, {4}
    8014:	e3a0d302 	mov	sp, #134217728	; 0x8000000
    8018:	e3a0b000 	mov	fp, #0, 0
    801c:	eb0006b7 	bl	9b00 <_cstart>
    8020:	eb00070c 	bl	9c58 <rpi_reboot>

00008024 <PUT32>:
    8024:	e5801000 	str	r1, [r0]
    8028:	e12fff1e 	bx	lr

0000802c <GET32>:
    802c:	e5900000 	ldr	r0, [r0]
    8030:	e12fff1e 	bx	lr

00008034 <BRANCHTO>:
    8034:	e12fff10 	bx	r0
    8038:	625f6b63 	subsvs	r6, pc, #101376	; 0x18c00
    803c:	695f6b6c 	ldmdbvs	pc, {r2, r3, r5, r6, r8, r9, fp, sp, lr}^	; <UNPREDICTABLE>
    8040:	00000064 	andeq	r0, r0, r4, rrx
    8044:	ff00000c 			; <UNDEFINED> instruction: 0xff00000c

00008048 <ck_blk_id>:
    8048:	e1a0c00d 	mov	ip, sp
    804c:	e92dd800 	push	{fp, ip, lr, pc}
    8050:	e24cb004 	sub	fp, ip, #4, 0
    8054:	e51000a8 	ldr	r0, [r0, #-168]	; 0xffffff58
    8058:	e89da800 	ldm	sp, {fp, sp, pc}
    805c:	6d746f6e 	ldclvs	15, cr6, [r4, #-440]!	; 0xfffffe48
    8060:	006e6961 	rsbeq	r6, lr, r1, ror #18
    8064:	ff000008 			; <UNDEFINED> instruction: 0xff000008

00008068 <notmain>:
    8068:	e1a0c00d 	mov	ip, sp
    806c:	e92dd870 	push	{r4, r5, r6, fp, ip, lr, pc}
    8070:	e24cb004 	sub	fp, ip, #4, 0
    8074:	e24dd01c 	sub	sp, sp, #28, 0
    8078:	e59f00a4 	ldr	r0, [pc, #164]	; 8124 <notmain+0xbc>
    807c:	eb000403 	bl	9090 <printk>
    8080:	e59f60a0 	ldr	r6, [pc, #160]	; 8128 <notmain+0xc0>
    8084:	e50b6034 	str	r6, [fp, #-52]	; 0xffffffcc
    8088:	e59f509c 	ldr	r5, [pc, #156]	; 812c <notmain+0xc4>
    808c:	e50b5030 	str	r5, [fp, #-48]	; 0xffffffd0
    8090:	e3a0300b 	mov	r3, #11, 0
    8094:	e50b302c 	str	r3, [fp, #-44]	; 0xffffffd4
    8098:	e24b3034 	sub	r3, fp, #52, 0	; 0x34
    809c:	e893000e 	ldm	r3, {r1, r2, r3}
    80a0:	e3a00004 	mov	r0, #4, 0
    80a4:	eb0000f5 	bl	8480 <ckalloc>
    80a8:	e1a04000 	mov	r4, r0
    80ac:	ebffffe5 	bl	8048 <ck_blk_id>
    80b0:	e1a01000 	mov	r1, r0
    80b4:	e1a02004 	mov	r2, r4
    80b8:	e59f0070 	ldr	r0, [pc, #112]	; 8130 <notmain+0xc8>
    80bc:	eb0003f3 	bl	9090 <printk>
    80c0:	e3a02004 	mov	r2, #4, 0
    80c4:	e3a01000 	mov	r1, #0, 0
    80c8:	e1a00004 	mov	r0, r4
    80cc:	eb0003d1 	bl	9018 <memset>
    80d0:	e50b6028 	str	r6, [fp, #-40]	; 0xffffffd8
    80d4:	e50b5024 	str	r5, [fp, #-36]	; 0xffffffdc
    80d8:	e3a0300e 	mov	r3, #14, 0
    80dc:	e50b3020 	str	r3, [fp, #-32]	; 0xffffffe0
    80e0:	e24b301c 	sub	r3, fp, #28, 0
    80e4:	e913000e 	ldmdb	r3, {r1, r2, r3}
    80e8:	e1a00004 	mov	r0, r4
    80ec:	eb000079 	bl	82d8 <ckfree>
    80f0:	eb000310 	bl	8d38 <ck_heap_errors>
    80f4:	e3500000 	cmp	r0, #0, 0
    80f8:	1a000003 	bne	810c <notmain+0xa4>
    80fc:	e59f0030 	ldr	r0, [pc, #48]	; 8134 <notmain+0xcc>
    8100:	eb0003e2 	bl	9090 <printk>
    8104:	e24bd018 	sub	sp, fp, #24, 0
    8108:	e89da870 	ldm	sp, {r4, r5, r6, fp, sp, pc}
    810c:	e3a03011 	mov	r3, #17, 0
    8110:	e1a02005 	mov	r2, r5
    8114:	e1a01006 	mov	r1, r6
    8118:	e59f0018 	ldr	r0, [pc, #24]	; 8138 <notmain+0xd0>
    811c:	eb0003db 	bl	9090 <printk>
    8120:	eb00066b 	bl	9ad4 <clean_reboot>
    8124:	0000a620 	andeq	sl, r0, r0, lsr #12
    8128:	0000a628 	andeq	sl, r0, r8, lsr #12
    812c:	0000a6ac 	andeq	sl, r0, ip, lsr #13
    8130:	0000a648 	andeq	sl, r0, r8, asr #12
    8134:	0000a68c 	andeq	sl, r0, ip, lsl #13
    8138:	0000a668 	andeq	sl, r0, r8, ror #12
    813c:	665f6b63 	ldrbvs	r6, [pc], -r3, ror #22
    8140:	74737269 	ldrbtvc	r7, [r3], #-617	; 0xfffffd97
    8144:	7264685f 	rsbvc	r6, r4, #6225920	; 0x5f0000
    8148:	00000000 	andeq	r0, r0, r0
    814c:	ff000010 			; <UNDEFINED> instruction: 0xff000010

00008150 <ck_first_hdr>:
    8150:	e1a0c00d 	mov	ip, sp
    8154:	e92dd800 	push	{fp, ip, lr, pc}
    8158:	e24cb004 	sub	fp, ip, #4, 0
    815c:	e59f3004 	ldr	r3, [pc, #4]	; 8168 <ck_first_hdr+0x18>
    8160:	e5930000 	ldr	r0, [r3]
    8164:	e89da800 	ldm	sp, {fp, sp, pc}
    8168:	0000af28 	andeq	sl, r0, r8, lsr #30
    816c:	6e5f6b63 	vnmlavs.f64	d22, d15, d19
    8170:	5f747865 	svcpl	0x00747865
    8174:	00726468 	rsbseq	r6, r2, r8, ror #8
    8178:	ff00000c 			; <UNDEFINED> instruction: 0xff00000c

0000817c <ck_next_hdr>:
    817c:	e1a0c00d 	mov	ip, sp
    8180:	e92dd800 	push	{fp, ip, lr, pc}
    8184:	e24cb004 	sub	fp, ip, #4, 0
    8188:	e3500000 	cmp	r0, #0, 0
    818c:	089da800 	ldmeq	sp, {fp, sp, pc}
    8190:	e5900000 	ldr	r0, [r0]
    8194:	e89da800 	ldm	sp, {fp, sp, pc}
    8198:	685f6b63 	ldmdavs	pc, {r0, r1, r5, r6, r8, r9, fp, sp, lr}^	; <UNPREDICTABLE>
    819c:	735f7264 	cmpvc	pc, #100, 4	; 0x40000006
    81a0:	74726174 	ldrbtvc	r6, [r2], #-372	; 0xfffffe8c
    81a4:	00000000 	andeq	r0, r0, r0
    81a8:	ff000010 			; <UNDEFINED> instruction: 0xff000010

000081ac <ck_hdr_start>:
    81ac:	e1a0c00d 	mov	ip, sp
    81b0:	e92dd800 	push	{fp, ip, lr, pc}
    81b4:	e24cb004 	sub	fp, ip, #4, 0
    81b8:	e28000b4 	add	r0, r0, #180, 0	; 0xb4
    81bc:	e89da800 	ldm	sp, {fp, sp, pc}
    81c0:	685f6b63 	ldmdavs	pc, {r0, r1, r5, r6, r8, r9, fp, sp, lr}^	; <UNPREDICTABLE>
    81c4:	655f7264 	ldrbvs	r7, [pc, #-612]	; 7f68 <__code_start__-0x98>
    81c8:	0000646e 	andeq	r6, r0, lr, ror #8
    81cc:	ff00000c 			; <UNDEFINED> instruction: 0xff00000c

000081d0 <ck_hdr_end>:
    81d0:	e1a0c00d 	mov	ip, sp
    81d4:	e92dd830 	push	{r4, r5, fp, ip, lr, pc}
    81d8:	e24cb004 	sub	fp, ip, #4, 0
    81dc:	e1a04000 	mov	r4, r0
    81e0:	ebfffff1 	bl	81ac <ck_hdr_start>
    81e4:	e5943004 	ldr	r3, [r4, #4]
    81e8:	e0800003 	add	r0, r0, r3
    81ec:	e89da830 	ldm	sp, {r4, r5, fp, sp, pc}
    81f0:	705f6b63 	subsvc	r6, pc, r3, ror #22
    81f4:	695f7274 	ldmdbvs	pc, {r2, r4, r5, r6, r9, ip, sp, lr}^	; <UNPREDICTABLE>
    81f8:	6c625f6e 	stclvs	15, cr5, [r2], #-440	; 0xfffffe48
    81fc:	006b636f 	rsbeq	r6, fp, pc, ror #6
    8200:	ff000010 			; <UNDEFINED> instruction: 0xff000010

00008204 <ck_ptr_in_block>:
    8204:	e1a0c00d 	mov	ip, sp
    8208:	e92dd8f0 	push	{r4, r5, r6, r7, fp, ip, lr, pc}
    820c:	e24cb004 	sub	fp, ip, #4, 0
    8210:	e1a06000 	mov	r6, r0
    8214:	e1a04001 	mov	r4, r1
    8218:	ebffffe3 	bl	81ac <ck_hdr_start>
    821c:	e1a05000 	mov	r5, r0
    8220:	e1a00006 	mov	r0, r6
    8224:	ebffffe9 	bl	81d0 <ck_hdr_end>
    8228:	e1550004 	cmp	r5, r4
    822c:	91540000 	cmpls	r4, r0
    8230:	33a00001 	movcc	r0, #1, 0
    8234:	23a00000 	movcs	r0, #0, 0
    8238:	e89da8f0 	ldm	sp, {r4, r5, r6, r7, fp, sp, pc}
    823c:	64616873 	strbtvs	r6, [r1], #-2163	; 0xfffff78d
    8240:	6c5f776f 	mrrcvs	7, 6, r7, pc, cr15	; <UNPREDICTABLE>
    8244:	7461636f 	strbtvc	r6, [r1], #-879	; 0xfffffc91
    8248:	006e6f69 	rsbeq	r6, lr, r9, ror #30
    824c:	ff000010 			; <UNDEFINED> instruction: 0xff000010

00008250 <shadow_location>:
    8250:	e1a0c00d 	mov	ip, sp
    8254:	e92dd800 	push	{fp, ip, lr, pc}
    8258:	e24cb004 	sub	fp, ip, #4, 0
    825c:	e59f302c 	ldr	r3, [pc, #44]	; 8290 <shadow_location+0x40>
    8260:	e1500003 	cmp	r0, r3
    8264:	3a000005 	bcc	8280 <shadow_location+0x30>
    8268:	e2833101 	add	r3, r3, #1073741824	; 0x40000000
    826c:	e1500003 	cmp	r0, r3
    8270:	8a000004 	bhi	8288 <shadow_location+0x38>
    8274:	e2000003 	and	r0, r0, #3, 0
    8278:	e2800101 	add	r0, r0, #1073741824	; 0x40000000
    827c:	e89da800 	ldm	sp, {fp, sp, pc}
    8280:	e3a00000 	mov	r0, #0, 0
    8284:	e89da800 	ldm	sp, {fp, sp, pc}
    8288:	e3a00000 	mov	r0, #0, 0
    828c:	e89da800 	ldm	sp, {fp, sp, pc}
    8290:	0000b358 	andeq	fp, r0, r8, asr r3
    8294:	705f6b63 	subsvc	r6, pc, r3, ror #22
    8298:	695f7274 	ldmdbvs	pc, {r2, r4, r5, r6, r9, ip, sp, lr}^	; <UNPREDICTABLE>
    829c:	6c615f73 	stclvs	15, cr5, [r1], #-460	; 0xfffffe34
    82a0:	65636f6c 	strbvs	r6, [r3, #-3948]!	; 0xfffff094
    82a4:	00000064 	andeq	r0, r0, r4, rrx
    82a8:	ff000014 			; <UNDEFINED> instruction: 0xff000014

000082ac <ck_ptr_is_alloced>:
    82ac:	e1a0c00d 	mov	ip, sp
    82b0:	e92dd800 	push	{fp, ip, lr, pc}
    82b4:	e24cb004 	sub	fp, ip, #4, 0
    82b8:	ebffffe4 	bl	8250 <shadow_location>
    82bc:	e3500000 	cmp	r0, #0, 0
    82c0:	089da800 	ldmeq	sp, {fp, sp, pc}
    82c4:	e5900000 	ldr	r0, [r0]
    82c8:	e89da800 	ldm	sp, {fp, sp, pc}
    82cc:	72666b63 	rsbvc	r6, r6, #101376	; 0x18c00
    82d0:	00006565 	andeq	r6, r0, r5, ror #10
    82d4:	ff000008 			; <UNDEFINED> instruction: 0xff000008

000082d8 <ckfree>:
    82d8:	e1a0c00d 	mov	ip, sp
    82dc:	e92dd8f0 	push	{r4, r5, r6, r7, fp, ip, lr, pc}
    82e0:	e24cb004 	sub	fp, ip, #4, 0
    82e4:	e24dd018 	sub	sp, sp, #24, 0
    82e8:	e1a04000 	mov	r4, r0
    82ec:	e24b0028 	sub	r0, fp, #40, 0	; 0x28
    82f0:	e880000e 	stm	r0, {r1, r2, r3}
    82f4:	e244c098 	sub	ip, r4, #152, 0	; 0x98
    82f8:	e8900007 	ldm	r0, {r0, r1, r2}
    82fc:	e88c000b 	stm	ip, {r0, r1, r3}
    8300:	e1a05000 	mov	r5, r0
    8304:	e51b6024 	ldr	r6, [fp, #-36]	; 0xffffffdc
    8308:	e51b7020 	ldr	r7, [fp, #-32]	; 0xffffffe0
    830c:	e1a03007 	mov	r3, r7
    8310:	e1a02006 	mov	r2, r6
    8314:	e1a01000 	mov	r1, r0
    8318:	e59f012c 	ldr	r0, [pc, #300]	; 844c <ckfree+0x174>
    831c:	eb00035b 	bl	9090 <printk>
    8320:	e1a01004 	mov	r1, r4
    8324:	e59f0124 	ldr	r0, [pc, #292]	; 8450 <ckfree+0x178>
    8328:	eb000358 	bl	9090 <printk>
    832c:	e51430ac 	ldr	r3, [r4, #-172]	; 0xffffff54
    8330:	e353000b 	cmp	r3, #11, 0
    8334:	1a00000d 	bne	8370 <ckfree+0x98>
    8338:	e3a03000 	mov	r3, #0, 0
    833c:	e353007f 	cmp	r3, #127, 0	; 0x7f
    8340:	ca000026 	bgt	83e0 <ckfree+0x108>
    8344:	e0842003 	add	r2, r4, r3
    8348:	e5522082 	ldrb	r2, [r2, #-130]	; 0xffffff7e
    834c:	e35200fe 	cmp	r2, #254, 0	; 0xfe
    8350:	1a000010 	bne	8398 <ckfree+0xc0>
    8354:	e51420b0 	ldr	r2, [r4, #-176]	; 0xffffff50
    8358:	e0832002 	add	r2, r3, r2
    835c:	e7d42002 	ldrb	r2, [r4, r2]
    8360:	e35200fe 	cmp	r2, #254, 0	; 0xfe
    8364:	1a000014 	bne	83bc <ckfree+0xe4>
    8368:	e2833001 	add	r3, r3, #1, 0
    836c:	eafffff2 	b	833c <ckfree+0x64>
    8370:	eb000300 	bl	8f78 <backtrace>
    8374:	e1a03007 	mov	r3, r7
    8378:	e1a02006 	mov	r2, r6
    837c:	e1a01005 	mov	r1, r5
    8380:	e59f00cc 	ldr	r0, [pc, #204]	; 8454 <ckfree+0x17c>
    8384:	eb000341 	bl	9090 <printk>
    8388:	e51410ac 	ldr	r1, [r4, #-172]	; 0xffffff54
    838c:	e59f00c4 	ldr	r0, [pc, #196]	; 8458 <ckfree+0x180>
    8390:	eb00033e 	bl	9090 <printk>
    8394:	eb0005ce 	bl	9ad4 <clean_reboot>
    8398:	eb0002f6 	bl	8f78 <backtrace>
    839c:	e1a03007 	mov	r3, r7
    83a0:	e1a02006 	mov	r2, r6
    83a4:	e1a01005 	mov	r1, r5
    83a8:	e59f00a4 	ldr	r0, [pc, #164]	; 8454 <ckfree+0x17c>
    83ac:	eb000337 	bl	9090 <printk>
    83b0:	e59f00a4 	ldr	r0, [pc, #164]	; 845c <ckfree+0x184>
    83b4:	eb000335 	bl	9090 <printk>
    83b8:	eb0005c5 	bl	9ad4 <clean_reboot>
    83bc:	eb0002ed 	bl	8f78 <backtrace>
    83c0:	e1a03007 	mov	r3, r7
    83c4:	e1a02006 	mov	r2, r6
    83c8:	e1a01005 	mov	r1, r5
    83cc:	e59f0080 	ldr	r0, [pc, #128]	; 8454 <ckfree+0x17c>
    83d0:	eb00032e 	bl	9090 <printk>
    83d4:	e59f0084 	ldr	r0, [pc, #132]	; 8460 <ckfree+0x188>
    83d8:	eb00032c 	bl	9090 <printk>
    83dc:	eb0005bc 	bl	9ad4 <clean_reboot>
    83e0:	e3a03000 	mov	r3, #0, 0
    83e4:	e51420b0 	ldr	r2, [r4, #-176]	; 0xffffff50
    83e8:	e1520003 	cmp	r2, r3
    83ec:	83e02001 	mvnhi	r2, #1, 0
    83f0:	87c42003 	strbhi	r2, [r4, r3]
    83f4:	82833001 	addhi	r3, r3, #1, 0
    83f8:	8afffff9 	bhi	83e4 <ckfree+0x10c>
    83fc:	e3a0300c 	mov	r3, #12, 0
    8400:	e50430ac 	str	r3, [r4, #-172]	; 0xffffff54
    8404:	e2443098 	sub	r3, r4, #152, 0	; 0x98
    8408:	e24b201c 	sub	r2, fp, #28, 0
    840c:	e9120007 	ldmdb	r2, {r0, r1, r2}
    8410:	e8830007 	stm	r3, {r0, r1, r2}
    8414:	e1a00004 	mov	r0, r4
    8418:	ebffffa3 	bl	82ac <ck_ptr_is_alloced>
    841c:	e3500000 	cmp	r0, #0, 0
    8420:	0a000001 	beq	842c <ckfree+0x154>
    8424:	e24bd01c 	sub	sp, fp, #28, 0
    8428:	e89da8f0 	ldm	sp, {r4, r5, r6, r7, fp, sp, pc}
    842c:	e59f3030 	ldr	r3, [pc, #48]	; 8464 <ckfree+0x18c>
    8430:	e58d3000 	str	r3, [sp]
    8434:	e3a03077 	mov	r3, #119, 0	; 0x77
    8438:	e59f2028 	ldr	r2, [pc, #40]	; 8468 <ckfree+0x190>
    843c:	e59f1028 	ldr	r1, [pc, #40]	; 846c <ckfree+0x194>
    8440:	e59f0028 	ldr	r0, [pc, #40]	; 8470 <ckfree+0x198>
    8444:	eb000311 	bl	9090 <printk>
    8448:	eb0005a1 	bl	9ad4 <clean_reboot>
    844c:	0000a6b4 			; <UNDEFINED> instruction: 0x0000a6b4
    8450:	0000a6c0 	andeq	sl, r0, r0, asr #13
    8454:	0000a6d0 	ldrdeq	sl, [r0], -r0
    8458:	0000a6e8 	andeq	sl, r0, r8, ror #13
    845c:	0000a710 	andeq	sl, r0, r0, lsl r7
    8460:	0000a72c 	andeq	sl, r0, ip, lsr #14
    8464:	0000a768 	andeq	sl, r0, r8, ror #14
    8468:	0000a79c 	muleq	r0, ip, r7
    846c:	0000a748 	andeq	sl, r0, r8, asr #14
    8470:	0000a754 	andeq	sl, r0, r4, asr r7
    8474:	6c616b63 			; <UNDEFINED> instruction: 0x6c616b63
    8478:	00636f6c 	rsbeq	r6, r3, ip, ror #30
    847c:	ff000008 			; <UNDEFINED> instruction: 0xff000008

00008480 <ckalloc>:
    8480:	e1a0c00d 	mov	ip, sp
    8484:	e92dd8f0 	push	{r4, r5, r6, r7, fp, ip, lr, pc}
    8488:	e24cb004 	sub	fp, ip, #4, 0
    848c:	e24dd010 	sub	sp, sp, #16, 0
    8490:	e1a05000 	mov	r5, r0
    8494:	e24b001c 	sub	r0, fp, #28, 0
    8498:	e900000e 	stmdb	r0, {r1, r2, r3}
    849c:	e2850f4d 	add	r0, r5, #308	; 0x134
    84a0:	eb000085 	bl	86bc <kr_malloc>
    84a4:	e1a04000 	mov	r4, r0
    84a8:	e3a020b4 	mov	r2, #180, 0	; 0xb4
    84ac:	e3a01000 	mov	r1, #0, 0
    84b0:	eb0002d8 	bl	9018 <memset>
    84b4:	e3a03000 	mov	r3, #0, 0
    84b8:	e353007f 	cmp	r3, #127, 0	; 0x7f
    84bc:	ca000007 	bgt	84e0 <ckalloc+0x60>
    84c0:	e0842003 	add	r2, r4, r3
    84c4:	e3e01001 	mvn	r1, #1, 0
    84c8:	e5c21032 	strb	r1, [r2, #50]	; 0x32
    84cc:	e0832005 	add	r2, r3, r5
    84d0:	e28220b4 	add	r2, r2, #180, 0	; 0xb4
    84d4:	e7c41002 	strb	r1, [r4, r2]
    84d8:	e2833001 	add	r3, r3, #1, 0
    84dc:	eafffff5 	b	84b8 <ckalloc+0x38>
    84e0:	e5845004 	str	r5, [r4, #4]
    84e4:	e3a0300b 	mov	r3, #11, 0
    84e8:	e5843008 	str	r3, [r4, #8]
    84ec:	e2843010 	add	r3, r4, #16, 0
    84f0:	e24b201c 	sub	r2, fp, #28, 0
    84f4:	e9120007 	ldmdb	r2, {r0, r1, r2}
    84f8:	e8830007 	stm	r3, {r0, r1, r2}
    84fc:	e51b3020 	ldr	r3, [fp, #-32]	; 0xffffffe0
    8500:	e51b2024 	ldr	r2, [fp, #-36]	; 0xffffffdc
    8504:	e51b1028 	ldr	r1, [fp, #-40]	; 0xffffffd8
    8508:	e59f0054 	ldr	r0, [pc, #84]	; 8564 <ckalloc+0xe4>
    850c:	eb0002df 	bl	9090 <printk>
    8510:	e28470b4 	add	r7, r4, #180, 0	; 0xb4
    8514:	e1a02005 	mov	r2, r5
    8518:	e1a01007 	mov	r1, r7
    851c:	e59f0044 	ldr	r0, [pc, #68]	; 8568 <ckalloc+0xe8>
    8520:	eb0002da 	bl	9090 <printk>
    8524:	e3a06000 	mov	r6, #0, 0
    8528:	e1560005 	cmp	r6, r5
    852c:	2a000005 	bcs	8548 <ckalloc+0xc8>
    8530:	e28600b4 	add	r0, r6, #180, 0	; 0xb4
    8534:	e0840000 	add	r0, r4, r0
    8538:	ebffff44 	bl	8250 <shadow_location>
    853c:	e5804000 	str	r4, [r0]
    8540:	e2866004 	add	r6, r6, #4, 0
    8544:	eafffff7 	b	8528 <ckalloc+0xa8>
    8548:	e59f301c 	ldr	r3, [pc, #28]	; 856c <ckalloc+0xec>
    854c:	e5932000 	ldr	r2, [r3]
    8550:	e5842000 	str	r2, [r4]
    8554:	e5834000 	str	r4, [r3]
    8558:	e1a00007 	mov	r0, r7
    855c:	e24bd01c 	sub	sp, fp, #28, 0
    8560:	e89da8f0 	ldm	sp, {r4, r5, r6, r7, fp, sp, pc}
    8564:	0000a6b4 			; <UNDEFINED> instruction: 0x0000a6b4
    8568:	0000a780 	andeq	sl, r0, r0, lsl #15
    856c:	0000af28 	andeq	sl, r0, r8, lsr #30
    8570:	665f726b 	ldrbvs	r7, [pc], -fp, ror #4
    8574:	00656572 	rsbeq	r6, r5, r2, ror r5
    8578:	ff000008 			; <UNDEFINED> instruction: 0xff000008

0000857c <kr_free>:
    857c:	e1a0c00d 	mov	ip, sp
    8580:	e92dd800 	push	{fp, ip, lr, pc}
    8584:	e24cb004 	sub	fp, ip, #4, 0
    8588:	e2401008 	sub	r1, r0, #8, 0
    858c:	e59f30a8 	ldr	r3, [pc, #168]	; 863c <kr_free+0xc0>
    8590:	e5933000 	ldr	r3, [r3]
    8594:	ea000000 	b	859c <kr_free+0x20>
    8598:	e1a03002 	mov	r3, r2
    859c:	e1530001 	cmp	r3, r1
    85a0:	2a000002 	bcs	85b0 <kr_free+0x34>
    85a4:	e5932000 	ldr	r2, [r3]
    85a8:	e1520001 	cmp	r2, r1
    85ac:	8a000007 	bhi	85d0 <kr_free+0x54>
    85b0:	e5932000 	ldr	r2, [r3]
    85b4:	e1520003 	cmp	r2, r3
    85b8:	8afffff6 	bhi	8598 <kr_free+0x1c>
    85bc:	e1530001 	cmp	r3, r1
    85c0:	3a000002 	bcc	85d0 <kr_free+0x54>
    85c4:	e1520001 	cmp	r2, r1
    85c8:	91a03002 	movls	r3, r2
    85cc:	9afffff2 	bls	859c <kr_free+0x20>
    85d0:	e510c004 	ldr	ip, [r0, #-4]
    85d4:	e081e18c 	add	lr, r1, ip, lsl #3
    85d8:	e5932000 	ldr	r2, [r3]
    85dc:	e15e0002 	cmp	lr, r2
    85e0:	0a000008 	beq	8608 <kr_free+0x8c>
    85e4:	e5002008 	str	r2, [r0, #-8]
    85e8:	e5932004 	ldr	r2, [r3, #4]
    85ec:	e083c182 	add	ip, r3, r2, lsl #3
    85f0:	e15c0001 	cmp	ip, r1
    85f4:	0a00000a 	beq	8624 <kr_free+0xa8>
    85f8:	e5831000 	str	r1, [r3]
    85fc:	e59f2038 	ldr	r2, [pc, #56]	; 863c <kr_free+0xc0>
    8600:	e5823000 	str	r3, [r2]
    8604:	e89da800 	ldm	sp, {fp, sp, pc}
    8608:	e5922004 	ldr	r2, [r2, #4]
    860c:	e08cc002 	add	ip, ip, r2
    8610:	e500c004 	str	ip, [r0, #-4]
    8614:	e5932000 	ldr	r2, [r3]
    8618:	e5922000 	ldr	r2, [r2]
    861c:	e5002008 	str	r2, [r0, #-8]
    8620:	eafffff0 	b	85e8 <kr_free+0x6c>
    8624:	e5101004 	ldr	r1, [r0, #-4]
    8628:	e0822001 	add	r2, r2, r1
    862c:	e5832004 	str	r2, [r3, #4]
    8630:	e5102008 	ldr	r2, [r0, #-8]
    8634:	e5832000 	str	r2, [r3]
    8638:	eaffffef 	b	85fc <kr_free+0x80>
    863c:	0000af30 	andeq	sl, r0, r0, lsr pc
    8640:	65726f6d 	ldrbvs	r6, [r2, #-3949]!	; 0xfffff093
    8644:	65726f63 	ldrbvs	r6, [r2, #-3939]!	; 0xfffff09d
    8648:	00000000 	andeq	r0, r0, r0
    864c:	ff00000c 			; <UNDEFINED> instruction: 0xff00000c

00008650 <morecore>:
    8650:	e1a0c00d 	mov	ip, sp
    8654:	e92dd830 	push	{r4, r5, fp, ip, lr, pc}
    8658:	e24cb004 	sub	fp, ip, #4, 0
    865c:	e1a04000 	mov	r4, r0
    8660:	e3500b01 	cmp	r0, #1024	; 0x400
    8664:	33a04b01 	movcc	r4, #1024	; 0x400
    8668:	e1a01004 	mov	r1, r4
    866c:	e59f0030 	ldr	r0, [pc, #48]	; 86a4 <morecore+0x54>
    8670:	eb000286 	bl	9090 <printk>
    8674:	e1a00184 	lsl	r0, r4, #3
    8678:	eb00016a 	bl	8c28 <sbrk>
    867c:	e3700001 	cmn	r0, #1, 0
    8680:	0a000005 	beq	869c <morecore+0x4c>
    8684:	e5804004 	str	r4, [r0, #4]
    8688:	e2800008 	add	r0, r0, #8, 0
    868c:	ebffffba 	bl	857c <kr_free>
    8690:	e59f3010 	ldr	r3, [pc, #16]	; 86a8 <morecore+0x58>
    8694:	e5930000 	ldr	r0, [r3]
    8698:	e89da830 	ldm	sp, {r4, r5, fp, sp, pc}
    869c:	e3a00000 	mov	r0, #0, 0
    86a0:	e89da830 	ldm	sp, {r4, r5, fp, sp, pc}
    86a4:	0000a7a4 	andeq	sl, r0, r4, lsr #15
    86a8:	0000af30 	andeq	sl, r0, r0, lsr pc
    86ac:	6d5f726b 	lfmvs	f7, 2, [pc, #-428]	; 8508 <ckalloc+0x88>
    86b0:	6f6c6c61 	svcvs	0x006c6c61
    86b4:	00000063 	andeq	r0, r0, r3, rrx
    86b8:	ff00000c 			; <UNDEFINED> instruction: 0xff00000c

000086bc <kr_malloc>:
    86bc:	e1a0c00d 	mov	ip, sp
    86c0:	e92dd830 	push	{r4, r5, fp, ip, lr, pc}
    86c4:	e24cb004 	sub	fp, ip, #4, 0
    86c8:	e2804007 	add	r4, r0, #7, 0
    86cc:	e1a041a4 	lsr	r4, r4, #3
    86d0:	e2844001 	add	r4, r4, #1, 0
    86d4:	e59f3090 	ldr	r3, [pc, #144]	; 876c <kr_malloc+0xb0>
    86d8:	e5932000 	ldr	r2, [r3]
    86dc:	e3520000 	cmp	r2, #0, 0
    86e0:	0a000001 	beq	86ec <kr_malloc+0x30>
    86e4:	e5920000 	ldr	r0, [r2]
    86e8:	ea000013 	b	873c <kr_malloc+0x80>
    86ec:	e2832008 	add	r2, r3, #8, 0
    86f0:	e5832000 	str	r2, [r3]
    86f4:	e5832008 	str	r2, [r3, #8]
    86f8:	e3a01000 	mov	r1, #0, 0
    86fc:	e583100c 	str	r1, [r3, #12]
    8700:	eafffff7 	b	86e4 <kr_malloc+0x28>
    8704:	0a000007 	beq	8728 <kr_malloc+0x6c>
    8708:	e0433004 	sub	r3, r3, r4
    870c:	e5803004 	str	r3, [r0, #4]
    8710:	e0800183 	add	r0, r0, r3, lsl #3
    8714:	e5804004 	str	r4, [r0, #4]
    8718:	e59f304c 	ldr	r3, [pc, #76]	; 876c <kr_malloc+0xb0>
    871c:	e5832000 	str	r2, [r3]
    8720:	e2800008 	add	r0, r0, #8, 0
    8724:	e89da830 	ldm	sp, {r4, r5, fp, sp, pc}
    8728:	e5903000 	ldr	r3, [r0]
    872c:	e5823000 	str	r3, [r2]
    8730:	eafffff8 	b	8718 <kr_malloc+0x5c>
    8734:	e1a02000 	mov	r2, r0
    8738:	e5900000 	ldr	r0, [r0]
    873c:	e5903004 	ldr	r3, [r0, #4]
    8740:	e1530004 	cmp	r3, r4
    8744:	2affffee 	bcs	8704 <kr_malloc+0x48>
    8748:	e59f301c 	ldr	r3, [pc, #28]	; 876c <kr_malloc+0xb0>
    874c:	e5933000 	ldr	r3, [r3]
    8750:	e1530000 	cmp	r3, r0
    8754:	1afffff6 	bne	8734 <kr_malloc+0x78>
    8758:	e3a00902 	mov	r0, #32768	; 0x8000
    875c:	ebffffbb 	bl	8650 <morecore>
    8760:	e3500000 	cmp	r0, #0, 0
    8764:	1afffff2 	bne	8734 <kr_malloc+0x78>
    8768:	e89da830 	ldm	sp, {r4, r5, fp, sp, pc}
    876c:	0000af30 	andeq	sl, r0, r0, lsr pc
    8770:	685f6e69 	ldmdavs	pc, {r0, r3, r5, r6, r9, sl, fp, sp, lr}^	; <UNPREDICTABLE>
    8774:	00706165 	rsbseq	r6, r0, r5, ror #2
    8778:	ff000008 			; <UNDEFINED> instruction: 0xff000008

0000877c <in_heap>:
    877c:	e1a0c00d 	mov	ip, sp
    8780:	e92dd800 	push	{fp, ip, lr, pc}
    8784:	e24cb004 	sub	fp, ip, #4, 0
    8788:	e59f3030 	ldr	r3, [pc, #48]	; 87c0 <in_heap+0x44>
    878c:	e5933000 	ldr	r3, [r3]
    8790:	e1530000 	cmp	r3, r0
    8794:	8a000005 	bhi	87b0 <in_heap+0x34>
    8798:	e59f3020 	ldr	r3, [pc, #32]	; 87c0 <in_heap+0x44>
    879c:	e5933004 	ldr	r3, [r3, #4]
    87a0:	e1530000 	cmp	r3, r0
    87a4:	9a000003 	bls	87b8 <in_heap+0x3c>
    87a8:	e3a00001 	mov	r0, #1, 0
    87ac:	e89da800 	ldm	sp, {fp, sp, pc}
    87b0:	e3a00000 	mov	r0, #0, 0
    87b4:	e89da800 	ldm	sp, {fp, sp, pc}
    87b8:	e3a00000 	mov	r0, #0, 0
    87bc:	e89da800 	ldm	sp, {fp, sp, pc}
    87c0:	0000af40 	andeq	sl, r0, r0, asr #30
    87c4:	6b72616d 	blvs	1ca0d80 <__bss_end__+0x1c95a28>
    87c8:	00000000 	andeq	r0, r0, r0
    87cc:	ff000008 			; <UNDEFINED> instruction: 0xff000008

000087d0 <mark>:
    87d0:	e1a0c00d 	mov	ip, sp
    87d4:	e92dd9f0 	push	{r4, r5, r6, r7, r8, fp, ip, lr, pc}
    87d8:	e24cb004 	sub	fp, ip, #4, 0
    87dc:	e24dd00c 	sub	sp, sp, #12, 0
    87e0:	e1500001 	cmp	r0, r1
    87e4:	2a00000d 	bcs	8820 <mark+0x50>
    87e8:	e1a04000 	mov	r4, r0
    87ec:	e1a07001 	mov	r7, r1
    87f0:	e3100003 	tst	r0, #3, 0
    87f4:	1a000011 	bne	8840 <mark+0x70>
    87f8:	e3110003 	tst	r1, #3, 0
    87fc:	0a000021 	beq	8888 <mark+0xb8>
    8800:	e59f3134 	ldr	r3, [pc, #308]	; 893c <mark+0x16c>
    8804:	e58d3000 	str	r3, [sp]
    8808:	e3a03056 	mov	r3, #86, 0	; 0x56
    880c:	e59f212c 	ldr	r2, [pc, #300]	; 8940 <mark+0x170>
    8810:	e59f112c 	ldr	r1, [pc, #300]	; 8944 <mark+0x174>
    8814:	e59f012c 	ldr	r0, [pc, #300]	; 8948 <mark+0x178>
    8818:	eb00021c 	bl	9090 <printk>
    881c:	eb0004ac 	bl	9ad4 <clean_reboot>
    8820:	e59f3124 	ldr	r3, [pc, #292]	; 894c <mark+0x17c>
    8824:	e58d3000 	str	r3, [sp]
    8828:	e3a03052 	mov	r3, #82, 0	; 0x52
    882c:	e59f210c 	ldr	r2, [pc, #268]	; 8940 <mark+0x170>
    8830:	e59f110c 	ldr	r1, [pc, #268]	; 8944 <mark+0x174>
    8834:	e59f010c 	ldr	r0, [pc, #268]	; 8948 <mark+0x178>
    8838:	eb000214 	bl	9090 <printk>
    883c:	eb0004a4 	bl	9ad4 <clean_reboot>
    8840:	e59f3108 	ldr	r3, [pc, #264]	; 8950 <mark+0x180>
    8844:	e58d3000 	str	r3, [sp]
    8848:	e3a03055 	mov	r3, #85, 0	; 0x55
    884c:	e59f20ec 	ldr	r2, [pc, #236]	; 8940 <mark+0x170>
    8850:	e59f10ec 	ldr	r1, [pc, #236]	; 8944 <mark+0x174>
    8854:	e59f00ec 	ldr	r0, [pc, #236]	; 8948 <mark+0x178>
    8858:	eb00020c 	bl	9090 <printk>
    885c:	eb00049c 	bl	9ad4 <clean_reboot>
    8860:	e3a05000 	mov	r5, #0, 0
    8864:	ea000011 	b	88b0 <mark+0xe0>
    8868:	e3a03002 	mov	r3, #2, 0
    886c:	ea000021 	b	88f8 <mark+0x128>
    8870:	e3a01002 	mov	r1, #2, 0
    8874:	e59f00d8 	ldr	r0, [pc, #216]	; 8954 <mark+0x184>
    8878:	eb000204 	bl	9090 <printk>
    887c:	e3580000 	cmp	r8, #0, 0
    8880:	0a000022 	beq	8910 <mark+0x140>
    8884:	e2844004 	add	r4, r4, #4, 0
    8888:	e1540007 	cmp	r4, r7
    888c:	8a000028 	bhi	8934 <mark+0x164>
    8890:	e5945000 	ldr	r5, [r4]
    8894:	e1a00005 	mov	r0, r5
    8898:	ebffffb7 	bl	877c <in_heap>
    889c:	e3500000 	cmp	r0, #0, 0
    88a0:	0affffee 	beq	8860 <mark+0x90>
    88a4:	e1a00005 	mov	r0, r5
    88a8:	ebfffe7f 	bl	82ac <ck_ptr_is_alloced>
    88ac:	e1a05000 	mov	r5, r0
    88b0:	e3550000 	cmp	r5, #0, 0
    88b4:	0afffff2 	beq	8884 <mark+0xb4>
    88b8:	e28560b4 	add	r6, r5, #180, 0	; 0xb4
    88bc:	e1d583b0 	ldrh	r8, [r5, #48]	; 0x30
    88c0:	e1a00005 	mov	r0, r5
    88c4:	ebfffe38 	bl	81ac <ck_hdr_start>
    88c8:	e1a01000 	mov	r1, r0
    88cc:	e58d6000 	str	r6, [sp]
    88d0:	e5943000 	ldr	r3, [r4]
    88d4:	e1a02004 	mov	r2, r4
    88d8:	e59f0078 	ldr	r0, [pc, #120]	; 8958 <mark+0x188>
    88dc:	eb0001eb 	bl	9090 <printk>
    88e0:	e3580001 	cmp	r8, #1, 0
    88e4:	8a00000f 	bhi	8928 <mark+0x158>
    88e8:	e5943000 	ldr	r3, [r4]
    88ec:	e1530006 	cmp	r3, r6
    88f0:	0affffdc 	beq	8868 <mark+0x98>
    88f4:	e3a03001 	mov	r3, #1, 0
    88f8:	e1c533b0 	strh	r3, [r5, #48]	; 0x30
    88fc:	e5943000 	ldr	r3, [r4]
    8900:	e1530006 	cmp	r3, r6
    8904:	0affffd9 	beq	8870 <mark+0xa0>
    8908:	e3a01001 	mov	r1, #1, 0
    890c:	eaffffd8 	b	8874 <mark+0xa4>
    8910:	e5951004 	ldr	r1, [r5, #4]
    8914:	e28110b4 	add	r1, r1, #180, 0	; 0xb4
    8918:	e0851001 	add	r1, r5, r1
    891c:	e2850004 	add	r0, r5, #4, 0
    8920:	ebffffaa 	bl	87d0 <mark>
    8924:	eaffffd6 	b	8884 <mark+0xb4>
    8928:	e59f002c 	ldr	r0, [pc, #44]	; 895c <mark+0x18c>
    892c:	eb0001d7 	bl	9090 <printk>
    8930:	eaffffd3 	b	8884 <mark+0xb4>
    8934:	e24bd020 	sub	sp, fp, #32, 0
    8938:	e89da9f0 	ldm	sp, {r4, r5, r6, r7, r8, fp, sp, pc}
    893c:	0000a7e8 	andeq	sl, r0, r8, ror #15
    8940:	0000ab28 	andeq	sl, r0, r8, lsr #22
    8944:	0000a7c8 	andeq	sl, r0, r8, asr #15
    8948:	0000a754 	andeq	sl, r0, r4, asr r7
    894c:	0000a7d0 	ldrdeq	sl, [r0], -r0
    8950:	0000a7d8 	ldrdeq	sl, [r0], -r8
    8954:	0000a824 	andeq	sl, r0, r4, lsr #16
    8958:	0000a7f8 	strdeq	sl, [r0], -r8
    895c:	0000a834 	andeq	sl, r0, r4, lsr r8
    8960:	6b72616d 	blvs	1ca0f1c <__bss_end__+0x1c95bc4>
    8964:	6c6c615f 	stfvse	f6, [ip], #-380	; 0xfffffe84
    8968:	00000000 	andeq	r0, r0, r0
    896c:	ff00000c 			; <UNDEFINED> instruction: 0xff00000c

00008970 <mark_all>:
    8970:	e1a0c00d 	mov	ip, sp
    8974:	e92dd800 	push	{fp, ip, lr, pc}
    8978:	e24cb004 	sub	fp, ip, #4, 0
    897c:	e24dd040 	sub	sp, sp, #64, 0	; 0x40
    8980:	ebfffdf2 	bl	8150 <ck_first_hdr>
    8984:	e3500000 	cmp	r0, #0, 0
    8988:	0a000005 	beq	89a4 <mark_all+0x34>
    898c:	e3a03000 	mov	r3, #0, 0
    8990:	e580302c 	str	r3, [r0, #44]	; 0x2c
    8994:	e5803028 	str	r3, [r0, #40]	; 0x28
    8998:	e1c033b0 	strh	r3, [r0, #48]	; 0x30
    899c:	ebfffdf6 	bl	817c <ck_next_hdr>
    89a0:	eafffff7 	b	8984 <mark_all+0x14>
    89a4:	e24b004c 	sub	r0, fp, #76, 0	; 0x4c
    89a8:	eb000170 	bl	8f70 <dump_regs>
    89ac:	e3a03000 	mov	r3, #0, 0
    89b0:	e50b304c 	str	r3, [fp, #-76]	; 0xffffffb4
    89b4:	e50b3048 	str	r3, [fp, #-72]	; 0xffffffb8
    89b8:	e50b3044 	str	r3, [fp, #-68]	; 0xffffffbc
    89bc:	e50b3040 	str	r3, [fp, #-64]	; 0xffffffc0
    89c0:	e24b1014 	sub	r1, fp, #20, 0
    89c4:	e24b004c 	sub	r0, fp, #76, 0	; 0x4c
    89c8:	ebffff80 	bl	87d0 <mark>
    89cc:	e3a02302 	mov	r2, #134217728	; 0x8000000
    89d0:	e51b1018 	ldr	r1, [fp, #-24]	; 0xffffffe8
    89d4:	e59f002c 	ldr	r0, [pc, #44]	; 8a08 <mark_all+0x98>
    89d8:	eb0001ac 	bl	9090 <printk>
    89dc:	e3a01302 	mov	r1, #134217728	; 0x8000000
    89e0:	e51b0018 	ldr	r0, [fp, #-24]	; 0xffffffe8
    89e4:	ebffff79 	bl	87d0 <mark>
    89e8:	e59f101c 	ldr	r1, [pc, #28]	; 8a0c <mark_all+0x9c>
    89ec:	e59f001c 	ldr	r0, [pc, #28]	; 8a10 <mark_all+0xa0>
    89f0:	ebffff76 	bl	87d0 <mark>
    89f4:	e59f1018 	ldr	r1, [pc, #24]	; 8a14 <mark_all+0xa4>
    89f8:	e59f0018 	ldr	r0, [pc, #24]	; 8a18 <mark_all+0xa8>
    89fc:	ebffff73 	bl	87d0 <mark>
    8a00:	e24bd00c 	sub	sp, fp, #12, 0
    8a04:	e89da800 	ldm	sp, {fp, sp, pc}
    8a08:	0000a844 	andeq	sl, r0, r4, asr #16
    8a0c:	0000b358 	andeq	fp, r0, r8, asr r3
    8a10:	0000af28 	andeq	sl, r0, r8, lsr #30
    8a14:	0000af28 	andeq	sl, r0, r8, lsr #30
    8a18:	0000af14 	andeq	sl, r0, r4, lsl pc
    8a1c:	65657773 	strbvs	r7, [r5, #-1907]!	; 0xfffff88d
    8a20:	656c5f70 	strbvs	r5, [ip, #-3952]!	; 0xfffff090
    8a24:	00006b61 	andeq	r6, r0, r1, ror #22
    8a28:	ff00000c 			; <UNDEFINED> instruction: 0xff00000c

00008a2c <sweep_leak>:
    8a2c:	e1a0c00d 	mov	ip, sp
    8a30:	e92ddbf0 	push	{r4, r5, r6, r7, r8, r9, fp, ip, lr, pc}
    8a34:	e24cb004 	sub	fp, ip, #4, 0
    8a38:	e1a07000 	mov	r7, r0
    8a3c:	e59f00c4 	ldr	r0, [pc, #196]	; 8b08 <sweep_leak+0xdc>
    8a40:	eb000192 	bl	9090 <printk>
    8a44:	e59f00c0 	ldr	r0, [pc, #192]	; 8b0c <sweep_leak+0xe0>
    8a48:	eb000190 	bl	9090 <printk>
    8a4c:	ebffffc7 	bl	8970 <mark_all>
    8a50:	ebfffdbe 	bl	8150 <ck_first_hdr>
    8a54:	e1a04000 	mov	r4, r0
    8a58:	e3a08000 	mov	r8, #0, 0
    8a5c:	e1a06008 	mov	r6, r8
    8a60:	e1a05008 	mov	r5, r8
    8a64:	ea000007 	b	8a88 <sweep_leak+0x5c>
    8a68:	e2866001 	add	r6, r6, #1, 0
    8a6c:	e1a02004 	mov	r2, r4
    8a70:	e1a01005 	mov	r1, r5
    8a74:	e59f0094 	ldr	r0, [pc, #148]	; 8b10 <sweep_leak+0xe4>
    8a78:	eb000184 	bl	9090 <printk>
    8a7c:	e1a00004 	mov	r0, r4
    8a80:	ebfffdbd 	bl	817c <ck_next_hdr>
    8a84:	e1a04000 	mov	r4, r0
    8a88:	e3540000 	cmp	r4, #0, 0
    8a8c:	0a00000b 	beq	8ac0 <sweep_leak+0x94>
    8a90:	e2855001 	add	r5, r5, #1, 0
    8a94:	e1d433b0 	ldrh	r3, [r4, #48]	; 0x30
    8a98:	e3530000 	cmp	r3, #0, 0
    8a9c:	0afffff1 	beq	8a68 <sweep_leak+0x3c>
    8aa0:	e3530001 	cmp	r3, #1, 0
    8aa4:	1afffff4 	bne	8a7c <sweep_leak+0x50>
    8aa8:	e2888001 	add	r8, r8, #1, 0
    8aac:	e1a02004 	mov	r2, r4
    8ab0:	e1a01005 	mov	r1, r5
    8ab4:	e59f0058 	ldr	r0, [pc, #88]	; 8b14 <sweep_leak+0xe8>
    8ab8:	eb000174 	bl	9090 <printk>
    8abc:	eaffffee 	b	8a7c <sweep_leak+0x50>
    8ac0:	e1a01005 	mov	r1, r5
    8ac4:	e59f004c 	ldr	r0, [pc, #76]	; 8b18 <sweep_leak+0xec>
    8ac8:	eb000170 	bl	9090 <printk>
    8acc:	e1963008 	orrs	r3, r6, r8
    8ad0:	1a000007 	bne	8af4 <sweep_leak+0xc8>
    8ad4:	e59f0040 	ldr	r0, [pc, #64]	; 8b1c <sweep_leak+0xf0>
    8ad8:	eb00016c 	bl	9090 <printk>
    8adc:	e59f003c 	ldr	r0, [pc, #60]	; 8b20 <sweep_leak+0xf4>
    8ae0:	eb00016a 	bl	9090 <printk>
    8ae4:	e3570000 	cmp	r7, #0, 0
    8ae8:	10866008 	addne	r6, r6, r8
    8aec:	e1a00006 	mov	r0, r6
    8af0:	e89dabf0 	ldm	sp, {r4, r5, r6, r7, r8, r9, fp, sp, pc}
    8af4:	e1a02008 	mov	r2, r8
    8af8:	e1a01006 	mov	r1, r6
    8afc:	e59f0020 	ldr	r0, [pc, #32]	; 8b24 <sweep_leak+0xf8>
    8b00:	eb000162 	bl	9090 <printk>
    8b04:	eafffff4 	b	8adc <sweep_leak+0xb0>
    8b08:	0000a860 	andeq	sl, r0, r0, ror #16
    8b0c:	0000a89c 	muleq	r0, ip, r8
    8b10:	0000a8b4 			; <UNDEFINED> instruction: 0x0000a8b4
    8b14:	0000a8c8 	andeq	sl, r0, r8, asr #17
    8b18:	0000a8e0 	andeq	sl, r0, r0, ror #17
    8b1c:	0000a900 	andeq	sl, r0, r0, lsl #18
    8b20:	0000a958 	andeq	sl, r0, r8, asr r9
    8b24:	0000a928 	andeq	sl, r0, r8, lsr #18
    8b28:	65657773 	strbvs	r7, [r5, #-1907]!	; 0xfffff88d
    8b2c:	72665f70 	rsbvc	r5, r6, #112, 30	; 0x1c0
    8b30:	00006565 	andeq	r6, r0, r5, ror #10
    8b34:	ff00000c 			; <UNDEFINED> instruction: 0xff00000c

00008b38 <sweep_free>:
    8b38:	e1a0c00d 	mov	ip, sp
    8b3c:	e92dd9f0 	push	{r4, r5, r6, r7, r8, fp, ip, lr, pc}
    8b40:	e24cb004 	sub	fp, ip, #4, 0
    8b44:	e24dd014 	sub	sp, sp, #20, 0
    8b48:	e59f00b0 	ldr	r0, [pc, #176]	; 8c00 <sweep_free+0xc8>
    8b4c:	eb00014f 	bl	9090 <printk>
    8b50:	e59f00ac 	ldr	r0, [pc, #172]	; 8c04 <sweep_free+0xcc>
    8b54:	eb00014d 	bl	9090 <printk>
    8b58:	ebffff84 	bl	8970 <mark_all>
    8b5c:	ebfffd7b 	bl	8150 <ck_first_hdr>
    8b60:	e1a04000 	mov	r4, r0
    8b64:	e3a07000 	mov	r7, #0, 0
    8b68:	e1a08007 	mov	r8, r7
    8b6c:	e1a05007 	mov	r5, r7
    8b70:	ea000013 	b	8bc4 <sweep_free+0x8c>
    8b74:	e2888001 	add	r8, r8, #1, 0
    8b78:	e5943004 	ldr	r3, [r4, #4]
    8b7c:	e0877003 	add	r7, r7, r3
    8b80:	e28460b4 	add	r6, r4, #180, 0	; 0xb4
    8b84:	e59f307c 	ldr	r3, [pc, #124]	; 8c08 <sweep_free+0xd0>
    8b88:	e50b3030 	str	r3, [fp, #-48]	; 0xffffffd0
    8b8c:	e59f3078 	ldr	r3, [pc, #120]	; 8c0c <sweep_free+0xd4>
    8b90:	e50b302c 	str	r3, [fp, #-44]	; 0xffffffd4
    8b94:	e59f3074 	ldr	r3, [pc, #116]	; 8c10 <sweep_free+0xd8>
    8b98:	e50b3028 	str	r3, [fp, #-40]	; 0xffffffd8
    8b9c:	e24b3024 	sub	r3, fp, #36, 0	; 0x24
    8ba0:	e913000e 	ldmdb	r3, {r1, r2, r3}
    8ba4:	e1a00006 	mov	r0, r6
    8ba8:	ebfffdca 	bl	82d8 <ckfree>
    8bac:	e1a01006 	mov	r1, r6
    8bb0:	e59f005c 	ldr	r0, [pc, #92]	; 8c14 <sweep_free+0xdc>
    8bb4:	eb000135 	bl	9090 <printk>
    8bb8:	e1a00004 	mov	r0, r4
    8bbc:	ebfffd6e 	bl	817c <ck_next_hdr>
    8bc0:	e1a04000 	mov	r4, r0
    8bc4:	e3540000 	cmp	r4, #0, 0
    8bc8:	0a000004 	beq	8be0 <sweep_free+0xa8>
    8bcc:	e2855001 	add	r5, r5, #1, 0
    8bd0:	e1d433b0 	ldrh	r3, [r4, #48]	; 0x30
    8bd4:	e3530000 	cmp	r3, #0, 0
    8bd8:	1afffff6 	bne	8bb8 <sweep_free+0x80>
    8bdc:	eaffffe4 	b	8b74 <sweep_free+0x3c>
    8be0:	e1a03007 	mov	r3, r7
    8be4:	e1a02008 	mov	r2, r8
    8be8:	e1a01005 	mov	r1, r5
    8bec:	e59f0024 	ldr	r0, [pc, #36]	; 8c18 <sweep_free+0xe0>
    8bf0:	eb000126 	bl	9090 <printk>
    8bf4:	e1a00007 	mov	r0, r7
    8bf8:	e24bd020 	sub	sp, fp, #32, 0
    8bfc:	e89da9f0 	ldm	sp, {r4, r5, r6, r7, r8, fp, sp, pc}
    8c00:	0000a860 	andeq	sl, r0, r0, ror #16
    8c04:	0000a994 	muleq	r0, r4, r9
    8c08:	0000a7c8 	andeq	sl, r0, r8, asr #15
    8c0c:	0000ab30 	andeq	sl, r0, r0, lsr fp
    8c10:	0000011e 	andeq	r0, r0, lr, lsl r1
    8c14:	0000a9a4 	andeq	sl, r0, r4, lsr #19
    8c18:	0000a9b4 			; <UNDEFINED> instruction: 0x0000a9b4
    8c1c:	6b726273 	blvs	1ca15f0 <__bss_end__+0x1c96298>
    8c20:	00000000 	andeq	r0, r0, r0
    8c24:	ff000008 			; <UNDEFINED> instruction: 0xff000008

00008c28 <sbrk>:
    8c28:	e1a0c00d 	mov	ip, sp
    8c2c:	e92dd830 	push	{r4, r5, fp, ip, lr, pc}
    8c30:	e24cb004 	sub	fp, ip, #4, 0
    8c34:	e24dd008 	sub	sp, sp, #8, 0
    8c38:	e2504000 	subs	r4, r0, #0, 0
    8c3c:	da000010 	ble	8c84 <sbrk+0x5c>
    8c40:	e59f3074 	ldr	r3, [pc, #116]	; 8cbc <sbrk+0x94>
    8c44:	e5933008 	ldr	r3, [r3, #8]
    8c48:	e3530000 	cmp	r3, #0, 0
    8c4c:	1a000014 	bne	8ca4 <sbrk+0x7c>
    8c50:	e59f5064 	ldr	r5, [pc, #100]	; 8cbc <sbrk+0x94>
    8c54:	e3a00601 	mov	r0, #1048576	; 0x100000
    8c58:	e5850000 	str	r0, [r5]
    8c5c:	e3a03602 	mov	r3, #2097152	; 0x200000
    8c60:	e5853004 	str	r3, [r5, #4]
    8c64:	e1a01000 	mov	r1, r0
    8c68:	eb0004e1 	bl	9ff4 <kmalloc_init_set_start>
    8c6c:	e3a03001 	mov	r3, #1, 0
    8c70:	e5853008 	str	r3, [r5, #8]
    8c74:	e1a00004 	mov	r0, r4
    8c78:	eb000540 	bl	a180 <kmalloc>
    8c7c:	e24bd014 	sub	sp, fp, #20, 0
    8c80:	e89da830 	ldm	sp, {r4, r5, fp, sp, pc}
    8c84:	e59f3034 	ldr	r3, [pc, #52]	; 8cc0 <sbrk+0x98>
    8c88:	e58d3000 	str	r3, [sp]
    8c8c:	e3a03017 	mov	r3, #23, 0
    8c90:	e59f202c 	ldr	r2, [pc, #44]	; 8cc4 <sbrk+0x9c>
    8c94:	e59f102c 	ldr	r1, [pc, #44]	; 8cc8 <sbrk+0xa0>
    8c98:	e59f002c 	ldr	r0, [pc, #44]	; 8ccc <sbrk+0xa4>
    8c9c:	eb0000fb 	bl	9090 <printk>
    8ca0:	eb00038b 	bl	9ad4 <clean_reboot>
    8ca4:	e3a03019 	mov	r3, #25, 0
    8ca8:	e59f2014 	ldr	r2, [pc, #20]	; 8cc4 <sbrk+0x9c>
    8cac:	e59f1014 	ldr	r1, [pc, #20]	; 8cc8 <sbrk+0xa0>
    8cb0:	e59f0018 	ldr	r0, [pc, #24]	; 8cd0 <sbrk+0xa8>
    8cb4:	eb0000f5 	bl	9090 <printk>
    8cb8:	eb000385 	bl	9ad4 <clean_reboot>
    8cbc:	0000af40 	andeq	sl, r0, r0, asr #30
    8cc0:	0000a9e8 	andeq	sl, r0, r8, ror #19
    8cc4:	0000ab3c 	andeq	sl, r0, ip, lsr fp
    8cc8:	0000a7c8 	andeq	sl, r0, r8, asr #15
    8ccc:	0000a754 	andeq	sl, r0, r4, asr r7
    8cd0:	0000a9f8 	strdeq	sl, [r0], -r8
    8cd4:	7a646572 	bvc	19222a4 <__bss_end__+0x1916f4c>
    8cd8:	5f656e6f 	svcpl	0x00656e6f
    8cdc:	6f727265 	svcvs	0x00727265
    8ce0:	00007372 	andeq	r7, r0, r2, ror r3
    8ce4:	ff000010 			; <UNDEFINED> instruction: 0xff000010

00008ce8 <redzone_errors>:
    8ce8:	e1a0c00d 	mov	ip, sp
    8cec:	e92dd800 	push	{fp, ip, lr, pc}
    8cf0:	e24cb004 	sub	fp, ip, #4, 0
    8cf4:	e1a0c000 	mov	ip, r0
    8cf8:	e3a03000 	mov	r3, #0, 0
    8cfc:	e1a00003 	mov	r0, r3
    8d00:	ea000001 	b	8d0c <redzone_errors+0x24>
    8d04:	e2800001 	add	r0, r0, #1, 0
    8d08:	e2833001 	add	r3, r3, #1, 0
    8d0c:	e1530001 	cmp	r3, r1
    8d10:	a89da800 	ldmge	sp, {fp, sp, pc}
    8d14:	e7dc2003 	ldrb	r2, [ip, r3]
    8d18:	e35200fe 	cmp	r2, #254, 0	; 0xfe
    8d1c:	1afffff8 	bne	8d04 <redzone_errors+0x1c>
    8d20:	eafffff8 	b	8d08 <redzone_errors+0x20>
    8d24:	685f6b63 	ldmdavs	pc, {r0, r1, r5, r6, r8, r9, fp, sp, lr}^	; <UNPREDICTABLE>
    8d28:	5f706165 	svcpl	0x00706165
    8d2c:	6f727265 	svcvs	0x00727265
    8d30:	00007372 	andeq	r7, r0, r2, ror r3
    8d34:	ff000010 			; <UNDEFINED> instruction: 0xff000010

00008d38 <ck_heap_errors>:
    8d38:	e1a0c00d 	mov	ip, sp
    8d3c:	e92dd8f0 	push	{r4, r5, r6, r7, fp, ip, lr, pc}
    8d40:	e24cb004 	sub	fp, ip, #4, 0
    8d44:	ebfffd01 	bl	8150 <ck_first_hdr>
    8d48:	e1a04000 	mov	r4, r0
    8d4c:	e3a06000 	mov	r6, #0, 0
    8d50:	ea00000a 	b	8d80 <ck_heap_errors+0x48>
    8d54:	e5943024 	ldr	r3, [r4, #36]	; 0x24
    8d58:	e5942020 	ldr	r2, [r4, #32]
    8d5c:	e594101c 	ldr	r1, [r4, #28]
    8d60:	e59f0098 	ldr	r0, [pc, #152]	; 8e00 <ck_heap_errors+0xc8>
    8d64:	eb0000c9 	bl	9090 <printk>
    8d68:	e59f0094 	ldr	r0, [pc, #148]	; 8e04 <ck_heap_errors+0xcc>
    8d6c:	eb0000c7 	bl	9090 <printk>
    8d70:	e0866005 	add	r6, r6, r5
    8d74:	e1a00004 	mov	r0, r4
    8d78:	ebfffcff 	bl	817c <ck_next_hdr>
    8d7c:	e1a04000 	mov	r4, r0
    8d80:	e3540000 	cmp	r4, #0, 0
    8d84:	0a00001b 	beq	8df8 <ck_heap_errors+0xc0>
    8d88:	e3a01080 	mov	r1, #128, 0	; 0x80
    8d8c:	e2840032 	add	r0, r4, #50, 0	; 0x32
    8d90:	ebffffd4 	bl	8ce8 <redzone_errors>
    8d94:	e1a05000 	mov	r5, r0
    8d98:	e28470b4 	add	r7, r4, #180, 0	; 0xb4
    8d9c:	e5940004 	ldr	r0, [r4, #4]
    8da0:	e28000b4 	add	r0, r0, #180, 0	; 0xb4
    8da4:	e3a01080 	mov	r1, #128, 0	; 0x80
    8da8:	e0840000 	add	r0, r4, r0
    8dac:	ebffffcd 	bl	8ce8 <redzone_errors>
    8db0:	e0855000 	add	r5, r5, r0
    8db4:	e5943018 	ldr	r3, [r4, #24]
    8db8:	e5942014 	ldr	r2, [r4, #20]
    8dbc:	e5941010 	ldr	r1, [r4, #16]
    8dc0:	e59f0038 	ldr	r0, [pc, #56]	; 8e00 <ck_heap_errors+0xc8>
    8dc4:	eb0000b1 	bl	9090 <printk>
    8dc8:	e59f0038 	ldr	r0, [pc, #56]	; 8e08 <ck_heap_errors+0xd0>
    8dcc:	eb0000af 	bl	9090 <printk>
    8dd0:	e5943008 	ldr	r3, [r4, #8]
    8dd4:	e353000c 	cmp	r3, #12, 0
    8dd8:	1affffe4 	bne	8d70 <ck_heap_errors+0x38>
    8ddc:	e5941004 	ldr	r1, [r4, #4]
    8de0:	e1a00007 	mov	r0, r7
    8de4:	ebffffbf 	bl	8ce8 <redzone_errors>
    8de8:	e0855000 	add	r5, r5, r0
    8dec:	e3500000 	cmp	r0, #0, 0
    8df0:	0affffde 	beq	8d70 <ck_heap_errors+0x38>
    8df4:	eaffffd6 	b	8d54 <ck_heap_errors+0x1c>
    8df8:	e1a00006 	mov	r0, r6
    8dfc:	e89da8f0 	ldm	sp, {r4, r5, r6, r7, fp, sp, pc}
    8e00:	0000a6b4 			; <UNDEFINED> instruction: 0x0000a6b4
    8e04:	0000aa48 	andeq	sl, r0, r8, asr #20
    8e08:	0000aa18 	andeq	sl, r0, r8, lsl sl
    8e0c:	665f6b63 	ldrbvs	r6, [pc], -r3, ror #22
    8e10:	5f646e69 	svcpl	0x00646e69
    8e14:	6b61656c 	blvs	18623cc <__bss_end__+0x1857074>
    8e18:	00000073 	andeq	r0, r0, r3, ror r0
    8e1c:	ff000010 			; <UNDEFINED> instruction: 0xff000010

00008e20 <ck_find_leaks>:
    8e20:	e1a0c00d 	mov	ip, sp
    8e24:	e92dd800 	push	{fp, ip, lr, pc}
    8e28:	e24cb004 	sub	fp, ip, #4, 0
    8e2c:	ebfffefe 	bl	8a2c <sweep_leak>
    8e30:	e89da800 	ldm	sp, {fp, sp, pc}
    8e34:	63656863 	cmnvs	r5, #6488064	; 0x630000
    8e38:	6f6e5f6b 	svcvs	0x006e5f6b
    8e3c:	61656c5f 	cmnvs	r5, pc, asr ip
    8e40:	0000006b 	andeq	r0, r0, fp, rrx
    8e44:	ff000010 			; <UNDEFINED> instruction: 0xff000010

00008e48 <check_no_leak>:
    8e48:	e1a0c00d 	mov	ip, sp
    8e4c:	e92dd800 	push	{fp, ip, lr, pc}
    8e50:	e24cb004 	sub	fp, ip, #4, 0
    8e54:	e3a00001 	mov	r0, #1, 0
    8e58:	ebfffff0 	bl	8e20 <ck_find_leaks>
    8e5c:	e3500000 	cmp	r0, #0, 0
    8e60:	1a000002 	bne	8e70 <check_no_leak+0x28>
    8e64:	e59f001c 	ldr	r0, [pc, #28]	; 8e88 <check_no_leak+0x40>
    8e68:	eb000088 	bl	9090 <printk>
    8e6c:	e89da800 	ldm	sp, {fp, sp, pc}
    8e70:	e3a030f9 	mov	r3, #249, 0	; 0xf9
    8e74:	e59f2010 	ldr	r2, [pc, #16]	; 8e8c <check_no_leak+0x44>
    8e78:	e59f1010 	ldr	r1, [pc, #16]	; 8e90 <check_no_leak+0x48>
    8e7c:	e59f0010 	ldr	r0, [pc, #16]	; 8e94 <check_no_leak+0x4c>
    8e80:	eb000082 	bl	9090 <printk>
    8e84:	eb000312 	bl	9ad4 <clean_reboot>
    8e88:	0000aa8c 	andeq	sl, r0, ip, lsl #21
    8e8c:	0000ab44 	andeq	sl, r0, r4, asr #22
    8e90:	0000a7c8 	andeq	sl, r0, r8, asr #15
    8e94:	0000aa60 	andeq	sl, r0, r0, ror #20
    8e98:	63656863 	cmnvs	r5, #6488064	; 0x630000
    8e9c:	68735f6b 	ldmdavs	r3!, {r0, r1, r3, r5, r6, r8, r9, sl, fp, ip, lr}^
    8ea0:	646c756f 	strbtvs	r7, [ip], #-1391	; 0xfffffa91
    8ea4:	61656c5f 	cmnvs	r5, pc, asr ip
    8ea8:	0000006b 	andeq	r0, r0, fp, rrx
    8eac:	ff000014 			; <UNDEFINED> instruction: 0xff000014

00008eb0 <check_should_leak>:
    8eb0:	e1a0c00d 	mov	ip, sp
    8eb4:	e92dd830 	push	{r4, r5, fp, ip, lr, pc}
    8eb8:	e24cb004 	sub	fp, ip, #4, 0
    8ebc:	e3a00001 	mov	r0, #1, 0
    8ec0:	ebffffd6 	bl	8e20 <ck_find_leaks>
    8ec4:	e2504000 	subs	r4, r0, #0, 0
    8ec8:	0a000004 	beq	8ee0 <check_should_leak+0x30>
    8ecc:	e1a01004 	mov	r1, r4
    8ed0:	e59f0020 	ldr	r0, [pc, #32]	; 8ef8 <check_should_leak+0x48>
    8ed4:	eb00006d 	bl	9090 <printk>
    8ed8:	e1a00004 	mov	r0, r4
    8edc:	e89da830 	ldm	sp, {r4, r5, fp, sp, pc}
    8ee0:	e3a03f42 	mov	r3, #264	; 0x108
    8ee4:	e59f2010 	ldr	r2, [pc, #16]	; 8efc <check_should_leak+0x4c>
    8ee8:	e59f1010 	ldr	r1, [pc, #16]	; 8f00 <check_should_leak+0x50>
    8eec:	e59f0010 	ldr	r0, [pc, #16]	; 8f04 <check_should_leak+0x54>
    8ef0:	eb000066 	bl	9090 <printk>
    8ef4:	eb0002f6 	bl	9ad4 <clean_reboot>
    8ef8:	0000aad4 	ldrdeq	sl, [r0], -r4
    8efc:	0000ab54 	andeq	sl, r0, r4, asr fp
    8f00:	0000a7c8 	andeq	sl, r0, r8, asr #15
    8f04:	0000aaac 	andeq	sl, r0, ip, lsr #21
    8f08:	675f6b63 	ldrbvs	r6, [pc, -r3, ror #22]
    8f0c:	00000063 	andeq	r0, r0, r3, rrx
    8f10:	ff000008 			; <UNDEFINED> instruction: 0xff000008

00008f14 <ck_gc>:
    8f14:	e1a0c00d 	mov	ip, sp
    8f18:	e92dd800 	push	{fp, ip, lr, pc}
    8f1c:	e24cb004 	sub	fp, ip, #4, 0
    8f20:	ebfffe92 	bl	8970 <mark_all>
    8f24:	ebffff03 	bl	8b38 <sweep_free>
    8f28:	e89da800 	ldm	sp, {fp, sp, pc}
    8f2c:	6c706d69 	ldclvs	13, cr6, [r0], #-420	; 0xfffffe5c
    8f30:	6e656d65 	cdpvs	13, 6, cr6, cr5, cr5, {3}
    8f34:	68745f74 	ldmdavs	r4!, {r2, r4, r5, r6, r8, r9, sl, fp, ip, lr}^
    8f38:	00007369 	andeq	r7, r0, r9, ror #6
    8f3c:	ff000010 			; <UNDEFINED> instruction: 0xff000010

00008f40 <implement_this>:
    8f40:	e1a0c00d 	mov	ip, sp
    8f44:	e92dd800 	push	{fp, ip, lr, pc}
    8f48:	e24cb004 	sub	fp, ip, #4, 0
    8f4c:	e3a03f4d 	mov	r3, #308	; 0x134
    8f50:	e59f200c 	ldr	r2, [pc, #12]	; 8f64 <implement_this+0x24>
    8f54:	e59f100c 	ldr	r1, [pc, #12]	; 8f68 <implement_this+0x28>
    8f58:	e59f000c 	ldr	r0, [pc, #12]	; 8f6c <implement_this+0x2c>
    8f5c:	eb00004b 	bl	9090 <printk>
    8f60:	eb0002db 	bl	9ad4 <clean_reboot>
    8f64:	0000ab68 	andeq	sl, r0, r8, ror #22
    8f68:	0000a7c8 	andeq	sl, r0, r8, asr #15
    8f6c:	0000aaf8 	strdeq	sl, [r0], -r8

00008f70 <dump_regs>:
    8f70:	e8a0ffff 	stmia	r0!, {r0, r1, r2, r3, r4, r5, r6, r7, r8, r9, sl, fp, ip, sp, lr, pc}
    8f74:	e12fff1e 	bx	lr

00008f78 <backtrace>:
    8f78:	e92d41f0 	push	{r4, r5, r6, r7, r8, lr}
    8f7c:	e1a0400b 	mov	r4, fp
    8f80:	e3540000 	cmp	r4, #0, 0
    8f84:	0a000016 	beq	8fe4 <backtrace+0x6c>
    8f88:	e3a07000 	mov	r7, #0, 0
    8f8c:	e59f605c 	ldr	r6, [pc, #92]	; 8ff0 <backtrace+0x78>
    8f90:	e59f505c 	ldr	r5, [pc, #92]	; 8ff4 <backtrace+0x7c>
    8f94:	ea000002 	b	8fa4 <backtrace+0x2c>
    8f98:	e2877001 	add	r7, r7, #1, 0
    8f9c:	e3570020 	cmp	r7, #32, 0
    8fa0:	0a00000f 	beq	8fe4 <backtrace+0x6c>
    8fa4:	e5940000 	ldr	r0, [r4]
    8fa8:	e1a01007 	mov	r1, r7
    8fac:	e5103010 	ldr	r3, [r0, #-16]
    8fb0:	e240200c 	sub	r2, r0, #12, 0
    8fb4:	e31304ff 	tst	r3, #-16777216	; 0xff000000
    8fb8:	e2400010 	sub	r0, r0, #16, 0
    8fbc:	e3c334ff 	bic	r3, r3, #-16777216	; 0xff000000
    8fc0:	10403003 	subne	r3, r0, r3
    8fc4:	01a03006 	moveq	r3, r6
    8fc8:	e1a00005 	mov	r0, r5
    8fcc:	eb00002f 	bl	9090 <printk>
    8fd0:	e514400c 	ldr	r4, [r4, #-12]
    8fd4:	e3540000 	cmp	r4, #0, 0
    8fd8:	1affffee 	bne	8f98 <backtrace+0x20>
    8fdc:	e1a00007 	mov	r0, r7
    8fe0:	e8bd81f0 	pop	{r4, r5, r6, r7, r8, pc}
    8fe4:	e3e07000 	mvn	r7, #0, 0
    8fe8:	e1a00007 	mov	r0, r7
    8fec:	e8bd81f0 	pop	{r4, r5, r6, r7, r8, pc}
    8ff0:	0000ab78 	andeq	sl, r0, r8, ror fp
    8ff4:	0000ab7c 	andeq	sl, r0, ip, ror fp

00008ff8 <name_of>:
    8ff8:	e5103004 	ldr	r3, [r0, #-4]
    8ffc:	e2400004 	sub	r0, r0, #4, 0
    9000:	e31304ff 	tst	r3, #-16777216	; 0xff000000
    9004:	13c334ff 	bicne	r3, r3, #-16777216	; 0xff000000
    9008:	10400003 	subne	r0, r0, r3
    900c:	059f0000 	ldreq	r0, [pc]	; 9014 <name_of+0x1c>
    9010:	e12fff1e 	bx	lr
    9014:	0000ab78 	andeq	sl, r0, r8, ror fp

00009018 <memset>:
    9018:	e92d4010 	push	{r4, lr}
    901c:	e0804002 	add	r4, r0, r2
    9020:	e1500004 	cmp	r0, r4
    9024:	28bd8010 	popcs	{r4, pc}
    9028:	e2423001 	sub	r3, r2, #1, 0
    902c:	e3530002 	cmp	r3, #2, 0
    9030:	e6ef1071 	uxtb	r1, r1
    9034:	e1a03000 	mov	r3, r0
    9038:	9a00000b 	bls	906c <memset+0x54>
    903c:	e181e401 	orr	lr, r1, r1, lsl #8
    9040:	e18ee801 	orr	lr, lr, r1, lsl #16
    9044:	e3c2c003 	bic	ip, r2, #3, 0
    9048:	e18eec01 	orr	lr, lr, r1, lsl #24
    904c:	e08cc000 	add	ip, ip, r0
    9050:	e483e004 	str	lr, [r3], #4
    9054:	e153000c 	cmp	r3, ip
    9058:	1afffffc 	bne	9050 <memset+0x38>
    905c:	e3c23003 	bic	r3, r2, #3, 0
    9060:	e1520003 	cmp	r2, r3
    9064:	e0803003 	add	r3, r0, r3
    9068:	08bd8010 	popeq	{r4, pc}
    906c:	e1a02003 	mov	r2, r3
    9070:	e4c21001 	strb	r1, [r2], #1
    9074:	e1540002 	cmp	r4, r2
    9078:	98bd8010 	popls	{r4, pc}
    907c:	e2832002 	add	r2, r3, #2, 0
    9080:	e1540002 	cmp	r4, r2
    9084:	e5c31001 	strb	r1, [r3, #1]
    9088:	85c31002 	strbhi	r1, [r3, #2]
    908c:	e8bd8010 	pop	{r4, pc}

00009090 <printk>:
    9090:	e92d000f 	push	{r0, r1, r2, r3}
    9094:	e92d4030 	push	{r4, r5, lr}
    9098:	e59f5040 	ldr	r5, [pc, #64]	; 90e0 <printk+0x50>
    909c:	e24dd00c 	sub	sp, sp, #12, 0
    90a0:	e28d301c 	add	r3, sp, #28, 0
    90a4:	e3a01b01 	mov	r1, #1024	; 0x400
    90a8:	e59d2018 	ldr	r2, [sp, #24]
    90ac:	e1a00005 	mov	r0, r5
    90b0:	e58d3004 	str	r3, [sp, #4]
    90b4:	eb0000fb 	bl	94a8 <va_printk>
    90b8:	e1a04000 	mov	r4, r0
    90bc:	e59f3020 	ldr	r3, [pc, #32]	; 90e4 <printk+0x54>
    90c0:	e1a00005 	mov	r0, r5
    90c4:	e5933000 	ldr	r3, [r3]
    90c8:	e12fff33 	blx	r3
    90cc:	e1a00004 	mov	r0, r4
    90d0:	e28dd00c 	add	sp, sp, #12, 0
    90d4:	e8bd4030 	pop	{r4, r5, lr}
    90d8:	e28dd010 	add	sp, sp, #16, 0
    90dc:	e12fff1e 	bx	lr
    90e0:	0000af4c 	andeq	sl, r0, ip, asr #30
    90e4:	0000af14 	andeq	sl, r0, r4, lsl pc

000090e8 <internal_putk>:
    90e8:	e92d4070 	push	{r4, r5, r6, lr}
    90ec:	e1a04000 	mov	r4, r0
    90f0:	e5d00000 	ldrb	r0, [r0]
    90f4:	e3500000 	cmp	r0, #0, 0
    90f8:	0a000005 	beq	9114 <internal_putk+0x2c>
    90fc:	e59f5018 	ldr	r5, [pc, #24]	; 911c <internal_putk+0x34>
    9100:	e5953000 	ldr	r3, [r5]
    9104:	e12fff33 	blx	r3
    9108:	e5f40001 	ldrb	r0, [r4, #1]!
    910c:	e3500000 	cmp	r0, #0, 0
    9110:	1afffffa 	bne	9100 <internal_putk+0x18>
    9114:	e3a00001 	mov	r0, #1, 0
    9118:	e8bd8070 	pop	{r4, r5, r6, pc}
    911c:	0000af24 	andeq	sl, r0, r4, lsr #30

00009120 <emit.constprop.0>:
    9120:	e92d41f0 	push	{r4, r5, r6, r7, r8, lr}
    9124:	e3530080 	cmp	r3, #128, 0	; 0x80
    9128:	e1a0c000 	mov	ip, r0
    912c:	e24dd048 	sub	sp, sp, #72, 0	; 0x48
    9130:	e1a00001 	mov	r0, r1
    9134:	ca000069 	bgt	92e0 <emit.constprop.0+0x1c0>
    9138:	e24c1002 	sub	r1, ip, #2, 0
    913c:	e1a0c002 	mov	ip, r2
    9140:	e351000e 	cmp	r1, #14, 0
    9144:	979ff101 	ldrls	pc, [pc, r1, lsl #2]
    9148:	ea0000a7 	b	93ec <emit.constprop.0+0x2cc>
    914c:	000092b8 			; <UNDEFINED> instruction: 0x000092b8
    9150:	000093ec 	andeq	r9, r0, ip, ror #7
    9154:	000093ec 	andeq	r9, r0, ip, ror #7
    9158:	000093ec 	andeq	r9, r0, ip, ror #7
    915c:	000093ec 	andeq	r9, r0, ip, ror #7
    9160:	000093ec 	andeq	r9, r0, ip, ror #7
    9164:	00009394 	muleq	r0, r4, r3
    9168:	000093ec 	andeq	r9, r0, ip, ror #7
    916c:	00009334 	andeq	r9, r0, r4, lsr r3
    9170:	000093ec 	andeq	r9, r0, ip, ror #7
    9174:	000093ec 	andeq	r9, r0, ip, ror #7
    9178:	000093ec 	andeq	r9, r0, ip, ror #7
    917c:	000093ec 	andeq	r9, r0, ip, ror #7
    9180:	000093ec 	andeq	r9, r0, ip, ror #7
    9184:	0000918c 	andeq	r9, r0, ip, lsl #3
    9188:	e3a0307f 	mov	r3, #127, 0	; 0x7f
    918c:	e28d2008 	add	r2, sp, #8, 0
    9190:	e1a04002 	mov	r4, r2
    9194:	e59f1288 	ldr	r1, [pc, #648]	; 9424 <emit.constprop.0+0x304>
    9198:	e20ce00f 	and	lr, ip, #15, 0
    919c:	e7d1e00e 	ldrb	lr, [r1, lr]
    91a0:	e35c000f 	cmp	ip, #15, 0
    91a4:	e4c4e001 	strb	lr, [r4], #1
    91a8:	e1a0c22c 	lsr	ip, ip, #4
    91ac:	8afffff9 	bhi	9198 <emit.constprop.0+0x78>
    91b0:	e3a0c078 	mov	ip, #120, 0	; 0x78
    91b4:	e1a0e004 	mov	lr, r4
    91b8:	e3a01030 	mov	r1, #48, 0	; 0x30
    91bc:	e4cec002 	strb	ip, [lr], #2
    91c0:	e5c41001 	strb	r1, [r4, #1]
    91c4:	e04e1002 	sub	r1, lr, r2
    91c8:	e1510003 	cmp	r1, r3
    91cc:	aa000083 	bge	93e0 <emit.constprop.0+0x2c0>
    91d0:	e1510003 	cmp	r1, r3
    91d4:	a3a0c001 	movge	ip, #1, 0
    91d8:	b3a0c000 	movlt	ip, #0, 0
    91dc:	e2434001 	sub	r4, r3, #1, 0
    91e0:	e0444001 	sub	r4, r4, r1
    91e4:	b0436001 	sublt	r6, r3, r1
    91e8:	a3a06001 	movge	r6, #1, 0
    91ec:	e3540002 	cmp	r4, #2, 0
    91f0:	938cc001 	orrls	ip, ip, #1, 0
    91f4:	e35c0000 	cmp	ip, #0, 0
    91f8:	1a000075 	bne	93d4 <emit.constprop.0+0x2b4>
    91fc:	e1a0c00e 	mov	ip, lr
    9200:	e3c65003 	bic	r5, r6, #3, 0
    9204:	e59f721c 	ldr	r7, [pc, #540]	; 9428 <emit.constprop.0+0x308>
    9208:	e085500e 	add	r5, r5, lr
    920c:	e48c7004 	str	r7, [ip], #4
    9210:	e15c0005 	cmp	ip, r5
    9214:	1afffffc 	bne	920c <emit.constprop.0+0xec>
    9218:	e3c6c003 	bic	ip, r6, #3, 0
    921c:	e156000c 	cmp	r6, ip
    9220:	e08e500c 	add	r5, lr, ip
    9224:	e08cc001 	add	ip, ip, r1
    9228:	0a000008 	beq	9250 <emit.constprop.0+0x130>
    922c:	e3a07020 	mov	r7, #32, 0
    9230:	e28c8001 	add	r8, ip, #1, 0
    9234:	e1580003 	cmp	r8, r3
    9238:	e5c57000 	strb	r7, [r5]
    923c:	aa000003 	bge	9250 <emit.constprop.0+0x130>
    9240:	e28cc002 	add	ip, ip, #2, 0
    9244:	e15c0003 	cmp	ip, r3
    9248:	e5c57001 	strb	r7, [r5, #1]
    924c:	b5c57002 	strblt	r7, [r5, #2]
    9250:	e1510003 	cmp	r1, r3
    9254:	a3a04000 	movge	r4, #0, 0
    9258:	e08e6006 	add	r6, lr, r6
    925c:	e0461002 	sub	r1, r6, r2
    9260:	e08ee004 	add	lr, lr, r4
    9264:	e3a03000 	mov	r3, #0, 0
    9268:	e351007f 	cmp	r1, #127, 0	; 0x7f
    926c:	c241407f 	subgt	r4, r1, #127, 0	; 0x7f
    9270:	c0822004 	addgt	r2, r2, r4
    9274:	e152000e 	cmp	r2, lr
    9278:	e5c63000 	strb	r3, [r6]
    927c:	8a00004f 	bhi	93c0 <emit.constprop.0+0x2a0>
    9280:	e28ee001 	add	lr, lr, #1, 0
    9284:	e1a0300e 	mov	r3, lr
    9288:	e240c001 	sub	ip, r0, #1, 0
    928c:	e5734001 	ldrb	r4, [r3, #-1]!
    9290:	e1530002 	cmp	r3, r2
    9294:	e5ec4001 	strb	r4, [ip, #1]!
    9298:	1afffffb 	bne	928c <emit.constprop.0+0x16c>
    929c:	e04ee003 	sub	lr, lr, r3
    92a0:	e3a03000 	mov	r3, #0, 0
    92a4:	e080e00e 	add	lr, r0, lr
    92a8:	e5ce3000 	strb	r3, [lr]
    92ac:	e28dd048 	add	sp, sp, #72, 0	; 0x48
    92b0:	e8bd81f0 	pop	{r4, r5, r6, r7, r8, pc}
    92b4:	e3a0307f 	mov	r3, #127, 0	; 0x7f
    92b8:	e28d2008 	add	r2, sp, #8, 0
    92bc:	e1a0e002 	mov	lr, r2
    92c0:	e59f1164 	ldr	r1, [pc, #356]	; 942c <emit.constprop.0+0x30c>
    92c4:	e20c4001 	and	r4, ip, #1, 0
    92c8:	e7d14004 	ldrb	r4, [r1, r4]
    92cc:	e35c0001 	cmp	ip, #1, 0
    92d0:	e4ce4001 	strb	r4, [lr], #1
    92d4:	e1a0c0ac 	lsr	ip, ip, #1
    92d8:	8afffff9 	bhi	92c4 <emit.constprop.0+0x1a4>
    92dc:	eaffffb8 	b	91c4 <emit.constprop.0+0xa4>
    92e0:	e24c3002 	sub	r3, ip, #2, 0
    92e4:	e1a0c002 	mov	ip, r2
    92e8:	e353000e 	cmp	r3, #14, 0
    92ec:	979ff103 	ldrls	pc, [pc, r3, lsl #2]
    92f0:	ea00003d 	b	93ec <emit.constprop.0+0x2cc>
    92f4:	000092b4 			; <UNDEFINED> instruction: 0x000092b4
    92f8:	000093ec 	andeq	r9, r0, ip, ror #7
    92fc:	000093ec 	andeq	r9, r0, ip, ror #7
    9300:	000093ec 	andeq	r9, r0, ip, ror #7
    9304:	000093ec 	andeq	r9, r0, ip, ror #7
    9308:	000093ec 	andeq	r9, r0, ip, ror #7
    930c:	0000940c 	andeq	r9, r0, ip, lsl #8
    9310:	000093ec 	andeq	r9, r0, ip, ror #7
    9314:	00009330 	andeq	r9, r0, r0, lsr r3
    9318:	000093ec 	andeq	r9, r0, ip, ror #7
    931c:	000093ec 	andeq	r9, r0, ip, ror #7
    9320:	000093ec 	andeq	r9, r0, ip, ror #7
    9324:	000093ec 	andeq	r9, r0, ip, ror #7
    9328:	000093ec 	andeq	r9, r0, ip, ror #7
    932c:	00009188 	andeq	r9, r0, r8, lsl #3
    9330:	e3a0307f 	mov	r3, #127, 0	; 0x7f
    9334:	e59d1060 	ldr	r1, [sp, #96]	; 0x60
    9338:	e59f70f0 	ldr	r7, [pc, #240]	; 9430 <emit.constprop.0+0x310>
    933c:	e0118fa2 	ands	r8, r1, r2, lsr #31
    9340:	1262c000 	rsbne	ip, r2, #0, 0
    9344:	e28d2008 	add	r2, sp, #8, 0
    9348:	13a08001 	movne	r8, #1, 0
    934c:	e1a0e002 	mov	lr, r2
    9350:	e59f60dc 	ldr	r6, [pc, #220]	; 9434 <emit.constprop.0+0x314>
    9354:	e1a0500c 	mov	r5, ip
    9358:	e0814c96 	umull	r4, r1, r6, ip
    935c:	e1a011a1 	lsr	r1, r1, #3
    9360:	e0814101 	add	r4, r1, r1, lsl #2
    9364:	e04cc084 	sub	ip, ip, r4, lsl #1
    9368:	e7d7400c 	ldrb	r4, [r7, ip]
    936c:	e3550009 	cmp	r5, #9, 0
    9370:	e1a0c001 	mov	ip, r1
    9374:	e1a0100e 	mov	r1, lr
    9378:	e4ce4001 	strb	r4, [lr], #1
    937c:	8afffff4 	bhi	9354 <emit.constprop.0+0x234>
    9380:	e3580000 	cmp	r8, #0, 0
    9384:	13a0c02d 	movne	ip, #45, 0	; 0x2d
    9388:	15cec000 	strbne	ip, [lr]
    938c:	1281e002 	addne	lr, r1, #2, 0
    9390:	eaffff8b 	b	91c4 <emit.constprop.0+0xa4>
    9394:	e3530001 	cmp	r3, #1, 0
    9398:	e5cd2008 	strb	r2, [sp, #8]
    939c:	c3a01001 	movgt	r1, #1, 0
    93a0:	c28de009 	addgt	lr, sp, #9, 0
    93a4:	c28d2008 	addgt	r2, sp, #8, 0
    93a8:	caffff88 	bgt	91d0 <emit.constprop.0+0xb0>
    93ac:	e3a03000 	mov	r3, #0, 0
    93b0:	e28de008 	add	lr, sp, #8, 0
    93b4:	e1a0200e 	mov	r2, lr
    93b8:	e5cd3009 	strb	r3, [sp, #9]
    93bc:	eaffffaf 	b	9280 <emit.constprop.0+0x160>
    93c0:	e1a0e000 	mov	lr, r0
    93c4:	e3a03000 	mov	r3, #0, 0
    93c8:	e5ce3000 	strb	r3, [lr]
    93cc:	e28dd048 	add	sp, sp, #72, 0	; 0x48
    93d0:	e8bd81f0 	pop	{r4, r5, r6, r7, r8, pc}
    93d4:	e1a0c001 	mov	ip, r1
    93d8:	e1a0500e 	mov	r5, lr
    93dc:	eaffff92 	b	922c <emit.constprop.0+0x10c>
    93e0:	e1a0600e 	mov	r6, lr
    93e4:	e24ee001 	sub	lr, lr, #1, 0
    93e8:	eaffff9d 	b	9264 <emit.constprop.0+0x144>
    93ec:	e59f2044 	ldr	r2, [pc, #68]	; 9438 <emit.constprop.0+0x318>
    93f0:	e3a03079 	mov	r3, #121, 0	; 0x79
    93f4:	e59f1040 	ldr	r1, [pc, #64]	; 943c <emit.constprop.0+0x31c>
    93f8:	e58d2000 	str	r2, [sp]
    93fc:	e59f003c 	ldr	r0, [pc, #60]	; 9440 <emit.constprop.0+0x320>
    9400:	e59f203c 	ldr	r2, [pc, #60]	; 9444 <emit.constprop.0+0x324>
    9404:	ebffff21 	bl	9090 <printk>
    9408:	eb0001b1 	bl	9ad4 <clean_reboot>
    940c:	e5cd2008 	strb	r2, [sp, #8]
    9410:	e3a0307f 	mov	r3, #127, 0	; 0x7f
    9414:	e3a01001 	mov	r1, #1, 0
    9418:	e28de009 	add	lr, sp, #9, 0
    941c:	e28d2008 	add	r2, sp, #8, 0
    9420:	eaffff6a 	b	91d0 <emit.constprop.0+0xb0>
    9424:	0000aba0 	andeq	sl, r0, r0, lsr #23
    9428:	20202020 	eorcs	r2, r0, r0, lsr #32
    942c:	0000abb4 			; <UNDEFINED> instruction: 0x0000abb4
    9430:	0000abb8 			; <UNDEFINED> instruction: 0x0000abb8
    9434:	cccccccd 	stclgt	12, cr12, [ip], {205}	; 0xcd
    9438:	0000a9f4 	strdeq	sl, [r0], -r4
    943c:	0000ab8c 	andeq	sl, r0, ip, lsl #23
    9440:	0000a754 	andeq	sl, r0, r4, asr r7
    9444:	0000accc 	andeq	sl, r0, ip, asr #25

00009448 <rpi_set_output>:
    9448:	e3500000 	cmp	r0, #0, 0
    944c:	0a000005 	beq	9468 <rpi_set_output+0x20>
    9450:	e59f3038 	ldr	r3, [pc, #56]	; 9490 <rpi_set_output+0x48>
    9454:	e3510000 	cmp	r1, #0, 0
    9458:	e5830000 	str	r0, [r3]
    945c:	159f3030 	ldrne	r3, [pc, #48]	; 9494 <rpi_set_output+0x4c>
    9460:	15831000 	strne	r1, [r3]
    9464:	e12fff1e 	bx	lr
    9468:	e52de004 	push	{lr}		; (str lr, [sp, #-4]!)
    946c:	e59f2024 	ldr	r2, [pc, #36]	; 9498 <rpi_set_output+0x50>
    9470:	e24dd00c 	sub	sp, sp, #12, 0
    9474:	e3a03020 	mov	r3, #32, 0
    9478:	e59f101c 	ldr	r1, [pc, #28]	; 949c <rpi_set_output+0x54>
    947c:	e58d2000 	str	r2, [sp]
    9480:	e59f0018 	ldr	r0, [pc, #24]	; 94a0 <rpi_set_output+0x58>
    9484:	e59f2018 	ldr	r2, [pc, #24]	; 94a4 <rpi_set_output+0x5c>
    9488:	ebffff00 	bl	9090 <printk>
    948c:	eb000190 	bl	9ad4 <clean_reboot>
    9490:	0000af24 	andeq	sl, r0, r4, lsr #30
    9494:	0000af14 	andeq	sl, r0, r4, lsl pc
    9498:	0000abc4 	andeq	sl, r0, r4, asr #23
    949c:	0000ab8c 	andeq	sl, r0, ip, lsl #23
    94a0:	0000a754 	andeq	sl, r0, r4, asr r7
    94a4:	0000acd4 	ldrdeq	sl, [r0], -r4

000094a8 <va_printk>:
    94a8:	e92d4ff0 	push	{r4, r5, r6, r7, r8, r9, sl, fp, lr}
    94ac:	e1a0b000 	mov	fp, r0
    94b0:	e3a00000 	mov	r0, #0, 0
    94b4:	e5cb0000 	strb	r0, [fp]
    94b8:	e5d2c000 	ldrb	ip, [r2]
    94bc:	e2417001 	sub	r7, r1, #1, 0
    94c0:	e08b7007 	add	r7, fp, r7
    94c4:	e15c0000 	cmp	ip, r0
    94c8:	115b0007 	cmpne	fp, r7
    94cc:	e24ddf47 	sub	sp, sp, #284	; 0x11c
    94d0:	e58d2010 	str	r2, [sp, #16]
    94d4:	2a000159 	bcs	9a40 <va_printk+0x598>
    94d8:	e1a06002 	mov	r6, r2
    94dc:	e1a08003 	mov	r8, r3
    94e0:	e1a0400b 	mov	r4, fp
    94e4:	e59fa5a4 	ldr	sl, [pc, #1444]	; 9a90 <va_printk+0x5e8>
    94e8:	e58db00c 	str	fp, [sp, #12]
    94ec:	ea000005 	b	9508 <va_printk+0x60>
    94f0:	e4c4c001 	strb	ip, [r4], #1
    94f4:	e2866001 	add	r6, r6, #1, 0
    94f8:	e5d6c000 	ldrb	ip, [r6]
    94fc:	e35c0000 	cmp	ip, #0, 0
    9500:	11570004 	cmpne	r7, r4
    9504:	9a00002f 	bls	95c8 <va_printk+0x120>
    9508:	e35c0025 	cmp	ip, #37, 0	; 0x25
    950c:	1afffff7 	bne	94f0 <va_printk+0x48>
    9510:	e5d62001 	ldrb	r2, [r6, #1]
    9514:	e3520025 	cmp	r2, #37, 0	; 0x25
    9518:	04c4c001 	strbeq	ip, [r4], #1
    951c:	02866002 	addeq	r6, r6, #2, 0
    9520:	0afffff4 	beq	94f8 <va_printk+0x50>
    9524:	e2423030 	sub	r3, r2, #48, 0	; 0x30
    9528:	e3530009 	cmp	r3, #9, 0
    952c:	e3a05000 	mov	r5, #0, 0
    9530:	e2866001 	add	r6, r6, #1, 0
    9534:	8a000008 	bhi	955c <va_printk+0xb4>
    9538:	e0855105 	add	r5, r5, r5, lsl #2
    953c:	e0825085 	add	r5, r2, r5, lsl #1
    9540:	e5f62001 	ldrb	r2, [r6, #1]!
    9544:	e2455030 	sub	r5, r5, #48, 0	; 0x30
    9548:	e2423030 	sub	r3, r2, #48, 0	; 0x30
    954c:	e3530009 	cmp	r3, #9, 0
    9550:	9afffff8 	bls	9538 <va_printk+0x90>
    9554:	e355001f 	cmp	r5, #31, 0
    9558:	8a00013a 	bhi	9a48 <va_printk+0x5a0>
    955c:	e2423062 	sub	r3, r2, #98, 0	; 0x62
    9560:	e3530016 	cmp	r3, #22, 0
    9564:	979ff103 	ldrls	pc, [pc, r3, lsl #2]
    9568:	ea00011b 	b	99dc <va_printk+0x534>
    956c:	00009820 	andeq	r9, r0, r0, lsr #16
    9570:	0000971c 	andeq	r9, r0, ip, lsl r7
    9574:	00009714 	andeq	r9, r0, r4, lsl r7
    9578:	000099dc 	ldrdeq	r9, [r0], -ip
    957c:	00009a18 	andeq	r9, r0, r8, lsl sl
    9580:	000099dc 	ldrdeq	r9, [r0], -ip
    9584:	000099dc 	ldrdeq	r9, [r0], -ip
    9588:	000099dc 	ldrdeq	r9, [r0], -ip
    958c:	000099dc 	ldrdeq	r9, [r0], -ip
    9590:	000099dc 	ldrdeq	r9, [r0], -ip
    9594:	00009624 	andeq	r9, r0, r4, lsr #12
    9598:	000099dc 	ldrdeq	r9, [r0], -ip
    959c:	000099dc 	ldrdeq	r9, [r0], -ip
    95a0:	000099dc 	ldrdeq	r9, [r0], -ip
    95a4:	000095e0 	andeq	r9, r0, r0, ror #11
    95a8:	000099dc 	ldrdeq	r9, [r0], -ip
    95ac:	000099dc 	ldrdeq	r9, [r0], -ip
    95b0:	00009918 	andeq	r9, r0, r8, lsl r9
    95b4:	000099dc 	ldrdeq	r9, [r0], -ip
    95b8:	000096f0 	strdeq	r9, [r0], -r0
    95bc:	000099dc 	ldrdeq	r9, [r0], -ip
    95c0:	000099dc 	ldrdeq	r9, [r0], -ip
    95c4:	000095e0 	andeq	r9, r0, r0, ror #11
    95c8:	e59db00c 	ldr	fp, [sp, #12]
    95cc:	e3a03000 	mov	r3, #0, 0
    95d0:	e4c43001 	strb	r3, [r4], #1
    95d4:	e044000b 	sub	r0, r4, fp
    95d8:	e28ddf47 	add	sp, sp, #284	; 0x11c
    95dc:	e8bd8ff0 	pop	{r4, r5, r6, r7, r8, r9, sl, fp, pc}
    95e0:	e3a01000 	mov	r1, #0, 0
    95e4:	e1a03005 	mov	r3, r5
    95e8:	e4982004 	ldr	r2, [r8], #4
    95ec:	e3a00010 	mov	r0, #16, 0
    95f0:	e58d1000 	str	r1, [sp]
    95f4:	e28d1018 	add	r1, sp, #24, 0
    95f8:	ebfffec8 	bl	9120 <emit.constprop.0>
    95fc:	e1a05000 	mov	r5, r0
    9600:	e2866001 	add	r6, r6, #1, 0
    9604:	e2455001 	sub	r5, r5, #1, 0
    9608:	e5f53001 	ldrb	r3, [r5, #1]!
    960c:	e3530000 	cmp	r3, #0, 0
    9610:	0affffb8 	beq	94f8 <va_printk+0x50>
    9614:	e4c43001 	strb	r3, [r4], #1
    9618:	e1570004 	cmp	r7, r4
    961c:	8afffff9 	bhi	9608 <va_printk+0x160>
    9620:	eaffffb4 	b	94f8 <va_printk+0x50>
    9624:	e3a02003 	mov	r2, #3, 0
    9628:	e1a00006 	mov	r0, r6
    962c:	e59f1460 	ldr	r1, [pc, #1120]	; 9a94 <va_printk+0x5ec>
    9630:	eb0003e6 	bl	a5d0 <strncmp>
    9634:	e3500000 	cmp	r0, #0, 0
    9638:	0a000005 	beq	9654 <va_printk+0x1ac>
    963c:	e3a02003 	mov	r2, #3, 0
    9640:	e1a00006 	mov	r0, r6
    9644:	e59f144c 	ldr	r1, [pc, #1100]	; 9a98 <va_printk+0x5f0>
    9648:	eb0003e0 	bl	a5d0 <strncmp>
    964c:	e3500000 	cmp	r0, #0, 0
    9650:	1a00010b 	bne	9a84 <va_printk+0x5dc>
    9654:	e2888007 	add	r8, r8, #7, 0
    9658:	e3c88007 	bic	r8, r8, #7, 0
    965c:	e598b004 	ldr	fp, [r8, #4]
    9660:	e4989008 	ldr	r9, [r8], #8
    9664:	e1a0100b 	mov	r1, fp
    9668:	e59f042c 	ldr	r0, [pc, #1068]	; 9a9c <va_printk+0x5f4>
    966c:	ebfffe87 	bl	9090 <printk>
    9670:	e1a01009 	mov	r1, r9
    9674:	e59f0424 	ldr	r0, [pc, #1060]	; 9aa0 <va_printk+0x5f8>
    9678:	ebfffe84 	bl	9090 <printk>
    967c:	e3a02003 	mov	r2, #3, 0
    9680:	e1a00006 	mov	r0, r6
    9684:	e59f1408 	ldr	r1, [pc, #1032]	; 9a94 <va_printk+0x5ec>
    9688:	eb0003d0 	bl	a5d0 <strncmp>
    968c:	e2503000 	subs	r3, r0, #0, 0
    9690:	e1a02003 	mov	r2, r3
    9694:	e2863002 	add	r3, r6, #2, 0
    9698:	e58d3014 	str	r3, [sp, #20]
    969c:	1a00009f 	bne	9920 <va_printk+0x478>
    96a0:	e1a06002 	mov	r6, r2
    96a4:	e1a03005 	mov	r3, r5
    96a8:	e58d2000 	str	r2, [sp]
    96ac:	e28d1018 	add	r1, sp, #24, 0
    96b0:	e1a0200b 	mov	r2, fp
    96b4:	e3a00010 	mov	r0, #16, 0
    96b8:	ebfffe98 	bl	9120 <emit.constprop.0>
    96bc:	e1a0c000 	mov	ip, r0
    96c0:	e1a03005 	mov	r3, r5
    96c4:	e58d6000 	str	r6, [sp]
    96c8:	e28d1098 	add	r1, sp, #152, 0	; 0x98
    96cc:	e1a02009 	mov	r2, r9
    96d0:	e3a00010 	mov	r0, #16, 0
    96d4:	e1a0500c 	mov	r5, ip
    96d8:	ebfffe90 	bl	9120 <emit.constprop.0>
    96dc:	e28d0018 	add	r0, sp, #24, 0
    96e0:	e28d109a 	add	r1, sp, #154, 0	; 0x9a
    96e4:	e59d6014 	ldr	r6, [sp, #20]
    96e8:	eb000396 	bl	a548 <strcat>
    96ec:	eaffffc3 	b	9600 <va_printk+0x158>
    96f0:	e3a01000 	mov	r1, #0, 0
    96f4:	e1a03005 	mov	r3, r5
    96f8:	e4982004 	ldr	r2, [r8], #4
    96fc:	e3a0000a 	mov	r0, #10, 0
    9700:	e58d1000 	str	r1, [sp]
    9704:	e28d1018 	add	r1, sp, #24, 0
    9708:	ebfffe84 	bl	9120 <emit.constprop.0>
    970c:	e1a05000 	mov	r5, r0
    9710:	eaffffba 	b	9600 <va_printk+0x158>
    9714:	e3a01001 	mov	r1, #1, 0
    9718:	eafffff5 	b	96f4 <va_printk+0x24c>
    971c:	e4983004 	ldr	r3, [r8], #4
    9720:	e3550001 	cmp	r5, #1, 0
    9724:	e5cd3098 	strb	r3, [sp, #152]	; 0x98
    9728:	9a0000a6 	bls	99c8 <va_printk+0x520>
    972c:	e2453002 	sub	r3, r5, #2, 0
    9730:	e3530002 	cmp	r3, #2, 0
    9734:	e2451001 	sub	r1, r5, #1, 0
    9738:	9a0000bc 	bls	9a30 <va_printk+0x588>
    973c:	e59f0360 	ldr	r0, [pc, #864]	; 9aa4 <va_printk+0x5fc>
    9740:	e1a02121 	lsr	r2, r1, #2
    9744:	e3520001 	cmp	r2, #1, 0
    9748:	e58d0099 	str	r0, [sp, #153]	; 0x99
    974c:	0a00000e 	beq	978c <va_printk+0x2e4>
    9750:	e3520002 	cmp	r2, #2, 0
    9754:	e58d009d 	str	r0, [sp, #157]	; 0x9d
    9758:	0a00000b 	beq	978c <va_printk+0x2e4>
    975c:	e3520003 	cmp	r2, #3, 0
    9760:	e58d00a1 	str	r0, [sp, #161]	; 0xa1
    9764:	0a000008 	beq	978c <va_printk+0x2e4>
    9768:	e3520004 	cmp	r2, #4, 0
    976c:	e58d00a5 	str	r0, [sp, #165]	; 0xa5
    9770:	0a000005 	beq	978c <va_printk+0x2e4>
    9774:	e3520005 	cmp	r2, #5, 0
    9778:	e58d00a9 	str	r0, [sp, #169]	; 0xa9
    977c:	0a000002 	beq	978c <va_printk+0x2e4>
    9780:	e3520007 	cmp	r2, #7, 0
    9784:	e58d00ad 	str	r0, [sp, #173]	; 0xad
    9788:	058d00b1 	streq	r0, [sp, #177]	; 0xb1
    978c:	e3c12003 	bic	r2, r1, #3, 0
    9790:	e1510002 	cmp	r1, r2
    9794:	e28dc099 	add	ip, sp, #153, 0	; 0x99
    9798:	e08c0002 	add	r0, ip, r2
    979c:	e2822001 	add	r2, r2, #1, 0
    97a0:	0a000008 	beq	97c8 <va_printk+0x320>
    97a4:	e3a0e020 	mov	lr, #32, 0
    97a8:	e2829001 	add	r9, r2, #1, 0
    97ac:	e1550009 	cmp	r5, r9
    97b0:	e5c0e000 	strb	lr, [r0]
    97b4:	da000003 	ble	97c8 <va_printk+0x320>
    97b8:	e2822002 	add	r2, r2, #2, 0
    97bc:	e1550002 	cmp	r5, r2
    97c0:	e5c0e001 	strb	lr, [r0, #1]
    97c4:	c5c0e002 	strbgt	lr, [r0, #2]
    97c8:	e3a0e000 	mov	lr, #0, 0
    97cc:	e28d0098 	add	r0, sp, #152, 0	; 0x98
    97d0:	e08c2001 	add	r2, ip, r1
    97d4:	e0422000 	sub	r2, r2, r0
    97d8:	e352007f 	cmp	r2, #127, 0	; 0x7f
    97dc:	c242207f 	subgt	r2, r2, #127, 0	; 0x7f
    97e0:	e08c3003 	add	r3, ip, r3
    97e4:	c0800002 	addgt	r0, r0, r2
    97e8:	e1530000 	cmp	r3, r0
    97ec:	e7cce001 	strb	lr, [ip, r1]
    97f0:	3a00006c 	bcc	99a8 <va_printk+0x500>
    97f4:	e283c001 	add	ip, r3, #1, 0
    97f8:	e1a0300c 	mov	r3, ip
    97fc:	e28d5018 	add	r5, sp, #24, 0
    9800:	e2452001 	sub	r2, r5, #1, 0
    9804:	e5731001 	ldrb	r1, [r3, #-1]!
    9808:	e1500003 	cmp	r0, r3
    980c:	e5e21001 	strb	r1, [r2, #1]!
    9810:	1afffffb 	bne	9804 <va_printk+0x35c>
    9814:	e04c3000 	sub	r3, ip, r0
    9818:	e0853003 	add	r3, r5, r3
    981c:	ea00003a 	b	990c <va_printk+0x464>
    9820:	e28d1098 	add	r1, sp, #152, 0	; 0x98
    9824:	e1a03001 	mov	r3, r1
    9828:	e4980004 	ldr	r0, [r8], #4
    982c:	e200c001 	and	ip, r0, #1, 0
    9830:	e7dac00c 	ldrb	ip, [sl, ip]
    9834:	e3500001 	cmp	r0, #1, 0
    9838:	e1a02003 	mov	r2, r3
    983c:	e1a000a0 	lsr	r0, r0, #1
    9840:	e4c3c001 	strb	ip, [r3], #1
    9844:	8afffff8 	bhi	982c <va_printk+0x384>
    9848:	e0430001 	sub	r0, r3, r1
    984c:	e1550000 	cmp	r5, r0
    9850:	da000057 	ble	99b4 <va_printk+0x50c>
    9854:	e045c000 	sub	ip, r5, r0
    9858:	e24ce001 	sub	lr, ip, #1, 0
    985c:	e35e0002 	cmp	lr, #2, 0
    9860:	e1a0e003 	mov	lr, r3
    9864:	9a00000a 	bls	9894 <va_printk+0x3ec>
    9868:	e3cc9003 	bic	r9, ip, #3, 0
    986c:	e0899003 	add	r9, r9, r3
    9870:	e59fb22c 	ldr	fp, [pc, #556]	; 9aa4 <va_printk+0x5fc>
    9874:	e48eb004 	str	fp, [lr], #4
    9878:	e15e0009 	cmp	lr, r9
    987c:	1afffffb 	bne	9870 <va_printk+0x3c8>
    9880:	e3cce003 	bic	lr, ip, #3, 0
    9884:	e15e000c 	cmp	lr, ip
    9888:	e080000e 	add	r0, r0, lr
    988c:	e083e00e 	add	lr, r3, lr
    9890:	0a000008 	beq	98b8 <va_printk+0x410>
    9894:	e3a09020 	mov	r9, #32, 0
    9898:	e280b001 	add	fp, r0, #1, 0
    989c:	e155000b 	cmp	r5, fp
    98a0:	e5ce9000 	strb	r9, [lr]
    98a4:	da000003 	ble	98b8 <va_printk+0x410>
    98a8:	e2800002 	add	r0, r0, #2, 0
    98ac:	e1550000 	cmp	r5, r0
    98b0:	e5ce9001 	strb	r9, [lr, #1]
    98b4:	c5ce9002 	strbgt	r9, [lr, #2]
    98b8:	e3a0e000 	mov	lr, #0, 0
    98bc:	e083000c 	add	r0, r3, ip
    98c0:	e0400001 	sub	r0, r0, r1
    98c4:	e350007f 	cmp	r0, #127, 0	; 0x7f
    98c8:	e082200c 	add	r2, r2, ip
    98cc:	e7c3e00c 	strb	lr, [r3, ip]
    98d0:	da000001 	ble	98dc <va_printk+0x434>
    98d4:	e240007f 	sub	r0, r0, #127, 0	; 0x7f
    98d8:	e0811000 	add	r1, r1, r0
    98dc:	e1510002 	cmp	r1, r2
    98e0:	8a000030 	bhi	99a8 <va_printk+0x500>
    98e4:	e2822001 	add	r2, r2, #1, 0
    98e8:	e1a03002 	mov	r3, r2
    98ec:	e28d5018 	add	r5, sp, #24, 0
    98f0:	e245c001 	sub	ip, r5, #1, 0
    98f4:	e5730001 	ldrb	r0, [r3, #-1]!
    98f8:	e1530001 	cmp	r3, r1
    98fc:	e5ec0001 	strb	r0, [ip, #1]!
    9900:	1afffffb 	bne	98f4 <va_printk+0x44c>
    9904:	e0423003 	sub	r3, r2, r3
    9908:	e0853003 	add	r3, r5, r3
    990c:	e3a02000 	mov	r2, #0, 0
    9910:	e5c32000 	strb	r2, [r3]
    9914:	eaffff39 	b	9600 <va_printk+0x158>
    9918:	e4985004 	ldr	r5, [r8], #4
    991c:	eaffff37 	b	9600 <va_printk+0x158>
    9920:	e3a02003 	mov	r2, #3, 0
    9924:	e1a00006 	mov	r0, r6
    9928:	e59f1168 	ldr	r1, [pc, #360]	; 9a98 <va_printk+0x5f0>
    992c:	eb000327 	bl	a5d0 <strncmp>
    9930:	e2503000 	subs	r3, r0, #0, 0
    9934:	1a00004b 	bne	9a68 <va_printk+0x5c0>
    9938:	e1a06003 	mov	r6, r3
    993c:	e1a0200b 	mov	r2, fp
    9940:	e58d3000 	str	r3, [sp]
    9944:	e28d1018 	add	r1, sp, #24, 0
    9948:	e1a03005 	mov	r3, r5
    994c:	e3a0000a 	mov	r0, #10, 0
    9950:	ebfffdf2 	bl	9120 <emit.constprop.0>
    9954:	e1a0c000 	mov	ip, r0
    9958:	e1a03005 	mov	r3, r5
    995c:	e1a02009 	mov	r2, r9
    9960:	e28d1098 	add	r1, sp, #152, 0	; 0x98
    9964:	e3a0000a 	mov	r0, #10, 0
    9968:	e58d6000 	str	r6, [sp]
    996c:	e1a0500c 	mov	r5, ip
    9970:	ebfffdea 	bl	9120 <emit.constprop.0>
    9974:	e59f112c 	ldr	r1, [pc, #300]	; 9aa8 <va_printk+0x600>
    9978:	e28d0018 	add	r0, sp, #24, 0
    997c:	eb0002fc 	bl	a574 <strcmp>
    9980:	e3500000 	cmp	r0, #0, 0
    9984:	e28d1098 	add	r1, sp, #152, 0	; 0x98
    9988:	e28d0018 	add	r0, sp, #24, 0
    998c:	1a000002 	bne	999c <va_printk+0x4f4>
    9990:	eb000308 	bl	a5b8 <strcpy>
    9994:	e59d6014 	ldr	r6, [sp, #20]
    9998:	eaffff18 	b	9600 <va_printk+0x158>
    999c:	eb0002e9 	bl	a548 <strcat>
    99a0:	e59d6014 	ldr	r6, [sp, #20]
    99a4:	eaffff15 	b	9600 <va_printk+0x158>
    99a8:	e28d5018 	add	r5, sp, #24, 0
    99ac:	e1a03005 	mov	r3, r5
    99b0:	eaffffd5 	b	990c <va_printk+0x464>
    99b4:	e3a0c000 	mov	ip, #0, 0
    99b8:	e350007f 	cmp	r0, #127, 0	; 0x7f
    99bc:	e5c3c000 	strb	ip, [r3]
    99c0:	caffffc3 	bgt	98d4 <va_printk+0x42c>
    99c4:	eaffffc6 	b	98e4 <va_printk+0x43c>
    99c8:	e3a02000 	mov	r2, #0, 0
    99cc:	e28d3098 	add	r3, sp, #152, 0	; 0x98
    99d0:	e1a00003 	mov	r0, r3
    99d4:	e5cd2099 	strb	r2, [sp, #153]	; 0x99
    99d8:	eaffff85 	b	97f4 <va_printk+0x34c>
    99dc:	e3a03000 	mov	r3, #0, 0
    99e0:	e1a01002 	mov	r1, r2
    99e4:	e5c63001 	strb	r3, [r6, #1]
    99e8:	e59f00bc 	ldr	r0, [pc, #188]	; 9aac <va_printk+0x604>
    99ec:	ebfffda7 	bl	9090 <printk>
    99f0:	e59f30b8 	ldr	r3, [pc, #184]	; 9ab0 <va_printk+0x608>
    99f4:	e59d0010 	ldr	r0, [sp, #16]
    99f8:	e5933000 	ldr	r3, [r3]
    99fc:	e12fff33 	blx	r3
    9a00:	e3a030e2 	mov	r3, #226, 0	; 0xe2
    9a04:	e59f20a8 	ldr	r2, [pc, #168]	; 9ab4 <va_printk+0x60c>
    9a08:	e59f10a8 	ldr	r1, [pc, #168]	; 9ab8 <va_printk+0x610>
    9a0c:	e59f00a8 	ldr	r0, [pc, #168]	; 9abc <va_printk+0x614>
    9a10:	ebfffd9e 	bl	9090 <printk>
    9a14:	eb00002e 	bl	9ad4 <clean_reboot>
    9a18:	e3a030be 	mov	r3, #190, 0	; 0xbe
    9a1c:	e59f2090 	ldr	r2, [pc, #144]	; 9ab4 <va_printk+0x60c>
    9a20:	e59f1090 	ldr	r1, [pc, #144]	; 9ab8 <va_printk+0x610>
    9a24:	e59f0094 	ldr	r0, [pc, #148]	; 9ac0 <va_printk+0x618>
    9a28:	ebfffd98 	bl	9090 <printk>
    9a2c:	eb000028 	bl	9ad4 <clean_reboot>
    9a30:	e28dc099 	add	ip, sp, #153, 0	; 0x99
    9a34:	e1a0000c 	mov	r0, ip
    9a38:	e3a02001 	mov	r2, #1, 0
    9a3c:	eaffff58 	b	97a4 <va_printk+0x2fc>
    9a40:	e1a0400b 	mov	r4, fp
    9a44:	eafffee0 	b	95cc <va_printk+0x124>
    9a48:	e3a03098 	mov	r3, #152, 0	; 0x98
    9a4c:	e59f2070 	ldr	r2, [pc, #112]	; 9ac4 <va_printk+0x61c>
    9a50:	e59f1060 	ldr	r1, [pc, #96]	; 9ab8 <va_printk+0x610>
    9a54:	e58d2000 	str	r2, [sp]
    9a58:	e59f0068 	ldr	r0, [pc, #104]	; 9ac8 <va_printk+0x620>
    9a5c:	e59f2050 	ldr	r2, [pc, #80]	; 9ab4 <va_printk+0x60c>
    9a60:	ebfffd8a 	bl	9090 <printk>
    9a64:	eb00001a 	bl	9ad4 <clean_reboot>
    9a68:	e3a030b6 	mov	r3, #182, 0	; 0xb6
    9a6c:	e59f2040 	ldr	r2, [pc, #64]	; 9ab4 <va_printk+0x60c>
    9a70:	e59f1040 	ldr	r1, [pc, #64]	; 9ab8 <va_printk+0x610>
    9a74:	e59f0050 	ldr	r0, [pc, #80]	; 9acc <va_printk+0x624>
    9a78:	e58d6000 	str	r6, [sp]
    9a7c:	ebfffd83 	bl	9090 <printk>
    9a80:	eb000013 	bl	9ad4 <clean_reboot>
    9a84:	e3a0309f 	mov	r3, #159, 0	; 0x9f
    9a88:	e59f2040 	ldr	r2, [pc, #64]	; 9ad0 <va_printk+0x628>
    9a8c:	eaffffef 	b	9a50 <va_printk+0x5a8>
    9a90:	0000abb4 			; <UNDEFINED> instruction: 0x0000abb4
    9a94:	0000abd8 	ldrdeq	sl, [r0], -r8
    9a98:	0000abec 	andeq	sl, r0, ip, ror #23
    9a9c:	0000abdc 	ldrdeq	sl, [r0], -ip
    9aa0:	0000abe4 	andeq	sl, r0, r4, ror #23
    9aa4:	20202020 	eorcs	r2, r0, r0, lsr #32
    9aa8:	0000a9f4 	strdeq	sl, [r0], -r4
    9aac:	0000ac7c 	andeq	sl, r0, ip, ror ip
    9ab0:	0000af14 	andeq	sl, r0, r4, lsl pc
    9ab4:	0000ace4 	andeq	sl, r0, r4, ror #25
    9ab8:	0000ab8c 	andeq	sl, r0, ip, lsl #23
    9abc:	0000acac 	andeq	sl, r0, ip, lsr #25
    9ac0:	0000ac54 	andeq	sl, r0, r4, asr ip
    9ac4:	0000abcc 	andeq	sl, r0, ip, asr #23
    9ac8:	0000a754 	andeq	sl, r0, r4, asr r7
    9acc:	0000ac2c 	andeq	sl, r0, ip, lsr #24
    9ad0:	0000abf0 	strdeq	sl, [r0], -r0

00009ad4 <clean_reboot>:
    9ad4:	e59f301c 	ldr	r3, [pc, #28]	; 9af8 <clean_reboot+0x24>
    9ad8:	e92d4010 	push	{r4, lr}
    9adc:	e5933000 	ldr	r3, [r3]
    9ae0:	e59f0014 	ldr	r0, [pc, #20]	; 9afc <clean_reboot+0x28>
    9ae4:	e12fff33 	blx	r3
    9ae8:	eb000127 	bl	9f8c <uart_flush_tx>
    9aec:	e3a0000a 	mov	r0, #10, 0
    9af0:	eb00008e 	bl	9d30 <delay_ms>
    9af4:	eb000057 	bl	9c58 <rpi_reboot>
    9af8:	0000af14 	andeq	sl, r0, r4, lsl pc
    9afc:	0000acf0 	strdeq	sl, [r0], -r0

00009b00 <_cstart>:
    9b00:	e92d4070 	push	{r4, r5, r6, lr}
    9b04:	eb000047 	bl	9c28 <custom_loader>
    9b08:	e59f2108 	ldr	r2, [pc, #264]	; 9c18 <_cstart+0x118>
    9b0c:	e59fc108 	ldr	ip, [pc, #264]	; 9c1c <_cstart+0x11c>
    9b10:	e152000c 	cmp	r2, ip
    9b14:	2a00002e 	bcs	9bd4 <_cstart+0xd4>
    9b18:	e24c1001 	sub	r1, ip, #1, 0
    9b1c:	e0411002 	sub	r1, r1, r2
    9b20:	e3510017 	cmp	r1, #23, 0
    9b24:	e1a03122 	lsr	r3, r2, #2
    9b28:	e1a01121 	lsr	r1, r1, #2
    9b2c:	e2811001 	add	r1, r1, #1, 0
    9b30:	e2033001 	and	r3, r3, #1, 0
    9b34:	9a000035 	bls	9c10 <_cstart+0x110>
    9b38:	e3530000 	cmp	r3, #0, 0
    9b3c:	11a00002 	movne	r0, r2
    9b40:	13a0e000 	movne	lr, #0, 0
    9b44:	e3a04000 	mov	r4, #0, 0
    9b48:	e3a05000 	mov	r5, #0, 0
    9b4c:	e0411003 	sub	r1, r1, r3
    9b50:	01a00002 	moveq	r0, r2
    9b54:	e0823103 	add	r3, r2, r3, lsl #2
    9b58:	e1a020a1 	lsr	r2, r1, #1
    9b5c:	1480e004 	strne	lr, [r0], #4
    9b60:	e0832182 	add	r2, r3, r2, lsl #3
    9b64:	e0c340f8 	strd	r4, [r3], #8
    9b68:	e1520003 	cmp	r2, r3
    9b6c:	1afffffc 	bne	9b64 <_cstart+0x64>
    9b70:	e3c13001 	bic	r3, r1, #1, 0
    9b74:	e1510003 	cmp	r1, r3
    9b78:	e0803103 	add	r3, r0, r3, lsl #2
    9b7c:	0a000014 	beq	9bd4 <_cstart+0xd4>
    9b80:	e1a01003 	mov	r1, r3
    9b84:	e3a02000 	mov	r2, #0, 0
    9b88:	e4812004 	str	r2, [r1], #4
    9b8c:	e151000c 	cmp	r1, ip
    9b90:	2a00000f 	bcs	9bd4 <_cstart+0xd4>
    9b94:	e2831008 	add	r1, r3, #8, 0
    9b98:	e151000c 	cmp	r1, ip
    9b9c:	e5832004 	str	r2, [r3, #4]
    9ba0:	2a00000b 	bcs	9bd4 <_cstart+0xd4>
    9ba4:	e283100c 	add	r1, r3, #12, 0
    9ba8:	e151000c 	cmp	r1, ip
    9bac:	e5832008 	str	r2, [r3, #8]
    9bb0:	2a000007 	bcs	9bd4 <_cstart+0xd4>
    9bb4:	e2831010 	add	r1, r3, #16, 0
    9bb8:	e151000c 	cmp	r1, ip
    9bbc:	e583200c 	str	r2, [r3, #12]
    9bc0:	2a000003 	bcs	9bd4 <_cstart+0xd4>
    9bc4:	e2831014 	add	r1, r3, #20, 0
    9bc8:	e151000c 	cmp	r1, ip
    9bcc:	e5832010 	str	r2, [r3, #16]
    9bd0:	35832014 	strcc	r2, [r3, #20]
    9bd4:	eb00008e 	bl	9e14 <uart_init>
    9bd8:	e3a03001 	mov	r3, #1, 0
    9bdc:	ee0f3f1c 	mcr	15, 0, r3, cr15, cr12, {0}
    9be0:	ee1f3f3c 	mrc	15, 0, r3, cr15, cr12, {1}
    9be4:	e59f4034 	ldr	r4, [pc, #52]	; 9c20 <_cstart+0x120>
    9be8:	e5843000 	str	r3, [r4]
    9bec:	ebfff91d 	bl	8068 <notmain>
    9bf0:	ee1f3f3c 	mrc	15, 0, r3, cr15, cr12, {1}
    9bf4:	e5941000 	ldr	r1, [r4]
    9bf8:	e59f0024 	ldr	r0, [pc, #36]	; 9c24 <_cstart+0x124>
    9bfc:	e3510000 	cmp	r1, #0, 0
    9c00:	10431001 	subne	r1, r3, r1
    9c04:	e5843000 	str	r3, [r4]
    9c08:	ebfffd20 	bl	9090 <printk>
    9c0c:	ebffffb0 	bl	9ad4 <clean_reboot>
    9c10:	e1a03002 	mov	r3, r2
    9c14:	eaffffd9 	b	9b80 <_cstart+0x80>
    9c18:	0000af28 	andeq	sl, r0, r8, lsr #30
    9c1c:	0000b358 	andeq	fp, r0, r8, asr r3
    9c20:	0000b34c 	andeq	fp, r0, ip, asr #6
    9c24:	0000acfc 	strdeq	sl, [r0], -ip

00009c28 <custom_loader>:
    9c28:	e12fff1e 	bx	lr

00009c2c <at_user_level>:
    9c2c:	e10f0000 	mrs	r0, CPSR
    9c30:	e200001f 	and	r0, r0, #31, 0
    9c34:	e2400010 	sub	r0, r0, #16, 0
    9c38:	e16f0f10 	clz	r0, r0
    9c3c:	e1a002a0 	lsr	r0, r0, #5
    9c40:	e12fff1e 	bx	lr

00009c44 <set_user_level>:
    9c44:	e10f3000 	mrs	r3, CPSR
    9c48:	e3c3301f 	bic	r3, r3, #31, 0
    9c4c:	e3833010 	orr	r3, r3, #16, 0
    9c50:	e129f003 	msr	CPSR_fc, r3
    9c54:	e12fff1e 	bx	lr

00009c58 <rpi_reboot>:
    9c58:	e92d4010 	push	{r4, lr}
    9c5c:	e10f3000 	mrs	r3, CPSR
    9c60:	e203301f 	and	r3, r3, #31, 0
    9c64:	e3530010 	cmp	r3, #16, 0
    9c68:	1a000003 	bne	9c7c <rpi_reboot+0x24>
    9c6c:	e10f3000 	mrs	r3, CPSR
    9c70:	e3c3301f 	bic	r3, r3, #31, 0
    9c74:	e3833010 	orr	r3, r3, #16, 0
    9c78:	e129f003 	msr	CPSR_fc, r3
    9c7c:	eb00025f 	bl	a600 <reboot_callout>
    9c80:	eb0000c1 	bl	9f8c <uart_flush_tx>
    9c84:	e3a0000a 	mov	r0, #10, 0
    9c88:	eb000028 	bl	9d30 <delay_ms>
    9c8c:	e59f1014 	ldr	r1, [pc, #20]	; 9ca8 <rpi_reboot+0x50>
    9c90:	e59f0014 	ldr	r0, [pc, #20]	; 9cac <rpi_reboot+0x54>
    9c94:	ebfff8e2 	bl	8024 <PUT32>
    9c98:	e59f1010 	ldr	r1, [pc, #16]	; 9cb0 <rpi_reboot+0x58>
    9c9c:	e59f0010 	ldr	r0, [pc, #16]	; 9cb4 <rpi_reboot+0x5c>
    9ca0:	ebfff8df 	bl	8024 <PUT32>
    9ca4:	eafffffe 	b	9ca4 <rpi_reboot+0x4c>
    9ca8:	5a000001 	bpl	9cb4 <rpi_reboot+0x5c>
    9cac:	20100024 	andscs	r0, r0, r4, lsr #32
    9cb0:	5a000020 	bpl	9d38 <delay_ms+0x8>
    9cb4:	2010001c 	andscs	r0, r0, ip, lsl r0

00009cb8 <timer_get_usec_raw>:
    9cb8:	e59f0000 	ldr	r0, [pc]	; 9cc0 <timer_get_usec_raw+0x8>
    9cbc:	eafff8da 	b	802c <GET32>
    9cc0:	20003004 	andcs	r3, r0, r4

00009cc4 <timer_get_usec>:
    9cc4:	e92d4010 	push	{r4, lr}
    9cc8:	eb00024d 	bl	a604 <dev_barrier>
    9ccc:	e59f0010 	ldr	r0, [pc, #16]	; 9ce4 <timer_get_usec+0x20>
    9cd0:	ebfff8d5 	bl	802c <GET32>
    9cd4:	e1a04000 	mov	r4, r0
    9cd8:	eb000249 	bl	a604 <dev_barrier>
    9cdc:	e1a00004 	mov	r0, r4
    9ce0:	e8bd8010 	pop	{r4, pc}
    9ce4:	20003004 	andcs	r3, r0, r4

00009ce8 <delay_us>:
    9ce8:	e92d41f0 	push	{r4, r5, r6, r7, r8, lr}
    9cec:	e1a06000 	mov	r6, r0
    9cf0:	eb000243 	bl	a604 <dev_barrier>
    9cf4:	e59f0030 	ldr	r0, [pc, #48]	; 9d2c <delay_us+0x44>
    9cf8:	ebfff8cb 	bl	802c <GET32>
    9cfc:	e1a05000 	mov	r5, r0
    9d00:	eb00023f 	bl	a604 <dev_barrier>
    9d04:	e59f7020 	ldr	r7, [pc, #32]	; 9d2c <delay_us+0x44>
    9d08:	eb00023d 	bl	a604 <dev_barrier>
    9d0c:	e1a00007 	mov	r0, r7
    9d10:	ebfff8c5 	bl	802c <GET32>
    9d14:	e1a04000 	mov	r4, r0
    9d18:	e0444005 	sub	r4, r4, r5
    9d1c:	eb000238 	bl	a604 <dev_barrier>
    9d20:	e1540006 	cmp	r4, r6
    9d24:	3afffff7 	bcc	9d08 <delay_us+0x20>
    9d28:	e8bd81f0 	pop	{r4, r5, r6, r7, r8, pc}
    9d2c:	20003004 	andcs	r3, r0, r4

00009d30 <delay_ms>:
    9d30:	e92d41f0 	push	{r4, r5, r6, r7, r8, lr}
    9d34:	e0604280 	rsb	r4, r0, r0, lsl #5
    9d38:	e0800104 	add	r0, r0, r4, lsl #2
    9d3c:	e1a04180 	lsl	r4, r0, #3
    9d40:	eb00022f 	bl	a604 <dev_barrier>
    9d44:	e59f0030 	ldr	r0, [pc, #48]	; 9d7c <delay_ms+0x4c>
    9d48:	ebfff8b7 	bl	802c <GET32>
    9d4c:	e1a06000 	mov	r6, r0
    9d50:	eb00022b 	bl	a604 <dev_barrier>
    9d54:	e59f7020 	ldr	r7, [pc, #32]	; 9d7c <delay_ms+0x4c>
    9d58:	eb000229 	bl	a604 <dev_barrier>
    9d5c:	e1a00007 	mov	r0, r7
    9d60:	ebfff8b1 	bl	802c <GET32>
    9d64:	e1a05000 	mov	r5, r0
    9d68:	e0455006 	sub	r5, r5, r6
    9d6c:	eb000224 	bl	a604 <dev_barrier>
    9d70:	e1540005 	cmp	r4, r5
    9d74:	8afffff7 	bhi	9d58 <delay_ms+0x28>
    9d78:	e8bd81f0 	pop	{r4, r5, r6, r7, r8, pc}
    9d7c:	20003004 	andcs	r3, r0, r4

00009d80 <delay_sec>:
    9d80:	e92d41f0 	push	{r4, r5, r6, r7, r8, lr}
    9d84:	e0604280 	rsb	r4, r0, r0, lsl #5
    9d88:	e0644304 	rsb	r4, r4, r4, lsl #6
    9d8c:	e0800184 	add	r0, r0, r4, lsl #3
    9d90:	e1a04300 	lsl	r4, r0, #6
    9d94:	eb00021a 	bl	a604 <dev_barrier>
    9d98:	e59f0030 	ldr	r0, [pc, #48]	; 9dd0 <delay_sec+0x50>
    9d9c:	ebfff8a2 	bl	802c <GET32>
    9da0:	e1a06000 	mov	r6, r0
    9da4:	eb000216 	bl	a604 <dev_barrier>
    9da8:	e59f7020 	ldr	r7, [pc, #32]	; 9dd0 <delay_sec+0x50>
    9dac:	eb000214 	bl	a604 <dev_barrier>
    9db0:	e1a00007 	mov	r0, r7
    9db4:	ebfff89c 	bl	802c <GET32>
    9db8:	e1a05000 	mov	r5, r0
    9dbc:	e0455006 	sub	r5, r5, r6
    9dc0:	eb00020f 	bl	a604 <dev_barrier>
    9dc4:	e1540005 	cmp	r4, r5
    9dc8:	8afffff7 	bhi	9dac <delay_sec+0x2c>
    9dcc:	e8bd81f0 	pop	{r4, r5, r6, r7, r8, pc}
    9dd0:	20003004 	andcs	r3, r0, r4

00009dd4 <and_in32>:
    9dd4:	e92d4070 	push	{r4, r5, r6, lr}
    9dd8:	e1a04000 	mov	r4, r0
    9ddc:	e1a05001 	mov	r5, r1
    9de0:	ebfff891 	bl	802c <GET32>
    9de4:	e0001005 	and	r1, r0, r5
    9de8:	e1a00004 	mov	r0, r4
    9dec:	ebfff88c 	bl	8024 <PUT32>
    9df0:	e8bd8070 	pop	{r4, r5, r6, pc}

00009df4 <or_in32>:
    9df4:	e92d4070 	push	{r4, r5, r6, lr}
    9df8:	e1a04000 	mov	r4, r0
    9dfc:	e1a05001 	mov	r5, r1
    9e00:	ebfff889 	bl	802c <GET32>
    9e04:	e1801005 	orr	r1, r0, r5
    9e08:	e1a00004 	mov	r0, r4
    9e0c:	ebfff884 	bl	8024 <PUT32>
    9e10:	e8bd8070 	pop	{r4, r5, r6, pc}

00009e14 <uart_init>:
    9e14:	e92d4010 	push	{r4, lr}
    9e18:	e3a01002 	mov	r1, #2, 0
    9e1c:	e3a0000e 	mov	r0, #14, 0
    9e20:	eb000153 	bl	a374 <gpio_set_function>
    9e24:	e3a01002 	mov	r1, #2, 0
    9e28:	e3a0000f 	mov	r0, #15, 0
    9e2c:	eb000150 	bl	a374 <gpio_set_function>
    9e30:	eb0001f3 	bl	a604 <dev_barrier>
    9e34:	e3a01001 	mov	r1, #1, 0
    9e38:	e59f0064 	ldr	r0, [pc, #100]	; 9ea4 <uart_init+0x90>
    9e3c:	ebffffec 	bl	9df4 <or_in32>
    9e40:	eb0001ef 	bl	a604 <dev_barrier>
    9e44:	e59f405c 	ldr	r4, [pc, #92]	; 9ea8 <uart_init+0x94>
    9e48:	e3a01000 	mov	r1, #0, 0
    9e4c:	e1a00004 	mov	r0, r4
    9e50:	ebfff873 	bl	8024 <PUT32>
    9e54:	e3a01000 	mov	r1, #0, 0
    9e58:	e59f004c 	ldr	r0, [pc, #76]	; 9eac <uart_init+0x98>
    9e5c:	ebfff870 	bl	8024 <PUT32>
    9e60:	e3a01003 	mov	r1, #3, 0
    9e64:	e59f0044 	ldr	r0, [pc, #68]	; 9eb0 <uart_init+0x9c>
    9e68:	ebfff86d 	bl	8024 <PUT32>
    9e6c:	e3a01000 	mov	r1, #0, 0
    9e70:	e59f003c 	ldr	r0, [pc, #60]	; 9eb4 <uart_init+0xa0>
    9e74:	ebfff86a 	bl	8024 <PUT32>
    9e78:	e3a010c7 	mov	r1, #199, 0	; 0xc7
    9e7c:	e59f0034 	ldr	r0, [pc, #52]	; 9eb8 <uart_init+0xa4>
    9e80:	ebfff867 	bl	8024 <PUT32>
    9e84:	e59f1030 	ldr	r1, [pc, #48]	; 9ebc <uart_init+0xa8>
    9e88:	e59f0030 	ldr	r0, [pc, #48]	; 9ec0 <uart_init+0xac>
    9e8c:	ebfff864 	bl	8024 <PUT32>
    9e90:	e3a01003 	mov	r1, #3, 0
    9e94:	e1a00004 	mov	r0, r4
    9e98:	ebfff861 	bl	8024 <PUT32>
    9e9c:	eb0001d8 	bl	a604 <dev_barrier>
    9ea0:	e8bd8010 	pop	{r4, pc}
    9ea4:	20215004 	eorcs	r5, r1, r4
    9ea8:	20215060 	eorcs	r5, r1, r0, rrx
    9eac:	20215044 	eorcs	r5, r1, r4, asr #32
    9eb0:	2021504c 	eorcs	r5, r1, ip, asr #32
    9eb4:	20215050 	eorcs	r5, r1, r0, asr r0
    9eb8:	20215048 	eorcs	r5, r1, r8, asr #32
    9ebc:	0000010e 	andeq	r0, r0, lr, lsl #2
    9ec0:	20215068 	eorcs	r5, r1, r8, rrx

00009ec4 <uart_can_getc>:
    9ec4:	e92d4010 	push	{r4, lr}
    9ec8:	e59f0008 	ldr	r0, [pc, #8]	; 9ed8 <uart_can_getc+0x14>
    9ecc:	ebfff856 	bl	802c <GET32>
    9ed0:	e2000001 	and	r0, r0, #1, 0
    9ed4:	e8bd8010 	pop	{r4, pc}
    9ed8:	20215064 	eorcs	r5, r1, r4, rrx

00009edc <uart_can_putc>:
    9edc:	e92d4010 	push	{r4, lr}
    9ee0:	e59f0010 	ldr	r0, [pc, #16]	; 9ef8 <uart_can_putc+0x1c>
    9ee4:	ebfff850 	bl	802c <GET32>
    9ee8:	e3100002 	tst	r0, #2, 0
    9eec:	13a00001 	movne	r0, #1, 0
    9ef0:	03a00000 	moveq	r0, #0, 0
    9ef4:	e8bd8010 	pop	{r4, pc}
    9ef8:	20215064 	eorcs	r5, r1, r4, rrx

00009efc <uart_getc>:
    9efc:	e92d4010 	push	{r4, lr}
    9f00:	eb0001bf 	bl	a604 <dev_barrier>
    9f04:	ebffffee 	bl	9ec4 <uart_can_getc>
    9f08:	e3500000 	cmp	r0, #0, 0
    9f0c:	0afffffc 	beq	9f04 <uart_getc+0x8>
    9f10:	e59f0010 	ldr	r0, [pc, #16]	; 9f28 <uart_getc+0x2c>
    9f14:	ebfff844 	bl	802c <GET32>
    9f18:	e6ef4070 	uxtb	r4, r0
    9f1c:	eb0001b8 	bl	a604 <dev_barrier>
    9f20:	e1a00004 	mov	r0, r4
    9f24:	e8bd8010 	pop	{r4, pc}
    9f28:	20215040 	eorcs	r5, r1, r0, asr #32

00009f2c <uart_putc>:
    9f2c:	e92d4010 	push	{r4, lr}
    9f30:	e1a04000 	mov	r4, r0
    9f34:	eb0001b2 	bl	a604 <dev_barrier>
    9f38:	ebffffe7 	bl	9edc <uart_can_putc>
    9f3c:	e3500000 	cmp	r0, #0, 0
    9f40:	0afffffc 	beq	9f38 <uart_putc+0xc>
    9f44:	e6ef1074 	uxtb	r1, r4
    9f48:	e59f0008 	ldr	r0, [pc, #8]	; 9f58 <uart_putc+0x2c>
    9f4c:	ebfff834 	bl	8024 <PUT32>
    9f50:	eb0001ab 	bl	a604 <dev_barrier>
    9f54:	e8bd8010 	pop	{r4, pc}
    9f58:	20215040 	eorcs	r5, r1, r0, asr #32

00009f5c <uart_has_data>:
    9f5c:	e92d4010 	push	{r4, lr}
    9f60:	eb0001a7 	bl	a604 <dev_barrier>
    9f64:	ebffffd6 	bl	9ec4 <uart_can_getc>
    9f68:	e8bd8010 	pop	{r4, pc}

00009f6c <uart_tx_is_empty>:
    9f6c:	e92d4010 	push	{r4, lr}
    9f70:	eb0001a3 	bl	a604 <dev_barrier>
    9f74:	e59f000c 	ldr	r0, [pc, #12]	; 9f88 <uart_tx_is_empty+0x1c>
    9f78:	ebfff82b 	bl	802c <GET32>
    9f7c:	e1a004a0 	lsr	r0, r0, #9
    9f80:	e2000001 	and	r0, r0, #1, 0
    9f84:	e8bd8010 	pop	{r4, pc}
    9f88:	20215064 	eorcs	r5, r1, r4, rrx

00009f8c <uart_flush_tx>:
    9f8c:	e92d4010 	push	{r4, lr}
    9f90:	ebfffff5 	bl	9f6c <uart_tx_is_empty>
    9f94:	e3500000 	cmp	r0, #0, 0
    9f98:	0afffffc 	beq	9f90 <uart_flush_tx+0x4>
    9f9c:	e8bd8010 	pop	{r4, pc}

00009fa0 <uart_disable>:
    9fa0:	e92d4010 	push	{r4, lr}
    9fa4:	ebfffff8 	bl	9f8c <uart_flush_tx>
    9fa8:	eb000195 	bl	a604 <dev_barrier>
    9fac:	e3e01001 	mvn	r1, #1, 0
    9fb0:	e59f0008 	ldr	r0, [pc, #8]	; 9fc0 <uart_disable+0x20>
    9fb4:	ebffff86 	bl	9dd4 <and_in32>
    9fb8:	eb000191 	bl	a604 <dev_barrier>
    9fbc:	e8bd8010 	pop	{r4, pc}
    9fc0:	20215004 	eorcs	r5, r1, r4

00009fc4 <kmalloc_heap_end>:
    9fc4:	e59f3004 	ldr	r3, [pc, #4]	; 9fd0 <kmalloc_heap_end+0xc>
    9fc8:	e5930000 	ldr	r0, [r3]
    9fcc:	e12fff1e 	bx	lr
    9fd0:	0000af18 	andeq	sl, r0, r8, lsl pc

00009fd4 <kmalloc_heap_start>:
    9fd4:	e59f3004 	ldr	r3, [pc, #4]	; 9fe0 <kmalloc_heap_start+0xc>
    9fd8:	e5930004 	ldr	r0, [r3, #4]
    9fdc:	e12fff1e 	bx	lr
    9fe0:	0000af18 	andeq	sl, r0, r8, lsl pc

00009fe4 <kmalloc_heap_ptr>:
    9fe4:	e59f3004 	ldr	r3, [pc, #4]	; 9ff0 <kmalloc_heap_ptr+0xc>
    9fe8:	e5930000 	ldr	r0, [r3]
    9fec:	e12fff1e 	bx	lr
    9ff0:	0000af18 	andeq	sl, r0, r8, lsl pc

00009ff4 <kmalloc_init_set_start>:
    9ff4:	e52de004 	push	{lr}		; (str lr, [sp, #-4]!)
    9ff8:	e24dd00c 	sub	sp, sp, #12, 0
    9ffc:	e3510000 	cmp	r1, #0, 0
    a000:	0a00000a 	beq	a030 <kmalloc_init_set_start+0x3c>
    a004:	e59f306c 	ldr	r3, [pc, #108]	; a078 <kmalloc_init_set_start+0x84>
    a008:	e5933000 	ldr	r3, [r3]
    a00c:	e1530000 	cmp	r3, r0
    a010:	8a00000e 	bhi	a050 <kmalloc_init_set_start+0x5c>
    a014:	e59f305c 	ldr	r3, [pc, #92]	; a078 <kmalloc_init_set_start+0x84>
    a018:	e5830000 	str	r0, [r3]
    a01c:	e5830004 	str	r0, [r3, #4]
    a020:	e0800001 	add	r0, r0, r1
    a024:	e5830008 	str	r0, [r3, #8]
    a028:	e28dd00c 	add	sp, sp, #12, 0
    a02c:	e49df004 	pop	{pc}		; (ldr pc, [sp], #4)
    a030:	e59f3044 	ldr	r3, [pc, #68]	; a07c <kmalloc_init_set_start+0x88>
    a034:	e58d3000 	str	r3, [sp]
    a038:	e3a03030 	mov	r3, #48, 0	; 0x30
    a03c:	e59f203c 	ldr	r2, [pc, #60]	; a080 <kmalloc_init_set_start+0x8c>
    a040:	e59f103c 	ldr	r1, [pc, #60]	; a084 <kmalloc_init_set_start+0x90>
    a044:	e59f003c 	ldr	r0, [pc, #60]	; a088 <kmalloc_init_set_start+0x94>
    a048:	ebfffc10 	bl	9090 <printk>
    a04c:	ebfffea0 	bl	9ad4 <clean_reboot>
    a050:	e59f3020 	ldr	r3, [pc, #32]	; a078 <kmalloc_init_set_start+0x84>
    a054:	e5933008 	ldr	r3, [r3, #8]
    a058:	e58d3004 	str	r3, [sp, #4]
    a05c:	e58d0000 	str	r0, [sp]
    a060:	e3a03034 	mov	r3, #52, 0	; 0x34
    a064:	e59f2014 	ldr	r2, [pc, #20]	; a080 <kmalloc_init_set_start+0x8c>
    a068:	e59f1014 	ldr	r1, [pc, #20]	; a084 <kmalloc_init_set_start+0x90>
    a06c:	e59f0018 	ldr	r0, [pc, #24]	; a08c <kmalloc_init_set_start+0x98>
    a070:	ebfffc06 	bl	9090 <printk>
    a074:	ebfffe96 	bl	9ad4 <clean_reboot>
    a078:	0000af18 	andeq	sl, r0, r8, lsl pc
    a07c:	0000ad24 	andeq	sl, r0, r4, lsr #26
    a080:	0000aeb0 			; <UNDEFINED> instruction: 0x0000aeb0
    a084:	0000ad18 	andeq	sl, r0, r8, lsl sp
    a088:	0000a754 	andeq	sl, r0, r4, asr r7
    a08c:	0000ad30 	andeq	sl, r0, r0, lsr sp

0000a090 <kmalloc_init>:
    a090:	e92d4010 	push	{r4, lr}
    a094:	e59f303c 	ldr	r3, [pc, #60]	; a0d8 <kmalloc_init+0x48>
    a098:	e5933000 	ldr	r3, [r3]
    a09c:	e3530000 	cmp	r3, #0, 0
    a0a0:	1a000006 	bne	a0c0 <kmalloc_init+0x30>
    a0a4:	e59f302c 	ldr	r3, [pc, #44]	; a0d8 <kmalloc_init+0x48>
    a0a8:	e3a02001 	mov	r2, #1, 0
    a0ac:	e5832000 	str	r2, [r3]
    a0b0:	e3a01201 	mov	r1, #268435456	; 0x10000000
    a0b4:	e3a00601 	mov	r0, #1048576	; 0x100000
    a0b8:	ebffffcd 	bl	9ff4 <kmalloc_init_set_start>
    a0bc:	e8bd8010 	pop	{r4, pc}
    a0c0:	e3a03040 	mov	r3, #64, 0	; 0x40
    a0c4:	e59f2010 	ldr	r2, [pc, #16]	; a0dc <kmalloc_init+0x4c>
    a0c8:	e59f1010 	ldr	r1, [pc, #16]	; a0e0 <kmalloc_init+0x50>
    a0cc:	e59f0010 	ldr	r0, [pc, #16]	; a0e4 <kmalloc_init+0x54>
    a0d0:	ebfffbee 	bl	9090 <printk>
    a0d4:	ebfffe7e 	bl	9ad4 <clean_reboot>
    a0d8:	0000b350 	andeq	fp, r0, r0, asr r3
    a0dc:	0000aec8 	andeq	sl, r0, r8, asr #29
    a0e0:	0000ad18 	andeq	sl, r0, r8, lsl sp
    a0e4:	0000ad74 	andeq	sl, r0, r4, ror sp

0000a0e8 <kmalloc_notzero>:
    a0e8:	e52de004 	push	{lr}		; (str lr, [sp, #-4]!)
    a0ec:	e24dd00c 	sub	sp, sp, #12, 0
    a0f0:	e3500000 	cmp	r0, #0, 0
    a0f4:	0a00000a 	beq	a124 <kmalloc_notzero+0x3c>
    a0f8:	e2800007 	add	r0, r0, #7, 0
    a0fc:	e3c03007 	bic	r3, r0, #7, 0
    a100:	e59f2060 	ldr	r2, [pc, #96]	; a168 <kmalloc_notzero+0x80>
    a104:	e5920000 	ldr	r0, [r2]
    a108:	e0801003 	add	r1, r0, r3
    a10c:	e5821000 	str	r1, [r2]
    a110:	e5922008 	ldr	r2, [r2, #8]
    a114:	e1510002 	cmp	r1, r2
    a118:	8a000009 	bhi	a144 <kmalloc_notzero+0x5c>
    a11c:	e28dd00c 	add	sp, sp, #12, 0
    a120:	e49df004 	pop	{pc}		; (ldr pc, [sp], #4)
    a124:	e59f3040 	ldr	r3, [pc, #64]	; a16c <kmalloc_notzero+0x84>
    a128:	e58d3000 	str	r3, [sp]
    a12c:	e3a03048 	mov	r3, #72, 0	; 0x48
    a130:	e59f2038 	ldr	r2, [pc, #56]	; a170 <kmalloc_notzero+0x88>
    a134:	e59f1038 	ldr	r1, [pc, #56]	; a174 <kmalloc_notzero+0x8c>
    a138:	e59f0038 	ldr	r0, [pc, #56]	; a178 <kmalloc_notzero+0x90>
    a13c:	ebfffbd3 	bl	9090 <printk>
    a140:	ebfffe63 	bl	9ad4 <clean_reboot>
    a144:	e0422000 	sub	r2, r2, r0
    a148:	e58d2004 	str	r2, [sp, #4]
    a14c:	e58d3000 	str	r3, [sp]
    a150:	e3a0304e 	mov	r3, #78, 0	; 0x4e
    a154:	e59f2014 	ldr	r2, [pc, #20]	; a170 <kmalloc_notzero+0x88>
    a158:	e59f1014 	ldr	r1, [pc, #20]	; a174 <kmalloc_notzero+0x8c>
    a15c:	e59f0018 	ldr	r0, [pc, #24]	; a17c <kmalloc_notzero+0x94>
    a160:	ebfffbca 	bl	9090 <printk>
    a164:	ebfffe5a 	bl	9ad4 <clean_reboot>
    a168:	0000af18 	andeq	sl, r0, r8, lsl pc
    a16c:	0000ad28 	andeq	sl, r0, r8, lsr #26
    a170:	0000aed8 	ldrdeq	sl, [r0], -r8
    a174:	0000ad18 	andeq	sl, r0, r8, lsl sp
    a178:	0000a754 	andeq	sl, r0, r4, asr r7
    a17c:	0000ada4 	andeq	sl, r0, r4, lsr #27

0000a180 <kmalloc>:
    a180:	e92d4030 	push	{r4, r5, lr}
    a184:	e24dd00c 	sub	sp, sp, #12, 0
    a188:	e2504000 	subs	r4, r0, #0, 0
    a18c:	0a000008 	beq	a1b4 <kmalloc+0x34>
    a190:	e1a00004 	mov	r0, r4
    a194:	ebffffd3 	bl	a0e8 <kmalloc_notzero>
    a198:	e1a05000 	mov	r5, r0
    a19c:	e1a02004 	mov	r2, r4
    a1a0:	e3a01000 	mov	r1, #0, 0
    a1a4:	ebfffb9b 	bl	9018 <memset>
    a1a8:	e1a00005 	mov	r0, r5
    a1ac:	e28dd00c 	add	sp, sp, #12, 0
    a1b0:	e8bd8030 	pop	{r4, r5, pc}
    a1b4:	e59f3018 	ldr	r3, [pc, #24]	; a1d4 <kmalloc+0x54>
    a1b8:	e58d3000 	str	r3, [sp]
    a1bc:	e3a03054 	mov	r3, #84, 0	; 0x54
    a1c0:	e59f2010 	ldr	r2, [pc, #16]	; a1d8 <kmalloc+0x58>
    a1c4:	e59f1010 	ldr	r1, [pc, #16]	; a1dc <kmalloc+0x5c>
    a1c8:	e59f0010 	ldr	r0, [pc, #16]	; a1e0 <kmalloc+0x60>
    a1cc:	ebfffbaf 	bl	9090 <printk>
    a1d0:	ebfffe3f 	bl	9ad4 <clean_reboot>
    a1d4:	0000ad28 	andeq	sl, r0, r8, lsr #26
    a1d8:	0000aee8 	andeq	sl, r0, r8, ror #29
    a1dc:	0000ad18 	andeq	sl, r0, r8, lsl sp
    a1e0:	0000a754 	andeq	sl, r0, r4, asr r7

0000a1e4 <kmalloc_aligned>:
    a1e4:	e52de004 	push	{lr}		; (str lr, [sp, #-4]!)
    a1e8:	e24dd00c 	sub	sp, sp, #12, 0
    a1ec:	e3500000 	cmp	r0, #0, 0
    a1f0:	0a000014 	beq	a248 <kmalloc_aligned+0x64>
    a1f4:	e2613000 	rsb	r3, r1, #0, 0
    a1f8:	e1d13003 	bics	r3, r1, r3
    a1fc:	1a000019 	bne	a268 <kmalloc_aligned+0x84>
    a200:	e3510008 	cmp	r1, #8, 0
    a204:	33a01008 	movcc	r1, #8, 0
    a208:	e59f30c0 	ldr	r3, [pc, #192]	; a2d0 <kmalloc_aligned+0xec>
    a20c:	e5932000 	ldr	r2, [r3]
    a210:	e2613000 	rsb	r3, r1, #0, 0
    a214:	e1d1c003 	bics	ip, r1, r3
    a218:	1a00001b 	bne	a28c <kmalloc_aligned+0xa8>
    a21c:	e0822001 	add	r2, r2, r1
    a220:	e2422001 	sub	r2, r2, #1, 0
    a224:	e0033002 	and	r3, r3, r2
    a228:	e2411001 	sub	r1, r1, #1, 0
    a22c:	e1110003 	tst	r1, r3
    a230:	1a00001d 	bne	a2ac <kmalloc_aligned+0xc8>
    a234:	e59f2094 	ldr	r2, [pc, #148]	; a2d0 <kmalloc_aligned+0xec>
    a238:	e5823000 	str	r3, [r2]
    a23c:	ebffffcf 	bl	a180 <kmalloc>
    a240:	e28dd00c 	add	sp, sp, #12, 0
    a244:	e49df004 	pop	{pc}		; (ldr pc, [sp], #4)
    a248:	e59f3084 	ldr	r3, [pc, #132]	; a2d4 <kmalloc_aligned+0xf0>
    a24c:	e58d3000 	str	r3, [sp]
    a250:	e3a0305f 	mov	r3, #95, 0	; 0x5f
    a254:	e59f207c 	ldr	r2, [pc, #124]	; a2d8 <kmalloc_aligned+0xf4>
    a258:	e59f107c 	ldr	r1, [pc, #124]	; a2dc <kmalloc_aligned+0xf8>
    a25c:	e59f007c 	ldr	r0, [pc, #124]	; a2e0 <kmalloc_aligned+0xfc>
    a260:	ebfffb8a 	bl	9090 <printk>
    a264:	ebfffe1a 	bl	9ad4 <clean_reboot>
    a268:	eb0000ac 	bl	a520 <rpi_reset_putc>
    a26c:	e59f3070 	ldr	r3, [pc, #112]	; a2e4 <kmalloc_aligned+0x100>
    a270:	e58d3000 	str	r3, [sp]
    a274:	e3a03060 	mov	r3, #96, 0	; 0x60
    a278:	e59f2058 	ldr	r2, [pc, #88]	; a2d8 <kmalloc_aligned+0xf4>
    a27c:	e59f1058 	ldr	r1, [pc, #88]	; a2dc <kmalloc_aligned+0xf8>
    a280:	e59f0060 	ldr	r0, [pc, #96]	; a2e8 <kmalloc_aligned+0x104>
    a284:	ebfffb81 	bl	9090 <printk>
    a288:	ebfffe11 	bl	9ad4 <clean_reboot>
    a28c:	e59f3058 	ldr	r3, [pc, #88]	; a2ec <kmalloc_aligned+0x108>
    a290:	e58d3000 	str	r3, [sp]
    a294:	e3a03011 	mov	r3, #17, 0
    a298:	e59f2050 	ldr	r2, [pc, #80]	; a2f0 <kmalloc_aligned+0x10c>
    a29c:	e59f1038 	ldr	r1, [pc, #56]	; a2dc <kmalloc_aligned+0xf8>
    a2a0:	e59f0038 	ldr	r0, [pc, #56]	; a2e0 <kmalloc_aligned+0xfc>
    a2a4:	ebfffb79 	bl	9090 <printk>
    a2a8:	ebfffe09 	bl	9ad4 <clean_reboot>
    a2ac:	eb00009b 	bl	a520 <rpi_reset_putc>
    a2b0:	e59f303c 	ldr	r3, [pc, #60]	; a2f4 <kmalloc_aligned+0x110>
    a2b4:	e58d3000 	str	r3, [sp]
    a2b8:	e3a03068 	mov	r3, #104, 0	; 0x68
    a2bc:	e59f2014 	ldr	r2, [pc, #20]	; a2d8 <kmalloc_aligned+0xf4>
    a2c0:	e59f1014 	ldr	r1, [pc, #20]	; a2dc <kmalloc_aligned+0xf8>
    a2c4:	e59f002c 	ldr	r0, [pc, #44]	; a2f8 <kmalloc_aligned+0x114>
    a2c8:	ebfffb70 	bl	9090 <printk>
    a2cc:	ebfffe00 	bl	9ad4 <clean_reboot>
    a2d0:	0000af18 	andeq	sl, r0, r8, lsl pc
    a2d4:	0000ad28 	andeq	sl, r0, r8, lsr #26
    a2d8:	0000aef0 	strdeq	sl, [r0], -r0
    a2dc:	0000ad18 	andeq	sl, r0, r8, lsl sp
    a2e0:	0000a754 	andeq	sl, r0, r4, asr r7
    a2e4:	0000ae18 	andeq	sl, r0, r8, lsl lr
    a2e8:	0000ade4 	andeq	sl, r0, r4, ror #27
    a2ec:	0000ae2c 	andeq	sl, r0, ip, lsr #28
    a2f0:	0000af00 	andeq	sl, r0, r0, lsl #30
    a2f4:	0000ae64 	andeq	sl, r0, r4, ror #28
    a2f8:	0000ae38 	andeq	sl, r0, r8, lsr lr

0000a2fc <kfree>:
    a2fc:	e12fff1e 	bx	lr

0000a300 <kfree_all>:
    a300:	e59f3008 	ldr	r3, [pc, #8]	; a310 <kfree_all+0x10>
    a304:	e5932004 	ldr	r2, [r3, #4]
    a308:	e5832000 	str	r2, [r3]
    a30c:	e12fff1e 	bx	lr
    a310:	0000af18 	andeq	sl, r0, r8, lsl pc

0000a314 <kfree_pop>:
    a314:	e59f3048 	ldr	r3, [pc, #72]	; a364 <kfree_pop+0x50>
    a318:	e5933004 	ldr	r3, [r3, #4]
    a31c:	e1530000 	cmp	r3, r0
    a320:	8a000006 	bhi	a340 <kfree_pop+0x2c>
    a324:	e59f3038 	ldr	r3, [pc, #56]	; a364 <kfree_pop+0x50>
    a328:	e5933008 	ldr	r3, [r3, #8]
    a32c:	e1530000 	cmp	r3, r0
    a330:	3a000002 	bcc	a340 <kfree_pop+0x2c>
    a334:	e59f3028 	ldr	r3, [pc, #40]	; a364 <kfree_pop+0x50>
    a338:	e5830000 	str	r0, [r3]
    a33c:	e12fff1e 	bx	lr
    a340:	e52de004 	push	{lr}		; (str lr, [sp, #-4]!)
    a344:	e24dd00c 	sub	sp, sp, #12, 0
    a348:	e58d0000 	str	r0, [sp]
    a34c:	e3a03077 	mov	r3, #119, 0	; 0x77
    a350:	e59f2010 	ldr	r2, [pc, #16]	; a368 <kfree_pop+0x54>
    a354:	e59f1010 	ldr	r1, [pc, #16]	; a36c <kfree_pop+0x58>
    a358:	e59f0010 	ldr	r0, [pc, #16]	; a370 <kfree_pop+0x5c>
    a35c:	ebfffb4b 	bl	9090 <printk>
    a360:	ebfffddb 	bl	9ad4 <clean_reboot>
    a364:	0000af18 	andeq	sl, r0, r8, lsl pc
    a368:	0000af08 	andeq	sl, r0, r8, lsl #30
    a36c:	0000ad18 	andeq	sl, r0, r8, lsl sp
    a370:	0000ae80 	andeq	sl, r0, r0, lsl #29

0000a374 <gpio_set_function>:
    a374:	e350001f 	cmp	r0, #31, 0
    a378:	812fff1e 	bxhi	lr
    a37c:	e3d13007 	bics	r3, r1, #7, 0
    a380:	e92d4070 	push	{r4, r5, r6, lr}
    a384:	e1a05001 	mov	r5, r1
    a388:	18bd8070 	popne	{r4, r5, r6, pc}
    a38c:	e59f403c 	ldr	r4, [pc, #60]	; a3d0 <gpio_set_function+0x5c>
    a390:	e0843094 	umull	r3, r4, r4, r0
    a394:	e1a041a4 	lsr	r4, r4, #3
    a398:	e2843302 	add	r3, r4, #134217728	; 0x8000000
    a39c:	e2833702 	add	r3, r3, #524288	; 0x80000
    a3a0:	e1a06103 	lsl	r6, r3, #2
    a3a4:	e0844104 	add	r4, r4, r4, lsl #2
    a3a8:	e0404084 	sub	r4, r0, r4, lsl #1
    a3ac:	e1a00006 	mov	r0, r6
    a3b0:	ebfff71d 	bl	802c <GET32>
    a3b4:	e3a01007 	mov	r1, #7, 0
    a3b8:	e0844084 	add	r4, r4, r4, lsl #1
    a3bc:	e1c01411 	bic	r1, r0, r1, lsl r4
    a3c0:	e1811415 	orr	r1, r1, r5, lsl r4
    a3c4:	e1a00006 	mov	r0, r6
    a3c8:	e8bd4070 	pop	{r4, r5, r6, lr}
    a3cc:	eafff714 	b	8024 <PUT32>
    a3d0:	cccccccd 	stclgt	12, cr12, [ip], {205}	; 0xcd

0000a3d4 <gpio_set_output>:
    a3d4:	e350001f 	cmp	r0, #31, 0
    a3d8:	812fff1e 	bxhi	lr
    a3dc:	e92d4070 	push	{r4, r5, r6, lr}
    a3e0:	e59f4040 	ldr	r4, [pc, #64]	; a428 <gpio_set_output+0x54>
    a3e4:	e0843094 	umull	r3, r4, r4, r0
    a3e8:	e1a041a4 	lsr	r4, r4, #3
    a3ec:	e2843302 	add	r3, r4, #134217728	; 0x8000000
    a3f0:	e2833702 	add	r3, r3, #524288	; 0x80000
    a3f4:	e1a05103 	lsl	r5, r3, #2
    a3f8:	e0844104 	add	r4, r4, r4, lsl #2
    a3fc:	e0404084 	sub	r4, r0, r4, lsl #1
    a400:	e1a00005 	mov	r0, r5
    a404:	ebfff708 	bl	802c <GET32>
    a408:	e3a03007 	mov	r3, #7, 0
    a40c:	e3a01001 	mov	r1, #1, 0
    a410:	e0844084 	add	r4, r4, r4, lsl #1
    a414:	e1c03413 	bic	r3, r0, r3, lsl r4
    a418:	e1831411 	orr	r1, r3, r1, lsl r4
    a41c:	e1a00005 	mov	r0, r5
    a420:	e8bd4070 	pop	{r4, r5, r6, lr}
    a424:	eafff6fe 	b	8024 <PUT32>
    a428:	cccccccd 	stclgt	12, cr12, [ip], {205}	; 0xcd

0000a42c <gpio_set_on>:
    a42c:	e1a03000 	mov	r3, r0
    a430:	e3a01001 	mov	r1, #1, 0
    a434:	e59f0004 	ldr	r0, [pc, #4]	; a440 <gpio_set_on+0x14>
    a438:	e1a01311 	lsl	r1, r1, r3
    a43c:	eafff6f8 	b	8024 <PUT32>
    a440:	2020001c 	eorcs	r0, r0, ip, lsl r0

0000a444 <gpio_set_off>:
    a444:	e1a03000 	mov	r3, r0
    a448:	e3a01001 	mov	r1, #1, 0
    a44c:	e59f0004 	ldr	r0, [pc, #4]	; a458 <gpio_set_off+0x14>
    a450:	e1a01311 	lsl	r1, r1, r3
    a454:	eafff6f2 	b	8024 <PUT32>
    a458:	20200028 	eorcs	r0, r0, r8, lsr #32

0000a45c <gpio_set_input>:
    a45c:	e350001f 	cmp	r0, #31, 0
    a460:	812fff1e 	bxhi	lr
    a464:	e92d4070 	push	{r4, r5, r6, lr}
    a468:	e59f5040 	ldr	r5, [pc, #64]	; a4b0 <gpio_set_input+0x54>
    a46c:	e1a04000 	mov	r4, r0
    a470:	e0853095 	umull	r3, r5, r5, r0
    a474:	e1a051a5 	lsr	r5, r5, #3
    a478:	e2850302 	add	r0, r5, #134217728	; 0x8000000
    a47c:	e2800702 	add	r0, r0, #524288	; 0x80000
    a480:	e1a06100 	lsl	r6, r0, #2
    a484:	e1a00006 	mov	r0, r6
    a488:	ebfff6e7 	bl	802c <GET32>
    a48c:	e3a01007 	mov	r1, #7, 0
    a490:	e1a03000 	mov	r3, r0
    a494:	e0855105 	add	r5, r5, r5, lsl #2
    a498:	e0444085 	sub	r4, r4, r5, lsl #1
    a49c:	e0844084 	add	r4, r4, r4, lsl #1
    a4a0:	e1a00006 	mov	r0, r6
    a4a4:	e1c31411 	bic	r1, r3, r1, lsl r4
    a4a8:	e8bd4070 	pop	{r4, r5, r6, lr}
    a4ac:	eafff6dc 	b	8024 <PUT32>
    a4b0:	cccccccd 	stclgt	12, cr12, [ip], {205}	; 0xcd

0000a4b4 <gpio_write>:
    a4b4:	e3510000 	cmp	r1, #0, 0
    a4b8:	e3a03001 	mov	r3, #1, 0
    a4bc:	e1a01000 	mov	r1, r0
    a4c0:	0a000002 	beq	a4d0 <gpio_write+0x1c>
    a4c4:	e59f0010 	ldr	r0, [pc, #16]	; a4dc <gpio_write+0x28>
    a4c8:	e1a01113 	lsl	r1, r3, r1
    a4cc:	eafff6d4 	b	8024 <PUT32>
    a4d0:	e59f0008 	ldr	r0, [pc, #8]	; a4e0 <gpio_write+0x2c>
    a4d4:	e1a01113 	lsl	r1, r3, r1
    a4d8:	eafff6d1 	b	8024 <PUT32>
    a4dc:	2020001c 	eorcs	r0, r0, ip, lsl r0
    a4e0:	20200028 	eorcs	r0, r0, r8, lsr #32

0000a4e4 <gpio_read>:
    a4e4:	e92d4010 	push	{r4, lr}
    a4e8:	e1a04000 	mov	r4, r0
    a4ec:	e59f0014 	ldr	r0, [pc, #20]	; a508 <gpio_read+0x24>
    a4f0:	e08002a4 	add	r0, r0, r4, lsr #5
    a4f4:	ebfff6cc 	bl	802c <GET32>
    a4f8:	e204401f 	and	r4, r4, #31, 0
    a4fc:	e1a00430 	lsr	r0, r0, r4
    a500:	e2000001 	and	r0, r0, #1, 0
    a504:	e8bd8010 	pop	{r4, pc}
    a508:	20200034 	eorcs	r0, r0, r4, lsr r0

0000a50c <internal_putchar>:
    a50c:	e92d4010 	push	{r4, lr}
    a510:	e1a04000 	mov	r4, r0
    a514:	ebfffe84 	bl	9f2c <uart_putc>
    a518:	e1a00004 	mov	r0, r4
    a51c:	e8bd8010 	pop	{r4, pc}

0000a520 <rpi_reset_putc>:
    a520:	e59f3008 	ldr	r3, [pc, #8]	; a530 <rpi_reset_putc+0x10>
    a524:	e59f2008 	ldr	r2, [pc, #8]	; a534 <rpi_reset_putc+0x14>
    a528:	e5832000 	str	r2, [r3]
    a52c:	e12fff1e 	bx	lr
    a530:	0000af24 	andeq	sl, r0, r4, lsr #30
    a534:	0000a50c 	andeq	sl, r0, ip, lsl #10

0000a538 <rpi_set_putc>:
    a538:	e59f3004 	ldr	r3, [pc, #4]	; a544 <rpi_set_putc+0xc>
    a53c:	e5830000 	str	r0, [r3]
    a540:	e12fff1e 	bx	lr
    a544:	0000af24 	andeq	sl, r0, r4, lsr #30

0000a548 <strcat>:
    a548:	e1a02000 	mov	r2, r0
    a54c:	e1a03002 	mov	r3, r2
    a550:	e4d2c001 	ldrb	ip, [r2], #1
    a554:	e35c0000 	cmp	ip, #0, 0
    a558:	1afffffb 	bne	a54c <strcat+0x4>
    a55c:	e2433001 	sub	r3, r3, #1, 0
    a560:	e4d12001 	ldrb	r2, [r1], #1
    a564:	e3520000 	cmp	r2, #0, 0
    a568:	e5e32001 	strb	r2, [r3, #1]!
    a56c:	1afffffb 	bne	a560 <strcat+0x18>
    a570:	e12fff1e 	bx	lr

0000a574 <strcmp>:
    a574:	e5d03000 	ldrb	r3, [r0]
    a578:	e3530000 	cmp	r3, #0, 0
    a57c:	05d12000 	ldrbeq	r2, [r1]
    a580:	1a000003 	bne	a594 <strcmp+0x20>
    a584:	ea000006 	b	a5a4 <strcmp+0x30>
    a588:	e5f03001 	ldrb	r3, [r0, #1]!
    a58c:	e3530000 	cmp	r3, #0, 0
    a590:	0a000005 	beq	a5ac <strcmp+0x38>
    a594:	e1a0c001 	mov	ip, r1
    a598:	e4d12001 	ldrb	r2, [r1], #1
    a59c:	e1520003 	cmp	r2, r3
    a5a0:	0afffff8 	beq	a588 <strcmp+0x14>
    a5a4:	e0430002 	sub	r0, r3, r2
    a5a8:	e12fff1e 	bx	lr
    a5ac:	e5dc2001 	ldrb	r2, [ip, #1]
    a5b0:	e0430002 	sub	r0, r3, r2
    a5b4:	e12fff1e 	bx	lr

0000a5b8 <strcpy>:
    a5b8:	e2402001 	sub	r2, r0, #1, 0
    a5bc:	e4d13001 	ldrb	r3, [r1], #1
    a5c0:	e3530000 	cmp	r3, #0, 0
    a5c4:	e5e23001 	strb	r3, [r2, #1]!
    a5c8:	1afffffb 	bne	a5bc <strcpy+0x4>
    a5cc:	e12fff1e 	bx	lr

0000a5d0 <strncmp>:
    a5d0:	e0802002 	add	r2, r0, r2
    a5d4:	ea000003 	b	a5e8 <strncmp+0x18>
    a5d8:	e4d03001 	ldrb	r3, [r0], #1
    a5dc:	e4d1c001 	ldrb	ip, [r1], #1
    a5e0:	e153000c 	cmp	r3, ip
    a5e4:	1a000003 	bne	a5f8 <strncmp+0x28>
    a5e8:	e1500002 	cmp	r0, r2
    a5ec:	1afffff9 	bne	a5d8 <strncmp+0x8>
    a5f0:	e3a00000 	mov	r0, #0, 0
    a5f4:	e12fff1e 	bx	lr
    a5f8:	e043000c 	sub	r0, r3, ip
    a5fc:	e12fff1e 	bx	lr

0000a600 <reboot_callout>:
    a600:	e12fff1e 	bx	lr

0000a604 <dev_barrier>:
    a604:	ea000002 	b	a614 <dsb>

0000a608 <dmb>:
    a608:	e3a00000 	mov	r0, #0, 0
    a60c:	ee070fba 	mcr	15, 0, r0, cr7, cr10, {5}
    a610:	e12fff1e 	bx	lr

0000a614 <dsb>:
    a614:	ee070f9a 	mcr	15, 0, r0, cr7, cr10, {4}
    a618:	e12fff1e 	bx	lr

0000a61c <__code_end__>:
    a61c:	00000000 	andeq	r0, r0, r0

Disassembly of section .rodata:

0000a620 <__FUNCTION__.4030-0x8c>:
    a620:	74736574 	ldrbtvc	r6, [r3], #-1396	; 0xfffffa8c
    a624:	00000a31 	andeq	r0, r0, r1, lsr sl
    a628:	74736574 	ldrbtvc	r6, [r3], #-1396	; 0xfffffa8c
    a62c:	2e322d73 	mrccs	13, 1, r2, cr2, cr3, {3}
    a630:	61702f30 	cmnvs	r0, r0, lsr pc
    a634:	2d317472 	cfldrscs	mvf7, [r1, #-456]!	; 0xfffffe38
    a638:	74736574 	ldrbtvc	r6, [r3], #-1396	; 0xfffffa8c
    a63c:	6f6e2d31 	svcvs	0x006e2d31
    a640:	6775622d 	ldrbvs	r6, [r5, -sp, lsr #4]!
    a644:	0000632e 	andeq	r6, r0, lr, lsr #6
    a648:	43415254 	movtmi	r5, #4692	; 0x1254
    a64c:	6c613a45 			; <UNDEFINED> instruction: 0x6c613a45
    a650:	20636f6c 	rsbcs	r6, r3, ip, ror #30
    a654:	75746572 	ldrbvc	r6, [r4, #-1394]!	; 0xfffffa8e
    a658:	64656e72 	strbtvs	r6, [r5], #-3698	; 0xfffff18e
    a65c:	20752520 	rsbscs	r2, r5, r0, lsr #10
    a660:	5d70255b 	cfldr64pl	mvdx2, [r0, #-364]!	; 0xfffffe94
    a664:	0000000a 	andeq	r0, r0, sl
    a668:	494e4150 	stmdbmi	lr, {r4, r6, r8, lr}^
    a66c:	73253a43 			; <UNDEFINED> instruction: 0x73253a43
    a670:	3a73253a 	bcc	1cd3b60 <__bss_end__+0x1cc8808>
    a674:	693a6425 	ldmdbvs	sl!, {r0, r2, r5, sl, sp, lr}
    a678:	6c61766e 	stclvs	6, cr7, [r1], #-440	; 0xfffffe48
    a67c:	65206469 	strvs	r6, [r0, #-1129]!	; 0xfffffb97
    a680:	726f7272 	rsbvc	r7, pc, #536870919	; 0x20000007
    a684:	0a0a2121 	beq	292b10 <__bss_end__+0x2877b8>
    a688:	00000000 	andeq	r0, r0, r0
    a68c:	43415254 	movtmi	r5, #4692	; 0x1254
    a690:	55533a45 	ldrbpl	r3, [r3, #-2629]	; 0xfffff5bb
    a694:	53454343 	movtpl	r4, #21315	; 0x5343
    a698:	65682053 	strbvs	r2, [r8, #-83]!	; 0xffffffad
    a69c:	63207061 			; <UNDEFINED> instruction: 0x63207061
    a6a0:	6b636568 	blvs	18e3c48 <__bss_end__+0x18d88f0>
    a6a4:	6f206465 	svcvs	0x00206465
    a6a8:	000a7475 	andeq	r7, sl, r5, ror r4

0000a6ac <__FUNCTION__.4030>:
    a6ac:	6d746f6e 	ldclvs	15, cr6, [r4, #-440]!	; 0xfffffe48
    a6b0:	006e6961 	rsbeq	r6, lr, r1, ror #18
    a6b4:	253a7325 	ldrcs	r7, [sl, #-805]!	; 0xfffffcdb
    a6b8:	64253a73 	strtvs	r3, [r5], #-2675	; 0xfffff58d
    a6bc:	0000003a 	andeq	r0, r0, sl, lsr r0
    a6c0:	65657266 	strbvs	r7, [r5, #-614]!	; 0xfffffd9a
    a6c4:	20676e69 	rsbcs	r6, r7, r9, ror #28
    a6c8:	0a702509 	beq	1c13af4 <__bss_end__+0x1c0879c>
    a6cc:	00000000 	andeq	r0, r0, r0
    a6d0:	5f434f4c 	svcpl	0x00434f4c
    a6d4:	494e4150 	stmdbmi	lr, {r4, r6, r8, lr}^
    a6d8:	25203a43 	strcs	r3, [r0, #-2627]!	; 0xfffff5bd
    a6dc:	73253a73 			; <UNDEFINED> instruction: 0x73253a73
    a6e0:	3a64253a 	bcc	1913bd0 <__bss_end__+0x1908878>
    a6e4:	00000000 	andeq	r0, r0, r0
    a6e8:	65657266 	strbvs	r7, [r5, #-614]!	; 0xfffffd9a
    a6ec:	20676e69 	rsbcs	r6, r7, r9, ror #28
    a6f0:	6c616e75 	stclvs	14, cr6, [r1], #-468	; 0xfffffe2c
    a6f4:	61636f6c 	cmnvs	r3, ip, ror #30
    a6f8:	20646574 	rsbcs	r6, r4, r4, ror r5
    a6fc:	6f6d656d 	svcvs	0x006d656d
    a700:	203a7972 	eorscs	r7, sl, r2, ror r9
    a704:	74617473 	strbtvc	r7, [r1], #-1139	; 0xfffffb8d
    a708:	64253d65 	strtvs	r3, [r5], #-3429	; 0xfffff29b
    a70c:	0000000a 	andeq	r0, r0, sl
    a710:	7a646572 	bvc	1923ce0 <__bss_end__+0x1918988>
    a714:	20656e6f 	rsbcs	r6, r5, pc, ror #28
    a718:	77203123 	strvc	r3, [r0, -r3, lsr #2]!
    a71c:	63207361 			; <UNDEFINED> instruction: 0x63207361
    a720:	7572726f 	ldrbvc	r7, [r2, #-623]!	; 0xfffffd91
    a724:	64657470 	strbtvs	r7, [r5], #-1136	; 0xfffffb90
    a728:	00000a21 	andeq	r0, r0, r1, lsr #20
    a72c:	7a646572 	bvc	1923cfc <__bss_end__+0x19189a4>
    a730:	20656e6f 	rsbcs	r6, r5, pc, ror #28
    a734:	77203223 	strvc	r3, [r0, -r3, lsr #4]!
    a738:	63207361 			; <UNDEFINED> instruction: 0x63207361
    a73c:	7572726f 	ldrbvc	r7, [r2, #-623]!	; 0xfffffd91
    a740:	64657470 	strbtvs	r7, [r5], #-1136	; 0xfffffb90
    a744:	00000a21 	andeq	r0, r0, r1, lsr #20
    a748:	6c616b63 			; <UNDEFINED> instruction: 0x6c616b63
    a74c:	2e636f6c 	cdpcs	15, 6, cr6, cr3, cr12, {3}
    a750:	00000063 	andeq	r0, r0, r3, rrx
    a754:	494e4150 	stmdbmi	lr, {r4, r6, r8, lr}^
    a758:	73253a43 			; <UNDEFINED> instruction: 0x73253a43
    a75c:	3a73253a 	bcc	1cd3c4c <__bss_end__+0x1cc88f4>
    a760:	253a6425 	ldrcs	r6, [sl, #-1061]!	; 0xfffffbdb
    a764:	00000a73 	andeq	r0, r0, r3, ror sl
    a768:	705f6b63 	subsvc	r6, pc, r3, ror #22
    a76c:	695f7274 	ldmdbvs	pc, {r2, r4, r5, r6, r9, ip, sp, lr}^	; <UNPREDICTABLE>
    a770:	6c615f73 	stclvs	15, cr5, [r1], #-460	; 0xfffffe34
    a774:	65636f6c 	strbvs	r6, [r3, #-3948]!	; 0xfffff094
    a778:	64612864 	strbtvs	r2, [r1], #-2148	; 0xfffff79c
    a77c:	00297264 	eoreq	r7, r9, r4, ror #4
    a780:	6f6c6c61 	svcvs	0x006c6c61
    a784:	69746163 	ldmdbvs	r4!, {r0, r1, r5, r6, r8, sp, lr}^
    a788:	2520676e 	strcs	r6, [r0, #-1902]!	; 0xfffff892
    a78c:	25282070 	strcs	r2, [r8, #-112]!	; 0xffffff90
    a790:	79622064 	stmdbvc	r2!, {r2, r5, r6, sp}^
    a794:	29736574 	ldmdbcs	r3!, {r2, r4, r5, r6, r8, sl, sp, lr}^
    a798:	0000000a 	andeq	r0, r0, sl

0000a79c <__FUNCTION__.4086>:
    a79c:	72666b63 	rsbvc	r6, r6, #101376	; 0x18c00
    a7a0:	00006565 	andeq	r6, r0, r5, ror #10
    a7a4:	75716552 	ldrbvc	r6, [r1, #-1362]!	; 0xfffffaae
    a7a8:	74737265 	ldrbtvc	r7, [r3], #-613	; 0xfffffd9b
    a7ac:	20676e69 	rsbcs	r6, r7, r9, ror #28
    a7b0:	65726f6d 	ldrbvs	r6, [r2, #-3949]!	; 0xfffff093
    a7b4:	6d656d20 	stclvs	13, cr6, [r5, #-128]!	; 0xffffff80
    a7b8:	2079726f 	rsbscs	r7, r9, pc, ror #4
    a7bc:	29642528 	stmdbcs	r4!, {r3, r5, r8, sl, sp}^
    a7c0:	0a2e2e2e 	beq	b96080 <__bss_end__+0xb8ad28>
    a7c4:	00000000 	andeq	r0, r0, r0
    a7c8:	672d6b63 	strvs	r6, [sp, -r3, ror #22]!
    a7cc:	00632e63 	rsbeq	r2, r3, r3, ror #28
    a7d0:	203c2070 	eorscs	r2, ip, r0, ror r0
    a7d4:	00000065 	andeq	r0, r0, r5, rrx
    a7d8:	67696c61 	strbvs	r6, [r9, -r1, ror #24]!
    a7dc:	2864656e 	stmdacs	r4!, {r1, r2, r3, r5, r6, r8, sl, sp, lr}^
    a7e0:	34202c70 	strtcc	r2, [r0], #-3184	; 0xfffff390
    a7e4:	00000029 	andeq	r0, r0, r9, lsr #32
    a7e8:	67696c61 	strbvs	r6, [r9, -r1, ror #24]!
    a7ec:	2864656e 	stmdacs	r4!, {r1, r2, r3, r5, r6, r8, sl, sp, lr}^
    a7f0:	34202c65 	strtcc	r2, [r0], #-3173	; 0xfffff39b
    a7f4:	00000029 	andeq	r0, r0, r9, lsr #32
    a7f8:	6e696f67 	cdpvs	15, 6, cr6, cr9, cr7, {3}
    a7fc:	6f742067 	svcvs	0x00742067
    a800:	72616d20 	rsbvc	r6, r1, #32, 26	; 0x800
    a804:	7025206b 	eorvc	r2, r5, fp, rrx
    a808:	20692820 	rsbcs	r2, r9, r0, lsr #16
    a80c:	70252040 	eorvc	r2, r5, r0, asr #32
    a810:	25203d20 	strcs	r3, [r0, #-3360]!	; 0xfffff2e0
    a814:	202c2970 	eorcs	r2, ip, r0, ror r9
    a818:	20707865 	rsbscs	r7, r0, r5, ror #16
    a81c:	7025203d 	eorvc	r2, r5, sp, lsr r0
    a820:	0000000a 	andeq	r0, r0, sl
    a824:	6b72616d 	blvs	1ca2de0 <__bss_end__+0x1c97a88>
    a828:	20676e69 	rsbcs	r6, r7, r9, ror #28
    a82c:	25207361 	strcs	r7, [r0, #-865]!	; 0xfffffc9f
    a830:	00000a64 	andeq	r0, r0, r4, ror #20
    a834:	20746f6e 	rsbscs	r6, r4, lr, ror #30
    a838:	6b72616d 	blvs	1ca2df4 <__bss_end__+0x1c97a9c>
    a83c:	21676e69 	cmncs	r7, r9, ror #28
    a840:	0000000a 	andeq	r0, r0, sl
    a844:	63656863 	cmnvs	r5, #6488064	; 0x630000
    a848:	676e696b 	strbvs	r6, [lr, -fp, ror #18]!
    a84c:	61747320 	cmnvs	r4, r0, lsr #6
    a850:	203a6b63 	eorscs	r6, sl, r3, ror #22
    a854:	74207025 	strtvc	r7, [r0], #-37	; 0xffffffdb
    a858:	7025206f 	eorvc	r2, r5, pc, rrx
    a85c:	0000000a 	andeq	r0, r0, sl
    a860:	2d2d2d2d 	stccs	13, cr2, [sp, #-180]!	; 0xffffff4c
    a864:	2d2d2d2d 	stccs	13, cr2, [sp, #-180]!	; 0xffffff4c
    a868:	2d2d2d2d 	stccs	13, cr2, [sp, #-180]!	; 0xffffff4c
    a86c:	2d2d2d2d 	stccs	13, cr2, [sp, #-180]!	; 0xffffff4c
    a870:	2d2d2d2d 	stccs	13, cr2, [sp, #-180]!	; 0xffffff4c
    a874:	2d2d2d2d 	stccs	13, cr2, [sp, #-180]!	; 0xffffff4c
    a878:	2d2d2d2d 	stccs	13, cr2, [sp, #-180]!	; 0xffffff4c
    a87c:	2d2d2d2d 	stccs	13, cr2, [sp, #-180]!	; 0xffffff4c
    a880:	2d2d2d2d 	stccs	13, cr2, [sp, #-180]!	; 0xffffff4c
    a884:	2d2d2d2d 	stccs	13, cr2, [sp, #-180]!	; 0xffffff4c
    a888:	2d2d2d2d 	stccs	13, cr2, [sp, #-180]!	; 0xffffff4c
    a88c:	2d2d2d2d 	stccs	13, cr2, [sp, #-180]!	; 0xffffff4c
    a890:	2d2d2d2d 	stccs	13, cr2, [sp, #-180]!	; 0xffffff4c
    a894:	2d2d2d2d 	stccs	13, cr2, [sp, #-180]!	; 0xffffff4c
    a898:	00000a2d 	andeq	r0, r0, sp, lsr #20
    a89c:	63656863 	cmnvs	r5, #6488064	; 0x630000
    a8a0:	676e696b 	strbvs	r6, [lr, -fp, ror #18]!
    a8a4:	726f6620 	rsbvc	r6, pc, #32, 12	; 0x2000000
    a8a8:	61656c20 	cmnvs	r5, r0, lsr #24
    a8ac:	0a3a736b 	beq	ea7660 <__bss_end__+0xe9c308>
    a8b0:	00000000 	andeq	r0, r0, r0
    a8b4:	4c3a4347 	ldcmi	3, cr4, [sl], #-284	; 0xfffffee4
    a8b8:	2054534f 	subscs	r5, r4, pc, asr #6
    a8bc:	2d206425 	cfstrscs	mvf6, [r0, #-148]!	; 0xffffff6c
    a8c0:	7025203e 	eorvc	r2, r5, lr, lsr r0
    a8c4:	0000000a 	andeq	r0, r0, sl
    a8c8:	4d3a4347 	ldcmi	3, cr4, [sl, #-284]!	; 0xfffffee4
    a8cc:	45425941 	strbmi	r5, [r2, #-2369]	; 0xfffff6bf
    a8d0:	534f4c20 	movtpl	r4, #64544	; 0xfc20
    a8d4:	64252054 	strtvs	r2, [r5], #-84	; 0xffffffac
    a8d8:	203e2d20 	eorscs	r2, lr, r0, lsr #26
    a8dc:	000a7025 	andeq	r7, sl, r5, lsr #32
    a8e0:	43415254 	movtmi	r5, #4692	; 0x1254
    a8e4:	47093a45 	strmi	r3, [r9, -r5, asr #20]
    a8e8:	68433a43 	stmdavs	r3, {r0, r1, r6, r9, fp, ip, sp}^
    a8ec:	656b6365 	strbvs	r6, [fp, #-869]!	; 0xfffffc9b
    a8f0:	64252064 	strtvs	r2, [r5], #-100	; 0xffffff9c
    a8f4:	6f6c6220 	svcvs	0x006c6220
    a8f8:	2e736b63 	vsubcs.f64	d22, d3, d19
    a8fc:	0000000a 	andeq	r0, r0, sl
    a900:	43415254 	movtmi	r5, #4692	; 0x1254
    a904:	09093a45 	stmdbeq	r9, {r0, r2, r6, r9, fp, ip, sp}
    a908:	533a4347 	teqpl	sl, #469762049	; 0x1c000001
    a90c:	45434355 	strbmi	r4, [r3, #-853]	; 0xfffffcab
    a910:	203a5353 	eorscs	r5, sl, r3, asr r3
    a914:	6c206f4e 	stcvs	15, cr6, [r0], #-312	; 0xfffffec8
    a918:	736b6165 	cmnvc	fp, #1073741849	; 0x40000019
    a91c:	756f6620 	strbvc	r6, [pc, #-1568]!	; a304 <kfree_all+0x4>
    a920:	0a21646e 	beq	863ae0 <__bss_end__+0x858788>
    a924:	00000000 	andeq	r0, r0, r0
    a928:	43415254 	movtmi	r5, #4692	; 0x1254
    a92c:	09093a45 	stmdbeq	r9, {r0, r2, r6, r9, fp, ip, sp}
    a930:	453a4347 	ldrmi	r4, [sl, #-839]!	; 0xfffffcb9
    a934:	524f5252 	subpl	r5, pc, #536870917	; 0x20000005
    a938:	25203a53 	strcs	r3, [r0, #-2643]!	; 0xfffff5ad
    a93c:	72652064 	rsbvc	r2, r5, #100, 0	; 0x64
    a940:	73726f72 	cmnvc	r2, #456	; 0x1c8
    a944:	6425202c 	strtvs	r2, [r5], #-44	; 0xffffffd4
    a948:	79616d20 	stmdbvc	r1!, {r5, r8, sl, fp, sp, lr}^
    a94c:	655f6562 	ldrbvs	r6, [pc, #-1378]	; a3f2 <gpio_set_output+0x1e>
    a950:	726f7272 	rsbvc	r7, pc, #536870919	; 0x20000007
    a954:	00000a73 	andeq	r0, r0, r3, ror sl
    a958:	2d2d2d2d 	stccs	13, cr2, [sp, #-180]!	; 0xffffff4c
    a95c:	2d2d2d2d 	stccs	13, cr2, [sp, #-180]!	; 0xffffff4c
    a960:	2d2d2d2d 	stccs	13, cr2, [sp, #-180]!	; 0xffffff4c
    a964:	2d2d2d2d 	stccs	13, cr2, [sp, #-180]!	; 0xffffff4c
    a968:	2d2d2d2d 	stccs	13, cr2, [sp, #-180]!	; 0xffffff4c
    a96c:	2d2d2d2d 	stccs	13, cr2, [sp, #-180]!	; 0xffffff4c
    a970:	2d2d2d2d 	stccs	13, cr2, [sp, #-180]!	; 0xffffff4c
    a974:	2d2d2d2d 	stccs	13, cr2, [sp, #-180]!	; 0xffffff4c
    a978:	2d2d2d2d 	stccs	13, cr2, [sp, #-180]!	; 0xffffff4c
    a97c:	2d2d2d2d 	stccs	13, cr2, [sp, #-180]!	; 0xffffff4c
    a980:	2d2d2d2d 	stccs	13, cr2, [sp, #-180]!	; 0xffffff4c
    a984:	2d2d2d2d 	stccs	13, cr2, [sp, #-180]!	; 0xffffff4c
    a988:	2d2d2d2d 	stccs	13, cr2, [sp, #-180]!	; 0xffffff4c
    a98c:	2d2d2d2d 	stccs	13, cr2, [sp, #-180]!	; 0xffffff4c
    a990:	000a2d2d 	andeq	r2, sl, sp, lsr #26
    a994:	706d6f63 	rsbvc	r6, sp, r3, ror #30
    a998:	69746361 	ldmdbvs	r4!, {r0, r5, r6, r8, r9, sp, lr}^
    a99c:	0a3a676e 	beq	ea475c <__bss_end__+0xe99404>
    a9a0:	00000000 	andeq	r0, r0, r0
    a9a4:	463a4347 	ldrtmi	r4, [sl], -r7, asr #6
    a9a8:	44454552 	strbmi	r4, [r5], #-1362	; 0xfffffaae
    a9ac:	0a702520 	beq	1c13e34 <__bss_end__+0x1c08adc>
    a9b0:	00000000 	andeq	r0, r0, r0
    a9b4:	43415254 	movtmi	r5, #4692	; 0x1254
    a9b8:	47093a45 	strmi	r3, [r9, -r5, asr #20]
    a9bc:	68433a43 	stmdavs	r3, {r0, r1, r6, r9, fp, ip, sp}^
    a9c0:	656b6365 	strbvs	r6, [fp, #-869]!	; 0xfffffc9b
    a9c4:	64252064 	strtvs	r2, [r5], #-100	; 0xffffff9c
    a9c8:	6f6c6220 	svcvs	0x006c6220
    a9cc:	2c736b63 			; <UNDEFINED> instruction: 0x2c736b63
    a9d0:	65726620 	ldrbvs	r6, [r2, #-1568]!	; 0xfffff9e0
    a9d4:	25206465 	strcs	r6, [r0, #-1125]!	; 0xfffffb9b
    a9d8:	25202c64 	strcs	r2, [r0, #-3172]!	; 0xfffff39c
    a9dc:	79622064 	stmdbvc	r2!, {r2, r5, r6, sp}^
    a9e0:	0a736574 	beq	1ce3fb8 <__bss_end__+0x1cd8c60>
    a9e4:	00000000 	andeq	r0, r0, r0
    a9e8:	72636e69 	rsbvc	r6, r3, #1680	; 0x690
    a9ec:	6e656d65 	cdpvs	13, 6, cr6, cr5, cr5, {3}
    a9f0:	203e2074 	eorscs	r2, lr, r4, ror r0
    a9f4:	00000030 	andeq	r0, r0, r0, lsr r0
    a9f8:	494e4150 	stmdbmi	lr, {r4, r6, r8, lr}^
    a9fc:	73253a43 			; <UNDEFINED> instruction: 0x73253a43
    aa00:	3a73253a 	bcc	1cd3ef0 <__bss_end__+0x1cc8b98>
    aa04:	6e3a6425 	cdpvs	4, 3, cr6, cr10, cr5, {1}
    aa08:	6820746f 	stmdavs	r0!, {r0, r1, r2, r3, r5, r6, sl, ip, sp, lr}
    aa0c:	6c646e61 	stclvs	14, cr6, [r4], #-388	; 0xfffffe7c
    aa10:	0a676e69 	beq	19e63bc <__bss_end__+0x19db064>
    aa14:	0000000a 	andeq	r0, r0, sl
    aa18:	73696874 	cmnvc	r9, #116, 16	; 0x740000
    aa1c:	6c6c6120 	stfvse	f6, [ip], #-128	; 0xffffff80
    aa20:	7461636f 	strbtvc	r6, [r1], #-879	; 0xfffffc91
    aa24:	276e6f69 	strbcs	r6, [lr, -r9, ror #30]!
    aa28:	65722073 	ldrbvs	r2, [r2, #-115]!	; 0xffffff8d
    aa2c:	6e6f7a64 	vnmulvs.f32	s15, s30, s9
    aa30:	77207365 	strvc	r7, [r0, -r5, ror #6]!
    aa34:	20657265 	rsbcs	r7, r5, r5, ror #4
    aa38:	74697277 	strbtvc	r7, [r9], #-631	; 0xfffffd89
    aa3c:	206e6574 	rsbcs	r6, lr, r4, ror r5
    aa40:	0a216f74 	beq	866818 <__bss_end__+0x85b4c0>
    aa44:	00000000 	andeq	r0, r0, r0
    aa48:	20736177 	rsbscs	r6, r3, r7, ror r1
    aa4c:	64657375 	strbtvs	r7, [r5], #-885	; 0xfffffc8b
    aa50:	74666120 	strbtvc	r6, [r6], #-288	; 0xfffffee0
    aa54:	66207265 	strtvs	r7, [r0], -r5, ror #4
    aa58:	21656572 	smccs	22098	; 0x5652
    aa5c:	0000000a 	andeq	r0, r0, sl
    aa60:	494e4150 	stmdbmi	lr, {r4, r6, r8, lr}^
    aa64:	73253a43 			; <UNDEFINED> instruction: 0x73253a43
    aa68:	3a73253a 	bcc	1cd3f58 <__bss_end__+0x1cc8c00>
    aa6c:	473a6425 	ldrmi	r6, [sl, -r5, lsr #8]!
    aa70:	73203a43 			; <UNDEFINED> instruction: 0x73203a43
    aa74:	6c756f68 	ldclvs	15, cr6, [r5], #-416	; 0xfffffe60
    aa78:	61682064 	cmnvs	r8, r4, rrx
    aa7c:	6e206576 	mcrvs	5, 1, r6, cr0, cr6, {3}
    aa80:	656c206f 	strbvs	r2, [ip, #-111]!	; 0xffffff91
    aa84:	21736b61 	cmncs	r3, r1, ror #22
    aa88:	00000a0a 	andeq	r0, r0, sl, lsl #20
    aa8c:	43415254 	movtmi	r5, #4692	; 0x1254
    aa90:	43473a45 	movtmi	r3, #31301	; 0x7a45
    aa94:	5553203a 	ldrbpl	r2, [r3, #-58]	; 0xffffffc6
    aa98:	53454343 	movtpl	r4, #21315	; 0x5343
    aa9c:	6e203a53 			; <UNDEFINED> instruction: 0x6e203a53
    aaa0:	656c206f 	strbvs	r2, [ip, #-111]!	; 0xffffff91
    aaa4:	21736b61 	cmncs	r3, r1, ror #22
    aaa8:	0000000a 	andeq	r0, r0, sl
    aaac:	494e4150 	stmdbmi	lr, {r4, r6, r8, lr}^
    aab0:	73253a43 			; <UNDEFINED> instruction: 0x73253a43
    aab4:	3a73253a 	bcc	1cd3fa4 <__bss_end__+0x1cc8c4c>
    aab8:	473a6425 	ldrmi	r6, [sl, -r5, lsr #8]!
    aabc:	73203a43 			; <UNDEFINED> instruction: 0x73203a43
    aac0:	6c756f68 	ldclvs	15, cr6, [r5], #-416	; 0xfffffe60
    aac4:	61682064 	cmnvs	r8, r4, rrx
    aac8:	6c206576 	cfstr32vs	mvfx6, [r0], #-472	; 0xfffffe28
    aacc:	736b6165 	cmnvc	fp, #1073741849	; 0x40000019
    aad0:	000a0a21 	andeq	r0, sl, r1, lsr #20
    aad4:	43415254 	movtmi	r5, #4692	; 0x1254
    aad8:	43473a45 	movtmi	r3, #31301	; 0x7a45
    aadc:	5553203a 	ldrbpl	r2, [r3, #-58]	; 0xffffffc6
    aae0:	53454343 	movtpl	r4, #21315	; 0x5343
    aae4:	66203a53 			; <UNDEFINED> instruction: 0x66203a53
    aae8:	646e756f 	strbtvs	r7, [lr], #-1391	; 0xfffffa91
    aaec:	20642520 	rsbcs	r2, r4, r0, lsr #10
    aaf0:	6b61656c 	blvs	18640a8 <__bss_end__+0x1858d50>
    aaf4:	000a2173 	andeq	r2, sl, r3, ror r1
    aaf8:	494e4150 	stmdbmi	lr, {r4, r6, r8, lr}^
    aafc:	73253a43 			; <UNDEFINED> instruction: 0x73253a43
    ab00:	3a73253a 	bcc	1cd3ff0 <__bss_end__+0x1cc8c98>
    ab04:	643a6425 	ldrtvs	r6, [sl], #-1061	; 0xfffffbdb
    ab08:	6e206469 	cdpvs	4, 2, cr6, cr0, cr9, {3}
    ab0c:	6920746f 	stmdbvs	r0!, {r0, r1, r2, r3, r5, r6, sl, ip, sp, lr}
    ab10:	656c706d 	strbvs	r7, [ip, #-109]!	; 0xffffff93
    ab14:	746e656d 	strbtvc	r6, [lr], #-1389	; 0xfffffa93
    ab18:	6d756420 	cfldrdvs	mvd6, [r5, #-128]!	; 0xffffff80
    ab1c:	65725f70 	ldrbvs	r5, [r2, #-3952]!	; 0xfffff090
    ab20:	0a217367 	beq	8678c4 <__bss_end__+0x85c56c>
    ab24:	0000000a 	andeq	r0, r0, sl

0000ab28 <__FUNCTION__.4051>:
    ab28:	6b72616d 	blvs	1ca30e4 <__bss_end__+0x1c97d8c>
    ab2c:	00000000 	andeq	r0, r0, r0

0000ab30 <__FUNCTION__.4125>:
    ab30:	65657773 	strbvs	r7, [r5, #-1907]!	; 0xfffff88d
    ab34:	72665f70 	rsbvc	r5, r6, #112, 30	; 0x1c0
    ab38:	00006565 	andeq	r6, r0, r5, ror #10

0000ab3c <__FUNCTION__.4038>:
    ab3c:	6b726273 	blvs	1ca3510 <__bss_end__+0x1c981b8>
    ab40:	00000000 	andeq	r0, r0, r0

0000ab44 <__FUNCTION__.4112>:
    ab44:	63656863 	cmnvs	r5, #6488064	; 0x630000
    ab48:	6f6e5f6b 	svcvs	0x006e5f6b
    ab4c:	61656c5f 	cmnvs	r5, pc, asr ip
    ab50:	0000006b 	andeq	r0, r0, fp, rrx

0000ab54 <__FUNCTION__.4117>:
    ab54:	63656863 	cmnvs	r5, #6488064	; 0x630000
    ab58:	68735f6b 	ldmdavs	r3!, {r0, r1, r3, r5, r6, r8, r9, sl, fp, ip, lr}^
    ab5c:	646c756f 	strbtvs	r7, [ip], #-1391	; 0xfffffa91
    ab60:	61656c5f 	cmnvs	r5, pc, asr ip
    ab64:	0000006b 	andeq	r0, r0, fp, rrx

0000ab68 <__FUNCTION__.4136>:
    ab68:	6c706d69 	ldclvs	13, cr6, [r0], #-420	; 0xfffffe5c
    ab6c:	6e656d65 	cdpvs	13, 6, cr6, cr5, cr5, {3}
    ab70:	68745f74 	ldmdavs	r4!, {r2, r4, r5, r6, r8, r9, sl, fp, ip, lr}^
    ab74:	00007369 	andeq	r7, r0, r9, ror #6
    ab78:	003f3f3f 	eorseq	r3, pc, pc, lsr pc	; <UNPREDICTABLE>
    ab7c:	20642523 	rsbcs	r2, r4, r3, lsr #10
    ab80:	28207825 	stmdacs	r0!, {r0, r2, r5, fp, ip, sp, lr}
    ab84:	0a297325 	beq	a67820 <__bss_end__+0xa5c4c8>
    ab88:	00000000 	andeq	r0, r0, r0
    ab8c:	696c2f2e 	stmdbvs	ip!, {r1, r2, r3, r5, r8, r9, sl, fp, sp}^
    ab90:	762f6362 	strtvc	r6, [pc], -r2, ror #6
    ab94:	72702d61 	rsbsvc	r2, r0, #6208	; 0x1840
    ab98:	6b746e69 	blvs	1d26544 <__bss_end__+0x1d1b1ec>
    ab9c:	0000632e 	andeq	r6, r0, lr, lsr #6
    aba0:	33323130 	teqcc	r2, #12
    aba4:	37363534 			; <UNDEFINED> instruction: 0x37363534
    aba8:	62613938 	rsbvs	r3, r1, #56, 18	; 0xe0000
    abac:	66656463 	strbtvs	r6, [r5], -r3, ror #8
    abb0:	00000000 	andeq	r0, r0, r0
    abb4:	00003130 	andeq	r3, r0, r0, lsr r1
    abb8:	33323130 	teqcc	r2, #12
    abbc:	37363534 			; <UNDEFINED> instruction: 0x37363534
    abc0:	00003938 	andeq	r3, r0, r8, lsr r9
    abc4:	63747570 	cmnvs	r4, #112, 10	; 0x1c000000
    abc8:	0070665f 	rsbseq	r6, r0, pc, asr r6
    abcc:	74646977 	strbtvc	r6, [r4], #-2423	; 0xfffff689
    abd0:	203c2068 	eorscs	r2, ip, r8, rrx
    abd4:	00003233 	andeq	r3, r0, r3, lsr r2
    abd8:	00786c6c 	rsbseq	r6, r8, ip, ror #24
    abdc:	253d3078 	ldrcs	r3, [sp, #-120]!	; 0xffffff88
    abe0:	00000a78 	andeq	r0, r0, r8, ror sl
    abe4:	253d3178 	ldrcs	r3, [sp, #-376]!	; 0xfffffe88
    abe8:	00000a78 	andeq	r0, r0, r8, ror sl
    abec:	00646c6c 	rsbeq	r6, r4, ip, ror #24
    abf0:	6e727473 	mrcvs	4, 3, r7, cr2, cr3, {3}
    abf4:	28706d63 	ldmdacs	r0!, {r0, r1, r5, r6, r8, sl, fp, sp, lr}^
    abf8:	202c7974 	eorcs	r7, ip, r4, ror r9
    abfc:	786c6c22 	stmdavc	ip!, {r1, r5, sl, fp, sp, lr}^
    ac00:	33202c22 			; <UNDEFINED> instruction: 0x33202c22
    ac04:	3d3d2029 	ldccc	0, cr2, [sp, #-164]!	; 0xffffff5c
    ac08:	7c203020 	stcvc	0, cr3, [r0], #-128	; 0xffffff80
    ac0c:	7473207c 	ldrbtvc	r2, [r3], #-124	; 0xffffff84
    ac10:	6d636e72 	stclvs	14, cr6, [r3, #-456]!	; 0xfffffe38
    ac14:	79742870 	ldmdbvc	r4!, {r4, r5, r6, fp, sp}^
    ac18:	6c22202c 	stcvs	0, cr2, [r2], #-176	; 0xffffff50
    ac1c:	2c22646c 	cfstrscs	mvf6, [r2], #-432	; 0xfffffe50
    ac20:	20293320 	eorcs	r3, r9, r0, lsr #6
    ac24:	30203d3d 	eorcc	r3, r0, sp, lsr sp
    ac28:	00000000 	andeq	r0, r0, r0
    ac2c:	494e4150 	stmdbmi	lr, {r4, r6, r8, lr}^
    ac30:	73253a43 			; <UNDEFINED> instruction: 0x73253a43
    ac34:	3a73253a 	bcc	1cd4124 <__bss_end__+0x1cc8dcc>
    ac38:	693a6425 	ldmdbvs	sl!, {r0, r2, r5, sl, sp, lr}
    ac3c:	736f706d 	cmnvc	pc, #109, 0	; 0x6d
    ac40:	6c626973 			; <UNDEFINED> instruction: 0x6c626973
    ac44:	66203a65 	strtvs	r3, [r0], -r5, ror #20
    ac48:	3c3d746d 	cfldrscc	mvf7, [sp], #-436	; 0xfffffe4c
    ac4c:	0a3e7325 	beq	fa78e8 <__bss_end__+0xf9c590>
    ac50:	0000000a 	andeq	r0, r0, sl
    ac54:	494e4150 	stmdbmi	lr, {r4, r6, r8, lr}^
    ac58:	73253a43 			; <UNDEFINED> instruction: 0x73253a43
    ac5c:	3a73253a 	bcc	1cd414c <__bss_end__+0x1cc8df4>
    ac60:	663a6425 	ldrtvs	r6, [sl], -r5, lsr #8
    ac64:	74616f6c 	strbtvc	r6, [r1], #-3948	; 0xfffff094
    ac68:	746f6e20 	strbtvc	r6, [pc], #-3616	; ac70 <__FUNCTION__.4136+0x108>
    ac6c:	616e6520 	cmnvs	lr, r0, lsr #10
    ac70:	64656c62 	strbtvs	r6, [r5], #-3170	; 0xfffff39e
    ac74:	0a212121 	beq	853100 <__bss_end__+0x847da8>
    ac78:	00000000 	andeq	r0, r0, r0
    ac7c:	6e697270 	mcrvs	2, 3, r7, cr9, cr0, {3}
    ac80:	203a6b74 	eorscs	r6, sl, r4, ror fp
    ac84:	20746f6e 	rsbscs	r6, r4, lr, ror #30
    ac88:	646e6168 	strbtvs	r6, [lr], #-360	; 0xfffffe98
    ac8c:	676e696c 	strbvs	r6, [lr, -ip, ror #18]!
    ac90:	65707320 	ldrbvs	r7, [r0, #-800]!	; 0xfffffce0
    ac94:	69666963 	stmdbvs	r6!, {r0, r1, r5, r6, r8, fp, sp, lr}^
    ac98:	27207265 	strcs	r7, [r0, -r5, ror #4]!
    ac9c:	20276325 	eorcs	r6, r7, r5, lsr #6
    aca0:	63736128 	cmnvs	r3, #10
    aca4:	253d6969 	ldrcs	r6, [sp, #-2409]!	; 0xfffff697
    aca8:	000a2964 	andeq	r2, sl, r4, ror #18
    acac:	494e4150 	stmdbmi	lr, {r4, r6, r8, lr}^
    acb0:	73253a43 			; <UNDEFINED> instruction: 0x73253a43
    acb4:	3a73253a 	bcc	1cd41a4 <__bss_end__+0x1cc8e4c>
    acb8:	703a6425 	eorsvc	r6, sl, r5, lsr #8
    acbc:	746e6972 	strbtvc	r6, [lr], #-2418	; 0xfffff68e
    acc0:	7265206b 	rsbvc	r2, r5, #107, 0	; 0x6b
    acc4:	0a726f72 	beq	1ca6a94 <__bss_end__+0x1c9b73c>
    acc8:	0000000a 	andeq	r0, r0, sl

0000accc <__FUNCTION__.4004>:
    accc:	74696d65 	strbtvc	r6, [r9], #-3429	; 0xfffff29b
    acd0:	00000000 	andeq	r0, r0, r0

0000acd4 <__FUNCTION__.3952>:
    acd4:	5f697072 	svcpl	0x00697072
    acd8:	5f746573 	svcpl	0x00746573
    acdc:	7074756f 	rsbsvc	r7, r4, pc, ror #10
    ace0:	00007475 	andeq	r7, r0, r5, ror r4

0000ace4 <__FUNCTION__.4030>:
    ace4:	705f6176 	subsvc	r6, pc, r6, ror r1	; <UNPREDICTABLE>
    ace8:	746e6972 	strbtvc	r6, [lr], #-2418	; 0xfffff68e
    acec:	0000006b 	andeq	r0, r0, fp, rrx
    acf0:	454e4f44 	strbmi	r4, [lr, #-3908]	; 0xfffff0bc
    acf4:	0a212121 	beq	853180 <__bss_end__+0x847e28>
    acf8:	00000000 	andeq	r0, r0, r0
    acfc:	6e75525b 	mrcvs	2, 3, r5, cr5, cr11, {2}
    ad00:	676e696e 	strbvs	r6, [lr, -lr, ror #18]!
    ad04:	6f6f7420 	svcvs	0x006f7420
    ad08:	6425206b 	strtvs	r2, [r5], #-107	; 0xffffff95
    ad0c:	63796320 	cmnvs	r9, #32, 6	; 0x80000000
    ad10:	5d73656c 	cfldr64pl	mvdx6, [r3, #-432]!	; 0xfffffe50
    ad14:	0000000a 	andeq	r0, r0, sl
    ad18:	6c616d6b 	stclvs	13, cr6, [r1], #-428	; 0xfffffe54
    ad1c:	2e636f6c 	cdpcs	15, 6, cr6, cr3, cr12, {3}
    ad20:	00000063 	andeq	r0, r0, r3, rrx
    ad24:	5f78616d 	svcpl	0x0078616d
    ad28:	7479626e 	ldrbtvc	r6, [r9], #-622	; 0xfffffd92
    ad2c:	00007365 	andeq	r7, r0, r5, ror #6
    ad30:	494e4150 	stmdbmi	lr, {r4, r6, r8, lr}^
    ad34:	73253a43 			; <UNDEFINED> instruction: 0x73253a43
    ad38:	3a73253a 	bcc	1cd4228 <__bss_end__+0x1cc8ed0>
    ad3c:	733a6425 	teqvc	sl, #620756992	; 0x25000000
    ad40:	69747465 	ldmdbvs	r4!, {r0, r2, r5, r6, sl, ip, sp, lr}^
    ad44:	6820676e 	stmdavs	r0!, {r1, r2, r3, r5, r6, r8, r9, sl, sp, lr}
    ad48:	20706165 	rsbscs	r6, r0, r5, ror #2
    ad4c:	25206f74 	strcs	r6, [r0, #-3956]!	; 0xfffff08c
    ad50:	77203a70 			; <UNDEFINED> instruction: 0x77203a70
    ad54:	206c6c69 	rsbcs	r6, ip, r9, ror #24
    ad58:	20746968 	rsbscs	r6, r4, r8, ror #18
    ad5c:	20656874 	rsbcs	r6, r5, r4, ror r8
    ad60:	20646c6f 	rsbcs	r6, r4, pc, ror #24
    ad64:	70616568 	rsbvc	r6, r1, r8, ror #10
    ad68:	20746120 	rsbscs	r6, r4, r0, lsr #2
    ad6c:	0a0a7025 	beq	2a6e08 <__bss_end__+0x29bab0>
    ad70:	00000000 	andeq	r0, r0, r0
    ad74:	494e4150 	stmdbmi	lr, {r4, r6, r8, lr}^
    ad78:	73253a43 			; <UNDEFINED> instruction: 0x73253a43
    ad7c:	3a73253a 	bcc	1cd426c <__bss_end__+0x1cc8f14>
    ad80:	613a6425 	teqvs	sl, r5, lsr #8
    ad84:	6165726c 	cmnvs	r5, ip, ror #4
    ad88:	63207964 			; <UNDEFINED> instruction: 0x63207964
    ad8c:	656c6c61 	strbvs	r6, [ip, #-3169]!	; 0xfffff39f
    ad90:	6d6b2064 	stclvs	0, cr2, [fp, #-400]!	; 0xfffffe70
    ad94:	6f6c6c61 	svcvs	0x006c6c61
    ad98:	6e695f63 	cdpvs	15, 6, cr5, cr9, cr3, {3}
    ad9c:	0a0a7469 	beq	2a7f48 <__bss_end__+0x29cbf0>
    ada0:	00000000 	andeq	r0, r0, r0
    ada4:	494e4150 	stmdbmi	lr, {r4, r6, r8, lr}^
    ada8:	73253a43 			; <UNDEFINED> instruction: 0x73253a43
    adac:	3a73253a 	bcc	1cd429c <__bss_end__+0x1cc8f44>
    adb0:	253a6425 	ldrcs	r6, [sl, #-1061]!	; 0xfffffbdb
    adb4:	626e2064 	rsbvs	r2, lr, #100, 0	; 0x64
    adb8:	73657479 	cmnvc	r5, #2030043136	; 0x79000000
    adbc:	63786520 	cmnvs	r8, #32, 10	; 0x8000000
    adc0:	65646565 	strbvs	r6, [r4, #-1381]!	; 0xfffffa9b
    adc4:	69732064 	ldmdbvs	r3!, {r2, r5, r6, sp}^
    adc8:	6f20657a 	svcvs	0x0020657a
    adcc:	65682066 	strbvs	r2, [r8, #-102]!	; 0xffffff9a
    add0:	62207061 	eorvs	r7, r0, #97, 0	; 0x61
    add4:	75252079 	strvc	r2, [r5, #-121]!	; 0xffffff87
    add8:	79626e20 	stmdbvc	r2!, {r5, r9, sl, fp, sp, lr}^
    addc:	0a736574 	beq	1ce43b4 <__bss_end__+0x1cd905c>
    ade0:	0000000a 	andeq	r0, r0, sl
    ade4:	4f525245 	svcmi	0x00525245
    ade8:	73253a52 			; <UNDEFINED> instruction: 0x73253a52
    adec:	3a73253a 	bcc	1cd42dc <__bss_end__+0x1cc8f84>
    adf0:	203a6425 	eorscs	r6, sl, r5, lsr #8
    adf4:	534c4146 	movtpl	r4, #49478	; 0xc146
    adf8:	253c2845 	ldrcs	r2, [ip, #-2117]!	; 0xfffff7bb
    adfc:	3a293e73 	bcc	a5a7d0 <__bss_end__+0xa4f478>
    ae00:	73736120 	cmnvc	r3, #8
    ae04:	6e696d75 	mcrvs	13, 3, r6, cr9, cr5, {3}
    ae08:	6f702067 	svcvs	0x00702067
    ae0c:	20726577 	rsbscs	r6, r2, r7, ror r5
    ae10:	7420666f 	strtvc	r6, [r0], #-1647	; 0xfffff991
    ae14:	000a6f77 	andeq	r6, sl, r7, ror pc
    ae18:	705f7369 	subsvc	r7, pc, r9, ror #6
    ae1c:	2832776f 	ldmdacs	r2!, {r0, r1, r2, r3, r5, r6, r8, r9, sl, ip, sp, lr}
    ae20:	67696c61 	strbvs	r6, [r9, -r1, ror #24]!
    ae24:	6e656d6e 	cdpvs	13, 6, cr6, cr5, cr14, {3}
    ae28:	00002974 	andeq	r2, r0, r4, ror r9
    ae2c:	705f7369 	subsvc	r7, pc, r9, ror #6
    ae30:	2832776f 	ldmdacs	r2!, {r0, r1, r2, r3, r5, r6, r8, r9, sl, ip, sp, lr}
    ae34:	0000296e 	andeq	r2, r0, lr, ror #18
    ae38:	4f525245 	svcmi	0x00525245
    ae3c:	73253a52 			; <UNDEFINED> instruction: 0x73253a52
    ae40:	3a73253a 	bcc	1cd4330 <__bss_end__+0x1cc8fd8>
    ae44:	203a6425 	eorscs	r6, sl, r5, lsr #8
    ae48:	534c4146 	movtpl	r4, #49478	; 0xc146
    ae4c:	253c2845 	ldrcs	r2, [ip, #-2117]!	; 0xfffff7bb
    ae50:	3a293e73 	bcc	a5a824 <__bss_end__+0xa4f4cc>
    ae54:	706d6920 	rsbvc	r6, sp, r0, lsr #18
    ae58:	6973736f 	ldmdbvs	r3!, {r0, r1, r2, r3, r5, r6, r8, r9, ip, sp, lr}^
    ae5c:	0a656c62 	beq	1965fec <__bss_end__+0x195ac94>
    ae60:	00000000 	andeq	r0, r0, r0
    ae64:	615f7369 	cmpvs	pc, r9, ror #6
    ae68:	6e67696c 	vnmulvs.f16	s13, s14, s25	; <UNPREDICTABLE>
    ae6c:	68286465 	stmdavs	r8!, {r0, r2, r5, r6, sl, sp, lr}
    ae70:	6c61202c 	stclvs	0, cr2, [r1], #-176	; 0xffffff50
    ae74:	6d6e6769 	stclvs	7, cr6, [lr, #-420]!	; 0xfffffe5c
    ae78:	29746e65 	ldmdbcs	r4!, {r0, r2, r5, r6, r9, sl, fp, sp, lr}^
    ae7c:	00000000 	andeq	r0, r0, r0
    ae80:	494e4150 	stmdbmi	lr, {r4, r6, r8, lr}^
    ae84:	73253a43 			; <UNDEFINED> instruction: 0x73253a43
    ae88:	3a73253a 	bcc	1cd4378 <__bss_end__+0x1cc9020>
    ae8c:	703a6425 	eorsvc	r6, sl, r5, lsr #8
    ae90:	746e696f 	strbtvc	r6, [lr], #-2415	; 0xfffff691
    ae94:	25207265 	strcs	r7, [r0, #-613]!	; 0xfffffd9b
    ae98:	61772070 	cmnvs	r7, r0, ror r0
    ae9c:	656e2073 	strbvs	r2, [lr, #-115]!	; 0xffffff8d
    aea0:	20726576 	rsbscs	r6, r2, r6, ror r5
    aea4:	6f6c6c61 	svcvs	0x006c6c61
    aea8:	65746163 	ldrbvs	r6, [r4, #-355]!	; 0xfffffe9d
    aeac:	000a0a64 	andeq	r0, sl, r4, ror #20

0000aeb0 <__FUNCTION__.7>:
    aeb0:	6c616d6b 	stclvs	13, cr6, [r1], #-428	; 0xfffffe54
    aeb4:	5f636f6c 	svcpl	0x00636f6c
    aeb8:	74696e69 	strbtvc	r6, [r9], #-3689	; 0xfffff197
    aebc:	7465735f 	strbtvc	r7, [r5], #-863	; 0xfffffca1
    aec0:	6174735f 	cmnvs	r4, pc, asr r3
    aec4:	00007472 	andeq	r7, r0, r2, ror r4

0000aec8 <__FUNCTION__.5>:
    aec8:	6c616d6b 	stclvs	13, cr6, [r1], #-428	; 0xfffffe54
    aecc:	5f636f6c 	svcpl	0x00636f6c
    aed0:	74696e69 	strbtvc	r6, [r9], #-3689	; 0xfffff197
    aed4:	00000000 	andeq	r0, r0, r0

0000aed8 <__FUNCTION__.4>:
    aed8:	6c616d6b 	stclvs	13, cr6, [r1], #-428	; 0xfffffe54
    aedc:	5f636f6c 	svcpl	0x00636f6c
    aee0:	7a746f6e 	bvc	1d26ca0 <__bss_end__+0x1d1b948>
    aee4:	006f7265 	rsbeq	r7, pc, r5, ror #4

0000aee8 <__FUNCTION__.2>:
    aee8:	6c616d6b 	stclvs	13, cr6, [r1], #-428	; 0xfffffe54
    aeec:	00636f6c 	rsbeq	r6, r3, ip, ror #30

0000aef0 <__FUNCTION__.1>:
    aef0:	6c616d6b 	stclvs	13, cr6, [r1], #-428	; 0xfffffe54
    aef4:	5f636f6c 	svcpl	0x00636f6c
    aef8:	67696c61 	strbvs	r6, [r9, -r1, ror #24]!
    aefc:	0064656e 	rsbeq	r6, r4, lr, ror #10

0000af00 <__FUNCTION__.3>:
    af00:	6e756f72 	mrcvs	15, 3, r6, cr5, cr2, {3}
    af04:	00707564 	rsbseq	r7, r0, r4, ror #10

0000af08 <__FUNCTION__.0>:
    af08:	6572666b 	ldrbvs	r6, [r2, #-1643]!	; 0xfffff995
    af0c:	6f705f65 	svcvs	0x00705f65
    af10:	Address 0x000000000000af10 is out of bounds.


Disassembly of section .data:

0000af14 <putk>:
    af14:	000090e8 	andeq	r9, r0, r8, ror #1

0000af18 <heap>:
    af18:	0000b358 	andeq	fp, r0, r8, asr r3

0000af1c <heap_start>:
    af1c:	0000b358 	andeq	fp, r0, r8, asr r3

0000af20 <heap_end>:
    af20:	0020b358 	eoreq	fp, r0, r8, asr r3

0000af24 <rpi_putchar>:
    af24:	0000a50c 	andeq	sl, r0, ip, lsl #10

Disassembly of section .bss:

0000af28 <__bss_start__>:
	...

0000af30 <freep>:
	...

0000af38 <base>:
	...

0000af40 <heap_start>:
    af40:	00000000 	andeq	r0, r0, r0

0000af44 <heap_end>:
    af44:	00000000 	andeq	r0, r0, r0

0000af48 <init_p.4037>:
    af48:	00000000 	andeq	r0, r0, r0

0000af4c <buf.3944>:
	...

0000b34c <last.3937>:
    b34c:	00000000 	andeq	r0, r0, r0

0000b350 <init_p.6>:
	...

Disassembly of section .ARM.attributes:

00000000 <.ARM.attributes>:
   0:	00002a41 	andeq	r2, r0, r1, asr #20
   4:	61656100 	cmnvs	r5, r0, lsl #2
   8:	01006962 	tsteq	r0, r2, ror #18
   c:	00000020 	andeq	r0, r0, r0, lsr #32
  10:	4b5a3605 	blmi	168d82c <__bss_end__+0x16824d4>
  14:	08070600 	stmdaeq	r7, {r9, sl}
  18:	12010901 	andne	r0, r1, #16384	; 0x4000
  1c:	15011404 	strne	r1, [r1, #-1028]	; 0xfffffbfc
  20:	18031701 	stmdane	r3, {r0, r8, r9, sl, ip}
  24:	22011a01 	andcs	r1, r1, #4096	; 0x1000
  28:	Address 0x0000000000000028 is out of bounds.


Disassembly of section .comment:

00000000 <.comment>:
   0:	3a434347 	bcc	10d0d24 <__bss_end__+0x10c59cc>
   4:	4e472820 	cdpmi	8, 4, cr2, cr7, cr0, {1}
   8:	6f542055 	svcvs	0x00542055
   c:	20736c6f 	rsbscs	r6, r3, pc, ror #24
  10:	20726f66 	rsbscs	r6, r2, r6, ror #30
  14:	206d7241 	rsbcs	r7, sp, r1, asr #4
  18:	65626d45 	strbvs	r6, [r2, #-3397]!	; 0xfffff2bb
  1c:	64656464 	strbtvs	r6, [r5], #-1124	; 0xfffffb9c
  20:	6f725020 	svcvs	0x00725020
  24:	73736563 	cmnvc	r3, #415236096	; 0x18c00000
  28:	2073726f 	rsbscs	r7, r3, pc, ror #4
  2c:	30322d39 	eorscc	r2, r2, r9, lsr sp
  30:	712d3931 			; <UNDEFINED> instruction: 0x712d3931
  34:	616d2d34 	cmnvs	sp, r4, lsr sp
  38:	29726f6a 	ldmdbcs	r2!, {r1, r3, r5, r6, r8, r9, sl, fp, sp, lr}^
  3c:	322e3920 	eorcc	r3, lr, #32, 18	; 0x80000
  40:	3220312e 	eorcc	r3, r0, #-2147483637	; 0x8000000b
  44:	31393130 	teqcc	r9, r0, lsr r1
  48:	20353230 	eorscs	r3, r5, r0, lsr r2
  4c:	6c657228 	sfmvs	f7, 2, [r5], #-160	; 0xffffff60
  50:	65736165 	ldrbvs	r6, [r3, #-357]!	; 0xfffffe9b
  54:	415b2029 	cmpmi	fp, r9, lsr #32
  58:	612f4d52 			; <UNDEFINED> instruction: 0x612f4d52
  5c:	392d6d72 	pushcc	{r1, r4, r5, r6, r8, sl, fp, sp, lr}
  60:	6172622d 	cmnvs	r2, sp, lsr #4
  64:	2068636e 	rsbcs	r6, r8, lr, ror #6
  68:	69766572 	ldmdbvs	r6!, {r1, r4, r5, r6, r8, sl, sp, lr}^
  6c:	6e6f6973 			; <UNDEFINED> instruction: 0x6e6f6973
  70:	37373220 	ldrcc	r3, [r7, -r0, lsr #4]!
  74:	5d393935 			; <UNDEFINED> instruction: 0x5d393935
  78:	43434700 	movtmi	r4, #14080	; 0x3700
  7c:	4728203a 			; <UNDEFINED> instruction: 0x4728203a
  80:	4120554e 			; <UNDEFINED> instruction: 0x4120554e
  84:	45206d72 	strmi	r6, [r0, #-3442]!	; 0xfffff28e
  88:	6465626d 	strbtvs	r6, [r5], #-621	; 0xfffffd93
  8c:	20646564 	rsbcs	r6, r4, r4, ror #10
  90:	6c6f6f54 	stclvs	15, cr6, [pc], #-336	; ffffff48 <__bss_end__+0xffff4bf0>
  94:	69616863 	stmdbvs	r1!, {r0, r1, r5, r6, fp, sp, lr}^
  98:	3031206e 	eorscc	r2, r1, lr, rrx
  9c:	322d332e 	eorcc	r3, sp, #-1207959552	; 0xb8000000
  a0:	2e313230 	mrccs	2, 1, r3, cr1, cr0, {1}
  a4:	20293031 	eorcs	r3, r9, r1, lsr r0
  a8:	332e3031 			; <UNDEFINED> instruction: 0x332e3031
  ac:	3220312e 	eorcc	r3, r0, #-2147483637	; 0x8000000b
  b0:	30313230 	eorscc	r3, r1, r0, lsr r2
  b4:	20343238 	eorscs	r3, r4, r8, lsr r2
  b8:	6c657228 	sfmvs	f7, 2, [r5], #-160	; 0xffffff60
  bc:	65736165 	ldrbvs	r6, [r3, #-357]!	; 0xfffffe9b
  c0:	Address 0x00000000000000c0 is out of bounds.


Disassembly of section .debug_info:

00000000 <.debug_info>:
       0:	0000045f 	andeq	r0, r0, pc, asr r4
       4:	00000004 	andeq	r0, r0, r4
       8:	01040000 	mrseq	r0, (UNDEF: 4)
       c:	00000084 	andeq	r0, r0, r4, lsl #1
      10:	00023f0c 	andeq	r3, r2, ip, lsl #30
      14:	00017800 	andeq	r7, r1, r0, lsl #16
      18:	00803800 	addeq	r3, r0, r0, lsl #16
      1c:	00010400 	andeq	r0, r1, r0, lsl #8
      20:	00000000 	andeq	r0, r0, r0
      24:	05040200 	streq	r0, [r4, #-512]	; 0xfffffe00
      28:	00746e69 	rsbseq	r6, r4, r9, ror #28
      2c:	e2070403 	and	r0, r7, #50331648	; 0x3000000
      30:	03000001 	movweq	r0, #1
      34:	00580601 	subseq	r0, r8, r1, lsl #12
      38:	02030000 	andeq	r0, r3, #0, 0
      3c:	00022205 	andeq	r2, r2, r5, lsl #4
      40:	05040300 	streq	r0, [r4, #-768]	; 0xfffffd00
      44:	00000206 	andeq	r0, r0, r6, lsl #4
      48:	01050803 	tsteq	r5, r3, lsl #16
      4c:	04000002 	streq	r0, [r0], #-2
      50:	000001ef 	andeq	r0, r0, pc, ror #3
      54:	5b182e04 	blpl	60b86c <__bss_end__+0x600514>
      58:	03000000 	movweq	r0, #0
      5c:	00560801 	subseq	r0, r6, r1, lsl #16
      60:	36040000 	strcc	r0, [r4], -r0
      64:	04000002 	streq	r0, [r0], #-2
      68:	006e1931 	rsbeq	r1, lr, r1, lsr r9
      6c:	02030000 	andeq	r0, r3, #0, 0
      70:	00007107 	andeq	r7, r0, r7, lsl #2
      74:	02670400 	rsbeq	r0, r7, #0, 8
      78:	34040000 	strcc	r0, [r4], #-0
      7c:	00008119 	andeq	r8, r0, r9, lsl r1
      80:	07040300 	streq	r0, [r4, -r0, lsl #6]
      84:	000001dd 	ldrdeq	r0, [r0], -sp
      88:	d8070803 	stmdale	r7, {r0, r1, fp}
      8c:	05000001 	streq	r0, [r0, #-1]
      90:	00000025 	andeq	r0, r0, r5, lsr #32
      94:	0000009e 	muleq	r0, lr, r0
      98:	00002506 	andeq	r2, r0, r6, lsl #10
      9c:	0f070000 	svceq	0x00070000
      a0:	05000002 	streq	r0, [r0, #-2]
      a4:	00aa0e1c 	adceq	r0, sl, ip, lsl lr
      a8:	04080000 	streq	r0, [r8], #-0
      ac:	0000008f 	andeq	r0, r0, pc, lsl #1
      b0:	00002505 	andeq	r2, r0, r5, lsl #10
      b4:	0000bf00 	andeq	fp, r0, r0, lsl #30
      b8:	00bf0600 	adcseq	r0, pc, r0, lsl #12
      bc:	08000000 	stmdaeq	r0, {}	; <UNPREDICTABLE>
      c0:	0000cc04 	andeq	ip, r0, r4, lsl #24
      c4:	08010300 	stmdaeq	r1, {r8, r9}
      c8:	0000005f 	andeq	r0, r0, pc, asr r0
      cc:	0000c509 	andeq	ip, r0, r9, lsl #10
      d0:	06c70700 	strbeq	r0, [r7], r0, lsl #14
      d4:	21050000 	mrscs	r0, (UNDEF: 5)
      d8:	0000dd0e 	andeq	sp, r0, lr, lsl #26
      dc:	b0040800 	andlt	r0, r4, r0, lsl #16
      e0:	0a000000 	beq	e8 <__code_start__-0x7f18>
      e4:	0905030c 	stmdbeq	r5, {r2, r3, r8, r9}
      e8:	00000114 	andeq	r0, r0, r4, lsl r1
      ec:	0000510b 	andeq	r5, r0, fp, lsl #2
      f0:	11070300 	mrsne	r0, SP_und
      f4:	000000bf 	strheq	r0, [r0], -pc	; <UNPREDICTABLE>
      f8:	01b60b00 			; <UNDEFINED> instruction: 0x01b60b00
      fc:	08030000 	stmdaeq	r3, {}	; <UNPREDICTABLE>
     100:	0000bf11 	andeq	fp, r0, r1, lsl pc
     104:	260b0400 	strcs	r0, [fp], -r0, lsl #8
     108:	03000000 	movweq	r0, #0
     10c:	002c0e09 	eoreq	r0, ip, r9, lsl #28
     110:	00080000 	andeq	r0, r8, r0
     114:	00022c04 	andeq	r2, r2, r4, lsl #24
     118:	030a0300 	movweq	r0, #41728	; 0xa300
     11c:	000000e3 	andeq	r0, r0, r3, ror #1
     120:	0001660c 	andeq	r6, r1, ip, lsl #12
     124:	0d01b400 	cfstrseq	mvf11, [r1, #-0]
     128:	0001b010 	andeq	fp, r1, r0, lsl r0
     12c:	00130b00 	andseq	r0, r3, r0, lsl #22
     130:	0e010000 	cdpeq	0, 0, cr0, cr1, cr0, {0}
     134:	0001b014 	andeq	fp, r1, r4, lsl r0
     138:	350b0000 	strcc	r0, [fp, #-0]
     13c:	01000000 	mrseq	r0, (UNDEF: 0)
     140:	00750e0f 	rsbseq	r0, r5, pc, lsl #28
     144:	0b040000 	bleq	10014c <__bss_end__+0xf4df4>
     148:	00000020 	andeq	r0, r0, r0, lsr #32
     14c:	750e1001 	strvc	r1, [lr, #-1]
     150:	08000000 	stmdaeq	r0, {}	; <UNPREDICTABLE>
     154:	0001cf0b 	andeq	ip, r1, fp, lsl #30
     158:	0e140100 	mufeqs	f0, f4, f0
     15c:	00000075 	andeq	r0, r0, r5, ror r0
     160:	01f70b0c 	mvnseq	r0, ip, lsl #22
     164:	16010000 	strne	r0, [r1], -r0
     168:	0001140f 	andeq	r1, r1, pc, lsl #8
     16c:	5e0b1000 	cdppl	0, 0, cr1, cr11, cr0, {0}
     170:	01000002 	tsteq	r0, r2
     174:	01140f17 	tsteq	r4, r7, lsl pc
     178:	0b1c0000 	bleq	700180 <__bss_end__+0x6f4e28>
     17c:	00000270 	andeq	r0, r0, r0, ror r2
     180:	750e1a01 	strvc	r1, [lr, #-2561]	; 0xfffff5ff
     184:	28000000 	stmdacs	r0, {}	; <UNPREDICTABLE>
     188:	00027b0b 	andeq	r7, r2, fp, lsl #22
     18c:	0e1b0100 	mufeqe	f0, f3, f0
     190:	00000075 	andeq	r0, r0, r5, ror r0
     194:	042e0b2c 	strteq	r0, [lr], #-2860	; 0xfffff4d4
     198:	1d010000 	stcne	0, cr0, [r1, #-0]
     19c:	0000620e 	andeq	r6, r0, lr, lsl #4
     1a0:	720d3000 	andvc	r3, sp, #0, 0
     1a4:	0100317a 	tsteq	r0, sl, ror r1
     1a8:	01b60d1f 			; <UNDEFINED> instruction: 0x01b60d1f
     1ac:	00320000 	eorseq	r0, r2, r0
     1b0:	01200408 			; <UNDEFINED> instruction: 0x01200408
     1b4:	4f0e0000 	svcmi	0x000e0000
     1b8:	c6000000 	strgt	r0, [r0], -r0
     1bc:	0f000001 	svceq	0x00000001
     1c0:	0000002c 	andeq	r0, r0, ip, lsr #32
     1c4:	0d04007f 	stceq	0, cr0, [r4, #-508]	; 0xfffffe04
     1c8:	01000000 	mrseq	r0, (UNDEF: 0)
     1cc:	01200320 			; <UNDEFINED> instruction: 0x01200320
     1d0:	04100000 	ldreq	r0, [r0], #-0
     1d4:	00000007 	andeq	r0, r0, r7
     1d8:	11a80100 			; <UNDEFINED> instruction: 0x11a80100
     1dc:	0000002c 	andeq	r0, r0, ip, lsr #32
     1e0:	00002d11 	andeq	r2, r0, r1, lsl sp
     1e4:	06080200 	streq	r0, [r8], -r0, lsl #4
     1e8:	00008068 	andeq	r8, r0, r8, rrx
     1ec:	000000d4 	ldrdeq	r0, [r0], -r4
     1f0:	03789c01 	cmneq	r8, #256	; 0x100
     1f4:	70120000 	andsvc	r0, r2, r0
     1f8:	0b0b0200 	bleq	2c0a00 <__bss_end__+0x2b56a8>
     1fc:	00000378 	andeq	r0, r0, r8, ror r3
     200:	00000004 	andeq	r0, r0, r4
     204:	00000000 	andeq	r0, r0, r0
     208:	0001bb13 	andeq	fp, r1, r3, lsl fp
     20c:	00038e00 	andeq	r8, r3, r0, lsl #28
     210:	ac030500 	cfstr32ge	mvfx0, [r3], {-0}
     214:	140000a6 	strne	r0, [r0], #-166	; 0xffffff5a
     218:	000003d8 	ldrdeq	r0, [r0], -r8
     21c:	00008080 	andeq	r8, r0, r0, lsl #1
     220:	00808001 	addeq	r8, r0, r1
     224:	00001800 	andeq	r1, r0, r0, lsl #16
     228:	0f0b0200 	svceq	0x000b0200
     22c:	00000258 	andeq	r0, r0, r8, asr r2
     230:	00040115 	andeq	r0, r4, r5, lsl r1
     234:	00002400 	andeq	r2, r0, r0, lsl #8
     238:	00002200 	andeq	r2, r0, r0, lsl #4
     23c:	03f51500 	mvnseq	r1, #0, 10
     240:	003a0000 	eorseq	r0, sl, r0
     244:	00380000 	eorseq	r0, r8, r0
     248:	e9150000 	ldmdb	r5, {}	; <UNPREDICTABLE>
     24c:	54000003 	strpl	r0, [r0], #-3
     250:	52000000 	andpl	r0, r0, #0, 0
     254:	00000000 	andeq	r0, r0, r0
     258:	0003d814 	andeq	sp, r3, r4, lsl r8
     25c:	0080d000 	addeq	sp, r0, r0
     260:	80d00100 	sbcshi	r0, r0, r0, lsl #2
     264:	00100000 	andseq	r0, r0, r0
     268:	0e020000 	cdpeq	0, 0, cr0, cr2, cr0, {0}
     26c:	00029905 	andeq	r9, r2, r5, lsl #18
     270:	04011500 	streq	r1, [r1], #-1280	; 0xfffffb00
     274:	006e0000 	rsbeq	r0, lr, r0
     278:	006c0000 	rsbeq	r0, ip, r0
     27c:	f5150000 			; <UNDEFINED> instruction: 0xf5150000
     280:	84000003 	strhi	r0, [r0], #-3
     284:	82000000 	andhi	r0, r0, #0, 0
     288:	15000000 	strne	r0, [r0, #-0]
     28c:	000003e9 	andeq	r0, r0, r9, ror #7
     290:	0000009e 	muleq	r0, lr, r0
     294:	0000009c 	muleq	r0, ip, r0
     298:	80801600 	addhi	r1, r0, r0, lsl #12
     29c:	041a0000 	ldreq	r0, [sl], #-0
     2a0:	02b00000 	adcseq	r0, r0, #0, 0
     2a4:	01170000 	tsteq	r7, r0
     2a8:	20030550 	andcs	r0, r3, r0, asr r5
     2ac:	000000a6 	andeq	r0, r0, r6, lsr #1
     2b0:	0080a816 	addeq	sl, r0, r6, lsl r8
     2b4:	00042600 	andeq	r2, r4, r0, lsl #12
     2b8:	0002c300 	andeq	ip, r2, r0, lsl #6
     2bc:	50011700 	andpl	r1, r1, r0, lsl #14
     2c0:	16003401 	strne	r3, [r0], -r1, lsl #8
     2c4:	000080b0 	strheq	r8, [r0], -r0
     2c8:	00000393 	muleq	r0, r3, r3
     2cc:	000002d7 	ldrdeq	r0, [r0], -r7
     2d0:	02500117 	subseq	r0, r0, #-1073741819	; 0xc0000005
     2d4:	16000074 			; <UNDEFINED> instruction: 0x16000074
     2d8:	000080c0 	andeq	r8, r0, r0, asr #1
     2dc:	0000041a 	andeq	r0, r0, sl, lsl r4
     2e0:	000002f4 	strdeq	r0, [r0], -r4
     2e4:	05500117 	ldrbeq	r0, [r0, #-279]	; 0xfffffee9
     2e8:	00a64803 	adceq	r4, r6, r3, lsl #16
     2ec:	52011700 	andpl	r1, r1, #0, 14
     2f0:	00007402 	andeq	r7, r0, r2, lsl #8
     2f4:	0080d016 	addeq	sp, r0, r6, lsl r0
     2f8:	00043200 	andeq	r3, r4, r0, lsl #4
     2fc:	00031200 	andeq	r1, r3, r0, lsl #4
     300:	50011700 	andpl	r1, r1, r0, lsl #14
     304:	17007402 	strne	r7, [r0, -r2, lsl #8]
     308:	30015101 	andcc	r5, r1, r1, lsl #2
     30c:	01520117 	cmpeq	r2, r7, lsl r1
     310:	f0160034 			; <UNDEFINED> instruction: 0xf0160034
     314:	3e000080 	cdpcc	0, 0, cr0, cr0, cr0, {4}
     318:	26000004 	strcs	r0, [r0], -r4
     31c:	17000003 	strne	r0, [r0, -r3]
     320:	74025001 	strvc	r5, [r2], #-1
     324:	f4180000 			; <UNDEFINED> instruction: 0xf4180000
     328:	4a000080 	bmi	530 <__code_start__-0x7ad0>
     32c:	16000004 	strne	r0, [r0], -r4
     330:	00008104 	andeq	r8, r0, r4, lsl #2
     334:	0000041a 	andeq	r0, r0, sl, lsl r4
     338:	00000346 	andeq	r0, r0, r6, asr #6
     33c:	05500117 	ldrbeq	r0, [r0, #-279]	; 0xfffffee9
     340:	00a68c03 	adceq	r8, r6, r3, lsl #24
     344:	20160000 	andscs	r0, r6, r0
     348:	1a000081 	bne	554 <__code_start__-0x7aac>
     34c:	6e000004 	cdpvs	0, 0, cr0, cr0, cr4, {0}
     350:	17000003 	strne	r0, [r0, -r3]
     354:	03055001 	movweq	r5, #20481	; 0x5001
     358:	0000a668 	andeq	sl, r0, r8, ror #12
     35c:	02510117 	subseq	r0, r1, #-1073741819	; 0xc0000005
     360:	01170076 	tsteq	r7, r6, ror r0
     364:	00750252 	rsbseq	r0, r5, r2, asr r2
     368:	01530117 	cmpeq	r3, r7, lsl r1
     36c:	24180041 	ldrcs	r0, [r8], #-65	; 0xffffffbf
     370:	56000081 	strpl	r0, [r0], -r1, lsl #1
     374:	00000004 	andeq	r0, r0, r4
     378:	00c50408 	sbceq	r0, r5, r8, lsl #8
     37c:	cc0e0000 	stcgt	0, cr0, [lr], {-0}
     380:	8e000000 	cdphi	0, 0, cr0, cr0, cr0, {0}
     384:	0f000003 	svceq	0x00000003
     388:	0000002c 	andeq	r0, r0, ip, lsr #32
     38c:	7e090007 	cdpvc	0, 0, cr0, cr9, cr7, {0}
     390:	19000003 	stmdbne	r0, {r0, r1}
     394:	000001ac 	andeq	r0, r0, ip, lsr #3
     398:	2c112301 	ldccs	3, cr2, [r1], {1}
     39c:	48000000 	stmdami	r0, {}	; <UNPREDICTABLE>
     3a0:	14000080 	strne	r0, [r0], #-128	; 0xffffff80
     3a4:	01000000 	mrseq	r0, (UNDEF: 0)
     3a8:	0003d29c 	muleq	r3, ip, r2
     3ac:	00701a00 	rsbseq	r1, r0, r0, lsl #20
     3b0:	d2212301 	eorle	r2, r1, #67108864	; 0x4000000
     3b4:	ba000001 	blt	3c0 <__code_start__-0x7c40>
     3b8:	b6000000 	strlt	r0, [r0], -r0
     3bc:	12000000 	andne	r0, r0, #0, 0
     3c0:	24010068 	strcs	r0, [r1], #-104	; 0xffffff98
     3c4:	0003d20c 	andeq	sp, r3, ip, lsl #4
     3c8:	0000df00 	andeq	sp, r0, r0, lsl #30
     3cc:	0000db00 	andeq	sp, r0, r0, lsl #22
     3d0:	04080000 	streq	r0, [r8], #-0
     3d4:	000001c6 	andeq	r0, r0, r6, asr #3
     3d8:	00016d1b 	andeq	r6, r1, fp, lsl sp
     3dc:	0b0d0300 	bleq	340fe4 <__bss_end__+0x335c8c>
     3e0:	00000114 	andeq	r0, r0, r4, lsl r1
     3e4:	00040e03 	andeq	r0, r4, r3, lsl #28
     3e8:	00511c00 	subseq	r1, r1, r0, lsl #24
     3ec:	0d030000 	stceq	0, cr0, [r3, #-0]
     3f0:	0000bf22 	andeq	fp, r0, r2, lsr #30
     3f4:	01b61c00 			; <UNDEFINED> instruction: 0x01b61c00
     3f8:	0d030000 	stceq	0, cr0, [r3, #-0]
     3fc:	0000bf34 	andeq	fp, r0, r4, lsr pc
     400:	00261c00 	eoreq	r1, r6, r0, lsl #24
     404:	0d030000 	stceq	0, cr0, [r3, #-0]
     408:	00002c43 	andeq	r2, r0, r3, asr #24
     40c:	0a1d0000 	beq	740414 <__bss_end__+0x7350bc>
     410:	6f6e089e 	svcvs	0x006e089e
     414:	69616d74 	stmdbvs	r1!, {r2, r4, r5, r6, r8, sl, fp, sp, lr}^
     418:	891e006e 	ldmdbhi	lr, {r1, r2, r3, r5, r6}
     41c:	89000006 	stmdbhi	r0, {r1, r2}
     420:	05000006 	streq	r0, [r0, #-6]
     424:	181e0628 	ldmdane	lr, {r3, r5, r9, sl}
     428:	18000000 	stmdane	r0, {}	; <UNPREDICTABLE>
     42c:	01000000 	mrseq	r0, (UNDEF: 0)
     430:	c81e084c 	ldmdagt	lr, {r2, r3, r6, fp}
     434:	c8000001 	stmdagt	r0, {r0}
     438:	05000001 	streq	r0, [r0, #-1]
     43c:	1b1e07f2 	blne	78240c <__bss_end__+0x7770b4>
     440:	1b000002 	blne	450 <__code_start__-0x7bb0>
     444:	01000002 	tsteq	r0, r2
     448:	421e074d 	andsmi	r0, lr, #20185088	; 0x1340000
     44c:	42000000 	andmi	r0, r0, #0, 0
     450:	01000000 	mrseq	r0, (UNDEF: 0)
     454:	641e0558 	ldrvs	r0, [lr], #-1368	; 0xfffffaa8
     458:	64000000 	strvs	r0, [r0], #-0
     45c:	05000000 	streq	r0, [r0, #-0]
     460:	5200066e 	andpl	r0, r0, #115343360	; 0x6e00000
     464:	04000008 	streq	r0, [r0], #-8
     468:	0001bc00 	andeq	fp, r1, r0, lsl #24
     46c:	84010400 	strhi	r0, [r1], #-1024	; 0xfffffc00
     470:	0c000000 	stceq	0, cr0, [r0], {-0}
     474:	0000033d 	andeq	r0, r0, sp, lsr r3
     478:	00000178 	andeq	r0, r0, r8, ror r1
     47c:	0000813c 	andeq	r8, r0, ip, lsr r1
     480:	00000434 	andeq	r0, r0, r4, lsr r4
     484:	00000169 	andeq	r0, r0, r9, ror #2
     488:	69050402 	stmdbvs	r5, {r1, sl}
     48c:	0300746e 	movweq	r7, #1134	; 0x46e
     490:	01e20704 	mvneq	r0, r4, lsl #14
     494:	01030000 	mrseq	r0, (UNDEF: 3)
     498:	00005806 	andeq	r5, r0, r6, lsl #16
     49c:	05020300 	streq	r0, [r2, #-768]	; 0xfffffd00
     4a0:	00000222 	andeq	r0, r0, r2, lsr #4
     4a4:	06050403 	streq	r0, [r5], -r3, lsl #8
     4a8:	03000002 	movweq	r0, #2
     4ac:	02010508 	andeq	r0, r1, #8, 10	; 0x2000000
     4b0:	ef040000 	svc	0x00040000
     4b4:	03000001 	movweq	r0, #1
     4b8:	005b182e 	subseq	r1, fp, lr, lsr #16
     4bc:	01030000 	mrseq	r0, (UNDEF: 3)
     4c0:	00005608 	andeq	r5, r0, r8, lsl #12
     4c4:	02360400 	eorseq	r0, r6, #0, 8
     4c8:	31030000 	mrscc	r0, (UNDEF: 3)
     4cc:	00006e19 	andeq	r6, r0, r9, lsl lr
     4d0:	07020300 	streq	r0, [r2, -r0, lsl #6]
     4d4:	00000071 	andeq	r0, r0, r1, ror r0
     4d8:	00026704 	andeq	r6, r2, r4, lsl #14
     4dc:	19340300 	ldmdbne	r4!, {r8, r9}
     4e0:	00000081 	andeq	r0, r0, r1, lsl #1
     4e4:	dd070403 	cfstrsle	mvf0, [r7, #-12]
     4e8:	03000001 	movweq	r0, #1
     4ec:	01d80708 	bicseq	r0, r8, r8, lsl #14
     4f0:	25050000 	strcs	r0, [r5, #-0]
     4f4:	9e000000 	cdpls	0, 0, cr0, cr0, cr0, {0}
     4f8:	06000000 	streq	r0, [r0], -r0
     4fc:	00000025 	andeq	r0, r0, r5, lsr #32
     500:	020f0700 	andeq	r0, pc, #0, 14
     504:	1c040000 	stcne	0, cr0, [r4], {-0}
     508:	0000aa0e 	andeq	sl, r0, lr, lsl #20
     50c:	8f040800 	svchi	0x00040800
     510:	05000000 	streq	r0, [r0, #-0]
     514:	00000025 	andeq	r0, r0, r5, lsr #32
     518:	000000bf 	strheq	r0, [r0], -pc	; <UNPREDICTABLE>
     51c:	0000bf06 	andeq	fp, r0, r6, lsl #30
     520:	04080000 	streq	r0, [r8], #-0
     524:	000000cc 	andeq	r0, r0, ip, asr #1
     528:	5f080103 	svcpl	0x00080103
     52c:	09000000 	stmdbeq	r0, {}	; <UNPREDICTABLE>
     530:	000000c5 	andeq	r0, r0, r5, asr #1
     534:	0006c707 	andeq	ip, r6, r7, lsl #14
     538:	0e210400 	cdpeq	4, 2, cr0, cr1, cr0, {0}
     53c:	000000dd 	ldrdeq	r0, [r0], -sp
     540:	00b00408 	adcseq	r0, r0, r8, lsl #8
     544:	0c0a0000 	stceq	0, cr0, [sl], {-0}
     548:	14090505 	strne	r0, [r9], #-1285	; 0xfffffafb
     54c:	0b000001 	bleq	558 <__code_start__-0x7aa8>
     550:	00000051 	andeq	r0, r0, r1, asr r0
     554:	bf110705 	svclt	0x00110705
     558:	00000000 	andeq	r0, r0, r0
     55c:	0001b60b 	andeq	fp, r1, fp, lsl #12
     560:	11080500 	tstne	r8, r0, lsl #10
     564:	000000bf 	strheq	r0, [r0], -pc	; <UNPREDICTABLE>
     568:	00260b04 	eoreq	r0, r6, r4, lsl #22
     56c:	09050000 	stmdbeq	r5, {}	; <UNPREDICTABLE>
     570:	00002c0e 	andeq	r2, r0, lr, lsl #24
     574:	04000800 	streq	r0, [r0], #-2048	; 0xfffff800
     578:	0000022c 	andeq	r0, r0, ip, lsr #4
     57c:	e3030a05 	movw	r0, #14853	; 0x3a05
     580:	0c000000 	stceq	0, cr0, [r0], {-0}
     584:	005b0107 	subseq	r0, fp, r7, lsl #2
     588:	09020000 	stmdbeq	r2, {}	; <UNPREDICTABLE>
     58c:	00013b0e 	andeq	r3, r1, lr, lsl #22
     590:	03470d00 	movteq	r0, #32000	; 0x7d00
     594:	0d0b0000 	stceq	0, cr0, [fp, #-0]
     598:	00000297 	muleq	r0, r7, r2
     59c:	070c000c 	streq	r0, [ip, -ip]
     5a0:	00005b01 	andeq	r5, r0, r1, lsl #22
     5a4:	060a0200 	streq	r0, [sl], -r0, lsl #4
     5a8:	00000156 	andeq	r0, r0, r6, asr r1
     5ac:	0002b70d 	andeq	fp, r2, sp, lsl #14
     5b0:	ab0d8000 	blge	3605b8 <__bss_end__+0x355260>
     5b4:	fe000002 	cdp2	0, 0, cr0, cr0, cr2, {0}
     5b8:	01660e00 	cmneq	r6, r0, lsl #28
     5bc:	02b40000 	adcseq	r0, r4, #0, 0
     5c0:	01e6100d 	mvneq	r1, sp
     5c4:	130b0000 	movwne	r0, #45056	; 0xb000
     5c8:	02000000 	andeq	r0, r0, #0, 0
     5cc:	01e6140e 	mvneq	r1, lr, lsl #8
     5d0:	0b000000 	bleq	5d8 <__code_start__-0x7a28>
     5d4:	00000035 	andeq	r0, r0, r5, lsr r0
     5d8:	750e0f02 	strvc	r0, [lr, #-3842]	; 0xfffff0fe
     5dc:	04000000 	streq	r0, [r0], #-0
     5e0:	0000200b 	andeq	r2, r0, fp
     5e4:	0e100200 	cdpeq	2, 1, cr0, cr0, cr0, {0}
     5e8:	00000075 	andeq	r0, r0, r5, ror r0
     5ec:	01cf0b08 	biceq	r0, pc, r8, lsl #22
     5f0:	14020000 	strne	r0, [r2], #-0
     5f4:	0000750e 	andeq	r7, r0, lr, lsl #10
     5f8:	f70b0c00 			; <UNDEFINED> instruction: 0xf70b0c00
     5fc:	02000001 	andeq	r0, r0, #1, 0
     600:	01140f16 	tsteq	r4, r6, lsl pc
     604:	0b100000 	bleq	40060c <__bss_end__+0x3f52b4>
     608:	0000025e 	andeq	r0, r0, lr, asr r2
     60c:	140f1702 	strne	r1, [pc], #-1794	; 614 <__code_start__-0x79ec>
     610:	1c000001 	stcne	0, cr0, [r0], {1}
     614:	0002700b 	andeq	r7, r2, fp
     618:	0e1a0200 	cdpeq	2, 1, cr0, cr10, cr0, {0}
     61c:	00000075 	andeq	r0, r0, r5, ror r0
     620:	027b0b28 	rsbseq	r0, fp, #40, 22	; 0xa000
     624:	1b020000 	blne	8062c <__bss_end__+0x752d4>
     628:	0000750e 	andeq	r7, r0, lr, lsl #10
     62c:	2e0b2c00 	cdpcs	12, 0, cr2, cr11, cr0, {0}
     630:	02000004 	andeq	r0, r0, #4, 0
     634:	00620e1d 	rsbeq	r0, r2, sp, lsl lr
     638:	0f300000 	svceq	0x00300000
     63c:	00317a72 	eorseq	r7, r1, r2, ror sl
     640:	ec0d1f02 	stc	15, cr1, [sp], {2}
     644:	32000001 	andcc	r0, r0, #1, 0
     648:	56040800 	strpl	r0, [r4], -r0, lsl #16
     64c:	10000001 	andne	r0, r0, r1
     650:	0000004f 	andeq	r0, r0, pc, asr #32
     654:	000001fc 	strdeq	r0, [r0], -ip
     658:	00002c11 	andeq	r2, r0, r1, lsl ip
     65c:	04007f00 	streq	r7, [r0], #-3840	; 0xfffff100
     660:	0000000d 	andeq	r0, r0, sp
     664:	56032002 	strpl	r2, [r3], -r2
     668:	12000001 	andne	r0, r0, #1, 0
     66c:	00000704 	andeq	r0, r0, r4, lsl #14
     670:	a8020000 	stmdage	r2, {}	; <UNPREDICTABLE>
     674:	00002c11 	andeq	r2, r0, r1, lsl ip
     678:	02de1300 	sbcseq	r1, lr, #0, 6
     67c:	08010000 	stmdaeq	r1, {}	; <UNPREDICTABLE>
     680:	0002280f 	andeq	r2, r2, pc, lsl #16
     684:	28030500 	stmdacs	r3, {r8, sl}
     688:	080000af 	stmdaeq	r0, {r0, r1, r2, r3, r5, r7}
     68c:	0001fc04 	andeq	pc, r1, r4, lsl #24
     690:	03030700 	movweq	r0, #14080	; 0x3700
     694:	0a010000 	beq	4069c <__bss_end__+0x35344>
     698:	0000c50d 	andeq	ip, r0, sp, lsl #10
     69c:	03241400 			; <UNDEFINED> instruction: 0x03241400
     6a0:	0b010000 	bleq	406a8 <__bss_end__+0x35350>
     6a4:	00024612 	andeq	r4, r2, r2, lsl r6
     6a8:	2c040800 	stccs	8, cr0, [r4], {-0}
     6ac:	15000000 	strne	r0, [r0, #-0]
     6b0:	00000018 	andeq	r0, r0, r8, lsl r0
     6b4:	08088801 	stmdaeq	r8, {r0, fp, pc}
     6b8:	80000002 	andhi	r0, r0, r2
     6bc:	f0000084 			; <UNDEFINED> instruction: 0xf0000084
     6c0:	01000000 	mrseq	r0, (UNDEF: 0)
     6c4:	0003ad9c 	muleq	r3, ip, sp
     6c8:	03731600 	cmneq	r3, #0, 12
     6cc:	88010000 	stmdahi	r1, {}	; <UNPREDICTABLE>
     6d0:	0000751a 	andeq	r7, r0, sl, lsl r5
     6d4:	00010600 	andeq	r0, r1, r0, lsl #12
     6d8:	00010000 	andeq	r0, r1, r0
     6dc:	006c1700 	rsbeq	r1, ip, r0, lsl #14
     6e0:	142c8801 	strtne	r8, [ip], #-2049	; 0xfffff7ff
     6e4:	02000001 	andeq	r0, r0, #1, 0
     6e8:	68185491 	ldmdavs	r8, {r0, r4, r7, sl, ip, lr}
     6ec:	0c8a0100 	stfeqs	f0, [sl], {0}
     6f0:	00000228 	andeq	r0, r0, r8, lsr #4
     6f4:	00000138 	andeq	r0, r0, r8, lsr r1
     6f8:	00000132 	andeq	r0, r0, r2, lsr r1
     6fc:	00029d14 	andeq	r9, r2, r4, lsl sp
     700:	0e9b0100 	fmleqe	f0, f3, f0
     704:	0000002c 	andeq	r0, r0, ip, lsr #32
     708:	0002d319 	andeq	sp, r2, r9, lsl r3
     70c:	0f9c0100 	svceq	0x009c0100
     710:	00000246 	andeq	r0, r0, r6, asr #4
     714:	00000168 	andeq	r0, r0, r8, ror #2
     718:	00000164 	andeq	r0, r0, r4, ror #2
     71c:	0084b41a 	addeq	fp, r4, sl, lsl r4
     720:	00002c00 	andeq	r2, r0, r0, lsl #24
     724:	0002d900 	andeq	sp, r2, r0, lsl #18
     728:	00691800 	rsbeq	r1, r9, r0, lsl #16
     72c:	250d9001 	strcs	r9, [sp, #-1]
     730:	8a000000 	bhi	738 <__code_start__-0x78c8>
     734:	86000001 	strhi	r0, [r0], -r1
     738:	00000001 	andeq	r0, r0, r1
     73c:	0085241a 	addeq	r2, r5, sl, lsl r4
     740:	00002400 	andeq	r2, r0, r0, lsl #8
     744:	00032d00 	andeq	r2, r3, r0, lsl #26
     748:	00691800 	rsbeq	r1, r9, r0, lsl #16
     74c:	250d9d01 	strcs	r9, [sp, #-3329]	; 0xfffff2ff
     750:	ad000000 	stcge	0, cr0, [r0, #-0]
     754:	a9000001 	stmdbge	r0, {r0}
     758:	1b000001 	blne	764 <__code_start__-0x789c>
     75c:	00008530 	andeq	r8, r0, r0, lsr r5
     760:	00000010 	andeq	r0, r0, r0, lsl r0
     764:	636f6c18 	cmnvs	pc, #24, 24	; 0x1800
     768:	119e0100 	orrsne	r0, lr, r0, lsl #2
     76c:	000003ad 	andeq	r0, r0, sp, lsr #7
     770:	000001ce 	andeq	r0, r0, lr, asr #3
     774:	000001cc 	andeq	r0, r0, ip, asr #3
     778:	00853c1c 	addeq	r3, r5, ip, lsl ip
     77c:	0003b300 	andeq	fp, r3, r0, lsl #6
     780:	50011d00 	andpl	r1, r1, r0, lsl #26
     784:	76007408 	strvc	r7, [r0], -r8, lsl #8
     788:	b4232200 	strtlt	r2, [r3], #-512	; 0xfffffe00
     78c:	00000001 	andeq	r0, r0, r1
     790:	0084a41e 	addeq	sl, r4, lr, lsl r4
     794:	00081900 	andeq	r1, r8, r0, lsl #18
     798:	00034200 	andeq	r4, r3, r0, lsl #4
     79c:	50011d00 	andpl	r1, r1, r0, lsl #26
     7a0:	02b47503 	adcseq	r7, r4, #12582912	; 0xc00000
     7a4:	84b41e00 	ldrthi	r1, [r4], #3584	; 0xe00
     7a8:	08250000 	stmdaeq	r5!, {}	; <UNPREDICTABLE>
     7ac:	03610000 	cmneq	r1, #0, 0
     7b0:	011d0000 	tsteq	sp, r0
     7b4:	00740250 	rsbseq	r0, r4, r0, asr r2
     7b8:	0151011d 	cmpeq	r1, sp, lsl r1
     7bc:	52011d30 	andpl	r1, r1, #48, 26	; 0xc00
     7c0:	00b40802 	adcseq	r0, r4, r2, lsl #16
     7c4:	0085101e 	addeq	r1, r5, lr, lsl r0
     7c8:	00083100 	andeq	r3, r8, r0, lsl #2
     7cc:	00038d00 	andeq	r8, r3, r0, lsl #26
     7d0:	50011d00 	andpl	r1, r1, r0, lsl #26
     7d4:	a6b40305 	ldrtge	r0, [r4], r5, lsl #6
     7d8:	011d0000 	tsteq	sp, r0
     7dc:	587b0351 	ldmdapl	fp!, {r0, r4, r6, r8, r9}^
     7e0:	52011d06 	andpl	r1, r1, #384	; 0x180
     7e4:	065c7b03 	ldrbeq	r7, [ip], -r3, lsl #22
     7e8:	0353011d 	cmpeq	r3, #1073741831	; 0x40000007
     7ec:	0006607b 	andeq	r6, r6, fp, ror r0
     7f0:	0085241c 	addeq	r2, r5, ip, lsl r4
     7f4:	00083100 	andeq	r3, r8, r0, lsl #2
     7f8:	50011d00 	andpl	r1, r1, r0, lsl #26
     7fc:	a7800305 	strge	r0, [r0, r5, lsl #6]
     800:	011d0000 	tsteq	sp, r0
     804:	00770251 	rsbseq	r0, r7, r1, asr r2
     808:	0252011d 	subseq	r0, r2, #1073741831	; 0x40000007
     80c:	00000075 	andeq	r0, r0, r5, ror r0
     810:	02280408 	eoreq	r0, r8, #8, 8	; 0x8000000
     814:	e9150000 	ldmdb	r5, {}	; <UNPREDICTABLE>
     818:	01000002 	tsteq	r0, r2
     81c:	03ad097d 			; <UNDEFINED> instruction: 0x03ad097d
     820:	82500000 	subshi	r0, r0, #0, 0
     824:	00440000 	subeq	r0, r4, r0
     828:	9c010000 	stcls	0, cr0, [r1], {-0}
     82c:	000003f6 	strdeq	r0, [r0], -r6
     830:	00035c16 	andeq	r5, r3, r6, lsl ip
     834:	1f7d0100 	svcne	0x007d0100
     838:	000003f6 	strdeq	r0, [r0], -r6
     83c:	000001ed 	andeq	r0, r0, sp, ror #3
     840:	000001e1 	andeq	r0, r0, r1, ror #3
     844:	00029d19 	andeq	r9, r2, r9, lsl sp
     848:	0e810100 	rmfeqs	f0, f1, f0
     84c:	0000002c 	andeq	r0, r0, ip, lsr #32
     850:	00000242 	andeq	r0, r0, r2, asr #4
     854:	00000240 	andeq	r0, r0, r0, asr #4
     858:	c5040800 	strgt	r0, [r4, #-2048]	; 0xfffff800
     85c:	1f000000 	svcne	0x00000000
     860:	0000021b 	andeq	r0, r0, fp, lsl r2
     864:	d8065d01 	stmdale	r6, {r0, r8, sl, fp, ip, lr}
     868:	9c000082 	stcls	0, cr0, [r0], {130}	; 0x82
     86c:	01000001 	tsteq	r0, r1
     870:	0006239c 	muleq	r6, ip, r3
     874:	06221600 	strteq	r1, [r2], -r0, lsl #12
     878:	5d010000 	stcpl	0, cr0, [r1, #-0]
     87c:	00020814 	andeq	r0, r2, r4, lsl r8
     880:	00025c00 	andeq	r5, r2, r0, lsl #24
     884:	00025800 	andeq	r5, r2, r0, lsl #16
     888:	006c1700 	rsbeq	r1, ip, r0, lsl #14
     88c:	14245d01 	strtne	r5, [r4], #-3329	; 0xfffff2ff
     890:	02000001 	andeq	r0, r0, #1, 0
     894:	68185491 	ldmdavs	r8, {r0, r4, r7, sl, ip, lr}
     898:	0c5f0100 	ldfeqe	f0, [pc], {-0}
     89c:	00000228 	andeq	r0, r0, r8, lsr #4
     8a0:	0000027e 	andeq	r0, r0, lr, ror r2
     8a4:	0000027a 	andeq	r0, r0, sl, ror r2
     8a8:	0001bb20 	andeq	fp, r1, r0, lsr #22
     8ac:	00063300 	andeq	r3, r6, r0, lsl #6
     8b0:	9c030500 	cfstr32ls	mvfx0, [r3], {-0}
     8b4:	210000a7 	smlatbcs	r0, r7, r0, r0
     8b8:	00000000 	andeq	r0, r0, r0
     8bc:	00000514 	andeq	r0, r0, r4, lsl r5
     8c0:	01006918 	tsteq	r0, r8, lsl r9
     8c4:	00250d67 	eoreq	r0, r5, r7, ror #26
     8c8:	02a70000 	adceq	r0, r7, #0, 0
     8cc:	029f0000 	addseq	r0, pc, #0, 0
     8d0:	9c220000 	stcls	0, cr0, [r2], #-0
     8d4:	3d000083 	stccc	0, cr0, [r0, #-524]	; 0xfffffdf4
     8d8:	1e000008 	cdpne	0, 0, cr0, cr0, cr8, {0}
     8dc:	000083b0 			; <UNDEFINED> instruction: 0x000083b0
     8e0:	00000831 	andeq	r0, r0, r1, lsr r8
     8e4:	000004a1 	andeq	r0, r0, r1, lsr #9
     8e8:	0550011d 	ldrbeq	r0, [r0, #-285]	; 0xfffffee3
     8ec:	00a6d003 	adceq	sp, r6, r3
     8f0:	51011d00 	tstpl	r1, r0, lsl #26
     8f4:	1d007502 	cfstr32ne	mvfx7, [r0, #-8]
     8f8:	76025201 	strvc	r5, [r2], -r1, lsl #4
     8fc:	53011d00 	movwpl	r1, #7424	; 0x1d00
     900:	00007702 	andeq	r7, r0, r2, lsl #14
     904:	0083b81e 	addeq	fp, r3, lr, lsl r8
     908:	00083100 	andeq	r3, r8, r0, lsl #2
     90c:	0004b800 	andeq	fp, r4, r0, lsl #16
     910:	50011d00 	andpl	r1, r1, r0, lsl #26
     914:	a7100305 	ldrge	r0, [r0, -r5, lsl #6]
     918:	22000000 	andcs	r0, r0, #0, 0
     91c:	000083bc 			; <UNDEFINED> instruction: 0x000083bc
     920:	00000849 	andeq	r0, r0, r9, asr #16
     924:	0083c022 	addeq	ip, r3, r2, lsr #32
     928:	00083d00 	andeq	r3, r8, r0, lsl #26
     92c:	83d41e00 	bicshi	r1, r4, #0, 28
     930:	08310000 	ldmdaeq	r1!, {}	; <UNPREDICTABLE>
     934:	04f30000 	ldrbteq	r0, [r3], #0
     938:	011d0000 	tsteq	sp, r0
     93c:	d0030550 	andle	r0, r3, r0, asr r5
     940:	1d0000a6 	stcne	0, cr0, [r0, #-664]	; 0xfffffd68
     944:	75025101 	strvc	r5, [r2, #-257]	; 0xfffffeff
     948:	52011d00 	andpl	r1, r1, #0, 26
     94c:	1d007602 	stcne	6, cr7, [r0, #-8]
     950:	77025301 	strvc	r5, [r2, -r1, lsl #6]
     954:	dc1e0000 	ldcle	0, cr0, [lr], {-0}
     958:	31000083 	smlabbcc	r0, r3, r0, r0
     95c:	0a000008 	beq	984 <__code_start__-0x767c>
     960:	1d000005 	stcne	0, cr0, [r0, #-20]	; 0xffffffec
     964:	03055001 	movweq	r5, #20481	; 0x5001
     968:	0000a72c 	andeq	sl, r0, ip, lsr #14
     96c:	83e02200 	mvnhi	r2, #0, 4
     970:	08490000 	stmdaeq	r9, {}^	; <UNPREDICTABLE>
     974:	1a000000 	bne	97c <__code_start__-0x7684>
     978:	000083e0 	andeq	r8, r0, r0, ror #7
     97c:	0000001c 	andeq	r0, r0, ip, lsl r0
     980:	00000534 	andeq	r0, r0, r4, lsr r5
     984:	01006918 	tsteq	r0, r8, lsl r9
     988:	00250d71 	eoreq	r0, r5, r1, ror sp
     98c:	02dd0000 	sbcseq	r0, sp, #0, 0
     990:	02db0000 	sbcseq	r0, fp, #0, 0
     994:	1e000000 	cdpne	0, 0, cr0, cr0, cr0, {0}
     998:	00008320 	andeq	r8, r0, r0, lsr #6
     99c:	00000831 	andeq	r0, r0, r1, lsr r8
     9a0:	0000055d 	andeq	r0, r0, sp, asr r5
     9a4:	0550011d 	ldrbeq	r0, [r0, #-285]	; 0xfffffee3
     9a8:	00a6b403 	adceq	fp, r6, r3, lsl #8
     9ac:	51011d00 	tstpl	r1, r0, lsl #26
     9b0:	1d007502 	cfstr32ne	mvfx7, [r0, #-8]
     9b4:	76025201 	strvc	r5, [r2], -r1, lsl #4
     9b8:	53011d00 	movwpl	r1, #7424	; 0x1d00
     9bc:	00007702 	andeq	r7, r0, r2, lsl #14
     9c0:	00832c1e 	addeq	r2, r3, lr, lsl ip
     9c4:	00083100 	andeq	r3, r8, r0, lsl #2
     9c8:	00057a00 	andeq	r7, r5, r0, lsl #20
     9cc:	50011d00 	andpl	r1, r1, r0, lsl #26
     9d0:	a6c00305 	strbge	r0, [r0], r5, lsl #6
     9d4:	011d0000 	tsteq	sp, r0
     9d8:	00740251 	rsbseq	r0, r4, r1, asr r2
     9dc:	83742200 	cmnhi	r4, #0, 4
     9e0:	083d0000 	ldmdaeq	sp!, {}	; <UNPREDICTABLE>
     9e4:	881e0000 	ldmdahi	lr, {}	; <UNPREDICTABLE>
     9e8:	31000083 	smlabbcc	r0, r3, r0, r0
     9ec:	ac000008 	stcge	0, cr0, [r0], {8}
     9f0:	1d000005 	stcne	0, cr0, [r0, #-20]	; 0xffffffec
     9f4:	03055001 	movweq	r5, #20481	; 0x5001
     9f8:	0000a6d0 	ldrdeq	sl, [r0], -r0
     9fc:	0251011d 	subseq	r0, r1, #1073741831	; 0x40000007
     a00:	011d0075 	tsteq	sp, r5, ror r0
     a04:	00760252 	rsbseq	r0, r6, r2, asr r2
     a08:	0253011d 	subseq	r0, r3, #1073741831	; 0x40000007
     a0c:	1e000077 	mcrne	0, 0, r0, cr0, cr7, {3}
     a10:	00008394 	muleq	r0, r4, r3
     a14:	00000831 	andeq	r0, r0, r1, lsr r8
     a18:	000005c3 	andeq	r0, r0, r3, asr #11
     a1c:	0550011d 	ldrbeq	r0, [r0, #-285]	; 0xfffffee3
     a20:	00a6e803 	adceq	lr, r6, r3, lsl #16
     a24:	98220000 	stmdals	r2!, {}	; <UNPREDICTABLE>
     a28:	49000083 	stmdbmi	r0, {r0, r1, r7}
     a2c:	1e000008 	cdpne	0, 0, cr0, cr0, cr8, {0}
     a30:	0000841c 	andeq	r8, r0, ip, lsl r4
     a34:	00000638 	andeq	r0, r0, r8, lsr r6
     a38:	000005e0 	andeq	r0, r0, r0, ror #11
     a3c:	0250011d 	subseq	r0, r0, #1073741831	; 0x40000007
     a40:	1e000074 	mcrne	0, 0, r0, cr0, cr4, {3}
     a44:	00008448 	andeq	r8, r0, r8, asr #8
     a48:	00000831 	andeq	r0, r0, r1, lsr r8
     a4c:	00000619 	andeq	r0, r0, r9, lsl r6
     a50:	0550011d 	ldrbeq	r0, [r0, #-285]	; 0xfffffee3
     a54:	00a75403 	adceq	r5, r7, r3, lsl #8
     a58:	51011d00 	tstpl	r1, r0, lsl #26
     a5c:	a7480305 	strbge	r0, [r8, -r5, lsl #6]
     a60:	011d0000 	tsteq	sp, r0
     a64:	9c030552 	cfstr32ls	mvfx0, [r3], {82}	; 0x52
     a68:	1d0000a7 	stcne	0, cr0, [r0, #-668]	; 0xfffffd64
     a6c:	08025301 	stmdaeq	r2, {r0, r8, r9, ip, lr}
     a70:	7d021d77 	stcvc	13, cr1, [r2, #-476]	; 0xfffffe24
     a74:	68030500 	stmdavs	r3, {r8, sl}
     a78:	000000a7 	andeq	r0, r0, r7, lsr #1
     a7c:	00844c22 	addeq	r4, r4, r2, lsr #24
     a80:	00084900 	andeq	r4, r8, r0, lsl #18
     a84:	cc100000 	ldcgt	0, cr0, [r0], {-0}
     a88:	33000000 	movwcc	r0, #0
     a8c:	11000006 	tstne	r0, r6
     a90:	0000002c 	andeq	r0, r0, ip, lsr #32
     a94:	23090006 	movwcs	r0, #36870	; 0x9006
     a98:	15000006 	strne	r0, [r0, #-6]
     a9c:	00000312 	andeq	r0, r0, r2, lsl r3
     aa0:	28082e01 	stmdacs	r8, {r0, r9, sl, fp, sp}
     aa4:	ac000002 	stcge	0, cr0, [r0], {2}
     aa8:	20000082 	andcs	r0, r0, r2, lsl #1
     aac:	01000000 	mrseq	r0, (UNDEF: 0)
     ab0:	00069c9c 	muleq	r6, ip, ip
     ab4:	74702300 	ldrbtvc	r2, [r0], #-768	; 0xfffffd00
     ab8:	2e010072 	mcrcs	0, 0, r0, cr1, cr2, {3}
     abc:	00020820 	andeq	r0, r2, r0, lsr #16
     ac0:	0002f400 	andeq	pc, r2, r0, lsl #8
     ac4:	0002f000 	andeq	pc, r2, r0
     ac8:	756f1800 	strbvc	r1, [pc, #-2048]!	; 2d0 <__code_start__-0x7d30>
     acc:	30010074 	andcc	r0, r1, r4, ror r0
     ad0:	0003ad0d 	andeq	sl, r3, sp, lsl #26
     ad4:	00031700 	andeq	r1, r3, r0, lsl #14
     ad8:	00031500 	andeq	r1, r3, r0, lsl #10
     adc:	068a2400 	streq	r2, [sl], r0, lsl #8
     ae0:	68250000 	stmdavs	r5!, {}	; <UNPREDICTABLE>
     ae4:	11380100 	teqne	r8, r0, lsl #2
     ae8:	00000228 	andeq	r0, r0, r8, lsr #4
     aec:	82bc1c00 	adcshi	r1, ip, #0, 24
     af0:	03b30000 			; <UNDEFINED> instruction: 0x03b30000
     af4:	011d0000 	tsteq	sp, r0
     af8:	01f30350 	mvnseq	r0, r0, asr r3
     afc:	15000050 	strne	r0, [r0, #-80]	; 0xffffffb0
     b00:	00000287 	andeq	r0, r0, r7, lsl #5
     b04:	2c0a2701 	stccs	7, cr2, [sl], {1}
     b08:	04000000 	streq	r0, [r0], #-0
     b0c:	38000082 	stmdacc	r0, {r1, r7}
     b10:	01000000 	mrseq	r0, (UNDEF: 0)
     b14:	0007299c 	muleq	r7, ip, r9
     b18:	00682300 	rsbeq	r2, r8, r0, lsl #6
     b1c:	28212701 	stmdacs	r1!, {r0, r8, r9, sl, sp}
     b20:	2e000002 	cdpcs	0, 0, cr0, cr0, cr2, {0}
     b24:	2a000003 	bcs	b38 <__code_start__-0x74c8>
     b28:	23000003 	movwcs	r0, #3
     b2c:	00727470 	rsbseq	r7, r2, r0, ror r4
     b30:	082a2701 	stmdaeq	sl!, {r0, r8, r9, sl, sp}
     b34:	50000002 	andpl	r0, r0, r2
     b38:	4c000003 	stcmi	0, cr0, [r0], {3}
     b3c:	18000003 	stmdane	r0, {r0, r1}
     b40:	006e696d 	rsbeq	r6, lr, sp, ror #18
     b44:	080b2901 	stmdaeq	fp, {r0, r8, fp, sp}
     b48:	72000002 	andvc	r0, r0, #2, 0
     b4c:	6e000003 	cdpvs	0, 0, cr0, cr0, cr3, {0}
     b50:	18000003 	stmdane	r0, {r0, r1}
     b54:	0078616d 	rsbseq	r6, r8, sp, ror #2
     b58:	080b2a01 	stmdaeq	fp, {r0, r9, fp, sp}
     b5c:	92000002 	andls	r0, r0, #2, 0
     b60:	90000003 	andls	r0, r0, r3
     b64:	1e000003 	cdpne	0, 0, cr0, cr0, cr3, {0}
     b68:	0000821c 	andeq	r8, r0, ip, lsl r2
     b6c:	0000078d 	andeq	r0, r0, sp, lsl #15
     b70:	00000718 	andeq	r0, r0, r8, lsl r7
     b74:	0250011d 	subseq	r0, r0, #1073741831	; 0x40000007
     b78:	1c000076 	stcne	0, cr0, [r0], {118}	; 0x76
     b7c:	00008228 	andeq	r8, r0, r8, lsr #4
     b80:	00000729 	andeq	r0, r0, r9, lsr #14
     b84:	0250011d 	subseq	r0, r0, #1073741831	; 0x40000007
     b88:	00000076 	andeq	r0, r0, r6, ror r0
     b8c:	00036515 	andeq	r6, r3, r5, lsl r5
     b90:	07210100 	streq	r0, [r1, -r0, lsl #2]!
     b94:	00000208 	andeq	r0, r0, r8, lsl #4
     b98:	000081d0 	ldrdeq	r8, [r0], -r0
     b9c:	00000020 	andeq	r0, r0, r0, lsr #32
     ba0:	078d9c01 	streq	r9, [sp, r1, lsl #24]
     ba4:	68230000 	stmdavs	r3!, {}	; <UNPREDICTABLE>
     ba8:	19210100 	stmdbne	r1!, {r8}
     bac:	00000228 	andeq	r0, r0, r8, lsr #4
     bb0:	000003a9 	andeq	r0, r0, r9, lsr #7
     bb4:	000003a5 	andeq	r0, r0, r5, lsr #7
     bb8:	0007fd26 	andeq	pc, r7, r6, lsr #26
     bbc:	0081e400 	addeq	lr, r1, r0, lsl #8
     bc0:	81e40000 	mvnhi	r0, r0
     bc4:	00040000 	andeq	r0, r4, r0
     bc8:	23010000 	movwcs	r0, #4096	; 0x1000
     bcc:	00077c26 	andeq	r7, r7, r6, lsr #24
     bd0:	080e2700 	stmdaeq	lr, {r8, r9, sl, sp}
     bd4:	03c90000 	biceq	r0, r9, #0, 0
     bd8:	03c70000 	biceq	r0, r7, #0, 0
     bdc:	1c000000 	stcne	0, cr0, [r0], {-0}
     be0:	000081e4 	andeq	r8, r0, r4, ror #3
     be4:	0000078d 	andeq	r0, r0, sp, lsl #15
     be8:	0250011d 	subseq	r0, r0, #1073741831	; 0x40000007
     bec:	00000074 	andeq	r0, r0, r4, ror r0
     bf0:	00034f15 	andeq	r4, r3, r5, lsl pc
     bf4:	071b0100 	ldreq	r0, [fp, -r0, lsl #2]
     bf8:	00000208 	andeq	r0, r0, r8, lsl #4
     bfc:	000081ac 	andeq	r8, r0, ip, lsr #3
     c00:	00000014 	andeq	r0, r0, r4, lsl r0
     c04:	07ba9c01 	ldreq	r9, [sl, r1, lsl #24]!
     c08:	68230000 	stmdavs	r3!, {}	; <UNPREDICTABLE>
     c0c:	1b1b0100 	blne	6c1014 <__bss_end__+0x6b5cbc>
     c10:	00000228 	andeq	r0, r0, r8, lsr #4
     c14:	000003e0 	andeq	r0, r0, r0, ror #7
     c18:	000003dc 	ldrdeq	r0, [r0], -ip
     c1c:	03311500 	teqeq	r1, #0, 10
     c20:	14010000 	strne	r0, [r1], #-0
     c24:	00022808 	andeq	r2, r2, r8, lsl #16
     c28:	00817c00 	addeq	r7, r1, r0, lsl #24
     c2c:	00001c00 	andeq	r1, r0, r0, lsl #24
     c30:	e79c0100 	ldr	r0, [ip, r0, lsl #2]
     c34:	23000007 	movwcs	r0, #7
     c38:	14010070 	strne	r0, [r1], #-112	; 0xffffff90
     c3c:	0002281b 	andeq	r2, r2, fp, lsl r8
     c40:	00040500 	andeq	r0, r4, r0, lsl #10
     c44:	00040100 	andeq	r0, r4, r0, lsl #2
     c48:	c6280000 	strtgt	r0, [r8], -r0
     c4c:	01000002 	tsteq	r0, r2
     c50:	0228080e 	eoreq	r0, r8, #917504	; 0xe0000
     c54:	81500000 	cmphi	r0, r0
     c58:	001c0000 	andseq	r0, ip, r0
     c5c:	9c010000 	stcls	0, cr0, [r1], {-0}
     c60:	00037029 	andeq	r7, r3, r9, lsr #32
     c64:	18310200 	ldmdane	r1!, {r9}
     c68:	0000002c 	andeq	r0, r0, ip, lsr #32
     c6c:	00081903 	andeq	r1, r8, r3, lsl #18
     c70:	00682a00 	rsbeq	r2, r8, r0, lsl #20
     c74:	28293102 	stmdacs	r9!, {r1, r8, ip, sp}
     c78:	00000002 	andeq	r0, r0, r2
     c7c:	00037a2b 	andeq	r7, r3, fp, lsr #20
     c80:	00037a00 	andeq	r7, r3, r0, lsl #20
     c84:	071e0600 	ldreq	r0, [lr, -r0, lsl #12]
     c88:	0001c82b 	andeq	ip, r1, fp, lsr #16
     c8c:	0001c800 	andeq	ip, r1, r0, lsl #16
     c90:	07f20400 	ldrbeq	r0, [r2, r0, lsl #8]!
     c94:	0006892b 	andeq	r8, r6, fp, lsr #18
     c98:	00068900 	andeq	r8, r6, r0, lsl #18
     c9c:	06280400 	strteq	r0, [r8], -r0, lsl #8
     ca0:	0002f92b 	andeq	pc, r2, fp, lsr #18
     ca4:	0002f900 	andeq	pc, r2, r0, lsl #18
     ca8:	05040700 	streq	r0, [r4, #-1792]	; 0xfffff900
     cac:	0000642b 	andeq	r6, r0, fp, lsr #8
     cb0:	00006400 	andeq	r6, r0, r0, lsl #8
     cb4:	066e0400 	strbteq	r0, [lr], -r0, lsl #8
     cb8:	0002ec00 	andeq	lr, r2, r0, lsl #24
     cbc:	42000400 	andmi	r0, r0, #0, 8
     cc0:	04000004 	streq	r0, [r0], #-4
     cc4:	00008401 	andeq	r8, r0, r1, lsl #8
     cc8:	03ac0c00 			; <UNDEFINED> instruction: 0x03ac0c00
     ccc:	01780000 	cmneq	r8, r0
     cd0:	85700000 	ldrbhi	r0, [r0, #-0]!
     cd4:	02000000 	andeq	r0, r0, #0, 0
     cd8:	052c0000 	streq	r0, [ip, #-0]!
     cdc:	04020000 	streq	r0, [r2], #-0
     ce0:	746e6905 	strbtvc	r6, [lr], #-2309	; 0xfffff6fb
     ce4:	07040300 	streq	r0, [r4, -r0, lsl #6]
     ce8:	000001e2 	andeq	r0, r0, r2, ror #3
     cec:	58060103 	stmdapl	r6, {r0, r1, r8}
     cf0:	03000000 	movweq	r0, #0
     cf4:	02220502 	eoreq	r0, r2, #8388608	; 0x800000
     cf8:	04030000 	streq	r0, [r3], #-0
     cfc:	00020605 	andeq	r0, r2, r5, lsl #12
     d00:	05080300 	streq	r0, [r8, #-768]	; 0xfffffd00
     d04:	00000201 	andeq	r0, r0, r1, lsl #4
     d08:	56080103 	strpl	r0, [r8], -r3, lsl #2
     d0c:	03000000 	movweq	r0, #0
     d10:	00710702 	rsbseq	r0, r1, r2, lsl #14
     d14:	04030000 	streq	r0, [r3], #-0
     d18:	0001dd07 	andeq	sp, r1, r7, lsl #26
     d1c:	07080300 	streq	r0, [r8, -r0, lsl #6]
     d20:	000001d8 	ldrdeq	r0, [r0], -r8
     d24:	00002504 	andeq	r2, r0, r4, lsl #10
     d28:	00007a00 	andeq	r7, r0, r0, lsl #20
     d2c:	00250500 	eoreq	r0, r5, r0, lsl #10
     d30:	06000000 	streq	r0, [r0], -r0
     d34:	0000020f 	andeq	r0, r0, pc, lsl #4
     d38:	860e1c02 	strhi	r1, [lr], -r2, lsl #24
     d3c:	07000000 	streq	r0, [r0, -r0]
     d40:	00006b04 	andeq	r6, r0, r4, lsl #22
     d44:	00250400 	eoreq	r0, r5, r0, lsl #8
     d48:	009b0000 	addseq	r0, fp, r0
     d4c:	9b050000 	blls	140d54 <__bss_end__+0x1359fc>
     d50:	00000000 	andeq	r0, r0, r0
     d54:	00a80407 	adceq	r0, r8, r7, lsl #8
     d58:	01030000 	mrseq	r0, (UNDEF: 3)
     d5c:	00005f08 	andeq	r5, r0, r8, lsl #30
     d60:	00a10800 	adceq	r0, r1, r0, lsl #16
     d64:	c7060000 	strgt	r0, [r6, -r0]
     d68:	02000006 	andeq	r0, r0, #6, 0
     d6c:	00b90e21 	adcseq	r0, r9, r1, lsr #28
     d70:	04070000 	streq	r0, [r7], #-0
     d74:	0000008c 	andeq	r0, r0, ip, lsl #1
     d78:	00039109 	andeq	r9, r3, r9, lsl #2
     d7c:	05010800 	streq	r0, [r1, #-2048]	; 0xfffff800
     d80:	0000ec07 	andeq	lr, r0, r7, lsl #24
     d84:	00640a00 	rsbeq	r0, r4, r0, lsl #20
     d88:	ec090701 	stc	7, cr0, [r9], {1}
     d8c:	0a000000 	beq	d94 <__code_start__-0x726c>
     d90:	08010070 	stmdaeq	r1, {r4, r5, r6}
     d94:	0000f308 	andeq	pc, r0, r8, lsl #6
     d98:	70660a00 	rsbvc	r0, r6, r0, lsl #20
     d9c:	09090100 	stmdbeq	r9, {r8}
     da0:	000000f6 	strdeq	r0, [r0], -r6
     da4:	04080300 	streq	r0, [r8], #-768	; 0xfffffd00
     da8:	000003b8 			; <UNDEFINED> instruction: 0x000003b8
     dac:	070c040b 	streq	r0, [ip, -fp, lsl #8]
     db0:	0000f504 	andeq	pc, r0, r4, lsl #10
     db4:	01080d00 	tsteq	r8, r0, lsl #26
     db8:	0120020e 			; <UNDEFINED> instruction: 0x0120020e
     dbc:	700e0000 	andvc	r0, lr, r0
     dc0:	01007274 	tsteq	r0, r4, ror r2
     dc4:	01421110 	cmpeq	r2, r0, lsl r1
     dc8:	0f000000 	svceq	0x00000000
     dcc:	000003d2 	ldrdeq	r0, [r0], -r2
     dd0:	2c0c1101 	stfcss	f1, [ip], {1}
     dd4:	04000000 	streq	r0, [r0], #-0
     dd8:	03840900 	orreq	r0, r4, #0, 18
     ddc:	01080000 	mrseq	r0, (UNDEF: 8)
     de0:	01420f0c 	cmpeq	r2, ip, lsl #30
     de4:	730a0000 	movwvc	r0, #40960	; 0xa000
     de8:	04120100 	ldreq	r0, [r2], #-256	; 0xffffff00
     dec:	000000fc 	strdeq	r0, [r0], -ip
     df0:	0100780a 	tsteq	r0, sl, lsl #16
     df4:	00bf0e13 	adcseq	r0, pc, r3, lsl lr	; <UNPREDICTABLE>
     df8:	07000000 	streq	r0, [r0, -r0]
     dfc:	00012004 	andeq	r2, r1, r4
     e00:	03d71000 	bicseq	r1, r7, #0, 0
     e04:	14010000 	strne	r0, [r1], #-0
     e08:	00012003 	andeq	r2, r1, r3
     e0c:	03bf1100 			; <UNDEFINED> instruction: 0x03bf1100
     e10:	18010000 	stmdane	r1, {}	; <UNPREDICTABLE>
     e14:	0001480f 	andeq	r4, r1, pc, lsl #16
     e18:	38030500 	stmdacc	r3, {r8, sl}
     e1c:	110000af 	smlatbne	r0, pc, r0, r0	; <UNPREDICTABLE>
     e20:	0000039f 	muleq	r0, pc, r3	; <UNPREDICTABLE>
     e24:	78101901 	ldmdavc	r0, {r0, r8, fp, ip}
     e28:	05000001 	streq	r0, [r0, #-1]
     e2c:	00af3003 	adceq	r3, pc, r3
     e30:	48040700 	stmdami	r4, {r8, r9, sl}
     e34:	12000001 	andne	r0, r0, #1, 0
     e38:	00000397 	muleq	r0, r7, r3
     e3c:	7c065301 	stcvc	3, cr5, [r6], {1}
     e40:	c4000085 	strgt	r0, [r0], #-133	; 0xffffff7b
     e44:	01000000 	mrseq	r0, (UNDEF: 0)
     e48:	0001c79c 	muleq	r1, ip, r7
     e4c:	70611300 	rsbvc	r1, r1, r0, lsl #6
     e50:	14530100 	ldrbne	r0, [r3], #-256	; 0xffffff00
     e54:	000000f3 	strdeq	r0, [r0], -r3
     e58:	62145001 	andsvs	r5, r4, #1, 0
     e5c:	55010070 	strpl	r0, [r1, #-112]	; 0xffffff90
     e60:	0001780a 	andeq	r7, r1, sl, lsl #16
     e64:	00042e00 	andeq	r2, r4, r0, lsl #28
     e68:	00042600 	andeq	r2, r4, r0, lsl #12
     e6c:	00701400 	rsbseq	r1, r0, r0, lsl #8
     e70:	780f5501 	stmdavc	pc, {r0, r8, sl, ip, lr}	; <UNPREDICTABLE>
     e74:	6a000001 	bvs	e80 <__code_start__-0x7180>
     e78:	66000004 	strvs	r0, [r0], -r4
     e7c:	00000004 	andeq	r0, r0, r4
     e80:	00037a15 	andeq	r7, r3, r5, lsl sl
     e84:	072b0100 	streq	r0, [fp, -r0, lsl #2]!
     e88:	000000f3 	strdeq	r0, [r0], -r3
     e8c:	000086bc 			; <UNDEFINED> instruction: 0x000086bc
     e90:	000000b4 	strheq	r0, [r0], -r4
     e94:	02419c01 	subeq	r9, r1, #256	; 0x100
     e98:	73160000 	tstvc	r6, #0, 0
     e9c:	01000003 	tsteq	r0, r3
     ea0:	002c1a2b 	eoreq	r1, ip, fp, lsr #20
     ea4:	04900000 	ldreq	r0, [r0], #0
     ea8:	04880000 	streq	r0, [r8], #0
     eac:	70140000 	andsvc	r0, r4, r0
     eb0:	0a2d0100 	beq	b412b8 <__bss_end__+0xb35f60>
     eb4:	00000178 	andeq	r0, r0, r8, ror r1
     eb8:	000004d8 	ldrdeq	r0, [r0], -r8
     ebc:	000004ca 	andeq	r0, r0, sl, asr #9
     ec0:	00038b17 	andeq	r8, r3, r7, lsl fp
     ec4:	0e2d0100 	sufeqe	f0, f5, f0
     ec8:	00000178 	andeq	r0, r0, r8, ror r1
     ecc:	0000053a 	andeq	r0, r0, sl, lsr r5
     ed0:	00000530 	andeq	r0, r0, r0, lsr r5
     ed4:	0003a517 	andeq	sl, r3, r7, lsl r5
     ed8:	0b2e0100 	bleq	b812e0 <__bss_end__+0xb75f88>
     edc:	0000002c 	andeq	r0, r0, ip, lsr #32
     ee0:	00000580 	andeq	r0, r0, r0, lsl #11
     ee4:	0000057e 	andeq	r0, r0, lr, ror r5
     ee8:	00876018 	addeq	r6, r7, r8, lsl r0
     eec:	00024100 	andeq	r4, r2, r0, lsl #2
     ef0:	50011900 	andpl	r1, r1, r0, lsl #18
     ef4:	80000a03 	andhi	r0, r0, r3, lsl #20
     ef8:	c91a0000 	ldmdbgt	sl, {}	; <UNPREDICTABLE>
     efc:	01000003 	tsteq	r0, r3
     f00:	0178101c 	cmneq	r8, ip, lsl r0
     f04:	86500000 	ldrbhi	r0, [r0], -r0
     f08:	005c0000 	subseq	r0, ip, r0
     f0c:	9c010000 	stcls	0, cr0, [r1], {-0}
     f10:	000002d1 	ldrdeq	r0, [r0], -r1
     f14:	00756e1b 	rsbseq	r6, r5, fp, lsl lr
     f18:	2c221c01 	stccs	12, cr1, [r2], #-4
     f1c:	97000000 	strls	r0, [r0, -r0]
     f20:	93000005 	movwls	r0, #5
     f24:	14000005 	strne	r0, [r0], #-5
     f28:	01007063 	tsteq	r0, r3, rrx
     f2c:	02d10821 	sbcseq	r0, r1, #2162688	; 0x210000
     f30:	05bb0000 	ldreq	r0, [fp, #0]!
     f34:	05b50000 	ldreq	r0, [r5, #0]!
     f38:	75140000 	ldrvc	r0, [r4, #-0]
     f3c:	24010070 	strcs	r0, [r1], #-112	; 0xffffff90
     f40:	0001780a 	andeq	r7, r1, sl, lsl #16
     f44:	0005ea00 	andeq	lr, r5, r0, lsl #20
     f48:	0005e600 	andeq	lr, r5, r0, lsl #12
     f4c:	86741c00 	ldrbthi	r1, [r4], -r0, lsl #24
     f50:	02d70000 	sbcseq	r0, r7, #0, 0
     f54:	02b10000 	adcseq	r0, r1, #0, 0
     f58:	01190000 	tsteq	r9, r0
     f5c:	a4030550 	strge	r0, [r3], #-1360	; 0xfffffab0
     f60:	190000a7 	stmdbne	r0, {r0, r1, r2, r5, r7}
     f64:	74025101 	strvc	r5, [r2], #-257	; 0xfffffeff
     f68:	7c1c0000 	ldcvc	0, cr0, [ip], {-0}
     f6c:	e3000086 	movw	r0, #134	; 0x86
     f70:	c7000002 	strgt	r0, [r0, -r2]
     f74:	19000002 	stmdbne	r0, {r1}
     f78:	74045001 	strvc	r5, [r4], #-1
     f7c:	00243300 	eoreq	r3, r4, r0, lsl #6
     f80:	0086901d 	addeq	r9, r6, sp, lsl r0
     f84:	00017e00 	andeq	r7, r1, r0, lsl #28
     f88:	04070000 	streq	r0, [r7], #-0
     f8c:	000000a1 	andeq	r0, r0, r1, lsr #1
     f90:	0006891e 	andeq	r8, r6, lr, lsl r9
     f94:	00068900 	andeq	r8, r6, r0, lsl #18
     f98:	06280200 	strteq	r0, [r8], -r0, lsl #4
     f9c:	0003c41e 	andeq	ip, r3, lr, lsl r4
     fa0:	0003c400 	andeq	ip, r3, r0, lsl #8
     fa4:	0b1a0300 	bleq	681bac <__bss_end__+0x676854>
     fa8:	000ed900 	andeq	sp, lr, r0, lsl #18
     fac:	19000400 	stmdbne	r0, {sl}
     fb0:	04000006 	streq	r0, [r0], #-6
     fb4:	00008401 	andeq	r8, r0, r1, lsl #8
     fb8:	04b80c00 	ldrteq	r0, [r8], #3072	; 0xc00
     fbc:	01780000 	cmneq	r8, r0
     fc0:	87700000 	ldrbhi	r0, [r0, -r0]!
     fc4:	08000000 	stmdaeq	r0, {}	; <UNPREDICTABLE>
     fc8:	07580000 	ldrbeq	r0, [r8, -r0]
     fcc:	04020000 	streq	r0, [r2], #-0
     fd0:	746e6905 	strbtvc	r6, [lr], #-2309	; 0xfffff6fb
     fd4:	07040300 	streq	r0, [r4, -r0, lsl #6]
     fd8:	000001e2 	andeq	r0, r0, r2, ror #3
     fdc:	58060103 	stmdapl	r6, {r0, r1, r8}
     fe0:	03000000 	movweq	r0, #0
     fe4:	02220502 	eoreq	r0, r2, #8388608	; 0x800000
     fe8:	04030000 	streq	r0, [r3], #-0
     fec:	00020605 	andeq	r0, r2, r5, lsl #12
     ff0:	05080300 	streq	r0, [r8, #-768]	; 0xfffffd00
     ff4:	00000201 	andeq	r0, r0, r1, lsl #4
     ff8:	0001ef04 	andeq	lr, r1, r4, lsl #30
     ffc:	182e0300 	stmdane	lr!, {r8, r9}
    1000:	0000005b 	andeq	r0, r0, fp, asr r0
    1004:	56080103 	strpl	r0, [r8], -r3, lsl #2
    1008:	04000000 	streq	r0, [r0], #-0
    100c:	00000236 	andeq	r0, r0, r6, lsr r2
    1010:	6e193103 	mufvse	f3, f1, f3
    1014:	03000000 	movweq	r0, #0
    1018:	00710702 	rsbseq	r0, r1, r2, lsl #14
    101c:	67040000 	strvs	r0, [r4, -r0]
    1020:	03000002 	movweq	r0, #2
    1024:	00811934 	addeq	r1, r1, r4, lsr r9
    1028:	04030000 	streq	r0, [r3], #-0
    102c:	0001dd07 	andeq	sp, r1, r7, lsl #26
    1030:	07080300 	streq	r0, [r8, -r0, lsl #6]
    1034:	000001d8 	ldrdeq	r0, [r0], -r8
    1038:	00002505 	andeq	r2, r0, r5, lsl #10
    103c:	00009e00 	andeq	r9, r0, r0, lsl #28
    1040:	00250600 	eoreq	r0, r5, r0, lsl #12
    1044:	07000000 	streq	r0, [r0, -r0]
    1048:	0000020f 	andeq	r0, r0, pc, lsl #4
    104c:	aa0e1c04 	bge	388064 <__bss_end__+0x37cd0c>
    1050:	08000000 	stmdaeq	r0, {}	; <UNPREDICTABLE>
    1054:	00008f04 	andeq	r8, r0, r4, lsl #30
    1058:	00250500 	eoreq	r0, r5, r0, lsl #10
    105c:	00bf0000 	adcseq	r0, pc, r0
    1060:	bf060000 	svclt	0x00060000
    1064:	00000000 	andeq	r0, r0, r0
    1068:	00cc0408 	sbceq	r0, ip, r8, lsl #8
    106c:	01030000 	mrseq	r0, (UNDEF: 3)
    1070:	00005f08 	andeq	r5, r0, r8, lsl #30
    1074:	00c50900 	sbceq	r0, r5, r0, lsl #18
    1078:	c7070000 	strgt	r0, [r7, -r0]
    107c:	04000006 	streq	r0, [r0], #-6
    1080:	00dd0e21 	sbcseq	r0, sp, r1, lsr #28
    1084:	04080000 	streq	r0, [r8], #-0
    1088:	000000b0 	strheq	r0, [r0], -r0	; <UNPREDICTABLE>
    108c:	05020c0a 	streq	r0, [r2, #-3082]	; 0xfffff3f6
    1090:	00011409 	andeq	r1, r1, r9, lsl #8
    1094:	00510b00 	subseq	r0, r1, r0, lsl #22
    1098:	07020000 	streq	r0, [r2, -r0]
    109c:	0000bf11 	andeq	fp, r0, r1, lsl pc
    10a0:	b60b0000 	strlt	r0, [fp], -r0
    10a4:	02000001 	andeq	r0, r0, #1, 0
    10a8:	00bf1108 	adcseq	r1, pc, r8, lsl #2
    10ac:	0b040000 	bleq	1010b4 <__bss_end__+0xf5d5c>
    10b0:	00000026 	andeq	r0, r0, r6, lsr #32
    10b4:	2c0e0902 			; <UNDEFINED> instruction: 0x2c0e0902
    10b8:	08000000 	stmdaeq	r0, {}	; <UNPREDICTABLE>
    10bc:	022c0400 	eoreq	r0, ip, #0, 8
    10c0:	0a020000 	beq	810c8 <__bss_end__+0x75d70>
    10c4:	0000e303 	andeq	lr, r0, r3, lsl #6
    10c8:	01070c00 	tsteq	r7, r0, lsl #24
    10cc:	0000005b 	andeq	r0, r0, fp, asr r0
    10d0:	3b0e0905 	blcc	3834ec <__bss_end__+0x378194>
    10d4:	0d000001 	stceq	0, cr0, [r0, #-4]
    10d8:	00000347 	andeq	r0, r0, r7, asr #6
    10dc:	02970d0b 	addseq	r0, r7, #704	; 0x2c0
    10e0:	000c0000 	andeq	r0, ip, r0
    10e4:	5b01070c 	blpl	42d1c <__bss_end__+0x379c4>
    10e8:	05000000 	streq	r0, [r0, #-0]
    10ec:	0156060a 	cmpeq	r6, sl, lsl #12
    10f0:	b70d0000 	strlt	r0, [sp, -r0]
    10f4:	80000002 	andhi	r0, r0, r2
    10f8:	0002ab0d 	andeq	sl, r2, sp, lsl #22
    10fc:	0e00fe00 	cdpeq	14, 0, cr15, cr0, cr0, {0}
    1100:	00000166 	andeq	r0, r0, r6, ror #2
    1104:	100d05b4 			; <UNDEFINED> instruction: 0x100d05b4
    1108:	000001e6 	andeq	r0, r0, r6, ror #3
    110c:	0000130b 	andeq	r1, r0, fp, lsl #6
    1110:	140e0500 	strne	r0, [lr], #-1280	; 0xfffffb00
    1114:	000001e6 	andeq	r0, r0, r6, ror #3
    1118:	00350b00 	eorseq	r0, r5, r0, lsl #22
    111c:	0f050000 	svceq	0x00050000
    1120:	0000750e 	andeq	r7, r0, lr, lsl #10
    1124:	200b0400 	andcs	r0, fp, r0, lsl #8
    1128:	05000000 	streq	r0, [r0, #-0]
    112c:	00750e10 	rsbseq	r0, r5, r0, lsl lr
    1130:	0b080000 	bleq	201138 <__bss_end__+0x1f5de0>
    1134:	000001cf 	andeq	r0, r0, pc, asr #3
    1138:	750e1405 	strvc	r1, [lr, #-1029]	; 0xfffffbfb
    113c:	0c000000 	stceq	0, cr0, [r0], {-0}
    1140:	0001f70b 	andeq	pc, r1, fp, lsl #14
    1144:	0f160500 	svceq	0x00160500
    1148:	00000114 	andeq	r0, r0, r4, lsl r1
    114c:	025e0b10 	subseq	r0, lr, #16, 22	; 0x4000
    1150:	17050000 	strne	r0, [r5, -r0]
    1154:	0001140f 	andeq	r1, r1, pc, lsl #8
    1158:	700b1c00 	andvc	r1, fp, r0, lsl #24
    115c:	05000002 	streq	r0, [r0, #-2]
    1160:	00750e1a 	rsbseq	r0, r5, sl, lsl lr
    1164:	0b280000 	bleq	a0116c <__bss_end__+0x9f5e14>
    1168:	0000027b 	andeq	r0, r0, fp, ror r2
    116c:	750e1b05 	strvc	r1, [lr, #-2821]	; 0xfffff4fb
    1170:	2c000000 	stccs	0, cr0, [r0], {-0}
    1174:	00042e0b 	andeq	r2, r4, fp, lsl #28
    1178:	0e1d0500 	cfmul32eq	mvfx0, mvfx13, mvfx0
    117c:	00000062 	andeq	r0, r0, r2, rrx
    1180:	7a720f30 	bvc	1c84e48 <__bss_end__+0x1c79af0>
    1184:	1f050031 	svcne	0x00050031
    1188:	0001ec0d 	andeq	lr, r1, sp, lsl #24
    118c:	08003200 	stmdaeq	r0, {r9, ip, sp}
    1190:	00015604 	andeq	r5, r1, r4, lsl #12
    1194:	004f1000 	subeq	r1, pc, r0
    1198:	01fc0000 	mvnseq	r0, r0
    119c:	2c110000 	ldccs	0, cr0, [r1], {-0}
    11a0:	7f000000 	svcvc	0x00000000
    11a4:	000d0400 	andeq	r0, sp, r0, lsl #8
    11a8:	20050000 	andcs	r0, r5, r0
    11ac:	00015603 	andeq	r5, r1, r3, lsl #12
    11b0:	07041200 	streq	r1, [r4, -r0, lsl #4]
    11b4:	00000000 	andeq	r0, r0, r0
    11b8:	2c11a805 	ldccs	8, cr10, [r1], {5}
    11bc:	13000000 	movwne	r0, #0
    11c0:	00000b35 	andeq	r0, r0, r5, lsr fp
    11c4:	080e1001 	stmdaeq	lr, {r0, ip}
    11c8:	05000002 	streq	r0, [r0, #-2]
    11cc:	00af4003 	adceq	r4, pc, r3
    11d0:	0b901300 	bleq	fe405dd8 <__bss_end__+0xfe3faa80>
    11d4:	11010000 	mrsne	r0, (UNDEF: 1)
    11d8:	0002080e 	andeq	r0, r2, lr, lsl #16
    11dc:	44030500 	strmi	r0, [r3], #-1280	; 0xfffffb00
    11e0:	140000af 	strne	r0, [r0], #-175	; 0xffffff51
    11e4:	000003f1 	strdeq	r0, [r0], -r1
    11e8:	06013201 	streq	r3, [r1], -r1, lsl #4
    11ec:	00008f40 	andeq	r8, r0, r0, asr #30
    11f0:	00000030 	andeq	r0, r0, r0, lsr r0
    11f4:	029a9c01 	addseq	r9, sl, #256	; 0x100
    11f8:	bb150000 	bllt	541200 <__bss_end__+0x535ea8>
    11fc:	aa000001 	bge	1208 <__code_start__-0x6df8>
    1200:	05000002 	streq	r0, [r0, #-2]
    1204:	00ab6803 	adceq	r6, fp, r3, lsl #16
    1208:	8f601600 	svchi	0x00601600
    120c:	0e550000 	cdpeq	0, 5, cr0, cr5, cr0, {0}
    1210:	02900000 	addseq	r0, r0, #0, 0
    1214:	01170000 	tsteq	r7, r0
    1218:	f8030550 			; <UNDEFINED> instruction: 0xf8030550
    121c:	170000aa 	strne	r0, [r0, -sl, lsr #1]
    1220:	03055101 	movweq	r5, #20737	; 0x5101
    1224:	0000a7c8 	andeq	sl, r0, r8, asr #15
    1228:	05520117 	ldrbeq	r0, [r2, #-279]	; 0xfffffee9
    122c:	00ab6803 	adceq	r6, fp, r3, lsl #16
    1230:	53011700 	movwpl	r1, #5888	; 0x1700
    1234:	01340a03 	teqeq	r4, r3, lsl #20
    1238:	8f641800 	svchi	0x00641800
    123c:	0e610000 	cdpeq	0, 6, cr0, cr1, cr0, {0}
    1240:	10000000 	andne	r0, r0, r0
    1244:	000000cc 	andeq	r0, r0, ip, asr #1
    1248:	000002aa 	andeq	r0, r0, sl, lsr #5
    124c:	00002c11 	andeq	r2, r0, r1, lsl ip
    1250:	09000e00 	stmdbeq	r0, {r9, sl, fp}
    1254:	0000029a 	muleq	r0, sl, r2
    1258:	00045819 	andeq	r5, r4, r9, lsl r8
    125c:	01280100 			; <UNDEFINED> instruction: 0x01280100
    1260:	00002c0a 	andeq	r2, r0, sl, lsl #24
    1264:	008f1400 	addeq	r1, pc, r0, lsl #8
    1268:	00001800 	andeq	r1, r0, r0, lsl #16
    126c:	f29c0100 	vaddw.s16	q0, q6, d0
    1270:	1a000002 	bne	1280 <__code_start__-0x6d80>
    1274:	00000373 	andeq	r0, r0, r3, ror r3
    1278:	0e012b01 	vmlaeq.f64	d2, d1, d1
    127c:	0000002c 	andeq	r0, r0, ip, lsr #32
    1280:	0000060c 	andeq	r0, r0, ip, lsl #12
    1284:	0000060a 	andeq	r0, r0, sl, lsl #12
    1288:	008f2418 	addeq	r2, pc, r8, lsl r4	; <UNPREDICTABLE>
    128c:	00093d00 	andeq	r3, r9, r0, lsl #26
    1290:	8f281800 	svchi	0x00281800
    1294:	02f20000 	rscseq	r0, r2, #0, 0
    1298:	1b000000 	blne	12a0 <__code_start__-0x6d60>
    129c:	0000052e 	andeq	r0, r0, lr, lsr #10
    12a0:	11011001 	tstne	r1, r1
    12a4:	0000002c 	andeq	r0, r0, ip, lsr #32
    12a8:	00008b38 	andeq	r8, r0, r8, lsr fp
    12ac:	000000e4 	andeq	r0, r0, r4, ror #1
    12b0:	04619c01 	strbteq	r9, [r1], #-3073	; 0xfffff3ff
    12b4:	0e1a0000 	cdpeq	0, 1, cr0, cr10, cr0, {0}
    12b8:	01000004 	tsteq	r0, r4
    12bc:	2c0e0112 	stfcss	f0, [lr], {18}
    12c0:	23000000 	movwcs	r0, #0
    12c4:	1f000006 	svcne	0x00000006
    12c8:	1a000006 	bne	12e8 <__code_start__-0x6d18>
    12cc:	00000495 	muleq	r0, r5, r4
    12d0:	1b011201 	blne	45adc <__bss_end__+0x3a784>
    12d4:	0000002c 	andeq	r0, r0, ip, lsr #32
    12d8:	00000646 	andeq	r0, r0, r6, asr #12
    12dc:	00000642 	andeq	r0, r0, r2, asr #12
    12e0:	00041d1a 	andeq	r1, r4, sl, lsl sp
    12e4:	01120100 	tsteq	r2, r0, lsl #2
    12e8:	00002c27 	andeq	r2, r0, r7, lsr #24
    12ec:	00066b00 	andeq	r6, r6, r0, lsl #22
    12f0:	00066500 	andeq	r6, r6, r0, lsl #10
    12f4:	01bb1500 			; <UNDEFINED> instruction: 0x01bb1500
    12f8:	04710000 	ldrbteq	r0, [r1], #-0
    12fc:	03050000 	movweq	r0, #20480	; 0x5000
    1300:	0000ab30 	andeq	sl, r0, r0, lsr fp
    1304:	0000781c 	andeq	r7, r0, ip, lsl r8
    1308:	00040400 	andeq	r0, r4, r0, lsl #8
    130c:	00681d00 	rsbeq	r1, r8, r0, lsl #26
    1310:	11011701 	tstne	r1, r1, lsl #14
    1314:	00000476 	andeq	r0, r0, r6, ror r4
    1318:	0000069d 	muleq	r0, sp, r6
    131c:	00000695 	muleq	r0, r5, r6
    1320:	000e1f1e 	andeq	r1, lr, lr, lsl pc
    1324:	008b8400 	addeq	r8, fp, r0, lsl #8
    1328:	8b840000 	blhi	fe101330 <__bss_end__+0xfe0f5fd8>
    132c:	00180000 	andseq	r0, r8, r0
    1330:	1e010000 	cdpne	0, 0, cr0, cr1, cr0, {0}
    1334:	03b90d01 			; <UNDEFINED> instruction: 0x03b90d01
    1338:	481f0000 	ldmdami	pc, {}	; <UNPREDICTABLE>
    133c:	d300000e 	movwle	r0, #14
    1340:	d1000006 	tstle	r0, r6
    1344:	1f000006 	svcne	0x00000006
    1348:	00000e3c 	andeq	r0, r0, ip, lsr lr
    134c:	000006eb 	andeq	r0, r0, fp, ror #13
    1350:	000006e9 	andeq	r0, r0, r9, ror #13
    1354:	000e301f 	andeq	r3, lr, pc, lsl r0
    1358:	00070500 	andeq	r0, r7, r0, lsl #10
    135c:	00070300 	andeq	r0, r7, r0, lsl #6
    1360:	60180000 	andsvs	r0, r8, r0
    1364:	7c00008b 	stcvc	0, cr0, [r0], {139}	; 0x8b
    1368:	1600000e 	strne	r0, [r0], -lr
    136c:	00008bac 	andeq	r8, r0, ip, lsr #23
    1370:	00000e88 	andeq	r0, r0, r8, lsl #29
    1374:	000003d6 	ldrdeq	r0, [r0], -r6
    1378:	02500117 	subseq	r0, r0, #-1073741819	; 0xc0000005
    137c:	16000076 			; <UNDEFINED> instruction: 0x16000076
    1380:	00008bb8 			; <UNDEFINED> instruction: 0x00008bb8
    1384:	00000e55 	andeq	r0, r0, r5, asr lr
    1388:	000003f3 	strdeq	r0, [r0], -r3
    138c:	05500117 	ldrbeq	r0, [r0, #-279]	; 0xfffffee9
    1390:	00a9a403 	adceq	sl, r9, r3, lsl #8
    1394:	51011700 	tstpl	r1, r0, lsl #14
    1398:	00007602 	andeq	r7, r0, r2, lsl #12
    139c:	008bc020 	addeq	ip, fp, r0, lsr #32
    13a0:	000e9400 	andeq	r9, lr, r0, lsl #8
    13a4:	50011700 	andpl	r1, r1, r0, lsl #14
    13a8:	00007402 	andeq	r7, r0, r2, lsl #8
    13ac:	8b501600 	blhi	1406bb4 <__bss_end__+0x13fb85c>
    13b0:	0e550000 	cdpeq	0, 5, cr0, cr5, cr0, {0}
    13b4:	041b0000 	ldreq	r0, [fp], #-0
    13b8:	01170000 	tsteq	r7, r0
    13bc:	60030550 	andvs	r0, r3, r0, asr r5
    13c0:	000000a8 	andeq	r0, r0, r8, lsr #1
    13c4:	008b5816 	addeq	r5, fp, r6, lsl r8
    13c8:	000e5500 	andeq	r5, lr, r0, lsl #10
    13cc:	00043200 	andeq	r3, r4, r0, lsl #4
    13d0:	50011700 	andpl	r1, r1, r0, lsl #14
    13d4:	a9940305 	ldmibge	r4, {r0, r2, r8, r9}
    13d8:	18000000 	stmdane	r0, {}	; <UNPREDICTABLE>
    13dc:	00008b5c 	andeq	r8, r0, ip, asr fp
    13e0:	0000093d 	andeq	r0, r0, sp, lsr r9
    13e4:	008bf420 	addeq	pc, fp, r0, lsr #8
    13e8:	000e5500 	andeq	r5, lr, r0, lsl #10
    13ec:	50011700 	andpl	r1, r1, r0, lsl #14
    13f0:	a9b40305 	ldmibge	r4!, {r0, r2, r8, r9}
    13f4:	01170000 	tsteq	r7, r0
    13f8:	00750251 	rsbseq	r0, r5, r1, asr r2
    13fc:	02520117 	subseq	r0, r2, #-1073741819	; 0xc0000005
    1400:	01170078 	tsteq	r7, r8, ror r0
    1404:	00770253 	rsbseq	r0, r7, r3, asr r2
    1408:	cc100000 	ldcgt	0, cr0, [r0], {-0}
    140c:	71000000 	mrsvc	r0, (UNDEF: 0)
    1410:	11000004 	tstne	r0, r4
    1414:	0000002c 	andeq	r0, r0, ip, lsr #32
    1418:	6109000a 	tstvs	r9, sl
    141c:	08000004 	stmdaeq	r0, {r2}
    1420:	0001fc04 	andeq	pc, r1, r4, lsl #24
    1424:	04c01900 	strbeq	r1, [r0], #2304	; 0x900
    1428:	00010000 	andeq	r0, r1, r0
    142c:	002c0a01 	eoreq	r0, ip, r1, lsl #20
    1430:	8eb00000 	cdphi	0, 11, cr0, cr0, cr0, {0}
    1434:	00580000 	subseq	r0, r8, r0
    1438:	9c010000 	stcls	0, cr0, [r1], {-0}
    143c:	00000525 	andeq	r0, r0, r5, lsr #10
    1440:	0004751a 	andeq	r7, r4, sl, lsl r5
    1444:	01060100 	mrseq	r0, (UNDEF: 22)
    1448:	00002c0e 	andeq	r2, r0, lr, lsl #24
    144c:	00072300 	andeq	r2, r7, r0, lsl #6
    1450:	00071d00 	andeq	r1, r7, r0, lsl #26
    1454:	01bb1500 			; <UNDEFINED> instruction: 0x01bb1500
    1458:	05350000 	ldreq	r0, [r5, #-0]!
    145c:	03050000 	movweq	r0, #20480	; 0x5000
    1460:	0000ab54 	andeq	sl, r0, r4, asr fp
    1464:	008ec416 	addeq	ip, lr, r6, lsl r4
    1468:	0005d700 	andeq	sp, r5, r0, lsl #14
    146c:	0004ce00 	andeq	ip, r4, r0, lsl #28
    1470:	50011700 	andpl	r1, r1, r0, lsl #14
    1474:	16003101 	strne	r3, [r0], -r1, lsl #2
    1478:	00008ed8 	ldrdeq	r8, [r0], -r8	; <UNPREDICTABLE>
    147c:	00000e55 	andeq	r0, r0, r5, asr lr
    1480:	000004eb 	andeq	r0, r0, fp, ror #9
    1484:	05500117 	ldrbeq	r0, [r0, #-279]	; 0xfffffee9
    1488:	00aad403 	adceq	sp, sl, r3, lsl #8
    148c:	51011700 	tstpl	r1, r0, lsl #14
    1490:	00007402 	andeq	r7, r0, r2, lsl #8
    1494:	008ef416 	addeq	pc, lr, r6, lsl r4	; <UNPREDICTABLE>
    1498:	000e5500 	andeq	r5, lr, r0, lsl #10
    149c:	00051b00 	andeq	r1, r5, r0, lsl #22
    14a0:	50011700 	andpl	r1, r1, r0, lsl #14
    14a4:	aaac0305 	bge	feb020c0 <__bss_end__+0xfeaf6d68>
    14a8:	01170000 	tsteq	r7, r0
    14ac:	c8030551 	stmdagt	r3, {r0, r4, r6, r8, sl}
    14b0:	170000a7 	strne	r0, [r0, -r7, lsr #1]
    14b4:	03055201 	movweq	r5, #20993	; 0x5201
    14b8:	0000ab54 	andeq	sl, r0, r4, asr fp
    14bc:	03530117 	cmpeq	r3, #-1073741819	; 0xc0000005
    14c0:	0001080a 	andeq	r0, r1, sl, lsl #16
    14c4:	008ef818 	addeq	pc, lr, r8, lsl r8	; <UNPREDICTABLE>
    14c8:	000e6100 	andeq	r6, lr, r0, lsl #2
    14cc:	cc100000 	ldcgt	0, cr0, [r0], {-0}
    14d0:	35000000 	strcc	r0, [r0, #-0]
    14d4:	11000005 	tstne	r0, r5
    14d8:	0000002c 	andeq	r0, r0, ip, lsr #32
    14dc:	25090011 	strcs	r0, [r9, #-17]	; 0xffffffef
    14e0:	21000005 	tstcs	r0, r5
    14e4:	0000049c 	muleq	r0, ip, r4
    14e8:	4806f201 	stmdami	r6, {r0, r9, ip, sp, lr, pc}
    14ec:	5000008e 	andpl	r0, r0, lr, lsl #1
    14f0:	01000000 	mrseq	r0, (UNDEF: 0)
    14f4:	0005c29c 	muleq	r5, ip, r2
    14f8:	01bb1500 			; <UNDEFINED> instruction: 0x01bb1500
    14fc:	05d20000 	ldrbeq	r0, [r2]
    1500:	03050000 	movweq	r0, #20480	; 0x5000
    1504:	0000ab44 	andeq	sl, r0, r4, asr #22
    1508:	008e5c16 	addeq	r5, lr, r6, lsl ip
    150c:	0005d700 	andeq	sp, r5, r0, lsl #14
    1510:	00057200 	andeq	r7, r5, r0, lsl #4
    1514:	50011700 	andpl	r1, r1, r0, lsl #14
    1518:	16003101 	strne	r3, [r0], -r1, lsl #2
    151c:	00008e6c 	andeq	r8, r0, ip, ror #28
    1520:	00000e55 	andeq	r0, r0, r5, asr lr
    1524:	00000589 	andeq	r0, r0, r9, lsl #11
    1528:	05500117 	ldrbeq	r0, [r0, #-279]	; 0xfffffee9
    152c:	00aa8c03 	adceq	r8, sl, r3, lsl #24
    1530:	84160000 	ldrhi	r0, [r6], #-0
    1534:	5500008e 	strpl	r0, [r0, #-142]	; 0xffffff72
    1538:	b800000e 	stmdalt	r0, {r1, r2, r3}
    153c:	17000005 	strne	r0, [r0, -r5]
    1540:	03055001 	movweq	r5, #20481	; 0x5001
    1544:	0000aa60 	andeq	sl, r0, r0, ror #20
    1548:	05510117 	ldrbeq	r0, [r1, #-279]	; 0xfffffee9
    154c:	00a7c803 	adceq	ip, r7, r3, lsl #16
    1550:	52011700 	andpl	r1, r1, #0, 14
    1554:	ab440305 	blge	1102170 <__bss_end__+0x10f6e18>
    1558:	01170000 	tsteq	r7, r0
    155c:	f9080253 			; <UNDEFINED> instruction: 0xf9080253
    1560:	8e881800 	cdphi	8, 8, cr1, cr8, cr0, {0}
    1564:	0e610000 	cdpeq	0, 6, cr0, cr1, cr0, {0}
    1568:	10000000 	andne	r0, r0, r0
    156c:	000000cc 	andeq	r0, r0, ip, asr #1
    1570:	000005d2 	ldrdeq	r0, [r0], -r2
    1574:	00002c11 	andeq	r2, r0, r1, lsl ip
    1578:	09000d00 	stmdbeq	r0, {r8, sl, fp}
    157c:	000005c2 	andeq	r0, r0, r2, asr #11
    1580:	00043d22 	andeq	r3, r4, r2, lsr #26
    1584:	0aeb0100 	beq	ffac198c <__bss_end__+0xffab6634>
    1588:	0000002c 	andeq	r0, r0, ip, lsr #32
    158c:	00008e20 	andeq	r8, r0, r0, lsr #28
    1590:	00000014 	andeq	r0, r0, r4, lsl r0
    1594:	06179c01 	ldreq	r9, [r7], -r1, lsl #24
    1598:	39230000 	stmdbcc	r3!, {}	; <UNPREDICTABLE>
    159c:	01000005 	tsteq	r0, r5
    15a0:	00251ceb 	eoreq	r1, r5, fp, ror #25
    15a4:	07500000 	ldrbeq	r0, [r0, -r0]
    15a8:	074c0000 	strbeq	r0, [ip, -r0]
    15ac:	30200000 	eorcc	r0, r0, r0
    15b0:	1700008e 	strne	r0, [r0, -lr, lsl #1]
    15b4:	17000006 	strne	r0, [r0, -r6]
    15b8:	f3035001 	vhadd.u8	d5, d3, d1
    15bc:	00005001 	andeq	r5, r0, r1
    15c0:	00051424 	andeq	r1, r5, r4, lsr #8
    15c4:	11c20100 	bicne	r0, r2, r0, lsl #2
    15c8:	0000002c 	andeq	r0, r0, ip, lsr #32
    15cc:	00008a2c 	andeq	r8, r0, ip, lsr #20
    15d0:	000000fc 	strdeq	r0, [r0], -ip
    15d4:	079e9c01 	ldreq	r9, [lr, r1, lsl #24]
    15d8:	39230000 	stmdbcc	r3!, {}	; <UNPREDICTABLE>
    15dc:	01000005 	tsteq	r0, r5
    15e0:	002520c2 	eoreq	r2, r5, r2, asr #1
    15e4:	07750000 	ldrbeq	r0, [r5, -r0]!
    15e8:	07710000 	ldrbeq	r0, [r1, -r0]!
    15ec:	0e250000 	cdpeq	0, 2, cr0, cr5, cr0, {0}
    15f0:	01000004 	tsteq	r0, r4
    15f4:	002c0ec4 	eoreq	r0, ip, r4, asr #29
    15f8:	07970000 	ldreq	r0, [r7, r0]
    15fc:	07930000 	ldreq	r0, [r3, r0]
    1600:	51250000 			; <UNDEFINED> instruction: 0x51250000
    1604:	01000004 	tsteq	r0, r4
    1608:	002c1bc4 	eoreq	r1, ip, r4, asr #23
    160c:	07bc0000 	ldreq	r0, [ip, r0]!
    1610:	07b60000 	ldreq	r0, [r6, r0]!
    1614:	4b250000 	blmi	94161c <__bss_end__+0x9362c4>
    1618:	01000004 	tsteq	r0, r4
    161c:	002c27c4 	eoreq	r2, ip, r4, asr #15
    1620:	07ea0000 	strbeq	r0, [sl, r0]!
    1624:	07e60000 	strbeq	r0, [r6, r0]!
    1628:	601c0000 	andsvs	r0, ip, r0
    162c:	fc000000 	stc2	0, cr0, [r0], {-0}
    1630:	26000006 	strcs	r0, [r0], -r6
    1634:	c9010068 	stmdbgt	r1, {r3, r5, r6}
    1638:	00047611 	andeq	r7, r4, r1, lsl r6
    163c:	00081700 	andeq	r1, r8, r0, lsl #14
    1640:	00080900 	andeq	r0, r8, r0, lsl #18
    1644:	8a541800 	bhi	150764c <__bss_end__+0x14fc2f4>
    1648:	0e7c0000 	cdpeq	0, 7, cr0, cr12, cr0, {0}
    164c:	7c160000 	ldcvc	0, cr0, [r6], {-0}
    1650:	5500008a 	strpl	r0, [r0, #-138]	; 0xffffff76
    1654:	c800000e 	stmdagt	r0, {r1, r2, r3}
    1658:	17000006 	strne	r0, [r0, -r6]
    165c:	03055001 	movweq	r5, #20481	; 0x5001
    1660:	0000a8b4 			; <UNDEFINED> instruction: 0x0000a8b4
    1664:	02510117 	subseq	r0, r1, #-1073741819	; 0xc0000005
    1668:	01170075 	tsteq	r7, r5, ror r0
    166c:	00740252 	rsbseq	r0, r4, r2, asr r2
    1670:	8a841600 	bhi	fe106e78 <__bss_end__+0xfe0fbb20>
    1674:	0e940000 	cdpeq	0, 9, cr0, cr4, cr0, {0}
    1678:	06dc0000 	ldrbeq	r0, [ip], r0
    167c:	01170000 	tsteq	r7, r0
    1680:	00740250 	rsbseq	r0, r4, r0, asr r2
    1684:	8abc2000 	bhi	fef0968c <__bss_end__+0xfeefe334>
    1688:	0e550000 	cdpeq	0, 5, cr0, cr5, cr0, {0}
    168c:	01170000 	tsteq	r7, r0
    1690:	c8030550 	stmdagt	r3, {r4, r6, r8, sl}
    1694:	170000a8 	strne	r0, [r0, -r8, lsr #1]
    1698:	75025101 	strvc	r5, [r2, #-257]	; 0xfffffeff
    169c:	52011700 	andpl	r1, r1, #0, 14
    16a0:	00007402 	andeq	r7, r0, r2, lsl #8
    16a4:	8a441600 	bhi	1106eac <__bss_end__+0x10fbb54>
    16a8:	0e550000 	cdpeq	0, 5, cr0, cr5, cr0, {0}
    16ac:	07130000 	ldreq	r0, [r3, -r0]
    16b0:	01170000 	tsteq	r7, r0
    16b4:	60030550 	andvs	r0, r3, r0, asr r5
    16b8:	000000a8 	andeq	r0, r0, r8, lsr #1
    16bc:	008a4c16 	addeq	r4, sl, r6, lsl ip
    16c0:	000e5500 	andeq	r5, lr, r0, lsl #10
    16c4:	00072a00 	andeq	r2, r7, r0, lsl #20
    16c8:	50011700 	andpl	r1, r1, r0, lsl #14
    16cc:	a89c0305 	ldmge	ip, {r0, r2, r8, r9}
    16d0:	18000000 	stmdane	r0, {}	; <UNPREDICTABLE>
    16d4:	00008a50 	andeq	r8, r0, r0, asr sl
    16d8:	0000093d 	andeq	r0, r0, sp, lsr r9
    16dc:	008acc16 	addeq	ip, sl, r6, lsl ip
    16e0:	000e5500 	andeq	r5, lr, r0, lsl #10
    16e4:	00075000 	andeq	r5, r7, r0
    16e8:	50011700 	andpl	r1, r1, r0, lsl #14
    16ec:	a8e00305 	stmiage	r0!, {r0, r2, r8, r9}^
    16f0:	01170000 	tsteq	r7, r0
    16f4:	00750251 	rsbseq	r0, r5, r1, asr r2
    16f8:	8adc1600 	bhi	ff706f00 <__bss_end__+0xff6fbba8>
    16fc:	0e550000 	cdpeq	0, 5, cr0, cr5, cr0, {0}
    1700:	07670000 	strbeq	r0, [r7, -r0]!
    1704:	01170000 	tsteq	r7, r0
    1708:	00030550 	andeq	r0, r3, r0, asr r5
    170c:	000000a9 	andeq	r0, r0, r9, lsr #1
    1710:	008ae416 	addeq	lr, sl, r6, lsl r4
    1714:	000e5500 	andeq	r5, lr, r0, lsl #10
    1718:	00077e00 	andeq	r7, r7, r0, lsl #28
    171c:	50011700 	andpl	r1, r1, r0, lsl #14
    1720:	a9580305 	ldmdbge	r8, {r0, r2, r8, r9}^
    1724:	20000000 	andcs	r0, r0, r0
    1728:	00008b04 	andeq	r8, r0, r4, lsl #22
    172c:	00000e55 	andeq	r0, r0, r5, asr lr
    1730:	05500117 	ldrbeq	r0, [r0, #-279]	; 0xfffffee9
    1734:	00a92803 	adceq	r2, r9, r3, lsl #16
    1738:	51011700 	tstpl	r1, r0, lsl #14
    173c:	17007602 	strne	r7, [r0, -r2, lsl #12]
    1740:	78025201 	stmdavc	r2, {r0, r9, ip, lr}
    1744:	22000000 	andcs	r0, r0, #0, 0
    1748:	00000042 	andeq	r0, r0, r2, asr #32
    174c:	2505ac01 	strcs	sl, [r5, #-3073]	; 0xfffff3ff
    1750:	38000000 	stmdacc	r0, {}	; <UNPREDICTABLE>
    1754:	d400008d 	strle	r0, [r0], #-141	; 0xffffff73
    1758:	01000000 	mrseq	r0, (UNDEF: 0)
    175c:	0008ce9c 	muleq	r8, ip, lr
    1760:	04512500 	ldrbeq	r2, [r1], #-1280	; 0xfffffb00
    1764:	ad010000 	stcge	0, cr0, [r1, #-0]
    1768:	00002509 	andeq	r2, r0, r9, lsl #10
    176c:	00087000 	andeq	r7, r8, r0
    1770:	00086c00 	andeq	r6, r8, r0, lsl #24
    1774:	00a82700 	adceq	r2, r8, r0, lsl #14
    1778:	68260000 	stmdavs	r6!, {}	; <UNPREDICTABLE>
    177c:	11ae0100 			; <UNDEFINED> instruction: 0x11ae0100
    1780:	00000476 	andeq	r0, r0, r6, ror r4
    1784:	0000089b 	muleq	r0, fp, r8
    1788:	0000088f 	andeq	r0, r0, pc, lsl #17
    178c:	0000c01c 	andeq	ip, r0, ip, lsl r0
    1790:	0008b300 	andeq	fp, r8, r0, lsl #6
    1794:	047c2500 	ldrbteq	r2, [ip], #-1280	; 0xfffffb00
    1798:	af010000 	svcge	0x00010000
    179c:	0000250d 	andeq	r2, r0, sp, lsl #10
    17a0:	0008ed00 	andeq	lr, r8, r0, lsl #26
    17a4:	0008e500 	andeq	lr, r8, r0, lsl #10
    17a8:	00d81c00 	sbcseq	r1, r8, r0, lsl #24
    17ac:	085a0000 	ldmdaeq	sl, {}^	; <UNPREDICTABLE>
    17b0:	65260000 	strvs	r0, [r6, #-0]!
    17b4:	11b40100 			; <UNDEFINED> instruction: 0x11b40100
    17b8:	00000025 	andeq	r0, r0, r5, lsr #32
    17bc:	00000926 	andeq	r0, r0, r6, lsr #18
    17c0:	00000922 	andeq	r0, r0, r2, lsr #18
    17c4:	008d6816 	addeq	r6, sp, r6, lsl r8
    17c8:	000e5500 	andeq	r5, lr, r0, lsl #10
    17cc:	00083200 	andeq	r3, r8, r0, lsl #4
    17d0:	50011700 	andpl	r1, r1, r0, lsl #14
    17d4:	a6b40305 	ldrtge	r0, [r4], r5, lsl #6
    17d8:	16000000 	strne	r0, [r0], -r0
    17dc:	00008d70 	andeq	r8, r0, r0, ror sp
    17e0:	00000e55 	andeq	r0, r0, r5, asr lr
    17e4:	00000849 	andeq	r0, r0, r9, asr #16
    17e8:	05500117 	ldrbeq	r0, [r0, #-279]	; 0xfffffee9
    17ec:	00aa4803 	adceq	r4, sl, r3, lsl #16
    17f0:	e8200000 	stmda	r0!, {}	; <UNPREDICTABLE>
    17f4:	ce00008d 	cdpgt	0, 0, cr0, cr0, cr13, {4}
    17f8:	17000008 	strne	r0, [r0, -r8]
    17fc:	77025001 	strvc	r5, [r2, -r1]
    1800:	16000000 	strne	r0, [r0], -r0
    1804:	00008d94 	muleq	r0, r4, sp
    1808:	000008ce 	andeq	r0, r0, lr, asr #17
    180c:	00000874 	andeq	r0, r0, r4, ror r8
    1810:	02500117 	subseq	r0, r0, #-1073741819	; 0xc0000005
    1814:	01173274 	tsteq	r7, r4, ror r2
    1818:	80080251 	andhi	r0, r8, r1, asr r2
    181c:	8db01600 	ldchi	6, cr1, [r0]
    1820:	08ce0000 	stmiaeq	lr, {}^	; <UNPREDICTABLE>
    1824:	08880000 	stmeq	r8, {}	; <UNPREDICTABLE>
    1828:	01170000 	tsteq	r7, r0
    182c:	80080251 	andhi	r0, r8, r1, asr r2
    1830:	8dc81600 	stclhi	6, cr1, [r8]
    1834:	0e550000 	cdpeq	0, 5, cr0, cr5, cr0, {0}
    1838:	089f0000 	ldmeq	pc, {}	; <UNPREDICTABLE>
    183c:	01170000 	tsteq	r7, r0
    1840:	b4030550 	strlt	r0, [r3], #-1360	; 0xfffffab0
    1844:	000000a6 	andeq	r0, r0, r6, lsr #1
    1848:	008dd020 	addeq	sp, sp, r0, lsr #32
    184c:	000e5500 	andeq	r5, lr, r0, lsl #10
    1850:	50011700 	andpl	r1, r1, r0, lsl #14
    1854:	aa180305 	bge	602470 <__bss_end__+0x5f7118>
    1858:	00000000 	andeq	r0, r0, r0
    185c:	008d4818 	addeq	r4, sp, r8, lsl r8
    1860:	000e7c00 	andeq	r7, lr, r0, lsl #24
    1864:	8d7c2000 	ldclhi	0, cr2, [ip, #-0]
    1868:	0e940000 	cdpeq	0, 9, cr0, cr4, cr0, {0}
    186c:	01170000 	tsteq	r7, r0
    1870:	00740250 	rsbseq	r0, r4, r0, asr r2
    1874:	22000000 	andcs	r0, r0, #0, 0
    1878:	000004de 	ldrdeq	r0, [r0], -lr
    187c:	2c0ea201 	sfmcs	f2, 1, [lr], {1}
    1880:	e8000000 	stmda	r0, {}	; <UNPREDICTABLE>
    1884:	3c00008c 	stccc	0, cr0, [r0], {140}	; 0x8c
    1888:	01000000 	mrseq	r0, (UNDEF: 0)
    188c:	0009379c 	muleq	r9, ip, r7
    1890:	04ed2300 	strbteq	r2, [sp], #768	; 0x300
    1894:	a2010000 	andge	r0, r1, #0, 0
    1898:	00093723 	andeq	r3, r9, r3, lsr #14
    189c:	00094800 	andeq	r4, r9, r0, lsl #16
    18a0:	00094400 	andeq	r4, r9, r0, lsl #8
    18a4:	03732800 	cmneq	r3, #0, 16
    18a8:	a2010000 	andge	r0, r1, #0, 0
    18ac:	00002530 	andeq	r2, r0, r0, lsr r5
    18b0:	25510100 	ldrbcs	r0, [r1, #-256]	; 0xffffff00
    18b4:	0000054d 	andeq	r0, r0, sp, asr #10
    18b8:	2509a301 	strcs	sl, [r9, #-769]	; 0xfffffcff
    18bc:	6a000000 	bvs	18c4 <__code_start__-0x673c>
    18c0:	66000009 	strvs	r0, [r0], -r9
    18c4:	27000009 	strcs	r0, [r0, -r9]
    18c8:	00000090 	muleq	r0, r0, r0
    18cc:	01006926 	tsteq	r0, r6, lsr #18
    18d0:	00250ea4 	eoreq	r0, r5, r4, lsr #29
    18d4:	098d0000 	stmibeq	sp, {}	; <UNPREDICTABLE>
    18d8:	09890000 	stmibeq	r9, {}	; <UNPREDICTABLE>
    18dc:	00000000 	andeq	r0, r0, r0
    18e0:	00c50408 	sbceq	r0, r5, r8, lsl #8
    18e4:	e8290000 	stmda	r9!, {}	; <UNPREDICTABLE>
    18e8:	01000003 	tsteq	r0, r3
    18ec:	89700d79 	ldmdbhi	r0!, {r0, r3, r4, r5, r6, r8, sl, fp}^
    18f0:	00ac0000 	adceq	r0, ip, r0
    18f4:	9c010000 	stcls	0, cr0, [r1], {-0}
    18f8:	00000a4b 	andeq	r0, r0, fp, asr #20
    18fc:	00047013 	andeq	r7, r4, r3, lsl r0
    1900:	0e850100 	rmfeqs	f0, f5, f0
    1904:	00000a4b 	andeq	r0, r0, fp, asr #20
    1908:	7fb09103 	svcvc	0x00b09103
    190c:	0003de2a 	andeq	sp, r3, sl, lsr #28
    1910:	0f960100 	svceq	0x00960100
    1914:	00000a5b 	andeq	r0, r0, fp, asr sl
    1918:	08000000 	stmdaeq	r0, {}	; <UNPREDICTABLE>
    191c:	00040007 	andeq	r0, r4, r7
    1920:	159b0100 	ldrne	r0, [fp, #256]	; 0x100
    1924:	00000075 	andeq	r0, r0, r5, ror r0
    1928:	0004d207 	andeq	sp, r4, r7, lsl #4
    192c:	249b0100 	ldrcs	r0, [fp], #256	; 0x100
    1930:	00000075 	andeq	r0, r0, r5, ror r0
    1934:	00051f07 	andeq	r1, r5, r7, lsl #30
    1938:	159e0100 	ldrne	r0, [lr, #256]	; 0x100
    193c:	00000075 	andeq	r0, r0, r5, ror r0
    1940:	00045e07 	andeq	r5, r4, r7, lsl #28
    1944:	259e0100 	ldrcs	r0, [lr, #256]	; 0x100
    1948:	00000075 	andeq	r0, r0, r5, ror r0
    194c:	0089802b 	addeq	r8, r9, fp, lsr #32
    1950:	00002400 	andeq	r2, r0, r0, lsl #8
    1954:	0009d500 	andeq	sp, r9, r0, lsl #10
    1958:	00682600 	rsbeq	r2, r8, r0, lsl #12
    195c:	76117e01 	ldrvc	r7, [r1], -r1, lsl #28
    1960:	b0000004 	andlt	r0, r0, r4
    1964:	ac000009 	stcge	0, cr0, [r0], {9}
    1968:	18000009 	stmdane	r0, {r0, r3}
    196c:	00008984 	andeq	r8, r0, r4, lsl #19
    1970:	00000e7c 	andeq	r0, r0, ip, ror lr
    1974:	0089a018 	addeq	sl, r9, r8, lsl r0
    1978:	000e9400 	andeq	r9, lr, r0, lsl #8
    197c:	ac160000 	ldcge	0, cr0, [r6], {-0}
    1980:	a0000089 	andge	r0, r0, r9, lsl #1
    1984:	ea00000e 	b	19c4 <__code_start__-0x663c>
    1988:	17000009 	strne	r0, [r0, -r9]
    198c:	7b035001 	blvc	d5998 <__bss_end__+0xca640>
    1990:	16007fb4 			; <UNDEFINED> instruction: 0x16007fb4
    1994:	000089cc 	andeq	r8, r0, ip, asr #19
    1998:	00000a61 	andeq	r0, r0, r1, ror #20
    199c:	00000a05 	andeq	r0, r0, r5, lsl #20
    19a0:	03500117 	cmpeq	r0, #-1073741819	; 0xc0000005
    19a4:	177fb47b 			; <UNDEFINED> instruction: 0x177fb47b
    19a8:	7b025101 	blvc	95db4 <__bss_end__+0x8aa5c>
    19ac:	dc16006c 	ldcle	0, cr0, [r6], {108}	; 0x6c
    19b0:	55000089 	strpl	r0, [r0, #-137]	; 0xffffff77
    19b4:	2300000e 	movwcs	r0, #14
    19b8:	1700000a 	strne	r0, [r0, -sl]
    19bc:	03055001 	movweq	r5, #20481	; 0x5001
    19c0:	0000a844 	andeq	sl, r0, r4, asr #16
    19c4:	03520117 	cmpeq	r2, #-1073741819	; 0xc0000005
    19c8:	00244740 	eoreq	r4, r4, r0, asr #14
    19cc:	0089e816 	addeq	lr, r9, r6, lsl r8
    19d0:	000a6100 	andeq	r6, sl, r0, lsl #2
    19d4:	000a3800 	andeq	r3, sl, r0, lsl #16
    19d8:	51011700 	tstpl	r1, r0, lsl #14
    19dc:	24474003 	strbcs	r4, [r7], #-3
    19e0:	89f41800 	ldmibhi	r4!, {fp, ip}^
    19e4:	0a610000 	beq	18419ec <__bss_end__+0x1836694>
    19e8:	00180000 	andseq	r0, r8, r0
    19ec:	6100008a 	smlabbvs	r0, sl, r0, r0
    19f0:	0000000a 	andeq	r0, r0, sl
    19f4:	00007510 	andeq	r7, r0, r0, lsl r5
    19f8:	000a5b00 	andeq	r5, sl, r0, lsl #22
    19fc:	002c1100 	eoreq	r1, ip, r0, lsl #2
    1a00:	000f0000 	andeq	r0, pc, r0
    1a04:	00750408 	rsbseq	r0, r5, r8, lsl #8
    1a08:	2e290000 	cdpcs	0, 2, cr0, cr9, cr0, {0}
    1a0c:	01000004 	tsteq	r0, r4
    1a10:	87d00d50 			; <UNDEFINED> instruction: 0x87d00d50
    1a14:	01900000 	orrseq	r0, r0, r0
    1a18:	9c010000 	stcls	0, cr0, [r1], {-0}
    1a1c:	00000c9f 	muleq	r0, pc, ip	; <UNPREDICTABLE>
    1a20:	0100702c 	tsteq	r0, ip, lsr #32
    1a24:	0a5b1c50 	beq	16c8b6c <__bss_end__+0x16bd814>
    1a28:	09dc0000 	ldmibeq	ip, {}^	; <UNPREDICTABLE>
    1a2c:	09ce0000 	stmibeq	lr, {}^	; <UNPREDICTABLE>
    1a30:	652c0000 	strvs	r0, [ip, #-0]!
    1a34:	29500100 	ldmdbcs	r0, {r8}^
    1a38:	00000a5b 	andeq	r0, r0, fp, asr sl
    1a3c:	00000a45 	andeq	r0, r0, r5, asr #20
    1a40:	00000a37 	andeq	r0, r0, r7, lsr sl
    1a44:	0001bb15 	andeq	fp, r1, r5, lsl fp
    1a48:	000caf00 	andeq	sl, ip, r0, lsl #30
    1a4c:	28030500 	stmdacs	r3, {r8, sl}
    1a50:	2b0000ab 	blcs	1d04 <__code_start__-0x62fc>
    1a54:	00008860 	andeq	r8, r0, r0, ror #16
    1a58:	000000d4 	ldrdeq	r0, [r0], -r4
    1a5c:	00000bd8 	ldrdeq	r0, [r0], -r8
    1a60:	01006926 	tsteq	r0, r6, lsr #18
    1a64:	0a5b1458 	beq	16c6bcc <__bss_end__+0x16bb874>
    1a68:	0aa20000 	beq	fe881a70 <__bss_end__+0xfe876718>
    1a6c:	0aa00000 	beq	fe801a74 <__bss_end__+0xfe7f671c>
    1a70:	18270000 	stmdane	r7!, {}	; <UNPREDICTABLE>
    1a74:	26000000 	strcs	r0, [r0], -r0
    1a78:	5a010062 	bpl	41c08 <__bss_end__+0x368b0>
    1a7c:	00047610 	andeq	r7, r4, r0, lsl r6
    1a80:	000ab900 	andeq	fp, sl, r0, lsl #18
    1a84:	000ab500 	andeq	fp, sl, r0, lsl #10
    1a88:	00481c00 	subeq	r1, r8, r0, lsl #24
    1a8c:	0b880000 	bleq	fe201a94 <__bss_end__+0xfe1f673c>
    1a90:	65260000 	strvs	r0, [r6, #-0]!
    1a94:	01007078 	tsteq	r0, r8, ror r0
    1a98:	0075165d 	rsbseq	r1, r5, sp, asr r6
    1a9c:	0adb0000 	beq	ff6c1aa4 <__bss_end__+0xff6b674c>
    1aa0:	0ad70000 	beq	ff5c1aa8 <__bss_end__+0xff5b6750>
    1aa4:	2a250000 	bcs	941aac <__bss_end__+0x936754>
    1aa8:	01000004 	tsteq	r0, r4
    1aac:	0062165e 	rsbeq	r1, r2, lr, asr r6
    1ab0:	0afd0000 	beq	fff41ab8 <__bss_end__+0xfff36760>
    1ab4:	0af90000 	beq	ffe41abc <__bss_end__+0xffe36764>
    1ab8:	7c160000 	ldcvc	0, cr0, [r6], {-0}
    1abc:	55000088 	strpl	r0, [r0, #-136]	; 0xffffff78
    1ac0:	2800000e 	stmdacs	r0, {r1, r2, r3}
    1ac4:	1700000b 	strne	r0, [r0, -fp]
    1ac8:	03055001 	movweq	r5, #20481	; 0x5001
    1acc:	0000a824 	andeq	sl, r0, r4, lsr #16
    1ad0:	88c81600 	stmiahi	r8, {r9, sl, ip}^
    1ad4:	0eac0000 	cdpeq	0, 10, cr0, cr12, cr0, {0}
    1ad8:	0b3c0000 	bleq	f01ae0 <__bss_end__+0xef6788>
    1adc:	01170000 	tsteq	r7, r0
    1ae0:	00750250 	rsbseq	r0, r5, r0, asr r2
    1ae4:	88e01600 	stmiahi	r0!, {r9, sl, ip}^
    1ae8:	0e550000 	cdpeq	0, 5, cr0, cr5, cr0, {0}
    1aec:	0b600000 	bleq	1801af4 <__bss_end__+0x17f679c>
    1af0:	01170000 	tsteq	r7, r0
    1af4:	f8030550 			; <UNDEFINED> instruction: 0xf8030550
    1af8:	170000a7 	strne	r0, [r0, -r7, lsr #1]
    1afc:	74025201 	strvc	r5, [r2], #-513	; 0xfffffdff
    1b00:	7d021700 	stcvc	7, cr1, [r2, #-0]
    1b04:	00760200 	rsbseq	r0, r6, r0, lsl #4
    1b08:	89241600 	stmdbhi	r4!, {r9, sl, ip}
    1b0c:	0a610000 	beq	1841b14 <__bss_end__+0x18367bc>
    1b10:	0b740000 	bleq	1d01b18 <__bss_end__+0x1cf67c0>
    1b14:	01170000 	tsteq	r7, r0
    1b18:	04750250 	ldrbteq	r0, [r5], #-592	; 0xfffffdb0
    1b1c:	89302000 	ldmdbhi	r0!, {sp}
    1b20:	0e550000 	cdpeq	0, 5, cr0, cr5, cr0, {0}
    1b24:	01170000 	tsteq	r7, r0
    1b28:	34030550 	strcc	r0, [r3], #-1360	; 0xfffffab0
    1b2c:	000000a8 	andeq	r0, r0, r8, lsr #1
    1b30:	0cb42d00 	ldceq	13, cr2, [r4]
    1b34:	88940000 	ldmhi	r4, {}	; <UNPREDICTABLE>
    1b38:	30000000 	andcc	r0, r0, r0
    1b3c:	01000000 	mrseq	r0, (UNDEF: 0)
    1b40:	c52e145a 	strgt	r1, [lr, #-1114]!	; 0xfffffba6
    1b44:	2700000c 	strcs	r0, [r0, -ip]
    1b48:	00000030 	andeq	r0, r0, r0, lsr r0
    1b4c:	000cd12f 	andeq	sp, ip, pc, lsr #2
    1b50:	000b1f00 	andeq	r1, fp, r0, lsl #30
    1b54:	000b1b00 	andeq	r1, fp, r0, lsl #22
    1b58:	889c1600 	ldmhi	ip, {r9, sl, ip}
    1b5c:	0cdc0000 	ldcleq	0, cr0, [ip], {0}
    1b60:	0bc40000 	bleq	ff101b68 <__bss_end__+0xff0f6810>
    1b64:	01170000 	tsteq	r7, r0
    1b68:	00750250 	rsbseq	r0, r5, r0, asr r2
    1b6c:	88ac2000 	stmiahi	ip!, {sp}
    1b70:	0eb80000 	cdpeq	0, 11, cr0, cr8, cr0, {0}
    1b74:	01170000 	tsteq	r7, r0
    1b78:	00750250 	rsbseq	r0, r5, r0, asr r2
    1b7c:	00000000 	andeq	r0, r0, r0
    1b80:	881c1600 	ldmdahi	ip, {r9, sl, ip}
    1b84:	0e550000 	cdpeq	0, 5, cr0, cr5, cr0, {0}
    1b88:	0c110000 	ldceq	0, cr0, [r1], {-0}
    1b8c:	01170000 	tsteq	r7, r0
    1b90:	54030550 	strpl	r0, [r3], #-1360	; 0xfffffab0
    1b94:	170000a7 	strne	r0, [r0, -r7, lsr #1]
    1b98:	03055101 	movweq	r5, #20737	; 0x5101
    1b9c:	0000a7c8 	andeq	sl, r0, r8, asr #15
    1ba0:	05520117 	ldrbeq	r0, [r2, #-279]	; 0xfffffee9
    1ba4:	00ab2803 	adceq	r2, fp, r3, lsl #16
    1ba8:	53011700 	movwpl	r1, #5888	; 0x1700
    1bac:	17560802 	ldrbne	r0, [r6, -r2, lsl #16]
    1bb0:	05007d02 	streq	r7, [r0, #-3330]	; 0xfffff2fe
    1bb4:	00a7e803 	adceq	lr, r7, r3, lsl #16
    1bb8:	20180000 	andscs	r0, r8, r0
    1bbc:	61000088 	smlabbvs	r0, r8, r0, r0
    1bc0:	1600000e 	strne	r0, [r0], -lr
    1bc4:	0000883c 	andeq	r8, r0, ip, lsr r8
    1bc8:	00000e55 	andeq	r0, r0, r5, asr lr
    1bcc:	00000c53 	andeq	r0, r0, r3, asr ip
    1bd0:	05500117 	ldrbeq	r0, [r0, #-279]	; 0xfffffee9
    1bd4:	00a75403 	adceq	r5, r7, r3, lsl #8
    1bd8:	51011700 	tstpl	r1, r0, lsl #14
    1bdc:	a7c80305 	strbge	r0, [r8, r5, lsl #6]
    1be0:	01170000 	tsteq	r7, r0
    1be4:	28030552 	stmdacs	r3, {r1, r4, r6, r8, sl}
    1be8:	170000ab 	strne	r0, [r0, -fp, lsr #1]
    1bec:	08025301 	stmdaeq	r2, {r0, r8, r9, ip, lr}
    1bf0:	7d021752 	stcvc	7, cr1, [r2, #-328]	; 0xfffffeb8
    1bf4:	d0030500 	andle	r0, r3, r0, lsl #10
    1bf8:	000000a7 	andeq	r0, r0, r7, lsr #1
    1bfc:	00884018 	addeq	r4, r8, r8, lsl r0
    1c00:	000e6100 	andeq	r6, lr, r0, lsl #2
    1c04:	885c1600 	ldmdahi	ip, {r9, sl, ip}^
    1c08:	0e550000 	cdpeq	0, 5, cr0, cr5, cr0, {0}
    1c0c:	0c950000 	ldceq	0, cr0, [r5], {0}
    1c10:	01170000 	tsteq	r7, r0
    1c14:	54030550 	strpl	r0, [r3], #-1360	; 0xfffffab0
    1c18:	170000a7 	strne	r0, [r0, -r7, lsr #1]
    1c1c:	03055101 	movweq	r5, #20737	; 0x5101
    1c20:	0000a7c8 	andeq	sl, r0, r8, asr #15
    1c24:	05520117 	ldrbeq	r0, [r2, #-279]	; 0xfffffee9
    1c28:	00ab2803 	adceq	r2, fp, r3, lsl #16
    1c2c:	53011700 	movwpl	r1, #5888	; 0x1700
    1c30:	17550802 	ldrbne	r0, [r5, -r2, lsl #16]
    1c34:	05007d02 	streq	r7, [r0, #-3330]	; 0xfffff2fe
    1c38:	00a7d803 	adceq	sp, r7, r3, lsl #16
    1c3c:	60180000 	andsvs	r0, r8, r0
    1c40:	61000088 	smlabbvs	r0, r8, r0, r0
    1c44:	0000000e 	andeq	r0, r0, lr
    1c48:	0000cc10 	andeq	ip, r0, r0, lsl ip
    1c4c:	000caf00 	andeq	sl, ip, r0, lsl #30
    1c50:	002c1100 	eoreq	r1, ip, r0, lsl #2
    1c54:	00040000 	andeq	r0, r4, r0
    1c58:	000c9f09 	andeq	r9, ip, r9, lsl #30
    1c5c:	048e3000 	streq	r3, [lr], #0
    1c60:	3c010000 	stccc	0, cr0, [r1], {-0}
    1c64:	00047616 	andeq	r7, r4, r6, lsl r6
    1c68:	0cdc0300 	ldcleq	3, cr0, [ip], {0}
    1c6c:	22310000 	eorscs	r0, r1, #0, 0
    1c70:	01000006 	tsteq	r0, r6
    1c74:	0075263c 	rsbseq	r2, r5, ip, lsr r6
    1c78:	70320000 	eorsvc	r0, r2, r0
    1c7c:	0b3e0100 	bleq	f82084 <__bss_end__+0xf76d2c>
    1c80:	00000208 	andeq	r0, r0, r8, lsl #4
    1c84:	04aa2400 	strteq	r2, [sl], #1024	; 0x400
    1c88:	2b010000 	blcs	41c90 <__bss_end__+0x36938>
    1c8c:	0000250c 	andeq	r2, r0, ip, lsl #10
    1c90:	00877c00 	addeq	r7, r7, r0, lsl #24
    1c94:	00004800 	andeq	r4, r0, r0, lsl #16
    1c98:	099c0100 	ldmibeq	ip, {r8}
    1c9c:	2c00000d 	stccs	0, cr0, [r0], {13}
    1ca0:	2b010070 	blcs	41e68 <__bss_end__+0x36b10>
    1ca4:	0002081a 	andeq	r0, r2, sl, lsl r8
    1ca8:	000b4900 	andeq	r4, fp, r0, lsl #18
    1cac:	000b3d00 	andeq	r3, fp, r0, lsl #26
    1cb0:	c4220000 	strtgt	r0, [r2], #-0
    1cb4:	01000003 	tsteq	r0, r3
    1cb8:	02080713 	andeq	r0, r8, #4980736	; 0x4c0000
    1cbc:	8c280000 	stchi	0, cr0, [r8], #-0
    1cc0:	00ac0000 	adceq	r0, ip, r0
    1cc4:	9c010000 	stcls	0, cr0, [r1], {-0}
    1cc8:	00000e1f 	andeq	r0, r0, pc, lsl lr
    1ccc:	00043323 	andeq	r3, r4, r3, lsr #6
    1cd0:	11130100 	tstne	r3, r0, lsl #2
    1cd4:	00000041 	andeq	r0, r0, r1, asr #32
    1cd8:	00000ba8 	andeq	r0, r0, r8, lsr #23
    1cdc:	00000b9c 	muleq	r0, ip, fp
    1ce0:	00041613 	andeq	r1, r4, r3, lsl r6
    1ce4:	10150100 	andsne	r0, r5, r0, lsl #2
    1ce8:	00000025 	andeq	r0, r0, r5, lsr #32
    1cec:	af480305 	svcge	0x00480305
    1cf0:	bb150000 	bllt	541cf8 <__bss_end__+0x5369a0>
    1cf4:	af000001 	svcge	0x00000001
    1cf8:	0500000c 	streq	r0, [r0, #-12]
    1cfc:	00ab3c03 	adceq	r3, fp, r3, lsl #24
    1d00:	8c502b00 	mrrchi	11, 0, r2, r0, cr0
    1d04:	00240000 	eoreq	r0, r4, r0
    1d08:	0d920000 	ldceq	0, cr0, [r2]
    1d0c:	b2250000 	eorlt	r0, r5, #0, 0
    1d10:	01000004 	tsteq	r0, r4
    1d14:	002c121c 	eoreq	r1, ip, ip, lsl r2
    1d18:	0bf40000 	bleq	ffd01d20 <__bss_end__+0xffcf69c8>
    1d1c:	0bf20000 	bleq	ffc81d24 <__bss_end__+0xffc769cc>
    1d20:	6c200000 	stcvs	0, cr0, [r0], #-0
    1d24:	c400008c 	strgt	r0, [r0], #-140	; 0xffffff74
    1d28:	1700000e 	strne	r0, [r0, -lr]
    1d2c:	40035001 	andmi	r5, r3, r1
    1d30:	01172440 	tsteq	r7, r0, asr #8
    1d34:	40400351 	submi	r0, r0, r1, asr r3
    1d38:	16000024 	strne	r0, [r0], -r4, lsr #32
    1d3c:	00008c7c 	andeq	r8, r0, ip, ror ip
    1d40:	00000ed0 	ldrdeq	r0, [r0], -r0	; <UNPREDICTABLE>
    1d44:	00000da6 	andeq	r0, r0, r6, lsr #27
    1d48:	02500117 	subseq	r0, r0, #-1073741819	; 0xc0000005
    1d4c:	16000074 			; <UNDEFINED> instruction: 0x16000074
    1d50:	00008ca0 	andeq	r8, r0, r0, lsr #25
    1d54:	00000e55 	andeq	r0, r0, r5, asr lr
    1d58:	00000dde 	ldrdeq	r0, [r0], -lr
    1d5c:	05500117 	ldrbeq	r0, [r0, #-279]	; 0xfffffee9
    1d60:	00a75403 	adceq	r5, r7, r3, lsl #8
    1d64:	51011700 	tstpl	r1, r0, lsl #14
    1d68:	a7c80305 	strbge	r0, [r8, r5, lsl #6]
    1d6c:	01170000 	tsteq	r7, r0
    1d70:	3c030552 	cfstr32cc	mvfx0, [r3], {82}	; 0x52
    1d74:	170000ab 	strne	r0, [r0, -fp, lsr #1]
    1d78:	47015301 	strmi	r5, [r1, -r1, lsl #6]
    1d7c:	007d0217 	rsbseq	r0, sp, r7, lsl r2
    1d80:	a9e80305 	stmibge	r8!, {r0, r2, r8, r9}^
    1d84:	18000000 	stmdane	r0, {}	; <UNPREDICTABLE>
    1d88:	00008ca4 	andeq	r8, r0, r4, lsr #25
    1d8c:	00000e61 	andeq	r0, r0, r1, ror #28
    1d90:	008cb816 	addeq	fp, ip, r6, lsl r8
    1d94:	000e5500 	andeq	r5, lr, r0, lsl #10
    1d98:	000e1500 	andeq	r1, lr, r0, lsl #10
    1d9c:	50011700 	andpl	r1, r1, r0, lsl #14
    1da0:	a9f80305 	ldmibge	r8!, {r0, r2, r8, r9}^
    1da4:	01170000 	tsteq	r7, r0
    1da8:	c8030551 	stmdagt	r3, {r0, r4, r6, r8, sl}
    1dac:	170000a7 	strne	r0, [r0, -r7, lsr #1]
    1db0:	03055201 	movweq	r5, #20993	; 0x5201
    1db4:	0000ab3c 	andeq	sl, r0, ip, lsr fp
    1db8:	01530117 	cmpeq	r3, r7, lsl r1
    1dbc:	bc180049 	ldclt	0, cr0, [r8], {73}	; 0x49
    1dc0:	6100008c 	smlabbvs	r0, ip, r0, r0
    1dc4:	0000000e 	andeq	r0, r0, lr
    1dc8:	00016d30 	andeq	r6, r1, r0, lsr sp
    1dcc:	0b0d0200 	bleq	3425d4 <__bss_end__+0x33727c>
    1dd0:	00000114 	andeq	r0, r0, r4, lsl r1
    1dd4:	000e5503 	andeq	r5, lr, r3, lsl #10
    1dd8:	00513100 	subseq	r3, r1, r0, lsl #2
    1ddc:	0d020000 	stceq	0, cr0, [r2, #-0]
    1de0:	0000bf22 	andeq	fp, r0, r2, lsr #30
    1de4:	01b63100 			; <UNDEFINED> instruction: 0x01b63100
    1de8:	0d020000 	stceq	0, cr0, [r2, #-0]
    1dec:	0000bf34 	andeq	fp, r0, r4, lsr pc
    1df0:	00263100 	eoreq	r3, r6, r0, lsl #2
    1df4:	0d020000 	stceq	0, cr0, [r2, #-0]
    1df8:	00002c43 	andeq	r2, r0, r3, asr #24
    1dfc:	89330000 	ldmdbhi	r3!, {}	; <UNPREDICTABLE>
    1e00:	89000006 	stmdbhi	r0, {r1, r2}
    1e04:	04000006 	streq	r0, [r0], #-6
    1e08:	64330628 	ldrtvs	r0, [r3], #-1576	; 0xfffff9d8
    1e0c:	64000000 	strvs	r0, [r0], #-0
    1e10:	04000000 	streq	r0, [r0], #-0
    1e14:	0d34066e 	ldceq	6, cr0, [r4, #-440]!	; 0xfffffe48
    1e18:	77730b9e 			; <UNDEFINED> instruction: 0x77730b9e
    1e1c:	5f706565 	svcpl	0x00706565
    1e20:	65657266 	strbvs	r7, [r5, #-614]!	; 0xfffffd9a
    1e24:	02c63300 	sbceq	r3, r6, #0, 6
    1e28:	02c60000 	sbceq	r0, r6, #0, 0
    1e2c:	29050000 	stmdbcs	r5, {}	; <UNPREDICTABLE>
    1e30:	021b3308 	andseq	r3, fp, #8, 6	; 0x20000000
    1e34:	021b0000 	andseq	r0, fp, #0, 0
    1e38:	4d050000 	stcmi	0, cr0, [r5, #-0]
    1e3c:	03313307 	teqeq	r1, #469762048	; 0x1c000000
    1e40:	03310000 	teqeq	r1, #0, 0
    1e44:	2c050000 	stccs	0, cr0, [r5], {-0}
    1e48:	046b3308 	strbteq	r3, [fp], #-776	; 0xfffffcf8
    1e4c:	046b0000 	strbteq	r0, [fp], #-0
    1e50:	76010000 	strvc	r0, [r1], -r0
    1e54:	034f3306 	movteq	r3, #62214	; 0xf306
    1e58:	034f0000 	movteq	r0, #61440	; 0xf000
    1e5c:	35050000 	strcc	r0, [r5, #-0]
    1e60:	03123307 	tsteq	r2, #469762048	; 0x1c000000
    1e64:	03120000 	tsteq	r2, #0, 0
    1e68:	48050000 	stmdami	r5, {}	; <UNPREDICTABLE>
    1e6c:	04fd3308 	ldrbteq	r3, [sp], #776	; 0x308
    1e70:	04fd0000 	ldrbteq	r0, [sp], #0
    1e74:	82040000 	andhi	r0, r4, #0, 0
    1e78:	04f53306 	ldrbteq	r3, [r5], #774	; 0x306
    1e7c:	04f50000 	ldrbteq	r0, [r5], #0
    1e80:	7b040000 	blvc	101e88 <__bss_end__+0xf6b30>
    1e84:	02160007 	andseq	r0, r6, #7, 0
    1e88:	00040000 	andeq	r0, r4, r0
    1e8c:	0000095e 	andeq	r0, r0, lr, asr r9
    1e90:	05610104 	strbeq	r0, [r1, #-260]!	; 0xfffffefc
    1e94:	490c0000 	stmdbmi	ip, {}	; <UNPREDICTABLE>
    1e98:	27000006 	strcs	r0, [r0, -r6]
    1e9c:	78000006 	stmdavc	r0, {r1, r2}
    1ea0:	a000008f 	andge	r0, r0, pc, lsl #1
    1ea4:	8a000000 	bhi	1eac <__code_start__-0x6154>
    1ea8:	0200000d 	andeq	r0, r0, #13, 0
    1eac:	6e690504 	cdpvs	5, 6, cr0, cr9, cr4, {0}
    1eb0:	04030074 	streq	r0, [r3], #-116	; 0xffffff8c
    1eb4:	0001e207 	andeq	lr, r1, r7, lsl #4
    1eb8:	06010300 	streq	r0, [r1], -r0, lsl #6
    1ebc:	00000058 	andeq	r0, r0, r8, asr r0
    1ec0:	22050203 	andcs	r0, r5, #805306368	; 0x30000000
    1ec4:	03000002 	movweq	r0, #2
    1ec8:	02060504 	andeq	r0, r6, #4, 10	; 0x1000000
    1ecc:	08030000 	stmdaeq	r3, {}	; <UNPREDICTABLE>
    1ed0:	00020105 	andeq	r0, r2, r5, lsl #2
    1ed4:	08010300 	stmdaeq	r1, {r8, r9}
    1ed8:	00000056 	andeq	r0, r0, r6, asr r0
    1edc:	71070203 	tstvc	r7, r3, lsl #4
    1ee0:	03000000 	movweq	r0, #0
    1ee4:	01dd0704 	bicseq	r0, sp, r4, lsl #14
    1ee8:	08030000 	stmdaeq	r3, {}	; <UNPREDICTABLE>
    1eec:	0001d807 	andeq	sp, r1, r7, lsl #16
    1ef0:	00250400 	eoreq	r0, r5, r0, lsl #8
    1ef4:	007a0000 	rsbseq	r0, sl, r0
    1ef8:	25050000 	strcs	r0, [r5, #-0]
    1efc:	00000000 	andeq	r0, r0, r0
    1f00:	00020f06 	andeq	r0, r2, r6, lsl #30
    1f04:	0e1c0200 	cdpeq	2, 1, cr0, cr12, cr0, {0}
    1f08:	00000086 	andeq	r0, r0, r6, lsl #1
    1f0c:	006b0407 	rsbeq	r0, fp, r7, lsl #8
    1f10:	25040000 	strcs	r0, [r4, #-0]
    1f14:	9b000000 	blls	1f1c <__code_start__-0x60e4>
    1f18:	05000000 	streq	r0, [r0, #-0]
    1f1c:	0000009b 	muleq	r0, fp, r0
    1f20:	a8040700 	stmdage	r4, {r8, r9, sl}
    1f24:	03000000 	movweq	r0, #0
    1f28:	005f0801 	subseq	r0, pc, r1, lsl #16
    1f2c:	a1080000 	mrsge	r0, (UNDEF: 8)
    1f30:	06000000 	streq	r0, [r0], -r0
    1f34:	000006c7 	andeq	r0, r0, r7, asr #13
    1f38:	b90e2102 	stmdblt	lr, {r1, r8, sp}
    1f3c:	07000000 	streq	r0, [r0, -r0]
    1f40:	00008c04 	andeq	r8, r0, r4, lsl #24
    1f44:	06620900 	strbteq	r0, [r2], -r0, lsl #18
    1f48:	42010000 	andmi	r0, r1, #0, 0
    1f4c:	00009b0d 	andeq	r9, r0, sp, lsl #22
    1f50:	00f70100 	rscseq	r0, r7, r0, lsl #2
    1f54:	190a0000 	stmdbne	sl, {}	; <UNPREDICTABLE>
    1f58:	01000006 	tsteq	r0, r6
    1f5c:	002c1e42 	eoreq	r1, ip, r2, asr #28
    1f60:	530b0000 	movwpl	r0, #45056	; 0xb000
    1f64:	01000005 	tsteq	r0, r5
    1f68:	002c0e43 	eoreq	r0, ip, r3, asr #28
    1f6c:	0b0c0000 	bleq	301f74 <__bss_end__+0x2f6c1c>
    1f70:	00000558 	andeq	r0, r0, r8, asr r5
    1f74:	2c124501 	cfldr32cs	mvfx4, [r2], {1}
    1f78:	00000000 	andeq	r0, r0, r0
    1f7c:	02f90d00 	rscseq	r0, r9, #0, 26
    1f80:	1d010000 	stcne	0, cr0, [r1, #-0]
    1f84:	00002505 	andeq	r2, r0, r5, lsl #10
    1f88:	008f7800 	addeq	r7, pc, r0, lsl #16
    1f8c:	00008000 	andeq	r8, r0, r0
    1f90:	be9c0100 	fmllte	f0, f4, f0
    1f94:	0e000001 	cdpeq	0, 0, cr0, cr0, cr1, {0}
    1f98:	0000065b 	andeq	r0, r0, fp, asr r6
    1f9c:	be0f1e01 	cdplt	14, 0, cr1, cr15, cr1, {0}
    1fa0:	0c000001 	stceq	0, cr0, [r0], {1}
    1fa4:	0a00000c 	beq	1fdc <__code_start__-0x6024>
    1fa8:	0f00000c 	svceq	0x0000000c
    1fac:	00008f80 	andeq	r8, r0, r0, lsl #31
    1fb0:	0000005c 	andeq	r0, r0, ip, asr r0
    1fb4:	01006910 	tsteq	r0, r0, lsl r9
    1fb8:	00250e21 	eoreq	r0, r5, r1, lsr #28
    1fbc:	0c230000 	stceq	0, cr0, [r3], #-0
    1fc0:	0c1f0000 	ldceq	0, cr0, [pc], {-0}
    1fc4:	f0110000 			; <UNDEFINED> instruction: 0xf0110000
    1fc8:	10000000 	andne	r0, r0, r0
    1fcc:	01006370 	tsteq	r0, r0, ror r3
    1fd0:	002c1222 	eoreq	r1, ip, r2, lsr #4
    1fd4:	0c440000 	mareq	acc0, r0, r4
    1fd8:	0c420000 	mareq	acc0, r0, r2
    1fdc:	bf120000 	svclt	0x00120000
    1fe0:	b4000000 	strlt	r0, [r0], #-0
    1fe4:	0100008f 	smlabbeq	r0, pc, r0, r0	; <UNPREDICTABLE>
    1fe8:	00000110 	andeq	r0, r0, r0, lsl r1
    1fec:	a5092301 	strge	r2, [r9, #-769]	; 0xfffffcff
    1ff0:	13000001 	movwne	r0, #1
    1ff4:	000000d0 	ldrdeq	r0, [r0], -r0	; <UNPREDICTABLE>
    1ff8:	00000c59 	andeq	r0, r0, r9, asr ip
    1ffc:	00000c57 	andeq	r0, r0, r7, asr ip
    2000:	00011011 	andeq	r1, r1, r1, lsl r0
    2004:	00dc1400 	sbcseq	r1, ip, r0, lsl #8
    2008:	0c700000 	ldcleq	0, cr0, [r0], #-0
    200c:	0c6c0000 	stcleq	0, cr0, [ip], #-0
    2010:	e8150000 	ldmda	r5, {}	; <UNPREDICTABLE>
    2014:	38000000 	stmdacc	r0, {}	; <UNPREDICTABLE>
    2018:	14000001 	strne	r0, [r0], #-1
    201c:	000000e9 	andeq	r0, r0, r9, ror #1
    2020:	00000c95 	muleq	r0, r5, ip
    2024:	00000c8f 	andeq	r0, r0, pc, lsl #25
    2028:	16000000 	strne	r0, [r0], -r0
    202c:	00008fd0 	ldrdeq	r8, [r0], -r0
    2030:	0000020d 	andeq	r0, r0, sp, lsl #4
    2034:	02500117 	subseq	r0, r0, #-1073741819	; 0xc0000005
    2038:	01170075 	tsteq	r7, r5, ror r0
    203c:	00770251 	rsbseq	r0, r7, r1, asr r2
    2040:	00000000 	andeq	r0, r0, r0
    2044:	002c0407 	eoreq	r0, ip, r7, lsl #8
    2048:	bf180000 	svclt	0x00180000
    204c:	f8000000 			; <UNDEFINED> instruction: 0xf8000000
    2050:	2000008f 	andcs	r0, r0, pc, lsl #1
    2054:	01000000 	mrseq	r0, (UNDEF: 0)
    2058:	00020d9c 	muleq	r2, ip, sp
    205c:	00d01300 	sbcseq	r1, r0, r0, lsl #6
    2060:	0cd50000 	ldcleq	0, cr0, [r5], {0}
    2064:	0ccf0000 	stcleq	0, cr0, [pc], {0}
    2068:	dc140000 	ldcle	0, cr0, [r4], {-0}
    206c:	09000000 	stmdbeq	r0, {}	; <UNPREDICTABLE>
    2070:	0300000d 	movweq	r0, #13
    2074:	1900000d 	stmdbne	r0, {r0, r2, r3}
    2078:	000000e8 	andeq	r0, r0, r8, ror #1
    207c:	00009004 	andeq	r9, r0, r4
    2080:	00000008 	andeq	r0, r0, r8
    2084:	0000e914 	andeq	lr, r0, r4, lsl r9
    2088:	000d3d00 	andeq	r3, sp, r0, lsl #26
    208c:	000d3700 	andeq	r3, sp, r0, lsl #14
    2090:	1a000000 	bne	2098 <__code_start__-0x5f68>
    2094:	00000689 	andeq	r0, r0, r9, lsl #13
    2098:	00000689 	andeq	r0, r0, r9, lsl #13
    209c:	00062802 	andeq	r2, r6, r2, lsl #16
    20a0:	00000140 	andeq	r0, r0, r0, asr #2
    20a4:	0ac90004 	beq	ff2420bc <__bss_end__+0xff236d64>
    20a8:	01040000 	mrseq	r0, (UNDEF: 4)
    20ac:	00000561 	andeq	r0, r0, r1, ror #10
    20b0:	0006710c 	andeq	r7, r6, ip, lsl #2
    20b4:	00062700 	andeq	r2, r6, r0, lsl #14
    20b8:	00901800 	addseq	r1, r0, r0, lsl #16
    20bc:	00007800 	andeq	r7, r0, r0, lsl #16
    20c0:	000ec400 	andeq	ip, lr, r0, lsl #8
    20c4:	05040200 	streq	r0, [r4, #-512]	; 0xfffffe00
    20c8:	00746e69 	rsbseq	r6, r4, r9, ror #28
    20cc:	00066a03 	andeq	r6, r6, r3, lsl #20
    20d0:	17d10300 	ldrbne	r0, [r1, r0, lsl #6]
    20d4:	00000038 	andeq	r0, r0, r8, lsr r0
    20d8:	e2070404 	and	r0, r7, #4, 8	; 0x4000000
    20dc:	04000001 	streq	r0, [r0], #-1
    20e0:	00580601 	subseq	r0, r8, r1, lsl #12
    20e4:	02040000 	andeq	r0, r4, #0, 0
    20e8:	00022205 	andeq	r2, r2, r5, lsl #4
    20ec:	05040400 	streq	r0, [r4, #-1024]	; 0xfffffc00
    20f0:	00000206 	andeq	r0, r0, r6, lsl #4
    20f4:	01050804 	tsteq	r5, r4, lsl #16
    20f8:	04000002 	streq	r0, [r0], #-2
    20fc:	00560801 	subseq	r0, r6, r1, lsl #16
    2100:	02040000 	andeq	r0, r4, #0, 0
    2104:	00007107 	andeq	r7, r0, r7, lsl #2
    2108:	07040400 	streq	r0, [r4, -r0, lsl #8]
    210c:	000001dd 	ldrdeq	r0, [r0], -sp
    2110:	d8070804 	stmdale	r7, {r2, fp}
    2114:	05000001 	streq	r0, [r0, #-1]
    2118:	00000025 	andeq	r0, r0, r5, lsr #32
    211c:	00000086 	andeq	r0, r0, r6, lsl #1
    2120:	00002506 	andeq	r2, r0, r6, lsl #10
    2124:	0f070000 	svceq	0x00070000
    2128:	02000002 	andeq	r0, r0, #2, 0
    212c:	00920e1c 	addseq	r0, r2, ip, lsl lr
    2130:	04080000 	streq	r0, [r8], #-0
    2134:	00000077 	andeq	r0, r0, r7, ror r0
    2138:	00002505 	andeq	r2, r0, r5, lsl #10
    213c:	0000a700 	andeq	sl, r0, r0, lsl #14
    2140:	00a70600 	adceq	r0, r7, r0, lsl #12
    2144:	08000000 	stmdaeq	r0, {}	; <UNPREDICTABLE>
    2148:	0000b404 	andeq	fp, r0, r4, lsl #8
    214c:	08010400 	stmdaeq	r1, {sl}
    2150:	0000005f 	andeq	r0, r0, pc, asr r0
    2154:	0000ad09 	andeq	sl, r0, r9, lsl #26
    2158:	06c70700 	strbeq	r0, [r7], r0, lsl #14
    215c:	21020000 	mrscs	r0, (UNDEF: 2)
    2160:	0000c50e 	andeq	ip, r0, lr, lsl #10
    2164:	98040800 	stmdals	r4, {fp}
    2168:	0a000000 	beq	2170 <__code_start__-0x5e90>
    216c:	000001c8 	andeq	r0, r0, r8, asr #3
    2170:	3b070401 	blcc	1c317c <__bss_end__+0x1b7e24>
    2174:	18000001 	stmdane	r0, {r0}
    2178:	78000090 	stmdavc	r0, {r4, r7}
    217c:	01000000 	mrseq	r0, (UNDEF: 0)
    2180:	00013b9c 	muleq	r1, ip, fp
    2184:	705f0b00 	subsvc	r0, pc, r0, lsl #22
    2188:	14040100 	strne	r0, [r4], #-256	; 0xffffff00
    218c:	0000013b 	andeq	r0, r0, fp, lsr r1
    2190:	630c5001 	movwvs	r5, #49153	; 0xc001
    2194:	1c040100 	stfnes	f0, [r4], {-0}
    2198:	00000025 	andeq	r0, r0, r5, lsr #32
    219c:	00000d87 	andeq	r0, r0, r7, lsl #27
    21a0:	00000d83 	andeq	r0, r0, r3, lsl #27
    21a4:	01006e0c 	tsteq	r0, ip, lsl #28
    21a8:	002c2604 	eoreq	r2, ip, r4, lsl #12
    21ac:	0dac0000 	stceq	0, cr0, [ip]
    21b0:	0da80000 	stceq	0, cr0, [r8]
    21b4:	700d0000 	andvc	r0, sp, r0
    21b8:	0b050100 	bleq	1425c0 <__bss_end__+0x137268>
    21bc:	0000013d 	andeq	r0, r0, sp, lsr r1
    21c0:	00000ddb 	ldrdeq	r0, [r0], -fp
    21c4:	00000dcd 	andeq	r0, r0, sp, asr #27
    21c8:	0100650d 	tsteq	r0, sp, lsl #10
    21cc:	013d1405 	teqeq	sp, r5, lsl #8
    21d0:	0e380000 	cdpeq	0, 3, cr0, cr8, cr0, {0}
    21d4:	0e360000 	cdpeq	0, 3, cr0, cr6, cr0, {0}
    21d8:	0e000000 	cdpeq	0, 0, cr0, cr0, cr0, {0}
    21dc:	ad040804 	stcge	8, cr0, [r4, #-16]
    21e0:	00000000 	andeq	r0, r0, r0
    21e4:	0000019d 	muleq	r0, sp, r1
    21e8:	0b950004 	bleq	fe542200 <__bss_end__+0xfe536ea8>
    21ec:	01040000 	mrseq	r0, (UNDEF: 4)
    21f0:	00000561 	andeq	r0, r0, r1, ror #10
    21f4:	0006a40c 	andeq	sl, r6, ip, lsl #8
    21f8:	00062700 	andeq	r2, r6, r0, lsl #14
    21fc:	00909000 	addseq	r9, r0, r0
    2200:	00005800 	andeq	r5, r0, r0, lsl #16
    2204:	000fe900 	andeq	lr, pc, r0, lsl #18
    2208:	06900200 	ldreq	r0, [r0], r0, lsl #4
    220c:	28020000 	stmdacs	r2, {}	; <UNPREDICTABLE>
    2210:	0000311b 	andeq	r3, r0, fp, lsl r1
    2214:	06b40300 	ldrteq	r0, [r4], r0, lsl #6
    2218:	04040000 	streq	r0, [r4], #-0
    221c:	00004800 	andeq	r4, r0, r0, lsl #16
    2220:	069f0400 	ldreq	r0, [pc], r0, lsl #8
    2224:	00480000 	subeq	r0, r8, r0
    2228:	00000000 	andeq	r0, r0, r0
    222c:	b6020405 	strlt	r0, [r2], -r5, lsl #8
    2230:	02000006 	andeq	r0, r0, #6, 0
    2234:	00251863 	eoreq	r1, r5, r3, ror #16
    2238:	04060000 	streq	r0, [r6], #-0
    223c:	746e6905 	strbtvc	r6, [lr], #-2309	; 0xfffff6fb
    2240:	07040700 	streq	r0, [r4, -r0, lsl #14]
    2244:	000001e2 	andeq	r0, r0, r2, ror #3
    2248:	58060107 	stmdapl	r6, {r0, r1, r2, r8}
    224c:	07000000 	streq	r0, [r0, -r0]
    2250:	02220502 	eoreq	r0, r2, #8388608	; 0x800000
    2254:	04070000 	streq	r0, [r7], #-0
    2258:	00020605 	andeq	r0, r2, r5, lsl #12
    225c:	05080700 	streq	r0, [r8, #-1792]	; 0xfffff900
    2260:	00000201 	andeq	r0, r0, r1, lsl #4
    2264:	56080107 	strpl	r0, [r8], -r7, lsl #2
    2268:	07000000 	streq	r0, [r0, -r0]
    226c:	00710702 	rsbseq	r0, r1, r2, lsl #14
    2270:	04070000 	streq	r0, [r7], #-0
    2274:	0001dd07 	andeq	sp, r1, r7, lsl #26
    2278:	07080700 	streq	r0, [r8, -r0, lsl #14]
    227c:	000001d8 	ldrdeq	r0, [r0], -r8
    2280:	00005608 	andeq	r5, r0, r8, lsl #12
    2284:	0000ab00 	andeq	sl, r0, r0, lsl #22
    2288:	00560900 	subseq	r0, r6, r0, lsl #18
    228c:	0a000000 	beq	2294 <__code_start__-0x5d6c>
    2290:	0000020f 	andeq	r0, r0, pc, lsl #4
    2294:	b70e1c03 	strlt	r1, [lr, -r3, lsl #24]
    2298:	0b000000 	bleq	22a0 <__code_start__-0x5d60>
    229c:	00009c04 	andeq	r9, r0, r4, lsl #24
    22a0:	00560800 	subseq	r0, r6, r0, lsl #16
    22a4:	00cc0000 	sbceq	r0, ip, r0
    22a8:	cc090000 	stcgt	0, cr0, [r9], {-0}
    22ac:	00000000 	andeq	r0, r0, r0
    22b0:	00d9040b 	sbcseq	r0, r9, fp, lsl #8
    22b4:	01070000 	mrseq	r0, (UNDEF: 7)
    22b8:	00005f08 	andeq	r5, r0, r8, lsl #30
    22bc:	00d20c00 	sbcseq	r0, r2, r0, lsl #24
    22c0:	c70a0000 	strgt	r0, [sl, -r0]
    22c4:	03000006 	movweq	r0, #6
    22c8:	00ea0e21 	rsceq	r0, sl, r1, lsr #28
    22cc:	040b0000 	streq	r0, [fp], #-0
    22d0:	000000bd 	strheq	r0, [r0], -sp
    22d4:	0006890d 	andeq	r8, r6, sp, lsl #18
    22d8:	05060100 	streq	r0, [r6, #-256]	; 0xffffff00
    22dc:	00000056 	andeq	r0, r0, r6, asr r0
    22e0:	00009090 	muleq	r0, r0, r0
    22e4:	00000058 	andeq	r0, r0, r8, asr r0
    22e8:	01839c01 	orreq	r9, r3, r1, lsl #24
    22ec:	660e0000 	strvs	r0, [lr], -r0
    22f0:	0100746d 	tsteq	r0, sp, ror #8
    22f4:	00cc1806 	sbceq	r1, ip, r6, lsl #16
    22f8:	91020000 	mrsls	r0, (UNDEF: 2)
    22fc:	62100f70 	andsvs	r0, r0, #112, 30	; 0x1c0
    2300:	01006675 	tsteq	r0, r5, ror r6
    2304:	01831108 	orreq	r1, r3, r8, lsl #2
    2308:	03050000 	movweq	r0, #20480	; 0x5000
    230c:	0000af4c 	andeq	sl, r0, ip, asr #30
    2310:	00068111 	andeq	r8, r6, r1, lsl r1
    2314:	0d090100 	stfeqs	f0, [r9, #-0]
    2318:	0000004a 	andeq	r0, r0, sl, asr #32
    231c:	125c9102 	subsne	r9, ip, #-2147483648	; 0x80000000
    2320:	01007a73 	tsteq	r0, r3, ror sl
    2324:	00560d0c 	subseq	r0, r6, ip, lsl #26
    2328:	0e510000 	cdpeq	0, 5, cr0, cr1, cr0, {0}
    232c:	0e4b0000 	cdpeq	0, 4, cr0, cr11, cr0, {0}
    2330:	b8130000 	ldmdalt	r3, {}	; <UNPREDICTABLE>
    2334:	94000090 	strls	r0, [r0], #-144	; 0xffffff70
    2338:	76000001 	strvc	r0, [r0], -r1
    233c:	14000001 	strne	r0, [r0], #-1
    2340:	75025001 	strvc	r5, [r2, #-1]
    2344:	51011400 	tstpl	r1, r0, lsl #8
    2348:	04000a03 	streq	r0, [r0], #-2563	; 0xfffff5fd
    234c:	03520114 	cmpeq	r2, #5
    2350:	14064891 	strne	r4, [r6], #-2193	; 0xfffff76f
    2354:	91025301 	tstls	r2, r1, lsl #6
    2358:	cc15004c 	ldcgt	0, cr0, [r5], {76}	; 0x4c
    235c:	14000090 	strne	r0, [r0], #-144	; 0xffffff70
    2360:	75025001 	strvc	r5, [r2, #-1]
    2364:	16000000 	strne	r0, [r0], -r0
    2368:	000000d2 	ldrdeq	r0, [r0], -r2
    236c:	00000194 	muleq	r0, r4, r1
    2370:	00005d17 	andeq	r5, r0, r7, lsl sp
    2374:	0003ff00 	andeq	pc, r3, r0, lsl #30
    2378:	00068618 	andeq	r8, r6, r8, lsl r6
    237c:	00068600 	andeq	r8, r6, r0, lsl #12
    2380:	05020500 	streq	r0, [r2, #-1280]	; 0xfffffb00
    2384:	0000f300 	andeq	pc, r0, r0, lsl #6
    2388:	d7000400 	strle	r0, [r0, -r0, lsl #8]
    238c:	0400000c 	streq	r0, [r0], #-12
    2390:	00056101 	andeq	r6, r5, r1, lsl #2
    2394:	06cc0c00 	strbeq	r0, [ip], r0, lsl #24
    2398:	06270000 	strteq	r0, [r7], -r0
    239c:	90e80000 	rscls	r0, r8, r0
    23a0:	00380000 	eorseq	r0, r8, r0
    23a4:	110d0000 	mrsne	r0, (UNDEF: 13)
    23a8:	04020000 	streq	r0, [r2], #-0
    23ac:	746e6905 	strbtvc	r6, [lr], #-2309	; 0xfffff6fb
    23b0:	07040300 	streq	r0, [r4, -r0, lsl #6]
    23b4:	000001e2 	andeq	r0, r0, r2, ror #3
    23b8:	58060103 	stmdapl	r6, {r0, r1, r8}
    23bc:	03000000 	movweq	r0, #0
    23c0:	02220502 	eoreq	r0, r2, #8388608	; 0x800000
    23c4:	04030000 	streq	r0, [r3], #-0
    23c8:	00020605 	andeq	r0, r2, r5, lsl #12
    23cc:	05080300 	streq	r0, [r8, #-768]	; 0xfffffd00
    23d0:	00000201 	andeq	r0, r0, r1, lsl #4
    23d4:	56080103 	strpl	r0, [r8], -r3, lsl #2
    23d8:	03000000 	movweq	r0, #0
    23dc:	00710702 	rsbseq	r0, r1, r2, lsl #14
    23e0:	04030000 	streq	r0, [r3], #-0
    23e4:	0001dd07 	andeq	sp, r1, r7, lsl #26
    23e8:	07080300 	streq	r0, [r8, -r0, lsl #6]
    23ec:	000001d8 	ldrdeq	r0, [r0], -r8
    23f0:	00002504 	andeq	r2, r0, r4, lsl #10
    23f4:	00007a00 	andeq	r7, r0, r0, lsl #20
    23f8:	00250500 	eoreq	r0, r5, r0, lsl #10
    23fc:	06000000 	streq	r0, [r0], -r0
    2400:	0000020f 	andeq	r0, r0, pc, lsl #4
    2404:	860e1c02 	strhi	r1, [lr], -r2, lsl #24
    2408:	07000000 	streq	r0, [r0, -r0]
    240c:	00006b04 	andeq	r6, r0, r4, lsl #22
    2410:	00250400 	eoreq	r0, r5, r0, lsl #8
    2414:	009b0000 	addseq	r0, fp, r0
    2418:	9b050000 	blls	142420 <__bss_end__+0x1370c8>
    241c:	00000000 	andeq	r0, r0, r0
    2420:	00a80407 	adceq	r0, r8, r7, lsl #8
    2424:	01030000 	mrseq	r0, (UNDEF: 3)
    2428:	00005f08 	andeq	r5, r0, r8, lsl #30
    242c:	00a10800 	adceq	r0, r1, r0, lsl #16
    2430:	c7060000 	strgt	r0, [r6, -r0]
    2434:	02000006 	andeq	r0, r0, #6, 0
    2438:	00b90e21 	adcseq	r0, r9, r1, lsr #28
    243c:	04070000 	streq	r0, [r7], #-0
    2440:	0000008c 	andeq	r0, r0, ip, lsl #1
    2444:	0000ad09 	andeq	sl, r0, r9, lsl #26
    2448:	070c0100 	streq	r0, [ip, -r0, lsl #2]
    244c:	af140305 	svcge	0x00140305
    2450:	be0a0000 	cdplt	0, 0, cr0, cr10, cr0, {0}
    2454:	01000006 	tsteq	r0, r6
    2458:	00250504 	eoreq	r0, r5, r4, lsl #10
    245c:	90e80000 	rscls	r0, r8, r0
    2460:	00380000 	eorseq	r0, r8, r0
    2464:	9c010000 	stcls	0, cr0, [r1], {-0}
    2468:	0100700b 	tsteq	r0, fp
    246c:	009b1f04 	addseq	r1, fp, r4, lsl #30
    2470:	0e820000 	cdpeq	0, 8, cr0, cr2, cr0, {0}
    2474:	0e7a0000 	cdpeq	0, 7, cr0, cr10, cr0, {0}
    2478:	00000000 	andeq	r0, r0, r0
    247c:	00000c7f 	andeq	r0, r0, pc, ror ip
    2480:	0d750004 	ldcleq	0, cr0, [r5, #-16]!
    2484:	01040000 	mrseq	r0, (UNDEF: 4)
    2488:	00000561 	andeq	r0, r0, r1, ror #10
    248c:	0006eb0c 	andeq	lr, r6, ip, lsl #22
    2490:	00062700 	andeq	r2, r6, r0, lsl #14
    2494:	00912000 	addseq	r2, r1, r0
    2498:	0009b400 	andeq	fp, r9, r0, lsl #8
    249c:	0011b100 	andseq	fp, r1, r0, lsl #2
    24a0:	07080200 	streq	r0, [r8, -r0, lsl #4]
    24a4:	000001d8 	ldrdeq	r0, [r0], -r8
    24a8:	e2070402 	and	r0, r7, #33554432	; 0x2000000
    24ac:	03000001 	movweq	r0, #1
    24b0:	6e690504 	cdpvs	5, 6, cr0, cr9, cr4, {0}
    24b4:	01020074 	tsteq	r2, r4, ror r0
    24b8:	00005806 	andeq	r5, r0, r6, lsl #16
    24bc:	05020200 	streq	r0, [r2, #-512]	; 0xfffffe00
    24c0:	00000222 	andeq	r0, r0, r2, lsr #4
    24c4:	06050402 	streq	r0, [r5], -r2, lsl #8
    24c8:	02000002 	andeq	r0, r0, #2, 0
    24cc:	02010508 	andeq	r0, r1, #8, 10	; 0x2000000
    24d0:	01020000 	mrseq	r0, (UNDEF: 2)
    24d4:	00005608 	andeq	r5, r0, r8, lsl #12
    24d8:	07020200 	streq	r0, [r2, -r0, lsl #4]
    24dc:	00000071 	andeq	r0, r0, r1, ror r0
    24e0:	00026704 	andeq	r6, r2, r4, lsl #14
    24e4:	19340200 	ldmdbne	r4!, {r9}
    24e8:	00000070 	andeq	r0, r0, r0, ror r0
    24ec:	dd070402 	cfstrsle	mvf0, [r7, #-8]
    24f0:	04000001 	streq	r0, [r0], #-1
    24f4:	000006e2 	andeq	r0, r0, r2, ror #13
    24f8:	25193702 	ldrcs	r3, [r9, #-1794]	; 0xfffff8fe
    24fc:	05000000 	streq	r0, [r0, #-0]
    2500:	00000033 	andeq	r0, r0, r3, lsr r0
    2504:	00000092 	muleq	r0, r2, r0
    2508:	00003306 	andeq	r3, r0, r6, lsl #6
    250c:	0f070000 	svceq	0x00070000
    2510:	03000002 	movweq	r0, #2
    2514:	009e0e1c 	addseq	r0, lr, ip, lsl lr
    2518:	04080000 	streq	r0, [r8], #-0
    251c:	00000083 	andeq	r0, r0, r3, lsl #1
    2520:	00003305 	andeq	r3, r0, r5, lsl #6
    2524:	0000b300 	andeq	fp, r0, r0, lsl #6
    2528:	00b30600 	adcseq	r0, r3, r0, lsl #12
    252c:	08000000 	stmdaeq	r0, {}	; <UNPREDICTABLE>
    2530:	0000c004 	andeq	ip, r0, r4
    2534:	08010200 	stmdaeq	r1, {r9}
    2538:	0000005f 	andeq	r0, r0, pc, asr r0
    253c:	0000b909 	andeq	fp, r0, r9, lsl #18
    2540:	06c70700 	strbeq	r0, [r7], r0, lsl #14
    2544:	21030000 	mrscs	r0, (UNDEF: 3)
    2548:	0000d10e 	andeq	sp, r0, lr, lsl #2
    254c:	a4040800 	strge	r0, [r4], #-2048	; 0xfffff800
    2550:	07000000 	streq	r0, [r0, -r0]
    2554:	000006fe 	strdeq	r0, [r0], -lr
    2558:	b90d0b04 	stmdblt	sp, {r2, r8, r9, fp}
    255c:	07000000 	streq	r0, [r0, -r0]
    2560:	00000748 	andeq	r0, r0, r8, asr #14
    2564:	b90d0c04 	stmdblt	sp, {r2, sl, fp}
    2568:	07000000 	streq	r0, [r0, -r0]
    256c:	00000400 	andeq	r0, r0, r0, lsl #8
    2570:	b90d0d04 	stmdblt	sp, {r2, r8, sl, fp}
    2574:	07000000 	streq	r0, [r0, -r0]
    2578:	000004d2 	ldrdeq	r0, [r0], -r2
    257c:	b90d0e04 	stmdblt	sp, {r2, r9, sl, fp}
    2580:	07000000 	streq	r0, [r0, -r0]
    2584:	0000051f 	andeq	r0, r0, pc, lsl r5
    2588:	b90d0f04 	stmdblt	sp, {r2, r8, r9, sl, fp}
    258c:	07000000 	streq	r0, [r0, -r0]
    2590:	0000045e 	andeq	r0, r0, lr, asr r4
    2594:	b90d1004 	stmdblt	sp, {r2, ip}
    2598:	07000000 	streq	r0, [r0, -r0]
    259c:	00000771 	andeq	r0, r0, r1, ror r7
    25a0:	b90d1104 	stmdblt	sp, {r2, r8, ip}
    25a4:	07000000 	streq	r0, [r0, -r0]
    25a8:	00000303 	andeq	r0, r0, r3, lsl #6
    25ac:	b90d1204 	stmdblt	sp, {r2, r9, ip}
    25b0:	04000000 	streq	r0, [r0], #-0
    25b4:	00000690 	muleq	r0, r0, r6
    25b8:	431b2805 	tstmi	fp, #327680	; 0x50000
    25bc:	0a000001 	beq	25c8 <__code_start__-0x5a38>
    25c0:	000006b4 			; <UNDEFINED> instruction: 0x000006b4
    25c4:	5a000604 	bpl	3ddc <__code_start__-0x4224>
    25c8:	0b000001 	bleq	25d4 <__code_start__-0x5a2c>
    25cc:	0000069f 	muleq	r0, pc, r6	; <UNPREDICTABLE>
    25d0:	0000015a 	andeq	r0, r0, sl, asr r1
    25d4:	040c0000 	streq	r0, [ip], #-0
    25d8:	0006b604 	andeq	fp, r6, r4, lsl #12
    25dc:	18630500 	stmdane	r3!, {r8, sl}^
    25e0:	00000137 	andeq	r0, r0, r7, lsr r1
    25e4:	0006860d 	andeq	r8, r6, sp, lsl #12
    25e8:	05810100 	streq	r0, [r1, #256]	; 0x100
    25ec:	00000033 	andeq	r0, r0, r3, lsr r0
    25f0:	000094a8 	andeq	r9, r0, r8, lsr #9
    25f4:	0000062c 	andeq	r0, r0, ip, lsr #12
    25f8:	086a9c01 	stmdaeq	sl!, {r0, sl, fp, ip, pc}^
    25fc:	620e0000 	andvs	r0, lr, #0, 0
    2600:	01006675 	tsteq	r0, r5, ror r6
    2604:	086a1581 	stmdaeq	sl!, {r0, r7, r8, sl, ip}^
    2608:	0ec20000 	cdpeq	0, 12, cr0, cr2, cr0, {0}
    260c:	0eb80000 	cdpeq	0, 11, cr0, cr8, cr0, {0}
    2610:	6e0e0000 	cdpvs	0, 0, cr0, cr14, cr0, {0}
    2614:	1e810100 	rmfnes	f0, f1, f0
    2618:	00000033 	andeq	r0, r0, r3, lsr r0
    261c:	00000f0f 	andeq	r0, r0, pc, lsl #30
    2620:	00000f07 	andeq	r0, r0, r7, lsl #30
    2624:	746d660e 	strbtvc	r6, [sp], #-1550	; 0xfffff9f2
    2628:	2d810100 	stfcss	f0, [r1]
    262c:	000000b3 	strheq	r0, [r0], -r3
    2630:	00000f61 	andeq	r0, r0, r1, ror #30
    2634:	00000f49 	andeq	r0, r0, r9, asr #30
    2638:	0006810f 	andeq	r8, r6, pc, lsl #2
    263c:	3a810100 	bcc	fe042a44 <__bss_end__+0xfe0376ec>
    2640:	0000015c 	andeq	r0, r0, ip, asr r1
    2644:	00001023 	andeq	r1, r0, r3, lsr #32
    2648:	00000ff5 	strdeq	r0, [r0], -r5
    264c:	01007010 	tsteq	r0, r0, lsl r0
    2650:	086a0882 	stmdaeq	sl!, {r1, r7, fp}^
    2654:	11760000 	cmnne	r6, r0
    2658:	11600000 	cmnne	r0, r0
    265c:	65100000 	ldrvs	r0, [r0, #-0]
    2660:	12820100 	addne	r0, r2, #0
    2664:	0000086a 	andeq	r0, r0, sl, ror #16
    2668:	000011ff 	strdeq	r1, [r0], -pc	; <UNPREDICTABLE>
    266c:	000011fd 	strdeq	r1, [r0], -sp
    2670:	00307810 	eorseq	r7, r0, r0, lsl r8
    2674:	640e8301 	strvs	r8, [lr], #-769	; 0xfffffcff
    2678:	18000000 	stmdane	r0, {}	; <UNPREDICTABLE>
    267c:	12000012 	andne	r0, r0, #18, 0
    2680:	10000012 	andne	r0, r0, r2, lsl r0
    2684:	01003178 	tsteq	r0, r8, ror r1
    2688:	00641183 	rsbeq	r1, r4, r3, lsl #3
    268c:	12470000 	subne	r0, r7, #0, 0
    2690:	12410000 	subne	r0, r1, #0, 0
    2694:	2a110000 	bcs	44269c <__bss_end__+0x437344>
    2698:	01000007 	tsteq	r0, r7
    269c:	00b31186 	adcseq	r1, r3, r6, lsl #3
    26a0:	12780000 	rsbsne	r0, r8, #0, 0
    26a4:	12700000 	rsbsne	r0, r0, #0, 0
    26a8:	bb120000 	bllt	4826b0 <__bss_end__+0x477358>
    26ac:	80000001 	andhi	r0, r0, r1
    26b0:	05000008 	streq	r0, [r0, #-8]
    26b4:	00ace403 	adceq	lr, ip, r3, lsl #8
    26b8:	01c01300 	biceq	r1, r0, r0, lsl #6
    26bc:	73100000 	tstvc	r0, #0, 0
    26c0:	0a910100 	beq	fe442ac8 <__bss_end__+0xfe437770>
    26c4:	0000086a 	andeq	r0, r0, sl, ror #16
    26c8:	000012be 			; <UNDEFINED> instruction: 0x000012be
    26cc:	000012b2 			; <UNDEFINED> instruction: 0x000012b2
    26d0:	6d756e14 	ldclvs	14, cr6, [r5, #-80]!	; 0xffffffb0
    26d4:	0d910100 	ldfeqs	f0, [r1]
    26d8:	00000885 	andeq	r0, r0, r5, lsl #17
    26dc:	7dd89103 	ldfvcp	f1, [r8, #12]
    26e0:	00077e15 	andeq	r7, r7, r5, lsl lr
    26e4:	17910100 	ldrne	r0, [r1, r0, lsl #2]
    26e8:	00000885 	andeq	r0, r0, r5, lsl #17
    26ec:	7ed89103 	atnvce	f1, f3
    26f0:	00070d11 	andeq	r0, r7, r1, lsl sp
    26f4:	0d920100 	ldfeqs	f0, [r2]
    26f8:	0000002c 	andeq	r0, r0, ip, lsr #32
    26fc:	00001310 	andeq	r1, r0, r0, lsl r3
    2700:	00001308 	andeq	r1, r0, r8, lsl #6
    2704:	0001e816 	andeq	lr, r1, r6, lsl r8
    2708:	0004f100 	andeq	pc, r4, r0, lsl #2
    270c:	79741000 	ldmdbvc	r4!, {ip}^
    2710:	1d9e0100 	ldfnes	f0, [lr]
    2714:	000000b3 	strheq	r0, [r0], -r3
    2718:	00001351 	andeq	r1, r0, r1, asr r3
    271c:	00001345 	andeq	r1, r0, r5, asr #6
    2720:	00787814 	rsbseq	r7, r8, r4, lsl r8
    2724:	771aa201 	ldrvc	sl, [sl, -r1, lsl #4]
    2728:	06000000 	streq	r0, [r0], -r0
    272c:	5b049359 	blpl	127498 <__bss_end__+0x11c140>
    2730:	34170493 	ldrcc	r0, [r7], #-1171	; 0xfffffb6d
    2734:	3a000096 	bcc	2994 <__code_start__-0x566c>
    2738:	d800000c 	stmdale	r0, {r2, r3}
    273c:	18000002 	stmdane	r0, {r1}
    2740:	76025001 	strvc	r5, [r2], -r1
    2744:	51011800 	tstpl	r1, r0, lsl #16
    2748:	abd80305 	blge	ff603364 <__bss_end__+0xff5f800c>
    274c:	01180000 	tsteq	r8, r0
    2750:	00330152 	eorseq	r0, r3, r2, asr r1
    2754:	00964c17 	addseq	r4, r6, r7, lsl ip
    2758:	000c3a00 	andeq	r3, ip, r0, lsl #20
    275c:	0002fa00 	andeq	pc, r2, r0, lsl #20
    2760:	50011800 	andpl	r1, r1, r0, lsl #16
    2764:	18007602 	stmdane	r0, {r1, r9, sl, ip, sp, lr}
    2768:	03055101 	movweq	r5, #20737	; 0x5101
    276c:	0000abec 	andeq	sl, r0, ip, ror #23
    2770:	01520118 	cmpeq	r2, r8, lsl r1
    2774:	70170033 	andsvc	r0, r7, r3, lsr r0
    2778:	46000096 			; <UNDEFINED> instruction: 0x46000096
    277c:	1700000c 	strne	r0, [r0, -ip]
    2780:	18000003 	stmdane	r0, {r0, r1}
    2784:	03055001 	movweq	r5, #20481	; 0x5001
    2788:	0000abdc 	ldrdeq	sl, [r0], -ip
    278c:	02510118 	subseq	r0, r1, #6
    2790:	1700007b 	smlsdxne	r0, fp, r0, r0
    2794:	0000967c 	andeq	r9, r0, ip, ror r6
    2798:	00000c46 	andeq	r0, r0, r6, asr #24
    279c:	00000334 	andeq	r0, r0, r4, lsr r3
    27a0:	05500118 	ldrbeq	r0, [r0, #-280]	; 0xfffffee8
    27a4:	00abe403 	adceq	lr, fp, r3, lsl #8
    27a8:	51011800 	tstpl	r1, r0, lsl #16
    27ac:	00007902 	andeq	r7, r0, r2, lsl #18
    27b0:	00968c17 	addseq	r8, r6, r7, lsl ip
    27b4:	000c3a00 	andeq	r3, ip, r0, lsl #20
    27b8:	00035600 	andeq	r5, r3, r0, lsl #12
    27bc:	50011800 	andpl	r1, r1, r0, lsl #16
    27c0:	18007602 	stmdane	r0, {r1, r9, sl, ip, sp, lr}
    27c4:	03055101 	movweq	r5, #20737	; 0x5101
    27c8:	0000abd8 	ldrdeq	sl, [r0], -r8
    27cc:	01520118 	cmpeq	r2, r8, lsl r1
    27d0:	bc170033 	ldclt	0, cr0, [r7], {51}	; 0x33
    27d4:	a4000096 	strge	r0, [r0], #-150	; 0xffffff6a
    27d8:	8300000a 	movwhi	r0, #10
    27dc:	18000003 	stmdane	r0, {r0, r1}
    27e0:	40015001 	andmi	r5, r1, r1
    27e4:	03510118 	cmpeq	r1, #6
    27e8:	187dd091 	ldmdane	sp!, {r0, r4, r7, ip, lr, pc}^
    27ec:	7b025201 	blvc	96ff8 <__bss_end__+0x8bca0>
    27f0:	53011800 	movwpl	r1, #6144	; 0x1800
    27f4:	18007502 	stmdane	r0, {r1, r8, sl, ip, sp, lr}
    27f8:	02007d02 	andeq	r7, r0, #128	; 0x80
    27fc:	17000076 	smlsdxne	r0, r6, r0, r0
    2800:	000096dc 	ldrdeq	r9, [r0], -ip
    2804:	00000aa4 	andeq	r0, r0, r4, lsr #21
    2808:	000003aa 	andeq	r0, r0, sl, lsr #7
    280c:	01500118 	cmpeq	r0, r8, lsl r1
    2810:	51011840 	tstpl	r1, r0, asr #16
    2814:	7ed09103 	atnvcs	f1, f3
    2818:	02520118 	subseq	r0, r2, #6
    281c:	02180079 	andseq	r0, r8, #121, 0	; 0x79
    2820:	7602007d 			; <UNDEFINED> instruction: 0x7602007d
    2824:	ec170000 	ldc	0, cr0, [r7], {-0}
    2828:	52000096 	andpl	r0, r0, #150, 0	; 0x96
    282c:	c600000c 	strgt	r0, [r0], -ip
    2830:	18000003 	stmdane	r0, {r0, r1}
    2834:	91035001 	tstls	r3, r1
    2838:	01187dd0 			; <UNDEFINED> instruction: 0x01187dd0
    283c:	d2910351 	addsle	r0, r1, #1140850689	; 0x44000001
    2840:	3017007e 	andscc	r0, r7, lr, ror r0
    2844:	3a000099 	bcc	2ab0 <__code_start__-0x5550>
    2848:	e800000c 	stmda	r0, {r2, r3}
    284c:	18000003 	stmdane	r0, {r0, r1}
    2850:	76025001 	strvc	r5, [r2], -r1
    2854:	51011800 	tstpl	r1, r0, lsl #16
    2858:	abec0305 	blge	ffb03474 <__bss_end__+0xffaf811c>
    285c:	01180000 	tsteq	r8, r0
    2860:	00330152 	eorseq	r0, r3, r2, asr r1
    2864:	00995417 	addseq	r5, r9, r7, lsl r4
    2868:	000aa400 	andeq	sl, sl, r0, lsl #8
    286c:	00041500 	andeq	r1, r4, r0, lsl #10
    2870:	50011800 	andpl	r1, r1, r0, lsl #16
    2874:	01183a01 	tsteq	r8, r1, lsl #20
    2878:	d0910351 	addsle	r0, r1, r1, asr r3
    287c:	5201187d 	andpl	r1, r1, #8192000	; 0x7d0000
    2880:	18007b02 	stmdane	r0, {r1, r8, r9, fp, ip, sp, lr}
    2884:	75025301 	strvc	r5, [r2, #-769]	; 0xfffffcff
    2888:	7d021800 	stcvc	8, cr1, [r2, #-0]
    288c:	00760200 	rsbseq	r0, r6, r0, lsl #4
    2890:	99741700 	ldmdbls	r4!, {r8, r9, sl, ip}^
    2894:	0aa40000 	beq	fe90289c <__bss_end__+0xfe8f7544>
    2898:	043c0000 	ldrteq	r0, [ip], #-0
    289c:	01180000 	tsteq	r8, r0
    28a0:	183a0150 	ldmdane	sl!, {r4, r6, r8}
    28a4:	91035101 	tstls	r3, r1, lsl #2
    28a8:	01187ed0 			; <UNDEFINED> instruction: 0x01187ed0
    28ac:	00790252 	rsbseq	r0, r9, r2, asr r2
    28b0:	007d0218 	rsbseq	r0, sp, r8, lsl r2
    28b4:	00007602 	andeq	r7, r0, r2, lsl #12
    28b8:	00998017 	addseq	r8, r9, r7, lsl r0
    28bc:	000c5e00 	andeq	r5, ip, r0, lsl #28
    28c0:	00045a00 	andeq	r5, r4, r0, lsl #20
    28c4:	50011800 	andpl	r1, r1, r0, lsl #16
    28c8:	7dd09103 	ldfvcp	f1, [r0, #12]
    28cc:	05510118 	ldrbeq	r0, [r1, #-280]	; 0xfffffee8
    28d0:	00a9f403 	adceq	pc, r9, r3, lsl #8
    28d4:	94170000 	ldrls	r0, [r7], #-0
    28d8:	6a000099 	bvs	2b44 <__code_start__-0x54bc>
    28dc:	7600000c 	strvc	r0, [r0], -ip
    28e0:	18000004 	stmdane	r0, {r2}
    28e4:	91035001 	tstls	r3, r1
    28e8:	01187dd0 			; <UNDEFINED> instruction: 0x01187dd0
    28ec:	d0910351 	addsle	r0, r1, r1, asr r3
    28f0:	a019007e 	andsge	r0, r9, lr, ror r0
    28f4:	52000099 	andpl	r0, r0, #153, 0	; 0x99
    28f8:	1700000c 	strne	r0, [r0, -ip]
    28fc:	00009a64 	andeq	r9, r0, r4, ror #20
    2900:	00000c46 	andeq	r0, r0, r6, asr #24
    2904:	000004a8 	andeq	r0, r0, r8, lsr #9
    2908:	05500118 	ldrbeq	r0, [r0, #-280]	; 0xfffffee8
    290c:	00a75403 	adceq	r5, r7, r3, lsl #8
    2910:	51011800 	tstpl	r1, r0, lsl #16
    2914:	ab8c0305 	blge	fe303530 <__bss_end__+0xfe2f81d8>
    2918:	01180000 	tsteq	r8, r0
    291c:	e4030552 	str	r0, [r3], #-1362	; 0xfffffaae
    2920:	000000ac 	andeq	r0, r0, ip, lsr #1
    2924:	009a6819 	addseq	r6, sl, r9, lsl r8
    2928:	000c7600 	andeq	r7, ip, r0, lsl #12
    292c:	9a801700 	bls	fe008534 <__bss_end__+0xfdffd1dc>
    2930:	0c460000 	mareq	acc0, r0, r6
    2934:	04e70000 	strbteq	r0, [r7], #0
    2938:	01180000 	tsteq	r8, r0
    293c:	2c030550 	cfstr32cs	mvfx0, [r3], {80}	; 0x50
    2940:	180000ac 	stmdane	r0, {r2, r3, r5, r7}
    2944:	03055101 	movweq	r5, #20737	; 0x5101
    2948:	0000ab8c 	andeq	sl, r0, ip, lsl #23
    294c:	05520118 	ldrbeq	r0, [r2, #-280]	; 0xfffffee8
    2950:	00ace403 	adceq	lr, ip, r3, lsl #8
    2954:	53011800 	movwpl	r1, #6144	; 0x1800
    2958:	18b60802 	ldmne	r6!, {r1, fp}
    295c:	02007d02 	andeq	r7, r0, #128	; 0x80
    2960:	19000076 	stmdbne	r0, {r1, r2, r4, r5, r6}
    2964:	00009a84 	andeq	r9, r0, r4, lsl #21
    2968:	00000c76 	andeq	r0, r0, r6, ror ip
    296c:	09e31a00 	stmibeq	r3!, {r9, fp, ip}^
    2970:	95340000 	ldrls	r0, [r4, #-0]!
    2974:	00040000 	andeq	r0, r4, r0
    2978:	00000210 	andeq	r0, r0, r0, lsl r2
    297c:	150a9401 	strne	r9, [sl, #-1025]	; 0xfffffbff
    2980:	1b000005 	blne	299c <__code_start__-0x5664>
    2984:	000009f4 	strdeq	r0, [r0], -r4
    2988:	000013ad 	andeq	r1, r0, sp, lsr #7
    298c:	000013a9 	andeq	r1, r0, r9, lsr #7
    2990:	08951a00 	ldmeq	r5, {r9, fp, ip}
    2994:	971c0000 	ldrls	r0, [ip, -r0]
    2998:	00010000 	andeq	r0, r1, r0
    299c:	00000230 	andeq	r0, r0, r0, lsr r2
    29a0:	4b09dc01 	blmi	2799ac <__bss_end__+0x26e654>
    29a4:	1b000006 	blne	29c4 <__code_start__-0x563c>
    29a8:	000008be 			; <UNDEFINED> instruction: 0x000008be
    29ac:	000013db 	ldrdeq	r1, [r0], -fp
    29b0:	000013d5 	ldrdeq	r1, [r0], -r5
    29b4:	0008e01b 	andeq	lr, r8, fp, lsl r0
    29b8:	00141000 	andseq	r1, r4, r0
    29bc:	00140a00 	andseq	r0, r4, r0, lsl #20
    29c0:	08d41b00 	ldmeq	r4, {r8, r9, fp, ip}^
    29c4:	14420000 	strbne	r0, [r2], #-0
    29c8:	143c0000 	ldrtne	r0, [ip], #-0
    29cc:	c81c0000 	ldmdagt	ip, {}	; <UNPREDICTABLE>
    29d0:	1b000008 	blne	29f8 <__code_start__-0x5608>
    29d4:	000008b2 			; <UNDEFINED> instruction: 0x000008b2
    29d8:	00001473 	andeq	r1, r0, r3, ror r4
    29dc:	0000146b 	andeq	r1, r0, fp, ror #8
    29e0:	0008a61b 	andeq	sl, r8, fp, lsl r6
    29e4:	0014b600 	andseq	fp, r4, r0, lsl #12
    29e8:	0014b000 	andseq	fp, r4, r0
    29ec:	02301300 	eorseq	r1, r0, #0, 6
    29f0:	ec1d0000 	ldc	0, cr0, [sp], {-0}
    29f4:	03000008 	movweq	r0, #8
    29f8:	1e7ed891 	mrcne	8, 3, sp, cr14, cr1, {4}
    29fc:	000008f8 	strdeq	r0, [r0], -r8
    2a00:	000014f0 	strdeq	r1, [r0], -r0
    2a04:	000014e2 	andeq	r1, r0, r2, ror #9
    2a08:	0009021f 	andeq	r0, r9, pc, lsl r2
    2a0c:	09a31a00 	stmibeq	r3!, {r9, fp, ip}
    2a10:	97280000 	strls	r0, [r8, -r0]!
    2a14:	00040000 	andeq	r0, r4, r0
    2a18:	00000260 	andeq	r0, r0, r0, ror #4
    2a1c:	e2097c01 	and	r7, r9, #256	; 0x100
    2a20:	1b000005 	blne	2a3c <__code_start__-0x55c4>
    2a24:	000009ca 	andeq	r0, r0, sl, asr #19
    2a28:	0000155a 	andeq	r1, r0, sl, asr r5
    2a2c:	00001554 	andeq	r1, r0, r4, asr r5
    2a30:	0009be1b 	andeq	fp, r9, fp, lsl lr
    2a34:	00158f00 	andseq	r8, r5, r0, lsl #30
    2a38:	00158300 	andseq	r8, r5, r0, lsl #6
    2a3c:	09b41b00 	ldmibeq	r4!, {r8, r9, fp, ip}
    2a40:	15f50000 	ldrbne	r0, [r5, #0]!
    2a44:	15e50000 	strbne	r0, [r5, #0]!
    2a48:	60130000 	andsvs	r0, r3, r0
    2a4c:	1e000002 	cdpne	0, 0, cr0, cr0, cr2, {0}
    2a50:	000009d6 	ldrdeq	r0, [r0], -r6
    2a54:	00001672 	andeq	r1, r0, r2, ror r6
    2a58:	00001664 	andeq	r1, r0, r4, ror #12
    2a5c:	4f200000 	svcmi	0x00200000
    2a60:	f0000009 			; <UNDEFINED> instruction: 0xf0000009
    2a64:	02000097 	andeq	r0, r0, #151, 0	; 0x97
    2a68:	00029000 	andeq	r9, r2, r0
    2a6c:	097c0100 	ldmdbeq	ip!, {r8}^
    2a70:	0009801b 	andeq	r8, r9, fp, lsl r0
    2a74:	0016d200 	andseq	sp, r6, r0, lsl #4
    2a78:	0016cc00 	andseq	ip, r6, r0, lsl #24
    2a7c:	09761b00 	ldmdbeq	r6!, {r8, r9, fp, ip}^
    2a80:	17080000 	strne	r0, [r8, -r0]
    2a84:	16fe0000 	ldrbtne	r0, [lr], r0
    2a88:	6c1b0000 	ldcvs	0, cr0, [fp], {-0}
    2a8c:	57000009 	strpl	r0, [r0, -r9]
    2a90:	53000017 	movwpl	r0, #23
    2a94:	1b000017 	blne	2af8 <__code_start__-0x5508>
    2a98:	00000960 	andeq	r0, r0, r0, ror #18
    2a9c:	00001787 	andeq	r1, r0, r7, lsl #15
    2aa0:	00001779 	andeq	r1, r0, r9, ror r7
    2aa4:	00029013 	andeq	r9, r2, r3, lsl r0
    2aa8:	098c1e00 	stmibeq	ip, {r9, sl, fp, ip}
    2aac:	17ec0000 	strbne	r0, [ip, r0]!
    2ab0:	17ea0000 	strbne	r0, [sl, r0]!
    2ab4:	981e0000 	ldmdals	lr, {}	; <UNPREDICTABLE>
    2ab8:	06000009 	streq	r0, [r0], -r9
    2abc:	00000018 	andeq	r0, r0, r8, lsl r0
    2ac0:	00000018 	andeq	r0, r0, r8, lsl r0
    2ac4:	1a000000 	bne	2acc <__code_start__-0x5534>
    2ac8:	00000895 	muleq	r0, r5, r8
    2acc:	0000982c 	andeq	r9, r0, ip, lsr #16
    2ad0:	02c00000 	sbceq	r0, r0, #0, 0
    2ad4:	d6010000 	strle	r0, [r1], -r0
    2ad8:	00078909 	andeq	r8, r7, r9, lsl #18
    2adc:	08be1b00 	ldmeq	lr!, {r8, r9, fp, ip}
    2ae0:	18390000 	ldmdane	r9!, {}	; <UNPREDICTABLE>
    2ae4:	18350000 	ldmdane	r5!, {}	; <UNPREDICTABLE>
    2ae8:	e01b0000 	ands	r0, fp, r0
    2aec:	5f000008 	svcpl	0x00000008
    2af0:	5b000018 	blpl	2b58 <__code_start__-0x54a8>
    2af4:	1b000018 	blne	2b5c <__code_start__-0x54a4>
    2af8:	000008d4 	ldrdeq	r0, [r0], -r4
    2afc:	00001883 	andeq	r1, r0, r3, lsl #17
    2b00:	0000187f 	andeq	r1, r0, pc, ror r8
    2b04:	0008c81c 	andeq	ip, r8, ip, lsl r8
    2b08:	08b21b00 	ldmeq	r2!, {r8, r9, fp, ip}
    2b0c:	18a70000 	stmiane	r7!, {}	; <UNPREDICTABLE>
    2b10:	18a10000 	stmiane	r1!, {}	; <UNPREDICTABLE>
    2b14:	a61b0000 	ldrge	r0, [fp], -r0
    2b18:	da000008 	ble	2b40 <__code_start__-0x54c0>
    2b1c:	d6000018 			; <UNDEFINED> instruction: 0xd6000018
    2b20:	13000018 	movwne	r0, #24
    2b24:	000002c0 	andeq	r0, r0, r0, asr #5
    2b28:	0008ec1d 	andeq	lr, r8, sp, lsl ip
    2b2c:	d8910300 	ldmle	r1, {r8, r9}
    2b30:	08f81e7e 	ldmeq	r8!, {r1, r2, r3, r4, r5, r6, r9, sl, fp, ip}^
    2b34:	19040000 	stmdbne	r4, {}	; <UNPREDICTABLE>
    2b38:	18fa0000 	ldmne	sl!, {}^	; <UNPREDICTABLE>
    2b3c:	021e0000 	andseq	r0, lr, #0, 0
    2b40:	49000009 	stmdbmi	r0, {r0, r3}
    2b44:	45000019 	strmi	r0, [r0, #-25]	; 0xffffffe7
    2b48:	1a000019 	bne	2bb4 <__code_start__-0x544c>
    2b4c:	000009a3 	andeq	r0, r0, r3, lsr #19
    2b50:	00009848 	andeq	r9, r0, r8, asr #16
    2b54:	02e00003 	rsceq	r0, r0, #3, 0
    2b58:	7c010000 	stcvc	0, cr0, [r1], {-0}
    2b5c:	00072009 	andeq	r2, r7, r9
    2b60:	09ca1b00 	stmibeq	sl, {r8, r9, fp, ip}^
    2b64:	196b0000 	stmdbne	fp!, {}^	; <UNPREDICTABLE>
    2b68:	19670000 	stmdbne	r7!, {}^	; <UNPREDICTABLE>
    2b6c:	be1b0000 	cdplt	0, 1, cr0, cr11, cr0, {0}
    2b70:	8d000009 	stchi	0, cr0, [r0, #-36]	; 0xffffffdc
    2b74:	89000019 	stmdbhi	r0, {r0, r3, r4}
    2b78:	1b000019 	blne	2be4 <__code_start__-0x541c>
    2b7c:	000009b4 			; <UNDEFINED> instruction: 0x000009b4
    2b80:	000019b7 			; <UNDEFINED> instruction: 0x000019b7
    2b84:	000019ab 	andeq	r1, r0, fp, lsr #19
    2b88:	0002e013 	andeq	lr, r2, r3, lsl r0
    2b8c:	09d61e00 	ldmibeq	r6, {r9, sl, fp, ip}^
    2b90:	1a130000 	bne	4c2b98 <__bss_end__+0x4b7840>
    2b94:	1a070000 	bne	1c2b9c <__bss_end__+0x1b7844>
    2b98:	00000000 	andeq	r0, r0, r0
    2b9c:	00094f20 	andeq	r4, r9, r0, lsr #30
    2ba0:	0098d000 	addseq	sp, r8, r0
    2ba4:	08000200 	stmdaeq	r0, {r9}
    2ba8:	01000003 	tsteq	r0, r3
    2bac:	801b097c 	andshi	r0, fp, ip, ror r9
    2bb0:	63000009 	movwvs	r0, #9
    2bb4:	5f00001a 	svcpl	0x0000001a
    2bb8:	1b00001a 	blne	2c28 <__code_start__-0x53d8>
    2bbc:	00000976 	andeq	r0, r0, r6, ror r9
    2bc0:	00001a8b 	andeq	r1, r0, fp, lsl #21
    2bc4:	00001a81 	andeq	r1, r0, r1, lsl #21
    2bc8:	00096c1b 	andeq	r6, r9, fp, lsl ip
    2bcc:	001ad700 	andseq	sp, sl, r0, lsl #14
    2bd0:	001ad300 	andseq	sp, sl, r0, lsl #6
    2bd4:	09601b00 	stmdbeq	r0!, {r8, r9, fp, ip}^
    2bd8:	1b050000 	blne	142be0 <__bss_end__+0x137888>
    2bdc:	1af90000 	bne	ffe42be4 <__bss_end__+0xffe3788c>
    2be0:	08130000 	ldmdaeq	r3, {}	; <UNPREDICTABLE>
    2be4:	1e000003 	cdpne	0, 0, cr0, cr0, cr3, {0}
    2be8:	0000098c 	andeq	r0, r0, ip, lsl #19
    2bec:	00001b5f 	andeq	r1, r0, pc, asr fp
    2bf0:	00001b5b 	andeq	r1, r0, fp, asr fp
    2bf4:	0009981e 	andeq	r9, r9, lr, lsl r8
    2bf8:	001b8500 	andseq	r8, fp, r0, lsl #10
    2bfc:	001b8100 	andseq	r8, fp, r0, lsl #2
    2c00:	00000000 	andeq	r0, r0, r0
    2c04:	95fc1700 	ldrbls	r1, [ip, #1792]!	; 0x700
    2c08:	0aa40000 	beq	fe902c10 <__bss_end__+0xfe8f78b8>
    2c0c:	07af0000 	streq	r0, [pc, r0]!
    2c10:	01180000 	tsteq	r8, r0
    2c14:	18400150 	stmdane	r0, {r4, r6, r8}^
    2c18:	91035101 	tstls	r3, r1, lsl #2
    2c1c:	01187dd0 			; <UNDEFINED> instruction: 0x01187dd0
    2c20:	00750253 	rsbseq	r0, r5, r3, asr r2
    2c24:	007d0218 	rsbseq	r0, sp, r8, lsl r2
    2c28:	17003001 	strne	r3, [r0, -r1]
    2c2c:	0000970c 	andeq	r9, r0, ip, lsl #14
    2c30:	00000aa4 	andeq	r0, r0, r4, lsr #21
    2c34:	000007cf 	andeq	r0, r0, pc, asr #15
    2c38:	01500118 	cmpeq	r0, r8, lsl r1
    2c3c:	5101183a 	tstpl	r1, sl, lsr r8
    2c40:	7dd09103 	ldfvcp	f1, [r0, #12]
    2c44:	02530118 	subseq	r0, r3, #6
    2c48:	17000075 	smlsdxne	r0, r5, r0, r0
    2c4c:	000099f0 	strdeq	r9, [r0], -r0
    2c50:	00000c46 	andeq	r0, r0, r6, asr #24
    2c54:	000007e6 	andeq	r0, r0, r6, ror #15
    2c58:	05500118 	ldrbeq	r0, [r0, #-280]	; 0xfffffee8
    2c5c:	00ac7c03 	adceq	r7, ip, r3, lsl #24
    2c60:	00210000 	eoreq	r0, r1, r0
    2c64:	f800009a 			; <UNDEFINED> instruction: 0xf800009a
    2c68:	18000007 	stmdane	r0, {r0, r1, r2}
    2c6c:	91045001 	tstls	r4, r1
    2c70:	00067dc8 	andeq	r7, r6, r8, asr #27
    2c74:	009a1417 	addseq	r1, sl, r7, lsl r4
    2c78:	000c4600 	andeq	r4, ip, r0, lsl #12
    2c7c:	00082700 	andeq	r2, r8, r0, lsl #14
    2c80:	50011800 	andpl	r1, r1, r0, lsl #16
    2c84:	acac0305 	stcge	3, cr0, [ip], #20
    2c88:	01180000 	tsteq	r8, r0
    2c8c:	8c030551 	cfstr32hi	mvfx0, [r3], {81}	; 0x51
    2c90:	180000ab 	stmdane	r0, {r0, r1, r3, r5, r7}
    2c94:	03055201 	movweq	r5, #20993	; 0x5201
    2c98:	0000ace4 	andeq	sl, r0, r4, ror #25
    2c9c:	02530118 	subseq	r0, r3, #6
    2ca0:	1900e208 	stmdbne	r0, {r3, r9, sp, lr, pc}
    2ca4:	00009a18 	andeq	r9, r0, r8, lsl sl
    2ca8:	00000c76 	andeq	r0, r0, r6, ror ip
    2cac:	009a2c17 	addseq	r2, sl, r7, lsl ip
    2cb0:	000c4600 	andeq	r4, ip, r0, lsl #12
    2cb4:	00085f00 	andeq	r5, r8, r0, lsl #30
    2cb8:	50011800 	andpl	r1, r1, r0, lsl #16
    2cbc:	ac540305 	mrrcge	3, 0, r0, r4, cr5
    2cc0:	01180000 	tsteq	r8, r0
    2cc4:	8c030551 	cfstr32hi	mvfx0, [r3], {81}	; 0x51
    2cc8:	180000ab 	stmdane	r0, {r0, r1, r3, r5, r7}
    2ccc:	03055201 	movweq	r5, #20993	; 0x5201
    2cd0:	0000ace4 	andeq	sl, r0, r4, ror #25
    2cd4:	02530118 	subseq	r0, r3, #6
    2cd8:	1900be08 	stmdbne	r0, {r3, r9, sl, fp, ip, sp, pc}
    2cdc:	00009a30 	andeq	r9, r0, r0, lsr sl
    2ce0:	00000c76 	andeq	r0, r0, r6, ror ip
    2ce4:	04080000 	streq	r0, [r8], #-0
    2ce8:	000000b9 	strheq	r0, [r0], -r9
    2cec:	0000c022 	andeq	ip, r0, r2, lsr #32
    2cf0:	00088000 	andeq	r8, r8, r0
    2cf4:	002c2300 	eoreq	r2, ip, r0, lsl #6
    2cf8:	00090000 	andeq	r0, r9, r0
    2cfc:	00087009 	andeq	r7, r8, r9
    2d00:	00b92200 	adcseq	r2, r9, r0, lsl #4
    2d04:	08950000 	ldmeq	r5, {}	; <UNPREDICTABLE>
    2d08:	2c230000 	stccs	0, cr0, [r3], #-0
    2d0c:	7f000000 	svcvc	0x00000000
    2d10:	07552400 	ldrbeq	r2, [r5, -r0, lsl #8]
    2d14:	49010000 	stmdbmi	r1, {}	; <UNPREDICTABLE>
    2d18:	00086a01 	andeq	r6, r8, r1, lsl #20
    2d1c:	092a0100 	stmdbeq	sl!, {r8}
    2d20:	bf250000 	svclt	0x00250000
    2d24:	01000003 	tsteq	r0, r3
    2d28:	002c0f49 	eoreq	r0, ip, r9, asr #30
    2d2c:	64260000 	strtvs	r0, [r6], #-0
    2d30:	01007473 	tsteq	r0, r3, ror r4
    2d34:	086a1b49 	stmdaeq	sl!, {r0, r3, r6, r8, r9, fp, ip}^
    2d38:	6e260000 	cdpvs	0, 2, cr0, cr6, cr0, {0}
    2d3c:	24490100 	strbcs	r0, [r9], #-256	; 0xffffff00
    2d40:	00000033 	andeq	r0, r0, r3, lsr r0
    2d44:	6c617626 	stclvs	6, cr7, [r1], #-152	; 0xffffff68
    2d48:	2b490100 	blcs	1243150 <__bss_end__+0x1237df8>
    2d4c:	00000033 	andeq	r0, r0, r3, lsr r0
    2d50:	00070d25 	andeq	r0, r7, r5, lsr #26
    2d54:	34490100 	strbcc	r0, [r9], #-256	; 0xffffff00
    2d58:	00000033 	andeq	r0, r0, r3, lsr r0
    2d5c:	00078b25 	andeq	r8, r7, r5, lsr #22
    2d60:	3f490100 	svccc	0x00490100
    2d64:	00000033 	andeq	r0, r0, r3, lsr r0
    2d68:	66756227 	ldrbtvs	r6, [r5], -r7, lsr #4
    2d6c:	074e0100 	strbeq	r0, [lr, -r0, lsl #2]
    2d70:	0000092a 	andeq	r0, r0, sl, lsr #18
    2d74:	01007027 	tsteq	r0, r7, lsr #32
    2d78:	086a114e 	stmdaeq	sl!, {r1, r2, r3, r6, r8, ip}^
    2d7c:	75270000 	strvc	r0, [r7, #-0]!
    2d80:	0b4f0100 	bleq	13c3188 <__bss_end__+0x13b7e30>
    2d84:	0000002c 	andeq	r0, r0, ip, lsr #32
    2d88:	0001bb12 	andeq	fp, r1, r2, lsl fp
    2d8c:	00094a00 	andeq	r4, r9, r0, lsl #20
    2d90:	cc030500 	cfstr32gt	mvfx0, [r3], {-0}
    2d94:	280000ac 	stmdacs	r0, {r2, r3, r5, r7}
    2d98:	00074229 	andeq	r4, r7, r9, lsr #4
    2d9c:	0d540100 	ldfeqe	f0, [r4, #-0]
    2da0:	0000002c 	andeq	r0, r0, ip, lsr #32
    2da4:	b9220000 	stmdblt	r2!, {}	; <UNPREDICTABLE>
    2da8:	3a000000 	bcc	2db0 <__code_start__-0x5250>
    2dac:	23000009 	movwcs	r0, #9
    2db0:	0000002c 	andeq	r0, r0, ip, lsr #32
    2db4:	c022003f 	eorgt	r0, r2, pc, lsr r0
    2db8:	4a000000 	bmi	2dc0 <__code_start__-0x5240>
    2dbc:	23000009 	movwcs	r0, #9
    2dc0:	0000002c 	andeq	r0, r0, ip, lsr #32
    2dc4:	3a090004 	bcc	242ddc <__bss_end__+0x237a84>
    2dc8:	24000009 	strcs	r0, [r0], #-9
    2dcc:	0000075a 	andeq	r0, r0, sl, asr r7
    2dd0:	6a0e3801 	bvs	390ddc <__bss_end__+0x385a84>
    2dd4:	01000008 	tsteq	r0, r8
    2dd8:	000009a3 	andeq	r0, r0, r3, lsr #19
    2ddc:	74736426 	ldrbtvc	r6, [r3], #-1062	; 0xfffffbda
    2de0:	1c380100 	ldfnes	f0, [r8], #-0
    2de4:	0000086a 	andeq	r0, r0, sl, ror #16
    2de8:	01006e26 	tsteq	r0, r6, lsr #28
    2dec:	00332538 	eorseq	r2, r3, r8, lsr r5
    2df0:	70260000 	eorvc	r0, r6, r0
    2df4:	2e380100 	rsfcse	f0, f0, f0
    2df8:	0000086a 	andeq	r0, r0, sl, ror #16
    2dfc:	0002d825 	andeq	sp, r2, r5, lsr #16
    2e00:	37380100 	ldrcc	r0, [r8, -r0, lsl #2]!
    2e04:	0000086a 	andeq	r0, r0, sl, ror #16
    2e08:	6e656c27 	cdpvs	12, 6, cr6, cr5, cr7, {1}
    2e0c:	063a0100 	ldrteq	r0, [sl], -r0, lsl #2
    2e10:	00000033 	andeq	r0, r0, r3, lsr r0
    2e14:	01007327 	tsteq	r0, r7, lsr #6
    2e18:	086a083e 	stmdaeq	sl!, {r1, r2, r3, r4, r5, fp}^
    2e1c:	2a000000 	bcs	2e24 <__code_start__-0x51dc>
    2e20:	00646170 	rsbeq	r6, r4, r0, ror r1
    2e24:	6a0e2e01 	bvs	38e630 <__bss_end__+0x3832d8>
    2e28:	01000008 	tsteq	r0, r8
    2e2c:	000009e3 	andeq	r0, r0, r3, ror #19
    2e30:	01007026 	tsteq	r0, r6, lsr #32
    2e34:	086a182e 	stmdaeq	sl!, {r1, r2, r3, r5, fp, ip}^
    2e38:	bf250000 	svclt	0x00250000
    2e3c:	01000003 	tsteq	r0, r3
    2e40:	086a222e 	stmdaeq	sl!, {r1, r2, r3, r5, r9, sp}^
    2e44:	0d250000 	stceq	0, cr0, [r5, #-0]
    2e48:	01000007 	tsteq	r0, r7
    2e4c:	00332c2e 	eorseq	r2, r3, lr, lsr #24
    2e50:	6c270000 	stcvs	0, cr0, [r7], #-0
    2e54:	01006e65 	tsteq	r0, r5, ror #28
    2e58:	0033062f 	eorseq	r0, r3, pc, lsr #12
    2e5c:	24000000 	strcs	r0, [r0], #-0
    2e60:	000006da 	ldrdeq	r0, [r0], -sl
    2e64:	330c2701 	movwcc	r2, #50945	; 0xc701
    2e68:	01000000 	mrseq	r0, (UNDEF: 0)
    2e6c:	000009ff 	strdeq	r0, [r0], -pc	; <UNPREDICTABLE>
    2e70:	01006326 	tsteq	r0, r6, lsr #6
    2e74:	00331827 	eorseq	r1, r3, r7, lsr #16
    2e78:	2b000000 	blcs	2e80 <__code_start__-0x5180>
    2e7c:	0000071b 	andeq	r0, r0, fp, lsl r7
    2e80:	48061f01 	stmdami	r6, {r0, r8, r9, sl, fp, ip}
    2e84:	60000094 	mulvs	r0, r4, r0
    2e88:	01000000 	mrseq	r0, (UNDEF: 0)
    2e8c:	000a8f9c 	muleq	sl, ip, pc	; <UNPREDICTABLE>
    2e90:	07130f00 	ldreq	r0, [r3, -r0, lsl #30]
    2e94:	1f010000 	svcne	0x00010000
    2e98:	00009e1b 	andeq	r9, r0, fp, lsl lr
    2e9c:	001baa00 	andseq	sl, fp, r0, lsl #20
    2ea0:	001ba600 	andseq	sl, fp, r0, lsl #12
    2ea4:	07690f00 	strbeq	r0, [r9, -r0, lsl #30]!
    2ea8:	1f010000 	svcne	0x00010000
    2eac:	0000d130 	andeq	sp, r0, r0, lsr r1
    2eb0:	001bcf00 	andseq	ip, fp, r0, lsl #30
    2eb4:	001bcb00 	andseq	ip, fp, r0, lsl #22
    2eb8:	01bb1200 			; <UNDEFINED> instruction: 0x01bb1200
    2ebc:	0a9f0000 	beq	fe7c2ec4 <__bss_end__+0xfe7b7b6c>
    2ec0:	03050000 	movweq	r0, #20480	; 0x5000
    2ec4:	0000acd4 	ldrdeq	sl, [r0], -r4
    2ec8:	00948c17 	addseq	r8, r4, r7, lsl ip
    2ecc:	000c4600 	andeq	r4, ip, r0, lsl #12
    2ed0:	000a8500 	andeq	r8, sl, r0, lsl #10
    2ed4:	50011800 	andpl	r1, r1, r0, lsl #16
    2ed8:	a7540305 	ldrbge	r0, [r4, -r5, lsl #6]
    2edc:	01180000 	tsteq	r8, r0
    2ee0:	8c030551 	cfstr32hi	mvfx0, [r3], {81}	; 0x51
    2ee4:	180000ab 	stmdane	r0, {r0, r1, r3, r5, r7}
    2ee8:	03055201 	movweq	r5, #20993	; 0x5201
    2eec:	0000acd4 	ldrdeq	sl, [r0], -r4
    2ef0:	02530118 	subseq	r0, r3, #6
    2ef4:	02182008 	andseq	r2, r8, #8, 0
    2ef8:	0305007d 	movweq	r0, #20605	; 0x507d
    2efc:	0000abc4 	andeq	sl, r0, r4, asr #23
    2f00:	94901900 	ldrls	r1, [r0], #2304	; 0x900
    2f04:	0c760000 	ldcleq	0, cr0, [r6], #-0
    2f08:	22000000 	andcs	r0, r0, #0, 0
    2f0c:	000000c0 	andeq	r0, r0, r0, asr #1
    2f10:	00000a9f 	muleq	r0, pc, sl	; <UNPREDICTABLE>
    2f14:	00002c23 	andeq	r2, r0, r3, lsr #24
    2f18:	09000e00 	stmdbeq	r0, {r9, sl, fp}
    2f1c:	00000a8f 	andeq	r0, r0, pc, lsl #21
    2f20:	0008952c 	andeq	r9, r8, ip, lsr #10
    2f24:	00912000 	addseq	r2, r1, r0
    2f28:	00032800 	andeq	r2, r3, r0, lsl #16
    2f2c:	3a9c0100 	bcc	fe703334 <__bss_end__+0xfe6f7fdc>
    2f30:	1b00000c 	blne	2f68 <__code_start__-0x5098>
    2f34:	000008a6 	andeq	r0, r0, r6, lsr #17
    2f38:	00001c08 	andeq	r1, r0, r8, lsl #24
    2f3c:	00001bf0 	strdeq	r1, [r0], -r0
    2f40:	0008b21b 	andeq	fp, r8, fp, lsl r2
    2f44:	001cb200 	andseq	fp, ip, r0, lsl #4
    2f48:	001caa00 	andseq	sl, ip, r0, lsl #20
    2f4c:	08c81b00 	stmiaeq	r8, {r8, r9, fp, ip}^
    2f50:	1d090000 	stcne	0, cr0, [r9, #-0]
    2f54:	1ce90000 	stclne	0, cr0, [r9]
    2f58:	d41b0000 	ldrle	r0, [fp], #-0
    2f5c:	df000008 	svcle	0x00000008
    2f60:	d100001d 	tstle	r0, sp, lsl r0
    2f64:	2d00001d 	stccs	0, cr0, [r0, #-116]	; 0xffffff8c
    2f68:	000008e0 	andeq	r0, r0, r0, ror #17
    2f6c:	1d009102 	stfned	f1, [r0, #-8]
    2f70:	000008ec 	andeq	r0, r0, ip, ror #17
    2f74:	7fa89103 	svcvc	0x00a89103
    2f78:	0008f81e 	andeq	pc, r8, lr, lsl r8	; <UNPREDICTABLE>
    2f7c:	001e7300 	andseq	r7, lr, r0, lsl #6
    2f80:	001e3f00 	andseq	r3, lr, r0, lsl #30
    2f84:	09021e00 	stmdbeq	r2, {r9, sl, fp, ip}
    2f88:	1fda0000 	svcne	0x00da0000
    2f8c:	1fb80000 	svcne	0x00b80000
    2f90:	be2e0000 	cdplt	0, 2, cr0, cr14, cr0, {0}
    2f94:	80000008 	andhi	r0, r0, r8
    2f98:	0009a31a 	andeq	sl, r9, sl, lsl r3
    2f9c:	0091c400 	addseq	ip, r1, r0, lsl #8
    2fa0:	58000400 	stmdapl	r0, {sl}
    2fa4:	01000001 	tsteq	r0, r1
    2fa8:	0b6d097c 	bleq	1b455a0 <__bss_end__+0x1b3a248>
    2fac:	ca1b0000 	bgt	6c2fb4 <__bss_end__+0x6b7c5c>
    2fb0:	c2000009 	andgt	r0, r0, #9, 0
    2fb4:	b8000020 	stmdalt	r0, {r5}
    2fb8:	1b000020 	blne	3040 <__code_start__-0x4fc0>
    2fbc:	000009be 			; <UNDEFINED> instruction: 0x000009be
    2fc0:	00002116 	andeq	r2, r0, r6, lsl r1
    2fc4:	00002106 	andeq	r2, r0, r6, lsl #2
    2fc8:	0009b41b 	andeq	fp, r9, fp, lsl r4
    2fcc:	00219600 	eoreq	r9, r1, r0, lsl #12
    2fd0:	00218200 	eoreq	r8, r1, r0, lsl #4
    2fd4:	01581300 	cmpeq	r8, r0, lsl #6
    2fd8:	d61e0000 	ldrle	r0, [lr], -r0
    2fdc:	28000009 	stmdacs	r0, {r0, r3}
    2fe0:	18000022 	stmdane	r0, {r1, r5}
    2fe4:	00000022 	andeq	r0, r0, r2, lsr #32
    2fe8:	094f1a00 	stmdbeq	pc, {r9, fp, ip}^	; <UNPREDICTABLE>
    2fec:	927c0000 	rsbsls	r0, ip, #0, 0
    2ff0:	00020000 	andeq	r0, r2, r0
    2ff4:	000001a0 	andeq	r0, r0, r0, lsr #3
    2ff8:	d8097c01 	stmdale	r9, {r0, sl, fp, ip, sp, lr}
    2ffc:	1b00000b 	blne	3030 <__code_start__-0x4fd0>
    3000:	00000980 	andeq	r0, r0, r0, lsl #19
    3004:	00002294 	muleq	r0, r4, r2
    3008:	0000228c 	andeq	r2, r0, ip, lsl #5
    300c:	0009761b 	andeq	r7, r9, fp, lsl r6
    3010:	0022d300 	eoreq	sp, r2, r0, lsl #6
    3014:	0022cb00 	eoreq	ip, r2, r0, lsl #22
    3018:	096c1b00 	stmdbeq	ip!, {r8, r9, fp, ip}^
    301c:	23120000 	tstcs	r2, #0, 0
    3020:	230e0000 	movwcs	r0, #57344	; 0xe000
    3024:	601b0000 	andsvs	r0, fp, r0
    3028:	42000009 	andmi	r0, r0, #9, 0
    302c:	34000023 	strcc	r0, [r0], #-35	; 0xffffffdd
    3030:	13000023 	movwne	r0, #35	; 0x23
    3034:	000001a0 	andeq	r0, r0, r0, lsr #3
    3038:	00098c1e 	andeq	r8, r9, lr, lsl ip
    303c:	0023a700 	eoreq	sl, r3, r0, lsl #14
    3040:	0023a100 	eoreq	sl, r3, r0, lsl #2
    3044:	09981e00 	ldmibeq	r8, {r9, sl, fp, ip}
    3048:	23d90000 	bicscs	r0, r9, #0, 0
    304c:	23d50000 	bicscs	r0, r5, #0, 0
    3050:	00000000 	andeq	r0, r0, r0
    3054:	00091b2f 	andeq	r1, r9, pc, lsr #22
    3058:	00933400 	addseq	r3, r3, r0, lsl #8
    305c:	00006000 	andeq	r6, r0, r0
    3060:	000bf700 	andeq	pc, fp, r0, lsl #14
    3064:	091c1e00 	ldmdbeq	ip, {r9, sl, fp, ip}
    3068:	23fb0000 	mvnscs	r0, #0, 0
    306c:	23f70000 	mvnscs	r0, #0, 0
    3070:	17000000 	strne	r0, [r0, -r0]
    3074:	00009408 	andeq	r9, r0, r8, lsl #8
    3078:	00000c46 	andeq	r0, r0, r6, asr #24
    307c:	00000c30 	andeq	r0, r0, r0, lsr ip
    3080:	05500118 	ldrbeq	r0, [r0, #-280]	; 0xfffffee8
    3084:	00a75403 	adceq	r5, r7, r3, lsl #8
    3088:	51011800 	tstpl	r1, r0, lsl #16
    308c:	ab8c0305 	blge	fe303ca8 <__bss_end__+0xfe2f8950>
    3090:	01180000 	tsteq	r8, r0
    3094:	cc030552 	cfstr32gt	mvfx0, [r3], {82}	; 0x52
    3098:	180000ac 	stmdane	r0, {r2, r3, r5, r7}
    309c:	08025301 	stmdaeq	r2, {r0, r8, r9, ip, lr}
    30a0:	7d021879 	stcvc	8, cr1, [r2, #-484]	; 0xfffffe1c
    30a4:	f4030500 	vst3.8	{d0,d2,d4}, [r3], r0
    30a8:	000000a9 	andeq	r0, r0, r9, lsr #1
    30ac:	00940c19 	addseq	r0, r4, r9, lsl ip
    30b0:	000c7600 	andeq	r7, ip, r0, lsl #12
    30b4:	83300000 	teqhi	r0, #0, 0
    30b8:	83000007 	movwhi	r0, #7
    30bc:	03000007 	movweq	r0, #7
    30c0:	893005eb 	ldmdbhi	r0!, {r0, r1, r3, r5, r6, r7, r8, sl}
    30c4:	89000006 	stmdbhi	r0, {r1, r2}
    30c8:	03000006 	movweq	r0, #6
    30cc:	34300628 	ldrtcc	r0, [r0], #-1576	; 0xfffff9d8
    30d0:	34000007 	strcc	r0, [r0], #-7
    30d4:	03000007 	movweq	r0, #7
    30d8:	623007ee 	eorsvs	r0, r0, #62390272	; 0x3b80000
    30dc:	62000007 	andvs	r0, r0, #7, 0
    30e0:	03000007 	movweq	r0, #7
    30e4:	3b3005ea 	blcc	c04894 <__bss_end__+0xbf953c>
    30e8:	3b000007 	blcc	310c <__code_start__-0x4ef4>
    30ec:	03000007 	movweq	r0, #7
    30f0:	643007ed 	ldrtvs	r0, [r0], #-2029	; 0xfffff813
    30f4:	64000000 	strvs	r0, [r0], #-0
    30f8:	03000000 	movweq	r0, #0
    30fc:	2f00066e 	svccs	0x0000066e
    3100:	04000001 	streq	r0, [r0], #-1
    3104:	00101800 	andseq	r1, r0, r0, lsl #16
    3108:	61010400 	tstvs	r1, r0, lsl #8
    310c:	0c000005 	stceq	0, cr0, [r0], {5}
    3110:	000007a8 	andeq	r0, r0, r8, lsr #15
    3114:	00000627 	andeq	r0, r0, r7, lsr #12
    3118:	00009ad4 	ldrdeq	r9, [r0], -r4
    311c:	0000002c 	andeq	r0, r0, ip, lsr #32
    3120:	00001aaf 	andeq	r1, r0, pc, lsr #21
    3124:	69050402 	stmdbvs	r5, {r1, sl}
    3128:	0300746e 	movweq	r7, #1134	; 0x46e
    312c:	01e20704 	mvneq	r0, r4, lsl #14
    3130:	01030000 	mrseq	r0, (UNDEF: 3)
    3134:	00005806 	andeq	r5, r0, r6, lsl #16
    3138:	05020300 	streq	r0, [r2, #-768]	; 0xfffffd00
    313c:	00000222 	andeq	r0, r0, r2, lsr #4
    3140:	06050403 	streq	r0, [r5], -r3, lsl #8
    3144:	03000002 	movweq	r0, #2
    3148:	02010508 	andeq	r0, r1, #8, 10	; 0x2000000
    314c:	01030000 	mrseq	r0, (UNDEF: 3)
    3150:	00005608 	andeq	r5, r0, r8, lsl #12
    3154:	07020300 	streq	r0, [r2, -r0, lsl #6]
    3158:	00000071 	andeq	r0, r0, r1, ror r0
    315c:	dd070403 	cfstrsle	mvf0, [r7, #-12]
    3160:	03000001 	movweq	r0, #1
    3164:	01d80708 	bicseq	r0, r8, r8, lsl #14
    3168:	25040000 	strcs	r0, [r4, #-0]
    316c:	7a000000 	bvc	3174 <__code_start__-0x4e8c>
    3170:	05000000 	streq	r0, [r0, #-0]
    3174:	00000025 	andeq	r0, r0, r5, lsr #32
    3178:	020f0600 	andeq	r0, pc, #0, 12
    317c:	1c020000 	stcne	0, cr0, [r2], {-0}
    3180:	0000860e 	andeq	r8, r0, lr, lsl #12
    3184:	6b040700 	blvs	104d8c <__bss_end__+0xf9a34>
    3188:	04000000 	streq	r0, [r0], #-0
    318c:	00000025 	andeq	r0, r0, r5, lsr #32
    3190:	0000009b 	muleq	r0, fp, r0
    3194:	00009b05 	andeq	r9, r0, r5, lsl #22
    3198:	04070000 	streq	r0, [r7], #-0
    319c:	000000a8 	andeq	r0, r0, r8, lsr #1
    31a0:	5f080103 	svcpl	0x00080103
    31a4:	08000000 	stmdaeq	r0, {}	; <UNPREDICTABLE>
    31a8:	000000a1 	andeq	r0, r0, r1, lsr #1
    31ac:	0006c706 	andeq	ip, r6, r6, lsl #14
    31b0:	0e210200 	cdpeq	2, 2, cr0, cr1, cr0, {0}
    31b4:	000000b9 	strheq	r0, [r0], -r9
    31b8:	008c0407 	addeq	r0, ip, r7, lsl #8
    31bc:	64090000 	strvs	r0, [r9], #-0
    31c0:	01000000 	mrseq	r0, (UNDEF: 0)
    31c4:	9ad40604 	bls	ff5049dc <__bss_end__+0xff4f9684>
    31c8:	002c0000 	eoreq	r0, ip, r0
    31cc:	9c010000 	stcls	0, cr0, [r1], {-0}
    31d0:	0000010e 	andeq	r0, r0, lr, lsl #2
    31d4:	009ae80a 	addseq	lr, sl, sl, lsl #16
    31d8:	0000e800 	andeq	lr, r0, r0, lsl #16
    31dc:	50010b00 	andpl	r0, r1, r0, lsl #22
    31e0:	acf00305 	ldclge	3, cr0, [r0], #20
    31e4:	0c000000 	stceq	0, cr0, [r0], {-0}
    31e8:	00009aec 	andeq	r9, r0, ip, ror #21
    31ec:	0000010e 	andeq	r0, r0, lr, lsl #2
    31f0:	009af40d 	addseq	pc, sl, sp, lsl #8
    31f4:	00011a00 	andeq	r1, r1, r0, lsl #20
    31f8:	00010400 	andeq	r0, r1, r0, lsl #8
    31fc:	50010b00 	andpl	r0, r1, r0, lsl #22
    3200:	0c003a01 			; <UNDEFINED> instruction: 0x0c003a01
    3204:	00009af8 	strdeq	r9, [r0], -r8
    3208:	00000126 	andeq	r0, r0, r6, lsr #2
    320c:	07c30e00 	strbeq	r0, [r3, r0, lsl #28]
    3210:	07c30000 	strbeq	r0, [r3, r0]
    3214:	4d020000 	stcmi	0, cr0, [r2, #-0]
    3218:	079f0e06 	ldreq	r0, [pc, r6, lsl #28]
    321c:	079f0000 	ldreq	r0, [pc, r0]
    3220:	58020000 	stmdapl	r2, {}	; <UNPREDICTABLE>
    3224:	07940e06 	ldreq	r0, [r4, r6, lsl #28]
    3228:	07940000 	ldreq	r0, [r4, r0]
    322c:	6b020000 	blvs	83234 <__bss_end__+0x77edc>
    3230:	02b10006 	adcseq	r0, r1, #6, 0
    3234:	00040000 	andeq	r0, r4, r0
    3238:	000010d8 	ldrdeq	r1, [r0], -r8
    323c:	05610104 	strbeq	r0, [r1, #-260]!	; 0xfffffefc
    3240:	f90c0000 			; <UNDEFINED> instruction: 0xf90c0000
    3244:	27000007 	strcs	r0, [r0, -r7]
    3248:	00000006 	andeq	r0, r0, r6
    324c:	2800009b 	stmdacs	r0, {r0, r1, r3, r4, r7}
    3250:	3a000001 	bcc	325c <__code_start__-0x4da4>
    3254:	0200001b 	andeq	r0, r0, #27, 0
    3258:	6e690504 	cdpvs	5, 6, cr0, cr9, cr4, {0}
    325c:	04030074 	streq	r0, [r3], #-116	; 0xffffff8c
    3260:	0001e207 	andeq	lr, r1, r7, lsl #4
    3264:	06010300 	streq	r0, [r1], -r0, lsl #6
    3268:	00000058 	andeq	r0, r0, r8, asr r0
    326c:	22050203 	andcs	r0, r5, #805306368	; 0x30000000
    3270:	03000002 	movweq	r0, #2
    3274:	02060504 	andeq	r0, r6, #4, 10	; 0x1000000
    3278:	08030000 	stmdaeq	r3, {}	; <UNPREDICTABLE>
    327c:	00020105 	andeq	r0, r2, r5, lsl #2
    3280:	08010300 	stmdaeq	r1, {r8, r9}
    3284:	00000056 	andeq	r0, r0, r6, asr r0
    3288:	71070203 	tstvc	r7, r3, lsl #4
    328c:	03000000 	movweq	r0, #0
    3290:	01dd0704 	bicseq	r0, sp, r4, lsl #14
    3294:	08030000 	stmdaeq	r3, {}	; <UNPREDICTABLE>
    3298:	0001d807 	andeq	sp, r1, r7, lsl #16
    329c:	00250400 	eoreq	r0, r5, r0, lsl #8
    32a0:	007a0000 	rsbseq	r0, sl, r0
    32a4:	25050000 	strcs	r0, [r5, #-0]
    32a8:	00000000 	andeq	r0, r0, r0
    32ac:	00020f06 	andeq	r0, r2, r6, lsl #30
    32b0:	0e1c0200 	cdpeq	2, 1, cr0, cr12, cr0, {0}
    32b4:	00000086 	andeq	r0, r0, r6, lsl #1
    32b8:	006b0407 	rsbeq	r0, fp, r7, lsl #8
    32bc:	25040000 	strcs	r0, [r4, #-0]
    32c0:	9b000000 	blls	32c8 <__code_start__-0x4d38>
    32c4:	05000000 	streq	r0, [r0, #-0]
    32c8:	0000009b 	muleq	r0, fp, r0
    32cc:	a8040700 	stmdage	r4, {r8, r9, sl}
    32d0:	03000000 	movweq	r0, #0
    32d4:	005f0801 	subseq	r0, pc, r1, lsl #16
    32d8:	a1080000 	mrsge	r0, (UNDEF: 8)
    32dc:	06000000 	streq	r0, [r0], -r0
    32e0:	000006c7 	andeq	r0, r0, r7, asr #13
    32e4:	b90e2102 	stmdblt	lr, {r1, r8, sp}
    32e8:	07000000 	streq	r0, [r0, -r0]
    32ec:	00008c04 	andeq	r8, r0, r4, lsl #24
    32f0:	07d10900 	ldrbeq	r0, [r1, r0, lsl #18]
    32f4:	11010000 	mrsne	r0, (UNDEF: 1)
    32f8:	009b0006 	addseq	r0, fp, r6
    32fc:	00012800 	andeq	r2, r1, r0, lsl #16
    3300:	269c0100 	ldrcs	r0, [ip], r0, lsl #2
    3304:	06000002 	streq	r0, [r0], -r2
    3308:	00000400 	andeq	r0, r0, r0, lsl #8
    330c:	25101201 	ldrcs	r1, [r0, #-513]	; 0xfffffdff
    3310:	06000000 	streq	r0, [r0], -r0
    3314:	000004d2 	ldrdeq	r0, [r0], -r2
    3318:	251f1201 	ldrcs	r1, [pc, #-513]	; 311f <__code_start__-0x4ee1>
    331c:	0a000000 	beq	3324 <__code_start__-0x4cdc>
    3320:	0000002d 	andeq	r0, r0, sp, lsr #32
    3324:	0b071301 	bleq	1c7f30 <__bss_end__+0x1bcbd8>
    3328:	00737362 	rsbseq	r7, r3, r2, ror #6
    332c:	260a1701 	strcs	r1, [sl], -r1, lsl #14
    3330:	33000002 	movwcc	r0, #2
    3334:	1b000024 	blne	33cc <__code_start__-0x4c34>
    3338:	0c000024 	stceq	0, cr0, [r0], {36}	; 0x24
    333c:	000007d9 	ldrdeq	r0, [r0], -r9
    3340:	260a1801 	strcs	r1, [sl], -r1, lsl #16
    3344:	0d000002 	stceq	0, cr0, [r0, #-8]
    3348:	00000819 	andeq	r0, r0, r9, lsl r8
    334c:	2c0e2501 	cfstr32cs	mvfx2, [lr], {1}
    3350:	cd000000 	stcgt	0, cr0, [r0, #-0]
    3354:	cb000024 	blgt	33ec <__code_start__-0x4c14>
    3358:	0e000024 	cdpeq	0, 0, cr0, cr0, cr4, {1}
    335c:	00009bd8 	ldrdeq	r9, [r0], -r8
    3360:	00000008 	andeq	r0, r0, r8
    3364:	0000014a 	andeq	r0, r0, sl, asr #2
    3368:	006e690b 	rsbeq	r6, lr, fp, lsl #18
    336c:	2c052101 	stfcss	f2, [r5], {1}
    3370:	e2000000 	and	r0, r0, #0, 0
    3374:	e0000024 	and	r0, r0, r4, lsr #32
    3378:	00000024 	andeq	r0, r0, r4, lsr #32
    337c:	00022c0f 	andeq	r2, r2, pc, lsl #24
    3380:	009be000 	addseq	lr, fp, r0
    3384:	9be00200 	blls	ff803b8c <__bss_end__+0xff7f8834>
    3388:	000c0000 	andeq	r0, ip, r0
    338c:	23010000 	movwcs	r0, #4096	; 0x1000
    3390:	00019905 	andeq	r9, r1, r5, lsl #18
    3394:	024f1000 	subeq	r1, pc, #0, 0
    3398:	24f80000 	ldrbtcs	r0, [r8], #0
    339c:	24f60000 	ldrbtcs	r0, [r6], #0
    33a0:	5b100000 	blpl	4033a8 <__bss_end__+0x3f8050>
    33a4:	0e000002 	cdpeq	0, 0, cr0, cr0, cr2, {0}
    33a8:	0c000025 	stceq	0, cr0, [r0], {37}	; 0x25
    33ac:	11000025 	tstne	r0, r5, lsr #32
    33b0:	00000267 	andeq	r0, r0, r7, ror #4
    33b4:	00009be0 	andeq	r9, r0, r0, ror #23
    33b8:	00000004 	andeq	r0, r0, r4
    33bc:	00026810 	andeq	r6, r2, r0, lsl r8
    33c0:	00252300 	eoreq	r2, r5, r0, lsl #6
    33c4:	00252100 	eoreq	r2, r5, r0, lsl #2
    33c8:	12000000 	andne	r0, r0, #0, 0
    33cc:	0000022c 	andeq	r0, r0, ip, lsr #4
    33d0:	00009bf0 	strdeq	r9, [r0], -r0
    33d4:	00033001 	andeq	r3, r3, r1
    33d8:	15250100 	strne	r0, [r5, #-256]!	; 0xffffff00
    33dc:	000001ea 	andeq	r0, r0, sl, ror #3
    33e0:	00033013 	andeq	r3, r3, r3, lsl r0
    33e4:	024f1000 	subeq	r1, pc, #0, 0
    33e8:	253a0000 	ldrcs	r0, [sl, #-0]!
    33ec:	25360000 	ldrcs	r0, [r6, #-0]!
    33f0:	5b100000 	blpl	4033f8 <__bss_end__+0x3f80a0>
    33f4:	5b000002 	blpl	3404 <__code_start__-0x4bfc>
    33f8:	59000025 	stmdbpl	r0, {r0, r2, r5}
    33fc:	11000025 	tstne	r0, r5, lsr #32
    3400:	00000267 	andeq	r0, r0, r7, ror #4
    3404:	00009bf0 	strdeq	r9, [r0], -r0
    3408:	00000004 	andeq	r0, r0, r4
    340c:	00026810 	andeq	r6, r2, r0, lsl r8
    3410:	00257000 	eoreq	r7, r5, r0
    3414:	00256e00 	eoreq	r6, r5, r0, lsl #28
    3418:	00000000 	andeq	r0, r0, r0
    341c:	009b0814 	addseq	r0, fp, r4, lsl r8
    3420:	00027600 	andeq	r7, r2, r0, lsl #12
    3424:	9bd81400 	blls	ff60842c <__bss_end__+0xff5fd0d4>
    3428:	02830000 	addeq	r0, r3, #0, 0
    342c:	f0140000 			; <UNDEFINED> instruction: 0xf0140000
    3430:	8f00009b 	svchi	0x0000009b
    3434:	15000002 	strne	r0, [r0, #-2]
    3438:	00009c0c 	andeq	r9, r0, ip, lsl #24
    343c:	0000029c 	muleq	r0, ip, r2
    3440:	0000021c 	andeq	r0, r0, ip, lsl r2
    3444:	05500116 	ldrbeq	r0, [r0, #-278]	; 0xfffffeea
    3448:	00acfc03 	adceq	pc, ip, r3, lsl #24
    344c:	10140000 	andsne	r0, r4, r0
    3450:	a800009c 	stmdage	r0, {r2, r3, r4, r7}
    3454:	00000002 	andeq	r0, r0, r2
    3458:	00250407 	eoreq	r0, r5, r7, lsl #8
    345c:	13170000 	tstne	r7, #0, 0
    3460:	01000008 	tsteq	r0, r8
    3464:	002c1104 	eoreq	r1, ip, r4, lsl #2
    3468:	76010000 	strvc	r0, [r1], -r0
    346c:	18000002 	stmdane	r0, {r1}
    3470:	0000081e 	andeq	r0, r0, lr, lsl r8
    3474:	2c150501 	cfldr32cs	mvfx0, [r5], {1}
    3478:	05000000 	streq	r0, [r0, #-0]
    347c:	00b34c03 	adcseq	r4, r3, r3, lsl #24
    3480:	08190c00 	ldmdaeq	r9, {sl, fp}
    3484:	07010000 	streq	r0, [r1, -r0]
    3488:	00002c0e 	andeq	r2, r0, lr, lsl #24
    348c:	75631900 	strbvc	r1, [r3, #-2304]!	; 0xfffff700
    3490:	09010072 	stmdbeq	r1, {r1, r4, r5, r6}
    3494:	00002c0e 	andeq	r2, r0, lr, lsl #24
    3498:	0e0c1a00 	vmlaeq.f32	s2, s24, s0
    349c:	01000008 	tsteq	r0, r8
    34a0:	002c1409 	eoreq	r1, ip, r9, lsl #8
    34a4:	00000000 	andeq	r0, r0, r0
    34a8:	0007eb1b 	andeq	lr, r7, fp, lsl fp
    34ac:	0007eb00 	andeq	lr, r7, r0, lsl #22
    34b0:	01310200 	teqeq	r1, r0, lsl #4
    34b4:	07e11c06 	strbeq	r1, [r1, r6, lsl #24]!
    34b8:	07e10000 	strbeq	r0, [r1, r0]!
    34bc:	3b020000 	blcc	834c4 <__bss_end__+0x7816c>
    34c0:	002d1b06 	eoreq	r1, sp, r6, lsl #22
    34c4:	002d0000 	eoreq	r0, sp, r0
    34c8:	05020000 	streq	r0, [r2, #-0]
    34cc:	891c0601 	ldmdbhi	ip, {r0, r9, sl}
    34d0:	89000006 	stmdbhi	r0, {r1, r2}
    34d4:	02000006 	andeq	r0, r0, #6, 0
    34d8:	641c0628 	ldrvs	r0, [ip], #-1576	; 0xfffff9d8
    34dc:	64000000 	strvs	r0, [r0], #-0
    34e0:	02000000 	andeq	r0, r0, #0, 0
    34e4:	ce00066e 	cfmadd32gt	mvax3, mvfx0, mvfx0, mvfx14
    34e8:	04000000 	streq	r0, [r0], #-0
    34ec:	00127600 	andseq	r7, r2, r0, lsl #12
    34f0:	61010400 	tstvs	r1, r0, lsl #8
    34f4:	0c000005 	stceq	0, cr0, [r0], {5}
    34f8:	00000823 	andeq	r0, r0, r3, lsr #16
    34fc:	00000627 	andeq	r0, r0, r7, lsr #12
    3500:	00009c28 	andeq	r9, r0, r8, lsr #24
    3504:	00000004 	andeq	r0, r0, r4
    3508:	00001cb4 			; <UNDEFINED> instruction: 0x00001cb4
    350c:	69050402 	stmdbvs	r5, {r1, sl}
    3510:	0300746e 	movweq	r7, #1134	; 0x46e
    3514:	01e20704 	mvneq	r0, r4, lsl #14
    3518:	01030000 	mrseq	r0, (UNDEF: 3)
    351c:	00005806 	andeq	r5, r0, r6, lsl #16
    3520:	05020300 	streq	r0, [r2, #-768]	; 0xfffffd00
    3524:	00000222 	andeq	r0, r0, r2, lsr #4
    3528:	06050403 	streq	r0, [r5], -r3, lsl #8
    352c:	03000002 	movweq	r0, #2
    3530:	02010508 	andeq	r0, r1, #8, 10	; 0x2000000
    3534:	01030000 	mrseq	r0, (UNDEF: 3)
    3538:	00005608 	andeq	r5, r0, r8, lsl #12
    353c:	07020300 	streq	r0, [r2, -r0, lsl #6]
    3540:	00000071 	andeq	r0, r0, r1, ror r0
    3544:	dd070403 	cfstrsle	mvf0, [r7, #-12]
    3548:	03000001 	movweq	r0, #1
    354c:	01d80708 	bicseq	r0, r8, r8, lsl #14
    3550:	25040000 	strcs	r0, [r4, #-0]
    3554:	7a000000 	bvc	355c <__code_start__-0x4aa4>
    3558:	05000000 	streq	r0, [r0, #-0]
    355c:	00000025 	andeq	r0, r0, r5, lsr #32
    3560:	020f0600 	andeq	r0, pc, #0, 12
    3564:	1c020000 	stcne	0, cr0, [r2], {-0}
    3568:	0000860e 	andeq	r8, r0, lr, lsl #12
    356c:	6b040700 	blvs	105174 <__bss_end__+0xf9e1c>
    3570:	04000000 	streq	r0, [r0], #-0
    3574:	00000025 	andeq	r0, r0, r5, lsr #32
    3578:	0000009b 	muleq	r0, fp, r0
    357c:	00009b05 	andeq	r9, r0, r5, lsl #22
    3580:	04070000 	streq	r0, [r7], #-0
    3584:	000000a8 	andeq	r0, r0, r8, lsr #1
    3588:	5f080103 	svcpl	0x00080103
    358c:	08000000 	stmdaeq	r0, {}	; <UNPREDICTABLE>
    3590:	000000a1 	andeq	r0, r0, r1, lsr #1
    3594:	0006c706 	andeq	ip, r6, r6, lsl #14
    3598:	0e210200 	cdpeq	2, 2, cr0, cr1, cr0, {0}
    359c:	000000b9 	strheq	r0, [r0], -r9
    35a0:	008c0407 	addeq	r0, ip, r7, lsl #8
    35a4:	eb090000 	bl	2435ac <__bss_end__+0x238254>
    35a8:	01000007 	tsteq	r0, r7
    35ac:	9c280604 	stcls	6, cr0, [r8], #-16
    35b0:	00040000 	andeq	r0, r4, r0
    35b4:	9c010000 	stcls	0, cr0, [r1], {-0}
    35b8:	00027d00 	andeq	r7, r2, r0, lsl #26
    35bc:	ef000400 	svc	0x00000400
    35c0:	04000012 	streq	r0, [r0], #-18	; 0xffffffee
    35c4:	00056101 	andeq	r6, r5, r1, lsl #2
    35c8:	086b0c00 	stmdaeq	fp!, {sl, fp}^
    35cc:	06270000 	strteq	r0, [r7], -r0
    35d0:	03600000 	cmneq	r0, #0, 0
    35d4:	00000000 	andeq	r0, r0, r0
    35d8:	1d350000 	ldcne	0, cr0, [r5, #-0]
    35dc:	04020000 	streq	r0, [r2], #-0
    35e0:	746e6905 	strbtvc	r6, [lr], #-2309	; 0xfffff6fb
    35e4:	00250300 	eoreq	r0, r5, r0, lsl #6
    35e8:	04040000 	streq	r0, [r4], #-0
    35ec:	0001e207 	andeq	lr, r1, r7, lsl #4
    35f0:	06010400 	streq	r0, [r1], -r0, lsl #8
    35f4:	00000058 	andeq	r0, r0, r8, asr r0
    35f8:	22050204 	andcs	r0, r5, #4, 4	; 0x40000000
    35fc:	04000002 	streq	r0, [r0], #-2
    3600:	02060504 	andeq	r0, r6, #4, 10	; 0x1000000
    3604:	08040000 	stmdaeq	r4, {}	; <UNPREDICTABLE>
    3608:	00020105 	andeq	r0, r2, r5, lsl #2
    360c:	08010400 	stmdaeq	r1, {sl}
    3610:	00000056 	andeq	r0, r0, r6, asr r0
    3614:	71070204 	tstvc	r7, r4, lsl #4
    3618:	04000000 	streq	r0, [r0], #-0
    361c:	01dd0704 	bicseq	r0, sp, r4, lsl #14
    3620:	08040000 	stmdaeq	r4, {}	; <UNPREDICTABLE>
    3624:	0001d807 	andeq	sp, r1, r7, lsl #16
    3628:	00250500 	eoreq	r0, r5, r0, lsl #10
    362c:	007f0000 	rsbseq	r0, pc, r0
    3630:	25060000 	strcs	r0, [r6, #-0]
    3634:	00000000 	andeq	r0, r0, r0
    3638:	00020f07 	andeq	r0, r2, r7, lsl #30
    363c:	0e1c0200 	cdpeq	2, 1, cr0, cr12, cr0, {0}
    3640:	0000008b 	andeq	r0, r0, fp, lsl #1
    3644:	00700408 	rsbseq	r0, r0, r8, lsl #8
    3648:	25050000 	strcs	r0, [r5, #-0]
    364c:	a0000000 	andge	r0, r0, r0
    3650:	06000000 	streq	r0, [r0], -r0
    3654:	000000a0 	andeq	r0, r0, r0, lsr #1
    3658:	ad040800 	stcge	8, cr0, [r4, #-0]
    365c:	04000000 	streq	r0, [r0], #-0
    3660:	005f0801 	subseq	r0, pc, r1, lsl #16
    3664:	a6030000 	strge	r0, [r3], -r0
    3668:	07000000 	streq	r0, [r0, -r0]
    366c:	000006c7 	andeq	r0, r0, r7, asr #13
    3670:	be0e2102 	adflte	f2, f6, f2
    3674:	08000000 	stmdaeq	r0, {}	; <UNPREDICTABLE>
    3678:	00009104 	andeq	r9, r0, r4, lsl #2
    367c:	088f0900 	stmeq	pc, {r8, fp}	; <UNPREDICTABLE>
    3680:	0d010000 	stceq	0, cr0, [r1, #-0]
    3684:	00003111 	andeq	r3, r0, r1, lsl r1
    3688:	07940a00 	ldreq	r0, [r4, r0, lsl #20]
    368c:	1f010000 	svcne	0x00010000
    3690:	009c5806 	addseq	r5, ip, r6, lsl #16
    3694:	00006000 	andeq	r6, r0, r0
    3698:	d59c0100 	ldrle	r0, [ip, #256]	; 0x100
    369c:	0b000001 	bleq	36a8 <__code_start__-0x4958>
    36a0:	000008b3 			; <UNDEFINED> instruction: 0x000008b3
    36a4:	2c0f2c01 	stccs	12, cr2, [pc], {1}
    36a8:	1c000000 	stcne	0, cr0, [r0], {-0}
    36ac:	0b201000 	bleq	8076b4 <__bss_end__+0x7fc35c>
    36b0:	0000084e 	andeq	r0, r0, lr, asr #16
    36b4:	2c0f2d01 	stccs	13, cr2, [pc], {1}
    36b8:	24000000 	strcs	r0, [r0], #-0
    36bc:	0b201000 	bleq	8076c4 <__bss_end__+0x7fc36c>
    36c0:	00000880 	andeq	r0, r0, r0, lsl #17
    36c4:	2c0f2e01 	stccs	14, cr2, [pc], {1}
    36c8:	00000000 	andeq	r0, r0, r0
    36cc:	0c5a0000 	mraeq	r0, sl, acc0
    36d0:	0000089a 	muleq	r0, sl, r8
    36d4:	2c0f2f01 	stccs	15, cr2, [pc], {1}
    36d8:	20000000 	andcs	r0, r0, r0
    36dc:	0001ef0d 	andeq	lr, r1, sp, lsl #30
    36e0:	009c5800 	addseq	r5, ip, r0, lsl #16
    36e4:	03480200 	movteq	r0, #33280	; 0x8200
    36e8:	20010000 	andcs	r0, r1, r0
    36ec:	00014c08 	andeq	r4, r1, r8, lsl #24
    36f0:	03480e00 	movteq	r0, #36352	; 0x8e00
    36f4:	000f0000 	andeq	r0, pc, r0
    36f8:	87000002 	strhi	r0, [r0, -r2]
    36fc:	83000025 	movwhi	r0, #37	; 0x25
    3700:	00000025 	andeq	r0, r0, r5, lsr #32
    3704:	01d51000 	bicseq	r1, r5, r0
    3708:	9c6c0000 	stclls	0, cr0, [ip], #-0
    370c:	6c010000 	stcvs	0, cr0, [r1], {-0}
    3710:	1000009c 	mulne	r0, ip, r0
    3714:	01000000 	mrseq	r0, (UNDEF: 0)
    3718:	01730921 	cmneq	r3, r1, lsr #18
    371c:	e20f0000 	and	r0, pc, #0, 0
    3720:	ae000001 	cdpge	0, 0, cr0, cr0, cr1, {0}
    3724:	a6000025 	strge	r0, [r0], -r5, lsr #32
    3728:	00000025 	andeq	r0, r0, r5, lsr #32
    372c:	009c8011 	addseq	r8, ip, r1, lsl r0
    3730:	00024f00 	andeq	r4, r2, r0, lsl #30
    3734:	9c841100 	stflss	f1, [r4], {0}
    3738:	025c0000 	subseq	r0, ip, #0, 0
    373c:	8c120000 	ldchi	0, cr0, [r2], {-0}
    3740:	6800009c 	stmdavs	r0, {r2, r3, r4, r7}
    3744:	98000002 	stmdals	r0, {r1}
    3748:	13000001 	movwne	r0, #1
    374c:	3a015001 	bcc	57758 <__bss_end__+0x4c400>
    3750:	9c981200 	lfmls	f1, 4, [r8], {0}
    3754:	02740000 	rsbseq	r0, r4, #0, 0
    3758:	01b80000 			; <UNDEFINED> instruction: 0x01b80000
    375c:	01130000 	tsteq	r3, r0
    3760:	240c0550 	strcs	r0, [ip], #-1360	; 0xfffffab0
    3764:	13201000 	nopne	{0}	; <UNPREDICTABLE>
    3768:	0c055101 	stfeqs	f5, [r5], {1}
    376c:	5a000001 	bpl	3778 <__code_start__-0x4888>
    3770:	9ca41400 	cfstrsls	mvf1, [r4]
    3774:	02740000 	rsbseq	r0, r4, #0, 0
    3778:	01130000 	tsteq	r3, r0
    377c:	1c0c0550 	cfstr32ne	mvfx0, [ip], {80}	; 0x50
    3780:	13201000 	nopne	{0}	; <UNPREDICTABLE>
    3784:	0c055101 	stfeqs	f5, [r5], {1}
    3788:	5a000020 	bpl	3810 <__code_start__-0x47f0>
    378c:	5c150000 	ldcpl	0, cr0, [r5], {-0}
    3790:	01000008 	tsteq	r0, r8
    3794:	ef010617 	svc	0x00010617
    3798:	09000001 	stmdbeq	r0, {r0}
    379c:	000008bb 			; <UNDEFINED> instruction: 0x000008bb
    37a0:	310e1801 	tstcc	lr, r1, lsl #16
    37a4:	00000000 	andeq	r0, r0, r0
    37a8:	00088c16 	andeq	r8, r8, r6, lsl ip
    37ac:	050e0100 	streq	r0, [lr, #-256]	; 0xffffff00
    37b0:	00000025 	andeq	r0, r0, r5, lsr #32
    37b4:	00020d01 	andeq	r0, r2, r1, lsl #26
    37b8:	08bb0900 	ldmeq	fp!, {r8, fp}
    37bc:	0f010000 	svceq	0x00010000
    37c0:	0000310e 	andeq	r3, r0, lr, lsl #2
    37c4:	ef170000 	svc	0x00170000
    37c8:	2c000001 	stccs	0, cr0, [r0], {1}
    37cc:	1800009c 	stmdane	r0, {r2, r3, r4, r7}
    37d0:	01000000 	mrseq	r0, (UNDEF: 0)
    37d4:	00022e9c 	muleq	r2, ip, lr
    37d8:	02000f00 	andeq	r0, r0, #0, 30
    37dc:	25eb0000 	strbcs	r0, [fp, #0]!
    37e0:	25e70000 	strbcs	r0, [r7, #0]!
    37e4:	17000000 	strne	r0, [r0, -r0]
    37e8:	000001d5 	ldrdeq	r0, [r0], -r5
    37ec:	00009c44 	andeq	r9, r0, r4, asr #24
    37f0:	00000014 	andeq	r0, r0, r4, lsl r0
    37f4:	024f9c01 	subeq	r9, pc, #256	; 0x100
    37f8:	e20f0000 	and	r0, pc, #0, 0
    37fc:	12000001 	andne	r0, r0, #1, 0
    3800:	0a000026 	beq	38a0 <__code_start__-0x4760>
    3804:	00000026 	andeq	r0, r0, r6, lsr #32
    3808:	00083f18 	andeq	r3, r8, r8, lsl pc
    380c:	00083f00 	andeq	r3, r8, r0, lsl #30
    3810:	01360200 	teqeq	r6, r0, lsl #4
    3814:	07c31906 	strbeq	r1, [r3, r6, lsl #18]
    3818:	07c30000 	strbeq	r0, [r3, r0]
    381c:	4d020000 	stcmi	0, cr0, [r2, #-0]
    3820:	079f1906 	ldreq	r1, [pc, r6, lsl #18]
    3824:	079f0000 	ldreq	r0, [pc, r0]
    3828:	58020000 	stmdapl	r2, {}	; <UNPREDICTABLE>
    382c:	08561906 	ldmdaeq	r6, {r1, r2, r8, fp, ip}^
    3830:	08560000 	ldmdaeq	r6, {}^	; <UNPREDICTABLE>
    3834:	ad020000 	stcge	0, cr0, [r2, #-0]
    3838:	053f0006 	ldreq	r0, [pc, #-6]!	; 383a <__code_start__-0x47c6>
    383c:	00040000 	andeq	r0, r4, r0
    3840:	00001472 	andeq	r1, r0, r2, ror r4
    3844:	05610104 	strbeq	r0, [r1, #-260]!	; 0xfffffefc
    3848:	d60c0000 	strle	r0, [ip], -r0
    384c:	27000008 	strcs	r0, [r0, -r8]
    3850:	b8000006 	stmdalt	r0, {r1, r2}
    3854:	1c00009c 	stcne	0, cr0, [r0], {156}	; 0x9c
    3858:	4d000001 	stcmi	0, cr0, [r0, #-4]
    385c:	0200001e 	andeq	r0, r0, #30, 0
    3860:	6e690504 	cdpvs	5, 6, cr0, cr9, cr4, {0}
    3864:	04030074 	streq	r0, [r3], #-116	; 0xffffff8c
    3868:	0001e207 	andeq	lr, r1, r7, lsl #4
    386c:	06010300 	streq	r0, [r1], -r0, lsl #6
    3870:	00000058 	andeq	r0, r0, r8, asr r0
    3874:	22050203 	andcs	r0, r5, #805306368	; 0x30000000
    3878:	03000002 	movweq	r0, #2
    387c:	02060504 	andeq	r0, r6, #4, 10	; 0x1000000
    3880:	08030000 	stmdaeq	r3, {}	; <UNPREDICTABLE>
    3884:	00020105 	andeq	r0, r2, r5, lsl #2
    3888:	08010300 	stmdaeq	r1, {r8, r9}
    388c:	00000056 	andeq	r0, r0, r6, asr r0
    3890:	71070203 	tstvc	r7, r3, lsl #4
    3894:	03000000 	movweq	r0, #0
    3898:	01dd0704 	bicseq	r0, sp, r4, lsl #14
    389c:	08030000 	stmdaeq	r3, {}	; <UNPREDICTABLE>
    38a0:	0001d807 	andeq	sp, r1, r7, lsl #16
    38a4:	00250400 	eoreq	r0, r5, r0, lsl #8
    38a8:	007a0000 	rsbseq	r0, sl, r0
    38ac:	25050000 	strcs	r0, [r5, #-0]
    38b0:	00000000 	andeq	r0, r0, r0
    38b4:	00020f06 	andeq	r0, r2, r6, lsl #30
    38b8:	0e1c0200 	cdpeq	2, 1, cr0, cr12, cr0, {0}
    38bc:	00000086 	andeq	r0, r0, r6, lsl #1
    38c0:	006b0407 	rsbeq	r0, fp, r7, lsl #8
    38c4:	25040000 	strcs	r0, [r4, #-0]
    38c8:	9b000000 	blls	38d0 <__code_start__-0x4730>
    38cc:	05000000 	streq	r0, [r0, #-0]
    38d0:	0000009b 	muleq	r0, fp, r0
    38d4:	a8040700 	stmdage	r4, {r8, r9, sl}
    38d8:	03000000 	movweq	r0, #0
    38dc:	005f0801 	subseq	r0, pc, r1, lsl #16
    38e0:	a1080000 	mrsge	r0, (UNDEF: 8)
    38e4:	06000000 	streq	r0, [r0], -r0
    38e8:	000006c7 	andeq	r0, r0, r7, asr #13
    38ec:	b90e2102 	stmdblt	lr, {r1, r8, sp}
    38f0:	07000000 	streq	r0, [r0, -r0]
    38f4:	00008c04 	andeq	r8, r0, r4, lsl #24
    38f8:	08cc0900 	stmiaeq	ip, {r8, fp}^
    38fc:	1e010000 	cdpne	0, 0, cr0, cr1, cr0, {0}
    3900:	009d8006 	addseq	r8, sp, r6
    3904:	00005400 	andeq	r5, r0, r0, lsl #8
    3908:	0b9c0100 	bleq	fe703d10 <__bss_end__+0xfe6f89b8>
    390c:	0a000002 	beq	391c <__code_start__-0x46e4>
    3910:	00636573 	rsbeq	r6, r3, r3, ror r5
    3914:	2c191e01 	ldccs	14, cr1, [r9], {1}
    3918:	4f000000 	svcmi	0x00000000
    391c:	4b000026 	blmi	39bc <__code_start__-0x4644>
    3920:	0b000026 	bleq	39c0 <__code_start__-0x4640>
    3924:	0000020b 	andeq	r0, r0, fp, lsl #4
    3928:	00009d80 	andeq	r9, r0, r0, lsl #27
    392c:	00042802 	andeq	r2, r4, r2, lsl #16
    3930:	051f0100 	ldreq	r0, [pc, #-256]	; 3838 <__code_start__-0x47c8>
    3934:	0002180c 	andeq	r1, r2, ip, lsl #16
    3938:	00267400 	eoreq	r7, r6, r0, lsl #8
    393c:	00267000 	eoreq	r7, r6, r0
    3940:	02240d00 	eoreq	r0, r4, #0, 26
    3944:	9d940000 	ldcls	0, cr0, [r4]
    3948:	94000000 	strls	r0, [r0], #-0
    394c:	4000009d 	mulmi	r0, sp, r0
    3950:	01000000 	mrseq	r0, (UNDEF: 0)
    3954:	310c051c 	tstcc	ip, ip, lsl r5
    3958:	a1000002 	tstge	r0, r2
    395c:	9f000026 	svcls	0x00000026
    3960:	0e000026 	cdpeq	0, 0, cr0, cr0, cr6, {1}
    3964:	0000023c 	andeq	r0, r0, ip, lsr r2
    3968:	000026b6 			; <UNDEFINED> instruction: 0x000026b6
    396c:	000026b4 			; <UNDEFINED> instruction: 0x000026b4
    3970:	0002550f 	andeq	r5, r2, pc, lsl #10
    3974:	009d9400 	addseq	r9, sp, r0, lsl #8
    3978:	9d940200 	lfmls	f0, 4, [r4]
    397c:	00140000 	andseq	r0, r4, r0
    3980:	13010000 	movwne	r0, #4096	; 0x1000
    3984:	00019c13 	andeq	r9, r1, r3, lsl ip
    3988:	02660e00 	rsbeq	r0, r6, #0, 28
    398c:	26cd0000 	strbcs	r0, [sp], r0
    3990:	26c90000 	strbcs	r0, [r9], r0
    3994:	710f0000 	mrsvc	r0, CPSR
    3998:	98000002 	stmdals	r0, {r1}
    399c:	0100009d 	swpeq	r0, sp, [r0]	; <UNPREDICTABLE>
    39a0:	00009d98 	muleq	r0, r8, sp
    39a4:	0000000c 	andeq	r0, r0, ip
    39a8:	89120d01 	ldmdbhi	r2, {r0, r8, sl, fp}
    39ac:	10000001 	andne	r0, r0, r1
    39b0:	00009da0 	andeq	r9, r0, r0, lsr #27
    39b4:	0000052a 	andeq	r0, r0, sl, lsr #10
    39b8:	05500111 	ldrbeq	r0, [r0, #-273]	; 0xfffffeef
    39bc:	0030040c 	eorseq	r0, r0, ip, lsl #8
    39c0:	12000020 	andne	r0, r0, #32, 0
    39c4:	00009d98 	muleq	r0, r8, sp
    39c8:	00000536 	andeq	r0, r0, r6, lsr r5
    39cc:	009da812 	addseq	sl, sp, r2, lsl r8
    39d0:	00053600 	andeq	r3, r5, r0, lsl #12
    39d4:	47130000 	ldrmi	r0, [r3, -r0]
    39d8:	40000002 	andmi	r0, r0, r2
    39dc:	14000004 	strne	r0, [r0], #-4
    39e0:	00000248 	andeq	r0, r0, r8, asr #4
    39e4:	0002550b 	andeq	r5, r2, fp, lsl #10
    39e8:	009dac00 	addseq	sl, sp, r0, lsl #24
    39ec:	04580200 	ldrbeq	r0, [r8], #-512	; 0xfffffe00
    39f0:	15010000 	strne	r0, [r1, #-0]
    39f4:	04581517 	ldrbeq	r1, [r8], #-1303	; 0xfffffae9
    39f8:	660e0000 	strvs	r0, [lr], -r0
    39fc:	ed000002 	stc	0, cr0, [r0, #-8]
    3a00:	eb000026 	bl	3aa0 <__code_start__-0x4560>
    3a04:	16000026 	strne	r0, [r0], -r6, lsr #32
    3a08:	00000271 	andeq	r0, r0, r1, ror r2
    3a0c:	00009db0 			; <UNDEFINED> instruction: 0x00009db0
    3a10:	00047801 	andeq	r7, r4, r1, lsl #16
    3a14:	120d0100 	andne	r0, sp, #0
    3a18:	000001f3 	strdeq	r0, [r0], -r3
    3a1c:	009db810 	addseq	fp, sp, r0, lsl r8
    3a20:	00052a00 	andeq	r2, r5, r0, lsl #20
    3a24:	50011100 	andpl	r1, r1, r0, lsl #2
    3a28:	00007702 	andeq	r7, r0, r2, lsl #14
    3a2c:	9db01200 	lfmls	f1, 4, [r0]
    3a30:	05360000 	ldreq	r0, [r6, #-0]!
    3a34:	c4120000 	ldrgt	r0, [r2], #-0
    3a38:	3600009d 			; <UNDEFINED> instruction: 0x3600009d
    3a3c:	00000005 	andeq	r0, r0, r5
    3a40:	00000000 	andeq	r0, r0, r0
    3a44:	079f1700 	ldreq	r1, [pc, r0, lsl #14]
    3a48:	1b010000 	blne	43a50 <__bss_end__+0x386f8>
    3a4c:	02240106 	eoreq	r0, r4, #-2147483647	; 0x80000001
    3a50:	6d180000 	ldcvs	0, cr0, [r8, #-0]
    3a54:	1b010073 	blne	43c28 <__bss_end__+0x388d0>
    3a58:	00002c18 	andeq	r2, r0, r8, lsl ip
    3a5c:	ff170000 			; <UNDEFINED> instruction: 0xff170000
    3a60:	01000008 	tsteq	r0, r8
    3a64:	55010612 	strpl	r0, [r1, #-1554]	; 0xfffff9ee
    3a68:	18000002 	stmdane	r0, {r1}
    3a6c:	01007375 	tsteq	r0, r5, ror r3
    3a70:	002c1812 	eoreq	r1, ip, r2, lsl r8
    3a74:	72190000 	andsvc	r0, r9, #0, 0
    3a78:	13010062 	movwne	r0, #4194	; 0x1062
    3a7c:	00002c0e 	andeq	r2, r0, lr, lsl #24
    3a80:	72191a00 	andsvc	r1, r9, #0, 20
    3a84:	15010061 	strne	r0, [r1, #-97]	; 0xffffff9f
    3a88:	00002c12 	andeq	r2, r0, r2, lsl ip
    3a8c:	1b000000 	blne	3a94 <__code_start__-0x456c>
    3a90:	000008f0 	strdeq	r0, [r0], -r0	; <UNPREDICTABLE>
    3a94:	2c0a0901 			; <UNDEFINED> instruction: 0x2c0a0901
    3a98:	01000000 	mrseq	r0, (UNDEF: 0)
    3a9c:	00000271 	andeq	r0, r0, r1, ror r2
    3aa0:	01007519 	tsteq	r0, r9, lsl r5
    3aa4:	002c0e0d 	eoreq	r0, ip, sp, lsl #28
    3aa8:	1c000000 	stcne	0, cr0, [r0], {-0}
    3aac:	00000908 	andeq	r0, r0, r8, lsl #18
    3ab0:	2c0a0401 	cfstrscs	mvf0, [sl], {1}
    3ab4:	01000000 	mrseq	r0, (UNDEF: 0)
    3ab8:	0002711d 	andeq	r7, r2, sp, lsl r1
    3abc:	009cb800 	addseq	fp, ip, r0, lsl #16
    3ac0:	00000c00 	andeq	r0, r0, r0, lsl #24
    3ac4:	a59c0100 	ldrge	r0, [ip, #256]	; 0x100
    3ac8:	1e000002 	cdpne	0, 0, cr0, cr0, cr2, {0}
    3acc:	00009cc0 	andeq	r9, r0, r0, asr #25
    3ad0:	0000052a 	andeq	r0, r0, sl, lsr #10
    3ad4:	05500111 	ldrbeq	r0, [r0, #-273]	; 0xfffffeef
    3ad8:	0030040c 	eorseq	r0, r0, ip, lsl #8
    3adc:	1d000020 	stcne	0, cr0, [r0, #-128]	; 0xffffff80
    3ae0:	00000255 	andeq	r0, r0, r5, asr r2
    3ae4:	00009cc4 	andeq	r9, r0, r4, asr #25
    3ae8:	00000024 	andeq	r0, r0, r4, lsr #32
    3aec:	03059c01 	movweq	r9, #23553	; 0x5c01
    3af0:	660e0000 	strvs	r0, [lr], -r0
    3af4:	04000002 	streq	r0, [r0], #-2
    3af8:	00000027 	andeq	r0, r0, r7, lsr #32
    3afc:	0f000027 	svceq	0x00000027
    3b00:	00000271 	andeq	r0, r0, r1, ror r2
    3b04:	00009ccc 	andeq	r9, r0, ip, asr #25
    3b08:	009ccc01 	addseq	ip, ip, r1, lsl #24
    3b0c:	00000c00 	andeq	r0, r0, r0, lsl #24
    3b10:	120d0100 	andne	r0, sp, #0
    3b14:	000002f2 	strdeq	r0, [r0], -r2
    3b18:	009cd410 	addseq	sp, ip, r0, lsl r4
    3b1c:	00052a00 	andeq	r2, r5, r0, lsl #20
    3b20:	50011100 	andpl	r1, r1, r0, lsl #2
    3b24:	30040c05 	andcc	r0, r4, r5, lsl #24
    3b28:	00002000 	andeq	r2, r0, r0
    3b2c:	009ccc12 	addseq	ip, ip, r2, lsl ip
    3b30:	00053600 	andeq	r3, r5, r0, lsl #12
    3b34:	9cdc1200 	lfmls	f1, 2, [ip], {0}
    3b38:	05360000 	ldreq	r0, [r6, #-0]!
    3b3c:	1d000000 	stcne	0, cr0, [r0, #-0]
    3b40:	00000224 	andeq	r0, r0, r4, lsr #4
    3b44:	00009ce8 	andeq	r9, r0, r8, ror #25
    3b48:	00000048 	andeq	r0, r0, r8, asr #32
    3b4c:	04079c01 	streq	r9, [r7], #-3073	; 0xfffff3ff
    3b50:	310c0000 	mrscc	r0, (UNDEF: 12)
    3b54:	26000002 	strcs	r0, [r0], -r2
    3b58:	22000027 	andcs	r0, r0, #39, 0	; 0x27
    3b5c:	0e000027 	cdpeq	0, 0, cr0, cr0, cr7, {1}
    3b60:	0000023c 	andeq	r0, r0, ip, lsr r2
    3b64:	00002746 	andeq	r2, r0, r6, asr #14
    3b68:	00002744 	andeq	r2, r0, r4, asr #14
    3b6c:	00025516 	andeq	r5, r2, r6, lsl r5
    3b70:	009ce800 	addseq	lr, ip, r0, lsl #16
    3b74:	03700200 	cmneq	r0, #0, 4
    3b78:	13010000 	movwne	r0, #4096	; 0x1000
    3b7c:	00039a13 	andeq	r9, r3, r3, lsl sl
    3b80:	03701500 	cmneq	r0, #0, 10
    3b84:	660e0000 	strvs	r0, [lr], -r0
    3b88:	5d000002 	stcpl	0, cr0, [r0, #-8]
    3b8c:	59000027 	stmdbpl	r0, {r0, r1, r2, r5}
    3b90:	0f000027 	svceq	0x00000027
    3b94:	00000271 	andeq	r0, r0, r1, ror r2
    3b98:	00009cf4 	strdeq	r9, [r0], -r4
    3b9c:	009cf401 	addseq	pc, ip, r1, lsl #8
    3ba0:	00000c00 	andeq	r0, r0, r0, lsl #24
    3ba4:	120d0100 	andne	r0, sp, #0
    3ba8:	00000386 	andeq	r0, r0, r6, lsl #7
    3bac:	009cfc10 	addseq	pc, ip, r0, lsl ip	; <UNPREDICTABLE>
    3bb0:	00052a00 	andeq	r2, r5, r0, lsl #20
    3bb4:	50011100 	andpl	r1, r1, r0, lsl #2
    3bb8:	30040c05 	andcc	r0, r4, r5, lsl #24
    3bbc:	00002000 	andeq	r2, r0, r0
    3bc0:	009cf412 	addseq	pc, ip, r2, lsl r4	; <UNPREDICTABLE>
    3bc4:	00053600 	andeq	r3, r5, r0, lsl #12
    3bc8:	9d041200 	sfmls	f1, 4, [r4, #-0]
    3bcc:	05360000 	ldreq	r0, [r6, #-0]!
    3bd0:	00000000 	andeq	r0, r0, r0
    3bd4:	00024713 	andeq	r4, r2, r3, lsl r7
    3bd8:	00038800 	andeq	r8, r3, r0, lsl #16
    3bdc:	02481400 	subeq	r1, r8, #0, 8
    3be0:	550b0000 	strpl	r0, [fp, #-0]
    3be4:	08000002 	stmdaeq	r0, {r1}
    3be8:	0200009d 	andeq	r0, r0, #157, 0	; 0x9d
    3bec:	000003a0 	andeq	r0, r0, r0, lsr #7
    3bf0:	15171501 	ldrne	r1, [r7, #-1281]	; 0xfffffaff
    3bf4:	000003a0 	andeq	r0, r0, r0, lsr #7
    3bf8:	0002660e 	andeq	r6, r2, lr, lsl #12
    3bfc:	00277d00 	eoreq	r7, r7, r0, lsl #26
    3c00:	00277b00 	eoreq	r7, r7, r0, lsl #22
    3c04:	02711600 	rsbseq	r1, r1, #0, 12
    3c08:	9d0c0000 	stcls	0, cr0, [ip, #-0]
    3c0c:	c0010000 	andgt	r0, r1, r0
    3c10:	01000003 	tsteq	r0, r3
    3c14:	03f1120d 	mvnseq	r1, #-805306368	; 0xd0000000
    3c18:	14100000 	ldrne	r0, [r0], #-0
    3c1c:	2a00009d 	bcs	3e98 <__code_start__-0x4168>
    3c20:	11000005 	tstne	r0, r5
    3c24:	77025001 	strvc	r5, [r2, -r1]
    3c28:	12000000 	andne	r0, r0, #0, 0
    3c2c:	00009d0c 	andeq	r9, r0, ip, lsl #26
    3c30:	00000536 	andeq	r0, r0, r6, lsr r5
    3c34:	009d2012 	addseq	r2, sp, r2, lsl r0
    3c38:	00053600 	andeq	r3, r5, r0, lsl #12
    3c3c:	00000000 	andeq	r0, r0, r0
    3c40:	020b1d00 	andeq	r1, fp, #0, 26
    3c44:	9d300000 	ldcls	0, cr0, [r0, #-0]
    3c48:	00500000 	subseq	r0, r0, r0
    3c4c:	9c010000 	stcls	0, cr0, [r1], {-0}
    3c50:	0000052a 	andeq	r0, r0, sl, lsr #10
    3c54:	0002180c 	andeq	r1, r2, ip, lsl #16
    3c58:	00279400 	eoreq	r9, r7, r0, lsl #8
    3c5c:	00279000 	eoreq	r9, r7, r0
    3c60:	02240d00 	eoreq	r0, r4, #0, 26
    3c64:	9d400000 	stclls	0, cr0, [r0, #-0]
    3c68:	40000000 	andmi	r0, r0, r0
    3c6c:	4000009d 	mulmi	r0, sp, r0
    3c70:	01000000 	mrseq	r0, (UNDEF: 0)
    3c74:	310c051c 	tstcc	ip, ip, lsl r5
    3c78:	b7000002 	strlt	r0, [r0, -r2]
    3c7c:	b5000027 	strlt	r0, [r0, #-39]	; 0xffffffd9
    3c80:	0e000027 	cdpeq	0, 0, cr0, cr0, cr7, {1}
    3c84:	0000023c 	andeq	r0, r0, ip, lsr r2
    3c88:	000027cc 	andeq	r2, r0, ip, asr #15
    3c8c:	000027ca 	andeq	r2, r0, sl, asr #15
    3c90:	0002550f 	andeq	r5, r2, pc, lsl #10
    3c94:	009d4000 	addseq	r4, sp, r0
    3c98:	9d400200 	sfmls	f0, 2, [r0, #-0]
    3c9c:	00140000 	andseq	r0, r4, r0
    3ca0:	13010000 	movwne	r0, #4096	; 0x1000
    3ca4:	0004bc13 	andeq	fp, r4, r3, lsl ip
    3ca8:	02660e00 	rsbeq	r0, r6, #0, 28
    3cac:	27e30000 	strbcs	r0, [r3, r0]!
    3cb0:	27df0000 	ldrbcs	r0, [pc, r0]
    3cb4:	710f0000 	mrsvc	r0, CPSR
    3cb8:	44000002 	strmi	r0, [r0], #-2
    3cbc:	0100009d 	swpeq	r0, sp, [r0]	; <UNPREDICTABLE>
    3cc0:	00009d44 	andeq	r9, r0, r4, asr #26
    3cc4:	0000000c 	andeq	r0, r0, ip
    3cc8:	a9120d01 	ldmdbge	r2, {r0, r8, sl, fp}
    3ccc:	10000004 	andne	r0, r0, r4
    3cd0:	00009d4c 	andeq	r9, r0, ip, asr #26
    3cd4:	0000052a 	andeq	r0, r0, sl, lsr #10
    3cd8:	05500111 	ldrbeq	r0, [r0, #-273]	; 0xfffffeef
    3cdc:	0030040c 	eorseq	r0, r0, ip, lsl #8
    3ce0:	12000020 	andne	r0, r0, #32, 0
    3ce4:	00009d44 	andeq	r9, r0, r4, asr #26
    3ce8:	00000536 	andeq	r0, r0, r6, lsr r5
    3cec:	009d5412 	addseq	r5, sp, r2, lsl r4
    3cf0:	00053600 	andeq	r3, r5, r0, lsl #12
    3cf4:	47130000 	ldrmi	r0, [r3, -r0]
    3cf8:	d8000002 	stmdale	r0, {r1}
    3cfc:	14000003 	strne	r0, [r0], #-3
    3d00:	00000248 	andeq	r0, r0, r8, asr #4
    3d04:	0002550b 	andeq	r5, r2, fp, lsl #10
    3d08:	009d5800 	addseq	r5, sp, r0, lsl #16
    3d0c:	03f00200 	mvnseq	r0, #0, 4
    3d10:	15010000 	strne	r0, [r1, #-0]
    3d14:	03f01517 	mvnseq	r1, #96468992	; 0x5c00000
    3d18:	660e0000 	strvs	r0, [lr], -r0
    3d1c:	03000002 	movweq	r0, #2
    3d20:	01000028 	tsteq	r0, r8, lsr #32
    3d24:	16000028 	strne	r0, [r0], -r8, lsr #32
    3d28:	00000271 	andeq	r0, r0, r1, ror r2
    3d2c:	00009d5c 	andeq	r9, r0, ip, asr sp
    3d30:	00041001 	andeq	r1, r4, r1
    3d34:	120d0100 	andne	r0, sp, #0
    3d38:	00000513 	andeq	r0, r0, r3, lsl r5
    3d3c:	009d6410 	addseq	r6, sp, r0, lsl r4
    3d40:	00052a00 	andeq	r2, r5, r0, lsl #20
    3d44:	50011100 	andpl	r1, r1, r0, lsl #2
    3d48:	00007702 	andeq	r7, r0, r2, lsl #14
    3d4c:	9d5c1200 	lfmls	f1, 2, [ip, #-0]
    3d50:	05360000 	ldreq	r0, [r6, #-0]!
    3d54:	70120000 	andsvc	r0, r2, r0
    3d58:	3600009d 			; <UNDEFINED> instruction: 0x3600009d
    3d5c:	00000005 	andeq	r0, r0, r5
    3d60:	00000000 	andeq	r0, r0, r0
    3d64:	0008ea1f 	andeq	lr, r8, pc, lsl sl
    3d68:	0008ea00 	andeq	lr, r8, r0, lsl #20
    3d6c:	0ac20200 	beq	ff084574 <__bss_end__+0xff07921c>
    3d70:	0008c01f 	andeq	ip, r8, pc, lsl r0
    3d74:	0008c000 	andeq	ip, r8, r0
    3d78:	069c0200 	ldreq	r0, [ip], r0, lsl #4
    3d7c:	0005cd00 	andeq	ip, r5, r0, lsl #26
    3d80:	41000400 	tstmi	r0, r0, lsl #8
    3d84:	04000016 	streq	r0, [r0], #-22	; 0xffffffea
    3d88:	000a1b01 	andeq	r1, sl, r1, lsl #22
    3d8c:	095a0c00 	ldmdbeq	sl, {sl, fp}^
    3d90:	09cb0000 	stmibeq	fp, {}^	; <UNPREDICTABLE>
    3d94:	9dd40000 	ldclls	0, cr0, [r4]
    3d98:	01f00000 	mvnseq	r0, r0
    3d9c:	204b0000 	subcs	r0, fp, r0
    3da0:	04020000 	streq	r0, [r2], #-0
    3da4:	746e6905 	strbtvc	r6, [lr], #-2309	; 0xfffff6fb
    3da8:	07040300 	streq	r0, [r4, -r0, lsl #6]
    3dac:	000001e2 	andeq	r0, r0, r2, ror #3
    3db0:	00002c04 	andeq	r2, r0, r4, lsl #24
    3db4:	06010300 	streq	r0, [r1], -r0, lsl #6
    3db8:	00000058 	andeq	r0, r0, r8, asr r0
    3dbc:	22050203 	andcs	r0, r5, #805306368	; 0x30000000
    3dc0:	03000002 	movweq	r0, #2
    3dc4:	02060504 	andeq	r0, r6, #4, 10	; 0x1000000
    3dc8:	08030000 	stmdaeq	r3, {}	; <UNPREDICTABLE>
    3dcc:	00020105 	andeq	r0, r2, r5, lsl #2
    3dd0:	08010300 	stmdaeq	r1, {r8, r9}
    3dd4:	00000056 	andeq	r0, r0, r6, asr r0
    3dd8:	71070203 	tstvc	r7, r3, lsl #4
    3ddc:	05000000 	streq	r0, [r0, #-0]
    3de0:	00000267 	andeq	r0, r0, r7, ror #4
    3de4:	6e193405 	cfmulsvs	mvf3, mvf9, mvf5
    3de8:	03000000 	movweq	r0, #0
    3dec:	01dd0704 	bicseq	r0, sp, r4, lsl #14
    3df0:	08030000 	stmdaeq	r3, {}	; <UNPREDICTABLE>
    3df4:	0001d807 	andeq	sp, r1, r7, lsl #16
    3df8:	08010300 	stmdaeq	r1, {r8, r9}
    3dfc:	0000005f 	andeq	r0, r0, pc, asr r0
    3e00:	54010706 	strpl	r0, [r1], #-1798	; 0xfffff8fa
    3e04:	04000000 	streq	r0, [r0], #-0
    3e08:	00c20e0c 	sbceq	r0, r2, ip, lsl #28
    3e0c:	05070000 	streq	r0, [r7, #-0]
    3e10:	0000000b 	andeq	r0, r0, fp
    3e14:	00093d07 	andeq	r3, r9, r7, lsl #26
    3e18:	80070100 	andhi	r0, r7, r0, lsl #2
    3e1c:	04000009 	streq	r0, [r0], #-9
    3e20:	00098f07 	andeq	r8, r9, r7, lsl #30
    3e24:	9e070500 	cfsh32ls	mvfx0, mvfx7, #0
    3e28:	06000009 	streq	r0, [r0], -r9
    3e2c:	0009ad07 	andeq	sl, r9, r7, lsl #26
    3e30:	ce070700 	cdpgt	7, 0, cr0, cr7, cr0, {0}
    3e34:	0300000a 	movweq	r0, #10
    3e38:	0009bc07 	andeq	fp, r9, r7, lsl #24
    3e3c:	08000200 	stmdaeq	r0, {r9}
    3e40:	0000094e 	andeq	r0, r0, lr, asr #18
    3e44:	0806022c 	stmdaeq	r6, {r2, r3, r5, r9}
    3e48:	0000015e 	andeq	r0, r0, lr, asr r1
    3e4c:	006f6909 	rsbeq	r6, pc, r9, lsl #18
    3e50:	33090902 	movwcc	r0, #39170	; 0x9902
    3e54:	00000000 	andeq	r0, r0, r0
    3e58:	72656909 	rsbvc	r6, r5, #147456	; 0x24000
    3e5c:	090a0200 	stmdbeq	sl, {r9}
    3e60:	00000033 	andeq	r0, r0, r3, lsr r0
    3e64:	69690904 	stmdbvs	r9!, {r2, r8, fp}^
    3e68:	11020072 	tstne	r2, r2, ror r0
    3e6c:	00003309 	andeq	r3, r0, r9, lsl #6
    3e70:	6c090800 	stcvs	8, cr0, [r9], {-0}
    3e74:	02007263 	andeq	r7, r0, #805306374	; 0x30000006
    3e78:	00330913 	eorseq	r0, r3, r3, lsl r9
    3e7c:	090c0000 	stmdbeq	ip, {}	; <UNPREDICTABLE>
    3e80:	0072636d 	rsbseq	r6, r2, sp, ror #6
    3e84:	33091402 	movwcc	r1, #37890	; 0x9402
    3e88:	10000000 	andne	r0, r0, r0
    3e8c:	72736c09 	rsbsvc	r6, r3, #2304	; 0x900
    3e90:	09150200 	ldmdbeq	r5, {r9}
    3e94:	00000033 	andeq	r0, r0, r3, lsr r0
    3e98:	736d0914 	cmnvc	sp, #20, 18	; 0x50000
    3e9c:	16020072 			; <UNDEFINED> instruction: 0x16020072
    3ea0:	00003309 	andeq	r3, r0, r9, lsl #6
    3ea4:	e50a1800 	str	r1, [sl, #-2048]	; 0xfffff800
    3ea8:	0200000a 	andeq	r0, r0, #10, 0
    3eac:	00330917 	eorseq	r0, r3, r7, lsl r9
    3eb0:	0a1c0000 	beq	703eb8 <__bss_end__+0x6f8b60>
    3eb4:	00000aae 	andeq	r0, r0, lr, lsr #21
    3eb8:	33091b02 	movwcc	r1, #39682	; 0x9b02
    3ebc:	20000000 	andcs	r0, r0, r0
    3ec0:	00092a0a 	andeq	r2, r9, sl, lsl #20
    3ec4:	091d0200 	ldmdbeq	sp, {r9}
    3ec8:	00000033 	andeq	r0, r0, r3, lsr r0
    3ecc:	0a000a24 	beq	6764 <__code_start__-0x189c>
    3ed0:	1e020000 	cdpne	0, 0, cr0, cr2, cr0, {0}
    3ed4:	00003309 	andeq	r3, r0, r9, lsl #6
    3ed8:	0b002800 	bleq	dee0 <__bss_end__+0x2b88>
    3edc:	00000a05 	andeq	r0, r0, r5, lsl #20
    3ee0:	74090801 	strvc	r0, [r9], #-2049	; 0xfffff7ff
    3ee4:	04000001 	streq	r0, [r0], #-1
    3ee8:	0c202150 	stfeqs	f2, [r0], #-320	; 0xfffffec0
    3eec:	00003304 	andeq	r3, r0, r4, lsl #6
    3ef0:	016e0d00 	cmneq	lr, r0, lsl #26
    3ef4:	ed0b0000 	stc	0, cr0, [fp, #-0]
    3ef8:	0100000a 	tsteq	r0, sl
    3efc:	018f2329 	orreq	r2, pc, r9, lsr #6
    3f00:	50400000 	subpl	r0, r0, r0
    3f04:	040c2021 	streq	r2, [ip], #-33	; 0xffffffdf
    3f08:	000000c2 	andeq	r0, r0, r2, asr #1
    3f0c:	0001890d 	andeq	r8, r1, sp, lsl #18
    3f10:	07c30e00 	strbeq	r0, [r3, r0, lsl #28]
    3f14:	cc010000 	stcgt	0, cr0, [r1], {-0}
    3f18:	009f8c06 	addseq	r8, pc, r6, lsl #24
    3f1c:	00001400 	andeq	r1, r0, r0, lsl #8
    3f20:	b49c0100 	ldrlt	r0, [ip], #256	; 0x100
    3f24:	0f000001 	svceq	0x00000001
    3f28:	00009f94 	muleq	r0, r4, pc	; <UNPREDICTABLE>
    3f2c:	000001b4 			; <UNDEFINED> instruction: 0x000001b4
    3f30:	096f1000 	stmdbeq	pc!, {ip}^	; <UNPREDICTABLE>
    3f34:	b6010000 	strlt	r0, [r1], -r0
    3f38:	00002505 	andeq	r2, r0, r5, lsl #10
    3f3c:	009f6c00 	addseq	r6, pc, r0, lsl #24
    3f40:	00002000 	andeq	r2, r0, r0
    3f44:	eb9c0100 	bl	fe70434c <__bss_end__+0xfe6f8ff4>
    3f48:	0f000001 	svceq	0x00000001
    3f4c:	00009f74 	andeq	r9, r0, r4, ror pc
    3f50:	000005a0 	andeq	r0, r0, r0, lsr #11
    3f54:	009f7c11 	addseq	r7, pc, r1, lsl ip	; <UNPREDICTABLE>
    3f58:	0005ac00 	andeq	sl, r5, r0, lsl #24
    3f5c:	50011200 	andpl	r1, r1, r0, lsl #4
    3f60:	50640c05 	rsbpl	r0, r4, r5, lsl #24
    3f64:	00002021 	andeq	r2, r0, r1, lsr #32
    3f68:	000ac010 	andeq	ip, sl, r0, lsl r0
    3f6c:	05b30100 	ldreq	r0, [r3, #256]!	; 0x100
    3f70:	00000025 	andeq	r0, r0, r5, lsr #32
    3f74:	00009f5c 	andeq	r9, r0, ip, asr pc
    3f78:	00000010 	andeq	r0, r0, r0, lsl r0
    3f7c:	02189c01 	andseq	r9, r8, #256	; 0x100
    3f80:	640f0000 	strvs	r0, [pc], #-0	; 3f88 <__code_start__-0x4078>
    3f84:	a000009f 	mulge	r0, pc, r0	; <UNPREDICTABLE>
    3f88:	0f000005 	svceq	0x00000005
    3f8c:	00009f68 	andeq	r9, r0, r8, ror #30
    3f90:	00000309 	andeq	r0, r0, r9, lsl #6
    3f94:	0afb0e00 	beq	ffec779c <__bss_end__+0xffebc444>
    3f98:	ab010000 	blge	43fa0 <__bss_end__+0x38c48>
    3f9c:	009f2c06 	addseq	r2, pc, r6, lsl #24
    3fa0:	00003000 	andeq	r3, r0, r0
    3fa4:	7c9c0100 	ldfvcs	f0, [ip], {0}
    3fa8:	13000002 	movwne	r0, #2
    3fac:	ab010063 	blge	44140 <__bss_end__+0x38de8>
    3fb0:	00002c19 	andeq	r2, r0, r9, lsl ip
    3fb4:	00281a00 	eoreq	r1, r8, r0, lsl #20
    3fb8:	00281600 	eoreq	r1, r8, r0, lsl #12
    3fbc:	9f380f00 	svcls	0x00380f00
    3fc0:	05a00000 	streq	r0, [r0, #0]!
    3fc4:	3c0f0000 	stccc	0, cr0, [pc], {-0}
    3fc8:	db00009f 	blle	424c <__code_start__-0x3db4>
    3fcc:	14000002 	strne	r0, [r0], #-2
    3fd0:	00009f50 	andeq	r9, r0, r0, asr pc
    3fd4:	000005b8 			; <UNDEFINED> instruction: 0x000005b8
    3fd8:	00000272 	andeq	r0, r0, r2, ror r2
    3fdc:	05500112 	ldrbeq	r0, [r0, #-274]	; 0xfffffeee
    3fe0:	2150400c 	cmpcs	r0, ip
    3fe4:	51011220 	tstpl	r1, r0, lsr #4
    3fe8:	08007405 	stmdaeq	r0, {r0, r2, sl, ip, sp, lr}
    3fec:	0f001aff 	svceq	0x00001aff
    3ff0:	00009f54 	andeq	r9, r0, r4, asr pc
    3ff4:	000005a0 	andeq	r0, r0, r0, lsr #11
    3ff8:	0a111000 	beq	448000 <__bss_end__+0x43cca8>
    3ffc:	a3010000 	movwge	r0, #4096	; 0x1000
    4000:	00002505 	andeq	r2, r0, r5, lsl #10
    4004:	009efc00 	addseq	pc, lr, r0, lsl #24
    4008:	00003000 	andeq	r3, r0, r0
    400c:	db9c0100 	blle	fe704414 <__bss_end__+0xfe6f90bc>
    4010:	15000002 	strne	r0, [r0, #-2]
    4014:	a7010063 	strge	r0, [r1, -r3, rrx]
    4018:	00002509 	andeq	r2, r0, r9, lsl #10
    401c:	00283a00 	eoreq	r3, r8, r0, lsl #20
    4020:	00283800 	eoreq	r3, r8, r0, lsl #16
    4024:	9f040f00 	svcls	0x00040f00
    4028:	05a00000 	streq	r0, [r0, #0]!
    402c:	080f0000 	stmdaeq	pc, {}	; <UNPREDICTABLE>
    4030:	0900009f 	stmdbeq	r0, {r0, r1, r2, r3, r4, r7}
    4034:	14000003 	strne	r0, [r0], #-3
    4038:	00009f18 	andeq	r9, r0, r8, lsl pc
    403c:	000005ac 	andeq	r0, r0, ip, lsr #11
    4040:	000002d1 	ldrdeq	r0, [r0], -r1
    4044:	05500112 	ldrbeq	r0, [r0, #-274]	; 0xfffffeee
    4048:	2150400c 	cmpcs	r0, ip
    404c:	200f0020 	andcs	r0, pc, r0, lsr #32
    4050:	a000009f 	mulge	r0, pc, r0	; <UNPREDICTABLE>
    4054:	00000005 	andeq	r0, r0, r5
    4058:	00096110 	andeq	r6, r9, r0, lsl r1
    405c:	05940100 	ldreq	r0, [r4, #256]	; 0x100
    4060:	00000025 	andeq	r0, r0, r5, lsr #32
    4064:	00009edc 	ldrdeq	r9, [r0], -ip
    4068:	00000020 	andeq	r0, r0, r0, lsr #32
    406c:	03099c01 	movweq	r9, #39937	; 0x9c01
    4070:	e8110000 	ldmda	r1, {}	; <UNPREDICTABLE>
    4074:	ac00009e 	stcge	0, cr0, [r0], {158}	; 0x9e
    4078:	12000005 	andne	r0, r0, #5, 0
    407c:	0c055001 	stceq	0, cr5, [r5], {1}
    4080:	20215064 	eorcs	r5, r1, r4, rrx
    4084:	2f100000 	svccs	0x00100000
    4088:	01000009 	tsteq	r0, r9
    408c:	0025058b 	eoreq	r0, r5, fp, lsl #11
    4090:	9ec40000 	cdpls	0, 12, cr0, cr4, cr0, {0}
    4094:	00180000 	andseq	r0, r8, r0
    4098:	9c010000 	stcls	0, cr0, [r1], {-0}
    409c:	00000337 	andeq	r0, r0, r7, lsr r3
    40a0:	009ed011 	addseq	sp, lr, r1, lsl r0
    40a4:	0005ac00 	andeq	sl, r5, r0, lsl #24
    40a8:	50011200 	andpl	r1, r1, r0, lsl #4
    40ac:	50640c05 	rsbpl	r0, r4, r5, lsl #24
    40b0:	00002021 	andeq	r2, r0, r1, lsr #32
    40b4:	0007e10e 	andeq	lr, r7, lr, lsl #2
    40b8:	06450100 	strbeq	r0, [r5], -r0, lsl #2
    40bc:	00009e14 	andeq	r9, r0, r4, lsl lr
    40c0:	000000b0 	strheq	r0, [r0], -r0	; <UNPREDICTABLE>
    40c4:	04849c01 	streq	r9, [r4], #3073	; 0xc01
    40c8:	21160000 	tstcs	r6, r0
    40cc:	01000009 	tsteq	r0, r9
    40d0:	00620e7e 	rsbeq	r0, r2, lr, ror lr
    40d4:	010e0000 	mrseq	r0, (UNDEF: 14)
    40d8:	009e2414 	addseq	r2, lr, r4, lsl r4
    40dc:	0005c400 	andeq	ip, r5, r0, lsl #8
    40e0:	00037300 	andeq	r7, r3, r0, lsl #6
    40e4:	50011200 	andpl	r1, r1, r0, lsl #4
    40e8:	01123e01 	tsteq	r2, r1, lsl #28
    40ec:	00320151 	eorseq	r0, r2, r1, asr r1
    40f0:	009e3014 	addseq	r3, lr, r4, lsl r0
    40f4:	0005c400 	andeq	ip, r5, r0, lsl #8
    40f8:	00038b00 	andeq	r8, r3, r0, lsl #22
    40fc:	50011200 	andpl	r1, r1, r0, lsl #4
    4100:	01123f01 	tsteq	r2, r1, lsl #30
    4104:	00320151 	eorseq	r0, r2, r1, asr r1
    4108:	009e340f 	addseq	r3, lr, pc, lsl #8
    410c:	0005a000 	andeq	sl, r5, r0
    4110:	9e401400 	cdpls	4, 4, cr1, cr0, cr0, {0}
    4114:	053d0000 	ldreq	r0, [sp, #-0]!
    4118:	03b00000 	movseq	r0, #0, 0
    411c:	01120000 	tsteq	r2, r0
    4120:	040c0550 	streq	r0, [ip], #-1360	; 0xfffffab0
    4124:	12202150 	eorne	r2, r0, #20
    4128:	31015101 	tstcc	r1, r1, lsl #2
    412c:	9e440f00 	cdpls	15, 4, cr0, cr4, cr0, {0}
    4130:	05a00000 	streq	r0, [r0, #0]!
    4134:	54140000 	ldrpl	r0, [r4], #-0
    4138:	b800009e 	stmdalt	r0, {r1, r2, r3, r4, r7}
    413c:	d2000005 	andle	r0, r0, #5, 0
    4140:	12000003 	andne	r0, r0, #3, 0
    4144:	74025001 	strvc	r5, [r2], #-1
    4148:	51011200 	mrspl	r1, R9_usr
    414c:	14003001 	strne	r3, [r0], #-1
    4150:	00009e60 	andeq	r9, r0, r0, ror #28
    4154:	000005b8 			; <UNDEFINED> instruction: 0x000005b8
    4158:	000003ee 	andeq	r0, r0, lr, ror #7
    415c:	05500112 	ldrbeq	r0, [r0, #-274]	; 0xfffffeee
    4160:	2150440c 	cmpcs	r0, ip, lsl #8
    4164:	51011220 	tstpl	r1, r0, lsr #4
    4168:	14003001 	strne	r3, [r0], #-1
    416c:	00009e6c 	andeq	r9, r0, ip, ror #28
    4170:	000005b8 			; <UNDEFINED> instruction: 0x000005b8
    4174:	0000040a 	andeq	r0, r0, sl, lsl #8
    4178:	05500112 	ldrbeq	r0, [r0, #-274]	; 0xfffffeee
    417c:	21504c0c 	cmpcs	r0, ip, lsl #24
    4180:	51011220 	tstpl	r1, r0, lsr #4
    4184:	14003301 	strne	r3, [r0], #-769	; 0xfffffcff
    4188:	00009e78 	andeq	r9, r0, r8, ror lr
    418c:	000005b8 			; <UNDEFINED> instruction: 0x000005b8
    4190:	00000426 	andeq	r0, r0, r6, lsr #8
    4194:	05500112 	ldrbeq	r0, [r0, #-274]	; 0xfffffeee
    4198:	2150500c 	cmpcs	r0, ip
    419c:	51011220 	tstpl	r1, r0, lsr #4
    41a0:	14003001 	strne	r3, [r0], #-1
    41a4:	00009e84 	andeq	r9, r0, r4, lsl #29
    41a8:	000005b8 			; <UNDEFINED> instruction: 0x000005b8
    41ac:	00000443 	andeq	r0, r0, r3, asr #8
    41b0:	05500112 	ldrbeq	r0, [r0, #-274]	; 0xfffffeee
    41b4:	2150480c 	cmpcs	r0, ip, lsl #16
    41b8:	51011220 	tstpl	r1, r0, lsr #4
    41bc:	00c70802 	sbceq	r0, r7, r2, lsl #16
    41c0:	009e9014 	addseq	r9, lr, r4, lsl r0
    41c4:	0005b800 	andeq	fp, r5, r0, lsl #16
    41c8:	00046100 	andeq	r6, r4, r0, lsl #2
    41cc:	50011200 	andpl	r1, r1, r0, lsl #4
    41d0:	50680c05 	rsbpl	r0, r8, r5, lsl #24
    41d4:	01122021 	tsteq	r2, r1, lsr #32
    41d8:	0e0a0351 	mcreq	3, 0, r0, cr10, cr1, {2}
    41dc:	9c140001 	ldcls	0, cr0, [r4], {1}
    41e0:	b800009e 	stmdalt	r0, {r1, r2, r3, r4, r7}
    41e4:	7a000005 	bvc	4200 <__code_start__-0x3e00>
    41e8:	12000004 	andne	r0, r0, #4, 0
    41ec:	74025001 	strvc	r5, [r2], #-1
    41f0:	51011200 	mrspl	r1, R9_usr
    41f4:	0f003301 	svceq	0x00003301
    41f8:	00009ea0 	andeq	r9, r0, r0, lsr #29
    41fc:	000005a0 	andeq	r0, r0, r0, lsr #11
    4200:	0ab30e00 	beq	fecc7a08 <__bss_end__+0xfecbc6b0>
    4204:	35010000 	strcc	r0, [r1, #-0]
    4208:	009fa006 	addseq	sl, pc, r6
    420c:	00002400 	andeq	r2, r0, r0, lsl #8
    4210:	d39c0100 	orrsle	r0, ip, #0
    4214:	0f000004 	svceq	0x00000004
    4218:	00009fa8 	andeq	r9, r0, r8, lsr #31
    421c:	00000194 	muleq	r0, r4, r1
    4220:	009fac0f 	addseq	sl, pc, pc, lsl #24
    4224:	0005a000 	andeq	sl, r5, r0
    4228:	9fb81400 	svcls	0x00b81400
    422c:	04d30000 	ldrbeq	r0, [r3], #0
    4230:	04c90000 	strbeq	r0, [r9], #0
    4234:	01120000 	tsteq	r2, r0
    4238:	040c0550 	streq	r0, [ip], #-1360	; 0xfffffab0
    423c:	12202150 	eorne	r2, r0, #20
    4240:	09025101 	stmdbeq	r2, {r0, r8, ip, lr}
    4244:	bc0f00fe 	stclt	0, cr0, [pc], {254}	; 0xfe
    4248:	a000009f 	mulge	r0, pc, r0	; <UNPREDICTABLE>
    424c:	00000005 	andeq	r0, r0, r5
    4250:	000af217 	andeq	pc, sl, r7, lsl r2	; <UNPREDICTABLE>
    4254:	0d310100 	ldfeqs	f0, [r1, #-0]
    4258:	00009dd4 	ldrdeq	r9, [r0], -r4
    425c:	00000020 	andeq	r0, r0, r0, lsr #32
    4260:	05369c01 	ldreq	r9, [r6, #-3073]!	; 0xfffff3ff
    4264:	22180000 	andscs	r0, r8, #0, 0
    4268:	01000006 	tsteq	r0, r6
    426c:	05362531 	ldreq	r2, [r6, #-1329]!	; 0xfffffacf
    4270:	28510000 	ldmdacs	r1, {}^	; <UNPREDICTABLE>
    4274:	284d0000 	stmdacs	sp, {}^	; <UNPREDICTABLE>
    4278:	76130000 	ldrvc	r0, [r3], -r0
    427c:	01006c61 	tsteq	r0, r1, ror #24
    4280:	002c3431 	eoreq	r3, ip, r1, lsr r4
    4284:	28730000 	ldmdacs	r3!, {}^	; <UNPREDICTABLE>
    4288:	286f0000 	stmdacs	pc!, {}^	; <UNPREDICTABLE>
    428c:	e4140000 	ldr	r0, [r4], #-0
    4290:	ac00009d 	stcge	0, cr0, [r0], {157}	; 0x9d
    4294:	25000005 	strcs	r0, [r0, #-5]
    4298:	12000005 	andne	r0, r0, #5, 0
    429c:	74025001 	strvc	r5, [r2], #-1
    42a0:	f0110000 			; <UNDEFINED> instruction: 0xf0110000
    42a4:	b800009d 	stmdalt	r0, {r0, r2, r3, r4, r7}
    42a8:	12000005 	andne	r0, r0, #5, 0
    42ac:	74025001 	strvc	r5, [r2], #-1
    42b0:	0c000000 	stceq	0, cr0, [r0], {-0}
    42b4:	00053c04 	andeq	r3, r5, r4, lsl #24
    42b8:	dd171900 	vldrle.16	s2, [r7, #-0]	; <UNPREDICTABLE>
    42bc:	0100000a 	tsteq	r0, sl
    42c0:	9df40d2e 	ldclls	13, cr0, [r4, #184]!	; 0xb8
    42c4:	00200000 	eoreq	r0, r0, r0
    42c8:	9c010000 	stcls	0, cr0, [r1], {-0}
    42cc:	000005a0 	andeq	r0, r0, r0, lsr #11
    42d0:	00062218 	andeq	r2, r6, r8, lsl r2
    42d4:	242e0100 	strtcs	r0, [lr], #-256	; 0xffffff00
    42d8:	00000536 	andeq	r0, r0, r6, lsr r5
    42dc:	00002895 	muleq	r0, r5, r8
    42e0:	00002891 	muleq	r0, r1, r8
    42e4:	6c617613 	stclvs	6, cr7, [r1], #-76	; 0xffffffb4
    42e8:	332e0100 			; <UNDEFINED> instruction: 0x332e0100
    42ec:	0000002c 	andeq	r0, r0, ip, lsr #32
    42f0:	000028b7 			; <UNDEFINED> instruction: 0x000028b7
    42f4:	000028b3 			; <UNDEFINED> instruction: 0x000028b3
    42f8:	009e0414 	addseq	r0, lr, r4, lsl r4
    42fc:	0005ac00 	andeq	sl, r5, r0, lsl #24
    4300:	00058f00 	andeq	r8, r5, r0, lsl #30
    4304:	50011200 	andpl	r1, r1, r0, lsl #4
    4308:	00007402 	andeq	r7, r0, r2, lsl #8
    430c:	009e1011 	addseq	r1, lr, r1, lsl r0
    4310:	0005b800 	andeq	fp, r5, r0, lsl #16
    4314:	50011200 	andpl	r1, r1, r0, lsl #4
    4318:	00007402 	andeq	r7, r0, r2, lsl #8
    431c:	08c01a00 	stmiaeq	r0, {r9, fp, ip}^
    4320:	08c00000 	stmiaeq	r0, {}^	; <UNPREDICTABLE>
    4324:	9c030000 	stcls	0, cr0, [r3], {-0}
    4328:	0b271a06 	bleq	9cab48 <__bss_end__+0x9bf7f0>
    432c:	0b270000 	bleq	9c4334 <__bss_end__+0x9b8fdc>
    4330:	c3030000 	movwgt	r0, #12288	; 0x3000
    4334:	091b1a0b 	ldmdbeq	fp, {r0, r1, r3, r9, fp, ip}
    4338:	091b0000 	ldmdbeq	fp, {}	; <UNPREDICTABLE>
    433c:	ae030000 	cdpge	0, 0, cr0, cr3, cr0, {0}
    4340:	0b151a06 	bleq	54ab60 <__bss_end__+0x53f808>
    4344:	0b150000 	bleq	54434c <__bss_end__+0x538ff4>
    4348:	19040000 	stmdbne	r4, {}	; <UNPREDICTABLE>
    434c:	08e90006 	stmiaeq	r9!, {r1, r2}^
    4350:	00040000 	andeq	r0, r4, r0
    4354:	000017d9 	ldrdeq	r1, [r0], -r9
    4358:	0a1b0104 	beq	6c4770 <__bss_end__+0x6b9418>
    435c:	b10c0000 	mrslt	r0, (UNDEF: 12)
    4360:	cb00000b 	blgt	4394 <__code_start__-0x3c6c>
    4364:	c4000009 	strgt	r0, [r0], #-9
    4368:	b000009f 	mullt	r0, pc, r0	; <UNPREDICTABLE>
    436c:	53000003 	movwpl	r0, #3
    4370:	02000022 	andeq	r0, r0, #34, 0	; 0x22
    4374:	6e690504 	cdpvs	5, 6, cr0, cr9, cr4, {0}
    4378:	04030074 	streq	r0, [r3], #-116	; 0xffffff8c
    437c:	0001e207 	andeq	lr, r1, r7, lsl #4
    4380:	06010300 	streq	r0, [r1], -r0, lsl #6
    4384:	00000058 	andeq	r0, r0, r8, asr r0
    4388:	22050203 	andcs	r0, r5, #805306368	; 0x30000000
    438c:	03000002 	movweq	r0, #2
    4390:	02060504 	andeq	r0, r6, #4, 10	; 0x1000000
    4394:	08030000 	stmdaeq	r3, {}	; <UNPREDICTABLE>
    4398:	00020105 	andeq	r0, r2, r5, lsl #2
    439c:	08010300 	stmdaeq	r1, {r8, r9}
    43a0:	00000056 	andeq	r0, r0, r6, asr r0
    43a4:	71070203 	tstvc	r7, r3, lsl #4
    43a8:	04000000 	streq	r0, [r0], #-0
    43ac:	00000267 	andeq	r0, r0, r7, ror #4
    43b0:	69193403 	ldmdbvs	r9, {r0, r1, sl, ip, sp}
    43b4:	03000000 	movweq	r0, #0
    43b8:	01dd0704 	bicseq	r0, sp, r4, lsl #14
    43bc:	08030000 	stmdaeq	r3, {}	; <UNPREDICTABLE>
    43c0:	0001d807 	andeq	sp, r1, r7, lsl #16
    43c4:	08010300 	stmdaeq	r1, {r8, r9}
    43c8:	0000005f 	andeq	r0, r0, pc, asr r0
    43cc:	00007705 	andeq	r7, r0, r5, lsl #14
    43d0:	04080300 	streq	r0, [r8], #-768	; 0xfffffd00
    43d4:	000003b8 			; <UNDEFINED> instruction: 0x000003b8
    43d8:	07070406 	streq	r0, [r7, -r6, lsl #8]
    43dc:	00002c04 	andeq	r2, r0, r4, lsl #24
    43e0:	061f0100 	ldreq	r0, [pc], -r0, lsl #2
    43e4:	000000a4 	andeq	r0, r0, r4, lsr #1
    43e8:	000b4b08 	andeq	r4, fp, r8, lsl #22
    43ec:	20000000 	andcs	r0, r0, r0
    43f0:	03090000 	movweq	r0, #36864	; 0x9000
    43f4:	01000003 	tsteq	r0, r3
    43f8:	00770d22 	rsbseq	r0, r7, r2, lsr #26
    43fc:	ad0a0000 	stcge	0, cr0, [sl, #-0]
    4400:	01000004 	tsteq	r0, r4
    4404:	00c20e23 	sbceq	r0, r2, r3, lsr #28
    4408:	03050000 	movweq	r0, #20480	; 0x5000
    440c:	0000af18 	andeq	sl, r0, r8, lsl pc
    4410:	0077040b 	rsbseq	r0, r7, fp, lsl #8
    4414:	350a0000 	strcc	r0, [sl, #-0]
    4418:	0100000b 	tsteq	r0, fp
    441c:	00c20e24 	sbceq	r0, r2, r4, lsr #28
    4420:	03050000 	movweq	r0, #20480	; 0x5000
    4424:	0000af1c 	andeq	sl, r0, ip, lsl pc
    4428:	000b900a 	andeq	r9, fp, sl
    442c:	0e250100 	sufeqs	f0, f5, f0
    4430:	000000c2 	andeq	r0, r0, r2, asr #1
    4434:	af200305 	svcge	0x00200305
    4438:	660c0000 	strvs	r0, [ip], -r0
    443c:	0100000b 	tsteq	r0, fp
    4440:	a3140675 	tstge	r4, #122683392	; 0x7500000
    4444:	00600000 	rsbeq	r0, r0, r0
    4448:	9c010000 	stcls	0, cr0, [r1], {-0}
    444c:	00000164 	andeq	r0, r0, r4, ror #2
    4450:	0100700d 	tsteq	r0, sp
    4454:	008a1675 	addeq	r1, sl, r5, ror r6
    4458:	28db0000 	ldmcs	fp, {}^	; <UNPREDICTABLE>
    445c:	28d50000 	ldmcs	r5, {}^	; <UNPREDICTABLE>
    4460:	bb0e0000 	bllt	384468 <__bss_end__+0x379110>
    4464:	74000001 	strvc	r0, [r0], #-1
    4468:	05000001 	streq	r0, [r0, #-1]
    446c:	00af0803 	adceq	r0, pc, r3, lsl #16
    4470:	a3600f00 	cmnge	r0, #0, 30
    4474:	08bc0000 	ldmeq	ip!, {}	; <UNPREDICTABLE>
    4478:	015a0000 	cmpeq	sl, r0
    447c:	01100000 	tsteq	r0, r0
    4480:	80030550 	andhi	r0, r3, r0, asr r5
    4484:	100000ae 	andne	r0, r0, lr, lsr #1
    4488:	03055101 	movweq	r5, #20737	; 0x5101
    448c:	0000ad18 	andeq	sl, r0, r8, lsl sp
    4490:	05520110 	ldrbeq	r0, [r2, #-272]	; 0xfffffef0
    4494:	00af0803 	adceq	r0, pc, r3, lsl #16
    4498:	53011000 	movwpl	r1, #4096	; 0x1000
    449c:	10770802 	rsbsne	r0, r7, r2, lsl #16
    44a0:	03007d02 	movweq	r7, #3330	; 0xd02
    44a4:	005001f3 	ldrsheq	r0, [r0], #-19	; 0xffffffed
    44a8:	00a36411 	adceq	r6, r3, r1, lsl r4
    44ac:	0008c800 	andeq	ip, r8, r0, lsl #16
    44b0:	7e120000 	cdpvc	0, 1, cr0, cr2, cr0, {0}
    44b4:	74000000 	strvc	r0, [r0], #-0
    44b8:	13000001 	movwne	r0, #1
    44bc:	0000002c 	andeq	r0, r0, ip, lsr #32
    44c0:	64050009 	strvs	r0, [r5], #-9
    44c4:	14000001 	strne	r0, [r0], #-1
    44c8:	00000b54 	andeq	r0, r0, r4, asr fp
    44cc:	00067201 	andeq	r7, r6, r1, lsl #4
    44d0:	140000a3 	strne	r0, [r0], #-163	; 0xffffff5d
    44d4:	01000000 	mrseq	r0, (UNDEF: 0)
    44d8:	021c0c9c 	andseq	r0, ip, #156, 24	; 0x9c00
    44dc:	6f010000 	svcvs	0x00010000
    44e0:	00a2fc06 	adceq	pc, r2, r6, lsl #24
    44e4:	00000400 	andeq	r0, r0, r0, lsl #8
    44e8:	ae9c0100 	fmlgee	f0, f4, f0
    44ec:	15000001 	strne	r0, [r0, #-1]
    44f0:	6f010070 	svcvs	0x00010070
    44f4:	00008a12 	andeq	r8, r0, r2, lsl sl
    44f8:	00500100 	subseq	r0, r0, r0, lsl #2
    44fc:	000bf316 	andeq	pc, fp, r6, lsl r3	; <UNPREDICTABLE>
    4500:	075e0100 	ldrbeq	r0, [lr, -r0, lsl #2]
    4504:	0000008a 	andeq	r0, r0, sl, lsl #1
    4508:	0000a1e4 	andeq	sl, r0, r4, ror #3
    450c:	00000118 	andeq	r0, r0, r8, lsl r1
    4510:	042c9c01 	strteq	r9, [ip], #-3073	; 0xfffff3ff
    4514:	73170000 	tstvc	r7, #0, 0
    4518:	01000003 	tsteq	r0, r3
    451c:	002c205e 	eoreq	r2, ip, lr, asr r0
    4520:	291c0000 	ldmdbcs	ip, {}	; <UNPREDICTABLE>
    4524:	29080000 	stmdbcs	r8, {}	; <UNPREDICTABLE>
    4528:	70170000 	andsvc	r0, r7, r0
    452c:	0100000b 	tsteq	r0, fp
    4530:	002c315e 	eoreq	r3, ip, lr, asr r1
    4534:	29b50000 	ldmibcs	r5!, {}	; <UNPREDICTABLE>
    4538:	29a10000 	stmibcs	r1!, {}	; <UNPREDICTABLE>
    453c:	bb0e0000 	bllt	384544 <__bss_end__+0x3791ec>
    4540:	3c000001 	stccc	0, cr0, [r0], {1}
    4544:	05000004 	streq	r0, [r0, #-4]
    4548:	00aef003 	adceq	pc, lr, r3
    454c:	00681800 	rsbeq	r1, r8, r0, lsl #16
    4550:	2c0e6601 	stccs	6, cr6, [lr], {1}
    4554:	6b000000 	blvs	455c <__code_start__-0x3aa4>
    4558:	5f00002a 	svcpl	0x0000002a
    455c:	1900002a 	stmdbne	r0, {r1, r3, r5}
    4560:	00000854 	andeq	r0, r0, r4, asr r8
    4564:	0000a1f4 	strdeq	sl, [r0], -r4
    4568:	00a1f404 	adceq	pc, r1, r4, lsl #8
    456c:	00000400 	andeq	r0, r0, r0, lsl #8
    4570:	05600100 	strbeq	r0, [r0, #-256]!	; 0xffffff00
    4574:	00000238 	andeq	r0, r0, r8, lsr r2
    4578:	0008651a 	andeq	r6, r8, sl, lsl r5
    457c:	002abf00 	eoreq	fp, sl, r0, lsl #30
    4580:	002abd00 	eoreq	fp, sl, r0, lsl #26
    4584:	96190000 	ldrls	r0, [r9], -r0
    4588:	00000008 	andeq	r0, r0, r8
    458c:	020000a2 	andeq	r0, r0, #162, 0	; 0xa2
    4590:	0000a200 	andeq	sl, r0, r0, lsl #4
    4594:	00000008 	andeq	r0, r0, r8
    4598:	6c116101 	ldfvss	f6, [r1], {1}
    459c:	1a000002 	bne	45ac <__code_start__-0x3a54>
    45a0:	000008b1 			; <UNDEFINED> instruction: 0x000008b1
    45a4:	00002ad4 	ldrdeq	r2, [r0], -r4
    45a8:	00002ad2 	ldrdeq	r2, [r0], -r2	; <UNPREDICTABLE>
    45ac:	0008a71a 	andeq	sl, r8, sl, lsl r7
    45b0:	002aea00 	eoreq	lr, sl, r0, lsl #20
    45b4:	002ae800 	eoreq	lr, sl, r0, lsl #16
    45b8:	1f1b0000 	svcne	0x001b0000
    45bc:	10000008 	andne	r0, r0, r8
    45c0:	010000a2 	smlatbeq	r0, r2, r0, r0
    45c4:	000004a8 	andeq	r0, r0, r8, lsr #9
    45c8:	0a096701 	beq	25e1d4 <__bss_end__+0x252e7c>
    45cc:	1a000003 	bne	45e0 <__code_start__-0x3a20>
    45d0:	0000083a 	andeq	r0, r0, sl, lsr r8
    45d4:	00002b03 	andeq	r2, r0, r3, lsl #22
    45d8:	00002afd 	strdeq	r2, [r0], -sp
    45dc:	0008301a 	andeq	r3, r8, sl, lsl r0
    45e0:	002b4a00 	eoreq	r4, fp, r0, lsl #20
    45e4:	002b4200 	eoreq	r4, fp, r0, lsl #4
    45e8:	04a81c00 	strteq	r1, [r8], #3072	; 0xc00
    45ec:	54190000 	ldrpl	r0, [r9], #-0
    45f0:	10000008 	andne	r0, r0, r8
    45f4:	040000a2 	streq	r0, [r0], #-162	; 0xffffff5e
    45f8:	0000a210 	andeq	sl, r0, r0, lsl r2
    45fc:	00000004 	andeq	r0, r0, r4
    4600:	c7051101 	strgt	r1, [r5, -r1, lsl #2]
    4604:	1a000002 	bne	4614 <__code_start__-0x39ec>
    4608:	00000865 	andeq	r0, r0, r5, ror #16
    460c:	00002b88 	andeq	r2, r0, r8, lsl #23
    4610:	00002b86 	andeq	r2, r0, r6, lsl #23
    4614:	a2a80f00 	adcge	r0, r8, #0, 30
    4618:	08bc0000 	ldmeq	ip!, {}	; <UNPREDICTABLE>
    461c:	02ff0000 	rscseq	r0, pc, #0, 0
    4620:	01100000 	tsteq	r0, r0
    4624:	54030550 	strpl	r0, [r3], #-1360	; 0xfffffab0
    4628:	100000a7 	andne	r0, r0, r7, lsr #1
    462c:	03055101 	movweq	r5, #20737	; 0x5101
    4630:	0000ad18 	andeq	sl, r0, r8, lsl sp
    4634:	05520110 	ldrbeq	r0, [r2, #-272]	; 0xfffffef0
    4638:	00af0003 	adceq	r0, pc, r3
    463c:	53011000 	movwpl	r1, #4096	; 0x1000
    4640:	02104101 	andseq	r4, r0, #1073741824	; 0x40000000
    4644:	0305007d 	movweq	r0, #20605	; 0x507d
    4648:	0000ae2c 	andeq	sl, r0, ip, lsr #28
    464c:	a2ac1100 	adcge	r1, ip, #0
    4650:	08c80000 	stmiaeq	r8, {}^	; <UNPREDICTABLE>
    4654:	00000000 	andeq	r0, r0, r0
    4658:	00087019 	andeq	r7, r8, r9, lsl r0
    465c:	00a22800 	adceq	r2, r2, r0, lsl #16
    4660:	a2280300 	eorge	r0, r8, #0, 6
    4664:	00040000 	andeq	r0, r4, r0
    4668:	68010000 	stmdavs	r1, {}	; <UNPREDICTABLE>
    466c:	00033e05 	andeq	r3, r3, r5, lsl #28
    4670:	088b1a00 	stmeq	fp, {r9, fp, ip}
    4674:	2b9d0000 	blcs	fe74467c <__bss_end__+0xfe739324>
    4678:	2b9b0000 	blcs	fe6c4680 <__bss_end__+0xfe6b9328>
    467c:	811a0000 	tsthi	sl, r0
    4680:	b2000008 	andlt	r0, r0, #8, 0
    4684:	b000002b 	andlt	r0, r0, fp, lsr #32
    4688:	0000002b 	andeq	r0, r0, fp, lsr #32
    468c:	00a2400f 	adceq	r4, r2, pc
    4690:	00044100 	andeq	r4, r4, r0, lsl #2
    4694:	00035300 	andeq	r5, r3, r0, lsl #6
    4698:	50011000 	andpl	r1, r1, r0
    469c:	5001f303 	andpl	pc, r1, r3, lsl #6
    46a0:	a2640f00 	rsbge	r0, r4, #0, 30
    46a4:	08bc0000 	ldmeq	ip!, {}	; <UNPREDICTABLE>
    46a8:	038c0000 	orreq	r0, ip, #0, 0
    46ac:	01100000 	tsteq	r0, r0
    46b0:	54030550 	strpl	r0, [r3], #-1360	; 0xfffffab0
    46b4:	100000a7 	andne	r0, r0, r7, lsr #1
    46b8:	03055101 	movweq	r5, #20737	; 0x5101
    46bc:	0000ad18 	andeq	sl, r0, r8, lsl sp
    46c0:	05520110 	ldrbeq	r0, [r2, #-272]	; 0xfffffef0
    46c4:	00aef003 	adceq	pc, lr, r3
    46c8:	53011000 	movwpl	r1, #4096	; 0x1000
    46cc:	105f0802 	subsne	r0, pc, r2, lsl #16
    46d0:	05007d02 	streq	r7, [r0, #-3330]	; 0xfffff2fe
    46d4:	00ad2803 	adceq	r2, sp, r3, lsl #16
    46d8:	68110000 	ldmdavs	r1, {}	; <UNPREDICTABLE>
    46dc:	c80000a2 	stmdagt	r0, {r1, r5, r7}
    46e0:	11000008 	tstne	r0, r8
    46e4:	0000a26c 	andeq	sl, r0, ip, ror #4
    46e8:	000008d4 	ldrdeq	r0, [r0], -r4
    46ec:	00a2880f 	adceq	r8, r2, pc, lsl #16
    46f0:	0008bc00 	andeq	fp, r8, r0, lsl #24
    46f4:	0003d700 	andeq	sp, r3, r0, lsl #14
    46f8:	50011000 	andpl	r1, r1, r0
    46fc:	ade40305 	stclge	3, cr0, [r4, #20]!
    4700:	01100000 	tsteq	r0, r0
    4704:	18030551 	stmdane	r3, {r0, r4, r6, r8, sl}
    4708:	100000ad 	andne	r0, r0, sp, lsr #1
    470c:	03055201 	movweq	r5, #20993	; 0x5201
    4710:	0000aef0 	strdeq	sl, [r0], -r0
    4714:	02530110 	subseq	r0, r3, #4
    4718:	02106008 	andseq	r6, r0, #8, 0
    471c:	0305007d 	movweq	r0, #20605	; 0x507d
    4720:	0000ae18 	andeq	sl, r0, r8, lsl lr
    4724:	a28c1100 	addge	r1, ip, #0
    4728:	08c80000 	stmiaeq	r8, {}^	; <UNPREDICTABLE>
    472c:	b0110000 	andslt	r0, r1, r0
    4730:	d40000a2 	strle	r0, [r0], #-162	; 0xffffff5e
    4734:	0f000008 	svceq	0x00000008
    4738:	0000a2cc 	andeq	sl, r0, ip, asr #5
    473c:	000008bc 			; <UNDEFINED> instruction: 0x000008bc
    4740:	00000422 	andeq	r0, r0, r2, lsr #8
    4744:	05500110 	ldrbeq	r0, [r0, #-272]	; 0xfffffef0
    4748:	00ae3803 	adceq	r3, lr, r3, lsl #16
    474c:	51011000 	mrspl	r1, (UNDEF: 1)
    4750:	ad180305 	ldcge	3, cr0, [r8, #-20]	; 0xffffffec
    4754:	01100000 	tsteq	r0, r0
    4758:	f0030552 			; <UNDEFINED> instruction: 0xf0030552
    475c:	100000ae 	andne	r0, r0, lr, lsr #1
    4760:	08025301 	stmdaeq	r2, {r0, r8, r9, ip, lr}
    4764:	7d021068 	stcvc	0, cr1, [r2, #-416]	; 0xfffffe60
    4768:	64030500 	strvs	r0, [r3], #-1280	; 0xfffffb00
    476c:	000000ae 	andeq	r0, r0, lr, lsr #1
    4770:	00a2d011 	adceq	sp, r2, r1, lsl r0
    4774:	0008c800 	andeq	ip, r8, r0, lsl #16
    4778:	7e120000 	cdpvc	0, 1, cr0, cr2, cr0, {0}
    477c:	3c000000 	stccc	0, cr0, [r0], {-0}
    4780:	13000004 	movwne	r0, #4
    4784:	0000002c 	andeq	r0, r0, ip, lsr #32
    4788:	2c05000f 	stccs	0, cr0, [r5], {15}
    478c:	16000004 	strne	r0, [r0], -r4
    4790:	000004f5 	strdeq	r0, [r0], -r5
    4794:	8a075301 	bhi	1d93a0 <__bss_end__+0x1ce048>
    4798:	80000000 	andhi	r0, r0, r0
    479c:	640000a1 	strvs	r0, [r0], #-161	; 0xffffff5f
    47a0:	01000000 	mrseq	r0, (UNDEF: 0)
    47a4:	0005089c 	muleq	r5, ip, r8
    47a8:	03731700 	cmneq	r3, #0, 14
    47ac:	53010000 	movwpl	r0, #4096	; 0x1000
    47b0:	00002c18 	andeq	r2, r0, r8, lsl ip
    47b4:	002bcd00 	eoreq	ip, fp, r0, lsl #26
    47b8:	002bc500 	eoreq	ip, fp, r0, lsl #10
    47bc:	01bb0e00 			; <UNDEFINED> instruction: 0x01bb0e00
    47c0:	05180000 	ldreq	r0, [r8, #-0]
    47c4:	03050000 	movweq	r0, #20480	; 0x5000
    47c8:	0000aee8 	andeq	sl, r0, r8, ror #29
    47cc:	0006221d 	andeq	r2, r6, sp, lsl r2
    47d0:	0b550100 	bleq	1544bd8 <__bss_end__+0x1539880>
    47d4:	0000008a 	andeq	r0, r0, sl, lsl #1
    47d8:	00002c05 	andeq	r2, r0, r5, lsl #24
    47dc:	00002c01 	andeq	r2, r0, r1, lsl #24
    47e0:	00a1980f 	adceq	r9, r1, pc, lsl #16
    47e4:	00051d00 	andeq	r1, r5, r0, lsl #26
    47e8:	0004a600 	andeq	sl, r4, r0, lsl #12
    47ec:	50011000 	andpl	r1, r1, r0
    47f0:	00007402 	andeq	r7, r0, r2, lsl #8
    47f4:	00a1a80f 	adceq	sl, r1, pc, lsl #16
    47f8:	0008e000 	andeq	lr, r8, r0
    47fc:	0004c500 	andeq	ip, r4, r0, lsl #10
    4800:	50011000 	andpl	r1, r1, r0
    4804:	10007502 	andne	r7, r0, r2, lsl #10
    4808:	30015101 	andcc	r5, r1, r1, lsl #2
    480c:	02520110 	subseq	r0, r2, #4
    4810:	0f000074 	svceq	0x00000074
    4814:	0000a1d0 	ldrdeq	sl, [r0], -r0
    4818:	000008bc 			; <UNDEFINED> instruction: 0x000008bc
    481c:	000004fe 	strdeq	r0, [r0], -lr
    4820:	05500110 	ldrbeq	r0, [r0, #-272]	; 0xfffffef0
    4824:	00a75403 	adceq	r5, r7, r3, lsl #8
    4828:	51011000 	mrspl	r1, (UNDEF: 1)
    482c:	ad180305 	ldcge	3, cr0, [r8, #-20]	; 0xffffffec
    4830:	01100000 	tsteq	r0, r0
    4834:	e8030552 	stmda	r3, {r1, r4, r6, r8, sl}
    4838:	100000ae 	andne	r0, r0, lr, lsr #1
    483c:	08025301 	stmdaeq	r2, {r0, r8, r9, ip, lr}
    4840:	7d021054 	stcvc	0, cr1, [r2, #-336]	; 0xfffffeb0
    4844:	28030500 	stmdacs	r3, {r8, sl}
    4848:	000000ad 	andeq	r0, r0, sp, lsr #1
    484c:	00a1d411 	adceq	sp, r1, r1, lsl r4
    4850:	0008c800 	andeq	ip, r8, r0, lsl #16
    4854:	7e120000 	cdpvc	0, 1, cr0, cr2, cr0, {0}
    4858:	18000000 	stmdane	r0, {}	; <UNPREDICTABLE>
    485c:	13000005 	movwne	r0, #5
    4860:	0000002c 	andeq	r0, r0, ip, lsr #32
    4864:	08050007 	stmdaeq	r5, {r0, r1, r2}
    4868:	16000005 	strne	r0, [r0], -r5
    486c:	00000b99 	muleq	r0, r9, fp
    4870:	8a074701 	bhi	1d647c <__bss_end__+0x1cb124>
    4874:	e8000000 	stmda	r0, {}	; <UNPREDICTABLE>
    4878:	980000a0 	stmdals	r0, {r5, r7}
    487c:	01000000 	mrseq	r0, (UNDEF: 0)
    4880:	00062b9c 	muleq	r6, ip, fp
    4884:	03731700 	cmneq	r3, #0, 14
    4888:	47010000 	strmi	r0, [r1, -r0]
    488c:	00002c20 	andeq	r2, r0, r0, lsr #24
    4890:	002c3300 	eoreq	r3, ip, r0, lsl #6
    4894:	002c2300 	eoreq	r2, ip, r0, lsl #6
    4898:	01bb0e00 			; <UNDEFINED> instruction: 0x01bb0e00
    489c:	043c0000 	ldrteq	r0, [ip], #-0
    48a0:	03050000 	movweq	r0, #20480	; 0x5000
    48a4:	0000aed8 	ldrdeq	sl, [r0], -r8
    48a8:	0006221d 	andeq	r2, r6, sp, lsl r2
    48ac:	0b4b0100 	bleq	12c4cb4 <__bss_end__+0x12b995c>
    48b0:	0000008a 	andeq	r0, r0, sl, lsl #1
    48b4:	00002ca5 	andeq	r2, r0, r5, lsr #25
    48b8:	00002ca1 	andeq	r2, r0, r1, lsr #25
    48bc:	00081f1b 	andeq	r1, r8, fp, lsl pc
    48c0:	00a0f800 	adceq	pc, r0, r0, lsl #16
    48c4:	04900300 	ldreq	r0, [r0], #768	; 0x300
    48c8:	49010000 	stmdbmi	r1, {}	; <UNPREDICTABLE>
    48cc:	0005a30e 	andeq	sl, r5, lr, lsl #6
    48d0:	083a1a00 	ldmdaeq	sl!, {r9, fp, ip}
    48d4:	2cc50000 	stclcs	0, cr0, [r5], {0}
    48d8:	2cc30000 	stclcs	0, cr0, [r3], {0}
    48dc:	301a0000 	andscc	r0, sl, r0
    48e0:	dd000008 	stcle	0, cr0, [r0, #-32]	; 0xffffffe0
    48e4:	d900002c 	stmdble	r0, {r2, r3, r5}
    48e8:	1e00002c 	cdpne	0, 0, cr0, cr0, cr12, {1}
    48ec:	00000490 	muleq	r0, r0, r4
    48f0:	a1400f00 	cmpge	r0, r0, lsl #30
    48f4:	08bc0000 	ldmeq	ip!, {}	; <UNPREDICTABLE>
    48f8:	05dc0000 	ldrbeq	r0, [ip]
    48fc:	01100000 	tsteq	r0, r0
    4900:	54030550 	strpl	r0, [r3], #-1360	; 0xfffffab0
    4904:	100000a7 	andne	r0, r0, r7, lsr #1
    4908:	03055101 	movweq	r5, #20737	; 0x5101
    490c:	0000ad18 	andeq	sl, r0, r8, lsl sp
    4910:	05520110 	ldrbeq	r0, [r2, #-272]	; 0xfffffef0
    4914:	00aed803 	adceq	sp, lr, r3, lsl #16
    4918:	53011000 	movwpl	r1, #4096	; 0x1000
    491c:	10480802 	subne	r0, r8, r2, lsl #16
    4920:	05007d02 	streq	r7, [r0, #-3330]	; 0xfffff2fe
    4924:	00ad2803 	adceq	r2, sp, r3, lsl #16
    4928:	44110000 	ldrmi	r0, [r1], #-0
    492c:	c80000a1 	stmdagt	r0, {r0, r5, r7}
    4930:	0f000008 	svceq	0x00000008
    4934:	0000a164 	andeq	sl, r0, r4, ror #2
    4938:	000008bc 			; <UNDEFINED> instruction: 0x000008bc
    493c:	00000621 	andeq	r0, r0, r1, lsr #12
    4940:	05500110 	ldrbeq	r0, [r0, #-272]	; 0xfffffef0
    4944:	00ada403 	adceq	sl, sp, r3, lsl #8
    4948:	51011000 	mrspl	r1, (UNDEF: 1)
    494c:	ad180305 	ldcge	3, cr0, [r8, #-20]	; 0xffffffec
    4950:	01100000 	tsteq	r0, r0
    4954:	d8030552 	stmdale	r3, {r1, r4, r6, r8, sl}
    4958:	100000ae 	andne	r0, r0, lr, lsr #1
    495c:	08025301 	stmdaeq	r2, {r0, r8, r9, ip, lr}
    4960:	7d02104e 	stcvc	0, cr1, [r2, #-312]	; 0xfffffec8
    4964:	01f30800 	mvnseq	r0, r0, lsl #16
    4968:	09072350 	stmdbeq	r7, {r4, r6, r8, r9, sp}
    496c:	11001af8 	strdne	r1, [r0, -r8]
    4970:	0000a168 	andeq	sl, r0, r8, ror #2
    4974:	000008c8 	andeq	r0, r0, r8, asr #17
    4978:	0bbb0c00 	bleq	feec7980 <__bss_end__+0xfeebc628>
    497c:	3c010000 	stccc	0, cr0, [r1], {-0}
    4980:	00a09006 	adceq	r9, r0, r6
    4984:	00005800 	andeq	r5, r0, r0, lsl #16
    4988:	cf9c0100 	svcgt	0x009c0100
    498c:	0a000006 	beq	49ac <__code_start__-0x3654>
    4990:	00000416 	andeq	r0, r0, r6, lsl r4
    4994:	25103d01 	ldrcs	r3, [r0, #-3329]	; 0xfffff2ff
    4998:	05000000 	streq	r0, [r0, #-0]
    499c:	00b35003 	adcseq	r5, r3, r3
    49a0:	01bb0e00 			; <UNDEFINED> instruction: 0x01bb0e00
    49a4:	06df0000 	ldrbeq	r0, [pc], r0
    49a8:	03050000 	movweq	r0, #20480	; 0x5000
    49ac:	0000aec8 	andeq	sl, r0, r8, asr #29
    49b0:	2c040707 	stccs	7, cr0, [r4], {7}
    49b4:	01000000 	mrseq	r0, (UNDEF: 0)
    49b8:	067a0a42 	ldrbteq	r0, [sl], -r2, asr #20
    49bc:	82080000 	andhi	r0, r8, #0, 0
    49c0:	0000000b 	andeq	r0, r0, fp
    49c4:	00001000 	andeq	r1, r0, r0
    49c8:	00a0bc0f 	adceq	fp, r0, pc, lsl #24
    49cc:	0006e400 	andeq	lr, r6, r0, lsl #8
    49d0:	00069600 	andeq	r9, r6, r0, lsl #12
    49d4:	50011000 	andpl	r1, r1, r0
    49d8:	24404003 	strbcs	r4, [r0], #-3
    49dc:	03510110 	cmpeq	r1, #4
    49e0:	00244840 	eoreq	r4, r4, r0, asr #16
    49e4:	00a0d40f 	adceq	sp, r0, pc, lsl #8
    49e8:	0008bc00 	andeq	fp, r8, r0, lsl #24
    49ec:	0006c500 	andeq	ip, r6, r0, lsl #10
    49f0:	50011000 	andpl	r1, r1, r0
    49f4:	ad740305 	ldclge	3, cr0, [r4, #-20]!	; 0xffffffec
    49f8:	01100000 	tsteq	r0, r0
    49fc:	18030551 	stmdane	r3, {r0, r4, r6, r8, sl}
    4a00:	100000ad 	andne	r0, r0, sp, lsr #1
    4a04:	03055201 	movweq	r5, #20993	; 0x5201
    4a08:	0000aec8 	andeq	sl, r0, r8, asr #29
    4a0c:	02530110 	subseq	r0, r3, #4
    4a10:	11004008 	tstne	r0, r8
    4a14:	0000a0d8 	ldrdeq	sl, [r0], -r8
    4a18:	000008c8 	andeq	r0, r0, r8, asr #17
    4a1c:	007e1200 	rsbseq	r1, lr, r0, lsl #4
    4a20:	06df0000 	ldrbeq	r0, [pc], r0
    4a24:	2c130000 	ldccs	0, cr0, [r3], {-0}
    4a28:	0c000000 	stceq	0, cr0, [r0], {-0}
    4a2c:	06cf0500 	strbeq	r0, [pc], r0, lsl #10
    4a30:	fd0c0000 	stc2	0, cr0, [ip, #-0]
    4a34:	01000004 	tsteq	r0, r4
    4a38:	9ff4062d 	svcls	0x00f4062d
    4a3c:	009c0000 	addseq	r0, ip, r0
    4a40:	9c010000 	stcls	0, cr0, [r1], {-0}
    4a44:	000007c8 	andeq	r0, r0, r8, asr #15
    4a48:	00062117 	andeq	r2, r6, r7, lsl r1
    4a4c:	262d0100 	strtcs	r0, [sp], -r0, lsl #2
    4a50:	0000002c 	andeq	r0, r0, ip, lsr #32
    4a54:	00002d0b 	andeq	r2, r0, fp, lsl #26
    4a58:	00002cfd 	strdeq	r2, [r0], -sp
    4a5c:	000b4017 	andeq	r4, fp, r7, lsl r0
    4a60:	362d0100 	strtcc	r0, [sp], -r0, lsl #2
    4a64:	0000002c 	andeq	r0, r0, ip, lsr #32
    4a68:	00002d73 	andeq	r2, r0, r3, ror sp
    4a6c:	00002d6b 	andeq	r2, r0, fp, ror #26
    4a70:	0006221d 	andeq	r2, r6, sp, lsl r2
    4a74:	0b2e0100 	bleq	b84e7c <__bss_end__+0xb79b24>
    4a78:	000000c2 	andeq	r0, r0, r2, asr #1
    4a7c:	00002dbb 			; <UNDEFINED> instruction: 0x00002dbb
    4a80:	00002dad 	andeq	r2, r0, sp, lsr #27
    4a84:	0001bb0e 	andeq	fp, r1, lr, lsl #22
    4a88:	0007d800 	andeq	sp, r7, r0, lsl #16
    4a8c:	b0030500 	andlt	r0, r3, r0, lsl #10
    4a90:	0f0000ae 	svceq	0x000000ae
    4a94:	0000a04c 	andeq	sl, r0, ip, asr #32
    4a98:	000008bc 			; <UNDEFINED> instruction: 0x000008bc
    4a9c:	0000077e 	andeq	r0, r0, lr, ror r7
    4aa0:	05500110 	ldrbeq	r0, [r0, #-272]	; 0xfffffef0
    4aa4:	00a75403 	adceq	r5, r7, r3, lsl #8
    4aa8:	51011000 	mrspl	r1, (UNDEF: 1)
    4aac:	ad180305 	ldcge	3, cr0, [r8, #-20]	; 0xffffffec
    4ab0:	01100000 	tsteq	r0, r0
    4ab4:	b0030552 	andlt	r0, r3, r2, asr r5
    4ab8:	100000ae 	andne	r0, r0, lr, lsr #1
    4abc:	08025301 	stmdaeq	r2, {r0, r8, r9, ip, lr}
    4ac0:	7d021030 	stcvc	0, cr1, [r2, #-192]	; 0xffffff40
    4ac4:	24030500 	strcs	r0, [r3], #-1280	; 0xfffffb00
    4ac8:	000000ad 	andeq	r0, r0, sp, lsr #1
    4acc:	00a05011 	adceq	r5, r0, r1, lsl r0
    4ad0:	0008c800 	andeq	ip, r8, r0, lsl #16
    4ad4:	a0740f00 	rsbsge	r0, r4, r0, lsl #30
    4ad8:	08bc0000 	ldmeq	ip!, {}	; <UNPREDICTABLE>
    4adc:	07be0000 	ldreq	r0, [lr, r0]!
    4ae0:	01100000 	tsteq	r0, r0
    4ae4:	30030550 	andcc	r0, r3, r0, asr r5
    4ae8:	100000ad 	andne	r0, r0, sp, lsr #1
    4aec:	03055101 	movweq	r5, #20737	; 0x5101
    4af0:	0000ad18 	andeq	sl, r0, r8, lsl sp
    4af4:	05520110 	ldrbeq	r0, [r2, #-272]	; 0xfffffef0
    4af8:	00aeb003 	adceq	fp, lr, r3
    4afc:	53011000 	movwpl	r1, #4096	; 0x1000
    4b00:	10340802 	eorsne	r0, r4, r2, lsl #16
    4b04:	03007d02 	movweq	r7, #3330	; 0xd02
    4b08:	005001f3 	ldrsheq	r0, [r0], #-19	; 0xffffffed
    4b0c:	00a07811 	adceq	r7, r0, r1, lsl r8
    4b10:	0008c800 	andeq	ip, r8, r0, lsl #16
    4b14:	7e120000 	cdpvc	0, 1, cr0, cr2, cr0, {0}
    4b18:	d8000000 	stmdale	r0, {}	; <UNPREDICTABLE>
    4b1c:	13000007 	movwne	r0, #7
    4b20:	0000002c 	andeq	r0, r0, ip, lsr #32
    4b24:	c8050016 	stmdagt	r5, {r1, r2, r4}
    4b28:	1f000007 	svcne	0x00000007
    4b2c:	00000bd3 	ldrdeq	r0, [r0], -r3
    4b30:	8a072a01 	bhi	1cf33c <__bss_end__+0x1c3fe4>
    4b34:	e4000000 	str	r0, [r0], #-0
    4b38:	1000009f 	mulne	r0, pc, r0	; <UNPREDICTABLE>
    4b3c:	01000000 	mrseq	r0, (UNDEF: 0)
    4b40:	0b2d1f9c 	bleq	b4c9b8 <__bss_end__+0xb41660>
    4b44:	29010000 	stmdbcs	r1, {}	; <UNPREDICTABLE>
    4b48:	00008a07 	andeq	r8, r0, r7, lsl #20
    4b4c:	009fd400 	addseq	sp, pc, r0, lsl #8
    4b50:	00001000 	andeq	r1, r0, r0
    4b54:	1f9c0100 	svcne	0x009c0100
    4b58:	00000b88 	andeq	r0, r0, r8, lsl #23
    4b5c:	8a072801 	bhi	1ceb68 <__bss_end__+0x1c3810>
    4b60:	c4000000 	strgt	r0, [r0], #-0
    4b64:	1000009f 	mulne	r0, pc, r0	; <UNPREDICTABLE>
    4b68:	01000000 	mrseq	r0, (UNDEF: 0)
    4b6c:	0b5e209c 	bleq	178cde4 <__bss_end__+0x1781a8c>
    4b70:	10010000 	andne	r0, r1, r0
    4b74:	00002c18 	andeq	r2, r0, r8, lsl ip
    4b78:	08540300 	ldmdaeq	r4, {r8, r9}^
    4b7c:	78210000 	stmdavc	r1!, {}	; <UNPREDICTABLE>
    4b80:	29100100 	ldmdbcs	r0, {r8}
    4b84:	0000002c 	andeq	r0, r0, ip, lsr #32
    4b88:	01006e21 	tsteq	r0, r1, lsr #28
    4b8c:	002c3510 	eoreq	r3, ip, r0, lsl r5
    4b90:	bb0e0000 	bllt	384b98 <__bss_end__+0x379840>
    4b94:	18000001 	stmdane	r0, {r0}
    4b98:	05000005 	streq	r0, [r0, #-5]
    4b9c:	00af0003 	adceq	r0, pc, r3
    4ba0:	a9200000 	stmdbge	r0!, {}	; <UNPREDICTABLE>
    4ba4:	0100000b 	tsteq	r0, fp
    4ba8:	002c180d 	eoreq	r1, ip, sp, lsl #16
    4bac:	70030000 	andvc	r0, r3, r0
    4bb0:	21000008 	tstcs	r0, r8
    4bb4:	0d010078 	stceq	0, cr0, [r1, #-480]	; 0xfffffe20
    4bb8:	00002c29 	andeq	r2, r0, r9, lsr #24
    4bbc:	c8200000 	stmdagt	r0!, {}	; <UNPREDICTABLE>
    4bc0:	0100000b 	tsteq	r0, fp
    4bc4:	002c1807 	eoreq	r1, ip, r7, lsl #16
    4bc8:	96030000 	strls	r0, [r3], -r0
    4bcc:	21000008 	tstcs	r0, r8
    4bd0:	07010078 	smlsdxeq	r1, r8, r0, r0
    4bd4:	00002c2c 	andeq	r2, r0, ip, lsr #24
    4bd8:	006e2100 	rsbeq	r2, lr, r0, lsl #2
    4bdc:	2c380701 	ldccs	7, cr0, [r8], #-4
    4be0:	00000000 	andeq	r0, r0, r0
    4be4:	000b7a20 	andeq	r7, fp, r0, lsr #20
    4be8:	18040100 	stmdane	r4, {r8}
    4bec:	0000005d 	andeq	r0, r0, sp, asr r0
    4bf0:	0008bc03 	andeq	fp, r8, r3, lsl #24
    4bf4:	00782100 	rsbseq	r2, r8, r0, lsl #2
    4bf8:	5d290401 	cfstrspl	mvf0, [r9, #-4]!
    4bfc:	21000000 	mrscs	r0, (UNDEF: 0)
    4c00:	04010079 	streq	r0, [r1], #-121	; 0xffffff87
    4c04:	00005d35 	andeq	r5, r0, r5, lsr sp
    4c08:	89220000 	stmdbhi	r2!, {}	; <UNPREDICTABLE>
    4c0c:	89000006 	stmdbhi	r0, {r1, r2}
    4c10:	02000006 	andeq	r0, r0, #6, 0
    4c14:	64220628 	strtvs	r0, [r2], #-1576	; 0xfffff9d8
    4c18:	64000000 	strvs	r0, [r0], #-0
    4c1c:	02000000 	andeq	r0, r0, #0, 0
    4c20:	e422066e 	strt	r0, [r2], #-1646	; 0xfffff992
    4c24:	e400000b 	str	r0, [r0], #-11
    4c28:	0200000b 	andeq	r0, r0, #11, 0
    4c2c:	c822061d 	stmdagt	r2!, {r0, r2, r3, r4, r9, sl}
    4c30:	c8000001 	stmdagt	r0, {r0}
    4c34:	02000001 	andeq	r0, r0, #1, 0
    4c38:	730007f2 	movwvc	r0, #2034	; 0x7f2
    4c3c:	04000006 	streq	r0, [r0], #-6
    4c40:	0019fc00 	andseq	pc, r9, r0, lsl #24
    4c44:	61010400 	tstvs	r1, r0, lsl #8
    4c48:	0c000005 	stceq	0, cr0, [r0], {5}
    4c4c:	00000c36 	andeq	r0, r0, r6, lsr ip
    4c50:	00000627 	andeq	r0, r0, r7, lsr #12
    4c54:	0000a374 	andeq	sl, r0, r4, ror r3
    4c58:	00000198 	muleq	r0, r8, r1
    4c5c:	000025e9 	andeq	r2, r0, r9, ror #11
    4c60:	d8070802 	stmdale	r7, {r1, fp}
    4c64:	02000001 	andeq	r0, r0, #1, 0
    4c68:	01e20704 	mvneq	r0, r4, lsl #14
    4c6c:	04030000 	streq	r0, [r3], #-0
    4c70:	746e6905 	strbtvc	r6, [lr], #-2309	; 0xfffff6fb
    4c74:	002c0400 	eoreq	r0, ip, r0, lsl #8
    4c78:	01020000 	mrseq	r0, (UNDEF: 2)
    4c7c:	00005806 	andeq	r5, r0, r6, lsl #16
    4c80:	05020200 	streq	r0, [r2, #-512]	; 0xfffffe00
    4c84:	00000222 	andeq	r0, r0, r2, lsr #4
    4c88:	06050402 	streq	r0, [r5], -r2, lsl #8
    4c8c:	02000002 	andeq	r0, r0, #2, 0
    4c90:	02010508 	andeq	r0, r1, #8, 10	; 0x2000000
    4c94:	01020000 	mrseq	r0, (UNDEF: 2)
    4c98:	00005608 	andeq	r5, r0, r8, lsl #12
    4c9c:	07020200 	streq	r0, [r2, -r0, lsl #4]
    4ca0:	00000071 	andeq	r0, r0, r1, ror r0
    4ca4:	00026705 	andeq	r6, r2, r5, lsl #14
    4ca8:	19340300 	ldmdbne	r4!, {r8, r9}
    4cac:	00000075 	andeq	r0, r0, r5, ror r0
    4cb0:	dd070402 	cfstrsle	mvf0, [r7, #-8]
    4cb4:	06000001 	streq	r0, [r0], -r1
    4cb8:	00000033 	andeq	r0, r0, r3, lsr r0
    4cbc:	0000008b 	andeq	r0, r0, fp, lsl #1
    4cc0:	00003307 	andeq	r3, r0, r7, lsl #6
    4cc4:	0f080000 	svceq	0x00080000
    4cc8:	02000002 	andeq	r0, r0, #2, 0
    4ccc:	00970e1c 	addseq	r0, r7, ip, lsl lr
    4cd0:	04090000 	streq	r0, [r9], #-0
    4cd4:	0000007c 	andeq	r0, r0, ip, ror r0
    4cd8:	00003306 	andeq	r3, r0, r6, lsl #6
    4cdc:	0000ac00 	andeq	sl, r0, r0, lsl #24
    4ce0:	00ac0700 	adceq	r0, ip, r0, lsl #14
    4ce4:	09000000 	stmdbeq	r0, {}	; <UNPREDICTABLE>
    4ce8:	0000b904 	andeq	fp, r0, r4, lsl #18
    4cec:	08010200 	stmdaeq	r1, {r9}
    4cf0:	0000005f 	andeq	r0, r0, pc, asr r0
    4cf4:	0000b204 	andeq	fp, r0, r4, lsl #4
    4cf8:	06c70800 	strbeq	r0, [r7], r0, lsl #16
    4cfc:	21020000 	mrscs	r0, (UNDEF: 2)
    4d00:	0000ca0e 	andeq	ip, r0, lr, lsl #20
    4d04:	9d040900 	vstrls.16	s0, [r4, #-0]	; <UNPREDICTABLE>
    4d08:	0a000000 	beq	4d10 <__code_start__-0x32f0>
    4d0c:	005b0107 	subseq	r0, fp, r7, lsl #2
    4d10:	0c040000 	stceq	0, cr0, [r4], {-0}
    4d14:	00010f0e 	andeq	r0, r1, lr, lsl #30
    4d18:	0b050b00 	bleq	147920 <__bss_end__+0x13c5c8>
    4d1c:	0b000000 	bleq	4d24 <__code_start__-0x32dc>
    4d20:	0000093d 	andeq	r0, r0, sp, lsr r9
    4d24:	09800b01 	stmibeq	r0, {r0, r8, r9, fp}
    4d28:	0b040000 	bleq	104d30 <__bss_end__+0xf99d8>
    4d2c:	0000098f 	andeq	r0, r0, pc, lsl #19
    4d30:	099e0b05 	ldmibeq	lr, {r0, r2, r8, r9, fp}
    4d34:	0b060000 	bleq	184d3c <__bss_end__+0x1799e4>
    4d38:	000009ad 	andeq	r0, r0, sp, lsr #19
    4d3c:	0ace0b07 	beq	ff387960 <__bss_end__+0xff37c608>
    4d40:	0b030000 	bleq	c4d48 <__bss_end__+0xb99f0>
    4d44:	000009bc 			; <UNDEFINED> instruction: 0x000009bc
    4d48:	6f050002 	svcvs	0x00050002
    4d4c:	0400000c 	streq	r0, [r0], #-12
    4d50:	00d00315 	sbcseq	r0, r0, r5, lsl r3
    4d54:	0d0c0000 	stceq	0, cr0, [ip, #-0]
    4d58:	0100000c 	tsteq	r0, ip
    4d5c:	003a171d 	eorseq	r1, sl, sp, lsl r7
    4d60:	001c0000 	andseq	r0, ip, r0
    4d64:	030c2020 	movweq	r2, #49184	; 0xc020
    4d68:	0100000c 	tsteq	r0, ip
    4d6c:	003a171e 	eorseq	r1, sl, lr, lsl r7
    4d70:	00280000 	eoreq	r0, r8, r0
    4d74:	7b0c2020 	blvc	30cdfc <__bss_end__+0x301aa4>
    4d78:	0100000c 	tsteq	r0, ip
    4d7c:	003a171f 	eorseq	r1, sl, pc, lsl r7
    4d80:	00340000 	eorseq	r0, r4, r0
    4d84:	2c0d2020 	stccs	0, cr2, [sp], {32}
    4d88:	0100000c 	tsteq	r0, ip
    4d8c:	00330551 	eorseq	r0, r3, r1, asr r5
    4d90:	a4e40000 	strbtge	r0, [r4], #0
    4d94:	00280000 	eoreq	r0, r8, r0
    4d98:	9c010000 	stcls	0, cr0, [r1], {-0}
    4d9c:	000001ba 			; <UNDEFINED> instruction: 0x000001ba
    4da0:	6e69700e 	cdpvs	0, 6, cr7, cr9, cr14, {0}
    4da4:	18510100 	ldmdane	r1, {r8}^
    4da8:	0000002c 	andeq	r0, r0, ip, lsr #32
    4dac:	00002e21 	andeq	r2, r0, r1, lsr #28
    4db0:	00002e1b 	andeq	r2, r0, fp, lsl lr
    4db4:	000c850f 	andeq	r8, ip, pc, lsl #10
    4db8:	0e520100 	rdfeqs	f0, f2, f0
    4dbc:	0000002c 	andeq	r0, r0, ip, lsr #32
    4dc0:	00002e57 	andeq	r2, r0, r7, asr lr
    4dc4:	00002e4d 	andeq	r2, r0, sp, asr #28
    4dc8:	66666f10 	uqadd16vs	r6, r6, r0
    4dcc:	0e530100 	rdfeqs	f0, f3, f0
    4dd0:	0000002c 	andeq	r0, r0, ip, lsr #32
    4dd4:	00002ec5 	andeq	r2, r0, r5, asr #29
    4dd8:	00002ebf 			; <UNDEFINED> instruction: 0x00002ebf
    4ddc:	00a4f811 	adceq	pc, r4, r1, lsl r8	; <UNPREDICTABLE>
    4de0:	00065e00 	andeq	r5, r6, r0, lsl #28
    4de4:	50011200 	andpl	r1, r1, r0, lsl #4
    4de8:	3500740a 	strcc	r7, [r0, #-1034]	; 0xfffffbf6
    4dec:	80b42325 	adcshi	r2, r4, r5, lsr #6
    4df0:	00028180 	andeq	r8, r2, r0, lsl #3
    4df4:	0c171300 	ldceq	3, cr1, [r7], {-0}
    4df8:	4a010000 	bmi	44e00 <__bss_end__+0x39aa8>
    4dfc:	00a4b406 	adceq	fp, r4, r6, lsl #8
    4e00:	00003000 	andeq	r3, r0, r0
    4e04:	759c0100 	ldrvc	r0, [ip, #256]	; 0x100
    4e08:	0e000002 	cdpeq	0, 0, cr0, cr0, cr2, {0}
    4e0c:	006e6970 	rsbeq	r6, lr, r0, ror r9
    4e10:	2c1a4a01 			; <UNDEFINED> instruction: 0x2c1a4a01
    4e14:	02000000 	andeq	r0, r0, #0, 0
    4e18:	f600002f 			; <UNDEFINED> instruction: 0xf600002f
    4e1c:	0e00002e 	cdpeq	0, 0, cr0, cr0, cr14, {1}
    4e20:	4a010076 	bmi	45000 <__bss_end__+0x39ca8>
    4e24:	00002c28 	andeq	r2, r0, r8, lsr #24
    4e28:	002f5600 	eoreq	r5, pc, r0, lsl #12
    4e2c:	002f5200 	eoreq	r5, pc, r0, lsl #4
    4e30:	038d1400 	orreq	r1, sp, #0, 8
    4e34:	a4c40000 	strbge	r0, [r4], #0
    4e38:	60010000 	andvs	r0, r1, r0
    4e3c:	01000005 	tsteq	r0, r5
    4e40:	0235094c 	eorseq	r0, r5, #76, 18	; 0x130000
    4e44:	9a150000 	bls	544e4c <__bss_end__+0x539af4>
    4e48:	7d000003 	stcvc	0, cr0, [r0, #-12]
    4e4c:	7700002f 	strvc	r0, [r0, -pc, lsr #32]
    4e50:	1600002f 	strne	r0, [r0], -pc, lsr #32
    4e54:	0000a4d0 	ldrdeq	sl, [r0], -r0
    4e58:	0000066a 	andeq	r0, r0, sl, ror #12
    4e5c:	05500112 	ldrbeq	r0, [r0, #-274]	; 0xfffffeee
    4e60:	20001c0c 	andcs	r1, r0, ip, lsl #24
    4e64:	51011220 	tstpl	r1, r0, lsr #4
    4e68:	01f33105 	mvnseq	r3, r5, lsl #2
    4e6c:	00002450 	andeq	r2, r0, r0, asr r4
    4e70:	00037317 	andeq	r7, r3, r7, lsl r3
    4e74:	00a4d000 	adceq	sp, r4, r0
    4e78:	a4d00200 	ldrbge	r0, [r0], #512	; 0x200
    4e7c:	00140000 	andseq	r0, r4, r0
    4e80:	4e010000 	cdpmi	0, 0, cr0, cr1, cr0, {0}
    4e84:	03801509 	orreq	r1, r0, #37748736	; 0x2400000
    4e88:	2faf0000 	svccs	0x00af0000
    4e8c:	2fa90000 	svccs	0x00a90000
    4e90:	dc160000 	ldcle	0, cr0, [r6], {-0}
    4e94:	6a0000a4 	bvs	512c <__code_start__-0x2ed4>
    4e98:	12000006 	andne	r0, r0, #6, 0
    4e9c:	0c055001 	stceq	0, cr5, [r5], {1}
    4ea0:	20200028 	eorcs	r0, r0, r8, lsr #32
    4ea4:	05510112 	ldrbeq	r0, [r1, #-274]	; 0xfffffeee
    4ea8:	5001f331 	andpl	pc, r1, r1, lsr r3	; <UNPREDICTABLE>
    4eac:	00000024 	andeq	r0, r0, r4, lsr #32
    4eb0:	000c4313 	andeq	r4, ip, r3, lsl r3
    4eb4:	06450100 	strbeq	r0, [r5], -r0, lsl #2
    4eb8:	0000a45c 	andeq	sl, r0, ip, asr r4
    4ebc:	00000058 	andeq	r0, r0, r8, asr r0
    4ec0:	03739c01 	cmneq	r3, #256	; 0x100
    4ec4:	700e0000 	andvc	r0, lr, r0
    4ec8:	01006e69 	tsteq	r0, r9, ror #28
    4ecc:	002c1e45 	eoreq	r1, ip, r5, asr #28
    4ed0:	2fe10000 	svccs	0x00e10000
    4ed4:	2fdb0000 	svccs	0x00db0000
    4ed8:	a5180000 	ldrge	r0, [r8, #-0]
    4edc:	5c000004 	stcpl	0, cr0, [r0], {4}
    4ee0:	020000a4 	andeq	r0, r0, #164, 0	; 0xa4
    4ee4:	00000520 	andeq	r0, r0, r0, lsr #10
    4ee8:	19054601 	stmdbne	r5, {r0, r9, sl, lr}
    4eec:	000004be 			; <UNDEFINED> instruction: 0x000004be
    4ef0:	04b21500 	ldrteq	r1, [r2], #1280	; 0x500
    4ef4:	30130000 	andscc	r0, r3, r0
    4ef8:	300d0000 	andcc	r0, sp, r0
    4efc:	201a0000 	andscs	r0, sl, r0
    4f00:	1b000005 	blne	4f1c <__code_start__-0x30e4>
    4f04:	000004ca 	andeq	r0, r0, sl, asr #9
    4f08:	0004d61b 	andeq	sp, r4, fp, lsl r6
    4f0c:	04e01b00 	strbteq	r1, [r0], #2816	; 0xb00
    4f10:	a5180000 	ldrge	r0, [r8, #-0]
    4f14:	64000004 	strvs	r0, [r0], #-4
    4f18:	000000a4 	andeq	r0, r0, r4, lsr #1
    4f1c:	00000540 	andeq	r0, r0, r0, asr #10
    4f20:	19062801 	stmdbne	r6, {r0, fp, sp}
    4f24:	000004be 			; <UNDEFINED> instruction: 0x000004be
    4f28:	04b21500 	ldrteq	r1, [r2], #1280	; 0x500
    4f2c:	30450000 	subcc	r0, r5, r0
    4f30:	303f0000 	eorscc	r0, pc, r0
    4f34:	401a0000 	andsmi	r0, sl, r0
    4f38:	1c000005 	stcne	0, cr0, [r0], {5}
    4f3c:	000004ca 	andeq	r0, r0, sl, asr #9
    4f40:	00003077 	andeq	r3, r0, r7, ror r0
    4f44:	00003071 	andeq	r3, r0, r1, ror r0
    4f48:	0004d61c 	andeq	sp, r4, ip, lsl r6
    4f4c:	0030b900 	eorseq	fp, r0, r0, lsl #18
    4f50:	0030b300 	eorseq	fp, r0, r0, lsl #6
    4f54:	04e01c00 	strbteq	r1, [r0], #3072	; 0xc00
    4f58:	310f0000 	mrscc	r0, CPSR
    4f5c:	31070000 	mrscc	r0, (UNDEF: 7)
    4f60:	8c1d0000 	ldchi	0, cr0, [sp], {-0}
    4f64:	5e0000a4 	cdppl	0, 0, cr0, cr0, cr4, {5}
    4f68:	3b000006 	blcc	4f88 <__code_start__-0x3078>
    4f6c:	12000003 	andne	r0, r0, #3, 0
    4f70:	76025001 	strvc	r5, [r2], -r1
    4f74:	b0160000 	andslt	r0, r6, r0
    4f78:	6a0000a4 	bvs	5210 <__code_start__-0x2df0>
    4f7c:	12000006 	andne	r0, r0, #6, 0
    4f80:	f3255001 	vhadd.u32	d5, d5, d1
    4f84:	2cf75001 	ldclcs	0, cr5, [r7], #4
    4f88:	25f425f7 	ldrbcs	r2, [r4, #1527]!	; 0x5f7
    4f8c:	cccccd08 	stclgt	13, cr12, [ip], {8}
    4f90:	000000cc 	andeq	r0, r0, ip, asr #1
    4f94:	20081e00 	andcs	r1, r8, r0, lsl #28
    4f98:	f72525f7 			; <UNDEFINED> instruction: 0xf72525f7
    4f9c:	3300f72c 	movwcc	pc, #1836	; 0x72c	; <UNPREDICTABLE>
    4fa0:	80802325 	addhi	r2, r0, r5, lsr #6
    4fa4:	243240a0 	ldrtcs	r4, [r2], #-160	; 0xffffff60
    4fa8:	00000000 	andeq	r0, r0, r0
    4fac:	521e0000 	andspl	r0, lr, #0, 0
    4fb0:	0100000c 	tsteq	r0, ip
    4fb4:	8d030d40 	stchi	13, cr0, [r3, #-256]	; 0xffffff00
    4fb8:	1f000003 	svcne	0x00000003
    4fbc:	006e6970 	rsbeq	r6, lr, r0, ror r9
    4fc0:	2c234001 	stccs	0, cr4, [r3], #-4
    4fc4:	00000000 	andeq	r0, r0, r0
    4fc8:	000c8a1e 	andeq	r8, ip, lr, lsl sl
    4fcc:	0d3b0100 	ldfeqs	f0, [fp, #-0]
    4fd0:	0003a703 	andeq	sl, r3, r3, lsl #14
    4fd4:	69701f00 	ldmdbvs	r0!, {r8, r9, sl, fp, ip}^
    4fd8:	3b01006e 	blcc	45198 <__bss_end__+0x39e40>
    4fdc:	00002c22 	andeq	r2, r0, r2, lsr #24
    4fe0:	5f130000 	svcpl	0x00130000
    4fe4:	0100000c 	tsteq	r0, ip
    4fe8:	a3d40636 	bicsge	r0, r4, #56623104	; 0x3600000
    4fec:	00580000 	subseq	r0, r8, r0
    4ff0:	9c010000 	stcls	0, cr0, [r1], {-0}
    4ff4:	000004a5 	andeq	r0, r0, r5, lsr #9
    4ff8:	6e69700e 	cdpvs	0, 6, cr7, cr9, cr14, {0}
    4ffc:	1f360100 	svcne	0x00360100
    5000:	0000002c 	andeq	r0, r0, ip, lsr #32
    5004:	0000316d 	andeq	r3, r0, sp, ror #2
    5008:	00003169 	andeq	r3, r0, r9, ror #2
    500c:	0004a518 	andeq	sl, r4, r8, lsl r5
    5010:	00a3d400 	adceq	sp, r3, r0, lsl #8
    5014:	04e00200 	strbteq	r0, [r0], #512	; 0x200
    5018:	37010000 	strcc	r0, [r1, -r0]
    501c:	04be1905 	ldrteq	r1, [lr], #2309	; 0x905
    5020:	15010000 	strne	r0, [r1, #-0]
    5024:	000004b2 			; <UNDEFINED> instruction: 0x000004b2
    5028:	00003192 	muleq	r0, r2, r1
    502c:	0000318e 	andeq	r3, r0, lr, lsl #3
    5030:	0004e01a 	andeq	lr, r4, sl, lsl r0
    5034:	04ca1b00 	strbeq	r1, [sl], #2816	; 0xb00
    5038:	d61b0000 	ldrle	r0, [fp], -r0
    503c:	1b000004 	blne	5054 <__code_start__-0x2fac>
    5040:	000004e0 	andeq	r0, r0, r0, ror #9
    5044:	0004a518 	andeq	sl, r4, r8, lsl r5
    5048:	00a3dc00 	adceq	sp, r3, r0, lsl #24
    504c:	05000000 	streq	r0, [r0, #-0]
    5050:	28010000 	stmdacs	r1, {}	; <UNPREDICTABLE>
    5054:	04be1906 	ldrteq	r1, [lr], #2310	; 0x906
    5058:	15010000 	strne	r0, [r1, #-0]
    505c:	000004b2 			; <UNDEFINED> instruction: 0x000004b2
    5060:	000031b7 			; <UNDEFINED> instruction: 0x000031b7
    5064:	000031b3 			; <UNDEFINED> instruction: 0x000031b3
    5068:	0005001a 	andeq	r0, r5, sl, lsl r0
    506c:	04ca1c00 	strbeq	r1, [sl], #3072	; 0xc00
    5070:	31dc0000 	bicscc	r0, ip, r0
    5074:	31d80000 	bicscc	r0, r8, r0
    5078:	d61c0000 	ldrle	r0, [ip], -r0
    507c:	28000004 	stmdacs	r0, {r2}
    5080:	22000032 	andcs	r0, r0, #50, 0	; 0x32
    5084:	1c000032 	stcne	0, cr0, [r0], {50}	; 0x32
    5088:	000004e0 	andeq	r0, r0, r0, ror #9
    508c:	0000327e 	andeq	r3, r0, lr, ror r2
    5090:	00003276 	andeq	r3, r0, r6, ror r2
    5094:	00a4081d 	adceq	r0, r4, sp, lsl r8
    5098:	00065e00 	andeq	r5, r6, r0, lsl #28
    509c:	00046d00 	andeq	r6, r4, r0, lsl #26
    50a0:	50011200 	andpl	r1, r1, r0, lsl #4
    50a4:	00007502 	andeq	r7, r0, r2, lsl #10
    50a8:	00a42816 	adceq	r2, r4, r6, lsl r8
    50ac:	00066a00 	andeq	r6, r6, r0, lsl #20
    50b0:	50011200 	andpl	r1, r1, r0, lsl #4
    50b4:	5001f325 	andpl	pc, r1, r5, lsr #6
    50b8:	25f72cf7 	ldrbcs	r2, [r7, #3319]!	; 0xcf7
    50bc:	cd0825f4 	cfstr32gt	mvfx2, [r8, #-976]	; 0xfffffc30
    50c0:	00cccccc 	sbceq	ip, ip, ip, asr #25
    50c4:	1e000000 	cdpne	0, 0, cr0, cr0, cr0, {0}
    50c8:	25f72008 	ldrbcs	r2, [r7, #8]!
    50cc:	f72cf725 			; <UNDEFINED> instruction: 0xf72cf725
    50d0:	23253300 			; <UNDEFINED> instruction: 0x23253300
    50d4:	40a08080 	adcmi	r8, r0, r0, lsl #1
    50d8:	00002432 	andeq	r2, r0, r2, lsr r4
    50dc:	00000000 	andeq	r0, r0, r0
    50e0:	000b151e 	andeq	r1, fp, lr, lsl r5
    50e4:	06280100 	strteq	r0, [r8], -r0, lsl #2
    50e8:	0004eb01 	andeq	lr, r4, r1, lsl #22
    50ec:	69701f00 	ldmdbvs	r0!, {r8, r9, sl, fp, ip}^
    50f0:	2801006e 	stmdacs	r1, {r1, r2, r3, r5, r6}
    50f4:	00002c21 	andeq	r2, r0, r1, lsr #24
    50f8:	01b62000 			; <UNDEFINED> instruction: 0x01b62000
    50fc:	28010000 	stmdacs	r1, {}	; <UNPREDICTABLE>
    5100:	00010f32 	andeq	r0, r1, r2, lsr pc
    5104:	666f2100 	strbtvs	r2, [pc], -r0, lsl #2
    5108:	2d010066 	stccs	0, cr0, [r1, #-408]	; 0xfffffe68
    510c:	00002c0e 	andeq	r2, r0, lr, lsl #24
    5110:	00672100 	rsbeq	r2, r7, r0, lsl #2
    5114:	2c0e2e01 	stccs	14, cr2, [lr], {1}
    5118:	21000000 	mrscs	r0, (UNDEF: 0)
    511c:	30010076 	andcc	r0, r1, r6, ror r0
    5120:	00002c0e 	andeq	r2, r0, lr, lsl #24
    5124:	22220000 	eorcs	r0, r2, #0, 0
    5128:	0200000c 	andeq	r0, r0, #12, 0
    512c:	006918b1 	strhteq	r1, [r9], #-129	; 0xffffff7f
    5130:	07030000 	streq	r0, [r3, -r0]
    5134:	1f000005 	svcne	0x00000005
    5138:	b1020078 	tstlt	r2, r8, ror r0
    513c:	0000692b 	andeq	r6, r0, fp, lsr #18
    5140:	a5230000 	strge	r0, [r3, #-0]!
    5144:	74000004 	strvc	r0, [r0], #-4
    5148:	600000a3 	andvs	r0, r0, r3, lsr #1
    514c:	01000000 	mrseq	r0, (UNDEF: 0)
    5150:	0005e49c 	muleq	r5, ip, r4
    5154:	04b21500 	ldrteq	r1, [r2], #1280	; 0x500
    5158:	32bd0000 	adcscc	r0, sp, #0, 0
    515c:	32b90000 	adcscc	r0, r9, #0, 0
    5160:	be150000 	cdplt	0, 1, cr0, cr5, cr0, {0}
    5164:	e2000004 	and	r0, r0, #4, 0
    5168:	de000032 	mcrle	0, 0, r0, cr0, cr2, {1}
    516c:	1b000032 	blne	523c <__code_start__-0x2dc4>
    5170:	000004ca 	andeq	r0, r0, sl, asr #9
    5174:	0004d61b 	andeq	sp, r4, fp, lsl r6
    5178:	04e01b00 	strbteq	r1, [r0], #2816	; 0xb00
    517c:	a5180000 	ldrge	r0, [r8, #-0]
    5180:	7c000004 	stcvc	0, cr0, [r0], {4}
    5184:	000000a3 	andeq	r0, r0, r3, lsr #1
    5188:	000004c0 	andeq	r0, r0, r0, asr #9
    518c:	15062801 	strne	r2, [r6, #-2049]	; 0xfffff7ff
    5190:	000004be 			; <UNDEFINED> instruction: 0x000004be
    5194:	00003307 	andeq	r3, r0, r7, lsl #6
    5198:	00003303 	andeq	r3, r0, r3, lsl #6
    519c:	0004b215 	andeq	fp, r4, r5, lsl r2
    51a0:	00332c00 	eorseq	r2, r3, r0, lsl #24
    51a4:	00332800 	eorseq	r2, r3, r0, lsl #16
    51a8:	04c01a00 	strbeq	r1, [r0], #2560	; 0xa00
    51ac:	ca1c0000 	bgt	7051b4 <__bss_end__+0x6f9e5c>
    51b0:	51000004 	tstpl	r0, r4
    51b4:	4d000033 	stcmi	0, cr0, [r0, #-204]	; 0xffffff34
    51b8:	1c000033 	stcne	0, cr0, [r0], {51}	; 0x33
    51bc:	000004d6 	ldrdeq	r0, [r0], -r6
    51c0:	0000339d 	muleq	r0, sp, r3
    51c4:	00003397 	muleq	r0, r7, r3
    51c8:	0004e01c 	andeq	lr, r4, ip, lsl r0
    51cc:	0033f300 	eorseq	pc, r3, r0, lsl #6
    51d0:	0033eb00 	eorseq	lr, r3, r0, lsl #22
    51d4:	a3b41d00 			; <UNDEFINED> instruction: 0xa3b41d00
    51d8:	065e0000 	ldrbeq	r0, [lr], -r0
    51dc:	05ae0000 	streq	r0, [lr, #0]!
    51e0:	01120000 	tsteq	r2, r0
    51e4:	00760250 	rsbseq	r0, r6, r0, asr r2
    51e8:	a3d01600 	bicsge	r1, r0, #0, 12
    51ec:	066a0000 	strbteq	r0, [sl], -r0
    51f0:	01120000 	tsteq	r2, r0
    51f4:	01f32550 	mvnseq	r2, r0, asr r5
    51f8:	f72cf750 			; <UNDEFINED> instruction: 0xf72cf750
    51fc:	0825f425 	stmdaeq	r5!, {r0, r2, r5, sl, ip, sp, lr, pc}
    5200:	cccccccd 	stclgt	12, cr12, [ip], {205}	; 0xcd
    5204:	00000000 	andeq	r0, r0, r0
    5208:	f720081e 			; <UNDEFINED> instruction: 0xf720081e
    520c:	2cf72525 	cfldr64cs	mvdx2, [r7], #148	; 0x94
    5210:	253300f7 	ldrcs	r0, [r3, #-247]!	; 0xffffff09
    5214:	a0808023 	addge	r8, r0, r3, lsr #32
    5218:	00243240 	eoreq	r3, r4, r0, asr #4
    521c:	23000000 	movwcs	r0, #0
    5220:	0000038d 	andeq	r0, r0, sp, lsl #7
    5224:	0000a42c 	andeq	sl, r0, ip, lsr #8
    5228:	00000018 	andeq	r0, r0, r8, lsl r0
    522c:	06219c01 	strteq	r9, [r1], -r1, lsl #24
    5230:	9a150000 	bls	545238 <__bss_end__+0x539ee0>
    5234:	49000003 	stmdbmi	r0, {r0, r1}
    5238:	43000034 	movwmi	r0, #52	; 0x34
    523c:	16000034 			; <UNDEFINED> instruction: 0x16000034
    5240:	0000a440 	andeq	sl, r0, r0, asr #8
    5244:	0000066a 	andeq	r0, r0, sl, ror #12
    5248:	05500112 	ldrbeq	r0, [r0, #-274]	; 0xfffffeee
    524c:	20001c0c 	andcs	r1, r0, ip, lsl #24
    5250:	51011220 	tstpl	r1, r0, lsr #4
    5254:	01f33105 	mvnseq	r3, r5, lsl #2
    5258:	00002450 	andeq	r2, r0, r0, asr r4
    525c:	00037323 	andeq	r7, r3, r3, lsr #6
    5260:	00a44400 	adceq	r4, r4, r0, lsl #8
    5264:	00001800 	andeq	r1, r0, r0, lsl #16
    5268:	5e9c0100 	fmlple	f0, f4, f0
    526c:	15000006 	strne	r0, [r0, #-6]
    5270:	00000380 	andeq	r0, r0, r0, lsl #7
    5274:	0000347b 	andeq	r3, r0, fp, ror r4
    5278:	00003475 	andeq	r3, r0, r5, ror r4
    527c:	00a45816 	adceq	r5, r4, r6, lsl r8
    5280:	00066a00 	andeq	r6, r6, r0, lsl #20
    5284:	50011200 	andpl	r1, r1, r0, lsl #4
    5288:	00280c05 	eoreq	r0, r8, r5, lsl #24
    528c:	01122020 	tsteq	r2, r0, lsr #32
    5290:	f3310551 	vqrshl.u64	q0, <illegal reg q0.5>, <illegal reg q0.5>
    5294:	00245001 	eoreq	r5, r4, r1
    5298:	08ea2400 	stmiaeq	sl!, {sl, sp}^
    529c:	08ea0000 	stmiaeq	sl!, {}^	; <UNPREDICTABLE>
    52a0:	c2020000 	andgt	r0, r2, #0, 0
    52a4:	0856240a 	ldmdaeq	r6, {r1, r3, sl, sp}^
    52a8:	08560000 	ldmdaeq	r6, {}^	; <UNPREDICTABLE>
    52ac:	ad020000 	stcge	0, cr0, [r2, #-0]
    52b0:	01490006 	cmpeq	r9, r6
    52b4:	00040000 	andeq	r0, r4, r0
    52b8:	00001c2a 	andeq	r1, r0, sl, lsr #24
    52bc:	05610104 	strbeq	r0, [r1, #-260]!	; 0xfffffefc
    52c0:	b40c0000 	strlt	r0, [ip], #-0
    52c4:	2700000c 	strcs	r0, [r0, -ip]
    52c8:	0c000006 	stceq	0, cr0, [r0], {6}
    52cc:	3c0000a5 	stccc	0, cr0, [r0], {165}	; 0xa5
    52d0:	76000000 	strvc	r0, [r0], -r0
    52d4:	02000028 	andeq	r0, r0, #40, 0	; 0x28
    52d8:	6e690504 	cdpvs	5, 6, cr0, cr9, cr4, {0}
    52dc:	04030074 	streq	r0, [r3], #-116	; 0xffffff8c
    52e0:	0001e207 	andeq	lr, r1, r7, lsl #4
    52e4:	06010300 	streq	r0, [r1], -r0, lsl #6
    52e8:	00000058 	andeq	r0, r0, r8, asr r0
    52ec:	22050203 	andcs	r0, r5, #805306368	; 0x30000000
    52f0:	03000002 	movweq	r0, #2
    52f4:	02060504 	andeq	r0, r6, #4, 10	; 0x1000000
    52f8:	08030000 	stmdaeq	r3, {}	; <UNPREDICTABLE>
    52fc:	00020105 	andeq	r0, r2, r5, lsl #2
    5300:	08010300 	stmdaeq	r1, {r8, r9}
    5304:	00000056 	andeq	r0, r0, r6, asr r0
    5308:	71070203 	tstvc	r7, r3, lsl #4
    530c:	03000000 	movweq	r0, #0
    5310:	01dd0704 	bicseq	r0, sp, r4, lsl #14
    5314:	08030000 	stmdaeq	r3, {}	; <UNPREDICTABLE>
    5318:	0001d807 	andeq	sp, r1, r7, lsl #16
    531c:	00250400 	eoreq	r0, r5, r0, lsl #8
    5320:	007a0000 	rsbseq	r0, sl, r0
    5324:	25050000 	strcs	r0, [r5, #-0]
    5328:	00000000 	andeq	r0, r0, r0
    532c:	00020f06 	andeq	r0, r2, r6, lsl #30
    5330:	0e1c0200 	cdpeq	2, 1, cr0, cr12, cr0, {0}
    5334:	00000086 	andeq	r0, r0, r6, lsl #1
    5338:	006b0407 	rsbeq	r0, fp, r7, lsl #8
    533c:	25040000 	strcs	r0, [r4, #-0]
    5340:	9b000000 	blls	5348 <__code_start__-0x2cb8>
    5344:	05000000 	streq	r0, [r0, #-0]
    5348:	0000009b 	muleq	r0, fp, r0
    534c:	a8040700 	stmdage	r4, {r8, r9, sl}
    5350:	03000000 	movweq	r0, #0
    5354:	005f0801 	subseq	r0, pc, r1, lsl #16
    5358:	a1080000 	mrsge	r0, (UNDEF: 8)
    535c:	06000000 	streq	r0, [r0], -r0
    5360:	000006c7 	andeq	r0, r0, r7, asr #13
    5364:	b90e2102 	stmdblt	lr, {r1, r8, sp}
    5368:	07000000 	streq	r0, [r0, -r0]
    536c:	00008c04 	andeq	r8, r0, r4, lsl #24
    5370:	007a0900 	rsbseq	r0, sl, r0, lsl #18
    5374:	06010000 	streq	r0, [r1], -r0
    5378:	24030507 	strcs	r0, [r3], #-1287	; 0xfffffaf9
    537c:	0a0000af 	beq	5640 <__code_start__-0x29c0>
    5380:	00000ca7 	andeq	r0, r0, r7, lsr #25
    5384:	38060b01 	stmdacc	r6, {r0, r8, r9, fp}
    5388:	100000a5 	andne	r0, r0, r5, lsr #1
    538c:	01000000 	mrseq	r0, (UNDEF: 0)
    5390:	0000f19c 	muleq	r0, ip, r1
    5394:	70660b00 	rsbvc	r0, r6, r0, lsl #22
    5398:	190b0100 	stmdbne	fp, {r8}
    539c:	00000086 	andeq	r0, r0, r6, lsl #1
    53a0:	0c005001 	stceq	0, cr5, [r0], {1}
    53a4:	00000be4 	andeq	r0, r0, r4, ror #23
    53a8:	20060801 	andcs	r0, r6, r1, lsl #16
    53ac:	180000a5 	stmdane	r0, {r0, r2, r5, r7}
    53b0:	01000000 	mrseq	r0, (UNDEF: 0)
    53b4:	0c960d9c 	ldceq	13, cr0, [r6], {156}	; 0x9c
    53b8:	03010000 	movweq	r0, #4096	; 0x1000
    53bc:	0000250c 	andeq	r2, r0, ip, lsl #10
    53c0:	00a50c00 	adceq	r0, r5, r0, lsl #24
    53c4:	00001400 	andeq	r1, r0, r0, lsl #8
    53c8:	409c0100 	addsmi	r0, ip, r0, lsl #2
    53cc:	0e000001 	cdpeq	0, 0, cr0, cr0, cr1, {0}
    53d0:	03010063 	movweq	r0, #4195	; 0x1063
    53d4:	00002521 	andeq	r2, r0, r1, lsr #10
    53d8:	0034ab00 	eorseq	sl, r4, r0, lsl #22
    53dc:	0034a700 	eorseq	sl, r4, r0, lsl #14
    53e0:	a5180f00 	ldrge	r0, [r8, #-3840]	; 0xfffff100
    53e4:	01400000 	mrseq	r0, (UNDEF: 64)
    53e8:	01100000 	tsteq	r0, r0
    53ec:	00740250 	rsbseq	r0, r4, r0, asr r2
    53f0:	fb110000 	blx	4453fa <__bss_end__+0x43a0a2>
    53f4:	fb00000a 	blx	5426 <__code_start__-0x2bda>
    53f8:	0200000a 	andeq	r0, r0, #10, 0
    53fc:	37000642 	strcc	r0, [r0, -r2, asr #12]
    5400:	04000001 	streq	r0, [r0], #-1
    5404:	001d3900 	andseq	r3, sp, r0, lsl #18
    5408:	61010400 	tstvs	r1, r0, lsl #8
    540c:	0c000005 	stceq	0, cr0, [r0], {5}
    5410:	00000cc5 	andeq	r0, r0, r5, asr #25
    5414:	00000627 	andeq	r0, r0, r7, lsr #12
    5418:	0000a548 	andeq	sl, r0, r8, asr #10
    541c:	0000002c 	andeq	r0, r0, ip, lsr #32
    5420:	00002918 	andeq	r2, r0, r8, lsl r9
    5424:	69050402 	stmdbvs	r5, {r1, sl}
    5428:	0300746e 	movweq	r7, #1134	; 0x46e
    542c:	01e20704 	mvneq	r0, r4, lsl #14
    5430:	01030000 	mrseq	r0, (UNDEF: 3)
    5434:	00005806 	andeq	r5, r0, r6, lsl #16
    5438:	05020300 	streq	r0, [r2, #-768]	; 0xfffffd00
    543c:	00000222 	andeq	r0, r0, r2, lsr #4
    5440:	06050403 	streq	r0, [r5], -r3, lsl #8
    5444:	03000002 	movweq	r0, #2
    5448:	02010508 	andeq	r0, r1, #8, 10	; 0x2000000
    544c:	01030000 	mrseq	r0, (UNDEF: 3)
    5450:	00005608 	andeq	r5, r0, r8, lsl #12
    5454:	07020300 	streq	r0, [r2, -r0, lsl #6]
    5458:	00000071 	andeq	r0, r0, r1, ror r0
    545c:	dd070403 	cfstrsle	mvf0, [r7, #-12]
    5460:	03000001 	movweq	r0, #1
    5464:	01d80708 	bicseq	r0, r8, r8, lsl #14
    5468:	25040000 	strcs	r0, [r4, #-0]
    546c:	7a000000 	bvc	5474 <__code_start__-0x2b8c>
    5470:	05000000 	streq	r0, [r0, #-0]
    5474:	00000025 	andeq	r0, r0, r5, lsr #32
    5478:	020f0600 	andeq	r0, pc, #0, 12
    547c:	1c020000 	stcne	0, cr0, [r2], {-0}
    5480:	0000860e 	andeq	r8, r0, lr, lsl #12
    5484:	6b040700 	blvs	10708c <__bss_end__+0xfbd34>
    5488:	04000000 	streq	r0, [r0], #-0
    548c:	00000025 	andeq	r0, r0, r5, lsr #32
    5490:	0000009b 	muleq	r0, fp, r0
    5494:	00009b05 	andeq	r9, r0, r5, lsl #22
    5498:	04070000 	streq	r0, [r7], #-0
    549c:	000000a8 	andeq	r0, r0, r8, lsr #1
    54a0:	5f080103 	svcpl	0x00080103
    54a4:	08000000 	stmdaeq	r0, {}	; <UNPREDICTABLE>
    54a8:	000000a1 	andeq	r0, r0, r1, lsr #1
    54ac:	0006c706 	andeq	ip, r6, r6, lsl #14
    54b0:	0e210200 	cdpeq	2, 2, cr0, cr1, cr0, {0}
    54b4:	000000b9 	strheq	r0, [r0], -r9
    54b8:	008c0407 	addeq	r0, ip, r7, lsl #8
    54bc:	34090000 	strcc	r0, [r9], #-0
    54c0:	01000007 	tsteq	r0, r7
    54c4:	01340704 	teqeq	r4, r4, lsl #14
    54c8:	a5480000 	strbge	r0, [r8, #-0]
    54cc:	002c0000 	eoreq	r0, ip, r0
    54d0:	9c010000 	stcls	0, cr0, [r1], {-0}
    54d4:	00000134 	andeq	r0, r0, r4, lsr r1
    54d8:	000cd50a 	andeq	sp, ip, sl, lsl #10
    54dc:	15040100 	strne	r0, [r4, #-256]	; 0xffffff00
    54e0:	00000134 	andeq	r0, r0, r4, lsr r1
    54e4:	730b5001 	movwvc	r5, #45057	; 0xb001
    54e8:	01006372 	tsteq	r0, r2, ror r3
    54ec:	009b2704 	addseq	r2, fp, r4, lsl #14
    54f0:	34cd0000 	strbcc	r0, [sp], #0
    54f4:	34c90000 	strbcc	r0, [r9], #0
    54f8:	730c0000 	movwvc	r0, #49152	; 0xc000
    54fc:	05010031 	streq	r0, [r1, #-49]	; 0xffffffcf
    5500:	0001340b 	andeq	r3, r1, fp, lsl #8
    5504:	0034fc00 	eorseq	pc, r4, r0, lsl #24
    5508:	0034ee00 	eorseq	lr, r4, r0, lsl #28
    550c:	32730c00 	rsbscc	r0, r3, #0, 24
    5510:	11060100 	mrsne	r0, (UNDEF: 22)
    5514:	0000009b 	muleq	r0, fp, r0
    5518:	0000355b 	andeq	r3, r0, fp, asr r5
    551c:	00003555 	andeq	r3, r0, r5, asr r5
    5520:	0100630c 	tsteq	r0, ip, lsl #6
    5524:	00a10a07 	adceq	r0, r1, r7, lsl #20
    5528:	358c0000 	strcc	r0, [ip]
    552c:	35860000 	strcc	r0, [r6]
    5530:	07000000 	streq	r0, [r0, -r0]
    5534:	0000a104 	andeq	sl, r0, r4, lsl #2
    5538:	00f70000 	rscseq	r0, r7, r0
    553c:	00040000 	andeq	r0, r4, r0
    5540:	00001def 	andeq	r1, r0, pc, ror #27
    5544:	05610104 	strbeq	r0, [r1, #-260]!	; 0xfffffefc
    5548:	da0c0000 	ble	305550 <__bss_end__+0x2fa1f8>
    554c:	2700000c 	strcs	r0, [r0, -ip]
    5550:	74000006 	strvc	r0, [r0], #-6
    5554:	440000a5 	strmi	r0, [r0], #-165	; 0xffffff5b
    5558:	fe000000 	cdp2	0, 0, cr0, cr0, cr0, {0}
    555c:	02000029 	andeq	r0, r0, #41, 0	; 0x29
    5560:	6e690504 	cdpvs	5, 6, cr0, cr9, cr4, {0}
    5564:	04030074 	streq	r0, [r3], #-116	; 0xffffff8c
    5568:	0001e207 	andeq	lr, r1, r7, lsl #4
    556c:	06010300 	streq	r0, [r1], -r0, lsl #6
    5570:	00000058 	andeq	r0, r0, r8, asr r0
    5574:	22050203 	andcs	r0, r5, #805306368	; 0x30000000
    5578:	03000002 	movweq	r0, #2
    557c:	02060504 	andeq	r0, r6, #4, 10	; 0x1000000
    5580:	08030000 	stmdaeq	r3, {}	; <UNPREDICTABLE>
    5584:	00020105 	andeq	r0, r2, r5, lsl #2
    5588:	08010300 	stmdaeq	r1, {r8, r9}
    558c:	00000056 	andeq	r0, r0, r6, asr r0
    5590:	71070203 	tstvc	r7, r3, lsl #4
    5594:	03000000 	movweq	r0, #0
    5598:	01dd0704 	bicseq	r0, sp, r4, lsl #14
    559c:	08030000 	stmdaeq	r3, {}	; <UNPREDICTABLE>
    55a0:	0001d807 	andeq	sp, r1, r7, lsl #16
    55a4:	00250400 	eoreq	r0, r5, r0, lsl #8
    55a8:	007a0000 	rsbseq	r0, sl, r0
    55ac:	25050000 	strcs	r0, [r5, #-0]
    55b0:	00000000 	andeq	r0, r0, r0
    55b4:	00020f06 	andeq	r0, r2, r6, lsl #30
    55b8:	0e1c0200 	cdpeq	2, 1, cr0, cr12, cr0, {0}
    55bc:	00000086 	andeq	r0, r0, r6, lsl #1
    55c0:	006b0407 	rsbeq	r0, fp, r7, lsl #8
    55c4:	25040000 	strcs	r0, [r4, #-0]
    55c8:	9b000000 	blls	55d0 <__code_start__-0x2a30>
    55cc:	05000000 	streq	r0, [r0, #-0]
    55d0:	0000009b 	muleq	r0, fp, r0
    55d4:	a8040700 	stmdage	r4, {r8, r9, sl}
    55d8:	03000000 	movweq	r0, #0
    55dc:	005f0801 	subseq	r0, pc, r1, lsl #16
    55e0:	a1080000 	mrsge	r0, (UNDEF: 8)
    55e4:	06000000 	streq	r0, [r0], -r0
    55e8:	000006c7 	andeq	r0, r0, r7, asr #13
    55ec:	b90e2102 	stmdblt	lr, {r1, r8, sp}
    55f0:	07000000 	streq	r0, [r0, -r0]
    55f4:	00008c04 	andeq	r8, r0, r4, lsl #24
    55f8:	07620900 	strbeq	r0, [r2, -r0, lsl #18]!
    55fc:	03010000 	movweq	r0, #4096	; 0x1000
    5600:	00002505 	andeq	r2, r0, r5, lsl #10
    5604:	00a57400 	adceq	r7, r5, r0, lsl #8
    5608:	00004400 	andeq	r4, r0, r0, lsl #8
    560c:	0a9c0100 	beq	fe705a14 <__bss_end__+0xfe6fa6bc>
    5610:	03010061 	movweq	r0, #4193	; 0x1061
    5614:	00009b18 	andeq	r9, r0, r8, lsl fp
    5618:	0035c300 	eorseq	ip, r5, r0, lsl #6
    561c:	0035b700 	eorseq	fp, r5, r0, lsl #14
    5620:	00620a00 	rsbeq	r0, r2, r0, lsl #20
    5624:	9b270301 	blls	9c6230 <__bss_end__+0x9baed8>
    5628:	17000000 	strne	r0, [r0, -r0]
    562c:	11000036 	tstne	r0, r6, lsr r0
    5630:	00000036 	andeq	r0, r0, r6, lsr r0
    5634:	00010f00 	andeq	r0, r1, r0, lsl #30
    5638:	7e000400 	cfcpysvc	mvf0, mvf0
    563c:	0400001e 	streq	r0, [r0], #-30	; 0xffffffe2
    5640:	00056101 	andeq	r6, r5, r1, lsl #2
    5644:	0cea0c00 	stcleq	12, cr0, [sl]
    5648:	06270000 	strteq	r0, [r7], -r0
    564c:	a5b80000 	ldrge	r0, [r8, #0]!
    5650:	00180000 	andseq	r0, r8, r0
    5654:	2ab40000 	bcs	fed0565c <__bss_end__+0xfecfa304>
    5658:	04020000 	streq	r0, [r2], #-0
    565c:	746e6905 	strbtvc	r6, [lr], #-2309	; 0xfffff6fb
    5660:	07040300 	streq	r0, [r4, -r0, lsl #6]
    5664:	000001e2 	andeq	r0, r0, r2, ror #3
    5668:	58060103 	stmdapl	r6, {r0, r1, r8}
    566c:	03000000 	movweq	r0, #0
    5670:	02220502 	eoreq	r0, r2, #8388608	; 0x800000
    5674:	04030000 	streq	r0, [r3], #-0
    5678:	00020605 	andeq	r0, r2, r5, lsl #12
    567c:	05080300 	streq	r0, [r8, #-768]	; 0xfffffd00
    5680:	00000201 	andeq	r0, r0, r1, lsl #4
    5684:	56080103 	strpl	r0, [r8], -r3, lsl #2
    5688:	03000000 	movweq	r0, #0
    568c:	00710702 	rsbseq	r0, r1, r2, lsl #14
    5690:	04030000 	streq	r0, [r3], #-0
    5694:	0001dd07 	andeq	sp, r1, r7, lsl #26
    5698:	07080300 	streq	r0, [r8, -r0, lsl #6]
    569c:	000001d8 	ldrdeq	r0, [r0], -r8
    56a0:	00002504 	andeq	r2, r0, r4, lsl #10
    56a4:	00007a00 	andeq	r7, r0, r0, lsl #20
    56a8:	00250500 	eoreq	r0, r5, r0, lsl #10
    56ac:	06000000 	streq	r0, [r0], -r0
    56b0:	0000020f 	andeq	r0, r0, pc, lsl #4
    56b4:	860e1c02 	strhi	r1, [lr], -r2, lsl #24
    56b8:	07000000 	streq	r0, [r0, -r0]
    56bc:	00006b04 	andeq	r6, r0, r4, lsl #22
    56c0:	00250400 	eoreq	r0, r5, r0, lsl #8
    56c4:	009b0000 	addseq	r0, fp, r0
    56c8:	9b050000 	blls	1456d0 <__bss_end__+0x13a378>
    56cc:	00000000 	andeq	r0, r0, r0
    56d0:	00a80407 	adceq	r0, r8, r7, lsl #8
    56d4:	01030000 	mrseq	r0, (UNDEF: 3)
    56d8:	00005f08 	andeq	r5, r0, r8, lsl #30
    56dc:	00a10800 	adceq	r0, r1, r0, lsl #16
    56e0:	c7060000 	strgt	r0, [r6, -r0]
    56e4:	02000006 	andeq	r0, r0, #6, 0
    56e8:	00b90e21 	adcseq	r0, r9, r1, lsr #28
    56ec:	04070000 	streq	r0, [r7], #-0
    56f0:	0000008c 	andeq	r0, r0, ip, lsl #1
    56f4:	00073b09 	andeq	r3, r7, r9, lsl #22
    56f8:	07030100 	streq	r0, [r3, -r0, lsl #2]
    56fc:	0000010c 	andeq	r0, r0, ip, lsl #2
    5700:	0000a5b8 			; <UNDEFINED> instruction: 0x0000a5b8
    5704:	00000018 	andeq	r0, r0, r8, lsl r0
    5708:	010c9c01 	tsteq	ip, r1, lsl #24
    570c:	730a0000 	movwvc	r0, #40960	; 0xa000
    5710:	03010031 	movweq	r0, #4145	; 0x1031
    5714:	00010c15 	andeq	r0, r1, r5, lsl ip
    5718:	0b500100 	bleq	1405b20 <__bss_end__+0x13fa7c8>
    571c:	01003273 	tsteq	r0, r3, ror r2
    5720:	009b2603 	addseq	r2, fp, r3, lsl #12
    5724:	36460000 	strbcc	r0, [r6], -r0
    5728:	36400000 	strbcc	r0, [r0], -r0
    572c:	730c0000 	movwvc	r0, #49152	; 0xc000
    5730:	14040100 	strne	r0, [r4], #-256	; 0xffffff00
    5734:	0000010c 	andeq	r0, r0, ip, lsl #2
    5738:	00003673 	andeq	r3, r0, r3, ror r6
    573c:	00003671 	andeq	r3, r0, r1, ror r6
    5740:	a1040700 	tstge	r4, r0, lsl #14
    5744:	00000000 	andeq	r0, r0, r0
    5748:	0000014e 	andeq	r0, r0, lr, asr #2
    574c:	1f340004 	svcne	0x00340004
    5750:	01040000 	mrseq	r0, (UNDEF: 4)
    5754:	00000561 	andeq	r0, r0, r1, ror #10
    5758:	000cfa0c 	andeq	pc, ip, ip, lsl #20
    575c:	00062700 	andeq	r2, r6, r0, lsl #14
    5760:	00a5d000 	adceq	sp, r5, r0
    5764:	00003000 	andeq	r3, r0, r0
    5768:	002b5500 	eoreq	r5, fp, r0, lsl #10
    576c:	05040200 	streq	r0, [r4, #-512]	; 0xfffffe00
    5770:	00746e69 	rsbseq	r6, r4, r9, ror #28
    5774:	00066a03 	andeq	r6, r6, r3, lsl #20
    5778:	17d10300 	ldrbne	r0, [r1, r0, lsl #6]
    577c:	00000038 	andeq	r0, r0, r8, lsr r0
    5780:	e2070404 	and	r0, r7, #4, 8	; 0x4000000
    5784:	04000001 	streq	r0, [r0], #-1
    5788:	00580601 	subseq	r0, r8, r1, lsl #12
    578c:	02040000 	andeq	r0, r4, #0, 0
    5790:	00022205 	andeq	r2, r2, r5, lsl #4
    5794:	05040400 	streq	r0, [r4, #-1024]	; 0xfffffc00
    5798:	00000206 	andeq	r0, r0, r6, lsl #4
    579c:	01050804 	tsteq	r5, r4, lsl #16
    57a0:	04000002 	streq	r0, [r0], #-2
    57a4:	00560801 	subseq	r0, r6, r1, lsl #16
    57a8:	5b050000 	blpl	1457b0 <__bss_end__+0x13a458>
    57ac:	04000000 	streq	r0, [r0], #-0
    57b0:	00710702 	rsbseq	r0, r1, r2, lsl #14
    57b4:	04040000 	streq	r0, [r4], #-0
    57b8:	0001dd07 	andeq	sp, r1, r7, lsl #26
    57bc:	07080400 	streq	r0, [r8, -r0, lsl #8]
    57c0:	000001d8 	ldrdeq	r0, [r0], -r8
    57c4:	00002506 	andeq	r2, r0, r6, lsl #10
    57c8:	00008b00 	andeq	r8, r0, r0, lsl #22
    57cc:	00250700 	eoreq	r0, r5, r0, lsl #14
    57d0:	08000000 	stmdaeq	r0, {}	; <UNPREDICTABLE>
    57d4:	0000020f 	andeq	r0, r0, pc, lsl #4
    57d8:	970e1c02 	strls	r1, [lr, -r2, lsl #24]
    57dc:	09000000 	stmdbeq	r0, {}	; <UNPREDICTABLE>
    57e0:	00007c04 	andeq	r7, r0, r4, lsl #24
    57e4:	00250600 	eoreq	r0, r5, r0, lsl #12
    57e8:	00ac0000 	adceq	r0, ip, r0
    57ec:	ac070000 	stcge	0, cr0, [r7], {-0}
    57f0:	00000000 	andeq	r0, r0, r0
    57f4:	00b90409 	adcseq	r0, r9, r9, lsl #8
    57f8:	01040000 	mrseq	r0, (UNDEF: 4)
    57fc:	00005f08 	andeq	r5, r0, r8, lsl #30
    5800:	00b20500 	adcseq	r0, r2, r0, lsl #10
    5804:	c7080000 	strgt	r0, [r8, -r0]
    5808:	02000006 	andeq	r0, r0, #6, 0
    580c:	00ca0e21 	sbceq	r0, sl, r1, lsr #28
    5810:	04090000 	streq	r0, [r9], #-0
    5814:	0000009d 	muleq	r0, sp, r0
    5818:	0007830a 	andeq	r8, r7, sl, lsl #6
    581c:	05040100 	streq	r0, [r4, #-256]	; 0xffffff00
    5820:	00000025 	andeq	r0, r0, r5, lsr #32
    5824:	0000a5d0 	ldrdeq	sl, [r0], -r0
    5828:	00000030 	andeq	r0, r0, r0, lsr r0
    582c:	014b9c01 	cmpeq	fp, r1, lsl #24
    5830:	5f0b0000 	svcpl	0x000b0000
    5834:	01003173 	tsteq	r0, r3, ror r1
    5838:	00ac1904 	adceq	r1, ip, r4, lsl #18
    583c:	368a0000 	strcc	r0, [sl], r0
    5840:	36860000 	strcc	r0, [r6], r0
    5844:	5f0b0000 	svcpl	0x000b0000
    5848:	01003273 	tsteq	r0, r3, ror r2
    584c:	00ac2a04 	adceq	r2, ip, r4, lsl #20
    5850:	36af0000 	strtcc	r0, [pc], r0
    5854:	36ab0000 	strtcc	r0, [fp], r0
    5858:	6e0b0000 	cdpvs	0, 0, cr0, cr11, cr0, {0}
    585c:	36040100 	strcc	r0, [r4], -r0, lsl #2
    5860:	0000002c 	andeq	r0, r0, ip, lsr #32
    5864:	000036da 	ldrdeq	r3, [r0], -sl
    5868:	000036d0 	ldrdeq	r3, [r0], -r0
    586c:	0031730c 	eorseq	r7, r1, ip, lsl #6
    5870:	4b1a0501 	blmi	686c7c <__bss_end__+0x67b924>
    5874:	31000001 	tstcc	r0, r1
    5878:	29000037 	stmdbcs	r0, {r0, r1, r2, r4, r5}
    587c:	0c000037 	stceq	0, cr0, [r0], {55}	; 0x37
    5880:	01003273 	tsteq	r0, r3, ror r2
    5884:	014b2c05 	cmpeq	fp, r5, lsl #24
    5888:	376f0000 	strbcc	r0, [pc, -r0]!
    588c:	37690000 	strbcc	r0, [r9, -r0]!
    5890:	09000000 	stmdbeq	r0, {}	; <UNPREDICTABLE>
    5894:	00006204 	andeq	r6, r0, r4, lsl #4
    5898:	00ce0000 	sbceq	r0, lr, r0
    589c:	00040000 	andeq	r0, r4, r0
    58a0:	00001fe8 	andeq	r1, r0, r8, ror #31
    58a4:	05610104 	strbeq	r0, [r1, #-260]!	; 0xfffffefc
    58a8:	0b0c0000 	bleq	3058b0 <__bss_end__+0x2fa558>
    58ac:	2700000d 	strcs	r0, [r0, -sp]
    58b0:	00000006 	andeq	r0, r0, r6
    58b4:	040000a6 	streq	r0, [r0], #-166	; 0xffffff5a
    58b8:	56000000 	strpl	r0, [r0], -r0
    58bc:	0200002c 	andeq	r0, r0, #44, 0	; 0x2c
    58c0:	6e690504 	cdpvs	5, 6, cr0, cr9, cr4, {0}
    58c4:	04030074 	streq	r0, [r3], #-116	; 0xffffff8c
    58c8:	0001e207 	andeq	lr, r1, r7, lsl #4
    58cc:	06010300 	streq	r0, [r1], -r0, lsl #6
    58d0:	00000058 	andeq	r0, r0, r8, asr r0
    58d4:	22050203 	andcs	r0, r5, #805306368	; 0x30000000
    58d8:	03000002 	movweq	r0, #2
    58dc:	02060504 	andeq	r0, r6, #4, 10	; 0x1000000
    58e0:	08030000 	stmdaeq	r3, {}	; <UNPREDICTABLE>
    58e4:	00020105 	andeq	r0, r2, r5, lsl #2
    58e8:	08010300 	stmdaeq	r1, {r8, r9}
    58ec:	00000056 	andeq	r0, r0, r6, asr r0
    58f0:	71070203 	tstvc	r7, r3, lsl #4
    58f4:	03000000 	movweq	r0, #0
    58f8:	01dd0704 	bicseq	r0, sp, r4, lsl #14
    58fc:	08030000 	stmdaeq	r3, {}	; <UNPREDICTABLE>
    5900:	0001d807 	andeq	sp, r1, r7, lsl #16
    5904:	00250400 	eoreq	r0, r5, r0, lsl #8
    5908:	007a0000 	rsbseq	r0, sl, r0
    590c:	25050000 	strcs	r0, [r5, #-0]
    5910:	00000000 	andeq	r0, r0, r0
    5914:	00020f06 	andeq	r0, r2, r6, lsl #30
    5918:	0e1c0200 	cdpeq	2, 1, cr0, cr12, cr0, {0}
    591c:	00000086 	andeq	r0, r0, r6, lsl #1
    5920:	006b0407 	rsbeq	r0, fp, r7, lsl #8
    5924:	25040000 	strcs	r0, [r4, #-0]
    5928:	9b000000 	blls	5930 <__code_start__-0x26d0>
    592c:	05000000 	streq	r0, [r0, #-0]
    5930:	0000009b 	muleq	r0, fp, r0
    5934:	a8040700 	stmdage	r4, {r8, r9, sl}
    5938:	03000000 	movweq	r0, #0
    593c:	005f0801 	subseq	r0, pc, r1, lsl #16
    5940:	a1080000 	mrsge	r0, (UNDEF: 8)
    5944:	06000000 	streq	r0, [r0], -r0
    5948:	000006c7 	andeq	r0, r0, r7, asr #13
    594c:	b90e2102 	stmdblt	lr, {r1, r8, sp}
    5950:	07000000 	streq	r0, [r0, -r0]
    5954:	00008c04 	andeq	r8, r0, r4, lsl #24
    5958:	083f0900 	ldmdaeq	pc!, {r8, fp}	; <UNPREDICTABLE>
    595c:	03010000 	movweq	r0, #4096	; 0x1000
    5960:	00a60006 	adceq	r0, r6, r6
    5964:	00000400 	andeq	r0, r0, r0, lsl #8
    5968:	009c0100 	addseq	r0, ip, r0, lsl #2

Disassembly of section .debug_abbrev:

00000000 <.debug_abbrev>:
       0:	25011101 	strcs	r1, [r1, #-257]	; 0xfffffeff
       4:	030b130e 	movweq	r1, #45838	; 0xb30e
       8:	110e1b0e 	tstne	lr, lr, lsl #22
       c:	10061201 	andne	r1, r6, r1, lsl #4
      10:	02000017 	andeq	r0, r0, #23, 0
      14:	0b0b0024 	bleq	2c00ac <__bss_end__+0x2b4d54>
      18:	08030b3e 	stmdaeq	r3, {r1, r2, r3, r4, r5, r8, r9, fp}
      1c:	24030000 	strcs	r0, [r3], #-0
      20:	3e0b0b00 	vmlacc.f64	d0, d11, d0
      24:	000e030b 	andeq	r0, lr, fp, lsl #6
      28:	00160400 	andseq	r0, r6, r0, lsl #8
      2c:	0b3a0e03 	bleq	e83840 <__bss_end__+0xe784e8>
      30:	0b390b3b 	bleq	e42d24 <__bss_end__+0xe379cc>
      34:	00001349 	andeq	r1, r0, r9, asr #6
      38:	27011505 	strcs	r1, [r1, -r5, lsl #10]
      3c:	01134919 	tsteq	r3, r9, lsl r9
      40:	06000013 			; <UNDEFINED> instruction: 0x06000013
      44:	13490005 	movtne	r0, #36869	; 0x9005
      48:	34070000 	strcc	r0, [r7], #-0
      4c:	3a0e0300 	bcc	380c54 <__bss_end__+0x3758fc>
      50:	390b3b0b 	stmdbcc	fp, {r0, r1, r3, r8, r9, fp, ip, sp}
      54:	3f13490b 	svccc	0x0013490b
      58:	00193c19 	andseq	r3, r9, r9, lsl ip
      5c:	000f0800 	andeq	r0, pc, r0, lsl #16
      60:	13490b0b 	movtne	r0, #39691	; 0x9b0b
      64:	26090000 	strcs	r0, [r9], -r0
      68:	00134900 	andseq	r4, r3, r0, lsl #18
      6c:	01130a00 	tsteq	r3, r0, lsl #20
      70:	0b3a0b0b 	bleq	e82ca4 <__bss_end__+0xe7794c>
      74:	0b390b3b 	bleq	e42d68 <__bss_end__+0xe37a10>
      78:	00001301 	andeq	r1, r0, r1, lsl #6
      7c:	03000d0b 	movweq	r0, #3339	; 0xd0b
      80:	3b0b3a0e 	blcc	2ce8c0 <__bss_end__+0x2c3568>
      84:	490b390b 	stmdbmi	fp, {r0, r1, r3, r8, fp, ip, sp}
      88:	000b3813 	andeq	r3, fp, r3, lsl r8
      8c:	01130c00 	tsteq	r3, r0, lsl #24
      90:	0b0b0e03 	bleq	2c38a4 <__bss_end__+0x2b854c>
      94:	0b3b0b3a 	bleq	ec2d84 <__bss_end__+0xeb7a2c>
      98:	13010b39 	movwne	r0, #6969	; 0x1b39
      9c:	0d0d0000 	stceq	0, cr0, [sp, #-0]
      a0:	3a080300 	bcc	200ca8 <__bss_end__+0x1f5950>
      a4:	390b3b0b 	stmdbcc	fp, {r0, r1, r3, r8, r9, fp, ip, sp}
      a8:	3813490b 	ldmdacc	r3, {r0, r1, r3, r8, fp, lr}
      ac:	0e00000b 	cdpeq	0, 0, cr0, cr0, cr11, {0}
      b0:	13490101 	movtne	r0, #37121	; 0x9101
      b4:	00001301 	andeq	r1, r0, r1, lsl #6
      b8:	4900210f 	stmdbmi	r0, {r0, r1, r2, r3, r8, sp}
      bc:	000b2f13 	andeq	r2, fp, r3, lsl pc
      c0:	000f1000 	andeq	r1, pc, r0
      c4:	00000b0b 	andeq	r0, r0, fp, lsl #22
      c8:	3f012e11 	svccc	0x00012e11
      cc:	3a0e0319 	bcc	380d38 <__bss_end__+0x3759e0>
      d0:	390b3b0b 	stmdbcc	fp, {r0, r1, r3, r8, r9, fp, ip, sp}
      d4:	1119270b 	tstne	r9, fp, lsl #14
      d8:	40061201 	andmi	r1, r6, r1, lsl #4
      dc:	19429718 	stmdbne	r2, {r3, r4, r8, r9, sl, ip, pc}^
      e0:	00001301 	andeq	r1, r0, r1, lsl #6
      e4:	03003412 	movweq	r3, #1042	; 0x412
      e8:	3b0b3a08 	blcc	2ce910 <__bss_end__+0x2c35b8>
      ec:	490b390b 	stmdbmi	fp, {r0, r1, r3, r8, fp, ip, sp}
      f0:	b7170213 			; <UNDEFINED> instruction: 0xb7170213
      f4:	00001742 	andeq	r1, r0, r2, asr #14
      f8:	03003413 	movweq	r3, #1043	; 0x413
      fc:	3413490e 	ldrcc	r4, [r3], #-2318	; 0xfffff6f2
     100:	00180219 	andseq	r0, r8, r9, lsl r2
     104:	011d1400 	tsteq	sp, r0, lsl #8
     108:	01521331 	cmpeq	r2, r1, lsr r3
     10c:	110b42b8 			; <UNDEFINED> instruction: 0x110b42b8
     110:	58061201 	stmdapl	r6, {r0, r9, ip}
     114:	570b590b 	strpl	r5, [fp, -fp, lsl #18]
     118:	0013010b 	andseq	r0, r3, fp, lsl #2
     11c:	00051500 	andeq	r1, r5, r0, lsl #10
     120:	17021331 	smladxne	r2, r1, r3, r1
     124:	001742b7 			; <UNDEFINED> instruction: 0x001742b7
     128:	82891600 	addhi	r1, r9, #0, 12
     12c:	01110101 	tsteq	r1, r1, lsl #2
     130:	13011331 	movwne	r1, #4913	; 0x1331
     134:	8a170000 	bhi	5c013c <__bss_end__+0x5b4de4>
     138:	02000182 	andeq	r0, r0, #-2147483616	; 0x80000020
     13c:	18429118 	stmdane	r2, {r3, r4, r8, ip, pc}^
     140:	89180000 	ldmdbhi	r8, {}	; <UNPREDICTABLE>
     144:	11000182 	smlabbne	r0, r2, r1, r0
     148:	00133101 	andseq	r3, r3, r1, lsl #2
     14c:	012e1900 			; <UNDEFINED> instruction: 0x012e1900
     150:	0b3a0e03 	bleq	e83964 <__bss_end__+0xe7860c>
     154:	0b390b3b 	bleq	e42e48 <__bss_end__+0xe37af0>
     158:	13491927 	movtne	r1, #39207	; 0x9927
     15c:	06120111 			; <UNDEFINED> instruction: 0x06120111
     160:	42971840 	addsmi	r1, r7, #64, 16	; 0x400000
     164:	00130119 	andseq	r0, r3, r9, lsl r1
     168:	00051a00 	andeq	r1, r5, r0, lsl #20
     16c:	0b3a0803 	bleq	e82180 <__bss_end__+0xe76e28>
     170:	0b390b3b 	bleq	e42e64 <__bss_end__+0xe37b0c>
     174:	17021349 	strne	r1, [r2, -r9, asr #6]
     178:	001742b7 			; <UNDEFINED> instruction: 0x001742b7
     17c:	012e1b00 			; <UNDEFINED> instruction: 0x012e1b00
     180:	0b3a0e03 	bleq	e83994 <__bss_end__+0xe7863c>
     184:	0b390b3b 	bleq	e42e78 <__bss_end__+0xe37b20>
     188:	13491927 	movtne	r1, #39207	; 0x9927
     18c:	13010b20 	movwne	r0, #6944	; 0x1b20
     190:	051c0000 	ldreq	r0, [ip, #-0]
     194:	3a0e0300 	bcc	380d9c <__bss_end__+0x375a44>
     198:	390b3b0b 	stmdbcc	fp, {r0, r1, r3, r8, r9, fp, ip, sp}
     19c:	0013490b 	andseq	r4, r3, fp, lsl #18
     1a0:	00361d00 	eorseq	r1, r6, r0, lsl #26
     1a4:	00001802 	andeq	r1, r0, r2, lsl #16
     1a8:	3f002e1e 	svccc	0x00002e1e
     1ac:	6e193c19 	mrcvs	12, 0, r3, cr9, cr9, {0}
     1b0:	3a0e030e 	bcc	380df0 <__bss_end__+0x375a98>
     1b4:	390b3b0b 	stmdbcc	fp, {r0, r1, r3, r8, r9, fp, ip, sp}
     1b8:	0000000b 	andeq	r0, r0, fp
     1bc:	25011101 	strcs	r1, [r1, #-257]	; 0xfffffeff
     1c0:	030b130e 	movweq	r1, #45838	; 0xb30e
     1c4:	110e1b0e 	tstne	lr, lr, lsl #22
     1c8:	10061201 	andne	r1, r6, r1, lsl #4
     1cc:	02000017 	andeq	r0, r0, #23, 0
     1d0:	0b0b0024 	bleq	2c0268 <__bss_end__+0x2b4f10>
     1d4:	08030b3e 	stmdaeq	r3, {r1, r2, r3, r4, r5, r8, r9, fp}
     1d8:	24030000 	strcs	r0, [r3], #-0
     1dc:	3e0b0b00 	vmlacc.f64	d0, d11, d0
     1e0:	000e030b 	andeq	r0, lr, fp, lsl #6
     1e4:	00160400 	andseq	r0, r6, r0, lsl #8
     1e8:	0b3a0e03 	bleq	e839fc <__bss_end__+0xe786a4>
     1ec:	0b390b3b 	bleq	e42ee0 <__bss_end__+0xe37b88>
     1f0:	00001349 	andeq	r1, r0, r9, asr #6
     1f4:	27011505 	strcs	r1, [r1, -r5, lsl #10]
     1f8:	01134919 	tsteq	r3, r9, lsl r9
     1fc:	06000013 			; <UNDEFINED> instruction: 0x06000013
     200:	13490005 	movtne	r0, #36869	; 0x9005
     204:	34070000 	strcc	r0, [r7], #-0
     208:	3a0e0300 	bcc	380e10 <__bss_end__+0x375ab8>
     20c:	390b3b0b 	stmdbcc	fp, {r0, r1, r3, r8, r9, fp, ip, sp}
     210:	3f13490b 	svccc	0x0013490b
     214:	00193c19 	andseq	r3, r9, r9, lsl ip
     218:	000f0800 	andeq	r0, pc, r0, lsl #16
     21c:	13490b0b 	movtne	r0, #39691	; 0x9b0b
     220:	26090000 	strcs	r0, [r9], -r0
     224:	00134900 	andseq	r4, r3, r0, lsl #18
     228:	01130a00 	tsteq	r3, r0, lsl #20
     22c:	0b3a0b0b 	bleq	e82e60 <__bss_end__+0xe77b08>
     230:	0b390b3b 	bleq	e42f24 <__bss_end__+0xe37bcc>
     234:	00001301 	andeq	r1, r0, r1, lsl #6
     238:	03000d0b 	movweq	r0, #3339	; 0xd0b
     23c:	3b0b3a0e 	blcc	2cea7c <__bss_end__+0x2c3724>
     240:	490b390b 	stmdbmi	fp, {r0, r1, r3, r8, fp, ip, sp}
     244:	000b3813 	andeq	r3, fp, r3, lsl r8
     248:	01040c00 	tsteq	r4, r0, lsl #24
     24c:	0b0b0b3e 	bleq	2c2f4c <__bss_end__+0x2b7bf4>
     250:	0b3a1349 	bleq	e84f7c <__bss_end__+0xe79c24>
     254:	0b390b3b 	bleq	e42f48 <__bss_end__+0xe37bf0>
     258:	00001301 	andeq	r1, r0, r1, lsl #6
     25c:	0300280d 	movweq	r2, #2061	; 0x80d
     260:	000b1c0e 	andeq	r1, fp, lr, lsl #24
     264:	01130e00 	tsteq	r3, r0, lsl #28
     268:	0b0b0e03 	bleq	2c3a7c <__bss_end__+0x2b8724>
     26c:	0b3b0b3a 	bleq	ec2f5c <__bss_end__+0xeb7c04>
     270:	13010b39 	movwne	r0, #6969	; 0x1b39
     274:	0d0f0000 	stceq	0, cr0, [pc, #-0]	; 27c <__code_start__-0x7d84>
     278:	3a080300 	bcc	200e80 <__bss_end__+0x1f5b28>
     27c:	390b3b0b 	stmdbcc	fp, {r0, r1, r3, r8, r9, fp, ip, sp}
     280:	3813490b 	ldmdacc	r3, {r0, r1, r3, r8, fp, lr}
     284:	1000000b 	andne	r0, r0, fp
     288:	13490101 	movtne	r0, #37121	; 0x9101
     28c:	00001301 	andeq	r1, r0, r1, lsl #6
     290:	49002111 	stmdbmi	r0, {r0, r4, r8, sp}
     294:	000b2f13 	andeq	r2, fp, r3, lsl pc
     298:	000f1200 	andeq	r1, pc, r0, lsl #4
     29c:	00000b0b 	andeq	r0, r0, fp, lsl #22
     2a0:	03003413 	movweq	r3, #1043	; 0x413
     2a4:	3b0b3a0e 	blcc	2ceae4 <__bss_end__+0x2c378c>
     2a8:	490b390b 	stmdbmi	fp, {r0, r1, r3, r8, fp, ip, sp}
     2ac:	00180213 	andseq	r0, r8, r3, lsl r2
     2b0:	00341400 	eorseq	r1, r4, r0, lsl #8
     2b4:	0b3a0e03 	bleq	e83ac8 <__bss_end__+0xe78770>
     2b8:	0b390b3b 	bleq	e42fac <__bss_end__+0xe37c54>
     2bc:	00001349 	andeq	r1, r0, r9, asr #6
     2c0:	3f012e15 	svccc	0x00012e15
     2c4:	3a0e0319 	bcc	380f30 <__bss_end__+0x375bd8>
     2c8:	390b3b0b 	stmdbcc	fp, {r0, r1, r3, r8, r9, fp, ip, sp}
     2cc:	4919270b 	ldmdbmi	r9, {r0, r1, r3, r8, r9, sl, sp}
     2d0:	12011113 	andne	r1, r1, #-1073741820	; 0xc0000004
     2d4:	97184006 	ldrls	r4, [r8, -r6]
     2d8:	13011942 	movwne	r1, #6466	; 0x1942
     2dc:	05160000 	ldreq	r0, [r6, #-0]
     2e0:	3a0e0300 	bcc	380ee8 <__bss_end__+0x375b90>
     2e4:	390b3b0b 	stmdbcc	fp, {r0, r1, r3, r8, r9, fp, ip, sp}
     2e8:	0213490b 	andseq	r4, r3, #180224	; 0x2c000
     2ec:	1742b717 	smlaldne	fp, r2, r7, r7
     2f0:	05170000 	ldreq	r0, [r7, #-0]
     2f4:	3a080300 	bcc	200efc <__bss_end__+0x1f5ba4>
     2f8:	390b3b0b 	stmdbcc	fp, {r0, r1, r3, r8, r9, fp, ip, sp}
     2fc:	0213490b 	andseq	r4, r3, #180224	; 0x2c000
     300:	18000018 	stmdane	r0, {r3, r4}
     304:	08030034 	stmdaeq	r3, {r2, r4, r5}
     308:	0b3b0b3a 	bleq	ec2ff8 <__bss_end__+0xeb7ca0>
     30c:	13490b39 	movtne	r0, #39737	; 0x9b39
     310:	42b71702 	adcsmi	r1, r7, #524288	; 0x80000
     314:	19000017 	stmdbne	r0, {r0, r1, r2, r4}
     318:	0e030034 	mcreq	0, 0, r0, cr3, cr4, {1}
     31c:	0b3b0b3a 	bleq	ec300c <__bss_end__+0xeb7cb4>
     320:	13490b39 	movtne	r0, #39737	; 0x9b39
     324:	42b71702 	adcsmi	r1, r7, #524288	; 0x80000
     328:	1a000017 	bne	38c <__code_start__-0x7c74>
     32c:	0111010b 	tsteq	r1, fp, lsl #2
     330:	13010612 	movwne	r0, #5650	; 0x1612
     334:	0b1b0000 	bleq	6c033c <__bss_end__+0x6b4fe4>
     338:	12011101 	andne	r1, r1, #1073741824	; 0x40000000
     33c:	1c000006 	stcne	0, cr0, [r0], {6}
     340:	01018289 	smlabbeq	r1, r9, r2, r8
     344:	13310111 	teqne	r1, #1073741828	; 0x40000004
     348:	8a1d0000 	bhi	740350 <__bss_end__+0x734ff8>
     34c:	02000182 	andeq	r0, r0, #-2147483616	; 0x80000020
     350:	18429118 	stmdane	r2, {r3, r4, r8, ip, pc}^
     354:	891e0000 	ldmdbhi	lr, {}	; <UNPREDICTABLE>
     358:	11010182 	smlabbne	r1, r2, r1, r0
     35c:	01133101 	tsteq	r3, r1, lsl #2
     360:	1f000013 	svcne	0x00000013
     364:	193f012e 	ldmdbne	pc!, {r1, r2, r3, r5, r8}	; <UNPREDICTABLE>
     368:	0b3a0e03 	bleq	e83b7c <__bss_end__+0xe78824>
     36c:	0b390b3b 	bleq	e43060 <__bss_end__+0xe37d08>
     370:	01111927 	tsteq	r1, r7, lsr #18
     374:	18400612 	stmdane	r0, {r1, r4, r9, sl}^
     378:	01194297 			; <UNDEFINED> instruction: 0x01194297
     37c:	20000013 	andcs	r0, r0, r3, lsl r0
     380:	0e030034 	mcreq	0, 0, r0, cr3, cr4, {1}
     384:	19341349 	ldmdbne	r4!, {r0, r3, r6, r8, r9, ip}
     388:	00001802 	andeq	r1, r0, r2, lsl #16
     38c:	55010b21 	strpl	r0, [r1, #-2849]	; 0xfffff4df
     390:	00130117 	andseq	r0, r3, r7, lsl r1
     394:	82892200 	addhi	r2, r9, #0, 4
     398:	01110001 	tsteq	r1, r1
     39c:	00001331 	andeq	r1, r0, r1, lsr r3
     3a0:	03000523 	movweq	r0, #1315	; 0x523
     3a4:	3b0b3a08 	blcc	2cebcc <__bss_end__+0x2c3874>
     3a8:	490b390b 	stmdbmi	fp, {r0, r1, r3, r8, fp, ip, sp}
     3ac:	b7170213 			; <UNDEFINED> instruction: 0xb7170213
     3b0:	00001742 	andeq	r1, r0, r2, asr #14
     3b4:	01010b24 	tsteq	r1, r4, lsr #22
     3b8:	25000013 	strcs	r0, [r0, #-19]	; 0xffffffed
     3bc:	08030034 	stmdaeq	r3, {r2, r4, r5}
     3c0:	0b3b0b3a 	bleq	ec30b0 <__bss_end__+0xeb7d58>
     3c4:	13490b39 	movtne	r0, #39737	; 0x9b39
     3c8:	1d260000 	stcne	0, cr0, [r6, #-0]
     3cc:	52133101 	andspl	r3, r3, #1073741824	; 0x40000000
     3d0:	0b42b801 	bleq	10ae3dc <__bss_end__+0x10a3084>
     3d4:	06120111 			; <UNDEFINED> instruction: 0x06120111
     3d8:	0b590b58 	bleq	1643140 <__bss_end__+0x1637de8>
     3dc:	13010b57 	movwne	r0, #6999	; 0x1b57
     3e0:	05270000 	streq	r0, [r7, #-0]!
     3e4:	02133100 	andseq	r3, r3, #0
     3e8:	1742b717 	smlaldne	fp, r2, r7, r7
     3ec:	2e280000 	cdpcs	0, 2, cr0, cr8, cr0, {0}
     3f0:	03193f00 	tsteq	r9, #0, 30
     3f4:	3b0b3a0e 	blcc	2cec34 <__bss_end__+0x2c38dc>
     3f8:	270b390b 	strcs	r3, [fp, -fp, lsl #18]
     3fc:	11134919 	tstne	r3, r9, lsl r9
     400:	40061201 	andmi	r1, r6, r1, lsl #4
     404:	19429718 	stmdbne	r2, {r3, r4, r8, r9, sl, ip, pc}^
     408:	2e290000 	cdpcs	0, 2, cr0, cr9, cr0, {0}
     40c:	3a0e0301 	bcc	381018 <__bss_end__+0x375cc0>
     410:	390b3b0b 	stmdbcc	fp, {r0, r1, r3, r8, r9, fp, ip, sp}
     414:	4919270b 	ldmdbmi	r9, {r0, r1, r3, r8, r9, sl, sp}
     418:	010b2013 	tsteq	fp, r3, lsl r0
     41c:	2a000013 	bcs	470 <__code_start__-0x7b90>
     420:	08030005 	stmdaeq	r3, {r0, r2}
     424:	0b3b0b3a 	bleq	ec3114 <__bss_end__+0xeb7dbc>
     428:	13490b39 	movtne	r0, #39737	; 0x9b39
     42c:	2e2b0000 	cdpcs	0, 2, cr0, cr11, cr0, {0}
     430:	3c193f00 	ldccc	15, cr3, [r9], {-0}
     434:	030e6e19 	movweq	r6, #60953	; 0xee19
     438:	3b0b3a0e 	blcc	2cec78 <__bss_end__+0x2c3920>
     43c:	000b390b 	andeq	r3, fp, fp, lsl #18
     440:	11010000 	mrsne	r0, (UNDEF: 1)
     444:	130e2501 	movwne	r2, #58625	; 0xe501
     448:	1b0e030b 	blne	38107c <__bss_end__+0x375d24>
     44c:	1201110e 	andne	r1, r1, #-2147483645	; 0x80000003
     450:	00171006 	andseq	r1, r7, r6
     454:	00240200 	eoreq	r0, r4, r0, lsl #4
     458:	0b3e0b0b 	bleq	f8308c <__bss_end__+0xf77d34>
     45c:	00000803 	andeq	r0, r0, r3, lsl #16
     460:	0b002403 	bleq	9474 <rpi_set_output+0x2c>
     464:	030b3e0b 	movweq	r3, #48651	; 0xbe0b
     468:	0400000e 	streq	r0, [r0], #-14
     46c:	19270115 	stmdbne	r7!, {r0, r2, r4, r8}
     470:	13011349 	movwne	r1, #4937	; 0x1349
     474:	05050000 	streq	r0, [r5, #-0]
     478:	00134900 	andseq	r4, r3, r0, lsl #18
     47c:	00340600 	eorseq	r0, r4, r0, lsl #12
     480:	0b3a0e03 	bleq	e83c94 <__bss_end__+0xe7893c>
     484:	0b390b3b 	bleq	e43178 <__bss_end__+0xe37e20>
     488:	193f1349 	ldmdbne	pc!, {r0, r3, r6, r8, r9, ip}	; <UNPREDICTABLE>
     48c:	0000193c 	andeq	r1, r0, ip, lsr r9
     490:	0b000f07 	bleq	40b4 <__code_start__-0x3f4c>
     494:	0013490b 	andseq	r4, r3, fp, lsl #18
     498:	00260800 	eoreq	r0, r6, r0, lsl #16
     49c:	00001349 	andeq	r1, r0, r9, asr #6
     4a0:	03011709 	movweq	r1, #5897	; 0x1709
     4a4:	3a0b0b0e 	bcc	2c30e4 <__bss_end__+0x2b7d8c>
     4a8:	390b3b0b 	stmdbcc	fp, {r0, r1, r3, r8, r9, fp, ip, sp}
     4ac:	0013010b 	andseq	r0, r3, fp, lsl #2
     4b0:	000d0a00 	andeq	r0, sp, r0, lsl #20
     4b4:	0b3a0803 	bleq	e824c8 <__bss_end__+0xe77170>
     4b8:	0b390b3b 	bleq	e431ac <__bss_end__+0xe37e54>
     4bc:	00001349 	andeq	r1, r0, r9, asr #6
     4c0:	0b000f0b 	bleq	40f4 <__code_start__-0x3f0c>
     4c4:	0c00000b 	stceq	0, cr0, [r0], {11}
     4c8:	19270015 	stmdbne	r7!, {r0, r2, r4}
     4cc:	130d0000 	movwne	r0, #53248	; 0xd000
     4d0:	3a0b0b01 	bcc	2c30dc <__bss_end__+0x2b7d84>
     4d4:	390b3b0b 	stmdbcc	fp, {r0, r1, r3, r8, r9, fp, ip, sp}
     4d8:	0013010b 	andseq	r0, r3, fp, lsl #2
     4dc:	000d0e00 	andeq	r0, sp, r0, lsl #28
     4e0:	0b3a0803 	bleq	e824f4 <__bss_end__+0xe7719c>
     4e4:	0b390b3b 	bleq	e431d8 <__bss_end__+0xe37e80>
     4e8:	0b381349 	bleq	e05214 <__bss_end__+0xdf9ebc>
     4ec:	0d0f0000 	stceq	0, cr0, [pc, #-0]	; 4f4 <__code_start__-0x7b0c>
     4f0:	3a0e0300 	bcc	3810f8 <__bss_end__+0x375da0>
     4f4:	390b3b0b 	stmdbcc	fp, {r0, r1, r3, r8, r9, fp, ip, sp}
     4f8:	3813490b 	ldmdacc	r3, {r0, r1, r3, r8, fp, lr}
     4fc:	1000000b 	andne	r0, r0, fp
     500:	0e030016 	mcreq	0, 0, r0, cr3, cr6, {0}
     504:	0b3b0b3a 	bleq	ec31f4 <__bss_end__+0xeb7e9c>
     508:	13490b39 	movtne	r0, #39737	; 0x9b39
     50c:	34110000 	ldrcc	r0, [r1], #-0
     510:	3a0e0300 	bcc	381118 <__bss_end__+0x375dc0>
     514:	390b3b0b 	stmdbcc	fp, {r0, r1, r3, r8, r9, fp, ip, sp}
     518:	0213490b 	andseq	r4, r3, #180224	; 0x2c000
     51c:	12000018 	andne	r0, r0, #24, 0
     520:	193f012e 	ldmdbne	pc!, {r1, r2, r3, r5, r8}	; <UNPREDICTABLE>
     524:	0b3a0e03 	bleq	e83d38 <__bss_end__+0xe789e0>
     528:	0b390b3b 	bleq	e4321c <__bss_end__+0xe37ec4>
     52c:	01111927 	tsteq	r1, r7, lsr #18
     530:	18400612 	stmdane	r0, {r1, r4, r9, sl}^
     534:	01194297 			; <UNDEFINED> instruction: 0x01194297
     538:	13000013 	movwne	r0, #19
     53c:	08030005 	stmdaeq	r3, {r0, r2}
     540:	0b3b0b3a 	bleq	ec3230 <__bss_end__+0xeb7ed8>
     544:	13490b39 	movtne	r0, #39737	; 0x9b39
     548:	00001802 	andeq	r1, r0, r2, lsl #16
     54c:	03003414 	movweq	r3, #1044	; 0x414
     550:	3b0b3a08 	blcc	2ced78 <__bss_end__+0x2c3a20>
     554:	490b390b 	stmdbmi	fp, {r0, r1, r3, r8, fp, ip, sp}
     558:	b7170213 			; <UNDEFINED> instruction: 0xb7170213
     55c:	00001742 	andeq	r1, r0, r2, asr #14
     560:	3f012e15 	svccc	0x00012e15
     564:	3a0e0319 	bcc	3811d0 <__bss_end__+0x375e78>
     568:	390b3b0b 	stmdbcc	fp, {r0, r1, r3, r8, r9, fp, ip, sp}
     56c:	4919270b 	ldmdbmi	r9, {r0, r1, r3, r8, r9, sl, sp}
     570:	12011113 	andne	r1, r1, #-1073741820	; 0xc0000004
     574:	97184006 	ldrls	r4, [r8, -r6]
     578:	13011942 	movwne	r1, #6466	; 0x1942
     57c:	05160000 	ldreq	r0, [r6, #-0]
     580:	3a0e0300 	bcc	381188 <__bss_end__+0x375e30>
     584:	390b3b0b 	stmdbcc	fp, {r0, r1, r3, r8, r9, fp, ip, sp}
     588:	0213490b 	andseq	r4, r3, #180224	; 0x2c000
     58c:	1742b717 	smlaldne	fp, r2, r7, r7
     590:	34170000 	ldrcc	r0, [r7], #-0
     594:	3a0e0300 	bcc	38119c <__bss_end__+0x375e44>
     598:	390b3b0b 	stmdbcc	fp, {r0, r1, r3, r8, r9, fp, ip, sp}
     59c:	0213490b 	andseq	r4, r3, #180224	; 0x2c000
     5a0:	1742b717 	smlaldne	fp, r2, r7, r7
     5a4:	89180000 	ldmdbhi	r8, {}	; <UNPREDICTABLE>
     5a8:	11010182 	smlabbne	r1, r2, r1, r0
     5ac:	00133101 	andseq	r3, r3, r1, lsl #2
     5b0:	828a1900 	addhi	r1, sl, #0, 18
     5b4:	18020001 	stmdane	r2, {r0}
     5b8:	00184291 	mulseq	r8, r1, r2
     5bc:	012e1a00 			; <UNDEFINED> instruction: 0x012e1a00
     5c0:	0b3a0e03 	bleq	e83dd4 <__bss_end__+0xe78a7c>
     5c4:	0b390b3b 	bleq	e432b8 <__bss_end__+0xe37f60>
     5c8:	13491927 	movtne	r1, #39207	; 0x9927
     5cc:	06120111 			; <UNDEFINED> instruction: 0x06120111
     5d0:	42971840 	addsmi	r1, r7, #64, 16	; 0x400000
     5d4:	00130119 	andseq	r0, r3, r9, lsl r1
     5d8:	00051b00 	andeq	r1, r5, r0, lsl #22
     5dc:	0b3a0803 	bleq	e825f0 <__bss_end__+0xe77298>
     5e0:	0b390b3b 	bleq	e432d4 <__bss_end__+0xe37f7c>
     5e4:	17021349 	strne	r1, [r2, -r9, asr #6]
     5e8:	001742b7 			; <UNDEFINED> instruction: 0x001742b7
     5ec:	82891c00 	addhi	r1, r9, #0, 24
     5f0:	01110101 	tsteq	r1, r1, lsl #2
     5f4:	13011331 	movwne	r1, #4913	; 0x1331
     5f8:	891d0000 	ldmdbhi	sp, {}	; <UNPREDICTABLE>
     5fc:	11000182 	smlabbne	r0, r2, r1, r0
     600:	00133101 	andseq	r3, r3, r1, lsl #2
     604:	002e1e00 	eoreq	r1, lr, r0, lsl #28
     608:	193c193f 	ldmdbne	ip!, {r0, r1, r2, r3, r4, r5, r8, fp, ip}
     60c:	0e030e6e 	cdpeq	14, 0, cr0, cr3, cr14, {3}
     610:	0b3b0b3a 	bleq	ec3300 <__bss_end__+0xeb7fa8>
     614:	00000b39 	andeq	r0, r0, r9, lsr fp
     618:	01110100 	tsteq	r1, r0, lsl #2
     61c:	0b130e25 	bleq	4c3eb8 <__bss_end__+0x4b8b60>
     620:	0e1b0e03 	cdpeq	14, 1, cr0, cr11, cr3, {0}
     624:	06120111 			; <UNDEFINED> instruction: 0x06120111
     628:	00001710 	andeq	r1, r0, r0, lsl r7
     62c:	0b002402 	bleq	963c <va_printk+0x194>
     630:	030b3e0b 	movweq	r3, #48651	; 0xbe0b
     634:	03000008 	movweq	r0, #8
     638:	0b0b0024 	bleq	2c06d0 <__bss_end__+0x2b5378>
     63c:	0e030b3e 	vmoveq.16	d3[0], r0
     640:	16040000 	strne	r0, [r4], -r0
     644:	3a0e0300 	bcc	38124c <__bss_end__+0x375ef4>
     648:	390b3b0b 	stmdbcc	fp, {r0, r1, r3, r8, r9, fp, ip, sp}
     64c:	0013490b 	andseq	r4, r3, fp, lsl #18
     650:	01150500 	tsteq	r5, r0, lsl #10
     654:	13491927 	movtne	r1, #39207	; 0x9927
     658:	00001301 	andeq	r1, r0, r1, lsl #6
     65c:	49000506 	stmdbmi	r0, {r1, r2, r8, sl}
     660:	07000013 	smladeq	r0, r3, r0, r0
     664:	0e030034 	mcreq	0, 0, r0, cr3, cr4, {1}
     668:	0b3b0b3a 	bleq	ec3358 <__bss_end__+0xeb8000>
     66c:	13490b39 	movtne	r0, #39737	; 0x9b39
     670:	193c193f 	ldmdbne	ip!, {r0, r1, r2, r3, r4, r5, r8, fp, ip}
     674:	0f080000 	svceq	0x00080000
     678:	490b0b00 	stmdbmi	fp, {r8, r9, fp}
     67c:	09000013 	stmdbeq	r0, {r0, r1, r4}
     680:	13490026 	movtne	r0, #36902	; 0x9026
     684:	130a0000 	movwne	r0, #40960	; 0xa000
     688:	3a0b0b01 	bcc	2c3294 <__bss_end__+0x2b7f3c>
     68c:	390b3b0b 	stmdbcc	fp, {r0, r1, r3, r8, r9, fp, ip, sp}
     690:	0013010b 	andseq	r0, r3, fp, lsl #2
     694:	000d0b00 	andeq	r0, sp, r0, lsl #22
     698:	0b3a0e03 	bleq	e83eac <__bss_end__+0xe78b54>
     69c:	0b390b3b 	bleq	e43390 <__bss_end__+0xe38038>
     6a0:	0b381349 	bleq	e053cc <__bss_end__+0xdfa074>
     6a4:	040c0000 	streq	r0, [ip], #-0
     6a8:	0b0b3e01 	bleq	2cfeb4 <__bss_end__+0x2c4b5c>
     6ac:	3a13490b 	bcc	4d2ae0 <__bss_end__+0x4c7788>
     6b0:	390b3b0b 	stmdbcc	fp, {r0, r1, r3, r8, r9, fp, ip, sp}
     6b4:	0013010b 	andseq	r0, r3, fp, lsl #2
     6b8:	00280d00 	eoreq	r0, r8, r0, lsl #26
     6bc:	0b1c0e03 	bleq	703ed0 <__bss_end__+0x6f8b78>
     6c0:	130e0000 	movwne	r0, #57344	; 0xe000
     6c4:	0b0e0301 	bleq	3812d0 <__bss_end__+0x375f78>
     6c8:	3b0b3a0b 	blcc	2ceefc <__bss_end__+0x2c3ba4>
     6cc:	010b390b 	tsteq	fp, fp, lsl #18
     6d0:	0f000013 	svceq	0x00000013
     6d4:	0803000d 	stmdaeq	r3, {r0, r2, r3}
     6d8:	0b3b0b3a 	bleq	ec33c8 <__bss_end__+0xeb8070>
     6dc:	13490b39 	movtne	r0, #39737	; 0x9b39
     6e0:	00000b38 	andeq	r0, r0, r8, lsr fp
     6e4:	49010110 	stmdbmi	r1, {r4, r8}
     6e8:	00130113 	andseq	r0, r3, r3, lsl r1
     6ec:	00211100 	eoreq	r1, r1, r0, lsl #2
     6f0:	0b2f1349 	bleq	bc541c <__bss_end__+0xbba0c4>
     6f4:	0f120000 	svceq	0x00120000
     6f8:	000b0b00 	andeq	r0, fp, r0, lsl #22
     6fc:	00341300 	eorseq	r1, r4, r0, lsl #6
     700:	0b3a0e03 	bleq	e83f14 <__bss_end__+0xe78bbc>
     704:	0b390b3b 	bleq	e433f8 <__bss_end__+0xe380a0>
     708:	18021349 	stmdane	r2, {r0, r3, r6, r8, r9, ip}
     70c:	2e140000 	cdpcs	0, 1, cr0, cr4, cr0, {0}
     710:	03193f01 	tsteq	r9, #1, 30
     714:	3b0b3a0e 	blcc	2cef54 <__bss_end__+0x2c3bfc>
     718:	270b3905 	strcs	r3, [fp, -r5, lsl #18]
     71c:	12011119 	andne	r1, r1, #1073741830	; 0x40000006
     720:	97184006 	ldrls	r4, [r8, -r6]
     724:	13011942 	movwne	r1, #6466	; 0x1942
     728:	34150000 	ldrcc	r0, [r5], #-0
     72c:	490e0300 	stmdbmi	lr, {r8, r9}
     730:	02193413 	andseq	r3, r9, #318767104	; 0x13000000
     734:	16000018 			; <UNDEFINED> instruction: 0x16000018
     738:	01018289 	smlabbeq	r1, r9, r2, r8
     73c:	13310111 	teqne	r1, #1073741828	; 0x40000004
     740:	00001301 	andeq	r1, r0, r1, lsl #6
     744:	01828a17 	orreq	r8, r2, r7, lsl sl
     748:	91180200 	tstls	r8, r0, lsl #4
     74c:	00001842 	andeq	r1, r0, r2, asr #16
     750:	01828918 	orreq	r8, r2, r8, lsl r9
     754:	31011100 	mrscc	r1, (UNDEF: 17)
     758:	19000013 	stmdbne	r0, {r0, r1, r4}
     75c:	193f012e 	ldmdbne	pc!, {r1, r2, r3, r5, r8}	; <UNPREDICTABLE>
     760:	0b3a0e03 	bleq	e83f74 <__bss_end__+0xe78c1c>
     764:	0b39053b 	bleq	e41c58 <__bss_end__+0xe36900>
     768:	13491927 	movtne	r1, #39207	; 0x9927
     76c:	06120111 			; <UNDEFINED> instruction: 0x06120111
     770:	42971840 	addsmi	r1, r7, #64, 16	; 0x400000
     774:	00130119 	andseq	r0, r3, r9, lsl r1
     778:	00341a00 	eorseq	r1, r4, r0, lsl #20
     77c:	0b3a0e03 	bleq	e83f90 <__bss_end__+0xe78c38>
     780:	0b39053b 	bleq	e41c74 <__bss_end__+0xe3691c>
     784:	17021349 	strne	r1, [r2, -r9, asr #6]
     788:	001742b7 			; <UNDEFINED> instruction: 0x001742b7
     78c:	012e1b00 			; <UNDEFINED> instruction: 0x012e1b00
     790:	0b3a0e03 	bleq	e83fa4 <__bss_end__+0xe78c4c>
     794:	0b39053b 	bleq	e41c88 <__bss_end__+0xe36930>
     798:	13491927 	movtne	r1, #39207	; 0x9927
     79c:	06120111 			; <UNDEFINED> instruction: 0x06120111
     7a0:	42971840 	addsmi	r1, r7, #64, 16	; 0x400000
     7a4:	00130119 	andseq	r0, r3, r9, lsl r1
     7a8:	010b1c00 	tsteq	fp, r0, lsl #24
     7ac:	13011755 	movwne	r1, #5973	; 0x1755
     7b0:	341d0000 	ldrcc	r0, [sp], #-0
     7b4:	3a080300 	bcc	2013bc <__bss_end__+0x1f6064>
     7b8:	39053b0b 	stmdbcc	r5, {r0, r1, r3, r8, r9, fp, ip, sp}
     7bc:	0213490b 	andseq	r4, r3, #180224	; 0x2c000
     7c0:	1742b717 	smlaldne	fp, r2, r7, r7
     7c4:	1d1e0000 	ldcne	0, cr0, [lr, #-0]
     7c8:	52133101 	andspl	r3, r3, #1073741824	; 0x40000000
     7cc:	0b42b801 	bleq	10ae7d8 <__bss_end__+0x10a3480>
     7d0:	06120111 			; <UNDEFINED> instruction: 0x06120111
     7d4:	05590b58 	ldrbeq	r0, [r9, #-2904]	; 0xfffff4a8
     7d8:	13010b57 	movwne	r0, #6999	; 0x1b57
     7dc:	051f0000 	ldreq	r0, [pc, #-0]	; 7e4 <__code_start__-0x781c>
     7e0:	02133100 	andseq	r3, r3, #0
     7e4:	1742b717 	smlaldne	fp, r2, r7, r7
     7e8:	89200000 	stmdbhi	r0!, {}	; <UNPREDICTABLE>
     7ec:	11010182 	smlabbne	r1, r2, r1, r0
     7f0:	00133101 	andseq	r3, r3, r1, lsl #2
     7f4:	012e2100 			; <UNDEFINED> instruction: 0x012e2100
     7f8:	0e03193f 			; <UNDEFINED> instruction: 0x0e03193f
     7fc:	0b3b0b3a 	bleq	ec34ec <__bss_end__+0xeb8194>
     800:	19270b39 	stmdbne	r7!, {r0, r3, r4, r5, r8, r9, fp}
     804:	06120111 			; <UNDEFINED> instruction: 0x06120111
     808:	42971840 	addsmi	r1, r7, #64, 16	; 0x400000
     80c:	00130119 	andseq	r0, r3, r9, lsl r1
     810:	012e2200 			; <UNDEFINED> instruction: 0x012e2200
     814:	0e03193f 			; <UNDEFINED> instruction: 0x0e03193f
     818:	0b3b0b3a 	bleq	ec3508 <__bss_end__+0xeb81b0>
     81c:	19270b39 	stmdbne	r7!, {r0, r3, r4, r5, r8, r9, fp}
     820:	01111349 	tsteq	r1, r9, asr #6
     824:	18400612 	stmdane	r0, {r1, r4, r9, sl}^
     828:	01194297 			; <UNDEFINED> instruction: 0x01194297
     82c:	23000013 	movwcs	r0, #19
     830:	0e030005 	cdpeq	0, 0, cr0, cr3, cr5, {0}
     834:	0b3b0b3a 	bleq	ec3524 <__bss_end__+0xeb81cc>
     838:	13490b39 	movtne	r0, #39737	; 0x9b39
     83c:	42b71702 	adcsmi	r1, r7, #524288	; 0x80000
     840:	24000017 	strcs	r0, [r0], #-23	; 0xffffffe9
     844:	0e03012e 	adfeqsp	f0, f3, #0.5
     848:	0b3b0b3a 	bleq	ec3538 <__bss_end__+0xeb81e0>
     84c:	19270b39 	stmdbne	r7!, {r0, r3, r4, r5, r8, r9, fp}
     850:	01111349 	tsteq	r1, r9, asr #6
     854:	18400612 	stmdane	r0, {r1, r4, r9, sl}^
     858:	01194297 			; <UNDEFINED> instruction: 0x01194297
     85c:	25000013 	strcs	r0, [r0, #-19]	; 0xffffffed
     860:	0e030034 	mcreq	0, 0, r0, cr3, cr4, {1}
     864:	0b3b0b3a 	bleq	ec3554 <__bss_end__+0xeb81fc>
     868:	13490b39 	movtne	r0, #39737	; 0x9b39
     86c:	42b71702 	adcsmi	r1, r7, #524288	; 0x80000
     870:	26000017 			; <UNDEFINED> instruction: 0x26000017
     874:	08030034 	stmdaeq	r3, {r2, r4, r5}
     878:	0b3b0b3a 	bleq	ec3568 <__bss_end__+0xeb8210>
     87c:	13490b39 	movtne	r0, #39737	; 0x9b39
     880:	42b71702 	adcsmi	r1, r7, #524288	; 0x80000
     884:	27000017 	smladcs	r0, r7, r0, r0
     888:	1755010b 	ldrbne	r0, [r5, -fp, lsl #2]
     88c:	05280000 	streq	r0, [r8, #-0]!
     890:	3a0e0300 	bcc	381498 <__bss_end__+0x376140>
     894:	390b3b0b 	stmdbcc	fp, {r0, r1, r3, r8, r9, fp, ip, sp}
     898:	0213490b 	andseq	r4, r3, #180224	; 0x2c000
     89c:	29000018 	stmdbcs	r0, {r3, r4}
     8a0:	0e03012e 	adfeqsp	f0, f3, #0.5
     8a4:	0b3b0b3a 	bleq	ec3594 <__bss_end__+0xeb823c>
     8a8:	19270b39 	stmdbne	r7!, {r0, r3, r4, r5, r8, r9, fp}
     8ac:	06120111 			; <UNDEFINED> instruction: 0x06120111
     8b0:	42971840 	addsmi	r1, r7, #64, 16	; 0x400000
     8b4:	00130119 	andseq	r0, r3, r9, lsl r1
     8b8:	00342a00 	eorseq	r2, r4, r0, lsl #20
     8bc:	0b3a0e03 	bleq	e840d0 <__bss_end__+0xe78d78>
     8c0:	0b390b3b 	bleq	e435b4 <__bss_end__+0xe3825c>
     8c4:	061c1349 	ldreq	r1, [ip], -r9, asr #6
     8c8:	0b2b0000 	bleq	ac08d0 <__bss_end__+0xab5578>
     8cc:	12011101 	andne	r1, r1, #1073741824	; 0x40000000
     8d0:	00130106 	andseq	r0, r3, r6, lsl #2
     8d4:	00052c00 	andeq	r2, r5, r0, lsl #24
     8d8:	0b3a0803 	bleq	e828ec <__bss_end__+0xe77594>
     8dc:	0b390b3b 	bleq	e435d0 <__bss_end__+0xe38278>
     8e0:	17021349 	strne	r1, [r2, -r9, asr #6]
     8e4:	001742b7 			; <UNDEFINED> instruction: 0x001742b7
     8e8:	011d2d00 	tsteq	sp, r0, lsl #26
     8ec:	01521331 	cmpeq	r2, r1, lsr r3
     8f0:	550b42b8 	strpl	r4, [fp, #-696]	; 0xfffffd48
     8f4:	590b5817 	stmdbpl	fp, {r0, r1, r2, r4, fp, ip, lr}
     8f8:	000b570b 	andeq	r5, fp, fp, lsl #14
     8fc:	00052e00 	andeq	r2, r5, r0, lsl #28
     900:	00001331 	andeq	r1, r0, r1, lsr r3
     904:	3100342f 	tstcc	r0, pc, lsr #8
     908:	b7170213 			; <UNDEFINED> instruction: 0xb7170213
     90c:	00001742 	andeq	r1, r0, r2, asr #14
     910:	03012e30 	movweq	r2, #7728	; 0x1e30
     914:	3b0b3a0e 	blcc	2cf154 <__bss_end__+0x2c3dfc>
     918:	270b390b 	strcs	r3, [fp, -fp, lsl #18]
     91c:	20134919 	andscs	r4, r3, r9, lsl r9
     920:	0013010b 	andseq	r0, r3, fp, lsl #2
     924:	00053100 	andeq	r3, r5, r0, lsl #2
     928:	0b3a0e03 	bleq	e8413c <__bss_end__+0xe78de4>
     92c:	0b390b3b 	bleq	e43620 <__bss_end__+0xe382c8>
     930:	00001349 	andeq	r1, r0, r9, asr #6
     934:	03003432 	movweq	r3, #1074	; 0x432
     938:	3b0b3a08 	blcc	2cf160 <__bss_end__+0x2c3e08>
     93c:	490b390b 	stmdbmi	fp, {r0, r1, r3, r8, fp, ip, sp}
     940:	33000013 	movwcc	r0, #19
     944:	193f002e 	ldmdbne	pc!, {r1, r2, r3, r5}	; <UNPREDICTABLE>
     948:	0e6e193c 			; <UNDEFINED> instruction: 0x0e6e193c
     94c:	0b3a0e03 	bleq	e84160 <__bss_end__+0xe78e08>
     950:	0b390b3b 	bleq	e43644 <__bss_end__+0xe382ec>
     954:	36340000 	ldrtcc	r0, [r4], -r0
     958:	00180200 	andseq	r0, r8, r0, lsl #4
     95c:	11010000 	mrsne	r0, (UNDEF: 1)
     960:	130e2501 	movwne	r2, #58625	; 0xe501
     964:	1b0e030b 	blne	381598 <__bss_end__+0x376240>
     968:	1201110e 	andne	r1, r1, #-2147483645	; 0x80000003
     96c:	00171006 	andseq	r1, r7, r6
     970:	00240200 	eoreq	r0, r4, r0, lsl #4
     974:	0b3e0b0b 	bleq	f835a8 <__bss_end__+0xf78250>
     978:	00000803 	andeq	r0, r0, r3, lsl #16
     97c:	0b002403 	bleq	9990 <va_printk+0x4e8>
     980:	030b3e0b 	movweq	r3, #48651	; 0xbe0b
     984:	0400000e 	streq	r0, [r0], #-14
     988:	19270115 	stmdbne	r7!, {r0, r2, r4, r8}
     98c:	13011349 	movwne	r1, #4937	; 0x1349
     990:	05050000 	streq	r0, [r5, #-0]
     994:	00134900 	andseq	r4, r3, r0, lsl #18
     998:	00340600 	eorseq	r0, r4, r0, lsl #12
     99c:	0b3a0e03 	bleq	e841b0 <__bss_end__+0xe78e58>
     9a0:	0b390b3b 	bleq	e43694 <__bss_end__+0xe3833c>
     9a4:	193f1349 	ldmdbne	pc!, {r0, r3, r6, r8, r9, ip}	; <UNPREDICTABLE>
     9a8:	0000193c 	andeq	r1, r0, ip, lsr r9
     9ac:	0b000f07 	bleq	45d0 <__code_start__-0x3a30>
     9b0:	0013490b 	andseq	r4, r3, fp, lsl #18
     9b4:	00260800 	eoreq	r0, r6, r0, lsl #16
     9b8:	00001349 	andeq	r1, r0, r9, asr #6
     9bc:	3f012e09 	svccc	0x00012e09
     9c0:	3a0e0319 	bcc	38162c <__bss_end__+0x3762d4>
     9c4:	390b3b0b 	stmdbcc	fp, {r0, r1, r3, r8, r9, fp, ip, sp}
     9c8:	4919270b 	ldmdbmi	r9, {r0, r1, r3, r8, r9, sl, sp}
     9cc:	010b2013 	tsteq	fp, r3, lsl r0
     9d0:	0a000013 	beq	a24 <__code_start__-0x75dc>
     9d4:	0e030005 	cdpeq	0, 0, cr0, cr3, cr5, {0}
     9d8:	0b3b0b3a 	bleq	ec36c8 <__bss_end__+0xeb8370>
     9dc:	13490b39 	movtne	r0, #39737	; 0x9b39
     9e0:	340b0000 	strcc	r0, [fp], #-0
     9e4:	3a0e0300 	bcc	3815ec <__bss_end__+0x376294>
     9e8:	390b3b0b 	stmdbcc	fp, {r0, r1, r3, r8, r9, fp, ip, sp}
     9ec:	0013490b 	andseq	r4, r3, fp, lsl #18
     9f0:	010b0c00 	tsteq	fp, r0, lsl #24
     9f4:	2e0d0000 	cdpcs	0, 0, cr0, cr13, cr0, {0}
     9f8:	03193f01 	tsteq	r9, #1, 30
     9fc:	3b0b3a0e 	blcc	2cf23c <__bss_end__+0x2c3ee4>
     a00:	490b390b 	stmdbmi	fp, {r0, r1, r3, r8, fp, ip, sp}
     a04:	12011113 	andne	r1, r1, #-1073741820	; 0xc0000004
     a08:	97184006 	ldrls	r4, [r8, -r6]
     a0c:	13011942 	movwne	r1, #6466	; 0x1942
     a10:	340e0000 	strcc	r0, [lr], #-0
     a14:	3a0e0300 	bcc	38161c <__bss_end__+0x3762c4>
     a18:	390b3b0b 	stmdbcc	fp, {r0, r1, r3, r8, r9, fp, ip, sp}
     a1c:	0213490b 	andseq	r4, r3, #180224	; 0x2c000
     a20:	1742b717 	smlaldne	fp, r2, r7, r7
     a24:	0b0f0000 	bleq	3c0a2c <__bss_end__+0x3b56d4>
     a28:	12011101 	andne	r1, r1, #1073741824	; 0x40000000
     a2c:	10000006 	andne	r0, r0, r6
     a30:	08030034 	stmdaeq	r3, {r2, r4, r5}
     a34:	0b3b0b3a 	bleq	ec3724 <__bss_end__+0xeb83cc>
     a38:	13490b39 	movtne	r0, #39737	; 0x9b39
     a3c:	42b71702 	adcsmi	r1, r7, #524288	; 0x80000
     a40:	11000017 	tstne	r0, r7, lsl r0
     a44:	1755010b 	ldrbne	r0, [r5, -fp, lsl #2]
     a48:	1d120000 	ldcne	0, cr0, [r2, #-0]
     a4c:	52133101 	andspl	r3, r3, #1073741824	; 0x40000000
     a50:	0b42b801 	bleq	10aea5c <__bss_end__+0x10a3704>
     a54:	0b581755 	bleq	16067b0 <__bss_end__+0x15fb458>
     a58:	0b570b59 	bleq	15c37c4 <__bss_end__+0x15b846c>
     a5c:	00001301 	andeq	r1, r0, r1, lsl #6
     a60:	31000513 	tstcc	r0, r3, lsl r5
     a64:	b7170213 			; <UNDEFINED> instruction: 0xb7170213
     a68:	00001742 	andeq	r1, r0, r2, asr #14
     a6c:	31003414 	tstcc	r0, r4, lsl r4
     a70:	b7170213 			; <UNDEFINED> instruction: 0xb7170213
     a74:	00001742 	andeq	r1, r0, r2, asr #14
     a78:	31010b15 	tstcc	r1, r5, lsl fp
     a7c:	00175513 	andseq	r5, r7, r3, lsl r5
     a80:	82891600 	addhi	r1, r9, #0, 12
     a84:	01110101 	tsteq	r1, r1, lsl #2
     a88:	00001331 	andeq	r1, r0, r1, lsr r3
     a8c:	01828a17 	orreq	r8, r2, r7, lsl sl
     a90:	91180200 	tstls	r8, r0, lsl #4
     a94:	00001842 	andeq	r1, r0, r2, asr #16
     a98:	31012e18 	tstcc	r1, r8, lsl lr
     a9c:	12011113 	andne	r1, r1, #-1073741820	; 0xc0000004
     aa0:	97184006 	ldrls	r4, [r8, -r6]
     aa4:	13011942 	movwne	r1, #6466	; 0x1942
     aa8:	0b190000 	bleq	640ab0 <__bss_end__+0x635758>
     aac:	11133101 	tstne	r3, r1, lsl #2
     ab0:	00061201 	andeq	r1, r6, r1, lsl #4
     ab4:	002e1a00 	eoreq	r1, lr, r0, lsl #20
     ab8:	193c193f 	ldmdbne	ip!, {r0, r1, r2, r3, r4, r5, r8, fp, ip}
     abc:	0e030e6e 	cdpeq	14, 0, cr0, cr3, cr14, {3}
     ac0:	0b3b0b3a 	bleq	ec37b0 <__bss_end__+0xeb8458>
     ac4:	00000b39 	andeq	r0, r0, r9, lsr fp
     ac8:	01110100 	tsteq	r1, r0, lsl #2
     acc:	0b130e25 	bleq	4c4368 <__bss_end__+0x4b9010>
     ad0:	0e1b0e03 	cdpeq	14, 1, cr0, cr11, cr3, {0}
     ad4:	06120111 			; <UNDEFINED> instruction: 0x06120111
     ad8:	00001710 	andeq	r1, r0, r0, lsl r7
     adc:	0b002402 	bleq	9aec <clean_reboot+0x18>
     ae0:	030b3e0b 	movweq	r3, #48651	; 0xbe0b
     ae4:	03000008 	movweq	r0, #8
     ae8:	0e030016 	mcreq	0, 0, r0, cr3, cr6, {0}
     aec:	0b3b0b3a 	bleq	ec37dc <__bss_end__+0xeb8484>
     af0:	13490b39 	movtne	r0, #39737	; 0x9b39
     af4:	24040000 	strcs	r0, [r4], #-0
     af8:	3e0b0b00 	vmlacc.f64	d0, d11, d0
     afc:	000e030b 	andeq	r0, lr, fp, lsl #6
     b00:	01150500 	tsteq	r5, r0, lsl #10
     b04:	13491927 	movtne	r1, #39207	; 0x9927
     b08:	00001301 	andeq	r1, r0, r1, lsl #6
     b0c:	49000506 	stmdbmi	r0, {r1, r2, r8, sl}
     b10:	07000013 	smladeq	r0, r3, r0, r0
     b14:	0e030034 	mcreq	0, 0, r0, cr3, cr4, {1}
     b18:	0b3b0b3a 	bleq	ec3808 <__bss_end__+0xeb84b0>
     b1c:	13490b39 	movtne	r0, #39737	; 0x9b39
     b20:	193c193f 	ldmdbne	ip!, {r0, r1, r2, r3, r4, r5, r8, fp, ip}
     b24:	0f080000 	svceq	0x00080000
     b28:	490b0b00 	stmdbmi	fp, {r8, r9, fp}
     b2c:	09000013 	stmdbeq	r0, {r0, r1, r4}
     b30:	13490026 	movtne	r0, #36902	; 0x9026
     b34:	2e0a0000 	cdpcs	0, 0, cr0, cr10, cr0, {0}
     b38:	03193f01 	tsteq	r9, #1, 30
     b3c:	3b0b3a0e 	blcc	2cf37c <__bss_end__+0x2c4024>
     b40:	270b390b 	strcs	r3, [fp, -fp, lsl #18]
     b44:	11134919 	tstne	r3, r9, lsl r9
     b48:	40061201 	andmi	r1, r6, r1, lsl #4
     b4c:	19429718 	stmdbne	r2, {r3, r4, r8, r9, sl, ip, pc}^
     b50:	00001301 	andeq	r1, r0, r1, lsl #6
     b54:	0300050b 	movweq	r0, #1291	; 0x50b
     b58:	3b0b3a08 	blcc	2cf380 <__bss_end__+0x2c4028>
     b5c:	490b390b 	stmdbmi	fp, {r0, r1, r3, r8, fp, ip, sp}
     b60:	00180213 	andseq	r0, r8, r3, lsl r2
     b64:	00050c00 	andeq	r0, r5, r0, lsl #24
     b68:	0b3a0803 	bleq	e82b7c <__bss_end__+0xe77824>
     b6c:	0b390b3b 	bleq	e43860 <__bss_end__+0xe38508>
     b70:	17021349 	strne	r1, [r2, -r9, asr #6]
     b74:	001742b7 			; <UNDEFINED> instruction: 0x001742b7
     b78:	00340d00 	eorseq	r0, r4, r0, lsl #26
     b7c:	0b3a0803 	bleq	e82b90 <__bss_end__+0xe77838>
     b80:	0b390b3b 	bleq	e43874 <__bss_end__+0xe3851c>
     b84:	17021349 	strne	r1, [r2, -r9, asr #6]
     b88:	001742b7 			; <UNDEFINED> instruction: 0x001742b7
     b8c:	000f0e00 	andeq	r0, pc, r0, lsl #28
     b90:	00000b0b 	andeq	r0, r0, fp, lsl #22
     b94:	01110100 	tsteq	r1, r0, lsl #2
     b98:	0b130e25 	bleq	4c4434 <__bss_end__+0x4b90dc>
     b9c:	0e1b0e03 	cdpeq	14, 1, cr0, cr11, cr3, {0}
     ba0:	06120111 			; <UNDEFINED> instruction: 0x06120111
     ba4:	00001710 	andeq	r1, r0, r0, lsl r7
     ba8:	03001602 	movweq	r1, #1538	; 0x602
     bac:	3b0b3a0e 	blcc	2cf3ec <__bss_end__+0x2c4094>
     bb0:	490b390b 	stmdbmi	fp, {r0, r1, r3, r8, fp, ip, sp}
     bb4:	03000013 	movweq	r0, #19
     bb8:	0e030113 	mcreq	1, 0, r0, cr3, cr3, {0}
     bbc:	0b3a0b0b 	bleq	e837f0 <__bss_end__+0xe78498>
     bc0:	13010b3b 	movwne	r0, #6971	; 0x1b3b
     bc4:	0d040000 	stceq	0, cr0, [r4, #-0]
     bc8:	490e0300 	stmdbmi	lr, {r8, r9}
     bcc:	340b3813 	strcc	r3, [fp], #-2067	; 0xfffff7ed
     bd0:	05000019 	streq	r0, [r0, #-25]	; 0xffffffe7
     bd4:	0b0b000f 	bleq	2c0c18 <__bss_end__+0x2b58c0>
     bd8:	24060000 	strcs	r0, [r6], #-0
     bdc:	3e0b0b00 	vmlacc.f64	d0, d11, d0
     be0:	0008030b 	andeq	r0, r8, fp, lsl #6
     be4:	00240700 	eoreq	r0, r4, r0, lsl #14
     be8:	0b3e0b0b 	bleq	f8381c <__bss_end__+0xf784c4>
     bec:	00000e03 	andeq	r0, r0, r3, lsl #28
     bf0:	27011508 	strcs	r1, [r1, -r8, lsl #10]
     bf4:	01134919 	tsteq	r3, r9, lsl r9
     bf8:	09000013 	stmdbeq	r0, {r0, r1, r4}
     bfc:	13490005 	movtne	r0, #36869	; 0x9005
     c00:	340a0000 	strcc	r0, [sl], #-0
     c04:	3a0e0300 	bcc	38180c <__bss_end__+0x3764b4>
     c08:	390b3b0b 	stmdbcc	fp, {r0, r1, r3, r8, r9, fp, ip, sp}
     c0c:	3f13490b 	svccc	0x0013490b
     c10:	00193c19 	andseq	r3, r9, r9, lsl ip
     c14:	000f0b00 	andeq	r0, pc, r0, lsl #22
     c18:	13490b0b 	movtne	r0, #39691	; 0x9b0b
     c1c:	260c0000 	strcs	r0, [ip], -r0
     c20:	00134900 	andseq	r4, r3, r0, lsl #18
     c24:	012e0d00 			; <UNDEFINED> instruction: 0x012e0d00
     c28:	0e03193f 			; <UNDEFINED> instruction: 0x0e03193f
     c2c:	0b3b0b3a 	bleq	ec391c <__bss_end__+0xeb85c4>
     c30:	19270b39 	stmdbne	r7!, {r0, r3, r4, r5, r8, r9, fp}
     c34:	01111349 	tsteq	r1, r9, asr #6
     c38:	18400612 	stmdane	r0, {r1, r4, r9, sl}^
     c3c:	01194297 			; <UNDEFINED> instruction: 0x01194297
     c40:	0e000013 	mcreq	0, 0, r0, cr0, cr3, {0}
     c44:	08030005 	stmdaeq	r3, {r0, r2}
     c48:	0b3b0b3a 	bleq	ec3938 <__bss_end__+0xeb85e0>
     c4c:	13490b39 	movtne	r0, #39737	; 0x9b39
     c50:	00001802 	andeq	r1, r0, r2, lsl #16
     c54:	0000180f 	andeq	r1, r0, pc, lsl #16
     c58:	00341000 	eorseq	r1, r4, r0
     c5c:	0b3a0803 	bleq	e82c70 <__bss_end__+0xe77918>
     c60:	0b390b3b 	bleq	e43954 <__bss_end__+0xe385fc>
     c64:	18021349 	stmdane	r2, {r0, r3, r6, r8, r9, ip}
     c68:	34110000 	ldrcc	r0, [r1], #-0
     c6c:	3a0e0300 	bcc	381874 <__bss_end__+0x37651c>
     c70:	390b3b0b 	stmdbcc	fp, {r0, r1, r3, r8, r9, fp, ip, sp}
     c74:	0213490b 	andseq	r4, r3, #180224	; 0x2c000
     c78:	12000018 	andne	r0, r0, #24, 0
     c7c:	08030034 	stmdaeq	r3, {r2, r4, r5}
     c80:	0b3b0b3a 	bleq	ec3970 <__bss_end__+0xeb8618>
     c84:	13490b39 	movtne	r0, #39737	; 0x9b39
     c88:	42b71702 	adcsmi	r1, r7, #524288	; 0x80000
     c8c:	13000017 	movwne	r0, #23
     c90:	01018289 	smlabbeq	r1, r9, r2, r8
     c94:	13310111 	teqne	r1, #1073741828	; 0x40000004
     c98:	00001301 	andeq	r1, r0, r1, lsl #6
     c9c:	01828a14 	orreq	r8, r2, r4, lsl sl
     ca0:	91180200 	tstls	r8, r0, lsl #4
     ca4:	00001842 	andeq	r1, r0, r2, asr #16
     ca8:	01828915 	orreq	r8, r2, r5, lsl r9
     cac:	00011101 	andeq	r1, r1, r1, lsl #2
     cb0:	01011600 	tsteq	r1, r0, lsl #12
     cb4:	13011349 	movwne	r1, #4937	; 0x1349
     cb8:	21170000 	tstcs	r7, r0
     cbc:	2f134900 	svccs	0x00134900
     cc0:	18000005 	stmdane	r0, {r0, r2}
     cc4:	193f002e 	ldmdbne	pc!, {r1, r2, r3, r5}	; <UNPREDICTABLE>
     cc8:	0e6e193c 			; <UNDEFINED> instruction: 0x0e6e193c
     ccc:	0b3a0e03 	bleq	e844e0 <__bss_end__+0xe79188>
     cd0:	0b390b3b 	bleq	e439c4 <__bss_end__+0xe3866c>
     cd4:	01000000 	mrseq	r0, (UNDEF: 0)
     cd8:	0e250111 	mcreq	1, 1, r0, cr5, cr1, {0}
     cdc:	0e030b13 	vmoveq.32	d3[0], r0
     ce0:	01110e1b 	tsteq	r1, fp, lsl lr
     ce4:	17100612 			; <UNDEFINED> instruction: 0x17100612
     ce8:	24020000 	strcs	r0, [r2], #-0
     cec:	3e0b0b00 	vmlacc.f64	d0, d11, d0
     cf0:	0008030b 	andeq	r0, r8, fp, lsl #6
     cf4:	00240300 	eoreq	r0, r4, r0, lsl #6
     cf8:	0b3e0b0b 	bleq	f8392c <__bss_end__+0xf785d4>
     cfc:	00000e03 	andeq	r0, r0, r3, lsl #28
     d00:	27011504 	strcs	r1, [r1, -r4, lsl #10]
     d04:	01134919 	tsteq	r3, r9, lsl r9
     d08:	05000013 	streq	r0, [r0, #-19]	; 0xffffffed
     d0c:	13490005 	movtne	r0, #36869	; 0x9005
     d10:	34060000 	strcc	r0, [r6], #-0
     d14:	3a0e0300 	bcc	38191c <__bss_end__+0x3765c4>
     d18:	390b3b0b 	stmdbcc	fp, {r0, r1, r3, r8, r9, fp, ip, sp}
     d1c:	3f13490b 	svccc	0x0013490b
     d20:	00193c19 	andseq	r3, r9, r9, lsl ip
     d24:	000f0700 	andeq	r0, pc, r0, lsl #14
     d28:	13490b0b 	movtne	r0, #39691	; 0x9b0b
     d2c:	26080000 	strcs	r0, [r8], -r0
     d30:	00134900 	andseq	r4, r3, r0, lsl #18
     d34:	00340900 	eorseq	r0, r4, r0, lsl #18
     d38:	0b3a1347 	bleq	e85a5c <__bss_end__+0xe7a704>
     d3c:	0b390b3b 	bleq	e43a30 <__bss_end__+0xe386d8>
     d40:	00001802 	andeq	r1, r0, r2, lsl #16
     d44:	3f012e0a 	svccc	0x00012e0a
     d48:	3a0e0319 	bcc	3819b4 <__bss_end__+0x37665c>
     d4c:	390b3b0b 	stmdbcc	fp, {r0, r1, r3, r8, r9, fp, ip, sp}
     d50:	4919270b 	ldmdbmi	r9, {r0, r1, r3, r8, r9, sl, sp}
     d54:	12011113 	andne	r1, r1, #-1073741820	; 0xc0000004
     d58:	96184006 	ldrls	r4, [r8], -r6
     d5c:	00001942 	andeq	r1, r0, r2, asr #18
     d60:	0300050b 	movweq	r0, #1291	; 0x50b
     d64:	3b0b3a08 	blcc	2cf58c <__bss_end__+0x2c4234>
     d68:	490b390b 	stmdbmi	fp, {r0, r1, r3, r8, fp, ip, sp}
     d6c:	b7170213 			; <UNDEFINED> instruction: 0xb7170213
     d70:	00001742 	andeq	r1, r0, r2, asr #14
     d74:	01110100 	tsteq	r1, r0, lsl #2
     d78:	0b130e25 	bleq	4c4614 <__bss_end__+0x4b92bc>
     d7c:	0e1b0e03 	cdpeq	14, 1, cr0, cr11, cr3, {0}
     d80:	06120111 			; <UNDEFINED> instruction: 0x06120111
     d84:	00001710 	andeq	r1, r0, r0, lsl r7
     d88:	0b002402 	bleq	9d98 <delay_sec+0x18>
     d8c:	030b3e0b 	movweq	r3, #48651	; 0xbe0b
     d90:	0300000e 	movweq	r0, #14
     d94:	0b0b0024 	bleq	2c0e2c <__bss_end__+0x2b5ad4>
     d98:	08030b3e 	stmdaeq	r3, {r1, r2, r3, r4, r5, r8, r9, fp}
     d9c:	16040000 	strne	r0, [r4], -r0
     da0:	3a0e0300 	bcc	3819a8 <__bss_end__+0x376650>
     da4:	390b3b0b 	stmdbcc	fp, {r0, r1, r3, r8, r9, fp, ip, sp}
     da8:	0013490b 	andseq	r4, r3, fp, lsl #18
     dac:	01150500 	tsteq	r5, r0, lsl #10
     db0:	13491927 	movtne	r1, #39207	; 0x9927
     db4:	00001301 	andeq	r1, r0, r1, lsl #6
     db8:	49000506 	stmdbmi	r0, {r1, r2, r8, sl}
     dbc:	07000013 	smladeq	r0, r3, r0, r0
     dc0:	0e030034 	mcreq	0, 0, r0, cr3, cr4, {1}
     dc4:	0b3b0b3a 	bleq	ec3ab4 <__bss_end__+0xeb875c>
     dc8:	13490b39 	movtne	r0, #39737	; 0x9b39
     dcc:	193c193f 	ldmdbne	ip!, {r0, r1, r2, r3, r4, r5, r8, fp, ip}
     dd0:	0f080000 	svceq	0x00080000
     dd4:	490b0b00 	stmdbmi	fp, {r8, r9, fp}
     dd8:	09000013 	stmdbeq	r0, {r0, r1, r4}
     ddc:	13490026 	movtne	r0, #36902	; 0x9026
     de0:	130a0000 	movwne	r0, #40960	; 0xa000
     de4:	0b0e0301 	bleq	3819f0 <__bss_end__+0x376698>
     de8:	3b0b3a0b 	blcc	2cf61c <__bss_end__+0x2c42c4>
     dec:	0013010b 	andseq	r0, r3, fp, lsl #2
     df0:	000d0b00 	andeq	r0, sp, r0, lsl #22
     df4:	13490e03 	movtne	r0, #40451	; 0x9e03
     df8:	19340b38 	ldmdbne	r4!, {r3, r4, r5, r8, r9, fp}
     dfc:	0f0c0000 	svceq	0x000c0000
     e00:	000b0b00 	andeq	r0, fp, r0, lsl #22
     e04:	012e0d00 			; <UNDEFINED> instruction: 0x012e0d00
     e08:	0e03193f 			; <UNDEFINED> instruction: 0x0e03193f
     e0c:	0b3b0b3a 	bleq	ec3afc <__bss_end__+0xeb87a4>
     e10:	19270b39 	stmdbne	r7!, {r0, r3, r4, r5, r8, r9, fp}
     e14:	01111349 	tsteq	r1, r9, asr #6
     e18:	18400612 	stmdane	r0, {r1, r4, r9, sl}^
     e1c:	01194297 			; <UNDEFINED> instruction: 0x01194297
     e20:	0e000013 	mcreq	0, 0, r0, cr0, cr3, {0}
     e24:	08030005 	stmdaeq	r3, {r0, r2}
     e28:	0b3b0b3a 	bleq	ec3b18 <__bss_end__+0xeb87c0>
     e2c:	13490b39 	movtne	r0, #39737	; 0x9b39
     e30:	42b71702 	adcsmi	r1, r7, #524288	; 0x80000
     e34:	0f000017 	svceq	0x00000017
     e38:	0e030005 	cdpeq	0, 0, cr0, cr3, cr5, {0}
     e3c:	0b3b0b3a 	bleq	ec3b2c <__bss_end__+0xeb87d4>
     e40:	13490b39 	movtne	r0, #39737	; 0x9b39
     e44:	42b71702 	adcsmi	r1, r7, #524288	; 0x80000
     e48:	10000017 	andne	r0, r0, r7, lsl r0
     e4c:	08030034 	stmdaeq	r3, {r2, r4, r5}
     e50:	0b3b0b3a 	bleq	ec3b40 <__bss_end__+0xeb87e8>
     e54:	13490b39 	movtne	r0, #39737	; 0x9b39
     e58:	42b71702 	adcsmi	r1, r7, #524288	; 0x80000
     e5c:	11000017 	tstne	r0, r7, lsl r0
     e60:	0e030034 	mcreq	0, 0, r0, cr3, cr4, {1}
     e64:	0b3b0b3a 	bleq	ec3b54 <__bss_end__+0xeb87fc>
     e68:	13490b39 	movtne	r0, #39737	; 0x9b39
     e6c:	42b71702 	adcsmi	r1, r7, #524288	; 0x80000
     e70:	12000017 	andne	r0, r0, #23, 0
     e74:	0e030034 	mcreq	0, 0, r0, cr3, cr4, {1}
     e78:	19341349 	ldmdbne	r4!, {r0, r3, r6, r8, r9, ip}
     e7c:	00001802 	andeq	r1, r0, r2, lsl #16
     e80:	55010b13 	strpl	r0, [r1, #-2835]	; 0xfffff4ed
     e84:	14000017 	strne	r0, [r0], #-23	; 0xffffffe9
     e88:	08030034 	stmdaeq	r3, {r2, r4, r5}
     e8c:	0b3b0b3a 	bleq	ec3b7c <__bss_end__+0xeb8824>
     e90:	13490b39 	movtne	r0, #39737	; 0x9b39
     e94:	00001802 	andeq	r1, r0, r2, lsl #16
     e98:	03003415 	movweq	r3, #1045	; 0x415
     e9c:	3b0b3a0e 	blcc	2cf6dc <__bss_end__+0x2c4384>
     ea0:	490b390b 	stmdbmi	fp, {r0, r1, r3, r8, fp, ip, sp}
     ea4:	00180213 	andseq	r0, r8, r3, lsl r2
     ea8:	010b1600 	tsteq	fp, r0, lsl #12
     eac:	13011755 	movwne	r1, #5973	; 0x1755
     eb0:	89170000 	ldmdbhi	r7, {}	; <UNPREDICTABLE>
     eb4:	11010182 	smlabbne	r1, r2, r1, r0
     eb8:	01133101 	tsteq	r3, r1, lsl #2
     ebc:	18000013 	stmdane	r0, {r0, r1, r4}
     ec0:	0001828a 	andeq	r8, r1, sl, lsl #5
     ec4:	42911802 	addsmi	r1, r1, #131072	; 0x20000
     ec8:	19000018 	stmdbne	r0, {r3, r4}
     ecc:	00018289 	andeq	r8, r1, r9, lsl #5
     ed0:	13310111 	teqne	r1, #1073741828	; 0x40000004
     ed4:	1d1a0000 	ldcne	0, cr0, [sl, #-0]
     ed8:	52133101 	andspl	r3, r3, #1073741824	; 0x40000000
     edc:	0542b801 	strbeq	fp, [r2, #-2049]	; 0xfffff7ff
     ee0:	0b581755 	bleq	1606c3c <__bss_end__+0x15fb8e4>
     ee4:	0b570b59 	bleq	15c3c50 <__bss_end__+0x15b88f8>
     ee8:	00001301 	andeq	r1, r0, r1, lsl #6
     eec:	3100051b 	tstcc	r0, fp, lsl r5
     ef0:	b7170213 			; <UNDEFINED> instruction: 0xb7170213
     ef4:	00001742 	andeq	r1, r0, r2, asr #14
     ef8:	3100051c 	tstcc	r0, ip, lsl r5
     efc:	1d000013 	stcne	0, cr0, [r0, #-76]	; 0xffffffb4
     f00:	13310034 	teqne	r1, #52, 0	; 0x34
     f04:	00001802 	andeq	r1, r0, r2, lsl #16
     f08:	3100341e 	tstcc	r0, lr, lsl r4
     f0c:	b7170213 			; <UNDEFINED> instruction: 0xb7170213
     f10:	00001742 	andeq	r1, r0, r2, asr #14
     f14:	3100341f 	tstcc	r0, pc, lsl r4
     f18:	20000013 	andcs	r0, r0, r3, lsl r0
     f1c:	1331011d 	teqne	r1, #1073741831	; 0x40000007
     f20:	42b80152 	adcsmi	r0, r8, #-2147483628	; 0x80000014
     f24:	58175505 	ldmdapl	r7, {r0, r2, r8, sl, ip, lr}
     f28:	570b590b 	strpl	r5, [fp, -fp, lsl #18]
     f2c:	2100000b 	tstcs	r0, fp
     f30:	01018289 	smlabbeq	r1, r9, r2, r8
     f34:	13010111 	movwne	r0, #4369	; 0x1111
     f38:	01220000 			; <UNDEFINED> instruction: 0x01220000
     f3c:	01134901 	tsteq	r3, r1, lsl #18
     f40:	23000013 	movwcs	r0, #19
     f44:	13490021 	movtne	r0, #36897	; 0x9021
     f48:	00000b2f 	andeq	r0, r0, pc, lsr #22
     f4c:	03012e24 	movweq	r2, #7716	; 0x1e24
     f50:	3b0b3a0e 	blcc	2cf790 <__bss_end__+0x2c4438>
     f54:	270b390b 	strcs	r3, [fp, -fp, lsl #18]
     f58:	20134919 	andscs	r4, r3, r9, lsl r9
     f5c:	0013010b 	andseq	r0, r3, fp, lsl #2
     f60:	00052500 	andeq	r2, r5, r0, lsl #10
     f64:	0b3a0e03 	bleq	e84778 <__bss_end__+0xe79420>
     f68:	0b390b3b 	bleq	e43c5c <__bss_end__+0xe38904>
     f6c:	00001349 	andeq	r1, r0, r9, asr #6
     f70:	03000526 	movweq	r0, #1318	; 0x526
     f74:	3b0b3a08 	blcc	2cf79c <__bss_end__+0x2c4444>
     f78:	490b390b 	stmdbmi	fp, {r0, r1, r3, r8, fp, ip, sp}
     f7c:	27000013 	smladcs	r0, r3, r0, r0
     f80:	08030034 	stmdaeq	r3, {r2, r4, r5}
     f84:	0b3b0b3a 	bleq	ec3c74 <__bss_end__+0xeb891c>
     f88:	13490b39 	movtne	r0, #39737	; 0x9b39
     f8c:	0b280000 	bleq	a00f94 <__bss_end__+0x9f5c3c>
     f90:	29000001 	stmdbcs	r0, {r0}
     f94:	0e030034 	mcreq	0, 0, r0, cr3, cr4, {1}
     f98:	0b3b0b3a 	bleq	ec3c88 <__bss_end__+0xeb8930>
     f9c:	13490b39 	movtne	r0, #39737	; 0x9b39
     fa0:	2e2a0000 	cdpcs	0, 2, cr0, cr10, cr0, {0}
     fa4:	3a080301 	bcc	201bb0 <__bss_end__+0x1f6858>
     fa8:	390b3b0b 	stmdbcc	fp, {r0, r1, r3, r8, r9, fp, ip, sp}
     fac:	4919270b 	ldmdbmi	r9, {r0, r1, r3, r8, r9, sl, sp}
     fb0:	010b2013 	tsteq	fp, r3, lsl r0
     fb4:	2b000013 	blcs	1008 <__code_start__-0x6ff8>
     fb8:	193f012e 	ldmdbne	pc!, {r1, r2, r3, r5, r8}	; <UNPREDICTABLE>
     fbc:	0b3a0e03 	bleq	e847d0 <__bss_end__+0xe79478>
     fc0:	0b390b3b 	bleq	e43cb4 <__bss_end__+0xe3895c>
     fc4:	01111927 	tsteq	r1, r7, lsr #18
     fc8:	18400612 	stmdane	r0, {r1, r4, r9, sl}^
     fcc:	01194297 			; <UNDEFINED> instruction: 0x01194297
     fd0:	2c000013 	stccs	0, cr0, [r0], {19}
     fd4:	1331012e 	teqne	r1, #-2147483637	; 0x8000000b
     fd8:	06120111 			; <UNDEFINED> instruction: 0x06120111
     fdc:	42971840 	addsmi	r1, r7, #64, 16	; 0x400000
     fe0:	00130119 	andseq	r0, r3, r9, lsl r1
     fe4:	00052d00 	andeq	r2, r5, r0, lsl #26
     fe8:	18021331 	stmdane	r2, {r0, r4, r5, r8, r9, ip}
     fec:	052e0000 	streq	r0, [lr, #-0]!
     ff0:	1c133100 	ldfnes	f3, [r3], {-0}
     ff4:	2f00000b 	svccs	0x0000000b
     ff8:	1331010b 	teqne	r1, #-1073741822	; 0xc0000002
     ffc:	06120111 			; <UNDEFINED> instruction: 0x06120111
    1000:	00001301 	andeq	r1, r0, r1, lsl #6
    1004:	3f002e30 	svccc	0x00002e30
    1008:	6e193c19 	mrcvs	12, 0, r3, cr9, cr9, {0}
    100c:	3a0e030e 	bcc	381c4c <__bss_end__+0x3768f4>
    1010:	390b3b0b 	stmdbcc	fp, {r0, r1, r3, r8, r9, fp, ip, sp}
    1014:	0000000b 	andeq	r0, r0, fp
    1018:	25011101 	strcs	r1, [r1, #-257]	; 0xfffffeff
    101c:	030b130e 	movweq	r1, #45838	; 0xb30e
    1020:	110e1b0e 	tstne	lr, lr, lsl #22
    1024:	10061201 	andne	r1, r6, r1, lsl #4
    1028:	02000017 	andeq	r0, r0, #23, 0
    102c:	0b0b0024 	bleq	2c10c4 <__bss_end__+0x2b5d6c>
    1030:	08030b3e 	stmdaeq	r3, {r1, r2, r3, r4, r5, r8, r9, fp}
    1034:	24030000 	strcs	r0, [r3], #-0
    1038:	3e0b0b00 	vmlacc.f64	d0, d11, d0
    103c:	000e030b 	andeq	r0, lr, fp, lsl #6
    1040:	01150400 	tsteq	r5, r0, lsl #8
    1044:	13491927 	movtne	r1, #39207	; 0x9927
    1048:	00001301 	andeq	r1, r0, r1, lsl #6
    104c:	49000505 	stmdbmi	r0, {r0, r2, r8, sl}
    1050:	06000013 			; <UNDEFINED> instruction: 0x06000013
    1054:	0e030034 	mcreq	0, 0, r0, cr3, cr4, {1}
    1058:	0b3b0b3a 	bleq	ec3d48 <__bss_end__+0xeb89f0>
    105c:	13490b39 	movtne	r0, #39737	; 0x9b39
    1060:	193c193f 	ldmdbne	ip!, {r0, r1, r2, r3, r4, r5, r8, fp, ip}
    1064:	0f070000 	svceq	0x00070000
    1068:	490b0b00 	stmdbmi	fp, {r8, r9, fp}
    106c:	08000013 	stmdaeq	r0, {r0, r1, r4}
    1070:	13490026 	movtne	r0, #36902	; 0x9026
    1074:	2e090000 	cdpcs	0, 0, cr0, cr9, cr0, {0}
    1078:	03193f01 	tsteq	r9, #1, 30
    107c:	3b0b3a0e 	blcc	2cf8bc <__bss_end__+0x2c4564>
    1080:	270b390b 	strcs	r3, [fp, -fp, lsl #18]
    1084:	19018719 	stmdbne	r1, {r0, r3, r4, r8, r9, sl, pc}
    1088:	06120111 			; <UNDEFINED> instruction: 0x06120111
    108c:	42971840 	addsmi	r1, r7, #64, 16	; 0x400000
    1090:	00130119 	andseq	r0, r3, r9, lsl r1
    1094:	82890a00 	addhi	r0, r9, #0, 20
    1098:	01110101 	tsteq	r1, r1, lsl #2
    109c:	00001301 	andeq	r1, r0, r1, lsl #6
    10a0:	01828a0b 	orreq	r8, r2, fp, lsl #20
    10a4:	91180200 	tstls	r8, r0, lsl #4
    10a8:	00001842 	andeq	r1, r0, r2, asr #16
    10ac:	0182890c 	orreq	r8, r2, ip, lsl #18
    10b0:	31011100 	mrscc	r1, (UNDEF: 17)
    10b4:	0d000013 	stceq	0, cr0, [r0, #-76]	; 0xffffffb4
    10b8:	01018289 	smlabbeq	r1, r9, r2, r8
    10bc:	13310111 	teqne	r1, #1073741828	; 0x40000004
    10c0:	00001301 	andeq	r1, r0, r1, lsl #6
    10c4:	3f002e0e 	svccc	0x00002e0e
    10c8:	6e193c19 	mrcvs	12, 0, r3, cr9, cr9, {0}
    10cc:	3a0e030e 	bcc	381d0c <__bss_end__+0x3769b4>
    10d0:	390b3b0b 	stmdbcc	fp, {r0, r1, r3, r8, r9, fp, ip, sp}
    10d4:	0000000b 	andeq	r0, r0, fp
    10d8:	25011101 	strcs	r1, [r1, #-257]	; 0xfffffeff
    10dc:	030b130e 	movweq	r1, #45838	; 0xb30e
    10e0:	110e1b0e 	tstne	lr, lr, lsl #22
    10e4:	10061201 	andne	r1, r6, r1, lsl #4
    10e8:	02000017 	andeq	r0, r0, #23, 0
    10ec:	0b0b0024 	bleq	2c1184 <__bss_end__+0x2b5e2c>
    10f0:	08030b3e 	stmdaeq	r3, {r1, r2, r3, r4, r5, r8, r9, fp}
    10f4:	24030000 	strcs	r0, [r3], #-0
    10f8:	3e0b0b00 	vmlacc.f64	d0, d11, d0
    10fc:	000e030b 	andeq	r0, lr, fp, lsl #6
    1100:	01150400 	tsteq	r5, r0, lsl #8
    1104:	13491927 	movtne	r1, #39207	; 0x9927
    1108:	00001301 	andeq	r1, r0, r1, lsl #6
    110c:	49000505 	stmdbmi	r0, {r0, r2, r8, sl}
    1110:	06000013 			; <UNDEFINED> instruction: 0x06000013
    1114:	0e030034 	mcreq	0, 0, r0, cr3, cr4, {1}
    1118:	0b3b0b3a 	bleq	ec3e08 <__bss_end__+0xeb8ab0>
    111c:	13490b39 	movtne	r0, #39737	; 0x9b39
    1120:	193c193f 	ldmdbne	ip!, {r0, r1, r2, r3, r4, r5, r8, fp, ip}
    1124:	0f070000 	svceq	0x00070000
    1128:	490b0b00 	stmdbmi	fp, {r8, r9, fp}
    112c:	08000013 	stmdaeq	r0, {r0, r1, r4}
    1130:	13490026 	movtne	r0, #36902	; 0x9026
    1134:	2e090000 	cdpcs	0, 0, cr0, cr9, cr0, {0}
    1138:	03193f01 	tsteq	r9, #1, 30
    113c:	3b0b3a0e 	blcc	2cf97c <__bss_end__+0x2c4624>
    1140:	110b390b 	tstne	fp, fp, lsl #18
    1144:	40061201 	andmi	r1, r6, r1, lsl #4
    1148:	19429718 	stmdbne	r2, {r3, r4, r8, r9, sl, ip, pc}^
    114c:	00001301 	andeq	r1, r0, r1, lsl #6
    1150:	3f002e0a 	svccc	0x00002e0a
    1154:	3a0e0319 	bcc	381dc0 <__bss_end__+0x376a68>
    1158:	390b3b0b 	stmdbcc	fp, {r0, r1, r3, r8, r9, fp, ip, sp}
    115c:	3c19270b 	ldccc	7, cr2, [r9], {11}
    1160:	0b000019 	bleq	11cc <__code_start__-0x6e34>
    1164:	08030034 	stmdaeq	r3, {r2, r4, r5}
    1168:	0b3b0b3a 	bleq	ec3e58 <__bss_end__+0xeb8b00>
    116c:	13490b39 	movtne	r0, #39737	; 0x9b39
    1170:	42b71702 	adcsmi	r1, r7, #524288	; 0x80000
    1174:	0c000017 	stceq	0, cr0, [r0], {23}
    1178:	0e030034 	mcreq	0, 0, r0, cr3, cr4, {1}
    117c:	0b3b0b3a 	bleq	ec3e6c <__bss_end__+0xeb8b14>
    1180:	13490b39 	movtne	r0, #39737	; 0x9b39
    1184:	340d0000 	strcc	r0, [sp], #-0
    1188:	3a0e0300 	bcc	381d90 <__bss_end__+0x376a38>
    118c:	390b3b0b 	stmdbcc	fp, {r0, r1, r3, r8, r9, fp, ip, sp}
    1190:	0213490b 	andseq	r4, r3, #180224	; 0x2c000
    1194:	1742b717 	smlaldne	fp, r2, r7, r7
    1198:	0b0e0000 	bleq	3811a0 <__bss_end__+0x375e48>
    119c:	12011101 	andne	r1, r1, #1073741824	; 0x40000000
    11a0:	00130106 	andseq	r0, r3, r6, lsl #2
    11a4:	011d0f00 	tsteq	sp, r0, lsl #30
    11a8:	01521331 	cmpeq	r2, r1, lsr r3
    11ac:	110b42b8 			; <UNDEFINED> instruction: 0x110b42b8
    11b0:	58061201 	stmdapl	r6, {r0, r9, ip}
    11b4:	570b590b 	strpl	r5, [fp, -fp, lsl #18]
    11b8:	0013010b 	andseq	r0, r3, fp, lsl #2
    11bc:	00341000 	eorseq	r1, r4, r0
    11c0:	17021331 	smladxne	r2, r1, r3, r1
    11c4:	001742b7 			; <UNDEFINED> instruction: 0x001742b7
    11c8:	010b1100 	mrseq	r1, (UNDEF: 27)
    11cc:	01111331 	tsteq	r1, r1, lsr r3
    11d0:	00000612 	andeq	r0, r0, r2, lsl r6
    11d4:	31011d12 	tstcc	r1, r2, lsl sp
    11d8:	b8015213 	stmdalt	r1, {r0, r1, r4, r9, ip, lr}
    11dc:	17550b42 	ldrbne	r0, [r5, -r2, asr #22]
    11e0:	0b590b58 	bleq	1643f48 <__bss_end__+0x1638bf0>
    11e4:	13010b57 	movwne	r0, #6999	; 0x1b57
    11e8:	0b130000 	bleq	4c11f0 <__bss_end__+0x4b5e98>
    11ec:	00175501 	andseq	r5, r7, r1, lsl #10
    11f0:	82891400 	addhi	r1, r9, #0, 8
    11f4:	01110001 	tsteq	r1, r1
    11f8:	00001331 	andeq	r1, r0, r1, lsr r3
    11fc:	01828915 	orreq	r8, r2, r5, lsl r9
    1200:	31011101 	tstcc	r1, r1, lsl #2
    1204:	00130113 	andseq	r0, r3, r3, lsl r1
    1208:	828a1600 	addhi	r1, sl, #0, 12
    120c:	18020001 	stmdane	r2, {r0}
    1210:	00184291 	mulseq	r8, r1, r2
    1214:	012e1700 			; <UNDEFINED> instruction: 0x012e1700
    1218:	0b3a0e03 	bleq	e84a2c <__bss_end__+0xe796d4>
    121c:	0b390b3b 	bleq	e43f10 <__bss_end__+0xe38bb8>
    1220:	13491927 	movtne	r1, #39207	; 0x9927
    1224:	13010b20 	movwne	r0, #6944	; 0x1b20
    1228:	34180000 	ldrcc	r0, [r8], #-0
    122c:	3a0e0300 	bcc	381e34 <__bss_end__+0x376adc>
    1230:	390b3b0b 	stmdbcc	fp, {r0, r1, r3, r8, r9, fp, ip, sp}
    1234:	0213490b 	andseq	r4, r3, #180224	; 0x2c000
    1238:	19000018 	stmdbne	r0, {r3, r4}
    123c:	08030034 	stmdaeq	r3, {r2, r4, r5}
    1240:	0b3b0b3a 	bleq	ec3f30 <__bss_end__+0xeb8bd8>
    1244:	13490b39 	movtne	r0, #39737	; 0x9b39
    1248:	0b1a0000 	bleq	681250 <__bss_end__+0x675ef8>
    124c:	1b000001 	blne	1258 <__code_start__-0x6da8>
    1250:	193f002e 	ldmdbne	pc!, {r1, r2, r3, r5}	; <UNPREDICTABLE>
    1254:	0e6e193c 			; <UNDEFINED> instruction: 0x0e6e193c
    1258:	0b3a0e03 	bleq	e84a6c <__bss_end__+0xe79714>
    125c:	0b39053b 	bleq	e42750 <__bss_end__+0xe373f8>
    1260:	2e1c0000 	cdpcs	0, 1, cr0, cr12, cr0, {0}
    1264:	3c193f00 	ldccc	15, cr3, [r9], {-0}
    1268:	030e6e19 	movweq	r6, #60953	; 0xee19
    126c:	3b0b3a0e 	blcc	2cfaac <__bss_end__+0x2c4754>
    1270:	000b390b 	andeq	r3, fp, fp, lsl #18
    1274:	11010000 	mrsne	r0, (UNDEF: 1)
    1278:	130e2501 	movwne	r2, #58625	; 0xe501
    127c:	1b0e030b 	blne	381eb0 <__bss_end__+0x376b58>
    1280:	1201110e 	andne	r1, r1, #-2147483645	; 0x80000003
    1284:	00171006 	andseq	r1, r7, r6
    1288:	00240200 	eoreq	r0, r4, r0, lsl #4
    128c:	0b3e0b0b 	bleq	f83ec0 <__bss_end__+0xf78b68>
    1290:	00000803 	andeq	r0, r0, r3, lsl #16
    1294:	0b002403 	bleq	a2a8 <kmalloc_aligned+0xc4>
    1298:	030b3e0b 	movweq	r3, #48651	; 0xbe0b
    129c:	0400000e 	streq	r0, [r0], #-14
    12a0:	19270115 	stmdbne	r7!, {r0, r2, r4, r8}
    12a4:	13011349 	movwne	r1, #4937	; 0x1349
    12a8:	05050000 	streq	r0, [r5, #-0]
    12ac:	00134900 	andseq	r4, r3, r0, lsl #18
    12b0:	00340600 	eorseq	r0, r4, r0, lsl #12
    12b4:	0b3a0e03 	bleq	e84ac8 <__bss_end__+0xe79770>
    12b8:	0b390b3b 	bleq	e43fac <__bss_end__+0xe38c54>
    12bc:	193f1349 	ldmdbne	pc!, {r0, r3, r6, r8, r9, ip}	; <UNPREDICTABLE>
    12c0:	0000193c 	andeq	r1, r0, ip, lsr r9
    12c4:	0b000f07 	bleq	4ee8 <__code_start__-0x3118>
    12c8:	0013490b 	andseq	r4, r3, fp, lsl #18
    12cc:	00260800 	eoreq	r0, r6, r0, lsl #16
    12d0:	00001349 	andeq	r1, r0, r9, asr #6
    12d4:	3f002e09 	svccc	0x00002e09
    12d8:	3a0e0319 	bcc	381f44 <__bss_end__+0x376bec>
    12dc:	390b3b0b 	stmdbcc	fp, {r0, r1, r3, r8, r9, fp, ip, sp}
    12e0:	1119270b 	tstne	r9, fp, lsl #14
    12e4:	40061201 	andmi	r1, r6, r1, lsl #4
    12e8:	19429718 	stmdbne	r2, {r3, r4, r8, r9, sl, ip, pc}^
    12ec:	01000000 	mrseq	r0, (UNDEF: 0)
    12f0:	0e250111 	mcreq	1, 1, r0, cr5, cr1, {0}
    12f4:	0e030b13 	vmoveq.32	d3[0], r0
    12f8:	17550e1b 	smmlane	r5, fp, lr, r0
    12fc:	17100111 			; <UNDEFINED> instruction: 0x17100111
    1300:	24020000 	strcs	r0, [r2], #-0
    1304:	3e0b0b00 	vmlacc.f64	d0, d11, d0
    1308:	0008030b 	andeq	r0, r8, fp, lsl #6
    130c:	00260300 	eoreq	r0, r6, r0, lsl #6
    1310:	00001349 	andeq	r1, r0, r9, asr #6
    1314:	0b002404 	bleq	a32c <kfree_pop+0x18>
    1318:	030b3e0b 	movweq	r3, #48651	; 0xbe0b
    131c:	0500000e 	streq	r0, [r0, #-14]
    1320:	19270115 	stmdbne	r7!, {r0, r2, r4, r8}
    1324:	13011349 	movwne	r1, #4937	; 0x1349
    1328:	05060000 	streq	r0, [r6, #-0]
    132c:	00134900 	andseq	r4, r3, r0, lsl #18
    1330:	00340700 	eorseq	r0, r4, r0, lsl #14
    1334:	0b3a0e03 	bleq	e84b48 <__bss_end__+0xe797f0>
    1338:	0b390b3b 	bleq	e4402c <__bss_end__+0xe38cd4>
    133c:	193f1349 	ldmdbne	pc!, {r0, r3, r6, r8, r9, ip}	; <UNPREDICTABLE>
    1340:	0000193c 	andeq	r1, r0, ip, lsr r9
    1344:	0b000f08 	bleq	4f6c <__code_start__-0x3094>
    1348:	0013490b 	andseq	r4, r3, fp, lsl #18
    134c:	00340900 	eorseq	r0, r4, r0, lsl #18
    1350:	0b3a0e03 	bleq	e84b64 <__bss_end__+0xe7980c>
    1354:	0b390b3b 	bleq	e44048 <__bss_end__+0xe38cf0>
    1358:	00001349 	andeq	r1, r0, r9, asr #6
    135c:	3f012e0a 	svccc	0x00012e0a
    1360:	3a0e0319 	bcc	381fcc <__bss_end__+0x376c74>
    1364:	390b3b0b 	stmdbcc	fp, {r0, r1, r3, r8, r9, fp, ip, sp}
    1368:	8719270b 	ldrhi	r2, [r9, -fp, lsl #14]
    136c:	01111901 	tsteq	r1, r1, lsl #18
    1370:	18400612 	stmdane	r0, {r1, r4, r9, sl}^
    1374:	01194297 			; <UNDEFINED> instruction: 0x01194297
    1378:	0b000013 	bleq	13cc <__code_start__-0x6c34>
    137c:	0e030034 	mcreq	0, 0, r0, cr3, cr4, {1}
    1380:	0b3b0b3a 	bleq	ec4070 <__bss_end__+0xeb8d18>
    1384:	13490b39 	movtne	r0, #39737	; 0x9b39
    1388:	0000061c 	andeq	r0, r0, ip, lsl r6
    138c:	0300340c 	movweq	r3, #1036	; 0x40c
    1390:	3b0b3a0e 	blcc	2cfbd0 <__bss_end__+0x2c4878>
    1394:	490b390b 	stmdbmi	fp, {r0, r1, r3, r8, fp, ip, sp}
    1398:	000b1c13 	andeq	r1, fp, r3, lsl ip
    139c:	011d0d00 	tsteq	sp, r0, lsl #26
    13a0:	01521331 	cmpeq	r2, r1, lsr r3
    13a4:	550b42b8 	strpl	r4, [fp, #-696]	; 0xfffffd48
    13a8:	590b5817 	stmdbpl	fp, {r0, r1, r2, r4, fp, ip, lr}
    13ac:	010b570b 	tsteq	fp, fp, lsl #14
    13b0:	0e000013 	mcreq	0, 0, r0, cr0, cr3, {0}
    13b4:	1755010b 	ldrbne	r0, [r5, -fp, lsl #2]
    13b8:	340f0000 	strcc	r0, [pc], #-0	; 13c0 <__code_start__-0x6c40>
    13bc:	02133100 	andseq	r3, r3, #0
    13c0:	1742b717 	smlaldne	fp, r2, r7, r7
    13c4:	1d100000 	ldcne	0, cr0, [r0, #-0]
    13c8:	52133101 	andspl	r3, r3, #1073741824	; 0x40000000
    13cc:	0b42b801 	bleq	10af3d8 <__bss_end__+0x10a4080>
    13d0:	06120111 			; <UNDEFINED> instruction: 0x06120111
    13d4:	0b590b58 	bleq	164413c <__bss_end__+0x1638de4>
    13d8:	13010b57 	movwne	r0, #6999	; 0x1b57
    13dc:	89110000 	ldmdbhi	r1, {}	; <UNPREDICTABLE>
    13e0:	11000182 	smlabbne	r0, r2, r1, r0
    13e4:	00133101 	andseq	r3, r3, r1, lsl #2
    13e8:	82891200 	addhi	r1, r9, #0, 4
    13ec:	01110101 	tsteq	r1, r1, lsl #2
    13f0:	13011331 	movwne	r1, #4913	; 0x1331
    13f4:	8a130000 	bhi	4c13fc <__bss_end__+0x4b60a4>
    13f8:	02000182 	andeq	r0, r0, #-2147483616	; 0x80000020
    13fc:	18429118 	stmdane	r2, {r3, r4, r8, ip, pc}^
    1400:	89140000 	ldmdbhi	r4, {}	; <UNPREDICTABLE>
    1404:	11010182 	smlabbne	r1, r2, r1, r0
    1408:	00133101 	andseq	r3, r3, r1, lsl #2
    140c:	012e1500 			; <UNDEFINED> instruction: 0x012e1500
    1410:	0e03193f 			; <UNDEFINED> instruction: 0x0e03193f
    1414:	0b3b0b3a 	bleq	ec4104 <__bss_end__+0xeb8dac>
    1418:	19270b39 	stmdbne	r7!, {r0, r3, r4, r5, r8, r9, fp}
    141c:	13010b20 	movwne	r0, #6944	; 0x1b20
    1420:	2e160000 	cdpcs	0, 1, cr0, cr6, cr0, {0}
    1424:	03193f01 	tsteq	r9, #1, 30
    1428:	3b0b3a0e 	blcc	2cfc68 <__bss_end__+0x2c4910>
    142c:	270b390b 	strcs	r3, [fp, -fp, lsl #18]
    1430:	20134919 	andscs	r4, r3, r9, lsl r9
    1434:	0013010b 	andseq	r0, r3, fp, lsl #2
    1438:	012e1700 			; <UNDEFINED> instruction: 0x012e1700
    143c:	01111331 	tsteq	r1, r1, lsr r3
    1440:	18400612 	stmdane	r0, {r1, r4, r9, sl}^
    1444:	01194297 			; <UNDEFINED> instruction: 0x01194297
    1448:	18000013 	stmdane	r0, {r0, r1, r4}
    144c:	193f002e 	ldmdbne	pc!, {r1, r2, r3, r5}	; <UNPREDICTABLE>
    1450:	0e6e193c 			; <UNDEFINED> instruction: 0x0e6e193c
    1454:	0b3a0e03 	bleq	e84c68 <__bss_end__+0xe79910>
    1458:	0b39053b 	bleq	e4294c <__bss_end__+0xe375f4>
    145c:	2e190000 	cdpcs	0, 1, cr0, cr9, cr0, {0}
    1460:	3c193f00 	ldccc	15, cr3, [r9], {-0}
    1464:	030e6e19 	movweq	r6, #60953	; 0xee19
    1468:	3b0b3a0e 	blcc	2cfca8 <__bss_end__+0x2c4950>
    146c:	000b390b 	andeq	r3, fp, fp, lsl #18
    1470:	11010000 	mrsne	r0, (UNDEF: 1)
    1474:	130e2501 	movwne	r2, #58625	; 0xe501
    1478:	1b0e030b 	blne	3820ac <__bss_end__+0x376d54>
    147c:	1201110e 	andne	r1, r1, #-2147483645	; 0x80000003
    1480:	00171006 	andseq	r1, r7, r6
    1484:	00240200 	eoreq	r0, r4, r0, lsl #4
    1488:	0b3e0b0b 	bleq	f840bc <__bss_end__+0xf78d64>
    148c:	00000803 	andeq	r0, r0, r3, lsl #16
    1490:	0b002403 	bleq	a4a4 <gpio_set_input+0x48>
    1494:	030b3e0b 	movweq	r3, #48651	; 0xbe0b
    1498:	0400000e 	streq	r0, [r0], #-14
    149c:	19270115 	stmdbne	r7!, {r0, r2, r4, r8}
    14a0:	13011349 	movwne	r1, #4937	; 0x1349
    14a4:	05050000 	streq	r0, [r5, #-0]
    14a8:	00134900 	andseq	r4, r3, r0, lsl #18
    14ac:	00340600 	eorseq	r0, r4, r0, lsl #12
    14b0:	0b3a0e03 	bleq	e84cc4 <__bss_end__+0xe7996c>
    14b4:	0b390b3b 	bleq	e441a8 <__bss_end__+0xe38e50>
    14b8:	193f1349 	ldmdbne	pc!, {r0, r3, r6, r8, r9, ip}	; <UNPREDICTABLE>
    14bc:	0000193c 	andeq	r1, r0, ip, lsr r9
    14c0:	0b000f07 	bleq	50e4 <__code_start__-0x2f1c>
    14c4:	0013490b 	andseq	r4, r3, fp, lsl #18
    14c8:	00260800 	eoreq	r0, r6, r0, lsl #16
    14cc:	00001349 	andeq	r1, r0, r9, asr #6
    14d0:	3f012e09 	svccc	0x00012e09
    14d4:	3a0e0319 	bcc	382140 <__bss_end__+0x376de8>
    14d8:	390b3b0b 	stmdbcc	fp, {r0, r1, r3, r8, r9, fp, ip, sp}
    14dc:	1119270b 	tstne	r9, fp, lsl #14
    14e0:	40061201 	andmi	r1, r6, r1, lsl #4
    14e4:	19429718 	stmdbne	r2, {r3, r4, r8, r9, sl, ip, pc}^
    14e8:	00001301 	andeq	r1, r0, r1, lsl #6
    14ec:	0300050a 	movweq	r0, #1290	; 0x50a
    14f0:	3b0b3a08 	blcc	2cfd18 <__bss_end__+0x2c49c0>
    14f4:	490b390b 	stmdbmi	fp, {r0, r1, r3, r8, fp, ip, sp}
    14f8:	b7170213 			; <UNDEFINED> instruction: 0xb7170213
    14fc:	00001742 	andeq	r1, r0, r2, asr #14
    1500:	31011d0b 	tstcc	r1, fp, lsl #26
    1504:	b8015213 	stmdalt	r1, {r0, r1, r4, r9, ip, lr}
    1508:	17550b42 	ldrbne	r0, [r5, -r2, asr #22]
    150c:	0b590b58 	bleq	1644274 <__bss_end__+0x1638f1c>
    1510:	00000b57 	andeq	r0, r0, r7, asr fp
    1514:	3100050c 	tstcc	r0, ip, lsl #10
    1518:	b7170213 			; <UNDEFINED> instruction: 0xb7170213
    151c:	00001742 	andeq	r1, r0, r2, asr #14
    1520:	31011d0d 	tstcc	r1, sp, lsl #26
    1524:	b8015213 	stmdalt	r1, {r0, r1, r4, r9, ip, lr}
    1528:	01110b42 	tsteq	r1, r2, asr #22
    152c:	0b580612 	bleq	1602d7c <__bss_end__+0x15f7a24>
    1530:	0b570b59 	bleq	15c429c <__bss_end__+0x15b8f44>
    1534:	340e0000 	strcc	r0, [lr], #-0
    1538:	02133100 	andseq	r3, r3, #0
    153c:	1742b717 	smlaldne	fp, r2, r7, r7
    1540:	1d0f0000 	stcne	0, cr0, [pc, #-0]	; 1548 <__code_start__-0x6ab8>
    1544:	52133101 	andspl	r3, r3, #1073741824	; 0x40000000
    1548:	0b42b801 	bleq	10af554 <__bss_end__+0x10a41fc>
    154c:	06120111 			; <UNDEFINED> instruction: 0x06120111
    1550:	0b590b58 	bleq	16442b8 <__bss_end__+0x1638f60>
    1554:	13010b57 	movwne	r0, #6999	; 0x1b57
    1558:	89100000 	ldmdbhi	r0, {}	; <UNPREDICTABLE>
    155c:	11010182 	smlabbne	r1, r2, r1, r0
    1560:	00133101 	andseq	r3, r3, r1, lsl #2
    1564:	828a1100 	addhi	r1, sl, #0
    1568:	18020001 	stmdane	r2, {r0}
    156c:	00184291 	mulseq	r8, r1, r2
    1570:	82891200 	addhi	r1, r9, #0, 4
    1574:	01110001 	tsteq	r1, r1
    1578:	00001331 	andeq	r1, r0, r1, lsr r3
    157c:	31010b13 	tstcc	r1, r3, lsl fp
    1580:	00175513 	andseq	r5, r7, r3, lsl r5
    1584:	00341400 	eorseq	r1, r4, r0, lsl #8
    1588:	00001331 	andeq	r1, r0, r1, lsr r3
    158c:	55010b15 	strpl	r0, [r1, #-2837]	; 0xfffff4eb
    1590:	16000017 			; <UNDEFINED> instruction: 0x16000017
    1594:	1331011d 	teqne	r1, #1073741831	; 0x40000007
    1598:	42b80152 	adcsmi	r0, r8, #-2147483628	; 0x80000014
    159c:	5817550b 	ldmdapl	r7, {r0, r1, r3, r8, sl, ip, lr}
    15a0:	570b590b 	strpl	r5, [fp, -fp, lsl #18]
    15a4:	0013010b 	andseq	r0, r3, fp, lsl #2
    15a8:	012e1700 			; <UNDEFINED> instruction: 0x012e1700
    15ac:	0e03193f 			; <UNDEFINED> instruction: 0x0e03193f
    15b0:	0b3b0b3a 	bleq	ec42a0 <__bss_end__+0xeb8f48>
    15b4:	19270b39 	stmdbne	r7!, {r0, r3, r4, r5, r8, r9, fp}
    15b8:	13010b20 	movwne	r0, #6944	; 0x1b20
    15bc:	05180000 	ldreq	r0, [r8, #-0]
    15c0:	3a080300 	bcc	2021c8 <__bss_end__+0x1f6e70>
    15c4:	390b3b0b 	stmdbcc	fp, {r0, r1, r3, r8, r9, fp, ip, sp}
    15c8:	0013490b 	andseq	r4, r3, fp, lsl #18
    15cc:	00341900 	eorseq	r1, r4, r0, lsl #18
    15d0:	0b3a0803 	bleq	e835e4 <__bss_end__+0xe7828c>
    15d4:	0b390b3b 	bleq	e442c8 <__bss_end__+0xe38f70>
    15d8:	00001349 	andeq	r1, r0, r9, asr #6
    15dc:	00010b1a 	andeq	r0, r1, sl, lsl fp
    15e0:	012e1b00 			; <UNDEFINED> instruction: 0x012e1b00
    15e4:	0e03193f 			; <UNDEFINED> instruction: 0x0e03193f
    15e8:	0b3b0b3a 	bleq	ec42d8 <__bss_end__+0xeb8f80>
    15ec:	19270b39 	stmdbne	r7!, {r0, r3, r4, r5, r8, r9, fp}
    15f0:	0b201349 	bleq	80631c <__bss_end__+0x7fafc4>
    15f4:	00001301 	andeq	r1, r0, r1, lsl #6
    15f8:	3f002e1c 	svccc	0x00002e1c
    15fc:	3a0e0319 	bcc	382268 <__bss_end__+0x376f10>
    1600:	390b3b0b 	stmdbcc	fp, {r0, r1, r3, r8, r9, fp, ip, sp}
    1604:	4919270b 	ldmdbmi	r9, {r0, r1, r3, r8, r9, sl, sp}
    1608:	000b2013 	andeq	r2, fp, r3, lsl r0
    160c:	012e1d00 			; <UNDEFINED> instruction: 0x012e1d00
    1610:	01111331 	tsteq	r1, r1, lsr r3
    1614:	18400612 	stmdane	r0, {r1, r4, r9, sl}^
    1618:	01194297 			; <UNDEFINED> instruction: 0x01194297
    161c:	1e000013 	mcrne	0, 0, r0, cr0, cr3, {0}
    1620:	01018289 	smlabbeq	r1, r9, r2, r8
    1624:	42950111 	addsmi	r0, r5, #1073741828	; 0x40000004
    1628:	00133119 	andseq	r3, r3, r9, lsl r1
    162c:	002e1f00 	eoreq	r1, lr, r0, lsl #30
    1630:	193c193f 	ldmdbne	ip!, {r0, r1, r2, r3, r4, r5, r8, fp, ip}
    1634:	0e030e6e 	cdpeq	14, 0, cr0, cr3, cr14, {3}
    1638:	0b3b0b3a 	bleq	ec4328 <__bss_end__+0xeb8fd0>
    163c:	00000b39 	andeq	r0, r0, r9, lsr fp
    1640:	01110100 	tsteq	r1, r0, lsl #2
    1644:	0b130e25 	bleq	4c4ee0 <__bss_end__+0x4b9b88>
    1648:	0e1b0e03 	cdpeq	14, 1, cr0, cr11, cr3, {0}
    164c:	06120111 			; <UNDEFINED> instruction: 0x06120111
    1650:	00001710 	andeq	r1, r0, r0, lsl r7
    1654:	0b002402 	bleq	a664 <__code_end__+0x48>
    1658:	030b3e0b 	movweq	r3, #48651	; 0xbe0b
    165c:	03000008 	movweq	r0, #8
    1660:	0b0b0024 	bleq	2c16f8 <__bss_end__+0x2b63a0>
    1664:	0e030b3e 	vmoveq.16	d3[0], r0
    1668:	35040000 	strcc	r0, [r4, #-0]
    166c:	00134900 	andseq	r4, r3, r0, lsl #18
    1670:	00160500 	andseq	r0, r6, r0, lsl #10
    1674:	0b3a0e03 	bleq	e84e88 <__bss_end__+0xe79b30>
    1678:	0b390b3b 	bleq	e4436c <__bss_end__+0xe39014>
    167c:	00001349 	andeq	r1, r0, r9, asr #6
    1680:	3e010406 	cdpcc	4, 0, cr0, cr1, cr6, {0}
    1684:	490b0b0b 	stmdbmi	fp, {r0, r1, r3, r8, r9, fp}
    1688:	3b0b3a13 	blcc	2cfedc <__bss_end__+0x2c4b84>
    168c:	010b390b 	tsteq	fp, fp, lsl #18
    1690:	07000013 	smladeq	r0, r3, r0, r0
    1694:	0e030028 	cdpeq	0, 0, cr0, cr3, cr8, {1}
    1698:	00000b1c 	andeq	r0, r0, ip, lsl fp
    169c:	03011308 	movweq	r1, #4872	; 0x1308
    16a0:	3a0b0b0e 	bcc	2c42e0 <__bss_end__+0x2b8f88>
    16a4:	390b3b0b 	stmdbcc	fp, {r0, r1, r3, r8, r9, fp, ip, sp}
    16a8:	0013010b 	andseq	r0, r3, fp, lsl #2
    16ac:	000d0900 	andeq	r0, sp, r0, lsl #18
    16b0:	0b3a0803 	bleq	e836c4 <__bss_end__+0xe7836c>
    16b4:	0b390b3b 	bleq	e443a8 <__bss_end__+0xe39050>
    16b8:	0b381349 	bleq	e063e4 <__bss_end__+0xdfb08c>
    16bc:	0d0a0000 	stceq	0, cr0, [sl, #-0]
    16c0:	3a0e0300 	bcc	3822c8 <__bss_end__+0x376f70>
    16c4:	390b3b0b 	stmdbcc	fp, {r0, r1, r3, r8, r9, fp, ip, sp}
    16c8:	3813490b 	ldmdacc	r3, {r0, r1, r3, r8, fp, lr}
    16cc:	0b00000b 	bleq	1700 <__code_start__-0x6900>
    16d0:	0e030034 	mcreq	0, 0, r0, cr3, cr4, {1}
    16d4:	0b3b0b3a 	bleq	ec43c4 <__bss_end__+0xeb906c>
    16d8:	13490b39 	movtne	r0, #39737	; 0x9b39
    16dc:	0000061c 	andeq	r0, r0, ip, lsl r6
    16e0:	0b000f0c 	bleq	5318 <__code_start__-0x2ce8>
    16e4:	0013490b 	andseq	r4, r3, fp, lsl #18
    16e8:	00260d00 	eoreq	r0, r6, r0, lsl #26
    16ec:	00001349 	andeq	r1, r0, r9, asr #6
    16f0:	3f012e0e 	svccc	0x00012e0e
    16f4:	3a0e0319 	bcc	382360 <__bss_end__+0x377008>
    16f8:	390b3b0b 	stmdbcc	fp, {r0, r1, r3, r8, r9, fp, ip, sp}
    16fc:	1119270b 	tstne	r9, fp, lsl #14
    1700:	40061201 	andmi	r1, r6, r1, lsl #4
    1704:	19429718 	stmdbne	r2, {r3, r4, r8, r9, sl, ip, pc}^
    1708:	00001301 	andeq	r1, r0, r1, lsl #6
    170c:	0182890f 	orreq	r8, r2, pc, lsl #18
    1710:	31011100 	mrscc	r1, (UNDEF: 17)
    1714:	10000013 	andne	r0, r0, r3, lsl r0
    1718:	193f012e 	ldmdbne	pc!, {r1, r2, r3, r5, r8}	; <UNPREDICTABLE>
    171c:	0b3a0e03 	bleq	e84f30 <__bss_end__+0xe79bd8>
    1720:	0b390b3b 	bleq	e44414 <__bss_end__+0xe390bc>
    1724:	13491927 	movtne	r1, #39207	; 0x9927
    1728:	06120111 			; <UNDEFINED> instruction: 0x06120111
    172c:	42971840 	addsmi	r1, r7, #64, 16	; 0x400000
    1730:	00130119 	andseq	r0, r3, r9, lsl r1
    1734:	82891100 	addhi	r1, r9, #0
    1738:	01110101 	tsteq	r1, r1, lsl #2
    173c:	00001331 	andeq	r1, r0, r1, lsr r3
    1740:	01828a12 	orreq	r8, r2, r2, lsl sl
    1744:	91180200 	tstls	r8, r0, lsl #4
    1748:	00001842 	andeq	r1, r0, r2, asr #16
    174c:	03000513 	movweq	r0, #1299	; 0x513
    1750:	3b0b3a08 	blcc	2cff78 <__bss_end__+0x2c4c20>
    1754:	490b390b 	stmdbmi	fp, {r0, r1, r3, r8, fp, ip, sp}
    1758:	b7170213 			; <UNDEFINED> instruction: 0xb7170213
    175c:	00001742 	andeq	r1, r0, r2, asr #14
    1760:	01828914 	orreq	r8, r2, r4, lsl r9
    1764:	31011101 	tstcc	r1, r1, lsl #2
    1768:	00130113 	andseq	r0, r3, r3, lsl r1
    176c:	00341500 	eorseq	r1, r4, r0, lsl #10
    1770:	0b3a0803 	bleq	e83784 <__bss_end__+0xe7842c>
    1774:	0b390b3b 	bleq	e44468 <__bss_end__+0xe39110>
    1778:	17021349 	strne	r1, [r2, -r9, asr #6]
    177c:	001742b7 			; <UNDEFINED> instruction: 0x001742b7
    1780:	00341600 	eorseq	r1, r4, r0, lsl #12
    1784:	0b3a0e03 	bleq	e84f98 <__bss_end__+0xe79c40>
    1788:	0b390b3b 	bleq	e4447c <__bss_end__+0xe39124>
    178c:	051c1349 	ldreq	r1, [ip, #-841]	; 0xfffffcb7
    1790:	2e170000 	cdpcs	0, 1, cr0, cr7, cr0, {0}
    1794:	3a0e0301 	bcc	3823a0 <__bss_end__+0x377048>
    1798:	390b3b0b 	stmdbcc	fp, {r0, r1, r3, r8, r9, fp, ip, sp}
    179c:	1119270b 	tstne	r9, fp, lsl #14
    17a0:	40061201 	andmi	r1, r6, r1, lsl #4
    17a4:	19429718 	stmdbne	r2, {r3, r4, r8, r9, sl, ip, pc}^
    17a8:	00001301 	andeq	r1, r0, r1, lsl #6
    17ac:	03000518 	movweq	r0, #1304	; 0x518
    17b0:	3b0b3a0e 	blcc	2cfff0 <__bss_end__+0x2c4c98>
    17b4:	490b390b 	stmdbmi	fp, {r0, r1, r3, r8, fp, ip, sp}
    17b8:	b7170213 			; <UNDEFINED> instruction: 0xb7170213
    17bc:	00001742 	andeq	r1, r0, r2, asr #14
    17c0:	00003519 	andeq	r3, r0, r9, lsl r5
    17c4:	002e1a00 	eoreq	r1, lr, r0, lsl #20
    17c8:	193c193f 	ldmdbne	ip!, {r0, r1, r2, r3, r4, r5, r8, fp, ip}
    17cc:	0e030e6e 	cdpeq	14, 0, cr0, cr3, cr14, {3}
    17d0:	0b3b0b3a 	bleq	ec44c0 <__bss_end__+0xeb9168>
    17d4:	00000b39 	andeq	r0, r0, r9, lsr fp
    17d8:	01110100 	tsteq	r1, r0, lsl #2
    17dc:	0b130e25 	bleq	4c5078 <__bss_end__+0x4b9d20>
    17e0:	0e1b0e03 	cdpeq	14, 1, cr0, cr11, cr3, {0}
    17e4:	06120111 			; <UNDEFINED> instruction: 0x06120111
    17e8:	00001710 	andeq	r1, r0, r0, lsl r7
    17ec:	0b002402 	bleq	a7fc <__FUNCTION__.4086+0x60>
    17f0:	030b3e0b 	movweq	r3, #48651	; 0xbe0b
    17f4:	03000008 	movweq	r0, #8
    17f8:	0b0b0024 	bleq	2c1890 <__bss_end__+0x2b6538>
    17fc:	0e030b3e 	vmoveq.16	d3[0], r0
    1800:	16040000 	strne	r0, [r4], -r0
    1804:	3a0e0300 	bcc	38240c <__bss_end__+0x3770b4>
    1808:	390b3b0b 	stmdbcc	fp, {r0, r1, r3, r8, r9, fp, ip, sp}
    180c:	0013490b 	andseq	r4, r3, fp, lsl #18
    1810:	00260500 	eoreq	r0, r6, r0, lsl #10
    1814:	00001349 	andeq	r1, r0, r9, asr #6
    1818:	0b000f06 	bleq	5438 <__code_start__-0x2bc8>
    181c:	0700000b 	streq	r0, [r0, -fp]
    1820:	0b3e0104 	bleq	f81c38 <__bss_end__+0xf768e0>
    1824:	13490b0b 	movtne	r0, #39691	; 0x9b0b
    1828:	0b3b0b3a 	bleq	ec4518 <__bss_end__+0xeb91c0>
    182c:	13010b39 	movwne	r0, #6969	; 0x1b39
    1830:	28080000 	stmdacs	r8, {}	; <UNPREDICTABLE>
    1834:	1c0e0300 	stcne	3, cr0, [lr], {-0}
    1838:	09000006 	stmdbeq	r0, {r1, r2}
    183c:	0e030034 	mcreq	0, 0, r0, cr3, cr4, {1}
    1840:	0b3b0b3a 	bleq	ec4530 <__bss_end__+0xeb91d8>
    1844:	13490b39 	movtne	r0, #39737	; 0x9b39
    1848:	193c193f 	ldmdbne	ip!, {r0, r1, r2, r3, r4, r5, r8, fp, ip}
    184c:	340a0000 	strcc	r0, [sl], #-0
    1850:	3a0e0300 	bcc	382458 <__bss_end__+0x377100>
    1854:	390b3b0b 	stmdbcc	fp, {r0, r1, r3, r8, r9, fp, ip, sp}
    1858:	0213490b 	andseq	r4, r3, #180224	; 0x2c000
    185c:	0b000018 	bleq	18c4 <__code_start__-0x673c>
    1860:	0b0b000f 	bleq	2c18a4 <__bss_end__+0x2b654c>
    1864:	00001349 	andeq	r1, r0, r9, asr #6
    1868:	3f012e0c 	svccc	0x00012e0c
    186c:	3a0e0319 	bcc	3824d8 <__bss_end__+0x377180>
    1870:	390b3b0b 	stmdbcc	fp, {r0, r1, r3, r8, r9, fp, ip, sp}
    1874:	1119270b 	tstne	r9, fp, lsl #14
    1878:	40061201 	andmi	r1, r6, r1, lsl #4
    187c:	19429718 	stmdbne	r2, {r3, r4, r8, r9, sl, ip, pc}^
    1880:	00001301 	andeq	r1, r0, r1, lsl #6
    1884:	0300050d 	movweq	r0, #1293	; 0x50d
    1888:	3b0b3a08 	blcc	2d00b0 <__bss_end__+0x2c4d58>
    188c:	490b390b 	stmdbmi	fp, {r0, r1, r3, r8, fp, ip, sp}
    1890:	b7170213 			; <UNDEFINED> instruction: 0xb7170213
    1894:	00001742 	andeq	r1, r0, r2, asr #14
    1898:	0300340e 	movweq	r3, #1038	; 0x40e
    189c:	3413490e 	ldrcc	r4, [r3], #-2318	; 0xfffff6f2
    18a0:	00180219 	andseq	r0, r8, r9, lsl r2
    18a4:	82890f00 	addhi	r0, r9, #0, 30
    18a8:	01110101 	tsteq	r1, r1, lsl #2
    18ac:	13011331 	movwne	r1, #4913	; 0x1331
    18b0:	8a100000 	bhi	4018b8 <__bss_end__+0x3f6560>
    18b4:	02000182 	andeq	r0, r0, #-2147483616	; 0x80000020
    18b8:	18429118 	stmdane	r2, {r3, r4, r8, ip, pc}^
    18bc:	89110000 	ldmdbhi	r1, {}	; <UNPREDICTABLE>
    18c0:	11000182 	smlabbne	r0, r2, r1, r0
    18c4:	00133101 	andseq	r3, r3, r1, lsl #2
    18c8:	01011200 	mrseq	r1, R9_usr
    18cc:	13011349 	movwne	r1, #4937	; 0x1349
    18d0:	21130000 	tstcs	r3, r0
    18d4:	2f134900 	svccs	0x00134900
    18d8:	1400000b 	strne	r0, [r0], #-11
    18dc:	193f002e 	ldmdbne	pc!, {r1, r2, r3, r5}	; <UNPREDICTABLE>
    18e0:	0b3a0e03 	bleq	e850f4 <__bss_end__+0xe79d9c>
    18e4:	0b390b3b 	bleq	e445d8 <__bss_end__+0xe39280>
    18e8:	01111927 	tsteq	r1, r7, lsr #18
    18ec:	18400612 	stmdane	r0, {r1, r4, r9, sl}^
    18f0:	00194297 	mulseq	r9, r7, r2
    18f4:	00051500 	andeq	r1, r5, r0, lsl #10
    18f8:	0b3a0803 	bleq	e8390c <__bss_end__+0xe785b4>
    18fc:	0b390b3b 	bleq	e445f0 <__bss_end__+0xe39298>
    1900:	18021349 	stmdane	r2, {r0, r3, r6, r8, r9, ip}
    1904:	2e160000 	cdpcs	0, 1, cr0, cr6, cr0, {0}
    1908:	03193f01 	tsteq	r9, #1, 30
    190c:	3b0b3a0e 	blcc	2d014c <__bss_end__+0x2c4df4>
    1910:	270b390b 	strcs	r3, [fp, -fp, lsl #18]
    1914:	11134919 	tstne	r3, r9, lsl r9
    1918:	40061201 	andmi	r1, r6, r1, lsl #4
    191c:	19429718 	stmdbne	r2, {r3, r4, r8, r9, sl, ip, pc}^
    1920:	00001301 	andeq	r1, r0, r1, lsl #6
    1924:	03000517 	movweq	r0, #1303	; 0x517
    1928:	3b0b3a0e 	blcc	2d0168 <__bss_end__+0x2c4e10>
    192c:	490b390b 	stmdbmi	fp, {r0, r1, r3, r8, fp, ip, sp}
    1930:	b7170213 			; <UNDEFINED> instruction: 0xb7170213
    1934:	00001742 	andeq	r1, r0, r2, asr #14
    1938:	03003418 	movweq	r3, #1048	; 0x418
    193c:	3b0b3a08 	blcc	2d0164 <__bss_end__+0x2c4e0c>
    1940:	490b390b 	stmdbmi	fp, {r0, r1, r3, r8, fp, ip, sp}
    1944:	b7170213 			; <UNDEFINED> instruction: 0xb7170213
    1948:	00001742 	andeq	r1, r0, r2, asr #14
    194c:	31011d19 	tstcc	r1, r9, lsl sp
    1950:	b8015213 	stmdalt	r1, {r0, r1, r4, r9, ip, lr}
    1954:	01110b42 	tsteq	r1, r2, asr #22
    1958:	0b580612 	bleq	16031a8 <__bss_end__+0x15f7e50>
    195c:	0b570b59 	bleq	15c46c8 <__bss_end__+0x15b9370>
    1960:	00001301 	andeq	r1, r0, r1, lsl #6
    1964:	3100051a 	tstcc	r0, sl, lsl r5
    1968:	b7170213 			; <UNDEFINED> instruction: 0xb7170213
    196c:	00001742 	andeq	r1, r0, r2, asr #14
    1970:	31011d1b 	tstcc	r1, fp, lsl sp
    1974:	b8015213 	stmdalt	r1, {r0, r1, r4, r9, ip, lr}
    1978:	17550b42 	ldrbne	r0, [r5, -r2, asr #22]
    197c:	0b590b58 	bleq	16446e4 <__bss_end__+0x163938c>
    1980:	13010b57 	movwne	r0, #6999	; 0x1b57
    1984:	0b1c0000 	bleq	70198c <__bss_end__+0x6f6634>
    1988:	00175501 	andseq	r5, r7, r1, lsl #10
    198c:	00341d00 	eorseq	r1, r4, r0, lsl #26
    1990:	0b3a0e03 	bleq	e851a4 <__bss_end__+0xe79e4c>
    1994:	0b390b3b 	bleq	e44688 <__bss_end__+0xe39330>
    1998:	17021349 	strne	r1, [r2, -r9, asr #6]
    199c:	001742b7 			; <UNDEFINED> instruction: 0x001742b7
    19a0:	000b1e00 	andeq	r1, fp, r0, lsl #28
    19a4:	00001755 	andeq	r1, r0, r5, asr r7
    19a8:	3f002e1f 	svccc	0x00002e1f
    19ac:	3a0e0319 	bcc	382618 <__bss_end__+0x3772c0>
    19b0:	390b3b0b 	stmdbcc	fp, {r0, r1, r3, r8, r9, fp, ip, sp}
    19b4:	4919270b 	ldmdbmi	r9, {r0, r1, r3, r8, r9, sl, sp}
    19b8:	12011113 	andne	r1, r1, #-1073741820	; 0xc0000004
    19bc:	97184006 	ldrls	r4, [r8, -r6]
    19c0:	00001942 	andeq	r1, r0, r2, asr #18
    19c4:	03012e20 	movweq	r2, #7712	; 0x1e20
    19c8:	3b0b3a0e 	blcc	2d0208 <__bss_end__+0x2c4eb0>
    19cc:	270b390b 	strcs	r3, [fp, -fp, lsl #18]
    19d0:	20134919 	andscs	r4, r3, r9, lsl r9
    19d4:	0013010b 	andseq	r0, r3, fp, lsl #2
    19d8:	00052100 	andeq	r2, r5, r0, lsl #2
    19dc:	0b3a0803 	bleq	e839f0 <__bss_end__+0xe78698>
    19e0:	0b390b3b 	bleq	e446d4 <__bss_end__+0xe3937c>
    19e4:	00001349 	andeq	r1, r0, r9, asr #6
    19e8:	3f002e22 	svccc	0x00002e22
    19ec:	6e193c19 	mrcvs	12, 0, r3, cr9, cr9, {0}
    19f0:	3a0e030e 	bcc	382630 <__bss_end__+0x3772d8>
    19f4:	390b3b0b 	stmdbcc	fp, {r0, r1, r3, r8, r9, fp, ip, sp}
    19f8:	0000000b 	andeq	r0, r0, fp
    19fc:	25011101 	strcs	r1, [r1, #-257]	; 0xfffffeff
    1a00:	030b130e 	movweq	r1, #45838	; 0xb30e
    1a04:	110e1b0e 	tstne	lr, lr, lsl #22
    1a08:	10061201 	andne	r1, r6, r1, lsl #4
    1a0c:	02000017 	andeq	r0, r0, #23, 0
    1a10:	0b0b0024 	bleq	2c1aa8 <__bss_end__+0x2b6750>
    1a14:	0e030b3e 	vmoveq.16	d3[0], r0
    1a18:	24030000 	strcs	r0, [r3], #-0
    1a1c:	3e0b0b00 	vmlacc.f64	d0, d11, d0
    1a20:	0008030b 	andeq	r0, r8, fp, lsl #6
    1a24:	00260400 	eoreq	r0, r6, r0, lsl #8
    1a28:	00001349 	andeq	r1, r0, r9, asr #6
    1a2c:	03001605 	movweq	r1, #1541	; 0x605
    1a30:	3b0b3a0e 	blcc	2d0270 <__bss_end__+0x2c4f18>
    1a34:	490b390b 	stmdbmi	fp, {r0, r1, r3, r8, fp, ip, sp}
    1a38:	06000013 			; <UNDEFINED> instruction: 0x06000013
    1a3c:	19270115 	stmdbne	r7!, {r0, r2, r4, r8}
    1a40:	13011349 	movwne	r1, #4937	; 0x1349
    1a44:	05070000 	streq	r0, [r7, #-0]
    1a48:	00134900 	andseq	r4, r3, r0, lsl #18
    1a4c:	00340800 	eorseq	r0, r4, r0, lsl #16
    1a50:	0b3a0e03 	bleq	e85264 <__bss_end__+0xe79f0c>
    1a54:	0b390b3b 	bleq	e44748 <__bss_end__+0xe393f0>
    1a58:	193f1349 	ldmdbne	pc!, {r0, r3, r6, r8, r9, ip}	; <UNPREDICTABLE>
    1a5c:	0000193c 	andeq	r1, r0, ip, lsr r9
    1a60:	0b000f09 	bleq	568c <__code_start__-0x2974>
    1a64:	0013490b 	andseq	r4, r3, fp, lsl #18
    1a68:	01040a00 	tsteq	r4, r0, lsl #20
    1a6c:	0b0b0b3e 	bleq	2c476c <__bss_end__+0x2b9414>
    1a70:	0b3a1349 	bleq	e8679c <__bss_end__+0xe7b444>
    1a74:	0b390b3b 	bleq	e44768 <__bss_end__+0xe39410>
    1a78:	00001301 	andeq	r1, r0, r1, lsl #6
    1a7c:	0300280b 	movweq	r2, #2059	; 0x80b
    1a80:	000b1c0e 	andeq	r1, fp, lr, lsl #24
    1a84:	00340c00 	eorseq	r0, r4, r0, lsl #24
    1a88:	0b3a0e03 	bleq	e8529c <__bss_end__+0xe79f44>
    1a8c:	0b390b3b 	bleq	e44780 <__bss_end__+0xe39428>
    1a90:	061c1349 	ldreq	r1, [ip], -r9, asr #6
    1a94:	2e0d0000 	cdpcs	0, 0, cr0, cr13, cr0, {0}
    1a98:	03193f01 	tsteq	r9, #1, 30
    1a9c:	3b0b3a0e 	blcc	2d02dc <__bss_end__+0x2c4f84>
    1aa0:	270b390b 	strcs	r3, [fp, -fp, lsl #18]
    1aa4:	11134919 	tstne	r3, r9, lsl r9
    1aa8:	40061201 	andmi	r1, r6, r1, lsl #4
    1aac:	19429718 	stmdbne	r2, {r3, r4, r8, r9, sl, ip, pc}^
    1ab0:	00001301 	andeq	r1, r0, r1, lsl #6
    1ab4:	0300050e 	movweq	r0, #1294	; 0x50e
    1ab8:	3b0b3a08 	blcc	2d02e0 <__bss_end__+0x2c4f88>
    1abc:	490b390b 	stmdbmi	fp, {r0, r1, r3, r8, fp, ip, sp}
    1ac0:	b7170213 			; <UNDEFINED> instruction: 0xb7170213
    1ac4:	00001742 	andeq	r1, r0, r2, asr #14
    1ac8:	0300340f 	movweq	r3, #1039	; 0x40f
    1acc:	3b0b3a0e 	blcc	2d030c <__bss_end__+0x2c4fb4>
    1ad0:	490b390b 	stmdbmi	fp, {r0, r1, r3, r8, fp, ip, sp}
    1ad4:	b7170213 			; <UNDEFINED> instruction: 0xb7170213
    1ad8:	00001742 	andeq	r1, r0, r2, asr #14
    1adc:	03003410 	movweq	r3, #1040	; 0x410
    1ae0:	3b0b3a08 	blcc	2d0308 <__bss_end__+0x2c4fb0>
    1ae4:	490b390b 	stmdbmi	fp, {r0, r1, r3, r8, fp, ip, sp}
    1ae8:	b7170213 			; <UNDEFINED> instruction: 0xb7170213
    1aec:	00001742 	andeq	r1, r0, r2, asr #14
    1af0:	01828911 	orreq	r8, r2, r1, lsl r9
    1af4:	31011101 	tstcc	r1, r1, lsl #2
    1af8:	12000013 	andne	r0, r0, #19, 0
    1afc:	0001828a 	andeq	r8, r1, sl, lsl #5
    1b00:	42911802 	addsmi	r1, r1, #131072	; 0x20000
    1b04:	13000018 	movwne	r0, #24
    1b08:	193f012e 	ldmdbne	pc!, {r1, r2, r3, r5, r8}	; <UNPREDICTABLE>
    1b0c:	0b3a0e03 	bleq	e85320 <__bss_end__+0xe79fc8>
    1b10:	0b390b3b 	bleq	e44804 <__bss_end__+0xe394ac>
    1b14:	01111927 	tsteq	r1, r7, lsr #18
    1b18:	18400612 	stmdane	r0, {r1, r4, r9, sl}^
    1b1c:	01194297 			; <UNDEFINED> instruction: 0x01194297
    1b20:	14000013 	strne	r0, [r0], #-19	; 0xffffffed
    1b24:	1331011d 	teqne	r1, #1073741831	; 0x40000007
    1b28:	42b80152 	adcsmi	r0, r8, #-2147483628	; 0x80000014
    1b2c:	5817550b 	ldmdapl	r7, {r0, r1, r3, r8, sl, ip, lr}
    1b30:	570b590b 	strpl	r5, [fp, -fp, lsl #18]
    1b34:	0013010b 	andseq	r0, r3, fp, lsl #2
    1b38:	00051500 	andeq	r1, r5, r0, lsl #10
    1b3c:	17021331 	smladxne	r2, r1, r3, r1
    1b40:	001742b7 			; <UNDEFINED> instruction: 0x001742b7
    1b44:	82891600 	addhi	r1, r9, #0, 12
    1b48:	01110101 	tsteq	r1, r1, lsl #2
    1b4c:	31194295 			; <UNDEFINED> instruction: 0x31194295
    1b50:	17000013 	smladne	r0, r3, r0, r0
    1b54:	1331011d 	teqne	r1, #1073741831	; 0x40000007
    1b58:	42b80152 	adcsmi	r0, r8, #-2147483628	; 0x80000014
    1b5c:	1201110b 	andne	r1, r1, #-1073741822	; 0xc0000002
    1b60:	590b5806 	stmdbpl	fp, {r1, r2, fp, ip, lr}
    1b64:	000b570b 	andeq	r5, fp, fp, lsl #14
    1b68:	011d1800 	tsteq	sp, r0, lsl #16
    1b6c:	01521331 	cmpeq	r2, r1, lsr r3
    1b70:	550b42b8 	strpl	r4, [fp, #-696]	; 0xfffffd48
    1b74:	590b5817 	stmdbpl	fp, {r0, r1, r2, r4, fp, ip, lr}
    1b78:	000b570b 	andeq	r5, fp, fp, lsl #14
    1b7c:	00051900 	andeq	r1, r5, r0, lsl #18
    1b80:	0b1c1331 	bleq	70684c <__bss_end__+0x6fb4f4>
    1b84:	0b1a0000 	bleq	681b8c <__bss_end__+0x676834>
    1b88:	00175501 	andseq	r5, r7, r1, lsl #10
    1b8c:	00341b00 	eorseq	r1, r4, r0, lsl #22
    1b90:	00001331 	andeq	r1, r0, r1, lsr r3
    1b94:	3100341c 	tstcc	r0, ip, lsl r4
    1b98:	b7170213 			; <UNDEFINED> instruction: 0xb7170213
    1b9c:	00001742 	andeq	r1, r0, r2, asr #14
    1ba0:	0182891d 	orreq	r8, r2, sp, lsl r9
    1ba4:	31011101 	tstcc	r1, r1, lsl #2
    1ba8:	00130113 	andseq	r0, r3, r3, lsl r1
    1bac:	012e1e00 			; <UNDEFINED> instruction: 0x012e1e00
    1bb0:	0e03193f 			; <UNDEFINED> instruction: 0x0e03193f
    1bb4:	0b3b0b3a 	bleq	ec48a4 <__bss_end__+0xeb954c>
    1bb8:	19270b39 	stmdbne	r7!, {r0, r3, r4, r5, r8, r9, fp}
    1bbc:	13010b20 	movwne	r0, #6944	; 0x1b20
    1bc0:	051f0000 	ldreq	r0, [pc, #-0]	; 1bc8 <__code_start__-0x6438>
    1bc4:	3a080300 	bcc	2027cc <__bss_end__+0x1f7474>
    1bc8:	390b3b0b 	stmdbcc	fp, {r0, r1, r3, r8, r9, fp, ip, sp}
    1bcc:	0013490b 	andseq	r4, r3, fp, lsl #18
    1bd0:	00052000 	andeq	r2, r5, r0
    1bd4:	0b3a0e03 	bleq	e853e8 <__bss_end__+0xe7a090>
    1bd8:	0b390b3b 	bleq	e448cc <__bss_end__+0xe39574>
    1bdc:	00001349 	andeq	r1, r0, r9, asr #6
    1be0:	03003421 	movweq	r3, #1057	; 0x421
    1be4:	3b0b3a08 	blcc	2d040c <__bss_end__+0x2c50b4>
    1be8:	490b390b 	stmdbmi	fp, {r0, r1, r3, r8, fp, ip, sp}
    1bec:	22000013 	andcs	r0, r0, #19, 0
    1bf0:	0e03012e 	adfeqsp	f0, f3, #0.5
    1bf4:	0b3b0b3a 	bleq	ec48e4 <__bss_end__+0xeb958c>
    1bf8:	19270b39 	stmdbne	r7!, {r0, r3, r4, r5, r8, r9, fp}
    1bfc:	0b201349 	bleq	806928 <__bss_end__+0x7fb5d0>
    1c00:	00001301 	andeq	r1, r0, r1, lsl #6
    1c04:	31012e23 	tstcc	r1, r3, lsr #28
    1c08:	12011113 	andne	r1, r1, #-1073741820	; 0xc0000004
    1c0c:	97184006 	ldrls	r4, [r8, -r6]
    1c10:	13011942 	movwne	r1, #6466	; 0x1942
    1c14:	2e240000 	cdpcs	0, 2, cr0, cr4, cr0, {0}
    1c18:	3c193f00 	ldccc	15, cr3, [r9], {-0}
    1c1c:	030e6e19 	movweq	r6, #60953	; 0xee19
    1c20:	3b0b3a0e 	blcc	2d0460 <__bss_end__+0x2c5108>
    1c24:	000b390b 	andeq	r3, fp, fp, lsl #18
    1c28:	11010000 	mrsne	r0, (UNDEF: 1)
    1c2c:	130e2501 	movwne	r2, #58625	; 0xe501
    1c30:	1b0e030b 	blne	382864 <__bss_end__+0x37750c>
    1c34:	1201110e 	andne	r1, r1, #-2147483645	; 0x80000003
    1c38:	00171006 	andseq	r1, r7, r6
    1c3c:	00240200 	eoreq	r0, r4, r0, lsl #4
    1c40:	0b3e0b0b 	bleq	f84874 <__bss_end__+0xf7951c>
    1c44:	00000803 	andeq	r0, r0, r3, lsl #16
    1c48:	0b002403 	bleq	ac5c <__FUNCTION__.4136+0xf4>
    1c4c:	030b3e0b 	movweq	r3, #48651	; 0xbe0b
    1c50:	0400000e 	streq	r0, [r0], #-14
    1c54:	19270115 	stmdbne	r7!, {r0, r2, r4, r8}
    1c58:	13011349 	movwne	r1, #4937	; 0x1349
    1c5c:	05050000 	streq	r0, [r5, #-0]
    1c60:	00134900 	andseq	r4, r3, r0, lsl #18
    1c64:	00340600 	eorseq	r0, r4, r0, lsl #12
    1c68:	0b3a0e03 	bleq	e8547c <__bss_end__+0xe7a124>
    1c6c:	0b390b3b 	bleq	e44960 <__bss_end__+0xe39608>
    1c70:	193f1349 	ldmdbne	pc!, {r0, r3, r6, r8, r9, ip}	; <UNPREDICTABLE>
    1c74:	0000193c 	andeq	r1, r0, ip, lsr r9
    1c78:	0b000f07 	bleq	589c <__code_start__-0x2764>
    1c7c:	0013490b 	andseq	r4, r3, fp, lsl #18
    1c80:	00260800 	eoreq	r0, r6, r0, lsl #16
    1c84:	00001349 	andeq	r1, r0, r9, asr #6
    1c88:	47003409 	strmi	r3, [r0, -r9, lsl #8]
    1c8c:	3b0b3a13 	blcc	2d04e0 <__bss_end__+0x2c5188>
    1c90:	020b390b 	andeq	r3, fp, #180224	; 0x2c000
    1c94:	0a000018 	beq	1cfc <__code_start__-0x6304>
    1c98:	193f012e 	ldmdbne	pc!, {r1, r2, r3, r5, r8}	; <UNPREDICTABLE>
    1c9c:	0b3a0e03 	bleq	e854b0 <__bss_end__+0xe7a158>
    1ca0:	0b390b3b 	bleq	e44994 <__bss_end__+0xe3963c>
    1ca4:	01111927 	tsteq	r1, r7, lsr #18
    1ca8:	18400612 	stmdane	r0, {r1, r4, r9, sl}^
    1cac:	01194297 			; <UNDEFINED> instruction: 0x01194297
    1cb0:	0b000013 	bleq	1d04 <__code_start__-0x62fc>
    1cb4:	08030005 	stmdaeq	r3, {r0, r2}
    1cb8:	0b3b0b3a 	bleq	ec49a8 <__bss_end__+0xeb9650>
    1cbc:	13490b39 	movtne	r0, #39737	; 0x9b39
    1cc0:	00001802 	andeq	r1, r0, r2, lsl #16
    1cc4:	3f002e0c 	svccc	0x00002e0c
    1cc8:	3a0e0319 	bcc	382934 <__bss_end__+0x3775dc>
    1ccc:	390b3b0b 	stmdbcc	fp, {r0, r1, r3, r8, r9, fp, ip, sp}
    1cd0:	1119270b 	tstne	r9, fp, lsl #14
    1cd4:	40061201 	andmi	r1, r6, r1, lsl #4
    1cd8:	19429718 	stmdbne	r2, {r3, r4, r8, r9, sl, ip, pc}^
    1cdc:	2e0d0000 	cdpcs	0, 0, cr0, cr13, cr0, {0}
    1ce0:	3a0e0301 	bcc	3828ec <__bss_end__+0x377594>
    1ce4:	390b3b0b 	stmdbcc	fp, {r0, r1, r3, r8, r9, fp, ip, sp}
    1ce8:	4919270b 	ldmdbmi	r9, {r0, r1, r3, r8, r9, sl, sp}
    1cec:	12011113 	andne	r1, r1, #-1073741820	; 0xc0000004
    1cf0:	97184006 	ldrls	r4, [r8, -r6]
    1cf4:	13011942 	movwne	r1, #6466	; 0x1942
    1cf8:	050e0000 	streq	r0, [lr, #-0]
    1cfc:	3a080300 	bcc	202904 <__bss_end__+0x1f75ac>
    1d00:	390b3b0b 	stmdbcc	fp, {r0, r1, r3, r8, r9, fp, ip, sp}
    1d04:	0213490b 	andseq	r4, r3, #180224	; 0x2c000
    1d08:	1742b717 	smlaldne	fp, r2, r7, r7
    1d0c:	890f0000 	stmdbhi	pc, {}	; <UNPREDICTABLE>
    1d10:	11010182 	smlabbne	r1, r2, r1, r0
    1d14:	00133101 	andseq	r3, r3, r1, lsl #2
    1d18:	828a1000 	addhi	r1, sl, #0, 0
    1d1c:	18020001 	stmdane	r2, {r0}
    1d20:	00184291 	mulseq	r8, r1, r2
    1d24:	002e1100 	eoreq	r1, lr, r0, lsl #2
    1d28:	193c193f 	ldmdbne	ip!, {r0, r1, r2, r3, r4, r5, r8, fp, ip}
    1d2c:	0e030e6e 	cdpeq	14, 0, cr0, cr3, cr14, {3}
    1d30:	0b3b0b3a 	bleq	ec4a20 <__bss_end__+0xeb96c8>
    1d34:	00000b39 	andeq	r0, r0, r9, lsr fp
    1d38:	01110100 	tsteq	r1, r0, lsl #2
    1d3c:	0b130e25 	bleq	4c55d8 <__bss_end__+0x4ba280>
    1d40:	0e1b0e03 	cdpeq	14, 1, cr0, cr11, cr3, {0}
    1d44:	06120111 			; <UNDEFINED> instruction: 0x06120111
    1d48:	00001710 	andeq	r1, r0, r0, lsl r7
    1d4c:	0b002402 	bleq	ad5c <__FUNCTION__.4030+0x78>
    1d50:	030b3e0b 	movweq	r3, #48651	; 0xbe0b
    1d54:	03000008 	movweq	r0, #8
    1d58:	0b0b0024 	bleq	2c1df0 <__bss_end__+0x2b6a98>
    1d5c:	0e030b3e 	vmoveq.16	d3[0], r0
    1d60:	15040000 	strne	r0, [r4, #-0]
    1d64:	49192701 	ldmdbmi	r9, {r0, r8, r9, sl, sp}
    1d68:	00130113 	andseq	r0, r3, r3, lsl r1
    1d6c:	00050500 	andeq	r0, r5, r0, lsl #10
    1d70:	00001349 	andeq	r1, r0, r9, asr #6
    1d74:	03003406 	movweq	r3, #1030	; 0x406
    1d78:	3b0b3a0e 	blcc	2d05b8 <__bss_end__+0x2c5260>
    1d7c:	490b390b 	stmdbmi	fp, {r0, r1, r3, r8, fp, ip, sp}
    1d80:	3c193f13 	ldccc	15, cr3, [r9], {19}
    1d84:	07000019 	smladeq	r0, r9, r0, r0
    1d88:	0b0b000f 	bleq	2c1dcc <__bss_end__+0x2b6a74>
    1d8c:	00001349 	andeq	r1, r0, r9, asr #6
    1d90:	49002608 	stmdbmi	r0, {r3, r9, sl, sp}
    1d94:	09000013 	stmdbeq	r0, {r0, r1, r4}
    1d98:	193f012e 	ldmdbne	pc!, {r1, r2, r3, r5, r8}	; <UNPREDICTABLE>
    1d9c:	0b3a0e03 	bleq	e855b0 <__bss_end__+0xe7a258>
    1da0:	0b390b3b 	bleq	e44a94 <__bss_end__+0xe3973c>
    1da4:	13491927 	movtne	r1, #39207	; 0x9927
    1da8:	06120111 			; <UNDEFINED> instruction: 0x06120111
    1dac:	42971840 	addsmi	r1, r7, #64, 16	; 0x400000
    1db0:	00130119 	andseq	r0, r3, r9, lsl r1
    1db4:	00050a00 	andeq	r0, r5, r0, lsl #20
    1db8:	0b3a0e03 	bleq	e855cc <__bss_end__+0xe7a274>
    1dbc:	0b390b3b 	bleq	e44ab0 <__bss_end__+0xe39758>
    1dc0:	18021349 	stmdane	r2, {r0, r3, r6, r8, r9, ip}
    1dc4:	050b0000 	streq	r0, [fp, #-0]
    1dc8:	3a080300 	bcc	2029d0 <__bss_end__+0x1f7678>
    1dcc:	390b3b0b 	stmdbcc	fp, {r0, r1, r3, r8, r9, fp, ip, sp}
    1dd0:	0213490b 	andseq	r4, r3, #180224	; 0x2c000
    1dd4:	1742b717 	smlaldne	fp, r2, r7, r7
    1dd8:	340c0000 	strcc	r0, [ip], #-0
    1ddc:	3a080300 	bcc	2029e4 <__bss_end__+0x1f768c>
    1de0:	390b3b0b 	stmdbcc	fp, {r0, r1, r3, r8, r9, fp, ip, sp}
    1de4:	0213490b 	andseq	r4, r3, #180224	; 0x2c000
    1de8:	1742b717 	smlaldne	fp, r2, r7, r7
    1dec:	01000000 	mrseq	r0, (UNDEF: 0)
    1df0:	0e250111 	mcreq	1, 1, r0, cr5, cr1, {0}
    1df4:	0e030b13 	vmoveq.32	d3[0], r0
    1df8:	01110e1b 	tsteq	r1, fp, lsl lr
    1dfc:	17100612 			; <UNDEFINED> instruction: 0x17100612
    1e00:	24020000 	strcs	r0, [r2], #-0
    1e04:	3e0b0b00 	vmlacc.f64	d0, d11, d0
    1e08:	0008030b 	andeq	r0, r8, fp, lsl #6
    1e0c:	00240300 	eoreq	r0, r4, r0, lsl #6
    1e10:	0b3e0b0b 	bleq	f84a44 <__bss_end__+0xf796ec>
    1e14:	00000e03 	andeq	r0, r0, r3, lsl #28
    1e18:	27011504 	strcs	r1, [r1, -r4, lsl #10]
    1e1c:	01134919 	tsteq	r3, r9, lsl r9
    1e20:	05000013 	streq	r0, [r0, #-19]	; 0xffffffed
    1e24:	13490005 	movtne	r0, #36869	; 0x9005
    1e28:	34060000 	strcc	r0, [r6], #-0
    1e2c:	3a0e0300 	bcc	382a34 <__bss_end__+0x3776dc>
    1e30:	390b3b0b 	stmdbcc	fp, {r0, r1, r3, r8, r9, fp, ip, sp}
    1e34:	3f13490b 	svccc	0x0013490b
    1e38:	00193c19 	andseq	r3, r9, r9, lsl ip
    1e3c:	000f0700 	andeq	r0, pc, r0, lsl #14
    1e40:	13490b0b 	movtne	r0, #39691	; 0x9b0b
    1e44:	26080000 	strcs	r0, [r8], -r0
    1e48:	00134900 	andseq	r4, r3, r0, lsl #18
    1e4c:	012e0900 			; <UNDEFINED> instruction: 0x012e0900
    1e50:	0e03193f 			; <UNDEFINED> instruction: 0x0e03193f
    1e54:	0b3b0b3a 	bleq	ec4b44 <__bss_end__+0xeb97ec>
    1e58:	19270b39 	stmdbne	r7!, {r0, r3, r4, r5, r8, r9, fp}
    1e5c:	01111349 	tsteq	r1, r9, asr #6
    1e60:	18400612 	stmdane	r0, {r1, r4, r9, sl}^
    1e64:	00194297 	mulseq	r9, r7, r2
    1e68:	00050a00 	andeq	r0, r5, r0, lsl #20
    1e6c:	0b3a0803 	bleq	e83e80 <__bss_end__+0xe78b28>
    1e70:	0b390b3b 	bleq	e44b64 <__bss_end__+0xe3980c>
    1e74:	17021349 	strne	r1, [r2, -r9, asr #6]
    1e78:	001742b7 			; <UNDEFINED> instruction: 0x001742b7
    1e7c:	11010000 	mrsne	r0, (UNDEF: 1)
    1e80:	130e2501 	movwne	r2, #58625	; 0xe501
    1e84:	1b0e030b 	blne	382ab8 <__bss_end__+0x377760>
    1e88:	1201110e 	andne	r1, r1, #-2147483645	; 0x80000003
    1e8c:	00171006 	andseq	r1, r7, r6
    1e90:	00240200 	eoreq	r0, r4, r0, lsl #4
    1e94:	0b3e0b0b 	bleq	f84ac8 <__bss_end__+0xf79770>
    1e98:	00000803 	andeq	r0, r0, r3, lsl #16
    1e9c:	0b002403 	bleq	aeb0 <__FUNCTION__.7>
    1ea0:	030b3e0b 	movweq	r3, #48651	; 0xbe0b
    1ea4:	0400000e 	streq	r0, [r0], #-14
    1ea8:	19270115 	stmdbne	r7!, {r0, r2, r4, r8}
    1eac:	13011349 	movwne	r1, #4937	; 0x1349
    1eb0:	05050000 	streq	r0, [r5, #-0]
    1eb4:	00134900 	andseq	r4, r3, r0, lsl #18
    1eb8:	00340600 	eorseq	r0, r4, r0, lsl #12
    1ebc:	0b3a0e03 	bleq	e856d0 <__bss_end__+0xe7a378>
    1ec0:	0b390b3b 	bleq	e44bb4 <__bss_end__+0xe3985c>
    1ec4:	193f1349 	ldmdbne	pc!, {r0, r3, r6, r8, r9, ip}	; <UNPREDICTABLE>
    1ec8:	0000193c 	andeq	r1, r0, ip, lsr r9
    1ecc:	0b000f07 	bleq	5af0 <__code_start__-0x2510>
    1ed0:	0013490b 	andseq	r4, r3, fp, lsl #18
    1ed4:	00260800 	eoreq	r0, r6, r0, lsl #16
    1ed8:	00001349 	andeq	r1, r0, r9, asr #6
    1edc:	3f012e09 	svccc	0x00012e09
    1ee0:	3a0e0319 	bcc	382b4c <__bss_end__+0x3777f4>
    1ee4:	390b3b0b 	stmdbcc	fp, {r0, r1, r3, r8, r9, fp, ip, sp}
    1ee8:	4919270b 	ldmdbmi	r9, {r0, r1, r3, r8, r9, sl, sp}
    1eec:	12011113 	andne	r1, r1, #-1073741820	; 0xc0000004
    1ef0:	97184006 	ldrls	r4, [r8, -r6]
    1ef4:	13011942 	movwne	r1, #6466	; 0x1942
    1ef8:	050a0000 	streq	r0, [sl, #-0]
    1efc:	3a080300 	bcc	202b04 <__bss_end__+0x1f77ac>
    1f00:	390b3b0b 	stmdbcc	fp, {r0, r1, r3, r8, r9, fp, ip, sp}
    1f04:	0213490b 	andseq	r4, r3, #180224	; 0x2c000
    1f08:	0b000018 	bleq	1f70 <__code_start__-0x6090>
    1f0c:	08030005 	stmdaeq	r3, {r0, r2}
    1f10:	0b3b0b3a 	bleq	ec4c00 <__bss_end__+0xeb98a8>
    1f14:	13490b39 	movtne	r0, #39737	; 0x9b39
    1f18:	42b71702 	adcsmi	r1, r7, #524288	; 0x80000
    1f1c:	0c000017 	stceq	0, cr0, [r0], {23}
    1f20:	08030034 	stmdaeq	r3, {r2, r4, r5}
    1f24:	0b3b0b3a 	bleq	ec4c14 <__bss_end__+0xeb98bc>
    1f28:	13490b39 	movtne	r0, #39737	; 0x9b39
    1f2c:	42b71702 	adcsmi	r1, r7, #524288	; 0x80000
    1f30:	00000017 	andeq	r0, r0, r7, lsl r0
    1f34:	25011101 	strcs	r1, [r1, #-257]	; 0xfffffeff
    1f38:	030b130e 	movweq	r1, #45838	; 0xb30e
    1f3c:	110e1b0e 	tstne	lr, lr, lsl #22
    1f40:	10061201 	andne	r1, r6, r1, lsl #4
    1f44:	02000017 	andeq	r0, r0, #23, 0
    1f48:	0b0b0024 	bleq	2c1fe0 <__bss_end__+0x2b6c88>
    1f4c:	08030b3e 	stmdaeq	r3, {r1, r2, r3, r4, r5, r8, r9, fp}
    1f50:	16030000 	strne	r0, [r3], -r0
    1f54:	3a0e0300 	bcc	382b5c <__bss_end__+0x377804>
    1f58:	390b3b0b 	stmdbcc	fp, {r0, r1, r3, r8, r9, fp, ip, sp}
    1f5c:	0013490b 	andseq	r4, r3, fp, lsl #18
    1f60:	00240400 	eoreq	r0, r4, r0, lsl #8
    1f64:	0b3e0b0b 	bleq	f84b98 <__bss_end__+0xf79840>
    1f68:	00000e03 	andeq	r0, r0, r3, lsl #28
    1f6c:	49002605 	stmdbmi	r0, {r0, r2, r9, sl, sp}
    1f70:	06000013 			; <UNDEFINED> instruction: 0x06000013
    1f74:	19270115 	stmdbne	r7!, {r0, r2, r4, r8}
    1f78:	13011349 	movwne	r1, #4937	; 0x1349
    1f7c:	05070000 	streq	r0, [r7, #-0]
    1f80:	00134900 	andseq	r4, r3, r0, lsl #18
    1f84:	00340800 	eorseq	r0, r4, r0, lsl #16
    1f88:	0b3a0e03 	bleq	e8579c <__bss_end__+0xe7a444>
    1f8c:	0b390b3b 	bleq	e44c80 <__bss_end__+0xe39928>
    1f90:	193f1349 	ldmdbne	pc!, {r0, r3, r6, r8, r9, ip}	; <UNPREDICTABLE>
    1f94:	0000193c 	andeq	r1, r0, ip, lsr r9
    1f98:	0b000f09 	bleq	5bc4 <__code_start__-0x243c>
    1f9c:	0013490b 	andseq	r4, r3, fp, lsl #18
    1fa0:	012e0a00 			; <UNDEFINED> instruction: 0x012e0a00
    1fa4:	0e03193f 			; <UNDEFINED> instruction: 0x0e03193f
    1fa8:	0b3b0b3a 	bleq	ec4c98 <__bss_end__+0xeb9940>
    1fac:	19270b39 	stmdbne	r7!, {r0, r3, r4, r5, r8, r9, fp}
    1fb0:	01111349 	tsteq	r1, r9, asr #6
    1fb4:	18400612 	stmdane	r0, {r1, r4, r9, sl}^
    1fb8:	01194297 			; <UNDEFINED> instruction: 0x01194297
    1fbc:	0b000013 	bleq	2010 <__code_start__-0x5ff0>
    1fc0:	08030005 	stmdaeq	r3, {r0, r2}
    1fc4:	0b3b0b3a 	bleq	ec4cb4 <__bss_end__+0xeb995c>
    1fc8:	13490b39 	movtne	r0, #39737	; 0x9b39
    1fcc:	42b71702 	adcsmi	r1, r7, #524288	; 0x80000
    1fd0:	0c000017 	stceq	0, cr0, [r0], {23}
    1fd4:	08030034 	stmdaeq	r3, {r2, r4, r5}
    1fd8:	0b3b0b3a 	bleq	ec4cc8 <__bss_end__+0xeb9970>
    1fdc:	13490b39 	movtne	r0, #39737	; 0x9b39
    1fe0:	42b71702 	adcsmi	r1, r7, #524288	; 0x80000
    1fe4:	00000017 	andeq	r0, r0, r7, lsl r0
    1fe8:	25011101 	strcs	r1, [r1, #-257]	; 0xfffffeff
    1fec:	030b130e 	movweq	r1, #45838	; 0xb30e
    1ff0:	110e1b0e 	tstne	lr, lr, lsl #22
    1ff4:	10061201 	andne	r1, r6, r1, lsl #4
    1ff8:	02000017 	andeq	r0, r0, #23, 0
    1ffc:	0b0b0024 	bleq	2c2094 <__bss_end__+0x2b6d3c>
    2000:	08030b3e 	stmdaeq	r3, {r1, r2, r3, r4, r5, r8, r9, fp}
    2004:	24030000 	strcs	r0, [r3], #-0
    2008:	3e0b0b00 	vmlacc.f64	d0, d11, d0
    200c:	000e030b 	andeq	r0, lr, fp, lsl #6
    2010:	01150400 	tsteq	r5, r0, lsl #8
    2014:	13491927 	movtne	r1, #39207	; 0x9927
    2018:	00001301 	andeq	r1, r0, r1, lsl #6
    201c:	49000505 	stmdbmi	r0, {r0, r2, r8, sl}
    2020:	06000013 			; <UNDEFINED> instruction: 0x06000013
    2024:	0e030034 	mcreq	0, 0, r0, cr3, cr4, {1}
    2028:	0b3b0b3a 	bleq	ec4d18 <__bss_end__+0xeb99c0>
    202c:	13490b39 	movtne	r0, #39737	; 0x9b39
    2030:	193c193f 	ldmdbne	ip!, {r0, r1, r2, r3, r4, r5, r8, fp, ip}
    2034:	0f070000 	svceq	0x00070000
    2038:	490b0b00 	stmdbmi	fp, {r8, r9, fp}
    203c:	08000013 	stmdaeq	r0, {r0, r1, r4}
    2040:	13490026 	movtne	r0, #36902	; 0x9026
    2044:	2e090000 	cdpcs	0, 0, cr0, cr9, cr0, {0}
    2048:	03193f00 	tsteq	r9, #0, 30
    204c:	3b0b3a0e 	blcc	2d088c <__bss_end__+0x2c5534>
    2050:	270b390b 	strcs	r3, [fp, -fp, lsl #18]
    2054:	12011119 	andne	r1, r1, #1073741830	; 0x40000006
    2058:	97184006 	ldrls	r4, [r8, -r6]
    205c:	00001942 	andeq	r1, r0, r2, asr #18
	...

Disassembly of section .debug_loc:

00000000 <.debug_loc>:
       0:	00000000 	andeq	r0, r0, r0
       4:	00000074 	andeq	r0, r0, r4, ror r0
       8:	00000077 	andeq	r0, r0, r7, ror r0
       c:	77500001 	ldrbvc	r0, [r0, -r1]
      10:	04000000 	streq	r0, [r0], #-0
      14:	01000001 	tsteq	r0, r1
      18:	00005400 	andeq	r5, r0, r0, lsl #8
      1c:	00000000 	andeq	r0, r0, r0
      20:	00010000 	andeq	r0, r1, r0
      24:	00000048 	andeq	r0, r0, r8, asr #32
      28:	00000060 	andeq	r0, r0, r0, rrx
      2c:	9f3b0002 	svcls	0x003b0002
	...
      38:	00480001 	subeq	r0, r8, r1
      3c:	00600000 	rsbeq	r0, r0, r0
      40:	00060000 	andeq	r0, r6, r0
      44:	00040ef2 	strdeq	r0, [r4], -r2
	...
      50:	00010000 	andeq	r0, r1, r0
      54:	00000048 	andeq	r0, r0, r8, asr #32
      58:	00000060 	andeq	r0, r0, r0, rrx
      5c:	28030006 	stmdacs	r3, {r1, r2}
      60:	9f0000a6 	svcls	0x000000a6
	...
      6c:	00980001 	addseq	r0, r8, r1
      70:	00a80000 	adceq	r0, r8, r0
      74:	00020000 	andeq	r0, r2, r0
      78:	00009f3e 	andeq	r9, r0, lr, lsr pc
      7c:	00000000 	andeq	r0, r0, r0
      80:	00010000 	andeq	r0, r1, r0
      84:	00000098 	muleq	r0, r8, r0
      88:	000000a8 	andeq	r0, r0, r8, lsr #1
      8c:	0ef20006 	cdpeq	0, 15, cr0, cr2, cr6, {0}
      90:	00000004 	andeq	r0, r0, r4
	...
      9c:	00980001 	addseq	r0, r8, r1
      a0:	00a80000 	adceq	r0, r8, r0
      a4:	00060000 	andeq	r0, r6, r0
      a8:	00a62803 	adceq	r2, r6, r3, lsl #16
      ac:	00009f00 	andeq	r9, r0, r0, lsl #30
	...
      b8:	00100000 	andseq	r0, r0, r0
      bc:	00200000 	eoreq	r0, r0, r0
      c0:	00010000 	andeq	r0, r1, r0
      c4:	00002050 	andeq	r2, r0, r0, asr r0
      c8:	00002400 	andeq	r2, r0, r0, lsl #8
      cc:	f3000400 	vshl.u8	d0, d0, d0
      d0:	009f5001 	addseq	r5, pc, r1
      d4:	00000000 	andeq	r0, r0, r0
      d8:	01000000 	mrseq	r0, (UNDEF: 0)
      dc:	1c000000 	stcne	0, cr0, [r0], {-0}
      e0:	20000000 	andcs	r0, r0, r0
      e4:	01000000 	mrseq	r0, (UNDEF: 0)
      e8:	00205000 	eoreq	r5, r0, r0
      ec:	00240000 	eoreq	r0, r4, r0
      f0:	00040000 	andeq	r0, r4, r0
      f4:	9f5001f3 	svcls	0x005001f3
	...
     104:	03440000 	movteq	r0, #16384	; 0x4000
     108:	035c0000 	cmpeq	ip, #0, 0
     10c:	00010000 	andeq	r0, r1, r0
     110:	00035c50 	andeq	r5, r3, r0, asr ip
     114:	00042800 	andeq	r2, r4, r0, lsl #16
     118:	55000100 	strpl	r0, [r0, #-256]	; 0xffffff00
     11c:	00000428 	andeq	r0, r0, r8, lsr #8
     120:	00000434 	andeq	r0, r0, r4, lsr r4
     124:	01f30004 	mvnseq	r0, r4
     128:	00009f50 	andeq	r9, r0, r0, asr pc
	...
     138:	0000036c 	andeq	r0, r0, ip, ror #6
     13c:	00000377 	andeq	r0, r0, r7, ror r3
     140:	77500001 	ldrbvc	r0, [r0, -r1]
     144:	28000003 	stmdacs	r0, {r0, r1}
     148:	01000004 	tsteq	r0, r4
     14c:	04285400 	strteq	r5, [r8], #-1024	; 0xfffffc00
     150:	04340000 	ldrteq	r0, [r4], #-0
     154:	00040000 	andeq	r0, r4, r0
     158:	9f7ecc70 	svcls	0x007ecc70
	...
     164:	00000003 	andeq	r0, r0, r3
     168:	000003e8 	andeq	r0, r0, r8, ror #7
     16c:	00000428 	andeq	r0, r0, r8, lsr #8
     170:	28570001 	ldmdacs	r7, {r0}^
     174:	34000004 	strcc	r0, [r0], #-4
     178:	01000004 	tsteq	r0, r4
     17c:	00005000 	andeq	r5, r0, r0
     180:	00000000 	andeq	r0, r0, r0
     184:	00020000 	andeq	r0, r2, r0
     188:	03780000 	cmneq	r8, #0, 0
     18c:	037c0000 	cmneq	ip, #0, 0
     190:	00020000 	andeq	r0, r2, r0
     194:	037c9f30 	cmneq	ip, #48, 30	; 0xc0
     198:	03ac0000 			; <UNDEFINED> instruction: 0x03ac0000
     19c:	00010000 	andeq	r0, r1, r0
     1a0:	00000053 	andeq	r0, r0, r3, asr r0
     1a4:	00000000 	andeq	r0, r0, r0
     1a8:	00000500 	andeq	r0, r0, r0, lsl #10
     1ac:	0003e800 	andeq	lr, r3, r0, lsl #16
     1b0:	0003ec00 	andeq	lr, r3, r0, lsl #24
     1b4:	30000200 	andcc	r0, r0, r0, lsl #4
     1b8:	0003ec9f 	muleq	r3, pc, ip	; <UNPREDICTABLE>
     1bc:	00042800 	andeq	r2, r4, r0, lsl #16
     1c0:	56000100 	strpl	r0, [r0], -r0, lsl #2
	...
     1cc:	04000000 	streq	r0, [r0], #-0
     1d0:	040c0000 	streq	r0, [ip], #-0
     1d4:	00010000 	andeq	r0, r1, r0
     1d8:	00000050 	andeq	r0, r0, r0, asr r0
	...
     1ec:	00011400 	andeq	r1, r1, r0, lsl #8
     1f0:	00013c00 	andeq	r3, r1, r0, lsl #24
     1f4:	50000100 	andpl	r0, r0, r0, lsl #2
     1f8:	0000013c 	andeq	r0, r0, ip, lsr r1
     1fc:	00000144 	andeq	r0, r0, r4, asr #2
     200:	01f30004 	mvnseq	r0, r4
     204:	01449f50 	cmpeq	r4, r0, asr pc
     208:	01480000 	mrseq	r0, (UNDEF: 72)
     20c:	00010000 	andeq	r0, r1, r0
     210:	00014850 	andeq	r4, r1, r0, asr r8
     214:	00014c00 	andeq	r4, r1, r0, lsl #24
     218:	f3000400 	vshl.u8	d0, d0, d0
     21c:	4c9f5001 	ldcmi	0, cr5, [pc], {1}
     220:	50000001 	andpl	r0, r0, r1
     224:	01000001 	tsteq	r0, r1
     228:	01505000 	cmpeq	r0, r0
     22c:	01580000 	cmpeq	r8, r0
     230:	00040000 	andeq	r0, r4, r0
     234:	9f5001f3 	svcls	0x005001f3
	...
     240:	01380001 	teqeq	r8, r1
     244:	01440000 	mrseq	r0, (UNDEF: 68)
     248:	00040000 	andeq	r0, r4, r0
     24c:	9f244a40 	svcls	0x00244a40
	...
     25c:	0000019c 	muleq	r0, ip, r1
     260:	000001b4 			; <UNDEFINED> instruction: 0x000001b4
     264:	b4500001 	ldrblt	r0, [r0], #-1
     268:	38000001 	stmdacc	r0, {r0}
     26c:	01000003 	tsteq	r0, r3
     270:	00005400 	andeq	r5, r0, r0, lsl #8
     274:	00000000 	andeq	r0, r0, r0
     278:	02010000 	andeq	r0, r1, #0, 0
     27c:	01b80002 			; <UNDEFINED> instruction: 0x01b80002
     280:	01b80000 			; <UNDEFINED> instruction: 0x01b80000
     284:	00010000 	andeq	r0, r1, r0
     288:	0001b854 	andeq	fp, r1, r4, asr r8
     28c:	00033800 	andeq	r3, r3, r0, lsl #16
     290:	74000400 	strvc	r0, [r0], #-1024	; 0xfffffc00
     294:	009f7ecc 	addseq	r7, pc, ip, asr #29
	...
     2a8:	34000002 	strcc	r0, [r0], #-2
     2ac:	01000002 	tsteq	r0, r2
     2b0:	025c5300 	subseq	r5, ip, #0, 6
     2b4:	025f0000 	subseq	r0, pc, #0, 0
     2b8:	00010000 	andeq	r0, r1, r0
     2bc:	00028053 	andeq	r8, r2, r3, asr r0
     2c0:	00028300 	andeq	r8, r2, r0, lsl #6
     2c4:	53000100 	movwpl	r0, #256	; 0x100
     2c8:	000002a4 	andeq	r0, r0, r4, lsr #5
     2cc:	000002a8 	andeq	r0, r0, r8, lsr #5
     2d0:	00530001 	subseq	r0, r3, r1
	...
     2dc:	0002a800 	andeq	sl, r2, r0, lsl #16
     2e0:	0002c400 	andeq	ip, r2, r0, lsl #8
     2e4:	53000100 	movwpl	r0, #256	; 0x100
	...
     2f4:	00000170 	andeq	r0, r0, r0, ror r1
     2f8:	0000017f 	andeq	r0, r0, pc, ror r1
     2fc:	7f500001 	svcvc	0x00500001
     300:	90000001 	andls	r0, r0, r1
     304:	04000001 	streq	r0, [r0], #-1
     308:	5001f300 	andpl	pc, r1, r0, lsl #6
     30c:	0000009f 	muleq	r0, pc, r0	; <UNPREDICTABLE>
     310:	00000000 	andeq	r0, r0, r0
     314:	80000000 	andhi	r0, r0, r0
     318:	8c000001 	stchi	0, cr0, [r0], {1}
     31c:	01000001 	tsteq	r0, r1
     320:	00005000 	andeq	r5, r0, r0
	...
     32c:	00c80000 	sbceq	r0, r8, r0
     330:	00df0000 	sbcseq	r0, pc, r0
     334:	00010000 	andeq	r0, r1, r0
     338:	0000df50 	andeq	sp, r0, r0, asr pc
     33c:	00010000 	andeq	r0, r1, r0
     340:	56000100 	strpl	r0, [r0], -r0, lsl #2
	...
     350:	000000c8 	andeq	r0, r0, r8, asr #1
     354:	000000df 	ldrdeq	r0, [r0], -pc	; <UNPREDICTABLE>
     358:	df510001 	svcle	0x00510001
     35c:	00000000 	andeq	r0, r0, r0
     360:	01000001 	tsteq	r0, r1
     364:	00005400 	andeq	r5, r0, r0, lsl #8
	...
     370:	00e40000 	rsceq	r0, r4, r0
     374:	00e80000 	rsceq	r0, r8, r0
     378:	00010000 	andeq	r0, r1, r0
     37c:	0000e850 	andeq	lr, r0, r0, asr r8
     380:	00010000 	andeq	r0, r1, r0
     384:	55000100 	strpl	r0, [r0, #-256]	; 0xffffff00
	...
     390:	00ec0000 	rsceq	r0, ip, r0
     394:	00f80000 	rscseq	r0, r8, r0
     398:	00010000 	andeq	r0, r1, r0
     39c:	00000050 	andeq	r0, r0, r0, asr r0
	...
     3a8:	00009400 	andeq	r9, r0, r0, lsl #8
     3ac:	0000a700 	andeq	sl, r0, r0, lsl #14
     3b0:	50000100 	andpl	r0, r0, r0, lsl #2
     3b4:	000000a7 	andeq	r0, r0, r7, lsr #1
     3b8:	000000b4 	strheq	r0, [r0], -r4
     3bc:	00540001 	subseq	r0, r4, r1
	...
     3c8:	0000a800 	andeq	sl, r0, r0, lsl #16
     3cc:	0000ac00 	andeq	sl, r0, r0, lsl #24
     3d0:	54000100 	strpl	r0, [r0], #-256	; 0xffffff00
	...
     3e0:	00000070 	andeq	r0, r0, r0, ror r0
     3e4:	00000080 	andeq	r0, r0, r0, lsl #1
     3e8:	80500001 	subshi	r0, r0, r1
     3ec:	84000000 	strhi	r0, [r0], #-0
     3f0:	04000000 	streq	r0, [r0], #-0
     3f4:	7ecc7000 	cdpvc	0, 12, cr7, cr12, cr0, {0}
     3f8:	0000009f 	muleq	r0, pc, r0	; <UNPREDICTABLE>
	...
     404:	00004000 	andeq	r4, r0, r0
     408:	00005800 	andeq	r5, r0, r0, lsl #16
     40c:	50000100 	andpl	r0, r0, r0, lsl #2
     410:	00000058 	andeq	r0, r0, r8, asr r0
     414:	0000005c 	andeq	r0, r0, ip, asr r0
     418:	01f30004 	mvnseq	r0, r4
     41c:	00009f50 	andeq	r9, r0, r0, asr pc
	...
     42c:	001c0000 	andseq	r0, ip, r0
     430:	008c0000 	addeq	r0, ip, r0
     434:	00010000 	andeq	r0, r1, r0
     438:	00008c51 	andeq	r8, r0, r1, asr ip
     43c:	00009800 	andeq	r9, r0, r0, lsl #16
     440:	70000300 	andvc	r0, r0, r0, lsl #6
     444:	00989f78 	addseq	r9, r8, r8, ror pc
     448:	00b80000 	adcseq	r0, r8, r0
     44c:	00010000 	andeq	r0, r1, r0
     450:	0000b851 	andeq	fp, r0, r1, asr r8
     454:	0000d000 	andeq	sp, r0, r0
     458:	70000300 	andvc	r0, r0, r0, lsl #6
     45c:	00009f78 	andeq	r9, r0, r8, ror pc
	...
     468:	00240000 	eoreq	r0, r4, r0
     46c:	005c0000 	subseq	r0, ip, r0
     470:	00010000 	andeq	r0, r1, r0
     474:	00006053 	andeq	r6, r0, r3, asr r0
     478:	0000d000 	andeq	sp, r0, r0
     47c:	53000100 	movwpl	r0, #256	; 0x100
	...
     490:	0000014c 	andeq	r0, r0, ip, asr #2
     494:	00000178 	andeq	r0, r0, r8, ror r1
     498:	78500001 	ldmdavc	r0, {r0}^
     49c:	7c000001 	stcvc	0, cr0, [r0], {1}
     4a0:	04000001 	streq	r0, [r0], #-1
     4a4:	5001f300 	andpl	pc, r1, r0, lsl #6
     4a8:	00017c9f 	muleq	r1, pc, ip	; <UNPREDICTABLE>
     4ac:	00019400 	andeq	r9, r1, r0, lsl #8
     4b0:	50000100 	andpl	r0, r0, r0, lsl #2
     4b4:	00000194 	muleq	r0, r4, r1
     4b8:	00000200 	andeq	r0, r0, r0, lsl #4
     4bc:	01f30004 	mvnseq	r0, r4
     4c0:	00009f50 	andeq	r9, r0, r0, asr pc
	...
     4d0:	00010100 	andeq	r0, r1, r0, lsl #2
     4d4:	00000000 	andeq	r0, r0, r0
     4d8:	00000178 	andeq	r0, r0, r8, ror r1
     4dc:	0000017c 	andeq	r0, r0, ip, ror r1
     4e0:	94500001 	ldrbls	r0, [r0], #-1
     4e4:	b4000001 	strlt	r0, [r0], #-1
     4e8:	01000001 	tsteq	r0, r1
     4ec:	01b45000 			; <UNDEFINED> instruction: 0x01b45000
     4f0:	01b80000 			; <UNDEFINED> instruction: 0x01b80000
     4f4:	00030000 	andeq	r0, r3, r0
     4f8:	b89f7870 	ldmlt	pc, {r4, r5, r6, fp, ip, sp, lr}	; <UNPREDICTABLE>
     4fc:	c4000001 	strgt	r0, [r0], #-1
     500:	01000001 	tsteq	r0, r1
     504:	01c45000 	biceq	r5, r4, r0
     508:	01cc0000 	biceq	r0, ip, r0
     50c:	00020000 	andeq	r0, r2, r0
     510:	01cc0070 	biceq	r0, ip, r0, ror r0
     514:	01ec0000 	mvneq	r0, r0
     518:	00010000 	andeq	r0, r1, r0
     51c:	0001f050 	andeq	pc, r1, r0, asr r0	; <UNPREDICTABLE>
     520:	00020000 	andeq	r0, r2, r0
     524:	50000100 	andpl	r0, r0, r0, lsl #2
	...
     530:	00010100 	andeq	r0, r1, r0, lsl #2
     534:	00010000 	andeq	r0, r1, r0
     538:	016c0000 	cmneq	ip, r0
     53c:	017c0000 	cmneq	ip, r0
     540:	00010000 	andeq	r0, r1, r0
     544:	00017c52 	andeq	r7, r1, r2, asr ip
     548:	00019400 	andeq	r9, r1, r0, lsl #8
     54c:	03000600 	movweq	r0, #1536	; 0x600
     550:	0000af38 	andeq	sl, r0, r8, lsr pc
     554:	0001949f 	muleq	r1, pc, r4	; <UNPREDICTABLE>
     558:	0001c400 	andeq	ip, r1, r0, lsl #8
     55c:	52000100 	andpl	r0, r0, #0
     560:	000001c4 	andeq	r0, r0, r4, asr #3
     564:	000001cc 	andeq	r0, r0, ip, asr #3
     568:	cc500001 	mrrcgt	0, 0, r0, r0, cr1	; <UNPREDICTABLE>
     56c:	ef000001 	svc	0x00000001
     570:	01000001 	tsteq	r0, r1
     574:	00005200 	andeq	r5, r0, r0, lsl #4
	...
     580:	00000164 	andeq	r0, r0, r4, ror #2
     584:	00000200 	andeq	r0, r0, r0, lsl #4
     588:	00540001 	subseq	r0, r4, r1
	...
     594:	e0000000 	and	r0, r0, r0
     598:	f8000000 			; <UNDEFINED> instruction: 0xf8000000
     59c:	01000000 	mrseq	r0, (UNDEF: 0)
     5a0:	00f85000 	rscseq	r5, r8, r0
     5a4:	013c0000 	teqeq	ip, r0
     5a8:	00010000 	andeq	r0, r1, r0
     5ac:	00000054 	andeq	r0, r0, r4, asr r0
	...
     5b8:	0c000000 	stceq	0, cr0, [r0], {-0}
     5bc:	1c000001 	stcne	0, cr0, [r0], {1}
     5c0:	01000001 	tsteq	r0, r1
     5c4:	011c5000 	tsteq	ip, r0
     5c8:	011f0000 	tsteq	pc, r0
     5cc:	00030000 	andeq	r0, r3, r0
     5d0:	2c9f7870 	ldccs	8, cr7, [pc], {112}	; 0x70
     5d4:	30000001 	andcc	r0, r0, r1
     5d8:	01000001 	tsteq	r0, r1
     5dc:	00005000 	andeq	r5, r0, r0
     5e0:	00000000 	andeq	r0, r0, r0
     5e4:	00010000 	andeq	r0, r1, r0
     5e8:	01140000 	tsteq	r4, r0
     5ec:	011c0000 	tsteq	ip, r0
     5f0:	00010000 	andeq	r0, r1, r0
     5f4:	00011c50 	andeq	r1, r1, r0, asr ip
     5f8:	00011f00 	andeq	r1, r1, r0, lsl #30
     5fc:	70000300 	andvc	r0, r0, r0, lsl #6
     600:	00009f78 	andeq	r9, r0, r8, ror pc
	...
     60c:	000007b8 			; <UNDEFINED> instruction: 0x000007b8
     610:	000007bc 			; <UNDEFINED> instruction: 0x000007bc
     614:	00500001 	subseq	r0, r0, r1
     618:	00000000 	andeq	r0, r0, r0
     61c:	01000000 	mrseq	r0, (UNDEF: 0)
     620:	d8000000 	stmdale	r0, {}	; <UNPREDICTABLE>
     624:	04000003 	streq	r0, [r0], #-3
     628:	02000004 	andeq	r0, r0, #4, 0
     62c:	049f3000 	ldreq	r3, [pc], #0	; 634 <__code_start__-0x79cc>
     630:	90000004 	andls	r0, r0, r4
     634:	01000004 	tsteq	r0, r4
     638:	00005500 	andeq	r5, r0, r0, lsl #10
     63c:	00000000 	andeq	r0, r0, r0
     640:	00010000 	andeq	r0, r1, r0
     644:	03d80000 	bicseq	r0, r8, #0, 0
     648:	04040000 	streq	r0, [r4], #-0
     64c:	00020000 	andeq	r0, r2, r0
     650:	04049f30 	streq	r9, [r4], #-3888	; 0xfffff0d0
     654:	04900000 	ldreq	r0, [r0], #0
     658:	00010000 	andeq	r0, r1, r0
     65c:	00000058 	andeq	r0, r0, r8, asr r0
     660:	00000000 	andeq	r0, r0, r0
     664:	00000100 	andeq	r0, r0, r0, lsl #2
     668:	d8000000 	stmdale	r0, {}	; <UNPREDICTABLE>
     66c:	04000003 	streq	r0, [r0], #-3
     670:	02000004 	andeq	r0, r0, #4, 0
     674:	049f3000 	ldreq	r3, [pc], #0	; 67c <__code_start__-0x7984>
     678:	90000004 	andls	r0, r0, r4
     67c:	01000004 	tsteq	r0, r4
     680:	04905700 	ldreq	r5, [r0], #1792	; 0x700
     684:	04ac0000 	strteq	r0, [ip], #0
     688:	00010000 	andeq	r0, r1, r0
     68c:	00000050 	andeq	r0, r0, r0, asr r0
	...
     69c:	0003f400 	andeq	pc, r3, r0, lsl #8
     6a0:	00043800 	andeq	r3, r4, r0, lsl #16
     6a4:	50000100 	andpl	r0, r0, r0, lsl #2
     6a8:	00000438 	andeq	r0, r0, r8, lsr r4
     6ac:	00000454 	andeq	r0, r0, r4, asr r4
     6b0:	54540001 	ldrbpl	r0, [r4], #-1
     6b4:	80000004 	andhi	r0, r0, r4
     6b8:	01000004 	tsteq	r0, r4
     6bc:	04805000 	streq	r5, [r0], #0
     6c0:	04900000 	ldreq	r0, [r0], #0
     6c4:	00010000 	andeq	r0, r1, r0
     6c8:	00000054 	andeq	r0, r0, r4, asr r0
     6cc:	00000000 	andeq	r0, r0, r0
     6d0:	14000000 	strne	r0, [r0], #-0
     6d4:	2c000004 	stccs	0, cr0, [r0], {4}
     6d8:	04000004 	streq	r0, [r0], #-4
     6dc:	011e0a00 	tsteq	lr, r0, lsl #20
     6e0:	0000009f 	muleq	r0, pc, r0	; <UNPREDICTABLE>
     6e4:	00000000 	andeq	r0, r0, r0
     6e8:	14000000 	strne	r0, [r0], #-0
     6ec:	2c000004 	stccs	0, cr0, [r0], {4}
     6f0:	06000004 	streq	r0, [r0], -r4
     6f4:	1e16f200 	cdpne	2, 1, cr15, cr6, cr0, {0}
	...
     704:	00041400 	andeq	r1, r4, r0, lsl #8
     708:	00042c00 	andeq	r2, r4, r0, lsl #24
     70c:	03000600 	movweq	r0, #1536	; 0x600
     710:	0000a7c8 	andeq	sl, r0, r8, asr #15
     714:	0000009f 	muleq	r0, pc, r0	; <UNPREDICTABLE>
	...
     720:	54000000 	strpl	r0, [r0], #-0
     724:	64000007 	strvs	r0, [r0], #-7
     728:	01000007 	tsteq	r0, r7
     72c:	07645000 	strbeq	r5, [r4, -r0]!
     730:	07670000 	strbeq	r0, [r7, -r0]!
     734:	00010000 	andeq	r0, r1, r0
     738:	00076751 	andeq	r6, r7, r1, asr r7
     73c:	00079800 	andeq	r9, r7, r0, lsl #16
     740:	54000100 	strpl	r0, [r0], #-256	; 0xffffff00
	...
     750:	000006b0 			; <UNDEFINED> instruction: 0x000006b0
     754:	000006bf 			; <UNDEFINED> instruction: 0x000006bf
     758:	bf500001 	svclt	0x00500001
     75c:	c4000006 	strgt	r0, [r0], #-6
     760:	04000006 	streq	r0, [r0], #-6
     764:	5001f300 	andpl	pc, r1, r0, lsl #6
     768:	0000009f 	muleq	r0, pc, r0	; <UNPREDICTABLE>
	...
     774:	0002bc00 	andeq	fp, r2, r0, lsl #24
     778:	0002d000 	andeq	sp, r2, r0
     77c:	50000100 	andpl	r0, r0, r0, lsl #2
     780:	000002d0 	ldrdeq	r0, [r0], -r0	; <UNPREDICTABLE>
     784:	000003b8 			; <UNDEFINED> instruction: 0x000003b8
     788:	00570001 	subseq	r0, r7, r1
     78c:	00000000 	andeq	r0, r0, r0
     790:	01000000 	mrseq	r0, (UNDEF: 0)
     794:	cc000000 	stcgt	0, cr0, [r0], {-0}
     798:	f8000002 			; <UNDEFINED> instruction: 0xf8000002
     79c:	02000002 	andeq	r0, r0, #2, 0
     7a0:	f89f3000 			; <UNDEFINED> instruction: 0xf89f3000
     7a4:	b8000002 	stmdalt	r0, {r1}
     7a8:	01000003 	tsteq	r0, r3
     7ac:	00005500 	andeq	r5, r0, r0, lsl #10
     7b0:	00000000 	andeq	r0, r0, r0
     7b4:	00010000 	andeq	r0, r1, r0
     7b8:	00000000 	andeq	r0, r0, r0
     7bc:	000002cc 	andeq	r0, r0, ip, asr #5
     7c0:	000002f8 	strdeq	r0, [r0], -r8
     7c4:	9f300002 	svcls	0x00300002
     7c8:	000002f8 	strdeq	r0, [r0], -r8
     7cc:	0000037c 	andeq	r0, r0, ip, ror r3
     7d0:	84560001 	ldrbhi	r0, [r6], #-1
     7d4:	b8000003 	stmdalt	r0, {r0, r1}
     7d8:	01000003 	tsteq	r0, r3
     7dc:	00005600 	andeq	r5, r0, r0, lsl #12
     7e0:	00000000 	andeq	r0, r0, r0
     7e4:	00010000 	andeq	r0, r1, r0
     7e8:	02cc0000 	sbceq	r0, ip, #0, 0
     7ec:	02f80000 	rscseq	r0, r8, #0, 0
     7f0:	00020000 	andeq	r0, r2, r0
     7f4:	02f89f30 	rscseq	r9, r8, #48, 30	; 0xc0
     7f8:	03b80000 			; <UNDEFINED> instruction: 0x03b80000
     7fc:	00010000 	andeq	r0, r1, r0
     800:	00000058 	andeq	r0, r0, r8, asr r0
	...
     814:	e8000000 	stmda	r0, {}	; <UNPREDICTABLE>
     818:	08000002 	stmdaeq	r0, {r1}
     81c:	01000003 	tsteq	r0, r3
     820:	03085000 	movweq	r5, #32768	; 0x8000
     824:	03180000 	tsteq	r8, #0, 0
     828:	00010000 	andeq	r0, r1, r0
     82c:	00031854 	andeq	r1, r3, r4, asr r8
     830:	00034800 	andeq	r4, r3, r0, lsl #16
     834:	50000100 	andpl	r0, r0, r0, lsl #2
     838:	00000348 	andeq	r0, r0, r8, asr #6
     83c:	0000034b 	andeq	r0, r0, fp, asr #6
     840:	4b520001 	blmi	148084c <__bss_end__+0x14754f4>
     844:	50000003 	andpl	r0, r0, r3
     848:	01000003 	tsteq	r0, r3
     84c:	03505400 	cmpeq	r0, #0, 8
     850:	03580000 	cmpeq	r8, #0, 0
     854:	00010000 	andeq	r0, r1, r0
     858:	00035850 	andeq	r5, r3, r0, asr r8
     85c:	0003b800 	andeq	fp, r3, r0, lsl #16
     860:	54000100 	strpl	r0, [r0], #-256	; 0xffffff00
	...
     86c:	00000001 	andeq	r0, r0, r1
     870:	000005d4 	ldrdeq	r0, [r0], -r4
     874:	000005e4 	andeq	r0, r0, r4, ror #11
     878:	9f300002 	svcls	0x00300002
     87c:	000005e4 	andeq	r0, r0, r4, ror #11
     880:	0000069c 	muleq	r0, ip, r6
     884:	00560001 	subseq	r0, r6, r1
	...
     898:	dc000000 	stcle	0, cr0, [r0], {-0}
     89c:	e4000005 	str	r0, [r0], #-5
     8a0:	01000005 	tsteq	r0, r5
     8a4:	05e45000 	strbeq	r5, [r4, #0]!
     8a8:	06100000 	ldreq	r0, [r0], -r0
     8ac:	00010000 	andeq	r0, r1, r0
     8b0:	00061054 	andeq	r1, r6, r4, asr r0
     8b4:	00062000 	andeq	r2, r6, r0
     8b8:	50000100 	andpl	r0, r0, r0, lsl #2
     8bc:	00000620 	andeq	r0, r0, r0, lsr #12
     8c0:	00000688 	andeq	r0, r0, r8, lsl #13
     8c4:	88540001 	ldmdahi	r4, {r0}^
     8c8:	8c000006 	stchi	0, cr0, [r0], {6}
     8cc:	01000006 	tsteq	r0, r6
     8d0:	068c5000 	streq	r5, [ip], r0
     8d4:	069c0000 	ldreq	r0, [ip], r0
     8d8:	00010000 	andeq	r0, r1, r0
     8dc:	00000054 	andeq	r0, r0, r4, asr r0
     8e0:	00000000 	andeq	r0, r0, r0
     8e4:	01000000 	mrseq	r0, (UNDEF: 0)
     8e8:	00000000 	andeq	r0, r0, r0
     8ec:	0005e400 	andeq	lr, r5, r0, lsl #8
     8f0:	00061000 	andeq	r1, r6, r0
     8f4:	55000100 	strpl	r0, [r0, #-256]	; 0xffffff00
     8f8:	00000618 	andeq	r0, r0, r8, lsl r6
     8fc:	00000628 	andeq	r0, r0, r8, lsr #12
     900:	9f300002 	svcls	0x00300002
     904:	00000628 	andeq	r0, r0, r8, lsr #12
     908:	00000630 	andeq	r0, r0, r0, lsr r6
     90c:	30500001 	subscc	r0, r0, r1
     910:	88000006 	stmdahi	r0, {r1, r2}
     914:	01000006 	tsteq	r0, r6
     918:	00005500 	andeq	r5, r0, r0, lsl #10
	...
     924:	05e40000 	strbeq	r0, [r4, #0]!
     928:	05f40000 	ldrbeq	r0, [r4, #0]!
     92c:	00010000 	andeq	r0, r1, r0
     930:	00067850 	andeq	r7, r6, r0, asr r8
     934:	00068800 	andeq	r8, r6, r0, lsl #16
     938:	50000100 	andpl	r0, r0, r0, lsl #2
	...
     948:	00000578 	andeq	r0, r0, r8, ror r5
     94c:	00000590 	muleq	r0, r0, r5
     950:	90500001 	subsls	r0, r0, r1
     954:	b4000005 	strlt	r0, [r0], #-5
     958:	01000005 	tsteq	r0, r5
     95c:	00005c00 	andeq	r5, r0, r0, lsl #24
     960:	00000000 	andeq	r0, r0, r0
     964:	00010000 	andeq	r0, r1, r0
     968:	05880000 	streq	r0, [r8]
     96c:	05940000 	ldreq	r0, [r4]
     970:	00020000 	andeq	r0, r2, r0
     974:	05949f30 	ldreq	r9, [r4, #3888]	; 0xf30
     978:	05b40000 	ldreq	r0, [r4, #0]!
     97c:	00010000 	andeq	r0, r1, r0
     980:	00000050 	andeq	r0, r0, r0, asr r0
     984:	00000000 	andeq	r0, r0, r0
     988:	00000300 	andeq	r0, r0, r0, lsl #6
     98c:	00058800 	andeq	r8, r5, r0, lsl #16
     990:	00059400 	andeq	r9, r5, r0, lsl #8
     994:	30000200 	andcc	r0, r0, r0, lsl #4
     998:	0005949f 	muleq	r5, pc, r4	; <UNPREDICTABLE>
     99c:	0005b400 	andeq	fp, r5, r0, lsl #8
     9a0:	53000100 	movwpl	r0, #256	; 0x100
	...
     9b0:	00000214 	andeq	r0, r0, r4, lsl r2
     9b4:	0000022f 	andeq	r0, r0, pc, lsr #4
     9b8:	30500001 	subscc	r0, r0, r1
     9bc:	38000002 	stmdacc	r0, {r1}
     9c0:	01000002 	tsteq	r0, r2
     9c4:	00005000 	andeq	r5, r0, r0
	...
     9dc:	00000060 	andeq	r0, r0, r0, rrx
     9e0:	000000a8 	andeq	r0, r0, r8, lsr #1
     9e4:	a8500001 	ldmdage	r0, {r0}^
     9e8:	b0000000 	andlt	r0, r0, r0
     9ec:	01000000 	mrseq	r0, (UNDEF: 0)
     9f0:	00b05400 	adcseq	r5, r0, r0, lsl #8
     9f4:	00c80000 	sbceq	r0, r8, r0
     9f8:	00010000 	andeq	r0, r1, r0
     9fc:	0000c850 	andeq	ip, r0, r0, asr r8
     a00:	0000d000 	andeq	sp, r0, r0
     a04:	f3000400 	vshl.u8	d0, d0, d0
     a08:	d09f5001 	addsle	r5, pc, r1
     a0c:	e8000000 	stmda	r0, {}	; <UNPREDICTABLE>
     a10:	01000000 	mrseq	r0, (UNDEF: 0)
     a14:	00e85000 	rsceq	r5, r8, r0
     a18:	00f00000 	rscseq	r0, r0, r0
     a1c:	00010000 	andeq	r0, r1, r0
     a20:	0000f054 	andeq	pc, r0, r4, asr r0	; <UNPREDICTABLE>
     a24:	0001f000 	andeq	pc, r1, r0
     a28:	f3000400 	vshl.u8	d0, d0, d0
     a2c:	009f5001 	addseq	r5, pc, r1
	...
     a44:	00006000 	andeq	r6, r0, r0
     a48:	0000a400 	andeq	sl, r0, r0, lsl #8
     a4c:	51000100 	mrspl	r0, (UNDEF: 16)
     a50:	000000a4 	andeq	r0, r0, r4, lsr #1
     a54:	000000b0 	strheq	r0, [r0], -r0	; <UNPREDICTABLE>
     a58:	b0570001 	subslt	r0, r7, r1
     a5c:	c4000000 	strgt	r0, [r0], #-0
     a60:	01000000 	mrseq	r0, (UNDEF: 0)
     a64:	00c45100 	sbceq	r5, r4, r0, lsl #2
     a68:	00d00000 	sbcseq	r0, r0, r0
     a6c:	00040000 	andeq	r0, r4, r0
     a70:	9f5101f3 	svcls	0x005101f3
     a74:	000000d0 	ldrdeq	r0, [r0], -r0	; <UNPREDICTABLE>
     a78:	000000e4 	andeq	r0, r0, r4, ror #1
     a7c:	e4510001 	ldrb	r0, [r1], #-1
     a80:	cc000000 	stcgt	0, cr0, [r0], {-0}
     a84:	01000001 	tsteq	r0, r1
     a88:	01cc5700 	biceq	r5, ip, r0, lsl #14
     a8c:	01f00000 	mvnseq	r0, r0
     a90:	00040000 	andeq	r0, r4, r0
     a94:	9f5101f3 	svcls	0x005101f3
	...
     aa0:	00f00000 	rscseq	r0, r0, r0
     aa4:	01cc0000 	biceq	r0, ip, r0
     aa8:	00010000 	andeq	r0, r1, r0
     aac:	00000054 	andeq	r0, r0, r4, asr r0
	...
     ab8:	0000f800 	andeq	pc, r0, r0, lsl #16
     abc:	00011800 	andeq	r1, r1, r0, lsl #16
     ac0:	55000100 	strpl	r0, [r0, #-256]	; 0xffffff00
     ac4:	00000140 	andeq	r0, r0, r0, asr #2
     ac8:	000001c4 	andeq	r0, r0, r4, asr #3
     acc:	00550001 	subseq	r0, r5, r1
	...
     ad8:	f8000000 			; <UNDEFINED> instruction: 0xf8000000
     adc:	14000000 	strne	r0, [r0], #-0
     ae0:	01000001 	tsteq	r0, r1
     ae4:	014c5600 	cmpeq	ip, r0, lsl #12
     ae8:	01c40000 	biceq	r0, r4, r0
     aec:	00010000 	andeq	r0, r1, r0
     af0:	00000056 	andeq	r0, r0, r6, asr r0
	...
     afc:	0000f800 	andeq	pc, r0, r0, lsl #16
     b00:	00011400 	andeq	r1, r1, r0, lsl #8
     b04:	58000100 	stmdapl	r0, {r8}
     b08:	00000150 	andeq	r0, r0, r0, asr r1
     b0c:	000001c4 	andeq	r0, r0, r4, asr #3
     b10:	00580001 	subseq	r0, r8, r1
	...
     b1c:	f0000200 			; <UNDEFINED> instruction: 0xf0000200
     b20:	f4000000 	vst4.8	{d0-d3}, [r0], r0
     b24:	01000000 	mrseq	r0, (UNDEF: 0)
     b28:	01245500 			; <UNDEFINED> instruction: 0x01245500
     b2c:	01400000 	mrseq	r0, (UNDEF: 64)
     b30:	00010000 	andeq	r0, r1, r0
     b34:	00000055 	andeq	r0, r0, r5, asr r0
	...
     b48:	00000c00 	andeq	r0, r0, r0, lsl #24
     b4c:	00003c00 	andeq	r3, r0, r0, lsl #24
     b50:	50000100 	andpl	r0, r0, r0, lsl #2
     b54:	0000003c 	andeq	r0, r0, ip, lsr r0
     b58:	00000040 	andeq	r0, r0, r0, asr #32
     b5c:	01f30004 	mvnseq	r0, r4
     b60:	00409f50 	subeq	r9, r0, r0, asr pc
     b64:	00440000 	subeq	r0, r4, r0
     b68:	00010000 	andeq	r0, r1, r0
     b6c:	00004450 	andeq	r4, r0, r0, asr r4
     b70:	00004800 	andeq	r4, r0, r0, lsl #16
     b74:	f3000400 	vshl.u8	d0, d0, d0
     b78:	489f5001 	ldmmi	pc, {r0, ip, lr}	; <UNPREDICTABLE>
     b7c:	4c000000 	stcmi	0, cr0, [r0], {-0}
     b80:	01000000 	mrseq	r0, (UNDEF: 0)
     b84:	004c5000 	subeq	r5, ip, r0
     b88:	00540000 	subseq	r0, r4, r0
     b8c:	00040000 	andeq	r0, r4, r0
     b90:	9f5001f3 	svcls	0x005001f3
	...
     ba8:	000004b8 			; <UNDEFINED> instruction: 0x000004b8
     bac:	000004e8 	andeq	r0, r0, r8, ror #9
     bb0:	e8500001 	ldmda	r0, {r0}^
     bb4:	14000004 	strne	r0, [r0], #-4
     bb8:	01000005 	tsteq	r0, r5
     bbc:	05145400 	ldreq	r5, [r4, #-1024]	; 0xfffffc00
     bc0:	052c0000 	streq	r0, [ip, #-0]!
     bc4:	00010000 	andeq	r0, r1, r0
     bc8:	00052c50 	andeq	r2, r5, r0, asr ip
     bcc:	00053400 	andeq	r3, r5, r0, lsl #8
     bd0:	54000100 	strpl	r0, [r0], #-256	; 0xffffff00
     bd4:	00000534 	andeq	r0, r0, r4, lsr r5
     bd8:	00000544 	andeq	r0, r0, r4, asr #10
     bdc:	44500001 	ldrbmi	r0, [r0], #-1
     be0:	64000005 	strvs	r0, [r0], #-5
     be4:	01000005 	tsteq	r0, r5
     be8:	00005400 	andeq	r5, r0, r0, lsl #8
     bec:	00000000 	andeq	r0, r0, r0
     bf0:	00020000 	andeq	r0, r2, r0
     bf4:	000004e0 	andeq	r0, r0, r0, ror #9
     bf8:	00000514 	andeq	r0, r0, r4, lsl r5
     bfc:	40400004 	submi	r0, r0, r4
     c00:	00009f24 	andeq	r9, r0, r4, lsr #30
	...
     c0c:	00000008 	andeq	r0, r0, r8
     c10:	00000080 	andeq	r0, r0, r0, lsl #1
     c14:	00540001 	subseq	r0, r4, r1
     c18:	00000000 	andeq	r0, r0, r0
     c1c:	02000000 	andeq	r0, r0, #0, 0
     c20:	08000000 	stmdaeq	r0, {}	; <UNPREDICTABLE>
     c24:	20000000 	andcs	r0, r0, r0
     c28:	02000000 	andeq	r0, r0, #0, 0
     c2c:	209f3000 	addscs	r3, pc, r0
     c30:	6c000000 	stcvs	0, cr0, [r0], {-0}
     c34:	01000000 	mrseq	r0, (UNDEF: 0)
     c38:	00005700 	andeq	r5, r0, r0, lsl #14
	...
     c44:	0000003c 	andeq	r0, r0, ip, lsr r0
     c48:	00000057 	andeq	r0, r0, r7, asr r0
     c4c:	00520001 	subseq	r0, r2, r1
     c50:	00000000 	andeq	r0, r0, r0
     c54:	01000000 	mrseq	r0, (UNDEF: 0)
     c58:	00003c00 	andeq	r3, r0, r0, lsl #24
     c5c:	00005000 	andeq	r5, r0, r0
     c60:	52000100 	andpl	r0, r0, #0
	...
     c6c:	00000003 	andeq	r0, r0, r3
     c70:	0000003c 	andeq	r0, r0, ip, lsr r0
     c74:	00000048 	andeq	r0, r0, r8, asr #32
     c78:	48530001 	ldmdami	r3, {r0}^
     c7c:	50000000 	andpl	r0, r0, r0
     c80:	02000000 	andeq	r0, r0, #0, 0
     c84:	00007000 	andeq	r7, r0, r0
	...
     c94:	00003800 	andeq	r3, r0, r0, lsl #16
     c98:	00004800 	andeq	r4, r0, r0, lsl #16
     c9c:	73000900 	movwvc	r0, #2304	; 0x900
     ca0:	ffff0c00 			; <UNDEFINED> instruction: 0xffff0c00
     ca4:	9f1a00ff 	svcls	0x001a00ff
     ca8:	00000048 	andeq	r0, r0, r8, asr #32
     cac:	0000004c 	andeq	r0, r0, ip, asr #32
     cb0:	4c530001 	mrrcmi	0, 0, r0, r3, cr1
     cb4:	50000000 	andpl	r0, r0, r0
     cb8:	0a000000 	beq	cc0 <__code_start__-0x7340>
     cbc:	06007000 	streq	r7, [r0], -r0
     cc0:	ffffff0c 			; <UNDEFINED> instruction: 0xffffff0c
     cc4:	009f1a00 	addseq	r1, pc, r0, lsl #20
	...
     cd4:	00008000 	andeq	r8, r0, r0
     cd8:	00008800 	andeq	r8, r0, r0, lsl #16
     cdc:	50000100 	andpl	r0, r0, r0, lsl #2
     ce0:	00000088 	andeq	r0, r0, r8, lsl #1
     ce4:	00000094 	muleq	r0, r4, r0
     ce8:	04700003 	ldrbteq	r0, [r0], #-3
     cec:	0000949f 	muleq	r0, pc, r4	; <UNPREDICTABLE>
     cf0:	0000a000 	andeq	sl, r0, r0
     cf4:	f3000400 	vshl.u8	d0, d0, d0
     cf8:	009f5001 	addseq	r5, pc, r1
	...
     d08:	00008400 	andeq	r8, r0, r0, lsl #8
     d0c:	00009000 	andeq	r9, r0, r0
     d10:	53000100 	movwpl	r0, #256	; 0x100
     d14:	00000090 	muleq	r0, r0, r0
     d18:	00000094 	muleq	r0, r4, r0
     d1c:	00700002 	rsbseq	r0, r0, r2
     d20:	00000094 	muleq	r0, r4, r0
     d24:	000000a0 	andeq	r0, r0, r0, lsr #1
     d28:	01f30005 	mvnseq	r0, r5
     d2c:	001c3450 	andseq	r3, ip, r0, asr r4
     d30:	00000000 	andeq	r0, r0, r0
     d34:	01000000 	mrseq	r0, (UNDEF: 0)
     d38:	00000000 	andeq	r0, r0, r0
     d3c:	00008c00 	andeq	r8, r0, r0, lsl #24
     d40:	00009000 	andeq	r9, r0, r0
     d44:	73000900 	movwvc	r0, #2304	; 0x900
     d48:	ffff0c00 			; <UNDEFINED> instruction: 0xffff0c00
     d4c:	9f1a00ff 	svcls	0x001a00ff
     d50:	00000090 	muleq	r0, r0, r0
     d54:	00000094 	muleq	r0, r4, r0
     d58:	0070000a 	rsbseq	r0, r0, sl
     d5c:	ffff0c06 			; <UNDEFINED> instruction: 0xffff0c06
     d60:	9f1a00ff 	svcls	0x001a00ff
     d64:	00000094 	muleq	r0, r4, r0
     d68:	000000a0 	andeq	r0, r0, r0, lsr #1
     d6c:	01f3000d 	mvnseq	r0, sp
     d70:	061c3450 			; <UNDEFINED> instruction: 0x061c3450
     d74:	ffffff0c 			; <UNDEFINED> instruction: 0xffffff0c
     d78:	009f1a00 	addseq	r1, pc, r0, lsl #20
	...
     d88:	1c000000 	stcne	0, cr0, [r0], {-0}
     d8c:	01000000 	mrseq	r0, (UNDEF: 0)
     d90:	001c5100 	andseq	r5, ip, r0, lsl #2
     d94:	00780000 	rsbseq	r0, r8, r0
     d98:	00040000 	andeq	r0, r4, r0
     d9c:	9f5101f3 	svcls	0x005101f3
	...
     db0:	00000058 	andeq	r0, r0, r8, asr r0
     db4:	58520001 	ldmdapl	r2, {r0}^
     db8:	78000000 	stmdavc	r0, {}	; <UNPREDICTABLE>
     dbc:	04000000 	streq	r0, [r0], #-0
     dc0:	5201f300 	andpl	pc, r1, #0, 6
     dc4:	0000009f 	muleq	r0, pc, r0	; <UNPREDICTABLE>
     dc8:	00000000 	andeq	r0, r0, r0
     dcc:	00000200 	andeq	r0, r0, r0, lsl #4
     dd0:	00000101 	andeq	r0, r0, r1, lsl #2
     dd4:	00000101 	andeq	r0, r0, r1, lsl #2
     dd8:	00000101 	andeq	r0, r0, r1, lsl #2
     ddc:	38000000 	stmdacc	r0, {}	; <UNPREDICTABLE>
     de0:	01000000 	mrseq	r0, (UNDEF: 0)
     de4:	00545000 	subseq	r5, r4, r0
     de8:	00540000 	subseq	r0, r4, r0
     dec:	00010000 	andeq	r0, r1, r0
     df0:	00005453 	andeq	r5, r0, r3, asr r4
     df4:	00005c00 	andeq	r5, r0, r0, lsl #24
     df8:	73000300 	movwvc	r0, #768	; 0x300
     dfc:	005c9f01 	subseq	r9, ip, r1, lsl #30
     e00:	00640000 	rsbeq	r0, r4, r0
     e04:	00010000 	andeq	r0, r1, r0
     e08:	00006452 	andeq	r6, r0, r2, asr r4
     e0c:	00006800 	andeq	r6, r0, r0, lsl #16
     e10:	73000300 	movwvc	r0, #768	; 0x300
     e14:	00689f02 	rsbeq	r9, r8, r2, lsl #30
     e18:	00740000 	rsbseq	r0, r4, r0
     e1c:	00010000 	andeq	r0, r1, r0
     e20:	00007452 	andeq	r7, r0, r2, asr r4
     e24:	00007800 	andeq	r7, r0, r0, lsl #16
     e28:	72000300 	andvc	r0, r0, #0, 6
     e2c:	00009f01 	andeq	r9, r0, r1, lsl #30
	...
     e38:	00000008 	andeq	r0, r0, r8
     e3c:	00000078 	andeq	r0, r0, r8, ror r0
     e40:	00540001 	subseq	r0, r4, r1
	...
     e50:	00002c00 	andeq	r2, r0, r0, lsl #24
     e54:	00003400 	andeq	r3, r0, r0, lsl #8
     e58:	50000100 	andpl	r0, r0, r0, lsl #2
     e5c:	00000034 	andeq	r0, r0, r4, lsr r0
     e60:	00000048 	andeq	r0, r0, r8, asr #32
     e64:	48540001 	ldmdami	r4, {r0}^
     e68:	58000000 	stmdapl	r0, {}	; <UNPREDICTABLE>
     e6c:	01000000 	mrseq	r0, (UNDEF: 0)
     e70:	00005000 	andeq	r5, r0, r0
	...
     e7c:	00010100 	andeq	r0, r1, r0, lsl #2
     e80:	00000000 	andeq	r0, r0, r0
     e84:	000c0000 	andeq	r0, ip, r0
     e88:	00010000 	andeq	r0, r1, r0
     e8c:	00000c50 	andeq	r0, r0, r0, asr ip
     e90:	00002000 	andeq	r2, r0, r0
     e94:	54000100 	strpl	r0, [r0], #-256	; 0xffffff00
     e98:	00000020 	andeq	r0, r0, r0, lsr #32
     e9c:	00000024 	andeq	r0, r0, r4, lsr #32
     ea0:	01740003 	cmneq	r4, r3
     ea4:	0000249f 	muleq	r0, pc, r4	; <UNPREDICTABLE>
     ea8:	00003800 	andeq	r3, r0, r0, lsl #16
     eac:	54000100 	strpl	r0, [r0], #-256	; 0xffffff00
	...
     ec0:	03880000 	orreq	r0, r8, #0, 0
     ec4:	03940000 	orrseq	r0, r4, #0, 0
     ec8:	00010000 	andeq	r0, r1, r0
     ecc:	00039450 	andeq	r9, r3, r0, asr r4
     ed0:	0003d000 	andeq	sp, r3, r0
     ed4:	5b000100 	blpl	12dc <__code_start__-0x6d24>
     ed8:	000003d0 	ldrdeq	r0, [r0], -r0	; <UNPREDICTABLE>
     edc:	00000920 	andeq	r0, r0, r0, lsr #18
     ee0:	01f30004 	mvnseq	r0, r4
     ee4:	09209f50 	stmdbeq	r0!, {r4, r6, r8, r9, sl, fp, ip, pc}
     ee8:	09280000 	stmdbeq	r8!, {}	; <UNPREDICTABLE>
     eec:	00010000 	andeq	r0, r1, r0
     ef0:	0009285b 	andeq	r2, r9, fp, asr r8
     ef4:	0009b400 	andeq	fp, r9, r0, lsl #8
     ef8:	f3000400 	vshl.u8	d0, d0, d0
     efc:	009f5001 	addseq	r5, pc, r1
	...
     f0c:	88000000 	stmdahi	r0, {}	; <UNPREDICTABLE>
     f10:	d0000003 	andle	r0, r0, r3
     f14:	01000003 	tsteq	r0, r3
     f18:	03d05100 	bicseq	r5, r0, #0
     f1c:	09200000 	stmdbeq	r0!, {}	; <UNPREDICTABLE>
     f20:	00040000 	andeq	r0, r4, r0
     f24:	9f5101f3 	svcls	0x005101f3
     f28:	00000920 	andeq	r0, r0, r0, lsr #18
     f2c:	00000928 	andeq	r0, r0, r8, lsr #18
     f30:	28510001 	ldmdacs	r1, {r0}^
     f34:	b4000009 	strlt	r0, [r0], #-9
     f38:	04000009 	streq	r0, [r0], #-9
     f3c:	5101f300 	mrspl	pc, SP_irq	; <UNPREDICTABLE>
     f40:	0000009f 	muleq	r0, pc, r0	; <UNPREDICTABLE>
	...
     f50:	01000001 	tsteq	r0, r1
	...
     f60:	00038800 	andeq	r8, r3, r0, lsl #16
     f64:	0003d000 	andeq	sp, r3, r0
     f68:	52000100 	andpl	r0, r0, #0
     f6c:	000003d0 	ldrdeq	r0, [r0], -r0	; <UNPREDICTABLE>
     f70:	00000400 	andeq	r0, r0, r0, lsl #8
     f74:	14560001 	ldrbne	r0, [r6], #-1
     f78:	24000004 	strcs	r0, [r0], #-4
     f7c:	01000004 	tsteq	r0, r4
     f80:	04245600 	strteq	r5, [r4], #-1536	; 0xfffffa00
     f84:	04280000 	strteq	r0, [r8], #-0
     f88:	00030000 	andeq	r0, r3, r0
     f8c:	a89f7f76 	ldmge	pc, {r1, r2, r4, r5, r6, r8, r9, sl, fp, ip, sp, lr}	; <UNPREDICTABLE>
     f90:	ac000004 	stcge	0, cr0, [r0], {4}
     f94:	01000004 	tsteq	r0, r4
     f98:	04e05600 	strbteq	r5, [r0], #1536	; 0x600
     f9c:	05040000 	streq	r0, [r4, #-0]
     fa0:	00010000 	andeq	r0, r1, r0
     fa4:	00057c56 	andeq	r7, r5, r6, asr ip
     fa8:	00058800 	andeq	r8, r5, r0, lsl #16
     fac:	53000100 	movwpl	r0, #256	; 0x100
     fb0:	00000588 	andeq	r0, r0, r8, lsl #11
     fb4:	000005d0 	ldrdeq	r0, [r0], -r0	; <UNPREDICTABLE>
     fb8:	cc910003 	ldcgt	0, cr0, [r1], {3}
     fbc:	0008007d 	andeq	r0, r8, sp, ror r0
     fc0:	00080f00 	andeq	r0, r8, r0, lsl #30
     fc4:	53000100 	movwpl	r0, #256	; 0x100
     fc8:	0000080f 	andeq	r0, r0, pc, lsl #16
     fcc:	00000888 	andeq	r0, r0, r8, lsl #17
     fd0:	cc910003 	ldcgt	0, cr0, [r1], {3}
     fd4:	0009207d 	andeq	r2, r9, sp, ror r0
     fd8:	00092800 	andeq	r2, r9, r0, lsl #16
     fdc:	52000100 	andpl	r0, r0, #0
     fe0:	00000948 	andeq	r0, r0, r8, asr #18
     fe4:	00000964 	andeq	r0, r0, r4, ror #18
     fe8:	cc910003 	ldcgt	0, cr0, [r1], {3}
     fec:	0000007d 	andeq	r0, r0, sp, ror r0
	...
     ffc:	01010000 	mrseq	r0, (UNDEF: 1)
    1000:	01010000 	mrseq	r0, (UNDEF: 1)
    1004:	00000000 	andeq	r0, r0, r0
    1008:	00000202 	andeq	r0, r0, r2, lsl #4
    100c:	00000202 	andeq	r0, r0, r2, lsl #4
    1010:	00000101 	andeq	r0, r0, r1, lsl #2
    1014:	00000202 	andeq	r0, r0, r2, lsl #4
    1018:	00000101 	andeq	r0, r0, r1, lsl #2
    101c:	00000000 	andeq	r0, r0, r0
    1020:	88000000 	stmdahi	r0, {}	; <UNPREDICTABLE>
    1024:	ac000003 	stcge	0, cr0, [r0], {3}
    1028:	01000003 	tsteq	r0, r3
    102c:	03ac5300 			; <UNDEFINED> instruction: 0x03ac5300
    1030:	03c00000 	biceq	r0, r0, #0, 0
    1034:	00030000 	andeq	r0, r3, r0
    1038:	d0049353 	andle	r9, r4, r3, asr r3
    103c:	e8000003 	stmda	r0, {r0, r1}
    1040:	03000003 	movweq	r0, #3
    1044:	04935800 	ldreq	r5, [r3], #2048	; 0x800
    1048:	000003e8 	andeq	r0, r0, r8, ror #7
    104c:	000004ac 	andeq	r0, r0, ip, lsr #9
    1050:	93580003 	cmpls	r8, #3, 0
    1054:	0004c004 	andeq	ip, r4, r4
    1058:	0004c000 	andeq	ip, r4, r0
    105c:	58000300 	stmdapl	r0, {r8, r9}
    1060:	04c00493 	strbeq	r0, [r0], #1171	; 0x493
    1064:	04cc0000 	strbeq	r0, [ip], #0
    1068:	00050000 	andeq	r0, r5, r0
    106c:	939f0478 	orrsls	r0, pc, #120, 8	; 0x78000000
    1070:	0004cc04 	andeq	ip, r4, r4, lsl #24
    1074:	0004e000 	andeq	lr, r4, r0
    1078:	58000300 	stmdapl	r0, {r8, r9}
    107c:	04e00493 	strbteq	r0, [r0], #1171	; 0x493
    1080:	05380000 	ldreq	r0, [r8, #-0]!
    1084:	00030000 	andeq	r0, r3, r0
    1088:	38049358 	stmdacc	r4, {r3, r4, r6, r8, r9, ip, pc}
    108c:	3c000005 	stccc	0, cr0, [r0], {5}
    1090:	05000005 	streq	r0, [r0, #-5]
    1094:	9f797800 	svcls	0x00797800
    1098:	05d00493 	ldrbeq	r0, [r0, #1171]	; 0x493
    109c:	05d00000 	ldrbeq	r0, [r0]
    10a0:	00030000 	andeq	r0, r3, r0
    10a4:	d0049358 	andle	r9, r4, r8, asr r3
    10a8:	d4000005 	strle	r0, [r0], #-5
    10ac:	05000005 	streq	r0, [r0, #-5]
    10b0:	9f047800 	svcls	0x00047800
    10b4:	05f40493 	ldrbeq	r0, [r4, #1171]!	; 0x493
    10b8:	05f40000 	ldrbeq	r0, [r4, #0]!
    10bc:	00030000 	andeq	r0, r3, r0
    10c0:	f4049358 	vst2.16	{d9-d12}, [r4 :64], r8
    10c4:	fc000005 	stc2	0, cr0, [r0], {5}
    10c8:	05000005 	streq	r0, [r0, #-5]
    10cc:	9f047800 	svcls	0x00047800
    10d0:	05fc0493 	ldrbeq	r0, [ip, #1171]!	; 0x493
    10d4:	05fc0000 	ldrbeq	r0, [ip, #0]!
    10d8:	00030000 	andeq	r0, r3, r0
    10dc:	fc049358 	stc2	3, cr9, [r4], {88}	; 0x58
    10e0:	00000005 	andeq	r0, r0, r5
    10e4:	05000006 	streq	r0, [r0, #-6]
    10e8:	9f047800 	svcls	0x00047800
    10ec:	06000493 			; <UNDEFINED> instruction: 0x06000493
    10f0:	07000000 	streq	r0, [r0, -r0]
    10f4:	00030000 	andeq	r0, r3, r0
    10f8:	00049358 	andeq	r9, r4, r8, asr r3
    10fc:	0c000007 	stceq	0, cr0, [r0], {7}
    1100:	05000007 	streq	r0, [r0, #-7]
    1104:	9f047800 	svcls	0x00047800
    1108:	070c0493 			; <UNDEFINED> instruction: 0x070c0493
    110c:	07f80000 	ldrbeq	r0, [r8, r0]!
    1110:	00030000 	andeq	r0, r3, r0
    1114:	f8049358 			; <UNDEFINED> instruction: 0xf8049358
    1118:	fc000007 	stc2	0, cr0, [r0], {7}
    111c:	05000007 	streq	r0, [r0, #-7]
    1120:	9f047800 	svcls	0x00047800
    1124:	07fc0493 			; <UNDEFINED> instruction: 0x07fc0493
    1128:	08000000 	stmdaeq	r0, {}	; <UNPREDICTABLE>
    112c:	00030000 	andeq	r0, r3, r0
    1130:	88049358 	stmdahi	r4, {r3, r4, r6, r8, r9, ip, pc}
    1134:	20000008 	andcs	r0, r0, r8
    1138:	03000009 	movweq	r0, #9
    113c:	04935800 	ldreq	r5, [r3], #2048	; 0x800
    1140:	00000920 	andeq	r0, r0, r0, lsr #18
    1144:	00000928 	andeq	r0, r0, r8, lsr #18
    1148:	64530001 	ldrbvs	r0, [r3], #-1
    114c:	b4000009 	strlt	r0, [r0], #-9
    1150:	03000009 	movweq	r0, #9
    1154:	04935800 	ldreq	r5, [r3], #2048	; 0x800
	...
    1160:	00000001 	andeq	r0, r0, r1
    1164:	00000000 	andeq	r0, r0, r0
    1168:	00020200 	andeq	r0, r2, r0, lsl #4
    116c:	01010000 	mrseq	r0, (UNDEF: 1)
    1170:	00000001 	andeq	r0, r0, r1
    1174:	03ac0000 			; <UNDEFINED> instruction: 0x03ac0000
    1178:	03d00000 	bicseq	r0, r0, #0, 0
    117c:	00010000 	andeq	r0, r1, r0
    1180:	0003d05b 	andeq	sp, r3, fp, asr r0
    1184:	0003d400 	andeq	sp, r3, r0, lsl #8
    1188:	54000100 	strpl	r0, [r0], #-256	; 0xffffff00
    118c:	000003d4 	ldrdeq	r0, [r0], -r4
    1190:	000003d8 	ldrdeq	r0, [r0], -r8
    1194:	7f740003 	svcvc	0x00740003
    1198:	0003d89f 	muleq	r3, pc, r8	; <UNPREDICTABLE>
    119c:	0003fc00 	andeq	pc, r3, r0, lsl #24
    11a0:	54000100 	strpl	r0, [r0], #-256	; 0xffffff00
    11a4:	000004a8 	andeq	r0, r0, r8, lsr #9
    11a8:	000004ac 	andeq	r0, r0, ip, lsr #9
    11ac:	ac540001 	mrrcge	0, 0, r0, r4, cr1
    11b0:	b4000004 	strlt	r0, [r0], #-4
    11b4:	03000004 	movweq	r0, #4
    11b8:	9f017400 	svcls	0x00017400
    11bc:	000004b4 			; <UNDEFINED> instruction: 0x000004b4
    11c0:	000004c0 	andeq	r0, r0, r0, asr #9
    11c4:	e4540001 	ldrb	r0, [r4], #-1
    11c8:	f4000004 	vst4.8	{d0-d3}, [r0], r4
    11cc:	01000004 	tsteq	r0, r4
    11d0:	04f45400 	ldrbteq	r5, [r4], #1024	; 0x400
    11d4:	04f80000 	ldrbteq	r0, [r8], #0
    11d8:	00030000 	andeq	r0, r3, r0
    11dc:	f89f0174 			; <UNDEFINED> instruction: 0xf89f0174
    11e0:	04000004 	streq	r0, [r0], #-4
    11e4:	01000005 	tsteq	r0, r5
    11e8:	09205400 	stmdbeq	r0!, {sl, ip, lr}
    11ec:	09280000 	stmdbeq	r8!, {}	; <UNPREDICTABLE>
    11f0:	00010000 	andeq	r0, r1, r0
    11f4:	0000005b 	andeq	r0, r0, fp, asr r0
    11f8:	00000000 	andeq	r0, r0, r0
    11fc:	ac000100 	stfges	f0, [r0], {-0}
    1200:	b4000003 	strlt	r0, [r0], #-3
    1204:	01000009 	tsteq	r0, r9
    1208:	00005700 	andeq	r5, r0, r0, lsl #14
    120c:	00000000 	andeq	r0, r0, r0
    1210:	00020000 	andeq	r0, r2, r0
    1214:	00000000 	andeq	r0, r0, r0
    1218:	0000057c 	andeq	r0, r0, ip, ror r5
    121c:	000005d0 	ldrdeq	r0, [r0], -r0	; <UNPREDICTABLE>
    1220:	005b0001 	subseq	r0, fp, r1
    1224:	88000008 	stmdahi	r0, {r3}
    1228:	01000008 	tsteq	r0, r8
    122c:	09485b00 	stmdbeq	r8, {r8, r9, fp, ip, lr}^
    1230:	09640000 	stmdbeq	r4!, {}^	; <UNPREDICTABLE>
    1234:	00010000 	andeq	r0, r1, r0
    1238:	0000005b 	andeq	r0, r0, fp, asr r0
    123c:	00000000 	andeq	r0, r0, r0
    1240:	00000300 	andeq	r0, r0, r0, lsl #6
    1244:	7c000000 	stcvc	0, cr0, [r0], {-0}
    1248:	d0000005 	andle	r0, r0, r5
    124c:	01000005 	tsteq	r0, r5
    1250:	08005900 	stmdaeq	r0, {r8, fp, ip, lr}
    1254:	08880000 	stmeq	r8, {}	; <UNPREDICTABLE>
    1258:	00010000 	andeq	r0, r1, r0
    125c:	00094859 	andeq	r4, r9, r9, asr r8
    1260:	00096400 	andeq	r6, r9, r0, lsl #8
    1264:	59000100 	stmdbpl	r0, {r8}
	...
    1270:	00000004 	andeq	r0, r0, r4
    1274:	00000000 	andeq	r0, r0, r0
    1278:	000003ac 	andeq	r0, r0, ip, lsr #7
    127c:	000003d0 	ldrdeq	r0, [r0], -r0	; <UNPREDICTABLE>
    1280:	d0520001 	subsle	r0, r2, r1
    1284:	20000003 	andcs	r0, r0, r3
    1288:	04000009 	streq	r0, [r0], #-9
    128c:	5201f300 	andpl	pc, r1, #0, 6
    1290:	0009209f 	muleq	r9, pc, r0	; <UNPREDICTABLE>
    1294:	00092800 	andeq	r2, r9, r0, lsl #16
    1298:	52000100 	andpl	r0, r0, #0
    129c:	00000928 	andeq	r0, r0, r8, lsr #18
    12a0:	000009b4 			; <UNDEFINED> instruction: 0x000009b4
    12a4:	01f30004 	mvnseq	r0, r4
    12a8:	00009f52 	andeq	r9, r0, r2, asr pc
    12ac:	00000000 	andeq	r0, r0, r0
    12b0:	01000000 	mrseq	r0, (UNDEF: 0)
    12b4:	00000001 	andeq	r0, r0, r1
    12b8:	00010000 	andeq	r0, r1, r0
    12bc:	04e00000 	strbteq	r0, [r0], #0
    12c0:	04e00000 	strbteq	r0, [r0], #0
    12c4:	00010000 	andeq	r0, r1, r0
    12c8:	0004e050 	andeq	lr, r4, r0, asr r0
    12cc:	0004e800 	andeq	lr, r4, r0, lsl #16
    12d0:	55000100 	strpl	r0, [r0, #-256]	; 0xffffff00
    12d4:	000005b8 			; <UNDEFINED> instruction: 0x000005b8
    12d8:	000005d0 	ldrdeq	r0, [r0], -r0	; <UNPREDICTABLE>
    12dc:	f0550001 			; <UNDEFINED> instruction: 0xf0550001
    12e0:	f4000005 	vst4.8	{d0-d3}, [r0], r5
    12e4:	01000005 	tsteq	r0, r5
    12e8:	07f45000 	ldrbeq	r5, [r4, r0]!
    12ec:	07f80000 	ldrbeq	r0, [r8, r0]!
    12f0:	00010000 	andeq	r0, r1, r0
    12f4:	00085055 	andeq	r5, r8, r5, asr r0
    12f8:	00088800 	andeq	r8, r8, r0, lsl #16
    12fc:	55000100 	strpl	r0, [r0, #-256]	; 0xffffff00
	...
    1308:	00000002 	andeq	r0, r0, r2
    130c:	00000000 	andeq	r0, r0, r0
    1310:	00000414 	andeq	r0, r0, r4, lsl r4
    1314:	00000418 	andeq	r0, r0, r8, lsl r4
    1318:	9f300002 	svcls	0x00300002
    131c:	00000418 	andeq	r0, r0, r8, lsl r4
    1320:	0000041c 	andeq	r0, r0, ip, lsl r4
    1324:	28550001 	ldmdacs	r5, {r0}^
    1328:	3c000004 	stccc	0, cr0, [r0], {4}
    132c:	01000004 	tsteq	r0, r4
    1330:	09285500 	stmdbeq	r8!, {r8, sl, ip, lr}
    1334:	09300000 	ldmdbeq	r0!, {}	; <UNPREDICTABLE>
    1338:	00010000 	andeq	r0, r1, r0
    133c:	00000055 	andeq	r0, r0, r5, asr r0
    1340:	00000000 	andeq	r0, r0, r0
    1344:	00000100 	andeq	r0, r0, r0, lsl #2
	...
    1350:	00050400 	andeq	r0, r5, r0, lsl #8
    1354:	00058400 	andeq	r8, r5, r0, lsl #8
    1358:	56000100 	strpl	r0, [r0], -r0, lsl #2
    135c:	00000584 	andeq	r0, r0, r4, lsl #11
    1360:	00000588 	andeq	r0, r0, r8, lsl #11
    1364:	7e730003 	cdpvc	0, 7, cr0, cr3, cr3, {0}
    1368:	0005889f 	muleq	r5, pc, r8	; <UNPREDICTABLE>
    136c:	0005d000 	andeq	sp, r5, r0
    1370:	91000700 	tstls	r0, r0, lsl #14
    1374:	32067dcc 	andcc	r7, r6, #204, 26	; 0x3300
    1378:	08009f1c 	stmdaeq	r0, {r2, r3, r4, r8, r9, sl, fp, ip, pc}
    137c:	081c0000 	ldmdaeq	ip, {}	; <UNPREDICTABLE>
    1380:	00010000 	andeq	r0, r1, r0
    1384:	00081c56 	andeq	r1, r8, r6, asr ip
    1388:	00088800 	andeq	r8, r8, r0, lsl #16
    138c:	91000700 	tstls	r0, r0, lsl #14
    1390:	32067dcc 	andcc	r7, r6, #204, 26	; 0x3300
    1394:	09489f1c 	stmdbeq	r8, {r2, r3, r4, r8, r9, sl, fp, ip, pc}^
    1398:	09b40000 	ldmibeq	r4!, {}	; <UNPREDICTABLE>
    139c:	00010000 	andeq	r0, r1, r0
    13a0:	00000056 	andeq	r0, r0, r6, asr r0
    13a4:	00000000 	andeq	r0, r0, r0
    13a8:	02060400 	andeq	r0, r6, #0, 8
    13ac:	00041404 	andeq	r1, r4, r4, lsl #8
    13b0:	00041400 	andeq	r1, r4, r0, lsl #8
    13b4:	72000600 	andvc	r0, r0, #0, 12
    13b8:	1aff0800 	bne	fffc33c0 <__bss_end__+0xfffb8068>
    13bc:	0004289f 	muleq	r4, pc, r8	; <UNPREDICTABLE>
    13c0:	00042800 	andeq	r2, r4, r0, lsl #16
    13c4:	72000600 	andvc	r0, r0, #0, 12
    13c8:	1aff0800 	bne	fffc33d0 <__bss_end__+0xfffb8078>
    13cc:	0000009f 	muleq	r0, pc, r0	; <UNPREDICTABLE>
    13d0:	00000000 	andeq	r0, r0, r0
    13d4:	00000200 	andeq	r0, r0, r0, lsl #4
    13d8:	fc000000 	stc2	0, cr0, [r0], {-0}
    13dc:	00000005 	andeq	r0, r0, r5
    13e0:	03000007 	movweq	r0, #7
    13e4:	9f800800 	svcls	0x00800800
    13e8:	000008a8 	andeq	r0, r0, r8, lsr #17
    13ec:	000008bc 			; <UNDEFINED> instruction: 0x000008bc
    13f0:	80080003 	andhi	r0, r8, r3
    13f4:	0009109f 	muleq	r9, pc, r0	; <UNPREDICTABLE>
    13f8:	00092000 	andeq	r2, r9, r0
    13fc:	08000300 	stmdaeq	r0, {r8, r9}
    1400:	00009f80 	andeq	r9, r0, r0, lsl #31
    1404:	00000000 	andeq	r0, r0, r0
    1408:	00010000 	andeq	r0, r1, r0
    140c:	00000000 	andeq	r0, r0, r0
    1410:	000005fc 	strdeq	r0, [r0], -ip
    1414:	00000700 	andeq	r0, r0, r0, lsl #14
    1418:	9f300002 	svcls	0x00300002
    141c:	000008a8 	andeq	r0, r0, r8, lsr #17
    1420:	000008bc 			; <UNDEFINED> instruction: 0x000008bc
    1424:	9f300002 	svcls	0x00300002
    1428:	00000910 	andeq	r0, r0, r0, lsl r9
    142c:	00000920 	andeq	r0, r0, r0, lsr #18
    1430:	9f300002 	svcls	0x00300002
	...
    143c:	00000001 	andeq	r0, r0, r1
    1440:	05fc0000 	ldrbeq	r0, [ip, #0]!
    1444:	06e00000 	strbteq	r0, [r0], r0
    1448:	00010000 	andeq	r0, r1, r0
    144c:	0008a855 	andeq	sl, r8, r5, asr r8
    1450:	0008bc00 	andeq	fp, r8, r0, lsl #24
    1454:	55000100 	strpl	r0, [r0, #-256]	; 0xffffff00
    1458:	00000910 	andeq	r0, r0, r0, lsl r9
    145c:	00000920 	andeq	r0, r0, r0, lsr #18
    1460:	00550001 	subseq	r0, r5, r1
    1464:	00000000 	andeq	r0, r0, r0
    1468:	01000000 	mrseq	r0, (UNDEF: 0)
    146c:	00000000 	andeq	r0, r0, r0
    1470:	fc000000 	stc2	0, cr0, [r0], {-0}
    1474:	e0000005 	and	r0, r0, r5
    1478:	04000006 	streq	r0, [r0], #-6
    147c:	7dd09100 	ldfvcp	f1, [r0]
    1480:	0006e09f 	muleq	r6, pc, r0	; <UNPREDICTABLE>
    1484:	00070000 	andeq	r0, r7, r0
    1488:	55000100 	strpl	r0, [r0, #-256]	; 0xffffff00
    148c:	000008a8 	andeq	r0, r0, r8, lsr #17
    1490:	000008bc 			; <UNDEFINED> instruction: 0x000008bc
    1494:	d0910004 	addsle	r0, r1, r4
    1498:	09109f7d 	ldmdbeq	r0, {r0, r2, r3, r4, r5, r6, r8, r9, sl, fp, ip, pc}
    149c:	09200000 	stmdbeq	r0!, {}	; <UNPREDICTABLE>
    14a0:	00040000 	andeq	r0, r4, r0
    14a4:	9f7dd091 	svcls	0x007dd091
	...
    14b0:	00000001 	andeq	r0, r0, r1
    14b4:	05fc0000 	ldrbeq	r0, [ip, #0]!
    14b8:	07000000 	streq	r0, [r0, -r0]
    14bc:	00020000 	andeq	r0, r2, r0
    14c0:	08a89f38 	stmiaeq	r8!, {r3, r4, r5, r8, r9, sl, fp, ip, pc}
    14c4:	08bc0000 	ldmeq	ip!, {}	; <UNPREDICTABLE>
    14c8:	00020000 	andeq	r0, r2, r0
    14cc:	09109f38 	ldmdbeq	r0, {r3, r4, r5, r8, r9, sl, fp, ip, pc}
    14d0:	09200000 	stmdbeq	r0!, {}	; <UNPREDICTABLE>
    14d4:	00020000 	andeq	r0, r2, r0
    14d8:	00009f38 	andeq	r9, r0, r8, lsr pc
    14dc:	00000000 	andeq	r0, r0, r0
    14e0:	07040000 	streq	r0, [r4, -r0]
    14e4:	00000007 	andeq	r0, r0, r7
	...
    14f0:	000005fc 	strdeq	r0, [r0], -ip
    14f4:	000005fc 	strdeq	r0, [r0], -ip
    14f8:	d0910004 	addsle	r0, r1, r4
    14fc:	05fc9f7e 	ldrbeq	r9, [ip, #3966]!	; 0xf7e
    1500:	06780000 	ldrbteq	r0, [r8], -r0
    1504:	00040000 	andeq	r0, r4, r0
    1508:	9f7ed191 	svcls	0x007ed191
    150c:	00000678 	andeq	r0, r0, r8, ror r6
    1510:	000006d4 	ldrdeq	r0, [r0], -r4
    1514:	d45c0001 	ldrble	r0, [ip], #-1
    1518:	00000006 	andeq	r0, r0, r6
    151c:	04000007 	streq	r0, [r0], #-7
    1520:	7ed19100 	atnvcs	f1, f0
    1524:	0008a89f 	muleq	r8, pc, r8	; <UNPREDICTABLE>
    1528:	0008bc00 	andeq	fp, r8, r0, lsl #24
    152c:	91000400 	tstls	r0, r0, lsl #8
    1530:	109f7ed1 			; <UNDEFINED> instruction: 0x109f7ed1
    1534:	14000009 	strne	r0, [r0], #-9
    1538:	04000009 	streq	r0, [r0], #-9
    153c:	7ed19100 	atnvcs	f1, f0
    1540:	0009149f 	muleq	r9, pc, r4	; <UNPREDICTABLE>
    1544:	00092000 	andeq	r2, r9, r0
    1548:	5c000100 	stfpls	f0, [r0], {-0}
	...
    1554:	01000104 	tsteq	r0, r4, lsl #2
    1558:	06080000 	streq	r0, [r8], -r0
    155c:	06d00000 	ldrbeq	r0, [r0], r0
    1560:	00010000 	andeq	r0, r1, r0
    1564:	0008a855 	andeq	sl, r8, r5, asr r8
    1568:	0008b800 	andeq	fp, r8, r0, lsl #16
    156c:	55000100 	strpl	r0, [r0, #-256]	; 0xffffff00
    1570:	00000910 	andeq	r0, r0, r0, lsl r9
    1574:	00000920 	andeq	r0, r0, r0, lsr #18
    1578:	00550001 	subseq	r0, r5, r1
    157c:	00000000 	andeq	r0, r0, r0
    1580:	04000000 	streq	r0, [r0], #-0
    1584:	00000000 	andeq	r0, r0, r0
    1588:	00000001 	andeq	r0, r0, r1
    158c:	08000001 	stmdaeq	r0, {r0}
    1590:	b0000006 	andlt	r0, r0, r6
    1594:	04000006 	streq	r0, [r0], #-6
    1598:	7ed09100 	atnvcs	f1, f0
    159c:	0006b09f 	muleq	r6, pc, r0	; <UNPREDICTABLE>
    15a0:	0006c800 	andeq	ip, r6, r0, lsl #16
    15a4:	50000100 	andpl	r0, r0, r0, lsl #2
    15a8:	000006c8 	andeq	r0, r0, r8, asr #13
    15ac:	000006d0 	ldrdeq	r0, [r0], -r0	; <UNPREDICTABLE>
    15b0:	d0910004 	addsle	r0, r1, r4
    15b4:	08a89f7e 	stmiaeq	r8!, {r1, r2, r3, r4, r5, r6, r8, r9, sl, fp, ip, pc}
    15b8:	08b00000 	ldmeq	r0!, {}	; <UNPREDICTABLE>
    15bc:	00040000 	andeq	r0, r4, r0
    15c0:	9f7ed091 	svcls	0x007ed091
    15c4:	000008b0 			; <UNDEFINED> instruction: 0x000008b0
    15c8:	000008b8 			; <UNDEFINED> instruction: 0x000008b8
    15cc:	10530001 	subsne	r0, r3, r1
    15d0:	20000009 	andcs	r0, r0, r9
    15d4:	04000009 	streq	r0, [r0], #-9
    15d8:	7ed09100 	atnvcs	f1, f0
    15dc:	0000009f 	muleq	r0, pc, r0	; <UNPREDICTABLE>
    15e0:	00000000 	andeq	r0, r0, r0
    15e4:	00000400 	andeq	r0, r0, r0, lsl #8
    15e8:	01010101 	tsteq	r1, r1, lsl #2
    15ec:	00020303 	andeq	r0, r2, r3, lsl #6
    15f0:	00000001 	andeq	r0, r0, r1
    15f4:	00060800 	andeq	r0, r6, r0, lsl #16
    15f8:	00062400 	andeq	r2, r6, r0, lsl #8
    15fc:	91000400 	tstls	r0, r0, lsl #8
    1600:	849f7ed1 	ldrhi	r7, [pc], #3793	; 1608 <__code_start__-0x69f8>
    1604:	84000006 	strhi	r0, [r0], #-6
    1608:	01000006 	tsteq	r0, r6
    160c:	06845000 	streq	r5, [r4], r0
    1610:	06980000 	ldreq	r0, [r8], r0
    1614:	00030000 	andeq	r0, r3, r0
    1618:	989f0170 	ldmls	pc, {r4, r5, r6, r8}	; <UNPREDICTABLE>
    161c:	a4000006 	strge	r0, [r0], #-6
    1620:	03000006 	movweq	r0, #6
    1624:	9f027000 	svcls	0x00027000
    1628:	000006a4 	andeq	r0, r0, r4, lsr #13
    162c:	000006a8 	andeq	r0, r0, r8, lsr #13
    1630:	03700003 	cmneq	r0, #3, 0
    1634:	0008a89f 	muleq	r8, pc, r8	; <UNPREDICTABLE>
    1638:	0008b800 	andeq	fp, r8, r0, lsl #16
    163c:	91000400 	tstls	r0, r0, lsl #8
    1640:	109f7ed1 			; <UNDEFINED> instruction: 0x109f7ed1
    1644:	14000009 	strne	r0, [r0], #-9
    1648:	04000009 	streq	r0, [r0], #-9
    164c:	7ed19100 	atnvcs	f1, f0
    1650:	0009149f 	muleq	r9, pc, r4	; <UNPREDICTABLE>
    1654:	00092000 	andeq	r2, r9, r0
    1658:	5c000100 	stfpls	f0, [r0], {-0}
	...
    1664:	01000006 	tsteq	r0, r6
    1668:	01010101 	tsteq	r1, r1, lsl #2
    166c:	01000201 	tsteq	r0, r1, lsl #4
    1670:	06080000 	streq	r0, [r8], -r0
    1674:	06240000 	strteq	r0, [r4], -r0
    1678:	00020000 	andeq	r0, r2, r0
    167c:	06849f31 			; <UNDEFINED> instruction: 0x06849f31
    1680:	06940000 	ldreq	r0, [r4], r0
    1684:	00010000 	andeq	r0, r1, r0
    1688:	00069452 	andeq	r9, r6, r2, asr r4
    168c:	0006a400 	andeq	sl, r6, r0, lsl #8
    1690:	59000100 	stmdbpl	r0, {r8}
    1694:	000006a4 	andeq	r0, r0, r4, lsr #13
    1698:	000006a8 	andeq	r0, r0, r8, lsr #13
    169c:	a8520001 	ldmdage	r2, {r0}^
    16a0:	a8000006 	stmdage	r0, {r1, r2}
    16a4:	03000006 	movweq	r0, #6
    16a8:	9f017200 	svcls	0x00017200
    16ac:	000008a8 	andeq	r0, r0, r8, lsr #17
    16b0:	000008b8 			; <UNDEFINED> instruction: 0x000008b8
    16b4:	9f310002 	svcls	0x00310002
    16b8:	00000910 	andeq	r0, r0, r0, lsl r9
    16bc:	00000920 	andeq	r0, r0, r0, lsr #18
    16c0:	9f310002 	svcls	0x00310002
	...
    16cc:	00060601 	andeq	r0, r6, r1, lsl #12
    16d0:	06d00001 	ldrbeq	r0, [r0], r1
    16d4:	06d00000 	ldrbeq	r0, [r0], r0
    16d8:	00040000 	andeq	r0, r4, r0
    16dc:	9f7ed091 	svcls	0x007ed091
    16e0:	000006d0 	ldrdeq	r0, [r0], -r0	; <UNPREDICTABLE>
    16e4:	00000700 	andeq	r0, r0, r0, lsl #14
    16e8:	b8500001 	ldmdalt	r0, {r0}^
    16ec:	bc000008 	stclt	0, cr0, [r0], {8}
    16f0:	01000008 	tsteq	r0, r8
    16f4:	00005300 	andeq	r5, r0, r0, lsl #6
    16f8:	00000000 	andeq	r0, r0, r0
    16fc:	08010000 	stmdaeq	r1, {}	; <UNPREDICTABLE>
    1700:	01000000 	mrseq	r0, (UNDEF: 0)
    1704:	07010001 	streq	r0, [r1, -r1]
    1708:	000006d0 	ldrdeq	r0, [r0], -r0	; <UNPREDICTABLE>
    170c:	000006d0 	ldrdeq	r0, [r0], -r0	; <UNPREDICTABLE>
    1710:	007c0006 	rsbseq	r0, ip, r6
    1714:	9f220071 	svcls	0x00220071
    1718:	000006e4 	andeq	r0, r0, r4, ror #13
    171c:	000006e8 	andeq	r0, r0, r8, ror #13
    1720:	7f730003 	svcvc	0x00730003
    1724:	0006e89f 	muleq	r6, pc, r8	; <UNPREDICTABLE>
    1728:	0006f000 	andeq	pc, r6, r0
    172c:	53000100 	movwpl	r0, #256	; 0x100
    1730:	000006f0 	strdeq	r0, [r0], -r0	; <UNPREDICTABLE>
    1734:	000006f8 	strdeq	r0, [r0], -r8
    1738:	7f730003 	svcvc	0x00730003
    173c:	0008b89f 	muleq	r8, pc, r8	; <UNPREDICTABLE>
    1740:	0008b800 	andeq	fp, r8, r0, lsl #16
    1744:	91000400 	tstls	r0, r0, lsl #8
    1748:	009f7ed1 			; <UNDEFINED> instruction: 0x009f7ed1
    174c:	00000000 	andeq	r0, r0, r0
    1750:	01000000 	mrseq	r0, (UNDEF: 0)
    1754:	d0000100 	andle	r0, r0, r0, lsl #2
    1758:	00000006 	andeq	r0, r0, r6
    175c:	03000007 	movweq	r0, #7
    1760:	9f800800 	svcls	0x00800800
    1764:	000008b8 			; <UNDEFINED> instruction: 0x000008b8
    1768:	000008bc 			; <UNDEFINED> instruction: 0x000008bc
    176c:	80080003 	andhi	r0, r8, r3
    1770:	0000009f 	muleq	r0, pc, r0	; <UNPREDICTABLE>
    1774:	00000000 	andeq	r0, r0, r0
    1778:	00000100 	andeq	r0, r0, r0, lsl #2
    177c:	01010000 	mrseq	r0, (UNDEF: 1)
    1780:	02000000 	andeq	r0, r0, #0, 0
    1784:	d0000101 	andle	r0, r0, r1, lsl #2
    1788:	e0000006 	and	r0, r0, r6
    178c:	04000006 	streq	r0, [r0], #-6
    1790:	7dd09100 	ldfvcp	f1, [r0]
    1794:	0006e09f 	muleq	r6, pc, r0	; <UNPREDICTABLE>
    1798:	0006e400 	andeq	lr, r6, r0, lsl #8
    179c:	55000100 	strpl	r0, [r0, #-256]	; 0xffffff00
    17a0:	000006e4 	andeq	r0, r0, r4, ror #13
    17a4:	000006e4 	andeq	r0, r0, r4, ror #13
    17a8:	01720003 	cmneq	r2, r3
    17ac:	0006e49f 	muleq	r6, pc, r4	; <UNPREDICTABLE>
    17b0:	0006f000 	andeq	pc, r6, r0
    17b4:	72000300 	andvc	r0, r0, #0, 6
    17b8:	06f09f02 	ldrbteq	r9, [r0], r2, lsl #30
    17bc:	07000000 	streq	r0, [r0, -r0]
    17c0:	00030000 	andeq	r0, r3, r0
    17c4:	ec9f0172 	ldfs	f0, [pc], {114}	; 0x72
    17c8:	f4000007 	vst4.8	{d0-d3}, [r0], r7
    17cc:	03000007 	movweq	r0, #7
    17d0:	9f017300 	svcls	0x00017300
    17d4:	000008b8 			; <UNDEFINED> instruction: 0x000008b8
    17d8:	000008bc 			; <UNDEFINED> instruction: 0x000008bc
    17dc:	d0910004 	addsle	r0, r1, r4
    17e0:	00009f7d 	andeq	r9, r0, sp, ror pc
    17e4:	00000000 	andeq	r0, r0, r0
    17e8:	00040000 	andeq	r0, r4, r0
    17ec:	000008b8 			; <UNDEFINED> instruction: 0x000008b8
    17f0:	000008bc 			; <UNDEFINED> instruction: 0x000008bc
    17f4:	9f320002 	svcls	0x00320002
	...
    1800:	00000007 	andeq	r0, r0, r7
    1804:	06d00006 	ldrbeq	r0, [r0], r6
    1808:	06e00000 	strbteq	r0, [r0], r0
    180c:	00040000 	andeq	r0, r4, r0
    1810:	9f7dd091 	svcls	0x007dd091
    1814:	000006e0 	andeq	r0, r0, r0, ror #13
    1818:	00000700 	andeq	r0, r0, r0, lsl #14
    181c:	b8550001 	ldmdalt	r5, {r0}^
    1820:	bc000008 	stclt	0, cr0, [r0], {8}
    1824:	04000008 	streq	r0, [r0], #-8
    1828:	7dd09100 	ldfvcp	f1, [r0]
    182c:	0000009f 	muleq	r0, pc, r0	; <UNPREDICTABLE>
    1830:	00000000 	andeq	r0, r0, r0
    1834:	00000100 	andeq	r0, r0, r0, lsl #2
    1838:	00070c00 	andeq	r0, r7, r0, lsl #24
    183c:	0007ec00 	andeq	lr, r7, r0, lsl #24
    1840:	08000300 	stmdaeq	r0, {r8, r9}
    1844:	08949f80 	ldmeq	r4, {r7, r8, r9, sl, fp, ip, pc}
    1848:	08a80000 	stmiaeq	r8!, {}	; <UNPREDICTABLE>
    184c:	00030000 	andeq	r0, r3, r0
    1850:	009f8008 	addseq	r8, pc, r8
	...
    185c:	0c000000 	stceq	0, cr0, [r0], {-0}
    1860:	ec000007 	stc	0, cr0, [r0], {7}
    1864:	02000007 	andeq	r0, r0, #7, 0
    1868:	949f3000 	ldrls	r3, [pc], #0	; 1870 <__code_start__-0x6790>
    186c:	a8000008 	stmdage	r0, {r3}
    1870:	02000008 	andeq	r0, r0, #8, 0
    1874:	009f3000 	addseq	r3, pc, r0
	...
    1880:	0c000000 	stceq	0, cr0, [r0], {-0}
    1884:	d0000007 	andle	r0, r0, r7
    1888:	01000007 	tsteq	r0, r7
    188c:	08945500 	ldmeq	r4, {r8, sl, ip, lr}
    1890:	08a80000 	stmiaeq	r8!, {}	; <UNPREDICTABLE>
    1894:	00010000 	andeq	r0, r1, r0
    1898:	00000055 	andeq	r0, r0, r5, asr r0
	...
    18a4:	0c000000 	stceq	0, cr0, [r0], {-0}
    18a8:	d0000007 	andle	r0, r0, r7
    18ac:	04000007 	streq	r0, [r0], #-7
    18b0:	7dd09100 	ldfvcp	f1, [r0]
    18b4:	0007d09f 	muleq	r7, pc, r0	; <UNPREDICTABLE>
    18b8:	0007ec00 	andeq	lr, r7, r0, lsl #24
    18bc:	55000100 	strpl	r0, [r0, #-256]	; 0xffffff00
    18c0:	00000894 	muleq	r0, r4, r8
    18c4:	000008a8 	andeq	r0, r0, r8, lsr #17
    18c8:	d0910004 	addsle	r0, r1, r4
    18cc:	00009f7d 	andeq	r9, r0, sp, ror pc
	...
    18d8:	070c0000 	streq	r0, [ip, -r0]
    18dc:	07ec0000 	strbeq	r0, [ip, r0]!
    18e0:	00020000 	andeq	r0, r2, r0
    18e4:	08949f32 	ldmeq	r4, {r1, r4, r5, r8, r9, sl, fp, ip, pc}
    18e8:	08a80000 	stmiaeq	r8!, {}	; <UNPREDICTABLE>
    18ec:	00020000 	andeq	r0, r2, r0
    18f0:	00009f32 	andeq	r9, r0, r2, lsr pc
    18f4:	00000000 	andeq	r0, r0, r0
    18f8:	05030000 	streq	r0, [r3, #-0]
    18fc:	00000005 	andeq	r0, r0, r5
    1900:	00000000 	andeq	r0, r0, r0
    1904:	0000070c 	andeq	r0, r0, ip, lsl #14
    1908:	0000070c 	andeq	r0, r0, ip, lsl #14
    190c:	0c510001 	mrrceq	0, 0, r0, r1, cr1
    1910:	1c000007 	stcne	0, cr0, [r0], {7}
    1914:	01000007 	tsteq	r0, r7
    1918:	071c5300 	ldreq	r5, [ip, -r0, lsl #6]
    191c:	07240000 	streq	r0, [r4, -r0]!
    1920:	00030000 	andeq	r0, r3, r0
    1924:	249f0172 	ldrcs	r0, [pc], #370	; 192c <__code_start__-0x66d4>
    1928:	cc000007 	stcgt	0, cr0, [r0], {7}
    192c:	01000007 	tsteq	r0, r7
    1930:	08945300 	ldmeq	r4, {r8, r9, ip, lr}
    1934:	08a80000 	stmiaeq	r8!, {}	; <UNPREDICTABLE>
    1938:	00010000 	andeq	r0, r1, r0
    193c:	00000053 	andeq	r0, r0, r3, asr r0
    1940:	00000000 	andeq	r0, r0, r0
    1944:	01000500 	tsteq	r0, r0, lsl #10
    1948:	00070c00 	andeq	r0, r7, r0, lsl #24
    194c:	00072000 	andeq	r2, r7, r0
    1950:	50000100 	andpl	r0, r0, r0, lsl #2
    1954:	00000724 	andeq	r0, r0, r4, lsr #14
    1958:	0000072c 	andeq	r0, r0, ip, lsr #14
    195c:	00500001 	subseq	r0, r0, r1
    1960:	00000000 	andeq	r0, r0, r0
    1964:	03000000 	movweq	r0, #0
    1968:	28010001 	stmdacs	r1, {r0}
    196c:	b0000007 	andlt	r0, r0, r7
    1970:	01000007 	tsteq	r0, r7
    1974:	08945500 	ldmeq	r4, {r8, sl, ip, lr}
    1978:	08a00000 	stmiaeq	r0!, {}	; <UNPREDICTABLE>
    197c:	00010000 	andeq	r0, r1, r0
    1980:	00000055 	andeq	r0, r0, r5, asr r0
    1984:	00000000 	andeq	r0, r0, r0
    1988:	00010300 	andeq	r0, r1, r0, lsl #6
    198c:	00072801 	andeq	r2, r7, r1, lsl #16
    1990:	0007b000 	andeq	fp, r7, r0
    1994:	51000100 	mrspl	r0, (UNDEF: 16)
    1998:	00000894 	muleq	r0, r4, r8
    199c:	000008a0 	andeq	r0, r0, r0, lsr #17
    19a0:	00510001 	subseq	r0, r1, r1
    19a4:	00000000 	andeq	r0, r0, r0
    19a8:	03000000 	movweq	r0, #0
    19ac:	01010000 	mrseq	r0, (UNDEF: 1)
    19b0:	03030101 	movweq	r0, #12545	; 0x3101
    19b4:	28010002 	stmdacs	r1, {r1}
    19b8:	50000007 	andpl	r0, r0, r7
    19bc:	01000007 	tsteq	r0, r7
    19c0:	07745300 	ldrbeq	r5, [r4, -r0, lsl #6]!
    19c4:	07740000 	ldrbeq	r0, [r4, -r0]!
    19c8:	00010000 	andeq	r0, r1, r0
    19cc:	0007745e 	andeq	r7, r7, lr, asr r4
    19d0:	00078800 	andeq	r8, r7, r0, lsl #16
    19d4:	7e000300 	cdpvc	3, 0, cr0, cr0, cr0, {0}
    19d8:	07889f01 	streq	r9, [r8, r1, lsl #30]
    19dc:	07940000 	ldreq	r0, [r4, r0]
    19e0:	00030000 	andeq	r0, r3, r0
    19e4:	949f027e 	ldrls	r0, [pc], #638	; 19ec <__code_start__-0x6614>
    19e8:	98000007 	stmdals	r0, {r0, r1, r2}
    19ec:	03000007 	movweq	r0, #7
    19f0:	9f037e00 	svcls	0x00037e00
    19f4:	00000894 	muleq	r0, r4, r8
    19f8:	000008a0 	andeq	r0, r0, r0, lsr #17
    19fc:	00530001 	subseq	r0, r3, r1
	...
    1a08:	01010000 	mrseq	r0, (UNDEF: 1)
    1a0c:	01010101 	tsteq	r1, r1, lsl #2
    1a10:	2c010002 	stccs	0, cr0, [r1], {2}
    1a14:	50000007 	andpl	r0, r0, r7
    1a18:	01000007 	tsteq	r0, r7
    1a1c:	07745000 	ldrbeq	r5, [r4, -r0]!
    1a20:	07840000 	streq	r0, [r4, r0]
    1a24:	00010000 	andeq	r0, r1, r0
    1a28:	00078450 	andeq	r8, r7, r0, asr r4
    1a2c:	00079400 	andeq	r9, r7, r0, lsl #8
    1a30:	5b000100 	blpl	1e38 <__code_start__-0x61c8>
    1a34:	00000794 	muleq	r0, r4, r7
    1a38:	00000798 	muleq	r0, r8, r7
    1a3c:	98500001 	ldmdals	r0, {r0}^
    1a40:	98000007 	stmdals	r0, {r0, r1, r2}
    1a44:	03000007 	movweq	r0, #7
    1a48:	9f017000 	svcls	0x00017000
    1a4c:	00000894 	muleq	r0, r4, r8
    1a50:	000008a0 	andeq	r0, r0, r0, lsr #17
    1a54:	00500001 	subseq	r0, r0, r1
    1a58:	00000000 	andeq	r0, r0, r0
    1a5c:	01000000 	mrseq	r0, (UNDEF: 0)
    1a60:	b0000100 	andlt	r0, r0, r0, lsl #2
    1a64:	ec000007 	stc	0, cr0, [r0], {7}
    1a68:	01000007 	tsteq	r0, r7
    1a6c:	08a05100 	stmiaeq	r0!, {r8, ip, lr}
    1a70:	08a80000 	stmiaeq	r8!, {}	; <UNPREDICTABLE>
    1a74:	00010000 	andeq	r0, r1, r0
    1a78:	00000051 	andeq	r0, r0, r1, asr r0
    1a7c:	00000000 	andeq	r0, r0, r0
    1a80:	00000100 	andeq	r0, r0, r0, lsl #2
    1a84:	01010000 	mrseq	r0, (UNDEF: 1)
    1a88:	b0000100 	andlt	r0, r0, r0, lsl #2
    1a8c:	b4000007 	strlt	r0, [r0], #-7
    1a90:	06000007 	streq	r0, [r0], -r7
    1a94:	7c007300 	stcvc	3, cr7, [r0], {-0}
    1a98:	d49f2200 	ldrle	r2, [pc], #512	; 1aa0 <__code_start__-0x6560>
    1a9c:	d8000007 	stmdale	r0, {r0, r1, r2}
    1aa0:	03000007 	movweq	r0, #7
    1aa4:	9f7f7300 	svcls	0x007f7300
    1aa8:	000007d8 	ldrdeq	r0, [r0], -r8
    1aac:	000007e0 	andeq	r0, r0, r0, ror #15
    1ab0:	e0530001 	subs	r0, r3, r1
    1ab4:	e8000007 	stmda	r0, {r0, r1, r2}
    1ab8:	03000007 	movweq	r0, #7
    1abc:	9f7f7300 	svcls	0x007f7300
    1ac0:	000008a0 	andeq	r0, r0, r0, lsr #17
    1ac4:	000008a8 	andeq	r0, r0, r8, lsr #17
    1ac8:	00530001 	subseq	r0, r3, r1
    1acc:	00000000 	andeq	r0, r0, r0
    1ad0:	01000000 	mrseq	r0, (UNDEF: 0)
    1ad4:	b0000100 	andlt	r0, r0, r0, lsl #2
    1ad8:	ec000007 	stc	0, cr0, [r0], {7}
    1adc:	03000007 	movweq	r0, #7
    1ae0:	9f800800 	svcls	0x00800800
    1ae4:	000008a0 	andeq	r0, r0, r0, lsr #17
    1ae8:	000008a8 	andeq	r0, r0, r8, lsr #17
    1aec:	80080003 	andhi	r0, r8, r3
    1af0:	0000009f 	muleq	r0, pc, r0	; <UNPREDICTABLE>
    1af4:	00000000 	andeq	r0, r0, r0
    1af8:	00000100 	andeq	r0, r0, r0, lsl #2
    1afc:	01010000 	mrseq	r0, (UNDEF: 1)
    1b00:	01000000 	mrseq	r0, (UNDEF: 0)
    1b04:	0007b000 	andeq	fp, r7, r0
    1b08:	0007d000 	andeq	sp, r7, r0
    1b0c:	91000400 	tstls	r0, r0, lsl #8
    1b10:	d09f7dd0 			; <UNDEFINED> instruction: 0xd09f7dd0
    1b14:	d4000007 	strle	r0, [r0], #-7
    1b18:	01000007 	tsteq	r0, r7
    1b1c:	07d45500 	ldrbeq	r5, [r4, r0, lsl #10]
    1b20:	07d40000 	ldrbeq	r0, [r4, r0]
    1b24:	00030000 	andeq	r0, r3, r0
    1b28:	d49f017c 	ldrle	r0, [pc], #380	; 1b30 <__code_start__-0x64d0>
    1b2c:	e0000007 	and	r0, r0, r7
    1b30:	03000007 	movweq	r0, #7
    1b34:	9f027c00 	svcls	0x00027c00
    1b38:	000007e0 	andeq	r0, r0, r0, ror #15
    1b3c:	000007ec 	andeq	r0, r0, ip, ror #15
    1b40:	017c0003 	cmneq	ip, r3
    1b44:	0008a09f 	muleq	r8, pc, r0	; <UNPREDICTABLE>
    1b48:	0008a800 	andeq	sl, r8, r0, lsl #16
    1b4c:	91000400 	tstls	r0, r0, lsl #8
    1b50:	009f7dd0 			; <UNDEFINED> instruction: 0x009f7dd0
    1b54:	00000000 	andeq	r0, r0, r0
    1b58:	04000000 	streq	r0, [r0], #-0
    1b5c:	b0000400 	andlt	r0, r0, r0, lsl #8
    1b60:	b4000007 	strlt	r0, [r0], #-7
    1b64:	03000007 	movweq	r0, #7
    1b68:	9f017000 	svcls	0x00017000
    1b6c:	000008a0 	andeq	r0, r0, r0, lsr #17
    1b70:	000008a8 	andeq	r0, r0, r8, lsr #17
    1b74:	01700003 	cmneq	r0, r3
    1b78:	0000009f 	muleq	r0, pc, r0	; <UNPREDICTABLE>
    1b7c:	00000000 	andeq	r0, r0, r0
    1b80:	00000100 	andeq	r0, r0, r0, lsl #2
    1b84:	0007bc00 	andeq	fp, r7, r0, lsl #24
    1b88:	0007d000 	andeq	sp, r7, r0
    1b8c:	91000400 	tstls	r0, r0, lsl #8
    1b90:	d09f7dd0 			; <UNDEFINED> instruction: 0xd09f7dd0
    1b94:	ec000007 	stc	0, cr0, [r0], {7}
    1b98:	01000007 	tsteq	r0, r7
    1b9c:	00005500 	andeq	r5, r0, r0, lsl #10
	...
    1ba8:	03280000 			; <UNDEFINED> instruction: 0x03280000
    1bac:	03640000 	cmneq	r4, #0, 0
    1bb0:	00010000 	andeq	r0, r1, r0
    1bb4:	00036450 	andeq	r6, r3, r0, asr r4
    1bb8:	00038800 	andeq	r8, r3, r0, lsl #16
    1bbc:	f3000400 	vshl.u8	d0, d0, d0
    1bc0:	009f5001 	addseq	r5, pc, r1
	...
    1bcc:	28000000 	stmdacs	r0, {}	; <UNPREDICTABLE>
    1bd0:	5c000003 	stcpl	0, cr0, [r0], {3}
    1bd4:	01000003 	tsteq	r0, r3
    1bd8:	035c5100 	cmpeq	ip, #0
    1bdc:	03880000 	orreq	r0, r8, #0, 0
    1be0:	00040000 	andeq	r0, r4, r0
    1be4:	9f5101f3 	svcls	0x005101f3
	...
    1c0c:	00000014 	andeq	r0, r0, r4, lsl r0
    1c10:	14500001 	ldrbne	r0, [r0], #-1
    1c14:	20000000 	andcs	r0, r0, r0
    1c18:	01000000 	mrseq	r0, (UNDEF: 0)
    1c1c:	00205c00 	eoreq	r5, r0, r0, lsl #24
    1c20:	00680000 	rsbeq	r0, r8, r0
    1c24:	00030000 	andeq	r0, r3, r0
    1c28:	689f0271 	ldmvs	pc, {r0, r4, r5, r6, r9}	; <UNPREDICTABLE>
    1c2c:	6c000000 	stcvs	0, cr0, [r0], {-0}
    1c30:	03000000 	movweq	r0, #0
    1c34:	9f027300 	svcls	0x00027300
    1c38:	0000006c 	andeq	r0, r0, ip, rrx
    1c3c:	00000194 	muleq	r0, r4, r1
    1c40:	01f30004 	mvnseq	r0, r4
    1c44:	01949f50 	orrseq	r9, r4, r0, asr pc
    1c48:	01980000 	orrseq	r0, r8, r0
    1c4c:	00030000 	andeq	r0, r3, r0
    1c50:	989f0273 	ldmls	pc, {r0, r1, r4, r5, r6, r9}	; <UNPREDICTABLE>
    1c54:	c0000001 	andgt	r0, r0, r1
    1c58:	04000001 	streq	r0, [r0], #-1
    1c5c:	5001f300 	andpl	pc, r1, r0, lsl #6
    1c60:	0001c09f 	muleq	r1, pc, r0	; <UNPREDICTABLE>
    1c64:	0001c800 	andeq	ip, r1, r0, lsl #16
    1c68:	5c000100 	stfpls	f0, [r0], {-0}
    1c6c:	000001c8 	andeq	r0, r0, r8, asr #3
    1c70:	00000214 	andeq	r0, r0, r4, lsl r2
    1c74:	02730003 	rsbseq	r0, r3, #3, 0
    1c78:	0002149f 	muleq	r2, pc, r4	; <UNPREDICTABLE>
    1c7c:	0002ec00 	andeq	lr, r2, r0, lsl #24
    1c80:	f3000400 	vshl.u8	d0, d0, d0
    1c84:	ec9f5001 	ldc	0, cr5, [pc], {1}
    1c88:	f4000002 	vst4.8	{d0-d3}, [r0], r2
    1c8c:	03000002 	movweq	r0, #2
    1c90:	9f027300 	svcls	0x00027300
    1c94:	000002f4 	strdeq	r0, [r0], -r4
    1c98:	00000328 	andeq	r0, r0, r8, lsr #6
    1c9c:	01f30004 	mvnseq	r0, r4
    1ca0:	00009f50 	andeq	r9, r0, r0, asr pc
	...
    1cb4:	001c0000 	andseq	r0, ip, r0
    1cb8:	00010000 	andeq	r0, r1, r0
    1cbc:	00001c51 	andeq	r1, r0, r1, asr ip
    1cc0:	0002e000 	andeq	lr, r2, r0
    1cc4:	50000100 	andpl	r0, r0, r0, lsl #2
    1cc8:	000002e0 	andeq	r0, r0, r0, ror #5
    1ccc:	000002ec 	andeq	r0, r0, ip, ror #5
    1cd0:	01f30004 	mvnseq	r0, r4
    1cd4:	02ec9f51 	rsceq	r9, ip, #324	; 0x144
    1cd8:	03280000 			; <UNDEFINED> instruction: 0x03280000
    1cdc:	00010000 	andeq	r0, r1, r0
    1ce0:	00000050 	andeq	r0, r0, r0, asr r0
	...
    1cec:	00010000 	andeq	r0, r1, r0
    1cf0:	00000000 	andeq	r0, r0, r0
    1cf4:	02020000 	andeq	r0, r2, #0, 0
	...
    1d0c:	00007000 	andeq	r7, r0, r0
    1d10:	52000100 	andpl	r0, r0, #0
    1d14:	00000070 	andeq	r0, r0, r0, ror r0
    1d18:	00000078 	andeq	r0, r0, r8, ror r0
    1d1c:	785c0001 	ldmdavc	ip, {r0}^
    1d20:	a4000000 	strge	r0, [r0], #-0
    1d24:	04000000 	streq	r0, [r0], #-0
    1d28:	5201f300 	andpl	pc, r1, #0, 6
    1d2c:	0001949f 	muleq	r1, pc, r4	; <UNPREDICTABLE>
    1d30:	00019c00 	andeq	r9, r1, r0, lsl #24
    1d34:	52000100 	andpl	r0, r0, #0
    1d38:	0000019c 	muleq	r0, ip, r1
    1d3c:	000001a4 	andeq	r0, r0, r4, lsr #3
    1d40:	a45c0001 	ldrbge	r0, [ip], #-1
    1d44:	c0000001 	andgt	r0, r0, r1
    1d48:	04000001 	streq	r0, [r0], #-1
    1d4c:	5201f300 	andpl	pc, r1, #0, 6
    1d50:	0001c09f 	muleq	r1, pc, r0	; <UNPREDICTABLE>
    1d54:	00022000 	andeq	r2, r2, r0
    1d58:	52000100 	andpl	r0, r0, #0
    1d5c:	00000220 	andeq	r0, r0, r0, lsr #4
    1d60:	00000228 	andeq	r0, r0, r8, lsr #4
    1d64:	00720004 	rsbseq	r0, r2, r4
    1d68:	02289f1f 	eoreq	r9, r8, #124	; 0x7c
    1d6c:	02740000 	rsbseq	r0, r4, #0, 0
    1d70:	00050000 	andeq	r0, r5, r0
    1d74:	1f5201f3 	svcne	0x005201f3
    1d78:	0002749f 	muleq	r2, pc, r4	; <UNPREDICTABLE>
    1d7c:	00028800 	andeq	r8, r2, r0, lsl #16
    1d80:	52000100 	andpl	r0, r0, #0
    1d84:	00000288 	andeq	r0, r0, r8, lsl #5
    1d88:	000002a0 	andeq	r0, r0, r0, lsr #5
    1d8c:	cc5c0001 	mrrcgt	0, 0, r0, ip, cr1
    1d90:	d0000002 	andle	r0, r0, r2
    1d94:	01000002 	tsteq	r0, r2
    1d98:	02d05200 	sbcseq	r5, r0, #0, 4
    1d9c:	02e70000 	rsceq	r0, r7, #0, 0
    1da0:	00010000 	andeq	r0, r1, r0
    1da4:	0002e75c 	andeq	lr, r2, ip, asr r7
    1da8:	0002ec00 	andeq	lr, r2, r0, lsl #24
    1dac:	f3000400 	vshl.u8	d0, d0, d0
    1db0:	ec9f5201 	lfm	f5, 4, [pc], {1}
    1db4:	00000002 	andeq	r0, r0, r2
    1db8:	01000003 	tsteq	r0, r3
    1dbc:	03005200 	movweq	r5, #512	; 0x200
    1dc0:	03280000 			; <UNDEFINED> instruction: 0x03280000
    1dc4:	00010000 	andeq	r0, r1, r0
    1dc8:	0000005c 	andeq	r0, r0, ip, asr r0
	...
    1de0:	68000000 	stmdavs	r0, {}	; <UNPREDICTABLE>
    1de4:	01000000 	mrseq	r0, (UNDEF: 0)
    1de8:	00685300 	rsbeq	r5, r8, r0, lsl #6
    1dec:	006c0000 	rsbeq	r0, ip, r0
    1df0:	00030000 	andeq	r0, r3, r0
    1df4:	949f7f08 	ldrls	r7, [pc], #3848	; 1dfc <__code_start__-0x6204>
    1df8:	98000001 	stmdals	r0, {r0}
    1dfc:	03000001 	movweq	r0, #1
    1e00:	9f7f0800 	svcls	0x007f0800
    1e04:	000001c0 	andeq	r0, r0, r0, asr #3
    1e08:	00000214 	andeq	r0, r0, r4, lsl r2
    1e0c:	7f080003 	svcvc	0x00080003
    1e10:	0002749f 	muleq	r2, pc, r4	; <UNPREDICTABLE>
    1e14:	00029000 	andeq	r9, r2, r0
    1e18:	53000100 	movwpl	r0, #256	; 0x100
    1e1c:	00000290 	muleq	r0, r0, r2
    1e20:	000002a0 	andeq	r0, r0, r0, lsr #5
    1e24:	01f30004 	mvnseq	r0, r4
    1e28:	02ec9f53 	rsceq	r9, ip, #332	; 0x14c
    1e2c:	03280000 			; <UNDEFINED> instruction: 0x03280000
    1e30:	00030000 	andeq	r0, r3, r0
    1e34:	009f7f08 	addseq	r7, pc, r8, lsl #30
    1e38:	00000000 	andeq	r0, r0, r0
    1e3c:	01000000 	mrseq	r0, (UNDEF: 0)
    1e40:	00000000 	andeq	r0, r0, r0
    1e44:	00000202 	andeq	r0, r0, r2, lsl #4
    1e48:	00000101 	andeq	r0, r0, r1, lsl #2
    1e4c:	00000000 	andeq	r0, r0, r0
    1e50:	02020000 	andeq	r0, r2, #0, 0
    1e54:	01000000 	mrseq	r0, (UNDEF: 0)
	...
    1e60:	00000101 	andeq	r0, r0, r1, lsl #2
    1e64:	02020000 	andeq	r0, r2, #0, 0
    1e68:	00000000 	andeq	r0, r0, r0
    1e6c:	01010000 	mrseq	r0, (UNDEF: 1)
    1e70:	18000000 	stmdane	r0, {}	; <UNPREDICTABLE>
    1e74:	70000000 	andvc	r0, r0, r0
    1e78:	04000000 	streq	r0, [r0], #-0
    1e7c:	7fa09100 	svcvc	0x00a09100
    1e80:	0000709f 	muleq	r0, pc, r0	; <UNPREDICTABLE>
    1e84:	00007800 	andeq	r7, r0, r0, lsl #16
    1e88:	52000100 	andpl	r0, r0, #0
    1e8c:	00000078 	andeq	r0, r0, r8, ror r0
    1e90:	00000078 	andeq	r0, r0, r8, ror r0
    1e94:	78540001 	ldmdavc	r4, {r0}^
    1e98:	88000000 	stmdahi	r0, {}	; <UNPREDICTABLE>
    1e9c:	03000000 	movweq	r0, #0
    1ea0:	9f017400 	svcls	0x00017400
    1ea4:	00000088 	andeq	r0, r0, r8, lsl #1
    1ea8:	00000090 	muleq	r0, r0, r0
    1eac:	90540001 	subsls	r0, r4, r1
    1eb0:	a0000000 	andge	r0, r0, r0
    1eb4:	03000000 	movweq	r0, #0
    1eb8:	9f027400 	svcls	0x00027400
    1ebc:	000000a0 	andeq	r0, r0, r0, lsr #1
    1ec0:	000000b0 	strheq	r0, [r0], -r0	; <UNPREDICTABLE>
    1ec4:	945e0001 	ldrbls	r0, [lr], #-1
    1ec8:	9c000001 	stcls	0, cr0, [r0], {1}
    1ecc:	04000001 	streq	r0, [r0], #-1
    1ed0:	7fa09100 	svcvc	0x00a09100
    1ed4:	00019c9f 	muleq	r1, pc, ip	; <UNPREDICTABLE>
    1ed8:	0001a400 	andeq	sl, r1, r0, lsl #8
    1edc:	52000100 	andpl	r0, r0, #0
    1ee0:	000001a4 	andeq	r0, r0, r4, lsr #3
    1ee4:	000001a4 	andeq	r0, r0, r4, lsr #3
    1ee8:	a45e0001 	ldrbge	r0, [lr], #-1
    1eec:	b4000001 	strlt	r0, [r0], #-1
    1ef0:	03000001 	movweq	r0, #1
    1ef4:	9f017e00 	svcls	0x00017e00
    1ef8:	000001b4 			; <UNDEFINED> instruction: 0x000001b4
    1efc:	000001c0 	andeq	r0, r0, r0, asr #3
    1f00:	c05e0001 	subsgt	r0, lr, r1
    1f04:	28000001 	stmdacs	r0, {r0}
    1f08:	04000002 	streq	r0, [r0], #-2
    1f0c:	7fa09100 	svcvc	0x00a09100
    1f10:	0002289f 	muleq	r2, pc, r8	; <UNPREDICTABLE>
    1f14:	00023400 	andeq	r3, r2, r0, lsl #8
    1f18:	52000100 	andpl	r0, r0, #0
    1f1c:	00000234 	andeq	r0, r0, r4, lsr r2
    1f20:	00000258 	andeq	r0, r0, r8, asr r2
    1f24:	585e0001 	ldmdapl	lr, {r0}^
    1f28:	5c000002 	stcpl	0, cr0, [r0], {2}
    1f2c:	03000002 	movweq	r0, #2
    1f30:	9f017e00 	svcls	0x00017e00
    1f34:	0000025c 	andeq	r0, r0, ip, asr r2
    1f38:	00000264 	andeq	r0, r0, r4, ror #4
    1f3c:	645e0001 	ldrbvs	r0, [lr], #-1
    1f40:	70000002 	andvc	r0, r0, r2
    1f44:	03000002 	movweq	r0, #2
    1f48:	9f027100 	svcls	0x00027100
    1f4c:	00000270 	andeq	r0, r0, r0, ror r2
    1f50:	00000274 	andeq	r0, r0, r4, ror r2
    1f54:	745e0001 	ldrbvc	r0, [lr], #-1
    1f58:	74000002 	strvc	r0, [r0], #-2
    1f5c:	04000002 	streq	r0, [r0], #-2
    1f60:	7fa09100 	svcvc	0x00a09100
    1f64:	0002749f 	muleq	r2, pc, r4	; <UNPREDICTABLE>
    1f68:	0002a000 	andeq	sl, r2, r0
    1f6c:	91000400 	tstls	r0, r0, lsl #8
    1f70:	c09f7fa1 	addsgt	r7, pc, r1, lsr #31
    1f74:	c8000002 	stmdagt	r0, {r1}
    1f78:	01000002 	tsteq	r0, r2
    1f7c:	02c85e00 	sbceq	r5, r8, #0, 28
    1f80:	02cc0000 	sbceq	r0, ip, #0, 0
    1f84:	00010000 	andeq	r0, r1, r0
    1f88:	0002cc56 	andeq	ip, r2, r6, asr ip
    1f8c:	0002ec00 	andeq	lr, r2, r0, lsl #24
    1f90:	91000400 	tstls	r0, r0, lsl #8
    1f94:	ec9f7fa0 	ldc	15, cr7, [pc], {160}	; 0xa0
    1f98:	fc000002 	stc2	0, cr0, [r0], {2}
    1f9c:	04000002 	streq	r0, [r0], #-2
    1fa0:	7fa19100 	svcvc	0x00a19100
    1fa4:	0002fc9f 	muleq	r2, pc, ip	; <UNPREDICTABLE>
    1fa8:	00032800 	andeq	r2, r3, r0, lsl #16
    1fac:	5e000100 	adfpls	f0, f0, f0
	...
    1fc4:	01000000 	mrseq	r0, (UNDEF: 0)
    1fc8:	00000001 	andeq	r0, r0, r1
	...
    1fd8:	00200000 	eoreq	r0, r0, r0
    1fdc:	00700000 	rsbseq	r0, r0, r0
    1fe0:	00010000 	andeq	r0, r1, r0
    1fe4:	00007052 	andeq	r7, r0, r2, asr r0
    1fe8:	00009400 	andeq	r9, r0, r0, lsl #8
    1fec:	5c000100 	stfpls	f0, [r0], {-0}
    1ff0:	00000194 	muleq	r0, r4, r1
    1ff4:	0000019c 	muleq	r0, ip, r1
    1ff8:	9c520001 	mrrcls	0, 0, r0, r2, cr1
    1ffc:	c0000001 	andgt	r0, r0, r1
    2000:	01000001 	tsteq	r0, r1
    2004:	01c85c00 	biceq	r5, r8, r0, lsl #24
    2008:	02100000 	andseq	r0, r0, #0, 0
    200c:	00010000 	andeq	r0, r1, r0
    2010:	0002105c 	andeq	r1, r2, ip, asr r0
    2014:	00022400 	andeq	r2, r2, r0, lsl #8
    2018:	52000100 	andpl	r0, r0, #0
    201c:	00000224 	andeq	r0, r0, r4, lsr #4
    2020:	00000248 	andeq	r0, r0, r8, asr #4
    2024:	485c0001 	ldmdami	ip, {r0}^
    2028:	5c000002 	stcpl	0, cr0, [r0], {2}
    202c:	01000002 	tsteq	r0, r2
    2030:	025c5500 	subseq	r5, ip, #0, 10
    2034:	02680000 	rsbeq	r0, r8, #0, 0
    2038:	00010000 	andeq	r0, r1, r0
    203c:	0002685c 	andeq	r6, r2, ip, asr r8
    2040:	00027400 	andeq	r7, r2, r0, lsl #8
    2044:	75001900 	strvc	r1, [r0, #-2304]	; 0xfffff700
    2048:	f72cf700 			; <UNDEFINED> instruction: 0xf72cf700
    204c:	f7007625 			; <UNDEFINED> instruction: 0xf7007625
    2050:	1e25f72c 	cdpne	7, 2, cr15, cr5, cr12, {1}
    2054:	25f72008 	ldrbcs	r2, [r7, #8]!
    2058:	f72cf725 			; <UNDEFINED> instruction: 0xf72cf725
    205c:	9f253300 	svcls	0x00253300
    2060:	00000274 	andeq	r0, r0, r4, ror r2
    2064:	00000288 	andeq	r0, r0, r8, lsl #5
    2068:	88520001 	ldmdahi	r2, {r0}^
    206c:	a0000002 	andge	r0, r0, r2
    2070:	01000002 	tsteq	r0, r2
    2074:	02cc5c00 	sbceq	r5, ip, #0, 24
    2078:	02d00000 	sbcseq	r0, r0, #0, 0
    207c:	00010000 	andeq	r0, r1, r0
    2080:	0002d052 	andeq	sp, r2, r2, asr r0
    2084:	0002e700 	andeq	lr, r2, r0, lsl #14
    2088:	5c000100 	stfpls	f0, [r0], {-0}
    208c:	000002e7 	andeq	r0, r0, r7, ror #5
    2090:	000002ec 	andeq	r0, r0, ip, ror #5
    2094:	01f30004 	mvnseq	r0, r4
    2098:	02ec9f52 	rsceq	r9, ip, #328	; 0x148
    209c:	03000000 	movweq	r0, #0
    20a0:	00010000 	andeq	r0, r1, r0
    20a4:	00030052 	andeq	r0, r3, r2, asr r0
    20a8:	00032800 	andeq	r2, r3, r0, lsl #16
    20ac:	5c000100 	stfpls	f0, [r0], {-0}
	...
    20b8:	00040004 	andeq	r0, r4, r4
    20bc:	00000100 	andeq	r0, r0, r0, lsl #2
    20c0:	00a40004 	adceq	r0, r4, r4
    20c4:	00b00000 	adcseq	r0, r0, r0
    20c8:	00010000 	andeq	r0, r1, r0
    20cc:	00027c53 	andeq	r7, r2, r3, asr ip
    20d0:	00029000 	andeq	r9, r2, r0
    20d4:	53000100 	movwpl	r0, #256	; 0x100
    20d8:	00000290 	muleq	r0, r0, r2
    20dc:	0000029c 	muleq	r0, ip, r2
    20e0:	01f30004 	mvnseq	r0, r4
    20e4:	02c09f53 	sbceq	r9, r0, #332	; 0x14c
    20e8:	02cc0000 	sbceq	r0, ip, #0, 0
    20ec:	00010000 	andeq	r0, r1, r0
    20f0:	0002f053 	andeq	pc, r2, r3, asr r0	; <UNPREDICTABLE>
    20f4:	00032800 	andeq	r2, r3, r0, lsl #16
    20f8:	08000300 	stmdaeq	r0, {r8, r9}
    20fc:	00009f7f 	andeq	r9, r0, pc, ror pc
    2100:	00000000 	andeq	r0, r0, r0
    2104:	00040000 	andeq	r0, r4, r0
    2108:	00040100 	andeq	r0, r4, r0, lsl #2
    210c:	00000100 	andeq	r0, r0, r0, lsl #2
    2110:	00040000 	andeq	r0, r4, r0
    2114:	00a40000 	adceq	r0, r4, r0
    2118:	00b00000 	adcseq	r0, r0, r0
    211c:	00010000 	andeq	r0, r1, r0
    2120:	0000b052 	andeq	fp, r0, r2, asr r0
    2124:	00015c00 	andeq	r5, r1, r0, lsl #24
    2128:	91000400 	tstls	r0, r0, lsl #8
    212c:	7c9f7fa0 	ldcvc	15, cr7, [pc], {160}	; 0xa0
    2130:	94000002 	strls	r0, [r0], #-2
    2134:	04000002 	streq	r0, [r0], #-2
    2138:	7fa09100 	svcvc	0x00a09100
    213c:	0002949f 	muleq	r2, pc, r4	; <UNPREDICTABLE>
    2140:	00029c00 	andeq	r9, r2, r0, lsl #24
    2144:	5e000100 	adfpls	f0, f0, f0
    2148:	000002b4 			; <UNDEFINED> instruction: 0x000002b4
    214c:	000002c0 	andeq	r0, r0, r0, asr #5
    2150:	a0910004 	addsge	r0, r1, r4
    2154:	02c09f7f 	sbceq	r9, r0, #508	; 0x1fc
    2158:	02cc0000 	sbceq	r0, ip, #0, 0
    215c:	00010000 	andeq	r0, r1, r0
    2160:	0002f052 	andeq	pc, r2, r2, asr r0	; <UNPREDICTABLE>
    2164:	00030000 	andeq	r0, r3, r0
    2168:	91000400 	tstls	r0, r0, lsl #8
    216c:	009f7fa0 	addseq	r7, pc, r0, lsr #31
    2170:	28000003 	stmdacs	r0, {r0, r1}
    2174:	01000003 	tsteq	r0, r3
    2178:	00005200 	andeq	r5, r0, r0, lsl #4
    217c:	00000000 	andeq	r0, r0, r0
    2180:	00040000 	andeq	r0, r4, r0
    2184:	01010100 	mrseq	r0, (UNDEF: 17)
    2188:	02030301 	andeq	r0, r3, #67108864	; 0x4000000
    218c:	00000104 	andeq	r0, r0, r4, lsl #2
    2190:	00040000 	andeq	r0, r4, r0
    2194:	00a40000 	adceq	r0, r4, r0
    2198:	00b00000 	adcseq	r0, r0, r0
    219c:	00010000 	andeq	r0, r1, r0
    21a0:	00010c5e 	andeq	r0, r1, lr, asr ip
    21a4:	00010c00 	andeq	r0, r1, r0, lsl #24
    21a8:	55000100 	strpl	r0, [r0, #-256]	; 0xffffff00
    21ac:	0000010c 	andeq	r0, r0, ip, lsl #2
    21b0:	00000120 	andeq	r0, r0, r0, lsr #2
    21b4:	01750003 	cmneq	r5, r3
    21b8:	0001209f 	muleq	r1, pc, r0	; <UNPREDICTABLE>
    21bc:	00012c00 	andeq	r2, r1, r0, lsl #24
    21c0:	75000300 	strvc	r0, [r0, #-768]	; 0xfffffd00
    21c4:	012c9f02 			; <UNDEFINED> instruction: 0x012c9f02
    21c8:	01300000 	teqeq	r0, r0
    21cc:	00030000 	andeq	r0, r3, r0
    21d0:	7c9f0375 	ldcvc	3, cr0, [pc], {117}	; 0x75
    21d4:	9c000002 	stcls	0, cr0, [r0], {2}
    21d8:	04000002 	streq	r0, [r0], #-2
    21dc:	7fa19100 	svcvc	0x00a19100
    21e0:	0002c09f 	muleq	r2, pc, r0	; <UNPREDICTABLE>
    21e4:	0002c800 	andeq	ip, r2, r0, lsl #16
    21e8:	5e000100 	adfpls	f0, f0, f0
    21ec:	000002c8 	andeq	r0, r0, r8, asr #5
    21f0:	000002cc 	andeq	r0, r0, ip, asr #5
    21f4:	f0560001 			; <UNDEFINED> instruction: 0xf0560001
    21f8:	fc000002 	stc2	0, cr0, [r0], {2}
    21fc:	04000002 	streq	r0, [r0], #-2
    2200:	7fa19100 	svcvc	0x00a19100
    2204:	0002fc9f 	muleq	r2, pc, ip	; <UNPREDICTABLE>
    2208:	00032800 	andeq	r2, r3, r0, lsl #16
    220c:	5e000100 	adfpls	f0, f0, f0
	...
    2218:	01000000 	mrseq	r0, (UNDEF: 0)
    221c:	01010101 	tsteq	r1, r1, lsl #2
    2220:	01060201 	tsteq	r6, r1, lsl #4
    2224:	00060000 	andeq	r0, r6, r0
    2228:	000000a8 	andeq	r0, r0, r8, lsr #1
    222c:	000000b0 	strheq	r0, [r0], -r0	; <UNPREDICTABLE>
    2230:	0c510001 	mrrceq	0, 0, r0, r1, cr1
    2234:	1c000001 	stcne	0, cr0, [r0], {1}
    2238:	01000001 	tsteq	r0, r1
    223c:	011c5c00 	tsteq	ip, r0, lsl #24
    2240:	012c0000 			; <UNDEFINED> instruction: 0x012c0000
    2244:	00010000 	andeq	r0, r1, r0
    2248:	00012c58 	andeq	r2, r1, r8, asr ip
    224c:	00013000 	andeq	r3, r1, r0
    2250:	5c000100 	stfpls	f0, [r0], {-0}
    2254:	00000130 	andeq	r0, r0, r0, lsr r1
    2258:	00000130 	andeq	r0, r0, r0, lsr r1
    225c:	017c0003 	cmneq	ip, r3
    2260:	00027c9f 	muleq	r2, pc, ip	; <UNPREDICTABLE>
    2264:	00029c00 	andeq	r9, r2, r0, lsl #24
    2268:	31000200 	mrscc	r0, R8_usr
    226c:	0002c09f 	muleq	r2, pc, r0	; <UNPREDICTABLE>
    2270:	0002cc00 	andeq	ip, r2, r0, lsl #24
    2274:	51000100 	mrspl	r0, (UNDEF: 16)
    2278:	000002f0 	strdeq	r0, [r0], -r0	; <UNPREDICTABLE>
    227c:	00000328 	andeq	r0, r0, r8, lsr #6
    2280:	9f310002 	svcls	0x00310002
	...
    228c:	01060601 	tsteq	r6, r1, lsl #12
    2290:	01000001 	tsteq	r0, r1
    2294:	0000015c 	andeq	r0, r0, ip, asr r1
    2298:	0000015c 	andeq	r0, r0, ip, asr r1
    229c:	a0910004 	addsge	r0, r1, r4
    22a0:	015c9f7f 	cmpeq	ip, pc, ror pc
    22a4:	018c0000 	orreq	r0, ip, r0
    22a8:	00010000 	andeq	r0, r1, r0
    22ac:	00029c52 	andeq	r9, r2, r2, asr ip
    22b0:	0002a000 	andeq	sl, r2, r0
    22b4:	5e000100 	adfpls	f0, f0, f0
    22b8:	000002a0 	andeq	r0, r0, r0, lsr #5
    22bc:	000002ac 	andeq	r0, r0, ip, lsr #5
    22c0:	00520001 	subseq	r0, r2, r1
	...
    22cc:	01010000 	mrseq	r0, (UNDEF: 1)
    22d0:	6c070100 	stfvss	f0, [r7], {-0}
    22d4:	70000001 	andvc	r0, r0, r1
    22d8:	03000001 	movweq	r0, #1
    22dc:	9f7f7300 	svcls	0x007f7300
    22e0:	00000170 	andeq	r0, r0, r0, ror r1
    22e4:	00000178 	andeq	r0, r0, r8, ror r1
    22e8:	78530001 	ldmdavc	r3, {r0}^
    22ec:	84000001 	strhi	r0, [r0], #-1
    22f0:	03000001 	movweq	r0, #1
    22f4:	9f7f7300 	svcls	0x007f7300
    22f8:	0000029c 	muleq	r0, ip, r2
    22fc:	0000029c 	muleq	r0, ip, r2
    2300:	a1910004 	orrsge	r0, r1, r4
    2304:	00009f7f 	andeq	r9, r0, pc, ror pc
    2308:	00000000 	andeq	r0, r0, r0
    230c:	01010000 	mrseq	r0, (UNDEF: 1)
    2310:	015c0101 	cmpeq	ip, r1, lsl #2
    2314:	018c0000 	orreq	r0, ip, r0
    2318:	00030000 	andeq	r0, r3, r0
    231c:	9c9f8008 	ldcls	0, cr8, [pc], {8}
    2320:	ac000002 	stcge	0, cr0, [r0], {2}
    2324:	03000002 	movweq	r0, #2
    2328:	9f800800 	svcls	0x00800800
	...
    2334:	01000001 	tsteq	r0, r1
    2338:	01000001 	tsteq	r0, r1
    233c:	01010101 	tsteq	r1, r1, lsl #2
    2340:	015c0101 	cmpeq	ip, r1, lsl #2
    2344:	016c0000 	cmneq	ip, r0
    2348:	00010000 	andeq	r0, r1, r0
    234c:	00016c50 	andeq	r6, r1, r0, asr ip
    2350:	00016c00 	andeq	r6, r1, r0, lsl #24
    2354:	7c000300 	stcvc	3, cr0, [r0], {-0}
    2358:	016c9f01 	cmneq	ip, r1, lsl #30
    235c:	01780000 	cmneq	r8, r0
    2360:	00030000 	andeq	r0, r3, r0
    2364:	789f027c 	ldmvc	pc, {r2, r3, r4, r5, r6, r9}	; <UNPREDICTABLE>
    2368:	88000001 	stmdahi	r0, {r0}
    236c:	03000001 	movweq	r0, #1
    2370:	9f017c00 	svcls	0x00017c00
    2374:	00000188 	andeq	r0, r0, r8, lsl #3
    2378:	0000018c 	andeq	r0, r0, ip, lsl #3
    237c:	017e0003 	cmneq	lr, r3
    2380:	00029c9f 	muleq	r2, pc, ip	; <UNPREDICTABLE>
    2384:	0002a400 	andeq	sl, r2, r0, lsl #8
    2388:	50000100 	andpl	r0, r0, r0, lsl #2
    238c:	000002a4 	andeq	r0, r0, r4, lsr #5
    2390:	000002ac 	andeq	r0, r0, ip, lsr #5
    2394:	017e0003 	cmneq	lr, r3
    2398:	0000009f 	muleq	r0, pc, r0	; <UNPREDICTABLE>
    239c:	00000000 	andeq	r0, r0, r0
    23a0:	04000400 	streq	r0, [r0], #-1024	; 0xfffffc00
    23a4:	5c010000 	stcpl	0, cr0, [r1], {-0}
    23a8:	60000001 	andvs	r0, r0, r1
    23ac:	03000001 	movweq	r0, #1
    23b0:	9f017100 	svcls	0x00017100
    23b4:	0000029c 	muleq	r0, ip, r2
    23b8:	000002a0 	andeq	r0, r0, r0, lsr #5
    23bc:	9f320002 	svcls	0x00320002
    23c0:	000002a0 	andeq	r0, r0, r0, lsr #5
    23c4:	000002ac 	andeq	r0, r0, ip, lsr #5
    23c8:	01710003 	cmneq	r1, r3
    23cc:	0000009f 	muleq	r0, pc, r0	; <UNPREDICTABLE>
    23d0:	00000000 	andeq	r0, r0, r0
    23d4:	06000700 	streq	r0, [r0], -r0, lsl #14
    23d8:	00015c00 	andeq	r5, r1, r0, lsl #24
    23dc:	00019400 	andeq	r9, r1, r0, lsl #8
    23e0:	50000100 	andpl	r0, r0, r0, lsl #2
    23e4:	0000029c 	muleq	r0, ip, r2
    23e8:	000002b4 			; <UNDEFINED> instruction: 0x000002b4
    23ec:	00500001 	subseq	r0, r0, r1
    23f0:	00000000 	andeq	r0, r0, r0
    23f4:	01000000 	mrseq	r0, (UNDEF: 0)
    23f8:	14000101 	strne	r0, [r0], #-257	; 0xfffffeff
    23fc:	20000002 	andcs	r0, r0, r2
    2400:	02000002 	andeq	r0, r0, #2, 0
    2404:	209f3000 	addscs	r3, pc, r0
    2408:	34000002 	strcc	r0, [r0], #-2
    240c:	02000002 	andeq	r0, r0, #2, 0
    2410:	009f3100 	addseq	r3, pc, r0, lsl #2
	...
    241c:	00000101 	andeq	r0, r0, r1, lsl #2
    2420:	00000101 	andeq	r0, r0, r1, lsl #2
    2424:	00000101 	andeq	r0, r0, r1, lsl #2
    2428:	00000101 	andeq	r0, r0, r1, lsl #2
    242c:	00000101 	andeq	r0, r0, r1, lsl #2
    2430:	80010202 	andhi	r0, r1, r2, lsl #4
    2434:	80000000 	andhi	r0, r0, r0
    2438:	01000000 	mrseq	r0, (UNDEF: 0)
    243c:	00805300 	addeq	r5, r0, r0, lsl #6
    2440:	008c0000 	addeq	r0, ip, r0
    2444:	00030000 	andeq	r0, r3, r0
    2448:	8c9f0473 	cfldrshi	mvf0, [pc], {115}	; 0x73
    244c:	94000000 	strls	r0, [r0], #-0
    2450:	01000000 	mrseq	r0, (UNDEF: 0)
    2454:	00945100 	addseq	r5, r4, r0, lsl #2
    2458:	00980000 	addseq	r0, r8, r0
    245c:	00030000 	andeq	r0, r3, r0
    2460:	989f0873 	ldmls	pc, {r0, r1, r4, r5, r6, fp}	; <UNPREDICTABLE>
    2464:	a4000000 	strge	r0, [r0], #-0
    2468:	01000000 	mrseq	r0, (UNDEF: 0)
    246c:	00a45100 	adceq	r5, r4, r0, lsl #2
    2470:	00a80000 	adceq	r0, r8, r0
    2474:	00030000 	andeq	r0, r3, r0
    2478:	a89f0c73 	ldmge	pc, {r0, r1, r4, r5, r6, sl, fp}	; <UNPREDICTABLE>
    247c:	b4000000 	strlt	r0, [r0], #-0
    2480:	01000000 	mrseq	r0, (UNDEF: 0)
    2484:	00b45100 	adcseq	r5, r4, r0, lsl #2
    2488:	00b80000 	adcseq	r0, r8, r0
    248c:	00030000 	andeq	r0, r3, r0
    2490:	b89f1073 	ldmlt	pc, {r0, r1, r4, r5, r6, ip}	; <UNPREDICTABLE>
    2494:	c4000000 	strgt	r0, [r0], #-0
    2498:	01000000 	mrseq	r0, (UNDEF: 0)
    249c:	00c45100 	sbceq	r5, r4, r0, lsl #2
    24a0:	00c80000 	sbceq	r0, r8, r0
    24a4:	00030000 	andeq	r0, r3, r0
    24a8:	c89f1473 	ldmgt	pc, {r0, r1, r4, r5, r6, sl, ip}	; <UNPREDICTABLE>
    24ac:	d0000000 	andle	r0, r0, r0
    24b0:	01000000 	mrseq	r0, (UNDEF: 0)
    24b4:	00d05100 	sbcseq	r5, r0, r0, lsl #2
    24b8:	00d40000 	sbcseq	r0, r4, r0
    24bc:	00030000 	andeq	r0, r3, r0
    24c0:	009f0471 	addseq	r0, pc, r1, ror r4	; <UNPREDICTABLE>
    24c4:	00000000 	andeq	r0, r0, r0
    24c8:	01000000 	mrseq	r0, (UNDEF: 0)
    24cc:	00010800 	andeq	r0, r1, r0, lsl #16
    24d0:	00010b00 	andeq	r0, r1, r0, lsl #22
    24d4:	51000100 	mrspl	r0, (UNDEF: 16)
	...
    24e0:	00d80002 	sbcseq	r0, r8, r2
    24e4:	01100000 	tsteq	r0, r0
    24e8:	00020000 	andeq	r0, r2, r0
    24ec:	00009f31 	andeq	r9, r0, r1, lsr pc
    24f0:	00000000 	andeq	r0, r0, r0
    24f4:	03050000 	movweq	r0, #20480	; 0x5000
    24f8:	000000e0 	andeq	r0, r0, r0, ror #1
    24fc:	000000e4 	andeq	r0, r0, r4, ror #1
    2500:	9f300002 	svcls	0x00300002
	...
    250c:	00e40001 	rsceq	r0, r4, r1
    2510:	00ef0000 	rsceq	r0, pc, r0
    2514:	00010000 	andeq	r0, r1, r0
    2518:	00000053 	andeq	r0, r0, r3, asr r0
    251c:	00000000 	andeq	r0, r0, r0
    2520:	e4010000 	str	r0, [r1], #-0
    2524:	ec000000 	stc	0, cr0, [r0], {-0}
    2528:	01000000 	mrseq	r0, (UNDEF: 0)
    252c:	00005300 	andeq	r5, r0, r0, lsl #6
    2530:	00000000 	andeq	r0, r0, r0
    2534:	00040000 	andeq	r0, r4, r0
    2538:	00f00100 	rscseq	r0, r0, r0, lsl #2
    253c:	01040000 	mrseq	r0, (UNDEF: 4)
    2540:	00020000 	andeq	r0, r2, r0
    2544:	01049f30 	tsteq	r4, r0, lsr pc
    2548:	01080000 	mrseq	r0, (UNDEF: 8)
    254c:	00010000 	andeq	r0, r1, r0
    2550:	00000051 	andeq	r0, r0, r1, asr r0
    2554:	00000000 	andeq	r0, r0, r0
    2558:	f4000100 	vst4.8	{d0,d2,d4,d6}, [r0], r0
    255c:	0b000000 	bleq	2564 <__code_start__-0x5a9c>
    2560:	01000001 	tsteq	r0, r1
    2564:	00005300 	andeq	r5, r0, r0, lsl #6
    2568:	00000000 	andeq	r0, r0, r0
    256c:	01000000 	mrseq	r0, (UNDEF: 0)
    2570:	000000f4 	strdeq	r0, [r0], -r4
    2574:	00000108 	andeq	r0, r0, r8, lsl #2
    2578:	00530001 	subseq	r0, r3, r1
    257c:	00000000 	andeq	r0, r0, r0
    2580:	04000000 	streq	r0, [r0], #-0
    2584:	58010000 	stmdapl	r1, {}	; <UNPREDICTABLE>
    2588:	6000009c 	mulvs	r0, ip, r0
    258c:	0200009c 	andeq	r0, r0, #156, 0	; 0x9c
    2590:	609f3000 	addsvs	r3, pc, r0
    2594:	6000009c 	mulvs	r0, ip, r0
    2598:	0100009c 	swpeq	r0, ip, [r0]	; <UNPREDICTABLE>
    259c:	00005300 	andeq	r5, r0, r0, lsl #6
    25a0:	00000000 	andeq	r0, r0, r0
    25a4:	00030000 	andeq	r0, r3, r0
    25a8:	00000000 	andeq	r0, r0, r0
    25ac:	9c6c0000 	stclls	0, cr0, [ip], #-0
    25b0:	9c700000 	ldclls	0, cr0, [r0], #-0
    25b4:	00020000 	andeq	r0, r2, r0
    25b8:	9c709f30 	ldclls	15, cr9, [r0], #-192	; 0xffffff40
    25bc:	9c740000 	ldclls	0, cr0, [r4], #-0
    25c0:	00010000 	andeq	r0, r1, r0
    25c4:	009c7453 	addseq	r7, ip, r3, asr r4
    25c8:	009c7800 	addseq	r7, ip, r0, lsl #16
    25cc:	73000500 	movwvc	r0, #1280	; 0x500
    25d0:	9f214000 	svcls	0x00214000
    25d4:	00009c78 	andeq	r9, r0, r8, ror ip
    25d8:	00009c7c 	andeq	r9, r0, ip, ror ip
    25dc:	00530001 	subseq	r0, r3, r1
    25e0:	00000000 	andeq	r0, r0, r0
    25e4:	02000000 	andeq	r0, r0, #0, 0
    25e8:	2c000000 	stccs	0, cr0, [r0], {-0}
    25ec:	3000009c 	mulcc	r0, ip, r0
    25f0:	0200009c 	andeq	r0, r0, #156, 0	; 0x9c
    25f4:	309f3000 	addscc	r3, pc, r0
    25f8:	3400009c 	strcc	r0, [r0], #-156	; 0xffffff64
    25fc:	0100009c 	swpeq	r0, ip, [r0]	; <UNPREDICTABLE>
    2600:	00005000 	andeq	r5, r0, r0
    2604:	00000000 	andeq	r0, r0, r0
    2608:	00020000 	andeq	r0, r2, r0
    260c:	00000000 	andeq	r0, r0, r0
    2610:	9c440000 	marls	acc0, r0, r4
    2614:	9c480000 	marls	acc0, r0, r8
    2618:	00020000 	andeq	r0, r2, r0
    261c:	9c489f30 	mcrrls	15, 3, r9, r8, cr0
    2620:	9c4c0000 	marls	acc0, r0, ip
    2624:	00010000 	andeq	r0, r1, r0
    2628:	009c4c53 	addseq	r4, ip, r3, asr ip
    262c:	009c5000 	addseq	r5, ip, r0
    2630:	73000500 	movwvc	r0, #1280	; 0x500
    2634:	9f214000 	svcls	0x00214000
    2638:	00009c50 	andeq	r9, r0, r0, asr ip
    263c:	00009c58 	andeq	r9, r0, r8, asr ip
    2640:	00530001 	subseq	r0, r3, r1
	...
    264c:	c8000000 	stmdagt	r0, {}	; <UNPREDICTABLE>
    2650:	d8000000 	stmdale	r0, {}	; <UNPREDICTABLE>
    2654:	01000000 	mrseq	r0, (UNDEF: 0)
    2658:	00d85000 	sbcseq	r5, r8, r0
    265c:	011c0000 	tsteq	ip, r0
    2660:	00040000 	andeq	r0, r4, r0
    2664:	9f5001f3 	svcls	0x005001f3
	...
    2670:	00000002 	andeq	r0, r0, r2
    2674:	000000c8 	andeq	r0, r0, r8, asr #1
    2678:	000000d8 	ldrdeq	r0, [r0], -r8
    267c:	00700007 	rsbseq	r0, r0, r7
    2680:	1e03e80a 	cdpne	8, 0, cr14, cr3, cr10, {0}
    2684:	0000d89f 	muleq	r0, pc, r8	; <UNPREDICTABLE>
    2688:	00011c00 	andeq	r1, r1, r0, lsl #24
    268c:	f3000800 	vsub.i8	d0, d0, d0
    2690:	e80a5001 	stmda	sl, {r0, ip, lr}
    2694:	009f1e03 	addseq	r1, pc, r3, lsl #28
	...
    26a0:	0000dc00 	andeq	sp, r0, r0, lsl #24
    26a4:	00011c00 	andeq	r1, r1, r0, lsl #24
    26a8:	54000100 	strpl	r0, [r0], #-256	; 0xffffff00
	...
    26b4:	00f00001 	rscseq	r0, r0, r1
    26b8:	011c0000 	tsteq	ip, r0
    26bc:	00010000 	andeq	r0, r1, r0
    26c0:	00000056 	andeq	r0, r0, r6, asr r0
	...
    26cc:	0000ec00 	andeq	lr, r0, r0, lsl #24
    26d0:	0000ef00 	andeq	lr, r0, r0, lsl #30
    26d4:	50000100 	andpl	r0, r0, r0, lsl #2
    26d8:	000000ef 	andeq	r0, r0, pc, ror #1
    26dc:	0000011c 	andeq	r0, r0, ip, lsl r1
    26e0:	00560001 	subseq	r0, r6, r1
	...
    26ec:	00010400 	andeq	r0, r1, r0, lsl #8
    26f0:	00010b00 	andeq	r0, r1, r0, lsl #22
    26f4:	50000100 	andpl	r0, r0, r0, lsl #2
	...
    2704:	00000020 	andeq	r0, r0, r0, lsr #32
    2708:	00000023 	andeq	r0, r0, r3, lsr #32
    270c:	23500001 	cmpcs	r0, #1, 0
    2710:	30000000 	andcc	r0, r0, r0
    2714:	01000000 	mrseq	r0, (UNDEF: 0)
    2718:	00005400 	andeq	r5, r0, r0, lsl #8
	...
    2724:	00300000 	eorseq	r0, r0, r0
    2728:	003b0000 	eorseq	r0, fp, r0
    272c:	00010000 	andeq	r0, r1, r0
    2730:	00003b50 	andeq	r3, r0, r0, asr fp
    2734:	00007800 	andeq	r7, r0, r0, lsl #16
    2738:	56000100 	strpl	r0, [r0], -r0, lsl #2
	...
    2744:	004c0001 	subeq	r0, ip, r1
    2748:	00780000 	rsbseq	r0, r8, r0
    274c:	00010000 	andeq	r0, r1, r0
    2750:	00000055 	andeq	r0, r0, r5, asr r0
	...
    275c:	00004800 	andeq	r4, r0, r0, lsl #16
    2760:	00004b00 	andeq	r4, r0, r0, lsl #22
    2764:	50000100 	andpl	r0, r0, r0, lsl #2
    2768:	0000004b 	andeq	r0, r0, fp, asr #32
    276c:	00000078 	andeq	r0, r0, r8, ror r0
    2770:	00550001 	subseq	r0, r5, r1
	...
    277c:	00006000 	andeq	r6, r0, r0
    2780:	00006700 	andeq	r6, r0, r0, lsl #14
    2784:	50000100 	andpl	r0, r0, r0, lsl #2
	...
    2794:	00000078 	andeq	r0, r0, r8, ror r0
    2798:	00000084 	andeq	r0, r0, r4, lsl #1
    279c:	84500001 	ldrbhi	r0, [r0], #-1
    27a0:	c8000000 	stmdagt	r0, {}	; <UNPREDICTABLE>
    27a4:	04000000 	streq	r0, [r0], #-0
    27a8:	5001f300 	andpl	pc, r1, r0, lsl #6
    27ac:	0000009f 	muleq	r0, pc, r0	; <UNPREDICTABLE>
    27b0:	00000000 	andeq	r0, r0, r0
    27b4:	88000000 	stmdahi	r0, {}	; <UNPREDICTABLE>
    27b8:	c8000000 	stmdagt	r0, {}	; <UNPREDICTABLE>
    27bc:	01000000 	mrseq	r0, (UNDEF: 0)
    27c0:	00005400 	andeq	r5, r0, r0, lsl #8
    27c4:	00000000 	andeq	r0, r0, r0
    27c8:	00010000 	andeq	r0, r1, r0
    27cc:	0000009c 	muleq	r0, ip, r0
    27d0:	000000c8 	andeq	r0, r0, r8, asr #1
    27d4:	00560001 	subseq	r0, r6, r1
	...
    27e0:	98000000 	stmdals	r0, {}	; <UNPREDICTABLE>
    27e4:	9b000000 	blls	27ec <__code_start__-0x5814>
    27e8:	01000000 	mrseq	r0, (UNDEF: 0)
    27ec:	009b5000 	addseq	r5, fp, r0
    27f0:	00c80000 	sbceq	r0, r8, r0
    27f4:	00010000 	andeq	r0, r1, r0
    27f8:	00000056 	andeq	r0, r0, r6, asr r0
    27fc:	00000000 	andeq	r0, r0, r0
    2800:	b0000000 	andlt	r0, r0, r0
    2804:	b7000000 	strlt	r0, [r0, -r0]
    2808:	01000000 	mrseq	r0, (UNDEF: 0)
    280c:	00005000 	andeq	r5, r0, r0
	...
    2818:	01580000 	cmpeq	r8, r0
    281c:	01630000 	cmneq	r3, r0
    2820:	00010000 	andeq	r0, r1, r0
    2824:	00016350 	andeq	r6, r1, r0, asr r3
    2828:	00018800 	andeq	r8, r1, r0, lsl #16
    282c:	54000100 	strpl	r0, [r0], #-256	; 0xffffff00
	...
    2838:	01480000 	mrseq	r0, (UNDEF: 72)
    283c:	01580000 	cmpeq	r8, r0
    2840:	00010000 	andeq	r0, r1, r0
    2844:	00000054 	andeq	r0, r0, r4, asr r0
	...
    2854:	00000f00 	andeq	r0, r0, r0, lsl #30
    2858:	50000100 	andpl	r0, r0, r0, lsl #2
    285c:	0000000f 	andeq	r0, r0, pc
    2860:	00000020 	andeq	r0, r0, r0, lsr #32
    2864:	00540001 	subseq	r0, r4, r1
	...
    2874:	0f000000 	svceq	0x00000000
    2878:	01000000 	mrseq	r0, (UNDEF: 0)
    287c:	000f5100 	andeq	r5, pc, r0, lsl #2
    2880:	00200000 	eoreq	r0, r0, r0
    2884:	00010000 	andeq	r0, r1, r0
    2888:	00000055 	andeq	r0, r0, r5, asr r0
	...
    2894:	00002000 	andeq	r2, r0, r0
    2898:	00002f00 	andeq	r2, r0, r0, lsl #30
    289c:	50000100 	andpl	r0, r0, r0, lsl #2
    28a0:	0000002f 	andeq	r0, r0, pc, lsr #32
    28a4:	00000040 	andeq	r0, r0, r0, asr #32
    28a8:	00540001 	subseq	r0, r4, r1
	...
    28b4:	20000000 	andcs	r0, r0, r0
    28b8:	2f000000 	svccs	0x00000000
    28bc:	01000000 	mrseq	r0, (UNDEF: 0)
    28c0:	002f5100 	eoreq	r5, pc, r0, lsl #2
    28c4:	00400000 	subeq	r0, r0, r0
    28c8:	00010000 	andeq	r0, r1, r0
    28cc:	00000055 	andeq	r0, r0, r5, asr r0
	...
    28d8:	50000000 	andpl	r0, r0, r0
    28dc:	98000003 	stmdals	r0, {r0, r1}
    28e0:	01000003 	tsteq	r0, r3
    28e4:	03985000 	orrseq	r5, r8, #0, 0
    28e8:	039b0000 	orrseq	r0, fp, #0, 0
    28ec:	00020000 	andeq	r0, r2, r0
    28f0:	039b6891 	orrseq	r6, fp, #9502720	; 0x910000
    28f4:	03b00000 	movseq	r0, #0, 0
    28f8:	00040000 	andeq	r0, r4, r0
    28fc:	9f5001f3 	svcls	0x005001f3
	...
    291c:	00000220 	andeq	r0, r0, r0, lsr #4
    2920:	0000027b 	andeq	r0, r0, fp, ror r2
    2924:	7b500001 	blvc	1402930 <__bss_end__+0x13f75d8>
    2928:	84000002 	strhi	r0, [r0], #-2
    292c:	04000002 	streq	r0, [r0], #-2
    2930:	5001f300 	andpl	pc, r1, r0, lsl #6
    2934:	0002849f 	muleq	r2, pc, r4	; <UNPREDICTABLE>
    2938:	00029c00 	andeq	r9, r2, r0, lsl #24
    293c:	50000100 	andpl	r0, r0, r0, lsl #2
    2940:	0000029c 	muleq	r0, ip, r2
    2944:	000002a4 	andeq	r0, r0, r4, lsr #5
    2948:	01f30004 	mvnseq	r0, r4
    294c:	02a49f50 	adceq	r9, r4, #80, 30	; 0x140
    2950:	02a70000 	adceq	r0, r7, #0, 0
    2954:	00010000 	andeq	r0, r1, r0
    2958:	0002a750 	andeq	sl, r2, r0, asr r7
    295c:	0002c800 	andeq	ip, r2, r0, lsl #16
    2960:	f3000400 	vshl.u8	d0, d0, d0
    2964:	c89f5001 	ldmgt	pc, {r0, ip, lr}	; <UNPREDICTABLE>
    2968:	e0000002 	and	r0, r0, r2
    296c:	01000002 	tsteq	r0, r2
    2970:	02e05000 	rsceq	r5, r0, #0, 0
    2974:	02e80000 	rsceq	r0, r8, #0, 0
    2978:	00040000 	andeq	r0, r4, r0
    297c:	9f5001f3 	svcls	0x005001f3
    2980:	000002e8 	andeq	r0, r0, r8, ror #5
    2984:	000002eb 	andeq	r0, r0, fp, ror #5
    2988:	eb500001 	bl	1402994 <__bss_end__+0x13f763c>
    298c:	38000002 	stmdacc	r0, {r1}
    2990:	04000003 	streq	r0, [r0], #-3
    2994:	5001f300 	andpl	pc, r1, r0, lsl #6
    2998:	0000009f 	muleq	r0, pc, r0	; <UNPREDICTABLE>
	...
    29b4:	00022000 	andeq	r2, r2, r0
    29b8:	00024400 	andeq	r4, r2, r0, lsl #8
    29bc:	51000100 	mrspl	r0, (UNDEF: 16)
    29c0:	00000244 	andeq	r0, r0, r4, asr #4
    29c4:	00000268 	andeq	r0, r0, r8, ror #4
    29c8:	68510001 	ldmdavs	r1, {r0}^
    29cc:	7b000002 	blvc	29dc <__code_start__-0x5624>
    29d0:	03000002 	movweq	r0, #2
    29d4:	9f017100 	svcls	0x00017100
    29d8:	0000027b 	andeq	r0, r0, fp, ror r2
    29dc:	00000284 	andeq	r0, r0, r4, lsl #5
    29e0:	f3380017 	vqadd.u64	d0, d8, d7
    29e4:	01f35101 	mvnseq	r5, r1, lsl #2
    29e8:	244b4051 	strbcs	r4, [fp], #-81	; 0xffffffaf
    29ec:	00080c22 	andeq	r0, r8, r2, lsr #24
    29f0:	282d8000 	stmdacs	sp!, {pc}
    29f4:	13160001 	tstne	r6, #1, 0
    29f8:	0002849f 	muleq	r2, pc, r4	; <UNPREDICTABLE>
    29fc:	00029800 	andeq	r9, r2, r0, lsl #16
    2a00:	51000100 	mrspl	r0, (UNDEF: 16)
    2a04:	00000298 	muleq	r0, r8, r2
    2a08:	000002a4 	andeq	r0, r0, r4, lsr #5
    2a0c:	01f30004 	mvnseq	r0, r4
    2a10:	02a49f51 	adceq	r9, r4, #324	; 0x144
    2a14:	02a70000 	adceq	r0, r7, #0, 0
    2a18:	00010000 	andeq	r0, r1, r0
    2a1c:	0002a751 	andeq	sl, r2, r1, asr r7
    2a20:	0002c800 	andeq	ip, r2, r0, lsl #16
    2a24:	f3000400 	vshl.u8	d0, d0, d0
    2a28:	c89f5101 	ldmgt	pc, {r0, r8, ip, lr}	; <UNPREDICTABLE>
    2a2c:	dc000002 	stcle	0, cr0, [r0], {2}
    2a30:	01000002 	tsteq	r0, r2
    2a34:	02dc5100 	sbcseq	r5, ip, #0
    2a38:	03380000 	teqeq	r8, #0, 0
    2a3c:	00170000 	andseq	r0, r7, r0
    2a40:	5101f338 	tstpl	r1, r8, lsr r3	; <UNPREDICTABLE>
    2a44:	405101f3 	ldrshmi	r0, [r1], #-19	; 0xffffffed
    2a48:	0c22244b 	cfstrseq	mvf2, [r2], #-300	; 0xfffffed4
    2a4c:	80000008 	andhi	r0, r0, r8
    2a50:	0001282d 	andeq	r2, r1, sp, lsr #16
    2a54:	009f1316 	addseq	r1, pc, r6, lsl r3	; <UNPREDICTABLE>
	...
    2a68:	4c000000 	stcmi	0, cr0, [r0], {-0}
    2a6c:	5c000002 	stcpl	0, cr0, [r0], {2}
    2a70:	01000002 	tsteq	r0, r2
    2a74:	025c5200 	subseq	r5, ip, #0, 4
    2a78:	02640000 	rsbeq	r0, r4, #0, 0
    2a7c:	00050000 	andeq	r0, r5, r0
    2a80:	00af1803 	adceq	r1, pc, r3, lsl #16
    2a84:	00026400 	andeq	r6, r2, r0, lsl #8
    2a88:	00027b00 	andeq	r7, r2, r0, lsl #22
    2a8c:	53000100 	movwpl	r0, #256	; 0x100
    2a90:	000002c8 	andeq	r0, r0, r8, asr #5
    2a94:	000002d8 	ldrdeq	r0, [r0], -r8
    2a98:	d8520001 	ldmdale	r2, {r0}^
    2a9c:	e3000002 	movw	r0, #2
    2aa0:	05000002 	streq	r0, [r0, #-2]
    2aa4:	af180300 	svcge	0x00180300
    2aa8:	02e80000 	rsceq	r0, r8, #0, 0
    2aac:	02eb0000 	rsceq	r0, fp, #0, 0
    2ab0:	00010000 	andeq	r0, r1, r0
    2ab4:	00000053 	andeq	r0, r0, r3, asr r0
    2ab8:	00000000 	andeq	r0, r0, r0
    2abc:	30000400 	andcc	r0, r0, r0, lsl #8
    2ac0:	34000002 	strcc	r0, [r0], #-2
    2ac4:	01000002 	tsteq	r0, r2
    2ac8:	00005100 	andeq	r5, r0, r0, lsl #2
    2acc:	00000000 	andeq	r0, r0, r0
    2ad0:	00020000 	andeq	r0, r2, r0
    2ad4:	0000023c 	andeq	r0, r0, ip, lsr r2
    2ad8:	00000244 	andeq	r0, r0, r4, asr #4
    2adc:	9f380002 	svcls	0x00380002
	...
    2ae8:	023c0002 	eorseq	r0, ip, #2, 0
    2aec:	02440000 	subeq	r0, r4, #0, 0
    2af0:	00010000 	andeq	r0, r1, r0
    2af4:	00000051 	andeq	r0, r0, r1, asr r0
    2af8:	00000000 	andeq	r0, r0, r0
    2afc:	00000100 	andeq	r0, r0, r0, lsl #2
    2b00:	4c000000 	stcmi	0, cr0, [r0], {-0}
    2b04:	64000002 	strvs	r0, [r0], #-2
    2b08:	01000002 	tsteq	r0, r2
    2b0c:	02c85100 	sbceq	r5, r8, #0
    2b10:	02dc0000 	sbcseq	r0, ip, #0, 0
    2b14:	00010000 	andeq	r0, r1, r0
    2b18:	0002dc51 	andeq	sp, r2, r1, asr ip
    2b1c:	0002e800 	andeq	lr, r2, r0, lsl #16
    2b20:	38001700 	stmdacc	r0, {r8, r9, sl, ip}
    2b24:	f35101f3 	vbsl	q8, <illegal reg q8.5>, <illegal reg q9.5>
    2b28:	4b405101 	blmi	1016f34 <__bss_end__+0x100bbdc>
    2b2c:	080c2224 	stmdaeq	ip, {r2, r5, r9, sp}
    2b30:	2d800000 	stccs	0, cr0, [r0]
    2b34:	16000128 	strne	r0, [r0], -r8, lsr #2
    2b38:	00009f13 	andeq	r9, r0, r3, lsl pc
    2b3c:	00000000 	andeq	r0, r0, r0
    2b40:	00010000 	andeq	r0, r1, r0
    2b44:	00000000 	andeq	r0, r0, r0
    2b48:	024c0000 	subeq	r0, ip, #0, 0
    2b4c:	025c0000 	subseq	r0, ip, #0, 0
    2b50:	00010000 	andeq	r0, r1, r0
    2b54:	00025c52 	andeq	r5, r2, r2, asr ip
    2b58:	00026400 	andeq	r6, r2, r0, lsl #8
    2b5c:	03000500 	movweq	r0, #1280	; 0x500
    2b60:	0000af18 	andeq	sl, r0, r8, lsl pc
    2b64:	000002c8 	andeq	r0, r0, r8, asr #5
    2b68:	000002d8 	ldrdeq	r0, [r0], -r8
    2b6c:	d8520001 	ldmdale	r2, {r0}^
    2b70:	e3000002 	movw	r0, #2
    2b74:	05000002 	streq	r0, [r0, #-2]
    2b78:	af180300 	svcge	0x00180300
	...
    2b84:	00040000 	andeq	r0, r4, r0
    2b88:	0000024c 	andeq	r0, r0, ip, asr #4
    2b8c:	00000250 	andeq	r0, r0, r0, asr r2
    2b90:	00510001 	subseq	r0, r1, r1
    2b94:	00000000 	andeq	r0, r0, r0
    2b98:	03000000 	movweq	r0, #0
    2b9c:	00026400 	andeq	r6, r2, r0, lsl #8
    2ba0:	00026800 	andeq	r6, r2, r0, lsl #16
    2ba4:	51000100 	mrspl	r0, (UNDEF: 16)
	...
    2bb0:	02640003 	rsbeq	r0, r4, #3, 0
    2bb4:	02680000 	rsbeq	r0, r8, #0, 0
    2bb8:	00010000 	andeq	r0, r1, r0
    2bbc:	00000053 	andeq	r0, r0, r3, asr r0
	...
    2bcc:	0001bc00 	andeq	fp, r1, r0, lsl #24
    2bd0:	0001d300 	andeq	sp, r1, r0, lsl #6
    2bd4:	50000100 	andpl	r0, r0, r0, lsl #2
    2bd8:	000001d3 	ldrdeq	r0, [r0], -r3
    2bdc:	000001f0 	strdeq	r0, [r0], -r0	; <UNPREDICTABLE>
    2be0:	f0540001 			; <UNDEFINED> instruction: 0xf0540001
    2be4:	08000001 	stmdaeq	r0, {r0}
    2be8:	01000002 	tsteq	r0, r2
    2bec:	02085000 	andeq	r5, r8, #0, 0
    2bf0:	02200000 	eoreq	r0, r0, #0, 0
    2bf4:	00010000 	andeq	r0, r1, r0
    2bf8:	00000054 	andeq	r0, r0, r4, asr r0
	...
    2c04:	0001d800 	andeq	sp, r1, r0, lsl #16
    2c08:	0001e300 	andeq	lr, r1, r0, lsl #6
    2c0c:	50000100 	andpl	r0, r0, r0, lsl #2
    2c10:	000001e3 	andeq	r0, r0, r3, ror #3
    2c14:	000001f0 	strdeq	r0, [r0], -r0	; <UNPREDICTABLE>
    2c18:	00550001 	subseq	r0, r5, r1
	...
    2c30:	24000000 	strcs	r0, [r0], #-0
    2c34:	38000001 	stmdacc	r0, {r0}
    2c38:	01000001 	tsteq	r0, r1
    2c3c:	01385000 	teqeq	r8, r0
    2c40:	013c0000 	teqeq	ip, r0
    2c44:	00030000 	andeq	r0, r3, r0
    2c48:	3c9f7970 			; <UNDEFINED> instruction: 0x3c9f7970
    2c4c:	60000001 	andvs	r0, r0, r1
    2c50:	01000001 	tsteq	r0, r1
    2c54:	01605300 	cmneq	r0, r0, lsl #6
    2c58:	01780000 	cmneq	r8, r0
    2c5c:	00010000 	andeq	r0, r1, r0
    2c60:	00017850 	andeq	r7, r1, r0, asr r8
    2c64:	00018000 	andeq	r8, r1, r0
    2c68:	f3000400 	vshl.u8	d0, d0, d0
    2c6c:	809f5001 	addshi	r5, pc, r1
    2c70:	90000001 	andls	r0, r0, r1
    2c74:	01000001 	tsteq	r0, r1
    2c78:	01905300 	orrseq	r5, r0, r0, lsl #6
    2c7c:	019f0000 	orrseq	r0, pc, r0
    2c80:	00020000 	andeq	r0, r2, r0
    2c84:	019f6891 			; <UNDEFINED> instruction: 0x019f6891
    2c88:	01bc0000 			; <UNDEFINED> instruction: 0x01bc0000
    2c8c:	00090000 	andeq	r0, r9, r0
    2c90:	235001f3 	cmpcs	r0, #-1073741764	; 0xc000003c
    2c94:	1af80907 	bne	ffe050b8 <__bss_end__+0xffdf9d60>
    2c98:	0000009f 	muleq	r0, pc, r0	; <UNPREDICTABLE>
	...
    2ca4:	00014400 	andeq	r4, r1, r0, lsl #8
    2ca8:	00016000 	andeq	r6, r1, r0
    2cac:	50000100 	andpl	r0, r0, r0, lsl #2
    2cb0:	00000180 	andeq	r0, r0, r0, lsl #3
    2cb4:	0000019c 	muleq	r0, ip, r1
    2cb8:	00500001 	subseq	r0, r0, r1
    2cbc:	00000000 	andeq	r0, r0, r0
    2cc0:	03000000 	movweq	r0, #0
    2cc4:	00013400 	andeq	r3, r1, r0, lsl #8
    2cc8:	00013c00 	andeq	r3, r1, r0, lsl #24
    2ccc:	38000200 	stmdacc	r0, {r9}
    2cd0:	0000009f 	muleq	r0, pc, r0	; <UNPREDICTABLE>
    2cd4:	00000000 	andeq	r0, r0, r0
    2cd8:	00000300 	andeq	r0, r0, r0, lsl #6
    2cdc:	00013400 	andeq	r3, r1, r0, lsl #8
    2ce0:	00013800 	andeq	r3, r1, r0, lsl #16
    2ce4:	50000100 	andpl	r0, r0, r0, lsl #2
    2ce8:	00000138 	andeq	r0, r0, r8, lsr r1
    2cec:	0000013c 	andeq	r0, r0, ip, lsr r1
    2cf0:	79700003 	ldmdbvc	r0!, {r0, r1}^
    2cf4:	0000009f 	muleq	r0, pc, r0	; <UNPREDICTABLE>
	...
    2d08:	30000000 	andcc	r0, r0, r0
    2d0c:	60000000 	andvs	r0, r0, r0
    2d10:	01000000 	mrseq	r0, (UNDEF: 0)
    2d14:	00605000 	rsbeq	r5, r0, r0
    2d18:	006c0000 	rsbeq	r0, ip, r0
    2d1c:	00050000 	andeq	r0, r5, r0
    2d20:	00af1803 	adceq	r1, pc, r3, lsl #16
    2d24:	00006c00 	andeq	r6, r0, r0, lsl #24
    2d28:	00008400 	andeq	r8, r0, r0, lsl #8
    2d2c:	50000100 	andpl	r0, r0, r0, lsl #2
    2d30:	00000084 	andeq	r0, r0, r4, lsl #1
    2d34:	0000008c 	andeq	r0, r0, ip, lsl #1
    2d38:	01f30004 	mvnseq	r0, r4
    2d3c:	008c9f50 	addeq	r9, ip, r0, asr pc
    2d40:	00ac0000 	adceq	r0, ip, r0
    2d44:	00010000 	andeq	r0, r1, r0
    2d48:	0000ac50 	andeq	sl, r0, r0, asr ip
    2d4c:	0000af00 	andeq	sl, r0, r0, lsl #30
    2d50:	91000200 	mrsls	r0, R8_usr
    2d54:	0000af68 	andeq	sl, r0, r8, ror #30
    2d58:	0000cc00 	andeq	ip, r0, r0, lsl #24
    2d5c:	f3000400 	vshl.u8	d0, d0, d0
    2d60:	009f5001 	addseq	r5, pc, r1
	...
    2d70:	30000000 	andcc	r0, r0, r0
    2d74:	80000000 	andhi	r0, r0, r0
    2d78:	01000000 	mrseq	r0, (UNDEF: 0)
    2d7c:	00805100 	addeq	r5, r0, r0, lsl #2
    2d80:	008c0000 	addeq	r0, ip, r0
    2d84:	00040000 	andeq	r0, r4, r0
    2d88:	9f5101f3 	svcls	0x005101f3
    2d8c:	0000008c 	andeq	r0, r0, ip, lsl #1
    2d90:	000000a8 	andeq	r0, r0, r8, lsr #1
    2d94:	a8510001 	ldmdage	r1, {r0}^
    2d98:	cc000000 	stcgt	0, cr0, [r0], {-0}
    2d9c:	04000000 	streq	r0, [r0], #-0
    2da0:	5101f300 	mrspl	pc, SP_irq	; <UNPREDICTABLE>
    2da4:	0000009f 	muleq	r0, pc, r0	; <UNPREDICTABLE>
    2da8:	00000000 	andeq	r0, r0, r0
    2dac:	00000100 	andeq	r0, r0, r0, lsl #2
	...
    2db8:	38000000 	stmdacc	r0, {}	; <UNPREDICTABLE>
    2dbc:	60000000 	andvs	r0, r0, r0
    2dc0:	01000000 	mrseq	r0, (UNDEF: 0)
    2dc4:	00605000 	rsbeq	r5, r0, r0
    2dc8:	006c0000 	rsbeq	r0, ip, r0
    2dcc:	00050000 	andeq	r0, r5, r0
    2dd0:	00af1803 	adceq	r1, pc, r3, lsl #16
    2dd4:	00006c00 	andeq	r6, r0, r0, lsl #24
    2dd8:	00008400 	andeq	r8, r0, r0, lsl #8
    2ddc:	50000100 	andpl	r0, r0, r0, lsl #2
    2de0:	00000084 	andeq	r0, r0, r4, lsl #1
    2de4:	0000008c 	andeq	r0, r0, ip, lsl #1
    2de8:	01f30004 	mvnseq	r0, r4
    2dec:	008c9f50 	addeq	r9, ip, r0, asr pc
    2df0:	00ac0000 	adceq	r0, ip, r0
    2df4:	00010000 	andeq	r0, r1, r0
    2df8:	0000ac50 	andeq	sl, r0, r0, asr ip
    2dfc:	0000af00 	andeq	sl, r0, r0, lsl #30
    2e00:	91000200 	mrsls	r0, R8_usr
    2e04:	0000af68 	andeq	sl, r0, r8, ror #30
    2e08:	0000cc00 	andeq	ip, r0, r0, lsl #24
    2e0c:	f3000400 	vshl.u8	d0, d0, d0
    2e10:	009f5001 	addseq	r5, pc, r1
	...
    2e20:	00017000 	andeq	r7, r1, r0
    2e24:	00017c00 	andeq	r7, r1, r0, lsl #24
    2e28:	50000100 	andpl	r0, r0, r0, lsl #2
    2e2c:	0000017c 	andeq	r0, r0, ip, ror r1
    2e30:	00000188 	andeq	r0, r0, r8, lsl #3
    2e34:	88540001 	ldmdahi	r4, {r0}^
    2e38:	98000001 	stmdals	r0, {r0}
    2e3c:	04000001 	streq	r0, [r0], #-1
    2e40:	5001f300 	andpl	pc, r1, r0, lsl #6
    2e44:	0000009f 	muleq	r0, pc, r0	; <UNPREDICTABLE>
	...
    2e54:	78000000 	stmdavc	r0, {}	; <UNPREDICTABLE>
    2e58:	7c000001 	stcvc	0, cr0, [r0], {1}
    2e5c:	0b000001 	bleq	2e68 <__code_start__-0x5198>
    2e60:	35007000 	strcc	r7, [r0, #-0]
    2e64:	80b42325 	adcshi	r2, r4, r5, lsr #6
    2e68:	9f028180 	svcls	0x00028180
    2e6c:	0000017c 	andeq	r0, r0, ip, ror r1
    2e70:	00000180 	andeq	r0, r0, r0, lsl #3
    2e74:	0074000b 	rsbseq	r0, r4, fp
    2e78:	b4232535 	strtlt	r2, [r3], #-1333	; 0xfffffacb
    2e7c:	02818080 	addeq	r8, r1, #128, 0	; 0x80
    2e80:	0001809f 	muleq	r1, pc, r0	; <UNPREDICTABLE>
    2e84:	00018300 	andeq	r8, r1, r0, lsl #6
    2e88:	50000100 	andpl	r0, r0, r0, lsl #2
    2e8c:	00000183 	andeq	r0, r0, r3, lsl #3
    2e90:	00000188 	andeq	r0, r0, r8, lsl #3
    2e94:	0074000b 	rsbseq	r0, r4, fp
    2e98:	b4232535 	strtlt	r2, [r3], #-1333	; 0xfffffacb
    2e9c:	02818080 	addeq	r8, r1, #128, 0	; 0x80
    2ea0:	0001889f 	muleq	r1, pc, r8	; <UNPREDICTABLE>
    2ea4:	00019800 	andeq	r9, r1, r0, lsl #16
    2ea8:	f3000c00 			; <UNDEFINED> instruction: 0xf3000c00
    2eac:	25355001 	ldrcs	r5, [r5, #-1]!
    2eb0:	8080b423 	addhi	fp, r0, r3, lsr #8
    2eb4:	009f0281 	addseq	r0, pc, r1, lsl #5
    2eb8:	00000000 	andeq	r0, r0, r0
    2ebc:	01000000 	mrseq	r0, (UNDEF: 0)
    2ec0:	00000000 	andeq	r0, r0, r0
    2ec4:	00017800 	andeq	r7, r1, r0, lsl #16
    2ec8:	00017c00 	andeq	r7, r1, r0, lsl #24
    2ecc:	70000500 	andvc	r0, r0, r0, lsl #10
    2ed0:	9f1a4f00 	svcls	0x001a4f00
    2ed4:	0000017c 	andeq	r0, r0, ip, ror r1
    2ed8:	00000188 	andeq	r0, r0, r8, lsl #3
    2edc:	00740005 	rsbseq	r0, r4, r5
    2ee0:	889f1a4f 	ldmhi	pc, {r0, r1, r2, r3, r6, r9, fp, ip}	; <UNPREDICTABLE>
    2ee4:	98000001 	stmdals	r0, {r0}
    2ee8:	01000001 	tsteq	r0, r1
    2eec:	00005400 	andeq	r5, r0, r0, lsl #8
	...
    2f00:	01400000 	mrseq	r0, (UNDEF: 64)
    2f04:	01540000 	cmpeq	r4, r0
    2f08:	00010000 	andeq	r0, r1, r0
    2f0c:	00015450 	andeq	r5, r1, r0, asr r4
    2f10:	00015800 	andeq	r5, r1, r0, lsl #16
    2f14:	51000100 	mrspl	r0, (UNDEF: 16)
    2f18:	00000158 	andeq	r0, r0, r8, asr r1
    2f1c:	0000015c 	andeq	r0, r0, ip, asr r1
    2f20:	01f30004 	mvnseq	r0, r4
    2f24:	015c9f50 	cmpeq	ip, r0, asr pc
    2f28:	01600000 	cmneq	r0, r0
    2f2c:	00010000 	andeq	r0, r1, r0
    2f30:	00016050 	andeq	r6, r1, r0, asr r0
    2f34:	00016400 	andeq	r6, r1, r0, lsl #8
    2f38:	51000100 	mrspl	r0, (UNDEF: 16)
    2f3c:	00000164 	andeq	r0, r0, r4, ror #2
    2f40:	00000170 	andeq	r0, r0, r0, ror r1
    2f44:	01f30004 	mvnseq	r0, r4
    2f48:	00009f50 	andeq	r9, r0, r0, asr pc
	...
    2f54:	01400000 	mrseq	r0, (UNDEF: 64)
    2f58:	014c0000 	mrseq	r0, (UNDEF: 76)
    2f5c:	00010000 	andeq	r0, r1, r0
    2f60:	00014c51 	andeq	r4, r1, r1, asr ip
    2f64:	00017000 	andeq	r7, r1, r0
    2f68:	f3000400 	vshl.u8	d0, d0, d0
    2f6c:	009f5101 	addseq	r5, pc, r1, lsl #2
    2f70:	00000000 	andeq	r0, r0, r0
    2f74:	01000000 	mrseq	r0, (UNDEF: 0)
    2f78:	00000000 	andeq	r0, r0, r0
    2f7c:	00015000 	andeq	r5, r1, r0
    2f80:	00015400 	andeq	r5, r1, r0, lsl #8
    2f84:	50000100 	andpl	r0, r0, r0, lsl #2
    2f88:	00000154 	andeq	r0, r0, r4, asr r1
    2f8c:	00000158 	andeq	r0, r0, r8, asr r1
    2f90:	58510001 	ldmdapl	r1, {r0}^
    2f94:	5c000001 	stcpl	0, cr0, [r0], {1}
    2f98:	04000001 	streq	r0, [r0], #-1
    2f9c:	5001f300 	andpl	pc, r1, r0, lsl #6
    2fa0:	0000009f 	muleq	r0, pc, r0	; <UNPREDICTABLE>
    2fa4:	00000000 	andeq	r0, r0, r0
    2fa8:	00000200 	andeq	r0, r0, r0, lsl #4
    2fac:	5c000000 	stcpl	0, cr0, [r0], {-0}
    2fb0:	60000001 	andvs	r0, r0, r1
    2fb4:	01000001 	tsteq	r0, r1
    2fb8:	01605000 	cmneq	r0, r0
    2fbc:	01640000 	cmneq	r4, r0
    2fc0:	00010000 	andeq	r0, r1, r0
    2fc4:	00016451 	andeq	r6, r1, r1, asr r4
    2fc8:	00017000 	andeq	r7, r1, r0
    2fcc:	f3000400 	vshl.u8	d0, d0, d0
    2fd0:	009f5001 	addseq	r5, pc, r1
	...
    2fe0:	0000e800 	andeq	lr, r0, r0, lsl #16
    2fe4:	00010800 	andeq	r0, r1, r0, lsl #16
    2fe8:	50000100 	andpl	r0, r0, r0, lsl #2
    2fec:	00000108 	andeq	r0, r0, r8, lsl #2
    2ff0:	00000128 	andeq	r0, r0, r8, lsr #2
    2ff4:	28540001 	ldmdacs	r4, {r0}^
    2ff8:	40000001 	andmi	r0, r0, r1
    2ffc:	04000001 	streq	r0, [r0], #-1
    3000:	5001f300 	andpl	pc, r1, r0, lsl #6
    3004:	0000009f 	muleq	r0, pc, r0	; <UNPREDICTABLE>
    3008:	00000000 	andeq	r0, r0, r0
    300c:	00000200 	andeq	r0, r0, r0, lsl #4
    3010:	e8000000 	stmda	r0, {}	; <UNPREDICTABLE>
    3014:	08000000 	stmdaeq	r0, {}	; <UNPREDICTABLE>
    3018:	01000001 	tsteq	r0, r1
    301c:	01085000 	mrseq	r5, (UNDEF: 8)
    3020:	01280000 			; <UNDEFINED> instruction: 0x01280000
    3024:	00010000 	andeq	r0, r1, r0
    3028:	00012854 	andeq	r2, r1, r4, asr r8
    302c:	00014000 	andeq	r4, r1, r0
    3030:	f3000400 	vshl.u8	d0, d0, d0
    3034:	009f5001 	addseq	r5, pc, r1
	...
    3044:	0000f000 	andeq	pc, r0, r0
    3048:	00010800 	andeq	r0, r1, r0, lsl #16
    304c:	50000100 	andpl	r0, r0, r0, lsl #2
    3050:	00000108 	andeq	r0, r0, r8, lsl #2
    3054:	00000128 	andeq	r0, r0, r8, lsr #2
    3058:	28540001 	ldmdacs	r4, {r0}^
    305c:	40000001 	andmi	r0, r0, r1
    3060:	04000001 	streq	r0, [r0], #-1
    3064:	5001f300 	andpl	pc, r1, r0, lsl #6
    3068:	0000009f 	muleq	r0, pc, r0	; <UNPREDICTABLE>
    306c:	00000000 	andeq	r0, r0, r0
    3070:	00000300 	andeq	r0, r0, r0, lsl #6
    3074:	f0000000 			; <UNDEFINED> instruction: 0xf0000000
    3078:	08000000 	stmdaeq	r0, {}	; <UNPREDICTABLE>
    307c:	07000001 	streq	r0, [r0, -r1]
    3080:	3a007000 	bcc	1f088 <__bss_end__+0x13d30>
    3084:	9f1e331d 	svcls	0x001e331d
    3088:	00000108 	andeq	r0, r0, r8, lsl #2
    308c:	00000128 	andeq	r0, r0, r8, lsr #2
    3090:	00740007 	rsbseq	r0, r4, r7
    3094:	1e331d3a 	mrcne	13, 1, r1, cr3, cr10, {1}
    3098:	0001289f 	muleq	r1, pc, r8	; <UNPREDICTABLE>
    309c:	00014000 	andeq	r4, r1, r0
    30a0:	f3000800 	vsub.i8	d0, d0, d0
    30a4:	1d3a5001 	ldcne	0, cr5, [sl, #-4]!
    30a8:	009f1e33 	addseq	r1, pc, r3, lsr lr	; <UNPREDICTABLE>
	...
    30b8:	00011000 	andeq	r1, r1, r0
    30bc:	00013800 	andeq	r3, r1, r0, lsl #16
    30c0:	56000100 	strpl	r0, [r0], -r0, lsl #2
    30c4:	00000138 	andeq	r0, r0, r8, lsr r1
    30c8:	0000013b 	andeq	r0, r0, fp, lsr r1
    30cc:	3b500001 	blcc	14030d8 <__bss_end__+0x13f7d80>
    30d0:	40000001 	andmi	r0, r0, r1
    30d4:	26000001 	strcs	r0, [r0], -r1
    30d8:	5001f300 	andpl	pc, r1, r0, lsl #6
    30dc:	25f72cf7 	ldrbcs	r2, [r7, #3319]!	; 0xcf7
    30e0:	cd0825f4 	cfstr32gt	mvfx2, [r8, #-976]	; 0xfffffc30
    30e4:	00cccccc 	sbceq	ip, ip, ip, asr #25
    30e8:	1e000000 	cdpne	0, 0, cr0, cr0, cr0, {0}
    30ec:	25f72008 	ldrbcs	r2, [r7, #8]!
    30f0:	f72cf725 			; <UNDEFINED> instruction: 0xf72cf725
    30f4:	23253300 			; <UNDEFINED> instruction: 0x23253300
    30f8:	40a08080 	adcmi	r8, r0, r0, lsl #1
    30fc:	009f2432 	addseq	r2, pc, r2, lsr r4	; <UNPREDICTABLE>
	...
    3108:	00000101 	andeq	r0, r0, r1, lsl #2
    310c:	20000000 	andcs	r0, r0, r0
    3110:	20000001 	andcs	r0, r0, r1
    3114:	01000001 	tsteq	r0, r1
    3118:	01205000 			; <UNDEFINED> instruction: 0x01205000
    311c:	01280000 			; <UNDEFINED> instruction: 0x01280000
    3120:	000d0000 	andeq	r0, sp, r0
    3124:	3a007437 	bcc	20208 <__bss_end__+0x14eb0>
    3128:	241e331d 	ldrcs	r3, [lr], #-797	; 0xfffffce3
    312c:	1a007020 	bne	1f1b4 <__bss_end__+0x13e5c>
    3130:	0001289f 	muleq	r1, pc, r8	; <UNPREDICTABLE>
    3134:	00013000 	andeq	r3, r1, r0
    3138:	37000e00 	strcc	r0, [r0, -r0, lsl #28]
    313c:	3a5001f3 	bcc	1403910 <__bss_end__+0x13f85b8>
    3140:	241e331d 	ldrcs	r3, [lr], #-797	; 0xfffffce3
    3144:	1a007020 	bne	1f1cc <__bss_end__+0x13e74>
    3148:	0001309f 	muleq	r1, pc, r0	; <UNPREDICTABLE>
    314c:	00013b00 	andeq	r3, r1, r0, lsl #22
    3150:	37000e00 	strcc	r0, [r0, -r0, lsl #28]
    3154:	3a5001f3 	bcc	1403928 <__bss_end__+0x13f85d0>
    3158:	241e331d 	ldrcs	r3, [lr], #-797	; 0xfffffce3
    315c:	1a007320 	bne	1fde4 <__bss_end__+0x14a8c>
    3160:	0000009f 	muleq	r0, pc, r0	; <UNPREDICTABLE>
	...
    316c:	00006000 	andeq	r6, r0, r0
    3170:	00009000 	andeq	r9, r0, r0
    3174:	50000100 	andpl	r0, r0, r0, lsl #2
    3178:	00000090 	muleq	r0, r0, r0
    317c:	000000b8 	strheq	r0, [r0], -r8
    3180:	01f30004 	mvnseq	r0, r4
    3184:	00009f50 	andeq	r9, r0, r0, asr pc
    3188:	00000000 	andeq	r0, r0, r0
    318c:	00020000 	andeq	r0, r2, r0
    3190:	00600000 	rsbeq	r0, r0, r0
    3194:	00900000 	addseq	r0, r0, r0
    3198:	00010000 	andeq	r0, r1, r0
    319c:	00009050 	andeq	r9, r0, r0, asr r0
    31a0:	0000b800 	andeq	fp, r0, r0, lsl #16
    31a4:	f3000400 	vshl.u8	d0, d0, d0
    31a8:	009f5001 	addseq	r5, pc, r1
	...
    31b4:	68000000 	stmdavs	r0, {}	; <UNPREDICTABLE>
    31b8:	90000000 	andls	r0, r0, r0
    31bc:	01000000 	mrseq	r0, (UNDEF: 0)
    31c0:	00905000 	addseq	r5, r0, r0
    31c4:	00b80000 	adcseq	r0, r8, r0
    31c8:	00040000 	andeq	r0, r4, r0
    31cc:	9f5001f3 	svcls	0x005001f3
	...
    31dc:	000000a0 	andeq	r0, r0, r0, lsr #1
    31e0:	000000b0 	strheq	r0, [r0], -r0	; <UNPREDICTABLE>
    31e4:	b0540001 	subslt	r0, r4, r1
    31e8:	b8000000 	stmdalt	r0, {}	; <UNPREDICTABLE>
    31ec:	29000000 	stmdbcs	r0, {}	; <UNPREDICTABLE>
    31f0:	5001f300 	andpl	pc, r1, r0, lsl #6
    31f4:	f75001f3 			; <UNDEFINED> instruction: 0xf75001f3
    31f8:	f425f72c 	vld1.8	{d15}, [r5 :128], ip
    31fc:	cccd0825 	stclgt	8, cr0, [sp], {37}	; 0x25
    3200:	0000cccc 	andeq	ip, r0, ip, asr #25
    3204:	081e0000 	ldmdaeq	lr, {}	; <UNPREDICTABLE>
    3208:	2525f720 	strcs	pc, [r5, #-1824]!	; 0xfffff8e0
    320c:	00f72cf7 	ldrshteq	r2, [r7], #199	; 0xc7
    3210:	1e352533 	mrcne	5, 1, r2, cr5, cr3, {1}
    3214:	331c2431 	tstcc	ip, #822083584	; 0x31000000
    3218:	00009f1e 	andeq	r9, r0, lr, lsl pc
    321c:	00000000 	andeq	r0, r0, r0
    3220:	00010000 	andeq	r0, r1, r0
    3224:	00000000 	andeq	r0, r0, r0
    3228:	000000a0 	andeq	r0, r0, r0, lsr #1
    322c:	000000b0 	strheq	r0, [r0], -r0	; <UNPREDICTABLE>
    3230:	b0550001 	subslt	r0, r5, r1
    3234:	b3000000 	movwlt	r0, #0
    3238:	01000000 	mrseq	r0, (UNDEF: 0)
    323c:	00b35000 	adcseq	r5, r3, r0
    3240:	00b80000 	adcseq	r0, r8, r0
    3244:	00260000 	eoreq	r0, r6, r0
    3248:	f75001f3 			; <UNDEFINED> instruction: 0xf75001f3
    324c:	f425f72c 	vld1.8	{d15}, [r5 :128], ip
    3250:	cccd0825 	stclgt	8, cr0, [sp], {37}	; 0x25
    3254:	0000cccc 	andeq	ip, r0, ip, asr #25
    3258:	081e0000 	ldmdaeq	lr, {}	; <UNPREDICTABLE>
    325c:	2525f720 	strcs	pc, [r5, #-1824]!	; 0xfffff8e0
    3260:	00f72cf7 	ldrshteq	r2, [r7], #199	; 0xc7
    3264:	80232533 	eorhi	r2, r3, r3, lsr r5
    3268:	3240a080 	subcc	sl, r0, #128, 0	; 0x80
    326c:	00009f24 	andeq	r9, r0, r4, lsr #30
    3270:	00000000 	andeq	r0, r0, r0
    3274:	00020000 	andeq	r0, r2, r0
    3278:	00010100 	andeq	r0, r1, r0, lsl #2
    327c:	00a00000 	adceq	r0, r0, r0
    3280:	00a40000 	adceq	r0, r4, r0
    3284:	00010000 	andeq	r0, r1, r0
    3288:	0000a450 	andeq	sl, r0, r0, asr r4
    328c:	0000a400 	andeq	sl, r0, r0, lsl #8
    3290:	53000100 	movwpl	r0, #256	; 0x100
    3294:	000000a4 	andeq	r0, r0, r4, lsr #1
    3298:	000000a8 	andeq	r0, r0, r8, lsr #1
    329c:	74310008 	ldrtvc	r0, [r1], #-8
    32a0:	00732400 	rsbseq	r2, r3, r0, lsl #8
    32a4:	00a89f21 	adceq	r9, r8, r1, lsr #30
    32a8:	00b30000 	adcseq	r0, r3, r0
    32ac:	00010000 	andeq	r0, r1, r0
    32b0:	00000051 	andeq	r0, r0, r1, asr r0
	...
    32c0:	00003c00 	andeq	r3, r0, r0, lsl #24
    32c4:	50000100 	andpl	r0, r0, r0, lsl #2
    32c8:	0000003c 	andeq	r0, r0, ip, lsr r0
    32cc:	00000060 	andeq	r0, r0, r0, rrx
    32d0:	01f30004 	mvnseq	r0, r4
    32d4:	00009f50 	andeq	r9, r0, r0, asr pc
	...
    32e4:	003f0000 	eorseq	r0, pc, r0
    32e8:	00010000 	andeq	r0, r1, r0
    32ec:	00003f51 	andeq	r3, r0, r1, asr pc
    32f0:	00006000 	andeq	r6, r0, r0
    32f4:	f3000400 	vshl.u8	d0, d0, d0
    32f8:	009f5101 	addseq	r5, pc, r1, lsl #2
	...
    3304:	08000000 	stmdaeq	r0, {}	; <UNPREDICTABLE>
    3308:	3f000000 	svccc	0x00000000
    330c:	01000000 	mrseq	r0, (UNDEF: 0)
    3310:	003f5100 	eorseq	r5, pc, r0, lsl #2
    3314:	00600000 	rsbeq	r0, r0, r0
    3318:	00040000 	andeq	r0, r4, r0
    331c:	9f5101f3 	svcls	0x005101f3
	...
    332c:	00000008 	andeq	r0, r0, r8
    3330:	0000003c 	andeq	r0, r0, ip, lsr r0
    3334:	3c500001 	mrrccc	0, 0, r0, r0, cr1	; <UNPREDICTABLE>
    3338:	60000000 	andvs	r0, r0, r0
    333c:	04000000 	streq	r0, [r0], #-0
    3340:	5001f300 	andpl	pc, r1, r0, lsl #6
    3344:	0000009f 	muleq	r0, pc, r0	; <UNPREDICTABLE>
	...
    3350:	00004800 	andeq	r4, r0, r0, lsl #16
    3354:	00005800 	andeq	r5, r0, r0, lsl #16
    3358:	54000100 	strpl	r0, [r0], #-256	; 0xffffff00
    335c:	00000058 	andeq	r0, r0, r8, asr r0
    3360:	00000060 	andeq	r0, r0, r0, rrx
    3364:	01f30029 	mvnseq	r0, r9, lsr #32
    3368:	5001f350 	andpl	pc, r1, r0, asr r3	; <UNPREDICTABLE>
    336c:	25f72cf7 	ldrbcs	r2, [r7, #3319]!	; 0xcf7
    3370:	cd0825f4 	cfstr32gt	mvfx2, [r8, #-976]	; 0xfffffc30
    3374:	00cccccc 	sbceq	ip, ip, ip, asr #25
    3378:	1e000000 	cdpne	0, 0, cr0, cr0, cr0, {0}
    337c:	25f72008 	ldrbcs	r2, [r7, #8]!
    3380:	f72cf725 			; <UNDEFINED> instruction: 0xf72cf725
    3384:	35253300 	strcc	r3, [r5, #-768]!	; 0xfffffd00
    3388:	1c24311e 	stfnes	f3, [r4], #-120	; 0xffffff88
    338c:	009f1e33 	addseq	r1, pc, r3, lsr lr	; <UNPREDICTABLE>
    3390:	00000000 	andeq	r0, r0, r0
    3394:	01000000 	mrseq	r0, (UNDEF: 0)
    3398:	00000000 	andeq	r0, r0, r0
    339c:	00004800 	andeq	r4, r0, r0, lsl #16
    33a0:	00005800 	andeq	r5, r0, r0, lsl #16
    33a4:	56000100 	strpl	r0, [r0], -r0, lsl #2
    33a8:	00000058 	andeq	r0, r0, r8, asr r0
    33ac:	0000005b 	andeq	r0, r0, fp, asr r0
    33b0:	5b500001 	blpl	14033bc <__bss_end__+0x13f8064>
    33b4:	60000000 	andvs	r0, r0, r0
    33b8:	26000000 	strcs	r0, [r0], -r0
    33bc:	5001f300 	andpl	pc, r1, r0, lsl #6
    33c0:	25f72cf7 	ldrbcs	r2, [r7, #3319]!	; 0xcf7
    33c4:	cd0825f4 	cfstr32gt	mvfx2, [r8, #-976]	; 0xfffffc30
    33c8:	00cccccc 	sbceq	ip, ip, ip, asr #25
    33cc:	1e000000 	cdpne	0, 0, cr0, cr0, cr0, {0}
    33d0:	25f72008 	ldrbcs	r2, [r7, #8]!
    33d4:	f72cf725 			; <UNDEFINED> instruction: 0xf72cf725
    33d8:	23253300 			; <UNDEFINED> instruction: 0x23253300
    33dc:	40a08080 	adcmi	r8, r0, r0, lsl #1
    33e0:	009f2432 	addseq	r2, pc, r2, lsr r4	; <UNPREDICTABLE>
    33e4:	00000000 	andeq	r0, r0, r0
    33e8:	02000000 	andeq	r0, r0, #0, 0
    33ec:	01010000 	mrseq	r0, (UNDEF: 1)
    33f0:	48000000 	stmdami	r0, {}	; <UNPREDICTABLE>
    33f4:	4c000000 	stcmi	0, cr0, [r0], {-0}
    33f8:	01000000 	mrseq	r0, (UNDEF: 0)
    33fc:	004c5000 	subeq	r5, ip, r0
    3400:	004c0000 	subeq	r0, ip, r0
    3404:	00010000 	andeq	r0, r1, r0
    3408:	00004c51 	andeq	r4, r0, r1, asr ip
    340c:	00005000 	andeq	r5, r0, r0
    3410:	75000c00 	strvc	r0, [r0, #-3072]	; 0xfffff400
    3414:	1aff0800 	bne	fffc541c <__bss_end__+0xfffba0c4>
    3418:	71240074 			; <UNDEFINED> instruction: 0x71240074
    341c:	509f2100 	addspl	r2, pc, r0, lsl #2
    3420:	54000000 	strpl	r0, [r0], #-0
    3424:	12000000 	andne	r0, r0, #0, 0
    3428:	00743700 	rsbseq	r3, r4, r0, lsl #14
    342c:	00702024 	rsbseq	r2, r0, r4, lsr #32
    3430:	0800751a 	stmdaeq	r0, {r1, r3, r4, r8, sl, ip, sp, lr}
    3434:	00741aff 	ldrshteq	r1, [r4], #-175	; 0xffffff51
    3438:	009f2124 	addseq	r2, pc, r4, lsr #2
	...
    3448:	0000b800 	andeq	fp, r0, r0, lsl #16
    344c:	0000c400 	andeq	ip, r0, r0, lsl #8
    3450:	50000100 	andpl	r0, r0, r0, lsl #2
    3454:	000000c4 	andeq	r0, r0, r4, asr #1
    3458:	000000cb 	andeq	r0, r0, fp, asr #1
    345c:	cb530001 	blgt	14c3468 <__bss_end__+0x14b8110>
    3460:	d0000000 	andle	r0, r0, r0
    3464:	04000000 	streq	r0, [r0], #-0
    3468:	5001f300 	andpl	pc, r1, r0, lsl #6
    346c:	0000009f 	muleq	r0, pc, r0	; <UNPREDICTABLE>
	...
    3478:	d0000000 	andle	r0, r0, r0
    347c:	dc000000 	stcle	0, cr0, [r0], {-0}
    3480:	01000000 	mrseq	r0, (UNDEF: 0)
    3484:	00dc5000 	sbcseq	r5, ip, r0
    3488:	00e30000 	rsceq	r0, r3, r0
    348c:	00010000 	andeq	r0, r1, r0
    3490:	0000e353 	andeq	lr, r0, r3, asr r3
    3494:	0000e800 	andeq	lr, r0, r0, lsl #16
    3498:	f3000400 	vshl.u8	d0, d0, d0
    349c:	009f5001 	addseq	r5, pc, r1
	...
    34ac:	0b000000 	bleq	34b4 <__code_start__-0x4b4c>
    34b0:	01000000 	mrseq	r0, (UNDEF: 0)
    34b4:	000b5000 	andeq	r5, fp, r0
    34b8:	00140000 	andseq	r0, r4, r0
    34bc:	00010000 	andeq	r0, r1, r0
    34c0:	00000054 	andeq	r0, r0, r4, asr r0
	...
    34d0:	00001800 	andeq	r1, r0, r0, lsl #16
    34d4:	51000100 	mrspl	r0, (UNDEF: 16)
    34d8:	00000018 	andeq	r0, r0, r8, lsl r0
    34dc:	0000002c 	andeq	r0, r0, ip, lsr #32
    34e0:	01f30004 	mvnseq	r0, r4
    34e4:	00009f51 	andeq	r9, r0, r1, asr pc
    34e8:	00000000 	andeq	r0, r0, r0
    34ec:	00020000 	andeq	r0, r2, r0
    34f0:	00000000 	andeq	r0, r0, r0
    34f4:	01000000 	mrseq	r0, (UNDEF: 0)
    34f8:	00000001 	andeq	r0, r0, r1
    34fc:	00000000 	andeq	r0, r0, r0
    3500:	00000004 	andeq	r0, r0, r4
    3504:	04500001 	ldrbeq	r0, [r0], #-1
    3508:	08000000 	stmdaeq	r0, {}	; <UNPREDICTABLE>
    350c:	01000000 	mrseq	r0, (UNDEF: 0)
    3510:	00085200 	andeq	r5, r8, r0, lsl #4
    3514:	000c0000 	andeq	r0, ip, r0
    3518:	00030000 	andeq	r0, r3, r0
    351c:	0c9f0172 	ldfeqs	f0, [pc], {114}	; 0x72
    3520:	18000000 	stmdane	r0, {}	; <UNPREDICTABLE>
    3524:	01000000 	mrseq	r0, (UNDEF: 0)
    3528:	00185200 	andseq	r5, r8, r0, lsl #4
    352c:	001c0000 	andseq	r0, ip, r0
    3530:	00010000 	andeq	r0, r1, r0
    3534:	00001c53 	andeq	r1, r0, r3, asr ip
    3538:	00002400 	andeq	r2, r0, r0, lsl #8
    353c:	73000300 	movwvc	r0, #768	; 0x300
    3540:	00249f01 	eoreq	r9, r4, r1, lsl #30
    3544:	002c0000 	eoreq	r0, ip, r0
    3548:	00010000 	andeq	r0, r1, r0
    354c:	00000053 	andeq	r0, r0, r3, asr r0
    3550:	00000000 	andeq	r0, r0, r0
    3554:	02020300 	andeq	r0, r2, #0, 6
    3558:	00000000 	andeq	r0, r0, r0
    355c:	18000000 	stmdane	r0, {}	; <UNPREDICTABLE>
    3560:	01000000 	mrseq	r0, (UNDEF: 0)
    3564:	00185100 	andseq	r5, r8, r0, lsl #2
    3568:	001c0000 	andseq	r0, ip, r0
    356c:	00030000 	andeq	r0, r3, r0
    3570:	1c9f0171 	ldfnes	f0, [pc], {113}	; 0x71
    3574:	2c000000 	stccs	0, cr0, [r0], {-0}
    3578:	01000000 	mrseq	r0, (UNDEF: 0)
    357c:	00005100 	andeq	r5, r0, r0, lsl #2
	...
    358c:	00000008 	andeq	r0, r0, r8
    3590:	0000000c 	andeq	r0, r0, ip
    3594:	00720002 	rsbseq	r0, r2, r2
    3598:	0000000c 	andeq	r0, r0, ip
    359c:	00000018 	andeq	r0, r0, r8, lsl r0
    35a0:	00730002 	rsbseq	r0, r3, r2
    35a4:	0000001c 	andeq	r0, r0, ip, lsl r0
    35a8:	0000002c 	andeq	r0, r0, ip, lsr #32
    35ac:	00520001 	subseq	r0, r2, r1
	...
    35c4:	14000000 	strne	r0, [r0], #-0
    35c8:	01000000 	mrseq	r0, (UNDEF: 0)
    35cc:	00145000 	andseq	r5, r4, r0
    35d0:	00180000 	andseq	r0, r8, r0
    35d4:	00030000 	andeq	r0, r3, r0
    35d8:	189f0170 	ldmne	pc, {r4, r5, r6, r8}	; <UNPREDICTABLE>
    35dc:	20000000 	andcs	r0, r0, r0
    35e0:	01000000 	mrseq	r0, (UNDEF: 0)
    35e4:	00245000 	eoreq	r5, r4, r0
    35e8:	00280000 	eoreq	r0, r8, r0
    35ec:	00010000 	andeq	r0, r1, r0
    35f0:	00002850 	andeq	r2, r0, r0, asr r8
    35f4:	00003000 	andeq	r3, r0, r0
    35f8:	70000300 	andvc	r0, r0, r0, lsl #6
    35fc:	00389f01 	eorseq	r9, r8, r1, lsl #30
    3600:	00400000 	subeq	r0, r0, r0
    3604:	00010000 	andeq	r0, r1, r0
    3608:	00000050 	andeq	r0, r0, r0, asr r0
	...
    3618:	24000000 	strcs	r0, [r0], #-0
    361c:	01000000 	mrseq	r0, (UNDEF: 0)
    3620:	00245100 	eoreq	r5, r4, r0, lsl #2
    3624:	00280000 	eoreq	r0, r8, r0
    3628:	00010000 	andeq	r0, r1, r0
    362c:	0000285c 	andeq	r2, r0, ip, asr r8
    3630:	00004400 	andeq	r4, r0, r0, lsl #8
    3634:	51000100 	mrspl	r0, (UNDEF: 16)
	...
    3640:	00020200 	andeq	r0, r2, r0, lsl #4
    3644:	00000000 	andeq	r0, r0, r0
    3648:	00040000 	andeq	r0, r4, r0
    364c:	00010000 	andeq	r0, r1, r0
    3650:	00000451 	andeq	r0, r0, r1, asr r4
    3654:	00000800 	andeq	r0, r0, r0, lsl #16
    3658:	71000300 	mrsvc	r0, LR_irq
    365c:	00089f01 	andeq	r9, r8, r1, lsl #30
    3660:	00180000 	andseq	r0, r8, r0
    3664:	00010000 	andeq	r0, r1, r0
    3668:	00000051 	andeq	r0, r0, r1, asr r0
    366c:	00000000 	andeq	r0, r0, r0
    3670:	00000200 	andeq	r0, r0, r0, lsl #4
    3674:	04000000 	streq	r0, [r0], #-0
    3678:	01000000 	mrseq	r0, (UNDEF: 0)
    367c:	00005000 	andeq	r5, r0, r0
	...
    368c:	00080000 	andeq	r0, r8, r0
    3690:	00010000 	andeq	r0, r1, r0
    3694:	00000850 	andeq	r0, r0, r0, asr r8
    3698:	00003000 	andeq	r3, r0, r0
    369c:	f3000400 	vshl.u8	d0, d0, d0
    36a0:	009f5001 	addseq	r5, pc, r1
	...
    36b0:	08000000 	stmdaeq	r0, {}	; <UNPREDICTABLE>
    36b4:	01000000 	mrseq	r0, (UNDEF: 0)
    36b8:	00085100 	andeq	r5, r8, r0, lsl #2
    36bc:	00300000 	eorseq	r0, r0, r0
    36c0:	00040000 	andeq	r0, r4, r0
    36c4:	9f5101f3 	svcls	0x005101f3
	...
    36d4:	02010000 	andeq	r0, r1, #0, 0
    36d8:	00000002 	andeq	r0, r0, r2
    36dc:	00040000 	andeq	r0, r4, r0
    36e0:	00010000 	andeq	r0, r1, r0
    36e4:	00000452 	andeq	r0, r0, r2, asr r4
    36e8:	00000800 	andeq	r0, r0, r0, lsl #16
    36ec:	f3000400 	vshl.u8	d0, d0, d0
    36f0:	089f5201 	ldmeq	pc, {r0, r9, ip, lr}	; <UNPREDICTABLE>
    36f4:	18000000 	stmdane	r0, {}	; <UNPREDICTABLE>
    36f8:	06000000 	streq	r0, [r0], -r0
    36fc:	5201f300 	andpl	pc, r1, #0, 6
    3700:	189f1c31 	ldmne	pc, {r0, r4, r5, sl, fp, ip}	; <UNPREDICTABLE>
    3704:	18000000 	stmdane	r0, {}	; <UNPREDICTABLE>
    3708:	04000000 	streq	r0, [r0], #-0
    370c:	5201f300 	andpl	pc, r1, #0, 6
    3710:	0000189f 	muleq	r0, pc, r8	; <UNPREDICTABLE>
    3714:	00003000 	andeq	r3, r0, r0
    3718:	f3000600 	vmax.u8	d0, d0, d0
    371c:	1c315201 	lfmne	f5, 4, [r1], #-4
    3720:	0000009f 	muleq	r0, pc, r0	; <UNPREDICTABLE>
    3724:	00000000 	andeq	r0, r0, r0
    3728:	00000200 	andeq	r0, r0, r0, lsl #4
    372c:	00000100 	andeq	r0, r0, r0, lsl #2
    3730:	00000000 	andeq	r0, r0, r0
    3734:	00000c00 	andeq	r0, r0, r0, lsl #24
    3738:	50000100 	andpl	r0, r0, r0, lsl #2
    373c:	0000000c 	andeq	r0, r0, ip
    3740:	00000018 	andeq	r0, r0, r8, lsl r0
    3744:	7f700003 	svcvc	0x00700003
    3748:	0000189f 	muleq	r0, pc, r8	; <UNPREDICTABLE>
    374c:	00002400 	andeq	r2, r0, r0, lsl #8
    3750:	50000100 	andpl	r0, r0, r0, lsl #2
    3754:	00000028 	andeq	r0, r0, r8, lsr #32
    3758:	0000002c 	andeq	r0, r0, ip, lsr #32
    375c:	7f700003 	svcvc	0x00700003
    3760:	0000009f 	muleq	r0, pc, r0	; <UNPREDICTABLE>
    3764:	00000000 	andeq	r0, r0, r0
    3768:	00000200 	andeq	r0, r0, r0, lsl #4
    376c:	00000000 	andeq	r0, r0, r0
    3770:	0c000000 	stceq	0, cr0, [r0], {-0}
    3774:	01000000 	mrseq	r0, (UNDEF: 0)
    3778:	000c5100 	andeq	r5, ip, r0, lsl #2
    377c:	00100000 	andseq	r0, r0, r0
    3780:	00030000 	andeq	r0, r3, r0
    3784:	109f0171 	addsne	r0, pc, r1, ror r1	; <UNPREDICTABLE>
    3788:	30000000 	andcc	r0, r0, r0
    378c:	01000000 	mrseq	r0, (UNDEF: 0)
    3790:	00005100 	andeq	r5, r0, r0, lsl #2
    3794:	00000000 	andeq	r0, r0, r0
	...

Disassembly of section .debug_aranges:

00000000 <.debug_aranges>:
   0:	0000001c 	andeq	r0, r0, ip, lsl r0
   4:	00000002 	andeq	r0, r0, r2
   8:	00040000 	andeq	r0, r4, r0
   c:	00000000 	andeq	r0, r0, r0
  10:	00008038 	andeq	r8, r0, r8, lsr r0
  14:	00000104 	andeq	r0, r0, r4, lsl #2
	...
  20:	0000001c 	andeq	r0, r0, ip, lsl r0
  24:	04630002 	strbteq	r0, [r3], #-2
  28:	00040000 	andeq	r0, r4, r0
  2c:	00000000 	andeq	r0, r0, r0
  30:	0000813c 	andeq	r8, r0, ip, lsr r1
  34:	00000434 	andeq	r0, r0, r4, lsr r4
	...
  40:	0000001c 	andeq	r0, r0, ip, lsl r0
  44:	0cb90002 	ldceq	0, cr0, [r9], #8
  48:	00040000 	andeq	r0, r4, r0
  4c:	00000000 	andeq	r0, r0, r0
  50:	00008570 	andeq	r8, r0, r0, ror r5
  54:	00000200 	andeq	r0, r0, r0, lsl #4
	...
  60:	0000001c 	andeq	r0, r0, ip, lsl r0
  64:	0fa90002 	svceq	0x00a90002
  68:	00040000 	andeq	r0, r4, r0
  6c:	00000000 	andeq	r0, r0, r0
  70:	00008770 	andeq	r8, r0, r0, ror r7
  74:	00000800 	andeq	r0, r0, r0, lsl #16
	...
  80:	0000001c 	andeq	r0, r0, ip, lsl r0
  84:	1e860002 	cdpne	0, 8, cr0, cr6, cr2, {0}
  88:	00040000 	andeq	r0, r4, r0
  8c:	00000000 	andeq	r0, r0, r0
  90:	00008f78 	andeq	r8, r0, r8, ror pc
  94:	000000a0 	andeq	r0, r0, r0, lsr #1
	...
  a0:	0000001c 	andeq	r0, r0, ip, lsl r0
  a4:	20a00002 	adccs	r0, r0, r2
  a8:	00040000 	andeq	r0, r4, r0
  ac:	00000000 	andeq	r0, r0, r0
  b0:	00009018 	andeq	r9, r0, r8, lsl r0
  b4:	00000078 	andeq	r0, r0, r8, ror r0
	...
  c0:	0000001c 	andeq	r0, r0, ip, lsl r0
  c4:	21e40002 	mvncs	r0, r2
  c8:	00040000 	andeq	r0, r4, r0
  cc:	00000000 	andeq	r0, r0, r0
  d0:	00009090 	muleq	r0, r0, r0
  d4:	00000058 	andeq	r0, r0, r8, asr r0
	...
  e0:	0000001c 	andeq	r0, r0, ip, lsl r0
  e4:	23850002 	orrcs	r0, r5, #2, 0
  e8:	00040000 	andeq	r0, r4, r0
  ec:	00000000 	andeq	r0, r0, r0
  f0:	000090e8 	andeq	r9, r0, r8, ror #1
  f4:	00000038 	andeq	r0, r0, r8, lsr r0
	...
 100:	0000001c 	andeq	r0, r0, ip, lsl r0
 104:	247c0002 	ldrbtcs	r0, [ip], #-2
 108:	00040000 	andeq	r0, r4, r0
 10c:	00000000 	andeq	r0, r0, r0
 110:	00009120 	andeq	r9, r0, r0, lsr #2
 114:	000009b4 			; <UNDEFINED> instruction: 0x000009b4
	...
 120:	0000001c 	andeq	r0, r0, ip, lsl r0
 124:	30ff0002 	rscscc	r0, pc, r2
 128:	00040000 	andeq	r0, r4, r0
 12c:	00000000 	andeq	r0, r0, r0
 130:	00009ad4 	ldrdeq	r9, [r0], -r4
 134:	0000002c 	andeq	r0, r0, ip, lsr #32
	...
 140:	0000001c 	andeq	r0, r0, ip, lsl r0
 144:	32320002 	eorscc	r0, r2, #2, 0
 148:	00040000 	andeq	r0, r4, r0
 14c:	00000000 	andeq	r0, r0, r0
 150:	00009b00 	andeq	r9, r0, r0, lsl #22
 154:	00000128 	andeq	r0, r0, r8, lsr #2
	...
 160:	0000001c 	andeq	r0, r0, ip, lsl r0
 164:	34e70002 	strbtcc	r0, [r7], #2
 168:	00040000 	andeq	r0, r4, r0
 16c:	00000000 	andeq	r0, r0, r0
 170:	00009c28 	andeq	r9, r0, r8, lsr #24
 174:	00000004 	andeq	r0, r0, r4
	...
 180:	0000001c 	andeq	r0, r0, ip, lsl r0
 184:	35b90002 	ldrcc	r0, [r9, #2]!
 188:	00040000 	andeq	r0, r4, r0
 18c:	00000000 	andeq	r0, r0, r0
 190:	00009c2c 	andeq	r9, r0, ip, lsr #24
 194:	0000008c 	andeq	r0, r0, ip, lsl #1
	...
 1a0:	0000001c 	andeq	r0, r0, ip, lsl r0
 1a4:	383a0002 	ldmdacc	sl!, {r1}
 1a8:	00040000 	andeq	r0, r4, r0
 1ac:	00000000 	andeq	r0, r0, r0
 1b0:	00009cb8 			; <UNDEFINED> instruction: 0x00009cb8
 1b4:	0000011c 	andeq	r0, r0, ip, lsl r1
	...
 1c0:	0000001c 	andeq	r0, r0, ip, lsl r0
 1c4:	3d7d0002 	ldclcc	0, cr0, [sp, #-8]!
 1c8:	00040000 	andeq	r0, r4, r0
 1cc:	00000000 	andeq	r0, r0, r0
 1d0:	00009dd4 	ldrdeq	r9, [r0], -r4
 1d4:	000001f0 	strdeq	r0, [r0], -r0	; <UNPREDICTABLE>
	...
 1e0:	0000001c 	andeq	r0, r0, ip, lsl r0
 1e4:	434e0002 	movtmi	r0, #57346	; 0xe002
 1e8:	00040000 	andeq	r0, r4, r0
 1ec:	00000000 	andeq	r0, r0, r0
 1f0:	00009fc4 	andeq	r9, r0, r4, asr #31
 1f4:	000003b0 			; <UNDEFINED> instruction: 0x000003b0
	...
 200:	0000001c 	andeq	r0, r0, ip, lsl r0
 204:	4c3b0002 	ldcmi	0, cr0, [fp], #-8
 208:	00040000 	andeq	r0, r4, r0
 20c:	00000000 	andeq	r0, r0, r0
 210:	0000a374 	andeq	sl, r0, r4, ror r3
 214:	00000198 	muleq	r0, r8, r1
	...
 220:	0000001c 	andeq	r0, r0, ip, lsl r0
 224:	52b20002 	adcspl	r0, r2, #2, 0
 228:	00040000 	andeq	r0, r4, r0
 22c:	00000000 	andeq	r0, r0, r0
 230:	0000a50c 	andeq	sl, r0, ip, lsl #10
 234:	0000003c 	andeq	r0, r0, ip, lsr r0
	...
 240:	0000001c 	andeq	r0, r0, ip, lsl r0
 244:	53ff0002 	mvnspl	r0, #2, 0
 248:	00040000 	andeq	r0, r4, r0
 24c:	00000000 	andeq	r0, r0, r0
 250:	0000a548 	andeq	sl, r0, r8, asr #10
 254:	0000002c 	andeq	r0, r0, ip, lsr #32
	...
 260:	0000001c 	andeq	r0, r0, ip, lsl r0
 264:	553a0002 	ldrpl	r0, [sl, #-2]!
 268:	00040000 	andeq	r0, r4, r0
 26c:	00000000 	andeq	r0, r0, r0
 270:	0000a574 	andeq	sl, r0, r4, ror r5
 274:	00000044 	andeq	r0, r0, r4, asr #32
	...
 280:	0000001c 	andeq	r0, r0, ip, lsl r0
 284:	56350002 	ldrtpl	r0, [r5], -r2
 288:	00040000 	andeq	r0, r4, r0
 28c:	00000000 	andeq	r0, r0, r0
 290:	0000a5b8 			; <UNDEFINED> instruction: 0x0000a5b8
 294:	00000018 	andeq	r0, r0, r8, lsl r0
	...
 2a0:	0000001c 	andeq	r0, r0, ip, lsl r0
 2a4:	57480002 	strbpl	r0, [r8, -r2]
 2a8:	00040000 	andeq	r0, r4, r0
 2ac:	00000000 	andeq	r0, r0, r0
 2b0:	0000a5d0 	ldrdeq	sl, [r0], -r0
 2b4:	00000030 	andeq	r0, r0, r0, lsr r0
	...
 2c0:	0000001c 	andeq	r0, r0, ip, lsl r0
 2c4:	589a0002 	ldmpl	sl, {r1}
 2c8:	00040000 	andeq	r0, r4, r0
 2cc:	00000000 	andeq	r0, r0, r0
 2d0:	0000a600 	andeq	sl, r0, r0, lsl #12
 2d4:	00000004 	andeq	r0, r0, r4
	...

Disassembly of section .debug_line:

00000000 <.debug_line>:
       0:	00000165 	andeq	r0, r0, r5, ror #2
       4:	00ed0003 	rsceq	r0, sp, r3
       8:	01020000 	mrseq	r0, (UNDEF: 2)
       c:	000d0efb 	strdeq	r0, [sp], -fp
      10:	01010101 	tsteq	r1, r1, lsl #2
      14:	01000000 	mrseq	r0, (UNDEF: 0)
      18:	2e010000 	cdpcs	0, 0, cr0, cr1, cr0, {0}
      1c:	73657400 	cmnvc	r5, #0, 8
      20:	322d7374 	eorcc	r7, sp, #116, 6	; 0xd0000001
      24:	2f00302e 	svccs	0x0000302e
      28:	2f74706f 	svccs	0x0074706f
      2c:	656d6f68 	strbvs	r6, [sp, #-3944]!	; 0xfffff098
      30:	77657262 	strbvc	r7, [r5, -r2, ror #4]!
      34:	6c65432f 	stclvs	3, cr4, [r5], #-188	; 0xffffff44
      38:	2f72616c 	svccs	0x0072616c
      3c:	2d6d7261 	sfmcs	f7, 2, [sp, #-388]!	; 0xfffffe7c
      40:	656e6f6e 	strbvs	r6, [lr, #-3950]!	; 0xfffff092
      44:	6261652d 	rsbvs	r6, r1, #188743680	; 0xb400000
      48:	2f392d69 	svccs	0x00392d69
      4c:	30322d39 	eorscc	r2, r2, r9, lsr sp
      50:	34713931 	ldrbtcc	r3, [r1], #-2353	; 0xfffff6cf
      54:	3173632d 	cmncc	r3, sp, lsr #6
      58:	2f653730 	svccs	0x00653730
      5c:	2f62696c 	svccs	0x0062696c
      60:	2f636367 	svccs	0x00636367
      64:	2d6d7261 	sfmcs	f7, 2, [sp, #-388]!	; 0xfffffe7c
      68:	656e6f6e 	strbvs	r6, [lr, #-3950]!	; 0xfffff092
      6c:	6261652d 	rsbvs	r6, r1, #188743680	; 0xb400000
      70:	2e392f69 	cdpcs	15, 3, cr2, cr9, cr9, {3}
      74:	2f312e32 	svccs	0x00312e32
      78:	6c636e69 	stclvs	14, cr6, [r3], #-420	; 0xfffffe5c
      7c:	00656475 	rsbeq	r6, r5, r5, ror r4
      80:	6573552f 	ldrbvs	r5, [r3, #-1327]!	; 0xfffffad1
      84:	6d2f7372 	stcvs	3, cr7, [pc, #-456]!	; fffffec4 <__bss_end__+0xffff4b6c>
      88:	73656c69 	cmnvc	r5, #26880	; 0x6900
      8c:	756f532f 	strbvc	r5, [pc, #-815]!	; fffffd65 <__bss_end__+0xffff4a0d>
      90:	2f656372 	svccs	0x00656372
      94:	34327363 	ldrtcc	r7, [r2], #-867	; 0xfffffc9d
      98:	2f786c30 	svccs	0x00786c30
      9c:	7062696c 	rsbvc	r6, r2, ip, ror #18
      a0:	6e692f69 	cdpvs	15, 6, cr2, cr9, cr9, {3}
      a4:	64756c63 	ldrbtvs	r6, [r5], #-3171	; 0xfffff39d
      a8:	63000065 	movwvs	r0, #101	; 0x65
      ac:	6c6c616b 	stfvse	f6, [ip], #-428	; 0xfffffe54
      b0:	682e636f 	stmdavs	lr!, {r0, r1, r2, r3, r5, r6, r8, r9, sp, lr}
      b4:	00000100 	andeq	r0, r0, r0, lsl #2
      b8:	74726170 	ldrbtvc	r6, [r2], #-368	; 0xfffffe90
      bc:	65742d31 	ldrbvs	r2, [r4, #-3377]!	; 0xfffff2cf
      c0:	2d317473 	cfldrscs	mvf7, [r1, #-460]!	; 0xfffffe34
      c4:	622d6f6e 	eorvs	r6, sp, #440	; 0x1b8
      c8:	632e6775 			; <UNDEFINED> instruction: 0x632e6775
      cc:	00000200 	andeq	r0, r0, r0, lsl #4
      d0:	2d637273 	sfmcs	f7, 2, [r3, #-460]!	; 0xfffffe34
      d4:	2e636f6c 	cdpcs	15, 6, cr6, cr3, cr12, {3}
      d8:	00010068 	andeq	r0, r1, r8, rrx
      dc:	64747300 	ldrbtvs	r7, [r4], #-768	; 0xfffffd00
      e0:	2d746e69 	ldclcs	14, cr6, [r4, #-420]!	; 0xfffffe5c
      e4:	2e636367 	cdpcs	3, 6, cr6, cr3, cr7, {3}
      e8:	00030068 	andeq	r0, r3, r8, rrx
      ec:	69707200 	ldmdbvs	r0!, {r9, ip, sp, lr}^
      f0:	0400682e 	streq	r6, [r0], #-2094	; 0xfffff7d2
      f4:	05000000 	streq	r0, [r0, #-0]
      f8:	02050024 	andeq	r0, r5, #36, 0	; 0x24
      fc:	00008048 	andeq	r8, r0, r8, asr #32
     100:	06012203 	streq	r2, [r1], -r3, lsl #4
     104:	06050501 	streq	r0, [r5], -r1, lsl #10
     108:	01051367 	tsteq	r5, r7, ror #6
     10c:	042e1306 	strteq	r1, [lr], #-774	; 0xfffffcfa
     110:	06140502 	ldreq	r0, [r4], -r2, lsl #10
     114:	05826203 	streq	r6, [r2, #515]	; 0x203
     118:	044c8305 	strbeq	r8, [ip], #-773	; 0xfffffcfb
     11c:	140b0503 	strne	r0, [fp], #-1283	; 0xfffffafd
     120:	05130505 	ldreq	r0, [r3, #-1285]	; 0xfffffafb
     124:	ba01060c 	blt	4195c <__bss_end__+0x36604>
     128:	0f050204 	svceq	0x00050204
     12c:	0605050f 	streq	r0, [r5], -pc, lsl #10
     130:	2e06019f 	mcrcs	1, 0, r0, cr6, cr15, {4}
     134:	83138206 	tsthi	r3, #1610612736	; 0x60000000
     138:	0b050304 	bleq	140d50 <__bss_end__+0x1359f8>
     13c:	13050511 	movwne	r0, #21777	; 0x5511
     140:	01060c05 	tsteq	r6, r5, lsl #24
     144:	05020482 	streq	r0, [r2, #-1154]	; 0xfffffb7e
     148:	84060105 	strhi	r0, [r6], #-261	; 0xfffffefb
     14c:	01060805 	tsteq	r6, r5, lsl #16
     150:	052e0705 	streq	r0, [lr, #-1797]!	; 0xfffff8fb
     154:	144b0609 	strbne	r0, [fp], #-1545	; 0xfffff9f7
     158:	01054a01 	tsteq	r5, r1, lsl #20
     15c:	09051306 	stmdbeq	r5, {r1, r2, r8, r9, ip}
     160:	9e014706 	cdpls	7, 0, cr4, cr1, cr6, {0}
     164:	01000e02 	tsteq	r0, r2, lsl #28
     168:	0003bf01 	andeq	fp, r3, r1, lsl #30
     16c:	f4000300 	vst2.8	{d0-d3}, [r0], r0
     170:	02000000 	andeq	r0, r0, #0, 0
     174:	0d0efb01 	vstreq	d15, [lr, #-4]
     178:	01010100 	mrseq	r0, (UNDEF: 17)
     17c:	00000001 	andeq	r0, r0, r1
     180:	01000001 	tsteq	r0, r1
     184:	74706f2f 	ldrbtvc	r6, [r0], #-3887	; 0xfffff0d1
     188:	6d6f682f 	stclvs	8, cr6, [pc, #-188]!	; d4 <__code_start__-0x7f2c>
     18c:	65726265 	ldrbvs	r6, [r2, #-613]!	; 0xfffffd9b
     190:	65432f77 	strbvs	r2, [r3, #-3959]	; 0xfffff089
     194:	72616c6c 	rsbvc	r6, r1, #108, 24	; 0x6c00
     198:	6d72612f 	ldfvse	f6, [r2, #-188]!	; 0xffffff44
     19c:	6e6f6e2d 	cdpvs	14, 6, cr6, cr15, cr13, {1}
     1a0:	61652d65 	cmnvs	r5, r5, ror #26
     1a4:	392d6962 	pushcc	{r1, r5, r6, r8, fp, sp, lr}
     1a8:	322d392f 	eorcc	r3, sp, #770048	; 0xbc000
     1ac:	71393130 	teqvc	r9, r0, lsr r1
     1b0:	73632d34 	cmnvc	r3, #52, 26	; 0xd00
     1b4:	65373031 	ldrvs	r3, [r7, #-49]!	; 0xffffffcf
     1b8:	62696c2f 	rsbvs	r6, r9, #12032	; 0x2f00
     1bc:	6363672f 	cmnvs	r3, #12320768	; 0xbc0000
     1c0:	6d72612f 	ldfvse	f6, [r2, #-188]!	; 0xffffff44
     1c4:	6e6f6e2d 	cdpvs	14, 6, cr6, cr15, cr13, {1}
     1c8:	61652d65 	cmnvs	r5, r5, ror #26
     1cc:	392f6962 	stmdbcc	pc!, {r1, r5, r6, r8, fp, sp, lr}	; <UNPREDICTABLE>
     1d0:	312e322e 			; <UNDEFINED> instruction: 0x312e322e
     1d4:	636e692f 	cmnvs	lr, #770048	; 0xbc000
     1d8:	6564756c 	strbvs	r7, [r4, #-1388]!	; 0xfffffa94
     1dc:	73552f00 	cmpvc	r5, #0, 30
     1e0:	2f737265 	svccs	0x00737265
     1e4:	656c696d 	strbvs	r6, [ip, #-2413]!	; 0xfffff693
     1e8:	6f532f73 	svcvs	0x00532f73
     1ec:	65637275 	strbvs	r7, [r3, #-629]!	; 0xfffffd8b
     1f0:	3273632f 	rsbscc	r6, r3, #-1140850688	; 0xbc000000
     1f4:	786c3034 	stmdavc	ip!, {r2, r4, r5, ip, sp}^
     1f8:	62696c2f 	rsbvs	r6, r9, #12032	; 0x2f00
     1fc:	692f6970 	stmdbvs	pc!, {r4, r5, r6, r8, fp, sp, lr}	; <UNPREDICTABLE>
     200:	756c636e 	strbvc	r6, [ip, #-878]!	; 0xfffffc92
     204:	00006564 	andeq	r6, r0, r4, ror #10
     208:	6c616b63 			; <UNDEFINED> instruction: 0x6c616b63
     20c:	2e636f6c 	cdpcs	15, 6, cr6, cr3, cr12, {3}
     210:	00000063 	andeq	r0, r0, r3, rrx
     214:	616b6300 	cmnvs	fp, r0, lsl #6
     218:	636f6c6c 	cmnvs	pc, #108, 24	; 0x6c00
     21c:	0000682e 	andeq	r6, r0, lr, lsr #16
     220:	74730000 	ldrbtvc	r0, [r3], #-0
     224:	746e6964 	strbtvc	r6, [lr], #-2404	; 0xfffff69c
     228:	6363672d 	cmnvs	r3, #11796480	; 0xb40000
     22c:	0100682e 	tsteq	r0, lr, lsr #16
     230:	70720000 	rsbsvc	r0, r2, r0
     234:	00682e69 	rsbeq	r2, r8, r9, ror #28
     238:	73000002 	movwvc	r0, #2
     23c:	6c2d6372 	stcvs	3, cr6, [sp], #-456	; 0xfffffe38
     240:	682e636f 	stmdavs	lr!, {r0, r1, r2, r3, r5, r6, r8, r9, sp, lr}
     244:	00000000 	andeq	r0, r0, r0
     248:	6d2d726b 	sfmvs	f7, 4, [sp, #-428]!	; 0xfffffe54
     24c:	6f6c6c61 	svcvs	0x006c6c61
     250:	00682e63 	rsbeq	r2, r8, r3, ror #28
     254:	62000000 	andvs	r0, r0, #0, 0
     258:	746b6361 	strbtvc	r6, [fp], #-865	; 0xfffffc9f
     25c:	65636172 	strbvs	r6, [r3, #-370]!	; 0xfffffe8e
     260:	0200682e 	andeq	r6, r0, #3014656	; 0x2e0000
     264:	05000000 	streq	r0, [r0, #-0]
     268:	02050001 	andeq	r0, r5, #1, 0
     26c:	00008150 	andeq	r8, r0, r0, asr r1
     270:	05010e03 	streq	r0, [r1, #-3587]	; 0xfffff1fd
     274:	01056705 	tsteq	r5, r5, lsl #14
     278:	f6061306 			; <UNDEFINED> instruction: 0xf6061306
     27c:	05050106 	streq	r0, [r5, #-262]	; 0xfffffefa
     280:	08056706 	stmdaeq	r5, {r1, r2, r8, r9, sl, sp, lr}
     284:	052e0106 	streq	r0, [lr, #-262]!	; 0xfffffefa
     288:	052f0609 	streq	r0, [pc, #-1545]!	; fffffc87 <__bss_end__+0xffff492f>
     28c:	05010611 	streq	r0, [r1, #-1553]	; 0xfffff9ef
     290:	bd063001 	stclt	0, cr3, [r6, #-4]
     294:	05050106 	streq	r0, [r5, #-262]	; 0xfffffefa
     298:	01056706 	tsteq	r5, r6, lsl #14
     29c:	062e1306 	strteq	r1, [lr], -r6, lsl #6
     2a0:	050106a2 	streq	r0, [r1, #-1698]	; 0xfffff95e
     2a4:	05830605 	streq	r0, [r3, #1541]	; 0x605
     2a8:	04010614 	streq	r0, [r1], #-1556	; 0xfffff9ec
     2ac:	06180502 	ldreq	r0, [r8], -r2, lsl #10
     2b0:	052e0e03 	streq	r0, [lr, #-3587]!	; 0xfffff1fd
     2b4:	0d051305 	stceq	3, cr1, [r5, #-20]	; 0xffffffec
     2b8:	042e0106 	strteq	r0, [lr], #-262	; 0xfffffefa
     2bc:	03010501 	movweq	r0, #5377	; 0x1501
     2c0:	da060172 	ble	180890 <__bss_end__+0x175538>
     2c4:	05050106 	streq	r0, [r5, #-262]	; 0xfffffefa
     2c8:	11059f06 	tstne	r5, r6, lsl #30
     2cc:	052e0106 	streq	r0, [lr, #-262]!	; 0xfffffefa
     2d0:	052f0605 	streq	r0, [pc, #-1541]!	; fffffcd3 <__bss_end__+0xffff497b>
     2d4:	2e010611 	mcrcs	6, 0, r0, cr1, cr1, {0}
     2d8:	2f060505 	svccs	0x00060505
     2dc:	13060105 	movwne	r0, #24837	; 0x6105
     2e0:	06290566 	strteq	r0, [r9], -r6, ror #10
     2e4:	d600d103 	strle	sp, [r0], -r3, lsl #2
     2e8:	05050106 	streq	r0, [r5, #-262]	; 0xfffffefa
     2ec:	08056706 	stmdaeq	r5, {r1, r2, r8, r9, sl, sp, lr}
     2f0:	24050106 	strcs	r0, [r5], #-262	; 0xfffffefa
     2f4:	01040200 	mrseq	r0, R12_usr
     2f8:	06050566 	streq	r0, [r5], -r6, ror #10
     2fc:	2b051369 	blcs	1450a8 <__bss_end__+0x139d50>
     300:	32050106 	andcc	r0, r5, #-2147483647	; 0x80000001
     304:	2e0c052e 	cfsh32cs	mvfx0, mvfx12, #30
     308:	2e2b1005 	cdpcs	0, 2, cr1, cr11, cr5, {0}
     30c:	3201052e 	andcc	r0, r1, #192937984	; 0xb800000
     310:	7fac0306 	svcvc	0x00ac0306
     314:	050106f2 	streq	r0, [r1, #-1778]	; 0xfffff90e
     318:	05670605 	strbeq	r0, [r7, #-1541]!	; 0xfffff9fb
     31c:	05010613 	streq	r0, [r1, #-1555]	; 0xfffff9ed
     320:	052f0605 	streq	r0, [pc, #-1541]!	; fffffd23 <__bss_end__+0xffff49cb>
     324:	2e010608 	cfmadd32cs	mvax0, mvfx0, mvfx1, mvfx8
     328:	2f060905 	svccs	0x00060905
     32c:	01061005 	tsteq	r6, r5
     330:	10030105 	andne	r0, r3, r5, lsl #2
     334:	1c03062e 	stcne	6, cr0, [r3], {46}	; 0x2e
     338:	ba010682 	blt	41d48 <__bss_end__+0x369f0>
     33c:	2f060505 	svccs	0x00060505
     340:	11051313 	tstne	r5, r3, lsl r3
     344:	05050106 	streq	r0, [r5, #-262]	; 0xfffffefa
     348:	f2016806 	vadd.i8	d6, d1, d6
     34c:	0a051366 	beq	1450ec <__bss_end__+0x139d94>
     350:	08050106 	stmdaeq	r5, {r1, r2, r8}
     354:	4d0d052e 	cfstr32mi	mvfx0, [sp, #-184]	; 0xffffff48
     358:	02001405 	andeq	r1, r0, #83886080	; 0x5000000
     35c:	2e060104 	adfcss	f0, f6, f4
     360:	02000505 	andeq	r0, r0, #20971520	; 0x1400000
     364:	01060104 	tsteq	r6, r4, lsl #2
     368:	4b060905 	blmi	182784 <__bss_end__+0x17742c>
     36c:	01061305 	tsteq	r6, r5, lsl #6
     370:	054a0c05 	strbeq	r0, [sl, #-3077]	; 0xfffff3fb
     374:	054b060d 	strbeq	r0, [fp, #-1549]	; 0xfffff9f3
     378:	22051409 	andcs	r1, r5, #150994944	; 0x9000000
     37c:	31050106 	tstcc	r5, r6, lsl #2
     380:	2e0d052e 	cfsh32cs	mvfx0, mvfx13, #30
     384:	052e0c05 	streq	r0, [lr, #-3077]!	; 0xfffff3fb
     388:	0402000d 	streq	r0, [r2], #-13
     38c:	054b0602 	strbeq	r0, [fp, #-1538]	; 0xfffff9fe
     390:	04020028 	streq	r0, [r2], #-40	; 0xffffffd8
     394:	29050d02 	stmdbcs	r5, {r1, r8, sl, fp}
     398:	02040200 	andeq	r0, r4, #0, 4
     39c:	02000106 	andeq	r0, r0, #-2147483647	; 0x80000001
     3a0:	002e0204 	eoreq	r0, lr, r4, lsl #4
     3a4:	2e020402 	cdpcs	4, 0, cr0, cr2, cr2, {0}
     3a8:	10060905 	andne	r0, r6, r5, lsl #18
     3ac:	669e2e01 	ldrvs	r2, [lr], r1, lsl #28
     3b0:	01320d05 	teqeq	r2, r5, lsl #26
     3b4:	314a9e2e 	cmpcc	sl, lr, lsr #28
     3b8:	4a9e2e01 	bmi	fe78bbc4 <__bss_end__+0xfe78086c>
     3bc:	05172e06 	ldreq	r2, [r7, #-3590]	; 0xfffff1fa
     3c0:	04020014 	streq	r0, [r2], #-20	; 0xffffffec
     3c4:	052e0601 	streq	r0, [lr, #-1537]!	; 0xfffff9ff
     3c8:	04020019 	streq	r0, [r2], #-25	; 0xffffffe7
     3cc:	05010601 	streq	r0, [r1, #-1537]	; 0xfffff9ff
     3d0:	04020005 	streq	r0, [r2], #-5
     3d4:	09052e01 	stmdbeq	r5, {r0, r9, sl, fp, sp}
     3d8:	03040200 	movweq	r0, #16896	; 0x4200
     3dc:	1c052f06 	stcne	15, cr2, [r5], {6}
     3e0:	03040200 	movweq	r0, #16896	; 0x4200
     3e4:	29050106 	stmdbcs	r5, {r1, r2, r8}
     3e8:	03040200 	movweq	r0, #16896	; 0x4200
     3ec:	2a054906 	bcs	15280c <__bss_end__+0x1474b4>
     3f0:	03040200 	movweq	r0, #16896	; 0x4200
     3f4:	02000106 	andeq	r0, r0, #-2147483647	; 0x80000001
     3f8:	002e0304 	eoreq	r0, lr, r4, lsl #6
     3fc:	2e030402 	cdpcs	4, 0, cr0, cr3, cr2, {0}
     400:	16060505 	strne	r0, [r6], -r5, lsl #10
     404:	01060e05 	tsteq	r6, r5, lsl #28
     408:	0605052e 	streq	r0, [r5], -lr, lsr #10
     40c:	0611052f 	ldreq	r0, [r1], -pc, lsr #10
     410:	06050501 	streq	r0, [r5], -r1, lsl #10
     414:	01050183 	smlabbeq	r5, r3, r1, r0
     418:	05058606 	streq	r8, [r5, #-1542]	; 0xfffff9fa
     41c:	01040200 	mrseq	r0, R12_usr
     420:	02004606 	andeq	r4, r0, #6291456	; 0x600000
     424:	00010104 	andeq	r0, r1, r4, lsl #2
     428:	d6010402 	strle	r0, [r1], -r2, lsl #8
     42c:	12030105 	andne	r0, r3, #1073741825	; 0x40000001
     430:	0106ac08 	tsteq	r6, r8, lsl #24
     434:	060505ba 			; <UNDEFINED> instruction: 0x060505ba
     438:	0610052f 	ldreq	r0, [r0], -pc, lsr #10
     43c:	06050501 	streq	r0, [r5], -r1, lsl #10
     440:	09056969 	stmdbeq	r5, {r0, r3, r5, r6, r8, fp, sp, lr}
     444:	060d0501 	streq	r0, [sp], -r1, lsl #10
     448:	00140501 	andseq	r0, r4, r1, lsl #10
     44c:	06010402 	streq	r0, [r1], -r2, lsl #8
     450:	0005052e 	andeq	r0, r5, lr, lsr #10
     454:	06010402 	streq	r0, [r1], -r2, lsl #8
     458:	00090501 	andeq	r0, r9, r1, lsl #10
     45c:	06030402 	streq	r0, [r3], -r2, lsl #8
     460:	0013054b 	andseq	r0, r3, fp, asr #10
     464:	06030402 	streq	r0, [r3], -r2, lsl #8
     468:	00090501 	andeq	r0, r9, r1, lsl #10
     46c:	06030402 	streq	r0, [r3], -r2, lsl #8
     470:	00260567 	eoreq	r0, r6, r7, ror #10
     474:	06030402 	streq	r0, [r3], -r2, lsl #8
     478:	002b0501 	eoreq	r0, fp, r1, lsl #10
     47c:	4a030402 	bmi	c148c <__bss_end__+0xb6134>
     480:	02002805 	andeq	r2, r0, #327680	; 0x50000
     484:	2c060304 	stccs	3, cr0, [r6], {4}
     488:	02002905 	andeq	r2, r0, #81920	; 0x14000
     48c:	01060304 	tsteq	r6, r4, lsl #6
     490:	03040200 	movweq	r0, #16896	; 0x4200
     494:	0402002e 	streq	r0, [r2], #-46	; 0xffffffd2
     498:	05052e03 	streq	r2, [r5, #-3587]	; 0xfffff1fd
     49c:	15051706 	strne	r1, [r5, #-1798]	; 0xfffff8fa
     4a0:	05050106 	streq	r0, [r5, #-262]	; 0xfffffefa
     4a4:	0e052f06 	cdpeq	15, 0, cr2, cr5, cr6, {0}
     4a8:	052e0106 	streq	r0, [lr, #-262]!	; 0xfffffefa
     4ac:	052f0605 	streq	r0, [pc, #-1541]!	; fffffeaf <__bss_end__+0xffff4b57>
     4b0:	05010612 	streq	r0, [r1, #-1554]	; 0xfffff9ee
     4b4:	01840605 	orreq	r0, r4, r5, lsl #12
     4b8:	13149e9e 	tstne	r4, #2528	; 0x9e0
     4bc:	01090513 	tsteq	r9, r3, lsl r5
     4c0:	01060d05 	tsteq	r6, r5, lsl #26
     4c4:	02001405 	andeq	r1, r0, #83886080	; 0x5000000
     4c8:	2e060104 	adfcss	f0, f6, f4
     4cc:	02000505 	andeq	r0, r0, #20971520	; 0x1400000
     4d0:	01060104 	tsteq	r6, r4, lsl #2
     4d4:	02000905 	andeq	r0, r0, #81920	; 0x14000
     4d8:	4b060304 	blmi	1810f0 <__bss_end__+0x175d98>
     4dc:	02001705 	andeq	r1, r0, #1310720	; 0x140000
     4e0:	01060304 	tsteq	r6, r4, lsl #6
     4e4:	02000905 	andeq	r0, r0, #81920	; 0x14000
     4e8:	67060304 	strvs	r0, [r6, -r4, lsl #6]
     4ec:	02000e05 	andeq	r0, r0, #80	; 0x50
     4f0:	01060304 	tsteq	r6, r4, lsl #6
     4f4:	02002005 	andeq	r2, r0, #5, 0
     4f8:	2c060304 	stccs	3, cr0, [r6], {4}
     4fc:	02002205 	andeq	r2, r0, #1342177280	; 0x50000000
     500:	01060304 	tsteq	r6, r4, lsl #6
     504:	03040200 	movweq	r0, #16896	; 0x4200
     508:	0402002e 	streq	r0, [r2], #-46	; 0xffffffd2
     50c:	05052e03 	streq	r2, [r5, #-3587]	; 0xfffff1fd
     510:	0d051706 	stceq	7, cr1, [r5, #-24]	; 0xffffffe8
     514:	05050106 	streq	r0, [r5, #-262]	; 0xfffffefa
     518:	10056706 	andne	r6, r5, r6, lsl #14
     51c:	05050106 	streq	r0, [r5, #-262]	; 0xfffffefa
     520:	01053006 	tsteq	r5, r6
     524:	02661406 	rsbeq	r1, r6, #100663296	; 0x6000000
     528:	01010006 	tsteq	r1, r6
     52c:	00000228 	andeq	r0, r0, r8, lsr #4
     530:	00640003 	rsbeq	r0, r4, r3
     534:	01020000 	mrseq	r0, (UNDEF: 2)
     538:	000d0efb 	strdeq	r0, [sp], -fp
     53c:	01010101 	tsteq	r1, r1, lsl #2
     540:	01000000 	mrseq	r0, (UNDEF: 0)
     544:	2f010000 	svccs	0x00010000
     548:	72657355 	rsbvc	r7, r5, #1409286145	; 0x54000001
     54c:	696d2f73 	stmdbvs	sp!, {r0, r1, r4, r5, r6, r8, r9, sl, fp, sp}^
     550:	2f73656c 	svccs	0x0073656c
     554:	72756f53 	rsbsvc	r6, r5, #332	; 0x14c
     558:	632f6563 			; <UNDEFINED> instruction: 0x632f6563
     55c:	30343273 	eorscc	r3, r4, r3, ror r2
     560:	6c2f786c 	stcvs	8, cr7, [pc], #-432	; 3b8 <__code_start__-0x7c48>
     564:	69706269 	ldmdbvs	r0!, {r0, r3, r5, r6, r9, sp, lr}^
     568:	636e692f 	cmnvs	lr, #770048	; 0xbc000
     56c:	6564756c 	strbvs	r7, [r4, #-1388]!	; 0xfffffa94
     570:	726b0000 	rsbvc	r0, fp, #0, 0
     574:	6c616d2d 	stclvs	13, cr6, [r1], #-180	; 0xffffff4c
     578:	2e636f6c 	cdpcs	15, 6, cr6, cr3, cr12, {3}
     57c:	00000063 	andeq	r0, r0, r3, rrx
     580:	69707200 	ldmdbvs	r0!, {r9, ip, sp, lr}^
     584:	0100682e 	tsteq	r0, lr, lsr #16
     588:	726b0000 	rsbvc	r0, fp, #0, 0
     58c:	6c616d2d 	stclvs	13, cr6, [r1], #-180	; 0xffffff4c
     590:	2e636f6c 	cdpcs	15, 6, cr6, cr3, cr12, {3}
     594:	00000068 	andeq	r0, r0, r8, rrx
     598:	01050000 	mrseq	r0, (UNDEF: 5)
     59c:	7c020500 	cfstr32vc	mvfx0, [r2], {-0}
     5a0:	03000085 	movweq	r0, #133	; 0x85
     5a4:	060100d3 			; <UNDEFINED> instruction: 0x060100d3
     5a8:	06020501 	streq	r0, [r2], -r1, lsl #10
     5ac:	05051367 	streq	r1, [r5, #-871]	; 0xfffffc99
     5b0:	02050106 	andeq	r0, r5, #-2147483647	; 0x80000001
     5b4:	09052f06 	stmdbeq	r5, {r1, r2, r8, r9, sl, fp, sp}
     5b8:	02050106 	andeq	r0, r5, #-2147483647	; 0x80000001
     5bc:	12052e4a 	andne	r2, r5, #1184	; 0x4a0
     5c0:	01040200 	mrseq	r0, R12_usr
     5c4:	02052e06 	andeq	r2, r5, #96	; 0x60
     5c8:	01040200 	mrseq	r0, R12_usr
     5cc:	27050106 	strcs	r0, [r5, -r6, lsl #2]
     5d0:	03040200 	movweq	r0, #16896	; 0x4200
     5d4:	0012054a 	andseq	r0, r2, sl, asr #10
     5d8:	2e030402 	cdpcs	4, 0, cr0, cr3, cr2, {0}
     5dc:	4b060305 	blmi	1811f8 <__bss_end__+0x175ea0>
     5e0:	01061005 	tsteq	r6, r5
     5e4:	052e0605 	streq	r0, [lr, #-1541]!	; 0xfffff9fb
     5e8:	04020015 	streq	r0, [r2], #-21	; 0xffffffeb
     5ec:	20054a01 	andcs	r4, r5, r1, lsl #20
     5f0:	02040200 	andeq	r0, r4, #0, 4
     5f4:	0402004a 	streq	r0, [r2], #-74	; 0xffffffb6
     5f8:	02054a02 	andeq	r4, r5, #8192	; 0x2000
     5fc:	10053006 	andne	r3, r5, r6
     600:	09050106 	stmdbeq	r5, {r1, r2, r8}
     604:	2e1d052e 	cfmul64cs	mvdx0, mvdx13, mvdx14
     608:	052e0505 	streq	r0, [lr, #-1285]!	; 0xfffffafb
     60c:	05500603 	ldrbeq	r0, [r0, #-1539]	; 0xfffff9fd
     610:	0501060d 	streq	r0, [r1, #-1549]	; 0xfffff9f3
     614:	052f0602 	streq	r0, [pc, #-1538]!	; 1a <__code_start__-0x7fe6>
     618:	0501060e 	streq	r0, [r1, #-1550]	; 0xfffff9f2
     61c:	05052e08 	streq	r2, [r5, #-3592]	; 0xfffff1f8
     620:	0603052e 	streq	r0, [r3], -lr, lsr #10
     624:	060c0550 			; <UNDEFINED> instruction: 0x060c0550
     628:	06020501 	streq	r0, [r2], -r1, lsl #10
     62c:	0608052f 	streq	r0, [r8], -pc, lsr #10
     630:	4b010501 	blmi	41a3c <__bss_end__+0x366e4>
     634:	03060305 	movweq	r0, #25349	; 0x6305
     638:	1c052e73 	stcne	14, cr2, [r5], {115}	; 0x73
     63c:	0e050106 	adfeqs	f0, f5, f6
     640:	0603052e 	streq	r0, [r3], -lr, lsr #10
     644:	0613054b 	ldreq	r0, [r3], -fp, asr #10
     648:	2e1a0501 	cfmul32cs	mvfx0, mvfx10, mvfx1
     64c:	052e0d05 	streq	r0, [lr, #-3333]!	; 0xfffff2fb
     650:	05500603 	ldrbeq	r0, [r0, #-1539]	; 0xfffff9fd
     654:	05010615 	streq	r0, [r1, #-1557]	; 0xfffff9eb
     658:	03052e0d 	movweq	r2, #24077	; 0x5e0d
     65c:	13054b06 	movwne	r4, #23302	; 0x5b06
     660:	0c050106 	stfeqs	f0, [r5], {6}
     664:	0601052e 	streq	r0, [r1], -lr, lsr #10
     668:	d67fb903 	ldrbtle	fp, [pc], -r3, lsl #18
     66c:	02050106 	andeq	r0, r5, #-2147483647	; 0x80000001
     670:	05058306 	streq	r8, [r5, #-774]	; 0xfffffcfa
     674:	06050106 	streq	r0, [r5], -r6, lsl #2
     678:	0602052f 	streq	r0, [r2], -pc, lsr #10
     67c:	0d05672f 	stceq	7, cr6, [r5, #-188]	; 0xffffff44
     680:	02050106 	andeq	r0, r5, #-2147483647	; 0x80000001
     684:	05054b06 	streq	r4, [r5, #-2822]	; 0xfffff4fa
     688:	02050106 	andeq	r0, r5, #-2147483647	; 0x80000001
     68c:	05134c06 	ldreq	r4, [r3, #-3078]	; 0xfffff3fa
     690:	0501060d 	streq	r0, [r1, #-1549]	; 0xfffff9f3
     694:	062f0602 	strteq	r0, [pc], -r2, lsl #12
     698:	052f062e 	streq	r0, [pc, #-1582]!	; 72 <__code_start__-0x7f8e>
     69c:	05010609 	streq	r0, [r1, #-1545]	; 0xfffff9f7
     6a0:	0105620a 	tsteq	r5, sl, lsl #4
     6a4:	06da0633 			; <UNDEFINED> instruction: 0x06da0633
     6a8:	06020501 	streq	r0, [r2], -r1, lsl #10
     6ac:	05141367 	ldreq	r1, [r4, #-871]	; 0xfffffc99
     6b0:	05010624 	streq	r0, [r1, #-1572]	; 0xfffff9dc
     6b4:	09052e29 	stmdbeq	r5, {r0, r3, r5, r9, sl, fp, sp}
     6b8:	0602052e 	streq	r0, [r2], -lr, lsr #10
     6bc:	060d052f 	streq	r0, [sp], -pc, lsr #10
     6c0:	4a050501 	bmi	141acc <__bss_end__+0x136774>
     6c4:	50060205 	andpl	r0, r6, r5, lsl #4
     6c8:	01060905 	tsteq	r6, r5, lsl #18
     6cc:	0603052e 	streq	r0, [r3], -lr, lsr #10
     6d0:	0616052a 	ldreq	r0, [r6], -sl, lsr #10
     6d4:	4a0e0501 	bmi	381ae0 <__bss_end__+0x376788>
     6d8:	2f060305 	svccs	0x00060305
     6dc:	01060f05 	tsteq	r6, r5, lsl #30
     6e0:	6d060405 	cfstrsvs	mvf0, [r6, #-20]	; 0xffffffec
     6e4:	01060705 	tsteq	r6, r5, lsl #14
     6e8:	34060505 	strcc	r0, [r6], #-1285	; 0xfffffafb
     6ec:	01060f05 	tsteq	r6, r5, lsl #30
     6f0:	4b060505 	blmi	181b0c <__bss_end__+0x1767b4>
     6f4:	01060705 	tsteq	r6, r5, lsl #14
     6f8:	2f060505 	svccs	0x00060505
     6fc:	01060f05 	tsteq	r6, r5, lsl #30
     700:	30060405 	andcc	r0, r6, r5, lsl #8
     704:	01060a05 	tsteq	r6, r5, lsl #20
     708:	4b060405 	blmi	181724 <__bss_end__+0x1763cc>
     70c:	01060b05 	tsteq	r6, r5, lsl #22
     710:	0605052e 	streq	r0, [r5], -lr, lsr #10
     714:	052e7703 	streq	r7, [lr, #-1795]!	; 0xfffff8fd
     718:	05010618 	streq	r0, [r1, #-1560]	; 0xfffff9e8
     71c:	1a052e12 	bne	14bf6c <__bss_end__+0x140c14>
     720:	4a7a0306 	bmi	1e81340 <__bss_end__+0x1e75fe8>
     724:	05011805 	streq	r1, [r1, #-2053]	; 0xfffff7fb
     728:	05010620 	streq	r0, [r1, #-1568]	; 0xfffff9e0
     72c:	03052e27 	movweq	r2, #24103	; 0x5e27
     730:	0b053006 	bleq	14c750 <__bss_end__+0x1413f8>
     734:	06050106 	streq	r0, [r5], -r6, lsl #2
     738:	0603052e 	streq	r0, [r3], -lr, lsr #10
     73c:	054a0f03 	strbeq	r0, [sl, #-3843]	; 0xfffff0fd
     740:	05010609 	streq	r0, [r1, #-1545]	; 0xfffff9f7
     744:	04054a06 	streq	r4, [r5], #-2566	; 0xfffff5fa
     748:	0d054c06 	stceq	12, cr4, [r5, #-24]	; 0xffffffe8
     74c:	052e0106 	streq	r0, [lr, #-262]!	; 0xfffffefa
     750:	022e2e07 	eoreq	r2, lr, #112	; 0x70
     754:	01010006 	tsteq	r1, r6
     758:	0000062e 	andeq	r0, r0, lr, lsr #12
     75c:	00d40003 	sbcseq	r0, r4, r3
     760:	01020000 	mrseq	r0, (UNDEF: 2)
     764:	000d0efb 	strdeq	r0, [sp], -fp
     768:	01010101 	tsteq	r1, r1, lsl #2
     76c:	01000000 	mrseq	r0, (UNDEF: 0)
     770:	2f010000 	svccs	0x00010000
     774:	2f74706f 	svccs	0x0074706f
     778:	656d6f68 	strbvs	r6, [sp, #-3944]!	; 0xfffff098
     77c:	77657262 	strbvc	r7, [r5, -r2, ror #4]!
     780:	6c65432f 	stclvs	3, cr4, [r5], #-188	; 0xffffff44
     784:	2f72616c 	svccs	0x0072616c
     788:	2d6d7261 	sfmcs	f7, 2, [sp, #-388]!	; 0xfffffe7c
     78c:	656e6f6e 	strbvs	r6, [lr, #-3950]!	; 0xfffff092
     790:	6261652d 	rsbvs	r6, r1, #188743680	; 0xb400000
     794:	2f392d69 	svccs	0x00392d69
     798:	30322d39 	eorscc	r2, r2, r9, lsr sp
     79c:	34713931 	ldrbtcc	r3, [r1], #-2353	; 0xfffff6cf
     7a0:	3173632d 	cmncc	r3, sp, lsr #6
     7a4:	2f653730 	svccs	0x00653730
     7a8:	2f62696c 	svccs	0x0062696c
     7ac:	2f636367 	svccs	0x00636367
     7b0:	2d6d7261 	sfmcs	f7, 2, [sp, #-388]!	; 0xfffffe7c
     7b4:	656e6f6e 	strbvs	r6, [lr, #-3950]!	; 0xfffff092
     7b8:	6261652d 	rsbvs	r6, r1, #188743680	; 0xb400000
     7bc:	2e392f69 	cdpcs	15, 3, cr2, cr9, cr9, {3}
     7c0:	2f312e32 	svccs	0x00312e32
     7c4:	6c636e69 	stclvs	14, cr6, [r3], #-420	; 0xfffffe5c
     7c8:	00656475 	rsbeq	r6, r5, r5, ror r4
     7cc:	6573552f 	ldrbvs	r5, [r3, #-1327]!	; 0xfffffad1
     7d0:	6d2f7372 	stcvs	3, cr7, [pc, #-456]!	; 610 <__code_start__-0x79f0>
     7d4:	73656c69 	cmnvc	r5, #26880	; 0x6900
     7d8:	756f532f 	strbvc	r5, [pc, #-815]!	; 4b1 <__code_start__-0x7b4f>
     7dc:	2f656372 	svccs	0x00656372
     7e0:	34327363 	ldrtcc	r7, [r2], #-867	; 0xfffffc9d
     7e4:	2f786c30 	svccs	0x00786c30
     7e8:	7062696c 	rsbvc	r6, r2, ip, ror #18
     7ec:	6e692f69 	cdpvs	15, 6, cr2, cr9, cr9, {3}
     7f0:	64756c63 	ldrbtvs	r6, [r5], #-3171	; 0xfffff39d
     7f4:	63000065 	movwvs	r0, #101	; 0x65
     7f8:	63672d6b 	cmnvs	r7, #6848	; 0x1ac0
     7fc:	0000632e 	andeq	r6, r0, lr, lsr #6
     800:	72730000 	rsbsvc	r0, r3, #0, 0
     804:	6f6c2d63 	svcvs	0x006c2d63
     808:	00682e63 	rsbeq	r2, r8, r3, ror #28
     80c:	73000000 	movwvc	r0, #0
     810:	6e696474 	mcrvs	4, 3, r6, cr9, cr4, {3}
     814:	63672d74 	cmnvs	r7, #116, 26	; 0x1d00
     818:	00682e63 	rsbeq	r2, r8, r3, ror #28
     81c:	72000001 	andvc	r0, r0, #1, 0
     820:	682e6970 	stmdavs	lr!, {r4, r5, r6, r8, fp, sp, lr}
     824:	00000200 	andeq	r0, r0, r0, lsl #4
     828:	6c616b63 			; <UNDEFINED> instruction: 0x6c616b63
     82c:	2e636f6c 	cdpcs	15, 6, cr6, cr3, cr12, {3}
     830:	00000068 	andeq	r0, r0, r8, rrx
     834:	01050000 	mrseq	r0, (UNDEF: 5)
     838:	7c020500 	cfstr32vc	mvfx0, [r2], {-0}
     83c:	03000087 	movweq	r0, #135	; 0x87
     840:	0106012b 	tsteq	r6, fp, lsr #2
     844:	68060505 	stmdavs	r6, {r0, r2, r8, sl}
     848:	01060b05 	tsteq	r6, r5, lsl #22
     84c:	054a0805 	strbeq	r0, [sl, #-2053]	; 0xfffff7fb
     850:	0402001d 	streq	r0, [r2], #-29	; 0xffffffe3
     854:	18054a01 	stmdane	r5, {r0, r9, fp, lr}
     858:	01040200 	mrseq	r0, R12_usr
     85c:	4d0c054a 	cfstr32mi	mvfx0, [ip, #-296]	; 0xfffffed8
     860:	2c10052e 	cfldr32cs	mvfx0, [r0], {46}	; 0x2e
     864:	01052e2e 	tsteq	r5, lr, lsr #28
     868:	1f030631 	svcne	0x00030631
     86c:	0501069e 	streq	r0, [r1, #-1694]	; 0xfffff962
     870:	01830605 	orreq	r0, r3, r5, lsl #12
     874:	02040200 	andeq	r0, r4, #0, 4
     878:	04020082 	streq	r0, [r2], #-130	; 0xffffff7e
     87c:	02000102 	andeq	r0, r0, #-2147483648	; 0x80000000
     880:	00150204 	andseq	r0, r5, r4, lsl #4
     884:	01020402 	tsteq	r2, r2, lsl #8
     888:	02040200 	andeq	r0, r4, #0, 4
     88c:	0402004a 	streq	r0, [r2], #-74	; 0xffffffb6
     890:	02000102 	andeq	r0, r0, #-2147483648	; 0x80000000
     894:	00130204 	andseq	r0, r3, r4, lsl #4
     898:	01020402 	tsteq	r2, r2, lsl #8
     89c:	01040200 	mrseq	r0, R12_usr
     8a0:	0402004a 	streq	r0, [r2], #-74	; 0xffffffb6
     8a4:	02000101 	andeq	r0, r0, #1073741824	; 0x40000000
     8a8:	9e060104 	adflss	f0, f6, f4
     8ac:	01040200 	mrseq	r0, R12_usr
     8b0:	0402002e 	streq	r0, [r2], #-46	; 0xffffffd2
     8b4:	002e0601 	eoreq	r0, lr, r1, lsl #12
     8b8:	2a010402 	bcs	418c8 <__bss_end__+0x36570>
     8bc:	01040200 	mrseq	r0, R12_usr
     8c0:	04020001 	streq	r0, [r2], #-1
     8c4:	009e0601 	addseq	r0, lr, r1, lsl #12
     8c8:	2e010402 	cdpcs	4, 0, cr0, cr1, cr2, {0}
     8cc:	01040200 	mrseq	r0, R12_usr
     8d0:	02002e06 	andeq	r2, r0, #96	; 0x60
     8d4:	00310104 	eorseq	r0, r1, r4, lsl #2
     8d8:	01010402 	tsteq	r1, r2, lsl #8
     8dc:	01040200 	mrseq	r0, R12_usr
     8e0:	02009e06 	andeq	r9, r0, #96	; 0x60
     8e4:	002e0104 	eoreq	r0, lr, r4, lsl #2
     8e8:	06010402 	streq	r0, [r1], -r2, lsl #8
     8ec:	0610052e 	ldreq	r0, [r0], -lr, lsr #10
     8f0:	2e2e6c03 	cdpcs	12, 2, cr6, cr14, cr3, {0}
     8f4:	0319052e 	tsteq	r9, #192937984	; 0xb800000
     8f8:	11050121 	tstne	r5, r1, lsr #2
     8fc:	0402004b 	streq	r0, [r2], #-75	; 0xffffffb5
     900:	02002e04 	andeq	r2, r0, #4, 28	; 0x40
     904:	4d060404 	cfstrsmi	mvf0, [r6, #-16]
     908:	02001405 	andeq	r1, r0, #83886080	; 0x5000000
     90c:	01060404 	tsteq	r6, r4, lsl #8
     910:	04040200 	streq	r0, [r4], #-512	; 0xfffffe00
     914:	0023054a 	eoreq	r0, r3, sl, asr #10
     918:	06020402 	streq	r0, [r2], -r2, lsl #8
     91c:	05017203 	streq	r7, [r1, #-515]	; 0xfffffdfd
     920:	04020024 	streq	r0, [r2], #-36	; 0xffffffdc
     924:	05010602 	streq	r0, [r1, #-1538]	; 0xfffff9fe
     928:	0402001b 	streq	r0, [r2], #-27	; 0xffffffe5
     92c:	052e0601 	streq	r0, [lr, #-1537]!	; 0xfffff9ff
     930:	04020005 	streq	r0, [r2], #-5
     934:	05010601 	streq	r0, [r1, #-1537]	; 0xfffff9ff
     938:	054c0609 	strbeq	r0, [ip, #-1545]	; 0xfffff9f7
     93c:	05010614 	streq	r0, [r1, #-1556]	; 0xfffff9ec
     940:	62030616 	andvs	r0, r3, #23068672	; 0x1600000
     944:	1405052e 	strne	r0, [r5], #-1326	; 0xfffffad2
     948:	060a0514 			; <UNDEFINED> instruction: 0x060a0514
     94c:	4a080501 	bmi	201d58 <__bss_end__+0x1f6a00>
     950:	4c060505 	cfstr32mi	mvfx0, [r6], {5}
     954:	01060c05 	tsteq	r6, r5, lsl #24
     958:	06090566 	streq	r0, [r9], -r6, ror #10
     95c:	05011903 	streq	r1, [r1, #-2307]	; 0xfffff6fd
     960:	0501060c 	streq	r0, [r1, #-1548]	; 0xfffff9f4
     964:	054c060d 	strbeq	r0, [ip, #-1549]	; 0xfffff9f3
     968:	05010629 	streq	r0, [r1, #-1577]	; 0xfffff9d7
     96c:	052f060d 	streq	r0, [pc, #-1549]!	; 367 <__code_start__-0x7c99>
     970:	05010616 	streq	r0, [r1, #-1558]	; 0xfffff9ea
     974:	f32f060d 	vmax.u32	d0, d15, d13
     978:	01061005 	tsteq	r6, r5
     97c:	4c061105 	stfmis	f1, [r6], {5}
     980:	01061c05 	tsteq	r6, r5, lsl #24
     984:	002e1905 	eoreq	r1, lr, r5, lsl #18
     988:	66040402 	strvs	r0, [r4], -r2, lsl #8
     98c:	02001105 	andeq	r1, r0, #1073741825	; 0x40000001
     990:	2f060404 	svccs	0x00060404
     994:	02002c05 	andeq	r2, r0, #1280	; 0x500
     998:	01060404 	tsteq	r6, r4, lsl #8
     99c:	02001105 	andeq	r1, r0, #1073741825	; 0x40000001
     9a0:	4a2e0404 	bmi	b819b8 <__bss_end__+0xb76660>
     9a4:	4f061505 	svcmi	0x00061505
     9a8:	01064d05 	tsteq	r6, r5, lsl #26
     9ac:	052e1505 	streq	r1, [lr, #-1285]!	; 0xfffffafb
     9b0:	06a30611 	ssateq	r0, #4, r1, lsl #12
     9b4:	16010566 	strne	r0, [r1], -r6, ror #10
     9b8:	0903064a 	stmdbeq	r3, {r1, r3, r6, r9, sl}
     9bc:	05059008 	streq	r9, [r5, #-8]
     9c0:	010a0586 	smlabbeq	sl, r6, r5, r0
     9c4:	01061505 	tsteq	r6, r5, lsl #10
     9c8:	02002505 	andeq	r2, r0, #20971520	; 0x1400000
     9cc:	2e060104 	adfcss	f0, f6, f4
     9d0:	02000505 	andeq	r0, r0, #20971520	; 0x1400000
     9d4:	01060104 	tsteq	r6, r4, lsl #2
     9d8:	02000905 	andeq	r0, r0, #81920	; 0x14000
     9dc:	4c060304 	stcmi	3, cr0, [r6], {4}
     9e0:	02003205 	andeq	r3, r0, #1342177280	; 0x50000000
     9e4:	01060304 	tsteq	r6, r4, lsl #6
     9e8:	02002105 	andeq	r2, r0, #1073741825	; 0x40000001
     9ec:	054a0304 	strbeq	r0, [sl, #-772]	; 0xfffffcfc
     9f0:	04020011 	streq	r0, [r2], #-17	; 0xffffffef
     9f4:	28052e03 	stmdacs	r5, {r0, r1, r9, sl, fp, sp}
     9f8:	03040200 	movweq	r0, #16896	; 0x4200
     9fc:	2c052c06 	stccs	12, cr2, [r5], {6}
     a00:	03040200 	movweq	r0, #16896	; 0x4200
     a04:	02000106 	andeq	r0, r0, #-2147483647	; 0x80000001
     a08:	002e0304 	eoreq	r0, lr, r4, lsl #6
     a0c:	2e030402 	cdpcs	4, 0, cr0, cr3, cr2, {0}
     a10:	19060505 	stmdbne	r6, {r0, r2, r8, sl}
     a14:	062e0613 			; <UNDEFINED> instruction: 0x062e0613
     a18:	060d0530 			; <UNDEFINED> instruction: 0x060d0530
     a1c:	06050501 	streq	r0, [r5], -r1, lsl #10
     a20:	060d054b 	streq	r0, [sp], -fp, asr #10
     a24:	06050501 	streq	r0, [r5], -r1, lsl #10
     a28:	060d052f 	streq	r0, [sp], -pc, lsr #10
     a2c:	06050501 	streq	r0, [r5], -r1, lsl #10
     a30:	060d052f 	streq	r0, [sp], -pc, lsr #10
     a34:	06050501 	streq	r0, [r5], -r1, lsl #10
     a38:	83136a35 	tsthi	r3, #217088	; 0x35000
     a3c:	13681369 	cmnne	r8, #-1543503871	; 0xa4000001
     a40:	67060105 	strvs	r0, [r6, -r5, lsl #2]
     a44:	08230306 	stmdaeq	r3!, {r1, r2, r8, r9}
     a48:	05010658 	streq	r0, [r1, #-1624]	; 0xfffff9a8
     a4c:	13830605 	orrne	r0, r3, #5242880	; 0x500000
     a50:	2f062e06 	svccs	0x00062e06
     a54:	0a052f4c 	beq	14c78c <__bss_end__+0x141434>
     a58:	06150501 	ldreq	r0, [r5], -r1, lsl #10
     a5c:	27054a01 	strcs	r4, [r5, -r1, lsl #20]
     a60:	2e1b050d 	cfmul32cs	mvfx0, mvfx11, mvfx13
     a64:	052e0e05 	streq	r0, [lr, #-3589]!	; 0xfffff1fb
     a68:	0d053305 	stceq	3, cr3, [r5, #-20]	; 0xffffffec
     a6c:	13053306 	movwne	r3, #21254	; 0x5306
     a70:	0d050106 	stfeqs	f0, [r5, #-24]	; 0xffffffe8
     a74:	66062f06 	strvs	r2, [r6], -r6, lsl #30
     a78:	02002805 	andeq	r2, r0, #327680	; 0x50000
     a7c:	03060204 	movweq	r0, #25092	; 0x6204
     a80:	2c052e7a 	stccs	14, cr2, [r5], {122}	; 0x7a
     a84:	02040200 	andeq	r0, r4, #0, 4
     a88:	25050106 	strcs	r0, [r5, #-262]	; 0xfffffefa
     a8c:	01040200 	mrseq	r0, R12_usr
     a90:	05056606 	streq	r6, [r5, #-1542]	; 0xfffff9fa
     a94:	01040200 	mrseq	r0, R12_usr
     a98:	09050106 	stmdbeq	r5, {r1, r2, r8}
     a9c:	10054c06 	andne	r4, r5, r6, lsl #24
     aa0:	09050106 	stmdbeq	r5, {r1, r2, r8}
     aa4:	0e052f06 	cdpeq	15, 0, cr2, cr5, cr6, {0}
     aa8:	0c050106 	stfeqs	f0, [r5], {6}
     aac:	060e052e 	streq	r0, [lr], -lr, lsr #10
     ab0:	0611054f 	ldreq	r0, [r1], -pc, asr #10
     ab4:	060d0501 	streq	r0, [sp], -r1, lsl #10
     ab8:	0619054c 	ldreq	r0, [r9], -ip, asr #10
     abc:	060d0501 	streq	r0, [sp], -r1, lsl #10
     ac0:	2e66062f 	cdpcs	6, 6, cr0, cr6, cr15, {1}
     ac4:	0605052e 	streq	r0, [r5], -lr, lsr #10
     ac8:	4a060116 	bmi	180f28 <__bss_end__+0x175bd0>
     acc:	05132e06 	ldreq	r2, [r3, #-3590]	; 0xfffff1fa
     ad0:	05010608 	streq	r0, [r1, #-1544]	; 0xfffff9f8
     ad4:	014b0609 	cmpeq	fp, r9, lsl #12
     ad8:	0402004a 	streq	r0, [r2], #-74	; 0xffffffb6
     adc:	05051401 	streq	r1, [r5, #-1025]	; 0xfffffbff
     ae0:	01040200 	mrseq	r0, R12_usr
     ae4:	04020014 	streq	r0, [r2], #-20	; 0xffffffec
     ae8:	08054b01 	stmdaeq	r5, {r0, r8, r9, fp, lr}
     aec:	01040200 	mrseq	r0, R12_usr
     af0:	09050106 	stmdbeq	r5, {r1, r2, r8}
     af4:	17053006 	strne	r3, [r5, -r6]
     af8:	01050106 	tsteq	r5, r6, lsl #2
     afc:	06090534 			; <UNDEFINED> instruction: 0x06090534
     b00:	014a7503 	cmpeq	sl, r3, lsl #10
     b04:	35030105 	strcc	r0, [r3, #-261]	; 0xfffffefb
     b08:	05012202 	streq	r2, [r1, #-514]	; 0xfffffdfe
     b0c:	4b138305 	blmi	4e1728 <__bss_end__+0x4d63d0>
     b10:	0a052f4c 	beq	14c848 <__bss_end__+0x1414f0>
     b14:	06150501 	ldreq	r0, [r5], -r1, lsl #10
     b18:	27054a01 	strcs	r4, [r5, -r1, lsl #20]
     b1c:	2e1b050d 	cfmul32cs	mvfx0, mvfx11, mvfx13
     b20:	052e0e05 	streq	r0, [lr, #-3589]!	; 0xfffff1fb
     b24:	0d053305 	stceq	3, cr3, [r5, #-20]	; 0xffffffec
     b28:	13053306 	movwne	r3, #21254	; 0x5306
     b2c:	0d050106 	stfeqs	f0, [r5, #-24]	; 0xffffffe8
     b30:	1e052f06 	cdpne	15, 0, cr2, cr5, cr6, {0}
     b34:	1a050106 	bne	140f54 <__bss_end__+0x135bfc>
     b38:	060d052e 	streq	r0, [sp], -lr, lsr #10
     b3c:	0502042f 	streq	r0, [r2, #-1071]	; 0xfffffbd1
     b40:	7def030b 	stclvc	3, cr0, [pc, #44]!	; b74 <__code_start__-0x748c>
     b44:	1305052e 	movwne	r0, #21806	; 0x552e
     b48:	01060c05 	tsteq	r6, r5, lsl #24
     b4c:	050104ba 	streq	r0, [r1, #-1210]	; 0xfffffb46
     b50:	0290030d 	addseq	r0, r0, #872415232	; 0x34000000
     b54:	2f066601 	svccs	0x00066601
     b58:	02002805 	andeq	r2, r0, #327680	; 0x50000
     b5c:	78030204 	stmdavc	r3, {r2, r9}
     b60:	002c0566 	eoreq	r0, ip, r6, ror #10
     b64:	06020402 	streq	r0, [r2], -r2, lsl #8
     b68:	00250501 	eoreq	r0, r5, r1, lsl #10
     b6c:	06010402 	streq	r0, [r1], -r2, lsl #8
     b70:	00050566 	andeq	r0, r5, r6, ror #10
     b74:	06010402 	streq	r0, [r1], -r2, lsl #8
     b78:	06090501 	streq	r0, [r9], -r1, lsl #10
     b7c:	0610054c 	ldreq	r0, [r0], -ip, asr #10
     b80:	06090501 	streq	r0, [r9], -r1, lsl #10
     b84:	060e052f 	streq	r0, [lr], -pc, lsr #10
     b88:	2e0c0501 	cfsh32cs	mvfx0, mvfx12, #1
     b8c:	06050566 	streq	r0, [r5], -r6, ror #10
     b90:	01010903 	tsteq	r1, r3, lsl #18
     b94:	2e068206 	cdpcs	2, 0, cr8, cr6, cr6, {0}
     b98:	06010514 			; <UNDEFINED> instruction: 0x06010514
     b9c:	03066613 	movweq	r6, #26131	; 0x6613
     ba0:	3c087dee 	stccc	13, cr7, [r8], {238}	; 0xee
     ba4:	05050106 	streq	r0, [r5, #-262]	; 0xfffffefa
     ba8:	01148306 	tsteq	r4, r6, lsl #6
     bac:	02040200 	andeq	r0, r4, #0, 4
     bb0:	0402004a 	streq	r0, [r2], #-74	; 0xffffffb6
     bb4:	02000102 	andeq	r0, r0, #-2147483648	; 0x80000000
     bb8:	05130204 	ldreq	r0, [r3, #-516]	; 0xfffffdfc
     bbc:	04020009 	streq	r0, [r2], #-9
     bc0:	05010602 	streq	r0, [r1, #-1538]	; 0xfffff9fe
     bc4:	04020008 	streq	r0, [r2], #-8
     bc8:	09054a02 	stmdbeq	r5, {r1, r9, fp, lr}
     bcc:	13154b06 	tstne	r5, #6144	; 0x1800
     bd0:	01061405 	tsteq	r6, r5, lsl #8
     bd4:	0609054a 	streq	r0, [r9], -sl, asr #10
     bd8:	0612052f 	ldreq	r0, [r2], -pc, lsr #10
     bdc:	06090501 	streq	r0, [r9], -r1, lsl #10
     be0:	10054b4b 	andne	r4, r5, fp, asr #22
     be4:	05050106 	streq	r0, [r5, #-262]	; 0xfffffefa
     be8:	0c054c06 	stceq	12, cr4, [r5], {6}
     bec:	01050106 	tsteq	r5, r6, lsl #2
     bf0:	0005054b 	andeq	r0, r5, fp, asr #10
     bf4:	06010402 	streq	r0, [r1], -r2, lsl #8
     bf8:	004a7403 	subeq	r7, sl, r3, lsl #8
     bfc:	01010402 	tsteq	r1, r2, lsl #8
     c00:	01040200 	mrseq	r0, R12_usr
     c04:	0200ba06 	andeq	fp, r0, #24576	; 0x6000
     c08:	2e060104 	adfcss	f0, f6, f4
     c0c:	01300905 	teqeq	r0, r5, lsl #18
     c10:	2e068206 	cdpcs	2, 0, cr8, cr6, cr6, {0}
     c14:	89033805 	stmdbhi	r3, {r0, r2, fp, ip, sp}
     c18:	06740801 	ldrbteq	r0, [r4], -r1, lsl #16
     c1c:	06050501 	streq	r0, [r5], -r1, lsl #10
     c20:	0a051383 	beq	145a34 <__bss_end__+0x13a6dc>
     c24:	060e0501 	streq	r0, [lr], -r1, lsl #10
     c28:	2d090501 	cfstr32cs	mvfx0, [r9, #-4]
     c2c:	052f0505 	streq	r0, [pc, #-1285]!	; 72f <__code_start__-0x78d1>
     c30:	0530060d 	ldreq	r0, [r0, #-1549]!	; 0xfffff9f3
     c34:	05010612 	streq	r0, [r1, #-1554]	; 0xfffff9ee
     c38:	04020021 	streq	r0, [r2], #-33	; 0xffffffdf
     c3c:	052c0602 	streq	r0, [ip, #-1538]!	; 0xfffff9fe
     c40:	04020022 	streq	r0, [r2], #-34	; 0xffffffde
     c44:	05010602 	streq	r0, [r1, #-1538]	; 0xfffff9fe
     c48:	04020015 	streq	r0, [r2], #-21	; 0xffffffeb
     c4c:	052e0601 	streq	r0, [lr, #-1537]!	; 0xfffff9ff
     c50:	04020005 	streq	r0, [r2], #-5
     c54:	05010601 	streq	r0, [r1, #-1537]	; 0xfffff9ff
     c58:	054b0609 	strbeq	r0, [fp, #-1545]	; 0xfffff9f7
     c5c:	05010614 	streq	r0, [r1, #-1556]	; 0xfffff9ec
     c60:	16052e0c 	strne	r2, [r5], -ip, lsl #28
     c64:	0505f906 	streq	pc, [r5, #-2310]	; 0xfffff6fa
     c68:	0a051367 	beq	145a0c <__bss_end__+0x13a6b4>
     c6c:	06150501 	ldreq	r0, [r5], -r1, lsl #10
     c70:	09054a01 	stmdbeq	r5, {r0, r9, fp, lr}
     c74:	2f050511 	svccs	0x00050511
     c78:	03061105 	movweq	r1, #24837	; 0x6105
     c7c:	06012e09 	streq	r2, [r1], -r9, lsl #28
     c80:	002e0682 	eoreq	r0, lr, r2, lsl #13
     c84:	4a010402 	bmi	41c94 <__bss_end__+0x3693c>
     c88:	02000905 	andeq	r0, r0, #81920	; 0x14000
     c8c:	05150104 	ldreq	r0, [r5, #-260]	; 0xfffffefc
     c90:	04020010 	streq	r0, [r2], #-16
     c94:	00010601 	andeq	r0, r1, r1, lsl #12
     c98:	2e010402 	cdpcs	4, 0, cr0, cr1, cr2, {0}
     c9c:	02002805 	andeq	r2, r0, #327680	; 0x50000
     ca0:	03060104 	movweq	r0, #24836	; 0x6104
     ca4:	2c050174 	stfcss	f0, [r5], {116}	; 0x74
     ca8:	01040200 	mrseq	r0, R12_usr
     cac:	25050106 	strcs	r0, [r5, #-262]	; 0xfffffefa
     cb0:	02040200 	andeq	r0, r4, #0, 4
     cb4:	05056606 	streq	r6, [r5, #-1542]	; 0xfffff9fa
     cb8:	02040200 	andeq	r0, r4, #0, 4
     cbc:	09050106 	stmdbeq	r5, {r1, r2, r8}
     cc0:	05134b06 	ldreq	r4, [r3, #-2822]	; 0xfffff4fa
     cc4:	4a01061e 	bmi	42544 <__bss_end__+0x371ec>
     cc8:	4b060905 	blmi	1830e4 <__bss_end__+0x177d8c>
     ccc:	01063705 	tsteq	r6, r5, lsl #14
     cd0:	052e3f05 	streq	r3, [lr, #-3845]!	; 0xfffff0fb
     cd4:	1b052e1e 	blne	14c554 <__bss_end__+0x1411fc>
     cd8:	06090582 	streq	r0, [r9], -r2, lsl #11
     cdc:	4a9e012f 	bmi	fe7811a0 <__bss_end__+0xfe775e48>
     ce0:	060e0513 			; <UNDEFINED> instruction: 0x060e0513
     ce4:	2e0c0501 	cfsh32cs	mvfx0, mvfx12, #1
     ce8:	4b060d05 	blmi	184104 <__bss_end__+0x178dac>
     cec:	01061505 	tsteq	r6, r5, lsl #10
     cf0:	67060d05 	strvs	r0, [r6, -r5, lsl #26]
     cf4:	01061f05 	tsteq	r6, r5, lsl #30
     cf8:	2f060d05 	svccs	0x00060d05
     cfc:	01061005 	tsteq	r6, r5
     d00:	06050566 	streq	r0, [r5], -r6, ror #10
     d04:	06010518 			; <UNDEFINED> instruction: 0x06010518
     d08:	03062e13 	movweq	r2, #28179	; 0x6e13
     d0c:	0620082f 	strteq	r0, [r0], -pc, lsr #16
     d10:	06050501 	streq	r0, [r5], -r1, lsl #10
     d14:	060c0568 	streq	r0, [ip], -r8, ror #10
     d18:	2f010501 	svccs	0x00010501
     d1c:	0505be06 	streq	fp, [r5, #-3590]	; 0xfffff1fa
     d20:	0905136a 	stmdbeq	r5, {r1, r3, r5, r6, r8, r9, ip}
     d24:	08050106 	stmdaeq	r5, {r1, r2, r8}
     d28:	0609054a 	streq	r0, [r9], -sl, asr #10
     d2c:	4a01144b 	bmi	45e60 <__bss_end__+0x3ab08>
     d30:	05130505 	ldreq	r0, [r3, #-1285]	; 0xfffffafb
     d34:	05130601 	ldreq	r0, [r3, #-1537]	; 0xfffff9ff
     d38:	012a0609 			; <UNDEFINED> instruction: 0x012a0609
     d3c:	0801059e 	stmdaeq	r1, {r1, r2, r3, r4, r7, r8, sl}
     d40:	6a050560 	bvs	1422c8 <__bss_end__+0x136f70>
     d44:	06170513 			; <UNDEFINED> instruction: 0x06170513
     d48:	06050501 	streq	r0, [r5], -r1, lsl #10
     d4c:	0608054b 	streq	r0, [r8], -fp, asr #10
     d50:	06090501 	streq	r0, [r9], -r1, lsl #10
     d54:	0601144b 	streq	r1, [r1], -fp, asr #8
     d58:	052e064a 	streq	r0, [lr, #-1610]!	; 0xfffff9b6
     d5c:	05131305 	ldreq	r1, [r3, #-773]	; 0xfffffcfb
     d60:	05130601 	ldreq	r0, [r3, #-1537]	; 0xfffff9ff
     d64:	01450609 	cmpeq	r5, r9, lsl #12
     d68:	0301059e 	movweq	r0, #5534	; 0x159e
     d6c:	0505f221 	streq	pc, [r5, #-545]	; 0xfffffddf
     d70:	17052f67 	strne	r2, [r5, -r7, ror #30]
     d74:	05050106 	streq	r0, [r5, #-262]	; 0xfffffefa
     d78:	01053206 	tsteq	r5, r6, lsl #4
     d7c:	bd061306 	stclt	3, cr1, [r6, #-24]	; 0xffffffe8
     d80:	01670505 	cmneq	r7, r5, lsl #10
     d84:	0008029e 	muleq	r8, lr, r2
     d88:	01360101 	teqeq	r6, r1, lsl #2
     d8c:	00030000 	andeq	r0, r3, r0
     d90:	0000005b 	andeq	r0, r0, fp, asr r0
     d94:	0efb0102 	cdpeq	1, 15, cr0, cr11, cr2, {0}
     d98:	0101000d 	tsteq	r1, sp
     d9c:	00000101 	andeq	r0, r0, r1, lsl #2
     da0:	00000100 	andeq	r0, r0, r0, lsl #2
     da4:	732f2e01 			; <UNDEFINED> instruction: 0x732f2e01
     da8:	2f006372 	svccs	0x00006372
     dac:	72657355 	rsbvc	r7, r5, #1409286145	; 0x54000001
     db0:	696d2f73 	stmdbvs	sp!, {r0, r1, r4, r5, r6, r8, r9, sl, fp, sp}^
     db4:	2f73656c 	svccs	0x0073656c
     db8:	72756f53 	rsbsvc	r6, r5, #332	; 0x14c
     dbc:	632f6563 			; <UNDEFINED> instruction: 0x632f6563
     dc0:	30343273 	eorscc	r3, r4, r3, ror r2
     dc4:	6c2f786c 	stcvs	8, cr7, [pc], #-432	; c1c <__code_start__-0x73e4>
     dc8:	69706269 	ldmdbvs	r0!, {r0, r3, r5, r6, r9, sp, lr}^
     dcc:	636e692f 	cmnvs	lr, #770048	; 0xbc000
     dd0:	6564756c 	strbvs	r7, [r4, #-1388]!	; 0xfffffa94
     dd4:	61620000 	cmnvs	r2, r0
     dd8:	72746b63 	rsbsvc	r6, r4, #101376	; 0x18c00
     ddc:	2e656361 	cdpcs	3, 6, cr6, cr5, cr1, {3}
     de0:	00010063 	andeq	r0, r1, r3, rrx
     de4:	69707200 	ldmdbvs	r0!, {r9, ip, sp, lr}^
     de8:	0200682e 	andeq	r6, r0, #3014656	; 0x2e0000
     dec:	05000000 	streq	r0, [r0, #-0]
     df0:	02050011 	andeq	r0, r5, #17, 0
     df4:	00008f78 	andeq	r8, r0, r8, ror pc
     df8:	05011c03 	streq	r1, [r1, #-3075]	; 0xfffff3fd
     dfc:	05131305 	ldreq	r1, [r3, #-773]	; 0xfffffcfb
     e00:	05100611 	ldreq	r0, [r0, #-1553]	; 0xfffff9ef
     e04:	30063005 	andcc	r3, r6, r5
     e08:	05010a05 	streq	r0, [r1, #-2565]	; 0xfffff5fb
     e0c:	05050115 	streq	r0, [r5, #-277]	; 0xfffffeeb
     e10:	0e050106 	adfeqs	f0, f5, f6
     e14:	0310054a 	tsteq	r0, #310378496	; 0x12800000
     e18:	09052e27 	stmdbeq	r5, {r0, r1, r2, r5, r9, sl, fp, sp}
     e1c:	4a2e5b03 	bmi	b97a30 <__bss_end__+0xb8c6d8>
     e20:	02002f05 	andeq	r2, r0, #5, 30
     e24:	05100204 	ldreq	r0, [r0, #-516]	; 0xfffffdfc
     e28:	04020015 	streq	r0, [r2], #-21	; 0xffffffeb
     e2c:	052e0602 	streq	r0, [lr, #-1538]!	; 0xfffff9fe
     e30:	04020005 	streq	r0, [r2], #-5
     e34:	05010602 	streq	r0, [r1, #-1538]	; 0xfffff9fe
     e38:	034b0609 	movteq	r0, #46601	; 0xb609
     e3c:	17050123 	strne	r0, [r5, -r3, lsr #2]
     e40:	015d0306 	cmpeq	sp, r6, lsl #6
     e44:	052f0905 	streq	r0, [pc, #-2309]!	; 547 <__code_start__-0x7ab9>
     e48:	2e20030e 	cdpcs	3, 2, cr0, cr0, cr14, {0}
     e4c:	31060905 	tstcc	r6, r5, lsl #18
     e50:	03061205 	movweq	r1, #25093	; 0x6205
     e54:	0905015c 	stmdbeq	r5, {r2, r3, r4, r6, r8}
     e58:	0d052f06 	stceq	15, cr2, [r5, #-24]	; 0xffffffe8
     e5c:	05011f03 	streq	r1, [r1, #-3843]	; 0xfffff0fd
     e60:	05131305 	ldreq	r1, [r3, #-773]	; 0xfffffcfb
     e64:	05010608 	streq	r0, [r1, #-1544]	; 0xfffff9f8
     e68:	12052d31 	andne	r2, r5, #3136	; 0xc40
     e6c:	2f310530 	svccs	0x00310530
     e70:	1410052e 	ldrne	r0, [r0], #-1326	; 0xfffffad2
     e74:	0309052e 	movweq	r0, #38190	; 0x952e
     e78:	4b06015b 	blmi	1813ec <__bss_end__+0x176094>
     e7c:	050f2e05 	streq	r2, [pc, #-3589]	; 7f <__code_start__-0x7f81>
     e80:	0515061f 	ldreq	r0, [r5, #-1567]	; 0xfffff9e1
     e84:	052f0609 	streq	r0, [pc, #-1545]!	; 883 <__code_start__-0x777d>
     e88:	0501060c 	streq	r0, [r1, #-1548]	; 0xfffff9f4
     e8c:	0c055001 	stceq	0, cr5, [r5], {1}
     e90:	2f010549 	svccs	0x00010549
     e94:	03062d05 	movweq	r2, #27909	; 0x6d05
     e98:	05058217 	streq	r8, [r5, #-535]	; 0xfffffde9
     e9c:	060e0513 			; <UNDEFINED> instruction: 0x060e0513
     ea0:	06050501 	streq	r0, [r5], -r1, lsl #10
     ea4:	0631052f 	ldrteq	r0, [r1], -pc, lsr #10
     ea8:	2f080511 	svccs	0x00080511
     eac:	2f060905 	svccs	0x00060905
     eb0:	06120513 			; <UNDEFINED> instruction: 0x06120513
     eb4:	2f310511 	svccs	0x00310511
     eb8:	1410052e 	ldrne	r0, [r0], #-1326	; 0xfffffad2
     ebc:	02300105 	eorseq	r0, r0, #1073741825	; 0x40000001
     ec0:	01010004 	tsteq	r1, r4
     ec4:	00000121 	andeq	r0, r0, r1, lsr #2
     ec8:	00be0003 	adcseq	r0, lr, r3
     ecc:	01020000 	mrseq	r0, (UNDEF: 2)
     ed0:	000d0efb 	strdeq	r0, [sp], -fp
     ed4:	01010101 	tsteq	r1, r1, lsl #2
     ed8:	01000000 	mrseq	r0, (UNDEF: 0)
     edc:	2e010000 	cdpcs	0, 0, cr0, cr1, cr0, {0}
     ee0:	62696c2f 	rsbvs	r6, r9, #12032	; 0x2f00
     ee4:	552f0063 	strpl	r0, [pc, #-99]!	; e89 <__code_start__-0x7177>
     ee8:	73726573 	cmnvc	r2, #482344960	; 0x1cc00000
     eec:	6c696d2f 	stclvs	13, cr6, [r9], #-188	; 0xffffff44
     ef0:	532f7365 			; <UNDEFINED> instruction: 0x532f7365
     ef4:	6372756f 	cmnvs	r2, #465567744	; 0x1bc00000
     ef8:	73632f65 	cmnvc	r3, #404	; 0x194
     efc:	6c303432 	cfldrsvs	mvf3, [r0], #-200	; 0xffffff38
     f00:	696c2f78 	stmdbvs	ip!, {r3, r4, r5, r6, r8, r9, sl, fp, sp}^
     f04:	2f697062 	svccs	0x00697062
     f08:	6c636e69 	stclvs	14, cr6, [r3], #-420	; 0xfffffe5c
     f0c:	00656475 	rsbeq	r6, r5, r5, ror r4
     f10:	74706f2f 	ldrbtvc	r6, [r0], #-3887	; 0xfffff0d1
     f14:	6d6f682f 	stclvs	8, cr6, [pc, #-188]!	; e60 <__code_start__-0x71a0>
     f18:	65726265 	ldrbvs	r6, [r2, #-613]!	; 0xfffffd9b
     f1c:	65432f77 	strbvs	r2, [r3, #-3959]	; 0xfffff089
     f20:	72616c6c 	rsbvc	r6, r1, #108, 24	; 0x6c00
     f24:	6d72612f 	ldfvse	f6, [r2, #-188]!	; 0xffffff44
     f28:	6e6f6e2d 	cdpvs	14, 6, cr6, cr15, cr13, {1}
     f2c:	61652d65 	cmnvs	r5, r5, ror #26
     f30:	392d6962 	pushcc	{r1, r5, r6, r8, fp, sp, lr}
     f34:	322d392f 	eorcc	r3, sp, #770048	; 0xbc000
     f38:	71393130 	teqvc	r9, r0, lsr r1
     f3c:	73632d34 	cmnvc	r3, #52, 26	; 0xd00
     f40:	65373031 	ldrvs	r3, [r7, #-49]!	; 0xffffffcf
     f44:	62696c2f 	rsbvs	r6, r9, #12032	; 0x2f00
     f48:	6363672f 	cmnvs	r3, #12320768	; 0xbc0000
     f4c:	6d72612f 	ldfvse	f6, [r2, #-188]!	; 0xffffff44
     f50:	6e6f6e2d 	cdpvs	14, 6, cr6, cr15, cr13, {1}
     f54:	61652d65 	cmnvs	r5, r5, ror #26
     f58:	392f6962 	stmdbcc	pc!, {r1, r5, r6, r8, fp, sp, lr}	; <UNPREDICTABLE>
     f5c:	312e322e 			; <UNDEFINED> instruction: 0x312e322e
     f60:	636e692f 	cmnvs	lr, #770048	; 0xbc000
     f64:	6564756c 	strbvs	r7, [r4, #-1388]!	; 0xfffffa94
     f68:	656d0000 	strbvs	r0, [sp, #-0]!
     f6c:	7465736d 	strbtvc	r7, [r5], #-877	; 0xfffffc93
     f70:	0100632e 	tsteq	r0, lr, lsr #6
     f74:	70720000 	rsbsvc	r0, r2, r0
     f78:	00682e69 	rsbeq	r2, r8, r9, ror #28
     f7c:	73000002 	movwvc	r0, #2
     f80:	65646474 	strbvs	r6, [r4, #-1140]!	; 0xfffffb8c
     f84:	00682e66 	rsbeq	r2, r8, r6, ror #28
     f88:	00000003 	andeq	r0, r0, r3
     f8c:	05002905 	streq	r2, [r0, #-2309]	; 0xfffff6fb
     f90:	00901802 	addseq	r1, r0, r2, lsl #16
     f94:	05051500 	streq	r1, [r5, #-1280]	; 0xfffffb00
     f98:	06290513 			; <UNDEFINED> instruction: 0x06290513
     f9c:	2f140511 	svccs	0x00140511
     fa0:	30060505 	andcc	r0, r6, r5, lsl #10
     fa4:	06010a05 	streq	r0, [r1], -r5, lsl #20
     fa8:	0609059e 			; <UNDEFINED> instruction: 0x0609059e
     fac:	060e05d7 			; <UNDEFINED> instruction: 0x060e05d7
     fb0:	060a0501 	streq	r0, [sl], -r1, lsl #10
     fb4:	bb09052d 	bllt	242470 <__bss_end__+0x237118>
     fb8:	01060e05 	tsteq	r6, r5, lsl #28
     fbc:	060a052e 	streq	r0, [sl], -lr, lsr #10
     fc0:	4b09052d 	blmi	24247c <__bss_end__+0x237124>
     fc4:	01060b05 	tsteq	r6, r5, lsl #22
     fc8:	052d0a05 	streq	r0, [sp, #-2565]!	; 0xfffff5fb
     fcc:	0a052f0e 	beq	14cc0c <__bss_end__+0x1418b4>
     fd0:	0e052d06 	cdpeq	13, 0, cr2, cr5, cr6, {0}
     fd4:	09051306 	stmdbeq	r5, {r1, r2, r8, r9, ip}
     fd8:	0a052e06 	beq	14c7f8 <__bss_end__+0x1414a0>
     fdc:	14050511 	strne	r0, [r5], #-1297	; 0xfffffaef
     fe0:	13060105 	movwne	r0, #24837	; 0x6105
     fe4:	01000202 	tsteq	r0, r2, lsl #4
     fe8:	00012001 	andeq	r2, r1, r1
     fec:	db000300 	blle	1bf4 <__code_start__-0x640c>
     ff0:	02000000 	andeq	r0, r0, #0, 0
     ff4:	0d0efb01 	vstreq	d15, [lr, #-4]
     ff8:	01010100 	mrseq	r0, (UNDEF: 17)
     ffc:	00000001 	andeq	r0, r0, r1
    1000:	01000001 	tsteq	r0, r1
    1004:	696c2f2e 	stmdbvs	ip!, {r1, r2, r3, r5, r8, r9, sl, fp, sp}^
    1008:	2f006362 	svccs	0x00006362
    100c:	2f74706f 	svccs	0x0074706f
    1010:	656d6f68 	strbvs	r6, [sp, #-3944]!	; 0xfffff098
    1014:	77657262 	strbvc	r7, [r5, -r2, ror #4]!
    1018:	6c65432f 	stclvs	3, cr4, [r5], #-188	; 0xffffff44
    101c:	2f72616c 	svccs	0x0072616c
    1020:	2d6d7261 	sfmcs	f7, 2, [sp, #-388]!	; 0xfffffe7c
    1024:	656e6f6e 	strbvs	r6, [lr, #-3950]!	; 0xfffff092
    1028:	6261652d 	rsbvs	r6, r1, #188743680	; 0xb400000
    102c:	2f392d69 	svccs	0x00392d69
    1030:	30322d39 	eorscc	r2, r2, r9, lsr sp
    1034:	34713931 	ldrbtcc	r3, [r1], #-2353	; 0xfffff6cf
    1038:	3173632d 	cmncc	r3, sp, lsr #6
    103c:	2f653730 	svccs	0x00653730
    1040:	2f62696c 	svccs	0x0062696c
    1044:	2f636367 	svccs	0x00636367
    1048:	2d6d7261 	sfmcs	f7, 2, [sp, #-388]!	; 0xfffffe7c
    104c:	656e6f6e 	strbvs	r6, [lr, #-3950]!	; 0xfffff092
    1050:	6261652d 	rsbvs	r6, r1, #188743680	; 0xb400000
    1054:	2e392f69 	cdpcs	15, 3, cr2, cr9, cr9, {3}
    1058:	2f312e32 	svccs	0x00312e32
    105c:	6c636e69 	stclvs	14, cr6, [r3], #-420	; 0xfffffe5c
    1060:	00656475 	rsbeq	r6, r5, r5, ror r4
    1064:	6573552f 	ldrbvs	r5, [r3, #-1327]!	; 0xfffffad1
    1068:	6d2f7372 	stcvs	3, cr7, [pc, #-456]!	; ea8 <__code_start__-0x7158>
    106c:	73656c69 	cmnvc	r5, #26880	; 0x6900
    1070:	756f532f 	strbvc	r5, [pc, #-815]!	; d49 <__code_start__-0x72b7>
    1074:	2f656372 	svccs	0x00656372
    1078:	34327363 	ldrtcc	r7, [r2], #-867	; 0xfffffc9d
    107c:	2f786c30 	svccs	0x00786c30
    1080:	7062696c 	rsbvc	r6, r2, ip, ror #18
    1084:	6e692f69 	cdpvs	15, 6, cr2, cr9, cr9, {3}
    1088:	64756c63 	ldrbtvs	r6, [r5], #-3171	; 0xfffff39d
    108c:	70000065 	andvc	r0, r0, r5, rrx
    1090:	746e6972 	strbtvc	r6, [lr], #-2418	; 0xfffff68e
    1094:	00632e6b 	rsbeq	r2, r3, fp, ror #28
    1098:	73000001 	movwvc	r0, #1
    109c:	72616474 	rsbvc	r6, r1, #116, 8	; 0x74000000
    10a0:	00682e67 	rsbeq	r2, r8, r7, ror #28
    10a4:	72000002 	andvc	r0, r0, #2, 0
    10a8:	682e6970 	stmdavs	lr!, {r4, r5, r6, r8, fp, sp, lr}
    10ac:	00000300 	andeq	r0, r0, r0, lsl #6
    10b0:	6975623c 	ldmdbvs	r5!, {r2, r3, r4, r5, r9, sp, lr}^
    10b4:	692d746c 	pushvs	{r2, r3, r5, r6, sl, ip, sp, lr}
    10b8:	00003e6e 	andeq	r3, r0, lr, ror #28
    10bc:	61760000 	cmnvs	r6, r0
    10c0:	6972702d 	ldmdbvs	r2!, {r0, r2, r3, r5, ip, sp, lr}^
    10c4:	2e6b746e 	cdpcs	4, 6, cr7, cr11, cr14, {3}
    10c8:	00010068 	andeq	r0, r1, r8, rrx
    10cc:	22050000 	andcs	r0, r5, #0, 0
    10d0:	90020500 	andls	r0, r2, r0, lsl #10
    10d4:	17000090 			; <UNDEFINED> instruction: 0x17000090
    10d8:	13140505 	tstne	r4, #20971520	; 0x1400000
    10dc:	06220514 			; <UNDEFINED> instruction: 0x06220514
    10e0:	5012050d 	andspl	r0, r2, sp, lsl #10
    10e4:	7a032205 	bvc	c9900 <__bss_end__+0xbe5a8>
    10e8:	3305052e 	movwcc	r0, #21806	; 0x552e
    10ec:	052f1205 	streq	r1, [pc, #-517]!	; eef <__code_start__-0x7111>
    10f0:	09056505 	stmdbeq	r5, {r0, r2, r8, sl, sp, lr}
    10f4:	12052f06 	andne	r2, r5, #6, 30
    10f8:	05050106 	streq	r0, [r5, #-262]	; 0xfffffefa
    10fc:	06164b06 	ldreq	r4, [r6], -r6, lsl #22
    1100:	0550064a 	ldrbeq	r0, [r0, #-1610]	; 0xfffff9b6
    1104:	66130601 	ldrvs	r0, [r3], -r1, lsl #12
    1108:	01000802 	tsteq	r0, r2, lsl #16
    110c:	0000a001 	andeq	sl, r0, r1
    1110:	57000300 	strpl	r0, [r0, -r0, lsl #6]
    1114:	02000000 	andeq	r0, r0, #0, 0
    1118:	0d0efb01 	vstreq	d15, [lr, #-4]
    111c:	01010100 	mrseq	r0, (UNDEF: 17)
    1120:	00000001 	andeq	r0, r0, r1
    1124:	01000001 	tsteq	r0, r1
    1128:	696c2f2e 	stmdbvs	ip!, {r1, r2, r3, r5, r8, r9, sl, fp, sp}^
    112c:	2f006362 	svccs	0x00006362
    1130:	72657355 	rsbvc	r7, r5, #1409286145	; 0x54000001
    1134:	696d2f73 	stmdbvs	sp!, {r0, r1, r4, r5, r6, r8, r9, sl, fp, sp}^
    1138:	2f73656c 	svccs	0x0073656c
    113c:	72756f53 	rsbsvc	r6, r5, #332	; 0x14c
    1140:	632f6563 			; <UNDEFINED> instruction: 0x632f6563
    1144:	30343273 	eorscc	r3, r4, r3, ror r2
    1148:	6c2f786c 	stcvs	8, cr7, [pc], #-432	; fa0 <__code_start__-0x7060>
    114c:	69706269 	ldmdbvs	r0!, {r0, r3, r5, r6, r9, sp, lr}^
    1150:	636e692f 	cmnvs	lr, #770048	; 0xbc000
    1154:	6564756c 	strbvs	r7, [r4, #-1388]!	; 0xfffffa94
    1158:	75700000 	ldrbvc	r0, [r0, #-0]!
    115c:	632e6b74 			; <UNDEFINED> instruction: 0x632e6b74
    1160:	00000100 	andeq	r0, r0, r0, lsl #2
    1164:	2e697072 	mcrcs	0, 3, r7, cr9, cr2, {3}
    1168:	00020068 	andeq	r0, r2, r8, rrx
    116c:	22050000 	andcs	r0, r5, #0, 0
    1170:	e8020500 	stmda	r2, {r8, sl}
    1174:	15000090 	strne	r0, [r0, #-144]	; 0xffffff70
    1178:	05130505 	ldreq	r0, [r3, #-1285]	; 0xfffffafb
    117c:	2e110622 	cfmsub32cs	mvax1, mvfx0, mvfx1, mvfx2
    1180:	2f060b05 	svccs	0x00060b05
    1184:	2e060505 	cfsh32cs	mvfx0, mvfx6, #5
    1188:	02000905 	andeq	r0, r0, #81920	; 0x14000
    118c:	67060204 	strvs	r0, [r6, -r4, lsl #4]
    1190:	02000f05 	andeq	r0, r0, #5, 30
    1194:	05490204 	strbeq	r0, [r9, #-516]	; 0xfffffdfc
    1198:	0402000b 	streq	r0, [r2], #-11
    119c:	05050102 	streq	r0, [r5, #-258]	; 0xfffffefe
    11a0:	02040200 	andeq	r0, r4, #0, 4
    11a4:	4e062e06 	cdpmi	14, 0, cr2, cr6, cr6, {0}
    11a8:	13060105 	movwne	r0, #24837	; 0x6105
    11ac:	01000602 	tsteq	r0, r2, lsl #12
    11b0:	0008fa01 	andeq	pc, r8, r1, lsl #20
    11b4:	f1000300 			; <UNDEFINED> instruction: 0xf1000300
    11b8:	02000000 	andeq	r0, r0, #0, 0
    11bc:	0d0efb01 	vstreq	d15, [lr, #-4]
    11c0:	01010100 	mrseq	r0, (UNDEF: 17)
    11c4:	00000001 	andeq	r0, r0, r1
    11c8:	01000001 	tsteq	r0, r1
    11cc:	696c2f2e 	stmdbvs	ip!, {r1, r2, r3, r5, r8, r9, sl, fp, sp}^
    11d0:	2f006362 	svccs	0x00006362
    11d4:	2f74706f 	svccs	0x0074706f
    11d8:	656d6f68 	strbvs	r6, [sp, #-3944]!	; 0xfffff098
    11dc:	77657262 	strbvc	r7, [r5, -r2, ror #4]!
    11e0:	6c65432f 	stclvs	3, cr4, [r5], #-188	; 0xffffff44
    11e4:	2f72616c 	svccs	0x0072616c
    11e8:	2d6d7261 	sfmcs	f7, 2, [sp, #-388]!	; 0xfffffe7c
    11ec:	656e6f6e 	strbvs	r6, [lr, #-3950]!	; 0xfffff092
    11f0:	6261652d 	rsbvs	r6, r1, #188743680	; 0xb400000
    11f4:	2f392d69 	svccs	0x00392d69
    11f8:	30322d39 	eorscc	r2, r2, r9, lsr sp
    11fc:	34713931 	ldrbtcc	r3, [r1], #-2353	; 0xfffff6cf
    1200:	3173632d 	cmncc	r3, sp, lsr #6
    1204:	2f653730 	svccs	0x00653730
    1208:	2f62696c 	svccs	0x0062696c
    120c:	2f636367 	svccs	0x00636367
    1210:	2d6d7261 	sfmcs	f7, 2, [sp, #-388]!	; 0xfffffe7c
    1214:	656e6f6e 	strbvs	r6, [lr, #-3950]!	; 0xfffff092
    1218:	6261652d 	rsbvs	r6, r1, #188743680	; 0xb400000
    121c:	2e392f69 	cdpcs	15, 3, cr2, cr9, cr9, {3}
    1220:	2f312e32 	svccs	0x00312e32
    1224:	6c636e69 	stclvs	14, cr6, [r3], #-420	; 0xfffffe5c
    1228:	00656475 	rsbeq	r6, r5, r5, ror r4
    122c:	6573552f 	ldrbvs	r5, [r3, #-1327]!	; 0xfffffad1
    1230:	6d2f7372 	stcvs	3, cr7, [pc, #-456]!	; 1070 <__code_start__-0x6f90>
    1234:	73656c69 	cmnvc	r5, #26880	; 0x6900
    1238:	756f532f 	strbvc	r5, [pc, #-815]!	; f11 <__code_start__-0x70ef>
    123c:	2f656372 	svccs	0x00656372
    1240:	34327363 	ldrtcc	r7, [r2], #-867	; 0xfffffc9d
    1244:	2f786c30 	svccs	0x00786c30
    1248:	7062696c 	rsbvc	r6, r2, ip, ror #18
    124c:	6e692f69 	cdpvs	15, 6, cr2, cr9, cr9, {3}
    1250:	64756c63 	ldrbtvs	r6, [r5], #-3171	; 0xfffff39d
    1254:	76000065 	strvc	r0, [r0], -r5, rrx
    1258:	72702d61 	rsbsvc	r2, r0, #6208	; 0x1840
    125c:	6b746e69 	blvs	1d1cc08 <__bss_end__+0x1d118b0>
    1260:	0100632e 	tsteq	r0, lr, lsr #6
    1264:	74730000 	ldrbtvc	r0, [r3], #-0
    1268:	746e6964 	strbtvc	r6, [lr], #-2404	; 0xfffff69c
    126c:	6363672d 	cmnvs	r3, #11796480	; 0xb40000
    1270:	0200682e 	andeq	r6, r0, #3014656	; 0x2e0000
    1274:	70720000 	rsbsvc	r0, r2, r0
    1278:	00682e69 	rsbeq	r2, r8, r9, ror #28
    127c:	72000003 	andvc	r0, r0, #3, 0
    1280:	692d6970 	pushvs	{r4, r5, r6, r8, fp, sp, lr}
    1284:	7265746e 	rsbvc	r7, r5, #1845493760	; 0x6e000000
    1288:	2e6c616e 	powcsez	f6, f4, #0.5
    128c:	00030068 	andeq	r0, r3, r8, rrx
    1290:	64747300 	ldrbtvs	r7, [r4], #-768	; 0xfffffd00
    1294:	2e677261 	cdpcs	2, 6, cr7, cr7, cr1, {3}
    1298:	00020068 	andeq	r0, r2, r8, rrx
    129c:	75623c00 	strbvc	r3, [r2, #-3072]!	; 0xfffff400
    12a0:	2d746c69 	ldclcs	12, cr6, [r4, #-420]!	; 0xfffffe5c
    12a4:	003e6e69 	eorseq	r6, lr, r9, ror #28
    12a8:	00000000 	andeq	r0, r0, r0
    12ac:	05000105 	streq	r0, [r0, #-261]	; 0xfffffefb
    12b0:	00912002 	addseq	r2, r1, r2
    12b4:	00c80300 	sbceq	r0, r8, r0, lsl #6
    12b8:	14020501 	strne	r0, [r2], #-1281	; 0xfffffaff
    12bc:	10060105 	andne	r0, r6, r5, lsl #2
    12c0:	05300405 	ldreq	r0, [r0, #-1029]!	; 0xfffffbfb
    12c4:	054a2c01 	strbeq	r2, [sl, #-3073]	; 0xfffff3ff
    12c8:	02053004 	andeq	r3, r5, #4, 0
    12cc:	05133106 	ldreq	r3, [r3, #-262]	; 0xfffffefa
    12d0:	052e060b 	streq	r0, [lr, #-1547]!	; 0xfffff9f5
    12d4:	05300602 	ldreq	r0, [r0, #-1538]!	; 0xfffff9fe
    12d8:	24020609 	strcs	r0, [r2], #-1545	; 0xfffff9f7
    12dc:	052e2e0d 	streq	r2, [lr, #-3597]!	; 0xfffff1f3
    12e0:	1703060d 	strne	r0, [r3, -sp, lsl #12]
    12e4:	1311054a 	tstne	r1, #310378496	; 0x12800000
    12e8:	01062d05 	tsteq	r6, r5, lsl #26
    12ec:	052e1605 	streq	r1, [lr, #-1541]!	; 0xfffff9fb
    12f0:	16052f0d 	strne	r2, [r5], -sp, lsl #30
    12f4:	0614052d 	ldreq	r0, [r4], -sp, lsr #10
    12f8:	0617052f 	ldreq	r0, [r7], -pc, lsr #10
    12fc:	2e0d0501 	cfsh32cs	mvfx0, mvfx13, #1
    1300:	12052f06 	andne	r2, r5, #6, 30
    1304:	2f2e0106 	svccs	0x002e0106
    1308:	060d052d 	streq	r0, [sp], -sp, lsr #10
    130c:	0612052f 	ldreq	r0, [r2], -pc, lsr #10
    1310:	06190501 	ldreq	r0, [r9], -r1, lsl #10
    1314:	0304052f 	movweq	r0, #17711	; 0x452f
    1318:	05010111 	streq	r0, [r1, #-273]	; 0xfffffeef
    131c:	0e051502 	cfsh32eq	mvfx1, mvfx5, #2
    1320:	017fb203 	cmneq	pc, r3, lsl #4
    1324:	05130205 	ldreq	r0, [r3, #-517]	; 0xfffffdfb
    1328:	05010606 	streq	r0, [r1, #-1542]	; 0xfffff9fa
    132c:	05300602 	ldreq	r0, [r0, #-1538]!	; 0xfffff9fe
    1330:	02050108 	andeq	r0, r5, #2
    1334:	054a0106 	strbeq	r0, [sl, #-262]	; 0xfffffefa
    1338:	05910808 	ldreq	r0, [r1, #2056]	; 0x808
    133c:	054a0603 	strbeq	r0, [sl, #-1539]	; 0xfffff9fd
    1340:	05010608 	streq	r0, [r1, #-1544]	; 0xfffff9f8
    1344:	052d0615 	streq	r0, [sp, #-1557]!	; 0xfffff9eb
    1348:	03050108 	movweq	r0, #20744	; 0x5108
    134c:	060805d7 			; <UNDEFINED> instruction: 0x060805d7
    1350:	2d180501 	cfldr32cs	mvfx0, [r8, #-4]
    1354:	052e0205 	streq	r0, [lr, #-517]!	; 0xfffffdfb
    1358:	15052f08 	strne	r2, [r5, #-3848]	; 0xfffff0f8
    135c:	08052d06 	stmdaeq	r5, {r1, r2, r8, sl, fp, sp}
    1360:	06020501 	streq	r0, [r2], -r1, lsl #10
    1364:	06030501 	streq	r0, [r3], -r1, lsl #10
    1368:	0618052f 	ldreq	r0, [r8], -pc, lsr #10
    136c:	2e020511 	mcrcs	5, 0, r0, cr2, cr1, {0}
    1370:	052f0805 	streq	r0, [pc, #-2053]!	; b73 <__code_start__-0x748d>
    1374:	052d0615 	streq	r0, [sp, #-1557]!	; 0xfffff9eb
    1378:	03050108 	movweq	r0, #20744	; 0x5108
    137c:	06080513 			; <UNDEFINED> instruction: 0x06080513
    1380:	06150501 	ldreq	r0, [r5], -r1, lsl #10
    1384:	0108052d 	tsteq	r8, sp, lsr #10
    1388:	02050106 	andeq	r0, r5, #-2147483647	; 0x80000001
    138c:	0505a006 	streq	sl, [r5, #-6]
    1390:	04050106 	streq	r0, [r5], #-262	; 0xfffffefa
    1394:	2f110536 	svccs	0x00110536
    1398:	052e0905 	streq	r0, [lr, #-2309]!	; 0xfffff6fb
    139c:	05053302 	streq	r3, [r5, #-770]	; 0xfffffcfe
    13a0:	052e7203 	streq	r7, [lr, #-515]!	; 0xfffffdfd
    13a4:	062f0602 	strteq	r0, [pc], -r2, lsl #12
    13a8:	060e0501 	streq	r0, [lr], -r1, lsl #10
    13ac:	14020516 	strne	r0, [r2], #-1302	; 0xfffffaea
    13b0:	13030513 	movwne	r0, #13587	; 0x3513
    13b4:	15140205 	ldrne	r0, [r4, #-517]	; 0xfffffdfb
    13b8:	05010b05 	streq	r0, [r1, #-2821]	; 0xfffff4fb
    13bc:	2e010602 	cfmadd32cs	mvax0, mvfx0, mvfx1, mvfx2
    13c0:	67060305 	strvs	r0, [r6, -r5, lsl #6]
    13c4:	01060a05 	tsteq	r6, r5, lsl #20
    13c8:	052d0205 	streq	r0, [sp, #-517]!	; 0xfffffdfb
    13cc:	17052f0a 	strne	r2, [r5, -sl, lsl #30]
    13d0:	0b052d06 	bleq	14c7f0 <__bss_end__+0x141498>
    13d4:	06020501 	streq	r0, [r2], -r1, lsl #10
    13d8:	4c090501 	cfstr32mi	mvfx0, [r9], {1}
    13dc:	0602052e 	streq	r0, [r2], -lr, lsr #10
    13e0:	0609052e 	streq	r0, [r9], -lr, lsr #10
    13e4:	06020501 	streq	r0, [r2], -r1, lsl #10
    13e8:	05010630 	streq	r0, [r1, #-1584]	; 0xfffff9d0
    13ec:	01380301 	teqeq	r8, r1, lsl #6
    13f0:	4f030905 	svcmi	0x00030905
    13f4:	052e2e4a 	streq	r2, [lr, #-3658]!	; 0xfffff1b6
    13f8:	27030619 	smladcs	r3, r9, r6, r0
    13fc:	131a054a 	tstne	sl, #310378496	; 0x12800000
    1400:	01062805 	tsteq	r6, r5, lsl #16
    1404:	052e1f05 	streq	r1, [lr, #-3845]!	; 0xfffff0fb
    1408:	1f052f04 	svcne	0x00052f04
    140c:	060b052d 	streq	r0, [fp], -sp, lsr #10
    1410:	060e052f 	streq	r0, [lr], -pc, lsr #10
    1414:	2e040501 	cfsh32cs	mvfx0, mvfx4, #1
    1418:	03060205 	movweq	r0, #25093	; 0x6205
    141c:	05134a59 	ldreq	r4, [r3, #-2649]	; 0xfffff5a7
    1420:	052e060b 	streq	r0, [lr, #-1547]!	; 0xfffff9f5
    1424:	05300602 	ldreq	r0, [r0, #-1538]!	; 0xfffff9fe
    1428:	24020609 	strcs	r0, [r2], #-1545	; 0xfffff9f7
    142c:	0604050d 	streq	r0, [r4], -sp, lsl #10
    1430:	06051336 			; <UNDEFINED> instruction: 0x06051336
    1434:	05050106 	streq	r0, [r5, #-262]	; 0xfffffefa
    1438:	13136706 	tstne	r3, #1572864	; 0x180000
    143c:	11060905 	tstne	r6, r5, lsl #18
    1440:	052b0d05 	streq	r0, [fp, #-3333]!	; 0xfffff2fb
    1444:	0d05300b 	stceq	0, cr3, [r5, #-44]	; 0xffffffd4
    1448:	351b052c 	ldrcc	r0, [fp, #-1324]	; 0xfffffad4
    144c:	2d060405 	cfstrscs	mvf0, [r6, #-20]	; 0xffffffec
    1450:	05130505 	ldreq	r0, [r3, #-1285]	; 0xfffffafb
    1454:	052e061b 	streq	r0, [lr, #-1563]!	; 0xfffff9e5
    1458:	0405820a 	streq	r8, [r5], #-522	; 0xfffffdf6
    145c:	2e0e052f 	cfsh32cs	mvfx0, mvfx14, #31
    1460:	05490a05 	strbeq	r0, [r9, #-2565]	; 0xfffff5fb
    1464:	052f060b 	streq	r0, [pc, #-1547]!	; e61 <__code_start__-0x719f>
    1468:	06010604 	streq	r0, [r1], -r4, lsl #12
    146c:	0606052f 	streq	r0, [r6], -pc, lsr #10
    1470:	06050501 	streq	r0, [r5], -r1, lsl #10
    1474:	060a052f 	streq	r0, [sl], -pc, lsr #10
    1478:	07052e01 	streq	r2, [r5, -r1, lsl #28]
    147c:	052e2e2e 	streq	r2, [lr, #-3630]!	; 0xfffff1d2
    1480:	0d030604 	stceq	6, cr0, [r3, #-16]
    1484:	06020501 	streq	r0, [r2], -r1, lsl #10
    1488:	05014603 	streq	r4, [r1, #-1539]	; 0xfffff9fd
    148c:	2e3a0309 	cdpcs	3, 3, cr0, cr10, cr9, {0}
    1490:	2f060405 	svccs	0x00060405
    1494:	01010d03 	tsteq	r1, r3, lsl #26
    1498:	05150205 	ldreq	r0, [r5, #-517]	; 0xfffffdfb
    149c:	7fb2030e 	svcvc	0x00b2030e
    14a0:	13020501 	movwne	r0, #9473	; 0x2501
    14a4:	01080514 	tsteq	r8, r4, lsl r5
    14a8:	10060605 	andne	r0, r6, r5, lsl #12
    14ac:	052e3c03 	streq	r3, [lr, #-3075]!	; 0xfffff3fd
    14b0:	4a460302 	bmi	11820c0 <__bss_end__+0x1176d68>
    14b4:	05053006 	streq	r3, [r5, #-6]
    14b8:	2e2e0106 	sufcse	f0, f6, f6
    14bc:	4b060205 	blmi	181cd8 <__bss_end__+0x176980>
    14c0:	0e050106 	adfeqs	f0, f5, f6
    14c4:	02051606 	andeq	r1, r5, #6291456	; 0x600000
    14c8:	15151314 	ldrne	r1, [r5, #-788]	; 0xfffffcec
    14cc:	05010b05 	streq	r0, [r1, #-2821]	; 0xfffff4fb
    14d0:	062e0602 	strteq	r0, [lr], -r2, lsl #12
    14d4:	06090530 			; <UNDEFINED> instruction: 0x06090530
    14d8:	06020501 	streq	r0, [r2], -r1, lsl #10
    14dc:	0501064c 	streq	r0, [r1, #-1612]	; 0xfffff9b4
    14e0:	01380301 	teqeq	r8, r1, lsl #6
    14e4:	6e030605 	cfmadd32vs	mvax0, mvfx0, mvfx3, mvfx5
    14e8:	0302054a 	movweq	r0, #9546	; 0x254a
    14ec:	2e4a6646 	cdpcs	6, 4, cr6, cr10, cr6, {2}
    14f0:	03060405 	movweq	r0, #25605	; 0x6405
    14f4:	010100c8 	smlabteq	r1, r8, r0, r0
    14f8:	2e060101 	adfcss	f0, f6, f1
    14fc:	034a0682 	movteq	r0, #42626	; 0xa682
    1500:	09052e72 	stmdbeq	r5, {r1, r4, r5, r6, r9, sl, fp, sp}
    1504:	04050106 	streq	r0, [r5], #-262	; 0xfffffefa
    1508:	0d032f06 	stceq	15, cr2, [r3, #-24]	; 0xffffffe8
    150c:	02050101 	andeq	r0, r5, #1073741824	; 0x40000000
    1510:	030e0515 	movweq	r0, #58645	; 0xe515
    1514:	05017fb2 	streq	r7, [r1, #-4018]	; 0xfffff04e
    1518:	05141302 	ldreq	r1, [r4, #-770]	; 0xfffffcfe
    151c:	09050108 	stmdbeq	r5, {r3, r8}
    1520:	011b0306 	tsteq	fp, r6, lsl #6
    1524:	63030605 	movwvs	r0, #13829	; 0x3605
    1528:	2e3c032e 	cdpcs	3, 3, cr0, cr12, cr14, {1}
    152c:	48052e2e 	stmdami	r5, {r1, r2, r3, r5, r9, sl, fp, sp}
    1530:	7fb40306 	svcvc	0x00b40306
    1534:	05053c08 	streq	r3, [r5, #-3080]	; 0xfffff3f8
    1538:	2e060113 	mcrcs	1, 0, r0, cr6, cr3, {0}
    153c:	02040200 	andeq	r0, r4, #0, 4
    1540:	02002e06 	andeq	r2, r0, #96	; 0x60
    1544:	00010204 	andeq	r0, r1, r4, lsl #4
    1548:	13020402 	movwne	r0, #9218	; 0x2402
    154c:	02001105 	andeq	r1, r0, #1073741825	; 0x40000001
    1550:	01060204 	tsteq	r6, r4, lsl #4
    1554:	02000705 	andeq	r0, r0, #1310720	; 0x140000
    1558:	052f0204 	streq	r0, [pc, #-516]!	; 135c <__code_start__-0x6ca4>
    155c:	04020011 	streq	r0, [r2], #-17	; 0xffffffef
    1560:	05052d02 	streq	r2, [r5, #-3330]	; 0xfffff2fe
    1564:	02040200 	andeq	r0, r4, #0, 4
    1568:	09052f06 	stmdbeq	r5, {r1, r2, r8, r9, sl, fp, sp}
    156c:	02040200 	andeq	r0, r4, #0, 4
    1570:	000e0513 	andeq	r0, lr, r3, lsl r5
    1574:	06020402 	streq	r0, [r2], -r2, lsl #8
    1578:	00050501 	andeq	r0, r5, r1, lsl #10
    157c:	06010402 	streq	r0, [r1], -r2, lsl #8
    1580:	04020063 	streq	r0, [r2], #-99	; 0xffffff9d
    1584:	48050101 	stmdami	r5, {r0, r8}
    1588:	01040200 	mrseq	r0, R12_usr
    158c:	05051106 	streq	r1, [r5, #-262]	; 0xfffffefa
    1590:	01040200 	mrseq	r0, R12_usr
    1594:	0048052f 	subeq	r0, r8, pc, lsr #10
    1598:	2d010402 	cfstrscs	mvf0, [r1, #-8]
    159c:	02000505 	andeq	r0, r0, #20971520	; 0x1400000
    15a0:	002f0104 	eoreq	r0, pc, r4, lsl #2
    15a4:	4a010402 	bmi	425b4 <__bss_end__+0x3725c>
    15a8:	01040200 	mrseq	r0, R12_usr
    15ac:	0402004a 	streq	r0, [r2], #-74	; 0xffffffb6
    15b0:	054a0601 	strbeq	r0, [sl, #-1537]	; 0xfffff9ff
    15b4:	00e10340 	rsceq	r0, r1, r0, asr #6
    15b8:	050106d6 	streq	r0, [r1, #-1750]	; 0xfffff92a
    15bc:	052e4e09 	streq	r4, [lr, #-3593]!	; 0xfffff1f7
    15c0:	1e053008 	cdpne	0, 0, cr3, cr5, cr8, {0}
    15c4:	2e120529 	cfmul64cs	mvdx0, mvdx2, mvdx9
    15c8:	05330d05 	ldreq	r0, [r3, #-3333]!	; 0xfffff2fb
    15cc:	05450602 	strbeq	r0, [r5, #-1538]	; 0xfffff9fe
    15d0:	02051305 	andeq	r1, r5, #335544320	; 0x14000000
    15d4:	13050514 	movwne	r0, #21780	; 0x5514
    15d8:	05130205 	ldreq	r0, [r3, #-517]	; 0xfffffdfb
    15dc:	40050108 	andmi	r0, r5, r8, lsl #2
    15e0:	017a0306 	cmneq	sl, r6, lsl #6
    15e4:	340d052e 	strcc	r0, [sp], #-1326	; 0xfffffad2
    15e8:	03110566 	tsteq	r1, #427819008	; 0x19800000
    15ec:	054a4a20 	strbeq	r4, [sl, #-2592]	; 0xfffff5e0
    15f0:	62030604 	andvs	r0, r3, #4, 12	; 0x400000
    15f4:	06090501 	streq	r0, [r9], -r1, lsl #10
    15f8:	2e0f0501 	cfsh32cs	mvfx0, mvfx15, #1
    15fc:	2c060805 	stccs	8, cr0, [r6], {5}
    1600:	2e060d05 	cdpcs	13, 0, cr0, cr6, cr5, {0}
    1604:	67060305 	strvs	r0, [r6, -r5, lsl #6]
    1608:	01060505 	tsteq	r6, r5, lsl #10
    160c:	4d060805 	stcmi	8, cr0, [r6, #-20]	; 0xffffffec
    1610:	01060e05 	tsteq	r6, r5, lsl #28
    1614:	052e0a05 	streq	r0, [lr, #-2565]!	; 0xfffff5fb
    1618:	04052f09 	streq	r2, [r5], #-3849	; 0xfffff0f7
    161c:	07052f06 	streq	r2, [r5, -r6, lsl #30]
    1620:	0a050106 	beq	141a40 <__bss_end__+0x1366e8>
    1624:	0604052c 	streq	r0, [r4], -ip, lsr #10
    1628:	062d0532 			; <UNDEFINED> instruction: 0x062d0532
    162c:	017f9803 	cmneq	pc, r3, lsl #16
    1630:	ed030905 	vstr.16	s0, [r3, #-10]
    1634:	0d052e00 	stceq	14, cr2, [r5, #-0]
    1638:	2b07052c 	blcs	1c2af0 <__bss_end__+0x1b7798>
    163c:	30060405 	andcc	r0, r6, r5, lsl #8
    1640:	09051413 	stmdbeq	r5, {r0, r1, r4, sl, ip}
    1644:	030c0501 	movweq	r0, #50433	; 0xc501
    1648:	05017f93 	streq	r7, [r1, #-3987]	; 0xfffff06d
    164c:	0106011d 	tsteq	r6, sp, lsl r1
    1650:	ed030905 	vstr.16	s0, [r3, #-10]
    1654:	05050100 	streq	r0, [r5, #-256]	; 0xffffff00
    1658:	12052f06 	andne	r2, r5, #6, 30
    165c:	2d2e0106 	stfcss	f0, [lr, #-24]!	; 0xffffffe8
    1660:	052f0b05 	streq	r0, [pc, #-2821]!	; b63 <__code_start__-0x749d>
    1664:	052f0605 	streq	r0, [pc, #-1541]!	; 1067 <__code_start__-0x6f99>
    1668:	0c051009 	stceq	0, cr1, [r5], {9}
    166c:	017f9303 	cmneq	pc, r3, lsl #6
    1670:	05011d05 	streq	r1, [r1, #-3333]	; 0xfffff2fb
    1674:	0501062d 	streq	r0, [r1, #-1581]	; 0xfffff9d3
    1678:	00ed0309 	rsceq	r0, sp, r9, lsl #6
    167c:	0604052e 	streq	r0, [r4], -lr, lsr #10
    1680:	0200014e 	andeq	r0, r0, #-2147483629	; 0x80000013
    1684:	004a0204 	subeq	r0, sl, r4, lsl #4
    1688:	01020402 	tsteq	r2, r2, lsl #8
    168c:	02040200 	andeq	r0, r4, #0, 4
    1690:	04020015 	streq	r0, [r2], #-21	; 0xffffffeb
    1694:	36020602 	strcc	r0, [r2], -r2, lsl #12
    1698:	04020012 	streq	r0, [r2], #-18	; 0xffffffee
    169c:	02052e02 	andeq	r2, r5, #2, 28
    16a0:	00d10306 	sbcseq	r0, r1, r6, lsl #6
    16a4:	06070501 	streq	r0, [r7], -r1, lsl #10
    16a8:	02052e01 	andeq	r2, r5, #1, 28
    16ac:	0b052f06 	bleq	14d2cc <__bss_end__+0x141f74>
    16b0:	01050106 	tsteq	r5, r6, lsl #2
    16b4:	0605052f 	streq	r0, [r5], -pc, lsr #10
    16b8:	054a6503 	strbeq	r6, [sl, #-1283]	; 0xfffffafd
    16bc:	66010609 	strvs	r0, [r1], -r9, lsl #12
    16c0:	9f060505 	svcls	0x00060505
    16c4:	11030405 	tstne	r3, r5, lsl #8
    16c8:	06070501 	streq	r0, [r7], -r1, lsl #10
    16cc:	06040501 	streq	r0, [r4], -r1, lsl #10
    16d0:	010a0531 	tsteq	sl, r1, lsr r5
    16d4:	02001305 	andeq	r1, r0, #335544320	; 0x14000000
    16d8:	2e060104 	adfcss	f0, f6, f4
    16dc:	02001005 	andeq	r1, r0, #5, 0
    16e0:	052e0104 	streq	r0, [lr, #-260]!	; 0xfffffefc
    16e4:	054b0605 	strbeq	r0, [fp, #-1541]	; 0xfffff9fb
    16e8:	0601060a 	streq	r0, [r1], -sl, lsl #12
    16ec:	0604052d 	streq	r0, [r4], -sp, lsr #10
    16f0:	06110501 	ldreq	r0, [r1], -r1, lsl #10
    16f4:	667fb603 	ldrbtvs	fp, [pc], -r3, lsl #12
    16f8:	02000113 	andeq	r0, r0, #-1073741820	; 0xc0000004
    16fc:	ba060204 	blt	181f14 <__bss_end__+0x176bbc>
    1700:	1401ba06 	strne	fp, [r1], #-2566	; 0xfffff5fa
    1704:	13061a05 	movwne	r1, #27141	; 0x6a05
    1708:	11052e2e 	tstne	r5, lr, lsr #28
    170c:	1405674e 	strne	r6, [r5], #-1870	; 0xfffff8b2
    1710:	82130568 	andshi	r0, r3, #104, 10	; 0x1a000000
    1714:	78031505 	stmdavc	r3, {r0, r2, r8, sl, ip}
    1718:	0611054a 	ldreq	r0, [r1], -sl, asr #10
    171c:	1413134b 	ldrne	r1, [r3], #-843	; 0xfffffcb5
    1720:	13051413 	movwne	r1, #21523	; 0x5413
    1724:	09050106 	stmdbeq	r5, {r1, r2, r8}
    1728:	0d052f06 	stceq	15, cr2, [r5, #-24]	; 0xffffffe8
    172c:	2e2e0106 	sufcse	f0, f6, f6
    1730:	05bb0905 	ldreq	r0, [fp, #2309]!	; 0x905
    1734:	09059d0d 	stmdbeq	r5, {r0, r2, r3, r8, sl, fp, ip, pc}
    1738:	15052f06 	strne	r2, [r5, #-3846]	; 0xfffff0fa
    173c:	7503062f 	strvc	r0, [r3, #-1583]	; 0xfffff9d1
    1740:	2e0b034a 	cdpcs	3, 0, cr0, cr11, cr10, {2}
    1744:	0605054a 	streq	r0, [r5], -sl, asr #10
    1748:	05012303 	streq	r2, [r1, #-771]	; 0xfffffcfd
    174c:	2e010609 	cfmadd32cs	mvax0, mvfx0, mvfx1, mvfx9
    1750:	d7060505 	strle	r0, [r6, -r5, lsl #10]
    1754:	032e6e03 			; <UNDEFINED> instruction: 0x032e6e03
    1758:	0905010e 	stmdbeq	r5, {r1, r2, r3, r8}
    175c:	05050106 	streq	r0, [r5, #-262]	; 0xfffffefa
    1760:	4a100306 	bmi	402380 <__bss_end__+0x3f7028>
    1764:	ed030105 	stfs	f0, [r3, #-20]	; 0xffffffec
    1768:	0205017e 	andeq	r0, r5, #-2147483617	; 0x8000001f
    176c:	14131514 	ldrne	r1, [r3], #-1300	; 0xfffffaec
    1770:	1a030405 	bne	c278c <__bss_end__+0xb7434>
    1774:	06090501 	streq	r0, [r9], -r1, lsl #10
    1778:	03020501 	movweq	r0, #9473	; 0x2501
    177c:	09052e46 	stmdbeq	r5, {r1, r2, r6, r9, sl, fp, sp}
    1780:	052e3a03 	streq	r3, [lr, #-2563]!	; 0xfffff5fd
    1784:	032f0604 			; <UNDEFINED> instruction: 0x032f0604
    1788:	0501010d 	streq	r0, [r1, #-269]	; 0xfffffef3
    178c:	0e051502 	cfsh32eq	mvfx1, mvfx5, #2
    1790:	017fb203 	cmneq	pc, r3, lsl #4
    1794:	14130205 	ldrne	r0, [r3], #-517	; 0xfffffdfb
    1798:	05010805 	streq	r0, [r1, #-2053]	; 0xfffff7fb
    179c:	05010602 	streq	r0, [r1, #-1538]	; 0xfffff9fe
    17a0:	03059f08 	movweq	r9, #24328	; 0x5f08
    17a4:	01064a06 	tsteq	r6, r6, lsl #20
    17a8:	052e0805 	streq	r0, [lr, #-2053]!	; 0xfffff7fb
    17ac:	052d0615 	streq	r0, [sp, #-1557]!	; 0xfffff9eb
    17b0:	03050108 	movweq	r0, #20744	; 0x5108
    17b4:	0501062f 	streq	r0, [r1, #-1583]	; 0xfffff9d1
    17b8:	15052e08 	strne	r2, [r5, #-3592]	; 0xfffff1f8
    17bc:	08052d06 	stmdaeq	r5, {r1, r2, r8, sl, fp, sp}
    17c0:	2f030501 	svccs	0x00030501
    17c4:	08050106 	stmdaeq	r5, {r1, r2, r8}
    17c8:	0615052e 	ldreq	r0, [r5], -lr, lsr #10
    17cc:	0108052d 	tsteq	r8, sp, lsr #10
    17d0:	062f0305 	strteq	r0, [pc], -r5, lsl #6
    17d4:	2e080501 	cfsh32cs	mvfx0, mvfx8, #1
    17d8:	2d061505 	cfstr32cs	mvfx1, [r6, #-20]	; 0xffffffec
    17dc:	05010805 	streq	r0, [r1, #-2053]	; 0xfffff7fb
    17e0:	01062f03 	tsteq	r6, r3, lsl #30
    17e4:	052e0805 	streq	r0, [lr, #-2053]!	; 0xfffff7fb
    17e8:	052d0615 	streq	r0, [sp, #-1557]!	; 0xfffff9eb
    17ec:	03050108 	movweq	r0, #20744	; 0x5108
    17f0:	0501062f 	streq	r0, [r1, #-1583]	; 0xfffff9d1
    17f4:	15052e08 	strne	r2, [r5, #-3592]	; 0xfffff1f8
    17f8:	08052d06 	stmdaeq	r5, {r1, r2, r8, sl, fp, sp}
    17fc:	13030501 	movwne	r0, #13569	; 0x3501
    1800:	01060805 	tsteq	r6, r5, lsl #16
    1804:	2d061505 	cfstr32cs	mvfx1, [r6, #-20]	; 0xffffffec
    1808:	06010805 	streq	r0, [r1], -r5, lsl #16
    180c:	06030566 	streq	r0, [r3], -r6, ror #10
    1810:	06080567 	streq	r0, [r8], -r7, ror #10
    1814:	2d180501 	cfldr32cs	mvfx0, [r8, #-4]
    1818:	052e0205 	streq	r0, [lr, #-517]!	; 0xfffffdfb
    181c:	15052f08 	strne	r2, [r5, #-3848]	; 0xfffff0f8
    1820:	08052d06 	stmdaeq	r5, {r1, r2, r8, sl, fp, sp}
    1824:	06020501 	streq	r0, [r2], -r1, lsl #10
    1828:	06030501 	streq	r0, [r3], -r1, lsl #10
    182c:	0618052f 	ldreq	r0, [r8], -pc, lsr #10
    1830:	2e020511 	mcrcs	5, 0, r0, cr2, cr1, {0}
    1834:	052f0805 	streq	r0, [pc, #-2053]!	; 1037 <__code_start__-0x6fc9>
    1838:	052d0615 	streq	r0, [sp, #-1557]!	; 0xfffff9eb
    183c:	03050108 	movweq	r0, #20744	; 0x5108
    1840:	06080513 			; <UNDEFINED> instruction: 0x06080513
    1844:	06150501 	ldreq	r0, [r5], -r1, lsl #10
    1848:	0108052d 	tsteq	r8, sp, lsr #10
    184c:	14060505 	strne	r0, [r6], #-1285	; 0xfffffafb
    1850:	0602054a 	streq	r0, [r2], -sl, asr #10
    1854:	060e052e 	streq	r0, [lr], -lr, lsr #10
    1858:	2f040519 	svccs	0x00040519
    185c:	052f1105 	streq	r1, [pc, #-261]!	; 175f <__code_start__-0x68a1>
    1860:	02054a09 	andeq	r4, r5, #36864	; 0x9000
    1864:	03050533 	movweq	r0, #21811	; 0x5533
    1868:	02052e72 	andeq	r2, r5, #1824	; 0x720
    186c:	01062f06 	tsteq	r6, r6, lsl #30
    1870:	16060e05 	strne	r0, [r6], -r5, lsl #28
    1874:	13140205 	tstne	r4, #1342177280	; 0x50000000
    1878:	05130305 	ldreq	r0, [r3, #-773]	; 0xfffffcfb
    187c:	05151402 	ldreq	r1, [r5, #-1026]	; 0xfffffbfe
    1880:	0205010b 	andeq	r0, r5, #-1073741822	; 0xc0000002
    1884:	662e0106 	strtvs	r0, [lr], -r6, lsl #2
    1888:	2f060305 	svccs	0x00060305
    188c:	01060a05 	tsteq	r6, r5, lsl #20
    1890:	052d0205 	streq	r0, [sp, #-517]!	; 0xfffffdfb
    1894:	17052f0a 	strne	r2, [r5, -sl, lsl #30]
    1898:	0b052d06 	bleq	14ccb8 <__bss_end__+0x141960>
    189c:	06020501 	streq	r0, [r2], -r1, lsl #10
    18a0:	054a4a01 	strbeq	r4, [sl, #-2561]	; 0xfffff5ff
    18a4:	95030605 	strls	r0, [r3, #-1541]	; 0xfffff9fb
    18a8:	11050101 	tstne	r5, r1, lsl #2
    18ac:	7ef80306 	cdpvc	3, 15, cr0, cr8, cr6, {0}
    18b0:	031b0501 	tsteq	fp, #4194304	; 0x400000
    18b4:	054a0188 	strbeq	r0, [sl, #-392]	; 0xfffffe78
    18b8:	f3030601 	vmax.u8	d0, d3, d1
    18bc:	02052e7e 	andeq	r2, r5, #2016	; 0x7e0
    18c0:	14131514 	ldrne	r1, [r3], #-1300	; 0xfffffaec
    18c4:	22031905 	andcs	r1, r3, #81920	; 0x14000
    18c8:	131a0501 	tstne	sl, #4194304	; 0x400000
    18cc:	01062805 	tsteq	r6, r5, lsl #16
    18d0:	052e1f05 	streq	r1, [lr, #-3845]!	; 0xfffff0fb
    18d4:	0e052f04 	cdpeq	15, 0, cr2, cr5, cr4, {0}
    18d8:	2d1f054a 	cfldr32cs	mvfx0, [pc, #-296]	; 17b8 <__code_start__-0x6848>
    18dc:	2f060b05 	svccs	0x00060b05
    18e0:	01060405 	tsteq	r6, r5, lsl #8
    18e4:	05013206 	streq	r3, [r1, #-518]	; 0xfffffdfa
    18e8:	0e051502 	cfsh32eq	mvfx1, mvfx5, #2
    18ec:	017fb203 	cmneq	pc, r3, lsl #4
    18f0:	05130205 	ldreq	r0, [r3, #-517]	; 0xfffffdfb
    18f4:	05010606 	streq	r0, [r1, #-1542]	; 0xfffff9fa
    18f8:	05300602 	ldreq	r0, [r0, #-1538]!	; 0xfffff9fe
    18fc:	02050108 	andeq	r0, r5, #2
    1900:	03050106 	movweq	r0, #20742	; 0x5106
    1904:	05210806 	streq	r0, [r1, #-2054]!	; 0xfffff7fa
    1908:	05010608 	streq	r0, [r1, #-1544]	; 0xfffff9f8
    190c:	05490615 	strbeq	r0, [r9, #-1557]	; 0xfffff9eb
    1910:	03050108 	movweq	r0, #20744	; 0x5108
    1914:	060805d7 			; <UNDEFINED> instruction: 0x060805d7
    1918:	2d180501 	cfldr32cs	mvfx0, [r8, #-4]
    191c:	052e0205 	streq	r0, [lr, #-517]!	; 0xfffffdfb
    1920:	15052f08 	strne	r2, [r5, #-3848]	; 0xfffff0f8
    1924:	08052d06 	stmdaeq	r5, {r1, r2, r8, sl, fp, sp}
    1928:	06020501 	streq	r0, [r2], -r1, lsl #10
    192c:	06030501 	streq	r0, [r3], -r1, lsl #10
    1930:	0618052f 	ldreq	r0, [r8], -pc, lsr #10
    1934:	2e020511 	mcrcs	5, 0, r0, cr2, cr1, {0}
    1938:	052f0805 	streq	r0, [pc, #-2053]!	; 113b <__code_start__-0x6ec5>
    193c:	052d0615 	streq	r0, [sp, #-1557]!	; 0xfffff9eb
    1940:	03050108 	movweq	r0, #20744	; 0x5108
    1944:	06080513 			; <UNDEFINED> instruction: 0x06080513
    1948:	06150501 	ldreq	r0, [r5], -r1, lsl #10
    194c:	0108052d 	tsteq	r8, sp, lsr #10
    1950:	14060505 	strne	r0, [r6], #-1285	; 0xfffffafb
    1954:	66060205 	strvs	r0, [r6], -r5, lsl #4
    1958:	1a060405 	bne	182974 <__bss_end__+0x17761c>
    195c:	78030505 	stmdavc	r3, {r0, r2, r8, sl}
    1960:	0602054a 	streq	r0, [r2], -sl, asr #10
    1964:	0501062f 	streq	r0, [r1, #-1583]	; 0xfffff9d1
    1968:	0516060e 	ldreq	r0, [r6, #-1550]	; 0xfffff9f2
    196c:	05131402 	ldreq	r1, [r3, #-1026]	; 0xfffffbfe
    1970:	05010604 	streq	r0, [r1, #-1540]	; 0xfffff9fc
    1974:	052f0603 	streq	r0, [pc, #-1539]!	; 1379 <__code_start__-0x6c87>
    1978:	05010611 	streq	r0, [r1, #-1553]	; 0xfffff9ef
    197c:	02052e09 	andeq	r2, r5, #144	; 0x90
    1980:	05153006 	ldreq	r3, [r5, #-6]
    1984:	0205010b 	andeq	r0, r5, #-1073741822	; 0xc0000002
    1988:	4a4a0106 	bmi	1281da8 <__bss_end__+0x1276a50>
    198c:	0603052e 	streq	r0, [r3], -lr, lsr #10
    1990:	060a052f 	streq	r0, [sl], -pc, lsr #10
    1994:	2d020501 	cfstr32cs	mvfx0, [r2, #-4]
    1998:	052f0a05 	streq	r0, [pc, #-2565]!	; f9b <__code_start__-0x7065>
    199c:	052d0617 	streq	r0, [sp, #-1559]!	; 0xfffff9e9
    19a0:	0205010b 	andeq	r0, r5, #-1073741822	; 0xc0000002
    19a4:	2e4a0106 	dvfcse	f0, f2, f6
    19a8:	09051406 	stmdbeq	r5, {r1, r2, sl, ip}
    19ac:	02050106 	andeq	r0, r5, #-2147483647	; 0x80000001
    19b0:	01064c06 	tsteq	r6, r6, lsl #24
    19b4:	03060505 	movweq	r0, #25861	; 0x6505
    19b8:	2a010198 	bcs	42020 <__bss_end__+0x36cc8>
    19bc:	01060705 	tsteq	r6, r5, lsl #14
    19c0:	2f060505 	svccs	0x00060505
    19c4:	53031805 	movwpl	r1, #14341	; 0x3805
    19c8:	061b052e 	ldreq	r0, [fp], -lr, lsr #10
    19cc:	821a0501 	andshi	r0, sl, #4194304	; 0x400000
    19d0:	4b060905 	blmi	183dec <__bss_end__+0x178a94>
    19d4:	01060d05 	tsteq	r6, r5, lsl #26
    19d8:	d709052e 	strle	r0, [r9, -lr, lsr #10]
    19dc:	059d0d05 	ldreq	r0, [sp, #3333]	; 0xd05
    19e0:	052f0609 	streq	r0, [pc, #-1545]!	; 13df <__code_start__-0x6c21>
    19e4:	18053015 	stmdane	r5, {r0, r2, r4, ip, sp}
    19e8:	17050106 	strne	r0, [r5, -r6, lsl #2]
    19ec:	2f190566 	svccs	0x00190566
    19f0:	05491705 	strbeq	r1, [r9, #-1797]	; 0xfffff8fb
    19f4:	052f0619 	streq	r0, [pc, #-1561]!	; 13e3 <__code_start__-0x6c1d>
    19f8:	6f030615 	svcvs	0x00030615
    19fc:	0619052e 	ldreq	r0, [r9], -lr, lsr #10
    1a00:	054a1303 	strbeq	r1, [sl, #-771]	; 0xfffffcfd
    1a04:	6d030615 	stcvs	6, cr0, [r3, #-84]	; 0xffffffac
    1a08:	02054a2e 	andeq	r4, r5, #188416	; 0x2e000
    1a0c:	017fa003 	cmneq	pc, r3
    1a10:	72030666 	andvc	r0, r3, #106954752	; 0x6600000
    1a14:	06050501 	streq	r0, [r5], -r1, lsl #10
    1a18:	36040501 	strcc	r0, [r4], -r1, lsl #10
    1a1c:	78030505 	stmdavc	r3, {r0, r2, r8, sl}
    1a20:	0602052e 	streq	r0, [r2], -lr, lsr #10
    1a24:	0501062f 	streq	r0, [r1, #-1583]	; 0xfffff9d1
    1a28:	0516060e 	ldreq	r0, [r6, #-1550]	; 0xfffff9f2
    1a2c:	05131402 	ldreq	r1, [r3, #-1026]	; 0xfffffbfe
    1a30:	4a010604 	bmi	43248 <__bss_end__+0x37ef0>
    1a34:	03060205 	movweq	r0, #25093	; 0x6205
    1a38:	05050178 	streq	r0, [r5, #-376]	; 0xfffffe88
    1a3c:	054a0106 	strbeq	r0, [sl, #-262]	; 0xfffffefa
    1a40:	064b0602 	strbeq	r0, [fp], -r2, lsl #12
    1a44:	060e0501 	streq	r0, [lr], -r1, lsl #10
    1a48:	14020516 	strne	r0, [r2], #-1302	; 0xfffffaea
    1a4c:	05151513 	ldreq	r1, [r5, #-1299]	; 0xfffffaed
    1a50:	2e06010b 	adfcss	f0, f6, #3.0
    1a54:	03061105 	movweq	r1, #24837	; 0x6105
    1a58:	0501019e 	streq	r0, [r1, #-414]	; 0xfffffe62
    1a5c:	05010622 	streq	r0, [r1, #-1570]	; 0xfffff9de
    1a60:	22052f05 	andcs	r2, r5, #5, 30
    1a64:	0605052d 	streq	r0, [r5], -sp, lsr #10
    1a68:	4b11052f 	blmi	442f2c <__bss_end__+0x437bd4>
    1a6c:	01830505 	orreq	r0, r3, r5, lsl #10
    1a70:	2e5c039e 	mrccs	3, 2, r0, cr12, cr14, {4}
    1a74:	02059e01 	andeq	r9, r5, #1, 28
    1a78:	7ef30306 	cdpvc	3, 15, cr0, cr3, cr6, {0}
    1a7c:	06052e2e 	streq	r2, [r5], -lr, lsr #28
    1a80:	0d054a2c 	vstreq	s8, [r5, #-176]	; 0xffffff50
    1a84:	0100d803 	tsteq	r0, r3, lsl #16
    1a88:	02000405 	andeq	r0, r0, #83886080	; 0x5000000
    1a8c:	03060104 	movweq	r0, #24836	; 0x6104
    1a90:	02004a11 	andeq	r4, r0, #69632	; 0x11000
    1a94:	05010104 	streq	r0, [r1, #-260]	; 0xfffffefc
    1a98:	06510611 			; <UNDEFINED> instruction: 0x06510611
    1a9c:	0315059e 	tsteq	r5, #662700032	; 0x27800000
    1aa0:	ba012e17 	blt	4d304 <__bss_end__+0x41fac>
    1aa4:	69031105 	stmdbvs	r3, {r0, r2, r8, ip}
    1aa8:	2802012e 	stmdacs	r2, {r1, r2, r3, r5, r8}
    1aac:	87010100 	strhi	r0, [r1, -r0, lsl #2]
    1ab0:	03000000 	movweq	r0, #0
    1ab4:	00006400 	andeq	r6, r0, r0, lsl #8
    1ab8:	fb010200 	blx	422c2 <__bss_end__+0x36f6a>
    1abc:	01000d0e 	tsteq	r0, lr, lsl #26
    1ac0:	00010101 	andeq	r0, r1, r1, lsl #2
    1ac4:	00010000 	andeq	r0, r1, r0
    1ac8:	2f2e0100 	svccs	0x002e0100
    1acc:	66617473 			; <UNDEFINED> instruction: 0x66617473
    1ad0:	72732d66 	rsbsvc	r2, r3, #6528	; 0x1980
    1ad4:	552f0063 	strpl	r0, [pc, #-99]!	; 1a79 <__code_start__-0x6587>
    1ad8:	73726573 	cmnvc	r2, #482344960	; 0x1cc00000
    1adc:	6c696d2f 	stclvs	13, cr6, [r9], #-188	; 0xffffff44
    1ae0:	532f7365 			; <UNDEFINED> instruction: 0x532f7365
    1ae4:	6372756f 	cmnvs	r2, #465567744	; 0x1bc00000
    1ae8:	73632f65 	cmnvc	r3, #404	; 0x194
    1aec:	6c303432 	cfldrsvs	mvf3, [r0], #-200	; 0xffffff38
    1af0:	696c2f78 	stmdbvs	ip!, {r3, r4, r5, r6, r8, r9, sl, fp, sp}^
    1af4:	2f697062 	svccs	0x00697062
    1af8:	6c636e69 	stclvs	14, cr6, [r3], #-420	; 0xfffffe5c
    1afc:	00656475 	rsbeq	r6, r5, r5, ror r4
    1b00:	656c6300 	strbvs	r6, [ip, #-768]!	; 0xfffffd00
    1b04:	722d6e61 	eorvc	r6, sp, #1552	; 0x610
    1b08:	6f6f6265 	svcvs	0x006f6265
    1b0c:	00632e74 	rsbeq	r2, r3, r4, ror lr
    1b10:	72000001 	andvc	r0, r0, #1, 0
    1b14:	682e6970 	stmdavs	lr!, {r4, r5, r6, r8, fp, sp, lr}
    1b18:	00000200 	andeq	r0, r0, r0, lsl #4
    1b1c:	00190500 	andseq	r0, r9, r0, lsl #10
    1b20:	9ad40205 	bls	ff50233c <__bss_end__+0xff4f6fe4>
    1b24:	05150000 	ldreq	r0, [r5, #-0]
    1b28:	19051305 	stmdbne	r5, {r0, r2, r8, r9, ip}
    1b2c:	05052d06 	streq	r2, [r5, #-3334]	; 0xfffff2fa
    1b30:	2f67062f 	svccs	0x0067062f
    1b34:	0006024b 	andeq	r0, r6, fp, asr #4
    1b38:	01760101 	cmneq	r6, r1, lsl #2
    1b3c:	00030000 	andeq	r0, r3, r0
    1b40:	0000005e 	andeq	r0, r0, lr, asr r0
    1b44:	0efb0102 	cdpeq	1, 15, cr0, cr11, cr2, {0}
    1b48:	0101000d 	tsteq	r1, sp
    1b4c:	00000101 	andeq	r0, r0, r1, lsl #2
    1b50:	00000100 	andeq	r0, r0, r0, lsl #2
    1b54:	732f2e01 			; <UNDEFINED> instruction: 0x732f2e01
    1b58:	66666174 			; <UNDEFINED> instruction: 0x66666174
    1b5c:	6372732d 	cmnvs	r2, #-1275068416	; 0xb4000000
    1b60:	73552f00 	cmpvc	r5, #0, 30
    1b64:	2f737265 	svccs	0x00737265
    1b68:	656c696d 	strbvs	r6, [ip, #-2413]!	; 0xfffff693
    1b6c:	6f532f73 	svcvs	0x00532f73
    1b70:	65637275 	strbvs	r7, [r3, #-629]!	; 0xfffffd8b
    1b74:	3273632f 	rsbscc	r6, r3, #-1140850688	; 0xbc000000
    1b78:	786c3034 	stmdavc	ip!, {r2, r4, r5, ip, sp}^
    1b7c:	62696c2f 	rsbvs	r6, r9, #12032	; 0x2f00
    1b80:	692f6970 	stmdbvs	pc!, {r4, r5, r6, r8, fp, sp, lr}	; <UNPREDICTABLE>
    1b84:	756c636e 	strbvc	r6, [ip, #-878]!	; 0xfffffc92
    1b88:	00006564 	andeq	r6, r0, r4, ror #10
    1b8c:	61747363 	cmnvs	r4, r3, ror #6
    1b90:	632e7472 			; <UNDEFINED> instruction: 0x632e7472
    1b94:	00000100 	andeq	r0, r0, r0, lsl #2
    1b98:	2e697072 	mcrcs	0, 3, r7, cr9, cr2, {3}
    1b9c:	00020068 	andeq	r0, r2, r8, rrx
    1ba0:	10050000 	andne	r0, r5, r0
    1ba4:	00020500 	andeq	r0, r2, r0, lsl #10
    1ba8:	0300009b 	movweq	r0, #155	; 0x9b
    1bac:	05050110 	streq	r0, [r5, #-272]	; 0xfffffef0
    1bb0:	13020513 	movwne	r0, #9491	; 0x2513
    1bb4:	05140505 	ldreq	r0, [r4, #-1285]	; 0xfffffafb
    1bb8:	050e0610 	streq	r0, [lr, #-1552]	; 0xfffff9f0
    1bbc:	30063205 	andcc	r3, r6, r5, lsl #4
    1bc0:	0a051413 	beq	146c14 <__bss_end__+0x13b8bc>
    1bc4:	08090501 	stmdaeq	r9, {r0, r8, sl}
    1bc8:	06100591 			; <UNDEFINED> instruction: 0x06100591
    1bcc:	9a0a0501 	bls	282fd8 <__bss_end__+0x277c80>
    1bd0:	056a1005 	strbeq	r1, [sl, #-5]!
    1bd4:	052d060a 	streq	r0, [sp, #-1546]!	; 0xfffff9f6
    1bd8:	10052f09 	andne	r2, r5, r9, lsl #30
    1bdc:	0a050106 	beq	141ffc <__bss_end__+0x136ca4>
    1be0:	09052d06 	stmdbeq	r5, {r1, r2, r8, sl, fp, sp}
    1be4:	061005bb 			; <UNDEFINED> instruction: 0x061005bb
    1be8:	060a0501 	streq	r0, [sl], -r1, lsl #10
    1bec:	4b090565 	blmi	243188 <__bss_end__+0x237e30>
    1bf0:	01060d05 	tsteq	r6, r5, lsl #26
    1bf4:	052d0a05 	streq	r0, [sp, #-2565]!	; 0xfffff5fb
    1bf8:	0a052f10 	beq	14d840 <__bss_end__+0x1424e8>
    1bfc:	09052d06 	stmdbeq	r5, {r1, r2, r8, sl, fp, sp}
    1c00:	060d052f 	streq	r0, [sp], -pc, lsr #10
    1c04:	2d0a0501 	cfstr32cs	mvfx0, [sl, #-4]
    1c08:	052f1005 	streq	r1, [pc, #-5]!	; 1c0b <__code_start__-0x63f5>
    1c0c:	052d060a 	streq	r0, [sp, #-1546]!	; 0xfffff9f6
    1c10:	0d052f09 	stceq	15, cr2, [r5, #-36]	; 0xffffffdc
    1c14:	0a050106 	beq	142034 <__bss_end__+0x136cdc>
    1c18:	2f10052d 	svccs	0x0010052d
    1c1c:	2d060a05 	vstrcs	s0, [r6, #-20]	; 0xffffffec
    1c20:	052f0905 	streq	r0, [pc, #-2309]!	; 1323 <__code_start__-0x6cdd>
    1c24:	0501060d 	streq	r0, [r1, #-1549]	; 0xfffff9f3
    1c28:	10052d0a 	andne	r2, r5, sl, lsl #26
    1c2c:	060a052f 	streq	r0, [sl], -pc, lsr #10
    1c30:	1309052d 	movwne	r0, #38189	; 0x952d
    1c34:	01061005 	tsteq	r6, r5
    1c38:	2d060a05 	vstrcs	s0, [r6, #-20]	; 0xffffffec
    1c3c:	32150505 	andscc	r0, r5, #20971520	; 0x1400000
    1c40:	144a0101 	strbne	r0, [sl], #-257	; 0xfffffeff
    1c44:	61031105 	tstvs	r3, r5, lsl #2
    1c48:	13050501 	movwne	r0, #21761	; 0x5501
    1c4c:	14051414 	strne	r1, [r5], #-1044	; 0xfffffbec
    1c50:	062e0101 	strteq	r0, [lr], -r1, lsl #2
    1c54:	06050501 	streq	r0, [r5], -r1, lsl #10
    1c58:	0a051513 	beq	1470ac <__bss_end__+0x13bd54>
    1c5c:	05050106 	streq	r0, [r5, #-262]	; 0xfffffefa
    1c60:	01064b06 	tsteq	r6, r6, lsl #22
    1c64:	01160306 	tsteq	r6, r6, lsl #6
    1c68:	0311052f 	tsteq	r1, #197132288	; 0xbc00000
    1c6c:	0505015f 	streq	r0, [r5, #-351]	; 0xfffffea1
    1c70:	05141413 	ldreq	r1, [r4, #-1043]	; 0xfffffbed
    1c74:	2e010114 	mcrcs	1, 0, r0, cr1, cr4, {0}
    1c78:	05050106 	streq	r0, [r5, #-262]	; 0xfffffefa
    1c7c:	08051306 	stmdaeq	r5, {r1, r2, r8, r9, ip}
    1c80:	05050106 	streq	r0, [r5, #-262]	; 0xfffffefa
    1c84:	052e1c03 	streq	r1, [lr, #-3075]!	; 0xfffff3fd
    1c88:	2e640307 	cdpcs	3, 6, cr0, cr4, cr7, {0}
    1c8c:	2f060905 	svccs	0x00060905
    1c90:	01060e05 	tsteq	r6, r5, lsl #28
    1c94:	30060505 	andcc	r0, r6, r5, lsl #10
    1c98:	01060a05 	tsteq	r6, r5, lsl #20
    1c9c:	2f060505 	svccs	0x00060505
    1ca0:	03060106 	movweq	r0, #24838	; 0x6106
    1ca4:	02050118 	andeq	r0, r5, #6
    1ca8:	060a0530 			; <UNDEFINED> instruction: 0x060a0530
    1cac:	022e6f03 	eoreq	r6, lr, #3, 30
    1cb0:	0101000c 	tsteq	r1, ip
    1cb4:	0000007d 	andeq	r0, r0, sp, ror r0
    1cb8:	00650003 	rsbeq	r0, r5, r3
    1cbc:	01020000 	mrseq	r0, (UNDEF: 2)
    1cc0:	000d0efb 	strdeq	r0, [sp], -fp
    1cc4:	01010101 	tsteq	r1, r1, lsl #2
    1cc8:	01000000 	mrseq	r0, (UNDEF: 0)
    1ccc:	2e010000 	cdpcs	0, 0, cr0, cr1, cr0, {0}
    1cd0:	6174732f 	cmnvs	r4, pc, lsr #6
    1cd4:	732d6666 			; <UNDEFINED> instruction: 0x732d6666
    1cd8:	2f006372 	svccs	0x00006372
    1cdc:	72657355 	rsbvc	r7, r5, #1409286145	; 0x54000001
    1ce0:	696d2f73 	stmdbvs	sp!, {r0, r1, r4, r5, r6, r8, r9, sl, fp, sp}^
    1ce4:	2f73656c 	svccs	0x0073656c
    1ce8:	72756f53 	rsbsvc	r6, r5, #332	; 0x14c
    1cec:	632f6563 			; <UNDEFINED> instruction: 0x632f6563
    1cf0:	30343273 	eorscc	r3, r4, r3, ror r2
    1cf4:	6c2f786c 	stcvs	8, cr7, [pc], #-432	; 1b4c <__code_start__-0x64b4>
    1cf8:	69706269 	ldmdbvs	r0!, {r0, r3, r5, r6, r9, sp, lr}^
    1cfc:	636e692f 	cmnvs	lr, #770048	; 0xbc000
    1d00:	6564756c 	strbvs	r7, [r4, #-1388]!	; 0xfffffa94
    1d04:	75630000 	strbvc	r0, [r3, #-0]!
    1d08:	6d6f7473 	cfstrdvs	mvd7, [pc, #-460]!	; 1b44 <__code_start__-0x64bc>
    1d0c:	616f6c2d 	cmnvs	pc, sp, lsr #24
    1d10:	2e726564 	cdpcs	5, 7, cr6, cr2, cr4, {3}
    1d14:	00010063 	andeq	r0, r1, r3, rrx
    1d18:	69707200 	ldmdbvs	r0!, {r9, ip, sp, lr}^
    1d1c:	0200682e 	andeq	r6, r0, #3014656	; 0x2e0000
    1d20:	05000000 	streq	r0, [r0, #-0]
    1d24:	0205001a 	andeq	r0, r5, #26, 0
    1d28:	00009c28 	andeq	r9, r0, r8, lsr #24
    1d2c:	14010515 	strne	r0, [r1], #-1301	; 0xfffffaeb
    1d30:	01000202 	tsteq	r0, r2, lsl #4
    1d34:	00011401 	andeq	r1, r1, r1, lsl #8
    1d38:	5e000300 	cdppl	3, 0, cr0, cr0, cr0, {0}
    1d3c:	02000000 	andeq	r0, r0, #0, 0
    1d40:	0d0efb01 	vstreq	d15, [lr, #-4]
    1d44:	01010100 	mrseq	r0, (UNDEF: 17)
    1d48:	00000001 	andeq	r0, r0, r1
    1d4c:	01000001 	tsteq	r0, r1
    1d50:	74732f2e 	ldrbtvc	r2, [r3], #-3886	; 0xfffff0d2
    1d54:	2d666661 	stclcs	6, cr6, [r6, #-388]!	; 0xfffffe7c
    1d58:	00637273 	rsbeq	r7, r3, r3, ror r2
    1d5c:	6573552f 	ldrbvs	r5, [r3, #-1327]!	; 0xfffffad1
    1d60:	6d2f7372 	stcvs	3, cr7, [pc, #-456]!	; 1ba0 <__code_start__-0x6460>
    1d64:	73656c69 	cmnvc	r5, #26880	; 0x6900
    1d68:	756f532f 	strbvc	r5, [pc, #-815]!	; 1a41 <__code_start__-0x65bf>
    1d6c:	2f656372 	svccs	0x00656372
    1d70:	34327363 	ldrtcc	r7, [r2], #-867	; 0xfffffc9d
    1d74:	2f786c30 	svccs	0x00786c30
    1d78:	7062696c 	rsbvc	r6, r2, ip, ror #18
    1d7c:	6e692f69 	cdpvs	15, 6, cr2, cr9, cr9, {3}
    1d80:	64756c63 	ldrbtvs	r6, [r5], #-3171	; 0xfffff39d
    1d84:	72000065 	andvc	r0, r0, #101, 0	; 0x65
    1d88:	6f6f6265 	svcvs	0x006f6265
    1d8c:	00632e74 	rsbeq	r2, r3, r4, ror lr
    1d90:	72000001 	andvc	r0, r0, #1, 0
    1d94:	682e6970 	stmdavs	lr!, {r4, r5, r6, r8, fp, sp, lr}
    1d98:	00000200 	andeq	r0, r0, r0, lsl #4
    1d9c:	00190500 	andseq	r0, r9, r0, lsl #10
    1da0:	9c2c0205 	sfmls	f0, 4, [ip], #-20	; 0xffffffec
    1da4:	0d030000 	stceq	0, cr0, [r3, #-0]
    1da8:	13050501 	movwne	r0, #21761	; 0x5501
    1dac:	13053113 	movwne	r3, #20755	; 0x5113
    1db0:	01050106 	tsteq	r5, r6, lsl #2
    1db4:	061b052f 	ldreq	r0, [fp], -pc, lsr #10
    1db8:	13050585 	movwne	r0, #21893	; 0x5585
    1dbc:	2f090514 	svccs	0x00090514
    1dc0:	01061605 	tsteq	r6, r5, lsl #12
    1dc4:	2f060505 	svccs	0x00060505
    1dc8:	11060e05 	tstne	r6, r5, lsl #28
    1dcc:	052f0505 	streq	r0, [pc, #-1285]!	; 18cf <__code_start__-0x6731>
    1dd0:	17052f01 	strne	r2, [r5, -r1, lsl #30]
    1dd4:	05053006 	streq	r3, [r5, #-6]
    1dd8:	016e0313 	cmneq	lr, r3, lsl r3
    1ddc:	17051313 	smladne	r5, r3, r3, r1
    1de0:	010f0306 	tsteq	pc, r6, lsl #6
    1de4:	71030505 	tstvc	r3, r5, lsl #10
    1de8:	0531062e 	ldreq	r0, [r1, #-1582]!	; 0xfffff9d2
    1dec:	05010613 	streq	r0, [r1, #-1555]	; 0xfffff9ed
    1df0:	2e0d0307 	cdpcs	3, 0, cr0, cr13, cr7, {0}
    1df4:	4b060905 	blmi	184210 <__bss_end__+0x178eb8>
    1df8:	76030605 	strvc	r0, [r3], -r5, lsl #12
    1dfc:	13050501 	movwne	r0, #21761	; 0x5501
    1e00:	2f090514 	svccs	0x00090514
    1e04:	01061605 	tsteq	r6, r5, lsl #12
    1e08:	2f060505 	svccs	0x00060505
    1e0c:	11060e05 	tstne	r6, r5, lsl #28
    1e10:	2e2f0505 	cfsh64cs	mvdx0, mvdx15, #5
    1e14:	010a0306 	tsteq	sl, r6, lsl #6
    1e18:	134d2f30 	movtne	r2, #57136	; 0xdf30
    1e1c:	67151313 			; <UNDEFINED> instruction: 0x67151313
    1e20:	01040200 	mrseq	r0, R12_usr
    1e24:	000d0567 	andeq	r0, sp, r7, ror #10
    1e28:	01010402 	tsteq	r1, r2, lsl #8
    1e2c:	02000a05 	andeq	r0, r0, #20480	; 0x5000
    1e30:	05010104 	streq	r0, [r1, #-260]	; 0xfffffefc
    1e34:	04020005 	streq	r0, [r2], #-5
    1e38:	0d050101 	stfeqs	f0, [r5, #-4]
    1e3c:	01040200 	mrseq	r0, R12_usr
    1e40:	000a0501 	andeq	r0, sl, r1, lsl #10
    1e44:	01010402 	tsteq	r1, r2, lsl #8
    1e48:	01000a02 	tsteq	r0, r2, lsl #20
    1e4c:	0001fa01 	andeq	pc, r1, r1, lsl #20
    1e50:	5d000300 	stcpl	3, cr0, [r0, #-0]
    1e54:	02000000 	andeq	r0, r0, #0, 0
    1e58:	0d0efb01 	vstreq	d15, [lr, #-4]
    1e5c:	01010100 	mrseq	r0, (UNDEF: 17)
    1e60:	00000001 	andeq	r0, r0, r1
    1e64:	01000001 	tsteq	r0, r1
    1e68:	74732f2e 	ldrbtvc	r2, [r3], #-3886	; 0xfffff0d2
    1e6c:	2d666661 	stclcs	6, cr6, [r6, #-388]!	; 0xfffffe7c
    1e70:	00637273 	rsbeq	r7, r3, r3, ror r2
    1e74:	6573552f 	ldrbvs	r5, [r3, #-1327]!	; 0xfffffad1
    1e78:	6d2f7372 	stcvs	3, cr7, [pc, #-456]!	; 1cb8 <__code_start__-0x6348>
    1e7c:	73656c69 	cmnvc	r5, #26880	; 0x6900
    1e80:	756f532f 	strbvc	r5, [pc, #-815]!	; 1b59 <__code_start__-0x64a7>
    1e84:	2f656372 	svccs	0x00656372
    1e88:	34327363 	ldrtcc	r7, [r2], #-867	; 0xfffffc9d
    1e8c:	2f786c30 	svccs	0x00786c30
    1e90:	7062696c 	rsbvc	r6, r2, ip, ror #18
    1e94:	6e692f69 	cdpvs	15, 6, cr2, cr9, cr9, {3}
    1e98:	64756c63 	ldrbtvs	r6, [r5], #-3171	; 0xfffff39d
    1e9c:	74000065 	strvc	r0, [r0], #-101	; 0xffffff9b
    1ea0:	72656d69 	rsbvc	r6, r5, #6720	; 0x1a40
    1ea4:	0100632e 	tsteq	r0, lr, lsr #6
    1ea8:	70720000 	rsbsvc	r0, r2, r0
    1eac:	00682e69 	rsbeq	r2, r8, r9, ror #28
    1eb0:	00000002 	andeq	r0, r0, r2
    1eb4:	05002305 	streq	r2, [r0, #-773]	; 0xfffffcfb
    1eb8:	009cb802 	addseq	fp, ip, r2, lsl #16
    1ebc:	05051500 	streq	r1, [r5, #-1280]	; 0xfffffb00
    1ec0:	060c0513 			; <UNDEFINED> instruction: 0x060c0513
    1ec4:	061f0501 	ldreq	r0, [pc], -r1, lsl #10
    1ec8:	1505056a 	strne	r0, [r5, #-1386]	; 0xfffffa96
    1ecc:	0f061f05 	svceq	0x00061f05
    1ed0:	06310505 	ldrteq	r0, [r1], -r5, lsl #10
    1ed4:	030a052f 	movweq	r0, #42287	; 0xa52f
    1ed8:	05050177 	streq	r0, [r5, #-375]	; 0xfffffe89
    1edc:	060c0513 			; <UNDEFINED> instruction: 0x060c0513
    1ee0:	05056601 	streq	r6, [r5, #-1537]	; 0xfffff9ff
    1ee4:	01090306 	tsteq	r9, r6, lsl #6
    1ee8:	0601052f 	streq	r0, [r1], -pc, lsr #10
    1eec:	061c0513 			; <UNDEFINED> instruction: 0x061c0513
    1ef0:	13050568 	movwne	r0, #21864	; 0x5568
    1ef4:	76030a05 	strvc	r0, [r3], -r5, lsl #20
    1ef8:	15050501 	strne	r0, [r5, #-1281]	; 0xfffffaff
    1efc:	18061c05 	stmdane	r6, {r0, r2, sl, fp, ip}
    1f00:	0305052e 	movweq	r0, #21806	; 0x552e
    1f04:	2f062e7a 	svccs	0x00062e7a
    1f08:	77030a05 	strvc	r0, [r3, -r5, lsl #20]
    1f0c:	13050501 	movwne	r0, #21761	; 0x5501
    1f10:	01060c05 	tsteq	r6, r5, lsl #24
    1f14:	06050566 	streq	r0, [r5], -r6, ror #10
    1f18:	2f010903 	svccs	0x00010903
    1f1c:	0c050106 	stfeqs	f0, [r5], {6}
    1f20:	05017603 	streq	r7, [r1, #-1539]	; 0xfffff9fd
    1f24:	0f030605 	svceq	0x00030605
    1f28:	1309052e 	movwne	r0, #38190	; 0x952e
    1f2c:	74030a05 	strvc	r0, [r3], #-2565	; 0xfffff5fb
    1f30:	15050501 	strne	r0, [r5, #-1281]	; 0xfffffaff
    1f34:	030a052f 	movweq	r0, #42287	; 0xa52f
    1f38:	05050177 	streq	r0, [r5, #-375]	; 0xfffffe89
    1f3c:	060c0513 			; <UNDEFINED> instruction: 0x060c0513
    1f40:	05056601 	streq	r6, [r5, #-1537]	; 0xfffff9ff
    1f44:	01090306 	tsteq	r9, r6, lsl #6
    1f48:	1a061105 	bne	186364 <__bss_end__+0x17b00c>
    1f4c:	78030505 	stmdavc	r3, {r0, r2, r8, sl}
    1f50:	052f062e 	streq	r0, [pc, #-1582]!	; 192a <__code_start__-0x66d6>
    1f54:	0c051909 			; <UNDEFINED> instruction: 0x0c051909
    1f58:	1c050106 	stfnes	f0, [r5], {6}
    1f5c:	05058706 	streq	r8, [r5, #-1798]	; 0xfffff8fa
    1f60:	061c0513 			; <UNDEFINED> instruction: 0x061c0513
    1f64:	2f050511 	svccs	0x00050511
    1f68:	0606054a 	streq	r0, [r6], -sl, asr #10
    1f6c:	052e7603 	streq	r7, [lr, #-1539]!	; 0xfffff9fd
    1f70:	0a051305 	beq	146b8c <__bss_end__+0x13b834>
    1f74:	05017603 	streq	r7, [r1, #-1539]	; 0xfffff9fd
    1f78:	052f1505 	streq	r1, [pc, #-1285]!	; 1a7b <__code_start__-0x6585>
    1f7c:	0177030a 	cmneq	r7, sl, lsl #6
    1f80:	05130505 	ldreq	r0, [r3, #-1285]	; 0xfffffafb
    1f84:	6601060c 	strvs	r0, [r1], -ip, lsl #12
    1f88:	03060505 	movweq	r0, #25861	; 0x6505
    1f8c:	062f0109 	strteq	r0, [pc], -r9, lsl #2
    1f90:	030c0501 	movweq	r0, #50433	; 0xc501
    1f94:	05050176 	streq	r0, [r5, #-374]	; 0xfffffe8a
    1f98:	2e0f0306 	cdpcs	3, 0, cr0, cr15, cr6, {0}
    1f9c:	05130905 	ldreq	r0, [r3, #-2309]	; 0xfffff6fb
    1fa0:	0174030a 	cmneq	r4, sl, lsl #6
    1fa4:	2f150505 	svccs	0x00150505
    1fa8:	77030a05 	strvc	r0, [r3, -r5, lsl #20]
    1fac:	13050501 	movwne	r0, #21761	; 0x5501
    1fb0:	01060c05 	tsteq	r6, r5, lsl #24
    1fb4:	06050566 	streq	r0, [r5], -r6, ror #10
    1fb8:	05010903 	streq	r0, [r1, #-2307]	; 0xfffff6fd
    1fbc:	051a0611 	ldreq	r0, [sl, #-1553]	; 0xfffff9ef
    1fc0:	2e780305 	cdpcs	3, 7, cr0, cr8, cr5, {0}
    1fc4:	09052f06 	stmdbeq	r5, {r1, r2, r8, r9, sl, fp, sp}
    1fc8:	060c0519 			; <UNDEFINED> instruction: 0x060c0519
    1fcc:	061e0501 	ldreq	r0, [lr], -r1, lsl #10
    1fd0:	1305058a 	movwne	r0, #21898	; 0x558a
    1fd4:	050e0605 	streq	r0, [lr, #-1541]	; 0xfffff9fb
    1fd8:	1e051305 	cdpne	3, 0, cr1, cr5, cr5, {0}
    1fdc:	05051406 	streq	r1, [r5, #-1030]	; 0xfffffbfa
    1fe0:	0605662c 	streq	r6, [r5], -ip, lsr #12
    1fe4:	2e760306 	cdpcs	3, 7, cr0, cr6, cr6, {0}
    1fe8:	05130505 	ldreq	r0, [r3, #-1285]	; 0xfffffafb
    1fec:	0176030a 	cmneq	r6, sl, lsl #6
    1ff0:	2f150505 	svccs	0x00150505
    1ff4:	77030a05 	strvc	r0, [r3, -r5, lsl #20]
    1ff8:	13050501 	movwne	r0, #21761	; 0x5501
    1ffc:	01060c05 	tsteq	r6, r5, lsl #24
    2000:	06050566 	streq	r0, [r5], -r6, ror #10
    2004:	2f010903 	svccs	0x00010903
    2008:	0c050106 	stfeqs	f0, [r5], {6}
    200c:	05017603 	streq	r7, [r1, #-1539]	; 0xfffff9fd
    2010:	0f030605 	svceq	0x00030605
    2014:	1309052e 	movwne	r0, #38190	; 0x952e
    2018:	74030a05 	strvc	r0, [r3], #-2565	; 0xfffff5fb
    201c:	15050501 	strne	r0, [r5, #-1281]	; 0xfffffaff
    2020:	030a052f 	movweq	r0, #42287	; 0xa52f
    2024:	05050177 	streq	r0, [r5, #-375]	; 0xfffffe89
    2028:	060c0513 			; <UNDEFINED> instruction: 0x060c0513
    202c:	05056601 	streq	r6, [r5, #-1537]	; 0xfffff9ff
    2030:	01090306 	tsteq	r9, r6, lsl #6
    2034:	1a061105 	bne	186450 <__bss_end__+0x17b0f8>
    2038:	78030505 	stmdavc	r3, {r0, r2, r8, sl}
    203c:	052f062e 	streq	r0, [pc, #-1582]!	; 1a16 <__code_start__-0x65ea>
    2040:	0c051909 			; <UNDEFINED> instruction: 0x0c051909
    2044:	08020106 	stmdaeq	r2, {r1, r2, r8}
    2048:	04010100 	streq	r0, [r1], #-256	; 0xffffff00
    204c:	03000002 	movweq	r0, #2
    2050:	0000c800 	andeq	ip, r0, r0, lsl #16
    2054:	fb010200 	blx	4285e <__bss_end__+0x37506>
    2058:	01000d0e 	tsteq	r0, lr, lsl #26
    205c:	00010101 	andeq	r0, r1, r1, lsl #2
    2060:	00010000 	andeq	r0, r1, r0
    2064:	682f0100 	stmdavs	pc!, {r8}	; <UNPREDICTABLE>
    2068:	2f656d6f 	svccs	0x00656d6f
    206c:	6c676e65 	stclvs	14, cr6, [r7], #-404	; 0xfffffe6c
    2070:	632f7265 			; <UNDEFINED> instruction: 0x632f7265
    2074:	7373616c 	cmnvc	r3, #27
    2078:	3173632f 	cmncc	r3, pc, lsr #6
    207c:	2d653034 	stclcs	0, cr3, [r5, #-208]!	; 0xffffff30
    2080:	69773232 	ldmdbvs	r7!, {r1, r4, r5, r9, ip, sp}^
    2084:	6c2f2f6e 	stcvs	15, cr2, [pc], #-440	; 1ed4 <__code_start__-0x612c>
    2088:	69706269 	ldmdbvs	r0!, {r0, r3, r5, r6, r9, sp, lr}^
    208c:	636e692f 	cmnvs	lr, #770048	; 0xbc000
    2090:	6564756c 	strbvs	r7, [r4, #-1388]!	; 0xfffffa94
    2094:	73752f00 	cmnvc	r5, #0, 30
    2098:	68732f72 	ldmdavs	r3!, {r1, r4, r5, r6, r8, r9, sl, fp, sp}^
    209c:	2f657261 	svccs	0x00657261
    20a0:	2d636367 	stclcs	3, cr6, [r3, #-412]!	; 0xfffffe64
    20a4:	2d6d7261 	sfmcs	f7, 2, [sp, #-388]!	; 0xfffffe7c
    20a8:	656e6f6e 	strbvs	r6, [lr, #-3950]!	; 0xfffff092
    20ac:	6261652d 	rsbvs	r6, r1, #188743680	; 0xb400000
    20b0:	30312d69 	eorscc	r2, r1, r9, ror #26
    20b4:	322d332e 	eorcc	r3, sp, #-1207959552	; 0xb8000000
    20b8:	2e313230 	mrccs	2, 1, r3, cr1, cr0, {1}
    20bc:	6c2f3031 	stcvs	0, cr3, [pc], #-196	; 2000 <__code_start__-0x6000>
    20c0:	672f6269 	strvs	r6, [pc, -r9, ror #4]!
    20c4:	612f6363 			; <UNDEFINED> instruction: 0x612f6363
    20c8:	6e2d6d72 	mcrvs	13, 1, r6, cr13, cr2, {3}
    20cc:	2d656e6f 	stclcs	14, cr6, [r5, #-444]!	; 0xfffffe44
    20d0:	69626165 	stmdbvs	r2!, {r0, r2, r5, r6, r8, sp, lr}^
    20d4:	2e30312f 	rsfcssp	f3, f0, #10.0
    20d8:	2f312e33 	svccs	0x00312e33
    20dc:	6c636e69 	stclvs	14, cr6, [r3], #-420	; 0xfffffe5c
    20e0:	00656475 	rsbeq	r6, r5, r5, ror r4
    20e4:	72617500 	rsbvc	r7, r1, #0, 10
    20e8:	00632e74 	rsbeq	r2, r3, r4, ror lr
    20ec:	75000000 	strvc	r0, [r0, #-0]
    20f0:	2e747261 	cdpcs	2, 7, cr7, cr4, cr1, {3}
    20f4:	00010068 	andeq	r0, r1, r8, rrx
    20f8:	69707200 	ldmdbvs	r0!, {r9, ip, sp, lr}^
    20fc:	0100682e 	tsteq	r0, lr, lsr #16
    2100:	70670000 	rsbvc	r0, r7, r0
    2104:	682e6f69 	stmdavs	lr!, {r0, r3, r5, r6, r8, r9, sl, fp, sp, lr}
    2108:	00000100 	andeq	r0, r0, r0, lsl #2
    210c:	69647473 	stmdbvs	r4!, {r0, r1, r4, r5, r6, sl, ip, sp, lr}^
    2110:	672d746e 	strvs	r7, [sp, -lr, ror #8]!
    2114:	682e6363 	stmdavs	lr!, {r0, r1, r5, r6, r8, r9, sp, lr}
    2118:	00000200 	andeq	r0, r0, r0, lsl #4
    211c:	00390500 	eorseq	r0, r9, r0, lsl #10
    2120:	9dd40205 	lfmls	f0, 2, [r4, #20]
    2124:	30030000 	andcc	r0, r3, r0
    2128:	05010601 	streq	r0, [r1, #-1537]	; 0xfffff9ff
    212c:	05670605 	strbeq	r0, [r7, #-1541]!	; 0xfffff9fb
    2130:	05010611 	streq	r0, [r1, #-1553]	; 0xfffff9ef
    2134:	01052e05 	tsteq	r5, r5, lsl #28
    2138:	06380567 	ldrteq	r0, [r8], -r7, ror #10
    213c:	05010629 	streq	r0, [r1, #-1577]	; 0xfffff9d7
    2140:	05670605 	strbeq	r0, [r7, #-1541]!	; 0xfffff9fb
    2144:	05010611 	streq	r0, [r1, #-1553]	; 0xfffff9ef
    2148:	01052e05 	tsteq	r5, r5, lsl #28
    214c:	06160567 	ldreq	r0, [r6], -r7, ror #10
    2150:	052e1503 	streq	r1, [lr, #-1283]!	; 0xfffffafd
    2154:	68673505 	stmdavs	r7!, {r0, r2, r8, sl, ip, sp}^
    2158:	0c036835 	stceq	8, cr6, [r3], {53}	; 0x35
    215c:	696b852e 	stmdbvs	fp!, {r1, r2, r3, r5, r8, sl, pc}^
    2160:	660c0369 	strvs	r0, [ip], -r9, ror #6
    2164:	05676b13 	strbeq	r6, [r7, #-2835]!	; 0xfffff4ed
    2168:	052f0601 	streq	r0, [pc, #-1537]!	; 1b6f <__code_start__-0x6491>
    216c:	25080619 	strcs	r0, [r8, #-1561]	; 0xfffff9e7
    2170:	05340505 	ldreq	r0, [r4, #-1285]!	; 0xfffffafb
    2174:	0501060d 	streq	r0, [r1, #-1549]	; 0xfffff9f3
    2178:	19054c01 	stmdbne	r5, {r0, sl, fp, lr}
    217c:	05056706 	streq	r6, [r5, #-1798]	; 0xfffff8fa
    2180:	060d0536 			; <UNDEFINED> instruction: 0x060d0536
    2184:	4a280501 	bmi	a03590 <__bss_end__+0x9f8238>
    2188:	05300105 	ldreq	r0, [r0, #-261]!	; 0xfffffefb
    218c:	05870615 	streq	r0, [r7, #1557]	; 0x615
    2190:	052f2f05 	streq	r2, [pc, #-3845]!	; 1293 <__code_start__-0x6d6d>
    2194:	04020009 	streq	r0, [r2], #-9
    2198:	0a051301 	beq	146da4 <__bss_end__+0x13ba4c>
    219c:	01040200 	mrseq	r0, R12_usr
    21a0:	000c0511 	andeq	r0, ip, r1, lsl r5
    21a4:	06010402 	streq	r0, [r1], -r2, lsl #8
    21a8:	000a0501 	andeq	r0, sl, r1, lsl #10
    21ac:	2e010402 	cdpcs	4, 0, cr0, cr1, cr2, {0}
    21b0:	4c060505 	cfstr32mi	mvfx0, [r6], {5}
    21b4:	01060e05 	tsteq	r6, r5, lsl #28
    21b8:	054a0905 	strbeq	r0, [sl, #-2309]	; 0xfffff6fb
    21bc:	2f2f0605 	svccs	0x002f0605
    21c0:	13060105 	movwne	r0, #24837	; 0x6105
    21c4:	67061c05 	strvs	r1, [r6, -r5, lsl #24]
    21c8:	05050106 	streq	r0, [r5, #-262]	; 0xfffffefa
    21cc:	052f4b06 	streq	r4, [pc, #-2822]!	; 16ce <__code_start__-0x6932>
    21d0:	04020009 	streq	r0, [r2], #-9
    21d4:	0a051301 	beq	146de0 <__bss_end__+0x13ba88>
    21d8:	01040200 	mrseq	r0, R12_usr
    21dc:	000c0511 	andeq	r0, ip, r1, lsl r5
    21e0:	06010402 	streq	r0, [r1], -r2, lsl #8
    21e4:	000a0501 	andeq	r0, sl, r1, lsl #10
    21e8:	2e010402 	cdpcs	4, 0, cr0, cr1, cr2, {0}
    21ec:	4c060505 	cfstr32mi	mvfx0, [r6], {5}
    21f0:	06010567 	streq	r0, [r1], -r7, ror #10
    21f4:	0619052f 	ldreq	r0, [r9], -pc, lsr #10
    21f8:	2e1b054c 	cfmac32cs	mvfx0, mvfx11, mvfx12
    21fc:	052e2a05 	streq	r2, [lr, #-2565]!	; 0xfffff5fb
    2200:	05010631 	streq	r0, [r1, #-1585]	; 0xfffff9cf
    2204:	1c052e42 	stcne	14, cr2, [r5], {66}	; 0x42
    2208:	05053106 	streq	r3, [r5, #-262]	; 0xfffffefa
    220c:	2e09032f 	cdpcs	3, 0, cr0, cr9, cr15, {1}
    2210:	01060e05 	tsteq	r6, r5, lsl #28
    2214:	054a2105 	strbeq	r2, [sl, #-261]	; 0xfffffefb
    2218:	2e0a0301 	cdpcs	3, 0, cr0, cr10, cr1, {0}
    221c:	68061a05 	stmdavs	r6, {r0, r2, r9, fp, ip}
    2220:	02000905 	andeq	r0, r0, #81920	; 0x14000
    2224:	05300104 	ldreq	r0, [r0, #-260]!	; 0xfffffefc
    2228:	0402000a 	streq	r0, [r2], #-10
    222c:	0c051101 	stfeqs	f1, [r5], {1}
    2230:	01040200 	mrseq	r0, R12_usr
    2234:	0a050106 	beq	142654 <__bss_end__+0x1372fc>
    2238:	01040200 	mrseq	r0, R12_usr
    223c:	0619052e 	ldreq	r0, [r9], -lr, lsr #10
    2240:	667ee803 	ldrbtvs	lr, [lr], -r3, lsl #16
    2244:	2f2f0505 	svccs	0x002f0505
    2248:	0105672f 	tsteq	r5, pc, lsr #14
    224c:	04022f06 	streq	r2, [r2], #-3846	; 0xfffff0fa
    2250:	92010100 	andls	r0, r1, #0
    2254:	03000003 	movweq	r0, #3
    2258:	0000b700 	andeq	fp, r0, r0, lsl #14
    225c:	fb010200 	blx	42a66 <__bss_end__+0x3770e>
    2260:	01000d0e 	tsteq	r0, lr, lsl #26
    2264:	00010101 	andeq	r0, r1, r1, lsl #2
    2268:	00010000 	andeq	r0, r1, r0
    226c:	682f0100 	stmdavs	pc!, {r8}	; <UNPREDICTABLE>
    2270:	2f656d6f 	svccs	0x00656d6f
    2274:	6c676e65 	stclvs	14, cr6, [r7], #-404	; 0xfffffe6c
    2278:	632f7265 			; <UNDEFINED> instruction: 0x632f7265
    227c:	7373616c 	cmnvc	r3, #27
    2280:	3173632f 	cmncc	r3, pc, lsr #6
    2284:	2d653034 	stclcs	0, cr3, [r5, #-208]!	; 0xffffff30
    2288:	69773232 	ldmdbvs	r7!, {r1, r4, r5, r9, ip, sp}^
    228c:	6c2f2f6e 	stcvs	15, cr2, [pc], #-440	; 20dc <__code_start__-0x5f24>
    2290:	69706269 	ldmdbvs	r0!, {r0, r3, r5, r6, r9, sp, lr}^
    2294:	636e692f 	cmnvs	lr, #770048	; 0xbc000
    2298:	6564756c 	strbvs	r7, [r4, #-1388]!	; 0xfffffa94
    229c:	73752f00 	cmnvc	r5, #0, 30
    22a0:	68732f72 	ldmdavs	r3!, {r1, r4, r5, r6, r8, r9, sl, fp, sp}^
    22a4:	2f657261 	svccs	0x00657261
    22a8:	2d636367 	stclcs	3, cr6, [r3, #-412]!	; 0xfffffe64
    22ac:	2d6d7261 	sfmcs	f7, 2, [sp, #-388]!	; 0xfffffe7c
    22b0:	656e6f6e 	strbvs	r6, [lr, #-3950]!	; 0xfffff092
    22b4:	6261652d 	rsbvs	r6, r1, #188743680	; 0xb400000
    22b8:	30312d69 	eorscc	r2, r1, r9, ror #26
    22bc:	322d332e 	eorcc	r3, sp, #-1207959552	; 0xb8000000
    22c0:	2e313230 	mrccs	2, 1, r3, cr1, cr0, {1}
    22c4:	6c2f3031 	stcvs	0, cr3, [pc], #-196	; 2208 <__code_start__-0x5df8>
    22c8:	672f6269 	strvs	r6, [pc, -r9, ror #4]!
    22cc:	612f6363 			; <UNDEFINED> instruction: 0x612f6363
    22d0:	6e2d6d72 	mcrvs	13, 1, r6, cr13, cr2, {3}
    22d4:	2d656e6f 	stclcs	14, cr6, [r5, #-444]!	; 0xfffffe44
    22d8:	69626165 	stmdbvs	r2!, {r0, r2, r5, r6, r8, sp, lr}^
    22dc:	2e30312f 	rsfcssp	f3, f0, #10.0
    22e0:	2f312e33 	svccs	0x00312e33
    22e4:	6c636e69 	stclvs	14, cr6, [r3], #-420	; 0xfffffe5c
    22e8:	00656475 	rsbeq	r6, r5, r5, ror r4
    22ec:	616d6b00 	cmnvs	sp, r0, lsl #22
    22f0:	636f6c6c 	cmnvs	pc, #108, 24	; 0x6c00
    22f4:	0000632e 	andeq	r6, r0, lr, lsr #6
    22f8:	70720000 	rsbsvc	r0, r2, r0
    22fc:	00682e69 	rsbeq	r2, r8, r9, ror #28
    2300:	73000001 	movwvc	r0, #1
    2304:	6e696474 	mcrvs	4, 3, r6, cr9, cr4, {3}
    2308:	63672d74 	cmnvs	r7, #116, 26	; 0x1d00
    230c:	00682e63 	rsbeq	r2, r8, r3, ror #28
    2310:	00000002 	andeq	r0, r0, r2
    2314:	05001e05 	streq	r1, [r0, #-3589]	; 0xfffff1fb
    2318:	009fc402 	addseq	ip, pc, r2, lsl #8
    231c:	01270300 			; <UNDEFINED> instruction: 0x01270300
    2320:	05012005 	streq	r2, [r1, #-5]
    2324:	0501062d 	streq	r0, [r1, #-1581]	; 0xfffff9d3
    2328:	05830620 	streq	r0, [r3, #1568]	; 0x620
    232c:	35050122 	strcc	r0, [r5, #-290]	; 0xfffffede
    2330:	1e050106 	adfnes	f0, f5, f6
    2334:	20058306 	andcs	r8, r5, r6, lsl #6
    2338:	062d0501 	strteq	r0, [sp], -r1, lsl #10
    233c:	06420501 	strbeq	r0, [r2], -r1, lsl #10
    2340:	05010685 	streq	r0, [r1, #-1669]	; 0xfffff97b
    2344:	144b0605 	strbne	r0, [fp], #-1541	; 0xfffff9fb
    2348:	002e0601 	eoreq	r0, lr, r1, lsl #12
    234c:	06020402 	streq	r0, [r2], -r2, lsl #8
    2350:	0402002e 	streq	r0, [r2], #-46	; 0xffffffd2
    2354:	02000102 	andeq	r0, r0, #-2147483648	; 0x80000000
    2358:	05150204 	ldreq	r0, [r5, #-516]	; 0xfffffdfc
    235c:	0402000d 	streq	r0, [r2], #-13
    2360:	05010602 	streq	r0, [r1, #-1538]	; 0xfffff9fe
    2364:	04020007 	streq	r0, [r2], #-7
    2368:	09054a02 	stmdbeq	r5, {r1, r9, fp, lr}
    236c:	05054b06 	streq	r4, [r5, #-2822]	; 0xfffff4fa
    2370:	06170515 			; <UNDEFINED> instruction: 0x06170515
    2374:	4a100501 	bmi	403780 <__bss_end__+0x3f8428>
    2378:	2f060505 	svccs	0x00060505
    237c:	01061b05 	tsteq	r6, r5, lsl #22
    2380:	052e0e05 	streq	r0, [lr, #-3589]!	; 0xfffff1fb
    2384:	05052f01 	streq	r2, [r5, #-3841]	; 0xfffff0ff
    2388:	01040200 	mrseq	r0, R12_usr
    238c:	4a770306 	bmi	1dc2fac <__bss_end__+0x1db7c54>
    2390:	01040200 	mrseq	r0, R12_usr
    2394:	04020001 	streq	r0, [r2], #-1
    2398:	009e0601 	addseq	r0, lr, r1, lsl #12
    239c:	2e010402 	cdpcs	4, 0, cr0, cr1, cr2, {0}
    23a0:	01040200 	mrseq	r0, R12_usr
    23a4:	09052e06 	stmdbeq	r5, {r1, r2, r9, sl, fp, sp}
    23a8:	d6060132 			; <UNDEFINED> instruction: 0xd6060132
    23ac:	052e062e 	streq	r0, [lr, #-1582]!	; 0xfffff9d2
    23b0:	0505de19 	streq	sp, [r5, #-3609]	; 0xfffff1e7
    23b4:	0805142f 	stmdaeq	r5, {r0, r1, r2, r3, r5, sl, ip}
    23b8:	07050106 	streq	r0, [r5, -r6, lsl #2]
    23bc:	0609054a 	streq	r0, [r9], -sl, asr #10
    23c0:	1305054b 	movwne	r0, #21835	; 0x554b
    23c4:	01060c05 	tsteq	r6, r5, lsl #24
    23c8:	67060505 	strvs	r0, [r6, -r5, lsl #10]
    23cc:	06010513 			; <UNDEFINED> instruction: 0x06010513
    23d0:	06090567 	streq	r0, [r9], -r7, ror #10
    23d4:	059e012a 	ldreq	r0, [lr, #298]	; 0x12a
    23d8:	0106a528 	tsteq	r6, r8, lsr #10
    23dc:	4b060505 	blmi	1837f8 <__bss_end__+0x1784a0>
    23e0:	062e0601 	strteq	r0, [lr], -r1, lsl #12
    23e4:	0513012e 	ldreq	r0, [r3, #-302]	; 0xfffffed2
    23e8:	01470318 	cmpeq	r7, r8, lsl r3
    23ec:	01130505 	tsteq	r3, r5, lsl #10
    23f0:	0f060106 	svceq	0x00060106
    23f4:	05130115 	ldreq	r0, [r3, #-277]	; 0xfffffeeb
    23f8:	0501060e 	streq	r0, [r1, #-1550]	; 0xfffff9f2
    23fc:	052e2e16 	streq	r2, [lr, #-3606]!	; 0xfffff1ea
    2400:	39030605 	stmdbcc	r3, {r0, r2, r9, sl}
    2404:	060b0501 	streq	r0, [fp], -r1, lsl #10
    2408:	06050501 	streq	r0, [r5], -r1, lsl #10
    240c:	060a054b 	streq	r0, [sl], -fp, asr #10
    2410:	06050501 	streq	r0, [r5], -r1, lsl #10
    2414:	060d054b 	streq	r0, [sp], -fp, asr #10
    2418:	2e070501 	cfsh32cs	mvfx0, mvfx7, #1
    241c:	054d0105 	strbeq	r0, [sp, #-261]	; 0xfffffefb
    2420:	04020005 	streq	r0, [r2], #-5
    2424:	78030601 	stmdavc	r3, {r0, r9, sl}
    2428:	0402004a 	streq	r0, [r2], #-74	; 0xffffffb6
    242c:	02000101 	andeq	r0, r0, #1073741824	; 0x40000000
    2430:	ba060104 	blt	182848 <__bss_end__+0x1774f0>
    2434:	01040200 	mrseq	r0, R12_usr
    2438:	09052e06 	stmdbeq	r5, {r1, r2, r9, sl, fp, sp}
    243c:	82060134 	andhi	r0, r6, #13
    2440:	052e0666 	streq	r0, [lr, #-1638]!	; 0xfffff99a
    2444:	0106db20 	tsteq	r6, r0, lsr #22
    2448:	4b060505 	blmi	183864 <__bss_end__+0x17850c>
    244c:	04020001 	streq	r0, [r2], #-1
    2450:	02004a02 	andeq	r4, r0, #8192	; 0x2000
    2454:	00010204 	andeq	r0, r1, r4, lsl #4
    2458:	13020402 	movwne	r0, #9218	; 0x2402
    245c:	02001205 	andeq	r1, r0, #1342177280	; 0x50000000
    2460:	01060204 	tsteq	r6, r4, lsl #4
    2464:	02040200 	andeq	r0, r4, #0, 4
    2468:	0402002e 	streq	r0, [r2], #-46	; 0xffffffd2
    246c:	05052e02 	streq	r2, [r5, #-3586]	; 0xfffff1fe
    2470:	02040200 	andeq	r0, r4, #0, 4
    2474:	02002f06 	andeq	r2, r0, #6, 30
    2478:	05670204 	strbeq	r0, [r7, #-516]!	; 0xfffffdfc
    247c:	04020001 	streq	r0, [r2], #-1
    2480:	05130602 	ldreq	r0, [r3, #-1538]	; 0xfffff9fe
    2484:	04020005 	streq	r0, [r2], #-5
    2488:	00620601 	rsbeq	r0, r2, r1, lsl #12
    248c:	01010402 	tsteq	r1, r2, lsl #8
    2490:	01040200 	mrseq	r0, R12_usr
    2494:	0200ba06 	andeq	fp, r0, #24576	; 0x6000
    2498:	2e060104 	adfcss	f0, f6, f4
    249c:	0a033c05 	beq	d14b8 <__bss_end__+0xc6160>
    24a0:	0501069e 	streq	r0, [r1, #-1694]	; 0xfffff962
    24a4:	014b0605 	cmpeq	fp, r5, lsl #12
    24a8:	2e062e06 	cdpcs	14, 0, cr2, cr6, cr6, {0}
    24ac:	05011301 	streq	r1, [r1, #-769]	; 0xfffffcff
    24b0:	7fad0318 	svcvc	0x00ad0318
    24b4:	13050501 	movwne	r0, #21761	; 0x5501
    24b8:	01061105 	tsteq	r6, r5, lsl #2
    24bc:	0305052e 	movweq	r0, #21806	; 0x552e
    24c0:	060100d2 			; <UNDEFINED> instruction: 0x060100d2
    24c4:	1805134a 	stmdane	r5, {r1, r3, r6, r8, r9, ip}
    24c8:	017fa303 	cmneq	pc, r3, lsl #6
    24cc:	05130505 	ldreq	r0, [r3, #-1285]	; 0xfffffafb
    24d0:	4a010616 	bmi	43d30 <__bss_end__+0x389d8>
    24d4:	03060505 	movweq	r0, #25861	; 0x6505
    24d8:	050100e1 	streq	r0, [r1, #-225]	; 0xffffff1f
    24dc:	05010612 	streq	r0, [r1, #-1554]	; 0xfffff9ee
    24e0:	054b0605 	strbeq	r0, [fp, #-1541]	; 0xfffff9fb
    24e4:	7fa90318 	svcvc	0x00a90318
    24e8:	13050501 	movwne	r0, #21761	; 0x5501
    24ec:	0e180501 	cfmul32eq	mvfx0, mvfx8, mvfx1
    24f0:	05130505 	ldreq	r0, [r3, #-1285]	; 0xfffffafb
    24f4:	2e010611 	mcrcs	6, 0, r0, cr1, cr1, {0}
    24f8:	06150505 	ldreq	r0, [r5], -r5, lsl #10
    24fc:	0513014a 	ldreq	r0, [r3, #-330]	; 0xfffffeb6
    2500:	2e01060e 	cfmadd32cs	mvax0, mvfx0, mvfx1, mvfx14
    2504:	2e2e1605 	cfmadda32cs	mvax0, mvax1, mvfx14, mvfx5
    2508:	03060505 	movweq	r0, #25861	; 0x6505
    250c:	010100d6 	ldrdeq	r0, [r1, -r6]
    2510:	9f031805 	svcls	0x00031805
    2514:	0505017f 	streq	r0, [r5, #-383]	; 0xfffffe81
    2518:	06190513 			; <UNDEFINED> instruction: 0x06190513
    251c:	05052e01 	streq	r2, [r5, #-3585]	; 0xfffff1ff
    2520:	0100e003 	tsteq	r0, r3
    2524:	02040200 	andeq	r0, r4, #0, 4
    2528:	02004a06 	andeq	r4, r0, #24576	; 0x6000
    252c:	05140204 	ldreq	r0, [r4, #-516]	; 0xfffffdfc
    2530:	0402000a 	streq	r0, [r2], #-10
    2534:	05010602 	streq	r0, [r1, #-1538]	; 0xfffff9fe
    2538:	04020005 	streq	r0, [r2], #-5
    253c:	054b0602 	strbeq	r0, [fp, #-1538]	; 0xfffff9fe
    2540:	0402000c 	streq	r0, [r2], #-12
    2544:	05010602 	streq	r0, [r1, #-1538]	; 0xfffff9fe
    2548:	04020001 	streq	r0, [r2], #-1
    254c:	05052f02 	streq	r2, [r5, #-3842]	; 0xfffff0fe
    2550:	01040200 	mrseq	r0, R12_usr
    2554:	4a730306 	bmi	1cc3174 <__bss_end__+0x1cb7e1c>
    2558:	01040200 	mrseq	r0, R12_usr
    255c:	04020001 	streq	r0, [r2], #-1
    2560:	009e0601 	addseq	r0, lr, r1, lsl #12
    2564:	2e010402 	cdpcs	4, 0, cr0, cr1, cr2, {0}
    2568:	01040200 	mrseq	r0, R12_usr
    256c:	02002e06 	andeq	r2, r0, #96	; 0x60
    2570:	002f0104 	eoreq	r0, pc, r4, lsl #2
    2574:	2e010402 	cdpcs	4, 0, cr0, cr1, cr2, {0}
    2578:	01040200 	mrseq	r0, R12_usr
    257c:	7fb103d6 	svcvc	0x00b103d6
    2580:	8206012e 	andhi	r0, r6, #-2147483637	; 0x8000000b
    2584:	2e062e2e 	cdpcs	14, 0, cr2, cr6, cr14, {1}
    2588:	02002e06 	andeq	r2, r0, #96	; 0x60
    258c:	03060104 	movweq	r0, #24836	; 0x6104
    2590:	000100d7 	ldrdeq	r0, [r1], -r7
    2594:	2e010402 	cdpcs	4, 0, cr0, cr1, cr2, {0}
    2598:	01040200 	mrseq	r0, R12_usr
    259c:	081505d6 	ldmdaeq	r5, {r1, r2, r4, r6, r7, r8, sl}
    25a0:	0117057b 	tsteq	r7, fp, ror r5
    25a4:	05311605 	ldreq	r1, [r1, #-1541]!	; 0xfffff9fb
    25a8:	1d050118 	stfnes	f0, [r5, #-96]	; 0xffffffa0
    25ac:	2b050106 	blcs	1429cc <__bss_end__+0x137674>
    25b0:	06190566 	ldreq	r0, [r9], -r6, ror #10
    25b4:	1305054d 	movwne	r0, #21837	; 0x554d
    25b8:	01060c05 	tsteq	r6, r5, lsl #24
    25bc:	054a0705 	strbeq	r0, [sl, #-1797]	; 0xfffff8fb
    25c0:	04020025 	streq	r0, [r2], #-37	; 0xffffffdb
    25c4:	1e054a01 	vmlane.f32	s8, s10, s2
    25c8:	01040200 	mrseq	r0, R12_usr
    25cc:	0609054a 	streq	r0, [r9], -sl, asr #10
    25d0:	1305054b 	movwne	r0, #21835	; 0x554b
    25d4:	01060a05 	tsteq	r6, r5, lsl #20
    25d8:	05631905 	strbeq	r1, [r3, #-2309]!	; 0xfffff6fb
    25dc:	014c0609 	cmpeq	ip, r9, lsl #12
    25e0:	2e069e06 	cdpcs	14, 0, cr9, cr6, cr6, {0}
    25e4:	01000a02 	tsteq	r0, r2, lsl #20
    25e8:	00028901 	andeq	r8, r2, r1, lsl #18
    25ec:	c9000300 	stmdbgt	r0, {r8, r9}
    25f0:	02000000 	andeq	r0, r0, #0, 0
    25f4:	0d0efb01 	vstreq	d15, [lr, #-4]
    25f8:	01010100 	mrseq	r0, (UNDEF: 17)
    25fc:	00000001 	andeq	r0, r0, r1
    2600:	01000001 	tsteq	r0, r1
    2604:	72732f2e 	rsbsvc	r2, r3, #184	; 0xb8
    2608:	552f0063 	strpl	r0, [pc, #-99]!	; 25ad <__code_start__-0x5a53>
    260c:	73726573 	cmnvc	r2, #482344960	; 0x1cc00000
    2610:	6c696d2f 	stclvs	13, cr6, [r9], #-188	; 0xffffff44
    2614:	532f7365 			; <UNDEFINED> instruction: 0x532f7365
    2618:	6372756f 	cmnvs	r2, #465567744	; 0x1bc00000
    261c:	73632f65 	cmnvc	r3, #404	; 0x194
    2620:	6c303432 	cfldrsvs	mvf3, [r0], #-200	; 0xffffff38
    2624:	696c2f78 	stmdbvs	ip!, {r3, r4, r5, r6, r8, r9, sl, fp, sp}^
    2628:	2f697062 	svccs	0x00697062
    262c:	6c636e69 	stclvs	14, cr6, [r3], #-420	; 0xfffffe5c
    2630:	00656475 	rsbeq	r6, r5, r5, ror r4
    2634:	74706f2f 	ldrbtvc	r6, [r0], #-3887	; 0xfffff0d1
    2638:	6d6f682f 	stclvs	8, cr6, [pc, #-188]!	; 2584 <__code_start__-0x5a7c>
    263c:	65726265 	ldrbvs	r6, [r2, #-613]!	; 0xfffffd9b
    2640:	65432f77 	strbvs	r2, [r3, #-3959]	; 0xfffff089
    2644:	72616c6c 	rsbvc	r6, r1, #108, 24	; 0x6c00
    2648:	6d72612f 	ldfvse	f6, [r2, #-188]!	; 0xffffff44
    264c:	6e6f6e2d 	cdpvs	14, 6, cr6, cr15, cr13, {1}
    2650:	61652d65 	cmnvs	r5, r5, ror #26
    2654:	392d6962 	pushcc	{r1, r5, r6, r8, fp, sp, lr}
    2658:	322d392f 	eorcc	r3, sp, #770048	; 0xbc000
    265c:	71393130 	teqvc	r9, r0, lsr r1
    2660:	73632d34 	cmnvc	r3, #52, 26	; 0xd00
    2664:	65373031 	ldrvs	r3, [r7, #-49]!	; 0xffffffcf
    2668:	62696c2f 	rsbvs	r6, r9, #12032	; 0x2f00
    266c:	6363672f 	cmnvs	r3, #12320768	; 0xbc0000
    2670:	6d72612f 	ldfvse	f6, [r2, #-188]!	; 0xffffff44
    2674:	6e6f6e2d 	cdpvs	14, 6, cr6, cr15, cr13, {1}
    2678:	61652d65 	cmnvs	r5, r5, ror #26
    267c:	392f6962 	stmdbcc	pc!, {r1, r5, r6, r8, fp, sp, lr}	; <UNPREDICTABLE>
    2680:	312e322e 			; <UNDEFINED> instruction: 0x312e322e
    2684:	636e692f 	cmnvs	lr, #770048	; 0xbc000
    2688:	6564756c 	strbvs	r7, [r4, #-1388]!	; 0xfffffa94
    268c:	70670000 	rsbvc	r0, r7, r0
    2690:	632e6f69 			; <UNDEFINED> instruction: 0x632e6f69
    2694:	00000100 	andeq	r0, r0, r0, lsl #2
    2698:	2e697072 	mcrcs	0, 3, r7, cr9, cr2, {3}
    269c:	00020068 	andeq	r0, r2, r8, rrx
    26a0:	64747300 	ldrbtvs	r7, [r4], #-768	; 0xfffffd00
    26a4:	2d746e69 	ldclcs	14, cr6, [r4, #-420]!	; 0xfffffe5c
    26a8:	2e636367 	cdpcs	3, 6, cr6, cr3, cr7, {3}
    26ac:	00030068 	andeq	r0, r3, r8, rrx
    26b0:	69706700 	ldmdbvs	r0!, {r8, r9, sl, sp, lr}^
    26b4:	00682e6f 	rsbeq	r2, r8, pc, ror #28
    26b8:	00000002 	andeq	r0, r0, r2
    26bc:	05003805 	streq	r3, [r0, #-2053]	; 0xfffff7fb
    26c0:	00a37402 	adceq	r7, r3, r2, lsl #8
    26c4:	01270300 			; <UNDEFINED> instruction: 0x01270300
    26c8:	05130505 	ldreq	r0, [r3, #-1285]	; 0xfffffafb
    26cc:	05010607 	streq	r0, [r1, #-1543]	; 0xfffff9f9
    26d0:	05490606 	strbeq	r0, [r9, #-1542]	; 0xfffff9fa
    26d4:	07051505 	streq	r1, [r5, -r5, lsl #10]
    26d8:	38050106 	stmdacc	r5, {r1, r2, r8}
    26dc:	4d07052b 	cfstr32mi	mvfx0, [r7, #-172]	; 0xffffff54
    26e0:	30060505 	andcc	r0, r6, r5, lsl #10
    26e4:	01061805 	tsteq	r6, r5, lsl #16
    26e8:	05671c05 	strbeq	r1, [r7, #-3077]!	; 0xfffff3fb
    26ec:	18054a0e 	stmdane	r5, {r1, r2, r3, r9, fp, lr}
    26f0:	4d12052d 	cfldr32mi	mvfx0, [r2, #-180]	; 0xffffff4c
    26f4:	0e052f2e 	cdpeq	15, 0, cr2, cr5, cr14, {1}
    26f8:	0605052a 	streq	r0, [r5], -sl, lsr #10
    26fc:	0513142f 	ldreq	r1, [r3, #-1071]	; 0xfffffbd1
    2700:	05010607 	streq	r0, [r1, #-1543]	; 0xfffff9f9
    2704:	132f0605 			; <UNDEFINED> instruction: 0x132f0605
    2708:	052e2e06 	streq	r2, [lr, #-3590]!	; 0xfffff1fa
    270c:	05051301 	streq	r1, [r5, #-769]	; 0xfffffcff
    2710:	24052e2d 	strcs	r2, [r5], #-3629	; 0xfffff1d3
    2714:	02050006 	andeq	r0, r5, #6, 0
    2718:	0000a3d4 	ldrdeq	sl, [r0], -r4
    271c:	13050515 	movwne	r0, #21781	; 0x5515
    2720:	71030605 	tstvc	r3, r5, lsl #12
    2724:	13050501 	movwne	r0, #21761	; 0x5501
    2728:	01060705 	tsteq	r6, r5, lsl #14
    272c:	49060605 	stmdbmi	r6, {r0, r2, r9, sl}
    2730:	14150505 	ldrne	r0, [r5], #-1285	; 0xfffffafb
    2734:	03062405 	movweq	r2, #25605	; 0x6405
    2738:	18050109 	stmdane	r5, {r0, r3, r8}
    273c:	052e7703 	streq	r7, [lr, #-1795]!	; 0xfffff8fd
    2740:	0e05671c 	mcreq	7, 0, r6, cr5, cr12, {0}
    2744:	2d18054a 	cfldr32cs	mvfx0, [r8, #-296]	; 0xfffffed8
    2748:	2e4d1205 	cdpcs	2, 4, cr1, cr13, cr5, {0}
    274c:	2f0f052f 	svccs	0x000f052f
    2750:	05290e05 	streq	r0, [r9, #-3589]!	; 0xfffff1fb
    2754:	142f0605 	strtne	r0, [pc], #-1541	; 275c <__code_start__-0x58a4>
    2758:	06070513 			; <UNDEFINED> instruction: 0x06070513
    275c:	06050501 	streq	r0, [r5], -r1, lsl #10
    2760:	2e06132f 	cdpcs	3, 0, cr1, cr6, cr15, {1}
    2764:	05330105 	ldreq	r0, [r3, #-261]!	; 0xfffffefb
    2768:	052e2905 	streq	r2, [lr, #-2309]!	; 0xfffff6fb
    276c:	05000627 	streq	r0, [r0, #-1575]	; 0xfffff9d9
    2770:	00a42c02 	adceq	r2, r4, r2, lsl #24
    2774:	05051a00 	streq	r1, [r5, #-2560]	; 0xfffff600
    2778:	06270513 			; <UNDEFINED> instruction: 0x06270513
    277c:	2f180511 	svccs	0x00180511
    2780:	2e2e0505 	cfsh64cs	mvdx0, mvdx14, #5
    2784:	0628054a 	strteq	r0, [r8], -sl, asr #10
    2788:	44020500 	strmi	r0, [r2], #-1280	; 0xfffffb00
    278c:	160000a4 	strne	r0, [r0], -r4, lsr #1
    2790:	05130505 	ldreq	r0, [r3, #-1285]	; 0xfffffafb
    2794:	05110628 	ldreq	r0, [r1, #-1576]	; 0xfffff9d8
    2798:	05052f18 	streq	r2, [r5, #-3864]	; 0xfffff0e8
    279c:	054a2e2e 	strbeq	r2, [sl, #-3630]	; 0xfffff1d2
    27a0:	05000623 	streq	r0, [r0, #-1571]	; 0xfffff9dd
    27a4:	00a45c02 	adceq	r5, r4, r2, lsl #24
    27a8:	05051600 	streq	r1, [r5, #-1536]	; 0xfffffa00
    27ac:	03060513 	movweq	r0, #25875	; 0x6513
    27b0:	05050162 	streq	r0, [r5, #-354]	; 0xfffffe9e
    27b4:	06070513 			; <UNDEFINED> instruction: 0x06070513
    27b8:	06060501 	streq	r0, [r6], -r1, lsl #10
    27bc:	15050549 	strne	r0, [r5, #-1353]	; 0xfffffab7
    27c0:	23051314 	movwcs	r1, #21268	; 0x5314
    27c4:	01170306 	tsteq	r7, r6, lsl #6
    27c8:	69032205 	stmdbvs	r3, {r0, r2, r9, sp}
    27cc:	821c052e 	andshi	r0, ip, #192937984	; 0xb800000
    27d0:	2e0e052e 	cfsh32cs	mvfx0, mvfx14, #30
    27d4:	30060505 	andcc	r0, r6, r5, lsl #10
    27d8:	01061205 	tsteq	r6, r5, lsl #4
    27dc:	05052d4b 	streq	r2, [r5, #-3403]	; 0xfffff2b5
    27e0:	13132f06 	tstne	r3, #6, 30
    27e4:	03061805 	movweq	r1, #26629	; 0x6805
    27e8:	0e05017a 	mcreq	1, 0, r0, cr5, cr10, {3}
    27ec:	3405054a 	strcc	r0, [r5], #-1354	; 0xfffffab6
    27f0:	0301052e 	movweq	r0, #5422	; 0x152e
    27f4:	05052e14 	streq	r2, [r5, #-3604]	; 0xfffff1ec
    27f8:	2e2e6c03 	cdpcs	12, 2, cr6, cr14, cr3, {0}
    27fc:	00062b05 	andeq	r2, r6, r5, lsl #22
    2800:	a4b40205 	ldrtge	r0, [r4], #517	; 0x205
    2804:	17030000 	strne	r0, [r3, -r0]
    2808:	13050501 	movwne	r0, #21761	; 0x5501
    280c:	01060705 	tsteq	r6, r5, lsl #14
    2810:	71031805 	tstvc	r3, r5, lsl #16
    2814:	032b052e 			; <UNDEFINED> instruction: 0x032b052e
    2818:	07052e0e 	streq	r2, [r5, -lr, lsl #28]
    281c:	0609052f 	streq	r0, [r9], -pc, lsr #10
    2820:	030d052f 	movweq	r0, #54575	; 0xd52f
    2824:	0505016f 	streq	r0, [r5, #-367]	; 0xfffffe91
    2828:	2e2e0613 	mcrcs	6, 1, r0, cr14, cr3, {0}
    282c:	0609052e 	streq	r0, [r9], -lr, lsr #10
    2830:	05011203 	streq	r1, [r1, #-515]	; 0xfffffdfd
    2834:	0172030d 	cmneq	r2, sp, lsl #6
    2838:	06130505 	ldreq	r0, [r3], -r5, lsl #10
    283c:	1d052e2e 	stcne	14, cr2, [r5, #-184]	; 0xffffff48
    2840:	66100306 	ldrvs	r0, [r0], -r6, lsl #6
    2844:	05130505 	ldreq	r0, [r3, #-1285]	; 0xfffffafb
    2848:	2e11061d 	mrccs	6, 0, r0, cr1, cr13, {0}
    284c:	30060505 	andcc	r0, r6, r5, lsl #10
    2850:	060e0513 			; <UNDEFINED> instruction: 0x060e0513
    2854:	30170510 	andscc	r0, r7, r0, lsl r5
    2858:	0502042e 	streq	r0, [r2, #-1070]	; 0xfffffbd2
    285c:	dd030630 	stcle	6, cr0, [r3, #-192]	; 0xffffff40
    2860:	01042e00 	tsteq	r4, r0, lsl #28
    2864:	03060e05 	movweq	r0, #28165	; 0x6e05
    2868:	05017fa2 	streq	r7, [r1, #-4002]	; 0xfffff05e
    286c:	01052f23 	tsteq	r5, r3, lsr #30
    2870:	0006022f 	andeq	r0, r6, pc, lsr #4
    2874:	009e0101 	addseq	r0, lr, r1, lsl #2
    2878:	00030000 	andeq	r0, r3, r0
    287c:	0000005a 	andeq	r0, r0, sl, asr r0
    2880:	0efb0102 	cdpeq	1, 15, cr0, cr11, cr2, {0}
    2884:	0101000d 	tsteq	r1, sp
    2888:	00000101 	andeq	r0, r0, r1, lsl #2
    288c:	00000100 	andeq	r0, r0, r0, lsl #2
    2890:	6c2f2e01 	stcvs	14, cr2, [pc], #-4	; 2894 <__code_start__-0x576c>
    2894:	00636269 	rsbeq	r6, r3, r9, ror #4
    2898:	6573552f 	ldrbvs	r5, [r3, #-1327]!	; 0xfffffad1
    289c:	6d2f7372 	stcvs	3, cr7, [pc, #-456]!	; 26dc <__code_start__-0x5924>
    28a0:	73656c69 	cmnvc	r5, #26880	; 0x6900
    28a4:	756f532f 	strbvc	r5, [pc, #-815]!	; 257d <__code_start__-0x5a83>
    28a8:	2f656372 	svccs	0x00656372
    28ac:	34327363 	ldrtcc	r7, [r2], #-867	; 0xfffffc9d
    28b0:	2f786c30 	svccs	0x00786c30
    28b4:	7062696c 	rsbvc	r6, r2, ip, ror #18
    28b8:	6e692f69 	cdpvs	15, 6, cr2, cr9, cr9, {3}
    28bc:	64756c63 	ldrbtvs	r6, [r5], #-3171	; 0xfffff39d
    28c0:	70000065 	andvc	r0, r0, r5, rrx
    28c4:	68637475 	stmdavs	r3!, {r0, r2, r4, r5, r6, sl, ip, sp, lr}^
    28c8:	632e7261 			; <UNDEFINED> instruction: 0x632e7261
    28cc:	00000100 	andeq	r0, r0, r0, lsl #2
    28d0:	2e697072 	mcrcs	0, 3, r7, cr9, cr2, {3}
    28d4:	00020068 	andeq	r0, r2, r8, rrx
    28d8:	24050000 	strcs	r0, [r5], #-0
    28dc:	0c020500 	cfstr32eq	mvfx0, [r2], {-0}
    28e0:	140000a5 	strne	r0, [r0], #-165	; 0xffffff5b
    28e4:	05012605 	streq	r2, [r1, #-1541]	; 0xfffff9fb
    28e8:	2e010624 	cfmadd32cs	mvax1, mvfx0, mvfx1, mvfx4
    28ec:	052e2605 	streq	r2, [lr, #-1541]!	; 0xfffff9fb
    28f0:	052e0634 	streq	r0, [lr, #-1588]!	; 0xfffff9cc
    28f4:	05010601 	streq	r0, [r1, #-1537]	; 0xfffff9ff
    28f8:	054f061b 	strbeq	r0, [pc, #-1563]	; 22e5 <__code_start__-0x5d1b>
    28fc:	11051305 	tstne	r5, r5, lsl #6
    2900:	01050106 	tsteq	r5, r6, lsl #2
    2904:	06230567 	strteq	r0, [r3], -r7, ror #10
    2908:	13050567 	movwne	r0, #21863	; 0x5567
    290c:	01061105 	tsteq	r6, r5, lsl #2
    2910:	024b0105 	subeq	r0, fp, #1073741825	; 0x40000001
    2914:	01010004 	tsteq	r1, r4
    2918:	000000e2 	andeq	r0, r0, r2, ror #1
    291c:	00590003 	subseq	r0, r9, r3
    2920:	01020000 	mrseq	r0, (UNDEF: 2)
    2924:	000d0efb 	strdeq	r0, [sp], -fp
    2928:	01010101 	tsteq	r1, r1, lsl #2
    292c:	01000000 	mrseq	r0, (UNDEF: 0)
    2930:	2e010000 	cdpcs	0, 0, cr0, cr1, cr0, {0}
    2934:	62696c2f 	rsbvs	r6, r9, #12032	; 0x2f00
    2938:	552f0063 	strpl	r0, [pc, #-99]!	; 28dd <__code_start__-0x5723>
    293c:	73726573 	cmnvc	r2, #482344960	; 0x1cc00000
    2940:	6c696d2f 	stclvs	13, cr6, [r9], #-188	; 0xffffff44
    2944:	532f7365 			; <UNDEFINED> instruction: 0x532f7365
    2948:	6372756f 	cmnvs	r2, #465567744	; 0x1bc00000
    294c:	73632f65 	cmnvc	r3, #404	; 0x194
    2950:	6c303432 	cfldrsvs	mvf3, [r0], #-200	; 0xffffff38
    2954:	696c2f78 	stmdbvs	ip!, {r3, r4, r5, r6, r8, r9, sl, fp, sp}^
    2958:	2f697062 	svccs	0x00697062
    295c:	6c636e69 	stclvs	14, cr6, [r3], #-420	; 0xfffffe5c
    2960:	00656475 	rsbeq	r6, r5, r5, ror r4
    2964:	72747300 	rsbsvc	r7, r4, #0, 6
    2968:	2e746163 	rpwcssz	f6, f4, f3
    296c:	00010063 	andeq	r0, r1, r3, rrx
    2970:	69707200 	ldmdbvs	r0!, {r9, ip, sp, lr}^
    2974:	0200682e 	andeq	r6, r0, #3014656	; 0x2e0000
    2978:	05000000 	streq	r0, [r0, #-0]
    297c:	0205002c 	andeq	r0, r5, #44, 0	; 0x2c
    2980:	0000a548 	andeq	sl, r0, r8, asr #10
    2984:	13050515 	movwne	r0, #21781	; 0x5515
    2988:	060b0513 			; <UNDEFINED> instruction: 0x060b0513
    298c:	00050511 	andeq	r0, r5, r1, lsl r5
    2990:	06010402 	streq	r0, [r1], -r2, lsl #8
    2994:	04020030 	streq	r0, [r2], #-48	; 0xffffffd0
    2998:	09051501 	stmdbeq	r5, {r0, r8, sl, ip}
    299c:	01040200 	mrseq	r0, R12_usr
    29a0:	000b0513 	andeq	r0, fp, r3, lsl r5
    29a4:	2f010402 	svccs	0x00010402
    29a8:	02000505 	andeq	r0, r0, #20971520	; 0x1400000
    29ac:	01060104 	tsteq	r6, r4, lsl #2
    29b0:	01040200 	mrseq	r0, R12_usr
    29b4:	054e062e 	strbeq	r0, [lr, #-1582]	; 0xfffff9d2
    29b8:	05010608 	streq	r0, [r1, #-1544]	; 0xfffff9f8
    29bc:	04020005 	streq	r0, [r2], #-5
    29c0:	052f0601 	streq	r0, [pc, #-1537]!	; 23c7 <__code_start__-0x5c39>
    29c4:	04020009 	streq	r0, [r2], #-9
    29c8:	0b051301 	bleq	1475d4 <__bss_end__+0x13c27c>
    29cc:	01040200 	mrseq	r0, R12_usr
    29d0:	09050106 	stmdbeq	r5, {r1, r2, r8}
    29d4:	01040200 	mrseq	r0, R12_usr
    29d8:	05052f06 	streq	r2, [r5, #-3846]	; 0xfffff0fa
    29dc:	01040200 	mrseq	r0, R12_usr
    29e0:	0f051306 	svceq	0x00051306
    29e4:	01040200 	mrseq	r0, R12_usr
    29e8:	000d052d 	andeq	r0, sp, sp, lsr #10
    29ec:	06010402 	streq	r0, [r1], -r2, lsl #8
    29f0:	0005052f 	andeq	r0, r5, pc, lsr #10
    29f4:	06010402 	streq	r0, [r1], -r2, lsl #8
    29f8:	00040201 	andeq	r0, r4, r1, lsl #4
    29fc:	00b20101 	adcseq	r0, r2, r1, lsl #2
    2a00:	00030000 	andeq	r0, r3, r0
    2a04:	00000059 	andeq	r0, r0, r9, asr r0
    2a08:	0efb0102 	cdpeq	1, 15, cr0, cr11, cr2, {0}
    2a0c:	0101000d 	tsteq	r1, sp
    2a10:	00000101 	andeq	r0, r0, r1, lsl #2
    2a14:	00000100 	andeq	r0, r0, r0, lsl #2
    2a18:	6c2f2e01 	stcvs	14, cr2, [pc], #-4	; 2a1c <__code_start__-0x55e4>
    2a1c:	00636269 	rsbeq	r6, r3, r9, ror #4
    2a20:	6573552f 	ldrbvs	r5, [r3, #-1327]!	; 0xfffffad1
    2a24:	6d2f7372 	stcvs	3, cr7, [pc, #-456]!	; 2864 <__code_start__-0x579c>
    2a28:	73656c69 	cmnvc	r5, #26880	; 0x6900
    2a2c:	756f532f 	strbvc	r5, [pc, #-815]!	; 2705 <__code_start__-0x58fb>
    2a30:	2f656372 	svccs	0x00656372
    2a34:	34327363 	ldrtcc	r7, [r2], #-867	; 0xfffffc9d
    2a38:	2f786c30 	svccs	0x00786c30
    2a3c:	7062696c 	rsbvc	r6, r2, ip, ror #18
    2a40:	6e692f69 	cdpvs	15, 6, cr2, cr9, cr9, {3}
    2a44:	64756c63 	ldrbtvs	r6, [r5], #-3171	; 0xfffff39d
    2a48:	73000065 	movwvc	r0, #101	; 0x65
    2a4c:	6d637274 	sfmvs	f7, 2, [r3, #-464]!	; 0xfffffe30
    2a50:	00632e70 	rsbeq	r2, r3, r0, ror lr
    2a54:	72000001 	andvc	r0, r0, #1, 0
    2a58:	682e6970 	stmdavs	lr!, {r4, r5, r6, r8, fp, sp, lr}
    2a5c:	00000200 	andeq	r0, r0, r0, lsl #4
    2a60:	002a0500 	eoreq	r0, sl, r0, lsl #10
    2a64:	a5740205 	ldrbge	r0, [r4, #-517]!	; 0xfffffdfb
    2a68:	05140000 	ldreq	r0, [r4, #-0]
    2a6c:	10051309 	andne	r1, r5, r9, lsl #6
    2a70:	0f050106 	svceq	0x00050106
    2a74:	10052e06 	andne	r2, r5, r6, lsl #28
    2a78:	0f058206 	svceq	0x00058206
    2a7c:	0011052e 	andseq	r0, r1, lr, lsr #10
    2a80:	06010402 	streq	r0, [r1], -r2, lsl #8
    2a84:	001c054b 	andseq	r0, ip, fp, asr #10
    2a88:	06010402 	streq	r0, [r1], -r2, lsl #8
    2a8c:	000f052d 	andeq	r0, pc, sp, lsr #10
    2a90:	06010402 	streq	r0, [r1], -r2, lsl #8
    2a94:	0013052e 	andseq	r0, r3, lr, lsr #10
    2a98:	06010402 	streq	r0, [r1], -r2, lsl #8
    2a9c:	06090501 	streq	r0, [r9], -r1, lsl #10
    2aa0:	0601054c 	streq	r0, [r1], -ip, asr #10
    2aa4:	09054a13 	stmdbeq	r5, {r0, r1, r4, r9, fp, lr}
    2aa8:	01052d06 	tsteq	r5, r6, lsl #26
    2aac:	022e1306 	eoreq	r1, lr, #402653184	; 0x18000000
    2ab0:	01010002 	tsteq	r1, r2
    2ab4:	0000009d 	muleq	r0, sp, r0
    2ab8:	00590003 	subseq	r0, r9, r3
    2abc:	01020000 	mrseq	r0, (UNDEF: 2)
    2ac0:	000d0efb 	strdeq	r0, [sp], -fp
    2ac4:	01010101 	tsteq	r1, r1, lsl #2
    2ac8:	01000000 	mrseq	r0, (UNDEF: 0)
    2acc:	2e010000 	cdpcs	0, 0, cr0, cr1, cr0, {0}
    2ad0:	62696c2f 	rsbvs	r6, r9, #12032	; 0x2f00
    2ad4:	552f0063 	strpl	r0, [pc, #-99]!	; 2a79 <__code_start__-0x5587>
    2ad8:	73726573 	cmnvc	r2, #482344960	; 0x1cc00000
    2adc:	6c696d2f 	stclvs	13, cr6, [r9], #-188	; 0xffffff44
    2ae0:	532f7365 			; <UNDEFINED> instruction: 0x532f7365
    2ae4:	6372756f 	cmnvs	r2, #465567744	; 0x1bc00000
    2ae8:	73632f65 	cmnvc	r3, #404	; 0x194
    2aec:	6c303432 	cfldrsvs	mvf3, [r0], #-200	; 0xffffff38
    2af0:	696c2f78 	stmdbvs	ip!, {r3, r4, r5, r6, r8, r9, sl, fp, sp}^
    2af4:	2f697062 	svccs	0x00697062
    2af8:	6c636e69 	stclvs	14, cr6, [r3], #-420	; 0xfffffe5c
    2afc:	00656475 	rsbeq	r6, r5, r5, ror r4
    2b00:	72747300 	rsbsvc	r7, r4, #0, 6
    2b04:	2e797063 	cdpcs	0, 7, cr7, cr9, cr3, {3}
    2b08:	00010063 	andeq	r0, r1, r3, rrx
    2b0c:	69707200 	ldmdbvs	r0!, {r9, ip, sp, lr}^
    2b10:	0200682e 	andeq	r6, r0, #3014656	; 0x2e0000
    2b14:	05000000 	streq	r0, [r0, #-0]
    2b18:	0205002a 	andeq	r0, r5, #42, 0	; 0x2a
    2b1c:	0000a5b8 			; <UNDEFINED> instruction: 0x0000a5b8
    2b20:	13050514 	movwne	r0, #21780	; 0x5514
    2b24:	00220513 	eoreq	r0, r2, r3, lsl r5
    2b28:	2e010402 	cdpcs	4, 0, cr0, cr1, cr2, {0}
    2b2c:	02000b05 	andeq	r0, r0, #5120	; 0x1400
    2b30:	05010104 	streq	r0, [r1, #-260]	; 0xfffffefc
    2b34:	04020015 	streq	r0, [r2], #-21	; 0xffffffeb
    2b38:	05010601 	streq	r0, [r1, #-1537]	; 0xfffff9ff
    2b3c:	0402000b 	streq	r0, [r2], #-11
    2b40:	13052e01 	movwne	r2, #24065	; 0x5e01
    2b44:	01040200 	mrseq	r0, R12_usr
    2b48:	000b052e 	andeq	r0, fp, lr, lsr #10
    2b4c:	2e010402 	cdpcs	4, 0, cr0, cr1, cr2, {0}
    2b50:	01000402 	tsteq	r0, r2, lsl #8
    2b54:	0000fd01 	andeq	pc, r0, r1, lsl #26
    2b58:	bf000300 	svclt	0x00000300
    2b5c:	02000000 	andeq	r0, r0, #0, 0
    2b60:	0d0efb01 	vstreq	d15, [lr, #-4]
    2b64:	01010100 	mrseq	r0, (UNDEF: 17)
    2b68:	00000001 	andeq	r0, r0, r1
    2b6c:	01000001 	tsteq	r0, r1
    2b70:	696c2f2e 	stmdbvs	ip!, {r1, r2, r3, r5, r8, r9, sl, fp, sp}^
    2b74:	2f006362 	svccs	0x00006362
    2b78:	72657355 	rsbvc	r7, r5, #1409286145	; 0x54000001
    2b7c:	696d2f73 	stmdbvs	sp!, {r0, r1, r4, r5, r6, r8, r9, sl, fp, sp}^
    2b80:	2f73656c 	svccs	0x0073656c
    2b84:	72756f53 	rsbsvc	r6, r5, #332	; 0x14c
    2b88:	632f6563 			; <UNDEFINED> instruction: 0x632f6563
    2b8c:	30343273 	eorscc	r3, r4, r3, ror r2
    2b90:	6c2f786c 	stcvs	8, cr7, [pc], #-432	; 29e8 <__code_start__-0x5618>
    2b94:	69706269 	ldmdbvs	r0!, {r0, r3, r5, r6, r9, sp, lr}^
    2b98:	636e692f 	cmnvs	lr, #770048	; 0xbc000
    2b9c:	6564756c 	strbvs	r7, [r4, #-1388]!	; 0xfffffa94
    2ba0:	706f2f00 	rsbvc	r2, pc, r0, lsl #30
    2ba4:	6f682f74 	svcvs	0x00682f74
    2ba8:	7262656d 	rsbvc	r6, r2, #457179136	; 0x1b400000
    2bac:	432f7765 			; <UNDEFINED> instruction: 0x432f7765
    2bb0:	616c6c65 	cmnvs	ip, r5, ror #24
    2bb4:	72612f72 	rsbvc	r2, r1, #456	; 0x1c8
    2bb8:	6f6e2d6d 	svcvs	0x006e2d6d
    2bbc:	652d656e 	strvs	r6, [sp, #-1390]!	; 0xfffffa92
    2bc0:	2d696261 	sfmcs	f6, 2, [r9, #-388]!	; 0xfffffe7c
    2bc4:	2d392f39 	ldccs	15, cr2, [r9, #-228]!	; 0xffffff1c
    2bc8:	39313032 	ldmdbcc	r1!, {r1, r4, r5, ip, sp}
    2bcc:	632d3471 			; <UNDEFINED> instruction: 0x632d3471
    2bd0:	37303173 			; <UNDEFINED> instruction: 0x37303173
    2bd4:	696c2f65 	stmdbvs	ip!, {r0, r2, r5, r6, r8, r9, sl, fp, sp}^
    2bd8:	63672f62 	cmnvs	r7, #392	; 0x188
    2bdc:	72612f63 	rsbvc	r2, r1, #396	; 0x18c
    2be0:	6f6e2d6d 	svcvs	0x006e2d6d
    2be4:	652d656e 	strvs	r6, [sp, #-1390]!	; 0xfffffa92
    2be8:	2f696261 	svccs	0x00696261
    2bec:	2e322e39 	mrccs	14, 1, r2, cr2, cr9, {1}
    2bf0:	6e692f31 	mcrvs	15, 3, r2, cr9, cr1, {1}
    2bf4:	64756c63 	ldrbtvs	r6, [r5], #-3171	; 0xfffff39d
    2bf8:	73000065 	movwvc	r0, #101	; 0x65
    2bfc:	636e7274 	cmnvs	lr, #116, 4	; 0x40000007
    2c00:	632e706d 			; <UNDEFINED> instruction: 0x632e706d
    2c04:	00000100 	andeq	r0, r0, r0, lsl #2
    2c08:	2e697072 	mcrcs	0, 3, r7, cr9, cr2, {3}
    2c0c:	00020068 	andeq	r0, r2, r8, rrx
    2c10:	64747300 	ldrbtvs	r7, [r4], #-768	; 0xfffffd00
    2c14:	2e666564 	cdpcs	5, 6, cr6, cr6, cr4, {3}
    2c18:	00030068 	andeq	r0, r3, r8, rrx
    2c1c:	39050000 	stmdbcc	r5, {}	; <UNPREDICTABLE>
    2c20:	d0020500 	andle	r0, r2, r0, lsl #10
    2c24:	150000a5 	strne	r0, [r0, #-165]	; 0xffffff5b
    2c28:	13130505 	tstne	r3, #20971520	; 0x1400000
    2c2c:	2e060a05 	vmlacs.f32	s0, s12, s10
    2c30:	052f0c05 	streq	r0, [pc, #-3077]!	; 2033 <__code_start__-0x5fcd>
    2c34:	0b052e13 	bleq	14e488 <__bss_end__+0x143130>
    2c38:	0609052e 	streq	r0, [r9], -lr, lsr #10
    2c3c:	110a054a 	tstne	sl, sl, asr #10
    2c40:	0c050106 	stfeqs	f0, [r5], {6}
    2c44:	2f01054e 	svccs	0x0001054e
    2c48:	2b060d05 	blcs	186064 <__bss_end__+0x17ad0c>
    2c4c:	01061b05 	tsteq	r6, r5, lsl #22
    2c50:	0002022e 	andeq	r0, r2, lr, lsr #4
    2c54:	008a0101 	addeq	r0, sl, r1, lsl #2
    2c58:	00030000 	andeq	r0, r3, r0
    2c5c:	0000006e 	andeq	r0, r0, lr, rrx
    2c60:	0efb0102 	cdpeq	1, 15, cr0, cr11, cr2, {0}
    2c64:	0101000d 	tsteq	r1, sp
    2c68:	00000101 	andeq	r0, r0, r1, lsl #2
    2c6c:	00000100 	andeq	r0, r0, r0, lsl #2
    2c70:	732f2e01 			; <UNDEFINED> instruction: 0x732f2e01
    2c74:	66666174 			; <UNDEFINED> instruction: 0x66666174
    2c78:	6372732d 	cmnvs	r2, #-1275068416	; 0xb4000000
    2c7c:	73552f00 	cmpvc	r5, #0, 30
    2c80:	2f737265 	svccs	0x00737265
    2c84:	656c696d 	strbvs	r6, [ip, #-2413]!	; 0xfffff693
    2c88:	6f532f73 	svcvs	0x00532f73
    2c8c:	65637275 	strbvs	r7, [r3, #-629]!	; 0xfffffd8b
    2c90:	3273632f 	rsbscc	r6, r3, #-1140850688	; 0xbc000000
    2c94:	786c3034 	stmdavc	ip!, {r2, r4, r5, ip, sp}^
    2c98:	62696c2f 	rsbvs	r6, r9, #12032	; 0x2f00
    2c9c:	692f6970 	stmdbvs	pc!, {r4, r5, r6, r8, fp, sp, lr}	; <UNPREDICTABLE>
    2ca0:	756c636e 	strbvc	r6, [ip, #-878]!	; 0xfffffc92
    2ca4:	00006564 	andeq	r6, r0, r4, ror #10
    2ca8:	61666564 	cmnvs	r6, r4, ror #10
    2cac:	2d746c75 	ldclcs	12, cr6, [r4, #-468]!	; 0xfffffe2c
    2cb0:	6f626572 	svcvs	0x00626572
    2cb4:	632d746f 			; <UNDEFINED> instruction: 0x632d746f
    2cb8:	6f6c6c61 	svcvs	0x006c6c61
    2cbc:	632e7475 			; <UNDEFINED> instruction: 0x632e7475
    2cc0:	00000100 	andeq	r0, r0, r0, lsl #2
    2cc4:	2e697072 	mcrcs	0, 3, r7, cr9, cr2, {3}
    2cc8:	00020068 	andeq	r0, r2, r8, rrx
    2ccc:	1b050000 	blne	142cd4 <__bss_end__+0x13797c>
    2cd0:	00020500 	andeq	r0, r2, r0, lsl #10
    2cd4:	140000a6 	strne	r0, [r0], #-166	; 0xffffff5a
    2cd8:	05011c05 	streq	r1, [r1, #-3077]	; 0xfffff3fb
    2cdc:	02010601 	andeq	r0, r1, #1048576	; 0x100000
    2ce0:	01010002 	tsteq	r1, r2

Disassembly of section .debug_str:

00000000 <.debug_str>:
   0:	765f6b63 	ldrbvc	r6, [pc], -r3, ror #22
   4:	6f627265 	svcvs	0x00627265
   8:	705f6573 	subsvc	r6, pc, r3, ror r5	; <UNPREDICTABLE>
   c:	72646800 	rsbvc	r6, r4, #0, 16
  10:	6e00745f 	cfmvsrvs	mvf0, r7
  14:	00747865 	rsbseq	r7, r4, r5, ror #16
  18:	6c616b63 			; <UNDEFINED> instruction: 0x6c616b63
  1c:	00636f6c 	rsbeq	r6, r3, ip, ror #30
  20:	74617473 	strbtvc	r7, [r1], #-1139	; 0xfffffb8d
  24:	696c0065 	stmdbvs	ip!, {r0, r2, r5, r6}^
  28:	6f6e656e 	svcvs	0x006e656e
  2c:	746f6e00 	strbtvc	r6, [pc], #-3584	; 34 <__code_start__-0x7fcc>
  30:	6e69616d 	powvsez	f6, f1, #5.0
  34:	79626e00 	stmdbvc	r2!, {r9, sl, fp, sp, lr}^
  38:	5f736574 	svcpl	0x00736574
  3c:	6f6c6c61 	svcvs	0x006c6c61
  40:	6b630063 	blvs	18c01d4 <__bss_end__+0x18b4e7c>
  44:	6165685f 	cmnvs	r5, pc, asr r8
  48:	72655f70 	rsbvc	r5, r5, #112, 30	; 0x1c0
  4c:	73726f72 	cmnvc	r2, #456	; 0x1c8
  50:	6c696600 	stclvs	6, cr6, [r9], #-0
  54:	6e750065 	cdpvs	0, 7, cr0, cr5, cr5, {3}
  58:	6e676973 			; <UNDEFINED> instruction: 0x6e676973
  5c:	63206465 			; <UNDEFINED> instruction: 0x63206465
  60:	00726168 	rsbseq	r6, r2, r8, ror #2
  64:	61656c63 	cmnvs	r5, r3, ror #24
  68:	65725f6e 	ldrbvs	r5, [r2, #-3950]!	; 0xfffff092
  6c:	746f6f62 	strbtvc	r6, [pc], #-3938	; 74 <__code_start__-0x7f8c>
  70:	6f687300 	svcvs	0x00687300
  74:	75207472 	strvc	r7, [r0, #-1138]!	; 0xfffffb8e
  78:	6769736e 	strbvs	r7, [r9, -lr, ror #6]!
  7c:	2064656e 	rsbcs	r6, r4, lr, ror #10
  80:	00746e69 	rsbseq	r6, r4, r9, ror #28
  84:	20554e47 	subscs	r4, r5, r7, asr #28
  88:	20393943 	eorscs	r3, r9, r3, asr #18
  8c:	2e322e39 	mrccs	14, 1, r2, cr2, cr9, {1}
  90:	30322031 	eorscc	r2, r2, r1, lsr r0
  94:	30313931 	eorscc	r3, r1, r1, lsr r9
  98:	28203532 	stmdacs	r0!, {r1, r4, r5, r8, sl, ip, sp}
  9c:	656c6572 	strbvs	r6, [ip, #-1394]!	; 0xfffffa8e
  a0:	29657361 	stmdbcs	r5!, {r0, r5, r6, r8, r9, ip, sp, lr}^
  a4:	52415b20 	subpl	r5, r1, #32, 22	; 0x8000
  a8:	72612f4d 	rsbvc	r2, r1, #308	; 0x134
  ac:	2d392d6d 	ldccs	13, cr2, [r9, #-436]!	; 0xfffffe4c
  b0:	6e617262 	cdpvs	2, 6, cr7, cr1, cr2, {3}
  b4:	72206863 	eorvc	r6, r0, #6488064	; 0x630000
  b8:	73697665 	cmnvc	r9, #105906176	; 0x6500000
  bc:	206e6f69 	rsbcs	r6, lr, r9, ror #30
  c0:	35373732 	ldrcc	r3, [r7, #-1842]!	; 0xfffff8ce
  c4:	205d3939 	subscs	r3, sp, r9, lsr r9
  c8:	70636d2d 	rsbvc	r6, r3, sp, lsr #26
  cc:	72613d75 	rsbvc	r3, r1, #7488	; 0x1d40
  d0:	3731316d 	ldrcc	r3, [r1, -sp, ror #2]!
  d4:	667a6a36 			; <UNDEFINED> instruction: 0x667a6a36
  d8:	2d20732d 	stccs	3, cr7, [r0, #-180]!	; 0xffffff4c
  dc:	6e75746d 	cdpvs	4, 7, cr7, cr5, cr13, {3}
  e0:	72613d65 	rsbvc	r3, r1, #6464	; 0x1940
  e4:	3731316d 	ldrcc	r3, [r1, -sp, ror #2]!
  e8:	667a6a36 			; <UNDEFINED> instruction: 0x667a6a36
  ec:	2d20732d 	stccs	3, cr7, [r0, #-180]!	; 0xffffff4c
  f0:	6b6f706d 	blvs	1bdc2ac <__bss_end__+0x1bd0f54>
  f4:	75662d65 	strbvc	r2, [r6, #-3429]!	; 0xfffff29b
  f8:	6974636e 	ldmdbvs	r4!, {r1, r2, r3, r5, r6, r8, r9, sp, lr}^
  fc:	6e2d6e6f 	cdpvs	14, 2, cr6, cr13, cr15, {3}
 100:	20656d61 	rsbcs	r6, r5, r1, ror #26
 104:	6c666d2d 	stclvs	13, cr6, [r6], #-180	; 0xffffff4c
 108:	2d74616f 	ldfcse	f6, [r4, #-444]!	; 0xfffffe44
 10c:	3d696261 	sfmcc	f6, 2, [r9, #-388]!	; 0xfffffe7c
 110:	74666f73 	strbtvc	r6, [r6], #-3955	; 0xfffff08d
 114:	616d2d20 	cmnvs	sp, r0, lsr #26
 118:	2d206d72 	stccs	13, cr6, [r0, #-456]!	; 0xfffffe38
 11c:	6372616d 	cmnvs	r2, #1073741851	; 0x4000001b
 120:	72613d68 	rsbvc	r3, r1, #104, 26	; 0x1a00
 124:	6b36766d 	blvs	d9dae0 <__bss_end__+0xd92788>
 128:	672d207a 			; <UNDEFINED> instruction: 0x672d207a
 12c:	20626467 	rsbcs	r6, r2, r7, ror #8
 130:	20674f2d 	rsbcs	r4, r7, sp, lsr #30
 134:	6474732d 	ldrbtvs	r7, [r4], #-813	; 0xfffffcd3
 138:	756e673d 	strbvc	r6, [lr, #-1853]!	; 0xfffff8c3
 13c:	2d203939 			; <UNDEFINED> instruction: 0x2d203939
 140:	65726666 	ldrbvs	r6, [r2, #-1638]!	; 0xfffff99a
 144:	61747365 	cmnvs	r4, r5, ror #6
 148:	6e69646e 	cdpvs	4, 6, cr6, cr9, cr14, {3}
 14c:	662d2067 	strtvs	r2, [sp], -r7, rrx
 150:	6f2d6f6e 	svcvs	0x002d6f6e
 154:	2d74696d 			; <UNDEFINED> instruction: 0x2d74696d
 158:	6d617266 	sfmvs	f7, 2, [r1, #-408]!	; 0xfffffe68
 15c:	6f702d65 	svcvs	0x00702d65
 160:	65746e69 	ldrbvs	r6, [r4, #-3689]!	; 0xfffff197
 164:	6b630072 	blvs	18c0334 <__bss_end__+0x18b4fdc>
 168:	7264685f 	rsbvc	r6, r4, #6225920	; 0x5f0000
 16c:	63727300 	cmnvs	r2, #0, 6
 170:	636f6c5f 	cmnvs	pc, #24320	; 0x5f00
 174:	006b6d5f 	rsbeq	r6, fp, pc, asr sp
 178:	6573552f 	ldrbvs	r5, [r3, #-1327]!	; 0xfffffad1
 17c:	6d2f7372 	stcvs	3, cr7, [pc, #-456]!	; ffffffbc <__bss_end__+0xffff4c64>
 180:	73656c69 	cmnvc	r5, #26880	; 0x6900
 184:	756f532f 	strbvc	r5, [pc, #-815]!	; fffffe5d <__bss_end__+0xffff4b05>
 188:	2f656372 	svccs	0x00656372
 18c:	34327363 	ldrtcc	r7, [r2], #-867	; 0xfffffc9d
 190:	2f786c30 	svccs	0x00786c30
 194:	7362616c 	cmnvc	r2, #27
 198:	642d362f 	strtvs	r3, [sp], #-1583	; 0xfffff9d1
 19c:	67756265 	ldrbvs	r6, [r5, -r5, ror #4]!
 1a0:	6c6c612d 	stfvse	f6, [ip], #-180	; 0xffffff4c
 1a4:	632f636f 			; <UNDEFINED> instruction: 0x632f636f
 1a8:	0065646f 	rsbeq	r6, r5, pc, ror #8
 1ac:	625f6b63 	subsvs	r6, pc, #101376	; 0x18c00
 1b0:	695f6b6c 	ldmdbvs	pc, {r2, r3, r5, r6, r8, r9, fp, sp, lr}^	; <UNPREDICTABLE>
 1b4:	75660064 	strbvc	r0, [r6, #-100]!	; 0xffffff9c
 1b8:	5f00636e 	svcpl	0x0000636e
 1bc:	4e55465f 	mrcmi	6, 2, r4, cr5, cr15, {2}
 1c0:	4f495443 	svcmi	0x00495443
 1c4:	005f5f4e 	subseq	r5, pc, lr, asr #30
 1c8:	736d656d 	cmnvc	sp, #457179136	; 0x1b400000
 1cc:	62007465 	andvs	r7, r0, #1694498816	; 0x65000000
 1d0:	6b636f6c 	blvs	18dbf88 <__bss_end__+0x18d0c30>
 1d4:	0064695f 	rsbeq	r6, r4, pc, asr r9
 1d8:	676e6f6c 	strbvs	r6, [lr, -ip, ror #30]!
 1dc:	6e6f6c20 	cdpvs	12, 6, cr6, cr15, cr0, {1}
 1e0:	6e752067 	cdpvs	0, 7, cr2, cr5, cr7, {3}
 1e4:	6e676973 			; <UNDEFINED> instruction: 0x6e676973
 1e8:	69206465 	stmdbvs	r0!, {r0, r2, r5, r6, sl, sp, lr}
 1ec:	7500746e 	strvc	r7, [r0, #-1134]	; 0xfffffb92
 1f0:	38746e69 	ldmdacc	r4!, {r0, r3, r5, r6, r9, sl, fp, sp, lr}^
 1f4:	6100745f 	tstvs	r0, pc, asr r4
 1f8:	636f6c6c 	cmnvs	pc, #108, 24	; 0x6c00
 1fc:	636f6c5f 	cmnvs	pc, #24320	; 0x5f00
 200:	6e6f6c00 	cdpvs	12, 6, cr6, cr15, cr0, {0}
 204:	6f6c2067 	svcvs	0x006c2067
 208:	6920676e 	stmdbvs	r0!, {r1, r2, r3, r5, r6, r8, r9, sl, sp, lr}
 20c:	7200746e 	andvc	r7, r0, #1845493760	; 0x6e000000
 210:	705f6970 	subsvc	r6, pc, r0, ror r9	; <UNPREDICTABLE>
 214:	68637475 	stmdavs	r3!, {r0, r2, r4, r5, r6, sl, ip, sp, lr}^
 218:	63007261 	movwvs	r7, #609	; 0x261
 21c:	6572666b 	ldrbvs	r6, [r2, #-1643]!	; 0xfffff995
 220:	68730065 	ldmdavs	r3!, {r0, r2, r5, r6}^
 224:	2074726f 	rsbscs	r7, r4, pc, ror #4
 228:	00746e69 	rsbseq	r6, r4, r9, ror #28
 22c:	5f637273 	svcpl	0x00637273
 230:	5f636f6c 	svcpl	0x00636f6c
 234:	69750074 	ldmdbvs	r5!, {r2, r4, r5, r6}^
 238:	3631746e 	ldrtcc	r7, [r1], -lr, ror #8
 23c:	7400745f 	strvc	r7, [r0], #-1119	; 0xfffffba1
 240:	73747365 	cmnvc	r4, #-1811939327	; 0x94000001
 244:	302e322d 	eorcc	r3, lr, sp, lsr #4
 248:	7261702f 	rsbvc	r7, r1, #47, 0	; 0x2f
 24c:	742d3174 	strtvc	r3, [sp], #-372	; 0xfffffe8c
 250:	31747365 	cmncc	r4, r5, ror #6
 254:	2d6f6e2d 	stclcs	14, cr6, [pc, #-180]!	; 1a8 <__code_start__-0x7e58>
 258:	2e677562 	cdpcs	5, 6, cr7, cr7, cr2, {3}
 25c:	72660063 	rsbvc	r0, r6, #99, 0	; 0x63
 260:	6c5f6565 	cfldr64vs	mvdx6, [pc], {101}	; 0x65
 264:	7500636f 	strvc	r6, [r0, #-879]	; 0xfffffc91
 268:	33746e69 	cmncc	r4, #1680	; 0x690
 26c:	00745f32 	rsbseq	r5, r4, r2, lsr pc
 270:	73666572 	cmnvc	r6, #478150656	; 0x1c800000
 274:	6174735f 	cmnvs	r4, pc, asr r3
 278:	72007472 	andvc	r7, r0, #1912602624	; 0x72000000
 27c:	5f736665 	svcpl	0x00736665
 280:	6464696d 	strbtvs	r6, [r4], #-2413	; 0xfffff693
 284:	6300656c 	movwvs	r6, #1388	; 0x56c
 288:	74705f6b 	ldrbtvc	r5, [r0], #-3947	; 0xfffff095
 28c:	6e695f72 	mcrvs	15, 3, r5, cr9, cr2, {3}
 290:	6f6c625f 	svcvs	0x006c625f
 294:	46006b63 	strmi	r6, [r0], -r3, ror #22
 298:	44454552 	strbmi	r4, [r5], #-1362	; 0xfffffaae
 29c:	61687300 	cmnvs	r8, r0, lsl #6
 2a0:	5f776f64 	svcpl	0x00776f64
 2a4:	7366666f 	cmnvc	r6, #116391936	; 0x6f00000
 2a8:	52007465 	andpl	r7, r0, #1694498816	; 0x65000000
 2ac:	4f5a4445 	svcmi	0x005a4445
 2b0:	565f454e 	ldrbpl	r4, [pc], -lr, asr #10
 2b4:	52004c41 	andpl	r4, r0, #16640	; 0x4100
 2b8:	4f5a4445 	svcmi	0x005a4445
 2bc:	4e5f454e 	cdpmi	5, 5, cr4, cr15, cr14, {2}
 2c0:	45545942 	ldrbmi	r5, [r4, #-2370]	; 0xfffff6be
 2c4:	6b630053 	blvs	18c0418 <__bss_end__+0x18b50c0>
 2c8:	7269665f 	rsbvc	r6, r9, #99614720	; 0x5f00000
 2cc:	685f7473 	ldmdavs	pc, {r0, r1, r4, r5, r6, sl, ip, sp, lr}^	; <UNPREDICTABLE>
 2d0:	64007264 	strvs	r7, [r0], #-612	; 0xfffffd9c
 2d4:	5f617461 	svcpl	0x00617461
 2d8:	72617473 	rsbvc	r7, r1, #1929379840	; 0x73000000
 2dc:	6c610074 	stclvs	0, cr0, [r1], #-464	; 0xfffffe30
 2e0:	5f636f6c 	svcpl	0x00636f6c
 2e4:	7473696c 	ldrbtvc	r6, [r3], #-2412	; 0xfffff694
 2e8:	61687300 	cmnvs	r8, r0, lsl #6
 2ec:	5f776f64 	svcpl	0x00776f64
 2f0:	61636f6c 	cmnvs	r3, ip, ror #30
 2f4:	6e6f6974 			; <UNDEFINED> instruction: 0x6e6f6974
 2f8:	63616200 	cmnvs	r1, #0, 4
 2fc:	6172746b 	cmnvs	r2, fp, ror #8
 300:	5f006563 	svcpl	0x00006563
 304:	6165685f 	cmnvs	r5, pc, asr r8
 308:	74735f70 	ldrbtvc	r5, [r3], #-3952	; 0xfffff090
 30c:	5f747261 	svcpl	0x00747261
 310:	6b63005f 	blvs	18c0494 <__bss_end__+0x18b513c>
 314:	7274705f 	rsbsvc	r7, r4, #95, 0	; 0x5f
 318:	5f73695f 	svcpl	0x0073695f
 31c:	6f6c6c61 	svcvs	0x006c6c61
 320:	00646563 	rsbeq	r6, r4, r3, ror #10
 324:	64616873 	strbtvs	r6, [r1], #-2163	; 0xfffff78d
 328:	735f776f 	cmpvc	pc, #29097984	; 0x1bc0000
 32c:	74726174 	ldrbtvc	r6, [r2], #-372	; 0xfffffe8c
 330:	5f6b6300 	svcpl	0x006b6300
 334:	7478656e 	ldrbtvc	r6, [r8], #-1390	; 0xfffffa92
 338:	7264685f 	rsbvc	r6, r4, #6225920	; 0x5f0000
 33c:	616b6300 	cmnvs	fp, r0, lsl #6
 340:	636f6c6c 	cmnvs	pc, #108, 24	; 0x6c00
 344:	4100632e 	tstmi	r0, lr, lsr #6
 348:	434f4c4c 	movtmi	r4, #64588	; 0xfc4c
 34c:	63004445 	movwvs	r4, #1093	; 0x445
 350:	64685f6b 	strbtvs	r5, [r8], #-3947	; 0xfffff095
 354:	74735f72 	ldrbtvc	r5, [r3], #-3954	; 0xfffff08e
 358:	00747261 	rsbseq	r7, r4, r1, ror #4
 35c:	6769726f 	strbvs	r7, [r9, -pc, ror #4]!
 360:	6c616e69 	stclvs	14, cr6, [r1], #-420	; 0xfffffe5c
 364:	5f6b6300 	svcpl	0x006b6300
 368:	5f726468 	svcpl	0x00726468
 36c:	00646e65 	rsbeq	r6, r4, r5, ror #28
 370:	6e5f6b63 	vnmlavs.f64	d22, d15, d19
 374:	65747962 	ldrbvs	r7, [r4, #-2402]!	; 0xfffff69e
 378:	726b0073 	rsbvc	r0, fp, #115, 0	; 0x73
 37c:	6c616d5f 	stclvs	13, cr6, [r1], #-380	; 0xfffffe84
 380:	00636f6c 	rsbeq	r6, r3, ip, ror #30
 384:	64616568 	strbtvs	r6, [r1], #-1384	; 0xfffffa98
 388:	70007265 	andvc	r7, r0, r5, ror #4
 38c:	70766572 	rsbsvc	r6, r6, r2, ror r5
 390:	696c6100 	stmdbvs	ip!, {r8, sp, lr}^
 394:	6b006e67 	blvs	1bd38 <__bss_end__+0x109e0>
 398:	72665f72 	rsbvc	r5, r6, #456	; 0x1c8
 39c:	66006565 	strvs	r6, [r0], -r5, ror #10
 3a0:	70656572 	rsbvc	r6, r5, r2, ror r5
 3a4:	6e756e00 	cdpvs	14, 7, cr6, cr5, cr0, {0}
 3a8:	00737469 	rsbseq	r7, r3, r9, ror #8
 3ac:	6d2d726b 	sfmvs	f7, 4, [sp, #-428]!	; 0xfffffe54
 3b0:	6f6c6c61 	svcvs	0x006c6c61
 3b4:	00632e63 	rsbeq	r2, r3, r3, ror #28
 3b8:	62756f64 	rsbsvs	r6, r5, #100, 30	; 0x190
 3bc:	6200656c 	andvs	r6, r0, #108, 10	; 0x1b000000
 3c0:	00657361 	rsbeq	r7, r5, r1, ror #6
 3c4:	6b726273 	blvs	1c98d98 <__bss_end__+0x1c8da40>
 3c8:	726f6d00 	rsbvc	r6, pc, #0, 26
 3cc:	726f6365 	rsbvc	r6, pc, #-1811939327	; 0x94000001
 3d0:	69730065 	ldmdbvs	r3!, {r0, r2, r5, r6}^
 3d4:	4800657a 	stmdami	r0, {r1, r3, r4, r5, r6, r8, sl, sp, lr}
 3d8:	65646165 	strbvs	r6, [r4, #-357]!	; 0xfffffe9b
 3dc:	74730072 	ldrbtvc	r0, [r3], #-114	; 0xffffff8e
 3e0:	5f6b6361 	svcpl	0x006b6361
 3e4:	00706f74 	rsbseq	r6, r0, r4, ror pc
 3e8:	6b72616d 	blvs	1c989a4 <__bss_end__+0x1c8d64c>
 3ec:	6c6c615f 	stfvse	f6, [ip], #-380	; 0xfffffe84
 3f0:	706d6900 	rsbvc	r6, sp, r0, lsl #18
 3f4:	656d656c 	strbvs	r6, [sp, #-1388]!	; 0xfffffa94
 3f8:	745f746e 	ldrbvc	r7, [pc], #-1134	; 400 <__code_start__-0x7c00>
 3fc:	00736968 	rsbseq	r6, r3, r8, ror #18
 400:	73625f5f 	cmnvc	r2, #380	; 0x17c
 404:	74735f73 	ldrbtvc	r5, [r3], #-3955	; 0xfffff08d
 408:	5f747261 	svcpl	0x00747261
 40c:	626e005f 	rsbvs	r0, lr, #95, 0	; 0x5f
 410:	6b636f6c 	blvs	18dc1c8 <__bss_end__+0x18d0e70>
 414:	6e690073 	mcrvs	0, 3, r0, cr9, cr3, {3}
 418:	705f7469 	subsvc	r7, pc, r9, ror #8
 41c:	79626e00 	stmdbvc	r2!, {r9, sl, fp, sp, lr}^
 420:	5f736574 	svcpl	0x00736574
 424:	65657266 	strbvs	r7, [r5, #-614]!	; 0xfffffd9a
 428:	6c6f0064 	stclvs	0, cr0, [pc], #-400	; 2a0 <__code_start__-0x7d60>
 42c:	616d5f64 	cmnvs	sp, r4, ror #30
 430:	69006b72 	stmdbvs	r0, {r1, r4, r5, r6, r8, r9, fp, sp, lr}
 434:	6572636e 	ldrbvs	r6, [r2, #-878]!	; 0xfffffc92
 438:	746e656d 	strbtvc	r6, [lr], #-1389	; 0xfffffa93
 43c:	5f6b6300 	svcpl	0x006b6300
 440:	646e6966 	strbtvs	r6, [lr], #-2406	; 0xfffff69a
 444:	61656c5f 	cmnvs	r5, pc, asr ip
 448:	6d00736b 	stcvs	3, cr7, [r0, #-428]	; 0xfffffe54
 44c:	65627961 	strbvs	r7, [r2, #-2401]!	; 0xfffff69f
 450:	7272655f 	rsbsvc	r6, r2, #398458880	; 0x17c00000
 454:	0073726f 	rsbseq	r7, r3, pc, ror #4
 458:	675f6b63 	ldrbvs	r6, [pc, -r3, ror #22]
 45c:	5f5f0063 	svcpl	0x005f0063
 460:	61746164 	cmnvs	r4, r4, ror #2
 464:	646e655f 	strbtvs	r6, [lr], #-1375	; 0xfffffaa1
 468:	64005f5f 	strvs	r5, [r0], #-3935	; 0xfffff0a1
 46c:	5f706d75 	svcpl	0x00706d75
 470:	73676572 	cmnvc	r7, #478150656	; 0x1c800000
 474:	656c6e00 	strbvs	r6, [ip, #-3584]!	; 0xfffff200
 478:	00736b61 	rsbseq	r6, r3, r1, ror #22
 47c:	6f727265 	svcvs	0x00727265
 480:	745f7372 	ldrbvc	r7, [pc], #-882	; 488 <__code_start__-0x7b78>
 484:	5f736968 	svcpl	0x00736968
 488:	636f6c62 	cmnvs	pc, #25088	; 0x6200
 48c:	7369006b 	cmnvc	r9, #107, 0	; 0x6b
 490:	7274705f 	rsbsvc	r7, r4, #95, 0	; 0x5f
 494:	72666e00 	rsbvc	r6, r6, #0, 28
 498:	00646565 	rsbeq	r6, r4, r5, ror #10
 49c:	63656863 	cmnvs	r5, #6488064	; 0x630000
 4a0:	6f6e5f6b 	svcvs	0x006e5f6b
 4a4:	61656c5f 	cmnvs	r5, pc, asr ip
 4a8:	6e69006b 	cdpvs	0, 6, cr0, cr9, cr11, {3}
 4ac:	6165685f 	cmnvs	r5, pc, asr r8
 4b0:	6e6f0070 	mcrvs	0, 3, r0, cr15, cr0, {3}
 4b4:	00626d65 	rsbeq	r6, r2, r5, ror #26
 4b8:	672d6b63 	strvs	r6, [sp, -r3, ror #22]!
 4bc:	00632e63 	rsbeq	r2, r3, r3, ror #28
 4c0:	63656863 	cmnvs	r5, #6488064	; 0x630000
 4c4:	68735f6b 	ldmdavs	r3!, {r0, r1, r3, r5, r6, r8, r9, sl, fp, ip, lr}^
 4c8:	646c756f 	strbtvs	r7, [ip], #-1391	; 0xfffffa91
 4cc:	61656c5f 	cmnvs	r5, pc, asr ip
 4d0:	5f5f006b 	svcpl	0x005f006b
 4d4:	5f737362 	svcpl	0x00737362
 4d8:	5f646e65 	svcpl	0x00646e65
 4dc:	6572005f 	ldrbvs	r0, [r2, #-95]!	; 0xffffffa1
 4e0:	6e6f7a64 	vnmulvs.f32	s15, s30, s9
 4e4:	72655f65 	rsbvc	r5, r5, #404	; 0x194
 4e8:	73726f72 	cmnvc	r2, #456	; 0x1c8
 4ec:	64657200 	strbtvs	r7, [r5], #-512	; 0xfffffe00
 4f0:	656e6f7a 	strbvs	r6, [lr, #-3962]!	; 0xfffff086
 4f4:	616d6b00 	cmnvs	sp, r0, lsl #22
 4f8:	636f6c6c 	cmnvs	pc, #108, 24	; 0x6c00
 4fc:	616d6b00 	cmnvs	sp, r0, lsl #22
 500:	636f6c6c 	cmnvs	pc, #108, 24	; 0x6c00
 504:	696e695f 	stmdbvs	lr!, {r0, r1, r2, r3, r4, r6, r8, fp, sp, lr}^
 508:	65735f74 	ldrbvs	r5, [r3, #-3956]!	; 0xfffff08c
 50c:	74735f74 	ldrbtvc	r5, [r3], #-3956	; 0xfffff08c
 510:	00747261 	rsbseq	r7, r4, r1, ror #4
 514:	65657773 	strbvs	r7, [r5, #-1907]!	; 0xfffff88d
 518:	656c5f70 	strbvs	r5, [ip, #-3952]!	; 0xfffff090
 51c:	5f006b61 	svcpl	0x00006b61
 520:	7461645f 	strbtvc	r6, [r1], #-1119	; 0xfffffba1
 524:	74735f61 	ldrbtvc	r5, [r3], #-3937	; 0xfffff09f
 528:	5f747261 	svcpl	0x00747261
 52c:	7773005f 			; <UNDEFINED> instruction: 0x7773005f
 530:	5f706565 	svcpl	0x00706565
 534:	65657266 	strbvs	r7, [r5, #-614]!	; 0xfffffd9a
 538:	72617700 	rsbvc	r7, r1, #0, 14
 53c:	6f6e5f6e 	svcvs	0x006e5f6e
 540:	6174735f 	cmnvs	r4, pc, asr r3
 544:	725f7472 	subsvc	r7, pc, #1912602624	; 0x72000000
 548:	705f6665 	subsvc	r6, pc, r5, ror #12
 54c:	746f7400 	strbtvc	r7, [pc], #-1024	; 554 <__code_start__-0x7aac>
 550:	77006c61 	strvc	r6, [r0, -r1, ror #24]
 554:	0064726f 	rsbeq	r7, r4, pc, ror #4
 558:	656d616e 	strbvs	r6, [sp, #-366]!	; 0xfffffe92
 55c:	6e656c5f 	mcrvs	12, 3, r6, cr5, cr15, {2}
 560:	554e4700 	strbpl	r4, [lr, #-1792]	; 0xfffff900
 564:	39394320 	ldmdbcc	r9!, {r5, r8, r9, lr}
 568:	322e3920 	eorcc	r3, lr, #32, 18	; 0x80000
 56c:	3220312e 	eorcc	r3, r0, #-2147483637	; 0x8000000b
 570:	31393130 	teqcc	r9, r0, lsr r1
 574:	20353230 	eorscs	r3, r5, r0, lsr r2
 578:	6c657228 	sfmvs	f7, 2, [r5], #-160	; 0xffffff60
 57c:	65736165 	ldrbvs	r6, [r3, #-357]!	; 0xfffffe9b
 580:	415b2029 	cmpmi	fp, r9, lsr #32
 584:	612f4d52 			; <UNDEFINED> instruction: 0x612f4d52
 588:	392d6d72 	pushcc	{r1, r4, r5, r6, r8, sl, fp, sp, lr}
 58c:	6172622d 	cmnvs	r2, sp, lsr #4
 590:	2068636e 	rsbcs	r6, r8, lr, ror #6
 594:	69766572 	ldmdbvs	r6!, {r1, r4, r5, r6, r8, sl, sp, lr}^
 598:	6e6f6973 			; <UNDEFINED> instruction: 0x6e6f6973
 59c:	37373220 	ldrcc	r3, [r7, -r0, lsr #4]!
 5a0:	5d393935 			; <UNDEFINED> instruction: 0x5d393935
 5a4:	636d2d20 	cmnvs	sp, #32, 26	; 0x800
 5a8:	613d7570 	teqvs	sp, r0, ror r5
 5ac:	31316d72 	teqcc	r1, r2, ror sp
 5b0:	7a6a3637 	bvc	1a8de94 <__bss_end__+0x1a82b3c>
 5b4:	20732d66 	rsbscs	r2, r3, r6, ror #26
 5b8:	75746d2d 	ldrbvc	r6, [r4, #-3373]!	; 0xfffff2d3
 5bc:	613d656e 	teqvs	sp, lr, ror #10
 5c0:	31316d72 	teqcc	r1, r2, ror sp
 5c4:	7a6a3637 	bvc	1a8dea8 <__bss_end__+0x1a82b50>
 5c8:	20732d66 	rsbscs	r2, r3, r6, ror #26
 5cc:	6c666d2d 	stclvs	13, cr6, [r6], #-180	; 0xffffff4c
 5d0:	2d74616f 	ldfcse	f6, [r4, #-444]!	; 0xfffffe44
 5d4:	3d696261 	sfmcc	f6, 2, [r9, #-388]!	; 0xfffffe7c
 5d8:	74666f73 	strbtvc	r6, [r6], #-3955	; 0xfffff08d
 5dc:	616d2d20 	cmnvs	sp, r0, lsr #26
 5e0:	2d206d72 	stccs	13, cr6, [r0, #-456]!	; 0xfffffe38
 5e4:	6372616d 	cmnvs	r2, #1073741851	; 0x4000001b
 5e8:	72613d68 	rsbvc	r3, r1, #104, 26	; 0x1a00
 5ec:	6b36766d 	blvs	d9dfa8 <__bss_end__+0xd92c50>
 5f0:	672d207a 			; <UNDEFINED> instruction: 0x672d207a
 5f4:	20626467 	rsbcs	r6, r2, r7, ror #8
 5f8:	61664f2d 	cmnvs	r6, sp, lsr #30
 5fc:	2d207473 	cfstrscs	mvf7, [r0, #-460]!	; 0xfffffe34
 600:	3d647473 	cfstrdcc	mvd7, [r4, #-460]!	; 0xfffffe34
 604:	39756e67 	ldmdbcc	r5!, {r0, r1, r2, r5, r6, r9, sl, fp, sp, lr}^
 608:	662d2039 			; <UNDEFINED> instruction: 0x662d2039
 60c:	65657266 	strbvs	r7, [r5, #-614]!	; 0xfffffd9a
 610:	6e617473 	mcrvs	4, 3, r7, cr1, cr3, {3}
 614:	676e6964 	strbvs	r6, [lr, -r4, ror #18]!
 618:	5f6e6600 	svcpl	0x006e6600
 61c:	72617473 	rsbvc	r7, r1, #1929379840	; 0x73000000
 620:	64615f74 	strbtvs	r5, [r1], #-3956	; 0xfffff08c
 624:	2f007264 	svccs	0x00007264
 628:	72657355 	rsbvc	r7, r5, #1409286145	; 0x54000001
 62c:	696d2f73 	stmdbvs	sp!, {r0, r1, r4, r5, r6, r8, r9, sl, fp, sp}^
 630:	2f73656c 	svccs	0x0073656c
 634:	72756f53 	rsbsvc	r6, r5, #332	; 0x14c
 638:	632f6563 			; <UNDEFINED> instruction: 0x632f6563
 63c:	30343273 	eorscc	r3, r4, r3, ror r2
 640:	6c2f786c 	stcvs	8, cr7, [pc], #-432	; 498 <__code_start__-0x7b68>
 644:	69706269 	ldmdbvs	r0!, {r0, r3, r5, r6, r9, sp, lr}^
 648:	732f2e00 			; <UNDEFINED> instruction: 0x732f2e00
 64c:	622f6372 	eorvs	r6, pc, #-939524095	; 0xc8000001
 650:	746b6361 	strbtvc	r6, [fp], #-865	; 0xfffffc9f
 654:	65636172 	strbvs	r6, [r3, #-370]!	; 0xfffffe8e
 658:	6300632e 	movwvs	r6, #814	; 0x32e
 65c:	665f7275 			; <UNDEFINED> instruction: 0x665f7275
 660:	616e0070 	smcvs	57344	; 0xe000
 664:	6f5f656d 	svcvs	0x005f656d
 668:	69730066 	ldmdbvs	r3!, {r1, r2, r5, r6}^
 66c:	745f657a 	ldrbvc	r6, [pc], #-1402	; 674 <__code_start__-0x798c>
 670:	6c2f2e00 	stcvs	14, cr2, [pc], #-0	; 678 <__code_start__-0x7988>
 674:	2f636269 	svccs	0x00636269
 678:	736d656d 	cmnvc	sp, #457179136	; 0x1b400000
 67c:	632e7465 			; <UNDEFINED> instruction: 0x632e7465
 680:	67726100 	ldrbvs	r6, [r2, -r0, lsl #2]!
 684:	61760073 	cmnvs	r6, r3, ror r0
 688:	6972705f 	ldmdbvs	r2!, {r0, r1, r2, r3, r4, r6, ip, sp, lr}^
 68c:	006b746e 	rsbeq	r7, fp, lr, ror #8
 690:	6e675f5f 	mcrvs	15, 3, r5, cr7, cr15, {2}
 694:	765f6375 			; <UNDEFINED> instruction: 0x765f6375
 698:	696c5f61 	stmdbvs	ip!, {r0, r5, r6, r8, r9, sl, fp, ip, lr}^
 69c:	5f007473 	svcpl	0x00007473
 6a0:	0070615f 	rsbseq	r6, r0, pc, asr r1
 6a4:	696c2f2e 	stmdbvs	ip!, {r1, r2, r3, r5, r8, r9, sl, fp, sp}^
 6a8:	702f6362 	eorvc	r6, pc, r2, ror #6
 6ac:	746e6972 	strbtvc	r6, [lr], #-2418	; 0xfffff68e
 6b0:	00632e6b 	rsbeq	r2, r3, fp, ror #28
 6b4:	61765f5f 	cmnvs	r6, pc, asr pc
 6b8:	73696c5f 	cmnvc	r9, #24320	; 0x5f00
 6bc:	6e690074 	mcrvs	0, 3, r0, cr9, cr4, {3}
 6c0:	6e726574 	mrcvs	5, 3, r6, cr2, cr4, {3}
 6c4:	705f6c61 	subsvc	r6, pc, r1, ror #24
 6c8:	006b7475 	rsbeq	r7, fp, r5, ror r4
 6cc:	696c2f2e 	stmdbvs	ip!, {r1, r2, r3, r5, r8, r9, sl, fp, sp}^
 6d0:	702f6362 	eorvc	r6, pc, r2, ror #6
 6d4:	2e6b7475 	mcrcs	4, 3, r7, cr11, cr5, {3}
 6d8:	73690063 	cmnvc	r9, #99, 0	; 0x63
 6dc:	69676964 	stmdbvs	r7!, {r2, r5, r6, r8, fp, sp, lr}^
 6e0:	69750074 	ldmdbvs	r5!, {r2, r4, r5, r6}^
 6e4:	3436746e 	ldrtcc	r7, [r6], #-1134	; 0xfffffb92
 6e8:	2e00745f 	cfmvsrcs	mvf0, r7
 6ec:	62696c2f 	rsbvs	r6, r9, #12032	; 0x2f00
 6f0:	61762f63 	cmnvs	r6, r3, ror #30
 6f4:	6972702d 	ldmdbvs	r2!, {r0, r2, r3, r5, ip, sp, lr}^
 6f8:	2e6b746e 	cdpcs	4, 6, cr7, cr11, cr14, {3}
 6fc:	5f5f0063 	svcpl	0x005f0063
 700:	65646f63 	strbvs	r6, [r4, #-3939]!	; 0xfffff09d
 704:	6174735f 	cmnvs	r4, pc, asr r3
 708:	5f5f7472 	svcpl	0x005f7472
 70c:	64697700 	strbtvs	r7, [r9], #-1792	; 0xfffff900
 710:	70006874 	andvc	r6, r0, r4, ror r8
 714:	5f637475 	svcpl	0x00637475
 718:	72007066 	andvc	r7, r0, #102, 0	; 0x66
 71c:	735f6970 	cmpvc	pc, #112, 18	; 0x1c0000
 720:	6f5f7465 	svcvs	0x005f7465
 724:	75707475 	ldrbvc	r7, [r0, #-1141]!	; 0xfffffb8b
 728:	6d660074 	stclvs	0, cr0, [r6, #-464]!	; 0xfffffe30
 72c:	74735f74 	ldrbtvc	r5, [r3], #-3956	; 0xfffff08c
 730:	00747261 	rsbseq	r7, r4, r1, ror #4
 734:	63727473 	cmnvs	r2, #1929379840	; 0x73000000
 738:	73007461 	movwvc	r7, #1121	; 0x461
 73c:	70637274 	rsbvc	r7, r3, r4, ror r2
 740:	656e0079 	strbvs	r0, [lr, #-121]!	; 0xffffff87
 744:	00705f67 	rsbseq	r5, r0, r7, ror #30
 748:	6f635f5f 	svcvs	0x00635f5f
 74c:	655f6564 	ldrbvs	r6, [pc, #-1380]	; 1f0 <__code_start__-0x7e10>
 750:	5f5f646e 	svcpl	0x005f646e
 754:	696d6500 	stmdbvs	sp!, {r8, sl, sp, lr}^
 758:	65720074 	ldrbvs	r0, [r2, #-116]!	; 0xffffff8c
 75c:	73726576 	cmnvc	r2, #494927872	; 0x1d800000
 760:	74730065 	ldrbtvc	r0, [r3], #-101	; 0xffffff9b
 764:	706d6372 	rsbvc	r6, sp, r2, ror r3
 768:	74757000 	ldrbtvc	r7, [r5], #-0
 76c:	70665f73 	rsbvc	r5, r6, r3, ror pc
 770:	705f5f00 	subsvc	r5, pc, r0, lsl #30
 774:	5f676f72 	svcpl	0x00676f72
 778:	5f646e65 	svcpl	0x00646e65
 77c:	756e005f 	strbvc	r0, [lr, #-95]!	; 0xffffffa1
 780:	7300316d 	movwvc	r3, #365	; 0x16d
 784:	636e7274 	cmnvs	lr, #116, 4	; 0x40000007
 788:	7300706d 	movwvc	r7, #109	; 0x6d
 78c:	656e6769 	strbvs	r6, [lr, #-1897]!	; 0xfffff897
 790:	00705f64 	rsbseq	r5, r0, r4, ror #30
 794:	5f697072 	svcpl	0x00697072
 798:	6f626572 	svcvs	0x00626572
 79c:	6400746f 	strvs	r7, [r0], #-1135	; 0xfffffb91
 7a0:	79616c65 	stmdbvc	r1!, {r0, r2, r5, r6, sl, fp, sp, lr}^
 7a4:	00736d5f 	rsbseq	r6, r3, pc, asr sp
 7a8:	74732f2e 	ldrbtvc	r2, [r3], #-3886	; 0xfffff0d2
 7ac:	2d666661 	stclcs	6, cr6, [r6, #-388]!	; 0xfffffe7c
 7b0:	2f637273 	svccs	0x00637273
 7b4:	61656c63 	cmnvs	r5, r3, ror #24
 7b8:	65722d6e 	ldrbvs	r2, [r2, #-3438]!	; 0xfffff292
 7bc:	746f6f62 	strbtvc	r6, [pc], #-3938	; 7c4 <__code_start__-0x783c>
 7c0:	7500632e 	strvc	r6, [r0, #-814]	; 0xfffffcd2
 7c4:	5f747261 	svcpl	0x00747261
 7c8:	73756c66 	cmnvc	r5, #26112	; 0x6600
 7cc:	78745f68 	ldmdavc	r4!, {r3, r5, r6, r8, r9, sl, fp, ip, lr}^
 7d0:	73635f00 	cmnvc	r3, #0, 30
 7d4:	74726174 	ldrbtvc	r6, [r2], #-372	; 0xfffffe8c
 7d8:	73736200 	cmnvc	r3, #0, 4
 7dc:	646e655f 	strbtvs	r6, [lr], #-1375	; 0xfffffaa1
 7e0:	72617500 	rsbvc	r7, r1, #0, 10
 7e4:	6e695f74 	mcrvs	15, 3, r5, cr9, cr4, {3}
 7e8:	63007469 	movwvs	r7, #1129	; 0x469
 7ec:	6f747375 	svcvs	0x00747375
 7f0:	6f6c5f6d 	svcvs	0x006c5f6d
 7f4:	72656461 	rsbvc	r6, r5, #1627389952	; 0x61000000
 7f8:	732f2e00 			; <UNDEFINED> instruction: 0x732f2e00
 7fc:	66666174 			; <UNDEFINED> instruction: 0x66666174
 800:	6372732d 	cmnvs	r2, #-1275068416	; 0xb4000000
 804:	7473632f 	ldrbtvc	r6, [r3], #-815	; 0xfffffcd1
 808:	2e747261 	cdpcs	2, 7, cr7, cr4, cr1, {3}
 80c:	6f5f0063 	svcvs	0x005f0063
 810:	63007475 	movwvs	r7, #1141	; 0x475
 814:	656c6379 	strbvs	r6, [ip, #-889]!	; 0xfffffc87
 818:	6669645f 			; <UNDEFINED> instruction: 0x6669645f
 81c:	616c0066 	cmnvs	ip, r6, rrx
 820:	2e007473 	mcrcs	4, 0, r7, cr0, cr3, {3}
 824:	6174732f 	cmnvs	r4, pc, lsr #6
 828:	732d6666 			; <UNDEFINED> instruction: 0x732d6666
 82c:	632f6372 			; <UNDEFINED> instruction: 0x632f6372
 830:	6f747375 	svcvs	0x00747375
 834:	6f6c2d6d 	svcvs	0x006c2d6d
 838:	72656461 	rsbvc	r6, r5, #1627389952	; 0x61000000
 83c:	7200632e 	andvc	r6, r0, #-1207959552	; 0xb8000000
 840:	6f6f6265 	svcvs	0x006f6265
 844:	61635f74 	smcvs	13812	; 0x35f4
 848:	756f6c6c 	strbvc	r6, [pc, #-3180]!	; fffffbe4 <__bss_end__+0xffff488c>
 84c:	4d500074 	ldclmi	0, cr0, [r0, #-464]	; 0xfffffe30
 850:	4f44575f 	svcmi	0x0044575f
 854:	55500047 	ldrbpl	r0, [r0, #-71]	; 0xffffffb9
 858:	00323354 	eorseq	r3, r2, r4, asr r3
 85c:	5f746573 	svcpl	0x00746573
 860:	72657375 	rsbvc	r7, r5, #-738197503	; 0xd4000001
 864:	76656c5f 			; <UNDEFINED> instruction: 0x76656c5f
 868:	2e006c65 	cdpcs	12, 0, cr6, cr0, cr5, {3}
 86c:	6174732f 	cmnvs	r4, pc, lsr #6
 870:	732d6666 			; <UNDEFINED> instruction: 0x732d6666
 874:	722f6372 	eorvc	r6, pc, #-939524095	; 0xc8000001
 878:	6f6f6265 	svcvs	0x006f6265
 87c:	00632e74 	rsbeq	r2, r3, r4, ror lr
 880:	505f4d50 	subspl	r4, pc, r0, asr sp	; <UNPREDICTABLE>
 884:	57535341 	ldrbpl	r5, [r3, -r1, asr #6]
 888:	0044524f 	subeq	r5, r4, pc, asr #4
 88c:	755f7461 	ldrbvc	r7, [pc, #-1121]	; 433 <__code_start__-0x7bcd>
 890:	5f726573 	svcpl	0x00726573
 894:	6576656c 	ldrbvs	r6, [r6, #-1388]!	; 0xfffffa94
 898:	4d50006c 	ldclmi	0, cr0, [r0, #-432]	; 0xfffffe50
 89c:	5453525f 	ldrbpl	r5, [r3], #-607	; 0xfffffda1
 8a0:	52575f43 	subspl	r5, r7, #268	; 0x10c
 8a4:	5f474643 	svcpl	0x00474643
 8a8:	4c4c5546 	cfstr64mi	mvdx5, [ip], {70}	; 0x46
 8ac:	5345525f 	movtpl	r5, #21087	; 0x525f
 8b0:	50005445 	andpl	r5, r0, r5, asr #8
 8b4:	53525f4d 	cmppl	r2, #308	; 0x134
 8b8:	63004354 	movwvs	r4, #852	; 0x354
 8bc:	00727370 	rsbseq	r7, r2, r0, ror r3
 8c0:	5f766564 	svcpl	0x00766564
 8c4:	72726162 	rsbsvc	r6, r2, #-2147483624	; 0x80000018
 8c8:	00726569 	rsbseq	r6, r2, r9, ror #10
 8cc:	616c6564 	cmnvs	ip, r4, ror #10
 8d0:	65735f79 	ldrbvs	r5, [r3, #-3961]!	; 0xfffff087
 8d4:	2f2e0063 	svccs	0x002e0063
 8d8:	66617473 			; <UNDEFINED> instruction: 0x66617473
 8dc:	72732d66 	rsbsvc	r2, r3, #6528	; 0x1980
 8e0:	69742f63 	ldmdbvs	r4!, {r0, r1, r5, r6, r8, r9, sl, fp, sp}^
 8e4:	2e72656d 	cdpcs	5, 7, cr6, cr2, cr13, {3}
 8e8:	45470063 	strbmi	r0, [r7, #-99]	; 0xffffff9d
 8ec:	00323354 	eorseq	r3, r2, r4, asr r3
 8f0:	656d6974 	strbvs	r6, [sp, #-2420]!	; 0xfffff68c
 8f4:	65675f72 	strbvs	r5, [r7, #-3954]!	; 0xfffff08e
 8f8:	73755f74 	cmnvc	r5, #116, 30	; 0x1d0
 8fc:	64006365 	strvs	r6, [r0], #-869	; 0xfffffc9b
 900:	79616c65 	stmdbvc	r1!, {r0, r2, r5, r6, sl, fp, sp, lr}^
 904:	0073755f 	rsbseq	r7, r3, pc, asr r5
 908:	656d6974 	strbvs	r6, [sp, #-2420]!	; 0xfffff68c
 90c:	65675f72 	strbvs	r5, [r7, #-3954]!	; 0xfffff08e
 910:	73755f74 	cmnvc	r5, #116, 30	; 0x1d0
 914:	725f6365 	subsvc	r6, pc, #-1811939327	; 0x94000001
 918:	70007761 	andvc	r7, r0, r1, ror #14
 91c:	32337475 	eorscc	r7, r3, #1962934272	; 0x75000000
 920:	75616200 	strbvc	r6, [r1, #-512]!	; 0xfffffe00
 924:	61765f64 	cmnvs	r6, r4, ror #30
 928:	7473006c 	ldrbtvc	r0, [r3], #-108	; 0xffffff94
 92c:	75007461 	strvc	r7, [r0, #-1121]	; 0xfffffb9f
 930:	5f747261 	svcpl	0x00747261
 934:	5f6e6163 	svcpl	0x006e6163
 938:	63746567 	cmnvs	r4, #432013312	; 0x19c00000
 93c:	49504700 	ldmdbmi	r0, {r8, r9, sl, lr}^
 940:	55465f4f 	strbpl	r5, [r6, #-3919]	; 0xfffff0b1
 944:	4f5f434e 	svcmi	0x005f434e
 948:	55505455 	ldrbpl	r5, [r0, #-1109]	; 0xfffffbab
 94c:	75610054 	strbvc	r0, [r1, #-84]!	; 0xffffffac
 950:	65705f78 	ldrbvs	r5, [r0, #-3960]!	; 0xfffff088
 954:	68706972 	ldmdavs	r0!, {r1, r4, r5, r6, r8, fp, sp, lr}^
 958:	61750073 	cmnvs	r5, r3, ror r0
 95c:	632e7472 			; <UNDEFINED> instruction: 0x632e7472
 960:	72617500 	rsbvc	r7, r1, #0, 10
 964:	61635f74 	smcvs	13812	; 0x35f4
 968:	75705f6e 	ldrbvc	r5, [r0, #-3950]!	; 0xfffff092
 96c:	75006374 	strvc	r6, [r0, #-884]	; 0xfffffc8c
 970:	5f747261 	svcpl	0x00747261
 974:	695f7874 	ldmdbvs	pc, {r2, r4, r5, r6, fp, ip, sp, lr}^	; <UNPREDICTABLE>
 978:	6d655f73 	stclvs	15, cr5, [r5, #-460]!	; 0xfffffe34
 97c:	00797470 	rsbseq	r7, r9, r0, ror r4
 980:	4f495047 	svcmi	0x00495047
 984:	4e55465f 	mrcmi	6, 2, r4, cr5, cr15, {2}
 988:	4c415f43 	mcrrmi	15, 4, r5, r1, cr3
 98c:	47003054 	smlsdmi	r0, r4, r0, r3
 990:	5f4f4950 	svcpl	0x004f4950
 994:	434e5546 	movtmi	r5, #58694	; 0xe546
 998:	544c415f 	strbpl	r4, [ip], #-351	; 0xfffffea1
 99c:	50470031 	subpl	r0, r7, r1, lsr r0
 9a0:	465f4f49 	ldrbmi	r4, [pc], -r9, asr #30
 9a4:	5f434e55 	svcpl	0x00434e55
 9a8:	32544c41 	subscc	r4, r4, #16640	; 0x4100
 9ac:	49504700 	ldmdbmi	r0, {r8, r9, sl, lr}^
 9b0:	55465f4f 	strbpl	r5, [r6, #-3919]	; 0xfffff0b1
 9b4:	415f434e 	cmpmi	pc, lr, asr #6
 9b8:	0033544c 	eorseq	r5, r3, ip, asr #8
 9bc:	4f495047 	svcmi	0x00495047
 9c0:	4e55465f 	mrcmi	6, 2, r4, cr5, cr15, {2}
 9c4:	4c415f43 	mcrrmi	15, 4, r5, r1, cr3
 9c8:	2f003554 	svccs	0x00003554
 9cc:	656d6f68 	strbvs	r6, [sp, #-3944]!	; 0xfffff098
 9d0:	676e652f 	strbvs	r6, [lr, -pc, lsr #10]!
 9d4:	2f72656c 	svccs	0x0072656c
 9d8:	73616c63 	cmnvc	r1, #25344	; 0x6300
 9dc:	73632f73 	cmnvc	r3, #460	; 0x1cc
 9e0:	6c303432 	cfldrsvs	mvf3, [r0], #-200	; 0xffffff38
 9e4:	32322d78 	eorscc	r2, r2, #120, 26	; 0x1e00
 9e8:	2f727073 	svccs	0x00727073
 9ec:	7062696c 	rsbvc	r6, r2, ip, ror #18
 9f0:	74732f69 	ldrbtvc	r2, [r3], #-3945	; 0xfffff097
 9f4:	2d666661 	stclcs	6, cr6, [r6, #-388]!	; 0xfffffe7c
 9f8:	76697270 			; <UNDEFINED> instruction: 0x76697270
 9fc:	00657461 	rsbeq	r7, r5, r1, ror #8
 a00:	64756162 	ldrbtvs	r6, [r5], #-354	; 0xfffffe9e
 a04:	78756100 	ldmdavc	r5!, {r8, sp, lr}^
 a08:	616e655f 	cmnvs	lr, pc, asr r5
 a0c:	73656c62 	cmnvc	r5, #25088	; 0x6200
 a10:	72617500 	rsbvc	r7, r1, #0, 10
 a14:	65675f74 	strbvs	r5, [r7, #-3956]!	; 0xfffff08c
 a18:	47006374 	smlsdxmi	r0, r4, r3, r6
 a1c:	4320554e 			; <UNDEFINED> instruction: 0x4320554e
 a20:	31203939 			; <UNDEFINED> instruction: 0x31203939
 a24:	2e332e30 	mrccs	14, 1, r2, cr3, cr0, {1}
 a28:	30322031 	eorscc	r2, r2, r1, lsr r0
 a2c:	38303132 	ldmdacc	r0!, {r1, r4, r5, r8, ip, sp}
 a30:	28203432 	stmdacs	r0!, {r1, r4, r5, sl, ip, sp}
 a34:	656c6572 	strbvs	r6, [ip, #-1394]!	; 0xfffffa8e
 a38:	29657361 	stmdbcs	r5!, {r0, r5, r6, r8, r9, ip, sp, lr}^
 a3c:	636d2d20 	cmnvs	sp, #32, 26	; 0x800
 a40:	613d7570 	teqvs	sp, r0, ror r5
 a44:	31316d72 	teqcc	r1, r2, ror sp
 a48:	7a6a3637 	bvc	1a8e32c <__bss_end__+0x1a82fd4>
 a4c:	20732d66 	rsbscs	r2, r3, r6, ror #26
 a50:	75746d2d 	ldrbvc	r6, [r4, #-3373]!	; 0xfffff2d3
 a54:	613d656e 	teqvs	sp, lr, ror #10
 a58:	31316d72 	teqcc	r1, r2, ror sp
 a5c:	7a6a3637 	bvc	1a8e340 <__bss_end__+0x1a82fe8>
 a60:	20732d66 	rsbscs	r2, r3, r6, ror #26
 a64:	6c666d2d 	stclvs	13, cr6, [r6], #-180	; 0xffffff4c
 a68:	2d74616f 	ldfcse	f6, [r4, #-444]!	; 0xfffffe44
 a6c:	3d696261 	sfmcc	f6, 2, [r9, #-388]!	; 0xfffffe7c
 a70:	74666f73 	strbtvc	r6, [r6], #-3955	; 0xfffff08d
 a74:	616d2d20 	cmnvs	sp, r0, lsr #26
 a78:	2d206d72 	stccs	13, cr6, [r0, #-456]!	; 0xfffffe38
 a7c:	6372616d 	cmnvs	r2, #1073741851	; 0x4000001b
 a80:	72613d68 	rsbvc	r3, r1, #104, 26	; 0x1a00
 a84:	6b36766d 	blvs	d9e440 <__bss_end__+0xd930e8>
 a88:	672d207a 			; <UNDEFINED> instruction: 0x672d207a
 a8c:	20626467 	rsbcs	r6, r2, r7, ror #8
 a90:	20674f2d 	rsbcs	r4, r7, sp, lsr #30
 a94:	6474732d 	ldrbtvs	r7, [r4], #-813	; 0xfffffcd3
 a98:	756e673d 	strbvc	r6, [lr, #-1853]!	; 0xfffff8c3
 a9c:	2d203939 			; <UNDEFINED> instruction: 0x2d203939
 aa0:	65726666 	ldrbvs	r6, [r2, #-1638]!	; 0xfffff99a
 aa4:	61747365 	cmnvs	r4, r5, ror #6
 aa8:	6e69646e 	cdpvs	4, 6, cr6, cr9, cr14, {3}
 aac:	6e630067 	cdpvs	0, 6, cr0, cr3, cr7, {3}
 ab0:	75006c74 	strvc	r6, [r0, #-3188]	; 0xfffff38c
 ab4:	5f747261 	svcpl	0x00747261
 ab8:	61736964 	cmnvs	r3, r4, ror #18
 abc:	00656c62 	rsbeq	r6, r5, r2, ror #24
 ac0:	74726175 	ldrbtvc	r6, [r2], #-373	; 0xfffffe8b
 ac4:	7361685f 	cmnvc	r1, #6225920	; 0x5f0000
 ac8:	7461645f 	strbtvc	r6, [r1], #-1119	; 0xfffffba1
 acc:	50470061 	subpl	r0, r7, r1, rrx
 ad0:	465f4f49 	ldrbmi	r4, [pc], -r9, asr #30
 ad4:	5f434e55 	svcpl	0x00434e55
 ad8:	34544c41 	ldrbcc	r4, [r4], #-3137	; 0xfffff3bf
 adc:	5f726f00 	svcpl	0x00726f00
 ae0:	32336e69 	eorscc	r6, r3, #1680	; 0x690
 ae4:	72637300 	rsbvc	r7, r3, #0, 6
 ae8:	68637461 	stmdavs	r3!, {r0, r5, r6, sl, ip, sp, lr}^
 aec:	72617500 	rsbvc	r7, r1, #0, 10
 af0:	6e610074 	mcrvs	0, 3, r0, cr1, cr4, {3}
 af4:	6e695f64 	cdpvs	15, 6, cr5, cr9, cr4, {3}
 af8:	75003233 	strvc	r3, [r0, #-563]	; 0xfffffdcd
 afc:	5f747261 	svcpl	0x00747261
 b00:	63747570 	cmnvs	r4, #112, 10	; 0x1c000000
 b04:	49504700 	ldmdbmi	r0, {r8, r9, sl, lr}^
 b08:	55465f4f 	strbpl	r5, [r6, #-3919]	; 0xfffff0b1
 b0c:	495f434e 	ldmdbmi	pc, {r1, r2, r3, r6, r8, r9, lr}^	; <UNPREDICTABLE>
 b10:	5455504e 	ldrbpl	r5, [r5], #-78	; 0xffffffb2
 b14:	69706700 	ldmdbvs	r0!, {r8, r9, sl, sp, lr}^
 b18:	65735f6f 	ldrbvs	r5, [r3, #-3951]!	; 0xfffff091
 b1c:	75665f74 	strbvc	r5, [r6, #-3956]!	; 0xfffff08c
 b20:	6974636e 	ldmdbvs	r4!, {r1, r2, r3, r5, r6, r8, r9, sp, lr}^
 b24:	67006e6f 	strvs	r6, [r0, -pc, ror #28]
 b28:	32337465 	eorscc	r7, r3, #1694498816	; 0x65000000
 b2c:	616d6b00 	cmnvs	sp, r0, lsl #22
 b30:	636f6c6c 	cmnvs	pc, #108, 24	; 0x6c00
 b34:	6165685f 	cmnvs	r5, pc, asr r8
 b38:	74735f70 	ldrbtvc	r5, [r3], #-3952	; 0xfffff090
 b3c:	00747261 	rsbseq	r7, r4, r1, ror #4
 b40:	5f78616d 	svcpl	0x0078616d
 b44:	7479626e 	ldrbtvc	r6, [r9], #-622	; 0xfffffd92
 b48:	68007365 	stmdavs	r0, {r0, r2, r5, r6, r8, r9, ip, sp, lr}
 b4c:	5f706165 	svcpl	0x00706165
 b50:	0078616d 	rsbseq	r6, r8, sp, ror #2
 b54:	6572666b 	ldrbvs	r6, [r2, #-1643]!	; 0xfffff995
 b58:	6c615f65 	stclvs	15, cr5, [r1], #-404	; 0xfffffe6c
 b5c:	6f72006c 	svcvs	0x0072006c
 b60:	75646e75 	strbvc	r6, [r4, #-3701]!	; 0xfffff18b
 b64:	666b0070 			; <UNDEFINED> instruction: 0x666b0070
 b68:	5f656572 	svcpl	0x00656572
 b6c:	00706f70 	rsbseq	r6, r0, r0, ror pc
 b70:	67696c61 	strbvs	r6, [r9, -r1, ror #24]!
 b74:	6e656d6e 	cdpvs	13, 6, cr6, cr5, cr14, {3}
 b78:	616d0074 	smcvs	53252	; 0xd004
 b7c:	33755f78 	cmncc	r5, #120, 30	; 0x1e0
 b80:	6e4f0032 	mcrvs	0, 2, r0, cr15, cr2, {1}
 b84:	00424d65 	subeq	r4, r2, r5, ror #26
 b88:	6c616d6b 	stclvs	13, cr6, [r1], #-428	; 0xfffffe54
 b8c:	5f636f6c 	svcpl	0x00636f6c
 b90:	70616568 	rsbvc	r6, r1, r8, ror #10
 b94:	646e655f 	strbtvs	r6, [lr], #-1375	; 0xfffffaa1
 b98:	616d6b00 	cmnvs	sp, r0, lsl #22
 b9c:	636f6c6c 	cmnvs	pc, #108, 24	; 0x6c00
 ba0:	746f6e5f 	strbtvc	r6, [pc], #-3679	; ba8 <__code_start__-0x7458>
 ba4:	6f72657a 	svcvs	0x0072657a
 ba8:	5f736900 	svcpl	0x00736900
 bac:	32776f70 	rsbscc	r6, r7, #112, 30	; 0x1c0
 bb0:	616d6b00 	cmnvs	sp, r0, lsl #22
 bb4:	636f6c6c 	cmnvs	pc, #108, 24	; 0x6c00
 bb8:	6b00632e 	blvs	19878 <__bss_end__+0xe520>
 bbc:	6c6c616d 	stfvse	f6, [ip], #-436	; 0xfffffe4c
 bc0:	695f636f 	ldmdbvs	pc, {r0, r1, r2, r3, r5, r6, r8, r9, sp, lr}^	; <UNPREDICTABLE>
 bc4:	0074696e 	rsbseq	r6, r4, lr, ror #18
 bc8:	615f7369 	cmpvs	pc, r9, ror #6
 bcc:	6e67696c 	vnmulvs.f16	s13, s14, s25	; <UNPREDICTABLE>
 bd0:	6b006465 	blvs	19d6c <__bss_end__+0xea14>
 bd4:	6c6c616d 	stfvse	f6, [ip], #-436	; 0xfffffe4c
 bd8:	685f636f 	ldmdavs	pc, {r0, r1, r2, r3, r5, r6, r8, r9, sp, lr}^	; <UNPREDICTABLE>
 bdc:	5f706165 	svcpl	0x00706165
 be0:	00727470 	rsbseq	r7, r2, r0, ror r4
 be4:	5f697072 	svcpl	0x00697072
 be8:	65736572 	ldrbvs	r6, [r3, #-1394]!	; 0xfffffa8e
 bec:	75705f74 	ldrbvc	r5, [r0, #-3956]!	; 0xfffff08c
 bf0:	6b006374 	blvs	199c8 <__bss_end__+0xe670>
 bf4:	6c6c616d 	stfvse	f6, [ip], #-436	; 0xfffffe4c
 bf8:	615f636f 	cmpvs	pc, pc, ror #6
 bfc:	6e67696c 	vnmulvs.f16	s13, s14, s25	; <UNPREDICTABLE>
 c00:	67006465 	strvs	r6, [r0, -r5, ror #8]
 c04:	5f6f6970 	svcpl	0x006f6970
 c08:	30726c63 	rsbscc	r6, r2, r3, ror #24
 c0c:	69706700 	ldmdbvs	r0!, {r8, r9, sl, sp, lr}^
 c10:	65735f6f 	ldrbvs	r5, [r3, #-3951]!	; 0xfffff091
 c14:	67003074 	smlsdxvs	r0, r4, r0, r3
 c18:	5f6f6970 	svcpl	0x006f6970
 c1c:	74697277 	strbtvc	r7, [r9], #-631	; 0xfffffd89
 c20:	45440065 	strbmi	r0, [r4, #-101]	; 0xffffff9b
 c24:	41565f56 	cmpmi	r6, r6, asr pc
 c28:	0032334c 	eorseq	r3, r2, ip, asr #6
 c2c:	6f697067 	svcvs	0x00697067
 c30:	6165725f 	cmnvs	r5, pc, asr r2
 c34:	2f2e0064 	svccs	0x002e0064
 c38:	2f637273 	svccs	0x00637273
 c3c:	6f697067 	svcvs	0x00697067
 c40:	6700632e 	strvs	r6, [r0, -lr, lsr #6]
 c44:	5f6f6970 	svcpl	0x006f6970
 c48:	5f746573 	svcpl	0x00746573
 c4c:	75706e69 	ldrbvc	r6, [r0, #-3689]!	; 0xfffff197
 c50:	70670074 	rsbvc	r0, r7, r4, ror r0
 c54:	735f6f69 	cmpvc	pc, #420	; 0x1a4
 c58:	6f5f7465 	svcvs	0x005f7465
 c5c:	67006666 	strvs	r6, [r0, -r6, ror #12]
 c60:	5f6f6970 	svcpl	0x006f6970
 c64:	5f746573 	svcpl	0x00746573
 c68:	7074756f 	rsbsvc	r7, r4, pc, ror #10
 c6c:	67007475 	smlsdxvs	r0, r5, r4, r7
 c70:	5f6f6970 	svcpl	0x006f6970
 c74:	636e7566 	cmnvs	lr, #427819008	; 0x19800000
 c78:	6700745f 	smlsdvs	r0, pc, r4, r7	; <UNPREDICTABLE>
 c7c:	5f6f6970 	svcpl	0x006f6970
 c80:	3076656c 	rsbscc	r6, r6, ip, ror #10
 c84:	6e616200 	cdpvs	2, 6, cr6, cr1, cr0, {0}
 c88:	7067006b 	rsbvc	r0, r7, fp, rrx
 c8c:	735f6f69 	cmpvc	pc, #420	; 0x1a4
 c90:	6f5f7465 	svcvs	0x005f7465
 c94:	6e69006e 	cdpvs	0, 6, cr0, cr9, cr14, {3}
 c98:	6e726574 	mrcvs	5, 3, r6, cr2, cr4, {3}
 c9c:	705f6c61 	subsvc	r6, pc, r1, ror #24
 ca0:	68637475 	stmdavs	r3!, {r0, r2, r4, r5, r6, sl, ip, sp, lr}^
 ca4:	72007261 	andvc	r7, r0, #268435462	; 0x10000006
 ca8:	735f6970 	cmpvc	pc, #112, 18	; 0x1c0000
 cac:	705f7465 	subsvc	r7, pc, r5, ror #8
 cb0:	00637475 	rsbeq	r7, r3, r5, ror r4
 cb4:	696c2f2e 	stmdbvs	ip!, {r1, r2, r3, r5, r8, r9, sl, fp, sp}^
 cb8:	702f6362 	eorvc	r6, pc, r2, ror #6
 cbc:	68637475 	stmdavs	r3!, {r0, r2, r4, r5, r6, sl, ip, sp, lr}^
 cc0:	632e7261 			; <UNDEFINED> instruction: 0x632e7261
 cc4:	6c2f2e00 	stcvs	14, cr2, [pc], #-0	; ccc <__code_start__-0x7334>
 cc8:	2f636269 	svccs	0x00636269
 ccc:	63727473 	cmnvs	r2, #1929379840	; 0x73000000
 cd0:	632e7461 			; <UNDEFINED> instruction: 0x632e7461
 cd4:	73656400 	cmnvc	r5, #0, 8
 cd8:	2f2e0074 	svccs	0x002e0074
 cdc:	6362696c 	cmnvs	r2, #108, 18	; 0x1b0000
 ce0:	7274732f 	rsbsvc	r7, r4, #-1140850688	; 0xbc000000
 ce4:	2e706d63 	cdpcs	13, 7, cr6, cr0, cr3, {3}
 ce8:	2f2e0063 	svccs	0x002e0063
 cec:	6362696c 	cmnvs	r2, #108, 18	; 0x1b0000
 cf0:	7274732f 	rsbsvc	r7, r4, #-1140850688	; 0xbc000000
 cf4:	2e797063 	cdpcs	0, 7, cr7, cr9, cr3, {3}
 cf8:	2f2e0063 	svccs	0x002e0063
 cfc:	6362696c 	cmnvs	r2, #108, 18	; 0x1b0000
 d00:	7274732f 	rsbsvc	r7, r4, #-1140850688	; 0xbc000000
 d04:	706d636e 	rsbvc	r6, sp, lr, ror #6
 d08:	2e00632e 	cdpcs	3, 0, cr6, cr0, cr14, {1}
 d0c:	6174732f 	cmnvs	r4, pc, lsr #6
 d10:	732d6666 			; <UNDEFINED> instruction: 0x732d6666
 d14:	642f6372 	strtvs	r6, [pc], #-882	; d1c <__code_start__-0x72e4>
 d18:	75616665 	strbvc	r6, [r1, #-1637]!	; 0xfffff99b
 d1c:	722d746c 	eorvc	r7, sp, #108, 8	; 0x6c000000
 d20:	6f6f6265 	svcvs	0x006f6265
 d24:	61632d74 	smcvs	13012	; 0x32d4
 d28:	756f6c6c 	strbvc	r6, [pc, #-3180]!	; c4 <__code_start__-0x7f3c>
 d2c:	00632e74 	rsbeq	r2, r3, r4, ror lr

Disassembly of section .debug_frame:

00000000 <.debug_frame>:
   0:	0000000c 	andeq	r0, r0, ip
   4:	ffffffff 			; <UNDEFINED> instruction: 0xffffffff
   8:	7c020001 	stcvc	0, cr0, [r2], {1}
   c:	000d0c0e 	andeq	r0, sp, lr, lsl #24
  10:	0000001c 	andeq	r0, r0, ip, lsl r0
  14:	00000000 	andeq	r0, r0, r0
  18:	00008048 	andeq	r8, r0, r8, asr #32
  1c:	00000014 	andeq	r0, r0, r4, lsl r0
  20:	420c0d42 	andmi	r0, ip, #4224	; 0x1080
  24:	038d048b 	orreq	r0, sp, #-1962934272	; 0x8b000000
  28:	0c42028e 	sfmeq	f0, 2, [r2], {142}	; 0x8e
  2c:	0000040b 	andeq	r0, r0, fp, lsl #8
  30:	00000028 	andeq	r0, r0, r8, lsr #32
  34:	00000000 	andeq	r0, r0, r0
  38:	00008068 	andeq	r8, r0, r8, rrx
  3c:	000000d4 	ldrdeq	r0, [r0], -r4
  40:	420c0d42 	andmi	r0, ip, #4224	; 0x1080
  44:	06850784 	streq	r0, [r5], r4, lsl #15
  48:	048b0586 	streq	r0, [fp], #1414	; 0x586
  4c:	028e038d 	addeq	r0, lr, #872415234	; 0x34000002
  50:	040b0c42 	streq	r0, [fp], #-3138	; 0xfffff3be
  54:	0c0a4a02 			; <UNDEFINED> instruction: 0x0c0a4a02
  58:	0b421c0d 	bleq	1087094 <__bss_end__+0x107bd3c>
  5c:	0000000c 	andeq	r0, r0, ip
  60:	ffffffff 			; <UNDEFINED> instruction: 0xffffffff
  64:	7c020001 	stcvc	0, cr0, [r2], {1}
  68:	000d0c0e 	andeq	r0, sp, lr, lsl #24
  6c:	0000001c 	andeq	r0, r0, ip, lsl r0
  70:	0000005c 	andeq	r0, r0, ip, asr r0
  74:	00008150 	andeq	r8, r0, r0, asr r1
  78:	0000001c 	andeq	r0, r0, ip, lsl r0
  7c:	420c0d42 	andmi	r0, ip, #4224	; 0x1080
  80:	038d048b 	orreq	r0, sp, #-1962934272	; 0x8b000000
  84:	0c42028e 	sfmeq	f0, 2, [r2], {142}	; 0x8e
  88:	0000040b 	andeq	r0, r0, fp, lsl #8
  8c:	0000001c 	andeq	r0, r0, ip, lsl r0
  90:	0000005c 	andeq	r0, r0, ip, asr r0
  94:	0000817c 	andeq	r8, r0, ip, ror r1
  98:	0000001c 	andeq	r0, r0, ip, lsl r0
  9c:	420c0d42 	andmi	r0, ip, #4224	; 0x1080
  a0:	038d048b 	orreq	r0, sp, #-1962934272	; 0x8b000000
  a4:	0c42028e 	sfmeq	f0, 2, [r2], {142}	; 0x8e
  a8:	0000040b 	andeq	r0, r0, fp, lsl #8
  ac:	0000001c 	andeq	r0, r0, ip, lsl r0
  b0:	0000005c 	andeq	r0, r0, ip, asr r0
  b4:	000081ac 	andeq	r8, r0, ip, lsr #3
  b8:	00000014 	andeq	r0, r0, r4, lsl r0
  bc:	420c0d42 	andmi	r0, ip, #4224	; 0x1080
  c0:	038d048b 	orreq	r0, sp, #-1962934272	; 0x8b000000
  c4:	0c42028e 	sfmeq	f0, 2, [r2], {142}	; 0x8e
  c8:	0000040b 	andeq	r0, r0, fp, lsl #8
  cc:	00000020 	andeq	r0, r0, r0, lsr #32
  d0:	0000005c 	andeq	r0, r0, ip, asr r0
  d4:	000081d0 	ldrdeq	r8, [r0], -r0
  d8:	00000020 	andeq	r0, r0, r0, lsr #32
  dc:	420c0d42 	andmi	r0, ip, #4224	; 0x1080
  e0:	05850684 	streq	r0, [r5, #1668]	; 0x684
  e4:	038d048b 	orreq	r0, sp, #-1962934272	; 0x8b000000
  e8:	0c42028e 	sfmeq	f0, 2, [r2], {142}	; 0x8e
  ec:	0000040b 	andeq	r0, r0, fp, lsl #8
  f0:	00000024 	andeq	r0, r0, r4, lsr #32
  f4:	0000005c 	andeq	r0, r0, ip, asr r0
  f8:	00008204 	andeq	r8, r0, r4, lsl #4
  fc:	00000038 	andeq	r0, r0, r8, lsr r0
 100:	420c0d42 	andmi	r0, ip, #4224	; 0x1080
 104:	07850884 	streq	r0, [r5, r4, lsl #17]
 108:	05870686 	streq	r0, [r7, #1670]	; 0x686
 10c:	038d048b 	orreq	r0, sp, #-1962934272	; 0x8b000000
 110:	0c42028e 	sfmeq	f0, 2, [r2], {142}	; 0x8e
 114:	0000040b 	andeq	r0, r0, fp, lsl #8
 118:	0000001c 	andeq	r0, r0, ip, lsl r0
 11c:	0000005c 	andeq	r0, r0, ip, asr r0
 120:	00008250 	andeq	r8, r0, r0, asr r2
 124:	00000044 	andeq	r0, r0, r4, asr #32
 128:	420c0d42 	andmi	r0, ip, #4224	; 0x1080
 12c:	038d048b 	orreq	r0, sp, #-1962934272	; 0x8b000000
 130:	0c42028e 	sfmeq	f0, 2, [r2], {142}	; 0x8e
 134:	0000040b 	andeq	r0, r0, fp, lsl #8
 138:	0000001c 	andeq	r0, r0, ip, lsl r0
 13c:	0000005c 	andeq	r0, r0, ip, asr r0
 140:	000082ac 	andeq	r8, r0, ip, lsr #5
 144:	00000020 	andeq	r0, r0, r0, lsr #32
 148:	420c0d42 	andmi	r0, ip, #4224	; 0x1080
 14c:	038d048b 	orreq	r0, sp, #-1962934272	; 0x8b000000
 150:	0c42028e 	sfmeq	f0, 2, [r2], {142}	; 0x8e
 154:	0000040b 	andeq	r0, r0, fp, lsl #8
 158:	0000002c 	andeq	r0, r0, ip, lsr #32
 15c:	0000005c 	andeq	r0, r0, ip, asr r0
 160:	000082d8 	ldrdeq	r8, [r0], -r8	; <UNPREDICTABLE>
 164:	0000019c 	muleq	r0, ip, r1
 168:	420c0d42 	andmi	r0, ip, #4224	; 0x1080
 16c:	07850884 	streq	r0, [r5, r4, lsl #17]
 170:	05870686 	streq	r0, [r7, #1670]	; 0x686
 174:	038d048b 	orreq	r0, sp, #-1962934272	; 0x8b000000
 178:	0c42028e 	sfmeq	f0, 2, [r2], {142}	; 0x8e
 17c:	a202040b 	andge	r0, r2, #184549376	; 0xb000000
 180:	200d0c0a 	andcs	r0, sp, sl, lsl #24
 184:	00000b42 	andeq	r0, r0, r2, asr #22
 188:	00000028 	andeq	r0, r0, r8, lsr #32
 18c:	0000005c 	andeq	r0, r0, ip, asr r0
 190:	00008480 	andeq	r8, r0, r0, lsl #9
 194:	000000f0 	strdeq	r0, [r0], -r0	; <UNPREDICTABLE>
 198:	420c0d42 	andmi	r0, ip, #4224	; 0x1080
 19c:	07850884 	streq	r0, [r5, r4, lsl #17]
 1a0:	05870686 	streq	r0, [r7, #1670]	; 0x686
 1a4:	038d048b 	orreq	r0, sp, #-1962934272	; 0x8b000000
 1a8:	0c42028e 	sfmeq	f0, 2, [r2], {142}	; 0x8e
 1ac:	6a02040b 	bvs	811e0 <__bss_end__+0x75e88>
 1b0:	00200d0c 	eoreq	r0, r0, ip, lsl #26
 1b4:	0000000c 	andeq	r0, r0, ip
 1b8:	ffffffff 			; <UNDEFINED> instruction: 0xffffffff
 1bc:	7c020001 	stcvc	0, cr0, [r2], {1}
 1c0:	000d0c0e 	andeq	r0, sp, lr, lsl #24
 1c4:	0000001c 	andeq	r0, r0, ip, lsl r0
 1c8:	000001b4 			; <UNDEFINED> instruction: 0x000001b4
 1cc:	0000857c 	andeq	r8, r0, ip, ror r5
 1d0:	000000c4 	andeq	r0, r0, r4, asr #1
 1d4:	420c0d42 	andmi	r0, ip, #4224	; 0x1080
 1d8:	038d048b 	orreq	r0, sp, #-1962934272	; 0x8b000000
 1dc:	0c42028e 	sfmeq	f0, 2, [r2], {142}	; 0x8e
 1e0:	0000040b 	andeq	r0, r0, fp, lsl #8
 1e4:	00000020 	andeq	r0, r0, r0, lsr #32
 1e8:	000001b4 			; <UNDEFINED> instruction: 0x000001b4
 1ec:	00008650 	andeq	r8, r0, r0, asr r6
 1f0:	0000005c 	andeq	r0, r0, ip, asr r0
 1f4:	420c0d42 	andmi	r0, ip, #4224	; 0x1080
 1f8:	05850684 	streq	r0, [r5, #1668]	; 0x684
 1fc:	038d048b 	orreq	r0, sp, #-1962934272	; 0x8b000000
 200:	0c42028e 	sfmeq	f0, 2, [r2], {142}	; 0x8e
 204:	0000040b 	andeq	r0, r0, fp, lsl #8
 208:	00000020 	andeq	r0, r0, r0, lsr #32
 20c:	000001b4 			; <UNDEFINED> instruction: 0x000001b4
 210:	000086bc 			; <UNDEFINED> instruction: 0x000086bc
 214:	000000b4 	strheq	r0, [r0], -r4
 218:	420c0d42 	andmi	r0, ip, #4224	; 0x1080
 21c:	05850684 	streq	r0, [r5, #1668]	; 0x684
 220:	038d048b 	orreq	r0, sp, #-1962934272	; 0x8b000000
 224:	0c42028e 	sfmeq	f0, 2, [r2], {142}	; 0x8e
 228:	0000040b 	andeq	r0, r0, fp, lsl #8
 22c:	0000000c 	andeq	r0, r0, ip
 230:	ffffffff 			; <UNDEFINED> instruction: 0xffffffff
 234:	7c020001 	stcvc	0, cr0, [r2], {1}
 238:	000d0c0e 	andeq	r0, sp, lr, lsl #24
 23c:	0000001c 	andeq	r0, r0, ip, lsl r0
 240:	0000022c 	andeq	r0, r0, ip, lsr #4
 244:	0000877c 	andeq	r8, r0, ip, ror r7
 248:	00000048 	andeq	r0, r0, r8, asr #32
 24c:	420c0d42 	andmi	r0, ip, #4224	; 0x1080
 250:	038d048b 	orreq	r0, sp, #-1962934272	; 0x8b000000
 254:	0c42028e 	sfmeq	f0, 2, [r2], {142}	; 0x8e
 258:	0000040b 	andeq	r0, r0, fp, lsl #8
 25c:	0000002c 	andeq	r0, r0, ip, lsr #32
 260:	0000022c 	andeq	r0, r0, ip, lsr #4
 264:	000087d0 	ldrdeq	r8, [r0], -r0
 268:	00000190 	muleq	r0, r0, r1
 26c:	420c0d42 	andmi	r0, ip, #4224	; 0x1080
 270:	08850984 	stmeq	r5, {r2, r7, r8, fp}
 274:	06870786 	streq	r0, [r7], r6, lsl #15
 278:	048b0588 	streq	r0, [fp], #1416	; 0x588
 27c:	028e038d 	addeq	r0, lr, #872415234	; 0x34000002
 280:	040b0c42 	streq	r0, [fp], #-3138	; 0xfffff3be
 284:	0d0cae02 	stceq	14, cr10, [ip, #-8]
 288:	00000024 	andeq	r0, r0, r4, lsr #32
 28c:	00000020 	andeq	r0, r0, r0, lsr #32
 290:	0000022c 	andeq	r0, r0, ip, lsr #4
 294:	00008970 	andeq	r8, r0, r0, ror r9
 298:	000000ac 	andeq	r0, r0, ip, lsr #1
 29c:	420c0d42 	andmi	r0, ip, #4224	; 0x1080
 2a0:	038d048b 	orreq	r0, sp, #-1962934272	; 0x8b000000
 2a4:	0c42028e 	sfmeq	f0, 2, [r2], {142}	; 0x8e
 2a8:	4402040b 	strmi	r0, [r2], #-1035	; 0xfffffbf5
 2ac:	00100d0c 	andseq	r0, r0, ip, lsl #26
 2b0:	00000028 	andeq	r0, r0, r8, lsr #32
 2b4:	0000022c 	andeq	r0, r0, ip, lsr #4
 2b8:	00008a2c 	andeq	r8, r0, ip, lsr #20
 2bc:	000000fc 	strdeq	r0, [r0], -ip
 2c0:	420c0d42 	andmi	r0, ip, #4224	; 0x1080
 2c4:	09850a84 	stmibeq	r5, {r2, r7, r9, fp}
 2c8:	07870886 	streq	r0, [r7, r6, lsl #17]
 2cc:	05890688 	streq	r0, [r9, #1672]	; 0x688
 2d0:	038d048b 	orreq	r0, sp, #-1962934272	; 0x8b000000
 2d4:	0c42028e 	sfmeq	f0, 2, [r2], {142}	; 0x8e
 2d8:	0000040b 	andeq	r0, r0, fp, lsl #8
 2dc:	0000002c 	andeq	r0, r0, ip, lsr #32
 2e0:	0000022c 	andeq	r0, r0, ip, lsr #4
 2e4:	00008b38 	andeq	r8, r0, r8, lsr fp
 2e8:	000000e4 	andeq	r0, r0, r4, ror #1
 2ec:	420c0d42 	andmi	r0, ip, #4224	; 0x1080
 2f0:	08850984 	stmeq	r5, {r2, r7, r8, fp}
 2f4:	06870786 	streq	r0, [r7], r6, lsl #15
 2f8:	048b0588 	streq	r0, [fp], #1416	; 0x588
 2fc:	028e038d 	addeq	r0, lr, #872415234	; 0x34000002
 300:	040b0c42 	streq	r0, [fp], #-3138	; 0xfffff3be
 304:	0d0c5c02 	stceq	12, cr5, [ip, #-8]
 308:	00000024 	andeq	r0, r0, r4, lsr #32
 30c:	00000028 	andeq	r0, r0, r8, lsr #32
 310:	0000022c 	andeq	r0, r0, ip, lsr #4
 314:	00008c28 	andeq	r8, r0, r8, lsr #24
 318:	000000ac 	andeq	r0, r0, ip, lsr #1
 31c:	420c0d42 	andmi	r0, ip, #4224	; 0x1080
 320:	05850684 	streq	r0, [r5, #1668]	; 0x684
 324:	038d048b 	orreq	r0, sp, #-1962934272	; 0x8b000000
 328:	0c42028e 	sfmeq	f0, 2, [r2], {142}	; 0x8e
 32c:	0a66040b 	beq	1981360 <__bss_end__+0x1976008>
 330:	42180d0c 	andsmi	r0, r8, #12, 26	; 0x300
 334:	0000000b 	andeq	r0, r0, fp
 338:	0000001c 	andeq	r0, r0, ip, lsl r0
 33c:	0000022c 	andeq	r0, r0, ip, lsr #4
 340:	00008ce8 	andeq	r8, r0, r8, ror #25
 344:	0000003c 	andeq	r0, r0, ip, lsr r0
 348:	420c0d42 	andmi	r0, ip, #4224	; 0x1080
 34c:	038d048b 	orreq	r0, sp, #-1962934272	; 0x8b000000
 350:	0c42028e 	sfmeq	f0, 2, [r2], {142}	; 0x8e
 354:	0000040b 	andeq	r0, r0, fp, lsl #8
 358:	00000024 	andeq	r0, r0, r4, lsr #32
 35c:	0000022c 	andeq	r0, r0, ip, lsr #4
 360:	00008d38 	andeq	r8, r0, r8, lsr sp
 364:	000000d4 	ldrdeq	r0, [r0], -r4
 368:	420c0d42 	andmi	r0, ip, #4224	; 0x1080
 36c:	07850884 	streq	r0, [r5, r4, lsl #17]
 370:	05870686 	streq	r0, [r7, #1670]	; 0x686
 374:	038d048b 	orreq	r0, sp, #-1962934272	; 0x8b000000
 378:	0c42028e 	sfmeq	f0, 2, [r2], {142}	; 0x8e
 37c:	0000040b 	andeq	r0, r0, fp, lsl #8
 380:	0000001c 	andeq	r0, r0, ip, lsl r0
 384:	0000022c 	andeq	r0, r0, ip, lsr #4
 388:	00008e20 	andeq	r8, r0, r0, lsr #28
 38c:	00000014 	andeq	r0, r0, r4, lsl r0
 390:	420c0d42 	andmi	r0, ip, #4224	; 0x1080
 394:	038d048b 	orreq	r0, sp, #-1962934272	; 0x8b000000
 398:	0c42028e 	sfmeq	f0, 2, [r2], {142}	; 0x8e
 39c:	0000040b 	andeq	r0, r0, fp, lsl #8
 3a0:	0000001c 	andeq	r0, r0, ip, lsl r0
 3a4:	0000022c 	andeq	r0, r0, ip, lsr #4
 3a8:	00008e48 	andeq	r8, r0, r8, asr #28
 3ac:	00000050 	andeq	r0, r0, r0, asr r0
 3b0:	420c0d42 	andmi	r0, ip, #4224	; 0x1080
 3b4:	038d048b 	orreq	r0, sp, #-1962934272	; 0x8b000000
 3b8:	0c42028e 	sfmeq	f0, 2, [r2], {142}	; 0x8e
 3bc:	0000040b 	andeq	r0, r0, fp, lsl #8
 3c0:	00000020 	andeq	r0, r0, r0, lsr #32
 3c4:	0000022c 	andeq	r0, r0, ip, lsr #4
 3c8:	00008eb0 			; <UNDEFINED> instruction: 0x00008eb0
 3cc:	00000058 	andeq	r0, r0, r8, asr r0
 3d0:	420c0d42 	andmi	r0, ip, #4224	; 0x1080
 3d4:	05850684 	streq	r0, [r5, #1668]	; 0x684
 3d8:	038d048b 	orreq	r0, sp, #-1962934272	; 0x8b000000
 3dc:	0c42028e 	sfmeq	f0, 2, [r2], {142}	; 0x8e
 3e0:	0000040b 	andeq	r0, r0, fp, lsl #8
 3e4:	0000001c 	andeq	r0, r0, ip, lsl r0
 3e8:	0000022c 	andeq	r0, r0, ip, lsr #4
 3ec:	00008f14 	andeq	r8, r0, r4, lsl pc
 3f0:	00000018 	andeq	r0, r0, r8, lsl r0
 3f4:	420c0d42 	andmi	r0, ip, #4224	; 0x1080
 3f8:	038d048b 	orreq	r0, sp, #-1962934272	; 0x8b000000
 3fc:	0c42028e 	sfmeq	f0, 2, [r2], {142}	; 0x8e
 400:	0000040b 	andeq	r0, r0, fp, lsl #8
 404:	0000001c 	andeq	r0, r0, ip, lsl r0
 408:	0000022c 	andeq	r0, r0, ip, lsr #4
 40c:	00008f40 	andeq	r8, r0, r0, asr #30
 410:	00000030 	andeq	r0, r0, r0, lsr r0
 414:	420c0d42 	andmi	r0, ip, #4224	; 0x1080
 418:	038d048b 	orreq	r0, sp, #-1962934272	; 0x8b000000
 41c:	0c42028e 	sfmeq	f0, 2, [r2], {142}	; 0x8e
 420:	0000040b 	andeq	r0, r0, fp, lsl #8
 424:	0000000c 	andeq	r0, r0, ip
 428:	ffffffff 			; <UNDEFINED> instruction: 0xffffffff
 42c:	7c020001 	stcvc	0, cr0, [r2], {1}
 430:	000d0c0e 	andeq	r0, sp, lr, lsl #24
 434:	0000001c 	andeq	r0, r0, ip, lsl r0
 438:	00000424 	andeq	r0, r0, r4, lsr #8
 43c:	00008f78 	andeq	r8, r0, r8, ror pc
 440:	00000080 	andeq	r0, r0, r0, lsl #1
 444:	84180e42 	ldrhi	r0, [r8], #-3650	; 0xfffff1be
 448:	86058506 	strhi	r8, [r5], -r6, lsl #10
 44c:	88038704 	stmdahi	r3, {r2, r8, r9, sl, pc}
 450:	00018e02 	andeq	r8, r1, r2, lsl #28
 454:	0000000c 	andeq	r0, r0, ip
 458:	00000424 	andeq	r0, r0, r4, lsr #8
 45c:	00008ff8 	strdeq	r8, [r0], -r8	; <UNPREDICTABLE>
 460:	00000020 	andeq	r0, r0, r0, lsr #32
 464:	0000000c 	andeq	r0, r0, ip
 468:	ffffffff 			; <UNDEFINED> instruction: 0xffffffff
 46c:	7c020001 	stcvc	0, cr0, [r2], {1}
 470:	000d0c0e 	andeq	r0, sp, lr, lsl #24
 474:	00000014 	andeq	r0, r0, r4, lsl r0
 478:	00000464 	andeq	r0, r0, r4, ror #8
 47c:	00009018 	andeq	r9, r0, r8, lsl r0
 480:	00000078 	andeq	r0, r0, r8, ror r0
 484:	84080e42 	strhi	r0, [r8], #-3650	; 0xfffff1be
 488:	00018e02 	andeq	r8, r1, r2, lsl #28
 48c:	0000000c 	andeq	r0, r0, ip
 490:	ffffffff 			; <UNDEFINED> instruction: 0xffffffff
 494:	7c020001 	stcvc	0, cr0, [r2], {1}
 498:	000d0c0e 	andeq	r0, sp, lr, lsl #24
 49c:	00000034 	andeq	r0, r0, r4, lsr r0
 4a0:	0000048c 	andeq	r0, r0, ip, lsl #9
 4a4:	00009090 	muleq	r0, r0, r0
 4a8:	00000058 	andeq	r0, r0, r8, asr r0
 4ac:	80100e42 	andshi	r0, r0, r2, asr #28
 4b0:	82038104 	andhi	r8, r3, #1
 4b4:	42018302 	andmi	r8, r1, #134217728	; 0x8000000
 4b8:	07841c0e 	streq	r1, [r4, lr, lsl #24]
 4bc:	058e0685 	streq	r0, [lr, #1669]	; 0x685
 4c0:	5a280e44 	bpl	a03dd8 <__bss_end__+0x9f8a80>
 4c4:	ce421c0e 	cdpgt	12, 4, cr1, cr2, cr14, {0}
 4c8:	100ec4c5 	andne	ip, lr, r5, asr #9
 4cc:	c1c2c342 	bicgt	ip, r2, r2, asr #6
 4d0:	00000ec0 	andeq	r0, r0, r0, asr #29
 4d4:	0000000c 	andeq	r0, r0, ip
 4d8:	ffffffff 			; <UNDEFINED> instruction: 0xffffffff
 4dc:	7c020001 	stcvc	0, cr0, [r2], {1}
 4e0:	000d0c0e 	andeq	r0, sp, lr, lsl #24
 4e4:	00000018 	andeq	r0, r0, r8, lsl r0
 4e8:	000004d4 	ldrdeq	r0, [r0], -r4
 4ec:	000090e8 	andeq	r9, r0, r8, ror #1
 4f0:	00000038 	andeq	r0, r0, r8, lsr r0
 4f4:	84100e42 	ldrhi	r0, [r0], #-3650	; 0xfffff1be
 4f8:	86038504 	strhi	r8, [r3], -r4, lsl #10
 4fc:	00018e02 	andeq	r8, r1, r2, lsl #28
 500:	0000000c 	andeq	r0, r0, ip
 504:	ffffffff 			; <UNDEFINED> instruction: 0xffffffff
 508:	7c020001 	stcvc	0, cr0, [r2], {1}
 50c:	000d0c0e 	andeq	r0, sp, lr, lsl #24
 510:	0000002c 	andeq	r0, r0, ip, lsr #32
 514:	00000500 	andeq	r0, r0, r0, lsl #10
 518:	00009120 	andeq	r9, r0, r0, lsr #2
 51c:	00000328 	andeq	r0, r0, r8, lsr #6
 520:	84180e42 	ldrhi	r0, [r8], #-3650	; 0xfffff1be
 524:	86058506 	strhi	r8, [r5], -r6, lsl #10
 528:	88038704 	stmdahi	r3, {r2, r8, r9, sl, pc}
 52c:	46018e02 	strmi	r8, [r1], -r2, lsl #28
 530:	c002600e 	andgt	r6, r2, lr
 534:	42180e0a 	andsmi	r0, r8, #160	; 0xa0
 538:	0a8e020b 	beq	fe380d6c <__bss_end__+0xfe375a14>
 53c:	0b42180e 	bleq	108657c <__bss_end__+0x107b224>
 540:	00000014 	andeq	r0, r0, r4, lsl r0
 544:	00000500 	andeq	r0, r0, r0, lsl #10
 548:	00009448 	andeq	r9, r0, r8, asr #8
 54c:	00000060 	andeq	r0, r0, r0, rrx
 550:	8e040e52 	mcrhi	14, 0, r0, cr4, cr2, {2}
 554:	100e4401 	andne	r4, lr, r1, lsl #8
 558:	0000002c 	andeq	r0, r0, ip, lsr #32
 55c:	00000500 	andeq	r0, r0, r0, lsl #10
 560:	000094a8 	andeq	r9, r0, r8, lsr #9
 564:	0000062c 	andeq	r0, r0, ip, lsr #12
 568:	84240e42 	strthi	r0, [r4], #-3650	; 0xfffff1be
 56c:	86088509 	strhi	r8, [r8], -r9, lsl #10
 570:	88068707 	stmdahi	r6, {r0, r1, r2, r8, r9, sl, pc}
 574:	8a048905 	bhi	122990 <__bss_end__+0x117638>
 578:	8e028b03 	vmlahi.f64	d8, d2, d3
 57c:	c00e5201 	andgt	r5, lr, r1, lsl #4
 580:	0a860202 	beq	fe180d90 <__bss_end__+0xfe175a38>
 584:	0b42240e 	bleq	10895c4 <__bss_end__+0x107e26c>
 588:	0000000c 	andeq	r0, r0, ip
 58c:	ffffffff 			; <UNDEFINED> instruction: 0xffffffff
 590:	7c020001 	stcvc	0, cr0, [r2], {1}
 594:	000d0c0e 	andeq	r0, sp, lr, lsl #24
 598:	00000014 	andeq	r0, r0, r4, lsl r0
 59c:	00000588 	andeq	r0, r0, r8, lsl #11
 5a0:	00009ad4 	ldrdeq	r9, [r0], -r4
 5a4:	0000002c 	andeq	r0, r0, ip, lsr #32
 5a8:	84080e44 	strhi	r0, [r8], #-3652	; 0xfffff1bc
 5ac:	00018e02 	andeq	r8, r1, r2, lsl #28
 5b0:	0000000c 	andeq	r0, r0, ip
 5b4:	ffffffff 			; <UNDEFINED> instruction: 0xffffffff
 5b8:	7c020001 	stcvc	0, cr0, [r2], {1}
 5bc:	000d0c0e 	andeq	r0, sp, lr, lsl #24
 5c0:	00000018 	andeq	r0, r0, r8, lsl r0
 5c4:	000005b0 			; <UNDEFINED> instruction: 0x000005b0
 5c8:	00009b00 	andeq	r9, r0, r0, lsl #22
 5cc:	00000128 	andeq	r0, r0, r8, lsr #2
 5d0:	84100e42 	ldrhi	r0, [r0], #-3650	; 0xfffff1be
 5d4:	86038504 	strhi	r8, [r3], -r4, lsl #10
 5d8:	00018e02 	andeq	r8, r1, r2, lsl #28
 5dc:	0000000c 	andeq	r0, r0, ip
 5e0:	ffffffff 			; <UNDEFINED> instruction: 0xffffffff
 5e4:	7c020001 	stcvc	0, cr0, [r2], {1}
 5e8:	000d0c0e 	andeq	r0, sp, lr, lsl #24
 5ec:	0000000c 	andeq	r0, r0, ip
 5f0:	000005dc 	ldrdeq	r0, [r0], -ip
 5f4:	00009c28 	andeq	r9, r0, r8, lsr #24
 5f8:	00000004 	andeq	r0, r0, r4
 5fc:	0000000c 	andeq	r0, r0, ip
 600:	ffffffff 			; <UNDEFINED> instruction: 0xffffffff
 604:	7c020001 	stcvc	0, cr0, [r2], {1}
 608:	000d0c0e 	andeq	r0, sp, lr, lsl #24
 60c:	0000000c 	andeq	r0, r0, ip
 610:	000005fc 	strdeq	r0, [r0], -ip
 614:	00009c2c 	andeq	r9, r0, ip, lsr #24
 618:	00000018 	andeq	r0, r0, r8, lsl r0
 61c:	0000000c 	andeq	r0, r0, ip
 620:	000005fc 	strdeq	r0, [r0], -ip
 624:	00009c44 	andeq	r9, r0, r4, asr #24
 628:	00000014 	andeq	r0, r0, r4, lsl r0
 62c:	00000014 	andeq	r0, r0, r4, lsl r0
 630:	000005fc 	strdeq	r0, [r0], -ip
 634:	00009c58 	andeq	r9, r0, r8, asr ip
 638:	00000060 	andeq	r0, r0, r0, rrx
 63c:	84080e42 	strhi	r0, [r8], #-3650	; 0xfffff1be
 640:	00018e02 	andeq	r8, r1, r2, lsl #28
 644:	0000000c 	andeq	r0, r0, ip
 648:	ffffffff 			; <UNDEFINED> instruction: 0xffffffff
 64c:	7c020001 	stcvc	0, cr0, [r2], {1}
 650:	000d0c0e 	andeq	r0, sp, lr, lsl #24
 654:	0000000c 	andeq	r0, r0, ip
 658:	00000644 	andeq	r0, r0, r4, asr #12
 65c:	00009cb8 			; <UNDEFINED> instruction: 0x00009cb8
 660:	0000000c 	andeq	r0, r0, ip
 664:	00000014 	andeq	r0, r0, r4, lsl r0
 668:	00000644 	andeq	r0, r0, r4, asr #12
 66c:	00009cc4 	andeq	r9, r0, r4, asr #25
 670:	00000024 	andeq	r0, r0, r4, lsr #32
 674:	84080e42 	strhi	r0, [r8], #-3650	; 0xfffff1be
 678:	00018e02 	andeq	r8, r1, r2, lsl #28
 67c:	0000001c 	andeq	r0, r0, ip, lsl r0
 680:	00000644 	andeq	r0, r0, r4, asr #12
 684:	00009ce8 	andeq	r9, r0, r8, ror #25
 688:	00000048 	andeq	r0, r0, r8, asr #32
 68c:	84180e42 	ldrhi	r0, [r8], #-3650	; 0xfffff1be
 690:	86058506 	strhi	r8, [r5], -r6, lsl #10
 694:	88038704 	stmdahi	r3, {r2, r8, r9, sl, pc}
 698:	00018e02 	andeq	r8, r1, r2, lsl #28
 69c:	0000001c 	andeq	r0, r0, ip, lsl r0
 6a0:	00000644 	andeq	r0, r0, r4, asr #12
 6a4:	00009d30 	andeq	r9, r0, r0, lsr sp
 6a8:	00000050 	andeq	r0, r0, r0, asr r0
 6ac:	84180e42 	ldrhi	r0, [r8], #-3650	; 0xfffff1be
 6b0:	86058506 	strhi	r8, [r5], -r6, lsl #10
 6b4:	88038704 	stmdahi	r3, {r2, r8, r9, sl, pc}
 6b8:	00018e02 	andeq	r8, r1, r2, lsl #28
 6bc:	0000001c 	andeq	r0, r0, ip, lsl r0
 6c0:	00000644 	andeq	r0, r0, r4, asr #12
 6c4:	00009d80 	andeq	r9, r0, r0, lsl #27
 6c8:	00000054 	andeq	r0, r0, r4, asr r0
 6cc:	84180e42 	ldrhi	r0, [r8], #-3650	; 0xfffff1be
 6d0:	86058506 	strhi	r8, [r5], -r6, lsl #10
 6d4:	88038704 	stmdahi	r3, {r2, r8, r9, sl, pc}
 6d8:	00018e02 	andeq	r8, r1, r2, lsl #28
 6dc:	0000000c 	andeq	r0, r0, ip
 6e0:	ffffffff 			; <UNDEFINED> instruction: 0xffffffff
 6e4:	7c020001 	stcvc	0, cr0, [r2], {1}
 6e8:	000d0c0e 	andeq	r0, sp, lr, lsl #24
 6ec:	00000018 	andeq	r0, r0, r8, lsl r0
 6f0:	000006dc 	ldrdeq	r0, [r0], -ip
 6f4:	00009dd4 	ldrdeq	r9, [r0], -r4
 6f8:	00000020 	andeq	r0, r0, r0, lsr #32
 6fc:	84100e42 	ldrhi	r0, [r0], #-3650	; 0xfffff1be
 700:	86038504 	strhi	r8, [r3], -r4, lsl #10
 704:	00018e02 	andeq	r8, r1, r2, lsl #28
 708:	00000018 	andeq	r0, r0, r8, lsl r0
 70c:	000006dc 	ldrdeq	r0, [r0], -ip
 710:	00009df4 	strdeq	r9, [r0], -r4
 714:	00000020 	andeq	r0, r0, r0, lsr #32
 718:	84100e42 	ldrhi	r0, [r0], #-3650	; 0xfffff1be
 71c:	86038504 	strhi	r8, [r3], -r4, lsl #10
 720:	00018e02 	andeq	r8, r1, r2, lsl #28
 724:	00000014 	andeq	r0, r0, r4, lsl r0
 728:	000006dc 	ldrdeq	r0, [r0], -ip
 72c:	00009e14 	andeq	r9, r0, r4, lsl lr
 730:	000000b0 	strheq	r0, [r0], -r0	; <UNPREDICTABLE>
 734:	84080e42 	strhi	r0, [r8], #-3650	; 0xfffff1be
 738:	00018e02 	andeq	r8, r1, r2, lsl #28
 73c:	00000014 	andeq	r0, r0, r4, lsl r0
 740:	000006dc 	ldrdeq	r0, [r0], -ip
 744:	00009ec4 	andeq	r9, r0, r4, asr #29
 748:	00000018 	andeq	r0, r0, r8, lsl r0
 74c:	84080e42 	strhi	r0, [r8], #-3650	; 0xfffff1be
 750:	00018e02 	andeq	r8, r1, r2, lsl #28
 754:	00000014 	andeq	r0, r0, r4, lsl r0
 758:	000006dc 	ldrdeq	r0, [r0], -ip
 75c:	00009edc 	ldrdeq	r9, [r0], -ip
 760:	00000020 	andeq	r0, r0, r0, lsr #32
 764:	84080e42 	strhi	r0, [r8], #-3650	; 0xfffff1be
 768:	00018e02 	andeq	r8, r1, r2, lsl #28
 76c:	00000014 	andeq	r0, r0, r4, lsl r0
 770:	000006dc 	ldrdeq	r0, [r0], -ip
 774:	00009efc 	strdeq	r9, [r0], -ip
 778:	00000030 	andeq	r0, r0, r0, lsr r0
 77c:	84080e42 	strhi	r0, [r8], #-3650	; 0xfffff1be
 780:	00018e02 	andeq	r8, r1, r2, lsl #28
 784:	00000014 	andeq	r0, r0, r4, lsl r0
 788:	000006dc 	ldrdeq	r0, [r0], -ip
 78c:	00009f2c 	andeq	r9, r0, ip, lsr #30
 790:	00000030 	andeq	r0, r0, r0, lsr r0
 794:	84080e42 	strhi	r0, [r8], #-3650	; 0xfffff1be
 798:	00018e02 	andeq	r8, r1, r2, lsl #28
 79c:	00000014 	andeq	r0, r0, r4, lsl r0
 7a0:	000006dc 	ldrdeq	r0, [r0], -ip
 7a4:	00009f5c 	andeq	r9, r0, ip, asr pc
 7a8:	00000010 	andeq	r0, r0, r0, lsl r0
 7ac:	84080e42 	strhi	r0, [r8], #-3650	; 0xfffff1be
 7b0:	00018e02 	andeq	r8, r1, r2, lsl #28
 7b4:	00000014 	andeq	r0, r0, r4, lsl r0
 7b8:	000006dc 	ldrdeq	r0, [r0], -ip
 7bc:	00009f6c 	andeq	r9, r0, ip, ror #30
 7c0:	00000020 	andeq	r0, r0, r0, lsr #32
 7c4:	84080e42 	strhi	r0, [r8], #-3650	; 0xfffff1be
 7c8:	00018e02 	andeq	r8, r1, r2, lsl #28
 7cc:	00000014 	andeq	r0, r0, r4, lsl r0
 7d0:	000006dc 	ldrdeq	r0, [r0], -ip
 7d4:	00009f8c 	andeq	r9, r0, ip, lsl #31
 7d8:	00000014 	andeq	r0, r0, r4, lsl r0
 7dc:	84080e42 	strhi	r0, [r8], #-3650	; 0xfffff1be
 7e0:	00018e02 	andeq	r8, r1, r2, lsl #28
 7e4:	00000014 	andeq	r0, r0, r4, lsl r0
 7e8:	000006dc 	ldrdeq	r0, [r0], -ip
 7ec:	00009fa0 	andeq	r9, r0, r0, lsr #31
 7f0:	00000024 	andeq	r0, r0, r4, lsr #32
 7f4:	84080e42 	strhi	r0, [r8], #-3650	; 0xfffff1be
 7f8:	00018e02 	andeq	r8, r1, r2, lsl #28
 7fc:	0000000c 	andeq	r0, r0, ip
 800:	ffffffff 			; <UNDEFINED> instruction: 0xffffffff
 804:	7c020001 	stcvc	0, cr0, [r2], {1}
 808:	000d0c0e 	andeq	r0, sp, lr, lsl #24
 80c:	0000000c 	andeq	r0, r0, ip
 810:	000007fc 	strdeq	r0, [r0], -ip
 814:	00009fc4 	andeq	r9, r0, r4, asr #31
 818:	00000010 	andeq	r0, r0, r0, lsl r0
 81c:	0000000c 	andeq	r0, r0, ip
 820:	000007fc 	strdeq	r0, [r0], -ip
 824:	00009fd4 	ldrdeq	r9, [r0], -r4
 828:	00000010 	andeq	r0, r0, r0, lsl r0
 82c:	0000000c 	andeq	r0, r0, ip
 830:	000007fc 	strdeq	r0, [r0], -ip
 834:	00009fe4 	andeq	r9, r0, r4, ror #31
 838:	00000010 	andeq	r0, r0, r0, lsl r0
 83c:	0000001c 	andeq	r0, r0, ip, lsl r0
 840:	000007fc 	strdeq	r0, [r0], -ip
 844:	00009ff4 	strdeq	r9, [r0], -r4
 848:	0000009c 	muleq	r0, ip, r0
 84c:	8e040e42 	cdphi	14, 0, cr0, cr4, cr2, {2}
 850:	100e4201 	andne	r4, lr, r1, lsl #4
 854:	040e0a58 	streq	r0, [lr], #-2648	; 0xfffff5a8
 858:	00000b42 	andeq	r0, r0, r2, asr #22
 85c:	00000014 	andeq	r0, r0, r4, lsl r0
 860:	000007fc 	strdeq	r0, [r0], -ip
 864:	0000a090 	muleq	r0, r0, r0
 868:	00000058 	andeq	r0, r0, r8, asr r0
 86c:	84080e42 	strhi	r0, [r8], #-3650	; 0xfffff1be
 870:	00018e02 	andeq	r8, r1, r2, lsl #28
 874:	0000001c 	andeq	r0, r0, ip, lsl r0
 878:	000007fc 	strdeq	r0, [r0], -ip
 87c:	0000a0e8 	andeq	sl, r0, r8, ror #1
 880:	00000098 	muleq	r0, r8, r0
 884:	8e040e42 	cdphi	14, 0, cr0, cr4, cr2, {2}
 888:	100e4201 	andne	r4, lr, r1, lsl #4
 88c:	040e0a58 	streq	r0, [lr], #-2648	; 0xfffff5a8
 890:	00000b42 	andeq	r0, r0, r2, asr #22
 894:	00000020 	andeq	r0, r0, r0, lsr #32
 898:	000007fc 	strdeq	r0, [r0], -ip
 89c:	0000a180 	andeq	sl, r0, r0, lsl #3
 8a0:	00000064 	andeq	r0, r0, r4, rrx
 8a4:	840c0e42 	strhi	r0, [ip], #-3650	; 0xfffff1be
 8a8:	8e028503 	cfsh32hi	mvfx8, mvfx2, #3
 8ac:	180e4201 	stmdane	lr, {r0, r9, lr}
 8b0:	0c0e0a54 			; <UNDEFINED> instruction: 0x0c0e0a54
 8b4:	00000b42 	andeq	r0, r0, r2, asr #22
 8b8:	0000001c 	andeq	r0, r0, ip, lsl r0
 8bc:	000007fc 	strdeq	r0, [r0], -ip
 8c0:	0000a1e4 	andeq	sl, r0, r4, ror #3
 8c4:	00000118 	andeq	r0, r0, r8, lsl r1
 8c8:	8e040e42 	cdphi	14, 0, cr0, cr4, cr2, {2}
 8cc:	100e4201 	andne	r4, lr, r1, lsl #4
 8d0:	040e0a6c 	streq	r0, [lr], #-2668	; 0xfffff594
 8d4:	00000b42 	andeq	r0, r0, r2, asr #22
 8d8:	0000000c 	andeq	r0, r0, ip
 8dc:	000007fc 	strdeq	r0, [r0], -ip
 8e0:	0000a2fc 	strdeq	sl, [r0], -ip
 8e4:	00000004 	andeq	r0, r0, r4
 8e8:	0000000c 	andeq	r0, r0, ip
 8ec:	000007fc 	strdeq	r0, [r0], -ip
 8f0:	0000a300 	andeq	sl, r0, r0, lsl #6
 8f4:	00000014 	andeq	r0, r0, r4, lsl r0
 8f8:	00000014 	andeq	r0, r0, r4, lsl r0
 8fc:	000007fc 	strdeq	r0, [r0], -ip
 900:	0000a314 	andeq	sl, r0, r4, lsl r3
 904:	00000060 	andeq	r0, r0, r0, rrx
 908:	8e040e58 	mcrhi	14, 0, r0, cr4, cr8, {2}
 90c:	100e4201 	andne	r4, lr, r1, lsl #4
 910:	0000000c 	andeq	r0, r0, ip
 914:	ffffffff 			; <UNDEFINED> instruction: 0xffffffff
 918:	7c020001 	stcvc	0, cr0, [r2], {1}
 91c:	000d0c0e 	andeq	r0, sp, lr, lsl #24
 920:	00000020 	andeq	r0, r0, r0, lsr #32
 924:	00000910 	andeq	r0, r0, r0, lsl r9
 928:	0000a374 	andeq	sl, r0, r4, ror r3
 92c:	00000060 	andeq	r0, r0, r0, rrx
 930:	84100e48 	ldrhi	r0, [r0], #-3656	; 0xfffff1b8
 934:	86038504 	strhi	r8, [r3], -r4, lsl #10
 938:	64018e02 	strvs	r8, [r1], #-3586	; 0xfffff1fe
 93c:	c4c5c6ce 	strbgt	ip, [r5], #1742	; 0x6ce
 940:	0000000e 	andeq	r0, r0, lr
 944:	00000020 	andeq	r0, r0, r0, lsr #32
 948:	00000910 	andeq	r0, r0, r0, lsl r9
 94c:	0000a3d4 	ldrdeq	sl, [r0], -r4
 950:	00000058 	andeq	r0, r0, r8, asr r0
 954:	84100e46 	ldrhi	r0, [r0], #-3654	; 0xfffff1ba
 958:	86038504 	strhi	r8, [r3], -r4, lsl #10
 95c:	62018e02 	andvs	r8, r1, #2, 28
 960:	c4c5c6ce 	strbgt	ip, [r5], #1742	; 0x6ce
 964:	0000000e 	andeq	r0, r0, lr
 968:	0000000c 	andeq	r0, r0, ip
 96c:	00000910 	andeq	r0, r0, r0, lsl r9
 970:	0000a42c 	andeq	sl, r0, ip, lsr #8
 974:	00000018 	andeq	r0, r0, r8, lsl r0
 978:	0000000c 	andeq	r0, r0, ip
 97c:	00000910 	andeq	r0, r0, r0, lsl r9
 980:	0000a444 	andeq	sl, r0, r4, asr #8
 984:	00000018 	andeq	r0, r0, r8, lsl r0
 988:	00000020 	andeq	r0, r0, r0, lsr #32
 98c:	00000910 	andeq	r0, r0, r0, lsl r9
 990:	0000a45c 	andeq	sl, r0, ip, asr r4
 994:	00000058 	andeq	r0, r0, r8, asr r0
 998:	84100e46 	ldrhi	r0, [r0], #-3654	; 0xfffff1ba
 99c:	86038504 	strhi	r8, [r3], -r4, lsl #10
 9a0:	62018e02 	andvs	r8, r1, #2, 28
 9a4:	c4c5c6ce 	strbgt	ip, [r5], #1742	; 0x6ce
 9a8:	0000000e 	andeq	r0, r0, lr
 9ac:	0000000c 	andeq	r0, r0, ip
 9b0:	00000910 	andeq	r0, r0, r0, lsl r9
 9b4:	0000a4b4 			; <UNDEFINED> instruction: 0x0000a4b4
 9b8:	00000030 	andeq	r0, r0, r0, lsr r0
 9bc:	00000014 	andeq	r0, r0, r4, lsl r0
 9c0:	00000910 	andeq	r0, r0, r0, lsl r9
 9c4:	0000a4e4 	andeq	sl, r0, r4, ror #9
 9c8:	00000028 	andeq	r0, r0, r8, lsr #32
 9cc:	84080e42 	strhi	r0, [r8], #-3650	; 0xfffff1be
 9d0:	00018e02 	andeq	r8, r1, r2, lsl #28
 9d4:	0000000c 	andeq	r0, r0, ip
 9d8:	ffffffff 			; <UNDEFINED> instruction: 0xffffffff
 9dc:	7c020001 	stcvc	0, cr0, [r2], {1}
 9e0:	000d0c0e 	andeq	r0, sp, lr, lsl #24
 9e4:	00000014 	andeq	r0, r0, r4, lsl r0
 9e8:	000009d4 	ldrdeq	r0, [r0], -r4
 9ec:	0000a50c 	andeq	sl, r0, ip, lsl #10
 9f0:	00000014 	andeq	r0, r0, r4, lsl r0
 9f4:	84080e42 	strhi	r0, [r8], #-3650	; 0xfffff1be
 9f8:	00018e02 	andeq	r8, r1, r2, lsl #28
 9fc:	0000000c 	andeq	r0, r0, ip
 a00:	000009d4 	ldrdeq	r0, [r0], -r4
 a04:	0000a520 	andeq	sl, r0, r0, lsr #10
 a08:	00000018 	andeq	r0, r0, r8, lsl r0
 a0c:	0000000c 	andeq	r0, r0, ip
 a10:	000009d4 	ldrdeq	r0, [r0], -r4
 a14:	0000a538 	andeq	sl, r0, r8, lsr r5
 a18:	00000010 	andeq	r0, r0, r0, lsl r0
 a1c:	0000000c 	andeq	r0, r0, ip
 a20:	ffffffff 			; <UNDEFINED> instruction: 0xffffffff
 a24:	7c020001 	stcvc	0, cr0, [r2], {1}
 a28:	000d0c0e 	andeq	r0, sp, lr, lsl #24
 a2c:	0000000c 	andeq	r0, r0, ip
 a30:	00000a1c 	andeq	r0, r0, ip, lsl sl
 a34:	0000a548 	andeq	sl, r0, r8, asr #10
 a38:	0000002c 	andeq	r0, r0, ip, lsr #32
 a3c:	0000000c 	andeq	r0, r0, ip
 a40:	ffffffff 			; <UNDEFINED> instruction: 0xffffffff
 a44:	7c020001 	stcvc	0, cr0, [r2], {1}
 a48:	000d0c0e 	andeq	r0, sp, lr, lsl #24
 a4c:	0000000c 	andeq	r0, r0, ip
 a50:	00000a3c 	andeq	r0, r0, ip, lsr sl
 a54:	0000a574 	andeq	sl, r0, r4, ror r5
 a58:	00000044 	andeq	r0, r0, r4, asr #32
 a5c:	0000000c 	andeq	r0, r0, ip
 a60:	ffffffff 			; <UNDEFINED> instruction: 0xffffffff
 a64:	7c020001 	stcvc	0, cr0, [r2], {1}
 a68:	000d0c0e 	andeq	r0, sp, lr, lsl #24
 a6c:	0000000c 	andeq	r0, r0, ip
 a70:	00000a5c 	andeq	r0, r0, ip, asr sl
 a74:	0000a5b8 			; <UNDEFINED> instruction: 0x0000a5b8
 a78:	00000018 	andeq	r0, r0, r8, lsl r0
 a7c:	0000000c 	andeq	r0, r0, ip
 a80:	ffffffff 			; <UNDEFINED> instruction: 0xffffffff
 a84:	7c020001 	stcvc	0, cr0, [r2], {1}
 a88:	000d0c0e 	andeq	r0, sp, lr, lsl #24
 a8c:	0000000c 	andeq	r0, r0, ip
 a90:	00000a7c 	andeq	r0, r0, ip, ror sl
 a94:	0000a5d0 	ldrdeq	sl, [r0], -r0
 a98:	00000030 	andeq	r0, r0, r0, lsr r0
 a9c:	0000000c 	andeq	r0, r0, ip
 aa0:	ffffffff 			; <UNDEFINED> instruction: 0xffffffff
 aa4:	7c020001 	stcvc	0, cr0, [r2], {1}
 aa8:	000d0c0e 	andeq	r0, sp, lr, lsl #24
 aac:	0000000c 	andeq	r0, r0, ip
 ab0:	00000a9c 	muleq	r0, ip, sl
 ab4:	0000a600 	andeq	sl, r0, r0, lsl #12
 ab8:	00000004 	andeq	r0, r0, r4

Disassembly of section .debug_ranges:

00000000 <.debug_ranges>:
   0:	000001fc 	strdeq	r0, [r0], -ip
   4:	00000234 	andeq	r0, r0, r4, lsr r2
   8:	0000025c 	andeq	r0, r0, ip, asr r2
   c:	000002a4 	andeq	r0, r0, r4, lsr #5
	...
  18:	000000f0 	strdeq	r0, [r0], -r0	; <UNPREDICTABLE>
  1c:	00000114 	andeq	r0, r0, r4, lsl r1
  20:	00000120 	andeq	r0, r0, r0, lsr #2
  24:	000001c4 	andeq	r0, r0, r4, asr #3
	...
  30:	000000f0 	strdeq	r0, [r0], -r0	; <UNPREDICTABLE>
  34:	000000f8 	strdeq	r0, [r0], -r8
  38:	00000124 	andeq	r0, r0, r4, lsr #2
  3c:	00000140 	andeq	r0, r0, r0, asr #2
	...
  48:	000000f8 	strdeq	r0, [r0], -r8
  4c:	00000114 	andeq	r0, r0, r4, lsl r1
  50:	00000148 	andeq	r0, r0, r8, asr #2
  54:	000001c4 	andeq	r0, r0, r4, asr #3
	...
  60:	000002e0 	andeq	r0, r0, r0, ror #5
  64:	000002e8 	andeq	r0, r0, r8, ror #5
  68:	000002f4 	strdeq	r0, [r0], -r4
  6c:	00000350 	andeq	r0, r0, r0, asr r3
	...
  78:	000003ec 	andeq	r0, r0, ip, ror #7
  7c:	000003f4 	strdeq	r0, [r0], -r4
  80:	00000400 	andeq	r0, r0, r0, lsl #8
  84:	00000470 	andeq	r0, r0, r0, ror r4
	...
  90:	00000588 	andeq	r0, r0, r8, lsl #11
  94:	0000058c 	andeq	r0, r0, ip, lsl #11
  98:	00000590 	muleq	r0, r0, r5
  9c:	000005b4 			; <UNDEFINED> instruction: 0x000005b4
	...
  a8:	000005d4 	ldrdeq	r0, [r0], -r4
  ac:	000005dc 	ldrdeq	r0, [r0], -ip
  b0:	000005e0 	andeq	r0, r0, r0, ror #11
  b4:	00000688 	andeq	r0, r0, r8, lsl #13
	...
  c0:	000005e4 	andeq	r0, r0, r4, ror #11
  c4:	00000604 	andeq	r0, r0, r4, lsl #12
  c8:	00000618 	andeq	r0, r0, r8, lsl r6
  cc:	00000688 	andeq	r0, r0, r8, lsl #13
	...
  d8:	000005e4 	andeq	r0, r0, r4, ror #11
  dc:	00000600 	andeq	r0, r0, r0, lsl #12
  e0:	0000066c 	andeq	r0, r0, ip, ror #12
  e4:	00000688 	andeq	r0, r0, r8, lsl #13
	...
  f0:	00000014 	andeq	r0, r0, r4, lsl r0
  f4:	00000020 	andeq	r0, r0, r0, lsr #32
  f8:	0000002c 	andeq	r0, r0, ip, lsr #32
  fc:	00000058 	andeq	r0, r0, r8, asr r0
 100:	00000058 	andeq	r0, r0, r8, asr r0
 104:	00000064 	andeq	r0, r0, r4, rrx
	...
 110:	00000014 	andeq	r0, r0, r4, lsl r0
 114:	00000018 	andeq	r0, r0, r8, lsl r0
 118:	0000002c 	andeq	r0, r0, ip, lsr #32
 11c:	0000002c 	andeq	r0, r0, ip, lsr #32
 120:	00000034 	andeq	r0, r0, r4, lsr r0
 124:	00000038 	andeq	r0, r0, r8, lsr r0
 128:	0000003c 	andeq	r0, r0, ip, lsr r0
 12c:	00000050 	andeq	r0, r0, r0, asr r0
	...
 138:	0000002c 	andeq	r0, r0, ip, lsr #32
 13c:	0000002c 	andeq	r0, r0, ip, lsr #32
 140:	00000038 	andeq	r0, r0, r8, lsr r0
 144:	00000038 	andeq	r0, r0, r8, lsr r0
 148:	00000044 	andeq	r0, r0, r4, asr #32
 14c:	0000004c 	andeq	r0, r0, ip, asr #32
	...
 158:	000000a4 	andeq	r0, r0, r4, lsr #1
 15c:	00000148 	andeq	r0, r0, r8, asr #2
 160:	00000158 	andeq	r0, r0, r8, asr r1
 164:	0000015c 	andeq	r0, r0, ip, asr r1
 168:	00000274 	andeq	r0, r0, r4, ror r2
 16c:	00000278 	andeq	r0, r0, r8, ror r2
 170:	0000027c 	andeq	r0, r0, ip, ror r2
 174:	00000280 	andeq	r0, r0, r0, lsl #5
 178:	00000288 	andeq	r0, r0, r8, lsl #5
 17c:	0000029c 	muleq	r0, ip, r2
 180:	000002c0 	andeq	r0, r0, r0, asr #5
 184:	000002cc 	andeq	r0, r0, ip, asr #5
 188:	000002f0 	strdeq	r0, [r0], -r0	; <UNPREDICTABLE>
 18c:	000002f0 	strdeq	r0, [r0], -r0	; <UNPREDICTABLE>
 190:	000002f4 	strdeq	r0, [r0], -r4
 194:	000002f8 	strdeq	r0, [r0], -r8
	...
 1a0:	00000148 	andeq	r0, r0, r8, asr #2
 1a4:	00000158 	andeq	r0, r0, r8, asr r1
 1a8:	0000015c 	andeq	r0, r0, ip, asr r1
 1ac:	0000018c 	andeq	r0, r0, ip, lsl #3
 1b0:	0000029c 	muleq	r0, ip, r2
 1b4:	000002ac 	andeq	r0, r0, ip, lsr #5
	...
 1c0:	000003c8 	andeq	r0, r0, r8, asr #7
 1c4:	000003d0 	ldrdeq	r0, [r0], -r0	; <UNPREDICTABLE>
 1c8:	00000404 	andeq	r0, r0, r4, lsl #8
 1cc:	000004ac 	andeq	r0, r0, ip, lsr #9
 1d0:	000004c0 	andeq	r0, r0, r0, asr #9
 1d4:	00000920 	andeq	r0, r0, r0, lsr #18
 1d8:	00000928 	andeq	r0, r0, r8, lsr #18
 1dc:	000009b4 			; <UNDEFINED> instruction: 0x000009b4
	...
 1e8:	000003c8 	andeq	r0, r0, r8, asr #7
 1ec:	000003d0 	ldrdeq	r0, [r0], -r0	; <UNPREDICTABLE>
 1f0:	00000504 	andeq	r0, r0, r4, lsl #10
 1f4:	000005d0 	ldrdeq	r0, [r0], -r0	; <UNPREDICTABLE>
 1f8:	00000800 	andeq	r0, r0, r0, lsl #16
 1fc:	00000888 	andeq	r0, r0, r8, lsl #17
 200:	00000930 	andeq	r0, r0, r0, lsr r9
 204:	000009b4 			; <UNDEFINED> instruction: 0x000009b4
	...
 210:	00000404 	andeq	r0, r0, r4, lsl #8
 214:	00000408 	andeq	r0, r0, r8, lsl #8
 218:	00000414 	andeq	r0, r0, r4, lsl r4
 21c:	00000414 	andeq	r0, r0, r4, lsl r4
 220:	00000428 	andeq	r0, r0, r8, lsr #8
 224:	0000042c 	andeq	r0, r0, ip, lsr #8
	...
 230:	000005fc 	strdeq	r0, [r0], -ip
 234:	00000700 	andeq	r0, r0, r0, lsl #14
 238:	000007ec 	andeq	r0, r0, ip, ror #15
 23c:	000007f4 	strdeq	r0, [r0], -r4
 240:	00000888 	andeq	r0, r0, r8, lsl #17
 244:	00000894 	muleq	r0, r4, r8
 248:	000008a8 	andeq	r0, r0, r8, lsr #17
 24c:	000008bc 			; <UNDEFINED> instruction: 0x000008bc
 250:	00000910 	andeq	r0, r0, r0, lsl r9
 254:	00000920 	andeq	r0, r0, r0, lsr #18
	...
 260:	00000600 	andeq	r0, r0, r0, lsl #12
 264:	00000604 	andeq	r0, r0, r4, lsl #12
 268:	00000608 	andeq	r0, r0, r8, lsl #12
 26c:	000006b4 			; <UNDEFINED> instruction: 0x000006b4
 270:	000006cc 	andeq	r0, r0, ip, asr #13
 274:	000006d0 	ldrdeq	r0, [r0], -r0	; <UNPREDICTABLE>
 278:	000008a8 	andeq	r0, r0, r8, lsr #17
 27c:	000008b8 			; <UNDEFINED> instruction: 0x000008b8
 280:	00000910 	andeq	r0, r0, r0, lsl r9
 284:	00000920 	andeq	r0, r0, r0, lsr #18
	...
 290:	000006b4 			; <UNDEFINED> instruction: 0x000006b4
 294:	000006cc 	andeq	r0, r0, ip, asr #13
 298:	000006d0 	ldrdeq	r0, [r0], -r0	; <UNPREDICTABLE>
 29c:	00000700 	andeq	r0, r0, r0, lsl #14
 2a0:	000007ec 	andeq	r0, r0, ip, ror #15
 2a4:	000007f4 	strdeq	r0, [r0], -r4
 2a8:	00000888 	andeq	r0, r0, r8, lsl #17
 2ac:	00000894 	muleq	r0, r4, r8
 2b0:	000008b8 			; <UNDEFINED> instruction: 0x000008b8
 2b4:	000008bc 			; <UNDEFINED> instruction: 0x000008bc
	...
 2c0:	00000700 	andeq	r0, r0, r0, lsl #14
 2c4:	00000708 	andeq	r0, r0, r8, lsl #14
 2c8:	0000070c 	andeq	r0, r0, ip, lsl #14
 2cc:	000007ec 	andeq	r0, r0, ip, ror #15
 2d0:	00000894 	muleq	r0, r4, r8
 2d4:	000008a8 	andeq	r0, r0, r8, lsr #17
	...
 2e0:	00000728 	andeq	r0, r0, r8, lsr #14
 2e4:	000007a4 	andeq	r0, r0, r4, lsr #15
 2e8:	000007ac 	andeq	r0, r0, ip, lsr #15
 2ec:	000007b0 			; <UNDEFINED> instruction: 0x000007b0
 2f0:	00000894 	muleq	r0, r4, r8
 2f4:	00000898 	muleq	r0, r8, r8
 2f8:	0000089c 	muleq	r0, ip, r8
 2fc:	000008a0 	andeq	r0, r0, r0, lsr #17
	...
 308:	000007a4 	andeq	r0, r0, r4, lsr #15
 30c:	000007ac 	andeq	r0, r0, ip, lsr #15
 310:	000007b0 			; <UNDEFINED> instruction: 0x000007b0
 314:	000007ec 	andeq	r0, r0, ip, ror #15
 318:	00000898 	muleq	r0, r8, r8
 31c:	0000089c 	muleq	r0, ip, r8
 320:	000008a0 	andeq	r0, r0, r0, lsr #17
 324:	000008a8 	andeq	r0, r0, r8, lsr #17
	...
 330:	000000f0 	strdeq	r0, [r0], -r0	; <UNPREDICTABLE>
 334:	000000f8 	strdeq	r0, [r0], -r8
 338:	000000fc 	strdeq	r0, [r0], -ip
 33c:	00000108 	andeq	r0, r0, r8, lsl #2
	...
 348:	00009c58 	andeq	r9, r0, r8, asr ip
 34c:	00009c58 	andeq	r9, r0, r8, asr ip
 350:	00009c5c 	andeq	r9, r0, ip, asr ip
 354:	00009c64 	andeq	r9, r0, r4, ror #24
	...
 360:	00009c2c 	andeq	r9, r0, ip, lsr #24
 364:	00009cb8 			; <UNDEFINED> instruction: 0x00009cb8
	...
 370:	00000030 	andeq	r0, r0, r0, lsr r0
 374:	00000030 	andeq	r0, r0, r0, lsr r0
 378:	00000038 	andeq	r0, r0, r8, lsr r0
 37c:	0000004c 	andeq	r0, r0, ip, asr #32
	...
 388:	0000004c 	andeq	r0, r0, ip, asr #32
 38c:	00000050 	andeq	r0, r0, r0, asr r0
 390:	00000050 	andeq	r0, r0, r0, asr r0
 394:	00000078 	andeq	r0, r0, r8, ror r0
	...
 3a0:	0000004c 	andeq	r0, r0, ip, asr #32
 3a4:	00000050 	andeq	r0, r0, r0, asr r0
 3a8:	00000050 	andeq	r0, r0, r0, asr r0
 3ac:	00000060 	andeq	r0, r0, r0, rrx
 3b0:	00000064 	andeq	r0, r0, r4, rrx
 3b4:	00000068 	andeq	r0, r0, r8, rrx
	...
 3c0:	0000004c 	andeq	r0, r0, ip, asr #32
 3c4:	00000050 	andeq	r0, r0, r0, asr r0
 3c8:	00000054 	andeq	r0, r0, r4, asr r0
 3cc:	00000060 	andeq	r0, r0, r0, rrx
	...
 3d8:	0000009c 	muleq	r0, ip, r0
 3dc:	000000a0 	andeq	r0, r0, r0, lsr #1
 3e0:	000000a0 	andeq	r0, r0, r0, lsr #1
 3e4:	000000c8 	andeq	r0, r0, r8, asr #1
	...
 3f0:	0000009c 	muleq	r0, ip, r0
 3f4:	000000a0 	andeq	r0, r0, r0, lsr #1
 3f8:	000000a0 	andeq	r0, r0, r0, lsr #1
 3fc:	000000b0 	strheq	r0, [r0], -r0	; <UNPREDICTABLE>
 400:	000000b4 	strheq	r0, [r0], -r4
 404:	000000b8 	strheq	r0, [r0], -r8
	...
 410:	0000009c 	muleq	r0, ip, r0
 414:	000000a0 	andeq	r0, r0, r0, lsr #1
 418:	000000a4 	andeq	r0, r0, r4, lsr #1
 41c:	000000b0 	strheq	r0, [r0], -r0	; <UNPREDICTABLE>
	...
 428:	000000c8 	andeq	r0, r0, r8, asr #1
 42c:	000000c8 	andeq	r0, r0, r8, asr #1
 430:	000000cc 	andeq	r0, r0, ip, asr #1
 434:	0000011c 	andeq	r0, r0, ip, lsl r1
	...
 440:	000000f0 	strdeq	r0, [r0], -r0	; <UNPREDICTABLE>
 444:	000000f4 	strdeq	r0, [r0], -r4
 448:	000000f4 	strdeq	r0, [r0], -r4
 44c:	0000011c 	andeq	r0, r0, ip, lsl r1
	...
 458:	000000f0 	strdeq	r0, [r0], -r0	; <UNPREDICTABLE>
 45c:	000000f4 	strdeq	r0, [r0], -r4
 460:	000000f4 	strdeq	r0, [r0], -r4
 464:	00000104 	andeq	r0, r0, r4, lsl #2
 468:	00000108 	andeq	r0, r0, r8, lsl #2
 46c:	0000010c 	andeq	r0, r0, ip, lsl #2
	...
 478:	000000f0 	strdeq	r0, [r0], -r0	; <UNPREDICTABLE>
 47c:	000000f4 	strdeq	r0, [r0], -r4
 480:	000000f8 	strdeq	r0, [r0], -r8
 484:	00000104 	andeq	r0, r0, r4, lsl #2
	...
 490:	00000134 	andeq	r0, r0, r4, lsr r1
 494:	00000134 	andeq	r0, r0, r4, lsr r1
 498:	00000134 	andeq	r0, r0, r4, lsr r1
 49c:	0000013c 	andeq	r0, r0, ip, lsr r1
	...
 4a8:	0000024c 	andeq	r0, r0, ip, asr #4
 4ac:	00000264 	andeq	r0, r0, r4, ror #4
 4b0:	000002c8 	andeq	r0, r0, r8, asr #5
 4b4:	000002e8 	andeq	r0, r0, r8, ror #5
	...
 4c0:	00000008 	andeq	r0, r0, r8
 4c4:	0000000c 	andeq	r0, r0, ip
 4c8:	00000014 	andeq	r0, r0, r4, lsl r0
 4cc:	00000054 	andeq	r0, r0, r4, asr r0
 4d0:	00000058 	andeq	r0, r0, r8, asr r0
 4d4:	00000060 	andeq	r0, r0, r0, rrx
	...
 4e0:	00000060 	andeq	r0, r0, r0, rrx
 4e4:	00000068 	andeq	r0, r0, r8, rrx
 4e8:	0000006c 	andeq	r0, r0, ip, rrx
 4ec:	000000ac 	andeq	r0, r0, ip, lsr #1
 4f0:	000000b0 	strheq	r0, [r0], -r0	; <UNPREDICTABLE>
 4f4:	000000b8 	strheq	r0, [r0], -r8
	...
 500:	00000068 	andeq	r0, r0, r8, rrx
 504:	00000068 	andeq	r0, r0, r8, rrx
 508:	0000006c 	andeq	r0, r0, ip, rrx
 50c:	000000ac 	andeq	r0, r0, ip, lsr #1
 510:	000000b0 	strheq	r0, [r0], -r0	; <UNPREDICTABLE>
 514:	000000b8 	strheq	r0, [r0], -r8
	...
 520:	000000e8 	andeq	r0, r0, r8, ror #1
 524:	000000f0 	strdeq	r0, [r0], -r0	; <UNPREDICTABLE>
 528:	000000f4 	strdeq	r0, [r0], -r4
 52c:	00000134 	andeq	r0, r0, r4, lsr r1
 530:	00000138 	andeq	r0, r0, r8, lsr r1
 534:	00000140 	andeq	r0, r0, r0, asr #2
	...
 540:	000000f0 	strdeq	r0, [r0], -r0	; <UNPREDICTABLE>
 544:	000000f0 	strdeq	r0, [r0], -r0	; <UNPREDICTABLE>
 548:	000000f4 	strdeq	r0, [r0], -r4
 54c:	00000134 	andeq	r0, r0, r4, lsr r1
 550:	00000138 	andeq	r0, r0, r8, lsr r1
 554:	00000140 	andeq	r0, r0, r0, asr #2
	...
 560:	00000144 	andeq	r0, r0, r4, asr #2
 564:	00000148 	andeq	r0, r0, r8, asr #2
 568:	00000150 	andeq	r0, r0, r0, asr r1
 56c:	0000015c 	andeq	r0, r0, ip, asr r1
	...
