
driver.elf:     file format elf32-littlearm


Disassembly of section .text:

00008000 <__code_start__>:
    8000:	e3a00013 	mov	r0, #19, 0
    8004:	e3800080 	orr	r0, r0, #128, 0	; 0x80
    8008:	e129f000 	msr	CPSR_fc, r0
    800c:	e3a01000 	mov	r1, #0, 0
    8010:	ee071f95 	mcr	15, 0, r1, cr7, cr5, {4}
    8014:	e3a0d302 	mov	sp, #134217728	; 0x8000000
    8018:	e3a0b000 	mov	fp, #0, 0
    801c:	eb00054b 	bl	9550 <_cstart>
    8020:	eb0005a6 	bl	96c0 <rpi_reboot>

00008024 <PUT32>:
    8024:	e5801000 	str	r1, [r0]
    8028:	e12fff1e 	bx	lr

0000802c <GET32>:
    802c:	e5900000 	ldr	r0, [r0]
    8030:	e12fff1e 	bx	lr

00008034 <BRANCHTO>:
    8034:	e12fff10 	bx	r0

00008038 <notmain>:
    8038:	e92d41f0 	push	{r4, r5, r6, r7, r8, lr}
    803c:	eb00005d 	bl	81b8 <ads1115_config>
    8040:	e1a07000 	mov	r7, r0
    8044:	e3a03001 	mov	r3, #1, 0
    8048:	ee0f3f1c 	mcr	15, 0, r3, cr15, cr12, {0}
    804c:	e3a06000 	mov	r6, #0, 0
    8050:	ea00000a 	b	8080 <notmain+0x48>
    8054:	e59f006c 	ldr	r0, [pc, #108]	; 80c8 <notmain+0x90>
    8058:	eb000291 	bl	8aa4 <printk>
    805c:	eb000530 	bl	9524 <clean_reboot>
    8060:	e59f0064 	ldr	r0, [pc, #100]	; 80cc <notmain+0x94>
    8064:	eb00028e 	bl	8aa4 <printk>
    8068:	e28440c8 	add	r4, r4, #200, 0	; 0xc8
    806c:	e1550004 	cmp	r5, r4
    8070:	cafffffa 	bgt	8060 <notmain+0x28>
    8074:	e59f0054 	ldr	r0, [pc, #84]	; 80d0 <notmain+0x98>
    8078:	eb000289 	bl	8aa4 <printk>
    807c:	e2866001 	add	r6, r6, #1, 0
    8080:	e59f304c 	ldr	r3, [pc, #76]	; 80d4 <notmain+0x9c>
    8084:	e1560003 	cmp	r6, r3
    8088:	cafffff3 	bgt	805c <notmain+0x24>
    808c:	e3a01000 	mov	r1, #0, 0
    8090:	e1a00007 	mov	r0, r7
    8094:	eb000026 	bl	8134 <ads1115_read16>
    8098:	e6bf5070 	sxth	r5, r0
    809c:	ee1f4f3c 	mrc	15, 0, r4, cr15, cr12, {1}
    80a0:	e59f0030 	ldr	r0, [pc, #48]	; 80d8 <notmain+0xa0>
    80a4:	eb000032 	bl	8174 <ads1115_wait_for_data>
    80a8:	e3500000 	cmp	r0, #0, 0
    80ac:	0affffe8 	beq	8054 <notmain+0x1c>
    80b0:	ee1f1f3c 	mrc	15, 0, r1, cr15, cr12, {1}
    80b4:	e0411004 	sub	r1, r1, r4
    80b8:	e59f001c 	ldr	r0, [pc, #28]	; 80dc <notmain+0xa4>
    80bc:	eb000278 	bl	8aa4 <printk>
    80c0:	e3a04000 	mov	r4, #0, 0
    80c4:	eaffffe8 	b	806c <notmain+0x34>
    80c8:	00009ae8 	andeq	r9, r0, r8, ror #21
    80cc:	00009b08 	andeq	r9, r0, r8, lsl #22
    80d0:	00009e38 	andeq	r9, r0, r8, lsr lr
    80d4:	0000270f 	andeq	r2, r0, pc, lsl #14
    80d8:	000186a0 	andeq	r8, r1, r0, lsr #13
    80dc:	00009b04 	andeq	r9, r0, r4, lsl #22

000080e0 <ads1115_reset>:
    80e0:	e52de004 	push	{lr}		; (str lr, [sp, #-4]!)
    80e4:	e24dd00c 	sub	sp, sp, #12, 0
    80e8:	e3a03006 	mov	r3, #6, 0
    80ec:	e5cd3007 	strb	r3, [sp, #7]
    80f0:	e3a02001 	mov	r2, #1, 0
    80f4:	e28d1007 	add	r1, sp, #7, 0
    80f8:	e3a00000 	mov	r0, #0, 0
    80fc:	eb000172 	bl	86cc <i2c_write>
    8100:	e28dd00c 	add	sp, sp, #12, 0
    8104:	e49df004 	pop	{pc}		; (ldr pc, [sp], #4)

00008108 <ads1115_write16>:
    8108:	e52de004 	push	{lr}		; (str lr, [sp, #-4]!)
    810c:	e24dd00c 	sub	sp, sp, #12, 0
    8110:	e5cd1004 	strb	r1, [sp, #4]
    8114:	e1a03422 	lsr	r3, r2, #8
    8118:	e5cd3005 	strb	r3, [sp, #5]
    811c:	e5cd2006 	strb	r2, [sp, #6]
    8120:	e3a02003 	mov	r2, #3, 0
    8124:	e28d1004 	add	r1, sp, #4, 0
    8128:	eb000167 	bl	86cc <i2c_write>
    812c:	e28dd00c 	add	sp, sp, #12, 0
    8130:	e49df004 	pop	{pc}		; (ldr pc, [sp], #4)

00008134 <ads1115_read16>:
    8134:	e92d4010 	push	{r4, lr}
    8138:	e24dd010 	sub	sp, sp, #16, 0
    813c:	e1a04000 	mov	r4, r0
    8140:	e5cd1007 	strb	r1, [sp, #7]
    8144:	e3a02001 	mov	r2, #1, 0
    8148:	e28d1007 	add	r1, sp, #7, 0
    814c:	eb00015e 	bl	86cc <i2c_write>
    8150:	e3a02002 	mov	r2, #2, 0
    8154:	e28d100c 	add	r1, sp, #12, 0
    8158:	e1a00004 	mov	r0, r4
    815c:	eb000189 	bl	8788 <i2c_read>
    8160:	e5dd000c 	ldrb	r0, [sp, #12]
    8164:	e5dd300d 	ldrb	r3, [sp, #13]
    8168:	e1830400 	orr	r0, r3, r0, lsl #8
    816c:	e28dd010 	add	sp, sp, #16, 0
    8170:	e8bd8010 	pop	{r4, pc}

00008174 <ads1115_wait_for_data>:
    8174:	e92d4070 	push	{r4, r5, r6, lr}
    8178:	e1a06000 	mov	r6, r0
    817c:	eb00056a 	bl	972c <timer_get_usec>
    8180:	e1a05000 	mov	r5, r0
    8184:	eb000568 	bl	972c <timer_get_usec>
    8188:	e1a04000 	mov	r4, r0
    818c:	e3a00019 	mov	r0, #25, 0
    8190:	eb000239 	bl	8a7c <gpio_read>
    8194:	e3500000 	cmp	r0, #0, 0
    8198:	1a000004 	bne	81b0 <ads1115_wait_for_data+0x3c>
    819c:	e0440005 	sub	r0, r4, r5
    81a0:	e1500006 	cmp	r0, r6
    81a4:	3afffff6 	bcc	8184 <ads1115_wait_for_data+0x10>
    81a8:	e3a00000 	mov	r0, #0, 0
    81ac:	e8bd8070 	pop	{r4, r5, r6, pc}
    81b0:	e3a00001 	mov	r0, #1, 0
    81b4:	e8bd8070 	pop	{r4, r5, r6, pc}

000081b8 <ads1115_config>:
    81b8:	e92d4030 	push	{r4, r5, lr}
    81bc:	e24dd00c 	sub	sp, sp, #12, 0
    81c0:	e3a0001e 	mov	r0, #30, 0
    81c4:	eb000573 	bl	9798 <delay_ms>
    81c8:	eb0001a1 	bl	8854 <i2c_init>
    81cc:	e3a0001e 	mov	r0, #30, 0
    81d0:	eb000570 	bl	9798 <delay_ms>
    81d4:	e3a00019 	mov	r0, #25, 0
    81d8:	eb000205 	bl	89f4 <gpio_set_input>
    81dc:	ebffffbf 	bl	80e0 <ads1115_reset>
    81e0:	e3a00019 	mov	r0, #25, 0
    81e4:	eb000559 	bl	9750 <delay_us>
    81e8:	e3a01001 	mov	r1, #1, 0
    81ec:	e3a00048 	mov	r0, #72, 0	; 0x48
    81f0:	ebffffcf 	bl	8134 <ads1115_read16>
    81f4:	e1a04000 	mov	r4, r0
    81f8:	e1a05420 	lsr	r5, r0, #8
    81fc:	e6ff3075 	uxth	r3, r5
    8200:	e6ef2070 	uxtb	r2, r0
    8204:	e1a01000 	mov	r1, r0
    8208:	e59f0154 	ldr	r0, [pc, #340]	; 8364 <ads1115_config+0x1ac>
    820c:	eb000224 	bl	8aa4 <printk>
    8210:	e3150001 	tst	r5, #1, 0
    8214:	0a00001c 	beq	828c <ads1115_config+0xd4>
    8218:	e1a032a4 	lsr	r3, r4, #5
    821c:	e2033007 	and	r3, r3, #7, 0
    8220:	e3530004 	cmp	r3, #4, 0
    8224:	1a000021 	bne	82b0 <ads1115_config+0xf8>
    8228:	e1a044a4 	lsr	r4, r4, #9
    822c:	e2044007 	and	r4, r4, #7, 0
    8230:	e3540002 	cmp	r4, #2, 0
    8234:	1a000026 	bne	82d4 <ads1115_config+0x11c>
    8238:	e3a01c02 	mov	r1, #512	; 0x200
    823c:	e59f0124 	ldr	r0, [pc, #292]	; 8368 <ads1115_config+0x1b0>
    8240:	eb000217 	bl	8aa4 <printk>
    8244:	e3a02c02 	mov	r2, #512	; 0x200
    8248:	e3a01001 	mov	r1, #1, 0
    824c:	e3a00048 	mov	r0, #72, 0	; 0x48
    8250:	ebffffac 	bl	8108 <ads1115_write16>
    8254:	e3a01001 	mov	r1, #1, 0
    8258:	e3a00048 	mov	r0, #72, 0	; 0x48
    825c:	ebffffb4 	bl	8134 <ads1115_read16>
    8260:	e1a034a0 	lsr	r3, r0, #9
    8264:	e2033007 	and	r3, r3, #7, 0
    8268:	e3530001 	cmp	r3, #1, 0
    826c:	1a000021 	bne	82f8 <ads1115_config+0x140>
    8270:	e3100c01 	tst	r0, #256	; 0x100
    8274:	1a000028 	bne	831c <ads1115_config+0x164>
    8278:	e31000e0 	tst	r0, #224, 0	; 0xe0
    827c:	1a00002f 	bne	8340 <ads1115_config+0x188>
    8280:	e3a00048 	mov	r0, #72, 0	; 0x48
    8284:	e28dd00c 	add	sp, sp, #12, 0
    8288:	e8bd8030 	pop	{r4, r5, pc}
    828c:	eb00021f 	bl	8b10 <rpi_reset_putc>
    8290:	e59f30d4 	ldr	r3, [pc, #212]	; 836c <ads1115_config+0x1b4>
    8294:	e58d3000 	str	r3, [sp]
    8298:	e3a03077 	mov	r3, #119, 0	; 0x77
    829c:	e59f20cc 	ldr	r2, [pc, #204]	; 8370 <ads1115_config+0x1b8>
    82a0:	e59f10cc 	ldr	r1, [pc, #204]	; 8374 <ads1115_config+0x1bc>
    82a4:	e59f00cc 	ldr	r0, [pc, #204]	; 8378 <ads1115_config+0x1c0>
    82a8:	eb0001fd 	bl	8aa4 <printk>
    82ac:	eb00049c 	bl	9524 <clean_reboot>
    82b0:	eb000216 	bl	8b10 <rpi_reset_putc>
    82b4:	e59f30c0 	ldr	r3, [pc, #192]	; 837c <ads1115_config+0x1c4>
    82b8:	e58d3000 	str	r3, [sp]
    82bc:	e3a03078 	mov	r3, #120, 0	; 0x78
    82c0:	e59f20a8 	ldr	r2, [pc, #168]	; 8370 <ads1115_config+0x1b8>
    82c4:	e59f10a8 	ldr	r1, [pc, #168]	; 8374 <ads1115_config+0x1bc>
    82c8:	e59f00a8 	ldr	r0, [pc, #168]	; 8378 <ads1115_config+0x1c0>
    82cc:	eb0001f4 	bl	8aa4 <printk>
    82d0:	eb000493 	bl	9524 <clean_reboot>
    82d4:	eb00020d 	bl	8b10 <rpi_reset_putc>
    82d8:	e59f30a0 	ldr	r3, [pc, #160]	; 8380 <ads1115_config+0x1c8>
    82dc:	e58d3000 	str	r3, [sp]
    82e0:	e3a03079 	mov	r3, #121, 0	; 0x79
    82e4:	e59f2084 	ldr	r2, [pc, #132]	; 8370 <ads1115_config+0x1b8>
    82e8:	e59f1084 	ldr	r1, [pc, #132]	; 8374 <ads1115_config+0x1bc>
    82ec:	e59f0084 	ldr	r0, [pc, #132]	; 8378 <ads1115_config+0x1c0>
    82f0:	eb0001eb 	bl	8aa4 <printk>
    82f4:	eb00048a 	bl	9524 <clean_reboot>
    82f8:	eb000204 	bl	8b10 <rpi_reset_putc>
    82fc:	e59f3080 	ldr	r3, [pc, #128]	; 8384 <ads1115_config+0x1cc>
    8300:	e58d3000 	str	r3, [sp]
    8304:	e3a0308b 	mov	r3, #139, 0	; 0x8b
    8308:	e59f2060 	ldr	r2, [pc, #96]	; 8370 <ads1115_config+0x1b8>
    830c:	e59f1060 	ldr	r1, [pc, #96]	; 8374 <ads1115_config+0x1bc>
    8310:	e59f0070 	ldr	r0, [pc, #112]	; 8388 <ads1115_config+0x1d0>
    8314:	eb0001e2 	bl	8aa4 <printk>
    8318:	eb000481 	bl	9524 <clean_reboot>
    831c:	eb0001fb 	bl	8b10 <rpi_reset_putc>
    8320:	e59f3064 	ldr	r3, [pc, #100]	; 838c <ads1115_config+0x1d4>
    8324:	e58d3000 	str	r3, [sp]
    8328:	e3a0308c 	mov	r3, #140, 0	; 0x8c
    832c:	e59f203c 	ldr	r2, [pc, #60]	; 8370 <ads1115_config+0x1b8>
    8330:	e59f103c 	ldr	r1, [pc, #60]	; 8374 <ads1115_config+0x1bc>
    8334:	e59f004c 	ldr	r0, [pc, #76]	; 8388 <ads1115_config+0x1d0>
    8338:	eb0001d9 	bl	8aa4 <printk>
    833c:	eb000478 	bl	9524 <clean_reboot>
    8340:	eb0001f2 	bl	8b10 <rpi_reset_putc>
    8344:	e59f3044 	ldr	r3, [pc, #68]	; 8390 <ads1115_config+0x1d8>
    8348:	e58d3000 	str	r3, [sp]
    834c:	e3a0308d 	mov	r3, #141, 0	; 0x8d
    8350:	e59f2018 	ldr	r2, [pc, #24]	; 8370 <ads1115_config+0x1b8>
    8354:	e59f1018 	ldr	r1, [pc, #24]	; 8374 <ads1115_config+0x1bc>
    8358:	e59f0028 	ldr	r0, [pc, #40]	; 8388 <ads1115_config+0x1d0>
    835c:	eb0001d0 	bl	8aa4 <printk>
    8360:	eb00046f 	bl	9524 <clean_reboot>
    8364:	00009b0c 	andeq	r9, r0, ip, lsl #22
    8368:	00009bbc 			; <UNDEFINED> instruction: 0x00009bbc
    836c:	00009b78 	andeq	r9, r0, r8, ror fp
    8370:	00009c48 	andeq	r9, r0, r8, asr #24
    8374:	00009b38 	andeq	r9, r0, r8, lsr fp
    8378:	00009b44 	andeq	r9, r0, r4, asr #22
    837c:	00009b88 	andeq	r9, r0, r8, lsl #23
    8380:	00009ba0 	andeq	r9, r0, r0, lsr #23
    8384:	00009c00 	andeq	r9, r0, r0, lsl #24
    8388:	00009bd4 	ldrdeq	r9, [r0], -r4
    838c:	00009c1c 	andeq	r9, r0, ip, lsl ip
    8390:	00009c30 	andeq	r9, r0, r0, lsr ip

00008394 <clear_c>:
    8394:	e3c00b1e 	bic	r0, r0, #30720	; 0x7800
    8398:	e3c0004e 	bic	r0, r0, #78, 0	; 0x4e
    839c:	e6ff0070 	uxth	r0, r0
    83a0:	e12fff1e 	bx	lr

000083a4 <clear_s>:
    83a4:	e1a00b00 	lsl	r0, r0, #22
    83a8:	e1a00b20 	lsr	r0, r0, #22
    83ac:	e12fff1e 	bx	lr

000083b0 <xfer_end>:
    83b0:	e52de004 	push	{lr}		; (str lr, [sp, #-4]!)
    83b4:	e24dd00c 	sub	sp, sp, #12, 0
    83b8:	e59f30c4 	ldr	r3, [pc, #196]	; 8484 <xfer_end+0xd4>
    83bc:	e5933004 	ldr	r3, [r3, #4]
    83c0:	e3130002 	tst	r3, #2, 0
    83c4:	1a000013 	bne	8418 <xfer_end+0x68>
    83c8:	e59f30b4 	ldr	r3, [pc, #180]	; 8484 <xfer_end+0xd4>
    83cc:	e5933004 	ldr	r3, [r3, #4]
    83d0:	e3130c01 	tst	r3, #256	; 0x100
    83d4:	1a000009 	bne	8400 <xfer_end+0x50>
    83d8:	e59f30a4 	ldr	r3, [pc, #164]	; 8484 <xfer_end+0xd4>
    83dc:	e5933004 	ldr	r3, [r3, #4]
    83e0:	e3130c02 	tst	r3, #512	; 0x200
    83e4:	0afffff3 	beq	83b8 <xfer_end+0x8>
    83e8:	e59f3098 	ldr	r3, [pc, #152]	; 8488 <xfer_end+0xd8>
    83ec:	e59f2098 	ldr	r2, [pc, #152]	; 848c <xfer_end+0xdc>
    83f0:	e59f1098 	ldr	r1, [pc, #152]	; 8490 <xfer_end+0xe0>
    83f4:	e59f0098 	ldr	r0, [pc, #152]	; 8494 <xfer_end+0xe4>
    83f8:	eb0001a9 	bl	8aa4 <printk>
    83fc:	eb000448 	bl	9524 <clean_reboot>
    8400:	e59f3080 	ldr	r3, [pc, #128]	; 8488 <xfer_end+0xd8>
    8404:	e59f2080 	ldr	r2, [pc, #128]	; 848c <xfer_end+0xdc>
    8408:	e59f1080 	ldr	r1, [pc, #128]	; 8490 <xfer_end+0xe0>
    840c:	e59f0084 	ldr	r0, [pc, #132]	; 8498 <xfer_end+0xe8>
    8410:	eb0001a3 	bl	8aa4 <printk>
    8414:	eb000442 	bl	9524 <clean_reboot>
    8418:	e59f3064 	ldr	r3, [pc, #100]	; 8484 <xfer_end+0xd4>
    841c:	e5933004 	ldr	r3, [r3, #4]
    8420:	e3130001 	tst	r3, #1, 0
    8424:	1a000006 	bne	8444 <xfer_end+0x94>
    8428:	e59f3054 	ldr	r3, [pc, #84]	; 8484 <xfer_end+0xd4>
    842c:	e5933004 	ldr	r3, [r3, #4]
    8430:	e3130c01 	tst	r3, #256	; 0x100
    8434:	1a00000a 	bne	8464 <xfer_end+0xb4>
    8438:	eb00048f 	bl	967c <dev_barrier>
    843c:	e28dd00c 	add	sp, sp, #12, 0
    8440:	e49df004 	pop	{pc}		; (ldr pc, [sp], #4)
    8444:	e59f3050 	ldr	r3, [pc, #80]	; 849c <xfer_end+0xec>
    8448:	e58d3000 	str	r3, [sp]
    844c:	e59f304c 	ldr	r3, [pc, #76]	; 84a0 <xfer_end+0xf0>
    8450:	e59f2034 	ldr	r2, [pc, #52]	; 848c <xfer_end+0xdc>
    8454:	e59f1034 	ldr	r1, [pc, #52]	; 8490 <xfer_end+0xe0>
    8458:	e59f0044 	ldr	r0, [pc, #68]	; 84a4 <xfer_end+0xf4>
    845c:	eb000190 	bl	8aa4 <printk>
    8460:	eb00042f 	bl	9524 <clean_reboot>
    8464:	e59f303c 	ldr	r3, [pc, #60]	; 84a8 <xfer_end+0xf8>
    8468:	e58d3000 	str	r3, [sp]
    846c:	e59f3038 	ldr	r3, [pc, #56]	; 84ac <xfer_end+0xfc>
    8470:	e59f2014 	ldr	r2, [pc, #20]	; 848c <xfer_end+0xdc>
    8474:	e59f1014 	ldr	r1, [pc, #20]	; 8490 <xfer_end+0xe0>
    8478:	e59f0024 	ldr	r0, [pc, #36]	; 84a4 <xfer_end+0xf4>
    847c:	eb000188 	bl	8aa4 <printk>
    8480:	eb000427 	bl	9524 <clean_reboot>
    8484:	20804000 	addcs	r4, r0, r0
    8488:	00000116 	andeq	r0, r0, r6, lsl r1
    848c:	00009d38 	andeq	r9, r0, r8, lsr sp
    8490:	00009c58 	andeq	r9, r0, r8, asr ip
    8494:	00009c88 	andeq	r9, r0, r8, lsl #25
    8498:	00009c64 	andeq	r9, r0, r4, ror #24
    849c:	00009ccc 	andeq	r9, r0, ip, asr #25
    84a0:	00000119 	andeq	r0, r0, r9, lsl r1
    84a4:	00009cb8 			; <UNDEFINED> instruction: 0x00009cb8
    84a8:	00009ce0 	andeq	r9, r0, r0, ror #25
    84ac:	0000011b 	andeq	r0, r0, fp, lsl r1

000084b0 <read_s>:
    84b0:	e92d4010 	push	{r4, lr}
    84b4:	ebfffedc 	bl	802c <GET32>
    84b8:	ebffffb9 	bl	83a4 <clear_s>
    84bc:	e8bd8010 	pop	{r4, pc}

000084c0 <reset_status>:
    84c0:	e92d4010 	push	{r4, lr}
    84c4:	e59f4018 	ldr	r4, [pc, #24]	; 84e4 <reset_status+0x24>
    84c8:	e1a00004 	mov	r0, r4
    84cc:	ebfffff7 	bl	84b0 <read_s>
    84d0:	e3801c03 	orr	r1, r0, #768	; 0x300
    84d4:	e3811002 	orr	r1, r1, #2, 0
    84d8:	e1a00004 	mov	r0, r4
    84dc:	ebfffed0 	bl	8024 <PUT32>
    84e0:	e8bd8010 	pop	{r4, pc}
    84e4:	20804004 	addcs	r4, r0, r4

000084e8 <read_c>:
    84e8:	e92d4010 	push	{r4, lr}
    84ec:	ebfffece 	bl	802c <GET32>
    84f0:	ebffffa7 	bl	8394 <clear_c>
    84f4:	e8bd8010 	pop	{r4, pc}

000084f8 <xfer_start>:
    84f8:	e92d4070 	push	{r4, r5, r6, lr}
    84fc:	e24dd008 	sub	sp, sp, #8, 0
    8500:	e1a06000 	mov	r6, r0
    8504:	e1a05001 	mov	r5, r1
    8508:	e1a04002 	mov	r4, r2
    850c:	eb00045a 	bl	967c <dev_barrier>
    8510:	e59f3180 	ldr	r3, [pc, #384]	; 8698 <xfer_start+0x1a0>
    8514:	e5933004 	ldr	r3, [r3, #4]
    8518:	e3130001 	tst	r3, #1, 0
    851c:	0a000013 	beq	8570 <xfer_start+0x78>
    8520:	e59f3170 	ldr	r3, [pc, #368]	; 8698 <xfer_start+0x1a0>
    8524:	e5933004 	ldr	r3, [r3, #4]
    8528:	e3130c01 	tst	r3, #256	; 0x100
    852c:	1a000009 	bne	8558 <xfer_start+0x60>
    8530:	e59f3160 	ldr	r3, [pc, #352]	; 8698 <xfer_start+0x1a0>
    8534:	e5933004 	ldr	r3, [r3, #4]
    8538:	e3130c02 	tst	r3, #512	; 0x200
    853c:	0afffff3 	beq	8510 <xfer_start+0x18>
    8540:	e3a030f6 	mov	r3, #246, 0	; 0xf6
    8544:	e59f2150 	ldr	r2, [pc, #336]	; 869c <xfer_start+0x1a4>
    8548:	e59f1150 	ldr	r1, [pc, #336]	; 86a0 <xfer_start+0x1a8>
    854c:	e59f0150 	ldr	r0, [pc, #336]	; 86a4 <xfer_start+0x1ac>
    8550:	eb000153 	bl	8aa4 <printk>
    8554:	eb0003f2 	bl	9524 <clean_reboot>
    8558:	e3a030f6 	mov	r3, #246, 0	; 0xf6
    855c:	e59f2138 	ldr	r2, [pc, #312]	; 869c <xfer_start+0x1a4>
    8560:	e59f1138 	ldr	r1, [pc, #312]	; 86a0 <xfer_start+0x1a8>
    8564:	e59f013c 	ldr	r0, [pc, #316]	; 86a8 <xfer_start+0x1b0>
    8568:	eb00014d 	bl	8aa4 <printk>
    856c:	eb0003ec 	bl	9524 <clean_reboot>
    8570:	e59f3120 	ldr	r3, [pc, #288]	; 8698 <xfer_start+0x1a0>
    8574:	e5933004 	ldr	r3, [r3, #4]
    8578:	e3130040 	tst	r3, #64, 0	; 0x40
    857c:	0a000025 	beq	8618 <xfer_start+0x120>
    8580:	ebffffce 	bl	84c0 <reset_status>
    8584:	e1b033a6 	lsrs	r3, r6, #7
    8588:	1a00002a 	bne	8638 <xfer_start+0x140>
    858c:	e1a01006 	mov	r1, r6
    8590:	e59f0114 	ldr	r0, [pc, #276]	; 86ac <xfer_start+0x1b4>
    8594:	ebfffea2 	bl	8024 <PUT32>
    8598:	e1b03825 	lsrs	r3, r5, #16
    859c:	1a00002d 	bne	8658 <xfer_start+0x160>
    85a0:	e1a01005 	mov	r1, r5
    85a4:	e59f0104 	ldr	r0, [pc, #260]	; 86b0 <xfer_start+0x1b8>
    85a8:	ebfffe9d 	bl	8024 <PUT32>
    85ac:	e59f50e4 	ldr	r5, [pc, #228]	; 8698 <xfer_start+0x1a0>
    85b0:	e1a00005 	mov	r0, r5
    85b4:	ebffffcb 	bl	84e8 <read_c>
    85b8:	e38030b0 	orr	r3, r0, #176, 0	; 0xb0
    85bc:	e2041001 	and	r1, r4, #1, 0
    85c0:	e3c33001 	bic	r3, r3, #1, 0
    85c4:	e1811003 	orr	r1, r1, r3
    85c8:	e1a00005 	mov	r0, r5
    85cc:	ebfffe94 	bl	8024 <PUT32>
    85d0:	e59f30c0 	ldr	r3, [pc, #192]	; 8698 <xfer_start+0x1a0>
    85d4:	e5933004 	ldr	r3, [r3, #4]
    85d8:	e3130001 	tst	r3, #1, 0
    85dc:	1a00002b 	bne	8690 <xfer_start+0x198>
    85e0:	e59f30b0 	ldr	r3, [pc, #176]	; 8698 <xfer_start+0x1a0>
    85e4:	e5933004 	ldr	r3, [r3, #4]
    85e8:	e3130c01 	tst	r3, #256	; 0x100
    85ec:	1a000021 	bne	8678 <xfer_start+0x180>
    85f0:	e59f30a0 	ldr	r3, [pc, #160]	; 8698 <xfer_start+0x1a0>
    85f4:	e5933004 	ldr	r3, [r3, #4]
    85f8:	e3130c02 	tst	r3, #512	; 0x200
    85fc:	0afffff3 	beq	85d0 <xfer_start+0xd8>
    8600:	e59f30ac 	ldr	r3, [pc, #172]	; 86b4 <xfer_start+0x1bc>
    8604:	e59f2090 	ldr	r2, [pc, #144]	; 869c <xfer_start+0x1a4>
    8608:	e59f1090 	ldr	r1, [pc, #144]	; 86a0 <xfer_start+0x1a8>
    860c:	e59f0090 	ldr	r0, [pc, #144]	; 86a4 <xfer_start+0x1ac>
    8610:	eb000123 	bl	8aa4 <printk>
    8614:	eb0003c2 	bl	9524 <clean_reboot>
    8618:	e59f3098 	ldr	r3, [pc, #152]	; 86b8 <xfer_start+0x1c0>
    861c:	e58d3000 	str	r3, [sp]
    8620:	e3a030f9 	mov	r3, #249, 0	; 0xf9
    8624:	e59f2070 	ldr	r2, [pc, #112]	; 869c <xfer_start+0x1a4>
    8628:	e59f1070 	ldr	r1, [pc, #112]	; 86a0 <xfer_start+0x1a8>
    862c:	e59f0088 	ldr	r0, [pc, #136]	; 86bc <xfer_start+0x1c4>
    8630:	eb00011b 	bl	8aa4 <printk>
    8634:	eb0003ba 	bl	9524 <clean_reboot>
    8638:	e59f3080 	ldr	r3, [pc, #128]	; 86c0 <xfer_start+0x1c8>
    863c:	e58d3000 	str	r3, [sp]
    8640:	e3a030fe 	mov	r3, #254, 0	; 0xfe
    8644:	e59f2050 	ldr	r2, [pc, #80]	; 869c <xfer_start+0x1a4>
    8648:	e59f1050 	ldr	r1, [pc, #80]	; 86a0 <xfer_start+0x1a8>
    864c:	e59f0068 	ldr	r0, [pc, #104]	; 86bc <xfer_start+0x1c4>
    8650:	eb000113 	bl	8aa4 <printk>
    8654:	eb0003b2 	bl	9524 <clean_reboot>
    8658:	e59f3064 	ldr	r3, [pc, #100]	; 86c4 <xfer_start+0x1cc>
    865c:	e58d3000 	str	r3, [sp]
    8660:	e59f3060 	ldr	r3, [pc, #96]	; 86c8 <xfer_start+0x1d0>
    8664:	e59f2030 	ldr	r2, [pc, #48]	; 869c <xfer_start+0x1a4>
    8668:	e59f1030 	ldr	r1, [pc, #48]	; 86a0 <xfer_start+0x1a8>
    866c:	e59f0048 	ldr	r0, [pc, #72]	; 86bc <xfer_start+0x1c4>
    8670:	eb00010b 	bl	8aa4 <printk>
    8674:	eb0003aa 	bl	9524 <clean_reboot>
    8678:	e59f3034 	ldr	r3, [pc, #52]	; 86b4 <xfer_start+0x1bc>
    867c:	e59f2018 	ldr	r2, [pc, #24]	; 869c <xfer_start+0x1a4>
    8680:	e59f1018 	ldr	r1, [pc, #24]	; 86a0 <xfer_start+0x1a8>
    8684:	e59f001c 	ldr	r0, [pc, #28]	; 86a8 <xfer_start+0x1b0>
    8688:	eb000105 	bl	8aa4 <printk>
    868c:	eb0003a4 	bl	9524 <clean_reboot>
    8690:	e28dd008 	add	sp, sp, #8, 0
    8694:	e8bd8070 	pop	{r4, r5, r6, pc}
    8698:	20804000 	addcs	r4, r0, r0
    869c:	00009d44 	andeq	r9, r0, r4, asr #26
    86a0:	00009c58 	andeq	r9, r0, r8, asr ip
    86a4:	00009c88 	andeq	r9, r0, r8, lsl #25
    86a8:	00009c64 	andeq	r9, r0, r4, ror #24
    86ac:	2080400c 	addcs	r4, r0, ip
    86b0:	20804008 	addcs	r4, r0, r8
    86b4:	00000111 	andeq	r0, r0, r1, lsl r1
    86b8:	00009cf4 	strdeq	r9, [r0], -r4
    86bc:	00009cb8 			; <UNDEFINED> instruction: 0x00009cb8
    86c0:	00009d0c 	andeq	r9, r0, ip, lsl #26
    86c4:	00009d20 	andeq	r9, r0, r0, lsr #26
    86c8:	00000102 	andeq	r0, r0, r2, lsl #2

000086cc <i2c_write>:
    86cc:	e92d4070 	push	{r4, r5, r6, lr}
    86d0:	e1a05001 	mov	r5, r1
    86d4:	e1a04002 	mov	r4, r2
    86d8:	e3a02000 	mov	r2, #0, 0
    86dc:	e1a01004 	mov	r1, r4
    86e0:	ebffff84 	bl	84f8 <xfer_start>
    86e4:	e3a02000 	mov	r2, #0, 0
    86e8:	ea000009 	b	8714 <i2c_write+0x48>
    86ec:	e59f307c 	ldr	r3, [pc, #124]	; 8770 <i2c_write+0xa4>
    86f0:	e59f207c 	ldr	r2, [pc, #124]	; 8774 <i2c_write+0xa8>
    86f4:	e59f107c 	ldr	r1, [pc, #124]	; 8778 <i2c_write+0xac>
    86f8:	e59f007c 	ldr	r0, [pc, #124]	; 877c <i2c_write+0xb0>
    86fc:	eb0000e8 	bl	8aa4 <printk>
    8700:	eb000387 	bl	9524 <clean_reboot>
    8704:	e7d51002 	ldrb	r1, [r5, r2]
    8708:	e59f3070 	ldr	r3, [pc, #112]	; 8780 <i2c_write+0xb4>
    870c:	e5831010 	str	r1, [r3, #16]
    8710:	e2822001 	add	r2, r2, #1, 0
    8714:	e1520004 	cmp	r2, r4
    8718:	2a000011 	bcs	8764 <i2c_write+0x98>
    871c:	e59f305c 	ldr	r3, [pc, #92]	; 8780 <i2c_write+0xb4>
    8720:	e5933004 	ldr	r3, [r3, #4]
    8724:	e3130010 	tst	r3, #16, 0
    8728:	1afffff5 	bne	8704 <i2c_write+0x38>
    872c:	e59f304c 	ldr	r3, [pc, #76]	; 8780 <i2c_write+0xb4>
    8730:	e5933004 	ldr	r3, [r3, #4]
    8734:	e3130c01 	tst	r3, #256	; 0x100
    8738:	1affffeb 	bne	86ec <i2c_write+0x20>
    873c:	e59f303c 	ldr	r3, [pc, #60]	; 8780 <i2c_write+0xb4>
    8740:	e5933004 	ldr	r3, [r3, #4]
    8744:	e3130c02 	tst	r3, #512	; 0x200
    8748:	0afffff3 	beq	871c <i2c_write+0x50>
    874c:	e59f301c 	ldr	r3, [pc, #28]	; 8770 <i2c_write+0xa4>
    8750:	e59f201c 	ldr	r2, [pc, #28]	; 8774 <i2c_write+0xa8>
    8754:	e59f101c 	ldr	r1, [pc, #28]	; 8778 <i2c_write+0xac>
    8758:	e59f0024 	ldr	r0, [pc, #36]	; 8784 <i2c_write+0xb8>
    875c:	eb0000d0 	bl	8aa4 <printk>
    8760:	eb00036f 	bl	9524 <clean_reboot>
    8764:	ebffff11 	bl	83b0 <xfer_end>
    8768:	e3a00001 	mov	r0, #1, 0
    876c:	e8bd8070 	pop	{r4, r5, r6, pc}
    8770:	00000126 	andeq	r0, r0, r6, lsr #2
    8774:	00009d50 	andeq	r9, r0, r0, asr sp
    8778:	00009c58 	andeq	r9, r0, r8, asr ip
    877c:	00009c64 	andeq	r9, r0, r4, ror #24
    8780:	20804000 	addcs	r4, r0, r0
    8784:	00009c88 	andeq	r9, r0, r8, lsl #25

00008788 <i2c_read>:
    8788:	e92d4070 	push	{r4, r5, r6, lr}
    878c:	e1a05001 	mov	r5, r1
    8790:	e1a04002 	mov	r4, r2
    8794:	e3a02001 	mov	r2, #1, 0
    8798:	e1a01004 	mov	r1, r4
    879c:	ebffff55 	bl	84f8 <xfer_start>
    87a0:	e3a02000 	mov	r2, #0, 0
    87a4:	ea000009 	b	87d0 <i2c_read+0x48>
    87a8:	e59f307c 	ldr	r3, [pc, #124]	; 882c <i2c_read+0xa4>
    87ac:	e59f207c 	ldr	r2, [pc, #124]	; 8830 <i2c_read+0xa8>
    87b0:	e59f107c 	ldr	r1, [pc, #124]	; 8834 <i2c_read+0xac>
    87b4:	e59f007c 	ldr	r0, [pc, #124]	; 8838 <i2c_read+0xb0>
    87b8:	eb0000b9 	bl	8aa4 <printk>
    87bc:	eb000358 	bl	9524 <clean_reboot>
    87c0:	e59f3074 	ldr	r3, [pc, #116]	; 883c <i2c_read+0xb4>
    87c4:	e5933010 	ldr	r3, [r3, #16]
    87c8:	e7c53002 	strb	r3, [r5, r2]
    87cc:	e2822001 	add	r2, r2, #1, 0
    87d0:	e1520004 	cmp	r2, r4
    87d4:	2a000011 	bcs	8820 <i2c_read+0x98>
    87d8:	e59f305c 	ldr	r3, [pc, #92]	; 883c <i2c_read+0xb4>
    87dc:	e5933004 	ldr	r3, [r3, #4]
    87e0:	e3130020 	tst	r3, #32, 0
    87e4:	1afffff5 	bne	87c0 <i2c_read+0x38>
    87e8:	e59f304c 	ldr	r3, [pc, #76]	; 883c <i2c_read+0xb4>
    87ec:	e5933004 	ldr	r3, [r3, #4]
    87f0:	e3130c01 	tst	r3, #256	; 0x100
    87f4:	1affffeb 	bne	87a8 <i2c_read+0x20>
    87f8:	e59f303c 	ldr	r3, [pc, #60]	; 883c <i2c_read+0xb4>
    87fc:	e5933004 	ldr	r3, [r3, #4]
    8800:	e3130c02 	tst	r3, #512	; 0x200
    8804:	0afffff3 	beq	87d8 <i2c_read+0x50>
    8808:	e59f301c 	ldr	r3, [pc, #28]	; 882c <i2c_read+0xa4>
    880c:	e59f201c 	ldr	r2, [pc, #28]	; 8830 <i2c_read+0xa8>
    8810:	e59f101c 	ldr	r1, [pc, #28]	; 8834 <i2c_read+0xac>
    8814:	e59f0024 	ldr	r0, [pc, #36]	; 8840 <i2c_read+0xb8>
    8818:	eb0000a1 	bl	8aa4 <printk>
    881c:	eb000340 	bl	9524 <clean_reboot>
    8820:	ebfffee2 	bl	83b0 <xfer_end>
    8824:	e3a00001 	mov	r0, #1, 0
    8828:	e8bd8070 	pop	{r4, r5, r6, pc}
    882c:	00000137 	andeq	r0, r0, r7, lsr r1
    8830:	00009d5c 	andeq	r9, r0, ip, asr sp
    8834:	00009c58 	andeq	r9, r0, r8, asr ip
    8838:	00009c64 	andeq	r9, r0, r4, ror #24
    883c:	20804000 	addcs	r4, r0, r0
    8840:	00009c88 	andeq	r9, r0, r8, lsl #25

00008844 <i2c_is_initialized>:
    8844:	e59f3004 	ldr	r3, [pc, #4]	; 8850 <i2c_is_initialized+0xc>
    8848:	e5930000 	ldr	r0, [r3]
    884c:	e12fff1e 	bx	lr
    8850:	00009f08 	andeq	r9, r0, r8, lsl #30

00008854 <i2c_init>:
    8854:	e92d4010 	push	{r4, lr}
    8858:	e24dd008 	sub	sp, sp, #8, 0
    885c:	eb000386 	bl	967c <dev_barrier>
    8860:	e3a01004 	mov	r1, #4, 0
    8864:	e3a00002 	mov	r0, #2, 0
    8868:	eb000027 	bl	890c <gpio_set_function>
    886c:	e3a01004 	mov	r1, #4, 0
    8870:	e3a00003 	mov	r0, #3, 0
    8874:	eb000024 	bl	890c <gpio_set_function>
    8878:	eb00037f 	bl	967c <dev_barrier>
    887c:	e59f4054 	ldr	r4, [pc, #84]	; 88d8 <i2c_init+0x84>
    8880:	e3a01902 	mov	r1, #32768	; 0x8000
    8884:	e1a00004 	mov	r0, r4
    8888:	ebfffde5 	bl	8024 <PUT32>
    888c:	eb00037a 	bl	967c <dev_barrier>
    8890:	ebffff0a 	bl	84c0 <reset_status>
    8894:	eb000378 	bl	967c <dev_barrier>
    8898:	e5943004 	ldr	r3, [r4, #4]
    889c:	e3130001 	tst	r3, #1, 0
    88a0:	1a000004 	bne	88b8 <i2c_init+0x64>
    88a4:	e59f3030 	ldr	r3, [pc, #48]	; 88dc <i2c_init+0x88>
    88a8:	e3a02001 	mov	r2, #1, 0
    88ac:	e5832000 	str	r2, [r3]
    88b0:	e28dd008 	add	sp, sp, #8, 0
    88b4:	e8bd8010 	pop	{r4, pc}
    88b8:	e59f3020 	ldr	r3, [pc, #32]	; 88e0 <i2c_init+0x8c>
    88bc:	e58d3000 	str	r3, [sp]
    88c0:	e59f301c 	ldr	r3, [pc, #28]	; 88e4 <i2c_init+0x90>
    88c4:	e59f201c 	ldr	r2, [pc, #28]	; 88e8 <i2c_init+0x94>
    88c8:	e59f101c 	ldr	r1, [pc, #28]	; 88ec <i2c_init+0x98>
    88cc:	e59f001c 	ldr	r0, [pc, #28]	; 88f0 <i2c_init+0x9c>
    88d0:	eb000073 	bl	8aa4 <printk>
    88d4:	eb000312 	bl	9524 <clean_reboot>
    88d8:	20804000 	addcs	r4, r0, r0
    88dc:	00009f08 	andeq	r9, r0, r8, lsl #30
    88e0:	00009ccc 	andeq	r9, r0, ip, asr #25
    88e4:	0000016e 	andeq	r0, r0, lr, ror #2
    88e8:	00009d68 	andeq	r9, r0, r8, ror #26
    88ec:	00009c58 	andeq	r9, r0, r8, asr ip
    88f0:	00009cb8 			; <UNDEFINED> instruction: 0x00009cb8

000088f4 <i2c_init_once>:
    88f4:	e92d4010 	push	{r4, lr}
    88f8:	ebffffd1 	bl	8844 <i2c_is_initialized>
    88fc:	e3500000 	cmp	r0, #0, 0
    8900:	18bd8010 	popne	{r4, pc}
    8904:	ebffffd2 	bl	8854 <i2c_init>
    8908:	e8bd8010 	pop	{r4, pc}

0000890c <gpio_set_function>:
    890c:	e350001f 	cmp	r0, #31, 0
    8910:	812fff1e 	bxhi	lr
    8914:	e3d13007 	bics	r3, r1, #7, 0
    8918:	e92d4070 	push	{r4, r5, r6, lr}
    891c:	e1a05001 	mov	r5, r1
    8920:	18bd8070 	popne	{r4, r5, r6, pc}
    8924:	e59f403c 	ldr	r4, [pc, #60]	; 8968 <gpio_set_function+0x5c>
    8928:	e0843094 	umull	r3, r4, r4, r0
    892c:	e1a041a4 	lsr	r4, r4, #3
    8930:	e2843302 	add	r3, r4, #134217728	; 0x8000000
    8934:	e2833702 	add	r3, r3, #524288	; 0x80000
    8938:	e1a06103 	lsl	r6, r3, #2
    893c:	e0844104 	add	r4, r4, r4, lsl #2
    8940:	e0404084 	sub	r4, r0, r4, lsl #1
    8944:	e1a00006 	mov	r0, r6
    8948:	ebfffdb7 	bl	802c <GET32>
    894c:	e3a01007 	mov	r1, #7, 0
    8950:	e0844084 	add	r4, r4, r4, lsl #1
    8954:	e1c01411 	bic	r1, r0, r1, lsl r4
    8958:	e1811415 	orr	r1, r1, r5, lsl r4
    895c:	e1a00006 	mov	r0, r6
    8960:	e8bd4070 	pop	{r4, r5, r6, lr}
    8964:	eafffdae 	b	8024 <PUT32>
    8968:	cccccccd 	stclgt	12, cr12, [ip], {205}	; 0xcd

0000896c <gpio_set_output>:
    896c:	e350001f 	cmp	r0, #31, 0
    8970:	812fff1e 	bxhi	lr
    8974:	e92d4070 	push	{r4, r5, r6, lr}
    8978:	e59f4040 	ldr	r4, [pc, #64]	; 89c0 <gpio_set_output+0x54>
    897c:	e0843094 	umull	r3, r4, r4, r0
    8980:	e1a041a4 	lsr	r4, r4, #3
    8984:	e2843302 	add	r3, r4, #134217728	; 0x8000000
    8988:	e2833702 	add	r3, r3, #524288	; 0x80000
    898c:	e1a05103 	lsl	r5, r3, #2
    8990:	e0844104 	add	r4, r4, r4, lsl #2
    8994:	e0404084 	sub	r4, r0, r4, lsl #1
    8998:	e1a00005 	mov	r0, r5
    899c:	ebfffda2 	bl	802c <GET32>
    89a0:	e3a03007 	mov	r3, #7, 0
    89a4:	e3a01001 	mov	r1, #1, 0
    89a8:	e0844084 	add	r4, r4, r4, lsl #1
    89ac:	e1c03413 	bic	r3, r0, r3, lsl r4
    89b0:	e1831411 	orr	r1, r3, r1, lsl r4
    89b4:	e1a00005 	mov	r0, r5
    89b8:	e8bd4070 	pop	{r4, r5, r6, lr}
    89bc:	eafffd98 	b	8024 <PUT32>
    89c0:	cccccccd 	stclgt	12, cr12, [ip], {205}	; 0xcd

000089c4 <gpio_set_on>:
    89c4:	e1a03000 	mov	r3, r0
    89c8:	e3a01001 	mov	r1, #1, 0
    89cc:	e59f0004 	ldr	r0, [pc, #4]	; 89d8 <gpio_set_on+0x14>
    89d0:	e1a01311 	lsl	r1, r1, r3
    89d4:	eafffd92 	b	8024 <PUT32>
    89d8:	2020001c 	eorcs	r0, r0, ip, lsl r0

000089dc <gpio_set_off>:
    89dc:	e1a03000 	mov	r3, r0
    89e0:	e3a01001 	mov	r1, #1, 0
    89e4:	e59f0004 	ldr	r0, [pc, #4]	; 89f0 <gpio_set_off+0x14>
    89e8:	e1a01311 	lsl	r1, r1, r3
    89ec:	eafffd8c 	b	8024 <PUT32>
    89f0:	20200028 	eorcs	r0, r0, r8, lsr #32

000089f4 <gpio_set_input>:
    89f4:	e350001f 	cmp	r0, #31, 0
    89f8:	812fff1e 	bxhi	lr
    89fc:	e92d4070 	push	{r4, r5, r6, lr}
    8a00:	e59f5040 	ldr	r5, [pc, #64]	; 8a48 <gpio_set_input+0x54>
    8a04:	e1a04000 	mov	r4, r0
    8a08:	e0853095 	umull	r3, r5, r5, r0
    8a0c:	e1a051a5 	lsr	r5, r5, #3
    8a10:	e2850302 	add	r0, r5, #134217728	; 0x8000000
    8a14:	e2800702 	add	r0, r0, #524288	; 0x80000
    8a18:	e1a06100 	lsl	r6, r0, #2
    8a1c:	e1a00006 	mov	r0, r6
    8a20:	ebfffd81 	bl	802c <GET32>
    8a24:	e3a01007 	mov	r1, #7, 0
    8a28:	e1a03000 	mov	r3, r0
    8a2c:	e0855105 	add	r5, r5, r5, lsl #2
    8a30:	e0444085 	sub	r4, r4, r5, lsl #1
    8a34:	e0844084 	add	r4, r4, r4, lsl #1
    8a38:	e1a00006 	mov	r0, r6
    8a3c:	e1c31411 	bic	r1, r3, r1, lsl r4
    8a40:	e8bd4070 	pop	{r4, r5, r6, lr}
    8a44:	eafffd76 	b	8024 <PUT32>
    8a48:	cccccccd 	stclgt	12, cr12, [ip], {205}	; 0xcd

00008a4c <gpio_write>:
    8a4c:	e3510000 	cmp	r1, #0, 0
    8a50:	e3a03001 	mov	r3, #1, 0
    8a54:	e1a01000 	mov	r1, r0
    8a58:	0a000002 	beq	8a68 <gpio_write+0x1c>
    8a5c:	e59f0010 	ldr	r0, [pc, #16]	; 8a74 <gpio_write+0x28>
    8a60:	e1a01113 	lsl	r1, r3, r1
    8a64:	eafffd6e 	b	8024 <PUT32>
    8a68:	e59f0008 	ldr	r0, [pc, #8]	; 8a78 <gpio_write+0x2c>
    8a6c:	e1a01113 	lsl	r1, r3, r1
    8a70:	eafffd6b 	b	8024 <PUT32>
    8a74:	2020001c 	eorcs	r0, r0, ip, lsl r0
    8a78:	20200028 	eorcs	r0, r0, r8, lsr #32

00008a7c <gpio_read>:
    8a7c:	e92d4010 	push	{r4, lr}
    8a80:	e1a04000 	mov	r4, r0
    8a84:	e59f0014 	ldr	r0, [pc, #20]	; 8aa0 <gpio_read+0x24>
    8a88:	e08002a4 	add	r0, r0, r4, lsr #5
    8a8c:	ebfffd66 	bl	802c <GET32>
    8a90:	e204401f 	and	r4, r4, #31, 0
    8a94:	e1a00430 	lsr	r0, r0, r4
    8a98:	e2000001 	and	r0, r0, #1, 0
    8a9c:	e8bd8010 	pop	{r4, pc}
    8aa0:	20200034 	eorcs	r0, r0, r4, lsr r0

00008aa4 <printk>:
    8aa4:	e92d000f 	push	{r0, r1, r2, r3}
    8aa8:	e92d4030 	push	{r4, r5, lr}
    8aac:	e59f5040 	ldr	r5, [pc, #64]	; 8af4 <printk+0x50>
    8ab0:	e24dd00c 	sub	sp, sp, #12, 0
    8ab4:	e28d301c 	add	r3, sp, #28, 0
    8ab8:	e3a01b01 	mov	r1, #1024	; 0x400
    8abc:	e59d2018 	ldr	r2, [sp, #24]
    8ac0:	e1a00005 	mov	r0, r5
    8ac4:	e58d3004 	str	r3, [sp, #4]
    8ac8:	eb00010a 	bl	8ef8 <va_printk>
    8acc:	e1a04000 	mov	r4, r0
    8ad0:	e59f3020 	ldr	r3, [pc, #32]	; 8af8 <printk+0x54>
    8ad4:	e1a00005 	mov	r0, r5
    8ad8:	e5933000 	ldr	r3, [r3]
    8adc:	e12fff33 	blx	r3
    8ae0:	e1a00004 	mov	r0, r4
    8ae4:	e28dd00c 	add	sp, sp, #12, 0
    8ae8:	e8bd4030 	pop	{r4, r5, lr}
    8aec:	e28dd010 	add	sp, sp, #16, 0
    8af0:	e12fff1e 	bx	lr
    8af4:	00009f0c 	andeq	r9, r0, ip, lsl #30
    8af8:	00009f04 	andeq	r9, r0, r4, lsl #30

00008afc <internal_putchar>:
    8afc:	e92d4010 	push	{r4, lr}
    8b00:	e1a04000 	mov	r4, r0
    8b04:	eb0003a2 	bl	9994 <uart_putc>
    8b08:	e1a00004 	mov	r0, r4
    8b0c:	e8bd8010 	pop	{r4, pc}

00008b10 <rpi_reset_putc>:
    8b10:	e59f3008 	ldr	r3, [pc, #8]	; 8b20 <rpi_reset_putc+0x10>
    8b14:	e59f2008 	ldr	r2, [pc, #8]	; 8b24 <rpi_reset_putc+0x14>
    8b18:	e5832000 	str	r2, [r3]
    8b1c:	e12fff1e 	bx	lr
    8b20:	00009f00 	andeq	r9, r0, r0, lsl #30
    8b24:	00008afc 	strdeq	r8, [r0], -ip

00008b28 <rpi_set_putc>:
    8b28:	e59f3004 	ldr	r3, [pc, #4]	; 8b34 <rpi_set_putc+0xc>
    8b2c:	e5830000 	str	r0, [r3]
    8b30:	e12fff1e 	bx	lr
    8b34:	00009f00 	andeq	r9, r0, r0, lsl #30

00008b38 <internal_putk>:
    8b38:	e92d4070 	push	{r4, r5, r6, lr}
    8b3c:	e1a04000 	mov	r4, r0
    8b40:	e5d00000 	ldrb	r0, [r0]
    8b44:	e3500000 	cmp	r0, #0, 0
    8b48:	0a000005 	beq	8b64 <internal_putk+0x2c>
    8b4c:	e59f5018 	ldr	r5, [pc, #24]	; 8b6c <internal_putk+0x34>
    8b50:	e5953000 	ldr	r3, [r5]
    8b54:	e12fff33 	blx	r3
    8b58:	e5f40001 	ldrb	r0, [r4, #1]!
    8b5c:	e3500000 	cmp	r0, #0, 0
    8b60:	1afffffa 	bne	8b50 <internal_putk+0x18>
    8b64:	e3a00001 	mov	r0, #1, 0
    8b68:	e8bd8070 	pop	{r4, r5, r6, pc}
    8b6c:	00009f00 	andeq	r9, r0, r0, lsl #30

00008b70 <emit.constprop.0>:
    8b70:	e92d41f0 	push	{r4, r5, r6, r7, r8, lr}
    8b74:	e3530080 	cmp	r3, #128, 0	; 0x80
    8b78:	e1a0c000 	mov	ip, r0
    8b7c:	e24dd048 	sub	sp, sp, #72, 0	; 0x48
    8b80:	e1a00001 	mov	r0, r1
    8b84:	ca000069 	bgt	8d30 <emit.constprop.0+0x1c0>
    8b88:	e24c1002 	sub	r1, ip, #2, 0
    8b8c:	e1a0c002 	mov	ip, r2
    8b90:	e351000e 	cmp	r1, #14, 0
    8b94:	979ff101 	ldrls	pc, [pc, r1, lsl #2]
    8b98:	ea0000a7 	b	8e3c <emit.constprop.0+0x2cc>
    8b9c:	00008d08 	andeq	r8, r0, r8, lsl #26
    8ba0:	00008e3c 	andeq	r8, r0, ip, lsr lr
    8ba4:	00008e3c 	andeq	r8, r0, ip, lsr lr
    8ba8:	00008e3c 	andeq	r8, r0, ip, lsr lr
    8bac:	00008e3c 	andeq	r8, r0, ip, lsr lr
    8bb0:	00008e3c 	andeq	r8, r0, ip, lsr lr
    8bb4:	00008de4 	andeq	r8, r0, r4, ror #27
    8bb8:	00008e3c 	andeq	r8, r0, ip, lsr lr
    8bbc:	00008d84 	andeq	r8, r0, r4, lsl #27
    8bc0:	00008e3c 	andeq	r8, r0, ip, lsr lr
    8bc4:	00008e3c 	andeq	r8, r0, ip, lsr lr
    8bc8:	00008e3c 	andeq	r8, r0, ip, lsr lr
    8bcc:	00008e3c 	andeq	r8, r0, ip, lsr lr
    8bd0:	00008e3c 	andeq	r8, r0, ip, lsr lr
    8bd4:	00008bdc 	ldrdeq	r8, [r0], -ip
    8bd8:	e3a0307f 	mov	r3, #127, 0	; 0x7f
    8bdc:	e28d2008 	add	r2, sp, #8, 0
    8be0:	e1a04002 	mov	r4, r2
    8be4:	e59f1288 	ldr	r1, [pc, #648]	; 8e74 <emit.constprop.0+0x304>
    8be8:	e20ce00f 	and	lr, ip, #15, 0
    8bec:	e7d1e00e 	ldrb	lr, [r1, lr]
    8bf0:	e35c000f 	cmp	ip, #15, 0
    8bf4:	e4c4e001 	strb	lr, [r4], #1
    8bf8:	e1a0c22c 	lsr	ip, ip, #4
    8bfc:	8afffff9 	bhi	8be8 <emit.constprop.0+0x78>
    8c00:	e3a0c078 	mov	ip, #120, 0	; 0x78
    8c04:	e1a0e004 	mov	lr, r4
    8c08:	e3a01030 	mov	r1, #48, 0	; 0x30
    8c0c:	e4cec002 	strb	ip, [lr], #2
    8c10:	e5c41001 	strb	r1, [r4, #1]
    8c14:	e04e1002 	sub	r1, lr, r2
    8c18:	e1510003 	cmp	r1, r3
    8c1c:	aa000083 	bge	8e30 <emit.constprop.0+0x2c0>
    8c20:	e1510003 	cmp	r1, r3
    8c24:	a3a0c001 	movge	ip, #1, 0
    8c28:	b3a0c000 	movlt	ip, #0, 0
    8c2c:	e2434001 	sub	r4, r3, #1, 0
    8c30:	e0444001 	sub	r4, r4, r1
    8c34:	b0436001 	sublt	r6, r3, r1
    8c38:	a3a06001 	movge	r6, #1, 0
    8c3c:	e3540002 	cmp	r4, #2, 0
    8c40:	938cc001 	orrls	ip, ip, #1, 0
    8c44:	e35c0000 	cmp	ip, #0, 0
    8c48:	1a000075 	bne	8e24 <emit.constprop.0+0x2b4>
    8c4c:	e1a0c00e 	mov	ip, lr
    8c50:	e3c65003 	bic	r5, r6, #3, 0
    8c54:	e59f721c 	ldr	r7, [pc, #540]	; 8e78 <emit.constprop.0+0x308>
    8c58:	e085500e 	add	r5, r5, lr
    8c5c:	e48c7004 	str	r7, [ip], #4
    8c60:	e15c0005 	cmp	ip, r5
    8c64:	1afffffc 	bne	8c5c <emit.constprop.0+0xec>
    8c68:	e3c6c003 	bic	ip, r6, #3, 0
    8c6c:	e156000c 	cmp	r6, ip
    8c70:	e08e500c 	add	r5, lr, ip
    8c74:	e08cc001 	add	ip, ip, r1
    8c78:	0a000008 	beq	8ca0 <emit.constprop.0+0x130>
    8c7c:	e3a07020 	mov	r7, #32, 0
    8c80:	e28c8001 	add	r8, ip, #1, 0
    8c84:	e1580003 	cmp	r8, r3
    8c88:	e5c57000 	strb	r7, [r5]
    8c8c:	aa000003 	bge	8ca0 <emit.constprop.0+0x130>
    8c90:	e28cc002 	add	ip, ip, #2, 0
    8c94:	e15c0003 	cmp	ip, r3
    8c98:	e5c57001 	strb	r7, [r5, #1]
    8c9c:	b5c57002 	strblt	r7, [r5, #2]
    8ca0:	e1510003 	cmp	r1, r3
    8ca4:	a3a04000 	movge	r4, #0, 0
    8ca8:	e08e6006 	add	r6, lr, r6
    8cac:	e0461002 	sub	r1, r6, r2
    8cb0:	e08ee004 	add	lr, lr, r4
    8cb4:	e3a03000 	mov	r3, #0, 0
    8cb8:	e351007f 	cmp	r1, #127, 0	; 0x7f
    8cbc:	c241407f 	subgt	r4, r1, #127, 0	; 0x7f
    8cc0:	c0822004 	addgt	r2, r2, r4
    8cc4:	e152000e 	cmp	r2, lr
    8cc8:	e5c63000 	strb	r3, [r6]
    8ccc:	8a00004f 	bhi	8e10 <emit.constprop.0+0x2a0>
    8cd0:	e28ee001 	add	lr, lr, #1, 0
    8cd4:	e1a0300e 	mov	r3, lr
    8cd8:	e240c001 	sub	ip, r0, #1, 0
    8cdc:	e5734001 	ldrb	r4, [r3, #-1]!
    8ce0:	e1530002 	cmp	r3, r2
    8ce4:	e5ec4001 	strb	r4, [ip, #1]!
    8ce8:	1afffffb 	bne	8cdc <emit.constprop.0+0x16c>
    8cec:	e04ee003 	sub	lr, lr, r3
    8cf0:	e3a03000 	mov	r3, #0, 0
    8cf4:	e080e00e 	add	lr, r0, lr
    8cf8:	e5ce3000 	strb	r3, [lr]
    8cfc:	e28dd048 	add	sp, sp, #72, 0	; 0x48
    8d00:	e8bd81f0 	pop	{r4, r5, r6, r7, r8, pc}
    8d04:	e3a0307f 	mov	r3, #127, 0	; 0x7f
    8d08:	e28d2008 	add	r2, sp, #8, 0
    8d0c:	e1a0e002 	mov	lr, r2
    8d10:	e59f1164 	ldr	r1, [pc, #356]	; 8e7c <emit.constprop.0+0x30c>
    8d14:	e20c4001 	and	r4, ip, #1, 0
    8d18:	e7d14004 	ldrb	r4, [r1, r4]
    8d1c:	e35c0001 	cmp	ip, #1, 0
    8d20:	e4ce4001 	strb	r4, [lr], #1
    8d24:	e1a0c0ac 	lsr	ip, ip, #1
    8d28:	8afffff9 	bhi	8d14 <emit.constprop.0+0x1a4>
    8d2c:	eaffffb8 	b	8c14 <emit.constprop.0+0xa4>
    8d30:	e24c3002 	sub	r3, ip, #2, 0
    8d34:	e1a0c002 	mov	ip, r2
    8d38:	e353000e 	cmp	r3, #14, 0
    8d3c:	979ff103 	ldrls	pc, [pc, r3, lsl #2]
    8d40:	ea00003d 	b	8e3c <emit.constprop.0+0x2cc>
    8d44:	00008d04 	andeq	r8, r0, r4, lsl #26
    8d48:	00008e3c 	andeq	r8, r0, ip, lsr lr
    8d4c:	00008e3c 	andeq	r8, r0, ip, lsr lr
    8d50:	00008e3c 	andeq	r8, r0, ip, lsr lr
    8d54:	00008e3c 	andeq	r8, r0, ip, lsr lr
    8d58:	00008e3c 	andeq	r8, r0, ip, lsr lr
    8d5c:	00008e5c 	andeq	r8, r0, ip, asr lr
    8d60:	00008e3c 	andeq	r8, r0, ip, lsr lr
    8d64:	00008d80 	andeq	r8, r0, r0, lsl #27
    8d68:	00008e3c 	andeq	r8, r0, ip, lsr lr
    8d6c:	00008e3c 	andeq	r8, r0, ip, lsr lr
    8d70:	00008e3c 	andeq	r8, r0, ip, lsr lr
    8d74:	00008e3c 	andeq	r8, r0, ip, lsr lr
    8d78:	00008e3c 	andeq	r8, r0, ip, lsr lr
    8d7c:	00008bd8 	ldrdeq	r8, [r0], -r8	; <UNPREDICTABLE>
    8d80:	e3a0307f 	mov	r3, #127, 0	; 0x7f
    8d84:	e59d1060 	ldr	r1, [sp, #96]	; 0x60
    8d88:	e59f70f0 	ldr	r7, [pc, #240]	; 8e80 <emit.constprop.0+0x310>
    8d8c:	e0118fa2 	ands	r8, r1, r2, lsr #31
    8d90:	1262c000 	rsbne	ip, r2, #0, 0
    8d94:	e28d2008 	add	r2, sp, #8, 0
    8d98:	13a08001 	movne	r8, #1, 0
    8d9c:	e1a0e002 	mov	lr, r2
    8da0:	e59f60dc 	ldr	r6, [pc, #220]	; 8e84 <emit.constprop.0+0x314>
    8da4:	e1a0500c 	mov	r5, ip
    8da8:	e0814c96 	umull	r4, r1, r6, ip
    8dac:	e1a011a1 	lsr	r1, r1, #3
    8db0:	e0814101 	add	r4, r1, r1, lsl #2
    8db4:	e04cc084 	sub	ip, ip, r4, lsl #1
    8db8:	e7d7400c 	ldrb	r4, [r7, ip]
    8dbc:	e3550009 	cmp	r5, #9, 0
    8dc0:	e1a0c001 	mov	ip, r1
    8dc4:	e1a0100e 	mov	r1, lr
    8dc8:	e4ce4001 	strb	r4, [lr], #1
    8dcc:	8afffff4 	bhi	8da4 <emit.constprop.0+0x234>
    8dd0:	e3580000 	cmp	r8, #0, 0
    8dd4:	13a0c02d 	movne	ip, #45, 0	; 0x2d
    8dd8:	15cec000 	strbne	ip, [lr]
    8ddc:	1281e002 	addne	lr, r1, #2, 0
    8de0:	eaffff8b 	b	8c14 <emit.constprop.0+0xa4>
    8de4:	e3530001 	cmp	r3, #1, 0
    8de8:	e5cd2008 	strb	r2, [sp, #8]
    8dec:	c3a01001 	movgt	r1, #1, 0
    8df0:	c28de009 	addgt	lr, sp, #9, 0
    8df4:	c28d2008 	addgt	r2, sp, #8, 0
    8df8:	caffff88 	bgt	8c20 <emit.constprop.0+0xb0>
    8dfc:	e3a03000 	mov	r3, #0, 0
    8e00:	e28de008 	add	lr, sp, #8, 0
    8e04:	e1a0200e 	mov	r2, lr
    8e08:	e5cd3009 	strb	r3, [sp, #9]
    8e0c:	eaffffaf 	b	8cd0 <emit.constprop.0+0x160>
    8e10:	e1a0e000 	mov	lr, r0
    8e14:	e3a03000 	mov	r3, #0, 0
    8e18:	e5ce3000 	strb	r3, [lr]
    8e1c:	e28dd048 	add	sp, sp, #72, 0	; 0x48
    8e20:	e8bd81f0 	pop	{r4, r5, r6, r7, r8, pc}
    8e24:	e1a0c001 	mov	ip, r1
    8e28:	e1a0500e 	mov	r5, lr
    8e2c:	eaffff92 	b	8c7c <emit.constprop.0+0x10c>
    8e30:	e1a0600e 	mov	r6, lr
    8e34:	e24ee001 	sub	lr, lr, #1, 0
    8e38:	eaffff9d 	b	8cb4 <emit.constprop.0+0x144>
    8e3c:	e59f2044 	ldr	r2, [pc, #68]	; 8e88 <emit.constprop.0+0x318>
    8e40:	e3a03079 	mov	r3, #121, 0	; 0x79
    8e44:	e59f1040 	ldr	r1, [pc, #64]	; 8e8c <emit.constprop.0+0x31c>
    8e48:	e58d2000 	str	r2, [sp]
    8e4c:	e59f003c 	ldr	r0, [pc, #60]	; 8e90 <emit.constprop.0+0x320>
    8e50:	e59f203c 	ldr	r2, [pc, #60]	; 8e94 <emit.constprop.0+0x324>
    8e54:	ebffff12 	bl	8aa4 <printk>
    8e58:	eb0001b1 	bl	9524 <clean_reboot>
    8e5c:	e5cd2008 	strb	r2, [sp, #8]
    8e60:	e3a0307f 	mov	r3, #127, 0	; 0x7f
    8e64:	e3a01001 	mov	r1, #1, 0
    8e68:	e28de009 	add	lr, sp, #9, 0
    8e6c:	e28d2008 	add	r2, sp, #8, 0
    8e70:	eaffff6a 	b	8c20 <emit.constprop.0+0xb0>
    8e74:	00009d88 	andeq	r9, r0, r8, lsl #27
    8e78:	20202020 	eorcs	r2, r0, r0, lsr #32
    8e7c:	00009d9c 	muleq	r0, ip, sp
    8e80:	00009da0 	andeq	r9, r0, r0, lsr #27
    8e84:	cccccccd 	stclgt	12, cr12, [ip], {205}	; 0xcd
    8e88:	00009d34 	andeq	r9, r0, r4, lsr sp
    8e8c:	00009d74 	andeq	r9, r0, r4, ror sp
    8e90:	00009cb8 			; <UNDEFINED> instruction: 0x00009cb8
    8e94:	00009eb4 			; <UNDEFINED> instruction: 0x00009eb4

00008e98 <rpi_set_output>:
    8e98:	e3500000 	cmp	r0, #0, 0
    8e9c:	0a000005 	beq	8eb8 <rpi_set_output+0x20>
    8ea0:	e59f3038 	ldr	r3, [pc, #56]	; 8ee0 <rpi_set_output+0x48>
    8ea4:	e3510000 	cmp	r1, #0, 0
    8ea8:	e5830000 	str	r0, [r3]
    8eac:	159f3030 	ldrne	r3, [pc, #48]	; 8ee4 <rpi_set_output+0x4c>
    8eb0:	15831000 	strne	r1, [r3]
    8eb4:	e12fff1e 	bx	lr
    8eb8:	e52de004 	push	{lr}		; (str lr, [sp, #-4]!)
    8ebc:	e59f2024 	ldr	r2, [pc, #36]	; 8ee8 <rpi_set_output+0x50>
    8ec0:	e24dd00c 	sub	sp, sp, #12, 0
    8ec4:	e3a03020 	mov	r3, #32, 0
    8ec8:	e59f101c 	ldr	r1, [pc, #28]	; 8eec <rpi_set_output+0x54>
    8ecc:	e58d2000 	str	r2, [sp]
    8ed0:	e59f0018 	ldr	r0, [pc, #24]	; 8ef0 <rpi_set_output+0x58>
    8ed4:	e59f2018 	ldr	r2, [pc, #24]	; 8ef4 <rpi_set_output+0x5c>
    8ed8:	ebfffef1 	bl	8aa4 <printk>
    8edc:	eb000190 	bl	9524 <clean_reboot>
    8ee0:	00009f00 	andeq	r9, r0, r0, lsl #30
    8ee4:	00009f04 	andeq	r9, r0, r4, lsl #30
    8ee8:	00009dac 	andeq	r9, r0, ip, lsr #27
    8eec:	00009d74 	andeq	r9, r0, r4, ror sp
    8ef0:	00009cb8 			; <UNDEFINED> instruction: 0x00009cb8
    8ef4:	00009ebc 			; <UNDEFINED> instruction: 0x00009ebc

00008ef8 <va_printk>:
    8ef8:	e92d4ff0 	push	{r4, r5, r6, r7, r8, r9, sl, fp, lr}
    8efc:	e1a0b000 	mov	fp, r0
    8f00:	e3a00000 	mov	r0, #0, 0
    8f04:	e5cb0000 	strb	r0, [fp]
    8f08:	e5d2c000 	ldrb	ip, [r2]
    8f0c:	e2417001 	sub	r7, r1, #1, 0
    8f10:	e08b7007 	add	r7, fp, r7
    8f14:	e15c0000 	cmp	ip, r0
    8f18:	115b0007 	cmpne	fp, r7
    8f1c:	e24ddf47 	sub	sp, sp, #284	; 0x11c
    8f20:	e58d2010 	str	r2, [sp, #16]
    8f24:	2a000159 	bcs	9490 <va_printk+0x598>
    8f28:	e1a06002 	mov	r6, r2
    8f2c:	e1a08003 	mov	r8, r3
    8f30:	e1a0400b 	mov	r4, fp
    8f34:	e59fa5a4 	ldr	sl, [pc, #1444]	; 94e0 <va_printk+0x5e8>
    8f38:	e58db00c 	str	fp, [sp, #12]
    8f3c:	ea000005 	b	8f58 <va_printk+0x60>
    8f40:	e4c4c001 	strb	ip, [r4], #1
    8f44:	e2866001 	add	r6, r6, #1, 0
    8f48:	e5d6c000 	ldrb	ip, [r6]
    8f4c:	e35c0000 	cmp	ip, #0, 0
    8f50:	11570004 	cmpne	r7, r4
    8f54:	9a00002f 	bls	9018 <va_printk+0x120>
    8f58:	e35c0025 	cmp	ip, #37, 0	; 0x25
    8f5c:	1afffff7 	bne	8f40 <va_printk+0x48>
    8f60:	e5d62001 	ldrb	r2, [r6, #1]
    8f64:	e3520025 	cmp	r2, #37, 0	; 0x25
    8f68:	04c4c001 	strbeq	ip, [r4], #1
    8f6c:	02866002 	addeq	r6, r6, #2, 0
    8f70:	0afffff4 	beq	8f48 <va_printk+0x50>
    8f74:	e2423030 	sub	r3, r2, #48, 0	; 0x30
    8f78:	e3530009 	cmp	r3, #9, 0
    8f7c:	e3a05000 	mov	r5, #0, 0
    8f80:	e2866001 	add	r6, r6, #1, 0
    8f84:	8a000008 	bhi	8fac <va_printk+0xb4>
    8f88:	e0855105 	add	r5, r5, r5, lsl #2
    8f8c:	e0825085 	add	r5, r2, r5, lsl #1
    8f90:	e5f62001 	ldrb	r2, [r6, #1]!
    8f94:	e2455030 	sub	r5, r5, #48, 0	; 0x30
    8f98:	e2423030 	sub	r3, r2, #48, 0	; 0x30
    8f9c:	e3530009 	cmp	r3, #9, 0
    8fa0:	9afffff8 	bls	8f88 <va_printk+0x90>
    8fa4:	e355001f 	cmp	r5, #31, 0
    8fa8:	8a00013a 	bhi	9498 <va_printk+0x5a0>
    8fac:	e2423062 	sub	r3, r2, #98, 0	; 0x62
    8fb0:	e3530016 	cmp	r3, #22, 0
    8fb4:	979ff103 	ldrls	pc, [pc, r3, lsl #2]
    8fb8:	ea00011b 	b	942c <va_printk+0x534>
    8fbc:	00009270 	andeq	r9, r0, r0, ror r2
    8fc0:	0000916c 	andeq	r9, r0, ip, ror #2
    8fc4:	00009164 	andeq	r9, r0, r4, ror #2
    8fc8:	0000942c 	andeq	r9, r0, ip, lsr #8
    8fcc:	00009468 	andeq	r9, r0, r8, ror #8
    8fd0:	0000942c 	andeq	r9, r0, ip, lsr #8
    8fd4:	0000942c 	andeq	r9, r0, ip, lsr #8
    8fd8:	0000942c 	andeq	r9, r0, ip, lsr #8
    8fdc:	0000942c 	andeq	r9, r0, ip, lsr #8
    8fe0:	0000942c 	andeq	r9, r0, ip, lsr #8
    8fe4:	00009074 	andeq	r9, r0, r4, ror r0
    8fe8:	0000942c 	andeq	r9, r0, ip, lsr #8
    8fec:	0000942c 	andeq	r9, r0, ip, lsr #8
    8ff0:	0000942c 	andeq	r9, r0, ip, lsr #8
    8ff4:	00009030 	andeq	r9, r0, r0, lsr r0
    8ff8:	0000942c 	andeq	r9, r0, ip, lsr #8
    8ffc:	0000942c 	andeq	r9, r0, ip, lsr #8
    9000:	00009368 	andeq	r9, r0, r8, ror #6
    9004:	0000942c 	andeq	r9, r0, ip, lsr #8
    9008:	00009140 	andeq	r9, r0, r0, asr #2
    900c:	0000942c 	andeq	r9, r0, ip, lsr #8
    9010:	0000942c 	andeq	r9, r0, ip, lsr #8
    9014:	00009030 	andeq	r9, r0, r0, lsr r0
    9018:	e59db00c 	ldr	fp, [sp, #12]
    901c:	e3a03000 	mov	r3, #0, 0
    9020:	e4c43001 	strb	r3, [r4], #1
    9024:	e044000b 	sub	r0, r4, fp
    9028:	e28ddf47 	add	sp, sp, #284	; 0x11c
    902c:	e8bd8ff0 	pop	{r4, r5, r6, r7, r8, r9, sl, fp, pc}
    9030:	e3a01000 	mov	r1, #0, 0
    9034:	e1a03005 	mov	r3, r5
    9038:	e4982004 	ldr	r2, [r8], #4
    903c:	e3a00010 	mov	r0, #16, 0
    9040:	e58d1000 	str	r1, [sp]
    9044:	e28d1018 	add	r1, sp, #24, 0
    9048:	ebfffec8 	bl	8b70 <emit.constprop.0>
    904c:	e1a05000 	mov	r5, r0
    9050:	e2866001 	add	r6, r6, #1, 0
    9054:	e2455001 	sub	r5, r5, #1, 0
    9058:	e5f53001 	ldrb	r3, [r5, #1]!
    905c:	e3530000 	cmp	r3, #0, 0
    9060:	0affffb8 	beq	8f48 <va_printk+0x50>
    9064:	e4c43001 	strb	r3, [r4], #1
    9068:	e1570004 	cmp	r7, r4
    906c:	8afffff9 	bhi	9058 <va_printk+0x160>
    9070:	eaffffb4 	b	8f48 <va_printk+0x50>
    9074:	e3a02003 	mov	r2, #3, 0
    9078:	e1a00006 	mov	r0, r6
    907c:	e59f1460 	ldr	r1, [pc, #1120]	; 94e4 <va_printk+0x5ec>
    9080:	eb00028b 	bl	9ab4 <strncmp>
    9084:	e3500000 	cmp	r0, #0, 0
    9088:	0a000005 	beq	90a4 <va_printk+0x1ac>
    908c:	e3a02003 	mov	r2, #3, 0
    9090:	e1a00006 	mov	r0, r6
    9094:	e59f144c 	ldr	r1, [pc, #1100]	; 94e8 <va_printk+0x5f0>
    9098:	eb000285 	bl	9ab4 <strncmp>
    909c:	e3500000 	cmp	r0, #0, 0
    90a0:	1a00010b 	bne	94d4 <va_printk+0x5dc>
    90a4:	e2888007 	add	r8, r8, #7, 0
    90a8:	e3c88007 	bic	r8, r8, #7, 0
    90ac:	e598b004 	ldr	fp, [r8, #4]
    90b0:	e4989008 	ldr	r9, [r8], #8
    90b4:	e1a0100b 	mov	r1, fp
    90b8:	e59f042c 	ldr	r0, [pc, #1068]	; 94ec <va_printk+0x5f4>
    90bc:	ebfffe78 	bl	8aa4 <printk>
    90c0:	e1a01009 	mov	r1, r9
    90c4:	e59f0424 	ldr	r0, [pc, #1060]	; 94f0 <va_printk+0x5f8>
    90c8:	ebfffe75 	bl	8aa4 <printk>
    90cc:	e3a02003 	mov	r2, #3, 0
    90d0:	e1a00006 	mov	r0, r6
    90d4:	e59f1408 	ldr	r1, [pc, #1032]	; 94e4 <va_printk+0x5ec>
    90d8:	eb000275 	bl	9ab4 <strncmp>
    90dc:	e2503000 	subs	r3, r0, #0, 0
    90e0:	e1a02003 	mov	r2, r3
    90e4:	e2863002 	add	r3, r6, #2, 0
    90e8:	e58d3014 	str	r3, [sp, #20]
    90ec:	1a00009f 	bne	9370 <va_printk+0x478>
    90f0:	e1a06002 	mov	r6, r2
    90f4:	e1a03005 	mov	r3, r5
    90f8:	e58d2000 	str	r2, [sp]
    90fc:	e28d1018 	add	r1, sp, #24, 0
    9100:	e1a0200b 	mov	r2, fp
    9104:	e3a00010 	mov	r0, #16, 0
    9108:	ebfffe98 	bl	8b70 <emit.constprop.0>
    910c:	e1a0c000 	mov	ip, r0
    9110:	e1a03005 	mov	r3, r5
    9114:	e58d6000 	str	r6, [sp]
    9118:	e28d1098 	add	r1, sp, #152, 0	; 0x98
    911c:	e1a02009 	mov	r2, r9
    9120:	e3a00010 	mov	r0, #16, 0
    9124:	e1a0500c 	mov	r5, ip
    9128:	ebfffe90 	bl	8b70 <emit.constprop.0>
    912c:	e28d0018 	add	r0, sp, #24, 0
    9130:	e28d109a 	add	r1, sp, #154, 0	; 0x9a
    9134:	e59d6014 	ldr	r6, [sp, #20]
    9138:	eb00023b 	bl	9a2c <strcat>
    913c:	eaffffc3 	b	9050 <va_printk+0x158>
    9140:	e3a01000 	mov	r1, #0, 0
    9144:	e1a03005 	mov	r3, r5
    9148:	e4982004 	ldr	r2, [r8], #4
    914c:	e3a0000a 	mov	r0, #10, 0
    9150:	e58d1000 	str	r1, [sp]
    9154:	e28d1018 	add	r1, sp, #24, 0
    9158:	ebfffe84 	bl	8b70 <emit.constprop.0>
    915c:	e1a05000 	mov	r5, r0
    9160:	eaffffba 	b	9050 <va_printk+0x158>
    9164:	e3a01001 	mov	r1, #1, 0
    9168:	eafffff5 	b	9144 <va_printk+0x24c>
    916c:	e4983004 	ldr	r3, [r8], #4
    9170:	e3550001 	cmp	r5, #1, 0
    9174:	e5cd3098 	strb	r3, [sp, #152]	; 0x98
    9178:	9a0000a6 	bls	9418 <va_printk+0x520>
    917c:	e2453002 	sub	r3, r5, #2, 0
    9180:	e3530002 	cmp	r3, #2, 0
    9184:	e2451001 	sub	r1, r5, #1, 0
    9188:	9a0000bc 	bls	9480 <va_printk+0x588>
    918c:	e59f0360 	ldr	r0, [pc, #864]	; 94f4 <va_printk+0x5fc>
    9190:	e1a02121 	lsr	r2, r1, #2
    9194:	e3520001 	cmp	r2, #1, 0
    9198:	e58d0099 	str	r0, [sp, #153]	; 0x99
    919c:	0a00000e 	beq	91dc <va_printk+0x2e4>
    91a0:	e3520002 	cmp	r2, #2, 0
    91a4:	e58d009d 	str	r0, [sp, #157]	; 0x9d
    91a8:	0a00000b 	beq	91dc <va_printk+0x2e4>
    91ac:	e3520003 	cmp	r2, #3, 0
    91b0:	e58d00a1 	str	r0, [sp, #161]	; 0xa1
    91b4:	0a000008 	beq	91dc <va_printk+0x2e4>
    91b8:	e3520004 	cmp	r2, #4, 0
    91bc:	e58d00a5 	str	r0, [sp, #165]	; 0xa5
    91c0:	0a000005 	beq	91dc <va_printk+0x2e4>
    91c4:	e3520005 	cmp	r2, #5, 0
    91c8:	e58d00a9 	str	r0, [sp, #169]	; 0xa9
    91cc:	0a000002 	beq	91dc <va_printk+0x2e4>
    91d0:	e3520007 	cmp	r2, #7, 0
    91d4:	e58d00ad 	str	r0, [sp, #173]	; 0xad
    91d8:	058d00b1 	streq	r0, [sp, #177]	; 0xb1
    91dc:	e3c12003 	bic	r2, r1, #3, 0
    91e0:	e1510002 	cmp	r1, r2
    91e4:	e28dc099 	add	ip, sp, #153, 0	; 0x99
    91e8:	e08c0002 	add	r0, ip, r2
    91ec:	e2822001 	add	r2, r2, #1, 0
    91f0:	0a000008 	beq	9218 <va_printk+0x320>
    91f4:	e3a0e020 	mov	lr, #32, 0
    91f8:	e2829001 	add	r9, r2, #1, 0
    91fc:	e1550009 	cmp	r5, r9
    9200:	e5c0e000 	strb	lr, [r0]
    9204:	da000003 	ble	9218 <va_printk+0x320>
    9208:	e2822002 	add	r2, r2, #2, 0
    920c:	e1550002 	cmp	r5, r2
    9210:	e5c0e001 	strb	lr, [r0, #1]
    9214:	c5c0e002 	strbgt	lr, [r0, #2]
    9218:	e3a0e000 	mov	lr, #0, 0
    921c:	e28d0098 	add	r0, sp, #152, 0	; 0x98
    9220:	e08c2001 	add	r2, ip, r1
    9224:	e0422000 	sub	r2, r2, r0
    9228:	e352007f 	cmp	r2, #127, 0	; 0x7f
    922c:	c242207f 	subgt	r2, r2, #127, 0	; 0x7f
    9230:	e08c3003 	add	r3, ip, r3
    9234:	c0800002 	addgt	r0, r0, r2
    9238:	e1530000 	cmp	r3, r0
    923c:	e7cce001 	strb	lr, [ip, r1]
    9240:	3a00006c 	bcc	93f8 <va_printk+0x500>
    9244:	e283c001 	add	ip, r3, #1, 0
    9248:	e1a0300c 	mov	r3, ip
    924c:	e28d5018 	add	r5, sp, #24, 0
    9250:	e2452001 	sub	r2, r5, #1, 0
    9254:	e5731001 	ldrb	r1, [r3, #-1]!
    9258:	e1500003 	cmp	r0, r3
    925c:	e5e21001 	strb	r1, [r2, #1]!
    9260:	1afffffb 	bne	9254 <va_printk+0x35c>
    9264:	e04c3000 	sub	r3, ip, r0
    9268:	e0853003 	add	r3, r5, r3
    926c:	ea00003a 	b	935c <va_printk+0x464>
    9270:	e28d1098 	add	r1, sp, #152, 0	; 0x98
    9274:	e1a03001 	mov	r3, r1
    9278:	e4980004 	ldr	r0, [r8], #4
    927c:	e200c001 	and	ip, r0, #1, 0
    9280:	e7dac00c 	ldrb	ip, [sl, ip]
    9284:	e3500001 	cmp	r0, #1, 0
    9288:	e1a02003 	mov	r2, r3
    928c:	e1a000a0 	lsr	r0, r0, #1
    9290:	e4c3c001 	strb	ip, [r3], #1
    9294:	8afffff8 	bhi	927c <va_printk+0x384>
    9298:	e0430001 	sub	r0, r3, r1
    929c:	e1550000 	cmp	r5, r0
    92a0:	da000057 	ble	9404 <va_printk+0x50c>
    92a4:	e045c000 	sub	ip, r5, r0
    92a8:	e24ce001 	sub	lr, ip, #1, 0
    92ac:	e35e0002 	cmp	lr, #2, 0
    92b0:	e1a0e003 	mov	lr, r3
    92b4:	9a00000a 	bls	92e4 <va_printk+0x3ec>
    92b8:	e3cc9003 	bic	r9, ip, #3, 0
    92bc:	e0899003 	add	r9, r9, r3
    92c0:	e59fb22c 	ldr	fp, [pc, #556]	; 94f4 <va_printk+0x5fc>
    92c4:	e48eb004 	str	fp, [lr], #4
    92c8:	e15e0009 	cmp	lr, r9
    92cc:	1afffffb 	bne	92c0 <va_printk+0x3c8>
    92d0:	e3cce003 	bic	lr, ip, #3, 0
    92d4:	e15e000c 	cmp	lr, ip
    92d8:	e080000e 	add	r0, r0, lr
    92dc:	e083e00e 	add	lr, r3, lr
    92e0:	0a000008 	beq	9308 <va_printk+0x410>
    92e4:	e3a09020 	mov	r9, #32, 0
    92e8:	e280b001 	add	fp, r0, #1, 0
    92ec:	e155000b 	cmp	r5, fp
    92f0:	e5ce9000 	strb	r9, [lr]
    92f4:	da000003 	ble	9308 <va_printk+0x410>
    92f8:	e2800002 	add	r0, r0, #2, 0
    92fc:	e1550000 	cmp	r5, r0
    9300:	e5ce9001 	strb	r9, [lr, #1]
    9304:	c5ce9002 	strbgt	r9, [lr, #2]
    9308:	e3a0e000 	mov	lr, #0, 0
    930c:	e083000c 	add	r0, r3, ip
    9310:	e0400001 	sub	r0, r0, r1
    9314:	e350007f 	cmp	r0, #127, 0	; 0x7f
    9318:	e082200c 	add	r2, r2, ip
    931c:	e7c3e00c 	strb	lr, [r3, ip]
    9320:	da000001 	ble	932c <va_printk+0x434>
    9324:	e240007f 	sub	r0, r0, #127, 0	; 0x7f
    9328:	e0811000 	add	r1, r1, r0
    932c:	e1510002 	cmp	r1, r2
    9330:	8a000030 	bhi	93f8 <va_printk+0x500>
    9334:	e2822001 	add	r2, r2, #1, 0
    9338:	e1a03002 	mov	r3, r2
    933c:	e28d5018 	add	r5, sp, #24, 0
    9340:	e245c001 	sub	ip, r5, #1, 0
    9344:	e5730001 	ldrb	r0, [r3, #-1]!
    9348:	e1530001 	cmp	r3, r1
    934c:	e5ec0001 	strb	r0, [ip, #1]!
    9350:	1afffffb 	bne	9344 <va_printk+0x44c>
    9354:	e0423003 	sub	r3, r2, r3
    9358:	e0853003 	add	r3, r5, r3
    935c:	e3a02000 	mov	r2, #0, 0
    9360:	e5c32000 	strb	r2, [r3]
    9364:	eaffff39 	b	9050 <va_printk+0x158>
    9368:	e4985004 	ldr	r5, [r8], #4
    936c:	eaffff37 	b	9050 <va_printk+0x158>
    9370:	e3a02003 	mov	r2, #3, 0
    9374:	e1a00006 	mov	r0, r6
    9378:	e59f1168 	ldr	r1, [pc, #360]	; 94e8 <va_printk+0x5f0>
    937c:	eb0001cc 	bl	9ab4 <strncmp>
    9380:	e2503000 	subs	r3, r0, #0, 0
    9384:	1a00004b 	bne	94b8 <va_printk+0x5c0>
    9388:	e1a06003 	mov	r6, r3
    938c:	e1a0200b 	mov	r2, fp
    9390:	e58d3000 	str	r3, [sp]
    9394:	e28d1018 	add	r1, sp, #24, 0
    9398:	e1a03005 	mov	r3, r5
    939c:	e3a0000a 	mov	r0, #10, 0
    93a0:	ebfffdf2 	bl	8b70 <emit.constprop.0>
    93a4:	e1a0c000 	mov	ip, r0
    93a8:	e1a03005 	mov	r3, r5
    93ac:	e1a02009 	mov	r2, r9
    93b0:	e28d1098 	add	r1, sp, #152, 0	; 0x98
    93b4:	e3a0000a 	mov	r0, #10, 0
    93b8:	e58d6000 	str	r6, [sp]
    93bc:	e1a0500c 	mov	r5, ip
    93c0:	ebfffdea 	bl	8b70 <emit.constprop.0>
    93c4:	e59f112c 	ldr	r1, [pc, #300]	; 94f8 <va_printk+0x600>
    93c8:	e28d0018 	add	r0, sp, #24, 0
    93cc:	eb0001a1 	bl	9a58 <strcmp>
    93d0:	e3500000 	cmp	r0, #0, 0
    93d4:	e28d1098 	add	r1, sp, #152, 0	; 0x98
    93d8:	e28d0018 	add	r0, sp, #24, 0
    93dc:	1a000002 	bne	93ec <va_printk+0x4f4>
    93e0:	eb0001ad 	bl	9a9c <strcpy>
    93e4:	e59d6014 	ldr	r6, [sp, #20]
    93e8:	eaffff18 	b	9050 <va_printk+0x158>
    93ec:	eb00018e 	bl	9a2c <strcat>
    93f0:	e59d6014 	ldr	r6, [sp, #20]
    93f4:	eaffff15 	b	9050 <va_printk+0x158>
    93f8:	e28d5018 	add	r5, sp, #24, 0
    93fc:	e1a03005 	mov	r3, r5
    9400:	eaffffd5 	b	935c <va_printk+0x464>
    9404:	e3a0c000 	mov	ip, #0, 0
    9408:	e350007f 	cmp	r0, #127, 0	; 0x7f
    940c:	e5c3c000 	strb	ip, [r3]
    9410:	caffffc3 	bgt	9324 <va_printk+0x42c>
    9414:	eaffffc6 	b	9334 <va_printk+0x43c>
    9418:	e3a02000 	mov	r2, #0, 0
    941c:	e28d3098 	add	r3, sp, #152, 0	; 0x98
    9420:	e1a00003 	mov	r0, r3
    9424:	e5cd2099 	strb	r2, [sp, #153]	; 0x99
    9428:	eaffff85 	b	9244 <va_printk+0x34c>
    942c:	e3a03000 	mov	r3, #0, 0
    9430:	e1a01002 	mov	r1, r2
    9434:	e5c63001 	strb	r3, [r6, #1]
    9438:	e59f00bc 	ldr	r0, [pc, #188]	; 94fc <va_printk+0x604>
    943c:	ebfffd98 	bl	8aa4 <printk>
    9440:	e59f30b8 	ldr	r3, [pc, #184]	; 9500 <va_printk+0x608>
    9444:	e59d0010 	ldr	r0, [sp, #16]
    9448:	e5933000 	ldr	r3, [r3]
    944c:	e12fff33 	blx	r3
    9450:	e3a030e2 	mov	r3, #226, 0	; 0xe2
    9454:	e59f20a8 	ldr	r2, [pc, #168]	; 9504 <va_printk+0x60c>
    9458:	e59f10a8 	ldr	r1, [pc, #168]	; 9508 <va_printk+0x610>
    945c:	e59f00a8 	ldr	r0, [pc, #168]	; 950c <va_printk+0x614>
    9460:	ebfffd8f 	bl	8aa4 <printk>
    9464:	eb00002e 	bl	9524 <clean_reboot>
    9468:	e3a030be 	mov	r3, #190, 0	; 0xbe
    946c:	e59f2090 	ldr	r2, [pc, #144]	; 9504 <va_printk+0x60c>
    9470:	e59f1090 	ldr	r1, [pc, #144]	; 9508 <va_printk+0x610>
    9474:	e59f0094 	ldr	r0, [pc, #148]	; 9510 <va_printk+0x618>
    9478:	ebfffd89 	bl	8aa4 <printk>
    947c:	eb000028 	bl	9524 <clean_reboot>
    9480:	e28dc099 	add	ip, sp, #153, 0	; 0x99
    9484:	e1a0000c 	mov	r0, ip
    9488:	e3a02001 	mov	r2, #1, 0
    948c:	eaffff58 	b	91f4 <va_printk+0x2fc>
    9490:	e1a0400b 	mov	r4, fp
    9494:	eafffee0 	b	901c <va_printk+0x124>
    9498:	e3a03098 	mov	r3, #152, 0	; 0x98
    949c:	e59f2070 	ldr	r2, [pc, #112]	; 9514 <va_printk+0x61c>
    94a0:	e59f1060 	ldr	r1, [pc, #96]	; 9508 <va_printk+0x610>
    94a4:	e58d2000 	str	r2, [sp]
    94a8:	e59f0068 	ldr	r0, [pc, #104]	; 9518 <va_printk+0x620>
    94ac:	e59f2050 	ldr	r2, [pc, #80]	; 9504 <va_printk+0x60c>
    94b0:	ebfffd7b 	bl	8aa4 <printk>
    94b4:	eb00001a 	bl	9524 <clean_reboot>
    94b8:	e3a030b6 	mov	r3, #182, 0	; 0xb6
    94bc:	e59f2040 	ldr	r2, [pc, #64]	; 9504 <va_printk+0x60c>
    94c0:	e59f1040 	ldr	r1, [pc, #64]	; 9508 <va_printk+0x610>
    94c4:	e59f0050 	ldr	r0, [pc, #80]	; 951c <va_printk+0x624>
    94c8:	e58d6000 	str	r6, [sp]
    94cc:	ebfffd74 	bl	8aa4 <printk>
    94d0:	eb000013 	bl	9524 <clean_reboot>
    94d4:	e3a0309f 	mov	r3, #159, 0	; 0x9f
    94d8:	e59f2040 	ldr	r2, [pc, #64]	; 9520 <va_printk+0x628>
    94dc:	eaffffef 	b	94a0 <va_printk+0x5a8>
    94e0:	00009d9c 	muleq	r0, ip, sp
    94e4:	00009dc0 	andeq	r9, r0, r0, asr #27
    94e8:	00009dd4 	ldrdeq	r9, [r0], -r4
    94ec:	00009dc4 	andeq	r9, r0, r4, asr #27
    94f0:	00009dcc 	andeq	r9, r0, ip, asr #27
    94f4:	20202020 	eorcs	r2, r0, r0, lsr #32
    94f8:	00009d34 	andeq	r9, r0, r4, lsr sp
    94fc:	00009e64 	andeq	r9, r0, r4, ror #28
    9500:	00009f04 	andeq	r9, r0, r4, lsl #30
    9504:	00009ecc 	andeq	r9, r0, ip, asr #29
    9508:	00009d74 	andeq	r9, r0, r4, ror sp
    950c:	00009e94 	muleq	r0, r4, lr
    9510:	00009e3c 	andeq	r9, r0, ip, lsr lr
    9514:	00009db4 			; <UNDEFINED> instruction: 0x00009db4
    9518:	00009cb8 			; <UNDEFINED> instruction: 0x00009cb8
    951c:	00009e14 	andeq	r9, r0, r4, lsl lr
    9520:	00009dd8 	ldrdeq	r9, [r0], -r8

00009524 <clean_reboot>:
    9524:	e59f301c 	ldr	r3, [pc, #28]	; 9548 <clean_reboot+0x24>
    9528:	e92d4010 	push	{r4, lr}
    952c:	e5933000 	ldr	r3, [r3]
    9530:	e59f0014 	ldr	r0, [pc, #20]	; 954c <clean_reboot+0x28>
    9534:	e12fff33 	blx	r3
    9538:	eb00012d 	bl	99f4 <uart_flush_tx>
    953c:	e3a0000a 	mov	r0, #10, 0
    9540:	eb000094 	bl	9798 <delay_ms>
    9544:	eb00005d 	bl	96c0 <rpi_reboot>
    9548:	00009f04 	andeq	r9, r0, r4, lsl #30
    954c:	00009ed8 	ldrdeq	r9, [r0], -r8

00009550 <_cstart>:
    9550:	e92d4070 	push	{r4, r5, r6, lr}
    9554:	eb000047 	bl	9678 <custom_loader>
    9558:	e59f2108 	ldr	r2, [pc, #264]	; 9668 <_cstart+0x118>
    955c:	e59fc108 	ldr	ip, [pc, #264]	; 966c <_cstart+0x11c>
    9560:	e152000c 	cmp	r2, ip
    9564:	2a00002e 	bcs	9624 <_cstart+0xd4>
    9568:	e24c1001 	sub	r1, ip, #1, 0
    956c:	e0411002 	sub	r1, r1, r2
    9570:	e3510017 	cmp	r1, #23, 0
    9574:	e1a03122 	lsr	r3, r2, #2
    9578:	e1a01121 	lsr	r1, r1, #2
    957c:	e2811001 	add	r1, r1, #1, 0
    9580:	e2033001 	and	r3, r3, #1, 0
    9584:	9a000035 	bls	9660 <_cstart+0x110>
    9588:	e3530000 	cmp	r3, #0, 0
    958c:	11a00002 	movne	r0, r2
    9590:	13a0e000 	movne	lr, #0, 0
    9594:	e3a04000 	mov	r4, #0, 0
    9598:	e3a05000 	mov	r5, #0, 0
    959c:	e0411003 	sub	r1, r1, r3
    95a0:	01a00002 	moveq	r0, r2
    95a4:	e0823103 	add	r3, r2, r3, lsl #2
    95a8:	e1a020a1 	lsr	r2, r1, #1
    95ac:	1480e004 	strne	lr, [r0], #4
    95b0:	e0832182 	add	r2, r3, r2, lsl #3
    95b4:	e0c340f8 	strd	r4, [r3], #8
    95b8:	e1520003 	cmp	r2, r3
    95bc:	1afffffc 	bne	95b4 <_cstart+0x64>
    95c0:	e3c13001 	bic	r3, r1, #1, 0
    95c4:	e1510003 	cmp	r1, r3
    95c8:	e0803103 	add	r3, r0, r3, lsl #2
    95cc:	0a000014 	beq	9624 <_cstart+0xd4>
    95d0:	e1a01003 	mov	r1, r3
    95d4:	e3a02000 	mov	r2, #0, 0
    95d8:	e4812004 	str	r2, [r1], #4
    95dc:	e151000c 	cmp	r1, ip
    95e0:	2a00000f 	bcs	9624 <_cstart+0xd4>
    95e4:	e2831008 	add	r1, r3, #8, 0
    95e8:	e151000c 	cmp	r1, ip
    95ec:	e5832004 	str	r2, [r3, #4]
    95f0:	2a00000b 	bcs	9624 <_cstart+0xd4>
    95f4:	e283100c 	add	r1, r3, #12, 0
    95f8:	e151000c 	cmp	r1, ip
    95fc:	e5832008 	str	r2, [r3, #8]
    9600:	2a000007 	bcs	9624 <_cstart+0xd4>
    9604:	e2831010 	add	r1, r3, #16, 0
    9608:	e151000c 	cmp	r1, ip
    960c:	e583200c 	str	r2, [r3, #12]
    9610:	2a000003 	bcs	9624 <_cstart+0xd4>
    9614:	e2831014 	add	r1, r3, #20, 0
    9618:	e151000c 	cmp	r1, ip
    961c:	e5832010 	str	r2, [r3, #16]
    9620:	35832014 	strcc	r2, [r3, #20]
    9624:	eb000094 	bl	987c <uart_init>
    9628:	e3a03001 	mov	r3, #1, 0
    962c:	ee0f3f1c 	mcr	15, 0, r3, cr15, cr12, {0}
    9630:	ee1f3f3c 	mrc	15, 0, r3, cr15, cr12, {1}
    9634:	e59f4034 	ldr	r4, [pc, #52]	; 9670 <_cstart+0x120>
    9638:	e5843000 	str	r3, [r4]
    963c:	ebfffa7d 	bl	8038 <notmain>
    9640:	ee1f3f3c 	mrc	15, 0, r3, cr15, cr12, {1}
    9644:	e5941000 	ldr	r1, [r4]
    9648:	e59f0024 	ldr	r0, [pc, #36]	; 9674 <_cstart+0x124>
    964c:	e3510000 	cmp	r1, #0, 0
    9650:	10431001 	subne	r1, r3, r1
    9654:	e5843000 	str	r3, [r4]
    9658:	ebfffd11 	bl	8aa4 <printk>
    965c:	ebffffb0 	bl	9524 <clean_reboot>
    9660:	e1a03002 	mov	r3, r2
    9664:	eaffffd9 	b	95d0 <_cstart+0x80>
    9668:	00009f08 	andeq	r9, r0, r8, lsl #30
    966c:	0000a310 	andeq	sl, r0, r0, lsl r3
    9670:	0000a30c 	andeq	sl, r0, ip, lsl #6
    9674:	00009ee4 	andeq	r9, r0, r4, ror #29

00009678 <custom_loader>:
    9678:	e12fff1e 	bx	lr

0000967c <dev_barrier>:
    967c:	ea000002 	b	968c <dsb>

00009680 <dmb>:
    9680:	e3a00000 	mov	r0, #0, 0
    9684:	ee070fba 	mcr	15, 0, r0, cr7, cr10, {5}
    9688:	e12fff1e 	bx	lr

0000968c <dsb>:
    968c:	ee070f9a 	mcr	15, 0, r0, cr7, cr10, {4}
    9690:	e12fff1e 	bx	lr

00009694 <at_user_level>:
    9694:	e10f0000 	mrs	r0, CPSR
    9698:	e200001f 	and	r0, r0, #31, 0
    969c:	e2400010 	sub	r0, r0, #16, 0
    96a0:	e16f0f10 	clz	r0, r0
    96a4:	e1a002a0 	lsr	r0, r0, #5
    96a8:	e12fff1e 	bx	lr

000096ac <set_user_level>:
    96ac:	e10f3000 	mrs	r3, CPSR
    96b0:	e3c3301f 	bic	r3, r3, #31, 0
    96b4:	e3833010 	orr	r3, r3, #16, 0
    96b8:	e129f003 	msr	CPSR_fc, r3
    96bc:	e12fff1e 	bx	lr

000096c0 <rpi_reboot>:
    96c0:	e92d4010 	push	{r4, lr}
    96c4:	e10f3000 	mrs	r3, CPSR
    96c8:	e203301f 	and	r3, r3, #31, 0
    96cc:	e3530010 	cmp	r3, #16, 0
    96d0:	1a000003 	bne	96e4 <rpi_reboot+0x24>
    96d4:	e10f3000 	mrs	r3, CPSR
    96d8:	e3c3301f 	bic	r3, r3, #31, 0
    96dc:	e3833010 	orr	r3, r3, #16, 0
    96e0:	e129f003 	msr	CPSR_fc, r3
    96e4:	eb0000fe 	bl	9ae4 <reboot_callout>
    96e8:	eb0000c1 	bl	99f4 <uart_flush_tx>
    96ec:	e3a0000a 	mov	r0, #10, 0
    96f0:	eb000028 	bl	9798 <delay_ms>
    96f4:	e59f1014 	ldr	r1, [pc, #20]	; 9710 <rpi_reboot+0x50>
    96f8:	e59f0014 	ldr	r0, [pc, #20]	; 9714 <rpi_reboot+0x54>
    96fc:	ebfffa48 	bl	8024 <PUT32>
    9700:	e59f1010 	ldr	r1, [pc, #16]	; 9718 <rpi_reboot+0x58>
    9704:	e59f0010 	ldr	r0, [pc, #16]	; 971c <rpi_reboot+0x5c>
    9708:	ebfffa45 	bl	8024 <PUT32>
    970c:	eafffffe 	b	970c <rpi_reboot+0x4c>
    9710:	5a000001 	bpl	971c <rpi_reboot+0x5c>
    9714:	20100024 	andscs	r0, r0, r4, lsr #32
    9718:	5a000020 	bpl	97a0 <delay_ms+0x8>
    971c:	2010001c 	andscs	r0, r0, ip, lsl r0

00009720 <timer_get_usec_raw>:
    9720:	e59f0000 	ldr	r0, [pc]	; 9728 <timer_get_usec_raw+0x8>
    9724:	eafffa40 	b	802c <GET32>
    9728:	20003004 	andcs	r3, r0, r4

0000972c <timer_get_usec>:
    972c:	e92d4010 	push	{r4, lr}
    9730:	ebffffd1 	bl	967c <dev_barrier>
    9734:	e59f0010 	ldr	r0, [pc, #16]	; 974c <timer_get_usec+0x20>
    9738:	ebfffa3b 	bl	802c <GET32>
    973c:	e1a04000 	mov	r4, r0
    9740:	ebffffcd 	bl	967c <dev_barrier>
    9744:	e1a00004 	mov	r0, r4
    9748:	e8bd8010 	pop	{r4, pc}
    974c:	20003004 	andcs	r3, r0, r4

00009750 <delay_us>:
    9750:	e92d41f0 	push	{r4, r5, r6, r7, r8, lr}
    9754:	e1a06000 	mov	r6, r0
    9758:	ebffffc7 	bl	967c <dev_barrier>
    975c:	e59f0030 	ldr	r0, [pc, #48]	; 9794 <delay_us+0x44>
    9760:	ebfffa31 	bl	802c <GET32>
    9764:	e1a05000 	mov	r5, r0
    9768:	ebffffc3 	bl	967c <dev_barrier>
    976c:	e59f7020 	ldr	r7, [pc, #32]	; 9794 <delay_us+0x44>
    9770:	ebffffc1 	bl	967c <dev_barrier>
    9774:	e1a00007 	mov	r0, r7
    9778:	ebfffa2b 	bl	802c <GET32>
    977c:	e1a04000 	mov	r4, r0
    9780:	e0444005 	sub	r4, r4, r5
    9784:	ebffffbc 	bl	967c <dev_barrier>
    9788:	e1540006 	cmp	r4, r6
    978c:	3afffff7 	bcc	9770 <delay_us+0x20>
    9790:	e8bd81f0 	pop	{r4, r5, r6, r7, r8, pc}
    9794:	20003004 	andcs	r3, r0, r4

00009798 <delay_ms>:
    9798:	e92d41f0 	push	{r4, r5, r6, r7, r8, lr}
    979c:	e0604280 	rsb	r4, r0, r0, lsl #5
    97a0:	e0800104 	add	r0, r0, r4, lsl #2
    97a4:	e1a04180 	lsl	r4, r0, #3
    97a8:	ebffffb3 	bl	967c <dev_barrier>
    97ac:	e59f0030 	ldr	r0, [pc, #48]	; 97e4 <delay_ms+0x4c>
    97b0:	ebfffa1d 	bl	802c <GET32>
    97b4:	e1a06000 	mov	r6, r0
    97b8:	ebffffaf 	bl	967c <dev_barrier>
    97bc:	e59f7020 	ldr	r7, [pc, #32]	; 97e4 <delay_ms+0x4c>
    97c0:	ebffffad 	bl	967c <dev_barrier>
    97c4:	e1a00007 	mov	r0, r7
    97c8:	ebfffa17 	bl	802c <GET32>
    97cc:	e1a05000 	mov	r5, r0
    97d0:	e0455006 	sub	r5, r5, r6
    97d4:	ebffffa8 	bl	967c <dev_barrier>
    97d8:	e1540005 	cmp	r4, r5
    97dc:	8afffff7 	bhi	97c0 <delay_ms+0x28>
    97e0:	e8bd81f0 	pop	{r4, r5, r6, r7, r8, pc}
    97e4:	20003004 	andcs	r3, r0, r4

000097e8 <delay_sec>:
    97e8:	e92d41f0 	push	{r4, r5, r6, r7, r8, lr}
    97ec:	e0604280 	rsb	r4, r0, r0, lsl #5
    97f0:	e0644304 	rsb	r4, r4, r4, lsl #6
    97f4:	e0800184 	add	r0, r0, r4, lsl #3
    97f8:	e1a04300 	lsl	r4, r0, #6
    97fc:	ebffff9e 	bl	967c <dev_barrier>
    9800:	e59f0030 	ldr	r0, [pc, #48]	; 9838 <delay_sec+0x50>
    9804:	ebfffa08 	bl	802c <GET32>
    9808:	e1a06000 	mov	r6, r0
    980c:	ebffff9a 	bl	967c <dev_barrier>
    9810:	e59f7020 	ldr	r7, [pc, #32]	; 9838 <delay_sec+0x50>
    9814:	ebffff98 	bl	967c <dev_barrier>
    9818:	e1a00007 	mov	r0, r7
    981c:	ebfffa02 	bl	802c <GET32>
    9820:	e1a05000 	mov	r5, r0
    9824:	e0455006 	sub	r5, r5, r6
    9828:	ebffff93 	bl	967c <dev_barrier>
    982c:	e1540005 	cmp	r4, r5
    9830:	8afffff7 	bhi	9814 <delay_sec+0x2c>
    9834:	e8bd81f0 	pop	{r4, r5, r6, r7, r8, pc}
    9838:	20003004 	andcs	r3, r0, r4

0000983c <and_in32>:
    983c:	e92d4070 	push	{r4, r5, r6, lr}
    9840:	e1a04000 	mov	r4, r0
    9844:	e1a05001 	mov	r5, r1
    9848:	ebfff9f7 	bl	802c <GET32>
    984c:	e0001005 	and	r1, r0, r5
    9850:	e1a00004 	mov	r0, r4
    9854:	ebfff9f2 	bl	8024 <PUT32>
    9858:	e8bd8070 	pop	{r4, r5, r6, pc}

0000985c <or_in32>:
    985c:	e92d4070 	push	{r4, r5, r6, lr}
    9860:	e1a04000 	mov	r4, r0
    9864:	e1a05001 	mov	r5, r1
    9868:	ebfff9ef 	bl	802c <GET32>
    986c:	e1801005 	orr	r1, r0, r5
    9870:	e1a00004 	mov	r0, r4
    9874:	ebfff9ea 	bl	8024 <PUT32>
    9878:	e8bd8070 	pop	{r4, r5, r6, pc}

0000987c <uart_init>:
    987c:	e92d4010 	push	{r4, lr}
    9880:	e3a01002 	mov	r1, #2, 0
    9884:	e3a0000e 	mov	r0, #14, 0
    9888:	ebfffc1f 	bl	890c <gpio_set_function>
    988c:	e3a01002 	mov	r1, #2, 0
    9890:	e3a0000f 	mov	r0, #15, 0
    9894:	ebfffc1c 	bl	890c <gpio_set_function>
    9898:	ebffff77 	bl	967c <dev_barrier>
    989c:	e3a01001 	mov	r1, #1, 0
    98a0:	e59f0064 	ldr	r0, [pc, #100]	; 990c <uart_init+0x90>
    98a4:	ebffffec 	bl	985c <or_in32>
    98a8:	ebffff73 	bl	967c <dev_barrier>
    98ac:	e59f405c 	ldr	r4, [pc, #92]	; 9910 <uart_init+0x94>
    98b0:	e3a01000 	mov	r1, #0, 0
    98b4:	e1a00004 	mov	r0, r4
    98b8:	ebfff9d9 	bl	8024 <PUT32>
    98bc:	e3a01000 	mov	r1, #0, 0
    98c0:	e59f004c 	ldr	r0, [pc, #76]	; 9914 <uart_init+0x98>
    98c4:	ebfff9d6 	bl	8024 <PUT32>
    98c8:	e3a01003 	mov	r1, #3, 0
    98cc:	e59f0044 	ldr	r0, [pc, #68]	; 9918 <uart_init+0x9c>
    98d0:	ebfff9d3 	bl	8024 <PUT32>
    98d4:	e3a01000 	mov	r1, #0, 0
    98d8:	e59f003c 	ldr	r0, [pc, #60]	; 991c <uart_init+0xa0>
    98dc:	ebfff9d0 	bl	8024 <PUT32>
    98e0:	e3a010c7 	mov	r1, #199, 0	; 0xc7
    98e4:	e59f0034 	ldr	r0, [pc, #52]	; 9920 <uart_init+0xa4>
    98e8:	ebfff9cd 	bl	8024 <PUT32>
    98ec:	e59f1030 	ldr	r1, [pc, #48]	; 9924 <uart_init+0xa8>
    98f0:	e59f0030 	ldr	r0, [pc, #48]	; 9928 <uart_init+0xac>
    98f4:	ebfff9ca 	bl	8024 <PUT32>
    98f8:	e3a01003 	mov	r1, #3, 0
    98fc:	e1a00004 	mov	r0, r4
    9900:	ebfff9c7 	bl	8024 <PUT32>
    9904:	ebffff5c 	bl	967c <dev_barrier>
    9908:	e8bd8010 	pop	{r4, pc}
    990c:	20215004 	eorcs	r5, r1, r4
    9910:	20215060 	eorcs	r5, r1, r0, rrx
    9914:	20215044 	eorcs	r5, r1, r4, asr #32
    9918:	2021504c 	eorcs	r5, r1, ip, asr #32
    991c:	20215050 	eorcs	r5, r1, r0, asr r0
    9920:	20215048 	eorcs	r5, r1, r8, asr #32
    9924:	0000010e 	andeq	r0, r0, lr, lsl #2
    9928:	20215068 	eorcs	r5, r1, r8, rrx

0000992c <uart_can_getc>:
    992c:	e92d4010 	push	{r4, lr}
    9930:	e59f0008 	ldr	r0, [pc, #8]	; 9940 <uart_can_getc+0x14>
    9934:	ebfff9bc 	bl	802c <GET32>
    9938:	e2000001 	and	r0, r0, #1, 0
    993c:	e8bd8010 	pop	{r4, pc}
    9940:	20215064 	eorcs	r5, r1, r4, rrx

00009944 <uart_can_putc>:
    9944:	e92d4010 	push	{r4, lr}
    9948:	e59f0010 	ldr	r0, [pc, #16]	; 9960 <uart_can_putc+0x1c>
    994c:	ebfff9b6 	bl	802c <GET32>
    9950:	e3100002 	tst	r0, #2, 0
    9954:	13a00001 	movne	r0, #1, 0
    9958:	03a00000 	moveq	r0, #0, 0
    995c:	e8bd8010 	pop	{r4, pc}
    9960:	20215064 	eorcs	r5, r1, r4, rrx

00009964 <uart_getc>:
    9964:	e92d4010 	push	{r4, lr}
    9968:	ebffff43 	bl	967c <dev_barrier>
    996c:	ebffffee 	bl	992c <uart_can_getc>
    9970:	e3500000 	cmp	r0, #0, 0
    9974:	0afffffc 	beq	996c <uart_getc+0x8>
    9978:	e59f0010 	ldr	r0, [pc, #16]	; 9990 <uart_getc+0x2c>
    997c:	ebfff9aa 	bl	802c <GET32>
    9980:	e6ef4070 	uxtb	r4, r0
    9984:	ebffff3c 	bl	967c <dev_barrier>
    9988:	e1a00004 	mov	r0, r4
    998c:	e8bd8010 	pop	{r4, pc}
    9990:	20215040 	eorcs	r5, r1, r0, asr #32

00009994 <uart_putc>:
    9994:	e92d4010 	push	{r4, lr}
    9998:	e1a04000 	mov	r4, r0
    999c:	ebffff36 	bl	967c <dev_barrier>
    99a0:	ebffffe7 	bl	9944 <uart_can_putc>
    99a4:	e3500000 	cmp	r0, #0, 0
    99a8:	0afffffc 	beq	99a0 <uart_putc+0xc>
    99ac:	e6ef1074 	uxtb	r1, r4
    99b0:	e59f0008 	ldr	r0, [pc, #8]	; 99c0 <uart_putc+0x2c>
    99b4:	ebfff99a 	bl	8024 <PUT32>
    99b8:	ebffff2f 	bl	967c <dev_barrier>
    99bc:	e8bd8010 	pop	{r4, pc}
    99c0:	20215040 	eorcs	r5, r1, r0, asr #32

000099c4 <uart_has_data>:
    99c4:	e92d4010 	push	{r4, lr}
    99c8:	ebffff2b 	bl	967c <dev_barrier>
    99cc:	ebffffd6 	bl	992c <uart_can_getc>
    99d0:	e8bd8010 	pop	{r4, pc}

000099d4 <uart_tx_is_empty>:
    99d4:	e92d4010 	push	{r4, lr}
    99d8:	ebffff27 	bl	967c <dev_barrier>
    99dc:	e59f000c 	ldr	r0, [pc, #12]	; 99f0 <uart_tx_is_empty+0x1c>
    99e0:	ebfff991 	bl	802c <GET32>
    99e4:	e1a004a0 	lsr	r0, r0, #9
    99e8:	e2000001 	and	r0, r0, #1, 0
    99ec:	e8bd8010 	pop	{r4, pc}
    99f0:	20215064 	eorcs	r5, r1, r4, rrx

000099f4 <uart_flush_tx>:
    99f4:	e92d4010 	push	{r4, lr}
    99f8:	ebfffff5 	bl	99d4 <uart_tx_is_empty>
    99fc:	e3500000 	cmp	r0, #0, 0
    9a00:	0afffffc 	beq	99f8 <uart_flush_tx+0x4>
    9a04:	e8bd8010 	pop	{r4, pc}

00009a08 <uart_disable>:
    9a08:	e92d4010 	push	{r4, lr}
    9a0c:	ebfffff8 	bl	99f4 <uart_flush_tx>
    9a10:	ebffff19 	bl	967c <dev_barrier>
    9a14:	e3e01001 	mvn	r1, #1, 0
    9a18:	e59f0008 	ldr	r0, [pc, #8]	; 9a28 <uart_disable+0x20>
    9a1c:	ebffff86 	bl	983c <and_in32>
    9a20:	ebffff15 	bl	967c <dev_barrier>
    9a24:	e8bd8010 	pop	{r4, pc}
    9a28:	20215004 	eorcs	r5, r1, r4

00009a2c <strcat>:
    9a2c:	e1a02000 	mov	r2, r0
    9a30:	e1a03002 	mov	r3, r2
    9a34:	e4d2c001 	ldrb	ip, [r2], #1
    9a38:	e35c0000 	cmp	ip, #0, 0
    9a3c:	1afffffb 	bne	9a30 <strcat+0x4>
    9a40:	e2433001 	sub	r3, r3, #1, 0
    9a44:	e4d12001 	ldrb	r2, [r1], #1
    9a48:	e3520000 	cmp	r2, #0, 0
    9a4c:	e5e32001 	strb	r2, [r3, #1]!
    9a50:	1afffffb 	bne	9a44 <strcat+0x18>
    9a54:	e12fff1e 	bx	lr

00009a58 <strcmp>:
    9a58:	e5d03000 	ldrb	r3, [r0]
    9a5c:	e3530000 	cmp	r3, #0, 0
    9a60:	05d12000 	ldrbeq	r2, [r1]
    9a64:	1a000003 	bne	9a78 <strcmp+0x20>
    9a68:	ea000006 	b	9a88 <strcmp+0x30>
    9a6c:	e5f03001 	ldrb	r3, [r0, #1]!
    9a70:	e3530000 	cmp	r3, #0, 0
    9a74:	0a000005 	beq	9a90 <strcmp+0x38>
    9a78:	e1a0c001 	mov	ip, r1
    9a7c:	e4d12001 	ldrb	r2, [r1], #1
    9a80:	e1520003 	cmp	r2, r3
    9a84:	0afffff8 	beq	9a6c <strcmp+0x14>
    9a88:	e0430002 	sub	r0, r3, r2
    9a8c:	e12fff1e 	bx	lr
    9a90:	e5dc2001 	ldrb	r2, [ip, #1]
    9a94:	e0430002 	sub	r0, r3, r2
    9a98:	e12fff1e 	bx	lr

00009a9c <strcpy>:
    9a9c:	e2402001 	sub	r2, r0, #1, 0
    9aa0:	e4d13001 	ldrb	r3, [r1], #1
    9aa4:	e3530000 	cmp	r3, #0, 0
    9aa8:	e5e23001 	strb	r3, [r2, #1]!
    9aac:	1afffffb 	bne	9aa0 <strcpy+0x4>
    9ab0:	e12fff1e 	bx	lr

00009ab4 <strncmp>:
    9ab4:	e0802002 	add	r2, r0, r2
    9ab8:	ea000003 	b	9acc <strncmp+0x18>
    9abc:	e4d03001 	ldrb	r3, [r0], #1
    9ac0:	e4d1c001 	ldrb	ip, [r1], #1
    9ac4:	e153000c 	cmp	r3, ip
    9ac8:	1a000003 	bne	9adc <strncmp+0x28>
    9acc:	e1500002 	cmp	r0, r2
    9ad0:	1afffff9 	bne	9abc <strncmp+0x8>
    9ad4:	e3a00000 	mov	r0, #0, 0
    9ad8:	e12fff1e 	bx	lr
    9adc:	e043000c 	sub	r0, r3, ip
    9ae0:	e12fff1e 	bx	lr

00009ae4 <reboot_callout>:
    9ae4:	e12fff1e 	bx	lr

Disassembly of section .rodata:

00009ae8 <__FUNCTION__.4082-0x160>:
    9ae8:	64206f4e 	strtvs	r6, [r0], #-3918	; 0xfffff0b2
    9aec:	20617461 	rsbcs	r7, r1, r1, ror #8
    9af0:	65636572 	strbvs	r6, [r3, #-1394]!	; 0xfffffa8e
    9af4:	64657669 	strbtvs	r7, [r5], #-1641	; 0xfffff997
    9af8:	206e6920 	rsbcs	r6, lr, r0, lsr #18
    9afc:	656d6974 	strbvs	r6, [sp, #-2420]!	; 0xfffff68c
    9b00:	00000a21 	andeq	r0, r0, r1, lsr #20
    9b04:	00096425 	andeq	r6, r9, r5, lsr #8
    9b08:	00000023 	andeq	r0, r0, r3, lsr #32
    9b0c:	74696e69 	strbtvc	r6, [r9], #-3689	; 0xfffff197
    9b10:	3a6c6169 	bcc	1b220bc <__bss_end__+0x1b17dac>
    9b14:	6e6f6320 	cdpvs	3, 6, cr6, cr15, cr0, {1}
    9b18:	20676966 	rsbcs	r6, r7, r6, ror #18
    9b1c:	20676572 	rsbcs	r6, r7, r2, ror r5
    9b20:	253d203d 	ldrcs	r2, [sp, #-61]!	; 0xffffffc3
    9b24:	6c282078 	stcvs	0, cr2, [r8], #-480	; 0xfffffe20
    9b28:	62253d6f 	eorvs	r3, r5, #7104	; 0x1bc0
    9b2c:	3d69682c 	stclcc	8, cr6, [r9, #-176]!	; 0xffffff50
    9b30:	0a296225 	beq	a623cc <__bss_end__+0xa580bc>
    9b34:	00000000 	andeq	r0, r0, r0
    9b38:	31736461 	cmncc	r3, r1, ror #8
    9b3c:	2e353131 	mrccs	1, 1, r3, cr5, cr1, {1}
    9b40:	00000063 	andeq	r0, r0, r3, rrx
    9b44:	4f525245 	svcmi	0x00525245
    9b48:	73253a52 			; <UNDEFINED> instruction: 0x73253a52
    9b4c:	3a73253a 	bcc	1cd303c <__bss_end__+0x1cc8d2c>
    9b50:	203a6425 	eorscs	r6, sl, r5, lsr #8
    9b54:	534c4146 	movtpl	r4, #49478	; 0xc146
    9b58:	253c2845 	ldrcs	r2, [ip, #-2117]!	; 0xfffff7bb
    9b5c:	3a293e73 	bcc	a59530 <__bss_end__+0xa4f220>
    9b60:	61622220 	cmnvs	r2, r0, lsr #4
    9b64:	6e692064 	cdpvs	0, 6, cr2, cr9, cr4, {3}
    9b68:	61697469 	cmnvs	r9, r9, ror #8
    9b6c:	6f63206c 	svcvs	0x0063206c
    9b70:	6769666e 	strbvs	r6, [r9, -lr, ror #12]!
    9b74:	00000a22 	andeq	r0, r0, r2, lsr #20
    9b78:	5f746962 	svcpl	0x00746962
    9b7c:	6f5f7369 	svcvs	0x005f7369
    9b80:	2c63286e 	stclcs	8, cr2, [r3], #-440	; 0xfffffe48
    9b84:	00293820 	eoreq	r3, r9, r0, lsr #16
    9b88:	73746962 	cmnvc	r4, #1605632	; 0x188000
    9b8c:	2871655f 	ldmdacs	r1!, {r0, r1, r2, r3, r4, r6, r8, sl, sp, lr}^
    9b90:	35202c63 	strcc	r2, [r0, #-3171]!	; 0xfffff39d
    9b94:	2c37202c 	ldccs	0, cr2, [r7], #-176	; 0xffffff50
    9b98:	31623020 	cmncc	r2, r0, lsr #32
    9b9c:	00293030 	eoreq	r3, r9, r0, lsr r0
    9ba0:	73746962 	cmnvc	r4, #1605632	; 0x188000
    9ba4:	2871655f 	ldmdacs	r1!, {r0, r1, r2, r3, r4, r6, r8, sl, sp, lr}^
    9ba8:	39202c63 	stmdbcc	r0!, {r0, r1, r5, r6, sl, fp, sp}
    9bac:	3131202c 	teqcc	r1, ip, lsr #32
    9bb0:	6230202c 	eorsvs	r2, r0, #44, 0	; 0x2c
    9bb4:	29303130 	ldmdbcs	r0!, {r4, r5, r8, ip, sp}
    9bb8:	00000000 	andeq	r0, r0, r0
    9bbc:	74697277 	strbtvc	r7, [r9], #-631	; 0xfffffd89
    9bc0:	20676e69 	rsbcs	r6, r7, r9, ror #28
    9bc4:	666e6f63 	strbtvs	r6, [lr], -r3, ror #30
    9bc8:	203a6769 	eorscs	r6, sl, r9, ror #14
    9bcc:	78257830 	stmdavc	r5!, {r4, r5, fp, ip, sp, lr}
    9bd0:	0000000a 	andeq	r0, r0, sl
    9bd4:	4f525245 	svcmi	0x00525245
    9bd8:	73253a52 			; <UNDEFINED> instruction: 0x73253a52
    9bdc:	3a73253a 	bcc	1cd30cc <__bss_end__+0x1cc8dbc>
    9be0:	203a6425 	eorscs	r6, sl, r5, lsr #8
    9be4:	534c4146 	movtpl	r4, #49478	; 0xc146
    9be8:	253c2845 	ldrcs	r2, [ip, #-2117]!	; 0xfffff7bb
    9bec:	3a293e73 	bcc	a595c0 <__bss_end__+0xa4f2b0>
    9bf0:	61622220 	cmnvs	r2, r0, lsr #4
    9bf4:	6f632064 	svcvs	0x00632064
    9bf8:	6769666e 	strbvs	r6, [r9, -lr, ror #12]!
    9bfc:	00000a22 	andeq	r0, r0, r2, lsr #20
    9c00:	73746962 	cmnvc	r4, #1605632	; 0x188000
    9c04:	2871655f 	ldmdacs	r1!, {r0, r1, r2, r3, r4, r6, r8, sl, sp, lr}^
    9c08:	39202c63 	stmdbcc	r0!, {r0, r1, r5, r6, sl, fp, sp}
    9c0c:	3131202c 	teqcc	r1, ip, lsr #32
    9c10:	6230202c 	eorsvs	r2, r0, #44, 0	; 0x2c
    9c14:	29313030 	ldmdbcs	r1!, {r4, r5, ip, sp}
    9c18:	00000000 	andeq	r0, r0, r0
    9c1c:	5f746962 	svcpl	0x00746962
    9c20:	6f5f7369 	svcvs	0x005f7369
    9c24:	63286666 			; <UNDEFINED> instruction: 0x63286666
    9c28:	2938202c 	ldmdbcs	r8!, {r2, r3, r5, sp}
    9c2c:	00000000 	andeq	r0, r0, r0
    9c30:	73746962 	cmnvc	r4, #1605632	; 0x188000
    9c34:	2871655f 	ldmdacs	r1!, {r0, r1, r2, r3, r4, r6, r8, sl, sp, lr}^
    9c38:	35202c63 	strcc	r2, [r0, #-3171]!	; 0xfffff39d
    9c3c:	2c37202c 	ldccs	0, cr2, [r7], #-176	; 0xffffff50
    9c40:	30623020 	rsbcc	r3, r2, r0, lsr #32
    9c44:	00293030 	eoreq	r3, r9, r0, lsr r0

00009c48 <__FUNCTION__.4082>:
    9c48:	31736461 	cmncc	r3, r1, ror #8
    9c4c:	5f353131 	svcpl	0x00353131
    9c50:	666e6f63 	strbtvs	r6, [lr], -r3, ror #30
    9c54:	00006769 	andeq	r6, r0, r9, ror #14
    9c58:	66617473 			; <UNDEFINED> instruction: 0x66617473
    9c5c:	32692d66 	rsbcc	r2, r9, #6528	; 0x1980
    9c60:	00632e63 	rsbeq	r2, r3, r3, ror #28
    9c64:	494e4150 	stmdbmi	lr, {r4, r6, r8, lr}^
    9c68:	73253a43 			; <UNDEFINED> instruction: 0x73253a43
    9c6c:	3a73253a 	bcc	1cd315c <__bss_end__+0x1cc8e4c>
    9c70:	693a6425 	ldmdbvs	sl!, {r0, r2, r5, sl, sp, lr}
    9c74:	73206332 			; <UNDEFINED> instruction: 0x73206332
    9c78:	6576616c 	ldrbvs	r6, [r6, #-364]!	; 0xfffffe94
    9c7c:	6b636120 	blvs	18e2104 <__bss_end__+0x18d7df4>
    9c80:	72726520 	rsbsvc	r6, r2, #32, 10	; 0x8000000
    9c84:	000a726f 	andeq	r7, sl, pc, ror #4
    9c88:	494e4150 	stmdbmi	lr, {r4, r6, r8, lr}^
    9c8c:	73253a43 			; <UNDEFINED> instruction: 0x73253a43
    9c90:	3a73253a 	bcc	1cd3180 <__bss_end__+0x1cc8e70>
    9c94:	693a6425 	ldmdbvs	sl!, {r0, r2, r5, sl, sp, lr}
    9c98:	73206332 			; <UNDEFINED> instruction: 0x73206332
    9c9c:	6576616c 	ldrbvs	r6, [r6, #-364]!	; 0xfffffe94
    9ca0:	6c656820 	stclvs	8, cr6, [r5], #-128	; 0xffffff80
    9ca4:	696c2064 	stmdbvs	ip!, {r2, r5, r6, sp}^
    9ca8:	7420656e 	strtvc	r6, [r0], #-1390	; 0xfffffa92
    9cac:	6c206f6f 	stcvs	15, cr6, [r0], #-444	; 0xfffffe44
    9cb0:	0a676e6f 	beq	19e5674 <__bss_end__+0x19db364>
    9cb4:	00000000 	andeq	r0, r0, r0
    9cb8:	494e4150 	stmdbmi	lr, {r4, r6, r8, lr}^
    9cbc:	73253a43 			; <UNDEFINED> instruction: 0x73253a43
    9cc0:	3a73253a 	bcc	1cd31b0 <__bss_end__+0x1cc8ea0>
    9cc4:	253a6425 	ldrcs	r6, [sl, #-1061]!	; 0xfffffbdb
    9cc8:	00000a73 	andeq	r0, r0, r3, ror sl
    9ccc:	2d633269 	sfmcs	f3, 2, [r3, #-420]!	; 0xfffffe5c
    9cd0:	6174733e 	cmnvs	r4, lr, lsr r3
    9cd4:	2e737574 	mrccs	5, 3, r7, cr3, cr4, {3}
    9cd8:	3d206174 	stfccs	f6, [r0, #-464]!	; 0xfffffe30
    9cdc:	0030203d 	eorseq	r2, r0, sp, lsr r0
    9ce0:	63326921 	teqvs	r2, #540672	; 0x84000
    9ce4:	74733e2d 	ldrbtvc	r3, [r3], #-3629	; 0xfffff1d3
    9ce8:	73757461 	cmnvc	r5, #1627389952	; 0x61000000
    9cec:	7272652e 	rsbsvc	r6, r2, #192937984	; 0xb800000
    9cf0:	00000000 	andeq	r0, r0, r0
    9cf4:	2d633269 	sfmcs	f3, 2, [r3, #-420]!	; 0xfffffe5c
    9cf8:	6174733e 	cmnvs	r4, lr, lsr r3
    9cfc:	2e737574 	mrccs	5, 3, r7, cr3, cr4, {3}
    9d00:	20657874 	rsbcs	r7, r5, r4, ror r8
    9d04:	31203d3d 			; <UNDEFINED> instruction: 0x31203d3d
    9d08:	00000000 	andeq	r0, r0, r0
    9d0c:	64612828 	strbtvs	r2, [r1], #-2088	; 0xfffff7d8
    9d10:	20297264 	eorcs	r7, r9, r4, ror #4
    9d14:	37203e3e 			; <UNDEFINED> instruction: 0x37203e3e
    9d18:	3d3d2029 	ldccc	0, cr2, [sp, #-164]!	; 0xffffff5c
    9d1c:	00003020 	andeq	r3, r0, r0, lsr #32
    9d20:	626e2828 	rsbvs	r2, lr, #40, 16	; 0x280000
    9d24:	73657479 	cmnvc	r5, #2030043136	; 0x79000000
    9d28:	3e3e2029 	cdpcc	0, 3, cr2, cr14, cr9, {1}
    9d2c:	29363120 	ldmdbcs	r6!, {r5, r8, ip, sp}
    9d30:	203d3d20 	eorscs	r3, sp, r0, lsr #26
    9d34:	00000030 	andeq	r0, r0, r0, lsr r0

00009d38 <__FUNCTION__.3>:
    9d38:	72656678 	rsbvc	r6, r5, #120, 12	; 0x7800000
    9d3c:	646e655f 	strbtvs	r6, [lr], #-1375	; 0xfffffaa1
    9d40:	00000000 	andeq	r0, r0, r0

00009d44 <__FUNCTION__.4>:
    9d44:	72656678 	rsbvc	r6, r5, #120, 12	; 0x7800000
    9d48:	6174735f 	cmnvs	r4, pc, asr r3
    9d4c:	00007472 	andeq	r7, r0, r2, ror r4

00009d50 <__FUNCTION__.5>:
    9d50:	5f633269 	svcpl	0x00633269
    9d54:	74697277 	strbtvc	r7, [r9], #-631	; 0xfffffd89
    9d58:	00000065 	andeq	r0, r0, r5, rrx

00009d5c <__FUNCTION__.2>:
    9d5c:	5f633269 	svcpl	0x00633269
    9d60:	64616572 	strbtvs	r6, [r1], #-1394	; 0xfffffa8e
    9d64:	00000000 	andeq	r0, r0, r0

00009d68 <__FUNCTION__.1>:
    9d68:	5f633269 	svcpl	0x00633269
    9d6c:	74696e69 	strbtvc	r6, [r9], #-3689	; 0xfffff197
    9d70:	00000000 	andeq	r0, r0, r0
    9d74:	696c2f2e 	stmdbvs	ip!, {r1, r2, r3, r5, r8, r9, sl, fp, sp}^
    9d78:	762f6362 	strtvc	r6, [pc], -r2, ror #6
    9d7c:	72702d61 	rsbsvc	r2, r0, #6208	; 0x1840
    9d80:	6b746e69 	blvs	1d2572c <__bss_end__+0x1d1b41c>
    9d84:	0000632e 	andeq	r6, r0, lr, lsr #6
    9d88:	33323130 	teqcc	r2, #12
    9d8c:	37363534 			; <UNDEFINED> instruction: 0x37363534
    9d90:	62613938 	rsbvs	r3, r1, #56, 18	; 0xe0000
    9d94:	66656463 	strbtvs	r6, [r5], -r3, ror #8
    9d98:	00000000 	andeq	r0, r0, r0
    9d9c:	00003130 	andeq	r3, r0, r0, lsr r1
    9da0:	33323130 	teqcc	r2, #12
    9da4:	37363534 			; <UNDEFINED> instruction: 0x37363534
    9da8:	00003938 	andeq	r3, r0, r8, lsr r9
    9dac:	63747570 	cmnvs	r4, #112, 10	; 0x1c000000
    9db0:	0070665f 	rsbseq	r6, r0, pc, asr r6
    9db4:	74646977 	strbtvc	r6, [r4], #-2423	; 0xfffff689
    9db8:	203c2068 	eorscs	r2, ip, r8, rrx
    9dbc:	00003233 	andeq	r3, r0, r3, lsr r2
    9dc0:	00786c6c 	rsbseq	r6, r8, ip, ror #24
    9dc4:	253d3078 	ldrcs	r3, [sp, #-120]!	; 0xffffff88
    9dc8:	00000a78 	andeq	r0, r0, r8, ror sl
    9dcc:	253d3178 	ldrcs	r3, [sp, #-376]!	; 0xfffffe88
    9dd0:	00000a78 	andeq	r0, r0, r8, ror sl
    9dd4:	00646c6c 	rsbeq	r6, r4, ip, ror #24
    9dd8:	6e727473 	mrcvs	4, 3, r7, cr2, cr3, {3}
    9ddc:	28706d63 	ldmdacs	r0!, {r0, r1, r5, r6, r8, sl, fp, sp, lr}^
    9de0:	202c7974 	eorcs	r7, ip, r4, ror r9
    9de4:	786c6c22 	stmdavc	ip!, {r1, r5, sl, fp, sp, lr}^
    9de8:	33202c22 			; <UNDEFINED> instruction: 0x33202c22
    9dec:	3d3d2029 	ldccc	0, cr2, [sp, #-164]!	; 0xffffff5c
    9df0:	7c203020 	stcvc	0, cr3, [r0], #-128	; 0xffffff80
    9df4:	7473207c 	ldrbtvc	r2, [r3], #-124	; 0xffffff84
    9df8:	6d636e72 	stclvs	14, cr6, [r3, #-456]!	; 0xfffffe38
    9dfc:	79742870 	ldmdbvc	r4!, {r4, r5, r6, fp, sp}^
    9e00:	6c22202c 	stcvs	0, cr2, [r2], #-176	; 0xffffff50
    9e04:	2c22646c 	cfstrscs	mvf6, [r2], #-432	; 0xfffffe50
    9e08:	20293320 	eorcs	r3, r9, r0, lsr #6
    9e0c:	30203d3d 	eorcc	r3, r0, sp, lsr sp
    9e10:	00000000 	andeq	r0, r0, r0
    9e14:	494e4150 	stmdbmi	lr, {r4, r6, r8, lr}^
    9e18:	73253a43 			; <UNDEFINED> instruction: 0x73253a43
    9e1c:	3a73253a 	bcc	1cd330c <__bss_end__+0x1cc8ffc>
    9e20:	693a6425 	ldmdbvs	sl!, {r0, r2, r5, sl, sp, lr}
    9e24:	736f706d 	cmnvc	pc, #109, 0	; 0x6d
    9e28:	6c626973 			; <UNDEFINED> instruction: 0x6c626973
    9e2c:	66203a65 	strtvs	r3, [r0], -r5, ror #20
    9e30:	3c3d746d 	cfldrscc	mvf7, [sp], #-436	; 0xfffffe4c
    9e34:	0a3e7325 	beq	fa6ad0 <__bss_end__+0xf9c7c0>
    9e38:	0000000a 	andeq	r0, r0, sl
    9e3c:	494e4150 	stmdbmi	lr, {r4, r6, r8, lr}^
    9e40:	73253a43 			; <UNDEFINED> instruction: 0x73253a43
    9e44:	3a73253a 	bcc	1cd3334 <__bss_end__+0x1cc9024>
    9e48:	663a6425 	ldrtvs	r6, [sl], -r5, lsr #8
    9e4c:	74616f6c 	strbtvc	r6, [r1], #-3948	; 0xfffff094
    9e50:	746f6e20 	strbtvc	r6, [pc], #-3616	; 9e58 <__FUNCTION__.1+0xf0>
    9e54:	616e6520 	cmnvs	lr, r0, lsr #10
    9e58:	64656c62 	strbtvs	r6, [r5], #-3170	; 0xfffff39e
    9e5c:	0a212121 	beq	8522e8 <__bss_end__+0x847fd8>
    9e60:	00000000 	andeq	r0, r0, r0
    9e64:	6e697270 	mcrvs	2, 3, r7, cr9, cr0, {3}
    9e68:	203a6b74 	eorscs	r6, sl, r4, ror fp
    9e6c:	20746f6e 	rsbscs	r6, r4, lr, ror #30
    9e70:	646e6168 	strbtvs	r6, [lr], #-360	; 0xfffffe98
    9e74:	676e696c 	strbvs	r6, [lr, -ip, ror #18]!
    9e78:	65707320 	ldrbvs	r7, [r0, #-800]!	; 0xfffffce0
    9e7c:	69666963 	stmdbvs	r6!, {r0, r1, r5, r6, r8, fp, sp, lr}^
    9e80:	27207265 	strcs	r7, [r0, -r5, ror #4]!
    9e84:	20276325 	eorcs	r6, r7, r5, lsr #6
    9e88:	63736128 	cmnvs	r3, #10
    9e8c:	253d6969 	ldrcs	r6, [sp, #-2409]!	; 0xfffff697
    9e90:	000a2964 	andeq	r2, sl, r4, ror #18
    9e94:	494e4150 	stmdbmi	lr, {r4, r6, r8, lr}^
    9e98:	73253a43 			; <UNDEFINED> instruction: 0x73253a43
    9e9c:	3a73253a 	bcc	1cd338c <__bss_end__+0x1cc907c>
    9ea0:	703a6425 	eorsvc	r6, sl, r5, lsr #8
    9ea4:	746e6972 	strbtvc	r6, [lr], #-2418	; 0xfffff68e
    9ea8:	7265206b 	rsbvc	r2, r5, #107, 0	; 0x6b
    9eac:	0a726f72 	beq	1ca5c7c <__bss_end__+0x1c9b96c>
    9eb0:	0000000a 	andeq	r0, r0, sl

00009eb4 <__FUNCTION__.4008>:
    9eb4:	74696d65 	strbtvc	r6, [r9], #-3429	; 0xfffff29b
    9eb8:	00000000 	andeq	r0, r0, r0

00009ebc <__FUNCTION__.3956>:
    9ebc:	5f697072 	svcpl	0x00697072
    9ec0:	5f746573 	svcpl	0x00746573
    9ec4:	7074756f 	rsbsvc	r7, r4, pc, ror #10
    9ec8:	00007475 	andeq	r7, r0, r5, ror r4

00009ecc <__FUNCTION__.4034>:
    9ecc:	705f6176 	subsvc	r6, pc, r6, ror r1	; <UNPREDICTABLE>
    9ed0:	746e6972 	strbtvc	r6, [lr], #-2418	; 0xfffff68e
    9ed4:	0000006b 	andeq	r0, r0, fp, rrx
    9ed8:	454e4f44 	strbmi	r4, [lr, #-3908]	; 0xfffff0bc
    9edc:	0a212121 	beq	852368 <__bss_end__+0x848058>
    9ee0:	00000000 	andeq	r0, r0, r0
    9ee4:	6e75525b 	mrcvs	2, 3, r5, cr5, cr11, {2}
    9ee8:	676e696e 	strbvs	r6, [lr, -lr, ror #18]!
    9eec:	6f6f7420 	svcvs	0x006f7420
    9ef0:	6425206b 	strtvs	r2, [r5], #-107	; 0xffffff95
    9ef4:	63796320 	cmnvs	r9, #32, 6	; 0x80000000
    9ef8:	5d73656c 	cfldr64pl	mvdx6, [r3, #-432]!	; 0xfffffe50
    9efc:	Address 0x0000000000009efc is out of bounds.


Disassembly of section .data:

00009f00 <rpi_putchar>:
    9f00:	00008afc 	strdeq	r8, [r0], -ip

00009f04 <putk>:
    9f04:	00008b38 	andeq	r8, r0, r8, lsr fp

Disassembly of section .bss:

00009f08 <__bss_start__>:
    9f08:	00000000 	andeq	r0, r0, r0

00009f0c <buf.3948>:
	...

0000a30c <last.3941>:
    a30c:	00000000 	andeq	r0, r0, r0

Disassembly of section .ARM.attributes:

00000000 <.ARM.attributes>:
   0:	00002a41 	andeq	r2, r0, r1, asr #20
   4:	61656100 	cmnvs	r5, r0, lsl #2
   8:	01006962 	tsteq	r0, r2, ror #18
   c:	00000020 	andeq	r0, r0, r0, lsr #32
  10:	4b5a3605 	blmi	168d82c <__bss_end__+0x168351c>
  14:	08070600 	stmdaeq	r7, {r9, sl}
  18:	12010901 	andne	r0, r1, #16384	; 0x4000
  1c:	15011404 	strne	r1, [r1, #-1028]	; 0xfffffbfc
  20:	18031701 	stmdane	r3, {r0, r8, r9, sl, ip}
  24:	22011a01 	andcs	r1, r1, #4096	; 0x1000
  28:	Address 0x0000000000000028 is out of bounds.


Disassembly of section .comment:

00000000 <.comment>:
   0:	3a434347 	bcc	10d0d24 <__bss_end__+0x10c6a14>
   4:	4e472820 	cdpmi	8, 4, cr2, cr7, cr0, {1}
   8:	6f542055 	svcvs	0x00542055
   c:	20736c6f 	rsbscs	r6, r3, pc, ror #24
  10:	20726f66 	rsbscs	r6, r2, r6, ror #30
  14:	206d7241 	rsbcs	r7, sp, r1, asr #4
  18:	65626d45 	strbvs	r6, [r2, #-3397]!	; 0xfffff2bb
  1c:	64656464 	strbtvs	r6, [r5], #-1124	; 0xfffffb9c
  20:	6f725020 	svcvs	0x00725020
  24:	73736563 	cmnvc	r3, #415236096	; 0x18c00000
  28:	2073726f 	rsbscs	r7, r3, pc, ror #4
  2c:	30322d39 	eorscc	r2, r2, r9, lsr sp
  30:	712d3931 			; <UNDEFINED> instruction: 0x712d3931
  34:	616d2d34 	cmnvs	sp, r4, lsr sp
  38:	29726f6a 	ldmdbcs	r2!, {r1, r3, r5, r6, r8, r9, sl, fp, sp, lr}^
  3c:	322e3920 	eorcc	r3, lr, #32, 18	; 0x80000
  40:	3220312e 	eorcc	r3, r0, #-2147483637	; 0x8000000b
  44:	31393130 	teqcc	r9, r0, lsr r1
  48:	20353230 	eorscs	r3, r5, r0, lsr r2
  4c:	6c657228 	sfmvs	f7, 2, [r5], #-160	; 0xffffff60
  50:	65736165 	ldrbvs	r6, [r3, #-357]!	; 0xfffffe9b
  54:	415b2029 	cmpmi	fp, r9, lsr #32
  58:	612f4d52 			; <UNDEFINED> instruction: 0x612f4d52
  5c:	392d6d72 	pushcc	{r1, r4, r5, r6, r8, sl, fp, sp, lr}
  60:	6172622d 	cmnvs	r2, sp, lsr #4
  64:	2068636e 	rsbcs	r6, r8, lr, ror #6
  68:	69766572 	ldmdbvs	r6!, {r1, r4, r5, r6, r8, sl, sp, lr}^
  6c:	6e6f6973 			; <UNDEFINED> instruction: 0x6e6f6973
  70:	37373220 	ldrcc	r3, [r7, -r0, lsr #4]!
  74:	5d393935 			; <UNDEFINED> instruction: 0x5d393935
  78:	43434700 	movtmi	r4, #14080	; 0x3700
  7c:	4728203a 			; <UNDEFINED> instruction: 0x4728203a
  80:	4120554e 			; <UNDEFINED> instruction: 0x4120554e
  84:	45206d72 	strmi	r6, [r0, #-3442]!	; 0xfffff28e
  88:	6465626d 	strbtvs	r6, [r5], #-621	; 0xfffffd93
  8c:	20646564 	rsbcs	r6, r4, r4, ror #10
  90:	6c6f6f54 	stclvs	15, cr6, [pc], #-336	; ffffff48 <__bss_end__+0xffff5c38>
  94:	69616863 	stmdbvs	r1!, {r0, r1, r5, r6, fp, sp, lr}^
  98:	3031206e 	eorscc	r2, r1, lr, rrx
  9c:	322d332e 	eorcc	r3, sp, #-1207959552	; 0xb8000000
  a0:	2e313230 	mrccs	2, 1, r3, cr1, cr0, {1}
  a4:	20293031 	eorcs	r3, r9, r1, lsr r0
  a8:	332e3031 			; <UNDEFINED> instruction: 0x332e3031
  ac:	3220312e 	eorcc	r3, r0, #-2147483637	; 0x8000000b
  b0:	30313230 	eorscc	r3, r1, r0, lsr r2
  b4:	20343238 	eorscs	r3, r4, r8, lsr r2
  b8:	6c657228 	sfmvs	f7, 2, [r5], #-160	; 0xffffff60
  bc:	65736165 	ldrbvs	r6, [r3, #-357]!	; 0xfffffe9b
  c0:	Address 0x00000000000000c0 is out of bounds.


Disassembly of section .debug_info:

00000000 <.debug_info>:
       0:	000002a6 	andeq	r0, r0, r6, lsr #5
       4:	00000004 	andeq	r0, r0, r4
       8:	01040000 	mrseq	r0, (UNDEF: 4)
       c:	00000106 	andeq	r0, r0, r6, lsl #2
      10:	0000890c 	andeq	r8, r0, ip, lsl #18
      14:	0000cd00 	andeq	ip, r0, r0, lsl #26
      18:	00803800 	addeq	r3, r0, r0, lsl #16
      1c:	0000a800 	andeq	sl, r0, r0, lsl #16
      20:	00000000 	andeq	r0, r0, r0
      24:	05040200 	streq	r0, [r4, #-512]	; 0xfffffe00
      28:	00746e69 	rsbseq	r6, r4, r9, ror #28
      2c:	9c070403 	cfstrsls	mvf0, [r7], {3}
      30:	03000000 	movweq	r0, #0
      34:	00240601 	eoreq	r0, r4, r1, lsl #12
      38:	02030000 	andeq	r0, r3, #0, 0
      3c:	0000c305 	andeq	ip, r0, r5, lsl #6
      40:	05040300 	streq	r0, [r4, #-768]	; 0xfffffd00
      44:	000000ae 	andeq	r0, r0, lr, lsr #1
      48:	a9050803 	stmdbge	r5, {r0, r1, fp}
      4c:	03000000 	movweq	r0, #0
      50:	00220801 	eoreq	r0, r2, r1, lsl #16
      54:	02030000 	andeq	r0, r3, #0, 0
      58:	00003d07 	andeq	r3, r0, r7, lsl #26
      5c:	07040300 	streq	r0, [r4, -r0, lsl #6]
      60:	00000097 	muleq	r0, r7, r0
      64:	92070803 	andls	r0, r7, #196608	; 0x30000
      68:	04000000 	streq	r0, [r0], #-0
      6c:	00000025 	andeq	r0, r0, r5, lsr #32
      70:	0000007a 	andeq	r0, r0, sl, ror r0
      74:	00002505 	andeq	r2, r0, r5, lsl #10
      78:	b7060000 	strlt	r0, [r6, -r0]
      7c:	02000000 	andeq	r0, r0, #0, 0
      80:	00860e1c 	addeq	r0, r6, ip, lsl lr
      84:	04070000 	streq	r0, [r7], #-0
      88:	0000006b 	andeq	r0, r0, fp, rrx
      8c:	00002504 	andeq	r2, r0, r4, lsl #10
      90:	00009b00 	andeq	r9, r0, r0, lsl #22
      94:	009b0500 	addseq	r0, fp, r0, lsl #10
      98:	07000000 	streq	r0, [r0, -r0]
      9c:	0000a804 	andeq	sl, r0, r4, lsl #16
      a0:	08010300 	stmdaeq	r1, {r8, r9}
      a4:	0000002b 	andeq	r0, r0, fp, lsr #32
      a8:	0000a108 	andeq	sl, r0, r8, lsl #2
      ac:	079a0600 	ldreq	r0, [sl, r0, lsl #12]
      b0:	21020000 	mrscs	r0, (UNDEF: 2)
      b4:	0000b90e 	andeq	fp, r0, lr, lsl #18
      b8:	8c040700 	stchi	7, cr0, [r4], {-0}
      bc:	09000000 	stmdbeq	r0, {}	; <UNPREDICTABLE>
      c0:	004f0107 	subeq	r0, pc, r7, lsl #2
      c4:	0f030000 	svceq	0x00030000
      c8:	0000da06 	andeq	sp, r0, r6, lsl #20
      cc:	000b0a00 	andeq	r0, fp, r0, lsl #20
      d0:	0a000000 	beq	d8 <__code_start__-0x7f28>
      d4:	00000000 	andeq	r0, r0, r0
      d8:	1a0b0001 	bne	2c00e4 <__bss_end__+0x2b5dd4>
      dc:	01000000 	mrseq	r0, (UNDEF: 0)
      e0:	80380612 	eorshi	r0, r8, r2, lsl r6
      e4:	00a80000 	adceq	r0, r8, r0
      e8:	9c010000 	stcls	0, cr0, [r1], {-0}
      ec:	0000026d 	andeq	r0, r0, sp, ror #4
      f0:	0000fd0c 	andeq	pc, r0, ip, lsl #26
      f4:	0e130100 	mufeqs	f0, f3, f0
      f8:	0000002c 	andeq	r0, r0, ip, lsr #32
      fc:	00000002 	andeq	r0, r0, r2
     100:	00000000 	andeq	r0, r0, r0
     104:	0080440d 	addeq	r4, r0, sp, lsl #8
     108:	00000800 	andeq	r0, r0, r0, lsl #16
     10c:	00011e00 	andeq	r1, r1, r0, lsl #28
     110:	6e690e00 	cdpvs	14, 6, cr0, cr9, cr0, {0}
     114:	05140100 	ldreq	r0, [r4, #-256]	; 0xffffff00
     118:	0000002c 	andeq	r0, r0, ip, lsr #32
     11c:	000f0001 	andeq	r0, pc, r1
     120:	5a000000 	bpl	128 <__code_start__-0x7ed8>
     124:	10000002 	andne	r0, r0, r2
     128:	1e010069 	cdpne	0, 0, cr0, cr1, cr9, {3}
     12c:	0000250a 	andeq	r2, r0, sl, lsl #10
     130:	00001e00 	andeq	r1, r0, r0, lsl #28
     134:	00001a00 	andeq	r1, r0, r0, lsl #20
     138:	00181100 	andseq	r1, r8, r0, lsl #2
     13c:	76100000 	ldrvc	r0, [r0], -r0
     140:	0f1f0100 	svceq	0x001f0100
     144:	0000003a 	andeq	r0, r0, sl, lsr r0
     148:	00000043 	andeq	r0, r0, r3, asr #32
     14c:	0000003d 	andeq	r0, r0, sp, lsr r0
     150:	01007310 	tsteq	r0, r0, lsl r3
     154:	002c1221 	eoreq	r1, ip, r1, lsr #4
     158:	00700000 	rsbseq	r0, r0, r0
     15c:	006c0000 	rsbeq	r0, ip, r0
     160:	65100000 	ldrvs	r0, [r0, #-0]
     164:	12260100 	eorne	r0, r6, #0
     168:	0000002c 	andeq	r0, r0, ip, lsr #32
     16c:	00000090 	muleq	r0, r0, r0
     170:	0000008e 	andeq	r0, r0, lr, lsl #1
     174:	00809c0d 	addeq	r9, r0, sp, lsl #24
     178:	00000400 	andeq	r0, r0, r0, lsl #8
     17c:	00019600 	andeq	r9, r1, r0, lsl #12
     180:	006e0c00 	rsbeq	r0, lr, r0, lsl #24
     184:	21010000 	mrscs	r0, (UNDEF: 1)
     188:	00002c16 	andeq	r2, r0, r6, lsl ip
     18c:	0000a700 	andeq	sl, r0, r0, lsl #14
     190:	0000a300 	andeq	sl, r0, r0, lsl #6
     194:	b00d0000 	andlt	r0, sp, r0
     198:	04000080 	streq	r0, [r0], #-128	; 0xffffff80
     19c:	b8000000 	stmdalt	r0, {}	; <UNPREDICTABLE>
     1a0:	0c000001 	stceq	0, cr0, [r0], {1}
     1a4:	0000006e 	andeq	r0, r0, lr, rrx
     1a8:	2c162601 	ldccs	6, cr2, [r6], {1}
     1ac:	c7000000 	strgt	r0, [r0, -r0]
     1b0:	c5000000 	strgt	r0, [r0, #-0]
     1b4:	00000000 	andeq	r0, r0, r0
     1b8:	0000380f 	andeq	r3, r0, pc, lsl #16
     1bc:	0001e700 	andeq	lr, r1, r0, lsl #14
     1c0:	00691000 	rsbeq	r1, r9, r0
     1c4:	25112a01 	ldrcs	r2, [r1, #-2561]	; 0xfffff5ff
     1c8:	de000000 	cdple	0, 0, cr0, cr0, cr0, {0}
     1cc:	da000000 	ble	1d4 <__code_start__-0x7e2c>
     1d0:	12000000 	andne	r0, r0, #0, 0
     1d4:	00008068 	andeq	r8, r0, r8, rrx
     1d8:	0000026d 	andeq	r0, r0, sp, ror #4
     1dc:	05500113 	ldrbeq	r0, [r0, #-275]	; 0xfffffeed
     1e0:	009b0803 	addseq	r0, fp, r3, lsl #16
     1e4:	14000000 	strne	r0, [r0], #-0
     1e8:	0000805c 	andeq	r8, r0, ip, asr r0
     1ec:	0000026d 	andeq	r0, r0, sp, ror #4
     1f0:	000001fe 	strdeq	r0, [r0], -lr
     1f4:	05500113 	ldrbeq	r0, [r0, #-275]	; 0xfffffeed
     1f8:	009ae803 	addseq	lr, sl, r3, lsl #16
     1fc:	7c140000 	ldcvc	0, cr0, [r4], {-0}
     200:	6d000080 	stcvs	0, cr0, [r0, #-512]	; 0xfffffe00
     204:	15000002 	strne	r0, [r0, #-2]
     208:	13000002 	movwne	r0, #2
     20c:	03055001 	movweq	r5, #20481	; 0x5001
     210:	00009e38 	andeq	r9, r0, r8, lsr lr
     214:	80981400 	addshi	r1, r8, r0, lsl #8
     218:	02790000 	rsbseq	r0, r9, #0, 0
     21c:	022e0000 	eoreq	r0, lr, #0, 0
     220:	01130000 	tsteq	r3, r0
     224:	00770250 	rsbseq	r0, r7, r0, asr r2
     228:	01510113 	cmpeq	r1, r3, lsl r1
     22c:	a8140030 	ldmdage	r4, {r4, r5}
     230:	85000080 	strhi	r0, [r0, #-128]	; 0xffffff80
     234:	45000002 	strmi	r0, [r0, #-2]
     238:	13000002 	movwne	r0, #2
     23c:	0c055001 	stceq	0, cr5, [r5], {1}
     240:	000186a0 	andeq	r8, r1, r0, lsr #13
     244:	80c01200 	sbchi	r1, r0, r0, lsl #4
     248:	026d0000 	rsbeq	r0, sp, #0, 0
     24c:	01130000 	tsteq	r3, r0
     250:	04030550 	streq	r0, [r3], #-1360	; 0xfffffab0
     254:	0000009b 	muleq	r0, fp, r0
     258:	40150000 	andsmi	r0, r5, r0
     25c:	91000080 	smlabbls	r0, r0, r0, r0
     260:	15000002 	strne	r0, [r0, #-2]
     264:	00008060 	andeq	r8, r0, r0, rrx
     268:	0000029d 	muleq	r0, sp, r2
     26c:	07231600 	streq	r1, [r3, -r0, lsl #12]!
     270:	07230000 	streq	r0, [r3, -r0]!
     274:	28020000 	stmdacs	r2, {}	; <UNPREDICTABLE>
     278:	00501606 	subseq	r1, r0, r6, lsl #12
     27c:	00500000 	subseq	r0, r0, r0
     280:	08030000 	stmdaeq	r3, {}	; <UNPREDICTABLE>
     284:	0073160a 	rsbseq	r1, r3, sl, lsl #12
     288:	00730000 	rsbseq	r0, r3, r0
     28c:	0c030000 	stceq	0, cr0, [r3], {-0}
     290:	005f1609 	subseq	r1, pc, r9, lsl #12
     294:	005f0000 	subseq	r0, pc, r0
     298:	0a030000 	beq	c02a0 <__bss_end__+0xb5f90>
     29c:	00301609 	eorseq	r1, r0, r9, lsl #12
     2a0:	00300000 	eorseq	r0, r0, r0
     2a4:	6e020000 	cdpvs	0, 0, cr0, cr2, cr0, {0}
     2a8:	0b560006 	bleq	15802c8 <__bss_end__+0x1575fb8>
     2ac:	00040000 	andeq	r0, r4, r0
     2b0:	0000012d 	andeq	r0, r0, sp, lsr #2
     2b4:	01060104 	tsteq	r6, r4, lsl #2
     2b8:	b50c0000 	strlt	r0, [ip, #-0]
     2bc:	cd000002 	stcgt	0, cr0, [r0, #-8]
     2c0:	e0000000 	and	r0, r0, r0
     2c4:	b4000080 	strlt	r0, [r0], #-128	; 0xffffff80
     2c8:	31000002 	tstcc	r0, r2
     2cc:	02000001 	andeq	r0, r0, #1, 0
     2d0:	6e690504 	cdpvs	5, 6, cr0, cr9, cr4, {0}
     2d4:	04030074 	streq	r0, [r3], #-116	; 0xffffff8c
     2d8:	00009c07 	andeq	r9, r0, r7, lsl #24
     2dc:	06010300 	streq	r0, [r1], -r0, lsl #6
     2e0:	00000024 	andeq	r0, r0, r4, lsr #32
     2e4:	c3050203 	movwgt	r0, #20995	; 0x5203
     2e8:	03000000 	movweq	r0, #0
     2ec:	00ae0504 	adceq	r0, lr, r4, lsl #10
     2f0:	08030000 	stmdaeq	r3, {}	; <UNPREDICTABLE>
     2f4:	0000a905 	andeq	sl, r0, r5, lsl #18
     2f8:	02780400 	rsbseq	r0, r8, #0, 8
     2fc:	2e030000 	cdpcs	0, 0, cr0, cr3, cr0, {0}
     300:	00005b18 	andeq	r5, r0, r8, lsl fp
     304:	08010300 	stmdaeq	r1, {r8, r9}
     308:	00000022 	andeq	r0, r0, r2, lsr #32
     30c:	00029204 	andeq	r9, r2, r4, lsl #4
     310:	19310300 	ldmdbne	r1!, {r8, r9}
     314:	0000006e 	andeq	r0, r0, lr, rrx
     318:	3d070203 	sfmcc	f0, 4, [r7, #-12]
     31c:	04000000 	streq	r0, [r0], #-0
     320:	000002ac 	andeq	r0, r0, ip, lsr #5
     324:	81193403 	tsthi	r9, r3, lsl #8
     328:	03000000 	movweq	r0, #0
     32c:	00970704 	addseq	r0, r7, r4, lsl #14
     330:	08030000 	stmdaeq	r3, {}	; <UNPREDICTABLE>
     334:	00009207 	andeq	r9, r0, r7, lsl #4
     338:	00250500 	eoreq	r0, r5, r0, lsl #10
     33c:	009e0000 	addseq	r0, lr, r0
     340:	25060000 	strcs	r0, [r6, #-0]
     344:	00000000 	andeq	r0, r0, r0
     348:	0000b707 	andeq	fp, r0, r7, lsl #14
     34c:	0e1c0400 	cfmulseq	mvf0, mvf12, mvf0
     350:	000000aa 	andeq	r0, r0, sl, lsr #1
     354:	008f0408 	addeq	r0, pc, r8, lsl #8
     358:	25050000 	strcs	r0, [r5, #-0]
     35c:	bf000000 	svclt	0x00000000
     360:	06000000 	streq	r0, [r0], -r0
     364:	000000bf 	strheq	r0, [r0], -pc	; <UNPREDICTABLE>
     368:	cc040800 	stcgt	8, cr0, [r4], {-0}
     36c:	03000000 	movweq	r0, #0
     370:	002b0801 	eoreq	r0, fp, r1, lsl #16
     374:	c5090000 	strgt	r0, [r9, #-0]
     378:	07000000 	streq	r0, [r0, -r0]
     37c:	0000079a 	muleq	r0, sl, r7
     380:	dd0e2104 	stfles	f2, [lr, #-16]
     384:	08000000 	stmdaeq	r0, {}	; <UNPREDICTABLE>
     388:	0000b004 	andeq	fp, r0, r4
     38c:	01070a00 	tsteq	r7, r0, lsl #20
     390:	0000005b 	andeq	r0, r0, fp, asr r0
     394:	fe060f05 	cdp2	15, 0, cr0, cr6, cr5, {0}
     398:	0b000000 	bleq	3a0 <__code_start__-0x7c60>
     39c:	0000000b 	andeq	r0, r0, fp
     3a0:	00000b00 	andeq	r0, r0, r0, lsl #22
     3a4:	00010000 	andeq	r0, r1, r0
     3a8:	00005f0c 	andeq	r5, r0, ip, lsl #30
     3ac:	09520100 	ldmdbeq	r2, {r8}^
     3b0:	0000004f 	andeq	r0, r0, pc, asr #32
     3b4:	000081b8 			; <UNDEFINED> instruction: 0x000081b8
     3b8:	000001dc 	ldrdeq	r0, [r0], -ip
     3bc:	06cf9c01 	strbeq	r9, [pc], r1, lsl #24
     3c0:	070a0000 	streq	r0, [sl, -r0]
     3c4:	00005b01 	andeq	r5, r0, r1, lsl #22
     3c8:	0a5a0100 	beq	16807d0 <__bss_end__+0x16764c0>
     3cc:	0000012d 	andeq	r0, r0, sp, lsr #2
     3d0:	0000fd0b 	andeq	pc, r0, fp, lsl #26
     3d4:	0d004800 	stceq	8, cr4, [r0, #-0]
     3d8:	70010063 	andvc	r0, r1, r3, rrx
     3dc:	0000620b 	andeq	r6, r0, fp, lsl #4
     3e0:	00010b00 	andeq	r0, r1, r0, lsl #22
     3e4:	0000fd00 	andeq	pc, r0, r0, lsl #26
     3e8:	02580e00 	subseq	r0, r8, #0, 28
     3ec:	06df0000 	ldrbeq	r0, [pc], r0
     3f0:	03050000 	movweq	r0, #20480	; 0x5000
     3f4:	00009c48 	andeq	r9, r0, r8, asr #24
     3f8:	000a6b0f 	andeq	r6, sl, pc, lsl #22
     3fc:	00821000 	addeq	r1, r2, r0
     400:	82100200 	andshi	r0, r0, #0, 4
     404:	00000000 	andeq	r0, r0, r0
     408:	77010000 	strvc	r0, [r1, -r0]
     40c:	00018205 	andeq	r8, r1, r5, lsl #4
     410:	0a861000 	beq	fe184418 <__bss_end__+0xfe17a108>
     414:	01660000 	cmneq	r6, r0
     418:	01640000 	cmneq	r4, r0
     41c:	7c100000 	ldcvc	0, cr0, [r0], {-0}
     420:	7c00000a 	stcvc	0, cr0, [r0], {10}
     424:	7a000001 	bvc	430 <__code_start__-0x7bd0>
     428:	00000001 	andeq	r0, r0, r1
     42c:	0008c511 	andeq	ip, r8, r1, lsl r5
     430:	00821800 	addeq	r1, r2, r0, lsl #16
     434:	00680300 	rsbeq	r0, r8, r0, lsl #6
     438:	78010000 	stmdavc	r1, {}	; <UNPREDICTABLE>
     43c:	00021005 	andeq	r1, r2, r5
     440:	08f61000 	ldmeq	r6!, {ip}^
     444:	01910000 	orrseq	r0, r1, r0
     448:	018f0000 	orreq	r0, pc, r0
     44c:	eb100000 	bl	400454 <__bss_end__+0x3f6144>
     450:	a7000008 	strge	r0, [r0, -r8]
     454:	a5000001 	strge	r0, [r0, #-1]
     458:	10000001 	andne	r0, r0, r1
     45c:	000008e0 	andeq	r0, r0, r0, ror #17
     460:	000001bd 			; <UNDEFINED> instruction: 0x000001bd
     464:	000001bb 			; <UNDEFINED> instruction: 0x000001bb
     468:	0008d610 	andeq	sp, r8, r0, lsl r6
     46c:	0001d300 	andeq	sp, r1, r0, lsl #6
     470:	0001d100 	andeq	sp, r1, r0, lsl #2
     474:	00681200 	rsbeq	r1, r8, r0, lsl #4
     478:	cc130000 	ldcgt	0, cr0, [r3], {-0}
     47c:	18000009 	stmdane	r0, {r0, r3}
     480:	07000082 	streq	r0, [r0, -r2, lsl #1]
     484:	00000068 	andeq	r0, r0, r8, rrx
     488:	100c6202 	andne	r6, ip, r2, lsl #4
     48c:	000009f2 	strdeq	r0, [r0], -r2
     490:	000001e8 	andeq	r0, r0, r8, ror #3
     494:	000001e6 	andeq	r0, r0, r6, ror #3
     498:	0009e710 	andeq	lr, r9, r0, lsl r7
     49c:	0001fe00 	andeq	pc, r1, r0, lsl #28
     4a0:	0001fc00 	andeq	pc, r1, r0, lsl #24
     4a4:	09dd1000 	ldmibeq	sp, {ip}^
     4a8:	02140000 	andseq	r0, r4, #0, 0
     4ac:	02120000 	andseq	r0, r2, #0, 0
     4b0:	68140000 	ldmdavs	r4, {}	; <UNPREDICTABLE>
     4b4:	00000000 	andeq	r0, r0, r0
     4b8:	c5110000 	ldrgt	r0, [r1, #-0]
     4bc:	28000008 	stmdacs	r0, {r3}
     4c0:	03000082 	movweq	r0, #130	; 0x82
     4c4:	00000080 	andeq	r0, r0, r0, lsl #1
     4c8:	9e057901 	vmlals.f16	s14, s10, s2	; <UNPREDICTABLE>
     4cc:	10000002 	andne	r0, r0, r2
     4d0:	000008f6 	strdeq	r0, [r0], -r6
     4d4:	00000229 	andeq	r0, r0, r9, lsr #4
     4d8:	00000227 	andeq	r0, r0, r7, lsr #4
     4dc:	0008eb10 	andeq	lr, r8, r0, lsl fp
     4e0:	00023f00 	andeq	r3, r2, r0, lsl #30
     4e4:	00023d00 	andeq	r3, r2, r0, lsl #26
     4e8:	08e01000 	stmiaeq	r0!, {ip}^
     4ec:	02550000 	subseq	r0, r5, #0, 0
     4f0:	02530000 	subseq	r0, r3, #0, 0
     4f4:	d6100000 	ldrle	r0, [r0], -r0
     4f8:	6b000008 	blvs	520 <__code_start__-0x7ae0>
     4fc:	69000002 	stmdbvs	r0, {r1}
     500:	12000002 	andne	r0, r0, #2, 0
     504:	00000080 	andeq	r0, r0, r0, lsl #1
     508:	0009cc13 	andeq	ip, r9, r3, lsl ip
     50c:	00822800 	addeq	r2, r2, r0, lsl #16
     510:	00800700 	addeq	r0, r0, r0, lsl #14
     514:	62020000 	andvs	r0, r2, #0, 0
     518:	09f2100c 	ldmibeq	r2!, {r2, r3, ip}^
     51c:	02800000 	addeq	r0, r0, #0, 0
     520:	027e0000 	rsbseq	r0, lr, #0, 0
     524:	e7100000 	ldr	r0, [r0, -r0]
     528:	96000009 	strls	r0, [r0], -r9
     52c:	94000002 	strls	r0, [r0], #-2
     530:	10000002 	andne	r0, r0, r2
     534:	000009dd 	ldrdeq	r0, [r0], -sp
     538:	000002ac 	andeq	r0, r0, ip, lsr #5
     53c:	000002aa 	andeq	r0, r0, sl, lsr #5
     540:	00008014 	andeq	r8, r0, r4, lsl r0
     544:	00000000 	andeq	r0, r0, r0
     548:	0008c511 	andeq	ip, r8, r1, lsl r5
     54c:	00826000 	addeq	r6, r2, r0
     550:	00980200 	addseq	r0, r8, r0, lsl #4
     554:	8b010000 	blhi	4055c <__bss_end__+0x3624c>
     558:	00032c05 	andeq	r2, r3, r5, lsl #24
     55c:	08f61000 	ldmeq	r6!, {ip}^
     560:	02c10000 	sbceq	r0, r1, #0, 0
     564:	02bf0000 	adcseq	r0, pc, #0, 0
     568:	eb100000 	bl	400570 <__bss_end__+0x3f6260>
     56c:	d7000008 	strle	r0, [r0, -r8]
     570:	d5000002 	strle	r0, [r0, #-2]
     574:	10000002 	andne	r0, r0, r2
     578:	000008e0 	andeq	r0, r0, r0, ror #17
     57c:	000002ed 	andeq	r0, r0, sp, ror #5
     580:	000002eb 	andeq	r0, r0, fp, ror #5
     584:	0008d610 	andeq	sp, r8, r0, lsl r6
     588:	00030300 	andeq	r0, r3, r0, lsl #6
     58c:	00030100 	andeq	r0, r3, r0, lsl #2
     590:	00981200 	addseq	r1, r8, r0, lsl #4
     594:	cc130000 	ldcgt	0, cr0, [r3], {-0}
     598:	60000009 	andvs	r0, r0, r9
     59c:	06000082 	streq	r0, [r0], -r2, lsl #1
     5a0:	00000098 	muleq	r0, r8, r0
     5a4:	100c6202 	andne	r6, ip, r2, lsl #4
     5a8:	000009f2 	strdeq	r0, [r0], -r2
     5ac:	00000318 	andeq	r0, r0, r8, lsl r3
     5b0:	00000316 	andeq	r0, r0, r6, lsl r3
     5b4:	0009e710 	andeq	lr, r9, r0, lsl r7
     5b8:	00032e00 	andeq	r2, r3, r0, lsl #28
     5bc:	00032c00 	andeq	r2, r3, r0, lsl #24
     5c0:	09dd1000 	ldmibeq	sp, {ip}^
     5c4:	03440000 	movteq	r0, #16384	; 0x4000
     5c8:	03420000 	movteq	r0, #8192	; 0x2000
     5cc:	98140000 	ldmdals	r4, {}	; <UNPREDICTABLE>
     5d0:	00000000 	andeq	r0, r0, r0
     5d4:	43110000 	tstmi	r1, #0, 0
     5d8:	7000000a 	andvc	r0, r0, sl
     5dc:	03000082 	movweq	r0, #130	; 0x82
     5e0:	000000b0 	strheq	r0, [r0], -r0	; <UNPREDICTABLE>
     5e4:	8c058c01 	stchi	12, cr8, [r5], {1}
     5e8:	10000003 	andne	r0, r0, r3
     5ec:	00000a5e 	andeq	r0, r0, lr, asr sl
     5f0:	00000359 	andeq	r0, r0, r9, asr r3
     5f4:	00000357 	andeq	r0, r0, r7, asr r3
     5f8:	000a5410 	andeq	r5, sl, r0, lsl r4
     5fc:	00036f00 	andeq	r6, r3, r0, lsl #30
     600:	00036d00 	andeq	r6, r3, r0, lsl #26
     604:	0a6b1500 	beq	1ac5a0c <__bss_end__+0x1abb6fc>
     608:	82700000 	rsbshi	r0, r0, #0, 0
     60c:	70050000 	andvc	r0, r5, r0
     610:	00000082 	andeq	r0, r0, r2, lsl #1
     614:	02000000 	andeq	r0, r0, #0, 0
     618:	86100c24 	ldrhi	r0, [r0], -r4, lsr #24
     61c:	8400000a 	strhi	r0, [r0], #-10
     620:	82000003 	andhi	r0, r0, #3, 0
     624:	10000003 	andne	r0, r0, r3
     628:	00000a7c 	andeq	r0, r0, ip, ror sl
     62c:	0000039a 	muleq	r0, sl, r3
     630:	00000398 	muleq	r0, r8, r3
     634:	c50f0000 	strgt	r0, [pc, #-0]	; 63c <__code_start__-0x79c4>
     638:	78000008 	stmdavc	r0, {r3}
     63c:	03000082 	movweq	r0, #130	; 0x82
     640:	00008278 	andeq	r8, r0, r8, ror r2
     644:	00000000 	andeq	r0, r0, r0
     648:	17058d01 	strne	r8, [r5, -r1, lsl #26]
     64c:	10000004 	andne	r0, r0, r4
     650:	000008f6 	strdeq	r0, [r0], -r6
     654:	000003af 	andeq	r0, r0, pc, lsr #7
     658:	000003ad 	andeq	r0, r0, sp, lsr #7
     65c:	0008eb10 	andeq	lr, r8, r0, lsl fp
     660:	0003c500 	andeq	ip, r3, r0, lsl #10
     664:	0003c300 	andeq	ip, r3, r0, lsl #6
     668:	08e01000 	stmiaeq	r0!, {ip}^
     66c:	03db0000 	bicseq	r0, fp, #0, 0
     670:	03d90000 	bicseq	r0, r9, #0, 0
     674:	d6100000 	ldrle	r0, [r0], -r0
     678:	f1000008 	cps	#8
     67c:	ef000003 	svc	0x00000003
     680:	15000003 	strne	r0, [r0, #-3]
     684:	000009cc 	andeq	r0, r0, ip, asr #19
     688:	00008278 	andeq	r8, r0, r8, ror r2
     68c:	00827807 	addeq	r7, r2, r7, lsl #16
     690:	00000000 	andeq	r0, r0, r0
     694:	0c620200 	sfmeq	f0, 2, [r2], #-0
     698:	0009f210 	andeq	pc, r9, r0, lsl r2	; <UNPREDICTABLE>
     69c:	00040600 	andeq	r0, r4, r0, lsl #12
     6a0:	00040400 	andeq	r0, r4, r0, lsl #8
     6a4:	09e71000 	stmibeq	r7!, {ip}^
     6a8:	041c0000 	ldreq	r0, [ip], #-0
     6ac:	041a0000 	ldreq	r0, [sl], #-0
     6b0:	dd100000 	ldcle	0, cr0, [r0, #-0]
     6b4:	32000009 	andcc	r0, r0, #9, 0
     6b8:	30000004 	andcc	r0, r0, r4
     6bc:	00000004 	andeq	r0, r0, r4
     6c0:	81c81600 	bichi	r1, r8, r0, lsl #12
     6c4:	0ad50000 	beq	ff5406cc <__bss_end__+0xff5363bc>
     6c8:	042a0000 	strteq	r0, [sl], #-0
     6cc:	01170000 	tsteq	r7, r0
     6d0:	004e0150 	subeq	r0, lr, r0, asr r1
     6d4:	0081cc18 	addeq	ip, r1, r8, lsl ip
     6d8:	000ae100 	andeq	lr, sl, r0, lsl #2
     6dc:	81d41600 	bicshi	r1, r4, r0, lsl #12
     6e0:	0ad50000 	beq	ff5406e8 <__bss_end__+0xff5363d8>
     6e4:	04460000 	strbeq	r0, [r6], #-0
     6e8:	01170000 	tsteq	r7, r0
     6ec:	004e0150 	subeq	r0, lr, r0, asr r1
     6f0:	0081dc16 	addeq	sp, r1, r6, lsl ip
     6f4:	000aed00 	andeq	lr, sl, r0, lsl #26
     6f8:	00045900 	andeq	r5, r4, r0, lsl #18
     6fc:	50011700 	andpl	r1, r1, r0, lsl #14
     700:	18004901 	stmdane	r0, {r0, r8, fp, lr}
     704:	000081e0 	andeq	r8, r0, r0, ror #3
     708:	00000885 	andeq	r0, r0, r5, lsl #17
     70c:	0081e816 	addeq	lr, r1, r6, lsl r8
     710:	000af900 	andeq	pc, sl, r0, lsl #18
     714:	00047500 	andeq	r7, r4, r0, lsl #10
     718:	50011700 	andpl	r1, r1, r0, lsl #14
     71c:	16004901 	strne	r4, [r0], -r1, lsl #18
     720:	000081f4 	strdeq	r8, [r0], -r4
     724:	00000764 	andeq	r0, r0, r4, ror #14
     728:	0000048e 	andeq	r0, r0, lr, lsl #9
     72c:	02500117 	subseq	r0, r0, #-1073741819	; 0xc0000005
     730:	01174808 	tsteq	r7, r8, lsl #16
     734:	00310151 	eorseq	r0, r1, r1, asr r1
     738:	00821016 	addeq	r1, r2, r6, lsl r0
     73c:	000b0500 	andeq	r0, fp, r0, lsl #10
     740:	0004b500 	andeq	fp, r4, r0, lsl #10
     744:	50011700 	andpl	r1, r1, r0, lsl #14
     748:	9b0c0305 	blls	301364 <__bss_end__+0x2f7054>
     74c:	01170000 	tsteq	r7, r0
     750:	00740251 	rsbseq	r0, r4, r1, asr r2
     754:	06530117 			; <UNDEFINED> instruction: 0x06530117
     758:	ff0a0075 			; <UNDEFINED> instruction: 0xff0a0075
     75c:	16001aff 			; <UNDEFINED> instruction: 0x16001aff
     760:	00008244 	andeq	r8, r0, r4, asr #4
     764:	00000b05 	andeq	r0, r0, r5, lsl #22
     768:	000004d3 	ldrdeq	r0, [r0], -r3
     76c:	05500117 	ldrbeq	r0, [r0, #-279]	; 0xfffffee9
     770:	009bbc03 	addseq	fp, fp, r3, lsl #24
     774:	51011700 	tstpl	r1, r0, lsl #14
     778:	02000a03 	andeq	r0, r0, #12288	; 0x3000
     77c:	82541600 	subshi	r1, r4, #0, 12
     780:	08000000 	stmdaeq	r0, {}	; <UNPREDICTABLE>
     784:	04f30000 	ldrbteq	r0, [r3], #0
     788:	01170000 	tsteq	r7, r0
     78c:	48080250 	stmdami	r8, {r4, r6, r9}
     790:	01510117 	cmpeq	r1, r7, lsl r1
     794:	52011731 	andpl	r1, r1, #12845056	; 0xc40000
     798:	02000a03 	andeq	r0, r0, #12288	; 0x3000
     79c:	82601600 	rsbhi	r1, r0, #0, 12
     7a0:	07640000 	strbeq	r0, [r4, -r0]!
     7a4:	050c0000 	streq	r0, [ip, #-0]
     7a8:	01170000 	tsteq	r7, r0
     7ac:	48080250 	stmdami	r8, {r4, r6, r9}
     7b0:	01510117 	cmpeq	r1, r7, lsl r1
     7b4:	90180031 	andsls	r0, r8, r1, lsr r0
     7b8:	11000082 	smlabbne	r0, r2, r0, r0
     7bc:	1600000b 	strne	r0, [r0], -fp
     7c0:	000082ac 	andeq	r8, r0, ip, lsr #5
     7c4:	00000b05 	andeq	r0, r0, r5, lsl #22
     7c8:	0000054e 	andeq	r0, r0, lr, asr #10
     7cc:	05500117 	ldrbeq	r0, [r0, #-279]	; 0xfffffee9
     7d0:	009b4403 	addseq	r4, fp, r3, lsl #8
     7d4:	51011700 	tstpl	r1, r0, lsl #14
     7d8:	9b380305 	blls	e013f4 <__bss_end__+0xdf70e4>
     7dc:	01170000 	tsteq	r7, r0
     7e0:	48030552 	stmdami	r3, {r1, r4, r6, r8, sl}
     7e4:	1700009c 			; <UNDEFINED> instruction: 0x1700009c
     7e8:	08025301 	stmdaeq	r2, {r0, r8, r9, ip, lr}
     7ec:	7d021777 	stcvc	7, cr1, [r2, #-476]	; 0xfffffe24
     7f0:	78030500 	stmdavc	r3, {r8, sl}
     7f4:	0000009b 	muleq	r0, fp, r0
     7f8:	0082b018 	addeq	fp, r2, r8, lsl r0
     7fc:	000b1d00 	andeq	r1, fp, r0, lsl #26
     800:	82b41800 	adcshi	r1, r4, #0, 16
     804:	0b110000 	bleq	44080c <__bss_end__+0x4364fc>
     808:	d0160000 	andsle	r0, r6, r0
     80c:	05000082 	streq	r0, [r0, #-130]	; 0xffffff7e
     810:	9900000b 	stmdbls	r0, {r0, r1, r3}
     814:	17000005 	strne	r0, [r0, -r5]
     818:	03055001 	movweq	r5, #20481	; 0x5001
     81c:	00009b44 	andeq	r9, r0, r4, asr #22
     820:	05510117 	ldrbeq	r0, [r1, #-279]	; 0xfffffee9
     824:	009b3803 	addseq	r3, fp, r3, lsl #16
     828:	52011700 	andpl	r1, r1, #0, 14
     82c:	9c480305 	mcrrls	3, 0, r0, r8, cr5
     830:	01170000 	tsteq	r7, r0
     834:	78080253 	stmdavc	r8, {r0, r1, r4, r6, r9}
     838:	007d0217 	rsbseq	r0, sp, r7, lsl r2
     83c:	9b880305 	blls	fe201458 <__bss_end__+0xfe1f7148>
     840:	18000000 	stmdane	r0, {}	; <UNPREDICTABLE>
     844:	000082d4 	ldrdeq	r8, [r0], -r4
     848:	00000b1d 	andeq	r0, r0, sp, lsl fp
     84c:	0082d818 	addeq	sp, r2, r8, lsl r8
     850:	000b1100 	andeq	r1, fp, r0, lsl #2
     854:	82f41600 	rscshi	r1, r4, #0, 12
     858:	0b050000 	bleq	140860 <__bss_end__+0x136550>
     85c:	05e40000 	strbeq	r0, [r4, #0]!
     860:	01170000 	tsteq	r7, r0
     864:	44030550 	strmi	r0, [r3], #-1360	; 0xfffffab0
     868:	1700009b 			; <UNDEFINED> instruction: 0x1700009b
     86c:	03055101 	movweq	r5, #20737	; 0x5101
     870:	00009b38 	andeq	r9, r0, r8, lsr fp
     874:	05520117 	ldrbeq	r0, [r2, #-279]	; 0xfffffee9
     878:	009c4803 	addseq	r4, ip, r3, lsl #16
     87c:	53011700 	movwpl	r1, #5888	; 0x1700
     880:	17790802 	ldrbne	r0, [r9, -r2, lsl #16]!
     884:	05007d02 	streq	r7, [r0, #-3330]	; 0xfffff2fe
     888:	009ba003 	addseq	sl, fp, r3
     88c:	f8180000 			; <UNDEFINED> instruction: 0xf8180000
     890:	1d000082 	stcne	0, cr0, [r0, #-520]	; 0xfffffdf8
     894:	1800000b 	stmdane	r0, {r0, r1, r3}
     898:	000082fc 	strdeq	r8, [r0], -ip
     89c:	00000b11 	andeq	r0, r0, r1, lsl fp
     8a0:	00831816 	addeq	r1, r3, r6, lsl r8
     8a4:	000b0500 	andeq	r0, fp, r0, lsl #10
     8a8:	00062f00 	andeq	r2, r6, r0, lsl #30
     8ac:	50011700 	andpl	r1, r1, r0, lsl #14
     8b0:	9bd40305 	blls	ff5014cc <__bss_end__+0xff4f71bc>
     8b4:	01170000 	tsteq	r7, r0
     8b8:	38030551 	stmdacc	r3, {r0, r4, r6, r8, sl}
     8bc:	1700009b 			; <UNDEFINED> instruction: 0x1700009b
     8c0:	03055201 	movweq	r5, #20993	; 0x5201
     8c4:	00009c48 	andeq	r9, r0, r8, asr #24
     8c8:	02530117 	subseq	r0, r3, #-1073741819	; 0xc0000005
     8cc:	02178b08 	andseq	r8, r7, #8, 22	; 0x2000
     8d0:	0305007d 	movweq	r0, #20605	; 0x507d
     8d4:	00009c00 	andeq	r9, r0, r0, lsl #24
     8d8:	831c1800 	tsthi	ip, #0, 16
     8dc:	0b1d0000 	bleq	7408e4 <__bss_end__+0x7365d4>
     8e0:	20180000 	andscs	r0, r8, r0
     8e4:	11000083 	smlabbne	r0, r3, r0, r0
     8e8:	1600000b 	strne	r0, [r0], -fp
     8ec:	0000833c 	andeq	r8, r0, ip, lsr r3
     8f0:	00000b05 	andeq	r0, r0, r5, lsl #22
     8f4:	0000067a 	andeq	r0, r0, sl, ror r6
     8f8:	05500117 	ldrbeq	r0, [r0, #-279]	; 0xfffffee9
     8fc:	009bd403 	addseq	sp, fp, r3, lsl #8
     900:	51011700 	tstpl	r1, r0, lsl #14
     904:	9b380305 	blls	e01520 <__bss_end__+0xdf7210>
     908:	01170000 	tsteq	r7, r0
     90c:	48030552 	stmdami	r3, {r1, r4, r6, r8, sl}
     910:	1700009c 			; <UNDEFINED> instruction: 0x1700009c
     914:	08025301 	stmdaeq	r2, {r0, r8, r9, ip, lr}
     918:	7d02178c 	stcvc	7, cr1, [r2, #-560]	; 0xfffffdd0
     91c:	1c030500 	cfstr32ne	mvfx0, [r3], {-0}
     920:	0000009c 	muleq	r0, ip, r0
     924:	00834018 	addeq	r4, r3, r8, lsl r0
     928:	000b1d00 	andeq	r1, fp, r0, lsl #26
     92c:	83441800 	movthi	r1, #18432	; 0x4800
     930:	0b110000 	bleq	440938 <__bss_end__+0x436628>
     934:	60160000 	andsvs	r0, r6, r0
     938:	05000083 	streq	r0, [r0, #-131]	; 0xffffff7d
     93c:	c500000b 	strgt	r0, [r0, #-11]
     940:	17000006 	strne	r0, [r0, -r6]
     944:	03055001 	movweq	r5, #20481	; 0x5001
     948:	00009bd4 	ldrdeq	r9, [r0], -r4
     94c:	05510117 	ldrbeq	r0, [r1, #-279]	; 0xfffffee9
     950:	009b3803 	addseq	r3, fp, r3, lsl #16
     954:	52011700 	andpl	r1, r1, #0, 14
     958:	9c480305 	mcrrls	3, 0, r0, r8, cr5
     95c:	01170000 	tsteq	r7, r0
     960:	8d080253 	sfmhi	f0, 4, [r8, #-332]	; 0xfffffeb4
     964:	007d0217 	rsbseq	r0, sp, r7, lsl r2
     968:	9c300305 	ldcls	3, cr0, [r0], #-20	; 0xffffffec
     96c:	18000000 	stmdane	r0, {}	; <UNPREDICTABLE>
     970:	00008364 	andeq	r8, r0, r4, ror #6
     974:	00000b1d 	andeq	r0, r0, sp, lsl fp
     978:	00cc1900 	sbceq	r1, ip, r0, lsl #18
     97c:	06df0000 	ldrbeq	r0, [pc], r0
     980:	2c1a0000 	ldccs	0, cr0, [sl], {-0}
     984:	0e000000 	cdpeq	0, 0, cr0, cr0, cr0, {0}
     988:	06cf0900 	strbeq	r0, [pc], r0, lsl #18
     98c:	730c0000 	movwvc	r0, #49152	; 0xc000
     990:	01000000 	mrseq	r0, (UNDEF: 0)
     994:	004f0943 	subeq	r0, pc, r3, asr #18
     998:	81740000 	cmnhi	r4, r0
     99c:	00440000 	subeq	r0, r4, r0
     9a0:	9c010000 	stcls	0, cr0, [r1], {-0}
     9a4:	00000764 	andeq	r0, r0, r4, ror #14
     9a8:	0001d31b 	andeq	sp, r1, fp, lsl r3
     9ac:	28430100 	stmdacs	r3, {r8}^
     9b0:	0000002c 	andeq	r0, r0, ip, lsr #32
     9b4:	00000449 	andeq	r0, r0, r9, asr #8
     9b8:	00000445 	andeq	r0, r0, r5, asr #8
     9bc:	0062720d 	rsbeq	r7, r2, sp, lsl #4
     9c0:	2c0e4401 	cfstrscs	mvf4, [lr], {1}
     9c4:	69000000 	stmdbvs	r0, {}	; <UNPREDICTABLE>
     9c8:	67000004 	strvs	r0, [r0, -r4]
     9cc:	1c000004 	stcne	0, cr0, [r0], {4}
     9d0:	00000050 	andeq	r0, r0, r0, asr r0
     9d4:	0000075a 	andeq	r0, r0, sl, asr r7
     9d8:	0061720d 	rsbeq	r7, r1, sp, lsl #4
     9dc:	2c124601 	ldccs	6, cr4, [r2], {1}
     9e0:	80000000 	andhi	r0, r0, r0
     9e4:	7c000004 	stcvc	0, cr0, [r0], {4}
     9e8:	18000004 	stmdane	r0, {r2}
     9ec:	00008188 	andeq	r8, r0, r8, lsl #3
     9f0:	00000b29 	andeq	r0, r0, r9, lsr #22
     9f4:	0081941d 	addeq	r9, r1, sp, lsl r4
     9f8:	000b3500 	andeq	r3, fp, r0, lsl #10
     9fc:	50011700 	andpl	r1, r1, r0, lsl #14
     a00:	00004901 	andeq	r4, r0, r1, lsl #18
     a04:	00818018 	addeq	r8, r1, r8, lsl r0
     a08:	000b2900 	andeq	r2, fp, r0, lsl #18
     a0c:	500c0000 	andpl	r0, ip, r0
     a10:	01000000 	mrseq	r0, (UNDEF: 0)
     a14:	00620a3a 	rsbeq	r0, r2, sl, lsr sl
     a18:	81340000 	teqhi	r4, r0
     a1c:	00400000 	subeq	r0, r0, r0
     a20:	9c010000 	stcls	0, cr0, [r1], {-0}
     a24:	000007f0 	strdeq	r0, [r0], -r0	; <UNPREDICTABLE>
     a28:	0000fd1b 	andeq	pc, r0, fp, lsl sp	; <UNPREDICTABLE>
     a2c:	213a0100 	teqcs	sl, r0, lsl #2
     a30:	0000004f 	andeq	r0, r0, pc, asr #32
     a34:	000004a2 	andeq	r0, r0, r2, lsr #9
     a38:	0000049e 	muleq	r0, lr, r4
     a3c:	6765721e 			; <UNDEFINED> instruction: 0x6765721e
     a40:	333a0100 	teqcc	sl, #0
     a44:	0000004f 	andeq	r0, r0, pc, asr #32
     a48:	000004c7 	andeq	r0, r0, r7, asr #9
     a4c:	000004c3 	andeq	r0, r0, r3, asr #9
     a50:	0000841f 	andeq	r8, r0, pc, lsl r4
     a54:	0a3d0100 	beq	f40e5c <__bss_end__+0xf36b4c>
     a58:	000007f0 	strdeq	r0, [r0], -r0	; <UNPREDICTABLE>
     a5c:	16749102 	ldrbtne	r9, [r4], -r2, lsl #2
     a60:	00008150 	andeq	r8, r0, r0, asr r1
     a64:	00000b41 	andeq	r0, r0, r1, asr #22
     a68:	000007d4 	ldrdeq	r0, [r0], -r4
     a6c:	02500117 	subseq	r0, r0, #-1073741819	; 0xc0000005
     a70:	01170074 	tsteq	r7, r4, ror r0
     a74:	67910251 			; <UNDEFINED> instruction: 0x67910251
     a78:	01520117 	cmpeq	r2, r7, lsl r1
     a7c:	601d0031 	andsvs	r0, sp, r1, lsr r0
     a80:	4d000081 	stcmi	0, cr0, [r0, #-516]	; 0xfffffdfc
     a84:	1700000b 	strne	r0, [r0, -fp]
     a88:	74025001 	strvc	r5, [r2], #-1
     a8c:	51011700 	tstpl	r1, r0, lsl #14
     a90:	176c9102 	strbne	r9, [ip, -r2, lsl #2]!
     a94:	32015201 	andcc	r5, r1, #268435456	; 0x10000000
     a98:	c5190000 	ldrgt	r0, [r9, #-0]
     a9c:	00000000 	andeq	r0, r0, r0
     aa0:	1a000008 	bne	ac8 <__code_start__-0x7538>
     aa4:	0000002c 	andeq	r0, r0, ip, lsr #32
     aa8:	ce200001 	cdpgt	0, 2, cr0, cr0, cr1, {0}
     aac:	01000002 	tsteq	r0, r2
     ab0:	8108062e 	tsthi	r8, lr, lsr #12
     ab4:	002c0000 	eoreq	r0, ip, r0
     ab8:	9c010000 	stcls	0, cr0, [r1], {-0}
     abc:	00000875 	andeq	r0, r0, r5, ror r8
     ac0:	0000fd1b 	andeq	pc, r0, fp, lsl sp	; <UNPREDICTABLE>
     ac4:	1e2e0100 	sufnee	f0, f6, f0
     ac8:	0000004f 	andeq	r0, r0, pc, asr #32
     acc:	000004ea 	andeq	r0, r0, sl, ror #9
     ad0:	000004e6 	andeq	r0, r0, r6, ror #9
     ad4:	6765721e 			; <UNDEFINED> instruction: 0x6765721e
     ad8:	302e0100 	eorcc	r0, lr, r0, lsl #2
     adc:	0000004f 	andeq	r0, r0, pc, asr #32
     ae0:	00000511 	andeq	r0, r0, r1, lsl r5
     ae4:	0000050b 	andeq	r0, r0, fp, lsl #10
     ae8:	0100761e 	tsteq	r0, lr, lsl r6
     aec:	00623e2e 	rsbeq	r3, r2, lr, lsr #28
     af0:	05420000 	strbeq	r0, [r2, #-0]
     af4:	053e0000 	ldreq	r0, [lr, #-0]!
     af8:	ca1f0000 	bgt	7c0b00 <__bss_end__+0x7b67f0>
     afc:	01000001 	tsteq	r0, r1
     b00:	08750a2f 	ldmdaeq	r5!, {r0, r1, r2, r3, r5, r9, fp}^
     b04:	91020000 	mrsls	r0, (UNDEF: 2)
     b08:	812c1d74 			; <UNDEFINED> instruction: 0x812c1d74
     b0c:	0b410000 	bleq	1040b14 <__bss_end__+0x1036804>
     b10:	01170000 	tsteq	r7, r0
     b14:	6c910251 	lfmvs	f0, 4, [r1], {81}	; 0x51
     b18:	01520117 	cmpeq	r2, r7, lsl r1
     b1c:	19000033 	stmdbne	r0, {r0, r1, r4, r5}
     b20:	000000c5 	andeq	r0, r0, r5, asr #1
     b24:	00000885 	andeq	r0, r0, r5, lsl #17
     b28:	00002c1a 	andeq	r2, r0, sl, lsl ip
     b2c:	20000200 	andcs	r0, r0, r0, lsl #4
     b30:	000001fc 	strdeq	r0, [r0], -ip
     b34:	e0062301 	and	r2, r6, r1, lsl #6
     b38:	28000080 	stmdacs	r0, {r7}
     b3c:	01000000 	mrseq	r0, (UNDEF: 0)
     b40:	0008c59c 	muleq	r8, ip, r5
     b44:	73722100 	cmnvc	r2, #0
     b48:	24010074 	strcs	r0, [r1], #-116	; 0xffffff8c
     b4c:	00004f0d 	andeq	r4, r0, sp, lsl #30
     b50:	77910200 	ldrvc	r0, [r1, r0, lsl #4]
     b54:	0081001d 	addeq	r0, r1, sp, lsl r0
     b58:	000b4100 	andeq	r4, fp, r0, lsl #2
     b5c:	50011700 	andpl	r1, r1, r0, lsl #14
     b60:	01173001 	tsteq	r7, r1
     b64:	6f910251 	svcvs	0x00910251
     b68:	01520117 	cmpeq	r2, r7, lsl r1
     b6c:	22000031 	andcs	r0, r0, #49, 0	; 0x31
     b70:	0000029b 	muleq	r0, fp, r2
     b74:	2c015f02 	stccs	15, cr5, [r1], {2}
     b78:	03000000 	movweq	r0, #0
     b7c:	0000090c 	andeq	r0, r0, ip, lsl #18
     b80:	02007823 	andeq	r7, r0, #2293760	; 0x230000
     b84:	0075125f 	rsbseq	r1, r5, pc, asr r2
     b88:	6c230000 	stcvs	0, cr0, [r3], #-0
     b8c:	5f020062 	svcpl	0x00020062
     b90:	00002c1e 	andeq	r2, r0, lr, lsl ip
     b94:	62752300 	rsbsvs	r2, r5, #0, 6
     b98:	2b5f0200 	blcs	17c13a0 <__bss_end__+0x17b7090>
     b9c:	0000002c 	andeq	r0, r0, ip, lsr #32
     ba0:	6c617623 	stclvs	6, cr7, [r1], #-140	; 0xffffff74
     ba4:	385f0200 	ldmdacc	pc, {r9}^	; <UNPREDICTABLE>
     ba8:	00000075 	andeq	r0, r0, r5, ror r0
     bac:	0001e024 	andeq	lr, r1, r4, lsr #32
     bb0:	00091c00 	andeq	r1, r9, r0, lsl #24
     bb4:	cc190000 	ldcgt	0, cr0, [r9], {-0}
     bb8:	1c000000 	stcne	0, cr0, [r0], {-0}
     bbc:	1a000009 	bne	be8 <__code_start__-0x7418>
     bc0:	0000002c 	andeq	r0, r0, ip, lsr #32
     bc4:	0c090007 	stceq	0, cr0, [r9], {7}
     bc8:	22000009 	andcs	r0, r0, #9, 0
     bcc:	000001f3 	strdeq	r0, [r0], -r3
     bd0:	75014d02 	strvc	r4, [r1, #-3330]	; 0xfffff2fe
     bd4:	03000000 	movweq	r0, #0
     bd8:	00000970 	andeq	r0, r0, r0, ror r9
     bdc:	02007823 	andeq	r7, r0, #2293760	; 0x230000
     be0:	0075134d 	rsbseq	r1, r5, sp, asr #6
     be4:	6c230000 	stcvs	0, cr0, [r3], #-0
     be8:	4d020062 	stcmi	0, cr0, [r2, #-392]	; 0xfffffe78
     bec:	00002c1f 	andeq	r2, r0, pc, lsl ip
     bf0:	62752300 	rsbsvs	r2, r5, #0, 6
     bf4:	2c4d0200 	sfmcs	f0, 2, [sp], {-0}
     bf8:	0000002c 	andeq	r0, r0, ip, lsr #32
     bfc:	02007623 	andeq	r7, r0, #36700160	; 0x2300000
     c00:	0075394d 	rsbseq	r3, r5, sp, asr #18
     c04:	e0240000 	eor	r0, r4, r0
     c08:	80000001 	andhi	r0, r0, r1
     c0c:	25000009 	strcs	r0, [r0, #-9]
     c10:	5602006e 	strpl	r0, [r2], -lr, rrx
     c14:	00002c0e 	andeq	r2, r0, lr, lsl #24
     c18:	cc190000 	ldcgt	0, cr0, [r9], {-0}
     c1c:	80000000 	andhi	r0, r0, r0
     c20:	1a000009 	bne	c4c <__code_start__-0x73b4>
     c24:	0000002c 	andeq	r0, r0, ip, lsr #32
     c28:	70090008 	andvc	r0, r9, r8
     c2c:	22000009 	andcs	r0, r0, #9, 0
     c30:	00000235 	andeq	r0, r0, r5, lsr r2
     c34:	75014102 	strvc	r4, [r1, #-258]	; 0xfffffefe
     c38:	03000000 	movweq	r0, #0
     c3c:	000009cc 	andeq	r0, r0, ip, asr #19
     c40:	02007823 	andeq	r7, r0, #2293760	; 0x230000
     c44:	00751341 	rsbseq	r1, r5, r1, asr #6
     c48:	6c230000 	stcvs	0, cr0, [r3], #-0
     c4c:	41020062 	tstmi	r2, r2, rrx
     c50:	00002c1f 	andeq	r2, r0, pc, lsl ip
     c54:	62752300 	rsbsvs	r2, r5, #0, 6
     c58:	2c410200 	sfmcs	f0, 2, [r1], {-0}
     c5c:	0000002c 	andeq	r0, r0, ip, lsr #32
     c60:	0001e024 	andeq	lr, r1, r4, lsr #32
     c64:	00098000 	andeq	r8, r9, r0
     c68:	02852600 	addeq	r2, r5, #0, 12
     c6c:	45020000 	strmi	r0, [r2, #-0]
     c70:	0000750e 	andeq	r7, r0, lr, lsl #10
     c74:	c1220000 			; <UNDEFINED> instruction: 0xc1220000
     c78:	02000001 	andeq	r0, r0, #1, 0
     c7c:	00750139 	rsbseq	r0, r5, r9, lsr r1
     c80:	07030000 	streq	r0, [r3, -r0]
     c84:	2300000a 	movwcs	r0, #10
     c88:	39020078 	stmdbcc	r2, {r3, r4, r5, r6}
     c8c:	00007513 	andeq	r7, r0, r3, lsl r5
     c90:	626c2300 	rsbvs	r2, ip, #0, 6
     c94:	1f390200 	svcne	0x00390200
     c98:	0000002c 	andeq	r0, r0, ip, lsr #32
     c9c:	00627523 	rsbeq	r7, r2, r3, lsr #10
     ca0:	2c2c3902 			; <UNDEFINED> instruction: 0x2c2c3902
     ca4:	24000000 	strcs	r0, [r0], #-0
     ca8:	000001e0 	andeq	r0, r0, r0, ror #3
     cac:	00000980 	andeq	r0, r0, r0, lsl #19
     cb0:	02802200 	addeq	r2, r0, #0, 4
     cb4:	2f020000 	svccs	0x00020000
     cb8:	00007518 	andeq	r7, r0, r8, lsl r5
     cbc:	0a2e0300 	beq	b818c4 <__bss_end__+0xb775b4>
     cc0:	bb270000 	bllt	9c0cc8 <__bss_end__+0x9b69b8>
     cc4:	02000001 	andeq	r0, r0, #1, 0
     cc8:	002c2b2f 	eoreq	r2, ip, pc, lsr #22
     ccc:	e0240000 	eor	r0, r4, r0
     cd0:	3e000001 	cdpcc	0, 0, cr0, cr0, cr1, {0}
     cd4:	0000000a 	andeq	r0, r0, sl
     cd8:	0000cc19 	andeq	ip, r0, r9, lsl ip
     cdc:	000a3e00 	andeq	r3, sl, r0, lsl #28
     ce0:	002c1a00 	eoreq	r1, ip, r0, lsl #20
     ce4:	00090000 	andeq	r0, r9, r0
     ce8:	000a2e09 	andeq	r2, sl, r9, lsl #28
     cec:	024d2200 	subeq	r2, sp, #0, 4
     cf0:	23020000 	movwcs	r0, #8192	; 0x2000
     cf4:	00002c01 	andeq	r2, r0, r1, lsl #24
     cf8:	0a6b0300 	beq	1ac1900 <__bss_end__+0x1ab75f0>
     cfc:	78230000 	stmdavc	r3!, {}	; <UNPREDICTABLE>
     d00:	15230200 	strne	r0, [r3, #-512]!	; 0xfffffe00
     d04:	00000075 	andeq	r0, r0, r5, ror r0
     d08:	74696223 	strbtvc	r6, [r9], #-547	; 0xfffffddd
     d0c:	21230200 			; <UNDEFINED> instruction: 0x21230200
     d10:	0000002c 	andeq	r0, r0, ip, lsr #32
     d14:	026e2200 	rsbeq	r2, lr, #0, 4
     d18:	1e020000 	cdpne	0, 0, cr0, cr2, cr0, {0}
     d1c:	00002c01 	andeq	r2, r0, r1, lsl #24
     d20:	0aa00300 	beq	fe801928 <__bss_end__+0xfe7f7618>
     d24:	78230000 	stmdavc	r3!, {}	; <UNPREDICTABLE>
     d28:	141e0200 	ldrne	r0, [lr], #-512	; 0xfffffe00
     d2c:	00000075 	andeq	r0, r0, r5, ror r0
     d30:	74696223 	strbtvc	r6, [r9], #-547	; 0xfffffddd
     d34:	201e0200 	andscs	r0, lr, r0, lsl #4
     d38:	0000002c 	andeq	r0, r0, ip, lsr #32
     d3c:	0001e028 	andeq	lr, r1, r8, lsr #32
     d40:	000a3e00 	andeq	r3, sl, r0, lsl #28
     d44:	00026e00 	andeq	r6, r2, r0, lsl #28
     d48:	8a220000 	bhi	880d50 <__bss_end__+0x876a40>
     d4c:	02000002 	andeq	r0, r0, #2, 0
     d50:	00750107 	rsbseq	r0, r5, r7, lsl #2
     d54:	d5030000 	strle	r0, [r3, #-0]
     d58:	2300000a 	movwcs	r0, #10
     d5c:	07020078 	smlsdxeq	r2, r8, r0, r0
     d60:	00007512 	andeq	r7, r0, r2, lsl r5
     d64:	69622300 	stmdbvs	r2!, {r8, r9, sp}^
     d68:	07020074 	smlsdxeq	r2, r4, r0, r0
     d6c:	00002c1e 	andeq	r2, r0, lr, lsl ip
     d70:	01e02800 	mvneq	r2, r0, lsl #16
     d74:	091c0000 	ldmdbeq	ip, {}	; <UNPREDICTABLE>
     d78:	028a0000 	addeq	r0, sl, #0, 0
     d7c:	29000000 	stmdbcs	r0, {}	; <UNPREDICTABLE>
     d80:	0000022c 	andeq	r0, r0, ip, lsr #4
     d84:	0000022c 	andeq	r0, r0, ip, lsr #4
     d88:	29065804 	stmdbcs	r6, {r2, fp, ip, lr}
     d8c:	00000214 	andeq	r0, r0, r4, lsl r2
     d90:	00000214 	andeq	r0, r0, r4, lsl r2
     d94:	29060606 	stmdbcs	r6, {r1, r2, r9, sl}
     d98:	0000023e 	andeq	r0, r0, lr, lsr r2
     d9c:	0000023e 	andeq	r0, r0, lr, lsr r2
     da0:	29061c07 	stmdbcs	r6, {r0, r1, r2, sl, fp, ip}
     da4:	00000265 	andeq	r0, r0, r5, ror #4
     da8:	00000265 	andeq	r0, r0, r5, ror #4
     dac:	29065604 	stmdbcs	r6, {r2, r9, sl, ip, lr}
     db0:	00000723 	andeq	r0, r0, r3, lsr #14
     db4:	00000723 	andeq	r0, r0, r3, lsr #14
     db8:	29062804 	stmdbcs	r6, {r2, fp, sp}
     dbc:	000002bf 			; <UNDEFINED> instruction: 0x000002bf
     dc0:	000002bf 			; <UNDEFINED> instruction: 0x000002bf
     dc4:	29061d04 	stmdbcs	r6, {r2, r8, sl, fp, ip}
     dc8:	00000030 	andeq	r0, r0, r0, lsr r0
     dcc:	00000030 	andeq	r0, r0, r0, lsr r0
     dd0:	29066e04 	stmdbcs	r6, {r2, r9, sl, fp, sp, lr}
     dd4:	0000021d 	andeq	r0, r0, sp, lsl r2
     dd8:	0000021d 	andeq	r0, r0, sp, lsl r2
     ddc:	290a5d04 	stmdbcs	sl, {r2, r8, sl, fp, ip, lr}
     de0:	0000020a 	andeq	r0, r0, sl, lsl #4
     de4:	0000020a 	andeq	r0, r0, sl, lsl #4
     de8:	29052407 	stmdbcs	r5, {r0, r1, r2, sl, sp}
     dec:	000001e9 	andeq	r0, r0, r9, ror #3
     df0:	000001e9 	andeq	r0, r0, r9, ror #3
     df4:	29050c06 	stmdbcs	r5, {r1, r2, sl, fp}
     df8:	000002a3 	andeq	r0, r0, r3, lsr #5
     dfc:	000002a3 	andeq	r0, r0, r3, lsr #5
     e00:	00050e06 	andeq	r0, r5, r6, lsl #28
     e04:	000013d6 	ldrdeq	r1, [r0], -r6
     e08:	03940004 	orrseq	r0, r4, #4, 0
     e0c:	01040000 	mrseq	r0, (UNDEF: 4)
     e10:	0000041e 	andeq	r0, r0, lr, lsl r4
     e14:	0004c80c 	andeq	ip, r4, ip, lsl #16
     e18:	00030100 	andeq	r0, r3, r0, lsl #2
     e1c:	00839400 	addeq	r9, r3, r0, lsl #8
     e20:	00057800 	andeq	r7, r5, r0, lsl #16
     e24:	00050700 	andeq	r0, r5, r0, lsl #14
     e28:	05040200 	streq	r0, [r4, #-512]	; 0xfffffe00
     e2c:	00746e69 	rsbseq	r6, r4, r9, ror #28
     e30:	9c070403 	cfstrsls	mvf0, [r7], {3}
     e34:	04000000 	streq	r0, [r0], #-0
     e38:	0000002c 	andeq	r0, r0, ip, lsr #32
     e3c:	24060103 	strcs	r0, [r6], #-259	; 0xfffffefd
     e40:	03000000 	movweq	r0, #0
     e44:	00c30502 	sbceq	r0, r3, r2, lsl #10
     e48:	04030000 	streq	r0, [r3], #-0
     e4c:	0000ae05 	andeq	sl, r0, r5, lsl #28
     e50:	05080300 	streq	r0, [r8, #-768]	; 0xfffffd00
     e54:	000000a9 	andeq	r0, r0, r9, lsr #1
     e58:	00027805 	andeq	r7, r2, r5, lsl #16
     e5c:	182e0200 	stmdane	lr!, {r9}
     e60:	00000060 	andeq	r0, r0, r0, rrx
     e64:	22080103 	andcs	r0, r8, #-1073741824	; 0xc0000000
     e68:	03000000 	movweq	r0, #0
     e6c:	003d0702 	eorseq	r0, sp, r2, lsl #14
     e70:	ac050000 	stcge	0, cr0, [r5], {-0}
     e74:	02000002 	andeq	r0, r0, #2, 0
     e78:	007a1934 	rsbseq	r1, sl, r4, lsr r9
     e7c:	04030000 	streq	r0, [r3], #-0
     e80:	00009707 	andeq	r9, r0, r7, lsl #14
     e84:	07080300 	streq	r0, [r8, -r0, lsl #6]
     e88:	00000092 	muleq	r0, r2, r0
     e8c:	2b080103 	blcs	2012a0 <__bss_end__+0x1f6f90>
     e90:	04000000 	streq	r0, [r0], #-0
     e94:	00000088 	andeq	r0, r0, r8, lsl #1
     e98:	60010706 	andvs	r0, r1, r6, lsl #14
     e9c:	04000000 	streq	r0, [r0], #-0
     ea0:	00d30e0c 	sbcseq	r0, r3, ip, lsl #28
     ea4:	09070000 	stmdbeq	r7, {}	; <UNPREDICTABLE>
     ea8:	00000004 	andeq	r0, r0, r4
     eac:	00035a07 	andeq	r5, r3, r7, lsl #20
     eb0:	73070100 	movwvc	r0, #28928	; 0x7100
     eb4:	04000003 	streq	r0, [r0], #-3
     eb8:	00038207 	andeq	r8, r3, r7, lsl #4
     ebc:	91070500 	tstls	r7, r0, lsl #10
     ec0:	06000003 	streq	r0, [r0], -r3
     ec4:	0003a007 	andeq	sl, r3, r7
     ec8:	af070700 	svcge	0x00070700
     ecc:	03000003 	movweq	r0, #3
     ed0:	0003be07 	andeq	fp, r3, r7, lsl #28
     ed4:	08000200 	stmdaeq	r0, {r9}
     ed8:	09590104 	ldmdbeq	r9, {r2, r8}^
     edc:	0000018c 	andeq	r0, r0, ip, lsl #3
     ee0:	0002a709 	andeq	sl, r2, r9, lsl #14
     ee4:	0b5a0100 	bleq	16812ec <__bss_end__+0x1676fdc>
     ee8:	0000006e 	andeq	r0, r0, lr, rrx
     eec:	001f0104 	andseq	r0, pc, r4, lsl #2
     ef0:	00055d09 	andeq	r5, r5, r9, lsl #26
     ef4:	035c0100 	cmpeq	ip, #0
     ef8:	0000006e 	andeq	r0, r0, lr, rrx
     efc:	001c0304 	andseq	r0, ip, r4, lsl #6
     f00:	0003fe09 	andeq	pc, r3, r9, lsl #28
     f04:	035d0100 	cmpeq	sp, #0
     f08:	0000006e 	andeq	r0, r0, lr, rrx
     f0c:	001a0204 	andseq	r0, sl, r4, lsl #4
     f10:	00056709 	andeq	r6, r5, r9, lsl #14
     f14:	03630100 	cmneq	r3, #0
     f18:	0000006e 	andeq	r0, r0, lr, rrx
     f1c:	00190104 	andseq	r0, r9, r4, lsl #2
     f20:	0074730a 	rsbseq	r7, r4, sl, lsl #6
     f24:	6e036401 	cdpvs	4, 0, cr6, cr3, cr1, {0}
     f28:	04000000 	streq	r0, [r0], #-0
     f2c:	09001801 	stmdbeq	r0, {r0, fp, ip}
     f30:	00000419 	andeq	r0, r0, r9, lsl r4
     f34:	6e036801 	cdpvs	8, 0, cr6, cr3, cr1, {0}
     f38:	04000000 	streq	r0, [r0], #-0
     f3c:	09001701 	stmdbeq	r0, {r0, r8, r9, sl, ip}
     f40:	000004b6 			; <UNDEFINED> instruction: 0x000004b6
     f44:	6e036b01 	vmlavs.f64	d6, d3, d1
     f48:	04000000 	streq	r0, [r0], #-0
     f4c:	09001601 	stmdbeq	r0, {r0, r9, sl, ip}
     f50:	000004b1 			; <UNDEFINED> instruction: 0x000004b1
     f54:	6e036e01 	cdpvs	14, 0, cr6, cr3, cr1, {0}
     f58:	04000000 	streq	r0, [r0], #-0
     f5c:	09001501 	stmdbeq	r0, {r0, r8, sl, ip}
     f60:	00000571 	andeq	r0, r0, r1, ror r5
     f64:	6e037101 	adfvss	f7, f3, f1
     f68:	04000000 	streq	r0, [r0], #-0
     f6c:	09001104 	stmdbeq	r0, {r2, r8, ip}
     f70:	000004ee 	andeq	r0, r0, lr, ror #9
     f74:	6e037201 	cdpvs	2, 0, cr7, cr3, cr1, {0}
     f78:	04000000 	streq	r0, [r0], #-0
     f7c:	09001001 	stmdbeq	r0, {r0, ip}
     f80:	0000057b 	andeq	r0, r0, fp, ror r5
     f84:	6e037501 	cfsh32vs	mvfx7, mvfx3, #1
     f88:	04000000 	streq	r0, [r0], #-0
     f8c:	00000010 	andeq	r0, r0, r0, lsl r0
     f90:	0003e305 	andeq	lr, r3, r5, lsl #6
     f94:	03760100 	cmneq	r6, #0
     f98:	000000d3 	ldrdeq	r0, [r0], -r3
     f9c:	00018c0b 	andeq	r8, r1, fp, lsl #24
     fa0:	01040800 	tsteq	r4, r0, lsl #16
     fa4:	02560984 	subseq	r0, r6, #132, 18	; 0x210000
     fa8:	740a0000 	strvc	r0, [sl], #-0
     fac:	85010061 	strhi	r0, [r1, #-97]	; 0xffffff9f
     fb0:	00002c0b 	andeq	r2, r0, fp, lsl #24
     fb4:	1f010400 	svcne	0x00010400
     fb8:	04040900 	streq	r0, [r4], #-2304	; 0xfffff700
     fbc:	88010000 	stmdahi	r1, {}	; <UNPREDICTABLE>
     fc0:	00002c03 	andeq	r2, r0, r3, lsl #24
     fc4:	1e010400 	cfcpysne	mvf0, mvf1
     fc8:	78740a00 	ldmdavc	r4!, {r9, fp}^
     fcc:	8c010077 	stchi	0, cr0, [r1], {119}	; 0x77
     fd0:	00002c03 	andeq	r2, r0, r3, lsl #24
     fd4:	1d010400 	cfstrsne	mvf0, [r1, #-0]
     fd8:	78720a00 	ldmdavc	r2!, {r9, fp}^
     fdc:	92010072 	andls	r0, r1, #114, 0	; 0x72
     fe0:	00002c03 	andeq	r2, r0, r3, lsl #24
     fe4:	1c010400 	cfstrsne	mvf0, [r1], {-0}
     fe8:	78740a00 	ldmdavc	r4!, {r9, fp}^
     fec:	98010064 	stmdals	r1, {r2, r5, r6}
     ff0:	00002c03 	andeq	r2, r0, r3, lsl #24
     ff4:	1b010400 	blne	41ffc <__bss_end__+0x37cec>
     ff8:	78720a00 	ldmdavc	r2!, {r9, fp}^
     ffc:	9b010064 	blls	41194 <__bss_end__+0x36e84>
    1000:	00002c03 	andeq	r2, r0, r3, lsl #24
    1004:	1a010400 	bne	4200c <__bss_end__+0x37cfc>
    1008:	78740a00 	ldmdavc	r4!, {r9, fp}^
    100c:	9f010065 	svcls	0x00010065
    1010:	00002c03 	andeq	r2, r0, r3, lsl #24
    1014:	19010400 	stmdbne	r1, {sl}
    1018:	78720a00 	ldmdavc	r2!, {r9, fp}^
    101c:	a4010066 	strge	r0, [r1], #-102	; 0xffffff9a
    1020:	00002c03 	andeq	r2, r0, r3, lsl #24
    1024:	18010400 	stmdane	r1, {sl}
    1028:	72650a00 	rsbvc	r0, r5, #0, 20
    102c:	a7010072 	smlsdxge	r1, r2, r0, r0
    1030:	00002c03 	andeq	r2, r0, r3, lsl #24
    1034:	17010400 	strne	r0, [r1, -r0, lsl #8]
    1038:	05270900 	streq	r0, [r7, #-2304]!	; 0xfffff700
    103c:	ab010000 	blge	41044 <__bss_end__+0x36d34>
    1040:	00002c03 	andeq	r2, r0, r3, lsl #24
    1044:	16010400 	strne	r0, [r1], -r0, lsl #8
    1048:	055d0900 	ldrbeq	r0, [sp, #-2304]	; 0xfffff700
    104c:	b0010000 	andlt	r0, r1, r0
    1050:	00002c03 	andeq	r2, r0, r3, lsl #24
    1054:	00160400 	andseq	r0, r6, r0, lsl #8
    1058:	cd050000 	stcgt	0, cr0, [r5, #-0]
    105c:	01000003 	tsteq	r0, r3
    1060:	019d03b1 			; <UNDEFINED> instruction: 0x019d03b1
    1064:	560b0000 	strpl	r0, [fp], -r0
    1068:	0c000002 	stceq	0, cr0, [r0], {2}
    106c:	000004e6 	andeq	r0, r0, r6, ror #9
    1070:	10bc0120 	adcsne	r0, ip, r0, lsr #2
    1074:	000002dd 	ldrdeq	r0, [r0], -sp
    1078:	0004c00d 	andeq	ip, r4, sp
    107c:	0dbd0100 	ldfeqs	f0, [sp]
    1080:	0000018c 	andeq	r0, r0, ip, lsl #3
    1084:	058b0d00 	streq	r0, [fp, #3328]	; 0xd00
    1088:	be010000 	cdplt	0, 0, cr0, cr1, cr0, {0}
    108c:	0002560d 	andeq	r5, r2, sp, lsl #12
    1090:	d80d0400 	stmdale	sp, {sl}
    1094:	01000003 	tsteq	r0, r3
    1098:	006e0bc1 	rsbeq	r0, lr, r1, asr #23
    109c:	0d080000 	stceq	0, cr0, [r8, #-0]
    10a0:	000000fd 	strdeq	r0, [r0], -sp
    10a4:	6e0cca01 	vmlavs.f32	s24, s24, s2
    10a8:	0c000000 	stceq	0, cr0, [r0], {-0}
    10ac:	0004bb0d 	andeq	fp, r4, sp, lsl #22
    10b0:	0bcc0100 	bleq	ff3014b8 <__bss_end__+0xff2f71a8>
    10b4:	0000006e 	andeq	r0, r0, lr, rrx
    10b8:	03f40d10 	mvnseq	r0, #16, 26	; 0x400
    10bc:	ce010000 	cdpgt	0, 0, cr0, cr1, cr0, {0}
    10c0:	00006e0b 	andeq	r6, r0, fp, lsl #28
    10c4:	920d1400 	andls	r1, sp, #0, 8
    10c8:	01000005 	tsteq	r0, r5
    10cc:	006e0bd0 	ldrdeq	r0, [lr], #-176	; 0xffffff50	; <UNPREDICTABLE>
    10d0:	0d180000 	ldceq	0, cr0, [r8, #-0]
    10d4:	0000033c 	andeq	r0, r0, ip, lsr r3
    10d8:	6e0bd201 	cdpvs	2, 0, cr13, cr11, cr1, {0}
    10dc:	1c000000 	stcne	0, cr0, [r0], {-0}
    10e0:	04e60500 	strbteq	r0, [r6], #1280	; 0x500
    10e4:	d3010000 	movwle	r0, #4096	; 0x1000
    10e8:	00026703 	andeq	r6, r2, r3, lsl #14
    10ec:	02dd0b00 	sbcseq	r0, sp, #0, 22
    10f0:	690e0000 	stmdbvs	lr, {}	; <UNPREDICTABLE>
    10f4:	01006332 	tsteq	r0, r2, lsr r3
    10f8:	02fa1ad7 	rscseq	r1, sl, #880640	; 0xd7000
    10fc:	040f0000 	streq	r0, [pc], #-0	; 1104 <__code_start__-0x6efc>
    1100:	000002e9 	andeq	r0, r0, r9, ror #5
    1104:	0002e610 	andeq	lr, r2, r0, lsl r6
    1108:	01420100 	mrseq	r0, (UNDEF: 82)
    110c:	0000250c 	andeq	r2, r0, ip, lsl #10
    1110:	08030500 	stmdaeq	r3, {r8, sl}
    1114:	1100009f 	swpne	r0, pc, [r0]	; <UNPREDICTABLE>
    1118:	000002f4 	strdeq	r0, [r0], -r4
    111c:	0d017501 	cfstr32eq	mvfx7, [r1, #-4]
    1120:	00000946 	andeq	r0, r0, r6, asr #18
    1124:	00025812 	andeq	r5, r2, r2, lsl r8
    1128:	00095600 	andeq	r5, r9, r0, lsl #12
    112c:	0002f400 	andeq	pc, r2, r0, lsl #8
    1130:	03891300 	orreq	r1, r9, #0, 6
    1134:	5f140000 	svcpl	0x00140000
    1138:	01040075 	tsteq	r4, r5, ror r0
    113c:	56020180 	strpl	r0, [r2], -r0, lsl #3
    1140:	15000003 	strne	r0, [r0, #-3]
    1144:	80010073 	andhi	r0, r1, r3, ror r0
    1148:	018c0201 	orreq	r0, ip, r1, lsl #4
    114c:	75150000 	ldrvc	r0, [r5, #-0]
    1150:	01800100 	orreq	r0, r0, r0, lsl #2
    1154:	00002c02 	andeq	r2, r0, r2, lsl #24
    1158:	78160000 	ldmdavc	r6, {}	; <UNPREDICTABLE>
    115c:	01800100 	orreq	r0, r0, r0, lsl #2
    1160:	00033202 	andeq	r3, r3, r2, lsl #4
    1164:	78651600 	stmdavc	r5!, {r9, sl, ip}^
    1168:	80010070 	andhi	r0, r1, r0, ror r0
    116c:	002c0201 	eoreq	r0, ip, r1, lsl #4
    1170:	ee170000 	cdp	0, 1, cr0, cr7, cr0, {0}
    1174:	01000003 	tsteq	r0, r3
    1178:	2c020180 	stfcss	f0, [r2], {128}	; 0x80
    117c:	17000000 	strne	r0, [r0, -r0]
    1180:	000002de 	ldrdeq	r0, [r0], -lr
    1184:	02018001 	andeq	r8, r1, #1, 0
    1188:	0000002c 	andeq	r0, r0, ip, lsr #32
    118c:	03e51300 	mvneq	r1, #0, 6
    1190:	5f140000 	svcpl	0x00140000
    1194:	01040075 	tsteq	r4, r5, ror r0
    1198:	b2020181 	andlt	r0, r2, #1073741856	; 0x40000020
    119c:	15000003 	strne	r0, [r0, #-3]
    11a0:	81010073 	tsthi	r1, r3, ror r0
    11a4:	018c0201 	orreq	r0, ip, r1, lsl #4
    11a8:	75150000 	ldrvc	r0, [r5, #-0]
    11ac:	01810100 	orreq	r0, r1, r0, lsl #2
    11b0:	00002c02 	andeq	r2, r0, r2, lsl #24
    11b4:	78160000 	ldmdavc	r6, {}	; <UNPREDICTABLE>
    11b8:	01810100 	orreq	r0, r1, r0, lsl #2
    11bc:	00038e02 	andeq	r8, r3, r2, lsl #28
    11c0:	78651600 	stmdavc	r5!, {r9, sl, ip}^
    11c4:	81010070 	tsthi	r1, r0, ror r0
    11c8:	002c0201 	eoreq	r0, ip, r1, lsl #4
    11cc:	ee170000 	cdp	0, 1, cr0, cr7, cr0, {0}
    11d0:	01000003 	tsteq	r0, r3
    11d4:	2c020181 	stfcss	f0, [r2], {129}	; 0x81
    11d8:	17000000 	strne	r0, [r0, -r0]
    11dc:	000002de 	ldrdeq	r0, [r0], -lr
    11e0:	02018101 	andeq	r8, r1, #1073741824	; 0x40000000
    11e4:	0000002c 	andeq	r0, r0, ip, lsr #32
    11e8:	04411300 	strbeq	r1, [r1], #-768	; 0xfffffd00
    11ec:	5f140000 	svcpl	0x00140000
    11f0:	01040075 	tsteq	r4, r5, ror r0
    11f4:	0e020182 	adfeqd	f0, f2, f2
    11f8:	15000004 	strne	r0, [r0, #-4]
    11fc:	82010073 	andhi	r0, r1, #115, 0	; 0x73
    1200:	018c0201 	orreq	r0, ip, r1, lsl #4
    1204:	75150000 	ldrvc	r0, [r5, #-0]
    1208:	01820100 	orreq	r0, r2, r0, lsl #2
    120c:	00002c02 	andeq	r2, r0, r2, lsl #24
    1210:	78160000 	ldmdavc	r6, {}	; <UNPREDICTABLE>
    1214:	01820100 	orreq	r0, r2, r0, lsl #2
    1218:	0003ea02 	andeq	lr, r3, r2, lsl #20
    121c:	78651600 	stmdavc	r5!, {r9, sl, ip}^
    1220:	82010070 	andhi	r0, r1, #112, 0	; 0x70
    1224:	002c0201 	eoreq	r0, ip, r1, lsl #4
    1228:	ee170000 	cdp	0, 1, cr0, cr7, cr0, {0}
    122c:	01000003 	tsteq	r0, r3
    1230:	2c020182 	stfcss	f0, [r2], {130}	; 0x82
    1234:	17000000 	strne	r0, [r0, -r0]
    1238:	000002de 	ldrdeq	r0, [r0], -lr
    123c:	02018201 	andeq	r8, r1, #268435456	; 0x10000000
    1240:	0000002c 	andeq	r0, r0, ip, lsr #32
    1244:	049d1300 	ldreq	r1, [sp], #768	; 0x300
    1248:	5f140000 	svcpl	0x00140000
    124c:	01040075 	tsteq	r4, r5, ror r0
    1250:	6a020183 	bvs	81864 <__bss_end__+0x77554>
    1254:	15000004 	strne	r0, [r0, #-4]
    1258:	83010073 	movwhi	r0, #4211	; 0x1073
    125c:	018c0201 	orreq	r0, ip, r1, lsl #4
    1260:	75150000 	ldrvc	r0, [r5, #-0]
    1264:	01830100 	orreq	r0, r3, r0, lsl #2
    1268:	00002c02 	andeq	r2, r0, r2, lsl #24
    126c:	78160000 	ldmdavc	r6, {}	; <UNPREDICTABLE>
    1270:	01830100 	orreq	r0, r3, r0, lsl #2
    1274:	00044602 	andeq	r4, r4, r2, lsl #12
    1278:	78651600 	stmdavc	r5!, {r9, sl, ip}^
    127c:	83010070 	movwhi	r0, #4208	; 0x1070
    1280:	002c0201 	eoreq	r0, ip, r1, lsl #4
    1284:	ee170000 	cdp	0, 1, cr0, cr7, cr0, {0}
    1288:	01000003 	tsteq	r0, r3
    128c:	2c020183 	stfcss	f0, [r2], {131}	; 0x83
    1290:	17000000 	strne	r0, [r0, -r0]
    1294:	000002de 	ldrdeq	r0, [r0], -lr
    1298:	02018301 	andeq	r8, r1, #67108864	; 0x4000000
    129c:	0000002c 	andeq	r0, r0, ip, lsr #32
    12a0:	04f91300 	ldrbteq	r1, [r9], #768	; 0x300
    12a4:	5f140000 	svcpl	0x00140000
    12a8:	01040075 	tsteq	r4, r5, ror r0
    12ac:	c6020184 	strgt	r0, [r2], -r4, lsl #3
    12b0:	15000004 	strne	r0, [r0, #-4]
    12b4:	84010073 	strhi	r0, [r1], #-115	; 0xffffff8d
    12b8:	018c0201 	orreq	r0, ip, r1, lsl #4
    12bc:	75150000 	ldrvc	r0, [r5, #-0]
    12c0:	01840100 	orreq	r0, r4, r0, lsl #2
    12c4:	00002c02 	andeq	r2, r0, r2, lsl #24
    12c8:	78160000 	ldmdavc	r6, {}	; <UNPREDICTABLE>
    12cc:	01840100 	orreq	r0, r4, r0, lsl #2
    12d0:	0004a202 	andeq	sl, r4, r2, lsl #4
    12d4:	78651600 	stmdavc	r5!, {r9, sl, ip}^
    12d8:	84010070 	strhi	r0, [r1], #-112	; 0xffffff90
    12dc:	002c0201 	eoreq	r0, ip, r1, lsl #4
    12e0:	ee170000 	cdp	0, 1, cr0, cr7, cr0, {0}
    12e4:	01000003 	tsteq	r0, r3
    12e8:	2c020184 	stfcss	f0, [r2], {132}	; 0x84
    12ec:	17000000 	strne	r0, [r0, -r0]
    12f0:	000002de 	ldrdeq	r0, [r0], -lr
    12f4:	02018401 	andeq	r8, r1, #16777216	; 0x1000000
    12f8:	0000002c 	andeq	r0, r0, ip, lsr #32
    12fc:	05551300 	ldrbeq	r1, [r5, #-768]	; 0xfffffd00
    1300:	5f140000 	svcpl	0x00140000
    1304:	01040075 	tsteq	r4, r5, ror r0
    1308:	22020185 	andcs	r0, r2, #1073741857	; 0x40000021
    130c:	15000005 	strne	r0, [r0, #-5]
    1310:	85010073 	strhi	r0, [r1, #-115]	; 0xffffff8d
    1314:	018c0201 	orreq	r0, ip, r1, lsl #4
    1318:	75150000 	ldrvc	r0, [r5, #-0]
    131c:	01850100 	orreq	r0, r5, r0, lsl #2
    1320:	00002c02 	andeq	r2, r0, r2, lsl #24
    1324:	78160000 	ldmdavc	r6, {}	; <UNPREDICTABLE>
    1328:	01850100 	orreq	r0, r5, r0, lsl #2
    132c:	0004fe02 	andeq	pc, r4, r2, lsl #28
    1330:	78651600 	stmdavc	r5!, {r9, sl, ip}^
    1334:	85010070 	strhi	r0, [r1, #-112]	; 0xffffff90
    1338:	002c0201 	eoreq	r0, ip, r1, lsl #4
    133c:	ee170000 	cdp	0, 1, cr0, cr7, cr0, {0}
    1340:	01000003 	tsteq	r0, r3
    1344:	2c020185 	stfcss	f0, [r2], {133}	; 0x85
    1348:	17000000 	strne	r0, [r0, -r0]
    134c:	000002de 	ldrdeq	r0, [r0], -lr
    1350:	02018501 	andeq	r8, r1, #4194304	; 0x400000
    1354:	0000002c 	andeq	r0, r0, ip, lsr #32
    1358:	05b11300 	ldreq	r1, [r1, #768]!	; 0x300
    135c:	5f140000 	svcpl	0x00140000
    1360:	01040075 	tsteq	r4, r5, ror r0
    1364:	7e020186 	adfvcd	f0, f2, f6
    1368:	15000005 	strne	r0, [r0, #-5]
    136c:	86010073 			; <UNDEFINED> instruction: 0x86010073
    1370:	018c0201 	orreq	r0, ip, r1, lsl #4
    1374:	75150000 	ldrvc	r0, [r5, #-0]
    1378:	01860100 	orreq	r0, r6, r0, lsl #2
    137c:	00002c02 	andeq	r2, r0, r2, lsl #24
    1380:	78160000 	ldmdavc	r6, {}	; <UNPREDICTABLE>
    1384:	01860100 	orreq	r0, r6, r0, lsl #2
    1388:	00055a02 	andeq	r5, r5, r2, lsl #20
    138c:	78651600 	stmdavc	r5!, {r9, sl, ip}^
    1390:	86010070 			; <UNDEFINED> instruction: 0x86010070
    1394:	002c0201 	eoreq	r0, ip, r1, lsl #4
    1398:	ee170000 	cdp	0, 1, cr0, cr7, cr0, {0}
    139c:	01000003 	tsteq	r0, r3
    13a0:	2c020186 	stfcss	f0, [r2], {134}	; 0x86
    13a4:	17000000 	strne	r0, [r0, -r0]
    13a8:	000002de 	ldrdeq	r0, [r0], -lr
    13ac:	02018601 	andeq	r8, r1, #1048576	; 0x100000
    13b0:	0000002c 	andeq	r0, r0, ip, lsr #32
    13b4:	060d1300 	streq	r1, [sp], -r0, lsl #6
    13b8:	5f140000 	svcpl	0x00140000
    13bc:	01040075 	tsteq	r4, r5, ror r0
    13c0:	da020189 	ble	819ec <__bss_end__+0x776dc>
    13c4:	15000005 	strne	r0, [r0, #-5]
    13c8:	89010073 	stmdbhi	r1, {r0, r1, r4, r5, r6}
    13cc:	02560201 	subseq	r0, r6, #268435456	; 0x10000000
    13d0:	75150000 	ldrvc	r0, [r5, #-0]
    13d4:	01890100 	orreq	r0, r9, r0, lsl #2
    13d8:	00002c02 	andeq	r2, r0, r2, lsl #24
    13dc:	78160000 	ldmdavc	r6, {}	; <UNPREDICTABLE>
    13e0:	01890100 	orreq	r0, r9, r0, lsl #2
    13e4:	0005b602 	andeq	fp, r5, r2, lsl #12
    13e8:	78651600 	stmdavc	r5!, {r9, sl, ip}^
    13ec:	89010070 	stmdbhi	r1, {r4, r5, r6}
    13f0:	002c0201 	eoreq	r0, ip, r1, lsl #4
    13f4:	ee170000 	cdp	0, 1, cr0, cr7, cr0, {0}
    13f8:	01000003 	tsteq	r0, r3
    13fc:	2c020189 	stfcss	f0, [r2], {137}	; 0x89
    1400:	17000000 	strne	r0, [r0, -r0]
    1404:	000002de 	ldrdeq	r0, [r0], -lr
    1408:	02018901 	andeq	r8, r1, #16384	; 0x4000
    140c:	0000002c 	andeq	r0, r0, ip, lsr #32
    1410:	06691300 	strbteq	r1, [r9], -r0, lsl #6
    1414:	5f140000 	svcpl	0x00140000
    1418:	01040075 	tsteq	r4, r5, ror r0
    141c:	3602018a 	strcc	r0, [r2], -sl, lsl #3
    1420:	15000006 	strne	r0, [r0, #-6]
    1424:	8a010073 	bhi	415f8 <__bss_end__+0x372e8>
    1428:	02560201 	subseq	r0, r6, #268435456	; 0x10000000
    142c:	75150000 	ldrvc	r0, [r5, #-0]
    1430:	018a0100 	orreq	r0, sl, r0, lsl #2
    1434:	00002c02 	andeq	r2, r0, r2, lsl #24
    1438:	78160000 	ldmdavc	r6, {}	; <UNPREDICTABLE>
    143c:	018a0100 	orreq	r0, sl, r0, lsl #2
    1440:	00061202 	andeq	r1, r6, r2, lsl #4
    1444:	78651600 	stmdavc	r5!, {r9, sl, ip}^
    1448:	8a010070 	bhi	41610 <__bss_end__+0x37300>
    144c:	002c0201 	eoreq	r0, ip, r1, lsl #4
    1450:	ee170000 	cdp	0, 1, cr0, cr7, cr0, {0}
    1454:	01000003 	tsteq	r0, r3
    1458:	2c02018a 	stfcss	f0, [r2], {138}	; 0x8a
    145c:	17000000 	strne	r0, [r0, -r0]
    1460:	000002de 	ldrdeq	r0, [r0], -lr
    1464:	02018a01 	andeq	r8, r1, #4096	; 0x1000
    1468:	0000002c 	andeq	r0, r0, ip, lsr #32
    146c:	06c51300 	strbeq	r1, [r5], r0, lsl #6
    1470:	5f140000 	svcpl	0x00140000
    1474:	01040075 	tsteq	r4, r5, ror r0
    1478:	9202018b 	andls	r0, r2, #-1073741790	; 0xc0000022
    147c:	15000006 	strne	r0, [r0, #-6]
    1480:	8b010073 	blhi	41654 <__bss_end__+0x37344>
    1484:	02560201 	subseq	r0, r6, #268435456	; 0x10000000
    1488:	75150000 	ldrvc	r0, [r5, #-0]
    148c:	018b0100 	orreq	r0, fp, r0, lsl #2
    1490:	00002c02 	andeq	r2, r0, r2, lsl #24
    1494:	78160000 	ldmdavc	r6, {}	; <UNPREDICTABLE>
    1498:	018b0100 	orreq	r0, fp, r0, lsl #2
    149c:	00066e02 	andeq	r6, r6, r2, lsl #28
    14a0:	78651600 	stmdavc	r5!, {r9, sl, ip}^
    14a4:	8b010070 	blhi	4166c <__bss_end__+0x3735c>
    14a8:	002c0201 	eoreq	r0, ip, r1, lsl #4
    14ac:	ee170000 	cdp	0, 1, cr0, cr7, cr0, {0}
    14b0:	01000003 	tsteq	r0, r3
    14b4:	2c02018b 	stfcss	f0, [r2], {139}	; 0x8b
    14b8:	17000000 	strne	r0, [r0, -r0]
    14bc:	000002de 	ldrdeq	r0, [r0], -lr
    14c0:	02018b01 	andeq	r8, r1, #1024	; 0x400
    14c4:	0000002c 	andeq	r0, r0, ip, lsr #32
    14c8:	07211300 	streq	r1, [r1, -r0, lsl #6]!
    14cc:	5f140000 	svcpl	0x00140000
    14d0:	01040075 	tsteq	r4, r5, ror r0
    14d4:	ee02018c 	adfd	f0, f2, #4.0
    14d8:	15000006 	strne	r0, [r0, #-6]
    14dc:	8c010073 	stchi	0, cr0, [r1], {115}	; 0x73
    14e0:	02560201 	subseq	r0, r6, #268435456	; 0x10000000
    14e4:	75150000 	ldrvc	r0, [r5, #-0]
    14e8:	018c0100 	orreq	r0, ip, r0, lsl #2
    14ec:	00002c02 	andeq	r2, r0, r2, lsl #24
    14f0:	78160000 	ldmdavc	r6, {}	; <UNPREDICTABLE>
    14f4:	018c0100 	orreq	r0, ip, r0, lsl #2
    14f8:	0006ca02 	andeq	ip, r6, r2, lsl #20
    14fc:	78651600 	stmdavc	r5!, {r9, sl, ip}^
    1500:	8c010070 	stchi	0, cr0, [r1], {112}	; 0x70
    1504:	002c0201 	eoreq	r0, ip, r1, lsl #4
    1508:	ee170000 	cdp	0, 1, cr0, cr7, cr0, {0}
    150c:	01000003 	tsteq	r0, r3
    1510:	2c02018c 	stfcss	f0, [r2], {140}	; 0x8c
    1514:	17000000 	strne	r0, [r0, -r0]
    1518:	000002de 	ldrdeq	r0, [r0], -lr
    151c:	02018c01 	andeq	r8, r1, #256	; 0x100
    1520:	0000002c 	andeq	r0, r0, ip, lsr #32
    1524:	077d1300 	ldrbeq	r1, [sp, -r0, lsl #6]!
    1528:	5f140000 	svcpl	0x00140000
    152c:	01040075 	tsteq	r4, r5, ror r0
    1530:	4a02018d 	bmi	81b6c <__bss_end__+0x7785c>
    1534:	15000007 	strne	r0, [r0, #-7]
    1538:	8d010073 	stchi	0, cr0, [r1, #-460]	; 0xfffffe34
    153c:	02560201 	subseq	r0, r6, #268435456	; 0x10000000
    1540:	75150000 	ldrvc	r0, [r5, #-0]
    1544:	018d0100 	orreq	r0, sp, r0, lsl #2
    1548:	00002c02 	andeq	r2, r0, r2, lsl #24
    154c:	78160000 	ldmdavc	r6, {}	; <UNPREDICTABLE>
    1550:	018d0100 	orreq	r0, sp, r0, lsl #2
    1554:	00072602 	andeq	r2, r7, r2, lsl #12
    1558:	78651600 	stmdavc	r5!, {r9, sl, ip}^
    155c:	8d010070 	stchi	0, cr0, [r1, #-448]	; 0xfffffe40
    1560:	002c0201 	eoreq	r0, ip, r1, lsl #4
    1564:	ee170000 	cdp	0, 1, cr0, cr7, cr0, {0}
    1568:	01000003 	tsteq	r0, r3
    156c:	2c02018d 	stfcss	f0, [r2], {141}	; 0x8d
    1570:	17000000 	strne	r0, [r0, -r0]
    1574:	000002de 	ldrdeq	r0, [r0], -lr
    1578:	02018d01 	andeq	r8, r1, #64	; 0x40
    157c:	0000002c 	andeq	r0, r0, ip, lsr #32
    1580:	07d91300 	ldrbeq	r1, [r9, r0, lsl #6]
    1584:	5f140000 	svcpl	0x00140000
    1588:	01040075 	tsteq	r4, r5, ror r0
    158c:	a602018e 	strge	r0, [r2], -lr, lsl #3
    1590:	15000007 	strne	r0, [r0, #-7]
    1594:	8e010073 	mcrhi	0, 0, r0, cr1, cr3, {3}
    1598:	02560201 	subseq	r0, r6, #268435456	; 0x10000000
    159c:	75150000 	ldrvc	r0, [r5, #-0]
    15a0:	018e0100 	orreq	r0, lr, r0, lsl #2
    15a4:	00002c02 	andeq	r2, r0, r2, lsl #24
    15a8:	78160000 	ldmdavc	r6, {}	; <UNPREDICTABLE>
    15ac:	018e0100 	orreq	r0, lr, r0, lsl #2
    15b0:	00078202 	andeq	r8, r7, r2, lsl #4
    15b4:	78651600 	stmdavc	r5!, {r9, sl, ip}^
    15b8:	8e010070 	mcrhi	0, 0, r0, cr1, cr0, {3}
    15bc:	002c0201 	eoreq	r0, ip, r1, lsl #4
    15c0:	ee170000 	cdp	0, 1, cr0, cr7, cr0, {0}
    15c4:	01000003 	tsteq	r0, r3
    15c8:	2c02018e 	stfcss	f0, [r2], {142}	; 0x8e
    15cc:	17000000 	strne	r0, [r0, -r0]
    15d0:	000002de 	ldrdeq	r0, [r0], -lr
    15d4:	02018e01 	andeq	r8, r1, #1, 28
    15d8:	0000002c 	andeq	r0, r0, ip, lsr #32
    15dc:	08351300 	ldmdaeq	r5!, {r8, r9, ip}
    15e0:	5f140000 	svcpl	0x00140000
    15e4:	01040075 	tsteq	r4, r5, ror r0
    15e8:	0202018f 	andeq	r0, r2, #-1073741789	; 0xc0000023
    15ec:	15000008 	strne	r0, [r0, #-8]
    15f0:	8f010073 	svchi	0x00010073
    15f4:	02560201 	subseq	r0, r6, #268435456	; 0x10000000
    15f8:	75150000 	ldrvc	r0, [r5, #-0]
    15fc:	018f0100 	orreq	r0, pc, r0, lsl #2
    1600:	00002c02 	andeq	r2, r0, r2, lsl #24
    1604:	78160000 	ldmdavc	r6, {}	; <UNPREDICTABLE>
    1608:	018f0100 	orreq	r0, pc, r0, lsl #2
    160c:	0007de02 	andeq	sp, r7, r2, lsl #28
    1610:	78651600 	stmdavc	r5!, {r9, sl, ip}^
    1614:	8f010070 	svchi	0x00010070
    1618:	002c0201 	eoreq	r0, ip, r1, lsl #4
    161c:	ee170000 	cdp	0, 1, cr0, cr7, cr0, {0}
    1620:	01000003 	tsteq	r0, r3
    1624:	2c02018f 	stfcss	f0, [r2], {143}	; 0x8f
    1628:	17000000 	strne	r0, [r0, -r0]
    162c:	000002de 	ldrdeq	r0, [r0], -lr
    1630:	02018f01 	andeq	r8, r1, #1, 30
    1634:	0000002c 	andeq	r0, r0, ip, lsr #32
    1638:	08911300 	ldmeq	r1, {r8, r9, ip}
    163c:	5f140000 	svcpl	0x00140000
    1640:	01040075 	tsteq	r4, r5, ror r0
    1644:	5e020190 	fltpld	f2, r0
    1648:	15000008 	strne	r0, [r0, #-8]
    164c:	90010073 	andls	r0, r1, r3, ror r0
    1650:	02560201 	subseq	r0, r6, #268435456	; 0x10000000
    1654:	75150000 	ldrvc	r0, [r5, #-0]
    1658:	01900100 	orrseq	r0, r0, r0, lsl #2
    165c:	00002c02 	andeq	r2, r0, r2, lsl #24
    1660:	78160000 	ldmdavc	r6, {}	; <UNPREDICTABLE>
    1664:	01900100 	orrseq	r0, r0, r0, lsl #2
    1668:	00083a02 	andeq	r3, r8, r2, lsl #20
    166c:	78651600 	stmdavc	r5!, {r9, sl, ip}^
    1670:	90010070 	andls	r0, r1, r0, ror r0
    1674:	002c0201 	eoreq	r0, ip, r1, lsl #4
    1678:	ee170000 	cdp	0, 1, cr0, cr7, cr0, {0}
    167c:	01000003 	tsteq	r0, r3
    1680:	2c020190 	stfcss	f0, [r2], {144}	; 0x90
    1684:	17000000 	strne	r0, [r0, -r0]
    1688:	000002de 	ldrdeq	r0, [r0], -lr
    168c:	02019001 	andeq	r9, r1, #1, 0
    1690:	0000002c 	andeq	r0, r0, ip, lsr #32
    1694:	08ed1300 	stmiaeq	sp!, {r8, r9, ip}^
    1698:	5f140000 	svcpl	0x00140000
    169c:	01040075 	tsteq	r4, r5, ror r0
    16a0:	ba020191 	blt	81cec <__bss_end__+0x779dc>
    16a4:	15000008 	strne	r0, [r0, #-8]
    16a8:	91010073 	tstls	r1, r3, ror r0
    16ac:	02560201 	subseq	r0, r6, #268435456	; 0x10000000
    16b0:	75150000 	ldrvc	r0, [r5, #-0]
    16b4:	01910100 	orrseq	r0, r1, r0, lsl #2
    16b8:	00002c02 	andeq	r2, r0, r2, lsl #24
    16bc:	78160000 	ldmdavc	r6, {}	; <UNPREDICTABLE>
    16c0:	01910100 	orrseq	r0, r1, r0, lsl #2
    16c4:	00089602 	andeq	r9, r8, r2, lsl #12
    16c8:	78651600 	stmdavc	r5!, {r9, sl, ip}^
    16cc:	91010070 	tstls	r1, r0, ror r0
    16d0:	002c0201 	eoreq	r0, ip, r1, lsl #4
    16d4:	ee170000 	cdp	0, 1, cr0, cr7, cr0, {0}
    16d8:	01000003 	tsteq	r0, r3
    16dc:	2c020191 	stfcss	f0, [r2], {145}	; 0x91
    16e0:	17000000 	strne	r0, [r0, -r0]
    16e4:	000002de 	ldrdeq	r0, [r0], -lr
    16e8:	02019101 	andeq	r9, r1, #1073741824	; 0x40000000
    16ec:	0000002c 	andeq	r0, r0, ip, lsr #32
    16f0:	5f141800 	svcpl	0x00141800
    16f4:	01040075 	tsteq	r4, r5, ror r0
    16f8:	12020192 	andne	r0, r2, #-2147483612	; 0x80000024
    16fc:	15000009 	strne	r0, [r0, #-9]
    1700:	92010073 	andls	r0, r1, #115, 0	; 0x73
    1704:	02560201 	subseq	r0, r6, #268435456	; 0x10000000
    1708:	75150000 	ldrvc	r0, [r5, #-0]
    170c:	01920100 	orrseq	r0, r2, r0, lsl #2
    1710:	00002c02 	andeq	r2, r0, r2, lsl #24
    1714:	78160000 	ldmdavc	r6, {}	; <UNPREDICTABLE>
    1718:	01920100 	orrseq	r0, r2, r0, lsl #2
    171c:	0008ee02 	andeq	lr, r8, r2, lsl #28
    1720:	78651600 	stmdavc	r5!, {r9, sl, ip}^
    1724:	92010070 	andls	r0, r1, #112, 0	; 0x70
    1728:	002c0201 	eoreq	r0, ip, r1, lsl #4
    172c:	ee170000 	cdp	0, 1, cr0, cr7, cr0, {0}
    1730:	01000003 	tsteq	r0, r3
    1734:	2c020192 	stfcss	f0, [r2], {146}	; 0x92
    1738:	17000000 	strne	r0, [r0, -r0]
    173c:	000002de 	ldrdeq	r0, [r0], -lr
    1740:	02019201 	andeq	r9, r1, #268435456	; 0x10000000
    1744:	0000002c 	andeq	r0, r0, ip, lsr #32
    1748:	8f190000 	svchi	0x00190000
    174c:	56000000 	strpl	r0, [r0], -r0
    1750:	1a000009 	bne	177c <__code_start__-0x6884>
    1754:	0000002c 	andeq	r0, r0, ip, lsr #32
    1758:	4604000c 	strmi	r0, [r4], -ip
    175c:	1b000009 	blne	1788 <__code_start__-0x6878>
    1760:	00000214 	andeq	r0, r0, r4, lsl r2
    1764:	06015101 	streq	r5, [r1], -r1, lsl #2
    1768:	00008854 	andeq	r8, r0, r4, asr r8
    176c:	000000a0 	andeq	r0, r0, r0, lsr #1
    1770:	0ae09c01 	beq	ff82877c <__bss_end__+0xff81e46c>
    1774:	531c0000 	tstpl	ip, #0, 0
    1778:	01004144 	tsteq	r0, r4, asr #2
    177c:	33120159 	tstcc	r2, #1073741846	; 0x40000016
    1780:	02000000 	andeq	r0, r0, #0, 0
    1784:	4c43531c 	mcrrmi	3, 1, r5, r3, cr12
    1788:	015a0100 	cmpeq	sl, r0, lsl #2
    178c:	00003312 	andeq	r3, r0, r2, lsl r3
    1790:	63160300 	tstvs	r6, #0, 6
    1794:	01630100 	cmneq	r3, r0, lsl #2
    1798:	00018c0e 	andeq	r8, r1, lr, lsl #24
    179c:	02581d00 	subseq	r1, r8, #0, 26
    17a0:	0af00000 	beq	ffc017a8 <__bss_end__+0xffbf7498>
    17a4:	03050000 	movweq	r0, #20480	; 0x5000
    17a8:	00009d68 	andeq	r9, r0, r8, ror #26
    17ac:	00887c1e 	addeq	r7, r8, lr, lsl ip
    17b0:	00000000 	andeq	r0, r0, r0
    17b4:	0009e500 	andeq	lr, r9, r0, lsl #10
    17b8:	755f1400 	ldrbvc	r1, [pc, #-1024]	; 13c0 <__code_start__-0x6c40>
    17bc:	63010400 	movwvs	r0, #5120	; 0x1400
    17c0:	09d91201 	ldmibeq	r9, {r0, r9, ip}^
    17c4:	76150000 	ldrvc	r0, [r5], -r0
    17c8:	01630100 	cmneq	r3, r0, lsl #2
    17cc:	00018c12 	andeq	r8, r1, r2, lsl ip
    17d0:	00751500 	rsbseq	r1, r5, r0, lsl #10
    17d4:	12016301 	andne	r6, r1, #67108864	; 0x4000000
    17d8:	0000002c 	andeq	r0, r0, ip, lsr #32
    17dc:	00751600 	rsbseq	r1, r5, r0, lsl #12
    17e0:	12016301 	andne	r6, r1, #67108864	; 0x4000000
    17e4:	000009b5 			; <UNDEFINED> instruction: 0x000009b5
    17e8:	88801e00 	stmhi	r0, {r9, sl, fp, ip}
    17ec:	00000000 	andeq	r0, r0, r0
    17f0:	0a240000 	beq	9017f8 <__bss_end__+0x8f74e8>
    17f4:	5f140000 	svcpl	0x00140000
    17f8:	01040075 	tsteq	r4, r5, ror r0
    17fc:	18030165 	stmdane	r3, {r0, r2, r5, r6, r8}
    1800:	1500000a 	strne	r0, [r0, #-10]
    1804:	01007676 	tsteq	r0, r6, ror r6
    1808:	8c030165 	stfhis	f0, [r3], {101}	; 0x65
    180c:	15000001 	strne	r0, [r0, #-1]
    1810:	01007575 	tsteq	r0, r5, ror r5
    1814:	6e030165 	adfvssz	f0, f3, f5
    1818:	00000000 	andeq	r0, r0, r0
    181c:	01007516 	tsteq	r0, r6, lsl r5
    1820:	f2030165 	vrhadd.s8	q0, <illegal reg q1.5>, <illegal reg q10.5>
    1824:	00000009 	andeq	r0, r0, r9
    1828:	0088601f 	addeq	r6, r8, pc, lsl r0
    182c:	00139100 	andseq	r9, r3, r0, lsl #2
    1830:	886c2000 	stmdahi	ip!, {sp}^
    1834:	139d0000 	orrsne	r0, sp, #0, 0
    1838:	0a450000 	beq	1141840 <__bss_end__+0x1137530>
    183c:	01210000 			; <UNDEFINED> instruction: 0x01210000
    1840:	21320150 	teqcs	r2, r0, asr r1
    1844:	34015101 	strcc	r5, [r1], #-257	; 0xfffffeff
    1848:	88782000 	ldmdahi	r8!, {sp}^
    184c:	139d0000 	orrsne	r0, sp, #0, 0
    1850:	0a5d0000 	beq	1741858 <__bss_end__+0x1737548>
    1854:	01210000 			; <UNDEFINED> instruction: 0x01210000
    1858:	21330150 	teqcs	r3, r0, asr r1
    185c:	34015101 	strcc	r5, [r1], #-257	; 0xfffffeff
    1860:	887c1f00 	ldmdahi	ip!, {r8, r9, sl, fp, ip}^
    1864:	13910000 	orrsne	r0, r1, #0, 0
    1868:	8c200000 	stchi	0, cr0, [r0], #-0
    186c:	a9000088 	stmdbge	r0, {r3, r7}
    1870:	81000013 	tsthi	r0, r3, lsl r0
    1874:	2100000a 	tstcs	r0, sl
    1878:	74025001 	strvc	r5, [r2], #-1
    187c:	51012100 	mrspl	r2, (UNDEF: 17)
    1880:	80000a03 	andhi	r0, r0, r3, lsl #20
    1884:	88901f00 	ldmhi	r0, {r8, r9, sl, fp, ip}
    1888:	13910000 	orrsne	r0, r1, #0, 0
    188c:	941f0000 	ldrls	r0, [pc], #-0	; 1894 <__code_start__-0x676c>
    1890:	ab000088 	blge	1ab8 <__code_start__-0x6548>
    1894:	1f000011 	svcne	0x00000011
    1898:	00008898 	muleq	r0, r8, r8
    189c:	00001391 	muleq	r0, r1, r3
    18a0:	0088d420 	addeq	sp, r8, r0, lsr #8
    18a4:	0013b500 	andseq	fp, r3, r0, lsl #10
    18a8:	000ad600 	andeq	sp, sl, r0, lsl #12
    18ac:	50012100 	andpl	r2, r1, r0, lsl #2
    18b0:	9cb80305 	ldcls	3, cr0, [r8], #20
    18b4:	01210000 			; <UNDEFINED> instruction: 0x01210000
    18b8:	58030551 	stmdapl	r3, {r0, r4, r6, r8, sl}
    18bc:	2100009c 	swpcs	r0, ip, [r0]	; <UNPREDICTABLE>
    18c0:	03055201 	movweq	r5, #20993	; 0x5201
    18c4:	00009d68 	andeq	r9, r0, r8, ror #26
    18c8:	03530121 	cmpeq	r3, #1073741832	; 0x40000008
    18cc:	21016e0a 	tstcs	r1, sl, lsl #28
    18d0:	05007d02 	streq	r7, [r0, #-3330]	; 0xfffff2fe
    18d4:	009ccc03 	addseq	ip, ip, r3, lsl #24
    18d8:	d81f0000 	ldmdale	pc, {}	; <UNPREDICTABLE>
    18dc:	c1000088 	smlabbgt	r0, r8, r0, r0
    18e0:	00000013 	andeq	r0, r0, r3, lsl r0
    18e4:	00008f19 	andeq	r8, r0, r9, lsl pc
    18e8:	000af000 	andeq	pc, sl, r0
    18ec:	002c1a00 	eoreq	r1, ip, r0, lsl #20
    18f0:	00080000 	andeq	r0, r8, r0
    18f4:	000ae004 	andeq	lr, sl, r4
    18f8:	054f1b00 	strbeq	r1, [pc, #-2816]	; e00 <__code_start__-0x7200>
    18fc:	47010000 	strmi	r0, [r1, -r0]
    1900:	88f40601 	ldmhi	r4!, {r0, r9, sl}^
    1904:	00180000 	andseq	r0, r8, r0
    1908:	9c010000 	stcls	0, cr0, [r1], {-0}
    190c:	00000b1f 	andeq	r0, r0, pc, lsl fp
    1910:	0088fc1f 	addeq	pc, r8, pc, lsl ip	; <UNPREDICTABLE>
    1914:	000b1f00 	andeq	r1, fp, r0, lsl #30
    1918:	89081f00 	stmdbhi	r8, {r8, r9, sl, fp, ip}
    191c:	095b0000 	ldmdbeq	fp, {}^	; <UNPREDICTABLE>
    1920:	22000000 	andcs	r0, r0, #0, 0
    1924:	00000502 	andeq	r0, r0, r2, lsl #10
    1928:	05014401 	streq	r4, [r1, #-1025]	; 0xfffffbff
    192c:	00000025 	andeq	r0, r0, r5, lsr #32
    1930:	00008844 	andeq	r8, r0, r4, asr #16
    1934:	00000010 	andeq	r0, r0, r0, lsl r0
    1938:	a3239c01 			; <UNDEFINED> instruction: 0xa3239c01
    193c:	01000002 	tsteq	r0, r2
    1940:	25050131 	strcs	r0, [r5, #-305]	; 0xfffffecf
    1944:	88000000 	stmdahi	r0, {}	; <UNPREDICTABLE>
    1948:	bc000087 	stclt	0, cr0, [r0], {135}	; 0x87
    194c:	01000000 	mrseq	r0, (UNDEF: 0)
    1950:	000c5c9c 	muleq	ip, ip, ip
    1954:	01012400 	tsteq	r1, r0, lsl #8
    1958:	31010000 	mrscc	r0, (UNDEF: 1)
    195c:	002c1701 	eoreq	r1, ip, r1, lsl #14
    1960:	05670000 	strbeq	r0, [r7, #-0]!
    1964:	05630000 	strbeq	r0, [r3, #-0]!
    1968:	84240000 	strthi	r0, [r4], #-0
    196c:	01000000 	mrseq	r0, (UNDEF: 0)
    1970:	5c250131 	stfpls	f0, [r5], #-196	; 0xffffff3c
    1974:	8c00000c 	stchi	0, cr0, [r0], {12}
    1978:	88000005 	stmdahi	r0, {r0, r2}
    197c:	24000005 	strcs	r0, [r0], #-5
    1980:	000004f4 	strdeq	r0, [r0], -r4
    1984:	36013101 	strcc	r3, [r1], -r1, lsl #2
    1988:	0000002c 	andeq	r0, r0, ip, lsr #32
    198c:	000005ae 	andeq	r0, r0, lr, lsr #11
    1990:	000005aa 	andeq	r0, r0, sl, lsr #11
    1994:	0002581d 	andeq	r5, r2, sp, lsl r8
    1998:	000af000 	andeq	pc, sl, r0
    199c:	5c030500 	cfstr32pl	mvfx0, [r3], {-0}
    19a0:	1e00009d 	mcrne	0, 0, r0, cr0, cr13, {4}
    19a4:	000087a0 	andeq	r8, r0, r0, lsr #15
    19a8:	00000080 	andeq	r0, r0, r0, lsl #1
    19ac:	00000c32 	andeq	r0, r0, r2, lsr ip
    19b0:	01006925 	tsteq	r0, r5, lsr #18
    19b4:	2c0f0135 	stfcss	f0, [pc], {53}	; 0x35
    19b8:	d4000000 	strle	r0, [r0], #-0
    19bc:	cc000005 	stcgt	0, cr0, [r0], {5}
    19c0:	20000005 	andcs	r0, r0, r5
    19c4:	000087bc 			; <UNDEFINED> instruction: 0x000087bc
    19c8:	000013b5 			; <UNDEFINED> instruction: 0x000013b5
    19cc:	00000bef 	andeq	r0, r0, pc, ror #23
    19d0:	05500121 	ldrbeq	r0, [r0, #-289]	; 0xfffffedf
    19d4:	009c6403 	addseq	r6, ip, r3, lsl #8
    19d8:	51012100 	mrspl	r2, (UNDEF: 17)
    19dc:	9c580305 	mrrcls	3, 0, r0, r8, cr5
    19e0:	01210000 			; <UNDEFINED> instruction: 0x01210000
    19e4:	5c030552 	cfstr32pl	mvfx0, [r3], {82}	; 0x52
    19e8:	2100009d 	swpcs	r0, sp, [r0]	; <UNPREDICTABLE>
    19ec:	0a035301 	beq	d65f8 <__bss_end__+0xcc2e8>
    19f0:	1f000137 	svcne	0x00000137
    19f4:	000087c0 	andeq	r8, r0, r0, asr #15
    19f8:	000013c1 	andeq	r1, r0, r1, asr #7
    19fc:	00881c20 	addeq	r1, r8, r0, lsr #24
    1a00:	0013b500 	andseq	fp, r3, r0, lsl #10
    1a04:	000c2800 	andeq	r2, ip, r0, lsl #16
    1a08:	50012100 	andpl	r2, r1, r0, lsl #2
    1a0c:	9c880305 	stcls	3, cr0, [r8], {5}
    1a10:	01210000 			; <UNDEFINED> instruction: 0x01210000
    1a14:	58030551 	stmdapl	r3, {r0, r4, r6, r8, sl}
    1a18:	2100009c 	swpcs	r0, ip, [r0]	; <UNPREDICTABLE>
    1a1c:	03055201 	movweq	r5, #20993	; 0x5201
    1a20:	00009d5c 	andeq	r9, r0, ip, asr sp
    1a24:	03530121 	cmpeq	r3, #1073741832	; 0x40000008
    1a28:	0001370a 	andeq	r3, r1, sl, lsl #14
    1a2c:	0088201f 	addeq	r2, r8, pc, lsl r0
    1a30:	0013c100 	andseq	ip, r3, r0, lsl #2
    1a34:	a0200000 	eorge	r0, r0, r0
    1a38:	c5000087 	strgt	r0, [r0, #-135]	; 0xffffff79
    1a3c:	5200000e 	andpl	r0, r0, #14, 0
    1a40:	2100000c 	tstcs	r0, ip
    1a44:	f3035001 	vhadd.u8	d5, d3, d1
    1a48:	01215001 			; <UNDEFINED> instruction: 0x01215001
    1a4c:	00740251 	rsbseq	r0, r4, r1, asr r2
    1a50:	01520121 	cmpeq	r2, r1, lsr #2
    1a54:	241f0031 	ldrcs	r0, [pc], #-49	; 1a5c <__code_start__-0x65a4>
    1a58:	9d000088 	stcls	0, cr0, [r0, #-544]	; 0xfffffde0
    1a5c:	0000000d 	andeq	r0, r0, sp
    1a60:	0054040f 	subseq	r0, r4, pc, lsl #8
    1a64:	e9230000 	stmdb	r3!, {}	; <UNPREDICTABLE>
    1a68:	01000001 	tsteq	r0, r1
    1a6c:	25050121 	strcs	r0, [r5, #-289]	; 0xfffffedf
    1a70:	cc000000 	stcgt	0, cr0, [r0], {-0}
    1a74:	bc000086 	stclt	0, cr0, [r0], {134}	; 0x86
    1a78:	01000000 	mrseq	r0, (UNDEF: 0)
    1a7c:	000d889c 	muleq	sp, ip, r8
    1a80:	01012400 	tsteq	r1, r0, lsl #8
    1a84:	21010000 	mrscs	r0, (UNDEF: 1)
    1a88:	002c1801 	eoreq	r1, ip, r1, lsl #16
    1a8c:	060d0000 	streq	r0, [sp], -r0
    1a90:	06090000 	streq	r0, [r9], -r0
    1a94:	84240000 	strthi	r0, [r4], #-0
    1a98:	01000000 	mrseq	r0, (UNDEF: 0)
    1a9c:	5c260121 	stfpls	f0, [r6], #-132	; 0xffffff7c
    1aa0:	3200000c 	andcc	r0, r0, #12, 0
    1aa4:	2e000006 	cdpcs	0, 0, cr0, cr0, cr6, {0}
    1aa8:	24000006 	strcs	r0, [r0], #-6
    1aac:	000004f4 	strdeq	r0, [r0], -r4
    1ab0:	37012101 	strcc	r2, [r1, -r1, lsl #2]
    1ab4:	0000002c 	andeq	r0, r0, ip, lsr #32
    1ab8:	00000654 	andeq	r0, r0, r4, asr r6
    1abc:	00000650 	andeq	r0, r0, r0, asr r6
    1ac0:	0002581d 	andeq	r5, r2, sp, lsl r8
    1ac4:	000d9800 	andeq	r9, sp, r0, lsl #16
    1ac8:	50030500 	andpl	r0, r3, r0, lsl #10
    1acc:	1e00009d 	mcrne	0, 0, r0, cr0, cr13, {4}
    1ad0:	000086e4 	andeq	r8, r0, r4, ror #13
    1ad4:	00000080 	andeq	r0, r0, r0, lsl #1
    1ad8:	00000d5e 	andeq	r0, r0, lr, asr sp
    1adc:	01006925 	tsteq	r0, r5, lsr #18
    1ae0:	2c0f0124 	stfcss	f0, [pc], {36}	; 0x24
    1ae4:	7a000000 	bvc	1aec <__code_start__-0x6514>
    1ae8:	72000006 	andvc	r0, r0, #6, 0
    1aec:	20000006 	andcs	r0, r0, r6
    1af0:	00008700 	andeq	r8, r0, r0, lsl #14
    1af4:	000013b5 			; <UNDEFINED> instruction: 0x000013b5
    1af8:	00000d1b 	andeq	r0, r0, fp, lsl sp
    1afc:	05500121 	ldrbeq	r0, [r0, #-289]	; 0xfffffedf
    1b00:	009c6403 	addseq	r6, ip, r3, lsl #8
    1b04:	51012100 	mrspl	r2, (UNDEF: 17)
    1b08:	9c580305 	mrrcls	3, 0, r0, r8, cr5
    1b0c:	01210000 			; <UNDEFINED> instruction: 0x01210000
    1b10:	50030552 	andpl	r0, r3, r2, asr r5
    1b14:	2100009d 	swpcs	r0, sp, [r0]	; <UNPREDICTABLE>
    1b18:	0a035301 	beq	d6724 <__bss_end__+0xcc414>
    1b1c:	1f000126 	svcne	0x00000126
    1b20:	00008704 	andeq	r8, r0, r4, lsl #14
    1b24:	000013c1 	andeq	r1, r0, r1, asr #7
    1b28:	00876020 	addeq	r6, r7, r0, lsr #32
    1b2c:	0013b500 	andseq	fp, r3, r0, lsl #10
    1b30:	000d5400 	andeq	r5, sp, r0, lsl #8
    1b34:	50012100 	andpl	r2, r1, r0, lsl #2
    1b38:	9c880305 	stcls	3, cr0, [r8], {5}
    1b3c:	01210000 			; <UNDEFINED> instruction: 0x01210000
    1b40:	58030551 	stmdapl	r3, {r0, r4, r6, r8, sl}
    1b44:	2100009c 	swpcs	r0, ip, [r0]	; <UNPREDICTABLE>
    1b48:	03055201 	movweq	r5, #20993	; 0x5201
    1b4c:	00009d50 	andeq	r9, r0, r0, asr sp
    1b50:	03530121 	cmpeq	r3, #1073741832	; 0x40000008
    1b54:	0001260a 	andeq	r2, r1, sl, lsl #12
    1b58:	0087641f 	addeq	r6, r7, pc, lsl r4
    1b5c:	0013c100 	andseq	ip, r3, r0, lsl #2
    1b60:	e4200000 	strt	r0, [r0], #-0
    1b64:	c5000086 	strgt	r0, [r0, #-134]	; 0xffffff7a
    1b68:	7e00000e 	cdpvc	0, 0, cr0, cr0, cr14, {0}
    1b6c:	2100000d 	tstcs	r0, sp
    1b70:	f3035001 	vhadd.u8	d5, d3, d1
    1b74:	01215001 			; <UNDEFINED> instruction: 0x01215001
    1b78:	00740251 	rsbseq	r0, r4, r1, asr r2
    1b7c:	01520121 	cmpeq	r2, r1, lsr #2
    1b80:	681f0030 	ldmdavs	pc, {r4, r5}	; <UNPREDICTABLE>
    1b84:	9d000087 	stcls	0, cr0, [r0, #-540]	; 0xfffffde4
    1b88:	0000000d 	andeq	r0, r0, sp
    1b8c:	00008f19 	andeq	r8, r0, r9, lsl pc
    1b90:	000d9800 	andeq	r9, sp, r0, lsl #16
    1b94:	002c1a00 	eoreq	r1, ip, r0, lsl #20
    1b98:	00090000 	andeq	r0, r9, r0
    1b9c:	000d8804 	andeq	r8, sp, r4, lsl #16
    1ba0:	053f2600 	ldreq	r2, [pc, #-1536]!	; 15a8 <__code_start__-0x6a58>
    1ba4:	14010000 	strne	r0, [r1], #-0
    1ba8:	83b00d01 	movshi	r0, #64	; 0x40
    1bac:	01000000 	mrseq	r0, (UNDEF: 0)
    1bb0:	9c010000 	stcls	0, cr0, [r1], {-0}
    1bb4:	00000ec5 	andeq	r0, r0, r5, asr #29
    1bb8:	0002581d 	andeq	r5, r2, sp, lsl r8
    1bbc:	000af000 	andeq	pc, sl, r0
    1bc0:	38030500 	stmdacc	r3, {r8, sl}
    1bc4:	2000009d 	mulcs	r0, sp, r0
    1bc8:	000083fc 	strdeq	r8, [r0], -ip
    1bcc:	000013b5 			; <UNDEFINED> instruction: 0x000013b5
    1bd0:	00000df3 	strdeq	r0, [r0], -r3
    1bd4:	05500121 	ldrbeq	r0, [r0, #-289]	; 0xfffffedf
    1bd8:	009c8803 	addseq	r8, ip, r3, lsl #16
    1bdc:	51012100 	mrspl	r2, (UNDEF: 17)
    1be0:	9c580305 	mrrcls	3, 0, r0, r8, cr5
    1be4:	01210000 			; <UNDEFINED> instruction: 0x01210000
    1be8:	38030552 	stmdacc	r3, {r1, r4, r6, r8, sl}
    1bec:	2100009d 	swpcs	r0, sp, [r0]	; <UNPREDICTABLE>
    1bf0:	0a035301 	beq	d67fc <__bss_end__+0xcc4ec>
    1bf4:	1f000116 	svcne	0x00000116
    1bf8:	00008400 	andeq	r8, r0, r0, lsl #8
    1bfc:	000013c1 	andeq	r1, r0, r1, asr #7
    1c00:	00841420 	addeq	r1, r4, r0, lsr #8
    1c04:	0013b500 	andseq	fp, r3, r0, lsl #10
    1c08:	000e2c00 	andeq	r2, lr, r0, lsl #24
    1c0c:	50012100 	andpl	r2, r1, r0, lsl #2
    1c10:	9c640305 	stclls	3, cr0, [r4], #-20	; 0xffffffec
    1c14:	01210000 			; <UNDEFINED> instruction: 0x01210000
    1c18:	58030551 	stmdapl	r3, {r0, r4, r6, r8, sl}
    1c1c:	2100009c 	swpcs	r0, ip, [r0]	; <UNPREDICTABLE>
    1c20:	03055201 	movweq	r5, #20993	; 0x5201
    1c24:	00009d38 	andeq	r9, r0, r8, lsr sp
    1c28:	03530121 	cmpeq	r3, #1073741832	; 0x40000008
    1c2c:	0001160a 	andeq	r1, r1, sl, lsl #12
    1c30:	0084181f 	addeq	r1, r4, pc, lsl r8
    1c34:	0013c100 	andseq	ip, r3, r0, lsl #2
    1c38:	843c1f00 	ldrthi	r1, [ip], #-3840	; 0xfffff100
    1c3c:	13910000 	orrsne	r0, r1, #0, 0
    1c40:	60200000 	eorvs	r0, r0, r0
    1c44:	b5000084 	strlt	r0, [r0, #-132]	; 0xffffff7c
    1c48:	78000013 	stmdavc	r0, {r0, r1, r4}
    1c4c:	2100000e 	tstcs	r0, lr
    1c50:	03055001 	movweq	r5, #20481	; 0x5001
    1c54:	00009cb8 			; <UNDEFINED> instruction: 0x00009cb8
    1c58:	05510121 	ldrbeq	r0, [r1, #-289]	; 0xfffffedf
    1c5c:	009c5803 	addseq	r5, ip, r3, lsl #16
    1c60:	52012100 	andpl	r2, r1, #0
    1c64:	9d380305 	ldcls	3, cr0, [r8, #-20]!	; 0xffffffec
    1c68:	01210000 			; <UNDEFINED> instruction: 0x01210000
    1c6c:	190a0353 	stmdbne	sl, {r0, r1, r4, r6, r8, r9}
    1c70:	7d022101 	stfvcs	f2, [r2, #-4]
    1c74:	cc030500 	cfstr32gt	mvfx0, [r3], {-0}
    1c78:	0000009c 	muleq	r0, ip, r0
    1c7c:	0084641f 	addeq	r6, r4, pc, lsl r4
    1c80:	0013c100 	andseq	ip, r3, r0, lsl #2
    1c84:	84802000 	strhi	r2, [r0], #0
    1c88:	13b50000 			; <UNDEFINED> instruction: 0x13b50000
    1c8c:	0ebb0000 	cdpeq	0, 11, cr0, cr11, cr0, {0}
    1c90:	01210000 			; <UNDEFINED> instruction: 0x01210000
    1c94:	b8030550 	stmdalt	r3, {r4, r6, r8, sl}
    1c98:	2100009c 	swpcs	r0, ip, [r0]	; <UNPREDICTABLE>
    1c9c:	03055101 	movweq	r5, #20737	; 0x5101
    1ca0:	00009c58 	andeq	r9, r0, r8, asr ip
    1ca4:	05520121 	ldrbeq	r0, [r2, #-289]	; 0xfffffedf
    1ca8:	009d3803 	addseq	r3, sp, r3, lsl #16
    1cac:	53012100 	movwpl	r2, #4352	; 0x1100
    1cb0:	011b0a03 	tsteq	fp, r3, lsl #20
    1cb4:	007d0221 	rsbseq	r0, sp, r1, lsr #4
    1cb8:	9ce00305 	stclls	3, cr0, [r0], #20
    1cbc:	1f000000 	svcne	0x00000000
    1cc0:	00008484 	andeq	r8, r0, r4, lsl #9
    1cc4:	000013c1 	andeq	r1, r0, r1, asr #7
    1cc8:	051c2700 	ldreq	r2, [ip, #-1792]	; 0xfffff900
    1ccc:	f2010000 	vhadd.s8	d0, d1, d0
    1cd0:	0084f80d 	addeq	pc, r4, sp, lsl #16
    1cd4:	0001d400 	andeq	sp, r1, r0, lsl #8
    1cd8:	969c0100 	ldrls	r0, [ip], r0, lsl #2
    1cdc:	28000011 	stmdacs	r0, {r0, r4}
    1ce0:	00000101 	andeq	r0, r0, r1, lsl #2
    1ce4:	2c21f201 	sfmcs	f7, 1, [r1], #-4
    1ce8:	b5000000 	strlt	r0, [r0, #-0]
    1cec:	af000006 	svcge	0x00000006
    1cf0:	28000006 	stmdacs	r0, {r1, r2}
    1cf4:	000004f4 	strdeq	r0, [r0], -r4
    1cf8:	2c30f201 	lfmcs	f7, 1, [r0], #-4
    1cfc:	eb000000 	bl	1d04 <__code_start__-0x62fc>
    1d00:	e1000006 	tst	r0, r6
    1d04:	28000006 	stmdacs	r0, {r1, r2}
    1d08:	00000515 	andeq	r0, r0, r5, lsl r5
    1d0c:	253cf201 	ldrcs	pc, [ip, #-513]!	; 0xfffffdff
    1d10:	36000000 	strcc	r0, [r0], -r0
    1d14:	30000007 	andcc	r0, r0, r7
    1d18:	1d000007 	stcne	0, cr0, [r0, #-28]	; 0xffffffe4
    1d1c:	00000258 	andeq	r0, r0, r8, asr r2
    1d20:	000011a6 	andeq	r1, r0, r6, lsr #3
    1d24:	9d440305 	stclls	3, cr0, [r4, #-20]	; 0xffffffec
    1d28:	63250000 			; <UNDEFINED> instruction: 0x63250000
    1d2c:	01050100 	mrseq	r0, (UNDEF: 21)
    1d30:	00018c0d 	andeq	r8, r1, sp, lsl #24
    1d34:	00076400 	andeq	r6, r7, r0, lsl #8
    1d38:	00076200 	andeq	r6, r7, r0, lsl #4
    1d3c:	85c41e00 	strbhi	r1, [r4, #3584]	; 0xe00
    1d40:	00000000 	andeq	r0, r0, r0
    1d44:	0f780000 	svceq	0x00780000
    1d48:	5f140000 	svcpl	0x00140000
    1d4c:	01040075 	tsteq	r4, r5, ror r0
    1d50:	6c020109 	stfvss	f0, [r2], {9}
    1d54:	1500000f 	strne	r0, [r0, #-15]
    1d58:	01007676 	tsteq	r0, r6, ror r6
    1d5c:	8c020109 	stfhis	f0, [r2], {9}
    1d60:	15000001 	strne	r0, [r0, #-1]
    1d64:	01007575 	tsteq	r0, r5, ror r5
    1d68:	6e020109 	adfvss	f0, f2, #1.0
    1d6c:	00000000 	andeq	r0, r0, r0
    1d70:	01007516 	tsteq	r0, r6, lsl r5
    1d74:	46020109 	strmi	r0, [r2], -r9, lsl #2
    1d78:	0000000f 	andeq	r0, r0, pc
    1d7c:	0085101f 	addeq	r1, r5, pc, lsl r0
    1d80:	00139100 	andseq	r9, r3, r0, lsl #2
    1d84:	85542000 	ldrbhi	r2, [r4, #-0]
    1d88:	13b50000 			; <UNDEFINED> instruction: 0x13b50000
    1d8c:	0fb00000 	svceq	0x00b00000
    1d90:	01210000 			; <UNDEFINED> instruction: 0x01210000
    1d94:	88030550 	stmdahi	r3, {r4, r6, r8, sl}
    1d98:	2100009c 	swpcs	r0, ip, [r0]	; <UNPREDICTABLE>
    1d9c:	03055101 	movweq	r5, #20737	; 0x5101
    1da0:	00009c58 	andeq	r9, r0, r8, asr ip
    1da4:	05520121 	ldrbeq	r0, [r2, #-289]	; 0xfffffedf
    1da8:	009d4403 	addseq	r4, sp, r3, lsl #8
    1dac:	53012100 	movwpl	r2, #4352	; 0x1100
    1db0:	00f60802 	rscseq	r0, r6, r2, lsl #16
    1db4:	0085581f 	addeq	r5, r5, pc, lsl r8
    1db8:	0013c100 	andseq	ip, r3, r0, lsl #2
    1dbc:	856c2000 	strbhi	r2, [ip, #-0]!
    1dc0:	13b50000 			; <UNDEFINED> instruction: 0x13b50000
    1dc4:	0fe80000 	svceq	0x00e80000
    1dc8:	01210000 			; <UNDEFINED> instruction: 0x01210000
    1dcc:	64030550 	strvs	r0, [r3], #-1360	; 0xfffffab0
    1dd0:	2100009c 	swpcs	r0, ip, [r0]	; <UNPREDICTABLE>
    1dd4:	03055101 	movweq	r5, #20737	; 0x5101
    1dd8:	00009c58 	andeq	r9, r0, r8, asr ip
    1ddc:	05520121 	ldrbeq	r0, [r2, #-289]	; 0xfffffedf
    1de0:	009d4403 	addseq	r4, sp, r3, lsl #8
    1de4:	53012100 	movwpl	r2, #4352	; 0x1100
    1de8:	00f60802 	rscseq	r0, r6, r2, lsl #16
    1dec:	0085701f 	addeq	r7, r5, pc, lsl r0
    1df0:	0013c100 	andseq	ip, r3, r0, lsl #2
    1df4:	85841f00 	strhi	r1, [r4, #3840]	; 0xf00
    1df8:	11ab0000 			; <UNDEFINED> instruction: 0x11ab0000
    1dfc:	98200000 	stmdals	r0!, {}	; <UNPREDICTABLE>
    1e00:	a9000085 	stmdbge	r0, {r0, r2, r7}
    1e04:	17000013 	smladne	r0, r3, r0, r0
    1e08:	21000010 	tstcs	r0, r0, lsl r0
    1e0c:	0c055001 	stceq	0, cr5, [r5], {1}
    1e10:	2080400c 	addcs	r4, r0, ip
    1e14:	02510121 	subseq	r0, r1, #1073741832	; 0x40000008
    1e18:	20000076 	andcs	r0, r0, r6, ror r0
    1e1c:	000085ac 	andeq	r8, r0, ip, lsr #11
    1e20:	000013a9 	andeq	r1, r0, r9, lsr #7
    1e24:	00001034 	andeq	r1, r0, r4, lsr r0
    1e28:	05500121 	ldrbeq	r0, [r0, #-289]	; 0xfffffedf
    1e2c:	8040080c 	subhi	r0, r0, ip, lsl #16
    1e30:	51012120 	tstpl	r1, r0, lsr #2
    1e34:	00007502 	andeq	r7, r0, r2, lsl #10
    1e38:	0085b820 	addeq	fp, r5, r0, lsr #16
    1e3c:	0012de00 	andseq	sp, r2, r0, lsl #28
    1e40:	00104800 	andseq	r4, r0, r0, lsl #16
    1e44:	50012100 	andpl	r2, r1, r0, lsl #2
    1e48:	00007502 	andeq	r7, r0, r2, lsl #10
    1e4c:	0085d020 	addeq	sp, r5, r0, lsr #32
    1e50:	0013a900 	andseq	sl, r3, r0, lsl #18
    1e54:	00105c00 	andseq	r5, r0, r0, lsl #24
    1e58:	50012100 	andpl	r2, r1, r0, lsl #2
    1e5c:	00007502 	andeq	r7, r0, r2, lsl #10
    1e60:	00861420 	addeq	r1, r6, r0, lsr #8
    1e64:	0013b500 	andseq	fp, r3, r0, lsl #10
    1e68:	00108c00 	andseq	r8, r0, r0, lsl #24
    1e6c:	50012100 	andpl	r2, r1, r0, lsl #2
    1e70:	9c880305 	stcls	3, cr0, [r8], {5}
    1e74:	01210000 			; <UNDEFINED> instruction: 0x01210000
    1e78:	58030551 	stmdapl	r3, {r0, r4, r6, r8, sl}
    1e7c:	2100009c 	swpcs	r0, ip, [r0]	; <UNPREDICTABLE>
    1e80:	03055201 	movweq	r5, #20993	; 0x5201
    1e84:	00009d44 	andeq	r9, r0, r4, asr #26
    1e88:	03530121 	cmpeq	r3, #1073741832	; 0x40000008
    1e8c:	0001110a 	andeq	r1, r1, sl, lsl #2
    1e90:	0086181f 	addeq	r1, r6, pc, lsl r8
    1e94:	0013c100 	andseq	ip, r3, r0, lsl #2
    1e98:	86342000 	ldrthi	r2, [r4], -r0
    1e9c:	13b50000 			; <UNDEFINED> instruction: 0x13b50000
    1ea0:	10ce0000 	sbcne	r0, lr, r0
    1ea4:	01210000 			; <UNDEFINED> instruction: 0x01210000
    1ea8:	b8030550 	stmdalt	r3, {r4, r6, r8, sl}
    1eac:	2100009c 	swpcs	r0, ip, [r0]	; <UNPREDICTABLE>
    1eb0:	03055101 	movweq	r5, #20737	; 0x5101
    1eb4:	00009c58 	andeq	r9, r0, r8, asr ip
    1eb8:	05520121 	ldrbeq	r0, [r2, #-289]	; 0xfffffedf
    1ebc:	009d4403 	addseq	r4, sp, r3, lsl #8
    1ec0:	53012100 	movwpl	r2, #4352	; 0x1100
    1ec4:	21f90802 	mvnscs	r0, r2, lsl #16
    1ec8:	05007d02 	streq	r7, [r0, #-3330]	; 0xfffff2fe
    1ecc:	009cf403 	addseq	pc, ip, r3, lsl #8
    1ed0:	381f0000 	ldmdacc	pc, {}	; <UNPREDICTABLE>
    1ed4:	c1000086 	smlabbgt	r0, r6, r0, r0
    1ed8:	20000013 	andcs	r0, r0, r3, lsl r0
    1edc:	00008654 	andeq	r8, r0, r4, asr r6
    1ee0:	000013b5 			; <UNDEFINED> instruction: 0x000013b5
    1ee4:	00001110 	andeq	r1, r0, r0, lsl r1
    1ee8:	05500121 	ldrbeq	r0, [r0, #-289]	; 0xfffffedf
    1eec:	009cb803 	addseq	fp, ip, r3, lsl #16
    1ef0:	51012100 	mrspl	r2, (UNDEF: 17)
    1ef4:	9c580305 	mrrcls	3, 0, r0, r8, cr5
    1ef8:	01210000 			; <UNDEFINED> instruction: 0x01210000
    1efc:	44030552 	strmi	r0, [r3], #-1362	; 0xfffffaae
    1f00:	2100009d 	swpcs	r0, sp, [r0]	; <UNPREDICTABLE>
    1f04:	08025301 	stmdaeq	r2, {r0, r8, r9, ip, lr}
    1f08:	7d0221fe 	stfvcs	f2, [r2, #-1016]	; 0xfffffc08
    1f0c:	0c030500 	cfstr32eq	mvfx0, [r3], {-0}
    1f10:	0000009d 	muleq	r0, sp, r0
    1f14:	0086581f 	addeq	r5, r6, pc, lsl r8
    1f18:	0013c100 	andseq	ip, r3, r0, lsl #2
    1f1c:	86742000 	ldrbthi	r2, [r4], -r0
    1f20:	13b50000 			; <UNDEFINED> instruction: 0x13b50000
    1f24:	11530000 	cmpne	r3, r0
    1f28:	01210000 			; <UNDEFINED> instruction: 0x01210000
    1f2c:	b8030550 	stmdalt	r3, {r4, r6, r8, sl}
    1f30:	2100009c 	swpcs	r0, ip, [r0]	; <UNPREDICTABLE>
    1f34:	03055101 	movweq	r5, #20737	; 0x5101
    1f38:	00009c58 	andeq	r9, r0, r8, asr ip
    1f3c:	05520121 	ldrbeq	r0, [r2, #-289]	; 0xfffffedf
    1f40:	009d4403 	addseq	r4, sp, r3, lsl #8
    1f44:	53012100 	movwpl	r2, #4352	; 0x1100
    1f48:	01020a03 	tsteq	r2, r3, lsl #20
    1f4c:	007d0221 	rsbseq	r0, sp, r1, lsr #4
    1f50:	9d200305 	stcls	3, cr0, [r0, #-20]!	; 0xffffffec
    1f54:	1f000000 	svcne	0x00000000
    1f58:	00008678 	andeq	r8, r0, r8, ror r6
    1f5c:	000013c1 	andeq	r1, r0, r1, asr #7
    1f60:	00868c20 	addeq	r8, r6, r0, lsr #24
    1f64:	0013b500 	andseq	fp, r3, r0, lsl #10
    1f68:	00118c00 	andseq	r8, r1, r0, lsl #24
    1f6c:	50012100 	andpl	r2, r1, r0, lsl #2
    1f70:	9c640305 	stclls	3, cr0, [r4], #-20	; 0xffffffec
    1f74:	01210000 			; <UNDEFINED> instruction: 0x01210000
    1f78:	58030551 	stmdapl	r3, {r0, r4, r6, r8, sl}
    1f7c:	2100009c 	swpcs	r0, ip, [r0]	; <UNPREDICTABLE>
    1f80:	03055201 	movweq	r5, #20993	; 0x5201
    1f84:	00009d44 	andeq	r9, r0, r4, asr #26
    1f88:	03530121 	cmpeq	r3, #1073741832	; 0x40000008
    1f8c:	0001110a 	andeq	r1, r1, sl, lsl #2
    1f90:	0086901f 	addeq	r9, r6, pc, lsl r0
    1f94:	0013c100 	andseq	ip, r3, r0, lsl #2
    1f98:	8f190000 	svchi	0x00190000
    1f9c:	a6000000 	strge	r0, [r0], -r0
    1fa0:	1a000011 	bne	1fec <__code_start__-0x6014>
    1fa4:	0000002c 	andeq	r0, r0, ip, lsr #32
    1fa8:	9604000a 	strls	r0, [r4], -sl
    1fac:	27000011 	smladcs	r0, r1, r0, r0
    1fb0:	00000585 	andeq	r0, r0, r5, lsl #11
    1fb4:	c00de701 	andgt	lr, sp, r1, lsl #14
    1fb8:	28000084 	stmdacs	r0, {r2, r7}
    1fbc:	01000000 	mrseq	r0, (UNDEF: 0)
    1fc0:	00122b9c 	mulseq	r2, ip, fp
    1fc4:	00730e00 	rsbseq	r0, r3, r0, lsl #28
    1fc8:	560de801 	strpl	lr, [sp], -r1, lsl #16
    1fcc:	1e000002 	cdpne	0, 0, cr0, cr0, cr2, {0}
    1fd0:	000084d0 	ldrdeq	r8, [r0], -r0
    1fd4:	00000000 	andeq	r0, r0, r0
    1fd8:	00001206 	andeq	r1, r0, r6, lsl #4
    1fdc:	00755f29 	rsbseq	r5, r5, r9, lsr #30
    1fe0:	02ef0104 	rsceq	r0, pc, #1
    1fe4:	000011fb 	strdeq	r1, [r0], -fp
    1fe8:	0076762a 	rsbseq	r7, r6, sl, lsr #12
    1fec:	5602ef01 	strpl	lr, [r2], -r1, lsl #30
    1ff0:	2a000002 	bcs	2000 <__code_start__-0x6000>
    1ff4:	01007575 	tsteq	r0, r5, ror r5
    1ff8:	006e02ef 	rsbeq	r0, lr, pc, ror #5
    1ffc:	0e000000 	cdpeq	0, 0, cr0, cr0, cr0, {0}
    2000:	ef010075 	svc	0x00010075
    2004:	0011d802 	andseq	sp, r1, r2, lsl #16
    2008:	d0200000 	eorle	r0, r0, r0
    200c:	2b000084 	blcs	2224 <__code_start__-0x5ddc>
    2010:	1a000012 	bne	2060 <__code_start__-0x5fa0>
    2014:	21000012 	tstcs	r0, r2, lsl r0
    2018:	74025001 	strvc	r5, [r2], #-1
    201c:	e02b0000 	eor	r0, fp, r0
    2020:	a9000084 	stmdbge	r0, {r2, r7}
    2024:	21000013 	tstcs	r0, r3, lsl r0
    2028:	74025001 	strvc	r5, [r2], #-1
    202c:	2c000000 	stccs	0, cr0, [r0], {-0}
    2030:	000004fb 	strdeq	r0, [r0], -fp
    2034:	5613b801 	ldrpl	fp, [r3], -r1, lsl #16
    2038:	b0000002 	andlt	r0, r0, r2
    203c:	10000084 	andne	r0, r0, r4, lsl #1
    2040:	01000000 	mrseq	r0, (UNDEF: 0)
    2044:	0012ab9c 	mulseq	r2, ip, fp
    2048:	00732d00 	rsbseq	r2, r3, r0, lsl #26
    204c:	ab2fb801 	blge	bf0058 <__bss_end__+0xbe5d48>
    2050:	7b000012 	blvc	20a0 <__code_start__-0x5f60>
    2054:	77000007 	strvc	r0, [r0, -r7]
    2058:	1e000007 	cdpne	0, 0, cr0, cr0, cr7, {0}
    205c:	000084b4 			; <UNDEFINED> instruction: 0x000084b4
    2060:	00000004 	andeq	r0, r0, r4
    2064:	000012a1 	andeq	r1, r0, r1, lsr #5
    2068:	00755f29 	rsbseq	r5, r5, r9, lsr #30
    206c:	11b90104 			; <UNDEFINED> instruction: 0x11b90104
    2070:	00001285 	andeq	r1, r0, r5, lsl #5
    2074:	0100762a 	tsteq	r0, sl, lsr #12
    2078:	026211b9 	rsbeq	r1, r2, #1073741870	; 0x4000002e
    207c:	752a0000 	strvc	r0, [sl, #-0]!
    2080:	11b90100 			; <UNDEFINED> instruction: 0x11b90100
    2084:	0000002c 	andeq	r0, r0, ip, lsr #32
    2088:	00750e00 	rsbseq	r0, r5, r0, lsl #28
    208c:	6411b901 	ldrvs	fp, [r1], #-2305	; 0xfffff6ff
    2090:	2b000012 	blcs	20e0 <__code_start__-0x5f20>
    2094:	000084b8 			; <UNDEFINED> instruction: 0x000084b8
    2098:	000013cd 	andeq	r1, r0, sp, asr #7
    209c:	03500121 	cmpeq	r0, #1073741832	; 0x40000008
    20a0:	005001f3 	ldrsheq	r0, [r0], #-19	; 0xffffffed
    20a4:	84bc1f00 	ldrthi	r1, [ip], #3840	; 0xf00
    20a8:	12b10000 	adcsne	r0, r1, #0, 0
    20ac:	0f000000 	svceq	0x00000000
    20b0:	00026204 	andeq	r6, r2, r4, lsl #4
    20b4:	036b2c00 	cmneq	fp, #0, 24
    20b8:	b4010000 	strlt	r0, [r1], #-0
    20bc:	00025613 	andeq	r5, r2, r3, lsl r6
    20c0:	0083a400 	addeq	sl, r3, r0, lsl #8
    20c4:	00000c00 	andeq	r0, r0, r0, lsl #24
    20c8:	de9c0100 	fmllee	f0, f4, f0
    20cc:	2d000012 	stccs	0, cr0, [r0, #-72]	; 0xffffffb8
    20d0:	b4010073 	strlt	r0, [r1], #-115	; 0xffffff8d
    20d4:	00025626 	andeq	r5, r2, r6, lsr #12
    20d8:	00079e00 	andeq	r9, r7, r0, lsl #28
    20dc:	00079c00 	andeq	r9, r7, r0, lsl #24
    20e0:	482c0000 	stmdami	ip!, {}	; <UNPREDICTABLE>
    20e4:	01000005 	tsteq	r0, r5
    20e8:	018c137e 	orreq	r1, ip, lr, ror r3
    20ec:	84e80000 	strbthi	r0, [r8], #0
    20f0:	00100000 	andseq	r0, r0, r0
    20f4:	9c010000 	stcls	0, cr0, [r1], {-0}
    20f8:	0000135e 	andeq	r1, r0, lr, asr r3
    20fc:	0100632d 	tsteq	r0, sp, lsr #6
    2100:	135e2f7e 	cmpne	lr, #504	; 0x1f8
    2104:	07b50000 	ldreq	r0, [r5, r0]!
    2108:	07b10000 	ldreq	r0, [r1, r0]!
    210c:	ec1e0000 	ldc	0, cr0, [lr], {-0}
    2110:	04000084 	streq	r0, [r0], #-132	; 0xffffff7c
    2114:	54000000 	strpl	r0, [r0], #-0
    2118:	29000013 	stmdbcs	r0, {r0, r1, r4}
    211c:	0400755f 	streq	r7, [r0], #-1375	; 0xfffffaa1
    2120:	38117f01 	ldmdacc	r1, {r0, r8, r9, sl, fp, ip, sp, lr}
    2124:	2a000013 	bcs	2178 <__code_start__-0x5e88>
    2128:	7f010076 	svcvc	0x00010076
    212c:	00019811 	andeq	r9, r1, r1, lsl r8
    2130:	00752a00 	rsbseq	r2, r5, r0, lsl #20
    2134:	2c117f01 	ldccs	15, cr7, [r1], {1}
    2138:	00000000 	andeq	r0, r0, r0
    213c:	0100750e 	tsteq	r0, lr, lsl #10
    2140:	1317117f 	tstne	r7, #-1073741793	; 0xc000001f
    2144:	f02b0000 			; <UNDEFINED> instruction: 0xf02b0000
    2148:	cd000084 	stcgt	0, cr0, [r0, #-528]	; 0xfffffdf0
    214c:	21000013 	tstcs	r0, r3, lsl r0
    2150:	f3035001 	vhadd.u8	d5, d3, d1
    2154:	00005001 	andeq	r5, r0, r1
    2158:	0084f41f 	addeq	pc, r4, pc, lsl r4	; <UNPREDICTABLE>
    215c:	00136400 	andseq	r6, r3, r0, lsl #8
    2160:	040f0000 	streq	r0, [pc], #-0	; 2168 <__code_start__-0x5e98>
    2164:	00000198 	muleq	r0, r8, r1
    2168:	0003522c 	andeq	r5, r3, ip, lsr #4
    216c:	13770100 	cmnne	r7, #0
    2170:	0000018c 	andeq	r0, r0, ip, lsl #3
    2174:	00008394 	muleq	r0, r4, r3
    2178:	00000010 	andeq	r0, r0, r0, lsl r0
    217c:	13919c01 	orrsne	r9, r1, #256	; 0x100
    2180:	632d0000 			; <UNDEFINED> instruction: 0x632d0000
    2184:	26770100 	ldrbtcs	r0, [r7], -r0, lsl #2
    2188:	0000018c 	andeq	r0, r0, ip, lsl #3
    218c:	000007da 	ldrdeq	r0, [r0], -sl
    2190:	000007d6 	ldrdeq	r0, [r0], -r6
    2194:	04d42e00 	ldrbeq	r2, [r4], #3584	; 0xe00
    2198:	04d40000 	ldrbeq	r0, [r4], #0
    219c:	93030000 	movwls	r0, #12288	; 0x3000
    21a0:	052d2e06 	streq	r2, [sp, #-3590]!	; 0xfffff1fa
    21a4:	052d0000 	streq	r0, [sp, #-0]!
    21a8:	19040000 	stmdbne	r4, {}	; <UNPREDICTABLE>
    21ac:	03dd2e06 	bicseq	r2, sp, #96	; 0x60
    21b0:	03dd0000 	bicseq	r0, sp, #0, 0
    21b4:	a5030000 	strge	r0, [r3, #-0]
    21b8:	07232e06 	streq	r2, [r3, -r6, lsl #28]!
    21bc:	07230000 	streq	r0, [r3, -r0]!
    21c0:	28030000 	stmdacs	r3, {}	; <UNPREDICTABLE>
    21c4:	00302e06 	eorseq	r2, r0, r6, lsl #28
    21c8:	00300000 	eorseq	r0, r0, r0
    21cc:	67030000 	strvs	r0, [r3, -r0]
    21d0:	04e02e06 	strbteq	r2, [r0], #3590	; 0xe06
    21d4:	04e00000 	strbteq	r0, [r0], #0
    21d8:	b1030000 	mrslt	r0, (UNDEF: 3)
    21dc:	0673000b 	ldrbteq	r0, [r3], -fp
    21e0:	00040000 	andeq	r0, r4, r0
    21e4:	0000067a 	andeq	r0, r0, sl, ror r6
    21e8:	060e0104 	streq	r0, [lr], -r4, lsl #2
    21ec:	d30c0000 	movwle	r0, #49152	; 0xc000
    21f0:	e8000005 	stmda	r0, {r0, r2}
    21f4:	0c000006 	stceq	0, cr0, [r0], {6}
    21f8:	98000089 	stmdals	r0, {r0, r3, r7}
    21fc:	6e000001 	cdpvs	0, 0, cr0, cr0, cr1, {0}
    2200:	0200000a 	andeq	r0, r0, #10, 0
    2204:	00920708 	addseq	r0, r2, r8, lsl #14
    2208:	04020000 	streq	r0, [r2], #-0
    220c:	00009c07 	andeq	r9, r0, r7, lsl #24
    2210:	05040300 	streq	r0, [r4, #-768]	; 0xfffffd00
    2214:	00746e69 	rsbseq	r6, r4, r9, ror #28
    2218:	00002c04 	andeq	r2, r0, r4, lsl #24
    221c:	06010200 	streq	r0, [r1], -r0, lsl #4
    2220:	00000024 	andeq	r0, r0, r4, lsr #32
    2224:	c3050202 	movwgt	r0, #20994	; 0x5202
    2228:	02000000 	andeq	r0, r0, #0, 0
    222c:	00ae0504 	adceq	r0, lr, r4, lsl #10
    2230:	08020000 	stmdaeq	r2, {}	; <UNPREDICTABLE>
    2234:	0000a905 	andeq	sl, r0, r5, lsl #18
    2238:	08010200 	stmdaeq	r1, {r9}
    223c:	00000022 	andeq	r0, r0, r2, lsr #32
    2240:	3d070202 	sfmcc	f0, 4, [r7, #-8]
    2244:	05000000 	streq	r0, [r0, #-0]
    2248:	000002ac 	andeq	r0, r0, ip, lsr #5
    224c:	75193403 	ldrvc	r3, [r9, #-1027]	; 0xfffffbfd
    2250:	02000000 	andeq	r0, r0, #0, 0
    2254:	00970704 	addseq	r0, r7, r4, lsl #14
    2258:	33060000 	movwcc	r0, #24576	; 0x6000
    225c:	8b000000 	blhi	2264 <__code_start__-0x5d9c>
    2260:	07000000 	streq	r0, [r0, -r0]
    2264:	00000033 	andeq	r0, r0, r3, lsr r0
    2268:	00b70800 	adcseq	r0, r7, r0, lsl #16
    226c:	1c020000 	stcne	0, cr0, [r2], {-0}
    2270:	0000970e 	andeq	r9, r0, lr, lsl #14
    2274:	7c040900 			; <UNDEFINED> instruction: 0x7c040900
    2278:	06000000 	streq	r0, [r0], -r0
    227c:	00000033 	andeq	r0, r0, r3, lsr r0
    2280:	000000ac 	andeq	r0, r0, ip, lsr #1
    2284:	0000ac07 	andeq	sl, r0, r7, lsl #24
    2288:	04090000 	streq	r0, [r9], #-0
    228c:	000000b9 	strheq	r0, [r0], -r9
    2290:	2b080102 	blcs	2026a0 <__bss_end__+0x1f8390>
    2294:	04000000 	streq	r0, [r0], #-0
    2298:	000000b2 	strheq	r0, [r0], -r2
    229c:	00079a08 	andeq	r9, r7, r8, lsl #20
    22a0:	0e210200 	cdpeq	2, 2, cr0, cr1, cr0, {0}
    22a4:	000000ca 	andeq	r0, r0, sl, asr #1
    22a8:	009d0409 	addseq	r0, sp, r9, lsl #8
    22ac:	070a0000 	streq	r0, [sl, -r0]
    22b0:	00005b01 	andeq	r5, r0, r1, lsl #22
    22b4:	0e0c0400 	cfcpyseq	mvf0, mvf12
    22b8:	0000010f 	andeq	r0, r0, pc, lsl #2
    22bc:	0004090b 	andeq	r0, r4, fp, lsl #18
    22c0:	5a0b0000 	bpl	2c22c8 <__bss_end__+0x2b7fb8>
    22c4:	01000003 	tsteq	r0, r3
    22c8:	0003730b 	andeq	r7, r3, fp, lsl #6
    22cc:	820b0400 	andhi	r0, fp, #0, 8
    22d0:	05000003 	streq	r0, [r0, #-3]
    22d4:	0003910b 	andeq	r9, r3, fp, lsl #2
    22d8:	a00b0600 	andge	r0, fp, r0, lsl #12
    22dc:	07000003 	streq	r0, [r0, -r3]
    22e0:	0003af0b 	andeq	sl, r3, fp, lsl #30
    22e4:	be0b0300 	cdplt	3, 0, cr0, cr11, cr0, {0}
    22e8:	02000003 	andeq	r0, r0, #3, 0
    22ec:	06020500 	streq	r0, [r2], -r0, lsl #10
    22f0:	15040000 	strne	r0, [r4, #-0]
    22f4:	0000d003 	andeq	sp, r0, r3
    22f8:	05a80c00 	streq	r0, [r8, #3072]!	; 0xc00
    22fc:	1d010000 	stcne	0, cr0, [r1, #-0]
    2300:	00003a17 	andeq	r3, r0, r7, lsl sl
    2304:	20001c00 	andcs	r1, r0, r0, lsl #24
    2308:	059e0c20 	ldreq	r0, [lr, #3104]	; 0xc20
    230c:	1e010000 	cdpne	0, 0, cr0, cr1, cr0, {0}
    2310:	00003a17 	andeq	r3, r0, r7, lsl sl
    2314:	20002800 	andcs	r2, r0, r0, lsl #16
    2318:	06de0c20 	ldrbeq	r0, [lr], r0, lsr #24
    231c:	1f010000 	svcne	0x00010000
    2320:	00003a17 	andeq	r3, r0, r7, lsl sl
    2324:	20003400 	andcs	r3, r0, r0, lsl #8
    2328:	020a0d20 	andeq	r0, sl, #32, 26	; 0x800
    232c:	51010000 	mrspl	r0, (UNDEF: 1)
    2330:	00003305 	andeq	r3, r0, r5, lsl #6
    2334:	008a7c00 	addeq	r7, sl, r0, lsl #24
    2338:	00002800 	andeq	r2, r0, r0, lsl #16
    233c:	ba9c0100 	blt	fe702744 <__bss_end__+0xfe6f8434>
    2340:	0e000001 	cdpeq	0, 0, cr0, cr0, cr1, {0}
    2344:	006e6970 	rsbeq	r6, lr, r0, ror r9
    2348:	2c185101 	ldfcss	f5, [r8], {1}
    234c:	fe000000 	cdp2	0, 0, cr0, cr0, cr0, {0}
    2350:	f8000007 			; <UNDEFINED> instruction: 0xf8000007
    2354:	0f000007 	svceq	0x00000007
    2358:	0000070a 	andeq	r0, r0, sl, lsl #14
    235c:	2c0e5201 	sfmcs	f5, 4, [lr], {1}
    2360:	34000000 	strcc	r0, [r0], #-0
    2364:	2a000008 	bcs	238c <__code_start__-0x5c74>
    2368:	10000008 	andne	r0, r0, r8
    236c:	0066666f 	rsbeq	r6, r6, pc, ror #12
    2370:	2c0e5301 	stccs	3, cr5, [lr], {1}
    2374:	a2000000 	andge	r0, r0, #0, 0
    2378:	9c000008 	stcls	0, cr0, [r0], {8}
    237c:	11000008 	tstne	r0, r8
    2380:	00008a90 	muleq	r0, r0, sl
    2384:	0000065e 	andeq	r0, r0, lr, asr r6
    2388:	0a500112 	beq	14027d8 <__bss_end__+0x13f84c8>
    238c:	25350074 	ldrcs	r0, [r5, #-116]!	; 0xffffff8c
    2390:	8080b423 	addhi	fp, r0, r3, lsr #8
    2394:	00000281 	andeq	r0, r0, r1, lsl #5
    2398:	0005b213 	andeq	fp, r5, r3, lsl r2
    239c:	064a0100 	strbeq	r0, [sl], -r0, lsl #2
    23a0:	00008a4c 	andeq	r8, r0, ip, asr #20
    23a4:	00000030 	andeq	r0, r0, r0, lsr r0
    23a8:	02759c01 	rsbseq	r9, r5, #256	; 0x100
    23ac:	700e0000 	andvc	r0, lr, r0
    23b0:	01006e69 	tsteq	r0, r9, ror #28
    23b4:	002c1a4a 	eoreq	r1, ip, sl, asr #20
    23b8:	08df0000 	ldmeq	pc, {}^	; <UNPREDICTABLE>
    23bc:	08d30000 	ldmeq	r3, {}^	; <UNPREDICTABLE>
    23c0:	760e0000 	strvc	r0, [lr], -r0
    23c4:	284a0100 	stmdacs	sl, {r8}^
    23c8:	0000002c 	andeq	r0, r0, ip, lsr #32
    23cc:	00000933 	andeq	r0, r0, r3, lsr r9
    23d0:	0000092f 	andeq	r0, r0, pc, lsr #18
    23d4:	00038d14 	andeq	r8, r3, r4, lsl sp
    23d8:	008a5c00 	addeq	r5, sl, r0, lsl #24
    23dc:	01680100 	cmneq	r8, r0, lsl #2
    23e0:	4c010000 	stcmi	0, cr0, [r1], {-0}
    23e4:	00023509 	andeq	r3, r2, r9, lsl #10
    23e8:	039a1500 	orrseq	r1, sl, #0, 10
    23ec:	095a0000 	ldmdbeq	sl, {}^	; <UNPREDICTABLE>
    23f0:	09540000 	ldmdbeq	r4, {}^	; <UNPREDICTABLE>
    23f4:	68160000 	ldmdavs	r6, {}	; <UNPREDICTABLE>
    23f8:	6a00008a 	bvs	2628 <__code_start__-0x59d8>
    23fc:	12000006 	andne	r0, r0, #6, 0
    2400:	0c055001 	stceq	0, cr5, [r5], {1}
    2404:	2020001c 	eorcs	r0, r0, ip, lsl r0
    2408:	05510112 	ldrbeq	r0, [r1, #-274]	; 0xfffffeee
    240c:	5001f331 	andpl	pc, r1, r1, lsr r3	; <UNPREDICTABLE>
    2410:	17000024 	strne	r0, [r0, -r4, lsr #32]
    2414:	00000373 	andeq	r0, r0, r3, ror r3
    2418:	00008a68 	andeq	r8, r0, r8, ror #20
    241c:	008a6802 	addeq	r6, sl, r2, lsl #16
    2420:	00001400 	andeq	r1, r0, r0, lsl #8
    2424:	094e0100 	stmdbeq	lr, {r8}^
    2428:	00038015 	andeq	r8, r3, r5, lsl r0
    242c:	00098c00 	andeq	r8, r9, r0, lsl #24
    2430:	00098600 	andeq	r8, r9, r0, lsl #12
    2434:	8a741600 	bhi	1d07c3c <__bss_end__+0x1cfd92c>
    2438:	066a0000 	strbteq	r0, [sl], -r0
    243c:	01120000 	tsteq	r2, r0
    2440:	280c0550 	stmdacs	ip, {r4, r6, r8, sl}
    2444:	12202000 	eorne	r2, r0, #0, 0
    2448:	31055101 	tstcc	r5, r1, lsl #2
    244c:	245001f3 	ldrbcs	r0, [r0], #-499	; 0xfffffe0d
    2450:	13000000 	movwne	r0, #0
    2454:	0000023e 	andeq	r0, r0, lr, lsr r2
    2458:	f4064501 	vst3.8	{d4,d6,d8}, [r6], r1
    245c:	58000089 	stmdapl	r0, {r0, r3, r7}
    2460:	01000000 	mrseq	r0, (UNDEF: 0)
    2464:	0003739c 	muleq	r3, ip, r3
    2468:	69700e00 	ldmdbvs	r0!, {r9, sl, fp}^
    246c:	4501006e 	strmi	r0, [r1, #-110]	; 0xffffff92
    2470:	00002c1e 	andeq	r2, r0, lr, lsl ip
    2474:	0009be00 	andeq	fp, r9, r0, lsl #28
    2478:	0009b800 	andeq	fp, r9, r0, lsl #16
    247c:	04a51800 	strteq	r1, [r5], #2048	; 0x800
    2480:	89f40000 	ldmibhi	r4!, {}^	; <UNPREDICTABLE>
    2484:	28020000 	stmdacs	r2, {}	; <UNPREDICTABLE>
    2488:	01000001 	tsteq	r0, r1
    248c:	be190546 	cfmac32lt	mvfx0, mvfx9, mvfx6
    2490:	00000004 	andeq	r0, r0, r4
    2494:	0004b215 	andeq	fp, r4, r5, lsl r2
    2498:	0009f000 	andeq	pc, r9, r0
    249c:	0009ea00 	andeq	lr, r9, r0, lsl #20
    24a0:	01281a00 			; <UNDEFINED> instruction: 0x01281a00
    24a4:	ca1b0000 	bgt	6c24ac <__bss_end__+0x6b819c>
    24a8:	1b000004 	blne	24c0 <__code_start__-0x5b40>
    24ac:	000004d6 	ldrdeq	r0, [r0], -r6
    24b0:	0004e01b 	andeq	lr, r4, fp, lsl r0
    24b4:	04a51800 	strteq	r1, [r5], #2048	; 0x800
    24b8:	89fc0000 	ldmibhi	ip!, {}^	; <UNPREDICTABLE>
    24bc:	48000000 	stmdami	r0, {}	; <UNPREDICTABLE>
    24c0:	01000001 	tsteq	r0, r1
    24c4:	be190628 	cfmsub32lt	mvax1, mvfx0, mvfx9, mvfx8
    24c8:	00000004 	andeq	r0, r0, r4
    24cc:	0004b215 	andeq	fp, r4, r5, lsl r2
    24d0:	000a2200 	andeq	r2, sl, r0, lsl #4
    24d4:	000a1c00 	andeq	r1, sl, r0, lsl #24
    24d8:	01481a00 	cmpeq	r8, r0, lsl #20
    24dc:	ca1c0000 	bgt	7024e4 <__bss_end__+0x6f81d4>
    24e0:	54000004 	strpl	r0, [r0], #-4
    24e4:	4e00000a 	cdpmi	0, 0, cr0, cr0, cr10, {0}
    24e8:	1c00000a 	stcne	0, cr0, [r0], {10}
    24ec:	000004d6 	ldrdeq	r0, [r0], -r6
    24f0:	00000a96 	muleq	r0, r6, sl
    24f4:	00000a90 	muleq	r0, r0, sl
    24f8:	0004e01c 	andeq	lr, r4, ip, lsl r0
    24fc:	000aec00 	andeq	lr, sl, r0, lsl #24
    2500:	000ae400 	andeq	lr, sl, r0, lsl #8
    2504:	8a241d00 	bhi	90990c <__bss_end__+0x8ff5fc>
    2508:	065e0000 	ldrbeq	r0, [lr], -r0
    250c:	033b0000 	teqeq	fp, #0, 0
    2510:	01120000 	tsteq	r2, r0
    2514:	00760250 	rsbseq	r0, r6, r0, asr r2
    2518:	8a481600 	bhi	1207d20 <__bss_end__+0x11fda10>
    251c:	066a0000 	strbteq	r0, [sl], -r0
    2520:	01120000 	tsteq	r2, r0
    2524:	01f32550 	mvnseq	r2, r0, asr r5
    2528:	f72cf750 			; <UNDEFINED> instruction: 0xf72cf750
    252c:	0825f425 	stmdaeq	r5!, {r0, r2, r5, sl, ip, sp, lr, pc}
    2530:	cccccccd 	stclgt	12, cr12, [ip], {205}	; 0xcd
    2534:	00000000 	andeq	r0, r0, r0
    2538:	f720081e 			; <UNDEFINED> instruction: 0xf720081e
    253c:	2cf72525 	cfldr64cs	mvdx2, [r7], #148	; 0x94
    2540:	253300f7 	ldrcs	r0, [r3, #-247]!	; 0xffffff09
    2544:	a0808023 	addge	r8, r0, r3, lsr #32
    2548:	00243240 	eoreq	r3, r4, r0, asr #4
    254c:	00000000 	andeq	r0, r0, r0
    2550:	05e01e00 	strbeq	r1, [r0, #3584]!	; 0xe00
    2554:	40010000 	andmi	r0, r1, r0
    2558:	038d030d 	orreq	r0, sp, #872415232	; 0x34000000
    255c:	701f0000 	andsvc	r0, pc, r0
    2560:	01006e69 	tsteq	r0, r9, ror #28
    2564:	002c2340 	eoreq	r2, ip, r0, asr #6
    2568:	1e000000 	cdpne	0, 0, cr0, cr0, cr0, {0}
    256c:	0000070f 	andeq	r0, r0, pc, lsl #14
    2570:	030d3b01 	movweq	r3, #56065	; 0xdb01
    2574:	000003a7 	andeq	r0, r0, r7, lsr #7
    2578:	6e69701f 	mcrvs	0, 3, r7, cr9, cr15, {0}
    257c:	223b0100 	eorscs	r0, fp, #0
    2580:	0000002c 	andeq	r0, r0, ip, lsr #32
    2584:	05ed1300 	strbeq	r1, [sp, #768]!	; 0x300
    2588:	36010000 	strcc	r0, [r1], -r0
    258c:	00896c06 	addeq	r6, r9, r6, lsl #24
    2590:	00005800 	andeq	r5, r0, r0, lsl #16
    2594:	a59c0100 	ldrge	r0, [ip, #256]	; 0x100
    2598:	0e000004 	cdpeq	0, 0, cr0, cr0, cr4, {0}
    259c:	006e6970 	rsbeq	r6, lr, r0, ror r9
    25a0:	2c1f3601 	ldccs	6, cr3, [pc], {1}
    25a4:	4a000000 	bmi	25ac <__code_start__-0x5a54>
    25a8:	4600000b 	strmi	r0, [r0], -fp
    25ac:	1800000b 	stmdane	r0, {r0, r1, r3}
    25b0:	000004a5 	andeq	r0, r0, r5, lsr #9
    25b4:	0000896c 	andeq	r8, r0, ip, ror #18
    25b8:	0000e802 	andeq	lr, r0, r2, lsl #16
    25bc:	05370100 	ldreq	r0, [r7, #-256]!	; 0xffffff00
    25c0:	0004be19 	andeq	fp, r4, r9, lsl lr
    25c4:	b2150100 	andslt	r0, r5, #0
    25c8:	6f000004 	svcvs	0x00000004
    25cc:	6b00000b 	blvs	2600 <__code_start__-0x5a00>
    25d0:	1a00000b 	bne	2604 <__code_start__-0x59fc>
    25d4:	000000e8 	andeq	r0, r0, r8, ror #1
    25d8:	0004ca1b 	andeq	ip, r4, fp, lsl sl
    25dc:	04d61b00 	ldrbeq	r1, [r6], #2816	; 0xb00
    25e0:	e01b0000 	ands	r0, fp, r0
    25e4:	18000004 	stmdane	r0, {r2}
    25e8:	000004a5 	andeq	r0, r0, r5, lsr #9
    25ec:	00008974 	andeq	r8, r0, r4, ror r9
    25f0:	00010800 	andeq	r0, r1, r0, lsl #16
    25f4:	06280100 	strteq	r0, [r8], -r0, lsl #2
    25f8:	0004be19 	andeq	fp, r4, r9, lsl lr
    25fc:	b2150100 	andslt	r0, r5, #0
    2600:	94000004 	strls	r0, [r0], #-4
    2604:	9000000b 	andls	r0, r0, fp
    2608:	1a00000b 	bne	263c <__code_start__-0x59c4>
    260c:	00000108 	andeq	r0, r0, r8, lsl #2
    2610:	0004ca1c 	andeq	ip, r4, ip, lsl sl
    2614:	000bb900 	andeq	fp, fp, r0, lsl #18
    2618:	000bb500 	andeq	fp, fp, r0, lsl #10
    261c:	04d61c00 	ldrbeq	r1, [r6], #3072	; 0xc00
    2620:	0c050000 	stceq	0, cr0, [r5], {-0}
    2624:	0bff0000 	bleq	fffc262c <__bss_end__+0xfffb831c>
    2628:	e01c0000 	ands	r0, ip, r0
    262c:	5b000004 	blpl	2644 <__code_start__-0x59bc>
    2630:	5300000c 	movwpl	r0, #12
    2634:	1d00000c 	stcne	0, cr0, [r0, #-48]	; 0xffffffd0
    2638:	000089a0 	andeq	r8, r0, r0, lsr #19
    263c:	0000065e 	andeq	r0, r0, lr, asr r6
    2640:	0000046d 	andeq	r0, r0, sp, ror #8
    2644:	02500112 	subseq	r0, r0, #-2147483644	; 0x80000004
    2648:	16000075 			; <UNDEFINED> instruction: 0x16000075
    264c:	000089c0 	andeq	r8, r0, r0, asr #19
    2650:	0000066a 	andeq	r0, r0, sl, ror #12
    2654:	25500112 	ldrbcs	r0, [r0, #-274]	; 0xfffffeee
    2658:	f75001f3 			; <UNDEFINED> instruction: 0xf75001f3
    265c:	f425f72c 	vld1.8	{d15}, [r5 :128], ip
    2660:	cccd0825 	stclgt	8, cr0, [sp], {37}	; 0x25
    2664:	0000cccc 	andeq	ip, r0, ip, asr #25
    2668:	081e0000 	ldmdaeq	lr, {}	; <UNPREDICTABLE>
    266c:	2525f720 	strcs	pc, [r5, #-1824]!	; 0xfffff8e0
    2670:	00f72cf7 	ldrshteq	r2, [r7], #199	; 0xc7
    2674:	80232533 	eorhi	r2, r3, r3, lsr r5
    2678:	3240a080 	subcc	sl, r0, #128, 0	; 0x80
    267c:	00000024 	andeq	r0, r0, r4, lsr #32
    2680:	1e000000 	cdpne	0, 0, cr0, cr0, cr0, {0}
    2684:	0000052d 	andeq	r0, r0, sp, lsr #10
    2688:	01062801 	tsteq	r6, r1, lsl #16
    268c:	000004eb 	andeq	r0, r0, fp, ror #9
    2690:	6e69701f 	mcrvs	0, 3, r7, cr9, cr15, {0}
    2694:	21280100 			; <UNDEFINED> instruction: 0x21280100
    2698:	0000002c 	andeq	r0, r0, ip, lsr #32
    269c:	0005fd20 	andeq	pc, r5, r0, lsr #26
    26a0:	32280100 	eorcc	r0, r8, #0
    26a4:	0000010f 	andeq	r0, r0, pc, lsl #2
    26a8:	66666f21 	strbtvs	r6, [r6], -r1, lsr #30
    26ac:	0e2d0100 	sufeqe	f0, f5, f0
    26b0:	0000002c 	andeq	r0, r0, ip, lsr #32
    26b4:	01006721 	tsteq	r0, r1, lsr #14
    26b8:	002c0e2e 	eoreq	r0, ip, lr, lsr #28
    26bc:	76210000 	strtvc	r0, [r1], -r0
    26c0:	0e300100 	rsfeqs	f0, f0, f0
    26c4:	0000002c 	andeq	r0, r0, ip, lsr #32
    26c8:	05bd2200 	ldreq	r2, [sp, #512]!	; 0x200
    26cc:	b6020000 	strlt	r0, [r2], -r0
    26d0:	00006918 	andeq	r6, r0, r8, lsl r9
    26d4:	05070300 	streq	r0, [r7, #-768]	; 0xfffffd00
    26d8:	781f0000 	ldmdavc	pc, {}	; <UNPREDICTABLE>
    26dc:	2bb60200 	blcs	fed82ee4 <__bss_end__+0xfed78bd4>
    26e0:	00000069 	andeq	r0, r0, r9, rrx
    26e4:	04a52300 	strteq	r2, [r5], #768	; 0x300
    26e8:	890c0000 	stmdbhi	ip, {}	; <UNPREDICTABLE>
    26ec:	00600000 	rsbeq	r0, r0, r0
    26f0:	9c010000 	stcls	0, cr0, [r1], {-0}
    26f4:	000005e4 	andeq	r0, r0, r4, ror #11
    26f8:	0004b215 	andeq	fp, r4, r5, lsl r2
    26fc:	000c9a00 	andeq	r9, ip, r0, lsl #20
    2700:	000c9600 	andeq	r9, ip, r0, lsl #12
    2704:	04be1500 	ldrteq	r1, [lr], #1280	; 0x500
    2708:	0cbf0000 	ldceq	0, cr0, [pc]	; 2710 <__code_start__-0x58f0>
    270c:	0cbb0000 	ldceq	0, cr0, [fp]
    2710:	ca1b0000 	bgt	6c2718 <__bss_end__+0x6b8408>
    2714:	1b000004 	blne	272c <__code_start__-0x58d4>
    2718:	000004d6 	ldrdeq	r0, [r0], -r6
    271c:	0004e01b 	andeq	lr, r4, fp, lsl r0
    2720:	04a51800 	strteq	r1, [r5], #2048	; 0x800
    2724:	89140000 	ldmdbhi	r4, {}	; <UNPREDICTABLE>
    2728:	c8000000 	stmdagt	r0, {}	; <UNPREDICTABLE>
    272c:	01000000 	mrseq	r0, (UNDEF: 0)
    2730:	be150628 	cfmsub32lt	mvax1, mvfx0, mvfx5, mvfx8
    2734:	e4000004 	str	r0, [r0], #-4
    2738:	e000000c 	and	r0, r0, ip
    273c:	1500000c 	strne	r0, [r0, #-12]
    2740:	000004b2 			; <UNDEFINED> instruction: 0x000004b2
    2744:	00000d09 	andeq	r0, r0, r9, lsl #26
    2748:	00000d05 	andeq	r0, r0, r5, lsl #26
    274c:	0000c81a 	andeq	ip, r0, sl, lsl r8
    2750:	04ca1c00 	strbeq	r1, [sl], #3072	; 0xc00
    2754:	0d2e0000 	stceq	0, cr0, [lr, #-0]
    2758:	0d2a0000 	stceq	0, cr0, [sl, #-0]
    275c:	d61c0000 	ldrle	r0, [ip], -r0
    2760:	7a000004 	bvc	2778 <__code_start__-0x5888>
    2764:	7400000d 	strvc	r0, [r0], #-13
    2768:	1c00000d 	stcne	0, cr0, [r0], {13}
    276c:	000004e0 	andeq	r0, r0, r0, ror #9
    2770:	00000dd0 	ldrdeq	r0, [r0], -r0	; <UNPREDICTABLE>
    2774:	00000dc8 	andeq	r0, r0, r8, asr #27
    2778:	00894c1d 	addeq	r4, r9, sp, lsl ip
    277c:	00065e00 	andeq	r5, r6, r0, lsl #28
    2780:	0005ae00 	andeq	sl, r5, r0, lsl #28
    2784:	50011200 	andpl	r1, r1, r0, lsl #4
    2788:	00007602 	andeq	r7, r0, r2, lsl #12
    278c:	00896816 	addeq	r6, r9, r6, lsl r8
    2790:	00066a00 	andeq	r6, r6, r0, lsl #20
    2794:	50011200 	andpl	r1, r1, r0, lsl #4
    2798:	5001f325 	andpl	pc, r1, r5, lsr #6
    279c:	25f72cf7 	ldrbcs	r2, [r7, #3319]!	; 0xcf7
    27a0:	cd0825f4 	cfstr32gt	mvfx2, [r8, #-976]	; 0xfffffc30
    27a4:	00cccccc 	sbceq	ip, ip, ip, asr #25
    27a8:	1e000000 	cdpne	0, 0, cr0, cr0, cr0, {0}
    27ac:	25f72008 	ldrbcs	r2, [r7, #8]!
    27b0:	f72cf725 			; <UNDEFINED> instruction: 0xf72cf725
    27b4:	23253300 			; <UNDEFINED> instruction: 0x23253300
    27b8:	40a08080 	adcmi	r8, r0, r0, lsl #1
    27bc:	00002432 	andeq	r2, r0, r2, lsr r4
    27c0:	8d230000 	stchi	0, cr0, [r3, #-0]
    27c4:	c4000003 	strgt	r0, [r0], #-3
    27c8:	18000089 	stmdane	r0, {r0, r3, r7}
    27cc:	01000000 	mrseq	r0, (UNDEF: 0)
    27d0:	0006219c 	muleq	r6, ip, r1
    27d4:	039a1500 	orrseq	r1, sl, #0, 10
    27d8:	0e260000 	cdpeq	0, 2, cr0, cr6, cr0, {0}
    27dc:	0e200000 	cdpeq	0, 2, cr0, cr0, cr0, {0}
    27e0:	d8160000 	ldmdale	r6, {}	; <UNPREDICTABLE>
    27e4:	6a000089 	bvs	2a10 <__code_start__-0x55f0>
    27e8:	12000006 	andne	r0, r0, #6, 0
    27ec:	0c055001 	stceq	0, cr5, [r5], {1}
    27f0:	2020001c 	eorcs	r0, r0, ip, lsl r0
    27f4:	05510112 	ldrbeq	r0, [r1, #-274]	; 0xfffffeee
    27f8:	5001f331 	andpl	pc, r1, r1, lsr r3	; <UNPREDICTABLE>
    27fc:	23000024 	movwcs	r0, #36	; 0x24
    2800:	00000373 	andeq	r0, r0, r3, ror r3
    2804:	000089dc 	ldrdeq	r8, [r0], -ip
    2808:	00000018 	andeq	r0, r0, r8, lsl r0
    280c:	065e9c01 	ldrbeq	r9, [lr], -r1, lsl #24
    2810:	80150000 	andshi	r0, r5, r0
    2814:	58000003 	stmdapl	r0, {r0, r1}
    2818:	5200000e 	andpl	r0, r0, #14, 0
    281c:	1600000e 	strne	r0, [r0], -lr
    2820:	000089f0 	strdeq	r8, [r0], -r0
    2824:	0000066a 	andeq	r0, r0, sl, ror #12
    2828:	05500112 	ldrbeq	r0, [r0, #-274]	; 0xfffffeee
    282c:	2000280c 	andcs	r2, r0, ip, lsl #16
    2830:	51011220 	tstpl	r1, r0, lsr #4
    2834:	01f33105 	mvnseq	r3, r5, lsl #2
    2838:	00002450 	andeq	r2, r0, r0, asr r4
    283c:	0005cd24 	andeq	ip, r5, r4, lsr #26
    2840:	0005cd00 	andeq	ip, r5, r0, lsl #26
    2844:	0ac70200 	beq	ff1c304c <__bss_end__+0xff1b8d3c>
    2848:	0005c724 	andeq	ip, r5, r4, lsr #14
    284c:	0005c700 	andeq	ip, r5, r0, lsl #14
    2850:	06b20200 	ldrteq	r0, [r2], r0, lsl #4
    2854:	00019d00 	andeq	r9, r1, r0, lsl #26
    2858:	a8000400 	stmdage	r0, {sl}
    285c:	04000008 	streq	r0, [r0], #-8
    2860:	00060e01 	andeq	r0, r6, r1, lsl #28
    2864:	073e0c00 	ldreq	r0, [lr, -r0, lsl #24]!
    2868:	06e80000 	strbteq	r0, [r8], r0
    286c:	8aa40000 	bhi	fe902874 <__bss_end__+0xfe8f8564>
    2870:	00580000 	subseq	r0, r8, r0
    2874:	0cfb0000 	ldcleq	0, cr0, [fp]
    2878:	2a020000 	bcs	82880 <__bss_end__+0x78570>
    287c:	02000007 	andeq	r0, r0, #7, 0
    2880:	00311b28 	eorseq	r1, r1, r8, lsr #22
    2884:	4e030000 	cdpmi	0, 0, cr0, cr3, cr0, {0}
    2888:	04000007 	streq	r0, [r0], #-7
    288c:	00480004 	subeq	r0, r8, r4
    2890:	39040000 	stmdbcc	r4, {}	; <UNPREDICTABLE>
    2894:	48000007 	stmdami	r0, {r0, r1, r2}
    2898:	00000000 	andeq	r0, r0, r0
    289c:	02040500 	andeq	r0, r4, #0, 10
    28a0:	00000750 	andeq	r0, r0, r0, asr r7
    28a4:	25186302 	ldrcs	r6, [r8, #-770]	; 0xfffffcfe
    28a8:	06000000 	streq	r0, [r0], -r0
    28ac:	6e690504 	cdpvs	5, 6, cr0, cr9, cr4, {0}
    28b0:	04070074 	streq	r0, [r7], #-116	; 0xffffff8c
    28b4:	00009c07 	andeq	r9, r0, r7, lsl #24
    28b8:	06010700 	streq	r0, [r1], -r0, lsl #14
    28bc:	00000024 	andeq	r0, r0, r4, lsr #32
    28c0:	c3050207 	movwgt	r0, #20999	; 0x5207
    28c4:	07000000 	streq	r0, [r0, -r0]
    28c8:	00ae0504 	adceq	r0, lr, r4, lsl #10
    28cc:	08070000 	stmdaeq	r7, {}	; <UNPREDICTABLE>
    28d0:	0000a905 	andeq	sl, r0, r5, lsl #18
    28d4:	08010700 	stmdaeq	r1, {r8, r9, sl}
    28d8:	00000022 	andeq	r0, r0, r2, lsr #32
    28dc:	3d070207 	sfmcc	f0, 4, [r7, #-28]	; 0xffffffe4
    28e0:	07000000 	streq	r0, [r0, -r0]
    28e4:	00970704 	addseq	r0, r7, r4, lsl #14
    28e8:	08070000 	stmdaeq	r7, {}	; <UNPREDICTABLE>
    28ec:	00009207 	andeq	r9, r0, r7, lsl #4
    28f0:	00560800 	subseq	r0, r6, r0, lsl #16
    28f4:	00ab0000 	adceq	r0, fp, r0
    28f8:	56090000 	strpl	r0, [r9], -r0
    28fc:	00000000 	andeq	r0, r0, r0
    2900:	0000b70a 	andeq	fp, r0, sl, lsl #14
    2904:	0e1c0300 	cdpeq	3, 1, cr0, cr12, cr0, {0}
    2908:	000000b7 	strheq	r0, [r0], -r7
    290c:	009c040b 	addseq	r0, ip, fp, lsl #8
    2910:	56080000 	strpl	r0, [r8], -r0
    2914:	cc000000 	stcgt	0, cr0, [r0], {-0}
    2918:	09000000 	stmdbeq	r0, {}	; <UNPREDICTABLE>
    291c:	000000cc 	andeq	r0, r0, ip, asr #1
    2920:	d9040b00 	stmdble	r4, {r8, r9, fp}
    2924:	07000000 	streq	r0, [r0, -r0]
    2928:	002b0801 	eoreq	r0, fp, r1, lsl #16
    292c:	d20c0000 	andle	r0, ip, #0, 0
    2930:	0a000000 	beq	2938 <__code_start__-0x56c8>
    2934:	0000079a 	muleq	r0, sl, r7
    2938:	ea0e2103 	b	38ad4c <__bss_end__+0x380a3c>
    293c:	0b000000 	bleq	2944 <__code_start__-0x56bc>
    2940:	0000bd04 	andeq	fp, r0, r4, lsl #26
    2944:	07230d00 	streq	r0, [r3, -r0, lsl #26]!
    2948:	06010000 	streq	r0, [r1], -r0
    294c:	00005605 	andeq	r5, r0, r5, lsl #12
    2950:	008aa400 	addeq	sl, sl, r0, lsl #8
    2954:	00005800 	andeq	r5, r0, r0, lsl #16
    2958:	839c0100 	orrshi	r0, ip, #0
    295c:	0e000001 	cdpeq	0, 0, cr0, cr0, cr1, {0}
    2960:	00746d66 	rsbseq	r6, r4, r6, ror #26
    2964:	cc180601 	ldcgt	6, cr0, [r8], {1}
    2968:	02000000 	andeq	r0, r0, #0, 0
    296c:	100f7091 	mulne	pc, r1, r0	; <UNPREDICTABLE>
    2970:	00667562 	rsbeq	r7, r6, r2, ror #10
    2974:	83110801 	tsthi	r1, #65536	; 0x10000
    2978:	05000001 	streq	r0, [r0, #-1]
    297c:	009f0c03 	addseq	r0, pc, r3, lsl #24
    2980:	071b1100 	ldreq	r1, [fp, -r0, lsl #2]
    2984:	09010000 	stmdbeq	r1, {}	; <UNPREDICTABLE>
    2988:	00004a0d 	andeq	r4, r0, sp, lsl #20
    298c:	5c910200 	lfmpl	f0, 4, [r1], {0}
    2990:	007a7312 	rsbseq	r7, sl, r2, lsl r3
    2994:	560d0c01 	strpl	r0, [sp], -r1, lsl #24
    2998:	8a000000 	bhi	29a0 <__code_start__-0x5660>
    299c:	8400000e 	strhi	r0, [r0], #-14
    29a0:	1300000e 	movwne	r0, #14
    29a4:	00008acc 	andeq	r8, r0, ip, asr #21
    29a8:	00000194 	muleq	r0, r4, r1
    29ac:	00000176 	andeq	r0, r0, r6, ror r1
    29b0:	02500114 	subseq	r0, r0, #5
    29b4:	01140075 	tsteq	r4, r5, ror r0
    29b8:	000a0351 	andeq	r0, sl, r1, asr r3
    29bc:	52011404 	andpl	r1, r1, #4, 8	; 0x4000000
    29c0:	06489103 	strbeq	r9, [r8], -r3, lsl #2
    29c4:	02530114 	subseq	r0, r3, #5
    29c8:	15004c91 	strne	r4, [r0, #-3217]	; 0xfffff36f
    29cc:	00008ae0 	andeq	r8, r0, r0, ror #21
    29d0:	02500114 	subseq	r0, r0, #5
    29d4:	00000075 	andeq	r0, r0, r5, ror r0
    29d8:	0000d216 	andeq	sp, r0, r6, lsl r2
    29dc:	00019400 	andeq	r9, r1, r0, lsl #8
    29e0:	005d1700 	subseq	r1, sp, r0, lsl #14
    29e4:	03ff0000 	mvnseq	r0, #0, 0
    29e8:	07201800 	streq	r1, [r0, -r0, lsl #16]!
    29ec:	07200000 	streq	r0, [r0, -r0]!
    29f0:	02050000 	andeq	r0, r5, #0, 0
    29f4:	01490005 	cmpeq	r9, r5
    29f8:	00040000 	andeq	r0, r4, r0
    29fc:	000009ea 	andeq	r0, r0, sl, ror #19
    2a00:	060e0104 	streq	r0, [lr], -r4, lsl #2
    2a04:	760c0000 	strvc	r0, [ip], -r0
    2a08:	e8000007 	stmda	r0, {r0, r1, r2}
    2a0c:	fc000006 	stc2	0, cr0, [r0], {6}
    2a10:	3c00008a 	stccc	0, cr0, [r0], {138}	; 0x8a
    2a14:	1f000000 	svcne	0x00000000
    2a18:	0200000e 	andeq	r0, r0, #14, 0
    2a1c:	6e690504 	cdpvs	5, 6, cr0, cr9, cr4, {0}
    2a20:	04030074 	streq	r0, [r3], #-116	; 0xffffff8c
    2a24:	00009c07 	andeq	r9, r0, r7, lsl #24
    2a28:	06010300 	streq	r0, [r1], -r0, lsl #6
    2a2c:	00000024 	andeq	r0, r0, r4, lsr #32
    2a30:	c3050203 	movwgt	r0, #20995	; 0x5203
    2a34:	03000000 	movweq	r0, #0
    2a38:	00ae0504 	adceq	r0, lr, r4, lsl #10
    2a3c:	08030000 	stmdaeq	r3, {}	; <UNPREDICTABLE>
    2a40:	0000a905 	andeq	sl, r0, r5, lsl #18
    2a44:	08010300 	stmdaeq	r1, {r8, r9}
    2a48:	00000022 	andeq	r0, r0, r2, lsr #32
    2a4c:	3d070203 	sfmcc	f0, 4, [r7, #-12]
    2a50:	03000000 	movweq	r0, #0
    2a54:	00970704 	addseq	r0, r7, r4, lsl #14
    2a58:	08030000 	stmdaeq	r3, {}	; <UNPREDICTABLE>
    2a5c:	00009207 	andeq	r9, r0, r7, lsl #4
    2a60:	00250400 	eoreq	r0, r5, r0, lsl #8
    2a64:	007a0000 	rsbseq	r0, sl, r0
    2a68:	25050000 	strcs	r0, [r5, #-0]
    2a6c:	00000000 	andeq	r0, r0, r0
    2a70:	0000b706 	andeq	fp, r0, r6, lsl #14
    2a74:	0e1c0200 	cdpeq	2, 1, cr0, cr12, cr0, {0}
    2a78:	00000086 	andeq	r0, r0, r6, lsl #1
    2a7c:	006b0407 	rsbeq	r0, fp, r7, lsl #8
    2a80:	25040000 	strcs	r0, [r4, #-0]
    2a84:	9b000000 	blls	2a8c <__code_start__-0x5574>
    2a88:	05000000 	streq	r0, [r0, #-0]
    2a8c:	0000009b 	muleq	r0, fp, r0
    2a90:	a8040700 	stmdage	r4, {r8, r9, sl}
    2a94:	03000000 	movweq	r0, #0
    2a98:	002b0801 	eoreq	r0, fp, r1, lsl #16
    2a9c:	a1080000 	mrsge	r0, (UNDEF: 8)
    2aa0:	06000000 	streq	r0, [r0], -r0
    2aa4:	0000079a 	muleq	r0, sl, r7
    2aa8:	b90e2102 	stmdblt	lr, {r1, r8, sp}
    2aac:	07000000 	streq	r0, [r0, -r0]
    2ab0:	00008c04 	andeq	r8, r0, r4, lsl #24
    2ab4:	007a0900 	rsbseq	r0, sl, r0, lsl #18
    2ab8:	06010000 	streq	r0, [r1], -r0
    2abc:	00030507 	andeq	r0, r3, r7, lsl #10
    2ac0:	0a00009f 	beq	2d44 <__code_start__-0x52bc>
    2ac4:	00000769 	andeq	r0, r0, r9, ror #14
    2ac8:	28060b01 	stmdacs	r6, {r0, r8, r9, fp}
    2acc:	1000008b 	andne	r0, r0, fp, lsl #1
    2ad0:	01000000 	mrseq	r0, (UNDEF: 0)
    2ad4:	0000f19c 	muleq	r0, ip, r1
    2ad8:	70660b00 	rsbvc	r0, r6, r0, lsl #22
    2adc:	190b0100 	stmdbne	fp, {r8}
    2ae0:	00000086 	andeq	r0, r0, r6, lsl #1
    2ae4:	0c005001 	stceq	0, cr5, [r0], {1}
    2ae8:	000002bf 			; <UNDEFINED> instruction: 0x000002bf
    2aec:	10060801 	andne	r0, r6, r1, lsl #16
    2af0:	1800008b 	stmdane	r0, {r0, r1, r3, r7}
    2af4:	01000000 	mrseq	r0, (UNDEF: 0)
    2af8:	07580d9c 			; <UNDEFINED> instruction: 0x07580d9c
    2afc:	03010000 	movweq	r0, #4096	; 0x1000
    2b00:	0000250c 	andeq	r2, r0, ip, lsl #10
    2b04:	008afc00 	addeq	pc, sl, r0, lsl #24
    2b08:	00001400 	andeq	r1, r0, r0, lsl #8
    2b0c:	409c0100 	addsmi	r0, ip, r0, lsl #2
    2b10:	0e000001 	cdpeq	0, 0, cr0, cr0, cr1, {0}
    2b14:	03010063 	movweq	r0, #4195	; 0x1063
    2b18:	00002521 	andeq	r2, r0, r1, lsr #10
    2b1c:	000eb700 	andeq	fp, lr, r0, lsl #14
    2b20:	000eb300 	andeq	fp, lr, r0, lsl #6
    2b24:	8b080f00 	blhi	20672c <__bss_end__+0x1fc41c>
    2b28:	01400000 	mrseq	r0, (UNDEF: 64)
    2b2c:	01100000 	tsteq	r0, r0
    2b30:	00740250 	rsbseq	r0, r4, r0, asr r2
    2b34:	87110000 	ldrhi	r0, [r1, -r0]
    2b38:	87000007 	strhi	r0, [r0, -r7]
    2b3c:	02000007 	andeq	r0, r0, #7, 0
    2b40:	f3000642 	vmax.u8	q0, q0, q1
    2b44:	04000000 	streq	r0, [r0], #-0
    2b48:	000af900 	andeq	pc, sl, r0, lsl #18
    2b4c:	0e010400 	cfcpyseq	mvf0, mvf1
    2b50:	0c000006 	stceq	0, cr0, [r0], {6}
    2b54:	0000079f 	muleq	r0, pc, r7	; <UNPREDICTABLE>
    2b58:	000006e8 	andeq	r0, r0, r8, ror #13
    2b5c:	00008b38 	andeq	r8, r0, r8, lsr fp
    2b60:	00000038 	andeq	r0, r0, r8, lsr r0
    2b64:	00000ec1 	andeq	r0, r0, r1, asr #29
    2b68:	69050402 	stmdbvs	r5, {r1, sl}
    2b6c:	0300746e 	movweq	r7, #1134	; 0x46e
    2b70:	009c0704 	addseq	r0, ip, r4, lsl #14
    2b74:	01030000 	mrseq	r0, (UNDEF: 3)
    2b78:	00002406 	andeq	r2, r0, r6, lsl #8
    2b7c:	05020300 	streq	r0, [r2, #-768]	; 0xfffffd00
    2b80:	000000c3 	andeq	r0, r0, r3, asr #1
    2b84:	ae050403 	cdpge	4, 0, cr0, cr5, cr3, {0}
    2b88:	03000000 	movweq	r0, #0
    2b8c:	00a90508 	adceq	r0, r9, r8, lsl #10
    2b90:	01030000 	mrseq	r0, (UNDEF: 3)
    2b94:	00002208 	andeq	r2, r0, r8, lsl #4
    2b98:	07020300 	streq	r0, [r2, -r0, lsl #6]
    2b9c:	0000003d 	andeq	r0, r0, sp, lsr r0
    2ba0:	97070403 	strls	r0, [r7, -r3, lsl #8]
    2ba4:	03000000 	movweq	r0, #0
    2ba8:	00920708 	addseq	r0, r2, r8, lsl #14
    2bac:	25040000 	strcs	r0, [r4, #-0]
    2bb0:	7a000000 	bvc	2bb8 <__code_start__-0x5448>
    2bb4:	05000000 	streq	r0, [r0, #-0]
    2bb8:	00000025 	andeq	r0, r0, r5, lsr #32
    2bbc:	00b70600 	adcseq	r0, r7, r0, lsl #12
    2bc0:	1c020000 	stcne	0, cr0, [r2], {-0}
    2bc4:	0000860e 	andeq	r8, r0, lr, lsl #12
    2bc8:	6b040700 	blvs	1047d0 <__bss_end__+0xfa4c0>
    2bcc:	04000000 	streq	r0, [r0], #-0
    2bd0:	00000025 	andeq	r0, r0, r5, lsr #32
    2bd4:	0000009b 	muleq	r0, fp, r0
    2bd8:	00009b05 	andeq	r9, r0, r5, lsl #22
    2bdc:	04070000 	streq	r0, [r7], #-0
    2be0:	000000a8 	andeq	r0, r0, r8, lsr #1
    2be4:	2b080103 	blcs	202ff8 <__bss_end__+0x1f8ce8>
    2be8:	08000000 	stmdaeq	r0, {}	; <UNPREDICTABLE>
    2bec:	000000a1 	andeq	r0, r0, r1, lsr #1
    2bf0:	00079a06 	andeq	r9, r7, r6, lsl #20
    2bf4:	0e210200 	cdpeq	2, 2, cr0, cr1, cr0, {0}
    2bf8:	000000b9 	strheq	r0, [r0], -r9
    2bfc:	008c0407 	addeq	r0, ip, r7, lsl #8
    2c00:	ad090000 	stcge	0, cr0, [r9, #-0]
    2c04:	01000000 	mrseq	r0, (UNDEF: 0)
    2c08:	0305070c 	movweq	r0, #22284	; 0x570c
    2c0c:	00009f04 	andeq	r9, r0, r4, lsl #30
    2c10:	0007910a 	andeq	r9, r7, sl, lsl #2
    2c14:	05040100 	streq	r0, [r4, #-256]	; 0xffffff00
    2c18:	00000025 	andeq	r0, r0, r5, lsr #32
    2c1c:	00008b38 	andeq	r8, r0, r8, lsr fp
    2c20:	00000038 	andeq	r0, r0, r8, lsr r0
    2c24:	700b9c01 	andvc	r9, fp, r1, lsl #24
    2c28:	1f040100 	svcne	0x00040100
    2c2c:	0000009b 	muleq	r0, fp, r0
    2c30:	00000edd 	ldrdeq	r0, [r0], -sp
    2c34:	00000ed5 	ldrdeq	r0, [r0], -r5
    2c38:	0c7f0000 	ldcleq	0, cr0, [pc], #-0	; 2c40 <__code_start__-0x53c0>
    2c3c:	00040000 	andeq	r0, r4, r0
    2c40:	00000b97 	muleq	r0, r7, fp
    2c44:	060e0104 	streq	r0, [lr], -r4, lsl #2
    2c48:	be0c0000 	cdplt	0, 0, cr0, cr12, cr0, {0}
    2c4c:	e8000007 	stmda	r0, {r0, r1, r2}
    2c50:	70000006 	andvc	r0, r0, r6
    2c54:	b400008b 	strlt	r0, [r0], #-139	; 0xffffff75
    2c58:	65000009 	strvs	r0, [r0, #-9]
    2c5c:	0200000f 	andeq	r0, r0, #15, 0
    2c60:	00920708 	addseq	r0, r2, r8, lsl #14
    2c64:	04020000 	streq	r0, [r2], #-0
    2c68:	00009c07 	andeq	r9, r0, r7, lsl #24
    2c6c:	05040300 	streq	r0, [r4, #-768]	; 0xfffffd00
    2c70:	00746e69 	rsbseq	r6, r4, r9, ror #28
    2c74:	24060102 	strcs	r0, [r6], #-258	; 0xfffffefe
    2c78:	02000000 	andeq	r0, r0, #0, 0
    2c7c:	00c30502 	sbceq	r0, r3, r2, lsl #10
    2c80:	04020000 	streq	r0, [r2], #-0
    2c84:	0000ae05 	andeq	sl, r0, r5, lsl #28
    2c88:	05080200 	streq	r0, [r8, #-512]	; 0xfffffe00
    2c8c:	000000a9 	andeq	r0, r0, r9, lsr #1
    2c90:	22080102 	andcs	r0, r8, #-2147483648	; 0x80000000
    2c94:	02000000 	andeq	r0, r0, #0, 0
    2c98:	003d0702 	eorseq	r0, sp, r2, lsl #14
    2c9c:	ac040000 	stcge	0, cr0, [r4], {-0}
    2ca0:	02000002 	andeq	r0, r0, #2, 0
    2ca4:	00701934 	rsbseq	r1, r0, r4, lsr r9
    2ca8:	04020000 	streq	r0, [r2], #-0
    2cac:	00009707 	andeq	r9, r0, r7, lsl #14
    2cb0:	07b50400 	ldreq	r0, [r5, r0, lsl #8]!
    2cb4:	37020000 	strcc	r0, [r2, -r0]
    2cb8:	00002519 	andeq	r2, r0, r9, lsl r5
    2cbc:	00330500 	eorseq	r0, r3, r0, lsl #10
    2cc0:	00920000 	addseq	r0, r2, r0
    2cc4:	33060000 	movwcc	r0, #24576	; 0x6000
    2cc8:	00000000 	andeq	r0, r0, r0
    2ccc:	0000b707 	andeq	fp, r0, r7, lsl #14
    2cd0:	0e1c0300 	cdpeq	3, 1, cr0, cr12, cr0, {0}
    2cd4:	0000009e 	muleq	r0, lr, r0
    2cd8:	00830408 	addeq	r0, r3, r8, lsl #8
    2cdc:	33050000 	movwcc	r0, #20480	; 0x5000
    2ce0:	b3000000 	movwlt	r0, #0
    2ce4:	06000000 	streq	r0, [r0], -r0
    2ce8:	000000b3 	strheq	r0, [r0], -r3
    2cec:	c0040800 	andgt	r0, r4, r0, lsl #16
    2cf0:	02000000 	andeq	r0, r0, #0, 0
    2cf4:	002b0801 	eoreq	r0, fp, r1, lsl #16
    2cf8:	b9090000 	stmdblt	r9, {}	; <UNPREDICTABLE>
    2cfc:	07000000 	streq	r0, [r0, -r0]
    2d00:	0000079a 	muleq	r0, sl, r7
    2d04:	d10e2103 	tstle	lr, r3, lsl #2
    2d08:	08000000 	stmdaeq	r0, {}	; <UNPREDICTABLE>
    2d0c:	0000a404 	andeq	sl, r0, r4, lsl #8
    2d10:	07d10700 	ldrbeq	r0, [r1, r0, lsl #14]
    2d14:	0b040000 	bleq	102d1c <__bss_end__+0xf8a0c>
    2d18:	0000b90d 	andeq	fp, r0, sp, lsl #18
    2d1c:	085a0700 	ldmdaeq	sl, {r8, r9, sl}^
    2d20:	0c040000 	stceq	0, cr0, [r4], {-0}
    2d24:	0000b90d 	andeq	fp, r0, sp, lsl #18
    2d28:	07e00700 	strbeq	r0, [r0, r0, lsl #14]!
    2d2c:	0d040000 	stceq	0, cr0, [r4, #-0]
    2d30:	0000b90d 	andeq	fp, r0, sp, lsl #18
    2d34:	08120700 	ldmdaeq	r2, {r8, r9, sl}
    2d38:	0e040000 	cdpeq	0, 0, cr0, cr4, cr0, {0}
    2d3c:	0000b90d 	andeq	fp, r0, sp, lsl #18
    2d40:	08830700 	stmeq	r3, {r8, r9, sl}
    2d44:	0f040000 	svceq	0x00040000
    2d48:	0000b90d 	andeq	fp, r0, sp, lsl #18
    2d4c:	07f40700 	ldrbeq	r0, [r4, r0, lsl #14]!
    2d50:	10040000 	andne	r0, r4, r0
    2d54:	0000b90d 	andeq	fp, r0, sp, lsl #18
    2d58:	08920700 	ldmeq	r2, {r8, r9, sl}
    2d5c:	11040000 	mrsne	r0, (UNDEF: 4)
    2d60:	0000b90d 	andeq	fp, r0, sp, lsl #18
    2d64:	081e0700 	ldmdaeq	lr, {r8, r9, sl}
    2d68:	12040000 	andne	r0, r4, #0, 0
    2d6c:	0000b90d 	andeq	fp, r0, sp, lsl #18
    2d70:	072a0400 	streq	r0, [sl, -r0, lsl #8]!
    2d74:	28050000 	stmdacs	r5, {}	; <UNPREDICTABLE>
    2d78:	0001431b 	andeq	r4, r1, fp, lsl r3
    2d7c:	074e0a00 	strbeq	r0, [lr, -r0, lsl #20]
    2d80:	06040000 	streq	r0, [r4], -r0
    2d84:	00015a00 	andeq	r5, r1, r0, lsl #20
    2d88:	07390b00 	ldreq	r0, [r9, -r0, lsl #22]!
    2d8c:	015a0000 	cmpeq	sl, r0
    2d90:	00000000 	andeq	r0, r0, r0
    2d94:	5004040c 	andpl	r0, r4, ip, lsl #8
    2d98:	05000007 	streq	r0, [r0, #-7]
    2d9c:	01371863 	teqeq	r7, r3, ror #16
    2da0:	200d0000 	andcs	r0, sp, r0
    2da4:	01000007 	tsteq	r0, r7
    2da8:	00330581 	eorseq	r0, r3, r1, lsl #11
    2dac:	8ef80000 	cdphi	0, 15, cr0, cr8, cr0, {0}
    2db0:	062c0000 	strteq	r0, [ip], -r0
    2db4:	9c010000 	stcls	0, cr0, [r1], {-0}
    2db8:	0000086a 	andeq	r0, r0, sl, ror #16
    2dbc:	6675620e 	ldrbtvs	r6, [r5], -lr, lsl #4
    2dc0:	15810100 	strne	r0, [r1, #256]	; 0x100
    2dc4:	0000086a 	andeq	r0, r0, sl, ror #16
    2dc8:	00000f1d 	andeq	r0, r0, sp, lsl pc
    2dcc:	00000f13 	andeq	r0, r0, r3, lsl pc
    2dd0:	01006e0e 	tsteq	r0, lr, lsl #28
    2dd4:	00331e81 	eorseq	r1, r3, r1, lsl #29
    2dd8:	0f6a0000 	svceq	0x006a0000
    2ddc:	0f620000 	svceq	0x00620000
    2de0:	660e0000 	strvs	r0, [lr], -r0
    2de4:	0100746d 	tsteq	r0, sp, ror #8
    2de8:	00b32d81 	adcseq	r2, r3, r1, lsl #27
    2dec:	0fbc0000 	svceq	0x00bc0000
    2df0:	0fa40000 	svceq	0x00a40000
    2df4:	1b0f0000 	blne	3c2dfc <__bss_end__+0x3b8aec>
    2df8:	01000007 	tsteq	r0, r7
    2dfc:	015c3a81 	cmpeq	ip, r1, lsl #21
    2e00:	10800000 	addne	r0, r0, r0
    2e04:	10500000 	subsne	r0, r0, r0
    2e08:	70100000 	andsvc	r0, r0, r0
    2e0c:	08820100 	stmeq	r2, {r8}
    2e10:	0000086a 	andeq	r0, r0, sl, ror #16
    2e14:	000011e0 	andeq	r1, r0, r0, ror #3
    2e18:	000011ca 	andeq	r1, r0, sl, asr #3
    2e1c:	01006510 	tsteq	r0, r0, lsl r5
    2e20:	086a1282 	stmdaeq	sl!, {r1, r7, r9, ip}^
    2e24:	12690000 	rsbne	r0, r9, #0, 0
    2e28:	12670000 	rsbne	r0, r7, #0, 0
    2e2c:	78100000 	ldmdavc	r0, {}	; <UNPREDICTABLE>
    2e30:	83010030 	movwhi	r0, #4144	; 0x1030
    2e34:	0000640e 	andeq	r6, r0, lr, lsl #8
    2e38:	00128200 	andseq	r8, r2, r0, lsl #4
    2e3c:	00127c00 	andseq	r7, r2, r0, lsl #24
    2e40:	31781000 	cmncc	r8, r0
    2e44:	11830100 	orrne	r0, r3, r0, lsl #2
    2e48:	00000064 	andeq	r0, r0, r4, rrx
    2e4c:	000012b1 			; <UNDEFINED> instruction: 0x000012b1
    2e50:	000012ab 	andeq	r1, r0, fp, lsr #5
    2e54:	00083c11 	andeq	r3, r8, r1, lsl ip
    2e58:	11860100 	orrne	r0, r6, r0, lsl #2
    2e5c:	000000b3 	strheq	r0, [r0], -r3
    2e60:	000012e2 	andeq	r1, r0, r2, ror #5
    2e64:	000012da 	ldrdeq	r1, [r0], -sl
    2e68:	00025812 	andeq	r5, r2, r2, lsl r8
    2e6c:	00088000 	andeq	r8, r8, r0
    2e70:	cc030500 	cfstr32gt	mvfx0, [r3], {-0}
    2e74:	1300009e 	movwne	r0, #158	; 0x9e
    2e78:	000001e8 	andeq	r0, r0, r8, ror #3
    2e7c:	01007310 	tsteq	r0, r0, lsl r3
    2e80:	086a0a91 	stmdaeq	sl!, {r0, r4, r7, r9, fp}^
    2e84:	13280000 			; <UNDEFINED> instruction: 0x13280000
    2e88:	131c0000 	tstne	ip, #0, 0
    2e8c:	6e140000 	cdpvs	0, 1, cr0, cr4, cr0, {0}
    2e90:	01006d75 	tsteq	r0, r5, ror sp
    2e94:	08850d91 	stmeq	r5, {r0, r4, r7, r8, sl, fp}
    2e98:	91030000 	mrsls	r0, (UNDEF: 3)
    2e9c:	9f157dd8 	svcls	0x00157dd8
    2ea0:	01000008 	tsteq	r0, r8
    2ea4:	08851791 	stmeq	r5, {r0, r4, r7, r8, r9, sl, ip}
    2ea8:	91030000 	mrsls	r0, (UNDEF: 3)
    2eac:	ee117ed8 	mrc	14, 0, r7, cr1, cr8, {6}
    2eb0:	01000007 	tsteq	r0, r7
    2eb4:	002c0d92 	mlaeq	ip, r2, sp, r0
    2eb8:	137a0000 	cmnne	sl, #0, 0
    2ebc:	13720000 	cmnne	r2, #0, 0
    2ec0:	10160000 	andsne	r0, r6, r0
    2ec4:	f1000002 	cps	#2
    2ec8:	10000004 	andne	r0, r0, r4
    2ecc:	01007974 	tsteq	r0, r4, ror r9
    2ed0:	00b31d9e 	umlalseq	r1, r3, lr, sp
    2ed4:	13bb0000 			; <UNDEFINED> instruction: 0x13bb0000
    2ed8:	13af0000 			; <UNDEFINED> instruction: 0x13af0000
    2edc:	78140000 	ldmdavc	r4, {}	; <UNPREDICTABLE>
    2ee0:	a2010078 	andge	r0, r1, #120, 0	; 0x78
    2ee4:	0000771a 	andeq	r7, r0, sl, lsl r7
    2ee8:	93590600 	cmpls	r9, #0, 12
    2eec:	04935b04 	ldreq	r5, [r3], #2820	; 0xb04
    2ef0:	00908417 	addseq	r8, r0, r7, lsl r4
    2ef4:	000c3a00 	andeq	r3, ip, r0, lsl #20
    2ef8:	0002d800 	andeq	sp, r2, r0, lsl #16
    2efc:	50011800 	andpl	r1, r1, r0, lsl #16
    2f00:	18007602 	stmdane	r0, {r1, r9, sl, ip, sp, lr}
    2f04:	03055101 	movweq	r5, #20737	; 0x5101
    2f08:	00009dc0 	andeq	r9, r0, r0, asr #27
    2f0c:	01520118 	cmpeq	r2, r8, lsl r1
    2f10:	9c170033 	ldcls	0, cr0, [r7], {51}	; 0x33
    2f14:	3a000090 	bcc	315c <__code_start__-0x4ea4>
    2f18:	fa00000c 	blx	2f50 <__code_start__-0x50b0>
    2f1c:	18000002 	stmdane	r0, {r1}
    2f20:	76025001 	strvc	r5, [r2], -r1
    2f24:	51011800 	tstpl	r1, r0, lsl #16
    2f28:	9dd40305 	ldclls	3, cr0, [r4, #20]
    2f2c:	01180000 	tsteq	r8, r0
    2f30:	00330152 	eorseq	r0, r3, r2, asr r1
    2f34:	0090c017 	addseq	ip, r0, r7, lsl r0
    2f38:	000c4600 	andeq	r4, ip, r0, lsl #12
    2f3c:	00031700 	andeq	r1, r3, r0, lsl #14
    2f40:	50011800 	andpl	r1, r1, r0, lsl #16
    2f44:	9dc40305 	stclls	3, cr0, [r4, #20]
    2f48:	01180000 	tsteq	r8, r0
    2f4c:	007b0251 	rsbseq	r0, fp, r1, asr r2
    2f50:	90cc1700 	sbcls	r1, ip, r0, lsl #14
    2f54:	0c460000 	mareq	acc0, r0, r6
    2f58:	03340000 	teqeq	r4, #0, 0
    2f5c:	01180000 	tsteq	r8, r0
    2f60:	cc030550 	cfstr32gt	mvfx0, [r3], {80}	; 0x50
    2f64:	1800009d 	stmdane	r0, {r0, r2, r3, r4, r7}
    2f68:	79025101 	stmdbvc	r2, {r0, r8, ip, lr}
    2f6c:	dc170000 	ldcle	0, cr0, [r7], {-0}
    2f70:	3a000090 	bcc	31b8 <__code_start__-0x4e48>
    2f74:	5600000c 	strpl	r0, [r0], -ip
    2f78:	18000003 	stmdane	r0, {r0, r1}
    2f7c:	76025001 	strvc	r5, [r2], -r1
    2f80:	51011800 	tstpl	r1, r0, lsl #16
    2f84:	9dc00305 	stclls	3, cr0, [r0, #20]
    2f88:	01180000 	tsteq	r8, r0
    2f8c:	00330152 	eorseq	r0, r3, r2, asr r1
    2f90:	00910c17 	addseq	r0, r1, r7, lsl ip
    2f94:	000aa400 	andeq	sl, sl, r0, lsl #8
    2f98:	00038300 	andeq	r8, r3, r0, lsl #6
    2f9c:	50011800 	andpl	r1, r1, r0, lsl #16
    2fa0:	01184001 	tsteq	r8, r1
    2fa4:	d0910351 	addsle	r0, r1, r1, asr r3
    2fa8:	5201187d 	andpl	r1, r1, #8192000	; 0x7d0000
    2fac:	18007b02 	stmdane	r0, {r1, r8, r9, fp, ip, sp, lr}
    2fb0:	75025301 	strvc	r5, [r2, #-769]	; 0xfffffcff
    2fb4:	7d021800 	stcvc	8, cr1, [r2, #-0]
    2fb8:	00760200 	rsbseq	r0, r6, r0, lsl #4
    2fbc:	912c1700 			; <UNDEFINED> instruction: 0x912c1700
    2fc0:	0aa40000 	beq	fe902fc8 <__bss_end__+0xfe8f8cb8>
    2fc4:	03aa0000 			; <UNDEFINED> instruction: 0x03aa0000
    2fc8:	01180000 	tsteq	r8, r0
    2fcc:	18400150 	stmdane	r0, {r4, r6, r8}^
    2fd0:	91035101 	tstls	r3, r1, lsl #2
    2fd4:	01187ed0 			; <UNDEFINED> instruction: 0x01187ed0
    2fd8:	00790252 	rsbseq	r0, r9, r2, asr r2
    2fdc:	007d0218 	rsbseq	r0, sp, r8, lsl r2
    2fe0:	00007602 	andeq	r7, r0, r2, lsl #12
    2fe4:	00913c17 	addseq	r3, r1, r7, lsl ip
    2fe8:	000c5200 	andeq	r5, ip, r0, lsl #4
    2fec:	0003c600 	andeq	ip, r3, r0, lsl #12
    2ff0:	50011800 	andpl	r1, r1, r0, lsl #16
    2ff4:	7dd09103 	ldfvcp	f1, [r0, #12]
    2ff8:	03510118 	cmpeq	r1, #6
    2ffc:	007ed291 			; <UNDEFINED> instruction: 0x007ed291
    3000:	00938017 	addseq	r8, r3, r7, lsl r0
    3004:	000c3a00 	andeq	r3, ip, r0, lsl #20
    3008:	0003e800 	andeq	lr, r3, r0, lsl #16
    300c:	50011800 	andpl	r1, r1, r0, lsl #16
    3010:	18007602 	stmdane	r0, {r1, r9, sl, ip, sp, lr}
    3014:	03055101 	movweq	r5, #20737	; 0x5101
    3018:	00009dd4 	ldrdeq	r9, [r0], -r4
    301c:	01520118 	cmpeq	r2, r8, lsl r1
    3020:	a4170033 	ldrge	r0, [r7], #-51	; 0xffffffcd
    3024:	a4000093 	strge	r0, [r0], #-147	; 0xffffff6d
    3028:	1500000a 	strne	r0, [r0, #-10]
    302c:	18000004 	stmdane	r0, {r2}
    3030:	3a015001 	bcc	5703c <__bss_end__+0x4cd2c>
    3034:	03510118 	cmpeq	r1, #6
    3038:	187dd091 	ldmdane	sp!, {r0, r4, r7, ip, lr, pc}^
    303c:	7b025201 	blvc	97848 <__bss_end__+0x8d538>
    3040:	53011800 	movwpl	r1, #6144	; 0x1800
    3044:	18007502 	stmdane	r0, {r1, r8, sl, ip, sp, lr}
    3048:	02007d02 	andeq	r7, r0, #128	; 0x80
    304c:	17000076 	smlsdxne	r0, r6, r0, r0
    3050:	000093c4 	andeq	r9, r0, r4, asr #7
    3054:	00000aa4 	andeq	r0, r0, r4, lsr #21
    3058:	0000043c 	andeq	r0, r0, ip, lsr r4
    305c:	01500118 	cmpeq	r0, r8, lsl r1
    3060:	5101183a 	tstpl	r1, sl, lsr r8
    3064:	7ed09103 	atnvcs	f1, f3
    3068:	02520118 	subseq	r0, r2, #6
    306c:	02180079 	andseq	r0, r8, #121, 0	; 0x79
    3070:	7602007d 			; <UNDEFINED> instruction: 0x7602007d
    3074:	d0170000 	andsle	r0, r7, r0
    3078:	5e000093 	mcrpl	0, 0, r0, cr0, cr3, {4}
    307c:	5a00000c 	bpl	30b4 <__code_start__-0x4f4c>
    3080:	18000004 	stmdane	r0, {r2}
    3084:	91035001 	tstls	r3, r1
    3088:	01187dd0 			; <UNDEFINED> instruction: 0x01187dd0
    308c:	34030551 	strcc	r0, [r3], #-1361	; 0xfffffaaf
    3090:	0000009d 	muleq	r0, sp, r0
    3094:	0093e417 	addseq	lr, r3, r7, lsl r4
    3098:	000c6a00 	andeq	r6, ip, r0, lsl #20
    309c:	00047600 	andeq	r7, r4, r0, lsl #12
    30a0:	50011800 	andpl	r1, r1, r0, lsl #16
    30a4:	7dd09103 	ldfvcp	f1, [r0, #12]
    30a8:	03510118 	cmpeq	r1, #6
    30ac:	007ed091 			; <UNDEFINED> instruction: 0x007ed091
    30b0:	0093f019 	addseq	pc, r3, r9, lsl r0	; <UNPREDICTABLE>
    30b4:	000c5200 	andeq	r5, ip, r0, lsl #4
    30b8:	94b41700 	ldrtls	r1, [r4], #1792	; 0x700
    30bc:	0c460000 	mareq	acc0, r0, r6
    30c0:	04a80000 	strteq	r0, [r8], #0
    30c4:	01180000 	tsteq	r8, r0
    30c8:	b8030550 	stmdalt	r3, {r4, r6, r8, sl}
    30cc:	1800009c 	stmdane	r0, {r2, r3, r4, r7}
    30d0:	03055101 	movweq	r5, #20737	; 0x5101
    30d4:	00009d74 	andeq	r9, r0, r4, ror sp
    30d8:	05520118 	ldrbeq	r0, [r2, #-280]	; 0xfffffee8
    30dc:	009ecc03 	addseq	ip, lr, r3, lsl #24
    30e0:	b8190000 	ldmdalt	r9, {}	; <UNPREDICTABLE>
    30e4:	76000094 			; <UNDEFINED> instruction: 0x76000094
    30e8:	1700000c 	strne	r0, [r0, -ip]
    30ec:	000094d0 	ldrdeq	r9, [r0], -r0
    30f0:	00000c46 	andeq	r0, r0, r6, asr #24
    30f4:	000004e7 	andeq	r0, r0, r7, ror #9
    30f8:	05500118 	ldrbeq	r0, [r0, #-280]	; 0xfffffee8
    30fc:	009e1403 	addseq	r1, lr, r3, lsl #8
    3100:	51011800 	tstpl	r1, r0, lsl #16
    3104:	9d740305 	ldclls	3, cr0, [r4, #-20]!	; 0xffffffec
    3108:	01180000 	tsteq	r8, r0
    310c:	cc030552 	cfstr32gt	mvfx0, [r3], {82}	; 0x52
    3110:	1800009e 	stmdane	r0, {r1, r2, r3, r4, r7}
    3114:	08025301 	stmdaeq	r2, {r0, r8, r9, ip, lr}
    3118:	7d0218b6 	stcvc	8, cr1, [r2, #-728]	; 0xfffffd28
    311c:	00760200 	rsbseq	r0, r6, r0, lsl #4
    3120:	94d41900 	ldrbls	r1, [r4], #2304	; 0x900
    3124:	0c760000 	ldcleq	0, cr0, [r6], #-0
    3128:	1a000000 	bne	3130 <__code_start__-0x4ed0>
    312c:	000009e3 	andeq	r0, r0, r3, ror #19
    3130:	00008f84 	andeq	r8, r0, r4, lsl #31
    3134:	02380004 	eorseq	r0, r8, #4, 0
    3138:	94010000 	strls	r0, [r1], #-0
    313c:	0005150a 	andeq	r1, r5, sl, lsl #10
    3140:	09f41b00 	ldmibeq	r4!, {r8, r9, fp, ip}^
    3144:	14170000 	ldrne	r0, [r7], #-0
    3148:	14130000 	ldrne	r0, [r3], #-0
    314c:	1a000000 	bne	3154 <__code_start__-0x4eac>
    3150:	00000895 	muleq	r0, r5, r8
    3154:	0000916c 	andeq	r9, r0, ip, ror #2
    3158:	02580001 	subseq	r0, r8, #1, 0
    315c:	dc010000 	stcle	0, cr0, [r1], {-0}
    3160:	00064b09 	andeq	r4, r6, r9, lsl #22
    3164:	08be1b00 	ldmeq	lr!, {r8, r9, fp, ip}
    3168:	14450000 	strbne	r0, [r5], #-0
    316c:	143f0000 	ldrtne	r0, [pc], #-0	; 3174 <__code_start__-0x4e8c>
    3170:	e01b0000 	ands	r0, fp, r0
    3174:	7a000008 	bvc	319c <__code_start__-0x4e64>
    3178:	74000014 	strvc	r0, [r0], #-20	; 0xffffffec
    317c:	1b000014 	blne	31d4 <__code_start__-0x4e2c>
    3180:	000008d4 	ldrdeq	r0, [r0], -r4
    3184:	000014ac 	andeq	r1, r0, ip, lsr #9
    3188:	000014a6 	andeq	r1, r0, r6, lsr #9
    318c:	0008c81c 	andeq	ip, r8, ip, lsl r8
    3190:	08b21b00 	ldmeq	r2!, {r8, r9, fp, ip}
    3194:	14dd0000 	ldrbne	r0, [sp], #0
    3198:	14d50000 	ldrbne	r0, [r5], #0
    319c:	a61b0000 	ldrge	r0, [fp], -r0
    31a0:	20000008 	andcs	r0, r0, r8
    31a4:	1a000015 	bne	3200 <__code_start__-0x4e00>
    31a8:	13000015 	movwne	r0, #21
    31ac:	00000258 	andeq	r0, r0, r8, asr r2
    31b0:	0008ec1d 	andeq	lr, r8, sp, lsl ip
    31b4:	d8910300 	ldmle	r1, {r8, r9}
    31b8:	08f81e7e 	ldmeq	r8!, {r1, r2, r3, r4, r5, r6, r9, sl, fp, ip}^
    31bc:	155a0000 	ldrbne	r0, [sl, #-0]
    31c0:	154c0000 	strbne	r0, [ip, #-0]
    31c4:	021f0000 	andseq	r0, pc, #0, 0
    31c8:	1a000009 	bne	31f4 <__code_start__-0x4e0c>
    31cc:	000009a3 	andeq	r0, r0, r3, lsr #19
    31d0:	00009178 	andeq	r9, r0, r8, ror r1
    31d4:	02880004 	addeq	r0, r8, #4, 0
    31d8:	7c010000 	stcvc	0, cr0, [r1], {-0}
    31dc:	0005e209 	andeq	lr, r5, r9, lsl #4
    31e0:	09ca1b00 	stmibeq	sl, {r8, r9, fp, ip}^
    31e4:	15c40000 	strbne	r0, [r4]
    31e8:	15be0000 	ldrne	r0, [lr, #0]!
    31ec:	be1b0000 	cdplt	0, 1, cr0, cr11, cr0, {0}
    31f0:	f9000009 			; <UNDEFINED> instruction: 0xf9000009
    31f4:	ed000015 	stc	0, cr0, [r0, #-84]	; 0xffffffac
    31f8:	1b000015 	blne	3254 <__code_start__-0x4dac>
    31fc:	000009b4 			; <UNDEFINED> instruction: 0x000009b4
    3200:	0000165f 	andeq	r1, r0, pc, asr r6
    3204:	0000164f 	andeq	r1, r0, pc, asr #12
    3208:	00028813 	andeq	r8, r2, r3, lsl r8
    320c:	09d61e00 	ldmibeq	r6, {r9, sl, fp, ip}^
    3210:	16dc0000 	ldrbne	r0, [ip], r0
    3214:	16ce0000 	strbne	r0, [lr], r0
    3218:	00000000 	andeq	r0, r0, r0
    321c:	00094f20 	andeq	r4, r9, r0, lsr #30
    3220:	00924000 	addseq	r4, r2, r0
    3224:	b8000200 	stmdalt	r0, {r9}
    3228:	01000002 	tsteq	r0, r2
    322c:	801b097c 	andshi	r0, fp, ip, ror r9
    3230:	3c000009 	stccc	0, cr0, [r0], {9}
    3234:	36000017 			; <UNDEFINED> instruction: 0x36000017
    3238:	1b000017 	blne	329c <__code_start__-0x4d64>
    323c:	00000976 	andeq	r0, r0, r6, ror r9
    3240:	00001772 	andeq	r1, r0, r2, ror r7
    3244:	00001768 	andeq	r1, r0, r8, ror #14
    3248:	00096c1b 	andeq	r6, r9, fp, lsl ip
    324c:	0017c100 	andseq	ip, r7, r0, lsl #2
    3250:	0017bd00 	andseq	fp, r7, r0, lsl #26
    3254:	09601b00 	stmdbeq	r0!, {r8, r9, fp, ip}^
    3258:	17f10000 	ldrbne	r0, [r1, r0]!
    325c:	17e30000 	strbne	r0, [r3, r0]!
    3260:	b8130000 	ldmdalt	r3, {}	; <UNPREDICTABLE>
    3264:	1e000002 	cdpne	0, 0, cr0, cr0, cr2, {0}
    3268:	0000098c 	andeq	r0, r0, ip, lsl #19
    326c:	00001856 	andeq	r1, r0, r6, asr r8
    3270:	00001854 	andeq	r1, r0, r4, asr r8
    3274:	0009981e 	andeq	r9, r9, lr, lsl r8
    3278:	00187000 	andseq	r7, r8, r0
    327c:	00186a00 	andseq	r6, r8, r0, lsl #20
    3280:	00000000 	andeq	r0, r0, r0
    3284:	08951a00 	ldmeq	r5, {r9, fp, ip}
    3288:	927c0000 	rsbsls	r0, ip, #0, 0
    328c:	00000000 	andeq	r0, r0, r0
    3290:	000002e8 	andeq	r0, r0, r8, ror #5
    3294:	8909d601 	stmdbhi	r9, {r0, r9, sl, ip, lr, pc}
    3298:	1b000007 	blne	32bc <__code_start__-0x4d44>
    329c:	000008be 			; <UNDEFINED> instruction: 0x000008be
    32a0:	000018a3 	andeq	r1, r0, r3, lsr #17
    32a4:	0000189f 	muleq	r0, pc, r8	; <UNPREDICTABLE>
    32a8:	0008e01b 	andeq	lr, r8, fp, lsl r0
    32ac:	0018c900 	andseq	ip, r8, r0, lsl #18
    32b0:	0018c500 	andseq	ip, r8, r0, lsl #10
    32b4:	08d41b00 	ldmeq	r4, {r8, r9, fp, ip}^
    32b8:	18ed0000 	stmiane	sp!, {}^	; <UNPREDICTABLE>
    32bc:	18e90000 	stmiane	r9!, {}^	; <UNPREDICTABLE>
    32c0:	c81c0000 	ldmdagt	ip, {}	; <UNPREDICTABLE>
    32c4:	1b000008 	blne	32ec <__code_start__-0x4d14>
    32c8:	000008b2 			; <UNDEFINED> instruction: 0x000008b2
    32cc:	00001911 	andeq	r1, r0, r1, lsl r9
    32d0:	0000190b 	andeq	r1, r0, fp, lsl #18
    32d4:	0008a61b 	andeq	sl, r8, fp, lsl r6
    32d8:	00194400 	andseq	r4, r9, r0, lsl #8
    32dc:	00194000 	andseq	r4, r9, r0
    32e0:	02e81300 	rsceq	r1, r8, #0, 6
    32e4:	ec1d0000 	ldc	0, cr0, [sp], {-0}
    32e8:	03000008 	movweq	r0, #8
    32ec:	1e7ed891 	mrcne	8, 3, sp, cr14, cr1, {4}
    32f0:	000008f8 	strdeq	r0, [r0], -r8
    32f4:	0000196e 	andeq	r1, r0, lr, ror #18
    32f8:	00001964 	andeq	r1, r0, r4, ror #18
    32fc:	0009021e 	andeq	r0, r9, lr, lsl r2
    3300:	0019b300 	andseq	fp, r9, r0, lsl #6
    3304:	0019af00 	andseq	sl, r9, r0, lsl #30
    3308:	09a31a00 	stmibeq	r3!, {r9, fp, ip}
    330c:	92980000 	addsls	r0, r8, #0, 0
    3310:	00030000 	andeq	r0, r3, r0
    3314:	00000308 	andeq	r0, r0, r8, lsl #6
    3318:	20097c01 	andcs	r7, r9, r1, lsl #24
    331c:	1b000007 	blne	3340 <__code_start__-0x4cc0>
    3320:	000009ca 	andeq	r0, r0, sl, asr #19
    3324:	000019d5 	ldrdeq	r1, [r0], -r5
    3328:	000019d1 	ldrdeq	r1, [r0], -r1	; <UNPREDICTABLE>
    332c:	0009be1b 	andeq	fp, r9, fp, lsl lr
    3330:	0019f700 	andseq	pc, r9, r0, lsl #14
    3334:	0019f300 	andseq	pc, r9, r0, lsl #6
    3338:	09b41b00 	ldmibeq	r4!, {r8, r9, fp, ip}
    333c:	1a210000 	bne	843344 <__bss_end__+0x839034>
    3340:	1a150000 	bne	543348 <__bss_end__+0x539038>
    3344:	08130000 	ldmdaeq	r3, {}	; <UNPREDICTABLE>
    3348:	1e000003 	cdpne	0, 0, cr0, cr0, cr3, {0}
    334c:	000009d6 	ldrdeq	r0, [r0], -r6
    3350:	00001a7d 	andeq	r1, r0, sp, ror sl
    3354:	00001a71 	andeq	r1, r0, r1, ror sl
    3358:	4f200000 	svcmi	0x00200000
    335c:	20000009 	andcs	r0, r0, r9
    3360:	02000093 	andeq	r0, r0, #147, 0	; 0x93
    3364:	00033000 	andeq	r3, r3, r0
    3368:	097c0100 	ldmdbeq	ip!, {r8}^
    336c:	0009801b 	andeq	r8, r9, fp, lsl r0
    3370:	001acd00 	andseq	ip, sl, r0, lsl #26
    3374:	001ac900 	andseq	ip, sl, r0, lsl #18
    3378:	09761b00 	ldmdbeq	r6!, {r8, r9, fp, ip}^
    337c:	1af50000 	bne	ffd43384 <__bss_end__+0xffd39074>
    3380:	1aeb0000 	bne	ffac3388 <__bss_end__+0xffab9078>
    3384:	6c1b0000 	ldcvs	0, cr0, [fp], {-0}
    3388:	41000009 	tstmi	r0, r9
    338c:	3d00001b 	stccc	0, cr0, [r0, #-108]	; 0xffffff94
    3390:	1b00001b 	blne	3404 <__code_start__-0x4bfc>
    3394:	00000960 	andeq	r0, r0, r0, ror #18
    3398:	00001b6f 	andeq	r1, r0, pc, ror #22
    339c:	00001b63 	andeq	r1, r0, r3, ror #22
    33a0:	00033013 	andeq	r3, r3, r3, lsl r0
    33a4:	098c1e00 	stmibeq	ip, {r9, sl, fp, ip}
    33a8:	1bc90000 	blne	ff2433b0 <__bss_end__+0xff2390a0>
    33ac:	1bc50000 	blne	ff1433b4 <__bss_end__+0xff1390a4>
    33b0:	981e0000 	ldmdals	lr, {}	; <UNPREDICTABLE>
    33b4:	ef000009 	svc	0x00000009
    33b8:	eb00001b 	bl	342c <__code_start__-0x4bd4>
    33bc:	0000001b 	andeq	r0, r0, fp, lsl r0
    33c0:	17000000 	strne	r0, [r0, -r0]
    33c4:	0000904c 	andeq	r9, r0, ip, asr #32
    33c8:	00000aa4 	andeq	r0, r0, r4, lsr #21
    33cc:	000007af 	andeq	r0, r0, pc, lsr #15
    33d0:	01500118 	cmpeq	r0, r8, lsl r1
    33d4:	51011840 	tstpl	r1, r0, asr #16
    33d8:	7dd09103 	ldfvcp	f1, [r0, #12]
    33dc:	02530118 	subseq	r0, r3, #6
    33e0:	02180075 	andseq	r0, r8, #117, 0	; 0x75
    33e4:	3001007d 	andcc	r0, r1, sp, ror r0
    33e8:	915c1700 	cmpls	ip, r0, lsl #14
    33ec:	0aa40000 	beq	fe9033f4 <__bss_end__+0xfe8f90e4>
    33f0:	07cf0000 	strbeq	r0, [pc, r0]
    33f4:	01180000 	tsteq	r8, r0
    33f8:	183a0150 	ldmdane	sl!, {r4, r6, r8}
    33fc:	91035101 	tstls	r3, r1, lsl #2
    3400:	01187dd0 			; <UNDEFINED> instruction: 0x01187dd0
    3404:	00750253 	rsbseq	r0, r5, r3, asr r2
    3408:	94401700 	strbls	r1, [r0], #-1792	; 0xfffff900
    340c:	0c460000 	mareq	acc0, r0, r6
    3410:	07e60000 	strbeq	r0, [r6, r0]!
    3414:	01180000 	tsteq	r8, r0
    3418:	64030550 	strvs	r0, [r3], #-1360	; 0xfffffab0
    341c:	0000009e 	muleq	r0, lr, r0
    3420:	00945021 	addseq	r5, r4, r1, lsr #32
    3424:	0007f800 	andeq	pc, r7, r0, lsl #16
    3428:	50011800 	andpl	r1, r1, r0, lsl #16
    342c:	7dc89104 	stfvcp	f1, [r8, #16]
    3430:	64170006 	ldrvs	r0, [r7], #-6
    3434:	46000094 			; <UNDEFINED> instruction: 0x46000094
    3438:	2700000c 	strcs	r0, [r0, -ip]
    343c:	18000008 	stmdane	r0, {r3}
    3440:	03055001 	movweq	r5, #20481	; 0x5001
    3444:	00009e94 	muleq	r0, r4, lr
    3448:	05510118 	ldrbeq	r0, [r1, #-280]	; 0xfffffee8
    344c:	009d7403 	addseq	r7, sp, r3, lsl #8
    3450:	52011800 	andpl	r1, r1, #0, 16
    3454:	9ecc0305 	cdpls	3, 12, cr0, cr12, cr5, {0}
    3458:	01180000 	tsteq	r8, r0
    345c:	e2080253 	and	r0, r8, #805306373	; 0x30000005
    3460:	94681900 	strbtls	r1, [r8], #-2304	; 0xfffff700
    3464:	0c760000 	ldcleq	0, cr0, [r6], #-0
    3468:	7c170000 	ldcvc	0, cr0, [r7], {-0}
    346c:	46000094 			; <UNDEFINED> instruction: 0x46000094
    3470:	5f00000c 	svcpl	0x0000000c
    3474:	18000008 	stmdane	r0, {r3}
    3478:	03055001 	movweq	r5, #20481	; 0x5001
    347c:	00009e3c 	andeq	r9, r0, ip, lsr lr
    3480:	05510118 	ldrbeq	r0, [r1, #-280]	; 0xfffffee8
    3484:	009d7403 	addseq	r7, sp, r3, lsl #8
    3488:	52011800 	andpl	r1, r1, #0, 16
    348c:	9ecc0305 	cdpls	3, 12, cr0, cr12, cr5, {0}
    3490:	01180000 	tsteq	r8, r0
    3494:	be080253 	mcrlt	2, 0, r0, cr8, cr3, {2}
    3498:	94801900 	strls	r1, [r0], #2304	; 0x900
    349c:	0c760000 	ldcleq	0, cr0, [r6], #-0
    34a0:	00000000 	andeq	r0, r0, r0
    34a4:	00b90408 	adcseq	r0, r9, r8, lsl #8
    34a8:	c0220000 	eorgt	r0, r2, r0
    34ac:	80000000 	andhi	r0, r0, r0
    34b0:	23000008 	movwcs	r0, #8
    34b4:	0000002c 	andeq	r0, r0, ip, lsr #32
    34b8:	70090009 	andvc	r0, r9, r9
    34bc:	22000008 	andcs	r0, r0, #8, 0
    34c0:	000000b9 	strheq	r0, [r0], -r9
    34c4:	00000895 	muleq	r0, r5, r8
    34c8:	00002c23 	andeq	r2, r0, r3, lsr #24
    34cc:	24007f00 	strcs	r7, [r0], #-3840	; 0xfffff100
    34d0:	00000867 	andeq	r0, r0, r7, ror #16
    34d4:	6a014901 	bvs	558e0 <__bss_end__+0x4b5d0>
    34d8:	01000008 	tsteq	r0, r8
    34dc:	0000092a 	andeq	r0, r0, sl, lsr #18
    34e0:	0008ac25 	andeq	sl, r8, r5, lsr #24
    34e4:	0f490100 	svceq	0x00490100
    34e8:	0000002c 	andeq	r0, r0, ip, lsr #32
    34ec:	74736426 	ldrbtvc	r6, [r3], #-1062	; 0xfffffbda
    34f0:	1b490100 	blne	12438f8 <__bss_end__+0x12395e8>
    34f4:	0000086a 	andeq	r0, r0, sl, ror #16
    34f8:	01006e26 	tsteq	r0, r6, lsr #28
    34fc:	00332449 	eorseq	r2, r3, r9, asr #8
    3500:	76260000 	strtvc	r0, [r6], -r0
    3504:	01006c61 	tsteq	r0, r1, ror #24
    3508:	00332b49 	eorseq	r2, r3, r9, asr #22
    350c:	ee250000 	cdp	0, 2, cr0, cr5, cr0, {0}
    3510:	01000007 	tsteq	r0, r7
    3514:	00333449 	eorseq	r3, r3, r9, asr #8
    3518:	01250000 			; <UNDEFINED> instruction: 0x01250000
    351c:	01000008 	tsteq	r0, r8
    3520:	00333f49 	eorseq	r3, r3, r9, asr #30
    3524:	62270000 	eorvs	r0, r7, #0, 0
    3528:	01006675 	tsteq	r0, r5, ror r6
    352c:	092a074e 	stmdbeq	sl!, {r1, r2, r3, r6, r8, r9, sl}
    3530:	70270000 	eorvc	r0, r7, r0
    3534:	114e0100 	mrsne	r0, (UNDEF: 94)
    3538:	0000086a 	andeq	r0, r0, sl, ror #16
    353c:	01007527 	tsteq	r0, r7, lsr #10
    3540:	002c0b4f 	eoreq	r0, ip, pc, asr #22
    3544:	58120000 	ldmdapl	r2, {}	; <UNPREDICTABLE>
    3548:	4a000002 	bmi	3558 <__code_start__-0x4aa8>
    354c:	05000009 	streq	r0, [r0, #-9]
    3550:	009eb403 	addseq	fp, lr, r3, lsl #8
    3554:	54292800 	strtpl	r2, [r9], #-2048	; 0xfffff800
    3558:	01000008 	tsteq	r0, r8
    355c:	002c0d54 	eoreq	r0, ip, r4, asr sp
    3560:	00000000 	andeq	r0, r0, r0
    3564:	0000b922 	andeq	fp, r0, r2, lsr #18
    3568:	00093a00 	andeq	r3, r9, r0, lsl #20
    356c:	002c2300 	eoreq	r2, ip, r0, lsl #6
    3570:	003f0000 	eorseq	r0, pc, r0
    3574:	0000c022 	andeq	ip, r0, r2, lsr #32
    3578:	00094a00 	andeq	r4, r9, r0, lsl #20
    357c:	002c2300 	eoreq	r2, ip, r0, lsl #6
    3580:	00040000 	andeq	r0, r4, r0
    3584:	00093a09 	andeq	r3, r9, r9, lsl #20
    3588:	08742400 	ldmdaeq	r4!, {sl, sp}^
    358c:	38010000 	stmdacc	r1, {}	; <UNPREDICTABLE>
    3590:	00086a0e 	andeq	r6, r8, lr, lsl #20
    3594:	09a30100 	stmibeq	r3!, {r8}
    3598:	64260000 	strtvs	r0, [r6], #-0
    359c:	01007473 	tsteq	r0, r3, ror r4
    35a0:	086a1c38 	stmdaeq	sl!, {r3, r4, r5, sl, fp, ip}^
    35a4:	6e260000 	cdpvs	0, 2, cr0, cr6, cr0, {0}
    35a8:	25380100 	ldrcs	r0, [r8, #-256]!	; 0xffffff00
    35ac:	00000033 	andeq	r0, r0, r3, lsr r0
    35b0:	01007026 	tsteq	r0, r6, lsr #32
    35b4:	086a2e38 	stmdaeq	sl!, {r3, r4, r5, r9, sl, fp, sp}^
    35b8:	21250000 			; <UNDEFINED> instruction: 0x21250000
    35bc:	01000005 	tsteq	r0, r5
    35c0:	086a3738 	stmdaeq	sl!, {r3, r4, r5, r8, r9, sl, ip, sp}^
    35c4:	6c270000 	stcvs	0, cr0, [r7], #-0
    35c8:	01006e65 	tsteq	r0, r5, ror #28
    35cc:	0033063a 	eorseq	r0, r3, sl, lsr r6
    35d0:	73270000 			; <UNDEFINED> instruction: 0x73270000
    35d4:	083e0100 	ldmdaeq	lr!, {r8}
    35d8:	0000086a 	andeq	r0, r0, sl, ror #16
    35dc:	61702a00 	cmnvs	r0, r0, lsl #20
    35e0:	2e010064 	cdpcs	0, 0, cr0, cr1, cr4, {3}
    35e4:	00086a0e 	andeq	r6, r8, lr, lsl #20
    35e8:	09e30100 	stmibeq	r3!, {r8}^
    35ec:	70260000 	eorvc	r0, r6, r0
    35f0:	182e0100 	stmdane	lr!, {r8}
    35f4:	0000086a 	andeq	r0, r0, sl, ror #16
    35f8:	0008ac25 	andeq	sl, r8, r5, lsr #24
    35fc:	222e0100 	eorcs	r0, lr, #0
    3600:	0000086a 	andeq	r0, r0, sl, ror #16
    3604:	0007ee25 	andeq	lr, r7, r5, lsr #28
    3608:	2c2e0100 	stfcss	f0, [lr], #-0
    360c:	00000033 	andeq	r0, r0, r3, lsr r0
    3610:	6e656c27 	cdpvs	12, 6, cr6, cr5, cr7, {1}
    3614:	062f0100 	strteq	r0, [pc], -r0, lsl #2
    3618:	00000033 	andeq	r0, r0, r3, lsr r0
    361c:	07ad2400 	streq	r2, [sp, r0, lsl #8]!
    3620:	27010000 	strcs	r0, [r1, -r0]
    3624:	0000330c 	andeq	r3, r0, ip, lsl #6
    3628:	09ff0100 	ldmibeq	pc!, {r8}^	; <UNPREDICTABLE>
    362c:	63260000 			; <UNDEFINED> instruction: 0x63260000
    3630:	18270100 	stmdane	r7!, {r8}
    3634:	00000033 	andeq	r0, r0, r3, lsr r0
    3638:	082d2b00 	stmdaeq	sp!, {r8, r9, fp, sp}
    363c:	1f010000 	svcne	0x00010000
    3640:	008e9806 	addeq	r9, lr, r6, lsl #16
    3644:	00006000 	andeq	r6, r0, r0
    3648:	8f9c0100 	svchi	0x009c0100
    364c:	0f00000a 	svceq	0x0000000a
    3650:	0000080a 	andeq	r0, r0, sl, lsl #16
    3654:	9e1b1f01 	cdpls	15, 1, cr1, cr11, cr1, {0}
    3658:	14000000 	strne	r0, [r0], #-0
    365c:	1000001c 	andne	r0, r0, ip, lsl r0
    3660:	0f00001c 	svceq	0x0000001c
    3664:	0000086c 	andeq	r0, r0, ip, ror #16
    3668:	d1301f01 	teqle	r0, r1, lsl #30
    366c:	39000000 	stmdbcc	r0, {}	; <UNPREDICTABLE>
    3670:	3500001c 	strcc	r0, [r0, #-28]	; 0xffffffe4
    3674:	1200001c 	andne	r0, r0, #28, 0
    3678:	00000258 	andeq	r0, r0, r8, asr r2
    367c:	00000a9f 	muleq	r0, pc, sl	; <UNPREDICTABLE>
    3680:	9ebc0305 	cdpls	3, 11, cr0, cr12, cr5, {0}
    3684:	dc170000 	ldcle	0, cr0, [r7], {-0}
    3688:	4600008e 	strmi	r0, [r0], -lr, lsl #1
    368c:	8500000c 	strhi	r0, [r0, #-12]
    3690:	1800000a 	stmdane	r0, {r1, r3}
    3694:	03055001 	movweq	r5, #20481	; 0x5001
    3698:	00009cb8 			; <UNDEFINED> instruction: 0x00009cb8
    369c:	05510118 	ldrbeq	r0, [r1, #-280]	; 0xfffffee8
    36a0:	009d7403 	addseq	r7, sp, r3, lsl #8
    36a4:	52011800 	andpl	r1, r1, #0, 16
    36a8:	9ebc0305 	cdpls	3, 11, cr0, cr12, cr5, {0}
    36ac:	01180000 	tsteq	r8, r0
    36b0:	20080253 	andcs	r0, r8, r3, asr r2
    36b4:	007d0218 	rsbseq	r0, sp, r8, lsl r2
    36b8:	9dac0305 	stcls	3, cr0, [ip, #20]!
    36bc:	19000000 	stmdbne	r0, {}	; <UNPREDICTABLE>
    36c0:	00008ee0 	andeq	r8, r0, r0, ror #29
    36c4:	00000c76 	andeq	r0, r0, r6, ror ip
    36c8:	00c02200 	sbceq	r2, r0, r0, lsl #4
    36cc:	0a9f0000 	beq	fe7c36d4 <__bss_end__+0xfe7b93c4>
    36d0:	2c230000 	stccs	0, cr0, [r3], #-0
    36d4:	0e000000 	cdpeq	0, 0, cr0, cr0, cr0, {0}
    36d8:	0a8f0900 	beq	fe3c5ae0 <__bss_end__+0xfe3bb7d0>
    36dc:	952c0000 	strls	r0, [ip, #-0]!
    36e0:	70000008 	andvc	r0, r0, r8
    36e4:	2800008b 	stmdacs	r0, {r0, r1, r3, r7}
    36e8:	01000003 	tsteq	r0, r3
    36ec:	000c3a9c 	muleq	ip, ip, sl
    36f0:	08a61b00 	stmiaeq	r6!, {r8, r9, fp, ip}
    36f4:	1c720000 	ldclne	0, cr0, [r2], #-0
    36f8:	1c5a0000 	mrane	r0, sl, acc0
    36fc:	b21b0000 	andslt	r0, fp, #0, 0
    3700:	1c000008 	stcne	0, cr0, [r0], {8}
    3704:	1400001d 	strne	r0, [r0], #-29	; 0xffffffe3
    3708:	1b00001d 	blne	3784 <__code_start__-0x487c>
    370c:	000008c8 	andeq	r0, r0, r8, asr #17
    3710:	00001d73 	andeq	r1, r0, r3, ror sp
    3714:	00001d53 	andeq	r1, r0, r3, asr sp
    3718:	0008d41b 	andeq	sp, r8, fp, lsl r4
    371c:	001e4900 	andseq	r4, lr, r0, lsl #18
    3720:	001e3b00 	andseq	r3, lr, r0, lsl #22
    3724:	08e02d00 	stmiaeq	r0!, {r8, sl, fp, sp}^
    3728:	91020000 	mrsls	r0, (UNDEF: 2)
    372c:	08ec1d00 	stmiaeq	ip!, {r8, sl, fp, ip}^
    3730:	91030000 	mrsls	r0, (UNDEF: 3)
    3734:	f81e7fa8 			; <UNDEFINED> instruction: 0xf81e7fa8
    3738:	dd000008 	stcle	0, cr0, [r0, #-32]	; 0xffffffe0
    373c:	a900001e 	stmdbge	r0, {r1, r2, r3, r4}
    3740:	1e00001e 	mcrne	0, 0, r0, cr0, cr14, {0}
    3744:	00000902 	andeq	r0, r0, r2, lsl #18
    3748:	00002044 	andeq	r2, r0, r4, asr #32
    374c:	00002022 	andeq	r2, r0, r2, lsr #32
    3750:	0008be2e 	andeq	fp, r8, lr, lsr #28
    3754:	a31a8000 	tstge	sl, #0, 0
    3758:	14000009 	strne	r0, [r0], #-9
    375c:	0400008c 	streq	r0, [r0], #-140	; 0xffffff74
    3760:	00018000 	andeq	r8, r1, r0
    3764:	097c0100 	ldmdbeq	ip!, {r8}^
    3768:	00000b6d 	andeq	r0, r0, sp, ror #22
    376c:	0009ca1b 	andeq	ip, r9, fp, lsl sl
    3770:	00212c00 	eoreq	r2, r1, r0, lsl #24
    3774:	00212200 	eoreq	r2, r1, r0, lsl #4
    3778:	09be1b00 	ldmibeq	lr!, {r8, r9, fp, ip}
    377c:	21800000 	orrcs	r0, r0, r0
    3780:	21700000 	cmncs	r0, r0
    3784:	b41b0000 	ldrlt	r0, [fp], #-0
    3788:	00000009 	andeq	r0, r0, r9
    378c:	ec000022 	stc	0, cr0, [r0], {34}	; 0x22
    3790:	13000021 	movwne	r0, #33	; 0x21
    3794:	00000180 	andeq	r0, r0, r0, lsl #3
    3798:	0009d61e 	andeq	sp, r9, lr, lsl r6
    379c:	00229200 	eoreq	r9, r2, r0, lsl #4
    37a0:	00228200 	eoreq	r8, r2, r0, lsl #4
    37a4:	1a000000 	bne	37ac <__code_start__-0x4854>
    37a8:	0000094f 	andeq	r0, r0, pc, asr #18
    37ac:	00008ccc 	andeq	r8, r0, ip, asr #25
    37b0:	01c80002 	biceq	r0, r8, r2
    37b4:	7c010000 	stcvc	0, cr0, [r1], {-0}
    37b8:	000bd809 	andeq	sp, fp, r9, lsl #16
    37bc:	09801b00 	stmibeq	r0, {r8, r9, fp, ip}
    37c0:	22fe0000 	rscscs	r0, lr, #0, 0
    37c4:	22f60000 	rscscs	r0, r6, #0, 0
    37c8:	761b0000 	ldrvc	r0, [fp], -r0
    37cc:	3d000009 	stccc	0, cr0, [r0, #-36]	; 0xffffffdc
    37d0:	35000023 	strcc	r0, [r0, #-35]	; 0xffffffdd
    37d4:	1b000023 	blne	3868 <__code_start__-0x4798>
    37d8:	0000096c 	andeq	r0, r0, ip, ror #18
    37dc:	0000237c 	andeq	r2, r0, ip, ror r3
    37e0:	00002378 	andeq	r2, r0, r8, ror r3
    37e4:	0009601b 	andeq	r6, r9, fp, lsl r0
    37e8:	0023ac00 	eoreq	sl, r3, r0, lsl #24
    37ec:	00239e00 	eoreq	r9, r3, r0, lsl #28
    37f0:	01c81300 	biceq	r1, r8, r0, lsl #6
    37f4:	8c1e0000 	ldchi	0, cr0, [lr], {-0}
    37f8:	11000009 	tstne	r0, r9
    37fc:	0b000024 	bleq	3894 <__code_start__-0x476c>
    3800:	1e000024 	cdpne	0, 0, cr0, cr0, cr4, {1}
    3804:	00000998 	muleq	r0, r8, r9
    3808:	00002443 	andeq	r2, r0, r3, asr #8
    380c:	0000243f 	andeq	r2, r0, pc, lsr r4
    3810:	1b2f0000 	blne	bc3818 <__bss_end__+0xbb9508>
    3814:	84000009 	strhi	r0, [r0], #-9
    3818:	6000008d 	andvs	r0, r0, sp, lsl #1
    381c:	f7000000 			; <UNDEFINED> instruction: 0xf7000000
    3820:	1e00000b 	cdpne	0, 0, cr0, cr0, cr11, {0}
    3824:	0000091c 	andeq	r0, r0, ip, lsl r9
    3828:	00002465 	andeq	r2, r0, r5, ror #8
    382c:	00002461 	andeq	r2, r0, r1, ror #8
    3830:	8e581700 	cdphi	7, 5, cr1, cr8, cr0, {0}
    3834:	0c460000 	mareq	acc0, r0, r6
    3838:	0c300000 	ldceq	0, cr0, [r0], #-0
    383c:	01180000 	tsteq	r8, r0
    3840:	b8030550 	stmdalt	r3, {r4, r6, r8, sl}
    3844:	1800009c 	stmdane	r0, {r2, r3, r4, r7}
    3848:	03055101 	movweq	r5, #20737	; 0x5101
    384c:	00009d74 	andeq	r9, r0, r4, ror sp
    3850:	05520118 	ldrbeq	r0, [r2, #-280]	; 0xfffffee8
    3854:	009eb403 	addseq	fp, lr, r3, lsl #8
    3858:	53011800 	movwpl	r1, #6144	; 0x1800
    385c:	18790802 	ldmdane	r9!, {r1, fp}^
    3860:	05007d02 	streq	r7, [r0, #-3330]	; 0xfffff2fe
    3864:	009d3403 	addseq	r3, sp, r3, lsl #8
    3868:	5c190000 	ldcpl	0, cr0, [r9], {-0}
    386c:	7600008e 	strvc	r0, [r0], -lr, lsl #1
    3870:	0000000c 	andeq	r0, r0, ip
    3874:	0008a430 	andeq	sl, r8, r0, lsr r4
    3878:	0008a400 	andeq	sl, r8, r0, lsl #8
    387c:	05f00300 	ldrbeq	r0, [r0, #768]!	; 0x300
    3880:	00072330 	andeq	r2, r7, r0, lsr r3
    3884:	00072300 	andeq	r2, r7, r0, lsl #6
    3888:	06280300 	strteq	r0, [r8], -r0, lsl #6
    388c:	00084630 	andeq	r4, r8, r0, lsr r6
    3890:	00084600 	andeq	r4, r8, r0, lsl #12
    3894:	07f30300 	ldrbeq	r0, [r3, r0, lsl #6]!
    3898:	00087c30 	andeq	r7, r8, r0, lsr ip
    389c:	00087c00 	andeq	r7, r8, r0, lsl #24
    38a0:	05ef0300 	strbeq	r0, [pc, #768]!	; 3ba8 <__code_start__-0x4458>
    38a4:	00084d30 	andeq	r4, r8, r0, lsr sp
    38a8:	00084d00 	andeq	r4, r8, r0, lsl #26
    38ac:	07f20300 	ldrbeq	r0, [r2, r0, lsl #6]!
    38b0:	00003030 	andeq	r3, r0, r0, lsr r0
    38b4:	00003000 	andeq	r3, r0, r0
    38b8:	066e0300 	strbteq	r0, [lr], -r0, lsl #6
    38bc:	00012f00 	andeq	r2, r1, r0, lsl #30
    38c0:	3a000400 	bcc	48c8 <__code_start__-0x3738>
    38c4:	0400000e 	streq	r0, [r0], #-14
    38c8:	00060e01 	andeq	r0, r6, r1, lsl #28
    38cc:	08bc0c00 	ldmeq	ip!, {sl, fp}
    38d0:	06e80000 	strbteq	r0, [r8], r0
    38d4:	95240000 	strls	r0, [r4, #-0]!
    38d8:	002c0000 	eoreq	r0, ip, r0
    38dc:	18630000 	stmdane	r3!, {}^	; <UNPREDICTABLE>
    38e0:	04020000 	streq	r0, [r2], #-0
    38e4:	746e6905 	strbtvc	r6, [lr], #-2309	; 0xfffff6fb
    38e8:	07040300 	streq	r0, [r4, -r0, lsl #6]
    38ec:	0000009c 	muleq	r0, ip, r0
    38f0:	24060103 	strcs	r0, [r6], #-259	; 0xfffffefd
    38f4:	03000000 	movweq	r0, #0
    38f8:	00c30502 	sbceq	r0, r3, r2, lsl #10
    38fc:	04030000 	streq	r0, [r3], #-0
    3900:	0000ae05 	andeq	sl, r0, r5, lsl #28
    3904:	05080300 	streq	r0, [r8, #-768]	; 0xfffffd00
    3908:	000000a9 	andeq	r0, r0, r9, lsr #1
    390c:	22080103 	andcs	r0, r8, #-1073741824	; 0xc0000000
    3910:	03000000 	movweq	r0, #0
    3914:	003d0702 	eorseq	r0, sp, r2, lsl #14
    3918:	04030000 	streq	r0, [r3], #-0
    391c:	00009707 	andeq	r9, r0, r7, lsl #14
    3920:	07080300 	streq	r0, [r8, -r0, lsl #6]
    3924:	00000092 	muleq	r0, r2, r0
    3928:	00002504 	andeq	r2, r0, r4, lsl #10
    392c:	00007a00 	andeq	r7, r0, r0, lsl #20
    3930:	00250500 	eoreq	r0, r5, r0, lsl #10
    3934:	06000000 	streq	r0, [r0], -r0
    3938:	000000b7 	strheq	r0, [r0], -r7
    393c:	860e1c02 	strhi	r1, [lr], -r2, lsl #24
    3940:	07000000 	streq	r0, [r0, -r0]
    3944:	00006b04 	andeq	r6, r0, r4, lsl #22
    3948:	00250400 	eoreq	r0, r5, r0, lsl #8
    394c:	009b0000 	addseq	r0, fp, r0
    3950:	9b050000 	blls	143958 <__bss_end__+0x139648>
    3954:	00000000 	andeq	r0, r0, r0
    3958:	00a80407 	adceq	r0, r8, r7, lsl #8
    395c:	01030000 	mrseq	r0, (UNDEF: 3)
    3960:	00002b08 	andeq	r2, r0, r8, lsl #22
    3964:	00a10800 	adceq	r0, r1, r0, lsl #16
    3968:	9a060000 	bls	183970 <__bss_end__+0x179660>
    396c:	02000007 	andeq	r0, r0, #7, 0
    3970:	00b90e21 	adcseq	r0, r9, r1, lsr #28
    3974:	04070000 	streq	r0, [r7], #-0
    3978:	0000008c 	andeq	r0, r0, ip, lsl #1
    397c:	00003009 	andeq	r3, r0, r9
    3980:	06040100 	streq	r0, [r4], -r0, lsl #2
    3984:	00009524 	andeq	r9, r0, r4, lsr #10
    3988:	0000002c 	andeq	r0, r0, ip, lsr #32
    398c:	010e9c01 	tsteq	lr, r1, lsl #24
    3990:	380a0000 	stmdacc	sl, {}	; <UNPREDICTABLE>
    3994:	e8000095 	stmda	r0, {r0, r2, r4, r7}
    3998:	0b000000 	bleq	39a0 <__code_start__-0x4660>
    399c:	03055001 	movweq	r5, #20481	; 0x5001
    39a0:	00009ed8 	ldrdeq	r9, [r0], -r8
    39a4:	953c0c00 	ldrls	r0, [ip, #-3072]!	; 0xfffff400
    39a8:	010e0000 	mrseq	r0, (UNDEF: 14)
    39ac:	440d0000 	strmi	r0, [sp], #-0
    39b0:	1a000095 	bne	3c0c <__code_start__-0x43f4>
    39b4:	04000001 	streq	r0, [r0], #-1
    39b8:	0b000001 	bleq	39c4 <__code_start__-0x463c>
    39bc:	3a015001 	bcc	579c8 <__bss_end__+0x4d6b8>
    39c0:	95480c00 	strbls	r0, [r8, #-3072]	; 0xfffff400
    39c4:	01260000 			; <UNDEFINED> instruction: 0x01260000
    39c8:	0e000000 	cdpeq	0, 0, cr0, cr0, cr0, {0}
    39cc:	000008d7 	ldrdeq	r0, [r0], -r7
    39d0:	000008d7 	ldrdeq	r0, [r0], -r7
    39d4:	0e064d02 	cdpeq	13, 0, cr4, cr6, cr2, {0}
    39d8:	0000022c 	andeq	r0, r0, ip, lsr #4
    39dc:	0000022c 	andeq	r0, r0, ip, lsr #4
    39e0:	0e065802 	cdpeq	8, 0, cr5, cr6, cr2, {0}
    39e4:	000008b1 			; <UNDEFINED> instruction: 0x000008b1
    39e8:	000008b1 			; <UNDEFINED> instruction: 0x000008b1
    39ec:	00066b02 	andeq	r6, r6, r2, lsl #22
    39f0:	000002b1 			; <UNDEFINED> instruction: 0x000002b1
    39f4:	0efa0004 	cdpeq	0, 15, cr0, cr10, cr4, {0}
    39f8:	01040000 	mrseq	r0, (UNDEF: 4)
    39fc:	0000060e 	andeq	r0, r0, lr, lsl #12
    3a00:	00090d0c 	andeq	r0, r9, ip, lsl #26
    3a04:	0006e800 	andeq	lr, r6, r0, lsl #16
    3a08:	00955000 	addseq	r5, r5, r0
    3a0c:	00012800 	andeq	r2, r1, r0, lsl #16
    3a10:	0018ee00 	andseq	lr, r8, r0, lsl #28
    3a14:	05040200 	streq	r0, [r4, #-512]	; 0xfffffe00
    3a18:	00746e69 	rsbseq	r6, r4, r9, ror #28
    3a1c:	9c070403 	cfstrsls	mvf0, [r7], {3}
    3a20:	03000000 	movweq	r0, #0
    3a24:	00240601 	eoreq	r0, r4, r1, lsl #12
    3a28:	02030000 	andeq	r0, r3, #0, 0
    3a2c:	0000c305 	andeq	ip, r0, r5, lsl #6
    3a30:	05040300 	streq	r0, [r4, #-768]	; 0xfffffd00
    3a34:	000000ae 	andeq	r0, r0, lr, lsr #1
    3a38:	a9050803 	stmdbge	r5, {r0, r1, fp}
    3a3c:	03000000 	movweq	r0, #0
    3a40:	00220801 	eoreq	r0, r2, r1, lsl #16
    3a44:	02030000 	andeq	r0, r3, #0, 0
    3a48:	00003d07 	andeq	r3, r0, r7, lsl #26
    3a4c:	07040300 	streq	r0, [r4, -r0, lsl #6]
    3a50:	00000097 	muleq	r0, r7, r0
    3a54:	92070803 	andls	r0, r7, #196608	; 0x30000
    3a58:	04000000 	streq	r0, [r0], #-0
    3a5c:	00000025 	andeq	r0, r0, r5, lsr #32
    3a60:	0000007a 	andeq	r0, r0, sl, ror r0
    3a64:	00002505 	andeq	r2, r0, r5, lsl #10
    3a68:	b7060000 	strlt	r0, [r6, -r0]
    3a6c:	02000000 	andeq	r0, r0, #0, 0
    3a70:	00860e1c 	addeq	r0, r6, ip, lsl lr
    3a74:	04070000 	streq	r0, [r7], #-0
    3a78:	0000006b 	andeq	r0, r0, fp, rrx
    3a7c:	00002504 	andeq	r2, r0, r4, lsl #10
    3a80:	00009b00 	andeq	r9, r0, r0, lsl #22
    3a84:	009b0500 	addseq	r0, fp, r0, lsl #10
    3a88:	07000000 	streq	r0, [r0, -r0]
    3a8c:	0000a804 	andeq	sl, r0, r4, lsl #16
    3a90:	08010300 	stmdaeq	r1, {r8, r9}
    3a94:	0000002b 	andeq	r0, r0, fp, lsr #32
    3a98:	0000a108 	andeq	sl, r0, r8, lsl #2
    3a9c:	079a0600 	ldreq	r0, [sl, r0, lsl #12]
    3aa0:	21020000 	mrscs	r0, (UNDEF: 2)
    3aa4:	0000b90e 	andeq	fp, r0, lr, lsl #18
    3aa8:	8c040700 	stchi	7, cr0, [r4], {-0}
    3aac:	09000000 	stmdbeq	r0, {}	; <UNPREDICTABLE>
    3ab0:	000008e5 	andeq	r0, r0, r5, ror #17
    3ab4:	50061101 	andpl	r1, r6, r1, lsl #2
    3ab8:	28000095 	stmdacs	r0, {r0, r2, r4, r7}
    3abc:	01000001 	tsteq	r0, r1
    3ac0:	0002269c 	muleq	r2, ip, r6
    3ac4:	07e00600 	strbeq	r0, [r0, r0, lsl #12]!
    3ac8:	12010000 	andne	r0, r1, #0, 0
    3acc:	00002510 	andeq	r2, r0, r0, lsl r5
    3ad0:	08120600 	ldmdaeq	r2, {r9, sl}
    3ad4:	12010000 	andne	r0, r1, #0, 0
    3ad8:	0000251f 	andeq	r2, r0, pc, lsl r5
    3adc:	001a0a00 	andseq	r0, sl, r0, lsl #20
    3ae0:	13010000 	movwne	r0, #4096	; 0x1000
    3ae4:	73620b07 	cmnvc	r2, #7168	; 0x1c00
    3ae8:	17010073 	smlsdxne	r1, r3, r0, r0
    3aec:	0002260a 	andeq	r2, r2, sl, lsl #12
    3af0:	00249d00 	eoreq	r9, r4, r0, lsl #26
    3af4:	00248500 	eoreq	r8, r4, r0, lsl #10
    3af8:	08ed0c00 	stmiaeq	sp!, {sl, fp}^
    3afc:	18010000 	stmdane	r1, {}	; <UNPREDICTABLE>
    3b00:	0002260a 	andeq	r2, r2, sl, lsl #12
    3b04:	09280d00 	stmdbeq	r8!, {r8, sl, fp}
    3b08:	25010000 	strcs	r0, [r1, #-0]
    3b0c:	00002c0e 	andeq	r2, r0, lr, lsl #24
    3b10:	00253700 	eoreq	r3, r5, r0, lsl #14
    3b14:	00253500 	eoreq	r3, r5, r0, lsl #10
    3b18:	96280e00 	strtls	r0, [r8], -r0, lsl #28
    3b1c:	00080000 	andeq	r0, r8, r0
    3b20:	014a0000 	mrseq	r0, (UNDEF: 74)
    3b24:	690b0000 	stmdbvs	fp, {}	; <UNPREDICTABLE>
    3b28:	2101006e 	tstcs	r1, lr, rrx
    3b2c:	00002c05 	andeq	r2, r0, r5, lsl #24
    3b30:	00254c00 	eoreq	r4, r5, r0, lsl #24
    3b34:	00254a00 	eoreq	r4, r5, r0, lsl #20
    3b38:	2c0f0000 	stccs	0, cr0, [pc], {-0}
    3b3c:	30000002 	andcc	r0, r0, r2
    3b40:	02000096 	andeq	r0, r0, #150, 0	; 0x96
    3b44:	00009630 	andeq	r9, r0, r0, lsr r6
    3b48:	0000000c 	andeq	r0, r0, ip
    3b4c:	99052301 	stmdbls	r5, {r0, r8, r9, sp}
    3b50:	10000001 	andne	r0, r0, r1
    3b54:	0000024f 	andeq	r0, r0, pc, asr #4
    3b58:	00002562 	andeq	r2, r0, r2, ror #10
    3b5c:	00002560 	andeq	r2, r0, r0, ror #10
    3b60:	00025b10 	andeq	r5, r2, r0, lsl fp
    3b64:	00257800 	eoreq	r7, r5, r0, lsl #16
    3b68:	00257600 	eoreq	r7, r5, r0, lsl #12
    3b6c:	02671100 	rsbeq	r1, r7, #0
    3b70:	96300000 	ldrtls	r0, [r0], -r0
    3b74:	00040000 	andeq	r0, r4, r0
    3b78:	68100000 	ldmdavs	r0, {}	; <UNPREDICTABLE>
    3b7c:	8d000002 	stchi	0, cr0, [r0, #-8]
    3b80:	8b000025 	blhi	3c1c <__code_start__-0x43e4>
    3b84:	00000025 	andeq	r0, r0, r5, lsr #32
    3b88:	022c1200 	eoreq	r1, ip, #0, 4
    3b8c:	96400000 	strbls	r0, [r0], -r0
    3b90:	58010000 	stmdapl	r1, {}	; <UNPREDICTABLE>
    3b94:	01000003 	tsteq	r0, r3
    3b98:	01ea1525 	mvneq	r1, r5, lsr #10
    3b9c:	58130000 	ldmdapl	r3, {}	; <UNPREDICTABLE>
    3ba0:	10000003 	andne	r0, r0, r3
    3ba4:	0000024f 	andeq	r0, r0, pc, asr #4
    3ba8:	000025a4 	andeq	r2, r0, r4, lsr #11
    3bac:	000025a0 	andeq	r2, r0, r0, lsr #11
    3bb0:	00025b10 	andeq	r5, r2, r0, lsl fp
    3bb4:	0025c500 	eoreq	ip, r5, r0, lsl #10
    3bb8:	0025c300 	eoreq	ip, r5, r0, lsl #6
    3bbc:	02671100 	rsbeq	r1, r7, #0
    3bc0:	96400000 	strbls	r0, [r0], -r0
    3bc4:	00040000 	andeq	r0, r4, r0
    3bc8:	68100000 	ldmdavs	r0, {}	; <UNPREDICTABLE>
    3bcc:	da000002 	ble	3bdc <__code_start__-0x4424>
    3bd0:	d8000025 	stmdale	r0, {r0, r2, r5}
    3bd4:	00000025 	andeq	r0, r0, r5, lsr #32
    3bd8:	58140000 	ldmdapl	r4, {}	; <UNPREDICTABLE>
    3bdc:	76000095 			; <UNDEFINED> instruction: 0x76000095
    3be0:	14000002 	strne	r0, [r0], #-2
    3be4:	00009628 	andeq	r9, r0, r8, lsr #12
    3be8:	00000283 	andeq	r0, r0, r3, lsl #5
    3bec:	00964014 	addseq	r4, r6, r4, lsl r0
    3bf0:	00028f00 	andeq	r8, r2, r0, lsl #30
    3bf4:	965c1500 	ldrbls	r1, [ip], -r0, lsl #10
    3bf8:	029c0000 	addseq	r0, ip, #0, 0
    3bfc:	021c0000 	andseq	r0, ip, #0, 0
    3c00:	01160000 	tsteq	r6, r0
    3c04:	e4030550 	str	r0, [r3], #-1360	; 0xfffffab0
    3c08:	0000009e 	muleq	r0, lr, r0
    3c0c:	00966014 	addseq	r6, r6, r4, lsl r0
    3c10:	0002a800 	andeq	sl, r2, r0, lsl #16
    3c14:	04070000 	streq	r0, [r7], #-0
    3c18:	00000025 	andeq	r0, r0, r5, lsr #32
    3c1c:	00092217 	andeq	r2, r9, r7, lsl r2
    3c20:	11040100 	mrsne	r0, (UNDEF: 20)
    3c24:	0000002c 	andeq	r0, r0, ip, lsr #32
    3c28:	00027601 	andeq	r7, r2, r1, lsl #12
    3c2c:	092d1800 	pusheq	{fp, ip}
    3c30:	05010000 	streq	r0, [r1, #-0]
    3c34:	00002c15 	andeq	r2, r0, r5, lsl ip
    3c38:	0c030500 	cfstr32eq	mvfx0, [r3], {-0}
    3c3c:	0c0000a3 	stceq	0, cr0, [r0], {163}	; 0xa3
    3c40:	00000928 	andeq	r0, r0, r8, lsr #18
    3c44:	2c0e0701 	stccs	7, cr0, [lr], {1}
    3c48:	19000000 	stmdbne	r0, {}	; <UNPREDICTABLE>
    3c4c:	00727563 	rsbseq	r7, r2, r3, ror #10
    3c50:	2c0e0901 			; <UNDEFINED> instruction: 0x2c0e0901
    3c54:	1a000000 	bne	3c5c <__code_start__-0x43a4>
    3c58:	00006e0c 	andeq	r6, r0, ip, lsl #28
    3c5c:	14090100 	strne	r0, [r9], #-256	; 0xffffff00
    3c60:	0000002c 	andeq	r0, r0, ip, lsr #32
    3c64:	ff1b0000 			; <UNDEFINED> instruction: 0xff1b0000
    3c68:	ff000008 			; <UNDEFINED> instruction: 0xff000008
    3c6c:	02000008 	andeq	r0, r0, #8, 0
    3c70:	1c060136 	stfnes	f0, [r6], {54}	; 0x36
    3c74:	000008f5 	strdeq	r0, [r0], -r5
    3c78:	000008f5 	strdeq	r0, [r0], -r5
    3c7c:	1b063b02 	blne	19288c <__bss_end__+0x18857c>
    3c80:	0000001a 	andeq	r0, r0, sl, lsl r0
    3c84:	0000001a 	andeq	r0, r0, sl, lsl r0
    3c88:	06010a02 	streq	r0, [r1], -r2, lsl #20
    3c8c:	0007231c 	andeq	r2, r7, ip, lsl r3
    3c90:	00072300 	andeq	r2, r7, r0, lsl #6
    3c94:	06280200 	strteq	r0, [r8], -r0, lsl #4
    3c98:	0000301c 	andeq	r3, r0, ip, lsl r0
    3c9c:	00003000 	andeq	r3, r0, r0
    3ca0:	066e0200 	strbteq	r0, [lr], -r0, lsl #4
    3ca4:	0000ce00 	andeq	ip, r0, r0, lsl #28
    3ca8:	98000400 	stmdals	r0, {sl}
    3cac:	04000010 	streq	r0, [r0], #-16
    3cb0:	00060e01 	andeq	r0, r6, r1, lsl #28
    3cb4:	09320c00 	ldmdbeq	r2!, {sl, fp}
    3cb8:	06e80000 	strbteq	r0, [r8], r0
    3cbc:	96780000 	ldrbtls	r0, [r8], -r0
    3cc0:	00040000 	andeq	r0, r4, r0
    3cc4:	1a680000 	bne	1a03ccc <__bss_end__+0x19f99bc>
    3cc8:	04020000 	streq	r0, [r2], #-0
    3ccc:	746e6905 	strbtvc	r6, [lr], #-2309	; 0xfffff6fb
    3cd0:	07040300 	streq	r0, [r4, -r0, lsl #6]
    3cd4:	0000009c 	muleq	r0, ip, r0
    3cd8:	24060103 	strcs	r0, [r6], #-259	; 0xfffffefd
    3cdc:	03000000 	movweq	r0, #0
    3ce0:	00c30502 	sbceq	r0, r3, r2, lsl #10
    3ce4:	04030000 	streq	r0, [r3], #-0
    3ce8:	0000ae05 	andeq	sl, r0, r5, lsl #28
    3cec:	05080300 	streq	r0, [r8, #-768]	; 0xfffffd00
    3cf0:	000000a9 	andeq	r0, r0, r9, lsr #1
    3cf4:	22080103 	andcs	r0, r8, #-1073741824	; 0xc0000000
    3cf8:	03000000 	movweq	r0, #0
    3cfc:	003d0702 	eorseq	r0, sp, r2, lsl #14
    3d00:	04030000 	streq	r0, [r3], #-0
    3d04:	00009707 	andeq	r9, r0, r7, lsl #14
    3d08:	07080300 	streq	r0, [r8, -r0, lsl #6]
    3d0c:	00000092 	muleq	r0, r2, r0
    3d10:	00002504 	andeq	r2, r0, r4, lsl #10
    3d14:	00007a00 	andeq	r7, r0, r0, lsl #20
    3d18:	00250500 	eoreq	r0, r5, r0, lsl #10
    3d1c:	06000000 	streq	r0, [r0], -r0
    3d20:	000000b7 	strheq	r0, [r0], -r7
    3d24:	860e1c02 	strhi	r1, [lr], -r2, lsl #24
    3d28:	07000000 	streq	r0, [r0, -r0]
    3d2c:	00006b04 	andeq	r6, r0, r4, lsl #22
    3d30:	00250400 	eoreq	r0, r5, r0, lsl #8
    3d34:	009b0000 	addseq	r0, fp, r0
    3d38:	9b050000 	blls	143d40 <__bss_end__+0x139a30>
    3d3c:	00000000 	andeq	r0, r0, r0
    3d40:	00a80407 	adceq	r0, r8, r7, lsl #8
    3d44:	01030000 	mrseq	r0, (UNDEF: 3)
    3d48:	00002b08 	andeq	r2, r0, r8, lsl #22
    3d4c:	00a10800 	adceq	r0, r1, r0, lsl #16
    3d50:	9a060000 	bls	183d58 <__bss_end__+0x179a48>
    3d54:	02000007 	andeq	r0, r0, #7, 0
    3d58:	00b90e21 	adcseq	r0, r9, r1, lsr #28
    3d5c:	04070000 	streq	r0, [r7], #-0
    3d60:	0000008c 	andeq	r0, r0, ip, lsl #1
    3d64:	0008ff09 	andeq	pc, r8, r9, lsl #30
    3d68:	06040100 	streq	r0, [r4], -r0, lsl #2
    3d6c:	00009678 	andeq	r9, r0, r8, ror r6
    3d70:	00000004 	andeq	r0, r0, r4
    3d74:	7d009c01 	stcvc	12, cr9, [r0, #-4]
    3d78:	04000002 	streq	r0, [r0], #-2
    3d7c:	00111100 	andseq	r1, r1, r0, lsl #2
    3d80:	0e010400 	cfcpyseq	mvf0, mvf1
    3d84:	0c000006 	stceq	0, cr0, [r0], {6}
    3d88:	00000974 	andeq	r0, r0, r4, ror r9
    3d8c:	000006e8 	andeq	r0, r0, r8, ror #13
    3d90:	00000388 	andeq	r0, r0, r8, lsl #7
    3d94:	00000000 	andeq	r0, r0, r0
    3d98:	00001ae9 	andeq	r1, r0, r9, ror #21
    3d9c:	69050402 	stmdbvs	r5, {r1, sl}
    3da0:	0300746e 	movweq	r7, #1134	; 0x46e
    3da4:	00000025 	andeq	r0, r0, r5, lsr #32
    3da8:	9c070404 	cfstrsls	mvf0, [r7], {4}
    3dac:	04000000 	streq	r0, [r0], #-0
    3db0:	00240601 	eoreq	r0, r4, r1, lsl #12
    3db4:	02040000 	andeq	r0, r4, #0, 0
    3db8:	0000c305 	andeq	ip, r0, r5, lsl #6
    3dbc:	05040400 	streq	r0, [r4, #-1024]	; 0xfffffc00
    3dc0:	000000ae 	andeq	r0, r0, lr, lsr #1
    3dc4:	a9050804 	stmdbge	r5, {r2, fp}
    3dc8:	04000000 	streq	r0, [r0], #-0
    3dcc:	00220801 	eoreq	r0, r2, r1, lsl #16
    3dd0:	02040000 	andeq	r0, r4, #0, 0
    3dd4:	00003d07 	andeq	r3, r0, r7, lsl #26
    3dd8:	07040400 	streq	r0, [r4, -r0, lsl #8]
    3ddc:	00000097 	muleq	r0, r7, r0
    3de0:	92070804 	andls	r0, r7, #4, 16	; 0x40000
    3de4:	05000000 	streq	r0, [r0, #-0]
    3de8:	00000025 	andeq	r0, r0, r5, lsr #32
    3dec:	0000007f 	andeq	r0, r0, pc, ror r0
    3df0:	00002506 	andeq	r2, r0, r6, lsl #10
    3df4:	b7070000 	strlt	r0, [r7, -r0]
    3df8:	02000000 	andeq	r0, r0, #0, 0
    3dfc:	008b0e1c 	addeq	r0, fp, ip, lsl lr
    3e00:	04080000 	streq	r0, [r8], #-0
    3e04:	00000070 	andeq	r0, r0, r0, ror r0
    3e08:	00002505 	andeq	r2, r0, r5, lsl #10
    3e0c:	0000a000 	andeq	sl, r0, r0
    3e10:	00a00600 	adceq	r0, r0, r0, lsl #12
    3e14:	08000000 	stmdaeq	r0, {}	; <UNPREDICTABLE>
    3e18:	0000ad04 	andeq	sl, r0, r4, lsl #26
    3e1c:	08010400 	stmdaeq	r1, {sl}
    3e20:	0000002b 	andeq	r0, r0, fp, lsr #32
    3e24:	0000a603 	andeq	sl, r0, r3, lsl #12
    3e28:	079a0700 	ldreq	r0, [sl, r0, lsl #14]
    3e2c:	21020000 	mrscs	r0, (UNDEF: 2)
    3e30:	0000be0e 	andeq	fp, r0, lr, lsl #28
    3e34:	91040800 	tstls	r4, r0, lsl #16
    3e38:	09000000 	stmdbeq	r0, {}	; <UNPREDICTABLE>
    3e3c:	00000998 	muleq	r0, r8, r9
    3e40:	31110d01 	tstcc	r1, r1, lsl #26
    3e44:	0a000000 	beq	3e4c <__code_start__-0x41b4>
    3e48:	000008b1 			; <UNDEFINED> instruction: 0x000008b1
    3e4c:	c0061f01 	andgt	r1, r6, r1, lsl #30
    3e50:	60000096 	mulvs	r0, r6, r0
    3e54:	01000000 	mrseq	r0, (UNDEF: 0)
    3e58:	0001d59c 	muleq	r1, ip, r5
    3e5c:	09bc0b00 	ldmibeq	ip!, {r8, r9, fp}
    3e60:	2c010000 	stccs	0, cr0, [r1], {-0}
    3e64:	00002c0f 	andeq	r2, r0, pc, lsl #24
    3e68:	10001c00 	andne	r1, r0, r0, lsl #24
    3e6c:	095d0b20 	ldmdbeq	sp, {r5, r8, r9, fp}^
    3e70:	2d010000 	stccs	0, cr0, [r1, #-0]
    3e74:	00002c0f 	andeq	r2, r0, pc, lsl #24
    3e78:	10002400 	andne	r2, r0, r0, lsl #8
    3e7c:	09890b20 	stmibeq	r9, {r5, r8, r9, fp}
    3e80:	2e010000 	cdpcs	0, 0, cr0, cr1, cr0, {0}
    3e84:	00002c0f 	andeq	r2, r0, pc, lsl #24
    3e88:	00000000 	andeq	r0, r0, r0
    3e8c:	09a30c5a 	stmibeq	r3!, {r1, r3, r4, r6, sl, fp}
    3e90:	2f010000 	svccs	0x00010000
    3e94:	00002c0f 	andeq	r2, r0, pc, lsl #24
    3e98:	ef0d2000 	svc	0x000d2000
    3e9c:	c0000001 	andgt	r0, r0, r1
    3ea0:	02000096 	andeq	r0, r0, #150, 0	; 0x96
    3ea4:	00000370 	andeq	r0, r0, r0, ror r3
    3ea8:	4c082001 	stcmi	0, cr2, [r8], {1}
    3eac:	0e000001 	cdpeq	0, 0, cr0, cr0, cr1, {0}
    3eb0:	00000370 	andeq	r0, r0, r0, ror r3
    3eb4:	0002000f 	andeq	r0, r2, pc
    3eb8:	0025f100 	eoreq	pc, r5, r0, lsl #2
    3ebc:	0025ed00 	eoreq	lr, r5, r0, lsl #26
    3ec0:	10000000 	andne	r0, r0, r0
    3ec4:	000001d5 	ldrdeq	r0, [r0], -r5
    3ec8:	000096d4 	ldrdeq	r9, [r0], -r4
    3ecc:	0096d401 	addseq	sp, r6, r1, lsl #8
    3ed0:	00001000 	andeq	r1, r0, r0
    3ed4:	09210100 	stmdbeq	r1!, {r8}
    3ed8:	00000173 	andeq	r0, r0, r3, ror r1
    3edc:	0001e20f 	andeq	lr, r1, pc, lsl #4
    3ee0:	00261800 	eoreq	r1, r6, r0, lsl #16
    3ee4:	00261000 	eoreq	r1, r6, r0
    3ee8:	e8110000 	ldmda	r1, {}	; <UNPREDICTABLE>
    3eec:	4f000096 	svcmi	0x00000096
    3ef0:	11000002 	tstne	r0, r2
    3ef4:	000096ec 	andeq	r9, r0, ip, ror #13
    3ef8:	0000025c 	andeq	r0, r0, ip, asr r2
    3efc:	0096f412 	addseq	pc, r6, r2, lsl r4	; <UNPREDICTABLE>
    3f00:	00026800 	andeq	r6, r2, r0, lsl #16
    3f04:	00019800 	andeq	r9, r1, r0, lsl #16
    3f08:	50011300 	andpl	r1, r1, r0, lsl #6
    3f0c:	12003a01 	andne	r3, r0, #4096	; 0x1000
    3f10:	00009700 	andeq	r9, r0, r0, lsl #14
    3f14:	00000274 	andeq	r0, r0, r4, ror r2
    3f18:	000001b8 			; <UNDEFINED> instruction: 0x000001b8
    3f1c:	05500113 	ldrbeq	r0, [r0, #-275]	; 0xfffffeed
    3f20:	1000240c 	andne	r2, r0, ip, lsl #8
    3f24:	51011320 	tstpl	r1, r0, lsr #6
    3f28:	00010c05 	andeq	r0, r1, r5, lsl #24
    3f2c:	14005a00 	strne	r5, [r0], #-2560	; 0xfffff600
    3f30:	0000970c 	andeq	r9, r0, ip, lsl #14
    3f34:	00000274 	andeq	r0, r0, r4, ror r2
    3f38:	05500113 	ldrbeq	r0, [r0, #-275]	; 0xfffffeed
    3f3c:	10001c0c 	andne	r1, r0, ip, lsl #24
    3f40:	51011320 	tstpl	r1, r0, lsr #6
    3f44:	00200c05 	eoreq	r0, r0, r5, lsl #24
    3f48:	00005a00 	andeq	r5, r0, r0, lsl #20
    3f4c:	00096515 	andeq	r6, r9, r5, lsl r5
    3f50:	06170100 	ldreq	r0, [r7], -r0, lsl #2
    3f54:	0001ef01 	andeq	lr, r1, r1, lsl #30
    3f58:	09c40900 	stmibeq	r4, {r8, fp}^
    3f5c:	18010000 	stmdane	r1, {}	; <UNPREDICTABLE>
    3f60:	0000310e 	andeq	r3, r0, lr, lsl #2
    3f64:	95160000 	ldrls	r0, [r6, #-0]
    3f68:	01000009 	tsteq	r0, r9
    3f6c:	0025050e 	eoreq	r0, r5, lr, lsl #10
    3f70:	0d010000 	stceq	0, cr0, [r1, #-0]
    3f74:	09000002 	stmdbeq	r0, {r1}
    3f78:	000009c4 	andeq	r0, r0, r4, asr #19
    3f7c:	310e0f01 	tstcc	lr, r1, lsl #30
    3f80:	00000000 	andeq	r0, r0, r0
    3f84:	0001ef17 	andeq	lr, r1, r7, lsl pc
    3f88:	00969400 	addseq	r9, r6, r0, lsl #8
    3f8c:	00001800 	andeq	r1, r0, r0, lsl #16
    3f90:	2e9c0100 	fmlcse	f0, f4, f0
    3f94:	0f000002 	svceq	0x00000002
    3f98:	00000200 	andeq	r0, r0, r0, lsl #4
    3f9c:	00002655 	andeq	r2, r0, r5, asr r6
    3fa0:	00002651 	andeq	r2, r0, r1, asr r6
    3fa4:	01d51700 	bicseq	r1, r5, r0, lsl #14
    3fa8:	96ac0000 	strtls	r0, [ip], r0
    3fac:	00140000 	andseq	r0, r4, r0
    3fb0:	9c010000 	stcls	0, cr0, [r1], {-0}
    3fb4:	0000024f 	andeq	r0, r0, pc, asr #4
    3fb8:	0001e20f 	andeq	lr, r1, pc, lsl #4
    3fbc:	00267c00 	eoreq	r7, r6, r0, lsl #24
    3fc0:	00267400 	eoreq	r7, r6, r0, lsl #8
    3fc4:	4e180000 	cdpmi	0, 1, cr0, cr8, cr0, {0}
    3fc8:	4e000009 	cdpmi	0, 0, cr0, cr0, cr9, {0}
    3fcc:	02000009 	andeq	r0, r0, #9, 0
    3fd0:	1906013b 	stmdbne	r6, {r0, r1, r3, r4, r5, r8}
    3fd4:	000008d7 	ldrdeq	r0, [r0], -r7
    3fd8:	000008d7 	ldrdeq	r0, [r0], -r7
    3fdc:	19064d02 	stmdbne	r6, {r1, r8, sl, fp, lr}
    3fe0:	0000022c 	andeq	r0, r0, ip, lsr #4
    3fe4:	0000022c 	andeq	r0, r0, ip, lsr #4
    3fe8:	19065802 	stmdbne	r6, {r1, fp, ip, lr}
    3fec:	000005c7 	andeq	r0, r0, r7, asr #11
    3ff0:	000005c7 	andeq	r0, r0, r7, asr #11
    3ff4:	0006b202 	andeq	fp, r6, r2, lsl #4
    3ff8:	0000053f 	andeq	r0, r0, pc, lsr r5
    3ffc:	12940004 	addsne	r0, r4, #4, 0
    4000:	01040000 	mrseq	r0, (UNDEF: 4)
    4004:	0000060e 	andeq	r0, r0, lr, lsl #12
    4008:	0009d30c 	andeq	sp, r9, ip, lsl #6
    400c:	0006e800 	andeq	lr, r6, r0, lsl #16
    4010:	00972000 	addseq	r2, r7, r0
    4014:	00011c00 	andeq	r1, r1, r0, lsl #24
    4018:	001c0100 	andseq	r0, ip, r0, lsl #2
    401c:	05040200 	streq	r0, [r4, #-512]	; 0xfffffe00
    4020:	00746e69 	rsbseq	r6, r4, r9, ror #28
    4024:	9c070403 	cfstrsls	mvf0, [r7], {3}
    4028:	03000000 	movweq	r0, #0
    402c:	00240601 	eoreq	r0, r4, r1, lsl #12
    4030:	02030000 	andeq	r0, r3, #0, 0
    4034:	0000c305 	andeq	ip, r0, r5, lsl #6
    4038:	05040300 	streq	r0, [r4, #-768]	; 0xfffffd00
    403c:	000000ae 	andeq	r0, r0, lr, lsr #1
    4040:	a9050803 	stmdbge	r5, {r0, r1, fp}
    4044:	03000000 	movweq	r0, #0
    4048:	00220801 	eoreq	r0, r2, r1, lsl #16
    404c:	02030000 	andeq	r0, r3, #0, 0
    4050:	00003d07 	andeq	r3, r0, r7, lsl #26
    4054:	07040300 	streq	r0, [r4, -r0, lsl #6]
    4058:	00000097 	muleq	r0, r7, r0
    405c:	92070803 	andls	r0, r7, #196608	; 0x30000
    4060:	04000000 	streq	r0, [r0], #-0
    4064:	00000025 	andeq	r0, r0, r5, lsr #32
    4068:	0000007a 	andeq	r0, r0, sl, ror r0
    406c:	00002505 	andeq	r2, r0, r5, lsl #10
    4070:	b7060000 	strlt	r0, [r6, -r0]
    4074:	02000000 	andeq	r0, r0, #0, 0
    4078:	00860e1c 	addeq	r0, r6, ip, lsl lr
    407c:	04070000 	streq	r0, [r7], #-0
    4080:	0000006b 	andeq	r0, r0, fp, rrx
    4084:	00002504 	andeq	r2, r0, r4, lsl #10
    4088:	00009b00 	andeq	r9, r0, r0, lsl #22
    408c:	009b0500 	addseq	r0, fp, r0, lsl #10
    4090:	07000000 	streq	r0, [r0, -r0]
    4094:	0000a804 	andeq	sl, r0, r4, lsl #16
    4098:	08010300 	stmdaeq	r1, {r8, r9}
    409c:	0000002b 	andeq	r0, r0, fp, lsr #32
    40a0:	0000a108 	andeq	sl, r0, r8, lsl #2
    40a4:	079a0600 	ldreq	r0, [sl, r0, lsl #12]
    40a8:	21020000 	mrscs	r0, (UNDEF: 2)
    40ac:	0000b90e 	andeq	fp, r0, lr, lsl #18
    40b0:	8c040700 	stchi	7, cr0, [r4], {-0}
    40b4:	09000000 	stmdbeq	r0, {}	; <UNPREDICTABLE>
    40b8:	000009c9 	andeq	r0, r0, r9, asr #19
    40bc:	e8061e01 	stmda	r6, {r0, r9, sl, fp, ip}
    40c0:	54000097 	strpl	r0, [r0], #-151	; 0xffffff69
    40c4:	01000000 	mrseq	r0, (UNDEF: 0)
    40c8:	00020b9c 	muleq	r2, ip, fp
    40cc:	65730a00 	ldrbvs	r0, [r3, #-2560]!	; 0xfffff600
    40d0:	1e010063 	cdpne	0, 0, cr0, cr1, cr3, {3}
    40d4:	00002c19 	andeq	r2, r0, r9, lsl ip
    40d8:	0026b900 	eoreq	fp, r6, r0, lsl #18
    40dc:	0026b500 	eoreq	fp, r6, r0, lsl #10
    40e0:	020b0b00 	andeq	r0, fp, #0, 22
    40e4:	97e80000 	strbls	r0, [r8, r0]!
    40e8:	50020000 	andpl	r0, r2, r0
    40ec:	01000004 	tsteq	r0, r4
    40f0:	180c051f 	stmdane	ip, {r0, r1, r2, r3, r4, r8, sl}
    40f4:	de000002 	cdple	0, 0, cr0, cr0, cr2, {0}
    40f8:	da000026 	ble	4198 <__code_start__-0x3e68>
    40fc:	0d000026 	stceq	0, cr0, [r0, #-152]	; 0xffffff68
    4100:	00000224 	andeq	r0, r0, r4, lsr #4
    4104:	000097fc 	strdeq	r9, [r0], -ip
    4108:	0097fc00 	addseq	pc, r7, r0, lsl #24
    410c:	00004000 	andeq	r4, r0, r0
    4110:	051c0100 	ldreq	r0, [ip, #-256]	; 0xffffff00
    4114:	0002310c 	andeq	r3, r2, ip, lsl #2
    4118:	00270b00 	eoreq	r0, r7, r0, lsl #22
    411c:	00270900 	eoreq	r0, r7, r0, lsl #18
    4120:	023c0e00 	eorseq	r0, ip, #0, 28
    4124:	27200000 	strcs	r0, [r0, -r0]!
    4128:	271e0000 	ldrcs	r0, [lr, -r0]
    412c:	550f0000 	strpl	r0, [pc, #-0]	; 4134 <__code_start__-0x3ecc>
    4130:	fc000002 	stc2	0, cr0, [r0], {2}
    4134:	02000097 	andeq	r0, r0, #151, 0	; 0x97
    4138:	000097fc 	strdeq	r9, [r0], -ip
    413c:	00000014 	andeq	r0, r0, r4, lsl r0
    4140:	9c131301 	ldcls	3, cr1, [r3], {1}
    4144:	0e000001 	cdpeq	0, 0, cr0, cr0, cr1, {0}
    4148:	00000266 	andeq	r0, r0, r6, ror #4
    414c:	00002737 	andeq	r2, r0, r7, lsr r7
    4150:	00002733 	andeq	r2, r0, r3, lsr r7
    4154:	0002710f 	andeq	r7, r2, pc, lsl #2
    4158:	00980000 	addseq	r0, r8, r0
    415c:	98000100 	stmdals	r0, {r8}
    4160:	000c0000 	andeq	r0, ip, r0
    4164:	0d010000 	stceq	0, cr0, [r1, #-0]
    4168:	00018912 	andeq	r8, r1, r2, lsl r9
    416c:	98081000 	stmdals	r8, {ip}
    4170:	052a0000 	streq	r0, [sl, #-0]!
    4174:	01110000 	tsteq	r1, r0
    4178:	040c0550 	streq	r0, [ip], #-1360	; 0xfffffab0
    417c:	00200030 	eoreq	r0, r0, r0, lsr r0
    4180:	98001200 	stmdals	r0, {r9, ip}
    4184:	05360000 	ldreq	r0, [r6, #-0]!
    4188:	10120000 	andsne	r0, r2, r0
    418c:	36000098 			; <UNDEFINED> instruction: 0x36000098
    4190:	00000005 	andeq	r0, r0, r5
    4194:	00024713 	andeq	r4, r2, r3, lsl r7
    4198:	00046800 	andeq	r6, r4, r0, lsl #16
    419c:	02481400 	subeq	r1, r8, #0, 8
    41a0:	550b0000 	strpl	r0, [fp, #-0]
    41a4:	14000002 	strne	r0, [r0], #-2
    41a8:	02000098 	andeq	r0, r0, #152, 0	; 0x98
    41ac:	00000480 	andeq	r0, r0, r0, lsl #9
    41b0:	15171501 	ldrne	r1, [r7, #-1281]	; 0xfffffaff
    41b4:	00000480 	andeq	r0, r0, r0, lsl #9
    41b8:	0002660e 	andeq	r6, r2, lr, lsl #12
    41bc:	00275700 	eoreq	r5, r7, r0, lsl #14
    41c0:	00275500 	eoreq	r5, r7, r0, lsl #10
    41c4:	02711600 	rsbseq	r1, r1, #0, 12
    41c8:	98180000 	ldmdals	r8, {}	; <UNPREDICTABLE>
    41cc:	a0010000 	andge	r0, r1, r0
    41d0:	01000004 	tsteq	r0, r4
    41d4:	01f3120d 	mvnseq	r1, sp, lsl #4
    41d8:	20100000 	andscs	r0, r0, r0
    41dc:	2a000098 	bcs	4444 <__code_start__-0x3bbc>
    41e0:	11000005 	tstne	r0, r5
    41e4:	77025001 	strvc	r5, [r2, -r1]
    41e8:	12000000 	andne	r0, r0, #0, 0
    41ec:	00009818 	andeq	r9, r0, r8, lsl r8
    41f0:	00000536 	andeq	r0, r0, r6, lsr r5
    41f4:	00982c12 	addseq	r2, r8, r2, lsl ip
    41f8:	00053600 	andeq	r3, r5, r0, lsl #12
    41fc:	00000000 	andeq	r0, r0, r0
    4200:	17000000 	strne	r0, [r0, -r0]
    4204:	0000022c 	andeq	r0, r0, ip, lsr #4
    4208:	01061b01 	tsteq	r6, r1, lsl #22
    420c:	00000224 	andeq	r0, r0, r4, lsr #4
    4210:	00736d18 	rsbseq	r6, r3, r8, lsl sp
    4214:	2c181b01 			; <UNDEFINED> instruction: 0x2c181b01
    4218:	00000000 	andeq	r0, r0, r0
    421c:	00026517 	andeq	r6, r2, r7, lsl r5
    4220:	06120100 	ldreq	r0, [r2], -r0, lsl #2
    4224:	00025501 	andeq	r5, r2, r1, lsl #10
    4228:	73751800 	cmnvc	r5, #0, 16
    422c:	18120100 	ldmdane	r2, {r8}
    4230:	0000002c 	andeq	r0, r0, ip, lsr #32
    4234:	00627219 	rsbeq	r7, r2, r9, lsl r2
    4238:	2c0e1301 	stccs	3, cr1, [lr], {1}
    423c:	1a000000 	bne	4244 <__code_start__-0x3dbc>
    4240:	00617219 	rsbeq	r7, r1, r9, lsl r2
    4244:	2c121501 	cfldr32cs	mvfx1, [r2], {1}
    4248:	00000000 	andeq	r0, r0, r0
    424c:	021d1b00 	andseq	r1, sp, #0, 22
    4250:	09010000 	stmdbeq	r1, {}	; <UNPREDICTABLE>
    4254:	00002c0a 	andeq	r2, r0, sl, lsl #24
    4258:	02710100 	rsbseq	r0, r1, #0
    425c:	75190000 	ldrvc	r0, [r9, #-0]
    4260:	0e0d0100 	adfeqe	f0, f5, f0
    4264:	0000002c 	andeq	r0, r0, ip, lsr #32
    4268:	09e71c00 	stmibeq	r7!, {sl, fp, ip}^
    426c:	04010000 	streq	r0, [r1], #-0
    4270:	00002c0a 	andeq	r2, r0, sl, lsl #24
    4274:	711d0100 	tstvc	sp, r0, lsl #2
    4278:	20000002 	andcs	r0, r0, r2
    427c:	0c000097 	stceq	0, cr0, [r0], {151}	; 0x97
    4280:	01000000 	mrseq	r0, (UNDEF: 0)
    4284:	0002a59c 	muleq	r2, ip, r5
    4288:	97281e00 	strls	r1, [r8, -r0, lsl #28]!
    428c:	052a0000 	streq	r0, [sl, #-0]!
    4290:	01110000 	tsteq	r1, r0
    4294:	040c0550 	streq	r0, [ip], #-1360	; 0xfffffab0
    4298:	00200030 	eoreq	r0, r0, r0, lsr r0
    429c:	02551d00 	subseq	r1, r5, #0, 26
    42a0:	972c0000 	strls	r0, [ip, -r0]!
    42a4:	00240000 	eoreq	r0, r4, r0
    42a8:	9c010000 	stcls	0, cr0, [r1], {-0}
    42ac:	00000305 	andeq	r0, r0, r5, lsl #6
    42b0:	0002660e 	andeq	r6, r2, lr, lsl #12
    42b4:	00276e00 	eoreq	r6, r7, r0, lsl #28
    42b8:	00276a00 	eoreq	r6, r7, r0, lsl #20
    42bc:	02710f00 	rsbseq	r0, r1, #0, 30
    42c0:	97340000 	ldrls	r0, [r4, -r0]!
    42c4:	34010000 	strcc	r0, [r1], #-0
    42c8:	0c000097 	stceq	0, cr0, [r0], {151}	; 0x97
    42cc:	01000000 	mrseq	r0, (UNDEF: 0)
    42d0:	02f2120d 	rscseq	r1, r2, #-805306368	; 0xd0000000
    42d4:	3c100000 	ldccc	0, cr0, [r0], {-0}
    42d8:	2a000097 	bcs	453c <__code_start__-0x3ac4>
    42dc:	11000005 	tstne	r0, r5
    42e0:	0c055001 	stceq	0, cr5, [r5], {1}
    42e4:	20003004 	andcs	r3, r0, r4
    42e8:	34120000 	ldrcc	r0, [r2], #-0
    42ec:	36000097 			; <UNDEFINED> instruction: 0x36000097
    42f0:	12000005 	andne	r0, r0, #5, 0
    42f4:	00009744 	andeq	r9, r0, r4, asr #14
    42f8:	00000536 	andeq	r0, r0, r6, lsr r5
    42fc:	02241d00 	eoreq	r1, r4, #0, 26
    4300:	97500000 	ldrbls	r0, [r0, -r0]
    4304:	00480000 	subeq	r0, r8, r0
    4308:	9c010000 	stcls	0, cr0, [r1], {-0}
    430c:	00000407 	andeq	r0, r0, r7, lsl #8
    4310:	0002310c 	andeq	r3, r2, ip, lsl #2
    4314:	00279000 	eoreq	r9, r7, r0
    4318:	00278c00 	eoreq	r8, r7, r0, lsl #24
    431c:	023c0e00 	eorseq	r0, ip, #0, 28
    4320:	27b00000 	ldrcs	r0, [r0, r0]!
    4324:	27ae0000 	strcs	r0, [lr, r0]!
    4328:	55160000 	ldrpl	r0, [r6, #-0]
    432c:	50000002 	andpl	r0, r0, r2
    4330:	02000097 	andeq	r0, r0, #151, 0	; 0x97
    4334:	00000398 	muleq	r0, r8, r3
    4338:	9a131301 	bls	4c8f44 <__bss_end__+0x4bec34>
    433c:	15000003 	strne	r0, [r0, #-3]
    4340:	00000398 	muleq	r0, r8, r3
    4344:	0002660e 	andeq	r6, r2, lr, lsl #12
    4348:	0027c700 	eoreq	ip, r7, r0, lsl #14
    434c:	0027c300 	eoreq	ip, r7, r0, lsl #6
    4350:	02710f00 	rsbseq	r0, r1, #0, 30
    4354:	975c0000 	ldrbls	r0, [ip, -r0]
    4358:	5c010000 	stcpl	0, cr0, [r1], {-0}
    435c:	0c000097 	stceq	0, cr0, [r0], {151}	; 0x97
    4360:	01000000 	mrseq	r0, (UNDEF: 0)
    4364:	0386120d 	orreq	r1, r6, #-805306368	; 0xd0000000
    4368:	64100000 	ldrvs	r0, [r0], #-0
    436c:	2a000097 	bcs	45d0 <__code_start__-0x3a30>
    4370:	11000005 	tstne	r0, r5
    4374:	0c055001 	stceq	0, cr5, [r5], {1}
    4378:	20003004 	andcs	r3, r0, r4
    437c:	5c120000 	ldcpl	0, cr0, [r2], {-0}
    4380:	36000097 			; <UNDEFINED> instruction: 0x36000097
    4384:	12000005 	andne	r0, r0, #5, 0
    4388:	0000976c 	andeq	r9, r0, ip, ror #14
    438c:	00000536 	andeq	r0, r0, r6, lsr r5
    4390:	47130000 	ldrmi	r0, [r3, -r0]
    4394:	b0000002 	andlt	r0, r0, r2
    4398:	14000003 	strne	r0, [r0], #-3
    439c:	00000248 	andeq	r0, r0, r8, asr #4
    43a0:	0002550b 	andeq	r5, r2, fp, lsl #10
    43a4:	00977000 	addseq	r7, r7, r0
    43a8:	03c80200 	biceq	r0, r8, #0, 4
    43ac:	15010000 	strne	r0, [r1, #-0]
    43b0:	03c81517 	biceq	r1, r8, #96468992	; 0x5c00000
    43b4:	660e0000 	strvs	r0, [lr], -r0
    43b8:	e7000002 	str	r0, [r0, -r2]
    43bc:	e5000027 	str	r0, [r0, #-39]	; 0xffffffd9
    43c0:	16000027 	strne	r0, [r0], -r7, lsr #32
    43c4:	00000271 	andeq	r0, r0, r1, ror r2
    43c8:	00009774 	andeq	r9, r0, r4, ror r7
    43cc:	0003e801 	andeq	lr, r3, r1, lsl #16
    43d0:	120d0100 	andne	r0, sp, #0
    43d4:	000003f1 	strdeq	r0, [r0], -r1
    43d8:	00977c10 	addseq	r7, r7, r0, lsl ip
    43dc:	00052a00 	andeq	r2, r5, r0, lsl #20
    43e0:	50011100 	andpl	r1, r1, r0, lsl #2
    43e4:	00007702 	andeq	r7, r0, r2, lsl #14
    43e8:	97741200 	ldrbls	r1, [r4, -r0, lsl #4]!
    43ec:	05360000 	ldreq	r0, [r6, #-0]!
    43f0:	88120000 	ldmdahi	r2, {}	; <UNPREDICTABLE>
    43f4:	36000097 			; <UNDEFINED> instruction: 0x36000097
    43f8:	00000005 	andeq	r0, r0, r5
    43fc:	1d000000 	stcne	0, cr0, [r0, #-0]
    4400:	0000020b 	andeq	r0, r0, fp, lsl #4
    4404:	00009798 	muleq	r0, r8, r7
    4408:	00000050 	andeq	r0, r0, r0, asr r0
    440c:	052a9c01 	streq	r9, [sl, #-3073]!	; 0xfffff3ff
    4410:	180c0000 	stmdane	ip, {}	; <UNPREDICTABLE>
    4414:	fe000002 	cdp2	0, 0, cr0, cr0, cr2, {0}
    4418:	fa000027 	blx	44bc <__code_start__-0x3b44>
    441c:	0d000027 	stceq	0, cr0, [r0, #-156]	; 0xffffff64
    4420:	00000224 	andeq	r0, r0, r4, lsr #4
    4424:	000097a8 	andeq	r9, r0, r8, lsr #15
    4428:	0097a800 	addseq	sl, r7, r0, lsl #16
    442c:	00004000 	andeq	r4, r0, r0
    4430:	051c0100 	ldreq	r0, [ip, #-256]	; 0xffffff00
    4434:	0002310c 	andeq	r3, r2, ip, lsl #2
    4438:	00282100 	eoreq	r2, r8, r0, lsl #2
    443c:	00281f00 	eoreq	r1, r8, r0, lsl #30
    4440:	023c0e00 	eorseq	r0, ip, #0, 28
    4444:	28360000 	ldmdacs	r6!, {}	; <UNPREDICTABLE>
    4448:	28340000 	ldmdacs	r4!, {}	; <UNPREDICTABLE>
    444c:	550f0000 	strpl	r0, [pc, #-0]	; 4454 <__code_start__-0x3bac>
    4450:	a8000002 	stmdage	r0, {r1}
    4454:	02000097 	andeq	r0, r0, #151, 0	; 0x97
    4458:	000097a8 	andeq	r9, r0, r8, lsr #15
    445c:	00000014 	andeq	r0, r0, r4, lsl r0
    4460:	bc131301 	ldclt	3, cr1, [r3], {1}
    4464:	0e000004 	cdpeq	0, 0, cr0, cr0, cr4, {0}
    4468:	00000266 	andeq	r0, r0, r6, ror #4
    446c:	0000284d 	andeq	r2, r0, sp, asr #16
    4470:	00002849 	andeq	r2, r0, r9, asr #16
    4474:	0002710f 	andeq	r7, r2, pc, lsl #2
    4478:	0097ac00 	addseq	sl, r7, r0, lsl #24
    447c:	97ac0100 	strls	r0, [ip, r0, lsl #2]!
    4480:	000c0000 	andeq	r0, ip, r0
    4484:	0d010000 	stceq	0, cr0, [r1, #-0]
    4488:	0004a912 	andeq	sl, r4, r2, lsl r9
    448c:	97b41000 	ldrls	r1, [r4, r0]!
    4490:	052a0000 	streq	r0, [sl, #-0]!
    4494:	01110000 	tsteq	r1, r0
    4498:	040c0550 	streq	r0, [ip], #-1360	; 0xfffffab0
    449c:	00200030 	eoreq	r0, r0, r0, lsr r0
    44a0:	97ac1200 	strls	r1, [ip, r0, lsl #4]!
    44a4:	05360000 	ldreq	r0, [r6, #-0]!
    44a8:	bc120000 	ldclt	0, cr0, [r2], {-0}
    44ac:	36000097 			; <UNDEFINED> instruction: 0x36000097
    44b0:	00000005 	andeq	r0, r0, r5
    44b4:	00024713 	andeq	r4, r2, r3, lsl r7
    44b8:	00040000 	andeq	r0, r4, r0
    44bc:	02481400 	subeq	r1, r8, #0, 8
    44c0:	550b0000 	strpl	r0, [fp, #-0]
    44c4:	c0000002 	andgt	r0, r0, r2
    44c8:	02000097 	andeq	r0, r0, #151, 0	; 0x97
    44cc:	00000418 	andeq	r0, r0, r8, lsl r4
    44d0:	15171501 	ldrne	r1, [r7, #-1281]	; 0xfffffaff
    44d4:	00000418 	andeq	r0, r0, r8, lsl r4
    44d8:	0002660e 	andeq	r6, r2, lr, lsl #12
    44dc:	00286d00 	eoreq	r6, r8, r0, lsl #26
    44e0:	00286b00 	eoreq	r6, r8, r0, lsl #22
    44e4:	02711600 	rsbseq	r1, r1, #0, 12
    44e8:	97c40000 	strbls	r0, [r4, r0]
    44ec:	38010000 	stmdacc	r1, {}	; <UNPREDICTABLE>
    44f0:	01000004 	tsteq	r0, r4
    44f4:	0513120d 	ldreq	r1, [r3, #-525]	; 0xfffffdf3
    44f8:	cc100000 	ldcgt	0, cr0, [r0], {-0}
    44fc:	2a000097 	bcs	4760 <__code_start__-0x38a0>
    4500:	11000005 	tstne	r0, r5
    4504:	77025001 	strvc	r5, [r2, -r1]
    4508:	12000000 	andne	r0, r0, #0, 0
    450c:	000097c4 	andeq	r9, r0, r4, asr #15
    4510:	00000536 	andeq	r0, r0, r6, lsr r5
    4514:	0097d812 	addseq	sp, r7, r2, lsl r8
    4518:	00053600 	andeq	r3, r5, r0, lsl #12
    451c:	00000000 	andeq	r0, r0, r0
    4520:	cd1f0000 	ldcgt	0, cr0, [pc, #-0]	; 4528 <__code_start__-0x3ad8>
    4524:	cd000005 	stcgt	0, cr0, [r0, #-20]	; 0xffffffec
    4528:	02000005 	andeq	r0, r0, #5, 0
    452c:	d41f0ac7 	ldrle	r0, [pc], #-2759	; 4534 <__code_start__-0x3acc>
    4530:	d4000004 	strle	r0, [r0], #-4
    4534:	02000004 	andeq	r0, r0, #4, 0
    4538:	cd0006a1 	stcgt	6, cr0, [r0, #-644]	; 0xfffffd7c
    453c:	04000005 	streq	r0, [r0], #-5
    4540:	00146300 	andseq	r6, r4, r0, lsl #6
    4544:	1e010400 	cfcpysne	mvf0, mvf1
    4548:	0c000004 	stceq	0, cr0, [r0], {4}
    454c:	00000a22 	andeq	r0, r0, r2, lsr #20
    4550:	00000a48 	andeq	r0, r0, r8, asr #20
    4554:	0000983c 	andeq	r9, r0, ip, lsr r8
    4558:	000001f0 	strdeq	r0, [r0], -r0	; <UNPREDICTABLE>
    455c:	00001dff 	strdeq	r1, [r0], -pc	; <UNPREDICTABLE>
    4560:	69050402 	stmdbvs	r5, {r1, sl}
    4564:	0300746e 	movweq	r7, #1134	; 0x46e
    4568:	009c0704 	addseq	r0, ip, r4, lsl #14
    456c:	2c040000 	stccs	0, cr0, [r4], {-0}
    4570:	03000000 	movweq	r0, #0
    4574:	00240601 	eoreq	r0, r4, r1, lsl #12
    4578:	02030000 	andeq	r0, r3, #0, 0
    457c:	0000c305 	andeq	ip, r0, r5, lsl #6
    4580:	05040300 	streq	r0, [r4, #-768]	; 0xfffffd00
    4584:	000000ae 	andeq	r0, r0, lr, lsr #1
    4588:	a9050803 	stmdbge	r5, {r0, r1, fp}
    458c:	03000000 	movweq	r0, #0
    4590:	00220801 	eoreq	r0, r2, r1, lsl #16
    4594:	02030000 	andeq	r0, r3, #0, 0
    4598:	00003d07 	andeq	r3, r0, r7, lsl #26
    459c:	02ac0500 	adceq	r0, ip, #0, 10
    45a0:	34050000 	strcc	r0, [r5], #-0
    45a4:	00006e19 	andeq	r6, r0, r9, lsl lr
    45a8:	07040300 	streq	r0, [r4, -r0, lsl #6]
    45ac:	00000097 	muleq	r0, r7, r0
    45b0:	92070803 	andls	r0, r7, #196608	; 0x30000
    45b4:	03000000 	movweq	r0, #0
    45b8:	002b0801 	eoreq	r0, fp, r1, lsl #16
    45bc:	07060000 	streq	r0, [r6, -r0]
    45c0:	00005401 	andeq	r5, r0, r1, lsl #8
    45c4:	0e0c0400 	cfcpyseq	mvf0, mvf12
    45c8:	000000c2 	andeq	r0, r0, r2, asr #1
    45cc:	00040907 	andeq	r0, r4, r7, lsl #18
    45d0:	5a070000 	bpl	1c45d8 <__bss_end__+0x1ba2c8>
    45d4:	01000003 	tsteq	r0, r3
    45d8:	00037307 	andeq	r7, r3, r7, lsl #6
    45dc:	82070400 	andhi	r0, r7, #0, 8
    45e0:	05000003 	streq	r0, [r0, #-3]
    45e4:	00039107 	andeq	r9, r3, r7, lsl #2
    45e8:	a0070600 	andge	r0, r7, r0, lsl #12
    45ec:	07000003 	streq	r0, [r0, -r3]
    45f0:	0003af07 	andeq	sl, r3, r7, lsl #30
    45f4:	be070300 	cdplt	3, 0, cr0, cr7, cr0, {0}
    45f8:	02000003 	andeq	r0, r0, #3, 0
    45fc:	0a160800 	beq	586604 <__bss_end__+0x57c2f4>
    4600:	022c0000 	eoreq	r0, ip, #0, 0
    4604:	015e0806 	cmpeq	lr, r6, lsl #16
    4608:	69090000 	stmdbvs	r9, {}	; <UNPREDICTABLE>
    460c:	0902006f 	stmdbeq	r2, {r0, r1, r2, r3, r5, r6}
    4610:	00003309 	andeq	r3, r0, r9, lsl #6
    4614:	69090000 	stmdbvs	r9, {}	; <UNPREDICTABLE>
    4618:	02007265 	andeq	r7, r0, #1342177286	; 0x50000006
    461c:	0033090a 	eorseq	r0, r3, sl, lsl #18
    4620:	09040000 	stmdbeq	r4, {}	; <UNPREDICTABLE>
    4624:	00726969 	rsbseq	r6, r2, r9, ror #18
    4628:	33091102 	movwcc	r1, #37122	; 0x9102
    462c:	08000000 	stmdaeq	r0, {}	; <UNPREDICTABLE>
    4630:	72636c09 	rsbvc	r6, r3, #2304	; 0x900
    4634:	09130200 	ldmdbeq	r3, {r9}
    4638:	00000033 	andeq	r0, r0, r3, lsr r0
    463c:	636d090c 	cmnvs	sp, #12, 18	; 0x30000
    4640:	14020072 	strne	r0, [r2], #-114	; 0xffffff8e
    4644:	00003309 	andeq	r3, r0, r9, lsl #6
    4648:	6c091000 	stcvs	0, cr1, [r9], {-0}
    464c:	02007273 	andeq	r7, r0, #805306375	; 0x30000007
    4650:	00330915 	eorseq	r0, r3, r5, lsl r9
    4654:	09140000 	ldmdbeq	r4, {}	; <UNPREDICTABLE>
    4658:	0072736d 	rsbseq	r7, r2, sp, ror #6
    465c:	33091602 	movwcc	r1, #38402	; 0x9602
    4660:	18000000 	stmdane	r0, {}	; <UNPREDICTABLE>
    4664:	000ac00a 	andeq	ip, sl, sl
    4668:	09170200 	ldmdbeq	r7, {r9}
    466c:	00000033 	andeq	r0, r0, r3, lsr r0
    4670:	0a980a1c 	beq	fe606ee8 <__bss_end__+0xfe5fcbd8>
    4674:	1b020000 	blne	8467c <__bss_end__+0x7a36c>
    4678:	00003309 	andeq	r3, r0, r9, lsl #6
    467c:	030a2000 	movweq	r2, #40960	; 0xa000
    4680:	0200000a 	andeq	r0, r0, #10, 0
    4684:	0033091d 	eorseq	r0, r3, sp, lsl r9
    4688:	0a240000 	beq	904690 <__bss_end__+0x8fa380>
    468c:	00000a7d 	andeq	r0, r0, sp, ror sl
    4690:	33091e02 	movwcc	r1, #40450	; 0x9e02
    4694:	28000000 	stmdacs	r0, {}	; <UNPREDICTABLE>
    4698:	0a820b00 	beq	fe0872a0 <__bss_end__+0xfe07cf90>
    469c:	08010000 	stmdaeq	r1, {}	; <UNPREDICTABLE>
    46a0:	00017409 	andeq	r7, r1, r9, lsl #8
    46a4:	21500400 	cmpcs	r0, r0, lsl #8
    46a8:	33040c20 	movwcc	r0, #19488	; 0x4c20
    46ac:	0d000000 	stceq	0, cr0, [r0, #-0]
    46b0:	0000016e 	andeq	r0, r0, lr, ror #2
    46b4:	000ac80b 	andeq	ip, sl, fp, lsl #16
    46b8:	23290100 			; <UNDEFINED> instruction: 0x23290100
    46bc:	0000018f 	andeq	r0, r0, pc, lsl #3
    46c0:	20215040 	eorcs	r5, r1, r0, asr #32
    46c4:	00c2040c 	sbceq	r0, r2, ip, lsl #8
    46c8:	890d0000 	stmdbhi	sp, {}	; <UNPREDICTABLE>
    46cc:	0e000001 	cdpeq	0, 0, cr0, cr0, cr1, {0}
    46d0:	000008d7 	ldrdeq	r0, [r0], -r7
    46d4:	f406cc01 			; <UNDEFINED> instruction: 0xf406cc01
    46d8:	14000099 	strne	r0, [r0], #-153	; 0xffffff67
    46dc:	01000000 	mrseq	r0, (UNDEF: 0)
    46e0:	0001b49c 	muleq	r1, ip, r4
    46e4:	99fc0f00 	ldmibls	ip!, {r8, r9, sl, fp}^
    46e8:	01b40000 			; <UNDEFINED> instruction: 0x01b40000
    46ec:	10000000 	andne	r0, r0, r0
    46f0:	00000a37 	andeq	r0, r0, r7, lsr sl
    46f4:	2505b601 	strcs	fp, [r5, #-1537]	; 0xfffff9ff
    46f8:	d4000000 	strle	r0, [r0], #-0
    46fc:	20000099 	mulcs	r0, r9, r0
    4700:	01000000 	mrseq	r0, (UNDEF: 0)
    4704:	0001eb9c 	muleq	r1, ip, fp
    4708:	99dc0f00 	ldmibls	ip, {r8, r9, sl, fp}^
    470c:	05a00000 	streq	r0, [r0, #0]!
    4710:	e4110000 	ldr	r0, [r1], #-0
    4714:	ac000099 	stcge	0, cr0, [r0], {153}	; 0x99
    4718:	12000005 	andne	r0, r0, #5, 0
    471c:	0c055001 	stceq	0, cr5, [r5], {1}
    4720:	20215064 	eorcs	r5, r1, r4, rrx
    4724:	aa100000 	bge	40472c <__bss_end__+0x3fa41c>
    4728:	0100000a 	tsteq	r0, sl
    472c:	002505b3 	strhteq	r0, [r5], -r3
    4730:	99c40000 	stmibls	r4, {}^	; <UNPREDICTABLE>
    4734:	00100000 	andseq	r0, r0, r0
    4738:	9c010000 	stcls	0, cr0, [r1], {-0}
    473c:	00000218 	andeq	r0, r0, r8, lsl r2
    4740:	0099cc0f 	addseq	ip, r9, pc, lsl #24
    4744:	0005a000 	andeq	sl, r5, r0
    4748:	99d00f00 	ldmibls	r0, {r8, r9, sl, fp}^
    474c:	03090000 	movweq	r0, #36864	; 0x9000
    4750:	0e000000 	cdpeq	0, 0, cr0, cr0, cr0, {0}
    4754:	00000787 	andeq	r0, r0, r7, lsl #15
    4758:	9406ab01 	strls	sl, [r6], #-2817	; 0xfffff4ff
    475c:	30000099 	mulcc	r0, r9, r0
    4760:	01000000 	mrseq	r0, (UNDEF: 0)
    4764:	00027c9c 	muleq	r2, ip, ip
    4768:	00631300 	rsbeq	r1, r3, r0, lsl #6
    476c:	2c19ab01 			; <UNDEFINED> instruction: 0x2c19ab01
    4770:	84000000 	strhi	r0, [r0], #-0
    4774:	80000028 	andhi	r0, r0, r8, lsr #32
    4778:	0f000028 	svceq	0x00000028
    477c:	000099a0 	andeq	r9, r0, r0, lsr #19
    4780:	000005a0 	andeq	r0, r0, r0, lsr #11
    4784:	0099a40f 	addseq	sl, r9, pc, lsl #8
    4788:	0002db00 	andeq	sp, r2, r0, lsl #22
    478c:	99b81400 	ldmibls	r8!, {sl, ip}
    4790:	05b80000 	ldreq	r0, [r8, #0]!
    4794:	02720000 	rsbseq	r0, r2, #0, 0
    4798:	01120000 	tsteq	r2, r0
    479c:	400c0550 	andmi	r0, ip, r0, asr r5
    47a0:	12202150 	eorne	r2, r0, #20
    47a4:	74055101 	strvc	r5, [r5], #-257	; 0xfffffeff
    47a8:	1aff0800 	bne	fffc67b0 <__bss_end__+0xfffbc4a0>
    47ac:	99bc0f00 	ldmibls	ip!, {r8, r9, sl, fp}
    47b0:	05a00000 	streq	r0, [r0, #0]!
    47b4:	10000000 	andne	r0, r0, r0
    47b8:	00000a8e 	andeq	r0, r0, lr, lsl #21
    47bc:	2505a301 	strcs	sl, [r5, #-769]	; 0xfffffcff
    47c0:	64000000 	strvs	r0, [r0], #-0
    47c4:	30000099 	mulcc	r0, r9, r0
    47c8:	01000000 	mrseq	r0, (UNDEF: 0)
    47cc:	0002db9c 	muleq	r2, ip, fp
    47d0:	00631500 	rsbeq	r1, r3, r0, lsl #10
    47d4:	2509a701 	strcs	sl, [r9, #-1793]	; 0xfffff8ff
    47d8:	a4000000 	strge	r0, [r0], #-0
    47dc:	a2000028 	andge	r0, r0, #40, 0	; 0x28
    47e0:	0f000028 	svceq	0x00000028
    47e4:	0000996c 	andeq	r9, r0, ip, ror #18
    47e8:	000005a0 	andeq	r0, r0, r0, lsr #11
    47ec:	0099700f 	addseq	r7, r9, pc
    47f0:	00030900 	andeq	r0, r3, r0, lsl #18
    47f4:	99801400 	stmibls	r0, {sl, ip}
    47f8:	05ac0000 	streq	r0, [ip, #0]!
    47fc:	02d10000 	sbcseq	r0, r1, #0, 0
    4800:	01120000 	tsteq	r2, r0
    4804:	400c0550 	andmi	r0, ip, r0, asr r5
    4808:	00202150 	eoreq	r2, r0, r0, asr r1
    480c:	0099880f 	addseq	r8, r9, pc, lsl #16
    4810:	0005a000 	andeq	sl, r5, r0
    4814:	29100000 	ldmdbcs	r0, {}	; <UNPREDICTABLE>
    4818:	0100000a 	tsteq	r0, sl
    481c:	00250594 	mlaeq	r5, r4, r5, r0
    4820:	99440000 	stmdbls	r4, {}^	; <UNPREDICTABLE>
    4824:	00200000 	eoreq	r0, r0, r0
    4828:	9c010000 	stcls	0, cr0, [r1], {-0}
    482c:	00000309 	andeq	r0, r0, r9, lsl #6
    4830:	00995011 	addseq	r5, r9, r1, lsl r0
    4834:	0005ac00 	andeq	sl, r5, r0, lsl #24
    4838:	50011200 	andpl	r1, r1, r0, lsl #4
    483c:	50640c05 	rsbpl	r0, r4, r5, lsl #24
    4840:	00002021 	andeq	r2, r0, r1, lsr #32
    4844:	000a0810 	andeq	r0, sl, r0, lsl r8
    4848:	058b0100 	streq	r0, [fp, #256]	; 0x100
    484c:	00000025 	andeq	r0, r0, r5, lsr #32
    4850:	0000992c 	andeq	r9, r0, ip, lsr #18
    4854:	00000018 	andeq	r0, r0, r8, lsl r0
    4858:	03379c01 	teqeq	r7, #256	; 0x100
    485c:	38110000 	ldmdacc	r1, {}	; <UNPREDICTABLE>
    4860:	ac000099 	stcge	0, cr0, [r0], {153}	; 0x99
    4864:	12000005 	andne	r0, r0, #5, 0
    4868:	0c055001 	stceq	0, cr5, [r5], {1}
    486c:	20215064 	eorcs	r5, r1, r4, rrx
    4870:	f50e0000 			; <UNDEFINED> instruction: 0xf50e0000
    4874:	01000008 	tsteq	r0, r8
    4878:	987c0645 	ldmdals	ip!, {r0, r2, r6, r9, sl}^
    487c:	00b00000 	adcseq	r0, r0, r0
    4880:	9c010000 	stcls	0, cr0, [r1], {-0}
    4884:	00000484 	andeq	r0, r0, r4, lsl #9
    4888:	0009fa16 	andeq	pc, r9, r6, lsl sl	; <UNPREDICTABLE>
    488c:	0e7e0100 	rpweqe	f0, f6, f0
    4890:	00000062 	andeq	r0, r0, r2, rrx
    4894:	8c14010e 	ldfhis	f0, [r4], {14}
    4898:	c4000098 	strgt	r0, [r0], #-152	; 0xffffff68
    489c:	73000005 	movwvc	r0, #5
    48a0:	12000003 	andne	r0, r0, #3, 0
    48a4:	3e015001 	cdpcc	0, 0, cr5, cr1, cr1, {0}
    48a8:	01510112 	cmpeq	r1, r2, lsl r1
    48ac:	98140032 	ldmdals	r4, {r1, r4, r5}
    48b0:	c4000098 	strgt	r0, [r0], #-152	; 0xffffff68
    48b4:	8b000005 	blhi	48d0 <__code_start__-0x3730>
    48b8:	12000003 	andne	r0, r0, #3, 0
    48bc:	3f015001 	svccc	0x00015001
    48c0:	01510112 	cmpeq	r1, r2, lsl r1
    48c4:	9c0f0032 	stcls	0, cr0, [pc], {50}	; 0x32
    48c8:	a0000098 	mulge	r0, r8, r0
    48cc:	14000005 	strne	r0, [r0], #-5
    48d0:	000098a8 	andeq	r9, r0, r8, lsr #17
    48d4:	0000053d 	andeq	r0, r0, sp, lsr r5
    48d8:	000003b0 			; <UNDEFINED> instruction: 0x000003b0
    48dc:	05500112 	ldrbeq	r0, [r0, #-274]	; 0xfffffeee
    48e0:	2150040c 	cmpcs	r0, ip, lsl #8
    48e4:	51011220 	tstpl	r1, r0, lsr #4
    48e8:	0f003101 	svceq	0x00003101
    48ec:	000098ac 	andeq	r9, r0, ip, lsr #17
    48f0:	000005a0 	andeq	r0, r0, r0, lsr #11
    48f4:	0098bc14 	addseq	fp, r8, r4, lsl ip
    48f8:	0005b800 	andeq	fp, r5, r0, lsl #16
    48fc:	0003d200 	andeq	sp, r3, r0, lsl #4
    4900:	50011200 	andpl	r1, r1, r0, lsl #4
    4904:	12007402 	andne	r7, r0, #33554432	; 0x2000000
    4908:	30015101 	andcc	r5, r1, r1, lsl #2
    490c:	98c81400 	stmials	r8, {sl, ip}^
    4910:	05b80000 	ldreq	r0, [r8, #0]!
    4914:	03ee0000 	mvneq	r0, #0, 0
    4918:	01120000 	tsteq	r2, r0
    491c:	440c0550 	strmi	r0, [ip], #-1360	; 0xfffffab0
    4920:	12202150 	eorne	r2, r0, #20
    4924:	30015101 	andcc	r5, r1, r1, lsl #2
    4928:	98d41400 	ldmls	r4, {sl, ip}^
    492c:	05b80000 	ldreq	r0, [r8, #0]!
    4930:	040a0000 	streq	r0, [sl], #-0
    4934:	01120000 	tsteq	r2, r0
    4938:	4c0c0550 	cfstr32mi	mvfx0, [ip], {80}	; 0x50
    493c:	12202150 	eorne	r2, r0, #20
    4940:	33015101 	movwcc	r5, #4353	; 0x1101
    4944:	98e01400 	stmials	r0!, {sl, ip}^
    4948:	05b80000 	ldreq	r0, [r8, #0]!
    494c:	04260000 	strteq	r0, [r6], #-0
    4950:	01120000 	tsteq	r2, r0
    4954:	500c0550 	andpl	r0, ip, r0, asr r5
    4958:	12202150 	eorne	r2, r0, #20
    495c:	30015101 	andcc	r5, r1, r1, lsl #2
    4960:	98ec1400 	stmials	ip!, {sl, ip}^
    4964:	05b80000 	ldreq	r0, [r8, #0]!
    4968:	04430000 	strbeq	r0, [r3], #-0
    496c:	01120000 	tsteq	r2, r0
    4970:	480c0550 	stmdami	ip, {r4, r6, r8, sl}
    4974:	12202150 	eorne	r2, r0, #20
    4978:	08025101 	stmdaeq	r2, {r0, r8, ip, lr}
    497c:	f81400c7 			; <UNDEFINED> instruction: 0xf81400c7
    4980:	b8000098 	stmdalt	r0, {r3, r4, r7}
    4984:	61000005 	tstvs	r0, r5
    4988:	12000004 	andne	r0, r0, #4, 0
    498c:	0c055001 	stceq	0, cr5, [r5], {1}
    4990:	20215068 	eorcs	r5, r1, r8, rrx
    4994:	03510112 	cmpeq	r1, #-2147483644	; 0x80000004
    4998:	00010e0a 	andeq	r0, r1, sl, lsl #28
    499c:	00990414 	addseq	r0, r9, r4, lsl r4
    49a0:	0005b800 	andeq	fp, r5, r0, lsl #16
    49a4:	00047a00 	andeq	r7, r4, r0, lsl #20
    49a8:	50011200 	andpl	r1, r1, r0, lsl #4
    49ac:	12007402 	andne	r7, r0, #33554432	; 0x2000000
    49b0:	33015101 	movwcc	r5, #4353	; 0x1101
    49b4:	99080f00 	stmdbls	r8, {r8, r9, sl, fp}
    49b8:	05a00000 	streq	r0, [r0, #0]!
    49bc:	0e000000 	cdpeq	0, 0, cr0, cr0, cr0, {0}
    49c0:	00000a9d 	muleq	r0, sp, sl
    49c4:	08063501 	stmdaeq	r6, {r0, r8, sl, ip, sp}
    49c8:	2400009a 	strcs	r0, [r0], #-154	; 0xffffff66
    49cc:	01000000 	mrseq	r0, (UNDEF: 0)
    49d0:	0004d39c 	muleq	r4, ip, r3
    49d4:	9a100f00 	bls	4085dc <__bss_end__+0x3fe2cc>
    49d8:	01940000 	orrseq	r0, r4, r0
    49dc:	140f0000 	strne	r0, [pc], #-0	; 49e4 <__code_start__-0x361c>
    49e0:	a000009a 	mulge	r0, sl, r0
    49e4:	14000005 	strne	r0, [r0], #-5
    49e8:	00009a20 	andeq	r9, r0, r0, lsr #20
    49ec:	000004d3 	ldrdeq	r0, [r0], -r3
    49f0:	000004c9 	andeq	r0, r0, r9, asr #9
    49f4:	05500112 	ldrbeq	r0, [r0, #-274]	; 0xfffffeee
    49f8:	2150040c 	cmpcs	r0, ip, lsl #8
    49fc:	51011220 	tstpl	r1, r0, lsr #4
    4a00:	00fe0902 	rscseq	r0, lr, r2, lsl #18
    4a04:	009a240f 	addseq	r2, sl, pc, lsl #8
    4a08:	0005a000 	andeq	sl, r5, r0
    4a0c:	cd170000 	ldcgt	0, cr0, [r7, #-0]
    4a10:	0100000a 	tsteq	r0, sl
    4a14:	983c0d31 	ldmdals	ip!, {r0, r4, r5, r8, sl, fp}
    4a18:	00200000 	eoreq	r0, r0, r0
    4a1c:	9c010000 	stcls	0, cr0, [r1], {-0}
    4a20:	00000536 	andeq	r0, r0, r6, lsr r5
    4a24:	00010118 	andeq	r0, r1, r8, lsl r1
    4a28:	25310100 	ldrcs	r0, [r1, #-256]!	; 0xffffff00
    4a2c:	00000536 	andeq	r0, r0, r6, lsr r5
    4a30:	000028bb 			; <UNDEFINED> instruction: 0x000028bb
    4a34:	000028b7 			; <UNDEFINED> instruction: 0x000028b7
    4a38:	6c617613 	stclvs	6, cr7, [r1], #-76	; 0xffffffb4
    4a3c:	34310100 	ldrtcc	r0, [r1], #-256	; 0xffffff00
    4a40:	0000002c 	andeq	r0, r0, ip, lsr #32
    4a44:	000028dd 	ldrdeq	r2, [r0], -sp
    4a48:	000028d9 	ldrdeq	r2, [r0], -r9
    4a4c:	00984c14 	addseq	r4, r8, r4, lsl ip
    4a50:	0005ac00 	andeq	sl, r5, r0, lsl #24
    4a54:	00052500 	andeq	r2, r5, r0, lsl #10
    4a58:	50011200 	andpl	r1, r1, r0, lsl #4
    4a5c:	00007402 	andeq	r7, r0, r2, lsl #8
    4a60:	00985811 	addseq	r5, r8, r1, lsl r8
    4a64:	0005b800 	andeq	fp, r5, r0, lsl #16
    4a68:	50011200 	andpl	r1, r1, r0, lsl #4
    4a6c:	00007402 	andeq	r7, r0, r2, lsl #8
    4a70:	3c040c00 	stccc	12, cr0, [r4], {-0}
    4a74:	19000005 	stmdbne	r0, {r0, r2}
    4a78:	000ab817 	andeq	fp, sl, r7, lsl r8
    4a7c:	0d2e0100 	stfeqs	f0, [lr, #-0]
    4a80:	0000985c 	andeq	r9, r0, ip, asr r8
    4a84:	00000020 	andeq	r0, r0, r0, lsr #32
    4a88:	05a09c01 	streq	r9, [r0, #3073]!	; 0xc01
    4a8c:	01180000 	tsteq	r8, r0
    4a90:	01000001 	tsteq	r0, r1
    4a94:	0536242e 	ldreq	r2, [r6, #-1070]!	; 0xfffffbd2
    4a98:	28ff0000 	ldmcs	pc!, {}^	; <UNPREDICTABLE>
    4a9c:	28fb0000 	ldmcs	fp!, {}^	; <UNPREDICTABLE>
    4aa0:	76130000 	ldrvc	r0, [r3], -r0
    4aa4:	01006c61 	tsteq	r0, r1, ror #24
    4aa8:	002c332e 	eoreq	r3, ip, lr, lsr #6
    4aac:	29210000 	stmdbcs	r1!, {}	; <UNPREDICTABLE>
    4ab0:	291d0000 	ldmdbcs	sp, {}	; <UNPREDICTABLE>
    4ab4:	6c140000 	ldcvs	0, cr0, [r4], {-0}
    4ab8:	ac000098 	stcge	0, cr0, [r0], {152}	; 0x98
    4abc:	8f000005 	svchi	0x00000005
    4ac0:	12000005 	andne	r0, r0, #5, 0
    4ac4:	74025001 	strvc	r5, [r2], #-1
    4ac8:	78110000 	ldmdavc	r1, {}	; <UNPREDICTABLE>
    4acc:	b8000098 	stmdalt	r0, {r3, r4, r7}
    4ad0:	12000005 	andne	r0, r0, #5, 0
    4ad4:	74025001 	strvc	r5, [r2], #-1
    4ad8:	1a000000 	bne	4ae0 <__code_start__-0x3520>
    4adc:	000004d4 	ldrdeq	r0, [r0], -r4
    4ae0:	000004d4 	ldrdeq	r0, [r0], -r4
    4ae4:	1a06a103 	bne	1acef8 <__bss_end__+0x1a2be8>
    4ae8:	000004e0 	andeq	r0, r0, r0, ror #9
    4aec:	000004e0 	andeq	r0, r0, r0, ror #9
    4af0:	1a0bc803 	bne	2f6b04 <__bss_end__+0x2ec7f4>
    4af4:	000003dd 	ldrdeq	r0, [r0], -sp
    4af8:	000003dd 	ldrdeq	r0, [r0], -sp
    4afc:	1a06b303 	bne	1b1710 <__bss_end__+0x1a7400>
    4b00:	0000052d 	andeq	r0, r0, sp, lsr #10
    4b04:	0000052d 	andeq	r0, r0, sp, lsr #10
    4b08:	00061904 	andeq	r1, r6, r4, lsl #18
    4b0c:	00000137 	andeq	r0, r0, r7, lsr r1
    4b10:	15fb0004 	ldrbne	r0, [fp, #4]!
    4b14:	01040000 	mrseq	r0, (UNDEF: 4)
    4b18:	0000060e 	andeq	r0, r0, lr, lsl #12
    4b1c:	000adb0c 	andeq	sp, sl, ip, lsl #22
    4b20:	0006e800 	andeq	lr, r6, r0, lsl #16
    4b24:	009a2c00 	addseq	r2, sl, r0, lsl #24
    4b28:	00002c00 	andeq	r2, r0, r0, lsl #24
    4b2c:	00200800 	eoreq	r0, r0, r0, lsl #16
    4b30:	05040200 	streq	r0, [r4, #-512]	; 0xfffffe00
    4b34:	00746e69 	rsbseq	r6, r4, r9, ror #28
    4b38:	9c070403 	cfstrsls	mvf0, [r7], {3}
    4b3c:	03000000 	movweq	r0, #0
    4b40:	00240601 	eoreq	r0, r4, r1, lsl #12
    4b44:	02030000 	andeq	r0, r3, #0, 0
    4b48:	0000c305 	andeq	ip, r0, r5, lsl #6
    4b4c:	05040300 	streq	r0, [r4, #-768]	; 0xfffffd00
    4b50:	000000ae 	andeq	r0, r0, lr, lsr #1
    4b54:	a9050803 	stmdbge	r5, {r0, r1, fp}
    4b58:	03000000 	movweq	r0, #0
    4b5c:	00220801 	eoreq	r0, r2, r1, lsl #16
    4b60:	02030000 	andeq	r0, r3, #0, 0
    4b64:	00003d07 	andeq	r3, r0, r7, lsl #26
    4b68:	07040300 	streq	r0, [r4, -r0, lsl #6]
    4b6c:	00000097 	muleq	r0, r7, r0
    4b70:	92070803 	andls	r0, r7, #196608	; 0x30000
    4b74:	04000000 	streq	r0, [r0], #-0
    4b78:	00000025 	andeq	r0, r0, r5, lsr #32
    4b7c:	0000007a 	andeq	r0, r0, sl, ror r0
    4b80:	00002505 	andeq	r2, r0, r5, lsl #10
    4b84:	b7060000 	strlt	r0, [r6, -r0]
    4b88:	02000000 	andeq	r0, r0, #0, 0
    4b8c:	00860e1c 	addeq	r0, r6, ip, lsl lr
    4b90:	04070000 	streq	r0, [r7], #-0
    4b94:	0000006b 	andeq	r0, r0, fp, rrx
    4b98:	00002504 	andeq	r2, r0, r4, lsl #10
    4b9c:	00009b00 	andeq	r9, r0, r0, lsl #22
    4ba0:	009b0500 	addseq	r0, fp, r0, lsl #10
    4ba4:	07000000 	streq	r0, [r0, -r0]
    4ba8:	0000a804 	andeq	sl, r0, r4, lsl #16
    4bac:	08010300 	stmdaeq	r1, {r8, r9}
    4bb0:	0000002b 	andeq	r0, r0, fp, lsr #32
    4bb4:	0000a108 	andeq	sl, r0, r8, lsl #2
    4bb8:	079a0600 	ldreq	r0, [sl, r0, lsl #12]
    4bbc:	21020000 	mrscs	r0, (UNDEF: 2)
    4bc0:	0000b90e 	andeq	fp, r0, lr, lsl #18
    4bc4:	8c040700 	stchi	7, cr0, [r4], {-0}
    4bc8:	09000000 	stmdbeq	r0, {}	; <UNPREDICTABLE>
    4bcc:	00000846 	andeq	r0, r0, r6, asr #16
    4bd0:	34070401 	strcc	r0, [r7], #-1025	; 0xfffffbff
    4bd4:	2c000001 	stccs	0, cr0, [r0], {1}
    4bd8:	2c00009a 	stccs	0, cr0, [r0], {154}	; 0x9a
    4bdc:	01000000 	mrseq	r0, (UNDEF: 0)
    4be0:	0001349c 	muleq	r1, ip, r4
    4be4:	0ad60a00 	beq	ff5873ec <__bss_end__+0xff57d0dc>
    4be8:	04010000 	streq	r0, [r1], #-0
    4bec:	00013415 	andeq	r3, r1, r5, lsl r4
    4bf0:	0b500100 	bleq	1404ff8 <__bss_end__+0x13face8>
    4bf4:	00637273 	rsbeq	r7, r3, r3, ror r2
    4bf8:	9b270401 	blls	9c5c04 <__bss_end__+0x9bb8f4>
    4bfc:	43000000 	movwmi	r0, #0
    4c00:	3f000029 	svccc	0x00000029
    4c04:	0c000029 	stceq	0, cr0, [r0], {41}	; 0x29
    4c08:	01003173 	tsteq	r0, r3, ror r1
    4c0c:	01340b05 	teqeq	r4, r5, lsl #22
    4c10:	29720000 	ldmdbcs	r2!, {}^	; <UNPREDICTABLE>
    4c14:	29640000 	stmdbcs	r4!, {}^	; <UNPREDICTABLE>
    4c18:	730c0000 	movwvc	r0, #49152	; 0xc000
    4c1c:	06010032 			; <UNDEFINED> instruction: 0x06010032
    4c20:	00009b11 	andeq	r9, r0, r1, lsl fp
    4c24:	0029d100 	eoreq	sp, r9, r0, lsl #2
    4c28:	0029cb00 	eoreq	ip, r9, r0, lsl #22
    4c2c:	00630c00 	rsbeq	r0, r3, r0, lsl #24
    4c30:	a10a0701 	tstge	sl, r1, lsl #14
    4c34:	02000000 	andeq	r0, r0, #0, 0
    4c38:	fc00002a 	stc2	0, cr0, [r0], {42}	; 0x2a
    4c3c:	00000029 	andeq	r0, r0, r9, lsr #32
    4c40:	00a10407 	adceq	r0, r1, r7, lsl #8
    4c44:	f7000000 			; <UNDEFINED> instruction: 0xf7000000
    4c48:	04000000 	streq	r0, [r0], #-0
    4c4c:	0016b100 	andseq	fp, r6, r0, lsl #2
    4c50:	0e010400 	cfcpyseq	mvf0, mvf1
    4c54:	0c000006 	stceq	0, cr0, [r0], {6}
    4c58:	00000aeb 	andeq	r0, r0, fp, ror #21
    4c5c:	000006e8 	andeq	r0, r0, r8, ror #13
    4c60:	00009a58 	andeq	r9, r0, r8, asr sl
    4c64:	00000044 	andeq	r0, r0, r4, asr #32
    4c68:	000020ee 	andeq	r2, r0, lr, ror #1
    4c6c:	69050402 	stmdbvs	r5, {r1, sl}
    4c70:	0300746e 	movweq	r7, #1134	; 0x46e
    4c74:	009c0704 	addseq	r0, ip, r4, lsl #14
    4c78:	01030000 	mrseq	r0, (UNDEF: 3)
    4c7c:	00002406 	andeq	r2, r0, r6, lsl #8
    4c80:	05020300 	streq	r0, [r2, #-768]	; 0xfffffd00
    4c84:	000000c3 	andeq	r0, r0, r3, asr #1
    4c88:	ae050403 	cdpge	4, 0, cr0, cr5, cr3, {0}
    4c8c:	03000000 	movweq	r0, #0
    4c90:	00a90508 	adceq	r0, r9, r8, lsl #10
    4c94:	01030000 	mrseq	r0, (UNDEF: 3)
    4c98:	00002208 	andeq	r2, r0, r8, lsl #4
    4c9c:	07020300 	streq	r0, [r2, -r0, lsl #6]
    4ca0:	0000003d 	andeq	r0, r0, sp, lsr r0
    4ca4:	97070403 	strls	r0, [r7, -r3, lsl #8]
    4ca8:	03000000 	movweq	r0, #0
    4cac:	00920708 	addseq	r0, r2, r8, lsl #14
    4cb0:	25040000 	strcs	r0, [r4, #-0]
    4cb4:	7a000000 	bvc	4cbc <__code_start__-0x3344>
    4cb8:	05000000 	streq	r0, [r0, #-0]
    4cbc:	00000025 	andeq	r0, r0, r5, lsr #32
    4cc0:	00b70600 	adcseq	r0, r7, r0, lsl #12
    4cc4:	1c020000 	stcne	0, cr0, [r2], {-0}
    4cc8:	0000860e 	andeq	r8, r0, lr, lsl #12
    4ccc:	6b040700 	blvs	1068d4 <__bss_end__+0xfc5c4>
    4cd0:	04000000 	streq	r0, [r0], #-0
    4cd4:	00000025 	andeq	r0, r0, r5, lsr #32
    4cd8:	0000009b 	muleq	r0, fp, r0
    4cdc:	00009b05 	andeq	r9, r0, r5, lsl #22
    4ce0:	04070000 	streq	r0, [r7], #-0
    4ce4:	000000a8 	andeq	r0, r0, r8, lsr #1
    4ce8:	2b080103 	blcs	2050fc <__bss_end__+0x1fadec>
    4cec:	08000000 	stmdaeq	r0, {}	; <UNPREDICTABLE>
    4cf0:	000000a1 	andeq	r0, r0, r1, lsr #1
    4cf4:	00079a06 	andeq	r9, r7, r6, lsl #20
    4cf8:	0e210200 	cdpeq	2, 2, cr0, cr1, cr0, {0}
    4cfc:	000000b9 	strheq	r0, [r0], -r9
    4d00:	008c0407 	addeq	r0, ip, r7, lsl #8
    4d04:	7c090000 	stcvc	0, cr0, [r9], {-0}
    4d08:	01000008 	tsteq	r0, r8
    4d0c:	00250503 	eoreq	r0, r5, r3, lsl #10
    4d10:	9a580000 	bls	1604d18 <__bss_end__+0x15faa08>
    4d14:	00440000 	subeq	r0, r4, r0
    4d18:	9c010000 	stcls	0, cr0, [r1], {-0}
    4d1c:	0100610a 	tsteq	r0, sl, lsl #2
    4d20:	009b1803 	addseq	r1, fp, r3, lsl #16
    4d24:	2a390000 	bcs	e44d2c <__bss_end__+0xe3aa1c>
    4d28:	2a2d0000 	bcs	b44d30 <__bss_end__+0xb3aa20>
    4d2c:	620a0000 	andvs	r0, sl, #0, 0
    4d30:	27030100 	strcs	r0, [r3, -r0, lsl #2]
    4d34:	0000009b 	muleq	r0, fp, r0
    4d38:	00002a8d 	andeq	r2, r0, sp, lsl #21
    4d3c:	00002a87 	andeq	r2, r0, r7, lsl #21
    4d40:	010f0000 	mrseq	r0, CPSR
    4d44:	00040000 	andeq	r0, r4, r0
    4d48:	00001740 	andeq	r1, r0, r0, asr #14
    4d4c:	060e0104 	streq	r0, [lr], -r4, lsl #2
    4d50:	fb0c0000 	blx	304d5a <__bss_end__+0x2faa4a>
    4d54:	e800000a 	stmda	r0, {r1, r3}
    4d58:	9c000006 	stcls	0, cr0, [r0], {6}
    4d5c:	1800009a 	stmdane	r0, {r1, r3, r4, r7}
    4d60:	a4000000 	strge	r0, [r0], #-0
    4d64:	02000021 	andeq	r0, r0, #33, 0	; 0x21
    4d68:	6e690504 	cdpvs	5, 6, cr0, cr9, cr4, {0}
    4d6c:	04030074 	streq	r0, [r3], #-116	; 0xffffff8c
    4d70:	00009c07 	andeq	r9, r0, r7, lsl #24
    4d74:	06010300 	streq	r0, [r1], -r0, lsl #6
    4d78:	00000024 	andeq	r0, r0, r4, lsr #32
    4d7c:	c3050203 	movwgt	r0, #20995	; 0x5203
    4d80:	03000000 	movweq	r0, #0
    4d84:	00ae0504 	adceq	r0, lr, r4, lsl #10
    4d88:	08030000 	stmdaeq	r3, {}	; <UNPREDICTABLE>
    4d8c:	0000a905 	andeq	sl, r0, r5, lsl #18
    4d90:	08010300 	stmdaeq	r1, {r8, r9}
    4d94:	00000022 	andeq	r0, r0, r2, lsr #32
    4d98:	3d070203 	sfmcc	f0, 4, [r7, #-12]
    4d9c:	03000000 	movweq	r0, #0
    4da0:	00970704 	addseq	r0, r7, r4, lsl #14
    4da4:	08030000 	stmdaeq	r3, {}	; <UNPREDICTABLE>
    4da8:	00009207 	andeq	r9, r0, r7, lsl #4
    4dac:	00250400 	eoreq	r0, r5, r0, lsl #8
    4db0:	007a0000 	rsbseq	r0, sl, r0
    4db4:	25050000 	strcs	r0, [r5, #-0]
    4db8:	00000000 	andeq	r0, r0, r0
    4dbc:	0000b706 	andeq	fp, r0, r6, lsl #14
    4dc0:	0e1c0200 	cdpeq	2, 1, cr0, cr12, cr0, {0}
    4dc4:	00000086 	andeq	r0, r0, r6, lsl #1
    4dc8:	006b0407 	rsbeq	r0, fp, r7, lsl #8
    4dcc:	25040000 	strcs	r0, [r4, #-0]
    4dd0:	9b000000 	blls	4dd8 <__code_start__-0x3228>
    4dd4:	05000000 	streq	r0, [r0, #-0]
    4dd8:	0000009b 	muleq	r0, fp, r0
    4ddc:	a8040700 	stmdage	r4, {r8, r9, sl}
    4de0:	03000000 	movweq	r0, #0
    4de4:	002b0801 	eoreq	r0, fp, r1, lsl #16
    4de8:	a1080000 	mrsge	r0, (UNDEF: 8)
    4dec:	06000000 	streq	r0, [r0], -r0
    4df0:	0000079a 	muleq	r0, sl, r7
    4df4:	b90e2102 	stmdblt	lr, {r1, r8, sp}
    4df8:	07000000 	streq	r0, [r0, -r0]
    4dfc:	00008c04 	andeq	r8, r0, r4, lsl #24
    4e00:	084d0900 	stmdaeq	sp, {r8, fp}^
    4e04:	03010000 	movweq	r0, #4096	; 0x1000
    4e08:	00010c07 	andeq	r0, r1, r7, lsl #24
    4e0c:	009a9c00 	addseq	r9, sl, r0, lsl #24
    4e10:	00001800 	andeq	r1, r0, r0, lsl #16
    4e14:	0c9c0100 	ldfeqs	f0, [ip], {0}
    4e18:	0a000001 	beq	4e24 <__code_start__-0x31dc>
    4e1c:	01003173 	tsteq	r0, r3, ror r1
    4e20:	010c1503 	tsteq	ip, r3, lsl #10
    4e24:	50010000 	andpl	r0, r1, r0
    4e28:	0032730b 	eorseq	r7, r2, fp, lsl #6
    4e2c:	9b260301 	blls	985a38 <__bss_end__+0x97b728>
    4e30:	bc000000 	stclt	0, cr0, [r0], {-0}
    4e34:	b600002a 	strlt	r0, [r0], -sl, lsr #32
    4e38:	0c00002a 	stceq	0, cr0, [r0], {42}	; 0x2a
    4e3c:	04010073 	streq	r0, [r1], #-115	; 0xffffff8d
    4e40:	00010c14 	andeq	r0, r1, r4, lsl ip
    4e44:	002ae900 	eoreq	lr, sl, r0, lsl #18
    4e48:	002ae700 	eoreq	lr, sl, r0, lsl #14
    4e4c:	04070000 	streq	r0, [r7], #-0
    4e50:	000000a1 	andeq	r0, r0, r1, lsr #1
    4e54:	00014e00 	andeq	r4, r1, r0, lsl #28
    4e58:	f6000400 			; <UNDEFINED> instruction: 0xf6000400
    4e5c:	04000017 	streq	r0, [r0], #-23	; 0xffffffe9
    4e60:	00060e01 	andeq	r0, r6, r1, lsl #28
    4e64:	0b120c00 	bleq	487e6c <__bss_end__+0x47db5c>
    4e68:	06e80000 	strbteq	r0, [r8], r0
    4e6c:	9ab40000 	bls	fed04e74 <__bss_end__+0xfecfab64>
    4e70:	00300000 	eorseq	r0, r0, r0
    4e74:	22450000 	subcs	r0, r5, #0, 0
    4e78:	04020000 	streq	r0, [r2], #-0
    4e7c:	746e6905 	strbtvc	r6, [lr], #-2309	; 0xfffff6fb
    4e80:	0b0b0300 	bleq	2c5a88 <__bss_end__+0x2bb778>
    4e84:	d1030000 	mrsle	r0, (UNDEF: 3)
    4e88:	00003817 	andeq	r3, r0, r7, lsl r8
    4e8c:	07040400 	streq	r0, [r4, -r0, lsl #8]
    4e90:	0000009c 	muleq	r0, ip, r0
    4e94:	24060104 	strcs	r0, [r6], #-260	; 0xfffffefc
    4e98:	04000000 	streq	r0, [r0], #-0
    4e9c:	00c30502 	sbceq	r0, r3, r2, lsl #10
    4ea0:	04040000 	streq	r0, [r4], #-0
    4ea4:	0000ae05 	andeq	sl, r0, r5, lsl #28
    4ea8:	05080400 	streq	r0, [r8, #-1024]	; 0xfffffc00
    4eac:	000000a9 	andeq	r0, r0, r9, lsr #1
    4eb0:	22080104 	andcs	r0, r8, #1
    4eb4:	05000000 	streq	r0, [r0, #-0]
    4eb8:	0000005b 	andeq	r0, r0, fp, asr r0
    4ebc:	3d070204 	sfmcc	f0, 4, [r7, #-16]
    4ec0:	04000000 	streq	r0, [r0], #-0
    4ec4:	00970704 	addseq	r0, r7, r4, lsl #14
    4ec8:	08040000 	stmdaeq	r4, {}	; <UNPREDICTABLE>
    4ecc:	00009207 	andeq	r9, r0, r7, lsl #4
    4ed0:	00250600 	eoreq	r0, r5, r0, lsl #12
    4ed4:	008b0000 	addeq	r0, fp, r0
    4ed8:	25070000 	strcs	r0, [r7, #-0]
    4edc:	00000000 	andeq	r0, r0, r0
    4ee0:	0000b708 	andeq	fp, r0, r8, lsl #14
    4ee4:	0e1c0200 	cdpeq	2, 1, cr0, cr12, cr0, {0}
    4ee8:	00000097 	muleq	r0, r7, r0
    4eec:	007c0409 	rsbseq	r0, ip, r9, lsl #8
    4ef0:	25060000 	strcs	r0, [r6, #-0]
    4ef4:	ac000000 	stcge	0, cr0, [r0], {-0}
    4ef8:	07000000 	streq	r0, [r0, -r0]
    4efc:	000000ac 	andeq	r0, r0, ip, lsr #1
    4f00:	b9040900 	stmdblt	r4, {r8, fp}
    4f04:	04000000 	streq	r0, [r0], #-0
    4f08:	002b0801 	eoreq	r0, fp, r1, lsl #16
    4f0c:	b2050000 	andlt	r0, r5, #0, 0
    4f10:	08000000 	stmdaeq	r0, {}	; <UNPREDICTABLE>
    4f14:	0000079a 	muleq	r0, sl, r7
    4f18:	ca0e2102 	bgt	38d328 <__bss_end__+0x383018>
    4f1c:	09000000 	stmdbeq	r0, {}	; <UNPREDICTABLE>
    4f20:	00009d04 	andeq	r9, r0, r4, lsl #26
    4f24:	08a40a00 	stmiaeq	r4!, {r9, fp}
    4f28:	04010000 	streq	r0, [r1], #-0
    4f2c:	00002505 	andeq	r2, r0, r5, lsl #10
    4f30:	009ab400 	addseq	fp, sl, r0, lsl #8
    4f34:	00003000 	andeq	r3, r0, r0
    4f38:	4b9c0100 	blmi	fe705340 <__bss_end__+0xfe6fb030>
    4f3c:	0b000001 	bleq	4f48 <__code_start__-0x30b8>
    4f40:	0031735f 	eorseq	r7, r1, pc, asr r3
    4f44:	ac190401 	cfldrsge	mvf0, [r9], {1}
    4f48:	00000000 	andeq	r0, r0, r0
    4f4c:	fc00002b 	stc2	0, cr0, [r0], {43}	; 0x2b
    4f50:	0b00002a 	bleq	5000 <__code_start__-0x3000>
    4f54:	0032735f 	eorseq	r7, r2, pc, asr r3
    4f58:	ac2a0401 	cfstrsge	mvf0, [sl], #-4
    4f5c:	25000000 	strcs	r0, [r0, #-0]
    4f60:	2100002b 	tstcs	r0, fp, lsr #32
    4f64:	0b00002b 	bleq	5018 <__code_start__-0x2fe8>
    4f68:	0401006e 	streq	r0, [r1], #-110	; 0xffffff92
    4f6c:	00002c36 	andeq	r2, r0, r6, lsr ip
    4f70:	002b5000 	eoreq	r5, fp, r0
    4f74:	002b4600 	eoreq	r4, fp, r0, lsl #12
    4f78:	31730c00 	cmncc	r3, r0, lsl #24
    4f7c:	1a050100 	bne	145384 <__bss_end__+0x13b074>
    4f80:	0000014b 	andeq	r0, r0, fp, asr #2
    4f84:	00002ba7 	andeq	r2, r0, r7, lsr #23
    4f88:	00002b9f 	muleq	r0, pc, fp	; <UNPREDICTABLE>
    4f8c:	0032730c 	eorseq	r7, r2, ip, lsl #6
    4f90:	4b2c0501 	blmi	b0639c <__bss_end__+0xafc08c>
    4f94:	e5000001 	str	r0, [r0, #-1]
    4f98:	df00002b 	svcle	0x0000002b
    4f9c:	0000002b 	andeq	r0, r0, fp, lsr #32
    4fa0:	00620409 	rsbeq	r0, r2, r9, lsl #8
    4fa4:	ce000000 	cdpgt	0, 0, cr0, cr0, cr0, {0}
    4fa8:	04000000 	streq	r0, [r0], #-0
    4fac:	0018aa00 	andseq	sl, r8, r0, lsl #20
    4fb0:	0e010400 	cfcpyseq	mvf0, mvf1
    4fb4:	0c000006 	stceq	0, cr0, [r0], {6}
    4fb8:	00000b23 	andeq	r0, r0, r3, lsr #22
    4fbc:	000006e8 	andeq	r0, r0, r8, ror #13
    4fc0:	00009ae4 	andeq	r9, r0, r4, ror #21
    4fc4:	00000004 	andeq	r0, r0, r4
    4fc8:	00002346 	andeq	r2, r0, r6, asr #6
    4fcc:	69050402 	stmdbvs	r5, {r1, sl}
    4fd0:	0300746e 	movweq	r7, #1134	; 0x46e
    4fd4:	009c0704 	addseq	r0, ip, r4, lsl #14
    4fd8:	01030000 	mrseq	r0, (UNDEF: 3)
    4fdc:	00002406 	andeq	r2, r0, r6, lsl #8
    4fe0:	05020300 	streq	r0, [r2, #-768]	; 0xfffffd00
    4fe4:	000000c3 	andeq	r0, r0, r3, asr #1
    4fe8:	ae050403 	cdpge	4, 0, cr0, cr5, cr3, {0}
    4fec:	03000000 	movweq	r0, #0
    4ff0:	00a90508 	adceq	r0, r9, r8, lsl #10
    4ff4:	01030000 	mrseq	r0, (UNDEF: 3)
    4ff8:	00002208 	andeq	r2, r0, r8, lsl #4
    4ffc:	07020300 	streq	r0, [r2, -r0, lsl #6]
    5000:	0000003d 	andeq	r0, r0, sp, lsr r0
    5004:	97070403 	strls	r0, [r7, -r3, lsl #8]
    5008:	03000000 	movweq	r0, #0
    500c:	00920708 	addseq	r0, r2, r8, lsl #14
    5010:	25040000 	strcs	r0, [r4, #-0]
    5014:	7a000000 	bvc	501c <__code_start__-0x2fe4>
    5018:	05000000 	streq	r0, [r0, #-0]
    501c:	00000025 	andeq	r0, r0, r5, lsr #32
    5020:	00b70600 	adcseq	r0, r7, r0, lsl #12
    5024:	1c020000 	stcne	0, cr0, [r2], {-0}
    5028:	0000860e 	andeq	r8, r0, lr, lsl #12
    502c:	6b040700 	blvs	106c34 <__bss_end__+0xfc924>
    5030:	04000000 	streq	r0, [r0], #-0
    5034:	00000025 	andeq	r0, r0, r5, lsr #32
    5038:	0000009b 	muleq	r0, fp, r0
    503c:	00009b05 	andeq	r9, r0, r5, lsl #22
    5040:	04070000 	streq	r0, [r7], #-0
    5044:	000000a8 	andeq	r0, r0, r8, lsr #1
    5048:	2b080103 	blcs	20545c <__bss_end__+0x1fb14c>
    504c:	08000000 	stmdaeq	r0, {}	; <UNPREDICTABLE>
    5050:	000000a1 	andeq	r0, r0, r1, lsr #1
    5054:	00079a06 	andeq	r9, r7, r6, lsl #20
    5058:	0e210200 	cdpeq	2, 2, cr0, cr1, cr0, {0}
    505c:	000000b9 	strheq	r0, [r0], -r9
    5060:	008c0407 	addeq	r0, ip, r7, lsl #8
    5064:	4e090000 	cdpmi	0, 0, cr0, cr9, cr0, {0}
    5068:	01000009 	tsteq	r0, r9
    506c:	9ae40603 	bls	ff906880 <__bss_end__+0xff8fc570>
    5070:	00040000 	andeq	r0, r4, r0
    5074:	9c010000 	stcls	0, cr0, [r1], {-0}
	...

Disassembly of section .debug_abbrev:

00000000 <.debug_abbrev>:
       0:	25011101 	strcs	r1, [r1, #-257]	; 0xfffffeff
       4:	030b130e 	movweq	r1, #45838	; 0xb30e
       8:	110e1b0e 	tstne	lr, lr, lsl #22
       c:	10061201 	andne	r1, r6, r1, lsl #4
      10:	02000017 	andeq	r0, r0, #23, 0
      14:	0b0b0024 	bleq	2c00ac <__bss_end__+0x2b5d9c>
      18:	08030b3e 	stmdaeq	r3, {r1, r2, r3, r4, r5, r8, r9, fp}
      1c:	24030000 	strcs	r0, [r3], #-0
      20:	3e0b0b00 	vmlacc.f64	d0, d11, d0
      24:	000e030b 	andeq	r0, lr, fp, lsl #6
      28:	01150400 	tsteq	r5, r0, lsl #8
      2c:	13491927 	movtne	r1, #39207	; 0x9927
      30:	00001301 	andeq	r1, r0, r1, lsl #6
      34:	49000505 	stmdbmi	r0, {r0, r2, r8, sl}
      38:	06000013 			; <UNDEFINED> instruction: 0x06000013
      3c:	0e030034 	mcreq	0, 0, r0, cr3, cr4, {1}
      40:	0b3b0b3a 	bleq	ec2d30 <__bss_end__+0xeb8a20>
      44:	13490b39 	movtne	r0, #39737	; 0x9b39
      48:	193c193f 	ldmdbne	ip!, {r0, r1, r2, r3, r4, r5, r8, fp, ip}
      4c:	0f070000 	svceq	0x00070000
      50:	490b0b00 	stmdbmi	fp, {r8, r9, fp}
      54:	08000013 	stmdaeq	r0, {r0, r1, r4}
      58:	13490026 	movtne	r0, #36902	; 0x9026
      5c:	04090000 	streq	r0, [r9], #-0
      60:	0b0b3e01 	bleq	2cf86c <__bss_end__+0x2c555c>
      64:	3a13490b 	bcc	4d2498 <__bss_end__+0x4c8188>
      68:	390b3b0b 	stmdbcc	fp, {r0, r1, r3, r8, r9, fp, ip, sp}
      6c:	0013010b 	andseq	r0, r3, fp, lsl #2
      70:	00280a00 	eoreq	r0, r8, r0, lsl #20
      74:	0b1c0e03 	bleq	703888 <__bss_end__+0x6f9578>
      78:	2e0b0000 	cdpcs	0, 0, cr0, cr11, cr0, {0}
      7c:	03193f01 	tsteq	r9, #1, 30
      80:	3b0b3a0e 	blcc	2ce8c0 <__bss_end__+0x2c45b0>
      84:	270b390b 	strcs	r3, [fp, -fp, lsl #18]
      88:	12011119 	andne	r1, r1, #1073741830	; 0x40000006
      8c:	97184006 	ldrls	r4, [r8, -r6]
      90:	13011942 	movwne	r1, #6466	; 0x1942
      94:	340c0000 	strcc	r0, [ip], #-0
      98:	3a0e0300 	bcc	380ca0 <__bss_end__+0x376990>
      9c:	390b3b0b 	stmdbcc	fp, {r0, r1, r3, r8, r9, fp, ip, sp}
      a0:	0213490b 	andseq	r4, r3, #180224	; 0x2c000
      a4:	1742b717 	smlaldne	fp, r2, r7, r7
      a8:	0b0d0000 	bleq	3400b0 <__bss_end__+0x335da0>
      ac:	12011101 	andne	r1, r1, #1073741824	; 0x40000000
      b0:	00130106 	andseq	r0, r3, r6, lsl #2
      b4:	00340e00 	eorseq	r0, r4, r0, lsl #28
      b8:	0b3a0803 	bleq	e820cc <__bss_end__+0xe77dbc>
      bc:	0b390b3b 	bleq	e42db0 <__bss_end__+0xe38aa0>
      c0:	0b1c1349 	bleq	704dec <__bss_end__+0x6faadc>
      c4:	0b0f0000 	bleq	3c00cc <__bss_end__+0x3b5dbc>
      c8:	01175501 	tsteq	r7, r1, lsl #10
      cc:	10000013 	andne	r0, r0, r3, lsl r0
      d0:	08030034 	stmdaeq	r3, {r2, r4, r5}
      d4:	0b3b0b3a 	bleq	ec2dc4 <__bss_end__+0xeb8ab4>
      d8:	13490b39 	movtne	r0, #39737	; 0x9b39
      dc:	42b71702 	adcsmi	r1, r7, #524288	; 0x80000
      e0:	11000017 	tstne	r0, r7, lsl r0
      e4:	1755010b 	ldrbne	r0, [r5, -fp, lsl #2]
      e8:	89120000 	ldmdbhi	r2, {}	; <UNPREDICTABLE>
      ec:	11010182 	smlabbne	r1, r2, r1, r0
      f0:	00133101 	andseq	r3, r3, r1, lsl #2
      f4:	828a1300 	addhi	r1, sl, #0, 6
      f8:	18020001 	stmdane	r2, {r0}
      fc:	00184291 	mulseq	r8, r1, r2
     100:	82891400 	addhi	r1, r9, #0, 8
     104:	01110101 	tsteq	r1, r1, lsl #2
     108:	13011331 	movwne	r1, #4913	; 0x1331
     10c:	89150000 	ldmdbhi	r5, {}	; <UNPREDICTABLE>
     110:	11000182 	smlabbne	r0, r2, r1, r0
     114:	00133101 	andseq	r3, r3, r1, lsl #2
     118:	002e1600 	eoreq	r1, lr, r0, lsl #12
     11c:	193c193f 	ldmdbne	ip!, {r0, r1, r2, r3, r4, r5, r8, fp, ip}
     120:	0e030e6e 	cdpeq	14, 0, cr0, cr3, cr14, {3}
     124:	0b3b0b3a 	bleq	ec2e14 <__bss_end__+0xeb8b04>
     128:	00000b39 	andeq	r0, r0, r9, lsr fp
     12c:	01110100 	tsteq	r1, r0, lsl #2
     130:	0b130e25 	bleq	4c39cc <__bss_end__+0x4b96bc>
     134:	0e1b0e03 	cdpeq	14, 1, cr0, cr11, cr3, {0}
     138:	06120111 			; <UNDEFINED> instruction: 0x06120111
     13c:	00001710 	andeq	r1, r0, r0, lsl r7
     140:	0b002402 	bleq	9150 <va_printk+0x258>
     144:	030b3e0b 	movweq	r3, #48651	; 0xbe0b
     148:	03000008 	movweq	r0, #8
     14c:	0b0b0024 	bleq	2c01e4 <__bss_end__+0x2b5ed4>
     150:	0e030b3e 	vmoveq.16	d3[0], r0
     154:	16040000 	strne	r0, [r4], -r0
     158:	3a0e0300 	bcc	380d60 <__bss_end__+0x376a50>
     15c:	390b3b0b 	stmdbcc	fp, {r0, r1, r3, r8, r9, fp, ip, sp}
     160:	0013490b 	andseq	r4, r3, fp, lsl #18
     164:	01150500 	tsteq	r5, r0, lsl #10
     168:	13491927 	movtne	r1, #39207	; 0x9927
     16c:	00001301 	andeq	r1, r0, r1, lsl #6
     170:	49000506 	stmdbmi	r0, {r1, r2, r8, sl}
     174:	07000013 	smladeq	r0, r3, r0, r0
     178:	0e030034 	mcreq	0, 0, r0, cr3, cr4, {1}
     17c:	0b3b0b3a 	bleq	ec2e6c <__bss_end__+0xeb8b5c>
     180:	13490b39 	movtne	r0, #39737	; 0x9b39
     184:	193c193f 	ldmdbne	ip!, {r0, r1, r2, r3, r4, r5, r8, fp, ip}
     188:	0f080000 	svceq	0x00080000
     18c:	490b0b00 	stmdbmi	fp, {r8, r9, fp}
     190:	09000013 	stmdbeq	r0, {r0, r1, r4}
     194:	13490026 	movtne	r0, #36902	; 0x9026
     198:	040a0000 	streq	r0, [sl], #-0
     19c:	0b0b3e01 	bleq	2cf9a8 <__bss_end__+0x2c5698>
     1a0:	3a13490b 	bcc	4d25d4 <__bss_end__+0x4c82c4>
     1a4:	390b3b0b 	stmdbcc	fp, {r0, r1, r3, r8, r9, fp, ip, sp}
     1a8:	0013010b 	andseq	r0, r3, fp, lsl #2
     1ac:	00280b00 	eoreq	r0, r8, r0, lsl #22
     1b0:	0b1c0e03 	bleq	7039c4 <__bss_end__+0x6f96b4>
     1b4:	2e0c0000 	cdpcs	0, 0, cr0, cr12, cr0, {0}
     1b8:	03193f01 	tsteq	r9, #1, 30
     1bc:	3b0b3a0e 	blcc	2ce9fc <__bss_end__+0x2c46ec>
     1c0:	270b390b 	strcs	r3, [fp, -fp, lsl #18]
     1c4:	11134919 	tstne	r3, r9, lsl r9
     1c8:	40061201 	andmi	r1, r6, r1, lsl #4
     1cc:	19429718 	stmdbne	r2, {r3, r4, r8, r9, sl, ip, pc}^
     1d0:	00001301 	andeq	r1, r0, r1, lsl #6
     1d4:	0300340d 	movweq	r3, #1037	; 0x40d
     1d8:	3b0b3a08 	blcc	2cea00 <__bss_end__+0x2c46f0>
     1dc:	490b390b 	stmdbmi	fp, {r0, r1, r3, r8, fp, ip, sp}
     1e0:	b7170213 			; <UNDEFINED> instruction: 0xb7170213
     1e4:	00001742 	andeq	r1, r0, r2, asr #14
     1e8:	0300340e 	movweq	r3, #1038	; 0x40e
     1ec:	3413490e 	ldrcc	r4, [r3], #-2318	; 0xfffff6f2
     1f0:	00180219 	andseq	r0, r8, r9, lsl r2
     1f4:	011d0f00 	tsteq	sp, r0, lsl #30
     1f8:	01521331 	cmpeq	r2, r1, lsr r3
     1fc:	110b42b8 			; <UNDEFINED> instruction: 0x110b42b8
     200:	58061201 	stmdapl	r6, {r0, r9, ip}
     204:	570b590b 	strpl	r5, [fp, -fp, lsl #18]
     208:	0013010b 	andseq	r0, r3, fp, lsl #2
     20c:	00051000 	andeq	r1, r5, r0
     210:	17021331 	smladxne	r2, r1, r3, r1
     214:	001742b7 			; <UNDEFINED> instruction: 0x001742b7
     218:	011d1100 	tsteq	sp, r0, lsl #2
     21c:	01521331 	cmpeq	r2, r1, lsr r3
     220:	550b42b8 	strpl	r4, [fp, #-696]	; 0xfffffd48
     224:	590b5817 	stmdbpl	fp, {r0, r1, r2, r4, fp, ip, lr}
     228:	010b570b 	tsteq	fp, fp, lsl #14
     22c:	12000013 	andne	r0, r0, #19, 0
     230:	1755010b 	ldrbne	r0, [r5, -fp, lsl #2]
     234:	1d130000 	ldcne	0, cr0, [r3, #-0]
     238:	52133101 	andspl	r3, r3, #1073741824	; 0x40000000
     23c:	0b42b801 	bleq	10ae248 <__bss_end__+0x10a3f38>
     240:	0b581755 	bleq	1605f9c <__bss_end__+0x15fbc8c>
     244:	0b570b59 	bleq	15c2fb0 <__bss_end__+0x15b8ca0>
     248:	0b140000 	bleq	500250 <__bss_end__+0x4f5f40>
     24c:	00175500 	andseq	r5, r7, r0, lsl #10
     250:	011d1500 	tsteq	sp, r0, lsl #10
     254:	01521331 	cmpeq	r2, r1, lsr r3
     258:	110b42b8 			; <UNDEFINED> instruction: 0x110b42b8
     25c:	58061201 	stmdapl	r6, {r0, r9, ip}
     260:	570b590b 	strpl	r5, [fp, -fp, lsl #18]
     264:	1600000b 	strne	r0, [r0], -fp
     268:	01018289 	smlabbeq	r1, r9, r2, r8
     26c:	13310111 	teqne	r1, #1073741828	; 0x40000004
     270:	00001301 	andeq	r1, r0, r1, lsl #6
     274:	01828a17 	orreq	r8, r2, r7, lsl sl
     278:	91180200 	tstls	r8, r0, lsl #4
     27c:	00001842 	andeq	r1, r0, r2, asr #16
     280:	01828918 	orreq	r8, r2, r8, lsl r9
     284:	31011100 	mrscc	r1, (UNDEF: 17)
     288:	19000013 	stmdbne	r0, {r0, r1, r4}
     28c:	13490101 	movtne	r0, #37121	; 0x9101
     290:	00001301 	andeq	r1, r0, r1, lsl #6
     294:	4900211a 	stmdbmi	r0, {r1, r3, r4, r8, sp}
     298:	000b2f13 	andeq	r2, fp, r3, lsl pc
     29c:	00051b00 	andeq	r1, r5, r0, lsl #22
     2a0:	0b3a0e03 	bleq	e83ab4 <__bss_end__+0xe797a4>
     2a4:	0b390b3b 	bleq	e42f98 <__bss_end__+0xe38c88>
     2a8:	17021349 	strne	r1, [r2, -r9, asr #6]
     2ac:	001742b7 			; <UNDEFINED> instruction: 0x001742b7
     2b0:	010b1c00 	tsteq	fp, r0, lsl #24
     2b4:	13011755 	movwne	r1, #5973	; 0x1755
     2b8:	891d0000 	ldmdbhi	sp, {}	; <UNPREDICTABLE>
     2bc:	11010182 	smlabbne	r1, r2, r1, r0
     2c0:	00133101 	andseq	r3, r3, r1, lsl #2
     2c4:	00051e00 	andeq	r1, r5, r0, lsl #28
     2c8:	0b3a0803 	bleq	e822dc <__bss_end__+0xe77fcc>
     2cc:	0b390b3b 	bleq	e42fc0 <__bss_end__+0xe38cb0>
     2d0:	17021349 	strne	r1, [r2, -r9, asr #6]
     2d4:	001742b7 			; <UNDEFINED> instruction: 0x001742b7
     2d8:	00341f00 	eorseq	r1, r4, r0, lsl #30
     2dc:	0b3a0e03 	bleq	e83af0 <__bss_end__+0xe797e0>
     2e0:	0b390b3b 	bleq	e42fd4 <__bss_end__+0xe38cc4>
     2e4:	18021349 	stmdane	r2, {r0, r3, r6, r8, r9, ip}
     2e8:	2e200000 	cdpcs	0, 2, cr0, cr0, cr0, {0}
     2ec:	03193f01 	tsteq	r9, #1, 30
     2f0:	3b0b3a0e 	blcc	2ceb30 <__bss_end__+0x2c4820>
     2f4:	270b390b 	strcs	r3, [fp, -fp, lsl #18]
     2f8:	12011119 	andne	r1, r1, #1073741830	; 0x40000006
     2fc:	97184006 	ldrls	r4, [r8, -r6]
     300:	13011942 	movwne	r1, #6466	; 0x1942
     304:	34210000 	strtcc	r0, [r1], #-0
     308:	3a080300 	bcc	200f10 <__bss_end__+0x1f6c00>
     30c:	390b3b0b 	stmdbcc	fp, {r0, r1, r3, r8, r9, fp, ip, sp}
     310:	0213490b 	andseq	r4, r3, #180224	; 0x2c000
     314:	22000018 	andcs	r0, r0, #24, 0
     318:	0e03012e 	adfeqsp	f0, f3, #0.5
     31c:	0b3b0b3a 	bleq	ec300c <__bss_end__+0xeb8cfc>
     320:	19270b39 	stmdbne	r7!, {r0, r3, r4, r5, r8, r9, fp}
     324:	0b201349 	bleq	805050 <__bss_end__+0x7fad40>
     328:	00001301 	andeq	r1, r0, r1, lsl #6
     32c:	03000523 	movweq	r0, #1315	; 0x523
     330:	3b0b3a08 	blcc	2ceb58 <__bss_end__+0x2c4848>
     334:	490b390b 	stmdbmi	fp, {r0, r1, r3, r8, fp, ip, sp}
     338:	24000013 	strcs	r0, [r0], #-19	; 0xffffffed
     33c:	0e030034 	mcreq	0, 0, r0, cr3, cr4, {1}
     340:	19341349 	ldmdbne	r4!, {r0, r3, r6, r8, r9, ip}
     344:	34250000 	strtcc	r0, [r5], #-0
     348:	3a080300 	bcc	200f50 <__bss_end__+0x1f6c40>
     34c:	390b3b0b 	stmdbcc	fp, {r0, r1, r3, r8, r9, fp, ip, sp}
     350:	0013490b 	andseq	r4, r3, fp, lsl #18
     354:	00342600 	eorseq	r2, r4, r0, lsl #12
     358:	0b3a0e03 	bleq	e83b6c <__bss_end__+0xe7985c>
     35c:	0b390b3b 	bleq	e43050 <__bss_end__+0xe38d40>
     360:	00001349 	andeq	r1, r0, r9, asr #6
     364:	03000527 	movweq	r0, #1319	; 0x527
     368:	3b0b3a0e 	blcc	2ceba8 <__bss_end__+0x2c4898>
     36c:	490b390b 	stmdbmi	fp, {r0, r1, r3, r8, fp, ip, sp}
     370:	28000013 	stmdacs	r0, {r0, r1, r4}
     374:	0e030034 	mcreq	0, 0, r0, cr3, cr4, {1}
     378:	19341349 	ldmdbne	r4!, {r0, r3, r6, r8, r9, ip}
     37c:	00000e1c 	andeq	r0, r0, ip, lsl lr
     380:	3f002e29 	svccc	0x00002e29
     384:	6e193c19 	mrcvs	12, 0, r3, cr9, cr9, {0}
     388:	3a0e030e 	bcc	380fc8 <__bss_end__+0x376cb8>
     38c:	390b3b0b 	stmdbcc	fp, {r0, r1, r3, r8, r9, fp, ip, sp}
     390:	0000000b 	andeq	r0, r0, fp
     394:	25011101 	strcs	r1, [r1, #-257]	; 0xfffffeff
     398:	030b130e 	movweq	r1, #45838	; 0xb30e
     39c:	110e1b0e 	tstne	lr, lr, lsl #22
     3a0:	10061201 	andne	r1, r6, r1, lsl #4
     3a4:	02000017 	andeq	r0, r0, #23, 0
     3a8:	0b0b0024 	bleq	2c0440 <__bss_end__+0x2b6130>
     3ac:	08030b3e 	stmdaeq	r3, {r1, r2, r3, r4, r5, r8, r9, fp}
     3b0:	24030000 	strcs	r0, [r3], #-0
     3b4:	3e0b0b00 	vmlacc.f64	d0, d11, d0
     3b8:	000e030b 	andeq	r0, lr, fp, lsl #6
     3bc:	00260400 	eoreq	r0, r6, r0, lsl #8
     3c0:	00001349 	andeq	r1, r0, r9, asr #6
     3c4:	03001605 	movweq	r1, #1541	; 0x605
     3c8:	3b0b3a0e 	blcc	2cec08 <__bss_end__+0x2c48f8>
     3cc:	490b390b 	stmdbmi	fp, {r0, r1, r3, r8, fp, ip, sp}
     3d0:	06000013 			; <UNDEFINED> instruction: 0x06000013
     3d4:	0b3e0104 	bleq	f807ec <__bss_end__+0xf764dc>
     3d8:	13490b0b 	movtne	r0, #39691	; 0x9b0b
     3dc:	0b3b0b3a 	bleq	ec30cc <__bss_end__+0xeb8dbc>
     3e0:	13010b39 	movwne	r0, #6969	; 0x1b39
     3e4:	28070000 	stmdacs	r7, {}	; <UNPREDICTABLE>
     3e8:	1c0e0300 	stcne	3, cr0, [lr], {-0}
     3ec:	0800000b 	stmdaeq	r0, {r0, r1, r3}
     3f0:	0b0b0113 	bleq	2c0844 <__bss_end__+0x2b6534>
     3f4:	0b3b0b3a 	bleq	ec30e4 <__bss_end__+0xeb8dd4>
     3f8:	13010b39 	movwne	r0, #6969	; 0x1b39
     3fc:	0d090000 	stceq	0, cr0, [r9, #-0]
     400:	3a0e0300 	bcc	381008 <__bss_end__+0x376cf8>
     404:	390b3b0b 	stmdbcc	fp, {r0, r1, r3, r8, r9, fp, ip, sp}
     408:	0b13490b 	bleq	4d283c <__bss_end__+0x4c852c>
     40c:	0c0b0d0b 	stceq	13, cr0, [fp], {11}
     410:	000b380b 	andeq	r3, fp, fp, lsl #16
     414:	000d0a00 	andeq	r0, sp, r0, lsl #20
     418:	0b3a0803 	bleq	e8242c <__bss_end__+0xe7811c>
     41c:	0b390b3b 	bleq	e43110 <__bss_end__+0xe38e00>
     420:	0b0b1349 	bleq	2c514c <__bss_end__+0x2bae3c>
     424:	0b0c0b0d 	bleq	303060 <__bss_end__+0x2f8d50>
     428:	00000b38 	andeq	r0, r0, r8, lsr fp
     42c:	4900350b 	stmdbmi	r0, {r0, r1, r3, r8, sl, ip, sp}
     430:	0c000013 	stceq	0, cr0, [r0], {19}
     434:	0e030113 	mcreq	1, 0, r0, cr3, cr3, {0}
     438:	0b3a0b0b 	bleq	e8306c <__bss_end__+0xe78d5c>
     43c:	0b390b3b 	bleq	e43130 <__bss_end__+0xe38e20>
     440:	00001301 	andeq	r1, r0, r1, lsl #6
     444:	03000d0d 	movweq	r0, #3341	; 0xd0d
     448:	3b0b3a0e 	blcc	2cec88 <__bss_end__+0x2c4978>
     44c:	490b390b 	stmdbmi	fp, {r0, r1, r3, r8, fp, ip, sp}
     450:	000b3813 	andeq	r3, fp, r3, lsl r8
     454:	00340e00 	eorseq	r0, r4, r0, lsl #28
     458:	0b3a0803 	bleq	e8246c <__bss_end__+0xe7815c>
     45c:	0b390b3b 	bleq	e43150 <__bss_end__+0xe38e40>
     460:	00001349 	andeq	r1, r0, r9, asr #6
     464:	0b000f0f 	bleq	40a8 <__code_start__-0x3f58>
     468:	0013490b 	andseq	r4, r3, fp, lsl #18
     46c:	00341000 	eorseq	r1, r4, r0
     470:	0b3a0e03 	bleq	e83c84 <__bss_end__+0xe79974>
     474:	0b39053b 	bleq	e41968 <__bss_end__+0xe37658>
     478:	18021349 	stmdane	r2, {r0, r3, r6, r8, r9, ip}
     47c:	2e110000 	cdpcs	0, 1, cr0, cr1, cr0, {0}
     480:	3a0e0301 	bcc	38108c <__bss_end__+0x376d7c>
     484:	39053b0b 	stmdbcc	r5, {r0, r1, r3, r8, r9, fp, ip, sp}
     488:	0119270b 	tsteq	r9, fp, lsl #14
     48c:	12000013 	andne	r0, r0, #19, 0
     490:	0e030034 	mcreq	0, 0, r0, cr3, cr4, {1}
     494:	19341349 	ldmdbne	r4!, {r0, r3, r6, r8, r9, ip}
     498:	00000e1c 	andeq	r0, r0, ip, lsl lr
     49c:	01010b13 	tsteq	r1, r3, lsl fp
     4a0:	14000013 	strne	r0, [r0], #-19	; 0xffffffed
     4a4:	08030117 	stmdaeq	r3, {r0, r1, r2, r4, r8}
     4a8:	0b3a0b0b 	bleq	e830dc <__bss_end__+0xe78dcc>
     4ac:	0b39053b 	bleq	e419a0 <__bss_end__+0xe37690>
     4b0:	00001301 	andeq	r1, r0, r1, lsl #6
     4b4:	03000d15 	movweq	r0, #3349	; 0xd15
     4b8:	3b0b3a08 	blcc	2cece0 <__bss_end__+0x2c49d0>
     4bc:	490b3905 	stmdbmi	fp, {r0, r2, r8, fp, ip, sp}
     4c0:	16000013 			; <UNDEFINED> instruction: 0x16000013
     4c4:	08030034 	stmdaeq	r3, {r2, r4, r5}
     4c8:	053b0b3a 	ldreq	r0, [fp, #-2874]!	; 0xfffff4c6
     4cc:	13490b39 	movtne	r0, #39737	; 0x9b39
     4d0:	34170000 	ldrcc	r0, [r7], #-0
     4d4:	3a0e0300 	bcc	3810dc <__bss_end__+0x376dcc>
     4d8:	39053b0b 	stmdbcc	r5, {r0, r1, r3, r8, r9, fp, ip, sp}
     4dc:	0013490b 	andseq	r4, r3, fp, lsl #18
     4e0:	010b1800 	tsteq	fp, r0, lsl #16
     4e4:	01190000 	tsteq	r9, r0
     4e8:	01134901 	tsteq	r3, r1, lsl #18
     4ec:	1a000013 	bne	540 <__code_start__-0x7ac0>
     4f0:	13490021 	movtne	r0, #36897	; 0x9021
     4f4:	00000b2f 	andeq	r0, r0, pc, lsr #22
     4f8:	3f012e1b 	svccc	0x00012e1b
     4fc:	3a0e0319 	bcc	381168 <__bss_end__+0x376e58>
     500:	39053b0b 	stmdbcc	r5, {r0, r1, r3, r8, r9, fp, ip, sp}
     504:	1119270b 	tstne	r9, fp, lsl #14
     508:	40061201 	andmi	r1, r6, r1, lsl #4
     50c:	19429718 	stmdbne	r2, {r3, r4, r8, r9, sl, ip, pc}^
     510:	00001301 	andeq	r1, r0, r1, lsl #6
     514:	0300341c 	movweq	r3, #1052	; 0x41c
     518:	3b0b3a08 	blcc	2ced40 <__bss_end__+0x2c4a30>
     51c:	490b3905 	stmdbmi	fp, {r0, r2, r8, fp, ip, sp}
     520:	000b1c13 	andeq	r1, fp, r3, lsl ip
     524:	00341d00 	eorseq	r1, r4, r0, lsl #26
     528:	13490e03 	movtne	r0, #40451	; 0x9e03
     52c:	18021934 	stmdane	r2, {r2, r4, r5, r8, fp, ip}
     530:	0b1e0000 	bleq	780538 <__bss_end__+0x776228>
     534:	12011101 	andne	r1, r1, #1073741824	; 0x40000000
     538:	00130106 	andseq	r0, r3, r6, lsl #2
     53c:	82891f00 	addhi	r1, r9, #0, 30
     540:	01110001 	tsteq	r1, r1
     544:	00001331 	andeq	r1, r0, r1, lsr r3
     548:	01828920 	orreq	r8, r2, r0, lsr #18
     54c:	31011101 	tstcc	r1, r1, lsl #2
     550:	00130113 	andseq	r0, r3, r3, lsl r1
     554:	828a2100 	addhi	r2, sl, #0
     558:	18020001 	stmdane	r2, {r0}
     55c:	00184291 	mulseq	r8, r1, r2
     560:	002e2200 	eoreq	r2, lr, r0, lsl #4
     564:	0e03193f 			; <UNDEFINED> instruction: 0x0e03193f
     568:	053b0b3a 	ldreq	r0, [fp, #-2874]!	; 0xfffff4c6
     56c:	19270b39 	stmdbne	r7!, {r0, r3, r4, r5, r8, r9, fp}
     570:	01111349 	tsteq	r1, r9, asr #6
     574:	18400612 	stmdane	r0, {r1, r4, r9, sl}^
     578:	00194297 	mulseq	r9, r7, r2
     57c:	012e2300 			; <UNDEFINED> instruction: 0x012e2300
     580:	0e03193f 			; <UNDEFINED> instruction: 0x0e03193f
     584:	053b0b3a 	ldreq	r0, [fp, #-2874]!	; 0xfffff4c6
     588:	19270b39 	stmdbne	r7!, {r0, r3, r4, r5, r8, r9, fp}
     58c:	01111349 	tsteq	r1, r9, asr #6
     590:	18400612 	stmdane	r0, {r1, r4, r9, sl}^
     594:	01194297 			; <UNDEFINED> instruction: 0x01194297
     598:	24000013 	strcs	r0, [r0], #-19	; 0xffffffed
     59c:	0e030005 	cdpeq	0, 0, cr0, cr3, cr5, {0}
     5a0:	053b0b3a 	ldreq	r0, [fp, #-2874]!	; 0xfffff4c6
     5a4:	13490b39 	movtne	r0, #39737	; 0x9b39
     5a8:	42b71702 	adcsmi	r1, r7, #524288	; 0x80000
     5ac:	25000017 	strcs	r0, [r0, #-23]	; 0xffffffe9
     5b0:	08030034 	stmdaeq	r3, {r2, r4, r5}
     5b4:	053b0b3a 	ldreq	r0, [fp, #-2874]!	; 0xfffff4c6
     5b8:	13490b39 	movtne	r0, #39737	; 0x9b39
     5bc:	42b71702 	adcsmi	r1, r7, #524288	; 0x80000
     5c0:	26000017 			; <UNDEFINED> instruction: 0x26000017
     5c4:	0e03012e 	adfeqsp	f0, f3, #0.5
     5c8:	053b0b3a 	ldreq	r0, [fp, #-2874]!	; 0xfffff4c6
     5cc:	19270b39 	stmdbne	r7!, {r0, r3, r4, r5, r8, r9, fp}
     5d0:	06120111 			; <UNDEFINED> instruction: 0x06120111
     5d4:	42971840 	addsmi	r1, r7, #64, 16	; 0x400000
     5d8:	00130119 	andseq	r0, r3, r9, lsl r1
     5dc:	012e2700 			; <UNDEFINED> instruction: 0x012e2700
     5e0:	0b3a0e03 	bleq	e83df4 <__bss_end__+0xe79ae4>
     5e4:	0b390b3b 	bleq	e432d8 <__bss_end__+0xe38fc8>
     5e8:	01111927 	tsteq	r1, r7, lsr #18
     5ec:	18400612 	stmdane	r0, {r1, r4, r9, sl}^
     5f0:	01194297 			; <UNDEFINED> instruction: 0x01194297
     5f4:	28000013 	stmdacs	r0, {r0, r1, r4}
     5f8:	0e030005 	cdpeq	0, 0, cr0, cr3, cr5, {0}
     5fc:	0b3b0b3a 	bleq	ec32ec <__bss_end__+0xeb8fdc>
     600:	13490b39 	movtne	r0, #39737	; 0x9b39
     604:	42b71702 	adcsmi	r1, r7, #524288	; 0x80000
     608:	29000017 	stmdbcs	r0, {r0, r1, r2, r4}
     60c:	08030117 	stmdaeq	r3, {r0, r1, r2, r4, r8}
     610:	0b3a0b0b 	bleq	e83244 <__bss_end__+0xe78f34>
     614:	0b390b3b 	bleq	e43308 <__bss_end__+0xe38ff8>
     618:	00001301 	andeq	r1, r0, r1, lsl #6
     61c:	03000d2a 	movweq	r0, #3370	; 0xd2a
     620:	3b0b3a08 	blcc	2cee48 <__bss_end__+0x2c4b38>
     624:	490b390b 	stmdbmi	fp, {r0, r1, r3, r8, fp, ip, sp}
     628:	2b000013 	blcs	67c <__code_start__-0x7984>
     62c:	01018289 	smlabbeq	r1, r9, r2, r8
     630:	13310111 	teqne	r1, #1073741828	; 0x40000004
     634:	2e2c0000 	cdpcs	0, 2, cr0, cr12, cr0, {0}
     638:	3a0e0301 	bcc	381244 <__bss_end__+0x376f34>
     63c:	390b3b0b 	stmdbcc	fp, {r0, r1, r3, r8, r9, fp, ip, sp}
     640:	4919270b 	ldmdbmi	r9, {r0, r1, r3, r8, r9, sl, sp}
     644:	12011113 	andne	r1, r1, #-1073741820	; 0xc0000004
     648:	97184006 	ldrls	r4, [r8, -r6]
     64c:	13011942 	movwne	r1, #6466	; 0x1942
     650:	052d0000 	streq	r0, [sp, #-0]!
     654:	3a080300 	bcc	20125c <__bss_end__+0x1f6f4c>
     658:	390b3b0b 	stmdbcc	fp, {r0, r1, r3, r8, r9, fp, ip, sp}
     65c:	0213490b 	andseq	r4, r3, #180224	; 0x2c000
     660:	1742b717 	smlaldne	fp, r2, r7, r7
     664:	2e2e0000 	cdpcs	0, 2, cr0, cr14, cr0, {0}
     668:	3c193f00 	ldccc	15, cr3, [r9], {-0}
     66c:	030e6e19 	movweq	r6, #60953	; 0xee19
     670:	3b0b3a0e 	blcc	2ceeb0 <__bss_end__+0x2c4ba0>
     674:	000b390b 	andeq	r3, fp, fp, lsl #18
     678:	11010000 	mrsne	r0, (UNDEF: 1)
     67c:	130e2501 	movwne	r2, #58625	; 0xe501
     680:	1b0e030b 	blne	3812b4 <__bss_end__+0x376fa4>
     684:	1201110e 	andne	r1, r1, #-2147483645	; 0x80000003
     688:	00171006 	andseq	r1, r7, r6
     68c:	00240200 	eoreq	r0, r4, r0, lsl #4
     690:	0b3e0b0b 	bleq	f832c4 <__bss_end__+0xf78fb4>
     694:	00000e03 	andeq	r0, r0, r3, lsl #28
     698:	0b002403 	bleq	96ac <set_user_level>
     69c:	030b3e0b 	movweq	r3, #48651	; 0xbe0b
     6a0:	04000008 	streq	r0, [r0], #-8
     6a4:	13490026 	movtne	r0, #36902	; 0x9026
     6a8:	16050000 	strne	r0, [r5], -r0
     6ac:	3a0e0300 	bcc	3812b4 <__bss_end__+0x376fa4>
     6b0:	390b3b0b 	stmdbcc	fp, {r0, r1, r3, r8, r9, fp, ip, sp}
     6b4:	0013490b 	andseq	r4, r3, fp, lsl #18
     6b8:	01150600 	tsteq	r5, r0, lsl #12
     6bc:	13491927 	movtne	r1, #39207	; 0x9927
     6c0:	00001301 	andeq	r1, r0, r1, lsl #6
     6c4:	49000507 	stmdbmi	r0, {r0, r1, r2, r8, sl}
     6c8:	08000013 	stmdaeq	r0, {r0, r1, r4}
     6cc:	0e030034 	mcreq	0, 0, r0, cr3, cr4, {1}
     6d0:	0b3b0b3a 	bleq	ec33c0 <__bss_end__+0xeb90b0>
     6d4:	13490b39 	movtne	r0, #39737	; 0x9b39
     6d8:	193c193f 	ldmdbne	ip!, {r0, r1, r2, r3, r4, r5, r8, fp, ip}
     6dc:	0f090000 	svceq	0x00090000
     6e0:	490b0b00 	stmdbmi	fp, {r8, r9, fp}
     6e4:	0a000013 	beq	738 <__code_start__-0x78c8>
     6e8:	0b3e0104 	bleq	f80b00 <__bss_end__+0xf767f0>
     6ec:	13490b0b 	movtne	r0, #39691	; 0x9b0b
     6f0:	0b3b0b3a 	bleq	ec33e0 <__bss_end__+0xeb90d0>
     6f4:	13010b39 	movwne	r0, #6969	; 0x1b39
     6f8:	280b0000 	stmdacs	fp, {}	; <UNPREDICTABLE>
     6fc:	1c0e0300 	stcne	3, cr0, [lr], {-0}
     700:	0c00000b 	stceq	0, cr0, [r0], {11}
     704:	0e030034 	mcreq	0, 0, r0, cr3, cr4, {1}
     708:	0b3b0b3a 	bleq	ec33f8 <__bss_end__+0xeb90e8>
     70c:	13490b39 	movtne	r0, #39737	; 0x9b39
     710:	0000061c 	andeq	r0, r0, ip, lsl r6
     714:	3f012e0d 	svccc	0x00012e0d
     718:	3a0e0319 	bcc	381384 <__bss_end__+0x377074>
     71c:	390b3b0b 	stmdbcc	fp, {r0, r1, r3, r8, r9, fp, ip, sp}
     720:	4919270b 	ldmdbmi	r9, {r0, r1, r3, r8, r9, sl, sp}
     724:	12011113 	andne	r1, r1, #-1073741820	; 0xc0000004
     728:	97184006 	ldrls	r4, [r8, -r6]
     72c:	13011942 	movwne	r1, #6466	; 0x1942
     730:	050e0000 	streq	r0, [lr, #-0]
     734:	3a080300 	bcc	20133c <__bss_end__+0x1f702c>
     738:	390b3b0b 	stmdbcc	fp, {r0, r1, r3, r8, r9, fp, ip, sp}
     73c:	0213490b 	andseq	r4, r3, #180224	; 0x2c000
     740:	1742b717 	smlaldne	fp, r2, r7, r7
     744:	340f0000 	strcc	r0, [pc], #-0	; 74c <__code_start__-0x78b4>
     748:	3a0e0300 	bcc	381350 <__bss_end__+0x377040>
     74c:	390b3b0b 	stmdbcc	fp, {r0, r1, r3, r8, r9, fp, ip, sp}
     750:	0213490b 	andseq	r4, r3, #180224	; 0x2c000
     754:	1742b717 	smlaldne	fp, r2, r7, r7
     758:	34100000 	ldrcc	r0, [r0], #-0
     75c:	3a080300 	bcc	201364 <__bss_end__+0x1f7054>
     760:	390b3b0b 	stmdbcc	fp, {r0, r1, r3, r8, r9, fp, ip, sp}
     764:	0213490b 	andseq	r4, r3, #180224	; 0x2c000
     768:	1742b717 	smlaldne	fp, r2, r7, r7
     76c:	89110000 	ldmdbhi	r1, {}	; <UNPREDICTABLE>
     770:	11010182 	smlabbne	r1, r2, r1, r0
     774:	00133101 	andseq	r3, r3, r1, lsl #2
     778:	828a1200 	addhi	r1, sl, #0, 4
     77c:	18020001 	stmdane	r2, {r0}
     780:	00184291 	mulseq	r8, r1, r2
     784:	012e1300 			; <UNDEFINED> instruction: 0x012e1300
     788:	0e03193f 			; <UNDEFINED> instruction: 0x0e03193f
     78c:	0b3b0b3a 	bleq	ec347c <__bss_end__+0xeb916c>
     790:	19270b39 	stmdbne	r7!, {r0, r3, r4, r5, r8, r9, fp}
     794:	06120111 			; <UNDEFINED> instruction: 0x06120111
     798:	42971840 	addsmi	r1, r7, #64, 16	; 0x400000
     79c:	00130119 	andseq	r0, r3, r9, lsl r1
     7a0:	011d1400 	tsteq	sp, r0, lsl #8
     7a4:	01521331 	cmpeq	r2, r1, lsr r3
     7a8:	550b42b8 	strpl	r4, [fp, #-696]	; 0xfffffd48
     7ac:	590b5817 	stmdbpl	fp, {r0, r1, r2, r4, fp, ip, lr}
     7b0:	010b570b 	tsteq	fp, fp, lsl #14
     7b4:	15000013 	strne	r0, [r0, #-19]	; 0xffffffed
     7b8:	13310005 	teqne	r1, #5, 0
     7bc:	42b71702 	adcsmi	r1, r7, #524288	; 0x80000
     7c0:	16000017 			; <UNDEFINED> instruction: 0x16000017
     7c4:	01018289 	smlabbeq	r1, r9, r2, r8
     7c8:	42950111 	addsmi	r0, r5, #1073741828	; 0x40000004
     7cc:	00133119 	andseq	r3, r3, r9, lsl r1
     7d0:	011d1700 	tsteq	sp, r0, lsl #14
     7d4:	01521331 	cmpeq	r2, r1, lsr r3
     7d8:	110b42b8 			; <UNDEFINED> instruction: 0x110b42b8
     7dc:	58061201 	stmdapl	r6, {r0, r9, ip}
     7e0:	570b590b 	strpl	r5, [fp, -fp, lsl #18]
     7e4:	1800000b 	stmdane	r0, {r0, r1, r3}
     7e8:	1331011d 	teqne	r1, #1073741831	; 0x40000007
     7ec:	42b80152 	adcsmi	r0, r8, #-2147483628	; 0x80000014
     7f0:	5817550b 	ldmdapl	r7, {r0, r1, r3, r8, sl, ip, lr}
     7f4:	570b590b 	strpl	r5, [fp, -fp, lsl #18]
     7f8:	1900000b 	stmdbne	r0, {r0, r1, r3}
     7fc:	13310005 	teqne	r1, #5, 0
     800:	00000b1c 	andeq	r0, r0, ip, lsl fp
     804:	55010b1a 	strpl	r0, [r1, #-2842]	; 0xfffff4e6
     808:	1b000017 	blne	86c <__code_start__-0x7794>
     80c:	13310034 	teqne	r1, #52, 0	; 0x34
     810:	341c0000 	ldrcc	r0, [ip], #-0
     814:	02133100 	andseq	r3, r3, #0
     818:	1742b717 	smlaldne	fp, r2, r7, r7
     81c:	891d0000 	ldmdbhi	sp, {}	; <UNPREDICTABLE>
     820:	11010182 	smlabbne	r1, r2, r1, r0
     824:	01133101 	tsteq	r3, r1, lsl #2
     828:	1e000013 	mcrne	0, 0, r0, cr0, cr3, {0}
     82c:	193f012e 	ldmdbne	pc!, {r1, r2, r3, r5, r8}	; <UNPREDICTABLE>
     830:	0b3a0e03 	bleq	e84044 <__bss_end__+0xe79d34>
     834:	0b390b3b 	bleq	e43528 <__bss_end__+0xe39218>
     838:	0b201927 	bleq	806cdc <__bss_end__+0x7fc9cc>
     83c:	00001301 	andeq	r1, r0, r1, lsl #6
     840:	0300051f 	movweq	r0, #1311	; 0x51f
     844:	3b0b3a08 	blcc	2cf06c <__bss_end__+0x2c4d5c>
     848:	490b390b 	stmdbmi	fp, {r0, r1, r3, r8, fp, ip, sp}
     84c:	20000013 	andcs	r0, r0, r3, lsl r0
     850:	0e030005 	cdpeq	0, 0, cr0, cr3, cr5, {0}
     854:	0b3b0b3a 	bleq	ec3544 <__bss_end__+0xeb9234>
     858:	13490b39 	movtne	r0, #39737	; 0x9b39
     85c:	34210000 	strtcc	r0, [r1], #-0
     860:	3a080300 	bcc	201468 <__bss_end__+0x1f7158>
     864:	390b3b0b 	stmdbcc	fp, {r0, r1, r3, r8, r9, fp, ip, sp}
     868:	0013490b 	andseq	r4, r3, fp, lsl #18
     86c:	012e2200 			; <UNDEFINED> instruction: 0x012e2200
     870:	0b3a0e03 	bleq	e84084 <__bss_end__+0xe79d74>
     874:	0b390b3b 	bleq	e43568 <__bss_end__+0xe39258>
     878:	13491927 	movtne	r1, #39207	; 0x9927
     87c:	13010b20 	movwne	r0, #6944	; 0x1b20
     880:	2e230000 	cdpcs	0, 2, cr0, cr3, cr0, {0}
     884:	11133101 	tstne	r3, r1, lsl #2
     888:	40061201 	andmi	r1, r6, r1, lsl #4
     88c:	19429718 	stmdbne	r2, {r3, r4, r8, r9, sl, ip, pc}^
     890:	00001301 	andeq	r1, r0, r1, lsl #6
     894:	3f002e24 	svccc	0x00002e24
     898:	6e193c19 	mrcvs	12, 0, r3, cr9, cr9, {0}
     89c:	3a0e030e 	bcc	3814dc <__bss_end__+0x3771cc>
     8a0:	390b3b0b 	stmdbcc	fp, {r0, r1, r3, r8, r9, fp, ip, sp}
     8a4:	0000000b 	andeq	r0, r0, fp
     8a8:	25011101 	strcs	r1, [r1, #-257]	; 0xfffffeff
     8ac:	030b130e 	movweq	r1, #45838	; 0xb30e
     8b0:	110e1b0e 	tstne	lr, lr, lsl #22
     8b4:	10061201 	andne	r1, r6, r1, lsl #4
     8b8:	02000017 	andeq	r0, r0, #23, 0
     8bc:	0e030016 	mcreq	0, 0, r0, cr3, cr6, {0}
     8c0:	0b3b0b3a 	bleq	ec35b0 <__bss_end__+0xeb92a0>
     8c4:	13490b39 	movtne	r0, #39737	; 0x9b39
     8c8:	13030000 	movwne	r0, #12288	; 0x3000
     8cc:	0b0e0301 	bleq	3814d8 <__bss_end__+0x3771c8>
     8d0:	3b0b3a0b 	blcc	2cf104 <__bss_end__+0x2c4df4>
     8d4:	0013010b 	andseq	r0, r3, fp, lsl #2
     8d8:	000d0400 	andeq	r0, sp, r0, lsl #8
     8dc:	13490e03 	movtne	r0, #40451	; 0x9e03
     8e0:	19340b38 	ldmdbne	r4!, {r3, r4, r5, r8, r9, fp}
     8e4:	0f050000 	svceq	0x00050000
     8e8:	000b0b00 	andeq	r0, fp, r0, lsl #22
     8ec:	00240600 	eoreq	r0, r4, r0, lsl #12
     8f0:	0b3e0b0b 	bleq	f83524 <__bss_end__+0xf79214>
     8f4:	00000803 	andeq	r0, r0, r3, lsl #16
     8f8:	0b002407 	bleq	991c <uart_init+0xa0>
     8fc:	030b3e0b 	movweq	r3, #48651	; 0xbe0b
     900:	0800000e 	stmdaeq	r0, {r1, r2, r3}
     904:	19270115 	stmdbne	r7!, {r0, r2, r4, r8}
     908:	13011349 	movwne	r1, #4937	; 0x1349
     90c:	05090000 	streq	r0, [r9, #-0]
     910:	00134900 	andseq	r4, r3, r0, lsl #18
     914:	00340a00 	eorseq	r0, r4, r0, lsl #20
     918:	0b3a0e03 	bleq	e8412c <__bss_end__+0xe79e1c>
     91c:	0b390b3b 	bleq	e43610 <__bss_end__+0xe39300>
     920:	193f1349 	ldmdbne	pc!, {r0, r3, r6, r8, r9, ip}	; <UNPREDICTABLE>
     924:	0000193c 	andeq	r1, r0, ip, lsr r9
     928:	0b000f0b 	bleq	455c <__code_start__-0x3aa4>
     92c:	0013490b 	andseq	r4, r3, fp, lsl #18
     930:	00260c00 	eoreq	r0, r6, r0, lsl #24
     934:	00001349 	andeq	r1, r0, r9, asr #6
     938:	3f012e0d 	svccc	0x00012e0d
     93c:	3a0e0319 	bcc	3815a8 <__bss_end__+0x377298>
     940:	390b3b0b 	stmdbcc	fp, {r0, r1, r3, r8, r9, fp, ip, sp}
     944:	4919270b 	ldmdbmi	r9, {r0, r1, r3, r8, r9, sl, sp}
     948:	12011113 	andne	r1, r1, #-1073741820	; 0xc0000004
     94c:	97184006 	ldrls	r4, [r8, -r6]
     950:	13011942 	movwne	r1, #6466	; 0x1942
     954:	050e0000 	streq	r0, [lr, #-0]
     958:	3a080300 	bcc	201560 <__bss_end__+0x1f7250>
     95c:	390b3b0b 	stmdbcc	fp, {r0, r1, r3, r8, r9, fp, ip, sp}
     960:	0213490b 	andseq	r4, r3, #180224	; 0x2c000
     964:	0f000018 	svceq	0x00000018
     968:	00000018 	andeq	r0, r0, r8, lsl r0
     96c:	03003410 	movweq	r3, #1040	; 0x410
     970:	3b0b3a08 	blcc	2cf198 <__bss_end__+0x2c4e88>
     974:	490b390b 	stmdbmi	fp, {r0, r1, r3, r8, fp, ip, sp}
     978:	00180213 	andseq	r0, r8, r3, lsl r2
     97c:	00341100 	eorseq	r1, r4, r0, lsl #2
     980:	0b3a0e03 	bleq	e84194 <__bss_end__+0xe79e84>
     984:	0b390b3b 	bleq	e43678 <__bss_end__+0xe39368>
     988:	18021349 	stmdane	r2, {r0, r3, r6, r8, r9, ip}
     98c:	34120000 	ldrcc	r0, [r2], #-0
     990:	3a080300 	bcc	201598 <__bss_end__+0x1f7288>
     994:	390b3b0b 	stmdbcc	fp, {r0, r1, r3, r8, r9, fp, ip, sp}
     998:	0213490b 	andseq	r4, r3, #180224	; 0x2c000
     99c:	1742b717 	smlaldne	fp, r2, r7, r7
     9a0:	89130000 	ldmdbhi	r3, {}	; <UNPREDICTABLE>
     9a4:	11010182 	smlabbne	r1, r2, r1, r0
     9a8:	01133101 	tsteq	r3, r1, lsl #2
     9ac:	14000013 	strne	r0, [r0], #-19	; 0xffffffed
     9b0:	0001828a 	andeq	r8, r1, sl, lsl #5
     9b4:	42911802 	addsmi	r1, r1, #131072	; 0x20000
     9b8:	15000018 	strne	r0, [r0, #-24]	; 0xffffffe8
     9bc:	01018289 	smlabbeq	r1, r9, r2, r8
     9c0:	00000111 	andeq	r0, r0, r1, lsl r1
     9c4:	49010116 	stmdbmi	r1, {r1, r2, r4, r8}
     9c8:	00130113 	andseq	r0, r3, r3, lsl r1
     9cc:	00211700 	eoreq	r1, r1, r0, lsl #14
     9d0:	052f1349 	streq	r1, [pc, #-841]!	; 68f <__code_start__-0x7971>
     9d4:	2e180000 	cdpcs	0, 1, cr0, cr8, cr0, {0}
     9d8:	3c193f00 	ldccc	15, cr3, [r9], {-0}
     9dc:	030e6e19 	movweq	r6, #60953	; 0xee19
     9e0:	3b0b3a0e 	blcc	2cf220 <__bss_end__+0x2c4f10>
     9e4:	000b390b 	andeq	r3, fp, fp, lsl #18
     9e8:	11010000 	mrsne	r0, (UNDEF: 1)
     9ec:	130e2501 	movwne	r2, #58625	; 0xe501
     9f0:	1b0e030b 	blne	381624 <__bss_end__+0x377314>
     9f4:	1201110e 	andne	r1, r1, #-2147483645	; 0x80000003
     9f8:	00171006 	andseq	r1, r7, r6
     9fc:	00240200 	eoreq	r0, r4, r0, lsl #4
     a00:	0b3e0b0b 	bleq	f83634 <__bss_end__+0xf79324>
     a04:	00000803 	andeq	r0, r0, r3, lsl #16
     a08:	0b002403 	bleq	9a1c <uart_disable+0x14>
     a0c:	030b3e0b 	movweq	r3, #48651	; 0xbe0b
     a10:	0400000e 	streq	r0, [r0], #-14
     a14:	19270115 	stmdbne	r7!, {r0, r2, r4, r8}
     a18:	13011349 	movwne	r1, #4937	; 0x1349
     a1c:	05050000 	streq	r0, [r5, #-0]
     a20:	00134900 	andseq	r4, r3, r0, lsl #18
     a24:	00340600 	eorseq	r0, r4, r0, lsl #12
     a28:	0b3a0e03 	bleq	e8423c <__bss_end__+0xe79f2c>
     a2c:	0b390b3b 	bleq	e43720 <__bss_end__+0xe39410>
     a30:	193f1349 	ldmdbne	pc!, {r0, r3, r6, r8, r9, ip}	; <UNPREDICTABLE>
     a34:	0000193c 	andeq	r1, r0, ip, lsr r9
     a38:	0b000f07 	bleq	465c <__code_start__-0x39a4>
     a3c:	0013490b 	andseq	r4, r3, fp, lsl #18
     a40:	00260800 	eoreq	r0, r6, r0, lsl #16
     a44:	00001349 	andeq	r1, r0, r9, asr #6
     a48:	47003409 	strmi	r3, [r0, -r9, lsl #8]
     a4c:	3b0b3a13 	blcc	2cf2a0 <__bss_end__+0x2c4f90>
     a50:	020b390b 	andeq	r3, fp, #180224	; 0x2c000
     a54:	0a000018 	beq	abc <__code_start__-0x7544>
     a58:	193f012e 	ldmdbne	pc!, {r1, r2, r3, r5, r8}	; <UNPREDICTABLE>
     a5c:	0b3a0e03 	bleq	e84270 <__bss_end__+0xe79f60>
     a60:	0b390b3b 	bleq	e43754 <__bss_end__+0xe39444>
     a64:	01111927 	tsteq	r1, r7, lsr #18
     a68:	18400612 	stmdane	r0, {r1, r4, r9, sl}^
     a6c:	01194297 			; <UNDEFINED> instruction: 0x01194297
     a70:	0b000013 	bleq	ac4 <__code_start__-0x753c>
     a74:	08030005 	stmdaeq	r3, {r0, r2}
     a78:	0b3b0b3a 	bleq	ec3768 <__bss_end__+0xeb9458>
     a7c:	13490b39 	movtne	r0, #39737	; 0x9b39
     a80:	00001802 	andeq	r1, r0, r2, lsl #16
     a84:	3f002e0c 	svccc	0x00002e0c
     a88:	3a0e0319 	bcc	3816f4 <__bss_end__+0x3773e4>
     a8c:	390b3b0b 	stmdbcc	fp, {r0, r1, r3, r8, r9, fp, ip, sp}
     a90:	1119270b 	tstne	r9, fp, lsl #14
     a94:	40061201 	andmi	r1, r6, r1, lsl #4
     a98:	19429718 	stmdbne	r2, {r3, r4, r8, r9, sl, ip, pc}^
     a9c:	2e0d0000 	cdpcs	0, 0, cr0, cr13, cr0, {0}
     aa0:	3a0e0301 	bcc	3816ac <__bss_end__+0x37739c>
     aa4:	390b3b0b 	stmdbcc	fp, {r0, r1, r3, r8, r9, fp, ip, sp}
     aa8:	4919270b 	ldmdbmi	r9, {r0, r1, r3, r8, r9, sl, sp}
     aac:	12011113 	andne	r1, r1, #-1073741820	; 0xc0000004
     ab0:	97184006 	ldrls	r4, [r8, -r6]
     ab4:	13011942 	movwne	r1, #6466	; 0x1942
     ab8:	050e0000 	streq	r0, [lr, #-0]
     abc:	3a080300 	bcc	2016c4 <__bss_end__+0x1f73b4>
     ac0:	390b3b0b 	stmdbcc	fp, {r0, r1, r3, r8, r9, fp, ip, sp}
     ac4:	0213490b 	andseq	r4, r3, #180224	; 0x2c000
     ac8:	1742b717 	smlaldne	fp, r2, r7, r7
     acc:	890f0000 	stmdbhi	pc, {}	; <UNPREDICTABLE>
     ad0:	11010182 	smlabbne	r1, r2, r1, r0
     ad4:	00133101 	andseq	r3, r3, r1, lsl #2
     ad8:	828a1000 	addhi	r1, sl, #0, 0
     adc:	18020001 	stmdane	r2, {r0}
     ae0:	00184291 	mulseq	r8, r1, r2
     ae4:	002e1100 	eoreq	r1, lr, r0, lsl #2
     ae8:	193c193f 	ldmdbne	ip!, {r0, r1, r2, r3, r4, r5, r8, fp, ip}
     aec:	0e030e6e 	cdpeq	14, 0, cr0, cr3, cr14, {3}
     af0:	0b3b0b3a 	bleq	ec37e0 <__bss_end__+0xeb94d0>
     af4:	00000b39 	andeq	r0, r0, r9, lsr fp
     af8:	01110100 	tsteq	r1, r0, lsl #2
     afc:	0b130e25 	bleq	4c4398 <__bss_end__+0x4ba088>
     b00:	0e1b0e03 	cdpeq	14, 1, cr0, cr11, cr3, {0}
     b04:	06120111 			; <UNDEFINED> instruction: 0x06120111
     b08:	00001710 	andeq	r1, r0, r0, lsl r7
     b0c:	0b002402 	bleq	9b1c <__code_end__+0x34>
     b10:	030b3e0b 	movweq	r3, #48651	; 0xbe0b
     b14:	03000008 	movweq	r0, #8
     b18:	0b0b0024 	bleq	2c0bb0 <__bss_end__+0x2b68a0>
     b1c:	0e030b3e 	vmoveq.16	d3[0], r0
     b20:	15040000 	strne	r0, [r4, #-0]
     b24:	49192701 	ldmdbmi	r9, {r0, r8, r9, sl, sp}
     b28:	00130113 	andseq	r0, r3, r3, lsl r1
     b2c:	00050500 	andeq	r0, r5, r0, lsl #10
     b30:	00001349 	andeq	r1, r0, r9, asr #6
     b34:	03003406 	movweq	r3, #1030	; 0x406
     b38:	3b0b3a0e 	blcc	2cf378 <__bss_end__+0x2c5068>
     b3c:	490b390b 	stmdbmi	fp, {r0, r1, r3, r8, fp, ip, sp}
     b40:	3c193f13 	ldccc	15, cr3, [r9], {19}
     b44:	07000019 	smladeq	r0, r9, r0, r0
     b48:	0b0b000f 	bleq	2c0b8c <__bss_end__+0x2b687c>
     b4c:	00001349 	andeq	r1, r0, r9, asr #6
     b50:	49002608 	stmdbmi	r0, {r3, r9, sl, sp}
     b54:	09000013 	stmdbeq	r0, {r0, r1, r4}
     b58:	13470034 	movtne	r0, #28724	; 0x7034
     b5c:	0b3b0b3a 	bleq	ec384c <__bss_end__+0xeb953c>
     b60:	18020b39 	stmdane	r2, {r0, r3, r4, r5, r8, r9, fp}
     b64:	2e0a0000 	cdpcs	0, 0, cr0, cr10, cr0, {0}
     b68:	03193f01 	tsteq	r9, #1, 30
     b6c:	3b0b3a0e 	blcc	2cf3ac <__bss_end__+0x2c509c>
     b70:	270b390b 	strcs	r3, [fp, -fp, lsl #18]
     b74:	11134919 	tstne	r3, r9, lsl r9
     b78:	40061201 	andmi	r1, r6, r1, lsl #4
     b7c:	19429618 	stmdbne	r2, {r3, r4, r9, sl, ip, pc}^
     b80:	050b0000 	streq	r0, [fp, #-0]
     b84:	3a080300 	bcc	20178c <__bss_end__+0x1f747c>
     b88:	390b3b0b 	stmdbcc	fp, {r0, r1, r3, r8, r9, fp, ip, sp}
     b8c:	0213490b 	andseq	r4, r3, #180224	; 0x2c000
     b90:	1742b717 	smlaldne	fp, r2, r7, r7
     b94:	01000000 	mrseq	r0, (UNDEF: 0)
     b98:	0e250111 	mcreq	1, 1, r0, cr5, cr1, {0}
     b9c:	0e030b13 	vmoveq.32	d3[0], r0
     ba0:	01110e1b 	tsteq	r1, fp, lsl lr
     ba4:	17100612 			; <UNDEFINED> instruction: 0x17100612
     ba8:	24020000 	strcs	r0, [r2], #-0
     bac:	3e0b0b00 	vmlacc.f64	d0, d11, d0
     bb0:	000e030b 	andeq	r0, lr, fp, lsl #6
     bb4:	00240300 	eoreq	r0, r4, r0, lsl #6
     bb8:	0b3e0b0b 	bleq	f837ec <__bss_end__+0xf794dc>
     bbc:	00000803 	andeq	r0, r0, r3, lsl #16
     bc0:	03001604 	movweq	r1, #1540	; 0x604
     bc4:	3b0b3a0e 	blcc	2cf404 <__bss_end__+0x2c50f4>
     bc8:	490b390b 	stmdbmi	fp, {r0, r1, r3, r8, fp, ip, sp}
     bcc:	05000013 	streq	r0, [r0, #-19]	; 0xffffffed
     bd0:	19270115 	stmdbne	r7!, {r0, r2, r4, r8}
     bd4:	13011349 	movwne	r1, #4937	; 0x1349
     bd8:	05060000 	streq	r0, [r6, #-0]
     bdc:	00134900 	andseq	r4, r3, r0, lsl #18
     be0:	00340700 	eorseq	r0, r4, r0, lsl #14
     be4:	0b3a0e03 	bleq	e843f8 <__bss_end__+0xe7a0e8>
     be8:	0b390b3b 	bleq	e438dc <__bss_end__+0xe395cc>
     bec:	193f1349 	ldmdbne	pc!, {r0, r3, r6, r8, r9, ip}	; <UNPREDICTABLE>
     bf0:	0000193c 	andeq	r1, r0, ip, lsr r9
     bf4:	0b000f08 	bleq	481c <__code_start__-0x37e4>
     bf8:	0013490b 	andseq	r4, r3, fp, lsl #18
     bfc:	00260900 	eoreq	r0, r6, r0, lsl #18
     c00:	00001349 	andeq	r1, r0, r9, asr #6
     c04:	0301130a 	movweq	r1, #4874	; 0x130a
     c08:	3a0b0b0e 	bcc	2c3848 <__bss_end__+0x2b9538>
     c0c:	010b3b0b 	tsteq	fp, fp, lsl #22
     c10:	0b000013 	bleq	c64 <__code_start__-0x739c>
     c14:	0e03000d 	cdpeq	0, 0, cr0, cr3, cr13, {0}
     c18:	0b381349 	bleq	e05944 <__bss_end__+0xdfb634>
     c1c:	00001934 	andeq	r1, r0, r4, lsr r9
     c20:	0b000f0c 	bleq	4858 <__code_start__-0x37a8>
     c24:	0d00000b 	stceq	0, cr0, [r0, #-44]	; 0xffffffd4
     c28:	193f012e 	ldmdbne	pc!, {r1, r2, r3, r5, r8}	; <UNPREDICTABLE>
     c2c:	0b3a0e03 	bleq	e84440 <__bss_end__+0xe7a130>
     c30:	0b390b3b 	bleq	e43924 <__bss_end__+0xe39614>
     c34:	13491927 	movtne	r1, #39207	; 0x9927
     c38:	06120111 			; <UNDEFINED> instruction: 0x06120111
     c3c:	42971840 	addsmi	r1, r7, #64, 16	; 0x400000
     c40:	00130119 	andseq	r0, r3, r9, lsl r1
     c44:	00050e00 	andeq	r0, r5, r0, lsl #28
     c48:	0b3a0803 	bleq	e82c5c <__bss_end__+0xe7894c>
     c4c:	0b390b3b 	bleq	e43940 <__bss_end__+0xe39630>
     c50:	17021349 	strne	r1, [r2, -r9, asr #6]
     c54:	001742b7 			; <UNDEFINED> instruction: 0x001742b7
     c58:	00050f00 	andeq	r0, r5, r0, lsl #30
     c5c:	0b3a0e03 	bleq	e84470 <__bss_end__+0xe7a160>
     c60:	0b390b3b 	bleq	e43954 <__bss_end__+0xe39644>
     c64:	17021349 	strne	r1, [r2, -r9, asr #6]
     c68:	001742b7 			; <UNDEFINED> instruction: 0x001742b7
     c6c:	00341000 	eorseq	r1, r4, r0
     c70:	0b3a0803 	bleq	e82c84 <__bss_end__+0xe78974>
     c74:	0b390b3b 	bleq	e43968 <__bss_end__+0xe39658>
     c78:	17021349 	strne	r1, [r2, -r9, asr #6]
     c7c:	001742b7 			; <UNDEFINED> instruction: 0x001742b7
     c80:	00341100 	eorseq	r1, r4, r0, lsl #2
     c84:	0b3a0e03 	bleq	e84498 <__bss_end__+0xe7a188>
     c88:	0b390b3b 	bleq	e4397c <__bss_end__+0xe3966c>
     c8c:	17021349 	strne	r1, [r2, -r9, asr #6]
     c90:	001742b7 			; <UNDEFINED> instruction: 0x001742b7
     c94:	00341200 	eorseq	r1, r4, r0, lsl #4
     c98:	13490e03 	movtne	r0, #40451	; 0x9e03
     c9c:	18021934 	stmdane	r2, {r2, r4, r5, r8, fp, ip}
     ca0:	0b130000 	bleq	4c0ca8 <__bss_end__+0x4b6998>
     ca4:	00175501 	andseq	r5, r7, r1, lsl #10
     ca8:	00341400 	eorseq	r1, r4, r0, lsl #8
     cac:	0b3a0803 	bleq	e82cc0 <__bss_end__+0xe789b0>
     cb0:	0b390b3b 	bleq	e439a4 <__bss_end__+0xe39694>
     cb4:	18021349 	stmdane	r2, {r0, r3, r6, r8, r9, ip}
     cb8:	34150000 	ldrcc	r0, [r5], #-0
     cbc:	3a0e0300 	bcc	3818c4 <__bss_end__+0x3775b4>
     cc0:	390b3b0b 	stmdbcc	fp, {r0, r1, r3, r8, r9, fp, ip, sp}
     cc4:	0213490b 	andseq	r4, r3, #180224	; 0x2c000
     cc8:	16000018 			; <UNDEFINED> instruction: 0x16000018
     ccc:	1755010b 	ldrbne	r0, [r5, -fp, lsl #2]
     cd0:	00001301 	andeq	r1, r0, r1, lsl #6
     cd4:	01828917 	orreq	r8, r2, r7, lsl r9
     cd8:	31011101 	tstcc	r1, r1, lsl #2
     cdc:	00130113 	andseq	r0, r3, r3, lsl r1
     ce0:	828a1800 	addhi	r1, sl, #0, 16
     ce4:	18020001 	stmdane	r2, {r0}
     ce8:	00184291 	mulseq	r8, r1, r2
     cec:	82891900 	addhi	r1, r9, #0, 18
     cf0:	01110001 	tsteq	r1, r1
     cf4:	00001331 	andeq	r1, r0, r1, lsr r3
     cf8:	31011d1a 	tstcc	r1, sl, lsl sp
     cfc:	b8015213 	stmdalt	r1, {r0, r1, r4, r9, ip, lr}
     d00:	17550542 	ldrbne	r0, [r5, -r2, asr #10]
     d04:	0b590b58 	bleq	1643a6c <__bss_end__+0x163975c>
     d08:	13010b57 	movwne	r0, #6999	; 0x1b57
     d0c:	051b0000 	ldreq	r0, [fp, #-0]
     d10:	02133100 	andseq	r3, r3, #0
     d14:	1742b717 	smlaldne	fp, r2, r7, r7
     d18:	051c0000 	ldreq	r0, [ip, #-0]
     d1c:	00133100 	andseq	r3, r3, r0, lsl #2
     d20:	00341d00 	eorseq	r1, r4, r0, lsl #26
     d24:	18021331 	stmdane	r2, {r0, r4, r5, r8, r9, ip}
     d28:	341e0000 	ldrcc	r0, [lr], #-0
     d2c:	02133100 	andseq	r3, r3, #0
     d30:	1742b717 	smlaldne	fp, r2, r7, r7
     d34:	341f0000 	ldrcc	r0, [pc], #-0	; d3c <__code_start__-0x72c4>
     d38:	00133100 	andseq	r3, r3, r0, lsl #2
     d3c:	011d2000 	tsteq	sp, r0
     d40:	01521331 	cmpeq	r2, r1, lsr r3
     d44:	550542b8 	strpl	r4, [r5, #-696]	; 0xfffffd48
     d48:	590b5817 	stmdbpl	fp, {r0, r1, r2, r4, fp, ip, lr}
     d4c:	000b570b 	andeq	r5, fp, fp, lsl #14
     d50:	82892100 	addhi	r2, r9, #0
     d54:	01110101 	tsteq	r1, r1, lsl #2
     d58:	00001301 	andeq	r1, r0, r1, lsl #6
     d5c:	49010122 	stmdbmi	r1, {r1, r5, r8}
     d60:	00130113 	andseq	r0, r3, r3, lsl r1
     d64:	00212300 	eoreq	r2, r1, r0, lsl #6
     d68:	0b2f1349 	bleq	bc5a94 <__bss_end__+0xbbb784>
     d6c:	2e240000 	cdpcs	0, 2, cr0, cr4, cr0, {0}
     d70:	3a0e0301 	bcc	38197c <__bss_end__+0x37766c>
     d74:	390b3b0b 	stmdbcc	fp, {r0, r1, r3, r8, r9, fp, ip, sp}
     d78:	4919270b 	ldmdbmi	r9, {r0, r1, r3, r8, r9, sl, sp}
     d7c:	010b2013 	tsteq	fp, r3, lsl r0
     d80:	25000013 	strcs	r0, [r0, #-19]	; 0xffffffed
     d84:	0e030005 	cdpeq	0, 0, cr0, cr3, cr5, {0}
     d88:	0b3b0b3a 	bleq	ec3a78 <__bss_end__+0xeb9768>
     d8c:	13490b39 	movtne	r0, #39737	; 0x9b39
     d90:	05260000 	streq	r0, [r6, #-0]!
     d94:	3a080300 	bcc	20199c <__bss_end__+0x1f768c>
     d98:	390b3b0b 	stmdbcc	fp, {r0, r1, r3, r8, r9, fp, ip, sp}
     d9c:	0013490b 	andseq	r4, r3, fp, lsl #18
     da0:	00342700 	eorseq	r2, r4, r0, lsl #14
     da4:	0b3a0803 	bleq	e82db8 <__bss_end__+0xe78aa8>
     da8:	0b390b3b 	bleq	e43a9c <__bss_end__+0xe3978c>
     dac:	00001349 	andeq	r1, r0, r9, asr #6
     db0:	00010b28 	andeq	r0, r1, r8, lsr #22
     db4:	00342900 	eorseq	r2, r4, r0, lsl #18
     db8:	0b3a0e03 	bleq	e845cc <__bss_end__+0xe7a2bc>
     dbc:	0b390b3b 	bleq	e43ab0 <__bss_end__+0xe397a0>
     dc0:	00001349 	andeq	r1, r0, r9, asr #6
     dc4:	03012e2a 	movweq	r2, #7722	; 0x1e2a
     dc8:	3b0b3a08 	blcc	2cf5f0 <__bss_end__+0x2c52e0>
     dcc:	270b390b 	strcs	r3, [fp, -fp, lsl #18]
     dd0:	20134919 	andscs	r4, r3, r9, lsl r9
     dd4:	0013010b 	andseq	r0, r3, fp, lsl #2
     dd8:	012e2b00 			; <UNDEFINED> instruction: 0x012e2b00
     ddc:	0e03193f 			; <UNDEFINED> instruction: 0x0e03193f
     de0:	0b3b0b3a 	bleq	ec3ad0 <__bss_end__+0xeb97c0>
     de4:	19270b39 	stmdbne	r7!, {r0, r3, r4, r5, r8, r9, fp}
     de8:	06120111 			; <UNDEFINED> instruction: 0x06120111
     dec:	42971840 	addsmi	r1, r7, #64, 16	; 0x400000
     df0:	00130119 	andseq	r0, r3, r9, lsl r1
     df4:	012e2c00 			; <UNDEFINED> instruction: 0x012e2c00
     df8:	01111331 	tsteq	r1, r1, lsr r3
     dfc:	18400612 	stmdane	r0, {r1, r4, r9, sl}^
     e00:	01194297 			; <UNDEFINED> instruction: 0x01194297
     e04:	2d000013 	stccs	0, cr0, [r0, #-76]	; 0xffffffb4
     e08:	13310005 	teqne	r1, #5, 0
     e0c:	00001802 	andeq	r1, r0, r2, lsl #16
     e10:	3100052e 	tstcc	r0, lr, lsr #10
     e14:	000b1c13 	andeq	r1, fp, r3, lsl ip
     e18:	010b2f00 	tsteq	fp, r0, lsl #30
     e1c:	01111331 	tsteq	r1, r1, lsr r3
     e20:	13010612 	movwne	r0, #5650	; 0x1612
     e24:	2e300000 	cdpcs	0, 3, cr0, cr0, cr0, {0}
     e28:	3c193f00 	ldccc	15, cr3, [r9], {-0}
     e2c:	030e6e19 	movweq	r6, #60953	; 0xee19
     e30:	3b0b3a0e 	blcc	2cf670 <__bss_end__+0x2c5360>
     e34:	000b390b 	andeq	r3, fp, fp, lsl #18
     e38:	11010000 	mrsne	r0, (UNDEF: 1)
     e3c:	130e2501 	movwne	r2, #58625	; 0xe501
     e40:	1b0e030b 	blne	381a74 <__bss_end__+0x377764>
     e44:	1201110e 	andne	r1, r1, #-2147483645	; 0x80000003
     e48:	00171006 	andseq	r1, r7, r6
     e4c:	00240200 	eoreq	r0, r4, r0, lsl #4
     e50:	0b3e0b0b 	bleq	f83a84 <__bss_end__+0xf79774>
     e54:	00000803 	andeq	r0, r0, r3, lsl #16
     e58:	0b002403 	bleq	9e6c <__FUNCTION__.1+0x104>
     e5c:	030b3e0b 	movweq	r3, #48651	; 0xbe0b
     e60:	0400000e 	streq	r0, [r0], #-14
     e64:	19270115 	stmdbne	r7!, {r0, r2, r4, r8}
     e68:	13011349 	movwne	r1, #4937	; 0x1349
     e6c:	05050000 	streq	r0, [r5, #-0]
     e70:	00134900 	andseq	r4, r3, r0, lsl #18
     e74:	00340600 	eorseq	r0, r4, r0, lsl #12
     e78:	0b3a0e03 	bleq	e8468c <__bss_end__+0xe7a37c>
     e7c:	0b390b3b 	bleq	e43b70 <__bss_end__+0xe39860>
     e80:	193f1349 	ldmdbne	pc!, {r0, r3, r6, r8, r9, ip}	; <UNPREDICTABLE>
     e84:	0000193c 	andeq	r1, r0, ip, lsr r9
     e88:	0b000f07 	bleq	4aac <__code_start__-0x3554>
     e8c:	0013490b 	andseq	r4, r3, fp, lsl #18
     e90:	00260800 	eoreq	r0, r6, r0, lsl #16
     e94:	00001349 	andeq	r1, r0, r9, asr #6
     e98:	3f012e09 	svccc	0x00012e09
     e9c:	3a0e0319 	bcc	381b08 <__bss_end__+0x3777f8>
     ea0:	390b3b0b 	stmdbcc	fp, {r0, r1, r3, r8, r9, fp, ip, sp}
     ea4:	8719270b 	ldrhi	r2, [r9, -fp, lsl #14]
     ea8:	01111901 	tsteq	r1, r1, lsl #18
     eac:	18400612 	stmdane	r0, {r1, r4, r9, sl}^
     eb0:	01194297 			; <UNDEFINED> instruction: 0x01194297
     eb4:	0a000013 	beq	f08 <__code_start__-0x70f8>
     eb8:	01018289 	smlabbeq	r1, r9, r2, r8
     ebc:	13010111 	movwne	r0, #4369	; 0x1111
     ec0:	8a0b0000 	bhi	2c0ec8 <__bss_end__+0x2b6bb8>
     ec4:	02000182 	andeq	r0, r0, #-2147483616	; 0x80000020
     ec8:	18429118 	stmdane	r2, {r3, r4, r8, ip, pc}^
     ecc:	890c0000 	stmdbhi	ip, {}	; <UNPREDICTABLE>
     ed0:	11000182 	smlabbne	r0, r2, r1, r0
     ed4:	00133101 	andseq	r3, r3, r1, lsl #2
     ed8:	82890d00 	addhi	r0, r9, #0, 26
     edc:	01110101 	tsteq	r1, r1, lsl #2
     ee0:	13011331 	movwne	r1, #4913	; 0x1331
     ee4:	2e0e0000 	cdpcs	0, 0, cr0, cr14, cr0, {0}
     ee8:	3c193f00 	ldccc	15, cr3, [r9], {-0}
     eec:	030e6e19 	movweq	r6, #60953	; 0xee19
     ef0:	3b0b3a0e 	blcc	2cf730 <__bss_end__+0x2c5420>
     ef4:	000b390b 	andeq	r3, fp, fp, lsl #18
     ef8:	11010000 	mrsne	r0, (UNDEF: 1)
     efc:	130e2501 	movwne	r2, #58625	; 0xe501
     f00:	1b0e030b 	blne	381b34 <__bss_end__+0x377824>
     f04:	1201110e 	andne	r1, r1, #-2147483645	; 0x80000003
     f08:	00171006 	andseq	r1, r7, r6
     f0c:	00240200 	eoreq	r0, r4, r0, lsl #4
     f10:	0b3e0b0b 	bleq	f83b44 <__bss_end__+0xf79834>
     f14:	00000803 	andeq	r0, r0, r3, lsl #16
     f18:	0b002403 	bleq	9f2c <buf.3948+0x20>
     f1c:	030b3e0b 	movweq	r3, #48651	; 0xbe0b
     f20:	0400000e 	streq	r0, [r0], #-14
     f24:	19270115 	stmdbne	r7!, {r0, r2, r4, r8}
     f28:	13011349 	movwne	r1, #4937	; 0x1349
     f2c:	05050000 	streq	r0, [r5, #-0]
     f30:	00134900 	andseq	r4, r3, r0, lsl #18
     f34:	00340600 	eorseq	r0, r4, r0, lsl #12
     f38:	0b3a0e03 	bleq	e8474c <__bss_end__+0xe7a43c>
     f3c:	0b390b3b 	bleq	e43c30 <__bss_end__+0xe39920>
     f40:	193f1349 	ldmdbne	pc!, {r0, r3, r6, r8, r9, ip}	; <UNPREDICTABLE>
     f44:	0000193c 	andeq	r1, r0, ip, lsr r9
     f48:	0b000f07 	bleq	4b6c <__code_start__-0x3494>
     f4c:	0013490b 	andseq	r4, r3, fp, lsl #18
     f50:	00260800 	eoreq	r0, r6, r0, lsl #16
     f54:	00001349 	andeq	r1, r0, r9, asr #6
     f58:	3f012e09 	svccc	0x00012e09
     f5c:	3a0e0319 	bcc	381bc8 <__bss_end__+0x3778b8>
     f60:	390b3b0b 	stmdbcc	fp, {r0, r1, r3, r8, r9, fp, ip, sp}
     f64:	1201110b 	andne	r1, r1, #-1073741822	; 0xc0000002
     f68:	97184006 	ldrls	r4, [r8, -r6]
     f6c:	13011942 	movwne	r1, #6466	; 0x1942
     f70:	2e0a0000 	cdpcs	0, 0, cr0, cr10, cr0, {0}
     f74:	03193f00 	tsteq	r9, #0, 30
     f78:	3b0b3a0e 	blcc	2cf7b8 <__bss_end__+0x2c54a8>
     f7c:	270b390b 	strcs	r3, [fp, -fp, lsl #18]
     f80:	00193c19 	andseq	r3, r9, r9, lsl ip
     f84:	00340b00 	eorseq	r0, r4, r0, lsl #22
     f88:	0b3a0803 	bleq	e82f9c <__bss_end__+0xe78c8c>
     f8c:	0b390b3b 	bleq	e43c80 <__bss_end__+0xe39970>
     f90:	17021349 	strne	r1, [r2, -r9, asr #6]
     f94:	001742b7 			; <UNDEFINED> instruction: 0x001742b7
     f98:	00340c00 	eorseq	r0, r4, r0, lsl #24
     f9c:	0b3a0e03 	bleq	e847b0 <__bss_end__+0xe7a4a0>
     fa0:	0b390b3b 	bleq	e43c94 <__bss_end__+0xe39984>
     fa4:	00001349 	andeq	r1, r0, r9, asr #6
     fa8:	0300340d 	movweq	r3, #1037	; 0x40d
     fac:	3b0b3a0e 	blcc	2cf7ec <__bss_end__+0x2c54dc>
     fb0:	490b390b 	stmdbmi	fp, {r0, r1, r3, r8, fp, ip, sp}
     fb4:	b7170213 			; <UNDEFINED> instruction: 0xb7170213
     fb8:	00001742 	andeq	r1, r0, r2, asr #14
     fbc:	11010b0e 	tstne	r1, lr, lsl #22
     fc0:	01061201 	tsteq	r6, r1, lsl #4
     fc4:	0f000013 	svceq	0x00000013
     fc8:	1331011d 	teqne	r1, #1073741831	; 0x40000007
     fcc:	42b80152 	adcsmi	r0, r8, #-2147483628	; 0x80000014
     fd0:	1201110b 	andne	r1, r1, #-1073741822	; 0xc0000002
     fd4:	590b5806 	stmdbpl	fp, {r1, r2, fp, ip, lr}
     fd8:	010b570b 	tsteq	fp, fp, lsl #14
     fdc:	10000013 	andne	r0, r0, r3, lsl r0
     fe0:	13310034 	teqne	r1, #52, 0	; 0x34
     fe4:	42b71702 	adcsmi	r1, r7, #524288	; 0x80000
     fe8:	11000017 	tstne	r0, r7, lsl r0
     fec:	1331010b 	teqne	r1, #-1073741822	; 0xc0000002
     ff0:	06120111 			; <UNDEFINED> instruction: 0x06120111
     ff4:	1d120000 	ldcne	0, cr0, [r2, #-0]
     ff8:	52133101 	andspl	r3, r3, #1073741824	; 0x40000000
     ffc:	0b42b801 	bleq	10af008 <__bss_end__+0x10a4cf8>
    1000:	0b581755 	bleq	1606d5c <__bss_end__+0x15fca4c>
    1004:	0b570b59 	bleq	15c3d70 <__bss_end__+0x15b9a60>
    1008:	00001301 	andeq	r1, r0, r1, lsl #6
    100c:	55010b13 	strpl	r0, [r1, #-2835]	; 0xfffff4ed
    1010:	14000017 	strne	r0, [r0], #-23	; 0xffffffe9
    1014:	00018289 	andeq	r8, r1, r9, lsl #5
    1018:	13310111 	teqne	r1, #1073741828	; 0x40000004
    101c:	89150000 	ldmdbhi	r5, {}	; <UNPREDICTABLE>
    1020:	11010182 	smlabbne	r1, r2, r1, r0
    1024:	01133101 	tsteq	r3, r1, lsl #2
    1028:	16000013 			; <UNDEFINED> instruction: 0x16000013
    102c:	0001828a 	andeq	r8, r1, sl, lsl #5
    1030:	42911802 	addsmi	r1, r1, #131072	; 0x20000
    1034:	17000018 	smladne	r0, r8, r0, r0
    1038:	0e03012e 	adfeqsp	f0, f3, #0.5
    103c:	0b3b0b3a 	bleq	ec3d2c <__bss_end__+0xeb9a1c>
    1040:	19270b39 	stmdbne	r7!, {r0, r3, r4, r5, r8, r9, fp}
    1044:	0b201349 	bleq	805d70 <__bss_end__+0x7fba60>
    1048:	00001301 	andeq	r1, r0, r1, lsl #6
    104c:	03003418 	movweq	r3, #1048	; 0x418
    1050:	3b0b3a0e 	blcc	2cf890 <__bss_end__+0x2c5580>
    1054:	490b390b 	stmdbmi	fp, {r0, r1, r3, r8, fp, ip, sp}
    1058:	00180213 	andseq	r0, r8, r3, lsl r2
    105c:	00341900 	eorseq	r1, r4, r0, lsl #18
    1060:	0b3a0803 	bleq	e83074 <__bss_end__+0xe78d64>
    1064:	0b390b3b 	bleq	e43d58 <__bss_end__+0xe39a48>
    1068:	00001349 	andeq	r1, r0, r9, asr #6
    106c:	00010b1a 	andeq	r0, r1, sl, lsl fp
    1070:	002e1b00 	eoreq	r1, lr, r0, lsl #22
    1074:	193c193f 	ldmdbne	ip!, {r0, r1, r2, r3, r4, r5, r8, fp, ip}
    1078:	0e030e6e 	cdpeq	14, 0, cr0, cr3, cr14, {3}
    107c:	053b0b3a 	ldreq	r0, [fp, #-2874]!	; 0xfffff4c6
    1080:	00000b39 	andeq	r0, r0, r9, lsr fp
    1084:	3f002e1c 	svccc	0x00002e1c
    1088:	6e193c19 	mrcvs	12, 0, r3, cr9, cr9, {0}
    108c:	3a0e030e 	bcc	381ccc <__bss_end__+0x3779bc>
    1090:	390b3b0b 	stmdbcc	fp, {r0, r1, r3, r8, r9, fp, ip, sp}
    1094:	0000000b 	andeq	r0, r0, fp
    1098:	25011101 	strcs	r1, [r1, #-257]	; 0xfffffeff
    109c:	030b130e 	movweq	r1, #45838	; 0xb30e
    10a0:	110e1b0e 	tstne	lr, lr, lsl #22
    10a4:	10061201 	andne	r1, r6, r1, lsl #4
    10a8:	02000017 	andeq	r0, r0, #23, 0
    10ac:	0b0b0024 	bleq	2c1144 <__bss_end__+0x2b6e34>
    10b0:	08030b3e 	stmdaeq	r3, {r1, r2, r3, r4, r5, r8, r9, fp}
    10b4:	24030000 	strcs	r0, [r3], #-0
    10b8:	3e0b0b00 	vmlacc.f64	d0, d11, d0
    10bc:	000e030b 	andeq	r0, lr, fp, lsl #6
    10c0:	01150400 	tsteq	r5, r0, lsl #8
    10c4:	13491927 	movtne	r1, #39207	; 0x9927
    10c8:	00001301 	andeq	r1, r0, r1, lsl #6
    10cc:	49000505 	stmdbmi	r0, {r0, r2, r8, sl}
    10d0:	06000013 			; <UNDEFINED> instruction: 0x06000013
    10d4:	0e030034 	mcreq	0, 0, r0, cr3, cr4, {1}
    10d8:	0b3b0b3a 	bleq	ec3dc8 <__bss_end__+0xeb9ab8>
    10dc:	13490b39 	movtne	r0, #39737	; 0x9b39
    10e0:	193c193f 	ldmdbne	ip!, {r0, r1, r2, r3, r4, r5, r8, fp, ip}
    10e4:	0f070000 	svceq	0x00070000
    10e8:	490b0b00 	stmdbmi	fp, {r8, r9, fp}
    10ec:	08000013 	stmdaeq	r0, {r0, r1, r4}
    10f0:	13490026 	movtne	r0, #36902	; 0x9026
    10f4:	2e090000 	cdpcs	0, 0, cr0, cr9, cr0, {0}
    10f8:	03193f00 	tsteq	r9, #0, 30
    10fc:	3b0b3a0e 	blcc	2cf93c <__bss_end__+0x2c562c>
    1100:	270b390b 	strcs	r3, [fp, -fp, lsl #18]
    1104:	12011119 	andne	r1, r1, #1073741830	; 0x40000006
    1108:	97184006 	ldrls	r4, [r8, -r6]
    110c:	00001942 	andeq	r1, r0, r2, asr #18
    1110:	01110100 	tsteq	r1, r0, lsl #2
    1114:	0b130e25 	bleq	4c49b0 <__bss_end__+0x4ba6a0>
    1118:	0e1b0e03 	cdpeq	14, 1, cr0, cr11, cr3, {0}
    111c:	01111755 	tsteq	r1, r5, asr r7
    1120:	00001710 	andeq	r1, r0, r0, lsl r7
    1124:	0b002402 	bleq	a134 <buf.3948+0x228>
    1128:	030b3e0b 	movweq	r3, #48651	; 0xbe0b
    112c:	03000008 	movweq	r0, #8
    1130:	13490026 	movtne	r0, #36902	; 0x9026
    1134:	24040000 	strcs	r0, [r4], #-0
    1138:	3e0b0b00 	vmlacc.f64	d0, d11, d0
    113c:	000e030b 	andeq	r0, lr, fp, lsl #6
    1140:	01150500 	tsteq	r5, r0, lsl #10
    1144:	13491927 	movtne	r1, #39207	; 0x9927
    1148:	00001301 	andeq	r1, r0, r1, lsl #6
    114c:	49000506 	stmdbmi	r0, {r1, r2, r8, sl}
    1150:	07000013 	smladeq	r0, r3, r0, r0
    1154:	0e030034 	mcreq	0, 0, r0, cr3, cr4, {1}
    1158:	0b3b0b3a 	bleq	ec3e48 <__bss_end__+0xeb9b38>
    115c:	13490b39 	movtne	r0, #39737	; 0x9b39
    1160:	193c193f 	ldmdbne	ip!, {r0, r1, r2, r3, r4, r5, r8, fp, ip}
    1164:	0f080000 	svceq	0x00080000
    1168:	490b0b00 	stmdbmi	fp, {r8, r9, fp}
    116c:	09000013 	stmdbeq	r0, {r0, r1, r4}
    1170:	0e030034 	mcreq	0, 0, r0, cr3, cr4, {1}
    1174:	0b3b0b3a 	bleq	ec3e64 <__bss_end__+0xeb9b54>
    1178:	13490b39 	movtne	r0, #39737	; 0x9b39
    117c:	2e0a0000 	cdpcs	0, 0, cr0, cr10, cr0, {0}
    1180:	03193f01 	tsteq	r9, #1, 30
    1184:	3b0b3a0e 	blcc	2cf9c4 <__bss_end__+0x2c56b4>
    1188:	270b390b 	strcs	r3, [fp, -fp, lsl #18]
    118c:	19018719 	stmdbne	r1, {r0, r3, r4, r8, r9, sl, pc}
    1190:	06120111 			; <UNDEFINED> instruction: 0x06120111
    1194:	42971840 	addsmi	r1, r7, #64, 16	; 0x400000
    1198:	00130119 	andseq	r0, r3, r9, lsl r1
    119c:	00340b00 	eorseq	r0, r4, r0, lsl #22
    11a0:	0b3a0e03 	bleq	e849b4 <__bss_end__+0xe7a6a4>
    11a4:	0b390b3b 	bleq	e43e98 <__bss_end__+0xe39b88>
    11a8:	061c1349 	ldreq	r1, [ip], -r9, asr #6
    11ac:	340c0000 	strcc	r0, [ip], #-0
    11b0:	3a0e0300 	bcc	381db8 <__bss_end__+0x377aa8>
    11b4:	390b3b0b 	stmdbcc	fp, {r0, r1, r3, r8, r9, fp, ip, sp}
    11b8:	1c13490b 			; <UNDEFINED> instruction: 0x1c13490b
    11bc:	0d00000b 	stceq	0, cr0, [r0, #-44]	; 0xffffffd4
    11c0:	1331011d 	teqne	r1, #1073741831	; 0x40000007
    11c4:	42b80152 	adcsmi	r0, r8, #-2147483628	; 0x80000014
    11c8:	5817550b 	ldmdapl	r7, {r0, r1, r3, r8, sl, ip, lr}
    11cc:	570b590b 	strpl	r5, [fp, -fp, lsl #18]
    11d0:	0013010b 	andseq	r0, r3, fp, lsl #2
    11d4:	010b0e00 	tsteq	fp, r0, lsl #28
    11d8:	00001755 	andeq	r1, r0, r5, asr r7
    11dc:	3100340f 	tstcc	r0, pc, lsl #8
    11e0:	b7170213 			; <UNDEFINED> instruction: 0xb7170213
    11e4:	00001742 	andeq	r1, r0, r2, asr #14
    11e8:	31011d10 	tstcc	r1, r0, lsl sp
    11ec:	b8015213 	stmdalt	r1, {r0, r1, r4, r9, ip, lr}
    11f0:	01110b42 	tsteq	r1, r2, asr #22
    11f4:	0b580612 	bleq	1602a44 <__bss_end__+0x15f8734>
    11f8:	0b570b59 	bleq	15c3f64 <__bss_end__+0x15b9c54>
    11fc:	00001301 	andeq	r1, r0, r1, lsl #6
    1200:	01828911 	orreq	r8, r2, r1, lsl r9
    1204:	31011100 	mrscc	r1, (UNDEF: 17)
    1208:	12000013 	andne	r0, r0, #19, 0
    120c:	01018289 	smlabbeq	r1, r9, r2, r8
    1210:	13310111 	teqne	r1, #1073741828	; 0x40000004
    1214:	00001301 	andeq	r1, r0, r1, lsl #6
    1218:	01828a13 	orreq	r8, r2, r3, lsl sl
    121c:	91180200 	tstls	r8, r0, lsl #4
    1220:	00001842 	andeq	r1, r0, r2, asr #16
    1224:	01828914 	orreq	r8, r2, r4, lsl r9
    1228:	31011101 	tstcc	r1, r1, lsl #2
    122c:	15000013 	strne	r0, [r0, #-19]	; 0xffffffed
    1230:	193f012e 	ldmdbne	pc!, {r1, r2, r3, r5, r8}	; <UNPREDICTABLE>
    1234:	0b3a0e03 	bleq	e84a48 <__bss_end__+0xe7a738>
    1238:	0b390b3b 	bleq	e43f2c <__bss_end__+0xe39c1c>
    123c:	0b201927 	bleq	8076e0 <__bss_end__+0x7fd3d0>
    1240:	00001301 	andeq	r1, r0, r1, lsl #6
    1244:	3f012e16 	svccc	0x00012e16
    1248:	3a0e0319 	bcc	381eb4 <__bss_end__+0x377ba4>
    124c:	390b3b0b 	stmdbcc	fp, {r0, r1, r3, r8, r9, fp, ip, sp}
    1250:	4919270b 	ldmdbmi	r9, {r0, r1, r3, r8, r9, sl, sp}
    1254:	010b2013 	tsteq	fp, r3, lsl r0
    1258:	17000013 	smladne	r0, r3, r0, r0
    125c:	1331012e 	teqne	r1, #-2147483637	; 0x8000000b
    1260:	06120111 			; <UNDEFINED> instruction: 0x06120111
    1264:	42971840 	addsmi	r1, r7, #64, 16	; 0x400000
    1268:	00130119 	andseq	r0, r3, r9, lsl r1
    126c:	002e1800 	eoreq	r1, lr, r0, lsl #16
    1270:	193c193f 	ldmdbne	ip!, {r0, r1, r2, r3, r4, r5, r8, fp, ip}
    1274:	0e030e6e 	cdpeq	14, 0, cr0, cr3, cr14, {3}
    1278:	053b0b3a 	ldreq	r0, [fp, #-2874]!	; 0xfffff4c6
    127c:	00000b39 	andeq	r0, r0, r9, lsr fp
    1280:	3f002e19 	svccc	0x00002e19
    1284:	6e193c19 	mrcvs	12, 0, r3, cr9, cr9, {0}
    1288:	3a0e030e 	bcc	381ec8 <__bss_end__+0x377bb8>
    128c:	390b3b0b 	stmdbcc	fp, {r0, r1, r3, r8, r9, fp, ip, sp}
    1290:	0000000b 	andeq	r0, r0, fp
    1294:	25011101 	strcs	r1, [r1, #-257]	; 0xfffffeff
    1298:	030b130e 	movweq	r1, #45838	; 0xb30e
    129c:	110e1b0e 	tstne	lr, lr, lsl #22
    12a0:	10061201 	andne	r1, r6, r1, lsl #4
    12a4:	02000017 	andeq	r0, r0, #23, 0
    12a8:	0b0b0024 	bleq	2c1340 <__bss_end__+0x2b7030>
    12ac:	08030b3e 	stmdaeq	r3, {r1, r2, r3, r4, r5, r8, r9, fp}
    12b0:	24030000 	strcs	r0, [r3], #-0
    12b4:	3e0b0b00 	vmlacc.f64	d0, d11, d0
    12b8:	000e030b 	andeq	r0, lr, fp, lsl #6
    12bc:	01150400 	tsteq	r5, r0, lsl #8
    12c0:	13491927 	movtne	r1, #39207	; 0x9927
    12c4:	00001301 	andeq	r1, r0, r1, lsl #6
    12c8:	49000505 	stmdbmi	r0, {r0, r2, r8, sl}
    12cc:	06000013 			; <UNDEFINED> instruction: 0x06000013
    12d0:	0e030034 	mcreq	0, 0, r0, cr3, cr4, {1}
    12d4:	0b3b0b3a 	bleq	ec3fc4 <__bss_end__+0xeb9cb4>
    12d8:	13490b39 	movtne	r0, #39737	; 0x9b39
    12dc:	193c193f 	ldmdbne	ip!, {r0, r1, r2, r3, r4, r5, r8, fp, ip}
    12e0:	0f070000 	svceq	0x00070000
    12e4:	490b0b00 	stmdbmi	fp, {r8, r9, fp}
    12e8:	08000013 	stmdaeq	r0, {r0, r1, r4}
    12ec:	13490026 	movtne	r0, #36902	; 0x9026
    12f0:	2e090000 	cdpcs	0, 0, cr0, cr9, cr0, {0}
    12f4:	03193f01 	tsteq	r9, #1, 30
    12f8:	3b0b3a0e 	blcc	2cfb38 <__bss_end__+0x2c5828>
    12fc:	270b390b 	strcs	r3, [fp, -fp, lsl #18]
    1300:	12011119 	andne	r1, r1, #1073741830	; 0x40000006
    1304:	97184006 	ldrls	r4, [r8, -r6]
    1308:	13011942 	movwne	r1, #6466	; 0x1942
    130c:	050a0000 	streq	r0, [sl, #-0]
    1310:	3a080300 	bcc	201f18 <__bss_end__+0x1f7c08>
    1314:	390b3b0b 	stmdbcc	fp, {r0, r1, r3, r8, r9, fp, ip, sp}
    1318:	0213490b 	andseq	r4, r3, #180224	; 0x2c000
    131c:	1742b717 	smlaldne	fp, r2, r7, r7
    1320:	1d0b0000 	stcne	0, cr0, [fp, #-0]
    1324:	52133101 	andspl	r3, r3, #1073741824	; 0x40000000
    1328:	0b42b801 	bleq	10af334 <__bss_end__+0x10a5024>
    132c:	0b581755 	bleq	1607088 <__bss_end__+0x15fcd78>
    1330:	0b570b59 	bleq	15c409c <__bss_end__+0x15b9d8c>
    1334:	050c0000 	streq	r0, [ip, #-0]
    1338:	02133100 	andseq	r3, r3, #0
    133c:	1742b717 	smlaldne	fp, r2, r7, r7
    1340:	1d0d0000 	stcne	0, cr0, [sp, #-0]
    1344:	52133101 	andspl	r3, r3, #1073741824	; 0x40000000
    1348:	0b42b801 	bleq	10af354 <__bss_end__+0x10a5044>
    134c:	06120111 			; <UNDEFINED> instruction: 0x06120111
    1350:	0b590b58 	bleq	16440b8 <__bss_end__+0x1639da8>
    1354:	00000b57 	andeq	r0, r0, r7, asr fp
    1358:	3100340e 	tstcc	r0, lr, lsl #8
    135c:	b7170213 			; <UNDEFINED> instruction: 0xb7170213
    1360:	00001742 	andeq	r1, r0, r2, asr #14
    1364:	31011d0f 	tstcc	r1, pc, lsl #26
    1368:	b8015213 	stmdalt	r1, {r0, r1, r4, r9, ip, lr}
    136c:	01110b42 	tsteq	r1, r2, asr #22
    1370:	0b580612 	bleq	1602bc0 <__bss_end__+0x15f88b0>
    1374:	0b570b59 	bleq	15c40e0 <__bss_end__+0x15b9dd0>
    1378:	00001301 	andeq	r1, r0, r1, lsl #6
    137c:	01828910 	orreq	r8, r2, r0, lsl r9
    1380:	31011101 	tstcc	r1, r1, lsl #2
    1384:	11000013 	tstne	r0, r3, lsl r0
    1388:	0001828a 	andeq	r8, r1, sl, lsl #5
    138c:	42911802 	addsmi	r1, r1, #131072	; 0x20000
    1390:	12000018 	andne	r0, r0, #24, 0
    1394:	00018289 	andeq	r8, r1, r9, lsl #5
    1398:	13310111 	teqne	r1, #1073741828	; 0x40000004
    139c:	0b130000 	bleq	4c13a4 <__bss_end__+0x4b7094>
    13a0:	55133101 	ldrpl	r3, [r3, #-257]	; 0xfffffeff
    13a4:	14000017 	strne	r0, [r0], #-23	; 0xffffffe9
    13a8:	13310034 	teqne	r1, #52, 0	; 0x34
    13ac:	0b150000 	bleq	5413b4 <__bss_end__+0x5370a4>
    13b0:	00175501 	andseq	r5, r7, r1, lsl #10
    13b4:	011d1600 	tsteq	sp, r0, lsl #12
    13b8:	01521331 	cmpeq	r2, r1, lsr r3
    13bc:	550b42b8 	strpl	r4, [fp, #-696]	; 0xfffffd48
    13c0:	590b5817 	stmdbpl	fp, {r0, r1, r2, r4, fp, ip, lr}
    13c4:	010b570b 	tsteq	fp, fp, lsl #14
    13c8:	17000013 	smladne	r0, r3, r0, r0
    13cc:	193f012e 	ldmdbne	pc!, {r1, r2, r3, r5, r8}	; <UNPREDICTABLE>
    13d0:	0b3a0e03 	bleq	e84be4 <__bss_end__+0xe7a8d4>
    13d4:	0b390b3b 	bleq	e440c8 <__bss_end__+0xe39db8>
    13d8:	0b201927 	bleq	80787c <__bss_end__+0x7fd56c>
    13dc:	00001301 	andeq	r1, r0, r1, lsl #6
    13e0:	03000518 	movweq	r0, #1304	; 0x518
    13e4:	3b0b3a08 	blcc	2cfc0c <__bss_end__+0x2c58fc>
    13e8:	490b390b 	stmdbmi	fp, {r0, r1, r3, r8, fp, ip, sp}
    13ec:	19000013 	stmdbne	r0, {r0, r1, r4}
    13f0:	08030034 	stmdaeq	r3, {r2, r4, r5}
    13f4:	0b3b0b3a 	bleq	ec40e4 <__bss_end__+0xeb9dd4>
    13f8:	13490b39 	movtne	r0, #39737	; 0x9b39
    13fc:	0b1a0000 	bleq	681404 <__bss_end__+0x6770f4>
    1400:	1b000001 	blne	140c <__code_start__-0x6bf4>
    1404:	193f012e 	ldmdbne	pc!, {r1, r2, r3, r5, r8}	; <UNPREDICTABLE>
    1408:	0b3a0e03 	bleq	e84c1c <__bss_end__+0xe7a90c>
    140c:	0b390b3b 	bleq	e44100 <__bss_end__+0xe39df0>
    1410:	13491927 	movtne	r1, #39207	; 0x9927
    1414:	13010b20 	movwne	r0, #6944	; 0x1b20
    1418:	2e1c0000 	cdpcs	0, 1, cr0, cr12, cr0, {0}
    141c:	03193f00 	tsteq	r9, #0, 30
    1420:	3b0b3a0e 	blcc	2cfc60 <__bss_end__+0x2c5950>
    1424:	270b390b 	strcs	r3, [fp, -fp, lsl #18]
    1428:	20134919 	andscs	r4, r3, r9, lsl r9
    142c:	1d00000b 	stcne	0, cr0, [r0, #-44]	; 0xffffffd4
    1430:	1331012e 	teqne	r1, #-2147483637	; 0x8000000b
    1434:	06120111 			; <UNDEFINED> instruction: 0x06120111
    1438:	42971840 	addsmi	r1, r7, #64, 16	; 0x400000
    143c:	00130119 	andseq	r0, r3, r9, lsl r1
    1440:	82891e00 	addhi	r1, r9, #0, 28
    1444:	01110101 	tsteq	r1, r1, lsl #2
    1448:	31194295 			; <UNDEFINED> instruction: 0x31194295
    144c:	1f000013 	svcne	0x00000013
    1450:	193f002e 	ldmdbne	pc!, {r1, r2, r3, r5}	; <UNPREDICTABLE>
    1454:	0e6e193c 			; <UNDEFINED> instruction: 0x0e6e193c
    1458:	0b3a0e03 	bleq	e84c6c <__bss_end__+0xe7a95c>
    145c:	0b390b3b 	bleq	e44150 <__bss_end__+0xe39e40>
    1460:	01000000 	mrseq	r0, (UNDEF: 0)
    1464:	0e250111 	mcreq	1, 1, r0, cr5, cr1, {0}
    1468:	0e030b13 	vmoveq.32	d3[0], r0
    146c:	01110e1b 	tsteq	r1, fp, lsl lr
    1470:	17100612 			; <UNDEFINED> instruction: 0x17100612
    1474:	24020000 	strcs	r0, [r2], #-0
    1478:	3e0b0b00 	vmlacc.f64	d0, d11, d0
    147c:	0008030b 	andeq	r0, r8, fp, lsl #6
    1480:	00240300 	eoreq	r0, r4, r0, lsl #6
    1484:	0b3e0b0b 	bleq	f840b8 <__bss_end__+0xf79da8>
    1488:	00000e03 	andeq	r0, r0, r3, lsl #28
    148c:	49003504 	stmdbmi	r0, {r2, r8, sl, ip, sp}
    1490:	05000013 	streq	r0, [r0, #-19]	; 0xffffffed
    1494:	0e030016 	mcreq	0, 0, r0, cr3, cr6, {0}
    1498:	0b3b0b3a 	bleq	ec4188 <__bss_end__+0xeb9e78>
    149c:	13490b39 	movtne	r0, #39737	; 0x9b39
    14a0:	04060000 	streq	r0, [r6], #-0
    14a4:	0b0b3e01 	bleq	2d0cb0 <__bss_end__+0x2c69a0>
    14a8:	3a13490b 	bcc	4d38dc <__bss_end__+0x4c95cc>
    14ac:	390b3b0b 	stmdbcc	fp, {r0, r1, r3, r8, r9, fp, ip, sp}
    14b0:	0013010b 	andseq	r0, r3, fp, lsl #2
    14b4:	00280700 	eoreq	r0, r8, r0, lsl #14
    14b8:	0b1c0e03 	bleq	704ccc <__bss_end__+0x6fa9bc>
    14bc:	13080000 	movwne	r0, #32768	; 0x8000
    14c0:	0b0e0301 	bleq	3820cc <__bss_end__+0x377dbc>
    14c4:	3b0b3a0b 	blcc	2cfcf8 <__bss_end__+0x2c59e8>
    14c8:	010b390b 	tsteq	fp, fp, lsl #18
    14cc:	09000013 	stmdbeq	r0, {r0, r1, r4}
    14d0:	0803000d 	stmdaeq	r3, {r0, r2, r3}
    14d4:	0b3b0b3a 	bleq	ec41c4 <__bss_end__+0xeb9eb4>
    14d8:	13490b39 	movtne	r0, #39737	; 0x9b39
    14dc:	00000b38 	andeq	r0, r0, r8, lsr fp
    14e0:	03000d0a 	movweq	r0, #3338	; 0xd0a
    14e4:	3b0b3a0e 	blcc	2cfd24 <__bss_end__+0x2c5a14>
    14e8:	490b390b 	stmdbmi	fp, {r0, r1, r3, r8, fp, ip, sp}
    14ec:	000b3813 	andeq	r3, fp, r3, lsl r8
    14f0:	00340b00 	eorseq	r0, r4, r0, lsl #22
    14f4:	0b3a0e03 	bleq	e84d08 <__bss_end__+0xe7a9f8>
    14f8:	0b390b3b 	bleq	e441ec <__bss_end__+0xe39edc>
    14fc:	061c1349 	ldreq	r1, [ip], -r9, asr #6
    1500:	0f0c0000 	svceq	0x000c0000
    1504:	490b0b00 	stmdbmi	fp, {r8, r9, fp}
    1508:	0d000013 	stceq	0, cr0, [r0, #-76]	; 0xffffffb4
    150c:	13490026 	movtne	r0, #36902	; 0x9026
    1510:	2e0e0000 	cdpcs	0, 0, cr0, cr14, cr0, {0}
    1514:	03193f01 	tsteq	r9, #1, 30
    1518:	3b0b3a0e 	blcc	2cfd58 <__bss_end__+0x2c5a48>
    151c:	270b390b 	strcs	r3, [fp, -fp, lsl #18]
    1520:	12011119 	andne	r1, r1, #1073741830	; 0x40000006
    1524:	97184006 	ldrls	r4, [r8, -r6]
    1528:	13011942 	movwne	r1, #6466	; 0x1942
    152c:	890f0000 	stmdbhi	pc, {}	; <UNPREDICTABLE>
    1530:	11000182 	smlabbne	r0, r2, r1, r0
    1534:	00133101 	andseq	r3, r3, r1, lsl #2
    1538:	012e1000 			; <UNDEFINED> instruction: 0x012e1000
    153c:	0e03193f 			; <UNDEFINED> instruction: 0x0e03193f
    1540:	0b3b0b3a 	bleq	ec4230 <__bss_end__+0xeb9f20>
    1544:	19270b39 	stmdbne	r7!, {r0, r3, r4, r5, r8, r9, fp}
    1548:	01111349 	tsteq	r1, r9, asr #6
    154c:	18400612 	stmdane	r0, {r1, r4, r9, sl}^
    1550:	01194297 			; <UNDEFINED> instruction: 0x01194297
    1554:	11000013 	tstne	r0, r3, lsl r0
    1558:	01018289 	smlabbeq	r1, r9, r2, r8
    155c:	13310111 	teqne	r1, #1073741828	; 0x40000004
    1560:	8a120000 	bhi	481568 <__bss_end__+0x477258>
    1564:	02000182 	andeq	r0, r0, #-2147483616	; 0x80000020
    1568:	18429118 	stmdane	r2, {r3, r4, r8, ip, pc}^
    156c:	05130000 	ldreq	r0, [r3, #-0]
    1570:	3a080300 	bcc	202178 <__bss_end__+0x1f7e68>
    1574:	390b3b0b 	stmdbcc	fp, {r0, r1, r3, r8, r9, fp, ip, sp}
    1578:	0213490b 	andseq	r4, r3, #180224	; 0x2c000
    157c:	1742b717 	smlaldne	fp, r2, r7, r7
    1580:	89140000 	ldmdbhi	r4, {}	; <UNPREDICTABLE>
    1584:	11010182 	smlabbne	r1, r2, r1, r0
    1588:	01133101 	tsteq	r3, r1, lsl #2
    158c:	15000013 	strne	r0, [r0, #-19]	; 0xffffffed
    1590:	08030034 	stmdaeq	r3, {r2, r4, r5}
    1594:	0b3b0b3a 	bleq	ec4284 <__bss_end__+0xeb9f74>
    1598:	13490b39 	movtne	r0, #39737	; 0x9b39
    159c:	42b71702 	adcsmi	r1, r7, #524288	; 0x80000
    15a0:	16000017 			; <UNDEFINED> instruction: 0x16000017
    15a4:	0e030034 	mcreq	0, 0, r0, cr3, cr4, {1}
    15a8:	0b3b0b3a 	bleq	ec4298 <__bss_end__+0xeb9f88>
    15ac:	13490b39 	movtne	r0, #39737	; 0x9b39
    15b0:	0000051c 	andeq	r0, r0, ip, lsl r5
    15b4:	03012e17 	movweq	r2, #7703	; 0x1e17
    15b8:	3b0b3a0e 	blcc	2cfdf8 <__bss_end__+0x2c5ae8>
    15bc:	270b390b 	strcs	r3, [fp, -fp, lsl #18]
    15c0:	12011119 	andne	r1, r1, #1073741830	; 0x40000006
    15c4:	97184006 	ldrls	r4, [r8, -r6]
    15c8:	13011942 	movwne	r1, #6466	; 0x1942
    15cc:	05180000 	ldreq	r0, [r8, #-0]
    15d0:	3a0e0300 	bcc	3821d8 <__bss_end__+0x377ec8>
    15d4:	390b3b0b 	stmdbcc	fp, {r0, r1, r3, r8, r9, fp, ip, sp}
    15d8:	0213490b 	andseq	r4, r3, #180224	; 0x2c000
    15dc:	1742b717 	smlaldne	fp, r2, r7, r7
    15e0:	35190000 	ldrcc	r0, [r9, #-0]
    15e4:	1a000000 	bne	15ec <__code_start__-0x6a14>
    15e8:	193f002e 	ldmdbne	pc!, {r1, r2, r3, r5}	; <UNPREDICTABLE>
    15ec:	0e6e193c 			; <UNDEFINED> instruction: 0x0e6e193c
    15f0:	0b3a0e03 	bleq	e84e04 <__bss_end__+0xe7aaf4>
    15f4:	0b390b3b 	bleq	e442e8 <__bss_end__+0xe39fd8>
    15f8:	01000000 	mrseq	r0, (UNDEF: 0)
    15fc:	0e250111 	mcreq	1, 1, r0, cr5, cr1, {0}
    1600:	0e030b13 	vmoveq.32	d3[0], r0
    1604:	01110e1b 	tsteq	r1, fp, lsl lr
    1608:	17100612 			; <UNDEFINED> instruction: 0x17100612
    160c:	24020000 	strcs	r0, [r2], #-0
    1610:	3e0b0b00 	vmlacc.f64	d0, d11, d0
    1614:	0008030b 	andeq	r0, r8, fp, lsl #6
    1618:	00240300 	eoreq	r0, r4, r0, lsl #6
    161c:	0b3e0b0b 	bleq	f84250 <__bss_end__+0xf79f40>
    1620:	00000e03 	andeq	r0, r0, r3, lsl #28
    1624:	27011504 	strcs	r1, [r1, -r4, lsl #10]
    1628:	01134919 	tsteq	r3, r9, lsl r9
    162c:	05000013 	streq	r0, [r0, #-19]	; 0xffffffed
    1630:	13490005 	movtne	r0, #36869	; 0x9005
    1634:	34060000 	strcc	r0, [r6], #-0
    1638:	3a0e0300 	bcc	382240 <__bss_end__+0x377f30>
    163c:	390b3b0b 	stmdbcc	fp, {r0, r1, r3, r8, r9, fp, ip, sp}
    1640:	3f13490b 	svccc	0x0013490b
    1644:	00193c19 	andseq	r3, r9, r9, lsl ip
    1648:	000f0700 	andeq	r0, pc, r0, lsl #14
    164c:	13490b0b 	movtne	r0, #39691	; 0x9b0b
    1650:	26080000 	strcs	r0, [r8], -r0
    1654:	00134900 	andseq	r4, r3, r0, lsl #18
    1658:	012e0900 			; <UNDEFINED> instruction: 0x012e0900
    165c:	0e03193f 			; <UNDEFINED> instruction: 0x0e03193f
    1660:	0b3b0b3a 	bleq	ec4350 <__bss_end__+0xeba040>
    1664:	19270b39 	stmdbne	r7!, {r0, r3, r4, r5, r8, r9, fp}
    1668:	01111349 	tsteq	r1, r9, asr #6
    166c:	18400612 	stmdane	r0, {r1, r4, r9, sl}^
    1670:	01194297 			; <UNDEFINED> instruction: 0x01194297
    1674:	0a000013 	beq	16c8 <__code_start__-0x6938>
    1678:	0e030005 	cdpeq	0, 0, cr0, cr3, cr5, {0}
    167c:	0b3b0b3a 	bleq	ec436c <__bss_end__+0xeba05c>
    1680:	13490b39 	movtne	r0, #39737	; 0x9b39
    1684:	00001802 	andeq	r1, r0, r2, lsl #16
    1688:	0300050b 	movweq	r0, #1291	; 0x50b
    168c:	3b0b3a08 	blcc	2cfeb4 <__bss_end__+0x2c5ba4>
    1690:	490b390b 	stmdbmi	fp, {r0, r1, r3, r8, fp, ip, sp}
    1694:	b7170213 			; <UNDEFINED> instruction: 0xb7170213
    1698:	00001742 	andeq	r1, r0, r2, asr #14
    169c:	0300340c 	movweq	r3, #1036	; 0x40c
    16a0:	3b0b3a08 	blcc	2cfec8 <__bss_end__+0x2c5bb8>
    16a4:	490b390b 	stmdbmi	fp, {r0, r1, r3, r8, fp, ip, sp}
    16a8:	b7170213 			; <UNDEFINED> instruction: 0xb7170213
    16ac:	00001742 	andeq	r1, r0, r2, asr #14
    16b0:	01110100 	tsteq	r1, r0, lsl #2
    16b4:	0b130e25 	bleq	4c4f50 <__bss_end__+0x4bac40>
    16b8:	0e1b0e03 	cdpeq	14, 1, cr0, cr11, cr3, {0}
    16bc:	06120111 			; <UNDEFINED> instruction: 0x06120111
    16c0:	00001710 	andeq	r1, r0, r0, lsl r7
    16c4:	0b002402 	bleq	a6d4 <__bss_end__+0x3c4>
    16c8:	030b3e0b 	movweq	r3, #48651	; 0xbe0b
    16cc:	03000008 	movweq	r0, #8
    16d0:	0b0b0024 	bleq	2c1768 <__bss_end__+0x2b7458>
    16d4:	0e030b3e 	vmoveq.16	d3[0], r0
    16d8:	15040000 	strne	r0, [r4, #-0]
    16dc:	49192701 	ldmdbmi	r9, {r0, r8, r9, sl, sp}
    16e0:	00130113 	andseq	r0, r3, r3, lsl r1
    16e4:	00050500 	andeq	r0, r5, r0, lsl #10
    16e8:	00001349 	andeq	r1, r0, r9, asr #6
    16ec:	03003406 	movweq	r3, #1030	; 0x406
    16f0:	3b0b3a0e 	blcc	2cff30 <__bss_end__+0x2c5c20>
    16f4:	490b390b 	stmdbmi	fp, {r0, r1, r3, r8, fp, ip, sp}
    16f8:	3c193f13 	ldccc	15, cr3, [r9], {19}
    16fc:	07000019 	smladeq	r0, r9, r0, r0
    1700:	0b0b000f 	bleq	2c1744 <__bss_end__+0x2b7434>
    1704:	00001349 	andeq	r1, r0, r9, asr #6
    1708:	49002608 	stmdbmi	r0, {r3, r9, sl, sp}
    170c:	09000013 	stmdbeq	r0, {r0, r1, r4}
    1710:	193f012e 	ldmdbne	pc!, {r1, r2, r3, r5, r8}	; <UNPREDICTABLE>
    1714:	0b3a0e03 	bleq	e84f28 <__bss_end__+0xe7ac18>
    1718:	0b390b3b 	bleq	e4440c <__bss_end__+0xe3a0fc>
    171c:	13491927 	movtne	r1, #39207	; 0x9927
    1720:	06120111 			; <UNDEFINED> instruction: 0x06120111
    1724:	42971840 	addsmi	r1, r7, #64, 16	; 0x400000
    1728:	0a000019 	beq	1794 <__code_start__-0x686c>
    172c:	08030005 	stmdaeq	r3, {r0, r2}
    1730:	0b3b0b3a 	bleq	ec4420 <__bss_end__+0xeba110>
    1734:	13490b39 	movtne	r0, #39737	; 0x9b39
    1738:	42b71702 	adcsmi	r1, r7, #524288	; 0x80000
    173c:	00000017 	andeq	r0, r0, r7, lsl r0
    1740:	25011101 	strcs	r1, [r1, #-257]	; 0xfffffeff
    1744:	030b130e 	movweq	r1, #45838	; 0xb30e
    1748:	110e1b0e 	tstne	lr, lr, lsl #22
    174c:	10061201 	andne	r1, r6, r1, lsl #4
    1750:	02000017 	andeq	r0, r0, #23, 0
    1754:	0b0b0024 	bleq	2c17ec <__bss_end__+0x2b74dc>
    1758:	08030b3e 	stmdaeq	r3, {r1, r2, r3, r4, r5, r8, r9, fp}
    175c:	24030000 	strcs	r0, [r3], #-0
    1760:	3e0b0b00 	vmlacc.f64	d0, d11, d0
    1764:	000e030b 	andeq	r0, lr, fp, lsl #6
    1768:	01150400 	tsteq	r5, r0, lsl #8
    176c:	13491927 	movtne	r1, #39207	; 0x9927
    1770:	00001301 	andeq	r1, r0, r1, lsl #6
    1774:	49000505 	stmdbmi	r0, {r0, r2, r8, sl}
    1778:	06000013 			; <UNDEFINED> instruction: 0x06000013
    177c:	0e030034 	mcreq	0, 0, r0, cr3, cr4, {1}
    1780:	0b3b0b3a 	bleq	ec4470 <__bss_end__+0xeba160>
    1784:	13490b39 	movtne	r0, #39737	; 0x9b39
    1788:	193c193f 	ldmdbne	ip!, {r0, r1, r2, r3, r4, r5, r8, fp, ip}
    178c:	0f070000 	svceq	0x00070000
    1790:	490b0b00 	stmdbmi	fp, {r8, r9, fp}
    1794:	08000013 	stmdaeq	r0, {r0, r1, r4}
    1798:	13490026 	movtne	r0, #36902	; 0x9026
    179c:	2e090000 	cdpcs	0, 0, cr0, cr9, cr0, {0}
    17a0:	03193f01 	tsteq	r9, #1, 30
    17a4:	3b0b3a0e 	blcc	2cffe4 <__bss_end__+0x2c5cd4>
    17a8:	270b390b 	strcs	r3, [fp, -fp, lsl #18]
    17ac:	11134919 	tstne	r3, r9, lsl r9
    17b0:	40061201 	andmi	r1, r6, r1, lsl #4
    17b4:	19429718 	stmdbne	r2, {r3, r4, r8, r9, sl, ip, pc}^
    17b8:	00001301 	andeq	r1, r0, r1, lsl #6
    17bc:	0300050a 	movweq	r0, #1290	; 0x50a
    17c0:	3b0b3a08 	blcc	2cffe8 <__bss_end__+0x2c5cd8>
    17c4:	490b390b 	stmdbmi	fp, {r0, r1, r3, r8, fp, ip, sp}
    17c8:	00180213 	andseq	r0, r8, r3, lsl r2
    17cc:	00050b00 	andeq	r0, r5, r0, lsl #22
    17d0:	0b3a0803 	bleq	e837e4 <__bss_end__+0xe794d4>
    17d4:	0b390b3b 	bleq	e444c8 <__bss_end__+0xe3a1b8>
    17d8:	17021349 	strne	r1, [r2, -r9, asr #6]
    17dc:	001742b7 			; <UNDEFINED> instruction: 0x001742b7
    17e0:	00340c00 	eorseq	r0, r4, r0, lsl #24
    17e4:	0b3a0803 	bleq	e837f8 <__bss_end__+0xe794e8>
    17e8:	0b390b3b 	bleq	e444dc <__bss_end__+0xe3a1cc>
    17ec:	17021349 	strne	r1, [r2, -r9, asr #6]
    17f0:	001742b7 			; <UNDEFINED> instruction: 0x001742b7
    17f4:	11010000 	mrsne	r0, (UNDEF: 1)
    17f8:	130e2501 	movwne	r2, #58625	; 0xe501
    17fc:	1b0e030b 	blne	382430 <__bss_end__+0x378120>
    1800:	1201110e 	andne	r1, r1, #-2147483645	; 0x80000003
    1804:	00171006 	andseq	r1, r7, r6
    1808:	00240200 	eoreq	r0, r4, r0, lsl #4
    180c:	0b3e0b0b 	bleq	f84440 <__bss_end__+0xf7a130>
    1810:	00000803 	andeq	r0, r0, r3, lsl #16
    1814:	03001603 	movweq	r1, #1539	; 0x603
    1818:	3b0b3a0e 	blcc	2d0058 <__bss_end__+0x2c5d48>
    181c:	490b390b 	stmdbmi	fp, {r0, r1, r3, r8, fp, ip, sp}
    1820:	04000013 	streq	r0, [r0], #-19	; 0xffffffed
    1824:	0b0b0024 	bleq	2c18bc <__bss_end__+0x2b75ac>
    1828:	0e030b3e 	vmoveq.16	d3[0], r0
    182c:	26050000 	strcs	r0, [r5], -r0
    1830:	00134900 	andseq	r4, r3, r0, lsl #18
    1834:	01150600 	tsteq	r5, r0, lsl #12
    1838:	13491927 	movtne	r1, #39207	; 0x9927
    183c:	00001301 	andeq	r1, r0, r1, lsl #6
    1840:	49000507 	stmdbmi	r0, {r0, r1, r2, r8, sl}
    1844:	08000013 	stmdaeq	r0, {r0, r1, r4}
    1848:	0e030034 	mcreq	0, 0, r0, cr3, cr4, {1}
    184c:	0b3b0b3a 	bleq	ec453c <__bss_end__+0xeba22c>
    1850:	13490b39 	movtne	r0, #39737	; 0x9b39
    1854:	193c193f 	ldmdbne	ip!, {r0, r1, r2, r3, r4, r5, r8, fp, ip}
    1858:	0f090000 	svceq	0x00090000
    185c:	490b0b00 	stmdbmi	fp, {r8, r9, fp}
    1860:	0a000013 	beq	18b4 <__code_start__-0x674c>
    1864:	193f012e 	ldmdbne	pc!, {r1, r2, r3, r5, r8}	; <UNPREDICTABLE>
    1868:	0b3a0e03 	bleq	e8507c <__bss_end__+0xe7ad6c>
    186c:	0b390b3b 	bleq	e44560 <__bss_end__+0xe3a250>
    1870:	13491927 	movtne	r1, #39207	; 0x9927
    1874:	06120111 			; <UNDEFINED> instruction: 0x06120111
    1878:	42971840 	addsmi	r1, r7, #64, 16	; 0x400000
    187c:	00130119 	andseq	r0, r3, r9, lsl r1
    1880:	00050b00 	andeq	r0, r5, r0, lsl #22
    1884:	0b3a0803 	bleq	e83898 <__bss_end__+0xe79588>
    1888:	0b390b3b 	bleq	e4457c <__bss_end__+0xe3a26c>
    188c:	17021349 	strne	r1, [r2, -r9, asr #6]
    1890:	001742b7 			; <UNDEFINED> instruction: 0x001742b7
    1894:	00340c00 	eorseq	r0, r4, r0, lsl #24
    1898:	0b3a0803 	bleq	e838ac <__bss_end__+0xe7959c>
    189c:	0b390b3b 	bleq	e44590 <__bss_end__+0xe3a280>
    18a0:	17021349 	strne	r1, [r2, -r9, asr #6]
    18a4:	001742b7 			; <UNDEFINED> instruction: 0x001742b7
    18a8:	11010000 	mrsne	r0, (UNDEF: 1)
    18ac:	130e2501 	movwne	r2, #58625	; 0xe501
    18b0:	1b0e030b 	blne	3824e4 <__bss_end__+0x3781d4>
    18b4:	1201110e 	andne	r1, r1, #-2147483645	; 0x80000003
    18b8:	00171006 	andseq	r1, r7, r6
    18bc:	00240200 	eoreq	r0, r4, r0, lsl #4
    18c0:	0b3e0b0b 	bleq	f844f4 <__bss_end__+0xf7a1e4>
    18c4:	00000803 	andeq	r0, r0, r3, lsl #16
    18c8:	0b002403 	bleq	a8dc <__bss_end__+0x5cc>
    18cc:	030b3e0b 	movweq	r3, #48651	; 0xbe0b
    18d0:	0400000e 	streq	r0, [r0], #-14
    18d4:	19270115 	stmdbne	r7!, {r0, r2, r4, r8}
    18d8:	13011349 	movwne	r1, #4937	; 0x1349
    18dc:	05050000 	streq	r0, [r5, #-0]
    18e0:	00134900 	andseq	r4, r3, r0, lsl #18
    18e4:	00340600 	eorseq	r0, r4, r0, lsl #12
    18e8:	0b3a0e03 	bleq	e850fc <__bss_end__+0xe7adec>
    18ec:	0b390b3b 	bleq	e445e0 <__bss_end__+0xe3a2d0>
    18f0:	193f1349 	ldmdbne	pc!, {r0, r3, r6, r8, r9, ip}	; <UNPREDICTABLE>
    18f4:	0000193c 	andeq	r1, r0, ip, lsr r9
    18f8:	0b000f07 	bleq	551c <__code_start__-0x2ae4>
    18fc:	0013490b 	andseq	r4, r3, fp, lsl #18
    1900:	00260800 	eoreq	r0, r6, r0, lsl #16
    1904:	00001349 	andeq	r1, r0, r9, asr #6
    1908:	3f002e09 	svccc	0x00002e09
    190c:	3a0e0319 	bcc	382578 <__bss_end__+0x378268>
    1910:	390b3b0b 	stmdbcc	fp, {r0, r1, r3, r8, r9, fp, ip, sp}
    1914:	1119270b 	tstne	r9, fp, lsl #14
    1918:	40061201 	andmi	r1, r6, r1, lsl #4
    191c:	19429718 	stmdbne	r2, {r3, r4, r8, r9, sl, ip, pc}^
    1920:	Address 0x0000000000001920 is out of bounds.


Disassembly of section .debug_loc:

00000000 <.debug_loc>:
       0:	000c0000 	andeq	r0, ip, r0
       4:	00a80000 	adceq	r0, r8, r0
       8:	00060000 	andeq	r0, r6, r0
       c:	ff080077 			; <UNDEFINED> instruction: 0xff080077
      10:	00009f1a 	andeq	r9, r0, sl, lsl pc
      14:	00000000 	andeq	r0, r0, r0
      18:	00030000 	andeq	r0, r3, r0
      1c:	00140000 	andseq	r0, r4, r0
      20:	001c0000 	andseq	r0, ip, r0
      24:	00020000 	andeq	r0, r2, r0
      28:	001c9f30 	andseq	r9, ip, r0, lsr pc
      2c:	00a80000 	adceq	r0, r8, r0
      30:	00010000 	andeq	r0, r1, r0
      34:	00000056 	andeq	r0, r0, r6, asr r0
      38:	00000000 	andeq	r0, r0, r0
      3c:	00010000 	andeq	r0, r1, r0
      40:	1c000000 	stcne	0, cr0, [r0], {-0}
      44:	24000000 	strcs	r0, [r0], #-0
      48:	01000000 	mrseq	r0, (UNDEF: 0)
      4c:	00285500 	eoreq	r5, r8, r0, lsl #10
      50:	00480000 	subeq	r0, r8, r0
      54:	00010000 	andeq	r0, r1, r0
      58:	00006455 	andeq	r6, r0, r5, asr r4
      5c:	0000a800 	andeq	sl, r0, r0, lsl #16
      60:	55000100 	strpl	r0, [r0, #-256]	; 0xffffff00
	...
      6c:	00010100 	andeq	r0, r1, r0, lsl #2
      70:	0000001c 	andeq	r0, r0, ip, lsl r0
      74:	00000024 	andeq	r0, r0, r4, lsr #32
      78:	68540001 	ldmdavs	r4, {r0}^
      7c:	8c000000 	stchi	0, cr0, [r0], {-0}
      80:	01000000 	mrseq	r0, (UNDEF: 0)
      84:	00005400 	andeq	r5, r0, r0, lsl #8
      88:	00000000 	andeq	r0, r0, r0
      8c:	00010000 	andeq	r0, r1, r0
      90:	0000007c 	andeq	r0, r0, ip, ror r0
      94:	00000080 	andeq	r0, r0, r0, lsl #1
      98:	00510001 	subseq	r0, r1, r1
	...
      a4:	1c000001 	stcne	0, cr0, [r0], {1}
      a8:	24000000 	strcs	r0, [r0], #-0
      ac:	01000000 	mrseq	r0, (UNDEF: 0)
      b0:	00685400 	rsbeq	r5, r8, r0, lsl #8
      b4:	008c0000 	addeq	r0, ip, r0
      b8:	00010000 	andeq	r0, r1, r0
      bc:	00000054 	andeq	r0, r0, r4, asr r0
      c0:	00000000 	andeq	r0, r0, r0
      c4:	7c000000 	stcvc	0, cr0, [r0], {-0}
      c8:	80000000 	andhi	r0, r0, r0
      cc:	01000000 	mrseq	r0, (UNDEF: 0)
      d0:	00005100 	andeq	r5, r0, r0, lsl #2
	...
      dc:	00280002 	eoreq	r0, r8, r2
      e0:	00480000 	subeq	r0, r8, r0
      e4:	00010000 	andeq	r0, r1, r0
      e8:	00008854 	andeq	r8, r0, r4, asr r8
      ec:	0000a800 	andeq	sl, r0, r0, lsl #16
      f0:	30000200 	andcc	r0, r0, r0, lsl #4
      f4:	0000009f 	muleq	r0, pc, r0	; <UNPREDICTABLE>
      f8:	00000000 	andeq	r0, r0, r0
      fc:	02000000 	andeq	r0, r0, #0, 0
     100:	00001313 	andeq	r1, r0, r3, lsl r3
     104:	00000000 	andeq	r0, r0, r0
     108:	18000000 	stmdane	r0, {}	; <UNPREDICTABLE>
     10c:	2c000001 	stccs	0, cr0, [r0], {1}
     110:	01000001 	tsteq	r0, r1
     114:	01585000 	cmpeq	r8, r0
     118:	01580000 	cmpeq	r8, r0
     11c:	00020000 	andeq	r0, r2, r0
     120:	01589f30 	cmpeq	r8, r0, lsr pc
     124:	01800000 	orreq	r0, r0, r0
     128:	00040000 	andeq	r0, r4, r0
     12c:	9f02000a 	svcls	0x0002000a
     130:	00000180 	andeq	r0, r0, r0, lsl #3
     134:	000001a4 	andeq	r0, r0, r4, lsr #3
     138:	18500001 	ldmdane	r0, {r0}^
     13c:	1b000002 	blne	14c <__code_start__-0x7eb4>
     140:	01000002 	tsteq	r0, r2
     144:	023c5000 	eorseq	r5, ip, #0, 0
     148:	023f0000 	eorseq	r0, pc, #0, 0
     14c:	00010000 	andeq	r0, r1, r0
     150:	00026050 	andeq	r6, r2, r0, asr r0
     154:	00026300 	andeq	r6, r2, r0, lsl #6
     158:	50000100 	andpl	r0, r0, r0, lsl #2
	...
     164:	01300502 	teqeq	r0, r2, lsl #10
     168:	01300000 	teqeq	r0, r0
     16c:	00020000 	andeq	r0, r2, r0
     170:	00009f38 	andeq	r9, r0, r8, lsr pc
     174:	00000000 	andeq	r0, r0, r0
     178:	05020000 	streq	r0, [r2, #-0]
     17c:	00000130 	andeq	r0, r0, r0, lsr r1
     180:	00000130 	andeq	r0, r0, r0, lsr r1
     184:	00540001 	subseq	r0, r4, r1
     188:	00000000 	andeq	r0, r0, r0
     18c:	03000000 	movweq	r0, #0
     190:	00013800 	andeq	r3, r1, r0, lsl #16
     194:	00014000 	andeq	r4, r1, r0
     198:	34000200 	strcc	r0, [r0], #-512	; 0xfffffe00
     19c:	0000009f 	muleq	r0, pc, r0	; <UNPREDICTABLE>
     1a0:	00000000 	andeq	r0, r0, r0
     1a4:	38000300 	stmdacc	r0, {r8, r9}
     1a8:	40000001 	andmi	r0, r0, r1
     1ac:	02000001 	andeq	r0, r0, #1, 0
     1b0:	009f3700 	addseq	r3, pc, r0, lsl #14
     1b4:	00000000 	andeq	r0, r0, r0
     1b8:	03000000 	movweq	r0, #0
     1bc:	00013800 	andeq	r3, r1, r0, lsl #16
     1c0:	00014000 	andeq	r4, r1, r0
     1c4:	35000200 	strcc	r0, [r0, #-512]	; 0xfffffe00
     1c8:	0000009f 	muleq	r0, pc, r0	; <UNPREDICTABLE>
     1cc:	00000000 	andeq	r0, r0, r0
     1d0:	38000300 	stmdacc	r0, {r8, r9}
     1d4:	40000001 	andmi	r0, r0, r1
     1d8:	01000001 	tsteq	r0, r1
     1dc:	00005400 	andeq	r5, r0, r0, lsl #8
     1e0:	00000000 	andeq	r0, r0, r0
     1e4:	00070000 	andeq	r0, r7, r0
     1e8:	00000138 	andeq	r0, r0, r8, lsr r1
     1ec:	00000140 	andeq	r0, r0, r0, asr #2
     1f0:	9f370002 	svcls	0x00370002
	...
     1fc:	01380007 	teqeq	r8, r7
     200:	01400000 	mrseq	r0, (UNDEF: 64)
     204:	00020000 	andeq	r0, r2, r0
     208:	00009f35 	andeq	r9, r0, r5, lsr pc
     20c:	00000000 	andeq	r0, r0, r0
     210:	00070000 	andeq	r0, r7, r0
     214:	00000138 	andeq	r0, r0, r8, lsr r1
     218:	00000140 	andeq	r0, r0, r0, asr #2
     21c:	00540001 	subseq	r0, r4, r1
     220:	00000000 	andeq	r0, r0, r0
     224:	03000000 	movweq	r0, #0
     228:	00014800 	andeq	r4, r1, r0, lsl #16
     22c:	00015000 	andeq	r5, r1, r0
     230:	32000200 	andcc	r0, r0, #0, 4
     234:	0000009f 	muleq	r0, pc, r0	; <UNPREDICTABLE>
     238:	00000000 	andeq	r0, r0, r0
     23c:	48000300 	stmdami	r0, {r8, r9}
     240:	50000001 	andpl	r0, r0, r1
     244:	02000001 	andeq	r0, r0, #1, 0
     248:	009f3b00 	addseq	r3, pc, r0, lsl #22
     24c:	00000000 	andeq	r0, r0, r0
     250:	03000000 	movweq	r0, #0
     254:	00014800 	andeq	r4, r1, r0, lsl #16
     258:	00015000 	andeq	r5, r1, r0
     25c:	39000200 	stmdbcc	r0, {r9}
     260:	0000009f 	muleq	r0, pc, r0	; <UNPREDICTABLE>
     264:	00000000 	andeq	r0, r0, r0
     268:	48000300 	stmdami	r0, {r8, r9}
     26c:	4c000001 	stcmi	0, cr0, [r0], {1}
     270:	01000001 	tsteq	r0, r1
     274:	00005400 	andeq	r5, r0, r0, lsl #8
     278:	00000000 	andeq	r0, r0, r0
     27c:	00070000 	andeq	r0, r7, r0
     280:	00000148 	andeq	r0, r0, r8, asr #2
     284:	00000150 	andeq	r0, r0, r0, asr r1
     288:	9f3b0002 	svcls	0x003b0002
	...
     294:	01480007 	cmpeq	r8, r7
     298:	01500000 	cmpeq	r0, r0
     29c:	00020000 	andeq	r0, r2, r0
     2a0:	00009f39 	andeq	r9, r0, r9, lsr pc
     2a4:	00000000 	andeq	r0, r0, r0
     2a8:	00070000 	andeq	r0, r7, r0
     2ac:	00000148 	andeq	r0, r0, r8, asr #2
     2b0:	0000014c 	andeq	r0, r0, ip, asr #2
     2b4:	00540001 	subseq	r0, r4, r1
     2b8:	00000000 	andeq	r0, r0, r0
     2bc:	02000000 	andeq	r0, r0, #0, 0
     2c0:	00018000 	andeq	r8, r1, r0
     2c4:	00018800 	andeq	r8, r1, r0, lsl #16
     2c8:	31000200 	mrscc	r0, R8_usr
     2cc:	0000009f 	muleq	r0, pc, r0	; <UNPREDICTABLE>
     2d0:	00000000 	andeq	r0, r0, r0
     2d4:	80000200 	andhi	r0, r0, r0, lsl #4
     2d8:	88000001 	stmdahi	r0, {r0}
     2dc:	02000001 	andeq	r0, r0, #1, 0
     2e0:	009f3b00 	addseq	r3, pc, r0, lsl #22
     2e4:	00000000 	andeq	r0, r0, r0
     2e8:	02000000 	andeq	r0, r0, #0, 0
     2ec:	00018000 	andeq	r8, r1, r0
     2f0:	00018800 	andeq	r8, r1, r0, lsl #16
     2f4:	39000200 	stmdbcc	r0, {r9}
     2f8:	0000009f 	muleq	r0, pc, r0	; <UNPREDICTABLE>
     2fc:	00000000 	andeq	r0, r0, r0
     300:	80000200 	andhi	r0, r0, r0, lsl #4
     304:	88000001 	stmdahi	r0, {r0}
     308:	01000001 	tsteq	r0, r1
     30c:	00005000 	andeq	r5, r0, r0
     310:	00000000 	andeq	r0, r0, r0
     314:	00060000 	andeq	r0, r6, r0
     318:	00000180 	andeq	r0, r0, r0, lsl #3
     31c:	00000188 	andeq	r0, r0, r8, lsl #3
     320:	9f3b0002 	svcls	0x003b0002
	...
     32c:	01800006 	orreq	r0, r0, r6
     330:	01880000 	orreq	r0, r8, r0
     334:	00020000 	andeq	r0, r2, r0
     338:	00009f39 	andeq	r9, r0, r9, lsr pc
     33c:	00000000 	andeq	r0, r0, r0
     340:	00060000 	andeq	r0, r6, r0
     344:	00000180 	andeq	r0, r0, r0, lsl #3
     348:	00000188 	andeq	r0, r0, r8, lsl #3
     34c:	00500001 	subseq	r0, r0, r1
     350:	00000000 	andeq	r0, r0, r0
     354:	03000000 	movweq	r0, #0
     358:	00019008 	andeq	r9, r1, r8
     35c:	00019000 	andeq	r9, r1, r0
     360:	38000200 	stmdacc	r0, {r9}
     364:	0000009f 	muleq	r0, pc, r0	; <UNPREDICTABLE>
     368:	00000000 	andeq	r0, r0, r0
     36c:	90080300 	andls	r0, r8, r0, lsl #6
     370:	90000001 	andls	r0, r0, r1
     374:	01000001 	tsteq	r0, r1
     378:	00005000 	andeq	r5, r0, r0
     37c:	00000000 	andeq	r0, r0, r0
     380:	08050000 	stmdaeq	r5, {}	; <UNPREDICTABLE>
     384:	00000190 	muleq	r0, r0, r1
     388:	00000190 	muleq	r0, r0, r1
     38c:	9f380002 	svcls	0x00380002
	...
     398:	01900805 	orrseq	r0, r0, r5, lsl #16
     39c:	01900000 	orrseq	r0, r0, r0
     3a0:	00010000 	andeq	r0, r1, r0
     3a4:	00000050 	andeq	r0, r0, r0, asr r0
     3a8:	00000000 	andeq	r0, r0, r0
     3ac:	980f0300 	stmdals	pc, {r8, r9}	; <UNPREDICTABLE>
     3b0:	98000001 	stmdals	r0, {r0}
     3b4:	02000001 	andeq	r0, r0, #1, 0
     3b8:	009f3000 	addseq	r3, pc, r0
     3bc:	00000000 	andeq	r0, r0, r0
     3c0:	03000000 	movweq	r0, #0
     3c4:	0001980f 	andeq	r9, r1, pc, lsl #16
     3c8:	00019800 	andeq	r9, r1, r0, lsl #16
     3cc:	37000200 	strcc	r0, [r0, -r0, lsl #4]
     3d0:	0000009f 	muleq	r0, pc, r0	; <UNPREDICTABLE>
     3d4:	00000000 	andeq	r0, r0, r0
     3d8:	980f0300 	stmdals	pc, {r8, r9}	; <UNPREDICTABLE>
     3dc:	98000001 	stmdals	r0, {r0}
     3e0:	02000001 	andeq	r0, r0, #1, 0
     3e4:	009f3500 	addseq	r3, pc, r0, lsl #10
     3e8:	00000000 	andeq	r0, r0, r0
     3ec:	03000000 	movweq	r0, #0
     3f0:	0001980f 	andeq	r9, r1, pc, lsl #16
     3f4:	00019800 	andeq	r9, r1, r0, lsl #16
     3f8:	50000100 	andpl	r0, r0, r0, lsl #2
	...
     404:	01980f07 	orrseq	r0, r8, r7, lsl #30
     408:	01980000 	orrseq	r0, r8, r0
     40c:	00020000 	andeq	r0, r2, r0
     410:	00009f37 	andeq	r9, r0, r7, lsr pc
     414:	00000000 	andeq	r0, r0, r0
     418:	0f070000 	svceq	0x00070000
     41c:	00000198 	muleq	r0, r8, r1
     420:	00000198 	muleq	r0, r8, r1
     424:	9f350002 	svcls	0x00350002
	...
     430:	01980f07 	orrseq	r0, r8, r7, lsl #30
     434:	01980000 	orrseq	r0, r8, r0
     438:	00010000 	andeq	r0, r1, r0
     43c:	00000050 	andeq	r0, r0, r0, asr r0
	...
     448:	00009400 	andeq	r9, r0, r0, lsl #8
     44c:	00009f00 	andeq	r9, r0, r0, lsl #30
     450:	50000100 	andpl	r0, r0, r0, lsl #2
     454:	0000009f 	muleq	r0, pc, r0	; <UNPREDICTABLE>
     458:	000000d8 	ldrdeq	r0, [r0], -r8
     45c:	00560001 	subseq	r0, r6, r1
	...
     468:	0000a400 	andeq	sl, r0, r0, lsl #8
     46c:	0000d800 	andeq	sp, r0, r0, lsl #16
     470:	55000100 	strpl	r0, [r0, #-256]	; 0xffffff00
	...
     480:	000000ac 	andeq	r0, r0, ip, lsr #1
     484:	000000b0 	strheq	r0, [r0], -r0	; <UNPREDICTABLE>
     488:	b0500001 	subslt	r0, r0, r1
     48c:	d8000000 	stmdale	r0, {}	; <UNPREDICTABLE>
     490:	01000000 	mrseq	r0, (UNDEF: 0)
     494:	00005400 	andeq	r5, r0, r0, lsl #8
	...
     4a0:	00540000 	subseq	r0, r4, r0
     4a4:	006f0000 	rsbeq	r0, pc, r0
     4a8:	00010000 	andeq	r0, r1, r0
     4ac:	00006f50 	andeq	r6, r0, r0, asr pc
     4b0:	00009400 	andeq	r9, r0, r0, lsl #8
     4b4:	f3000400 	vshl.u8	d0, d0, d0
     4b8:	009f5001 	addseq	r5, pc, r1
	...
     4c4:	54000000 	strpl	r0, [r0], #-0
     4c8:	6c000000 	stcvs	0, cr0, [r0], {-0}
     4cc:	01000000 	mrseq	r0, (UNDEF: 0)
     4d0:	006c5100 	rsbeq	r5, ip, r0, lsl #2
     4d4:	006f0000 	rsbeq	r0, pc, r0
     4d8:	00020000 	andeq	r0, r2, r0
     4dc:	00000071 	andeq	r0, r0, r1, ror r0
	...
     4e8:	00280000 	eoreq	r0, r8, r0
     4ec:	004b0000 	subeq	r0, fp, r0
     4f0:	00010000 	andeq	r0, r1, r0
     4f4:	00004b50 	andeq	r4, r0, r0, asr fp
     4f8:	00005400 	andeq	r5, r0, r0, lsl #8
     4fc:	f3000400 	vshl.u8	d0, d0, d0
     500:	009f5001 	addseq	r5, pc, r1
	...
     510:	00002800 	andeq	r2, r0, r0, lsl #16
     514:	00004800 	andeq	r4, r0, r0, lsl #16
     518:	51000100 	mrspl	r0, (UNDEF: 16)
     51c:	00000048 	andeq	r0, r0, r8, asr #32
     520:	0000004b 	andeq	r0, r0, fp, asr #32
     524:	00710002 	rsbseq	r0, r1, r2
     528:	0000004b 	andeq	r0, r0, fp, asr #32
     52c:	00000054 	andeq	r0, r0, r4, asr r0
     530:	01f30004 	mvnseq	r0, r4
     534:	00009f51 	andeq	r9, r0, r1, asr pc
	...
     540:	00280000 	eoreq	r0, r8, r0
     544:	00440000 	subeq	r0, r4, r0
     548:	00010000 	andeq	r0, r1, r0
     54c:	00004452 	andeq	r4, r0, r2, asr r4
     550:	00005400 	andeq	r5, r0, r0, lsl #8
     554:	f3000400 	vshl.u8	d0, d0, d0
     558:	009f5201 	addseq	r5, pc, r1, lsl #4
	...
     564:	f4000000 	vst4.8	{d0-d3}, [r0], r0
     568:	0b000003 	bleq	57c <__code_start__-0x7a84>
     56c:	01000004 	tsteq	r0, r4
     570:	040b5000 	streq	r5, [fp], #-0
     574:	04b00000 	ldrteq	r0, [r0], #0
     578:	00040000 	andeq	r0, r4, r0
     57c:	9f5001f3 	svcls	0x005001f3
	...
     58c:	000003f4 	strdeq	r0, [r0], -r4
     590:	00000408 	andeq	r0, r0, r8, lsl #8
     594:	08510001 	ldmdaeq	r1, {r0}^
     598:	b0000004 	andlt	r0, r0, r4
     59c:	01000004 	tsteq	r0, r4
     5a0:	00005500 	andeq	r5, r0, r0, lsl #10
	...
     5ac:	03f40000 	mvnseq	r0, #0, 0
     5b0:	04040000 	streq	r0, [r4], #-0
     5b4:	00010000 	andeq	r0, r1, r0
     5b8:	00040452 	andeq	r0, r4, r2, asr r4
     5bc:	0004b000 	andeq	fp, r4, r0
     5c0:	54000100 	strpl	r0, [r0], #-256	; 0xffffff00
	...
     5cc:	00000002 	andeq	r0, r0, r2
     5d0:	00000000 	andeq	r0, r0, r0
     5d4:	0000040c 	andeq	r0, r0, ip, lsl #8
     5d8:	00000414 	andeq	r0, r0, r4, lsl r4
     5dc:	9f300002 	svcls	0x00300002
     5e0:	00000414 	andeq	r0, r0, r4, lsl r4
     5e4:	0000041c 	andeq	r0, r0, ip, lsl r4
     5e8:	2c520001 	mrrccs	0, 0, r0, r2, cr1
     5ec:	7c000004 	stcvc	0, cr0, [r0], {4}
     5f0:	01000004 	tsteq	r0, r4
     5f4:	048c5200 	streq	r5, [ip], #512	; 0x200
     5f8:	048f0000 	streq	r0, [pc], #0	; 600 <__code_start__-0x7a00>
     5fc:	00010000 	andeq	r0, r1, r0
     600:	00000052 	andeq	r0, r0, r2, asr r0
	...
     60c:	00033800 	andeq	r3, r3, r0, lsl #16
     610:	00034f00 	andeq	r4, r3, r0, lsl #30
     614:	50000100 	andpl	r0, r0, r0, lsl #2
     618:	0000034f 	andeq	r0, r0, pc, asr #6
     61c:	000003f4 	strdeq	r0, [r0], -r4
     620:	01f30004 	mvnseq	r0, r4
     624:	00009f50 	andeq	r9, r0, r0, asr pc
	...
     630:	03380000 	teqeq	r8, #0, 0
     634:	034c0000 	movteq	r0, #49152	; 0xc000
     638:	00010000 	andeq	r0, r1, r0
     63c:	00034c51 	andeq	r4, r3, r1, asr ip
     640:	0003f400 	andeq	pc, r3, r0, lsl #8
     644:	55000100 	strpl	r0, [r0, #-256]	; 0xffffff00
	...
     654:	00000338 	andeq	r0, r0, r8, lsr r3
     658:	00000348 	andeq	r0, r0, r8, asr #6
     65c:	48520001 	ldmdami	r2, {r0}^
     660:	f4000003 	vst4.8	{d0-d3}, [r0], r3
     664:	01000003 	tsteq	r0, r3
     668:	00005400 	andeq	r5, r0, r0, lsl #8
     66c:	00000000 	andeq	r0, r0, r0
     670:	00020000 	andeq	r0, r2, r0
     674:	00000000 	andeq	r0, r0, r0
     678:	03500000 	cmpeq	r0, #0, 0
     67c:	03580000 	cmpeq	r8, #0, 0
     680:	00020000 	andeq	r0, r2, r0
     684:	03589f30 	cmpeq	r8, #48, 30	; 0xc0
     688:	03600000 	cmneq	r0, #0, 0
     68c:	00010000 	andeq	r0, r1, r0
     690:	00037052 	andeq	r7, r3, r2, asr r0
     694:	0003c000 	andeq	ip, r3, r0
     698:	52000100 	andpl	r0, r0, #0
     69c:	000003d0 	ldrdeq	r0, [r0], -r0	; <UNPREDICTABLE>
     6a0:	000003d3 	ldrdeq	r0, [r0], -r3
     6a4:	00520001 	subseq	r0, r2, r1
	...
     6b4:	00016400 	andeq	r6, r1, r0, lsl #8
     6b8:	00017b00 	andeq	r7, r1, r0, lsl #22
     6bc:	50000100 	andpl	r0, r0, r0, lsl #2
     6c0:	0000017b 	andeq	r0, r0, fp, ror r1
     6c4:	00000304 	andeq	r0, r0, r4, lsl #6
     6c8:	04560001 	ldrbeq	r0, [r6], #-1
     6cc:	38000003 	stmdacc	r0, {r0, r1}
     6d0:	04000003 	streq	r0, [r0], #-3
     6d4:	5001f300 	andpl	pc, r1, r0, lsl #6
     6d8:	0000009f 	muleq	r0, pc, r0	; <UNPREDICTABLE>
	...
     6e8:	64000000 	strvs	r0, [r0], #-0
     6ec:	7b000001 	blvc	6f8 <__code_start__-0x7908>
     6f0:	01000001 	tsteq	r0, r1
     6f4:	017b5100 	cmneq	fp, r0, lsl #2
     6f8:	021c0000 	andseq	r0, ip, #0, 0
     6fc:	00010000 	andeq	r0, r1, r0
     700:	00021c55 	andeq	r1, r2, r5, asr ip
     704:	00028400 	andeq	r8, r2, r0, lsl #8
     708:	f3000400 	vshl.u8	d0, d0, d0
     70c:	849f5101 	ldrhi	r5, [pc], #257	; 714 <__code_start__-0x78ec>
     710:	e4000002 	str	r0, [r0], #-2
     714:	01000002 	tsteq	r0, r2
     718:	02e45500 	rsceq	r5, r4, #0, 10
     71c:	03380000 	teqeq	r8, #0, 0
     720:	00040000 	andeq	r0, r4, r0
     724:	9f5101f3 	svcls	0x005101f3
	...
     734:	01640000 	cmneq	r4, r0
     738:	017b0000 	cmneq	fp, r0
     73c:	00010000 	andeq	r0, r1, r0
     740:	00017b52 	andeq	r7, r1, r2, asr fp
     744:	00030400 	andeq	r0, r3, r0, lsl #8
     748:	54000100 	strpl	r0, [r0], #-256	; 0xffffff00
     74c:	00000304 	andeq	r0, r0, r4, lsl #6
     750:	00000338 	andeq	r0, r0, r8, lsr r3
     754:	01f30004 	mvnseq	r0, r4
     758:	00009f52 	andeq	r9, r0, r2, asr pc
	...
     764:	0000022c 	andeq	r0, r0, ip, lsr #4
     768:	00000230 	andeq	r0, r0, r0, lsr r2
     76c:	00530001 	subseq	r0, r3, r1
	...
     778:	1c000000 	stcne	0, cr0, [r0], {-0}
     77c:	23000001 	movwcs	r0, #1
     780:	01000001 	tsteq	r0, r1
     784:	01235000 			; <UNDEFINED> instruction: 0x01235000
     788:	012c0000 			; <UNDEFINED> instruction: 0x012c0000
     78c:	00040000 	andeq	r0, r4, r0
     790:	9f5001f3 	svcls	0x005001f3
	...
     79c:	00100000 	andseq	r0, r0, r0
     7a0:	00140000 	andseq	r0, r4, r0
     7a4:	00010000 	andeq	r0, r1, r0
     7a8:	00000050 	andeq	r0, r0, r0, asr r0
	...
     7b4:	00015400 	andeq	r5, r1, r0, lsl #8
     7b8:	00015b00 	andeq	r5, r1, r0, lsl #22
     7bc:	50000100 	andpl	r0, r0, r0, lsl #2
     7c0:	0000015b 	andeq	r0, r0, fp, asr r1
     7c4:	00000164 	andeq	r0, r0, r4, ror #2
     7c8:	01f30004 	mvnseq	r0, r4
     7cc:	00009f50 	andeq	r9, r0, r0, asr pc
	...
     7d8:	00000100 	andeq	r0, r0, r0, lsl #2
     7dc:	00040000 	andeq	r0, r4, r0
     7e0:	00010000 	andeq	r0, r1, r0
     7e4:	00000c50 	andeq	r0, r0, r0, asr ip
     7e8:	00000c00 	andeq	r0, r0, r0, lsl #24
     7ec:	50000100 	andpl	r0, r0, r0, lsl #2
	...
     7fc:	01700000 	cmneq	r0, r0
     800:	017c0000 	cmneq	ip, r0
     804:	00010000 	andeq	r0, r1, r0
     808:	00017c50 	andeq	r7, r1, r0, asr ip
     80c:	00018800 	andeq	r8, r1, r0, lsl #16
     810:	54000100 	strpl	r0, [r0], #-256	; 0xffffff00
     814:	00000188 	andeq	r0, r0, r8, lsl #3
     818:	00000198 	muleq	r0, r8, r1
     81c:	01f30004 	mvnseq	r0, r4
     820:	00009f50 	andeq	r9, r0, r0, asr pc
	...
     834:	00000178 	andeq	r0, r0, r8, ror r1
     838:	0000017c 	andeq	r0, r0, ip, ror r1
     83c:	0070000b 	rsbseq	r0, r0, fp
     840:	b4232535 	strtlt	r2, [r3], #-1333	; 0xfffffacb
     844:	02818080 	addeq	r8, r1, #128, 0	; 0x80
     848:	00017c9f 	muleq	r1, pc, ip	; <UNPREDICTABLE>
     84c:	00018000 	andeq	r8, r1, r0
     850:	74000b00 	strvc	r0, [r0], #-2816	; 0xfffff500
     854:	23253500 			; <UNDEFINED> instruction: 0x23253500
     858:	818080b4 	strhhi	r8, [r0, r4]
     85c:	01809f02 	orreq	r9, r0, r2, lsl #30
     860:	01830000 	orreq	r0, r3, r0
     864:	00010000 	andeq	r0, r1, r0
     868:	00018350 	andeq	r8, r1, r0, asr r3
     86c:	00018800 	andeq	r8, r1, r0, lsl #16
     870:	74000b00 	strvc	r0, [r0], #-2816	; 0xfffff500
     874:	23253500 			; <UNDEFINED> instruction: 0x23253500
     878:	818080b4 	strhhi	r8, [r0, r4]
     87c:	01889f02 	orreq	r9, r8, r2, lsl #30
     880:	01980000 	orrseq	r0, r8, r0
     884:	000c0000 	andeq	r0, ip, r0
     888:	355001f3 	ldrbcc	r0, [r0, #-499]	; 0xfffffe0d
     88c:	80b42325 	adcshi	r2, r4, r5, lsr #6
     890:	9f028180 	svcls	0x00028180
	...
     89c:	00000001 	andeq	r0, r0, r1
     8a0:	01780000 	cmneq	r8, r0
     8a4:	017c0000 	cmneq	ip, r0
     8a8:	00050000 	andeq	r0, r5, r0
     8ac:	1a4f0070 	bne	13c0a74 <__bss_end__+0x13b6764>
     8b0:	00017c9f 	muleq	r1, pc, ip	; <UNPREDICTABLE>
     8b4:	00018800 	andeq	r8, r1, r0, lsl #16
     8b8:	74000500 	strvc	r0, [r0], #-1280	; 0xfffffb00
     8bc:	9f1a4f00 	svcls	0x001a4f00
     8c0:	00000188 	andeq	r0, r0, r8, lsl #3
     8c4:	00000198 	muleq	r0, r8, r1
     8c8:	00540001 	subseq	r0, r4, r1
	...
     8dc:	40000000 	andmi	r0, r0, r0
     8e0:	54000001 	strpl	r0, [r0], #-1
     8e4:	01000001 	tsteq	r0, r1
     8e8:	01545000 	cmpeq	r4, r0
     8ec:	01580000 	cmpeq	r8, r0
     8f0:	00010000 	andeq	r0, r1, r0
     8f4:	00015851 	andeq	r5, r1, r1, asr r8
     8f8:	00015c00 	andeq	r5, r1, r0, lsl #24
     8fc:	f3000400 	vshl.u8	d0, d0, d0
     900:	5c9f5001 	ldcpl	0, cr5, [pc], {1}
     904:	60000001 	andvs	r0, r0, r1
     908:	01000001 	tsteq	r0, r1
     90c:	01605000 	cmneq	r0, r0
     910:	01640000 	cmneq	r4, r0
     914:	00010000 	andeq	r0, r1, r0
     918:	00016451 	andeq	r6, r1, r1, asr r4
     91c:	00017000 	andeq	r7, r1, r0
     920:	f3000400 	vshl.u8	d0, d0, d0
     924:	009f5001 	addseq	r5, pc, r1
	...
     930:	40000000 	andmi	r0, r0, r0
     934:	4c000001 	stcmi	0, cr0, [r0], {1}
     938:	01000001 	tsteq	r0, r1
     93c:	014c5100 	mrseq	r5, (UNDEF: 92)
     940:	01700000 	cmneq	r0, r0
     944:	00040000 	andeq	r0, r4, r0
     948:	9f5101f3 	svcls	0x005101f3
	...
     954:	00000001 	andeq	r0, r0, r1
     958:	01500000 	cmpeq	r0, r0
     95c:	01540000 	cmpeq	r4, r0
     960:	00010000 	andeq	r0, r1, r0
     964:	00015450 	andeq	r5, r1, r0, asr r4
     968:	00015800 	andeq	r5, r1, r0, lsl #16
     96c:	51000100 	mrspl	r0, (UNDEF: 16)
     970:	00000158 	andeq	r0, r0, r8, asr r1
     974:	0000015c 	andeq	r0, r0, ip, asr r1
     978:	01f30004 	mvnseq	r0, r4
     97c:	00009f50 	andeq	r9, r0, r0, asr pc
     980:	00000000 	andeq	r0, r0, r0
     984:	00020000 	andeq	r0, r2, r0
     988:	00000000 	andeq	r0, r0, r0
     98c:	0000015c 	andeq	r0, r0, ip, asr r1
     990:	00000160 	andeq	r0, r0, r0, ror #2
     994:	60500001 	subsvs	r0, r0, r1
     998:	64000001 	strvs	r0, [r0], #-1
     99c:	01000001 	tsteq	r0, r1
     9a0:	01645100 	cmneq	r4, r0, lsl #2
     9a4:	01700000 	cmneq	r0, r0
     9a8:	00040000 	andeq	r0, r4, r0
     9ac:	9f5001f3 	svcls	0x005001f3
	...
     9bc:	00e80000 	rsceq	r0, r8, r0
     9c0:	01080000 	mrseq	r0, (UNDEF: 8)
     9c4:	00010000 	andeq	r0, r1, r0
     9c8:	00010850 	andeq	r0, r1, r0, asr r8
     9cc:	00012800 	andeq	r2, r1, r0, lsl #16
     9d0:	54000100 	strpl	r0, [r0], #-256	; 0xffffff00
     9d4:	00000128 	andeq	r0, r0, r8, lsr #2
     9d8:	00000140 	andeq	r0, r0, r0, asr #2
     9dc:	01f30004 	mvnseq	r0, r4
     9e0:	00009f50 	andeq	r9, r0, r0, asr pc
     9e4:	00000000 	andeq	r0, r0, r0
     9e8:	00020000 	andeq	r0, r2, r0
     9ec:	00000000 	andeq	r0, r0, r0
     9f0:	000000e8 	andeq	r0, r0, r8, ror #1
     9f4:	00000108 	andeq	r0, r0, r8, lsl #2
     9f8:	08500001 	ldmdaeq	r0, {r0}^
     9fc:	28000001 	stmdacs	r0, {r0}
     a00:	01000001 	tsteq	r0, r1
     a04:	01285400 			; <UNDEFINED> instruction: 0x01285400
     a08:	01400000 	mrseq	r0, (UNDEF: 64)
     a0c:	00040000 	andeq	r0, r4, r0
     a10:	9f5001f3 	svcls	0x005001f3
	...
     a20:	00f00000 	rscseq	r0, r0, r0
     a24:	01080000 	mrseq	r0, (UNDEF: 8)
     a28:	00010000 	andeq	r0, r1, r0
     a2c:	00010850 	andeq	r0, r1, r0, asr r8
     a30:	00012800 	andeq	r2, r1, r0, lsl #16
     a34:	54000100 	strpl	r0, [r0], #-256	; 0xffffff00
     a38:	00000128 	andeq	r0, r0, r8, lsr #2
     a3c:	00000140 	andeq	r0, r0, r0, asr #2
     a40:	01f30004 	mvnseq	r0, r4
     a44:	00009f50 	andeq	r9, r0, r0, asr pc
     a48:	00000000 	andeq	r0, r0, r0
     a4c:	00030000 	andeq	r0, r3, r0
     a50:	00000000 	andeq	r0, r0, r0
     a54:	000000f0 	strdeq	r0, [r0], -r0	; <UNPREDICTABLE>
     a58:	00000108 	andeq	r0, r0, r8, lsl #2
     a5c:	00700007 	rsbseq	r0, r0, r7
     a60:	1e331d3a 	mrcne	13, 1, r1, cr3, cr10, {1}
     a64:	0001089f 	muleq	r1, pc, r8	; <UNPREDICTABLE>
     a68:	00012800 	andeq	r2, r1, r0, lsl #16
     a6c:	74000700 	strvc	r0, [r0], #-1792	; 0xfffff900
     a70:	331d3a00 	tstcc	sp, #0, 20
     a74:	01289f1e 			; <UNDEFINED> instruction: 0x01289f1e
     a78:	01400000 	mrseq	r0, (UNDEF: 64)
     a7c:	00080000 	andeq	r0, r8, r0
     a80:	3a5001f3 	bcc	1401254 <__bss_end__+0x13f6f44>
     a84:	9f1e331d 	svcls	0x001e331d
	...
     a94:	01100000 	tsteq	r0, r0
     a98:	01380000 	teqeq	r8, r0
     a9c:	00010000 	andeq	r0, r1, r0
     aa0:	00013856 	andeq	r3, r1, r6, asr r8
     aa4:	00013b00 	andeq	r3, r1, r0, lsl #22
     aa8:	50000100 	andpl	r0, r0, r0, lsl #2
     aac:	0000013b 	andeq	r0, r0, fp, lsr r1
     ab0:	00000140 	andeq	r0, r0, r0, asr #2
     ab4:	01f30026 	mvnseq	r0, r6, lsr #32
     ab8:	f72cf750 			; <UNDEFINED> instruction: 0xf72cf750
     abc:	0825f425 	stmdaeq	r5!, {r0, r2, r5, sl, ip, sp, lr, pc}
     ac0:	cccccccd 	stclgt	12, cr12, [ip], {205}	; 0xcd
     ac4:	00000000 	andeq	r0, r0, r0
     ac8:	f720081e 			; <UNDEFINED> instruction: 0xf720081e
     acc:	2cf72525 	cfldr64cs	mvdx2, [r7], #148	; 0x94
     ad0:	253300f7 	ldrcs	r0, [r3, #-247]!	; 0xffffff09
     ad4:	a0808023 	addge	r8, r0, r3, lsr #32
     ad8:	9f243240 	svcls	0x00243240
	...
     ae4:	00010100 	andeq	r0, r1, r0, lsl #2
     ae8:	00000000 	andeq	r0, r0, r0
     aec:	00000120 	andeq	r0, r0, r0, lsr #2
     af0:	00000120 	andeq	r0, r0, r0, lsr #2
     af4:	20500001 	subscs	r0, r0, r1
     af8:	28000001 	stmdacs	r0, {r0}
     afc:	0d000001 	stceq	0, cr0, [r0, #-4]
     b00:	00743700 	rsbseq	r3, r4, r0, lsl #14
     b04:	1e331d3a 	mrcne	13, 1, r1, cr3, cr10, {1}
     b08:	00702024 	rsbseq	r2, r0, r4, lsr #32
     b0c:	01289f1a 			; <UNDEFINED> instruction: 0x01289f1a
     b10:	01300000 	teqeq	r0, r0
     b14:	000e0000 	andeq	r0, lr, r0
     b18:	5001f337 	andpl	pc, r1, r7, lsr r3	; <UNPREDICTABLE>
     b1c:	1e331d3a 	mrcne	13, 1, r1, cr3, cr10, {1}
     b20:	00702024 	rsbseq	r2, r0, r4, lsr #32
     b24:	01309f1a 	teqeq	r0, sl, lsl pc
     b28:	013b0000 	teqeq	fp, r0
     b2c:	000e0000 	andeq	r0, lr, r0
     b30:	5001f337 	andpl	pc, r1, r7, lsr r3	; <UNPREDICTABLE>
     b34:	1e331d3a 	mrcne	13, 1, r1, cr3, cr10, {1}
     b38:	00732024 	rsbseq	r2, r3, r4, lsr #32
     b3c:	00009f1a 	andeq	r9, r0, sl, lsl pc
	...
     b48:	00600000 	rsbeq	r0, r0, r0
     b4c:	00900000 	addseq	r0, r0, r0
     b50:	00010000 	andeq	r0, r1, r0
     b54:	00009050 	andeq	r9, r0, r0, asr r0
     b58:	0000b800 	andeq	fp, r0, r0, lsl #16
     b5c:	f3000400 	vshl.u8	d0, d0, d0
     b60:	009f5001 	addseq	r5, pc, r1
     b64:	00000000 	andeq	r0, r0, r0
     b68:	02000000 	andeq	r0, r0, #0, 0
     b6c:	60000000 	andvs	r0, r0, r0
     b70:	90000000 	andls	r0, r0, r0
     b74:	01000000 	mrseq	r0, (UNDEF: 0)
     b78:	00905000 	addseq	r5, r0, r0
     b7c:	00b80000 	adcseq	r0, r8, r0
     b80:	00040000 	andeq	r0, r4, r0
     b84:	9f5001f3 	svcls	0x005001f3
	...
     b94:	00000068 	andeq	r0, r0, r8, rrx
     b98:	00000090 	muleq	r0, r0, r0
     b9c:	90500001 	subsls	r0, r0, r1
     ba0:	b8000000 	stmdalt	r0, {}	; <UNPREDICTABLE>
     ba4:	04000000 	streq	r0, [r0], #-0
     ba8:	5001f300 	andpl	pc, r1, r0, lsl #6
     bac:	0000009f 	muleq	r0, pc, r0	; <UNPREDICTABLE>
	...
     bb8:	0000a000 	andeq	sl, r0, r0
     bbc:	0000b000 	andeq	fp, r0, r0
     bc0:	54000100 	strpl	r0, [r0], #-256	; 0xffffff00
     bc4:	000000b0 	strheq	r0, [r0], -r0	; <UNPREDICTABLE>
     bc8:	000000b8 	strheq	r0, [r0], -r8
     bcc:	01f30029 	mvnseq	r0, r9, lsr #32
     bd0:	5001f350 	andpl	pc, r1, r0, asr r3	; <UNPREDICTABLE>
     bd4:	25f72cf7 	ldrbcs	r2, [r7, #3319]!	; 0xcf7
     bd8:	cd0825f4 	cfstr32gt	mvfx2, [r8, #-976]	; 0xfffffc30
     bdc:	00cccccc 	sbceq	ip, ip, ip, asr #25
     be0:	1e000000 	cdpne	0, 0, cr0, cr0, cr0, {0}
     be4:	25f72008 	ldrbcs	r2, [r7, #8]!
     be8:	f72cf725 			; <UNDEFINED> instruction: 0xf72cf725
     bec:	35253300 	strcc	r3, [r5, #-768]!	; 0xfffffd00
     bf0:	1c24311e 	stfnes	f3, [r4], #-120	; 0xffffff88
     bf4:	009f1e33 	addseq	r1, pc, r3, lsr lr	; <UNPREDICTABLE>
     bf8:	00000000 	andeq	r0, r0, r0
     bfc:	01000000 	mrseq	r0, (UNDEF: 0)
     c00:	00000000 	andeq	r0, r0, r0
     c04:	0000a000 	andeq	sl, r0, r0
     c08:	0000b000 	andeq	fp, r0, r0
     c0c:	55000100 	strpl	r0, [r0, #-256]	; 0xffffff00
     c10:	000000b0 	strheq	r0, [r0], -r0	; <UNPREDICTABLE>
     c14:	000000b3 	strheq	r0, [r0], -r3
     c18:	b3500001 	cmplt	r0, #1, 0
     c1c:	b8000000 	stmdalt	r0, {}	; <UNPREDICTABLE>
     c20:	26000000 	strcs	r0, [r0], -r0
     c24:	5001f300 	andpl	pc, r1, r0, lsl #6
     c28:	25f72cf7 	ldrbcs	r2, [r7, #3319]!	; 0xcf7
     c2c:	cd0825f4 	cfstr32gt	mvfx2, [r8, #-976]	; 0xfffffc30
     c30:	00cccccc 	sbceq	ip, ip, ip, asr #25
     c34:	1e000000 	cdpne	0, 0, cr0, cr0, cr0, {0}
     c38:	25f72008 	ldrbcs	r2, [r7, #8]!
     c3c:	f72cf725 			; <UNDEFINED> instruction: 0xf72cf725
     c40:	23253300 			; <UNDEFINED> instruction: 0x23253300
     c44:	40a08080 	adcmi	r8, r0, r0, lsl #1
     c48:	009f2432 	addseq	r2, pc, r2, lsr r4	; <UNPREDICTABLE>
     c4c:	00000000 	andeq	r0, r0, r0
     c50:	02000000 	andeq	r0, r0, #0, 0
     c54:	01010000 	mrseq	r0, (UNDEF: 1)
     c58:	a0000000 	andge	r0, r0, r0
     c5c:	a4000000 	strge	r0, [r0], #-0
     c60:	01000000 	mrseq	r0, (UNDEF: 0)
     c64:	00a45000 	adceq	r5, r4, r0
     c68:	00a40000 	adceq	r0, r4, r0
     c6c:	00010000 	andeq	r0, r1, r0
     c70:	0000a453 	andeq	sl, r0, r3, asr r4
     c74:	0000a800 	andeq	sl, r0, r0, lsl #16
     c78:	31000800 	tstcc	r0, r0, lsl #16
     c7c:	73240074 			; <UNDEFINED> instruction: 0x73240074
     c80:	a89f2100 	ldmge	pc, {r8, sp}	; <UNPREDICTABLE>
     c84:	b3000000 	movwlt	r0, #0
     c88:	01000000 	mrseq	r0, (UNDEF: 0)
     c8c:	00005100 	andeq	r5, r0, r0, lsl #2
	...
     c9c:	003c0000 	eorseq	r0, ip, r0
     ca0:	00010000 	andeq	r0, r1, r0
     ca4:	00003c50 	andeq	r3, r0, r0, asr ip
     ca8:	00006000 	andeq	r6, r0, r0
     cac:	f3000400 	vshl.u8	d0, d0, d0
     cb0:	009f5001 	addseq	r5, pc, r1
	...
     cc0:	3f000000 	svccc	0x00000000
     cc4:	01000000 	mrseq	r0, (UNDEF: 0)
     cc8:	003f5100 	eorseq	r5, pc, r0, lsl #2
     ccc:	00600000 	rsbeq	r0, r0, r0
     cd0:	00040000 	andeq	r0, r4, r0
     cd4:	9f5101f3 	svcls	0x005101f3
	...
     ce4:	00000008 	andeq	r0, r0, r8
     ce8:	0000003f 	andeq	r0, r0, pc, lsr r0
     cec:	3f510001 	svccc	0x00510001
     cf0:	60000000 	andvs	r0, r0, r0
     cf4:	04000000 	streq	r0, [r0], #-0
     cf8:	5101f300 	mrspl	pc, SP_irq	; <UNPREDICTABLE>
     cfc:	0000009f 	muleq	r0, pc, r0	; <UNPREDICTABLE>
	...
     d08:	00000800 	andeq	r0, r0, r0, lsl #16
     d0c:	00003c00 	andeq	r3, r0, r0, lsl #24
     d10:	50000100 	andpl	r0, r0, r0, lsl #2
     d14:	0000003c 	andeq	r0, r0, ip, lsr r0
     d18:	00000060 	andeq	r0, r0, r0, rrx
     d1c:	01f30004 	mvnseq	r0, r4
     d20:	00009f50 	andeq	r9, r0, r0, asr pc
	...
     d2c:	00480000 	subeq	r0, r8, r0
     d30:	00580000 	subseq	r0, r8, r0
     d34:	00010000 	andeq	r0, r1, r0
     d38:	00005854 	andeq	r5, r0, r4, asr r8
     d3c:	00006000 	andeq	r6, r0, r0
     d40:	f3002900 	vmls.i8	d2, d0, d0
     d44:	01f35001 	mvnseq	r5, r1
     d48:	f72cf750 			; <UNDEFINED> instruction: 0xf72cf750
     d4c:	0825f425 	stmdaeq	r5!, {r0, r2, r5, sl, ip, sp, lr, pc}
     d50:	cccccccd 	stclgt	12, cr12, [ip], {205}	; 0xcd
     d54:	00000000 	andeq	r0, r0, r0
     d58:	f720081e 			; <UNDEFINED> instruction: 0xf720081e
     d5c:	2cf72525 	cfldr64cs	mvdx2, [r7], #148	; 0x94
     d60:	253300f7 	ldrcs	r0, [r3, #-247]!	; 0xffffff09
     d64:	24311e35 	ldrtcs	r1, [r1], #-3637	; 0xfffff1cb
     d68:	9f1e331c 	svcls	0x001e331c
	...
     d74:	00000001 	andeq	r0, r0, r1
     d78:	00480000 	subeq	r0, r8, r0
     d7c:	00580000 	subseq	r0, r8, r0
     d80:	00010000 	andeq	r0, r1, r0
     d84:	00005856 	andeq	r5, r0, r6, asr r8
     d88:	00005b00 	andeq	r5, r0, r0, lsl #22
     d8c:	50000100 	andpl	r0, r0, r0, lsl #2
     d90:	0000005b 	andeq	r0, r0, fp, asr r0
     d94:	00000060 	andeq	r0, r0, r0, rrx
     d98:	01f30026 	mvnseq	r0, r6, lsr #32
     d9c:	f72cf750 			; <UNDEFINED> instruction: 0xf72cf750
     da0:	0825f425 	stmdaeq	r5!, {r0, r2, r5, sl, ip, sp, lr, pc}
     da4:	cccccccd 	stclgt	12, cr12, [ip], {205}	; 0xcd
     da8:	00000000 	andeq	r0, r0, r0
     dac:	f720081e 			; <UNDEFINED> instruction: 0xf720081e
     db0:	2cf72525 	cfldr64cs	mvdx2, [r7], #148	; 0x94
     db4:	253300f7 	ldrcs	r0, [r3, #-247]!	; 0xffffff09
     db8:	a0808023 	addge	r8, r0, r3, lsr #32
     dbc:	9f243240 	svcls	0x00243240
	...
     dc8:	01000002 	tsteq	r0, r2
     dcc:	00000001 	andeq	r0, r0, r1
     dd0:	00000048 	andeq	r0, r0, r8, asr #32
     dd4:	0000004c 	andeq	r0, r0, ip, asr #32
     dd8:	4c500001 	mrrcmi	0, 0, r0, r0, cr1	; <UNPREDICTABLE>
     ddc:	4c000000 	stcmi	0, cr0, [r0], {-0}
     de0:	01000000 	mrseq	r0, (UNDEF: 0)
     de4:	004c5100 	subeq	r5, ip, r0, lsl #2
     de8:	00500000 	subseq	r0, r0, r0
     dec:	000c0000 	andeq	r0, ip, r0
     df0:	ff080075 			; <UNDEFINED> instruction: 0xff080075
     df4:	2400741a 	strcs	r7, [r0], #-1050	; 0xfffffbe6
     df8:	9f210071 	svcls	0x00210071
     dfc:	00000050 	andeq	r0, r0, r0, asr r0
     e00:	00000054 	andeq	r0, r0, r4, asr r0
     e04:	74370012 	ldrtvc	r0, [r7], #-18	; 0xffffffee
     e08:	70202400 	eorvc	r2, r0, r0, lsl #8
     e0c:	00751a00 	rsbseq	r1, r5, r0, lsl #20
     e10:	741aff08 	ldrvc	pc, [sl], #-3848	; 0xfffff0f8
     e14:	9f212400 	svcls	0x00212400
	...
     e24:	00b80000 	adcseq	r0, r8, r0
     e28:	00c40000 	sbceq	r0, r4, r0
     e2c:	00010000 	andeq	r0, r1, r0
     e30:	0000c450 	andeq	ip, r0, r0, asr r4
     e34:	0000cb00 	andeq	ip, r0, r0, lsl #22
     e38:	53000100 	movwpl	r0, #256	; 0x100
     e3c:	000000cb 	andeq	r0, r0, fp, asr #1
     e40:	000000d0 	ldrdeq	r0, [r0], -r0	; <UNPREDICTABLE>
     e44:	01f30004 	mvnseq	r0, r4
     e48:	00009f50 	andeq	r9, r0, r0, asr pc
	...
     e58:	000000d0 	ldrdeq	r0, [r0], -r0	; <UNPREDICTABLE>
     e5c:	000000dc 	ldrdeq	r0, [r0], -ip
     e60:	dc500001 	mrrcle	0, 0, r0, r0, cr1	; <UNPREDICTABLE>
     e64:	e3000000 	movw	r0, #0
     e68:	01000000 	mrseq	r0, (UNDEF: 0)
     e6c:	00e35300 	rsceq	r5, r3, r0, lsl #6
     e70:	00e80000 	rsceq	r0, r8, r0
     e74:	00040000 	andeq	r0, r4, r0
     e78:	9f5001f3 	svcls	0x005001f3
	...
     e88:	002c0000 	eoreq	r0, ip, r0
     e8c:	00340000 	eorseq	r0, r4, r0
     e90:	00010000 	andeq	r0, r1, r0
     e94:	00003450 	andeq	r3, r0, r0, asr r4
     e98:	00004800 	andeq	r4, r0, r0, lsl #16
     e9c:	54000100 	strpl	r0, [r0], #-256	; 0xffffff00
     ea0:	00000048 	andeq	r0, r0, r8, asr #32
     ea4:	00000058 	andeq	r0, r0, r8, asr r0
     ea8:	00500001 	subseq	r0, r0, r1
	...
     eb8:	0b000000 	bleq	ec0 <__code_start__-0x7140>
     ebc:	01000000 	mrseq	r0, (UNDEF: 0)
     ec0:	000b5000 	andeq	r5, fp, r0
     ec4:	00140000 	andseq	r0, r4, r0
     ec8:	00010000 	andeq	r0, r1, r0
     ecc:	00000054 	andeq	r0, r0, r4, asr r0
	...
     ed8:	00000101 	andeq	r0, r0, r1, lsl #2
     edc:	00000000 	andeq	r0, r0, r0
     ee0:	00000c00 	andeq	r0, r0, r0, lsl #24
     ee4:	50000100 	andpl	r0, r0, r0, lsl #2
     ee8:	0000000c 	andeq	r0, r0, ip
     eec:	00000020 	andeq	r0, r0, r0, lsr #32
     ef0:	20540001 	subscs	r0, r4, r1
     ef4:	24000000 	strcs	r0, [r0], #-0
     ef8:	03000000 	movweq	r0, #0
     efc:	9f017400 	svcls	0x00017400
     f00:	00000024 	andeq	r0, r0, r4, lsr #32
     f04:	00000038 	andeq	r0, r0, r8, lsr r0
     f08:	00540001 	subseq	r0, r4, r1
	...
     f1c:	00038800 	andeq	r8, r3, r0, lsl #16
     f20:	00039400 	andeq	r9, r3, r0, lsl #8
     f24:	50000100 	andpl	r0, r0, r0, lsl #2
     f28:	00000394 	muleq	r0, r4, r3
     f2c:	000003d0 	ldrdeq	r0, [r0], -r0	; <UNPREDICTABLE>
     f30:	d05b0001 	subsle	r0, fp, r1
     f34:	20000003 	andcs	r0, r0, r3
     f38:	04000009 	streq	r0, [r0], #-9
     f3c:	5001f300 	andpl	pc, r1, r0, lsl #6
     f40:	0009209f 	muleq	r9, pc, r0	; <UNPREDICTABLE>
     f44:	00092800 	andeq	r2, r9, r0, lsl #16
     f48:	5b000100 	blpl	1350 <__code_start__-0x6cb0>
     f4c:	00000928 	andeq	r0, r0, r8, lsr #18
     f50:	000009b4 			; <UNDEFINED> instruction: 0x000009b4
     f54:	01f30004 	mvnseq	r0, r4
     f58:	00009f50 	andeq	r9, r0, r0, asr pc
	...
     f68:	03880000 	orreq	r0, r8, #0, 0
     f6c:	03d00000 	bicseq	r0, r0, #0, 0
     f70:	00010000 	andeq	r0, r1, r0
     f74:	0003d051 	andeq	sp, r3, r1, asr r0
     f78:	00092000 	andeq	r2, r9, r0
     f7c:	f3000400 	vshl.u8	d0, d0, d0
     f80:	209f5101 	addscs	r5, pc, r1, lsl #2
     f84:	28000009 	stmdacs	r0, {r0, r3}
     f88:	01000009 	tsteq	r0, r9
     f8c:	09285100 	stmdbeq	r8!, {r8, ip, lr}
     f90:	09b40000 	ldmibeq	r4!, {}	; <UNPREDICTABLE>
     f94:	00040000 	andeq	r0, r4, r0
     f98:	9f5101f3 	svcls	0x005101f3
	...
     fa8:	01000000 	mrseq	r0, (UNDEF: 0)
     fac:	00010000 	andeq	r0, r1, r0
	...
     fbc:	00000388 	andeq	r0, r0, r8, lsl #7
     fc0:	000003d0 	ldrdeq	r0, [r0], -r0	; <UNPREDICTABLE>
     fc4:	d0520001 	subsle	r0, r2, r1
     fc8:	00000003 	andeq	r0, r0, r3
     fcc:	01000004 	tsteq	r0, r4
     fd0:	04145600 	ldreq	r5, [r4], #-1536	; 0xfffffa00
     fd4:	04240000 	strteq	r0, [r4], #-0
     fd8:	00010000 	andeq	r0, r1, r0
     fdc:	00042456 	andeq	r2, r4, r6, asr r4
     fe0:	00042800 	andeq	r2, r4, r0, lsl #16
     fe4:	76000300 	strvc	r0, [r0], -r0, lsl #6
     fe8:	04a89f7f 	strteq	r9, [r8], #3967	; 0xf7f
     fec:	04ac0000 	strteq	r0, [ip], #0
     ff0:	00010000 	andeq	r0, r1, r0
     ff4:	0004e056 	andeq	lr, r4, r6, asr r0
     ff8:	00050400 	andeq	r0, r5, r0, lsl #8
     ffc:	56000100 	strpl	r0, [r0], -r0, lsl #2
    1000:	0000057c 	andeq	r0, r0, ip, ror r5
    1004:	00000588 	andeq	r0, r0, r8, lsl #11
    1008:	88530001 	ldmdahi	r3, {r0}^
    100c:	d0000005 	andle	r0, r0, r5
    1010:	03000005 	movweq	r0, #5
    1014:	7dcc9100 	stfvcp	f1, [ip]
    1018:	00000800 	andeq	r0, r0, r0, lsl #16
    101c:	0000080f 	andeq	r0, r0, pc, lsl #16
    1020:	0f530001 	svceq	0x00530001
    1024:	88000008 	stmdahi	r0, {r3}
    1028:	03000008 	movweq	r0, #8
    102c:	7dcc9100 	stfvcp	f1, [ip]
    1030:	00000920 	andeq	r0, r0, r0, lsr #18
    1034:	00000928 	andeq	r0, r0, r8, lsr #18
    1038:	48520001 	ldmdami	r2, {r0}^
    103c:	64000009 	strvs	r0, [r0], #-9
    1040:	03000009 	movweq	r0, #9
    1044:	7dcc9100 	stfvcp	f1, [ip]
	...
    1058:	01000000 	mrseq	r0, (UNDEF: 0)
    105c:	01000001 	tsteq	r0, r1
    1060:	00000001 	andeq	r0, r0, r1
    1064:	00020200 	andeq	r0, r2, r0, lsl #4
    1068:	00020200 	andeq	r0, r2, r0, lsl #4
    106c:	00010100 	andeq	r0, r1, r0, lsl #2
    1070:	00020200 	andeq	r0, r2, r0, lsl #4
    1074:	00010100 	andeq	r0, r1, r0, lsl #2
	...
    1080:	00000388 	andeq	r0, r0, r8, lsl #7
    1084:	000003ac 	andeq	r0, r0, ip, lsr #7
    1088:	ac530001 	mrrcge	0, 0, r0, r3, cr1
    108c:	c0000003 	andgt	r0, r0, r3
    1090:	03000003 	movweq	r0, #3
    1094:	04935300 	ldreq	r5, [r3], #768	; 0x300
    1098:	000003d0 	ldrdeq	r0, [r0], -r0	; <UNPREDICTABLE>
    109c:	000003e8 	andeq	r0, r0, r8, ror #7
    10a0:	93580003 	cmpls	r8, #3, 0
    10a4:	0003e804 	andeq	lr, r3, r4, lsl #16
    10a8:	0004ac00 	andeq	sl, r4, r0, lsl #24
    10ac:	58000300 	stmdapl	r0, {r8, r9}
    10b0:	04ac0493 	strteq	r0, [ip], #1171	; 0x493
    10b4:	04b00000 	ldrteq	r0, [r0], #0
    10b8:	00010000 	andeq	r0, r1, r0
    10bc:	0004c053 	andeq	ip, r4, r3, asr r0
    10c0:	0004c000 	andeq	ip, r4, r0
    10c4:	58000300 	stmdapl	r0, {r8, r9}
    10c8:	04c00493 	strbeq	r0, [r0], #1171	; 0x493
    10cc:	04cc0000 	strbeq	r0, [ip], #0
    10d0:	00050000 	andeq	r0, r5, r0
    10d4:	939f0478 	orrsls	r0, pc, #120, 8	; 0x78000000
    10d8:	0004cc04 	andeq	ip, r4, r4, lsl #24
    10dc:	0004e000 	andeq	lr, r4, r0
    10e0:	58000300 	stmdapl	r0, {r8, r9}
    10e4:	04e00493 	strbteq	r0, [r0], #1171	; 0x493
    10e8:	05380000 	ldreq	r0, [r8, #-0]!
    10ec:	00030000 	andeq	r0, r3, r0
    10f0:	38049358 	stmdacc	r4, {r3, r4, r6, r8, r9, ip, pc}
    10f4:	3c000005 	stccc	0, cr0, [r0], {5}
    10f8:	05000005 	streq	r0, [r0, #-5]
    10fc:	9f797800 	svcls	0x00797800
    1100:	05d00493 	ldrbeq	r0, [r0, #1171]	; 0x493
    1104:	05d00000 	ldrbeq	r0, [r0]
    1108:	00030000 	andeq	r0, r3, r0
    110c:	d0049358 	andle	r9, r4, r8, asr r3
    1110:	d4000005 	strle	r0, [r0], #-5
    1114:	05000005 	streq	r0, [r0, #-5]
    1118:	9f047800 	svcls	0x00047800
    111c:	05f40493 	ldrbeq	r0, [r4, #1171]!	; 0x493
    1120:	05f40000 	ldrbeq	r0, [r4, #0]!
    1124:	00030000 	andeq	r0, r3, r0
    1128:	f4049358 	vst2.16	{d9-d12}, [r4 :64], r8
    112c:	fc000005 	stc2	0, cr0, [r0], {5}
    1130:	05000005 	streq	r0, [r0, #-5]
    1134:	9f047800 	svcls	0x00047800
    1138:	05fc0493 	ldrbeq	r0, [ip, #1171]!	; 0x493
    113c:	05fc0000 	ldrbeq	r0, [ip, #0]!
    1140:	00030000 	andeq	r0, r3, r0
    1144:	fc049358 	stc2	3, cr9, [r4], {88}	; 0x58
    1148:	00000005 	andeq	r0, r0, r5
    114c:	05000006 	streq	r0, [r0, #-6]
    1150:	9f047800 	svcls	0x00047800
    1154:	06000493 			; <UNDEFINED> instruction: 0x06000493
    1158:	07000000 	streq	r0, [r0, -r0]
    115c:	00030000 	andeq	r0, r3, r0
    1160:	00049358 	andeq	r9, r4, r8, asr r3
    1164:	0c000007 	stceq	0, cr0, [r0], {7}
    1168:	05000007 	streq	r0, [r0, #-7]
    116c:	9f047800 	svcls	0x00047800
    1170:	070c0493 			; <UNDEFINED> instruction: 0x070c0493
    1174:	07f80000 	ldrbeq	r0, [r8, r0]!
    1178:	00030000 	andeq	r0, r3, r0
    117c:	f8049358 			; <UNDEFINED> instruction: 0xf8049358
    1180:	fc000007 	stc2	0, cr0, [r0], {7}
    1184:	05000007 	streq	r0, [r0, #-7]
    1188:	9f047800 	svcls	0x00047800
    118c:	07fc0493 			; <UNDEFINED> instruction: 0x07fc0493
    1190:	08000000 	stmdaeq	r0, {}	; <UNPREDICTABLE>
    1194:	00030000 	andeq	r0, r3, r0
    1198:	88049358 	stmdahi	r4, {r3, r4, r6, r8, r9, ip, pc}
    119c:	20000008 	andcs	r0, r0, r8
    11a0:	03000009 	movweq	r0, #9
    11a4:	04935800 	ldreq	r5, [r3], #2048	; 0x800
    11a8:	00000920 	andeq	r0, r0, r0, lsr #18
    11ac:	00000928 	andeq	r0, r0, r8, lsr #18
    11b0:	93530003 	cmpls	r3, #3, 0
    11b4:	00096404 	andeq	r6, r9, r4, lsl #8
    11b8:	0009b400 	andeq	fp, r9, r0, lsl #8
    11bc:	58000300 	stmdapl	r0, {r8, r9}
    11c0:	00000493 	muleq	r0, r3, r4
    11c4:	00000000 	andeq	r0, r0, r0
    11c8:	00010000 	andeq	r0, r1, r0
    11cc:	00000000 	andeq	r0, r0, r0
    11d0:	02000000 	andeq	r0, r0, #0, 0
    11d4:	00000002 	andeq	r0, r0, r2
    11d8:	00010101 	andeq	r0, r1, r1, lsl #2
    11dc:	00000000 	andeq	r0, r0, r0
    11e0:	000003ac 	andeq	r0, r0, ip, lsr #7
    11e4:	000003d0 	ldrdeq	r0, [r0], -r0	; <UNPREDICTABLE>
    11e8:	d05b0001 	subsle	r0, fp, r1
    11ec:	d4000003 	strle	r0, [r0], #-3
    11f0:	01000003 	tsteq	r0, r3
    11f4:	03d45400 	bicseq	r5, r4, #0, 8
    11f8:	03d80000 	bicseq	r0, r8, #0, 0
    11fc:	00030000 	andeq	r0, r3, r0
    1200:	d89f7f74 	ldmle	pc, {r2, r4, r5, r6, r8, r9, sl, fp, ip, sp, lr}	; <UNPREDICTABLE>
    1204:	fc000003 	stc2	0, cr0, [r0], {3}
    1208:	01000003 	tsteq	r0, r3
    120c:	04a85400 	strteq	r5, [r8], #1024	; 0x400
    1210:	04ac0000 	strteq	r0, [ip], #0
    1214:	00010000 	andeq	r0, r1, r0
    1218:	0004ac54 	andeq	sl, r4, r4, asr ip
    121c:	0004b400 	andeq	fp, r4, r0, lsl #8
    1220:	74000300 	strvc	r0, [r0], #-768	; 0xfffffd00
    1224:	04b49f01 	ldrteq	r9, [r4], #3841	; 0xf01
    1228:	04c00000 	strbeq	r0, [r0], #0
    122c:	00010000 	andeq	r0, r1, r0
    1230:	0004e454 	andeq	lr, r4, r4, asr r4
    1234:	0004f400 	andeq	pc, r4, r0, lsl #8
    1238:	54000100 	strpl	r0, [r0], #-256	; 0xffffff00
    123c:	000004f4 	strdeq	r0, [r0], -r4
    1240:	000004f8 	strdeq	r0, [r0], -r8
    1244:	01740003 	cmneq	r4, r3
    1248:	0004f89f 	muleq	r4, pc, r8	; <UNPREDICTABLE>
    124c:	00050400 	andeq	r0, r5, r0, lsl #8
    1250:	54000100 	strpl	r0, [r0], #-256	; 0xffffff00
    1254:	00000920 	andeq	r0, r0, r0, lsr #18
    1258:	00000928 	andeq	r0, r0, r8, lsr #18
    125c:	005b0001 	subseq	r0, fp, r1
    1260:	00000000 	andeq	r0, r0, r0
    1264:	01000000 	mrseq	r0, (UNDEF: 0)
    1268:	0003ac00 	andeq	sl, r3, r0, lsl #24
    126c:	0009b400 	andeq	fp, r9, r0, lsl #8
    1270:	57000100 	strpl	r0, [r0, -r0, lsl #2]
	...
    127c:	00000002 	andeq	r0, r0, r2
    1280:	057c0000 	ldrbeq	r0, [ip, #-0]!
    1284:	05d00000 	ldrbeq	r0, [r0]
    1288:	00010000 	andeq	r0, r1, r0
    128c:	0008005b 	andeq	r0, r8, fp, asr r0
    1290:	00088800 	andeq	r8, r8, r0, lsl #16
    1294:	5b000100 	blpl	169c <__code_start__-0x6964>
    1298:	00000948 	andeq	r0, r0, r8, asr #18
    129c:	00000964 	andeq	r0, r0, r4, ror #18
    12a0:	005b0001 	subseq	r0, fp, r1
    12a4:	00000000 	andeq	r0, r0, r0
    12a8:	03000000 	movweq	r0, #0
    12ac:	00000000 	andeq	r0, r0, r0
    12b0:	00057c00 	andeq	r7, r5, r0, lsl #24
    12b4:	0005d000 	andeq	sp, r5, r0
    12b8:	59000100 	stmdbpl	r0, {r8}
    12bc:	00000800 	andeq	r0, r0, r0, lsl #16
    12c0:	00000888 	andeq	r0, r0, r8, lsl #17
    12c4:	48590001 	ldmdami	r9, {r0}^
    12c8:	64000009 	strvs	r0, [r0], #-9
    12cc:	01000009 	tsteq	r0, r9
    12d0:	00005900 	andeq	r5, r0, r0, lsl #18
    12d4:	00000000 	andeq	r0, r0, r0
    12d8:	00040000 	andeq	r0, r4, r0
    12dc:	00000000 	andeq	r0, r0, r0
    12e0:	03ac0000 			; <UNDEFINED> instruction: 0x03ac0000
    12e4:	03d00000 	bicseq	r0, r0, #0, 0
    12e8:	00010000 	andeq	r0, r1, r0
    12ec:	0003d052 	andeq	sp, r3, r2, asr r0
    12f0:	00092000 	andeq	r2, r9, r0
    12f4:	f3000400 	vshl.u8	d0, d0, d0
    12f8:	209f5201 	addscs	r5, pc, r1, lsl #4
    12fc:	28000009 	stmdacs	r0, {r0, r3}
    1300:	01000009 	tsteq	r0, r9
    1304:	09285200 	stmdbeq	r8!, {r9, ip, lr}
    1308:	09b40000 	ldmibeq	r4!, {}	; <UNPREDICTABLE>
    130c:	00040000 	andeq	r0, r4, r0
    1310:	9f5201f3 	svcls	0x005201f3
	...
    131c:	00010100 	andeq	r0, r1, r0, lsl #2
    1320:	00000000 	andeq	r0, r0, r0
    1324:	00000001 	andeq	r0, r0, r1
    1328:	000004e0 	andeq	r0, r0, r0, ror #9
    132c:	000004e0 	andeq	r0, r0, r0, ror #9
    1330:	e0500001 	subs	r0, r0, r1
    1334:	e8000004 	stmda	r0, {r2}
    1338:	01000004 	tsteq	r0, r4
    133c:	05b85500 	ldreq	r5, [r8, #1280]!	; 0x500
    1340:	05d00000 	ldrbeq	r0, [r0]
    1344:	00010000 	andeq	r0, r1, r0
    1348:	0005f055 	andeq	pc, r5, r5, asr r0	; <UNPREDICTABLE>
    134c:	0005f400 	andeq	pc, r5, r0, lsl #8
    1350:	50000100 	andpl	r0, r0, r0, lsl #2
    1354:	000007f4 	strdeq	r0, [r0], -r4
    1358:	000007f8 	strdeq	r0, [r0], -r8
    135c:	50550001 	subspl	r0, r5, r1
    1360:	88000008 	stmdahi	r0, {r3}
    1364:	01000008 	tsteq	r0, r8
    1368:	00005500 	andeq	r5, r0, r0, lsl #10
    136c:	00000000 	andeq	r0, r0, r0
    1370:	00020000 	andeq	r0, r2, r0
    1374:	00000000 	andeq	r0, r0, r0
    1378:	04140000 	ldreq	r0, [r4], #-0
    137c:	04180000 	ldreq	r0, [r8], #-0
    1380:	00020000 	andeq	r0, r2, r0
    1384:	04189f30 	ldreq	r9, [r8], #-3888	; 0xfffff0d0
    1388:	041c0000 	ldreq	r0, [ip], #-0
    138c:	00010000 	andeq	r0, r1, r0
    1390:	00042855 	andeq	r2, r4, r5, asr r8
    1394:	00043c00 	andeq	r3, r4, r0, lsl #24
    1398:	55000100 	strpl	r0, [r0, #-256]	; 0xffffff00
    139c:	00000928 	andeq	r0, r0, r8, lsr #18
    13a0:	00000930 	andeq	r0, r0, r0, lsr r9
    13a4:	00550001 	subseq	r0, r5, r1
    13a8:	00000000 	andeq	r0, r0, r0
    13ac:	01000000 	mrseq	r0, (UNDEF: 0)
	...
    13b8:	04000000 	streq	r0, [r0], #-0
    13bc:	84000005 	strhi	r0, [r0], #-5
    13c0:	01000005 	tsteq	r0, r5
    13c4:	05845600 	streq	r5, [r4, #1536]	; 0x600
    13c8:	05880000 	streq	r0, [r8]
    13cc:	00030000 	andeq	r0, r3, r0
    13d0:	889f7e73 	ldmhi	pc, {r0, r1, r4, r5, r6, r9, sl, fp, ip, sp, lr}	; <UNPREDICTABLE>
    13d4:	d0000005 	andle	r0, r0, r5
    13d8:	07000005 	streq	r0, [r0, -r5]
    13dc:	7dcc9100 	stfvcp	f1, [ip]
    13e0:	9f1c3206 	svcls	0x001c3206
    13e4:	00000800 	andeq	r0, r0, r0, lsl #16
    13e8:	0000081c 	andeq	r0, r0, ip, lsl r8
    13ec:	1c560001 	mrrcne	0, 0, r0, r6, cr1
    13f0:	88000008 	stmdahi	r0, {r3}
    13f4:	07000008 	streq	r0, [r0, -r8]
    13f8:	7dcc9100 	stfvcp	f1, [ip]
    13fc:	9f1c3206 	svcls	0x001c3206
    1400:	00000948 	andeq	r0, r0, r8, asr #18
    1404:	000009b4 			; <UNDEFINED> instruction: 0x000009b4
    1408:	00560001 	subseq	r0, r6, r1
    140c:	00000000 	andeq	r0, r0, r0
    1410:	04000000 	streq	r0, [r0], #-0
    1414:	14040206 	strne	r0, [r4], #-518	; 0xfffffdfa
    1418:	14000004 	strne	r0, [r0], #-4
    141c:	06000004 	streq	r0, [r0], -r4
    1420:	08007200 	stmdaeq	r0, {r9, ip, sp, lr}
    1424:	289f1aff 	ldmcs	pc, {r0, r1, r2, r3, r4, r5, r6, r7, r9, fp, ip}	; <UNPREDICTABLE>
    1428:	28000004 	stmdacs	r0, {r2}
    142c:	06000004 	streq	r0, [r0], -r4
    1430:	08007200 	stmdaeq	r0, {r9, ip, sp, lr}
    1434:	009f1aff 			; <UNDEFINED> instruction: 0x009f1aff
    1438:	00000000 	andeq	r0, r0, r0
    143c:	02000000 	andeq	r0, r0, #0, 0
    1440:	00000000 	andeq	r0, r0, r0
    1444:	0005fc00 	andeq	pc, r5, r0, lsl #24
    1448:	00070000 	andeq	r0, r7, r0
    144c:	08000300 	stmdaeq	r0, {r8, r9}
    1450:	08a89f80 	stmiaeq	r8!, {r7, r8, r9, sl, fp, ip, pc}
    1454:	08bc0000 	ldmeq	ip!, {}	; <UNPREDICTABLE>
    1458:	00030000 	andeq	r0, r3, r0
    145c:	109f8008 	addsne	r8, pc, r8
    1460:	20000009 	andcs	r0, r0, r9
    1464:	03000009 	movweq	r0, #9
    1468:	9f800800 	svcls	0x00800800
	...
    1474:	00000001 	andeq	r0, r0, r1
    1478:	05fc0000 	ldrbeq	r0, [ip, #0]!
    147c:	07000000 	streq	r0, [r0, -r0]
    1480:	00020000 	andeq	r0, r2, r0
    1484:	08a89f30 	stmiaeq	r8!, {r4, r5, r8, r9, sl, fp, ip, pc}
    1488:	08bc0000 	ldmeq	ip!, {}	; <UNPREDICTABLE>
    148c:	00020000 	andeq	r0, r2, r0
    1490:	09109f30 	ldmdbeq	r0, {r4, r5, r8, r9, sl, fp, ip, pc}
    1494:	09200000 	stmdbeq	r0!, {}	; <UNPREDICTABLE>
    1498:	00020000 	andeq	r0, r2, r0
    149c:	00009f30 	andeq	r9, r0, r0, lsr pc
    14a0:	00000000 	andeq	r0, r0, r0
    14a4:	00010000 	andeq	r0, r1, r0
    14a8:	00000000 	andeq	r0, r0, r0
    14ac:	000005fc 	strdeq	r0, [r0], -ip
    14b0:	000006e0 	andeq	r0, r0, r0, ror #13
    14b4:	a8550001 	ldmdage	r5, {r0}^
    14b8:	bc000008 	stclt	0, cr0, [r0], {8}
    14bc:	01000008 	tsteq	r0, r8
    14c0:	09105500 	ldmdbeq	r0, {r8, sl, ip, lr}
    14c4:	09200000 	stmdbeq	r0!, {}	; <UNPREDICTABLE>
    14c8:	00010000 	andeq	r0, r1, r0
    14cc:	00000055 	andeq	r0, r0, r5, asr r0
    14d0:	00000000 	andeq	r0, r0, r0
    14d4:	00000100 	andeq	r0, r0, r0, lsl #2
    14d8:	00000000 	andeq	r0, r0, r0
    14dc:	0005fc00 	andeq	pc, r5, r0, lsl #24
    14e0:	0006e000 	andeq	lr, r6, r0
    14e4:	91000400 	tstls	r0, r0, lsl #8
    14e8:	e09f7dd0 			; <UNDEFINED> instruction: 0xe09f7dd0
    14ec:	00000006 	andeq	r0, r0, r6
    14f0:	01000007 	tsteq	r0, r7
    14f4:	08a85500 	stmiaeq	r8!, {r8, sl, ip, lr}
    14f8:	08bc0000 	ldmeq	ip!, {}	; <UNPREDICTABLE>
    14fc:	00040000 	andeq	r0, r4, r0
    1500:	9f7dd091 	svcls	0x007dd091
    1504:	00000910 	andeq	r0, r0, r0, lsl r9
    1508:	00000920 	andeq	r0, r0, r0, lsr #18
    150c:	d0910004 	addsle	r0, r1, r4
    1510:	00009f7d 	andeq	r9, r0, sp, ror pc
    1514:	00000000 	andeq	r0, r0, r0
    1518:	00010000 	andeq	r0, r1, r0
    151c:	00000000 	andeq	r0, r0, r0
    1520:	000005fc 	strdeq	r0, [r0], -ip
    1524:	00000700 	andeq	r0, r0, r0, lsl #14
    1528:	9f380002 	svcls	0x00380002
    152c:	000008a8 	andeq	r0, r0, r8, lsr #17
    1530:	000008bc 			; <UNDEFINED> instruction: 0x000008bc
    1534:	9f380002 	svcls	0x00380002
    1538:	00000910 	andeq	r0, r0, r0, lsl r9
    153c:	00000920 	andeq	r0, r0, r0, lsr #18
    1540:	9f380002 	svcls	0x00380002
	...
    154c:	00070704 	andeq	r0, r7, r4, lsl #14
	...
    1558:	05fc0000 	ldrbeq	r0, [ip, #0]!
    155c:	05fc0000 	ldrbeq	r0, [ip, #0]!
    1560:	00040000 	andeq	r0, r4, r0
    1564:	9f7ed091 	svcls	0x007ed091
    1568:	000005fc 	strdeq	r0, [r0], -ip
    156c:	00000678 	andeq	r0, r0, r8, ror r6
    1570:	d1910004 	orrsle	r0, r1, r4
    1574:	06789f7e 	uhsub16eq	r9, r8, lr
    1578:	06d40000 	ldrbeq	r0, [r4], r0
    157c:	00010000 	andeq	r0, r1, r0
    1580:	0006d45c 	andeq	sp, r6, ip, asr r4
    1584:	00070000 	andeq	r0, r7, r0
    1588:	91000400 	tstls	r0, r0, lsl #8
    158c:	a89f7ed1 	ldmge	pc, {r0, r4, r6, r7, r9, sl, fp, ip, sp, lr}	; <UNPREDICTABLE>
    1590:	bc000008 	stclt	0, cr0, [r0], {8}
    1594:	04000008 	streq	r0, [r0], #-8
    1598:	7ed19100 	atnvcs	f1, f0
    159c:	0009109f 	muleq	r9, pc, r0	; <UNPREDICTABLE>
    15a0:	00091400 	andeq	r1, r9, r0, lsl #8
    15a4:	91000400 	tstls	r0, r0, lsl #8
    15a8:	149f7ed1 	ldrne	r7, [pc], #3793	; 15b0 <__code_start__-0x6a50>
    15ac:	20000009 	andcs	r0, r0, r9
    15b0:	01000009 	tsteq	r0, r9
    15b4:	00005c00 	andeq	r5, r0, r0, lsl #24
    15b8:	00000000 	andeq	r0, r0, r0
    15bc:	01040000 	mrseq	r0, (UNDEF: 4)
    15c0:	00000100 	andeq	r0, r0, r0, lsl #2
    15c4:	00000608 	andeq	r0, r0, r8, lsl #12
    15c8:	000006d0 	ldrdeq	r0, [r0], -r0	; <UNPREDICTABLE>
    15cc:	a8550001 	ldmdage	r5, {r0}^
    15d0:	b8000008 	stmdalt	r0, {r3}
    15d4:	01000008 	tsteq	r0, r8
    15d8:	09105500 	ldmdbeq	r0, {r8, sl, ip, lr}
    15dc:	09200000 	stmdbeq	r0!, {}	; <UNPREDICTABLE>
    15e0:	00010000 	andeq	r0, r1, r0
    15e4:	00000055 	andeq	r0, r0, r5, asr r0
    15e8:	00000000 	andeq	r0, r0, r0
    15ec:	00000400 	andeq	r0, r0, r0, lsl #8
    15f0:	00010000 	andeq	r0, r1, r0
    15f4:	00010000 	andeq	r0, r1, r0
    15f8:	00060800 	andeq	r0, r6, r0, lsl #16
    15fc:	0006b000 	andeq	fp, r6, r0
    1600:	91000400 	tstls	r0, r0, lsl #8
    1604:	b09f7ed0 			; <UNDEFINED> instruction: 0xb09f7ed0
    1608:	c8000006 	stmdagt	r0, {r1, r2}
    160c:	01000006 	tsteq	r0, r6
    1610:	06c85000 	strbeq	r5, [r8], r0
    1614:	06d00000 	ldrbeq	r0, [r0], r0
    1618:	00040000 	andeq	r0, r4, r0
    161c:	9f7ed091 	svcls	0x007ed091
    1620:	000008a8 	andeq	r0, r0, r8, lsr #17
    1624:	000008b0 			; <UNDEFINED> instruction: 0x000008b0
    1628:	d0910004 	addsle	r0, r1, r4
    162c:	08b09f7e 	ldmeq	r0!, {r1, r2, r3, r4, r5, r6, r8, r9, sl, fp, ip, pc}
    1630:	08b80000 	ldmeq	r8!, {}	; <UNPREDICTABLE>
    1634:	00010000 	andeq	r0, r1, r0
    1638:	00091053 	andeq	r1, r9, r3, asr r0
    163c:	00092000 	andeq	r2, r9, r0
    1640:	91000400 	tstls	r0, r0, lsl #8
    1644:	009f7ed0 			; <UNDEFINED> instruction: 0x009f7ed0
    1648:	00000000 	andeq	r0, r0, r0
    164c:	04000000 	streq	r0, [r0], #-0
    1650:	01010000 	mrseq	r0, (UNDEF: 1)
    1654:	03030101 	movweq	r0, #12545	; 0x3101
    1658:	00010002 	andeq	r0, r1, r2
    165c:	08000000 	stmdaeq	r0, {}	; <UNPREDICTABLE>
    1660:	24000006 	strcs	r0, [r0], #-6
    1664:	04000006 	streq	r0, [r0], #-6
    1668:	7ed19100 	atnvcs	f1, f0
    166c:	0006849f 	muleq	r6, pc, r4	; <UNPREDICTABLE>
    1670:	00068400 	andeq	r8, r6, r0, lsl #8
    1674:	50000100 	andpl	r0, r0, r0, lsl #2
    1678:	00000684 	andeq	r0, r0, r4, lsl #13
    167c:	00000698 	muleq	r0, r8, r6
    1680:	01700003 	cmneq	r0, r3
    1684:	0006989f 	muleq	r6, pc, r8	; <UNPREDICTABLE>
    1688:	0006a400 	andeq	sl, r6, r0, lsl #8
    168c:	70000300 	andvc	r0, r0, r0, lsl #6
    1690:	06a49f02 	strteq	r9, [r4], r2, lsl #30
    1694:	06a80000 	strteq	r0, [r8], r0
    1698:	00030000 	andeq	r0, r3, r0
    169c:	a89f0370 	ldmge	pc, {r4, r5, r6, r8, r9}	; <UNPREDICTABLE>
    16a0:	b8000008 	stmdalt	r0, {r3}
    16a4:	04000008 	streq	r0, [r0], #-8
    16a8:	7ed19100 	atnvcs	f1, f0
    16ac:	0009109f 	muleq	r9, pc, r0	; <UNPREDICTABLE>
    16b0:	00091400 	andeq	r1, r9, r0, lsl #8
    16b4:	91000400 	tstls	r0, r0, lsl #8
    16b8:	149f7ed1 	ldrne	r7, [pc], #3793	; 16c0 <__code_start__-0x6940>
    16bc:	20000009 	andcs	r0, r0, r9
    16c0:	01000009 	tsteq	r0, r9
    16c4:	00005c00 	andeq	r5, r0, r0, lsl #24
    16c8:	00000000 	andeq	r0, r0, r0
    16cc:	00060000 	andeq	r0, r6, r0
    16d0:	01010100 	mrseq	r0, (UNDEF: 17)
    16d4:	02010101 	andeq	r0, r1, #1073741824	; 0x40000000
    16d8:	00000100 	andeq	r0, r0, r0, lsl #2
    16dc:	00000608 	andeq	r0, r0, r8, lsl #12
    16e0:	00000624 	andeq	r0, r0, r4, lsr #12
    16e4:	9f310002 	svcls	0x00310002
    16e8:	00000684 	andeq	r0, r0, r4, lsl #13
    16ec:	00000694 	muleq	r0, r4, r6
    16f0:	94520001 	ldrbls	r0, [r2], #-1
    16f4:	a4000006 	strge	r0, [r0], #-6
    16f8:	01000006 	tsteq	r0, r6
    16fc:	06a45900 	strteq	r5, [r4], r0, lsl #18
    1700:	06a80000 	strteq	r0, [r8], r0
    1704:	00010000 	andeq	r0, r1, r0
    1708:	0006a852 	andeq	sl, r6, r2, asr r8
    170c:	0006a800 	andeq	sl, r6, r0, lsl #16
    1710:	72000300 	andvc	r0, r0, #0, 6
    1714:	08a89f01 	stmiaeq	r8!, {r0, r8, r9, sl, fp, ip, pc}
    1718:	08b80000 	ldmeq	r8!, {}	; <UNPREDICTABLE>
    171c:	00020000 	andeq	r0, r2, r0
    1720:	09109f31 	ldmdbeq	r0, {r0, r4, r5, r8, r9, sl, fp, ip, pc}
    1724:	09200000 	stmdbeq	r0!, {}	; <UNPREDICTABLE>
    1728:	00020000 	andeq	r0, r2, r0
    172c:	00009f31 	andeq	r9, r0, r1, lsr pc
    1730:	00000000 	andeq	r0, r0, r0
    1734:	06010000 	streq	r0, [r1], -r0
    1738:	00010006 	andeq	r0, r1, r6
    173c:	000006d0 	ldrdeq	r0, [r0], -r0	; <UNPREDICTABLE>
    1740:	000006d0 	ldrdeq	r0, [r0], -r0	; <UNPREDICTABLE>
    1744:	d0910004 	addsle	r0, r1, r4
    1748:	06d09f7e 			; <UNDEFINED> instruction: 0x06d09f7e
    174c:	07000000 	streq	r0, [r0, -r0]
    1750:	00010000 	andeq	r0, r1, r0
    1754:	0008b850 	andeq	fp, r8, r0, asr r8
    1758:	0008bc00 	andeq	fp, r8, r0, lsl #24
    175c:	53000100 	movwpl	r0, #256	; 0x100
	...
    1768:	00000801 	andeq	r0, r0, r1, lsl #16
    176c:	00010100 	andeq	r0, r1, r0, lsl #2
    1770:	06d00701 	ldrbeq	r0, [r0], r1, lsl #14
    1774:	06d00000 	ldrbeq	r0, [r0], r0
    1778:	00060000 	andeq	r0, r6, r0
    177c:	0071007c 	rsbseq	r0, r1, ip, ror r0
    1780:	06e49f22 	strbteq	r9, [r4], r2, lsr #30
    1784:	06e80000 	strbteq	r0, [r8], r0
    1788:	00030000 	andeq	r0, r3, r0
    178c:	e89f7f73 	ldm	pc, {r0, r1, r4, r5, r6, r8, r9, sl, fp, ip, sp, lr}	; <UNPREDICTABLE>
    1790:	f0000006 			; <UNDEFINED> instruction: 0xf0000006
    1794:	01000006 	tsteq	r0, r6
    1798:	06f05300 	ldrbteq	r5, [r0], r0, lsl #6
    179c:	06f80000 	ldrbteq	r0, [r8], r0
    17a0:	00030000 	andeq	r0, r3, r0
    17a4:	b89f7f73 	ldmlt	pc, {r0, r1, r4, r5, r6, r8, r9, sl, fp, ip, sp, lr}	; <UNPREDICTABLE>
    17a8:	b8000008 	stmdalt	r0, {r3}
    17ac:	04000008 	streq	r0, [r0], #-8
    17b0:	7ed19100 	atnvcs	f1, f0
    17b4:	0000009f 	muleq	r0, pc, r0	; <UNPREDICTABLE>
    17b8:	00000000 	andeq	r0, r0, r0
    17bc:	01000100 	mrseq	r0, (UNDEF: 16)
    17c0:	0006d000 	andeq	sp, r6, r0
    17c4:	00070000 	andeq	r0, r7, r0
    17c8:	08000300 	stmdaeq	r0, {r8, r9}
    17cc:	08b89f80 	ldmeq	r8!, {r7, r8, r9, sl, fp, ip, pc}
    17d0:	08bc0000 	ldmeq	ip!, {}	; <UNPREDICTABLE>
    17d4:	00030000 	andeq	r0, r3, r0
    17d8:	009f8008 	addseq	r8, pc, r8
    17dc:	00000000 	andeq	r0, r0, r0
    17e0:	01000000 	mrseq	r0, (UNDEF: 0)
    17e4:	00000000 	andeq	r0, r0, r0
    17e8:	00000101 	andeq	r0, r0, r1, lsl #2
    17ec:	01010200 	mrseq	r0, R9_usr
    17f0:	0006d000 	andeq	sp, r6, r0
    17f4:	0006e000 	andeq	lr, r6, r0
    17f8:	91000400 	tstls	r0, r0, lsl #8
    17fc:	e09f7dd0 			; <UNDEFINED> instruction: 0xe09f7dd0
    1800:	e4000006 	str	r0, [r0], #-6
    1804:	01000006 	tsteq	r0, r6
    1808:	06e45500 	strbteq	r5, [r4], r0, lsl #10
    180c:	06e40000 	strbteq	r0, [r4], r0
    1810:	00030000 	andeq	r0, r3, r0
    1814:	e49f0172 	ldr	r0, [pc], #370	; 181c <__code_start__-0x67e4>
    1818:	f0000006 			; <UNDEFINED> instruction: 0xf0000006
    181c:	03000006 	movweq	r0, #6
    1820:	9f027200 	svcls	0x00027200
    1824:	000006f0 	strdeq	r0, [r0], -r0	; <UNPREDICTABLE>
    1828:	00000700 	andeq	r0, r0, r0, lsl #14
    182c:	01720003 	cmneq	r2, r3
    1830:	0007ec9f 	muleq	r7, pc, ip	; <UNPREDICTABLE>
    1834:	0007f400 	andeq	pc, r7, r0, lsl #8
    1838:	73000300 	movwvc	r0, #768	; 0x300
    183c:	08b89f01 	ldmeq	r8!, {r0, r8, r9, sl, fp, ip, pc}
    1840:	08bc0000 	ldmeq	ip!, {}	; <UNPREDICTABLE>
    1844:	00040000 	andeq	r0, r4, r0
    1848:	9f7dd091 	svcls	0x007dd091
	...
    1854:	08b80004 	ldmeq	r8!, {r2}
    1858:	08bc0000 	ldmeq	ip!, {}	; <UNPREDICTABLE>
    185c:	00020000 	andeq	r0, r2, r0
    1860:	00009f32 	andeq	r9, r0, r2, lsr pc
    1864:	00000000 	andeq	r0, r0, r0
    1868:	00070000 	andeq	r0, r7, r0
    186c:	00060000 	andeq	r0, r6, r0
    1870:	000006d0 	ldrdeq	r0, [r0], -r0	; <UNPREDICTABLE>
    1874:	000006e0 	andeq	r0, r0, r0, ror #13
    1878:	d0910004 	addsle	r0, r1, r4
    187c:	06e09f7d 			; <UNDEFINED> instruction: 0x06e09f7d
    1880:	07000000 	streq	r0, [r0, -r0]
    1884:	00010000 	andeq	r0, r1, r0
    1888:	0008b855 	andeq	fp, r8, r5, asr r8
    188c:	0008bc00 	andeq	fp, r8, r0, lsl #24
    1890:	91000400 	tstls	r0, r0, lsl #8
    1894:	009f7dd0 			; <UNDEFINED> instruction: 0x009f7dd0
    1898:	00000000 	andeq	r0, r0, r0
    189c:	01000000 	mrseq	r0, (UNDEF: 0)
    18a0:	0c000000 	stceq	0, cr0, [r0], {-0}
    18a4:	ec000007 	stc	0, cr0, [r0], {7}
    18a8:	03000007 	movweq	r0, #7
    18ac:	9f800800 	svcls	0x00800800
    18b0:	00000894 	muleq	r0, r4, r8
    18b4:	000008a8 	andeq	r0, r0, r8, lsr #17
    18b8:	80080003 	andhi	r0, r8, r3
    18bc:	0000009f 	muleq	r0, pc, r0	; <UNPREDICTABLE>
	...
    18c8:	00070c00 	andeq	r0, r7, r0, lsl #24
    18cc:	0007ec00 	andeq	lr, r7, r0, lsl #24
    18d0:	30000200 	andcc	r0, r0, r0, lsl #4
    18d4:	0008949f 	muleq	r8, pc, r4	; <UNPREDICTABLE>
    18d8:	0008a800 	andeq	sl, r8, r0, lsl #16
    18dc:	30000200 	andcc	r0, r0, r0, lsl #4
    18e0:	0000009f 	muleq	r0, pc, r0	; <UNPREDICTABLE>
	...
    18ec:	00070c00 	andeq	r0, r7, r0, lsl #24
    18f0:	0007d000 	andeq	sp, r7, r0
    18f4:	55000100 	strpl	r0, [r0, #-256]	; 0xffffff00
    18f8:	00000894 	muleq	r0, r4, r8
    18fc:	000008a8 	andeq	r0, r0, r8, lsr #17
    1900:	00550001 	subseq	r0, r5, r1
	...
    1910:	00070c00 	andeq	r0, r7, r0, lsl #24
    1914:	0007d000 	andeq	sp, r7, r0
    1918:	91000400 	tstls	r0, r0, lsl #8
    191c:	d09f7dd0 			; <UNDEFINED> instruction: 0xd09f7dd0
    1920:	ec000007 	stc	0, cr0, [r0], {7}
    1924:	01000007 	tsteq	r0, r7
    1928:	08945500 	ldmeq	r4, {r8, sl, ip, lr}
    192c:	08a80000 	stmiaeq	r8!, {}	; <UNPREDICTABLE>
    1930:	00040000 	andeq	r0, r4, r0
    1934:	9f7dd091 	svcls	0x007dd091
	...
    1944:	0000070c 	andeq	r0, r0, ip, lsl #14
    1948:	000007ec 	andeq	r0, r0, ip, ror #15
    194c:	9f320002 	svcls	0x00320002
    1950:	00000894 	muleq	r0, r4, r8
    1954:	000008a8 	andeq	r0, r0, r8, lsr #17
    1958:	9f320002 	svcls	0x00320002
	...
    1964:	00050503 	andeq	r0, r5, r3, lsl #10
    1968:	00000000 	andeq	r0, r0, r0
    196c:	070c0000 	streq	r0, [ip, -r0]
    1970:	070c0000 	streq	r0, [ip, -r0]
    1974:	00010000 	andeq	r0, r1, r0
    1978:	00070c51 	andeq	r0, r7, r1, asr ip
    197c:	00071c00 	andeq	r1, r7, r0, lsl #24
    1980:	53000100 	movwpl	r0, #256	; 0x100
    1984:	0000071c 	andeq	r0, r0, ip, lsl r7
    1988:	00000724 	andeq	r0, r0, r4, lsr #14
    198c:	01720003 	cmneq	r2, r3
    1990:	0007249f 	muleq	r7, pc, r4	; <UNPREDICTABLE>
    1994:	0007cc00 	andeq	ip, r7, r0, lsl #24
    1998:	53000100 	movwpl	r0, #256	; 0x100
    199c:	00000894 	muleq	r0, r4, r8
    19a0:	000008a8 	andeq	r0, r0, r8, lsr #17
    19a4:	00530001 	subseq	r0, r3, r1
    19a8:	00000000 	andeq	r0, r0, r0
    19ac:	05000000 	streq	r0, [r0, #-0]
    19b0:	0c000100 	stfeqs	f0, [r0], {-0}
    19b4:	20000007 	andcs	r0, r0, r7
    19b8:	01000007 	tsteq	r0, r7
    19bc:	07245000 	streq	r5, [r4, -r0]!
    19c0:	072c0000 	streq	r0, [ip, -r0]!
    19c4:	00010000 	andeq	r0, r1, r0
    19c8:	00000050 	andeq	r0, r0, r0, asr r0
    19cc:	00000000 	andeq	r0, r0, r0
    19d0:	00010300 	andeq	r0, r1, r0, lsl #6
    19d4:	00072801 	andeq	r2, r7, r1, lsl #16
    19d8:	0007b000 	andeq	fp, r7, r0
    19dc:	55000100 	strpl	r0, [r0, #-256]	; 0xffffff00
    19e0:	00000894 	muleq	r0, r4, r8
    19e4:	000008a0 	andeq	r0, r0, r0, lsr #17
    19e8:	00550001 	subseq	r0, r5, r1
    19ec:	00000000 	andeq	r0, r0, r0
    19f0:	03000000 	movweq	r0, #0
    19f4:	28010001 	stmdacs	r1, {r0}
    19f8:	b0000007 	andlt	r0, r0, r7
    19fc:	01000007 	tsteq	r0, r7
    1a00:	08945100 	ldmeq	r4, {r8, ip, lr}
    1a04:	08a00000 	stmiaeq	r0!, {}	; <UNPREDICTABLE>
    1a08:	00010000 	andeq	r0, r1, r0
    1a0c:	00000051 	andeq	r0, r0, r1, asr r0
    1a10:	00000000 	andeq	r0, r0, r0
    1a14:	00000300 	andeq	r0, r0, r0, lsl #6
    1a18:	01010101 	tsteq	r1, r1, lsl #2
    1a1c:	00020303 	andeq	r0, r2, r3, lsl #6
    1a20:	00072801 	andeq	r2, r7, r1, lsl #16
    1a24:	00075000 	andeq	r5, r7, r0
    1a28:	53000100 	movwpl	r0, #256	; 0x100
    1a2c:	00000774 	andeq	r0, r0, r4, ror r7
    1a30:	00000774 	andeq	r0, r0, r4, ror r7
    1a34:	745e0001 	ldrbvc	r0, [lr], #-1
    1a38:	88000007 	stmdahi	r0, {r0, r1, r2}
    1a3c:	03000007 	movweq	r0, #7
    1a40:	9f017e00 	svcls	0x00017e00
    1a44:	00000788 	andeq	r0, r0, r8, lsl #15
    1a48:	00000794 	muleq	r0, r4, r7
    1a4c:	027e0003 	rsbseq	r0, lr, #3, 0
    1a50:	0007949f 	muleq	r7, pc, r4	; <UNPREDICTABLE>
    1a54:	00079800 	andeq	r9, r7, r0, lsl #16
    1a58:	7e000300 	cdpvc	3, 0, cr0, cr0, cr0, {0}
    1a5c:	08949f03 	ldmeq	r4, {r0, r1, r8, r9, sl, fp, ip, pc}
    1a60:	08a00000 	stmiaeq	r0!, {}	; <UNPREDICTABLE>
    1a64:	00010000 	andeq	r0, r1, r0
    1a68:	00000053 	andeq	r0, r0, r3, asr r0
	...
    1a74:	01010101 	tsteq	r1, r1, lsl #2
    1a78:	00020101 	andeq	r0, r2, r1, lsl #2
    1a7c:	00072c01 	andeq	r2, r7, r1, lsl #24
    1a80:	00075000 	andeq	r5, r7, r0
    1a84:	50000100 	andpl	r0, r0, r0, lsl #2
    1a88:	00000774 	andeq	r0, r0, r4, ror r7
    1a8c:	00000784 	andeq	r0, r0, r4, lsl #15
    1a90:	84500001 	ldrbhi	r0, [r0], #-1
    1a94:	94000007 	strls	r0, [r0], #-7
    1a98:	01000007 	tsteq	r0, r7
    1a9c:	07945b00 	ldreq	r5, [r4, r0, lsl #22]
    1aa0:	07980000 	ldreq	r0, [r8, r0]
    1aa4:	00010000 	andeq	r0, r1, r0
    1aa8:	00079850 	andeq	r9, r7, r0, asr r8
    1aac:	00079800 	andeq	r9, r7, r0, lsl #16
    1ab0:	70000300 	andvc	r0, r0, r0, lsl #6
    1ab4:	08949f01 	ldmeq	r4, {r0, r8, r9, sl, fp, ip, pc}
    1ab8:	08a00000 	stmiaeq	r0!, {}	; <UNPREDICTABLE>
    1abc:	00010000 	andeq	r0, r1, r0
    1ac0:	00000050 	andeq	r0, r0, r0, asr r0
    1ac4:	00000000 	andeq	r0, r0, r0
    1ac8:	01000100 	mrseq	r0, (UNDEF: 16)
    1acc:	0007b000 	andeq	fp, r7, r0
    1ad0:	0007ec00 	andeq	lr, r7, r0, lsl #24
    1ad4:	51000100 	mrspl	r0, (UNDEF: 16)
    1ad8:	000008a0 	andeq	r0, r0, r0, lsr #17
    1adc:	000008a8 	andeq	r0, r0, r8, lsr #17
    1ae0:	00510001 	subseq	r0, r1, r1
    1ae4:	00000000 	andeq	r0, r0, r0
    1ae8:	01000000 	mrseq	r0, (UNDEF: 0)
    1aec:	00000000 	andeq	r0, r0, r0
    1af0:	01000101 	tsteq	r0, r1, lsl #2
    1af4:	0007b000 	andeq	fp, r7, r0
    1af8:	0007b400 	andeq	fp, r7, r0, lsl #8
    1afc:	73000600 	movwvc	r0, #1536	; 0x600
    1b00:	22007c00 	andcs	r7, r0, #0, 24
    1b04:	0007d49f 	muleq	r7, pc, r4	; <UNPREDICTABLE>
    1b08:	0007d800 	andeq	sp, r7, r0, lsl #16
    1b0c:	73000300 	movwvc	r0, #768	; 0x300
    1b10:	07d89f7f 			; <UNDEFINED> instruction: 0x07d89f7f
    1b14:	07e00000 	strbeq	r0, [r0, r0]!
    1b18:	00010000 	andeq	r0, r1, r0
    1b1c:	0007e053 	andeq	lr, r7, r3, asr r0
    1b20:	0007e800 	andeq	lr, r7, r0, lsl #16
    1b24:	73000300 	movwvc	r0, #768	; 0x300
    1b28:	08a09f7f 	stmiaeq	r0!, {r0, r1, r2, r3, r4, r5, r6, r8, r9, sl, fp, ip, pc}
    1b2c:	08a80000 	stmiaeq	r8!, {}	; <UNPREDICTABLE>
    1b30:	00010000 	andeq	r0, r1, r0
    1b34:	00000053 	andeq	r0, r0, r3, asr r0
    1b38:	00000000 	andeq	r0, r0, r0
    1b3c:	01000100 	mrseq	r0, (UNDEF: 16)
    1b40:	0007b000 	andeq	fp, r7, r0
    1b44:	0007ec00 	andeq	lr, r7, r0, lsl #24
    1b48:	08000300 	stmdaeq	r0, {r8, r9}
    1b4c:	08a09f80 	stmiaeq	r0!, {r7, r8, r9, sl, fp, ip, pc}
    1b50:	08a80000 	stmiaeq	r8!, {}	; <UNPREDICTABLE>
    1b54:	00030000 	andeq	r0, r3, r0
    1b58:	009f8008 	addseq	r8, pc, r8
    1b5c:	00000000 	andeq	r0, r0, r0
    1b60:	01000000 	mrseq	r0, (UNDEF: 0)
    1b64:	00000000 	andeq	r0, r0, r0
    1b68:	00000101 	andeq	r0, r0, r1, lsl #2
    1b6c:	b0000100 	andlt	r0, r0, r0, lsl #2
    1b70:	d0000007 	andle	r0, r0, r7
    1b74:	04000007 	streq	r0, [r0], #-7
    1b78:	7dd09100 	ldfvcp	f1, [r0]
    1b7c:	0007d09f 	muleq	r7, pc, r0	; <UNPREDICTABLE>
    1b80:	0007d400 	andeq	sp, r7, r0, lsl #8
    1b84:	55000100 	strpl	r0, [r0, #-256]	; 0xffffff00
    1b88:	000007d4 	ldrdeq	r0, [r0], -r4
    1b8c:	000007d4 	ldrdeq	r0, [r0], -r4
    1b90:	017c0003 	cmneq	ip, r3
    1b94:	0007d49f 	muleq	r7, pc, r4	; <UNPREDICTABLE>
    1b98:	0007e000 	andeq	lr, r7, r0
    1b9c:	7c000300 	stcvc	3, cr0, [r0], {-0}
    1ba0:	07e09f02 	strbeq	r9, [r0, r2, lsl #30]!
    1ba4:	07ec0000 	strbeq	r0, [ip, r0]!
    1ba8:	00030000 	andeq	r0, r3, r0
    1bac:	a09f017c 	addsge	r0, pc, ip, ror r1	; <UNPREDICTABLE>
    1bb0:	a8000008 	stmdage	r0, {r3}
    1bb4:	04000008 	streq	r0, [r0], #-8
    1bb8:	7dd09100 	ldfvcp	f1, [r0]
    1bbc:	0000009f 	muleq	r0, pc, r0	; <UNPREDICTABLE>
    1bc0:	00000000 	andeq	r0, r0, r0
    1bc4:	04000400 	streq	r0, [r0], #-1024	; 0xfffffc00
    1bc8:	0007b000 	andeq	fp, r7, r0
    1bcc:	0007b400 	andeq	fp, r7, r0, lsl #8
    1bd0:	70000300 	andvc	r0, r0, r0, lsl #6
    1bd4:	08a09f01 	stmiaeq	r0!, {r0, r8, r9, sl, fp, ip, pc}
    1bd8:	08a80000 	stmiaeq	r8!, {}	; <UNPREDICTABLE>
    1bdc:	00030000 	andeq	r0, r3, r0
    1be0:	009f0170 	addseq	r0, pc, r0, ror r1	; <UNPREDICTABLE>
    1be4:	00000000 	andeq	r0, r0, r0
    1be8:	01000000 	mrseq	r0, (UNDEF: 0)
    1bec:	bc000000 	stclt	0, cr0, [r0], {-0}
    1bf0:	d0000007 	andle	r0, r0, r7
    1bf4:	04000007 	streq	r0, [r0], #-7
    1bf8:	7dd09100 	ldfvcp	f1, [r0]
    1bfc:	0007d09f 	muleq	r7, pc, r0	; <UNPREDICTABLE>
    1c00:	0007ec00 	andeq	lr, r7, r0, lsl #24
    1c04:	55000100 	strpl	r0, [r0, #-256]	; 0xffffff00
	...
    1c14:	00000328 	andeq	r0, r0, r8, lsr #6
    1c18:	00000364 	andeq	r0, r0, r4, ror #6
    1c1c:	64500001 	ldrbvs	r0, [r0], #-1
    1c20:	88000003 	stmdahi	r0, {r0, r1}
    1c24:	04000003 	streq	r0, [r0], #-3
    1c28:	5001f300 	andpl	pc, r1, r0, lsl #6
    1c2c:	0000009f 	muleq	r0, pc, r0	; <UNPREDICTABLE>
	...
    1c38:	00032800 	andeq	r2, r3, r0, lsl #16
    1c3c:	00035c00 	andeq	r5, r3, r0, lsl #24
    1c40:	51000100 	mrspl	r0, (UNDEF: 16)
    1c44:	0000035c 	andeq	r0, r0, ip, asr r3
    1c48:	00000388 	andeq	r0, r0, r8, lsl #7
    1c4c:	01f30004 	mvnseq	r0, r4
    1c50:	00009f51 	andeq	r9, r0, r1, asr pc
	...
    1c74:	00140000 	andseq	r0, r4, r0
    1c78:	00010000 	andeq	r0, r1, r0
    1c7c:	00001450 	andeq	r1, r0, r0, asr r4
    1c80:	00002000 	andeq	r2, r0, r0
    1c84:	5c000100 	stfpls	f0, [r0], {-0}
    1c88:	00000020 	andeq	r0, r0, r0, lsr #32
    1c8c:	00000068 	andeq	r0, r0, r8, rrx
    1c90:	02710003 	rsbseq	r0, r1, #3, 0
    1c94:	0000689f 	muleq	r0, pc, r8	; <UNPREDICTABLE>
    1c98:	00006c00 	andeq	r6, r0, r0, lsl #24
    1c9c:	73000300 	movwvc	r0, #768	; 0x300
    1ca0:	006c9f02 	rsbeq	r9, ip, r2, lsl #30
    1ca4:	01940000 	orrseq	r0, r4, r0
    1ca8:	00040000 	andeq	r0, r4, r0
    1cac:	9f5001f3 	svcls	0x005001f3
    1cb0:	00000194 	muleq	r0, r4, r1
    1cb4:	00000198 	muleq	r0, r8, r1
    1cb8:	02730003 	rsbseq	r0, r3, #3, 0
    1cbc:	0001989f 	muleq	r1, pc, r8	; <UNPREDICTABLE>
    1cc0:	0001c000 	andeq	ip, r1, r0
    1cc4:	f3000400 	vshl.u8	d0, d0, d0
    1cc8:	c09f5001 	addsgt	r5, pc, r1
    1ccc:	c8000001 	stmdagt	r0, {r0}
    1cd0:	01000001 	tsteq	r0, r1
    1cd4:	01c85c00 	biceq	r5, r8, r0, lsl #24
    1cd8:	02140000 	andseq	r0, r4, #0, 0
    1cdc:	00030000 	andeq	r0, r3, r0
    1ce0:	149f0273 	ldrne	r0, [pc], #627	; 1ce8 <__code_start__-0x6318>
    1ce4:	ec000002 	stc	0, cr0, [r0], {2}
    1ce8:	04000002 	streq	r0, [r0], #-2
    1cec:	5001f300 	andpl	pc, r1, r0, lsl #6
    1cf0:	0002ec9f 	muleq	r2, pc, ip	; <UNPREDICTABLE>
    1cf4:	0002f400 	andeq	pc, r2, r0, lsl #8
    1cf8:	73000300 	movwvc	r0, #768	; 0x300
    1cfc:	02f49f02 	rscseq	r9, r4, #2, 30
    1d00:	03280000 			; <UNDEFINED> instruction: 0x03280000
    1d04:	00040000 	andeq	r0, r4, r0
    1d08:	9f5001f3 	svcls	0x005001f3
	...
    1d20:	0000001c 	andeq	r0, r0, ip, lsl r0
    1d24:	1c510001 	mrrcne	0, 0, r0, r1, cr1
    1d28:	e0000000 	and	r0, r0, r0
    1d2c:	01000002 	tsteq	r0, r2
    1d30:	02e05000 	rsceq	r5, r0, #0, 0
    1d34:	02ec0000 	rsceq	r0, ip, #0, 0
    1d38:	00040000 	andeq	r0, r4, r0
    1d3c:	9f5101f3 	svcls	0x005101f3
    1d40:	000002ec 	andeq	r0, r0, ip, ror #5
    1d44:	00000328 	andeq	r0, r0, r8, lsr #6
    1d48:	00500001 	subseq	r0, r0, r1
	...
    1d58:	00000001 	andeq	r0, r0, r1
    1d5c:	00000000 	andeq	r0, r0, r0
    1d60:	00000202 	andeq	r0, r0, r2, lsl #4
	...
    1d74:	70000000 	andvc	r0, r0, r0
    1d78:	01000000 	mrseq	r0, (UNDEF: 0)
    1d7c:	00705200 	rsbseq	r5, r0, r0, lsl #4
    1d80:	00780000 	rsbseq	r0, r8, r0
    1d84:	00010000 	andeq	r0, r1, r0
    1d88:	0000785c 	andeq	r7, r0, ip, asr r8
    1d8c:	0000a400 	andeq	sl, r0, r0, lsl #8
    1d90:	f3000400 	vshl.u8	d0, d0, d0
    1d94:	949f5201 	ldrls	r5, [pc], #513	; 1d9c <__code_start__-0x6264>
    1d98:	9c000001 	stcls	0, cr0, [r0], {1}
    1d9c:	01000001 	tsteq	r0, r1
    1da0:	019c5200 	orrseq	r5, ip, r0, lsl #4
    1da4:	01a40000 			; <UNDEFINED> instruction: 0x01a40000
    1da8:	00010000 	andeq	r0, r1, r0
    1dac:	0001a45c 	andeq	sl, r1, ip, asr r4
    1db0:	0001c000 	andeq	ip, r1, r0
    1db4:	f3000400 	vshl.u8	d0, d0, d0
    1db8:	c09f5201 	addsgt	r5, pc, r1, lsl #4
    1dbc:	20000001 	andcs	r0, r0, r1
    1dc0:	01000002 	tsteq	r0, r2
    1dc4:	02205200 	eoreq	r5, r0, #0, 4
    1dc8:	02280000 	eoreq	r0, r8, #0, 0
    1dcc:	00040000 	andeq	r0, r4, r0
    1dd0:	9f1f0072 	svcls	0x001f0072
    1dd4:	00000228 	andeq	r0, r0, r8, lsr #4
    1dd8:	00000274 	andeq	r0, r0, r4, ror r2
    1ddc:	01f30005 	mvnseq	r0, r5
    1de0:	749f1f52 	ldrvc	r1, [pc], #3922	; 1de8 <__code_start__-0x6218>
    1de4:	88000002 	stmdahi	r0, {r1}
    1de8:	01000002 	tsteq	r0, r2
    1dec:	02885200 	addeq	r5, r8, #0, 4
    1df0:	02a00000 	adceq	r0, r0, #0, 0
    1df4:	00010000 	andeq	r0, r1, r0
    1df8:	0002cc5c 	andeq	ip, r2, ip, asr ip
    1dfc:	0002d000 	andeq	sp, r2, r0
    1e00:	52000100 	andpl	r0, r0, #0
    1e04:	000002d0 	ldrdeq	r0, [r0], -r0	; <UNPREDICTABLE>
    1e08:	000002e7 	andeq	r0, r0, r7, ror #5
    1e0c:	e75c0001 	ldrb	r0, [ip, -r1]
    1e10:	ec000002 	stc	0, cr0, [r0], {2}
    1e14:	04000002 	streq	r0, [r0], #-2
    1e18:	5201f300 	andpl	pc, r1, #0, 6
    1e1c:	0002ec9f 	muleq	r2, pc, ip	; <UNPREDICTABLE>
    1e20:	00030000 	andeq	r0, r3, r0
    1e24:	52000100 	andpl	r0, r0, #0
    1e28:	00000300 	andeq	r0, r0, r0, lsl #6
    1e2c:	00000328 	andeq	r0, r0, r8, lsr #6
    1e30:	005c0001 	subseq	r0, ip, r1
	...
    1e4c:	00006800 	andeq	r6, r0, r0, lsl #16
    1e50:	53000100 	movwpl	r0, #256	; 0x100
    1e54:	00000068 	andeq	r0, r0, r8, rrx
    1e58:	0000006c 	andeq	r0, r0, ip, rrx
    1e5c:	7f080003 	svcvc	0x00080003
    1e60:	0001949f 	muleq	r1, pc, r4	; <UNPREDICTABLE>
    1e64:	00019800 	andeq	r9, r1, r0, lsl #16
    1e68:	08000300 	stmdaeq	r0, {r8, r9}
    1e6c:	01c09f7f 	biceq	r9, r0, pc, ror pc
    1e70:	02140000 	andseq	r0, r4, #0, 0
    1e74:	00030000 	andeq	r0, r3, r0
    1e78:	749f7f08 	ldrvc	r7, [pc], #3848	; 1e80 <__code_start__-0x6180>
    1e7c:	90000002 	andls	r0, r0, r2
    1e80:	01000002 	tsteq	r0, r2
    1e84:	02905300 	addseq	r5, r0, #0, 6
    1e88:	02a00000 	adceq	r0, r0, #0, 0
    1e8c:	00040000 	andeq	r0, r4, r0
    1e90:	9f5301f3 	svcls	0x005301f3
    1e94:	000002ec 	andeq	r0, r0, ip, ror #5
    1e98:	00000328 	andeq	r0, r0, r8, lsr #6
    1e9c:	7f080003 	svcvc	0x00080003
    1ea0:	0000009f 	muleq	r0, pc, r0	; <UNPREDICTABLE>
    1ea4:	00000000 	andeq	r0, r0, r0
    1ea8:	00000100 	andeq	r0, r0, r0, lsl #2
    1eac:	02020000 	andeq	r0, r2, #0, 0
    1eb0:	01010000 	mrseq	r0, (UNDEF: 1)
	...
    1ebc:	00000202 	andeq	r0, r0, r2, lsl #4
    1ec0:	00000100 	andeq	r0, r0, r0, lsl #2
    1ec4:	00000000 	andeq	r0, r0, r0
    1ec8:	01010000 	mrseq	r0, (UNDEF: 1)
    1ecc:	00000000 	andeq	r0, r0, r0
    1ed0:	00000202 	andeq	r0, r0, r2, lsl #4
    1ed4:	00000000 	andeq	r0, r0, r0
    1ed8:	00000101 	andeq	r0, r0, r1, lsl #2
    1edc:	00001800 	andeq	r1, r0, r0, lsl #16
    1ee0:	00007000 	andeq	r7, r0, r0
    1ee4:	91000400 	tstls	r0, r0, lsl #8
    1ee8:	709f7fa0 	addsvc	r7, pc, r0, lsr #31
    1eec:	78000000 	stmdavc	r0, {}	; <UNPREDICTABLE>
    1ef0:	01000000 	mrseq	r0, (UNDEF: 0)
    1ef4:	00785200 	rsbseq	r5, r8, r0, lsl #4
    1ef8:	00780000 	rsbseq	r0, r8, r0
    1efc:	00010000 	andeq	r0, r1, r0
    1f00:	00007854 	andeq	r7, r0, r4, asr r8
    1f04:	00008800 	andeq	r8, r0, r0, lsl #16
    1f08:	74000300 	strvc	r0, [r0], #-768	; 0xfffffd00
    1f0c:	00889f01 	addeq	r9, r8, r1, lsl #30
    1f10:	00900000 	addseq	r0, r0, r0
    1f14:	00010000 	andeq	r0, r1, r0
    1f18:	00009054 	andeq	r9, r0, r4, asr r0
    1f1c:	0000a000 	andeq	sl, r0, r0
    1f20:	74000300 	strvc	r0, [r0], #-768	; 0xfffffd00
    1f24:	00a09f02 	adceq	r9, r0, r2, lsl #30
    1f28:	00b00000 	adcseq	r0, r0, r0
    1f2c:	00010000 	andeq	r0, r1, r0
    1f30:	0001945e 	andeq	r9, r1, lr, asr r4
    1f34:	00019c00 	andeq	r9, r1, r0, lsl #24
    1f38:	91000400 	tstls	r0, r0, lsl #8
    1f3c:	9c9f7fa0 	ldcls	15, cr7, [pc], {160}	; 0xa0
    1f40:	a4000001 	strge	r0, [r0], #-1
    1f44:	01000001 	tsteq	r0, r1
    1f48:	01a45200 			; <UNDEFINED> instruction: 0x01a45200
    1f4c:	01a40000 			; <UNDEFINED> instruction: 0x01a40000
    1f50:	00010000 	andeq	r0, r1, r0
    1f54:	0001a45e 	andeq	sl, r1, lr, asr r4
    1f58:	0001b400 	andeq	fp, r1, r0, lsl #8
    1f5c:	7e000300 	cdpvc	3, 0, cr0, cr0, cr0, {0}
    1f60:	01b49f01 			; <UNDEFINED> instruction: 0x01b49f01
    1f64:	01c00000 	biceq	r0, r0, r0
    1f68:	00010000 	andeq	r0, r1, r0
    1f6c:	0001c05e 	andeq	ip, r1, lr, asr r0
    1f70:	00022800 	andeq	r2, r2, r0, lsl #16
    1f74:	91000400 	tstls	r0, r0, lsl #8
    1f78:	289f7fa0 	ldmcs	pc, {r5, r7, r8, r9, sl, fp, ip, sp, lr}	; <UNPREDICTABLE>
    1f7c:	34000002 	strcc	r0, [r0], #-2
    1f80:	01000002 	tsteq	r0, r2
    1f84:	02345200 	eorseq	r5, r4, #0, 4
    1f88:	02580000 	subseq	r0, r8, #0, 0
    1f8c:	00010000 	andeq	r0, r1, r0
    1f90:	0002585e 	andeq	r5, r2, lr, asr r8
    1f94:	00025c00 	andeq	r5, r2, r0, lsl #24
    1f98:	7e000300 	cdpvc	3, 0, cr0, cr0, cr0, {0}
    1f9c:	025c9f01 	subseq	r9, ip, #1, 30
    1fa0:	02640000 	rsbeq	r0, r4, #0, 0
    1fa4:	00010000 	andeq	r0, r1, r0
    1fa8:	0002645e 	andeq	r6, r2, lr, asr r4
    1fac:	00027000 	andeq	r7, r2, r0
    1fb0:	71000300 	mrsvc	r0, LR_irq
    1fb4:	02709f02 	rsbseq	r9, r0, #2, 30
    1fb8:	02740000 	rsbseq	r0, r4, #0, 0
    1fbc:	00010000 	andeq	r0, r1, r0
    1fc0:	0002745e 	andeq	r7, r2, lr, asr r4
    1fc4:	00027400 	andeq	r7, r2, r0, lsl #8
    1fc8:	91000400 	tstls	r0, r0, lsl #8
    1fcc:	749f7fa0 	ldrvc	r7, [pc], #4000	; 1fd4 <__code_start__-0x602c>
    1fd0:	a0000002 	andge	r0, r0, r2
    1fd4:	04000002 	streq	r0, [r0], #-2
    1fd8:	7fa19100 	svcvc	0x00a19100
    1fdc:	0002c09f 	muleq	r2, pc, r0	; <UNPREDICTABLE>
    1fe0:	0002c800 	andeq	ip, r2, r0, lsl #16
    1fe4:	5e000100 	adfpls	f0, f0, f0
    1fe8:	000002c8 	andeq	r0, r0, r8, asr #5
    1fec:	000002cc 	andeq	r0, r0, ip, asr #5
    1ff0:	cc560001 	mrrcgt	0, 0, r0, r6, cr1
    1ff4:	ec000002 	stc	0, cr0, [r0], {2}
    1ff8:	04000002 	streq	r0, [r0], #-2
    1ffc:	7fa09100 	svcvc	0x00a09100
    2000:	0002ec9f 	muleq	r2, pc, ip	; <UNPREDICTABLE>
    2004:	0002fc00 	andeq	pc, r2, r0, lsl #24
    2008:	91000400 	tstls	r0, r0, lsl #8
    200c:	fc9f7fa1 	ldc2	15, cr7, [pc], {161}	; 0xa1
    2010:	28000002 	stmdacs	r0, {r1}
    2014:	01000003 	tsteq	r0, r3
    2018:	00005e00 	andeq	r5, r0, r0, lsl #28
	...
    2030:	00010100 	andeq	r0, r1, r0, lsl #2
	...
    2044:	00000020 	andeq	r0, r0, r0, lsr #32
    2048:	00000070 	andeq	r0, r0, r0, ror r0
    204c:	70520001 	subsvc	r0, r2, r1
    2050:	94000000 	strls	r0, [r0], #-0
    2054:	01000000 	mrseq	r0, (UNDEF: 0)
    2058:	01945c00 	orrseq	r5, r4, r0, lsl #24
    205c:	019c0000 	orrseq	r0, ip, r0
    2060:	00010000 	andeq	r0, r1, r0
    2064:	00019c52 	andeq	r9, r1, r2, asr ip
    2068:	0001c000 	andeq	ip, r1, r0
    206c:	5c000100 	stfpls	f0, [r0], {-0}
    2070:	000001c8 	andeq	r0, r0, r8, asr #3
    2074:	00000210 	andeq	r0, r0, r0, lsl r2
    2078:	105c0001 	subsne	r0, ip, r1
    207c:	24000002 	strcs	r0, [r0], #-2
    2080:	01000002 	tsteq	r0, r2
    2084:	02245200 	eoreq	r5, r4, #0, 4
    2088:	02480000 	subeq	r0, r8, #0, 0
    208c:	00010000 	andeq	r0, r1, r0
    2090:	0002485c 	andeq	r4, r2, ip, asr r8
    2094:	00025c00 	andeq	r5, r2, r0, lsl #24
    2098:	55000100 	strpl	r0, [r0, #-256]	; 0xffffff00
    209c:	0000025c 	andeq	r0, r0, ip, asr r2
    20a0:	00000268 	andeq	r0, r0, r8, ror #4
    20a4:	685c0001 	ldmdavs	ip, {r0}^
    20a8:	74000002 	strvc	r0, [r0], #-2
    20ac:	19000002 	stmdbne	r0, {r1}
    20b0:	f7007500 			; <UNDEFINED> instruction: 0xf7007500
    20b4:	7625f72c 	strtvc	pc, [r5], -ip, lsr #14
    20b8:	f72cf700 			; <UNDEFINED> instruction: 0xf72cf700
    20bc:	20081e25 	andcs	r1, r8, r5, lsr #28
    20c0:	f72525f7 			; <UNDEFINED> instruction: 0xf72525f7
    20c4:	3300f72c 	movwcc	pc, #1836	; 0x72c	; <UNPREDICTABLE>
    20c8:	02749f25 	rsbseq	r9, r4, #148	; 0x94
    20cc:	02880000 	addeq	r0, r8, #0, 0
    20d0:	00010000 	andeq	r0, r1, r0
    20d4:	00028852 	andeq	r8, r2, r2, asr r8
    20d8:	0002a000 	andeq	sl, r2, r0
    20dc:	5c000100 	stfpls	f0, [r0], {-0}
    20e0:	000002cc 	andeq	r0, r0, ip, asr #5
    20e4:	000002d0 	ldrdeq	r0, [r0], -r0	; <UNPREDICTABLE>
    20e8:	d0520001 	subsle	r0, r2, r1
    20ec:	e7000002 	str	r0, [r0, -r2]
    20f0:	01000002 	tsteq	r0, r2
    20f4:	02e75c00 	rsceq	r5, r7, #0, 24
    20f8:	02ec0000 	rsceq	r0, ip, #0, 0
    20fc:	00040000 	andeq	r0, r4, r0
    2100:	9f5201f3 	svcls	0x005201f3
    2104:	000002ec 	andeq	r0, r0, ip, ror #5
    2108:	00000300 	andeq	r0, r0, r0, lsl #6
    210c:	00520001 	subseq	r0, r2, r1
    2110:	28000003 	stmdacs	r0, {r0, r1}
    2114:	01000003 	tsteq	r0, r3
    2118:	00005c00 	andeq	r5, r0, r0, lsl #24
    211c:	00000000 	andeq	r0, r0, r0
    2120:	00040000 	andeq	r0, r4, r0
    2124:	01000004 	tsteq	r0, r4
    2128:	00040000 	andeq	r0, r4, r0
    212c:	000000a4 	andeq	r0, r0, r4, lsr #1
    2130:	000000b0 	strheq	r0, [r0], -r0	; <UNPREDICTABLE>
    2134:	7c530001 	mrrcvc	0, 0, r0, r3, cr1
    2138:	90000002 	andls	r0, r0, r2
    213c:	01000002 	tsteq	r0, r2
    2140:	02905300 	addseq	r5, r0, #0, 6
    2144:	029c0000 	addseq	r0, ip, #0, 0
    2148:	00040000 	andeq	r0, r4, r0
    214c:	9f5301f3 	svcls	0x005301f3
    2150:	000002c0 	andeq	r0, r0, r0, asr #5
    2154:	000002cc 	andeq	r0, r0, ip, asr #5
    2158:	f0530001 			; <UNDEFINED> instruction: 0xf0530001
    215c:	28000002 	stmdacs	r0, {r1}
    2160:	03000003 	movweq	r0, #3
    2164:	9f7f0800 	svcls	0x007f0800
	...
    2170:	01000004 	tsteq	r0, r4
    2174:	01000004 	tsteq	r0, r4
    2178:	00000000 	andeq	r0, r0, r0
    217c:	00000004 	andeq	r0, r0, r4
    2180:	000000a4 	andeq	r0, r0, r4, lsr #1
    2184:	000000b0 	strheq	r0, [r0], -r0	; <UNPREDICTABLE>
    2188:	b0520001 	subslt	r0, r2, r1
    218c:	5c000000 	stcpl	0, cr0, [r0], {-0}
    2190:	04000001 	streq	r0, [r0], #-1
    2194:	7fa09100 	svcvc	0x00a09100
    2198:	00027c9f 	muleq	r2, pc, ip	; <UNPREDICTABLE>
    219c:	00029400 	andeq	r9, r2, r0, lsl #8
    21a0:	91000400 	tstls	r0, r0, lsl #8
    21a4:	949f7fa0 	ldrls	r7, [pc], #4000	; 21ac <__code_start__-0x5e54>
    21a8:	9c000002 	stcls	0, cr0, [r0], {2}
    21ac:	01000002 	tsteq	r0, r2
    21b0:	02b45e00 	adcseq	r5, r4, #0, 28
    21b4:	02c00000 	sbceq	r0, r0, #0, 0
    21b8:	00040000 	andeq	r0, r4, r0
    21bc:	9f7fa091 	svcls	0x007fa091
    21c0:	000002c0 	andeq	r0, r0, r0, asr #5
    21c4:	000002cc 	andeq	r0, r0, ip, asr #5
    21c8:	f0520001 			; <UNDEFINED> instruction: 0xf0520001
    21cc:	00000002 	andeq	r0, r0, r2
    21d0:	04000003 	streq	r0, [r0], #-3
    21d4:	7fa09100 	svcvc	0x00a09100
    21d8:	0003009f 	muleq	r3, pc, r0	; <UNPREDICTABLE>
    21dc:	00032800 	andeq	r2, r3, r0, lsl #16
    21e0:	52000100 	andpl	r0, r0, #0
	...
    21ec:	01000004 	tsteq	r0, r4
    21f0:	03010101 	movweq	r0, #4353	; 0x1101
    21f4:	01040203 	tsteq	r4, r3, lsl #4
    21f8:	00000000 	andeq	r0, r0, r0
    21fc:	00000004 	andeq	r0, r0, r4
    2200:	000000a4 	andeq	r0, r0, r4, lsr #1
    2204:	000000b0 	strheq	r0, [r0], -r0	; <UNPREDICTABLE>
    2208:	0c5e0001 	mrrceq	0, 0, r0, lr, cr1
    220c:	0c000001 	stceq	0, cr0, [r0], {1}
    2210:	01000001 	tsteq	r0, r1
    2214:	010c5500 	tsteq	ip, r0, lsl #10
    2218:	01200000 			; <UNDEFINED> instruction: 0x01200000
    221c:	00030000 	andeq	r0, r3, r0
    2220:	209f0175 	addscs	r0, pc, r5, ror r1	; <UNPREDICTABLE>
    2224:	2c000001 	stccs	0, cr0, [r0], {1}
    2228:	03000001 	movweq	r0, #1
    222c:	9f027500 	svcls	0x00027500
    2230:	0000012c 	andeq	r0, r0, ip, lsr #2
    2234:	00000130 	andeq	r0, r0, r0, lsr r1
    2238:	03750003 	cmneq	r5, #3, 0
    223c:	00027c9f 	muleq	r2, pc, ip	; <UNPREDICTABLE>
    2240:	00029c00 	andeq	r9, r2, r0, lsl #24
    2244:	91000400 	tstls	r0, r0, lsl #8
    2248:	c09f7fa1 	addsgt	r7, pc, r1, lsr #31
    224c:	c8000002 	stmdagt	r0, {r1}
    2250:	01000002 	tsteq	r0, r2
    2254:	02c85e00 	sbceq	r5, r8, #0, 28
    2258:	02cc0000 	sbceq	r0, ip, #0, 0
    225c:	00010000 	andeq	r0, r1, r0
    2260:	0002f056 	andeq	pc, r2, r6, asr r0	; <UNPREDICTABLE>
    2264:	0002fc00 	andeq	pc, r2, r0, lsl #24
    2268:	91000400 	tstls	r0, r0, lsl #8
    226c:	fc9f7fa1 	ldc2	15, cr7, [pc], {161}	; 0xa1
    2270:	28000002 	stmdacs	r0, {r1}
    2274:	01000003 	tsteq	r0, r3
    2278:	00005e00 	andeq	r5, r0, r0, lsl #28
	...
    2284:	01010100 	mrseq	r0, (UNDEF: 17)
    2288:	02010101 	andeq	r0, r1, #1073741824	; 0x40000000
    228c:	00000106 	andeq	r0, r0, r6, lsl #2
    2290:	00a80006 	adceq	r0, r8, r6
    2294:	00b00000 	adcseq	r0, r0, r0
    2298:	00010000 	andeq	r0, r1, r0
    229c:	00010c51 	andeq	r0, r1, r1, asr ip
    22a0:	00011c00 	andeq	r1, r1, r0, lsl #24
    22a4:	5c000100 	stfpls	f0, [r0], {-0}
    22a8:	0000011c 	andeq	r0, r0, ip, lsl r1
    22ac:	0000012c 	andeq	r0, r0, ip, lsr #2
    22b0:	2c580001 	mrrccs	0, 0, r0, r8, cr1
    22b4:	30000001 	andcc	r0, r0, r1
    22b8:	01000001 	tsteq	r0, r1
    22bc:	01305c00 	teqeq	r0, r0, lsl #24
    22c0:	01300000 	teqeq	r0, r0
    22c4:	00030000 	andeq	r0, r3, r0
    22c8:	7c9f017c 	ldfvcs	f0, [pc], {124}	; 0x7c
    22cc:	9c000002 	stcls	0, cr0, [r0], {2}
    22d0:	02000002 	andeq	r0, r0, #2, 0
    22d4:	c09f3100 	addsgt	r3, pc, r0, lsl #2
    22d8:	cc000002 	stcgt	0, cr0, [r0], {2}
    22dc:	01000002 	tsteq	r0, r2
    22e0:	02f05100 	rscseq	r5, r0, #0
    22e4:	03280000 			; <UNDEFINED> instruction: 0x03280000
    22e8:	00020000 	andeq	r0, r2, r0
    22ec:	00009f31 	andeq	r9, r0, r1, lsr pc
    22f0:	00000000 	andeq	r0, r0, r0
    22f4:	06010000 	streq	r0, [r1], -r0
    22f8:	00010106 	andeq	r0, r1, r6, lsl #2
    22fc:	015c0100 	cmpeq	ip, r0, lsl #2
    2300:	015c0000 	cmpeq	ip, r0
    2304:	00040000 	andeq	r0, r4, r0
    2308:	9f7fa091 	svcls	0x007fa091
    230c:	0000015c 	andeq	r0, r0, ip, asr r1
    2310:	0000018c 	andeq	r0, r0, ip, lsl #3
    2314:	9c520001 	mrrcls	0, 0, r0, r2, cr1
    2318:	a0000002 	andge	r0, r0, r2
    231c:	01000002 	tsteq	r0, r2
    2320:	02a05e00 	adceq	r5, r0, #0, 28
    2324:	02ac0000 	adceq	r0, ip, #0, 0
    2328:	00010000 	andeq	r0, r1, r0
    232c:	00000052 	andeq	r0, r0, r2, asr r0
	...
    2338:	01000101 	tsteq	r0, r1, lsl #2
    233c:	00016c07 	andeq	r6, r1, r7, lsl #24
    2340:	00017000 	andeq	r7, r1, r0
    2344:	73000300 	movwvc	r0, #768	; 0x300
    2348:	01709f7f 	cmneq	r0, pc, ror pc
    234c:	01780000 	cmneq	r8, r0
    2350:	00010000 	andeq	r0, r1, r0
    2354:	00017853 	andeq	r7, r1, r3, asr r8
    2358:	00018400 	andeq	r8, r1, r0, lsl #8
    235c:	73000300 	movwvc	r0, #768	; 0x300
    2360:	029c9f7f 	addseq	r9, ip, #508	; 0x1fc
    2364:	029c0000 	addseq	r0, ip, #0, 0
    2368:	00040000 	andeq	r0, r4, r0
    236c:	9f7fa191 	svcls	0x007fa191
	...
    2378:	01010101 	tsteq	r1, r1, lsl #2
    237c:	0000015c 	andeq	r0, r0, ip, asr r1
    2380:	0000018c 	andeq	r0, r0, ip, lsl #3
    2384:	80080003 	andhi	r0, r8, r3
    2388:	00029c9f 	muleq	r2, pc, ip	; <UNPREDICTABLE>
    238c:	0002ac00 	andeq	sl, r2, r0, lsl #24
    2390:	08000300 	stmdaeq	r0, {r8, r9}
    2394:	00009f80 	andeq	r9, r0, r0, lsl #31
    2398:	00000000 	andeq	r0, r0, r0
    239c:	00010000 	andeq	r0, r1, r0
    23a0:	00010100 	andeq	r0, r1, r0, lsl #2
    23a4:	01010100 	mrseq	r0, (UNDEF: 17)
    23a8:	01010101 	tsteq	r1, r1, lsl #2
    23ac:	0000015c 	andeq	r0, r0, ip, asr r1
    23b0:	0000016c 	andeq	r0, r0, ip, ror #2
    23b4:	6c500001 	mrrcvs	0, 0, r0, r0, cr1	; <UNPREDICTABLE>
    23b8:	6c000001 	stcvs	0, cr0, [r0], {1}
    23bc:	03000001 	movweq	r0, #1
    23c0:	9f017c00 	svcls	0x00017c00
    23c4:	0000016c 	andeq	r0, r0, ip, ror #2
    23c8:	00000178 	andeq	r0, r0, r8, ror r1
    23cc:	027c0003 	rsbseq	r0, ip, #3, 0
    23d0:	0001789f 	muleq	r1, pc, r8	; <UNPREDICTABLE>
    23d4:	00018800 	andeq	r8, r1, r0, lsl #16
    23d8:	7c000300 	stcvc	3, cr0, [r0], {-0}
    23dc:	01889f01 	orreq	r9, r8, r1, lsl #30
    23e0:	018c0000 	orreq	r0, ip, r0
    23e4:	00030000 	andeq	r0, r3, r0
    23e8:	9c9f017e 	ldflss	f0, [pc], {126}	; 0x7e
    23ec:	a4000002 	strge	r0, [r0], #-2
    23f0:	01000002 	tsteq	r0, r2
    23f4:	02a45000 	adceq	r5, r4, #0, 0
    23f8:	02ac0000 	adceq	r0, ip, #0, 0
    23fc:	00030000 	andeq	r0, r3, r0
    2400:	009f017e 	addseq	r0, pc, lr, ror r1	; <UNPREDICTABLE>
    2404:	00000000 	andeq	r0, r0, r0
    2408:	04000000 	streq	r0, [r0], #-0
    240c:	00000400 	andeq	r0, r0, r0, lsl #8
    2410:	00015c01 	andeq	r5, r1, r1, lsl #24
    2414:	00016000 	andeq	r6, r1, r0
    2418:	71000300 	mrsvc	r0, LR_irq
    241c:	029c9f01 	addseq	r9, ip, #1, 30
    2420:	02a00000 	adceq	r0, r0, #0, 0
    2424:	00020000 	andeq	r0, r2, r0
    2428:	02a09f32 	adceq	r9, r0, #200	; 0xc8
    242c:	02ac0000 	adceq	r0, ip, #0, 0
    2430:	00030000 	andeq	r0, r3, r0
    2434:	009f0171 	addseq	r0, pc, r1, ror r1	; <UNPREDICTABLE>
    2438:	00000000 	andeq	r0, r0, r0
    243c:	07000000 	streq	r0, [r0, -r0]
    2440:	5c000600 	stcpl	6, cr0, [r0], {-0}
    2444:	94000001 	strls	r0, [r0], #-1
    2448:	01000001 	tsteq	r0, r1
    244c:	029c5000 	addseq	r5, ip, #0, 0
    2450:	02b40000 	adcseq	r0, r4, #0, 0
    2454:	00010000 	andeq	r0, r1, r0
    2458:	00000050 	andeq	r0, r0, r0, asr r0
    245c:	00000000 	andeq	r0, r0, r0
    2460:	01010100 	mrseq	r0, (UNDEF: 17)
    2464:	00021400 	andeq	r1, r2, r0, lsl #8
    2468:	00022000 	andeq	r2, r2, r0
    246c:	30000200 	andcc	r0, r0, r0, lsl #4
    2470:	0002209f 	muleq	r2, pc, r0	; <UNPREDICTABLE>
    2474:	00023400 	andeq	r3, r2, r0, lsl #8
    2478:	31000200 	mrscc	r0, R8_usr
    247c:	0000009f 	muleq	r0, pc, r0	; <UNPREDICTABLE>
    2480:	00000000 	andeq	r0, r0, r0
    2484:	01010000 	mrseq	r0, (UNDEF: 1)
    2488:	01010000 	mrseq	r0, (UNDEF: 1)
    248c:	01010000 	mrseq	r0, (UNDEF: 1)
    2490:	01010000 	mrseq	r0, (UNDEF: 1)
    2494:	01010000 	mrseq	r0, (UNDEF: 1)
    2498:	02020000 	andeq	r0, r2, #0, 0
    249c:	00008001 	andeq	r8, r0, r1
    24a0:	00008000 	andeq	r8, r0, r0
    24a4:	53000100 	movwpl	r0, #256	; 0x100
    24a8:	00000080 	andeq	r0, r0, r0, lsl #1
    24ac:	0000008c 	andeq	r0, r0, ip, lsl #1
    24b0:	04730003 	ldrbteq	r0, [r3], #-3
    24b4:	00008c9f 	muleq	r0, pc, ip	; <UNPREDICTABLE>
    24b8:	00009400 	andeq	r9, r0, r0, lsl #8
    24bc:	51000100 	mrspl	r0, (UNDEF: 16)
    24c0:	00000094 	muleq	r0, r4, r0
    24c4:	00000098 	muleq	r0, r8, r0
    24c8:	08730003 	ldmdaeq	r3!, {r0, r1}^
    24cc:	0000989f 	muleq	r0, pc, r8	; <UNPREDICTABLE>
    24d0:	0000a400 	andeq	sl, r0, r0, lsl #8
    24d4:	51000100 	mrspl	r0, (UNDEF: 16)
    24d8:	000000a4 	andeq	r0, r0, r4, lsr #1
    24dc:	000000a8 	andeq	r0, r0, r8, lsr #1
    24e0:	0c730003 	ldcleq	0, cr0, [r3], #-12
    24e4:	0000a89f 	muleq	r0, pc, r8	; <UNPREDICTABLE>
    24e8:	0000b400 	andeq	fp, r0, r0, lsl #8
    24ec:	51000100 	mrspl	r0, (UNDEF: 16)
    24f0:	000000b4 	strheq	r0, [r0], -r4
    24f4:	000000b8 	strheq	r0, [r0], -r8
    24f8:	10730003 	rsbsne	r0, r3, r3
    24fc:	0000b89f 	muleq	r0, pc, r8	; <UNPREDICTABLE>
    2500:	0000c400 	andeq	ip, r0, r0, lsl #8
    2504:	51000100 	mrspl	r0, (UNDEF: 16)
    2508:	000000c4 	andeq	r0, r0, r4, asr #1
    250c:	000000c8 	andeq	r0, r0, r8, asr #1
    2510:	14730003 	ldrbtne	r0, [r3], #-3
    2514:	0000c89f 	muleq	r0, pc, r8	; <UNPREDICTABLE>
    2518:	0000d000 	andeq	sp, r0, r0
    251c:	51000100 	mrspl	r0, (UNDEF: 16)
    2520:	000000d0 	ldrdeq	r0, [r0], -r0	; <UNPREDICTABLE>
    2524:	000000d4 	ldrdeq	r0, [r0], -r4
    2528:	04710003 	ldrbteq	r0, [r1], #-3
    252c:	0000009f 	muleq	r0, pc, r0	; <UNPREDICTABLE>
    2530:	00000000 	andeq	r0, r0, r0
    2534:	08000100 	stmdaeq	r0, {r8}
    2538:	0b000001 	bleq	2544 <__code_start__-0x5abc>
    253c:	01000001 	tsteq	r0, r1
    2540:	00005100 	andeq	r5, r0, r0, lsl #2
    2544:	00000000 	andeq	r0, r0, r0
    2548:	00020000 	andeq	r0, r2, r0
    254c:	000000d8 	ldrdeq	r0, [r0], -r8
    2550:	00000110 	andeq	r0, r0, r0, lsl r1
    2554:	9f310002 	svcls	0x00310002
	...
    2560:	00e00305 	rsceq	r0, r0, r5, lsl #6
    2564:	00e40000 	rsceq	r0, r4, r0
    2568:	00020000 	andeq	r0, r2, r0
    256c:	00009f30 	andeq	r9, r0, r0, lsr pc
    2570:	00000000 	andeq	r0, r0, r0
    2574:	00010000 	andeq	r0, r1, r0
    2578:	000000e4 	andeq	r0, r0, r4, ror #1
    257c:	000000ef 	andeq	r0, r0, pc, ror #1
    2580:	00530001 	subseq	r0, r3, r1
	...
    258c:	0000e401 	andeq	lr, r0, r1, lsl #8
    2590:	0000ec00 	andeq	lr, r0, r0, lsl #24
    2594:	53000100 	movwpl	r0, #256	; 0x100
	...
    25a0:	01000004 	tsteq	r0, r4
    25a4:	000000f0 	strdeq	r0, [r0], -r0	; <UNPREDICTABLE>
    25a8:	00000104 	andeq	r0, r0, r4, lsl #2
    25ac:	9f300002 	svcls	0x00300002
    25b0:	00000104 	andeq	r0, r0, r4, lsl #2
    25b4:	00000108 	andeq	r0, r0, r8, lsl #2
    25b8:	00510001 	subseq	r0, r1, r1
    25bc:	00000000 	andeq	r0, r0, r0
    25c0:	01000000 	mrseq	r0, (UNDEF: 0)
    25c4:	0000f400 	andeq	pc, r0, r0, lsl #8
    25c8:	00010b00 	andeq	r0, r1, r0, lsl #22
    25cc:	53000100 	movwpl	r0, #256	; 0x100
	...
    25d8:	00f40100 	rscseq	r0, r4, r0, lsl #2
    25dc:	01080000 	mrseq	r0, (UNDEF: 8)
    25e0:	00010000 	andeq	r0, r1, r0
    25e4:	00000053 	andeq	r0, r0, r3, asr r0
    25e8:	00000000 	andeq	r0, r0, r0
    25ec:	00000400 	andeq	r0, r0, r0, lsl #8
    25f0:	0096c001 	addseq	ip, r6, r1
    25f4:	0096c800 	addseq	ip, r6, r0, lsl #16
    25f8:	30000200 	andcc	r0, r0, r0, lsl #4
    25fc:	0096c89f 	umullseq	ip, r6, pc, r8	; <UNPREDICTABLE>
    2600:	0096c800 	addseq	ip, r6, r0, lsl #16
    2604:	53000100 	movwpl	r0, #256	; 0x100
	...
    2610:	00000003 	andeq	r0, r0, r3
    2614:	00000000 	andeq	r0, r0, r0
    2618:	000096d4 	ldrdeq	r9, [r0], -r4
    261c:	000096d8 	ldrdeq	r9, [r0], -r8
    2620:	9f300002 	svcls	0x00300002
    2624:	000096d8 	ldrdeq	r9, [r0], -r8
    2628:	000096dc 	ldrdeq	r9, [r0], -ip
    262c:	dc530001 	mrrcle	0, 0, r0, r3, cr1
    2630:	e0000096 	mul	r0, r6, r0
    2634:	05000096 	streq	r0, [r0, #-150]	; 0xffffff6a
    2638:	40007300 	andmi	r7, r0, r0, lsl #6
    263c:	96e09f21 	strbtls	r9, [r0], r1, lsr #30
    2640:	96e40000 	strbtls	r0, [r4], r0
    2644:	00010000 	andeq	r0, r1, r0
    2648:	00000053 	andeq	r0, r0, r3, asr r0
    264c:	00000000 	andeq	r0, r0, r0
    2650:	00000200 	andeq	r0, r0, r0, lsl #4
    2654:	00969400 	addseq	r9, r6, r0, lsl #8
    2658:	00969800 	addseq	r9, r6, r0, lsl #16
    265c:	30000200 	andcc	r0, r0, r0, lsl #4
    2660:	0096989f 	umullseq	r9, r6, pc, r8	; <UNPREDICTABLE>
    2664:	00969c00 	addseq	r9, r6, r0, lsl #24
    2668:	50000100 	andpl	r0, r0, r0, lsl #2
	...
    2674:	00000002 	andeq	r0, r0, r2
    2678:	00000000 	andeq	r0, r0, r0
    267c:	000096ac 	andeq	r9, r0, ip, lsr #13
    2680:	000096b0 			; <UNDEFINED> instruction: 0x000096b0
    2684:	9f300002 	svcls	0x00300002
    2688:	000096b0 			; <UNDEFINED> instruction: 0x000096b0
    268c:	000096b4 			; <UNDEFINED> instruction: 0x000096b4
    2690:	b4530001 	ldrblt	r0, [r3], #-1
    2694:	b8000096 	stmdalt	r0, {r1, r2, r4, r7}
    2698:	05000096 	streq	r0, [r0, #-150]	; 0xffffff6a
    269c:	40007300 	andmi	r7, r0, r0, lsl #6
    26a0:	96b89f21 	ldrtls	r9, [r8], r1, lsr #30
    26a4:	96c00000 	strbls	r0, [r0], r0
    26a8:	00010000 	andeq	r0, r1, r0
    26ac:	00000053 	andeq	r0, r0, r3, asr r0
	...
    26b8:	0000c800 	andeq	ip, r0, r0, lsl #16
    26bc:	0000d800 	andeq	sp, r0, r0, lsl #16
    26c0:	50000100 	andpl	r0, r0, r0, lsl #2
    26c4:	000000d8 	ldrdeq	r0, [r0], -r8
    26c8:	0000011c 	andeq	r0, r0, ip, lsl r1
    26cc:	01f30004 	mvnseq	r0, r4
    26d0:	00009f50 	andeq	r9, r0, r0, asr pc
    26d4:	00000000 	andeq	r0, r0, r0
    26d8:	00020000 	andeq	r0, r2, r0
    26dc:	00c80000 	sbceq	r0, r8, r0
    26e0:	00d80000 	sbcseq	r0, r8, r0
    26e4:	00070000 	andeq	r0, r7, r0
    26e8:	e80a0070 	stmda	sl, {r4, r5, r6}
    26ec:	d89f1e03 	ldmle	pc, {r0, r1, r9, sl, fp, ip}	; <UNPREDICTABLE>
    26f0:	1c000000 	stcne	0, cr0, [r0], {-0}
    26f4:	08000001 	stmdaeq	r0, {r0}
    26f8:	5001f300 	andpl	pc, r1, r0, lsl #6
    26fc:	1e03e80a 	cdpne	8, 0, cr14, cr3, cr10, {0}
    2700:	0000009f 	muleq	r0, pc, r0	; <UNPREDICTABLE>
    2704:	00000000 	andeq	r0, r0, r0
    2708:	dc000000 	stcle	0, cr0, [r0], {-0}
    270c:	1c000000 	stcne	0, cr0, [r0], {-0}
    2710:	01000001 	tsteq	r0, r1
    2714:	00005400 	andeq	r5, r0, r0, lsl #8
    2718:	00000000 	andeq	r0, r0, r0
    271c:	00010000 	andeq	r0, r1, r0
    2720:	000000f0 	strdeq	r0, [r0], -r0	; <UNPREDICTABLE>
    2724:	0000011c 	andeq	r0, r0, ip, lsl r1
    2728:	00560001 	subseq	r0, r6, r1
	...
    2734:	ec000000 	stc	0, cr0, [r0], {-0}
    2738:	ef000000 	svc	0x00000000
    273c:	01000000 	mrseq	r0, (UNDEF: 0)
    2740:	00ef5000 	rsceq	r5, pc, r0
    2744:	011c0000 	tsteq	ip, r0
    2748:	00010000 	andeq	r0, r1, r0
    274c:	00000056 	andeq	r0, r0, r6, asr r0
    2750:	00000000 	andeq	r0, r0, r0
    2754:	04000000 	streq	r0, [r0], #-0
    2758:	0b000001 	bleq	2764 <__code_start__-0x589c>
    275c:	01000001 	tsteq	r0, r1
    2760:	00005000 	andeq	r5, r0, r0
	...
    276c:	00200000 	eoreq	r0, r0, r0
    2770:	00230000 	eoreq	r0, r3, r0
    2774:	00010000 	andeq	r0, r1, r0
    2778:	00002350 	andeq	r2, r0, r0, asr r3
    277c:	00003000 	andeq	r3, r0, r0
    2780:	54000100 	strpl	r0, [r0], #-256	; 0xffffff00
	...
    2790:	00000030 	andeq	r0, r0, r0, lsr r0
    2794:	0000003b 	andeq	r0, r0, fp, lsr r0
    2798:	3b500001 	blcc	14027a4 <__bss_end__+0x13f8494>
    279c:	78000000 	stmdavc	r0, {}	; <UNPREDICTABLE>
    27a0:	01000000 	mrseq	r0, (UNDEF: 0)
    27a4:	00005600 	andeq	r5, r0, r0, lsl #12
    27a8:	00000000 	andeq	r0, r0, r0
    27ac:	00010000 	andeq	r0, r1, r0
    27b0:	0000004c 	andeq	r0, r0, ip, asr #32
    27b4:	00000078 	andeq	r0, r0, r8, ror r0
    27b8:	00550001 	subseq	r0, r5, r1
	...
    27c4:	48000000 	stmdami	r0, {}	; <UNPREDICTABLE>
    27c8:	4b000000 	blmi	27d0 <__code_start__-0x5830>
    27cc:	01000000 	mrseq	r0, (UNDEF: 0)
    27d0:	004b5000 	subeq	r5, fp, r0
    27d4:	00780000 	rsbseq	r0, r8, r0
    27d8:	00010000 	andeq	r0, r1, r0
    27dc:	00000055 	andeq	r0, r0, r5, asr r0
    27e0:	00000000 	andeq	r0, r0, r0
    27e4:	60000000 	andvs	r0, r0, r0
    27e8:	67000000 	strvs	r0, [r0, -r0]
    27ec:	01000000 	mrseq	r0, (UNDEF: 0)
    27f0:	00005000 	andeq	r5, r0, r0
	...
    27fc:	00780000 	rsbseq	r0, r8, r0
    2800:	00840000 	addeq	r0, r4, r0
    2804:	00010000 	andeq	r0, r1, r0
    2808:	00008450 	andeq	r8, r0, r0, asr r4
    280c:	0000c800 	andeq	ip, r0, r0, lsl #16
    2810:	f3000400 	vshl.u8	d0, d0, d0
    2814:	009f5001 	addseq	r5, pc, r1
	...
    2820:	00008800 	andeq	r8, r0, r0, lsl #16
    2824:	0000c800 	andeq	ip, r0, r0, lsl #16
    2828:	54000100 	strpl	r0, [r0], #-256	; 0xffffff00
	...
    2834:	009c0001 	addseq	r0, ip, r1
    2838:	00c80000 	sbceq	r0, r8, r0
    283c:	00010000 	andeq	r0, r1, r0
    2840:	00000056 	andeq	r0, r0, r6, asr r0
	...
    284c:	00009800 	andeq	r9, r0, r0, lsl #16
    2850:	00009b00 	andeq	r9, r0, r0, lsl #22
    2854:	50000100 	andpl	r0, r0, r0, lsl #2
    2858:	0000009b 	muleq	r0, fp, r0
    285c:	000000c8 	andeq	r0, r0, r8, asr #1
    2860:	00560001 	subseq	r0, r6, r1
	...
    286c:	0000b000 	andeq	fp, r0, r0
    2870:	0000b700 	andeq	fp, r0, r0, lsl #14
    2874:	50000100 	andpl	r0, r0, r0, lsl #2
	...
    2884:	00000158 	andeq	r0, r0, r8, asr r1
    2888:	00000163 	andeq	r0, r0, r3, ror #2
    288c:	63500001 	cmpvs	r0, #1, 0
    2890:	88000001 	stmdahi	r0, {r0}
    2894:	01000001 	tsteq	r0, r1
    2898:	00005400 	andeq	r5, r0, r0, lsl #8
	...
    28a4:	00000148 	andeq	r0, r0, r8, asr #2
    28a8:	00000158 	andeq	r0, r0, r8, asr r1
    28ac:	00540001 	subseq	r0, r4, r1
	...
    28bc:	0f000000 	svceq	0x00000000
    28c0:	01000000 	mrseq	r0, (UNDEF: 0)
    28c4:	000f5000 	andeq	r5, pc, r0
    28c8:	00200000 	eoreq	r0, r0, r0
    28cc:	00010000 	andeq	r0, r1, r0
    28d0:	00000054 	andeq	r0, r0, r4, asr r0
	...
    28e0:	00000f00 	andeq	r0, r0, r0, lsl #30
    28e4:	51000100 	mrspl	r0, (UNDEF: 16)
    28e8:	0000000f 	andeq	r0, r0, pc
    28ec:	00000020 	andeq	r0, r0, r0, lsr #32
    28f0:	00550001 	subseq	r0, r5, r1
	...
    28fc:	20000000 	andcs	r0, r0, r0
    2900:	2f000000 	svccs	0x00000000
    2904:	01000000 	mrseq	r0, (UNDEF: 0)
    2908:	002f5000 	eoreq	r5, pc, r0
    290c:	00400000 	subeq	r0, r0, r0
    2910:	00010000 	andeq	r0, r1, r0
    2914:	00000054 	andeq	r0, r0, r4, asr r0
	...
    2920:	00002000 	andeq	r2, r0, r0
    2924:	00002f00 	andeq	r2, r0, r0, lsl #30
    2928:	51000100 	mrspl	r0, (UNDEF: 16)
    292c:	0000002f 	andeq	r0, r0, pc, lsr #32
    2930:	00000040 	andeq	r0, r0, r0, asr #32
    2934:	00550001 	subseq	r0, r5, r1
	...
    2944:	18000000 	stmdane	r0, {}	; <UNPREDICTABLE>
    2948:	01000000 	mrseq	r0, (UNDEF: 0)
    294c:	00185100 	andseq	r5, r8, r0, lsl #2
    2950:	002c0000 	eoreq	r0, ip, r0
    2954:	00040000 	andeq	r0, r4, r0
    2958:	9f5101f3 	svcls	0x005101f3
	...
    2964:	00000002 	andeq	r0, r0, r2
    2968:	00000000 	andeq	r0, r0, r0
    296c:	00010100 	andeq	r0, r1, r0, lsl #2
    2970:	00000000 	andeq	r0, r0, r0
    2974:	00040000 	andeq	r0, r4, r0
    2978:	00010000 	andeq	r0, r1, r0
    297c:	00000450 	andeq	r0, r0, r0, asr r4
    2980:	00000800 	andeq	r0, r0, r0, lsl #16
    2984:	52000100 	andpl	r0, r0, #0
    2988:	00000008 	andeq	r0, r0, r8
    298c:	0000000c 	andeq	r0, r0, ip
    2990:	01720003 	cmneq	r2, r3
    2994:	00000c9f 	muleq	r0, pc, ip	; <UNPREDICTABLE>
    2998:	00001800 	andeq	r1, r0, r0, lsl #16
    299c:	52000100 	andpl	r0, r0, #0
    29a0:	00000018 	andeq	r0, r0, r8, lsl r0
    29a4:	0000001c 	andeq	r0, r0, ip, lsl r0
    29a8:	1c530001 	mrrcne	0, 0, r0, r3, cr1
    29ac:	24000000 	strcs	r0, [r0], #-0
    29b0:	03000000 	movweq	r0, #0
    29b4:	9f017300 	svcls	0x00017300
    29b8:	00000024 	andeq	r0, r0, r4, lsr #32
    29bc:	0000002c 	andeq	r0, r0, ip, lsr #32
    29c0:	00530001 	subseq	r0, r3, r1
    29c4:	00000000 	andeq	r0, r0, r0
    29c8:	03000000 	movweq	r0, #0
    29cc:	00000202 	andeq	r0, r0, r2, lsl #4
    29d0:	00000000 	andeq	r0, r0, r0
    29d4:	00001800 	andeq	r1, r0, r0, lsl #16
    29d8:	51000100 	mrspl	r0, (UNDEF: 16)
    29dc:	00000018 	andeq	r0, r0, r8, lsl r0
    29e0:	0000001c 	andeq	r0, r0, ip, lsl r0
    29e4:	01710003 	cmneq	r1, r3
    29e8:	00001c9f 	muleq	r0, pc, ip	; <UNPREDICTABLE>
    29ec:	00002c00 	andeq	r2, r0, r0, lsl #24
    29f0:	51000100 	mrspl	r0, (UNDEF: 16)
	...
    2a00:	00080000 	andeq	r0, r8, r0
    2a04:	000c0000 	andeq	r0, ip, r0
    2a08:	00020000 	andeq	r0, r2, r0
    2a0c:	000c0072 	andeq	r0, ip, r2, ror r0
    2a10:	00180000 	andseq	r0, r8, r0
    2a14:	00020000 	andeq	r0, r2, r0
    2a18:	001c0073 	andseq	r0, ip, r3, ror r0
    2a1c:	002c0000 	eoreq	r0, ip, r0
    2a20:	00010000 	andeq	r0, r1, r0
    2a24:	00000052 	andeq	r0, r0, r2, asr r0
	...
    2a3c:	00001400 	andeq	r1, r0, r0, lsl #8
    2a40:	50000100 	andpl	r0, r0, r0, lsl #2
    2a44:	00000014 	andeq	r0, r0, r4, lsl r0
    2a48:	00000018 	andeq	r0, r0, r8, lsl r0
    2a4c:	01700003 	cmneq	r0, r3
    2a50:	0000189f 	muleq	r0, pc, r8	; <UNPREDICTABLE>
    2a54:	00002000 	andeq	r2, r0, r0
    2a58:	50000100 	andpl	r0, r0, r0, lsl #2
    2a5c:	00000024 	andeq	r0, r0, r4, lsr #32
    2a60:	00000028 	andeq	r0, r0, r8, lsr #32
    2a64:	28500001 	ldmdacs	r0, {r0}^
    2a68:	30000000 	andcc	r0, r0, r0
    2a6c:	03000000 	movweq	r0, #0
    2a70:	9f017000 	svcls	0x00017000
    2a74:	00000038 	andeq	r0, r0, r8, lsr r0
    2a78:	00000040 	andeq	r0, r0, r0, asr #32
    2a7c:	00500001 	subseq	r0, r0, r1
	...
    2a90:	00002400 	andeq	r2, r0, r0, lsl #8
    2a94:	51000100 	mrspl	r0, (UNDEF: 16)
    2a98:	00000024 	andeq	r0, r0, r4, lsr #32
    2a9c:	00000028 	andeq	r0, r0, r8, lsr #32
    2aa0:	285c0001 	ldmdacs	ip, {r0}^
    2aa4:	44000000 	strmi	r0, [r0], #-0
    2aa8:	01000000 	mrseq	r0, (UNDEF: 0)
    2aac:	00005100 	andeq	r5, r0, r0, lsl #2
    2ab0:	00000000 	andeq	r0, r0, r0
    2ab4:	02000000 	andeq	r0, r0, #0, 0
    2ab8:	00000002 	andeq	r0, r0, r2
    2abc:	00000000 	andeq	r0, r0, r0
    2ac0:	00000004 	andeq	r0, r0, r4
    2ac4:	04510001 	ldrbeq	r0, [r1], #-1
    2ac8:	08000000 	stmdaeq	r0, {}	; <UNPREDICTABLE>
    2acc:	03000000 	movweq	r0, #0
    2ad0:	9f017100 	svcls	0x00017100
    2ad4:	00000008 	andeq	r0, r0, r8
    2ad8:	00000018 	andeq	r0, r0, r8, lsl r0
    2adc:	00510001 	subseq	r0, r1, r1
    2ae0:	00000000 	andeq	r0, r0, r0
    2ae4:	02000000 	andeq	r0, r0, #0, 0
    2ae8:	00000000 	andeq	r0, r0, r0
    2aec:	00000400 	andeq	r0, r0, r0, lsl #8
    2af0:	50000100 	andpl	r0, r0, r0, lsl #2
	...
    2b04:	00000008 	andeq	r0, r0, r8
    2b08:	08500001 	ldmdaeq	r0, {r0}^
    2b0c:	30000000 	andcc	r0, r0, r0
    2b10:	04000000 	streq	r0, [r0], #-0
    2b14:	5001f300 	andpl	pc, r1, r0, lsl #6
    2b18:	0000009f 	muleq	r0, pc, r0	; <UNPREDICTABLE>
	...
    2b28:	00000800 	andeq	r0, r0, r0, lsl #16
    2b2c:	51000100 	mrspl	r0, (UNDEF: 16)
    2b30:	00000008 	andeq	r0, r0, r8
    2b34:	00000030 	andeq	r0, r0, r0, lsr r0
    2b38:	01f30004 	mvnseq	r0, r4
    2b3c:	00009f51 	andeq	r9, r0, r1, asr pc
	...
    2b4c:	00020201 	andeq	r0, r2, r1, lsl #4
    2b50:	00000000 	andeq	r0, r0, r0
    2b54:	00000004 	andeq	r0, r0, r4
    2b58:	04520001 	ldrbeq	r0, [r2], #-1
    2b5c:	08000000 	stmdaeq	r0, {}	; <UNPREDICTABLE>
    2b60:	04000000 	streq	r0, [r0], #-0
    2b64:	5201f300 	andpl	pc, r1, #0, 6
    2b68:	0000089f 	muleq	r0, pc, r8	; <UNPREDICTABLE>
    2b6c:	00001800 	andeq	r1, r0, r0, lsl #16
    2b70:	f3000600 	vmax.u8	d0, d0, d0
    2b74:	1c315201 	lfmne	f5, 4, [r1], #-4
    2b78:	0000189f 	muleq	r0, pc, r8	; <UNPREDICTABLE>
    2b7c:	00001800 	andeq	r1, r0, r0, lsl #16
    2b80:	f3000400 	vshl.u8	d0, d0, d0
    2b84:	189f5201 	ldmne	pc, {r0, r9, ip, lr}	; <UNPREDICTABLE>
    2b88:	30000000 	andcc	r0, r0, r0
    2b8c:	06000000 	streq	r0, [r0], -r0
    2b90:	5201f300 	andpl	pc, r1, #0, 6
    2b94:	009f1c31 	addseq	r1, pc, r1, lsr ip	; <UNPREDICTABLE>
    2b98:	00000000 	andeq	r0, r0, r0
    2b9c:	02000000 	andeq	r0, r0, #0, 0
    2ba0:	01000000 	mrseq	r0, (UNDEF: 0)
    2ba4:	00000000 	andeq	r0, r0, r0
    2ba8:	0c000000 	stceq	0, cr0, [r0], {-0}
    2bac:	01000000 	mrseq	r0, (UNDEF: 0)
    2bb0:	000c5000 	andeq	r5, ip, r0
    2bb4:	00180000 	andseq	r0, r8, r0
    2bb8:	00030000 	andeq	r0, r3, r0
    2bbc:	189f7f70 	ldmne	pc, {r4, r5, r6, r8, r9, sl, fp, ip, sp, lr}	; <UNPREDICTABLE>
    2bc0:	24000000 	strcs	r0, [r0], #-0
    2bc4:	01000000 	mrseq	r0, (UNDEF: 0)
    2bc8:	00285000 	eoreq	r5, r8, r0
    2bcc:	002c0000 	eoreq	r0, ip, r0
    2bd0:	00030000 	andeq	r0, r3, r0
    2bd4:	009f7f70 	addseq	r7, pc, r0, ror pc	; <UNPREDICTABLE>
    2bd8:	00000000 	andeq	r0, r0, r0
    2bdc:	02000000 	andeq	r0, r0, #0, 0
	...
    2be8:	00000c00 	andeq	r0, r0, r0, lsl #24
    2bec:	51000100 	mrspl	r0, (UNDEF: 16)
    2bf0:	0000000c 	andeq	r0, r0, ip
    2bf4:	00000010 	andeq	r0, r0, r0, lsl r0
    2bf8:	01710003 	cmneq	r1, r3
    2bfc:	0000109f 	muleq	r0, pc, r0	; <UNPREDICTABLE>
    2c00:	00003000 	andeq	r3, r0, r0
    2c04:	51000100 	mrspl	r0, (UNDEF: 16)
	...

Disassembly of section .debug_aranges:

00000000 <.debug_aranges>:
   0:	0000001c 	andeq	r0, r0, ip, lsl r0
   4:	00000002 	andeq	r0, r0, r2
   8:	00040000 	andeq	r0, r4, r0
   c:	00000000 	andeq	r0, r0, r0
  10:	00008038 	andeq	r8, r0, r8, lsr r0
  14:	000000a8 	andeq	r0, r0, r8, lsr #1
	...
  20:	0000001c 	andeq	r0, r0, ip, lsl r0
  24:	02aa0002 	adceq	r0, sl, #2, 0
  28:	00040000 	andeq	r0, r4, r0
  2c:	00000000 	andeq	r0, r0, r0
  30:	000080e0 	andeq	r8, r0, r0, ror #1
  34:	000002b4 			; <UNDEFINED> instruction: 0x000002b4
	...
  40:	0000001c 	andeq	r0, r0, ip, lsl r0
  44:	0e040002 	cdpeq	0, 0, cr0, cr4, cr2, {0}
  48:	00040000 	andeq	r0, r4, r0
  4c:	00000000 	andeq	r0, r0, r0
  50:	00008394 	muleq	r0, r4, r3
  54:	00000578 	andeq	r0, r0, r8, ror r5
	...
  60:	0000001c 	andeq	r0, r0, ip, lsl r0
  64:	21de0002 	bicscs	r0, lr, r2
  68:	00040000 	andeq	r0, r4, r0
  6c:	00000000 	andeq	r0, r0, r0
  70:	0000890c 	andeq	r8, r0, ip, lsl #18
  74:	00000198 	muleq	r0, r8, r1
	...
  80:	0000001c 	andeq	r0, r0, ip, lsl r0
  84:	28550002 	ldmdacs	r5, {r1}^
  88:	00040000 	andeq	r0, r4, r0
  8c:	00000000 	andeq	r0, r0, r0
  90:	00008aa4 	andeq	r8, r0, r4, lsr #21
  94:	00000058 	andeq	r0, r0, r8, asr r0
	...
  a0:	0000001c 	andeq	r0, r0, ip, lsl r0
  a4:	29f60002 	ldmibcs	r6!, {r1}^
  a8:	00040000 	andeq	r0, r4, r0
  ac:	00000000 	andeq	r0, r0, r0
  b0:	00008afc 	strdeq	r8, [r0], -ip
  b4:	0000003c 	andeq	r0, r0, ip, lsr r0
	...
  c0:	0000001c 	andeq	r0, r0, ip, lsl r0
  c4:	2b430002 	blcs	10c00d4 <__bss_end__+0x10b5dc4>
  c8:	00040000 	andeq	r0, r4, r0
  cc:	00000000 	andeq	r0, r0, r0
  d0:	00008b38 	andeq	r8, r0, r8, lsr fp
  d4:	00000038 	andeq	r0, r0, r8, lsr r0
	...
  e0:	0000001c 	andeq	r0, r0, ip, lsl r0
  e4:	2c3a0002 	ldccs	0, cr0, [sl], #-8
  e8:	00040000 	andeq	r0, r4, r0
  ec:	00000000 	andeq	r0, r0, r0
  f0:	00008b70 	andeq	r8, r0, r0, ror fp
  f4:	000009b4 			; <UNDEFINED> instruction: 0x000009b4
	...
 100:	0000001c 	andeq	r0, r0, ip, lsl r0
 104:	38bd0002 	ldmfdcc	sp!, {r1}
 108:	00040000 	andeq	r0, r4, r0
 10c:	00000000 	andeq	r0, r0, r0
 110:	00009524 	andeq	r9, r0, r4, lsr #10
 114:	0000002c 	andeq	r0, r0, ip, lsr #32
	...
 120:	0000001c 	andeq	r0, r0, ip, lsl r0
 124:	39f00002 	ldmibcc	r0!, {r1}^
 128:	00040000 	andeq	r0, r4, r0
 12c:	00000000 	andeq	r0, r0, r0
 130:	00009550 	andeq	r9, r0, r0, asr r5
 134:	00000128 	andeq	r0, r0, r8, lsr #2
	...
 140:	0000001c 	andeq	r0, r0, ip, lsl r0
 144:	3ca50002 	stccc	0, cr0, [r5], #8
 148:	00040000 	andeq	r0, r4, r0
 14c:	00000000 	andeq	r0, r0, r0
 150:	00009678 	andeq	r9, r0, r8, ror r6
 154:	00000004 	andeq	r0, r0, r4
	...
 160:	0000001c 	andeq	r0, r0, ip, lsl r0
 164:	3d770002 	ldclcc	0, cr0, [r7, #-8]!
 168:	00040000 	andeq	r0, r4, r0
 16c:	00000000 	andeq	r0, r0, r0
 170:	00009694 	muleq	r0, r4, r6
 174:	0000008c 	andeq	r0, r0, ip, lsl #1
	...
 180:	0000001c 	andeq	r0, r0, ip, lsl r0
 184:	3ff80002 	svccc	0x00f80002
 188:	00040000 	andeq	r0, r4, r0
 18c:	00000000 	andeq	r0, r0, r0
 190:	00009720 	andeq	r9, r0, r0, lsr #14
 194:	0000011c 	andeq	r0, r0, ip, lsl r1
	...
 1a0:	0000001c 	andeq	r0, r0, ip, lsl r0
 1a4:	453b0002 	ldrmi	r0, [fp, #-2]!
 1a8:	00040000 	andeq	r0, r4, r0
 1ac:	00000000 	andeq	r0, r0, r0
 1b0:	0000983c 	andeq	r9, r0, ip, lsr r8
 1b4:	000001f0 	strdeq	r0, [r0], -r0	; <UNPREDICTABLE>
	...
 1c0:	0000001c 	andeq	r0, r0, ip, lsl r0
 1c4:	4b0c0002 	blmi	3001d4 <__bss_end__+0x2f5ec4>
 1c8:	00040000 	andeq	r0, r4, r0
 1cc:	00000000 	andeq	r0, r0, r0
 1d0:	00009a2c 	andeq	r9, r0, ip, lsr #20
 1d4:	0000002c 	andeq	r0, r0, ip, lsr #32
	...
 1e0:	0000001c 	andeq	r0, r0, ip, lsl r0
 1e4:	4c470002 	mcrrmi	0, 0, r0, r7, cr2
 1e8:	00040000 	andeq	r0, r4, r0
 1ec:	00000000 	andeq	r0, r0, r0
 1f0:	00009a58 	andeq	r9, r0, r8, asr sl
 1f4:	00000044 	andeq	r0, r0, r4, asr #32
	...
 200:	0000001c 	andeq	r0, r0, ip, lsl r0
 204:	4d420002 	stclmi	0, cr0, [r2, #-8]
 208:	00040000 	andeq	r0, r4, r0
 20c:	00000000 	andeq	r0, r0, r0
 210:	00009a9c 	muleq	r0, ip, sl
 214:	00000018 	andeq	r0, r0, r8, lsl r0
	...
 220:	0000001c 	andeq	r0, r0, ip, lsl r0
 224:	4e550002 	cdpmi	0, 5, cr0, cr5, cr2, {0}
 228:	00040000 	andeq	r0, r4, r0
 22c:	00000000 	andeq	r0, r0, r0
 230:	00009ab4 			; <UNDEFINED> instruction: 0x00009ab4
 234:	00000030 	andeq	r0, r0, r0, lsr r0
	...
 240:	0000001c 	andeq	r0, r0, ip, lsl r0
 244:	4fa70002 	svcmi	0x00a70002
 248:	00040000 	andeq	r0, r4, r0
 24c:	00000000 	andeq	r0, r0, r0
 250:	00009ae4 	andeq	r9, r0, r4, ror #21
 254:	00000004 	andeq	r0, r0, r4
	...

Disassembly of section .debug_ranges:

00000000 <.debug_ranges>:
   0:	00000014 	andeq	r0, r0, r4, lsl r0
   4:	00000024 	andeq	r0, r0, r4, lsr #32
   8:	00000028 	andeq	r0, r0, r8, lsr #32
   c:	000000a8 	andeq	r0, r0, r8, lsr #1
	...
  18:	0000001c 	andeq	r0, r0, ip, lsl r0
  1c:	00000024 	andeq	r0, r0, r4, lsr #32
  20:	00000028 	andeq	r0, r0, r8, lsr #32
  24:	00000044 	andeq	r0, r0, r4, asr #32
  28:	00000054 	andeq	r0, r0, r4, asr r0
  2c:	000000a8 	andeq	r0, r0, r8, lsr #1
	...
  38:	00000028 	andeq	r0, r0, r8, lsr #32
  3c:	0000003c 	andeq	r0, r0, ip, lsr r0
  40:	00000088 	andeq	r0, r0, r8, lsl #1
  44:	000000a8 	andeq	r0, r0, r8, lsr #1
	...
  50:	000000a4 	andeq	r0, r0, r4, lsr #1
  54:	000000c8 	andeq	r0, r0, r8, asr #1
  58:	000000d0 	ldrdeq	r0, [r0], -r0	; <UNPREDICTABLE>
  5c:	000000d4 	ldrdeq	r0, [r0], -r4
	...
  68:	00000138 	andeq	r0, r0, r8, lsr r1
  6c:	0000013c 	andeq	r0, r0, ip, lsr r1
  70:	0000013c 	andeq	r0, r0, ip, lsr r1
  74:	00000140 	andeq	r0, r0, r0, asr #2
	...
  80:	00000148 	andeq	r0, r0, r8, asr #2
  84:	0000014c 	andeq	r0, r0, ip, asr #2
  88:	0000014c 	andeq	r0, r0, ip, asr #2
  8c:	00000150 	andeq	r0, r0, r0, asr r1
	...
  98:	00000180 	andeq	r0, r0, r0, lsl #3
  9c:	00000184 	andeq	r0, r0, r4, lsl #3
  a0:	00000184 	andeq	r0, r0, r4, lsl #3
  a4:	00000188 	andeq	r0, r0, r8, lsl #3
	...
  b0:	00000190 	muleq	r0, r0, r1
  b4:	00000190 	muleq	r0, r0, r1
  b8:	00000190 	muleq	r0, r0, r1
  bc:	00000190 	muleq	r0, r0, r1
	...
  c8:	00000008 	andeq	r0, r0, r8
  cc:	0000000c 	andeq	r0, r0, ip
  d0:	00000014 	andeq	r0, r0, r4, lsl r0
  d4:	00000054 	andeq	r0, r0, r4, asr r0
  d8:	00000058 	andeq	r0, r0, r8, asr r0
  dc:	00000060 	andeq	r0, r0, r0, rrx
	...
  e8:	00000060 	andeq	r0, r0, r0, rrx
  ec:	00000068 	andeq	r0, r0, r8, rrx
  f0:	0000006c 	andeq	r0, r0, ip, rrx
  f4:	000000ac 	andeq	r0, r0, ip, lsr #1
  f8:	000000b0 	strheq	r0, [r0], -r0	; <UNPREDICTABLE>
  fc:	000000b8 	strheq	r0, [r0], -r8
	...
 108:	00000068 	andeq	r0, r0, r8, rrx
 10c:	00000068 	andeq	r0, r0, r8, rrx
 110:	0000006c 	andeq	r0, r0, ip, rrx
 114:	000000ac 	andeq	r0, r0, ip, lsr #1
 118:	000000b0 	strheq	r0, [r0], -r0	; <UNPREDICTABLE>
 11c:	000000b8 	strheq	r0, [r0], -r8
	...
 128:	000000e8 	andeq	r0, r0, r8, ror #1
 12c:	000000f0 	strdeq	r0, [r0], -r0	; <UNPREDICTABLE>
 130:	000000f4 	strdeq	r0, [r0], -r4
 134:	00000134 	andeq	r0, r0, r4, lsr r1
 138:	00000138 	andeq	r0, r0, r8, lsr r1
 13c:	00000140 	andeq	r0, r0, r0, asr #2
	...
 148:	000000f0 	strdeq	r0, [r0], -r0	; <UNPREDICTABLE>
 14c:	000000f0 	strdeq	r0, [r0], -r0	; <UNPREDICTABLE>
 150:	000000f4 	strdeq	r0, [r0], -r4
 154:	00000134 	andeq	r0, r0, r4, lsr r1
 158:	00000138 	andeq	r0, r0, r8, lsr r1
 15c:	00000140 	andeq	r0, r0, r0, asr #2
	...
 168:	00000144 	andeq	r0, r0, r4, asr #2
 16c:	00000148 	andeq	r0, r0, r8, asr #2
 170:	00000150 	andeq	r0, r0, r0, asr r1
 174:	0000015c 	andeq	r0, r0, ip, asr r1
	...
 180:	000000a4 	andeq	r0, r0, r4, lsr #1
 184:	00000148 	andeq	r0, r0, r8, asr #2
 188:	00000158 	andeq	r0, r0, r8, asr r1
 18c:	0000015c 	andeq	r0, r0, ip, asr r1
 190:	00000274 	andeq	r0, r0, r4, ror r2
 194:	00000278 	andeq	r0, r0, r8, ror r2
 198:	0000027c 	andeq	r0, r0, ip, ror r2
 19c:	00000280 	andeq	r0, r0, r0, lsl #5
 1a0:	00000288 	andeq	r0, r0, r8, lsl #5
 1a4:	0000029c 	muleq	r0, ip, r2
 1a8:	000002c0 	andeq	r0, r0, r0, asr #5
 1ac:	000002cc 	andeq	r0, r0, ip, asr #5
 1b0:	000002f0 	strdeq	r0, [r0], -r0	; <UNPREDICTABLE>
 1b4:	000002f0 	strdeq	r0, [r0], -r0	; <UNPREDICTABLE>
 1b8:	000002f4 	strdeq	r0, [r0], -r4
 1bc:	000002f8 	strdeq	r0, [r0], -r8
	...
 1c8:	00000148 	andeq	r0, r0, r8, asr #2
 1cc:	00000158 	andeq	r0, r0, r8, asr r1
 1d0:	0000015c 	andeq	r0, r0, ip, asr r1
 1d4:	0000018c 	andeq	r0, r0, ip, lsl #3
 1d8:	0000029c 	muleq	r0, ip, r2
 1dc:	000002ac 	andeq	r0, r0, ip, lsr #5
	...
 1e8:	000003c8 	andeq	r0, r0, r8, asr #7
 1ec:	000003d0 	ldrdeq	r0, [r0], -r0	; <UNPREDICTABLE>
 1f0:	00000404 	andeq	r0, r0, r4, lsl #8
 1f4:	000004ac 	andeq	r0, r0, ip, lsr #9
 1f8:	000004c0 	andeq	r0, r0, r0, asr #9
 1fc:	00000920 	andeq	r0, r0, r0, lsr #18
 200:	00000928 	andeq	r0, r0, r8, lsr #18
 204:	000009b4 			; <UNDEFINED> instruction: 0x000009b4
	...
 210:	000003c8 	andeq	r0, r0, r8, asr #7
 214:	000003d0 	ldrdeq	r0, [r0], -r0	; <UNPREDICTABLE>
 218:	00000504 	andeq	r0, r0, r4, lsl #10
 21c:	000005d0 	ldrdeq	r0, [r0], -r0	; <UNPREDICTABLE>
 220:	00000800 	andeq	r0, r0, r0, lsl #16
 224:	00000888 	andeq	r0, r0, r8, lsl #17
 228:	00000930 	andeq	r0, r0, r0, lsr r9
 22c:	000009b4 			; <UNDEFINED> instruction: 0x000009b4
	...
 238:	00000404 	andeq	r0, r0, r4, lsl #8
 23c:	00000408 	andeq	r0, r0, r8, lsl #8
 240:	00000414 	andeq	r0, r0, r4, lsl r4
 244:	00000414 	andeq	r0, r0, r4, lsl r4
 248:	00000428 	andeq	r0, r0, r8, lsr #8
 24c:	0000042c 	andeq	r0, r0, ip, lsr #8
	...
 258:	000005fc 	strdeq	r0, [r0], -ip
 25c:	00000700 	andeq	r0, r0, r0, lsl #14
 260:	000007ec 	andeq	r0, r0, ip, ror #15
 264:	000007f4 	strdeq	r0, [r0], -r4
 268:	00000888 	andeq	r0, r0, r8, lsl #17
 26c:	00000894 	muleq	r0, r4, r8
 270:	000008a8 	andeq	r0, r0, r8, lsr #17
 274:	000008bc 			; <UNDEFINED> instruction: 0x000008bc
 278:	00000910 	andeq	r0, r0, r0, lsl r9
 27c:	00000920 	andeq	r0, r0, r0, lsr #18
	...
 288:	00000600 	andeq	r0, r0, r0, lsl #12
 28c:	00000604 	andeq	r0, r0, r4, lsl #12
 290:	00000608 	andeq	r0, r0, r8, lsl #12
 294:	000006b4 			; <UNDEFINED> instruction: 0x000006b4
 298:	000006cc 	andeq	r0, r0, ip, asr #13
 29c:	000006d0 	ldrdeq	r0, [r0], -r0	; <UNPREDICTABLE>
 2a0:	000008a8 	andeq	r0, r0, r8, lsr #17
 2a4:	000008b8 			; <UNDEFINED> instruction: 0x000008b8
 2a8:	00000910 	andeq	r0, r0, r0, lsl r9
 2ac:	00000920 	andeq	r0, r0, r0, lsr #18
	...
 2b8:	000006b4 			; <UNDEFINED> instruction: 0x000006b4
 2bc:	000006cc 	andeq	r0, r0, ip, asr #13
 2c0:	000006d0 	ldrdeq	r0, [r0], -r0	; <UNPREDICTABLE>
 2c4:	00000700 	andeq	r0, r0, r0, lsl #14
 2c8:	000007ec 	andeq	r0, r0, ip, ror #15
 2cc:	000007f4 	strdeq	r0, [r0], -r4
 2d0:	00000888 	andeq	r0, r0, r8, lsl #17
 2d4:	00000894 	muleq	r0, r4, r8
 2d8:	000008b8 			; <UNDEFINED> instruction: 0x000008b8
 2dc:	000008bc 			; <UNDEFINED> instruction: 0x000008bc
	...
 2e8:	00000700 	andeq	r0, r0, r0, lsl #14
 2ec:	00000708 	andeq	r0, r0, r8, lsl #14
 2f0:	0000070c 	andeq	r0, r0, ip, lsl #14
 2f4:	000007ec 	andeq	r0, r0, ip, ror #15
 2f8:	00000894 	muleq	r0, r4, r8
 2fc:	000008a8 	andeq	r0, r0, r8, lsr #17
	...
 308:	00000728 	andeq	r0, r0, r8, lsr #14
 30c:	000007a4 	andeq	r0, r0, r4, lsr #15
 310:	000007ac 	andeq	r0, r0, ip, lsr #15
 314:	000007b0 			; <UNDEFINED> instruction: 0x000007b0
 318:	00000894 	muleq	r0, r4, r8
 31c:	00000898 	muleq	r0, r8, r8
 320:	0000089c 	muleq	r0, ip, r8
 324:	000008a0 	andeq	r0, r0, r0, lsr #17
	...
 330:	000007a4 	andeq	r0, r0, r4, lsr #15
 334:	000007ac 	andeq	r0, r0, ip, lsr #15
 338:	000007b0 			; <UNDEFINED> instruction: 0x000007b0
 33c:	000007ec 	andeq	r0, r0, ip, ror #15
 340:	00000898 	muleq	r0, r8, r8
 344:	0000089c 	muleq	r0, ip, r8
 348:	000008a0 	andeq	r0, r0, r0, lsr #17
 34c:	000008a8 	andeq	r0, r0, r8, lsr #17
	...
 358:	000000f0 	strdeq	r0, [r0], -r0	; <UNPREDICTABLE>
 35c:	000000f8 	strdeq	r0, [r0], -r8
 360:	000000fc 	strdeq	r0, [r0], -ip
 364:	00000108 	andeq	r0, r0, r8, lsl #2
	...
 370:	000096c0 	andeq	r9, r0, r0, asr #13
 374:	000096c0 	andeq	r9, r0, r0, asr #13
 378:	000096c4 	andeq	r9, r0, r4, asr #13
 37c:	000096cc 	andeq	r9, r0, ip, asr #13
	...
 388:	00009694 	muleq	r0, r4, r6
 38c:	00009720 	andeq	r9, r0, r0, lsr #14
	...
 398:	00000030 	andeq	r0, r0, r0, lsr r0
 39c:	00000030 	andeq	r0, r0, r0, lsr r0
 3a0:	00000038 	andeq	r0, r0, r8, lsr r0
 3a4:	0000004c 	andeq	r0, r0, ip, asr #32
	...
 3b0:	0000004c 	andeq	r0, r0, ip, asr #32
 3b4:	00000050 	andeq	r0, r0, r0, asr r0
 3b8:	00000050 	andeq	r0, r0, r0, asr r0
 3bc:	00000078 	andeq	r0, r0, r8, ror r0
	...
 3c8:	0000004c 	andeq	r0, r0, ip, asr #32
 3cc:	00000050 	andeq	r0, r0, r0, asr r0
 3d0:	00000050 	andeq	r0, r0, r0, asr r0
 3d4:	00000060 	andeq	r0, r0, r0, rrx
 3d8:	00000064 	andeq	r0, r0, r4, rrx
 3dc:	00000068 	andeq	r0, r0, r8, rrx
	...
 3e8:	0000004c 	andeq	r0, r0, ip, asr #32
 3ec:	00000050 	andeq	r0, r0, r0, asr r0
 3f0:	00000054 	andeq	r0, r0, r4, asr r0
 3f4:	00000060 	andeq	r0, r0, r0, rrx
	...
 400:	0000009c 	muleq	r0, ip, r0
 404:	000000a0 	andeq	r0, r0, r0, lsr #1
 408:	000000a0 	andeq	r0, r0, r0, lsr #1
 40c:	000000c8 	andeq	r0, r0, r8, asr #1
	...
 418:	0000009c 	muleq	r0, ip, r0
 41c:	000000a0 	andeq	r0, r0, r0, lsr #1
 420:	000000a0 	andeq	r0, r0, r0, lsr #1
 424:	000000b0 	strheq	r0, [r0], -r0	; <UNPREDICTABLE>
 428:	000000b4 	strheq	r0, [r0], -r4
 42c:	000000b8 	strheq	r0, [r0], -r8
	...
 438:	0000009c 	muleq	r0, ip, r0
 43c:	000000a0 	andeq	r0, r0, r0, lsr #1
 440:	000000a4 	andeq	r0, r0, r4, lsr #1
 444:	000000b0 	strheq	r0, [r0], -r0	; <UNPREDICTABLE>
	...
 450:	000000c8 	andeq	r0, r0, r8, asr #1
 454:	000000c8 	andeq	r0, r0, r8, asr #1
 458:	000000cc 	andeq	r0, r0, ip, asr #1
 45c:	0000011c 	andeq	r0, r0, ip, lsl r1
	...
 468:	000000f0 	strdeq	r0, [r0], -r0	; <UNPREDICTABLE>
 46c:	000000f4 	strdeq	r0, [r0], -r4
 470:	000000f4 	strdeq	r0, [r0], -r4
 474:	0000011c 	andeq	r0, r0, ip, lsl r1
	...
 480:	000000f0 	strdeq	r0, [r0], -r0	; <UNPREDICTABLE>
 484:	000000f4 	strdeq	r0, [r0], -r4
 488:	000000f4 	strdeq	r0, [r0], -r4
 48c:	00000104 	andeq	r0, r0, r4, lsl #2
 490:	00000108 	andeq	r0, r0, r8, lsl #2
 494:	0000010c 	andeq	r0, r0, ip, lsl #2
	...
 4a0:	000000f0 	strdeq	r0, [r0], -r0	; <UNPREDICTABLE>
 4a4:	000000f4 	strdeq	r0, [r0], -r4
 4a8:	000000f8 	strdeq	r0, [r0], -r8
 4ac:	00000104 	andeq	r0, r0, r4, lsl #2
	...

Disassembly of section .debug_line:

00000000 <.debug_line>:
       0:	0000012d 	andeq	r0, r0, sp, lsr #2
       4:	005f0003 	subseq	r0, pc, r3
       8:	01020000 	mrseq	r0, (UNDEF: 2)
       c:	000d0efb 	strdeq	r0, [sp], -fp
      10:	01010101 	tsteq	r1, r1, lsl #2
      14:	01000000 	mrseq	r0, (UNDEF: 0)
      18:	2f010000 	svccs	0x00010000
      1c:	72657355 	rsbvc	r7, r5, #1409286145	; 0x54000001
      20:	696d2f73 	stmdbvs	sp!, {r0, r1, r4, r5, r6, r8, r9, sl, fp, sp}^
      24:	2f73656c 	svccs	0x0073656c
      28:	72756f53 	rsbsvc	r6, r5, #332	; 0x14c
      2c:	632f6563 			; <UNDEFINED> instruction: 0x632f6563
      30:	30343273 	eorscc	r3, r4, r3, ror r2
      34:	6c2f786c 	stcvs	8, cr7, [pc], #-432	; fffffe8c <__bss_end__+0xffff5b7c>
      38:	69706269 	ldmdbvs	r0!, {r0, r3, r5, r6, r9, sp, lr}^
      3c:	636e692f 	cmnvs	lr, #770048	; 0xbc000
      40:	6564756c 	strbvs	r7, [r4, #-1388]!	; 0xfffffa94
      44:	72640000 	rsbvc	r0, r4, #0, 0
      48:	72657669 	rsbvc	r7, r5, #110100480	; 0x6900000
      4c:	0000632e 	andeq	r6, r0, lr, lsr #6
      50:	70720000 	rsbsvc	r0, r2, r0
      54:	00682e69 	rsbeq	r2, r8, r9, ror #28
      58:	61000001 	tstvs	r0, r1
      5c:	31317364 	teqcc	r1, r4, ror #6
      60:	682e3531 	stmdavs	lr!, {r0, r4, r5, r8, sl, ip, sp}
      64:	00000000 	andeq	r0, r0, r0
      68:	00140500 	andseq	r0, r4, r0, lsl #10
      6c:	80380205 	eorshi	r0, r8, r5, lsl #4
      70:	11030000 	mrsne	r0, (UNDEF: 3)
      74:	2f050501 	svccs	0x00050501
      78:	01061905 	tsteq	r6, r5, lsl #18
      7c:	4b060505 	blmi	181498 <__bss_end__+0x177188>
      80:	054a0101 	strbeq	r0, [sl, #-257]	; 0xfffffeff
      84:	010a0302 	tsteq	sl, r2, lsl #6
      88:	05010605 	streq	r0, [r1, #-1541]	; 0xfffff9fb
      8c:	0501060a 	streq	r0, [r1, #-1546]	; 0xfffff9f6
      90:	0d052e02 	stceq	14, cr2, [r5, #-8]
      94:	064b3306 	strbeq	r3, [fp], -r6, lsl #6
      98:	06020501 	streq	r0, [r2], -r1, lsl #10
      9c:	05010d03 	streq	r0, [r1, #-3331]	; 0xfffff2fd
      a0:	0402000d 	streq	r0, [r2], #-13
      a4:	2e7a0303 	cdpcs	3, 7, cr0, cr10, cr3, {0}
      a8:	02001f05 	andeq	r1, r0, #5, 30
      ac:	05490304 	strbeq	r0, [r9, #-772]	; 0xfffffcfc
      b0:	04020021 	streq	r0, [r2], #-33	; 0xffffffdf
      b4:	05010603 	streq	r0, [r1, #-1539]	; 0xfffff9fd
      b8:	04020018 	streq	r0, [r2], #-24	; 0xffffffe8
      bc:	052e0601 	streq	r0, [lr, #-1537]!	; 0xfffff9ff
      c0:	04020009 	streq	r0, [r2], #-9
      c4:	00010601 	andeq	r0, r1, r1, lsl #12
      c8:	06020402 	streq	r0, [r2], -r2, lsl #8
      cc:	001c054e 	andseq	r0, ip, lr, asr #10
      d0:	03020402 	movweq	r0, #9218	; 0x2402
      d4:	1d054a70 	vstrne	s8, [r5, #-448]	; 0xfffffe40
      d8:	02040200 	andeq	r0, r4, #0, 4
      dc:	11050106 	tstne	r5, r6, lsl #2
      e0:	01040200 	mrseq	r0, R12_usr
      e4:	02052e06 	andeq	r2, r5, #96	; 0x60
      e8:	01040200 	mrseq	r0, R12_usr
      ec:	09050106 	stmdbeq	r5, {r1, r2, r8}
      f0:	13056706 	movwne	r6, #22278	; 0x5706
      f4:	0f050106 	svceq	0x00050106
      f8:	06090566 	streq	r0, [r9], -r6, ror #10
      fc:	01160530 	tsteq	r6, r0, lsr r5
     100:	01062e01 	tsteq	r6, r1, lsl #28
     104:	13060905 	movwne	r0, #26885	; 0x6905
     108:	01060e05 	tsteq	r6, r5, lsl #28
     10c:	054a0c05 	strbeq	r0, [sl, #-3077]	; 0xfffff3fb
     110:	054e0609 	strbeq	r0, [lr, #-1545]	; 0xfffff9f7
     114:	2e010116 	mcrcs	1, 0, r0, cr1, cr6, {0}
     118:	09050106 	stmdbeq	r5, {r1, r2, r8}
     11c:	2e061406 	cdpcs	4, 0, cr1, cr6, cr6, {0}
     120:	0d054c06 	stceq	12, cr4, [r5, #-24]	; 0xffffffe8
     124:	06110501 	ldreq	r0, [r1], -r1, lsl #10
     128:	2e090501 	cfsh32cs	mvfx0, mvfx9, #1
     12c:	01000e02 	tsteq	r0, r2, lsl #28
     130:	0003d201 	andeq	sp, r3, r1, lsl #4
     134:	14000300 	strne	r0, [r0], #-768	; 0xfffffd00
     138:	02000001 	andeq	r0, r0, #1, 0
     13c:	0d0efb01 	vstreq	d15, [lr, #-4]
     140:	01010100 	mrseq	r0, (UNDEF: 17)
     144:	00000001 	andeq	r0, r0, r1
     148:	01000001 	tsteq	r0, r1
     14c:	6573552f 	ldrbvs	r5, [r3, #-1327]!	; 0xfffffad1
     150:	6d2f7372 	stcvs	3, cr7, [pc, #-456]!	; ffffff90 <__bss_end__+0xffff5c80>
     154:	73656c69 	cmnvc	r5, #26880	; 0x6900
     158:	756f532f 	strbvc	r5, [pc, #-815]!	; fffffe31 <__bss_end__+0xffff5b21>
     15c:	2f656372 	svccs	0x00656372
     160:	34327363 	ldrtcc	r7, [r2], #-867	; 0xfffffc9d
     164:	2f786c30 	svccs	0x00786c30
     168:	7062696c 	rsbvc	r6, r2, ip, ror #18
     16c:	696c2f69 	stmdbvs	ip!, {r0, r3, r5, r6, r8, r9, sl, fp, sp}^
     170:	2f006362 	svccs	0x00006362
     174:	2f74706f 	svccs	0x0074706f
     178:	656d6f68 	strbvs	r6, [sp, #-3944]!	; 0xfffff098
     17c:	77657262 	strbvc	r7, [r5, -r2, ror #4]!
     180:	6c65432f 	stclvs	3, cr4, [r5], #-188	; 0xffffff44
     184:	2f72616c 	svccs	0x0072616c
     188:	2d6d7261 	sfmcs	f7, 2, [sp, #-388]!	; 0xfffffe7c
     18c:	656e6f6e 	strbvs	r6, [lr, #-3950]!	; 0xfffff092
     190:	6261652d 	rsbvs	r6, r1, #188743680	; 0xb400000
     194:	2f392d69 	svccs	0x00392d69
     198:	30322d39 	eorscc	r2, r2, r9, lsr sp
     19c:	34713931 	ldrbtcc	r3, [r1], #-2353	; 0xfffff6cf
     1a0:	3173632d 	cmncc	r3, sp, lsr #6
     1a4:	2f653730 	svccs	0x00653730
     1a8:	2f62696c 	svccs	0x0062696c
     1ac:	2f636367 	svccs	0x00636367
     1b0:	2d6d7261 	sfmcs	f7, 2, [sp, #-388]!	; 0xfffffe7c
     1b4:	656e6f6e 	strbvs	r6, [lr, #-3950]!	; 0xfffff092
     1b8:	6261652d 	rsbvs	r6, r1, #188743680	; 0xb400000
     1bc:	2e392f69 	cdpcs	15, 3, cr2, cr9, cr9, {3}
     1c0:	2f312e32 	svccs	0x00312e32
     1c4:	6c636e69 	stclvs	14, cr6, [r3], #-420	; 0xfffffe5c
     1c8:	00656475 	rsbeq	r6, r5, r5, ror r4
     1cc:	6573552f 	ldrbvs	r5, [r3, #-1327]!	; 0xfffffad1
     1d0:	6d2f7372 	stcvs	3, cr7, [pc, #-456]!	; 10 <__code_start__-0x7ff0>
     1d4:	73656c69 	cmnvc	r5, #26880	; 0x6900
     1d8:	756f532f 	strbvc	r5, [pc, #-815]!	; fffffeb1 <__bss_end__+0xffff5ba1>
     1dc:	2f656372 	svccs	0x00656372
     1e0:	34327363 	ldrtcc	r7, [r2], #-867	; 0xfffffc9d
     1e4:	2f786c30 	svccs	0x00786c30
     1e8:	7062696c 	rsbvc	r6, r2, ip, ror #18
     1ec:	6e692f69 	cdpvs	15, 6, cr2, cr9, cr9, {3}
     1f0:	64756c63 	ldrbtvs	r6, [r5], #-3171	; 0xfffff39d
     1f4:	61000065 	tstvs	r0, r5, rrx
     1f8:	31317364 	teqcc	r1, r4, ror #6
     1fc:	632e3531 			; <UNDEFINED> instruction: 0x632e3531
     200:	00000000 	andeq	r0, r0, r0
     204:	2d746962 			; <UNDEFINED> instruction: 0x2d746962
     208:	70707573 	rsbsvc	r7, r0, r3, ror r5
     20c:	2e74726f 	cdpcs	2, 7, cr7, cr4, cr15, {3}
     210:	00010068 	andeq	r0, r1, r8, rrx
     214:	64747300 	ldrbtvs	r7, [r4], #-768	; 0xfffffd00
     218:	2d746e69 	ldclcs	14, cr6, [r4, #-420]!	; 0xfffffe5c
     21c:	2e636367 	cdpcs	3, 6, cr6, cr3, cr7, {3}
     220:	00020068 	andeq	r0, r2, r8, rrx
     224:	69707200 	ldmdbvs	r0!, {r9, ip, sp, lr}^
     228:	0300682e 	movweq	r6, #2094	; 0x82e
     22c:	64610000 	strbtvs	r0, [r1], #-0
     230:	31313173 	teqcc	r1, r3, ror r1
     234:	00682e35 	rsbeq	r2, r8, r5, lsr lr
     238:	69000000 	stmdbvs	r0, {}	; <UNPREDICTABLE>
     23c:	682e6332 	stmdavs	lr!, {r1, r4, r5, r8, r9, sp, lr}
     240:	00000000 	andeq	r0, r0, r0
     244:	6f697067 	svcvs	0x00697067
     248:	0300682e 	movweq	r6, #2094	; 0x82e
     24c:	05000000 	streq	r0, [r0, #-0]
     250:	0205001a 	andeq	r0, r5, #26, 0
     254:	000080e0 	andeq	r8, r0, r0, ror #1
     258:	05012203 	streq	r2, [r1, #-515]	; 0xfffffdfd
     25c:	0d054b05 	vstreq	d4, [r5, #-20]	; 0xffffffec
     260:	05050106 	streq	r0, [r5, #-262]	; 0xfffffefa
     264:	01054b06 	tsteq	r5, r6, lsl #22
     268:	41058306 	tstmi	r5, r6, lsl #6
     26c:	01065206 	tsteq	r6, r6, lsl #4
     270:	4b060505 	blmi	18168c <__bss_end__+0x17737c>
     274:	06110513 			; <UNDEFINED> instruction: 0x06110513
     278:	06050501 	streq	r0, [r5], -r1, lsl #10
     27c:	0611052f 	ldreq	r0, [r1], -pc, lsr #10
     280:	06050501 	streq	r0, [r5], -r1, lsl #10
     284:	0611054b 	ldreq	r0, [r1], -fp, asr #10
     288:	06050501 	streq	r0, [r5], -r1, lsl #10
     28c:	2e2e062f 	cfmadda32cs	mvax1, mvax0, mvfx14, mvfx15
     290:	052f0105 	streq	r0, [pc, #-261]!	; 193 <__code_start__-0x7e6d>
     294:	06500638 			; <UNDEFINED> instruction: 0x06500638
     298:	06050501 	streq	r0, [r5], -r1, lsl #10
     29c:	064a0683 	strbeq	r0, [sl], -r3, lsl #13
     2a0:	05841330 	streq	r1, [r4, #816]	; 0x330
     2a4:	05010611 	streq	r0, [r1, #-1553]	; 0xfffff9ef
     2a8:	01052e20 	tsteq	r5, r0, lsr #28
     2ac:	0636052f 	ldrteq	r0, [r6], -pc, lsr #10
     2b0:	05010668 	streq	r0, [r1, #-1640]	; 0xfffff998
     2b4:	054b0605 	strbeq	r0, [fp, #-1541]	; 0xfffff9fb
     2b8:	2e010613 	mcrcs	6, 0, r0, cr1, cr3, {0}
     2bc:	2f060505 	svccs	0x00060505
     2c0:	05130905 	ldreq	r0, [r3, #-2309]	; 0xfffff6fb
     2c4:	05010617 	streq	r0, [r1, #-1559]	; 0xfffff9e9
     2c8:	054b0609 	strbeq	r0, [fp, #-1545]	; 0xfffff9f7
     2cc:	2e01060d 	cfmadd32cs	mvax0, mvfx0, mvfx1, mvfx13
     2d0:	052e0c05 	streq	r0, [lr, #-3077]!	; 0xfffff3fb
     2d4:	054d0609 	strbeq	r0, [sp, #-1545]	; 0xfffff9f7
     2d8:	05010611 	streq	r0, [r1, #-1553]	; 0xfffff9ef
     2dc:	054e2e0c 	strbeq	r2, [lr, #-3596]	; 0xfffff1f4
     2e0:	4a7a0314 	bmi	1e80f38 <__bss_end__+0x1e76c28>
     2e4:	05350105 	ldreq	r0, [r5, #-261]!	; 0xfffffefb
     2e8:	0531061e 	ldreq	r0, [r1, #-1566]!	; 0xfffff9e2
     2ec:	2f4b4b05 	svccs	0x004b4b05
     2f0:	10034d4c 	andne	r4, r3, ip, asr #26
     2f4:	02053101 	andeq	r3, r5, #1073741824	; 0x40000000
     2f8:	060f054d 	streq	r0, [pc], -sp, asr #10
     2fc:	06020501 	streq	r0, [r2], -r1, lsl #10
     300:	059e0683 	ldreq	r0, [lr, #1667]	; 0x683
     304:	01340605 	teqeq	r4, r5, lsl #12
     308:	01050204 	tsteq	r5, r4, lsl #4
     30c:	017fa703 	cmneq	pc, r3, lsl #14
     310:	13130505 	tstne	r3, #20971520	; 0x1400000
     314:	01040106 	tsteq	r4, r6, lsl #2
     318:	0100d703 	tsteq	r0, r3, lsl #14
     31c:	01134a06 	tsteq	r3, r6, lsl #20
     320:	01050204 	tsteq	r5, r4, lsl #4
     324:	05016703 	streq	r6, [r1, #-1795]	; 0xfffff8fd
     328:	13131305 	tstne	r3, #335544320	; 0x14000000
     32c:	57030105 	strpl	r0, [r3, -r5, lsl #2]
     330:	13050501 	movwne	r0, #21761	; 0x5501
     334:	0f051313 	svceq	0x00051313
     338:	052e0106 	streq	r0, [lr, #-262]!	; 0xfffffefa
     33c:	75030605 	strvc	r0, [r3, #-1541]	; 0xfffff9fb
     340:	05131401 	ldreq	r1, [r3, #-1025]	; 0xfffffbff
     344:	2e1a0616 	mrccs	6, 0, r0, cr10, cr6, {0}
     348:	05050104 	streq	r0, [r5, #-260]	; 0xfffffefc
     34c:	06013c03 	streq	r3, [r1], -r3, lsl #24
     350:	0401134a 	streq	r1, [r1], #-842	; 0xfffffcb6
     354:	03010502 	movweq	r0, #5378	; 0x1502
     358:	05050166 	streq	r0, [r5, #-358]	; 0xfffffe9a
     35c:	05131313 	ldreq	r1, [r3, #-787]	; 0xfffffced
     360:	01570301 	cmpeq	r7, r1, lsl #6
     364:	13130505 	tstne	r3, #20971520	; 0x1400000
     368:	060f0513 			; <UNDEFINED> instruction: 0x060f0513
     36c:	05052e01 	streq	r2, [r5, #-3585]	; 0xfffff1ff
     370:	01750306 	cmneq	r5, r6, lsl #6
     374:	16051314 			; <UNDEFINED> instruction: 0x16051314
     378:	042e1a06 	strteq	r1, [lr], #-2566	; 0xfffff5fa
     37c:	03050501 	movweq	r0, #21761	; 0x5501
     380:	4a06013d 	bmi	18087c <__bss_end__+0x17656c>
     384:	02041319 	andeq	r1, r4, #1677721600	; 0x64000000
     388:	13014d03 	movwne	r4, #7427	; 0x1d03
     38c:	03131319 	tsteq	r3, #1677721600	; 0x64000000
     390:	13140159 	tstne	r4, #1073741846	; 0x40000016
     394:	03012603 	movweq	r2, #5635	; 0x1603
     398:	14130168 	ldrne	r0, [r3], #-360	; 0xfffffe98
     39c:	14016c03 	strne	r6, [r1], #-3075	; 0xfffff3fd
     3a0:	01140313 	tsteq	r4, r3, lsl r3
     3a4:	3a030104 	bcc	c07bc <__bss_end__+0xb64ac>
     3a8:	03020401 	movweq	r0, #9217	; 0x2401
     3ac:	13017f86 	movwne	r7, #8070	; 0x1f86
     3b0:	fa030104 	blx	c07c8 <__bss_end__+0xb64b8>
     3b4:	02040100 	andeq	r0, r4, #0
     3b8:	13014b03 	movwne	r4, #6915	; 0x1b03
     3bc:	03131319 	tsteq	r3, #1677721600	; 0x64000000
     3c0:	13140159 	tstne	r4, #1073741846	; 0x40000016
     3c4:	03012603 	movweq	r2, #5635	; 0x1603
     3c8:	14130168 	ldrne	r0, [r3], #-360	; 0xfffffe98
     3cc:	14016c03 	strne	r6, [r1], #-3075	; 0xfffff3fd
     3d0:	01140313 	tsteq	r4, r3, lsl r3
     3d4:	02050104 	andeq	r0, r5, #1
     3d8:	05013d03 	streq	r3, [r1, #-3331]	; 0xfffff2fd
     3dc:	05866705 	streq	r6, [r6, #1797]	; 0x705
     3e0:	05010609 	streq	r0, [r1, #-1545]	; 0xfffff9f7
     3e4:	01670605 	cmneq	r7, r5, lsl #12
     3e8:	01050204 	tsteq	r5, r4, lsl #4
     3ec:	05015403 	streq	r5, [r1, #-1027]	; 0xfffffbfd
     3f0:	13131305 	tstne	r3, #335544320	; 0x14000000
     3f4:	57030105 	strpl	r0, [r3, -r5, lsl #2]
     3f8:	13050501 	movwne	r0, #21761	; 0x5501
     3fc:	0f051313 	svceq	0x00051313
     400:	052e0106 	streq	r0, [lr, #-262]!	; 0xfffffefa
     404:	75030605 	strvc	r0, [r3, #-1541]	; 0xfffff9fb
     408:	05131401 	ldreq	r1, [r3, #-1025]	; 0xfffffbff
     40c:	2e1a0616 	mrccs	6, 0, r0, cr10, cr6, {0}
     410:	05050104 	streq	r0, [r5, #-260]	; 0xfffffefc
     414:	0100cf03 	tsteq	r0, r3, lsl #30
     418:	02040200 	andeq	r0, r4, #0, 4
     41c:	02004a06 	andeq	r4, r0, #24576	; 0x6000
     420:	00130204 	andseq	r0, r3, r4, lsl #4
     424:	01020402 	tsteq	r2, r2, lsl #8
     428:	01050204 	tsteq	r5, r4, lsl #4
     42c:	02040200 	andeq	r0, r4, #0, 4
     430:	017f9703 	cmneq	pc, r3, lsl #14
     434:	02000505 	andeq	r0, r0, #20971520	; 0x1400000
     438:	05130204 	ldreq	r0, [r3, #-516]	; 0xfffffdfc
     43c:	04020001 	streq	r0, [r2], #-1
     440:	017a0302 	cmneq	sl, r2, lsl #6
     444:	02000505 	andeq	r0, r0, #20971520	; 0x1400000
     448:	00130204 	andseq	r0, r3, r4, lsl #4
     44c:	13020402 	movwne	r0, #9218	; 0x2402
     450:	02040200 	andeq	r0, r4, #0, 4
     454:	01040106 	tsteq	r4, r6, lsl #2
     458:	02040200 	andeq	r0, r4, #0, 4
     45c:	0100ec03 	tsteq	r0, r3, lsl #24
     460:	01134a06 	tsteq	r3, r6, lsl #20
     464:	01050204 	tsteq	r5, r4, lsl #4
     468:	05015203 	streq	r5, [r1, #-515]	; 0xfffffdfd
     46c:	13131305 	tstne	r3, #335544320	; 0x14000000
     470:	57030105 	strpl	r0, [r3, -r5, lsl #2]
     474:	13050501 	movwne	r0, #21761	; 0x5501
     478:	01061313 	tsteq	r6, r3, lsl r3
     47c:	01750306 	cmneq	r5, r6, lsl #6
     480:	01041314 	tsteq	r4, r4, lsl r3
     484:	00d90306 	sbcseq	r0, r9, r6, lsl #6
     488:	04020001 	streq	r0, [r2], #-1
     48c:	004a0602 	subeq	r0, sl, r2, lsl #12
     490:	14020402 	strne	r0, [r2], #-1026	; 0xfffffbfe
     494:	02000105 	andeq	r0, r0, #1073741825	; 0x40000001
     498:	13060204 	movwne	r0, #25092	; 0x6204
     49c:	02040200 	andeq	r0, r4, #0, 4
     4a0:	0005052e 	andeq	r0, r5, lr, lsr #10
     4a4:	06010402 	streq	r0, [r1], -r2, lsl #8
     4a8:	004a6703 	subeq	r6, sl, r3, lsl #14
     4ac:	2e010402 	cdpcs	4, 0, cr0, cr1, cr2, {0}
     4b0:	01040200 	mrseq	r0, R12_usr
     4b4:	040200d6 	streq	r0, [r2], #-214	; 0xffffff2a
     4b8:	02002f01 	andeq	r2, r0, #1, 30
     4bc:	002e0104 	eoreq	r0, lr, r4, lsl #2
     4c0:	d6010402 	strle	r0, [r1], -r2, lsl #8
     4c4:	01040200 	mrseq	r0, R12_usr
     4c8:	0402002f 	streq	r0, [r2], #-47	; 0xffffffd1
     4cc:	02002e01 	andeq	r2, r0, #1, 28
     4d0:	00d60104 	sbcseq	r0, r6, r4, lsl #2
     4d4:	03010402 	movweq	r0, #5122	; 0x1402
     4d8:	02002e12 	andeq	r2, r0, #288	; 0x120
     4dc:	002e0104 	eoreq	r0, lr, r4, lsl #2
     4e0:	d6010402 	strle	r0, [r1], -r2, lsl #8
     4e4:	01040200 	mrseq	r0, R12_usr
     4e8:	0402002f 	streq	r0, [r2], #-47	; 0xffffffd1
     4ec:	02002e01 	andeq	r2, r0, #1, 28
     4f0:	00d60104 	sbcseq	r0, r6, r4, lsl #2
     4f4:	2f010402 	svccs	0x00010402
     4f8:	01040200 	mrseq	r0, R12_usr
     4fc:	0402002e 	streq	r0, [r2], #-46	; 0xffffffd2
     500:	1a02d601 	bne	b5d0c <__bss_end__+0xab9fc>
     504:	63010100 	movwvs	r0, #4352	; 0x1100
     508:	03000005 	movweq	r0, #5
     50c:	0000c200 	andeq	ip, r0, r0, lsl #4
     510:	fb010200 	blx	40d1a <__bss_end__+0x36a0a>
     514:	01000d0e 	tsteq	r0, lr, lsl #26
     518:	00010101 	andeq	r0, r1, r1, lsl #2
     51c:	00010000 	andeq	r0, r1, r0
     520:	752f0100 	strvc	r0, [pc, #-256]!	; 428 <__code_start__-0x7bd8>
     524:	732f7273 			; <UNDEFINED> instruction: 0x732f7273
     528:	65726168 	ldrbvs	r6, [r2, #-360]!	; 0xfffffe98
     52c:	6363672f 	cmnvs	r3, #12320768	; 0xbc0000
     530:	6d72612d 	ldfvse	f6, [r2, #-180]!	; 0xffffff4c
     534:	6e6f6e2d 	cdpvs	14, 6, cr6, cr15, cr13, {1}
     538:	61652d65 	cmnvs	r5, r5, ror #26
     53c:	312d6962 			; <UNDEFINED> instruction: 0x312d6962
     540:	2d332e30 	ldccs	14, cr2, [r3, #-192]!	; 0xffffff40
     544:	31323032 	teqcc	r2, r2, lsr r0
     548:	2f30312e 	svccs	0x0030312e
     54c:	2f62696c 	svccs	0x0062696c
     550:	2f636367 	svccs	0x00636367
     554:	2d6d7261 	sfmcs	f7, 2, [sp, #-388]!	; 0xfffffe7c
     558:	656e6f6e 	strbvs	r6, [lr, #-3950]!	; 0xfffff092
     55c:	6261652d 	rsbvs	r6, r1, #188743680	; 0xb400000
     560:	30312f69 	eorscc	r2, r1, r9, ror #30
     564:	312e332e 			; <UNDEFINED> instruction: 0x312e332e
     568:	636e692f 	cmnvs	lr, #770048	; 0xbc000
     56c:	6564756c 	strbvs	r7, [r4, #-1388]!	; 0xfffffa94
     570:	6f682f00 	svcvs	0x00682f00
     574:	652f656d 	strvs	r6, [pc, #-1389]!	; f <__code_start__-0x7ff1>
     578:	656c676e 	strbvs	r6, [ip, #-1902]!	; 0xfffff892
     57c:	6c632f72 	stclvs	15, cr2, [r3], #-456	; 0xfffffe38
     580:	2f737361 	svccs	0x00737361
     584:	39347363 	ldmdbcc	r4!, {r0, r1, r5, r6, r8, r9, ip, sp, lr}
     588:	31322d6e 	teqcc	r2, lr, ror #26
     58c:	2f747561 	svccs	0x00747561
     590:	62696c2f 	rsbvs	r6, r9, #12032	; 0x2f00
     594:	692f6970 	stmdbvs	pc!, {r4, r5, r6, r8, fp, sp, lr}	; <UNPREDICTABLE>
     598:	756c636e 	strbvc	r6, [ip, #-878]!	; 0xfffffc92
     59c:	00006564 	andeq	r6, r0, r4, ror #10
     5a0:	66617473 			; <UNDEFINED> instruction: 0x66617473
     5a4:	32692d66 	rsbcc	r2, r9, #6528	; 0x1980
     5a8:	00632e63 	rsbeq	r2, r3, r3, ror #28
     5ac:	73000000 	movwvc	r0, #0
     5b0:	6e696474 	mcrvs	4, 3, r6, cr9, cr4, {3}
     5b4:	63672d74 	cmnvs	r7, #116, 26	; 0x1d00
     5b8:	00682e63 	rsbeq	r2, r8, r3, ror #28
     5bc:	72000001 	andvc	r0, r0, #1, 0
     5c0:	682e6970 	stmdavs	lr!, {r4, r5, r6, r8, fp, sp, lr}
     5c4:	00000200 	andeq	r0, r0, r0, lsl #4
     5c8:	6f697067 	svcvs	0x00697067
     5cc:	0200682e 	andeq	r6, r0, #3014656	; 0x2e0000
     5d0:	05000000 	streq	r0, [r0, #-0]
     5d4:	02050029 	andeq	r0, r5, #41, 0	; 0x29
     5d8:	00008394 	muleq	r0, r4, r3
     5dc:	0100f603 	tsteq	r0, r3, lsl #12	; <UNPREDICTABLE>
     5e0:	13130205 	tstne	r3, #1342177280	; 0x50000000
     5e4:	060e0513 			; <UNDEFINED> instruction: 0x060e0513
     5e8:	02052e01 	andeq	r2, r5, #1, 28
     5ec:	0e052f06 	cdpeq	15, 0, cr2, cr5, cr6, {0}
     5f0:	02050106 	andeq	r0, r5, #-2147483647	; 0x80000001
     5f4:	01052f06 	tsteq	r5, r6, lsl #30
     5f8:	29051306 	stmdbcs	r5, {r1, r2, r8, r9, ip}
     5fc:	2e370306 	cdpcs	3, 3, cr0, cr7, cr6, {0}
     600:	13130205 	tstne	r3, #1342177280	; 0x50000000
     604:	13060105 	movwne	r0, #24837	; 0x6105
     608:	061c052e 	ldreq	r0, [ip], -lr, lsr #10
     60c:	4a00dd03 	bmi	37a20 <__bss_end__+0x2d710>
     610:	014c0205 	cmpeq	ip, r5, lsl #4
     614:	04040200 	streq	r0, [r4], #-512	; 0xfffffe00
     618:	04020001 	streq	r0, [r2], #-1
     61c:	02000104 	andeq	r0, r0, #1
     620:	00820504 	addeq	r0, r2, r4, lsl #10
     624:	82020402 	andhi	r0, r2, #33554432	; 0x2000000
     628:	02040200 	andeq	r0, r4, #0, 4
     62c:	04020001 	streq	r0, [r2], #-1
     630:	02008203 	andeq	r8, r0, #805306368	; 0x30000000
     634:	00010304 	andeq	r0, r1, r4, lsl #6
     638:	9e030402 	cdpls	4, 0, cr0, cr3, cr2, {0}
     63c:	01040200 	mrseq	r0, R12_usr
     640:	0402002e 	streq	r0, [r2], #-46	; 0xffffffd2
     644:	02000101 	andeq	r0, r0, #1073741824	; 0x40000000
     648:	009e0104 	addseq	r0, lr, r4, lsl #2
     64c:	2e060402 	cdpcs	4, 0, cr0, cr6, cr2, {0}
     650:	06040200 	streq	r0, [r4], -r0, lsl #4
     654:	04020015 	streq	r0, [r2], #-21	; 0xffffffeb
     658:	02000106 	andeq	r0, r0, #-2147483647	; 0x80000001
     65c:	00820204 	addeq	r0, r2, r4, lsl #4
     660:	01020402 	tsteq	r2, r2, lsl #8
     664:	02040200 	andeq	r0, r4, #0, 4
     668:	04020014 	streq	r0, [r2], #-20	; 0xffffffec
     66c:	02000102 	andeq	r0, r0, #-2147483648	; 0x80000000
     670:	00820204 	addeq	r0, r2, r4, lsl #4
     674:	01020402 	tsteq	r2, r2, lsl #8
     678:	02040200 	andeq	r0, r4, #0, 4
     67c:	00010514 	andeq	r0, r1, r4, lsl r5
     680:	06020402 	streq	r0, [r2], -r2, lsl #8
     684:	0002052f 	andeq	r0, r2, pc, lsr #10
     688:	06010402 	streq	r0, [r1], -r2, lsl #8
     68c:	04020045 	streq	r0, [r2], #-69	; 0xffffffbb
     690:	02000101 	andeq	r0, r0, #1073741824	; 0x40000000
     694:	00d60104 	sbcseq	r0, r6, r4, lsl #2
     698:	30010402 	andcc	r0, r1, r2, lsl #8
     69c:	01040200 	mrseq	r0, R12_usr
     6a0:	04020001 	streq	r0, [r2], #-1
     6a4:	3205d601 	andcc	sp, r5, #1048576	; 0x100000
     6a8:	087f9d03 	ldmdaeq	pc!, {r0, r1, r8, sl, fp, ip, pc}^	; <UNPREDICTABLE>
     6ac:	05010674 	streq	r0, [r1, #-1652]	; 0xfffff98c
     6b0:	052f0602 	streq	r0, [pc, #-1538]!	; b6 <__code_start__-0x7f4a>
     6b4:	01010111 	tsteq	r1, r1, lsl r1
     6b8:	01010101 	tsteq	r1, r1, lsl #2
     6bc:	0609052e 	streq	r0, [r9], -lr, lsr #10
     6c0:	2f010501 	svccs	0x00010501
     6c4:	03062005 	movweq	r2, #24581	; 0x6005
     6c8:	02052e2d 	andeq	r2, r5, #720	; 0x2d0
     6cc:	0611052f 	ldreq	r0, [r1], -pc, lsr #10
     6d0:	06030501 	streq	r0, [r3], -r1, lsl #10
     6d4:	05131667 	ldreq	r1, [r3, #-1639]	; 0xfffff999
     6d8:	01011302 	tsteq	r1, r2, lsl #6
     6dc:	01010101 	tsteq	r1, r1, lsl #2
     6e0:	01050101 	tsteq	r5, r1, lsl #2
     6e4:	32058306 	andcc	r8, r5, #402653184	; 0x18000000
     6e8:	7f8e0306 	svcvc	0x008e0306
     6ec:	0501064a 	streq	r0, [r1, #-1610]	; 0xfffff9b6
     6f0:	052f0602 	streq	r0, [pc, #-1538]!	; f6 <__code_start__-0x7f0a>
     6f4:	01010111 	tsteq	r1, r1, lsl r1
     6f8:	01010101 	tsteq	r1, r1, lsl #2
     6fc:	0609052e 	streq	r0, [r9], -lr, lsr #10
     700:	2f010501 	svccs	0x00010501
     704:	03064405 	movweq	r4, #25605	; 0x6405
     708:	062e00f2 			; <UNDEFINED> instruction: 0x062e00f2
     70c:	06050501 	streq	r0, [r5], -r1, lsl #10
     710:	3102059f 			; <UNDEFINED> instruction: 0x3102059f
     714:	04020001 	streq	r0, [r2], #-1
     718:	02000104 	andeq	r0, r0, #1
     71c:	00010404 	andeq	r0, r1, r4, lsl #8
     720:	82050402 	andhi	r0, r5, #33554432	; 0x2000000
     724:	02040200 	andeq	r0, r4, #0, 4
     728:	04020082 	streq	r0, [r2], #-130	; 0xffffff7e
     72c:	02000102 	andeq	r0, r0, #-2147483648	; 0x80000000
     730:	00820304 	addeq	r0, r2, r4, lsl #6
     734:	01030402 	tsteq	r3, r2, lsl #8
     738:	03040200 	movweq	r0, #16896	; 0x4200
     73c:	0402009e 	streq	r0, [r2], #-158	; 0xffffff62
     740:	02002e01 	andeq	r2, r0, #1, 28
     744:	00010104 	andeq	r0, r1, r4, lsl #2
     748:	9e010402 	cdpls	4, 0, cr0, cr1, cr2, {0}
     74c:	06040200 	streq	r0, [r4], -r0, lsl #4
     750:	0402002e 	streq	r0, [r2], #-46	; 0xffffffd2
     754:	02001506 	andeq	r1, r0, #25165824	; 0x1800000
     758:	00010604 	andeq	r0, r1, r4, lsl #12
     75c:	82020402 	andhi	r0, r2, #33554432	; 0x2000000
     760:	02040200 	andeq	r0, r4, #0, 4
     764:	04020001 	streq	r0, [r2], #-1
     768:	02001402 	andeq	r1, r0, #33554432	; 0x2000000
     76c:	00310204 	eorseq	r0, r1, r4, lsl #4
     770:	01020402 	tsteq	r2, r2, lsl #8
     774:	02040200 	andeq	r0, r4, #0, 4
     778:	0402004a 	streq	r0, [r2], #-74	; 0xffffffb6
     77c:	02000102 	andeq	r0, r0, #-2147483648	; 0x80000000
     780:	00130204 	andseq	r0, r3, r4, lsl #4
     784:	69020402 	stmdbvs	r2, {r1, sl}
     788:	02040200 	andeq	r0, r4, #0, 4
     78c:	04020001 	streq	r0, [r2], #-1
     790:	02004a02 	andeq	r4, r0, #8192	; 0x2000
     794:	00010204 	andeq	r0, r1, r4, lsl #4
     798:	13020402 	movwne	r0, #9218	; 0x2402
     79c:	02040200 	andeq	r0, r4, #0, 4
     7a0:	00110568 	andseq	r0, r1, r8, ror #10
     7a4:	06020402 	streq	r0, [r2], -r2, lsl #8
     7a8:	04020001 	streq	r0, [r2], #-1
     7ac:	03052e02 	movweq	r2, #24066	; 0x5e02
     7b0:	02040200 	andeq	r0, r4, #0, 4
     7b4:	02004b06 	andeq	r4, r0, #6144	; 0x1800
     7b8:	05130204 	ldreq	r0, [r3, #-516]	; 0xfffffdfc
     7bc:	04020008 	streq	r0, [r2], #-8
     7c0:	05010602 	streq	r0, [r1, #-1538]	; 0xfffff9fe
     7c4:	04020003 	streq	r0, [r2], #-3
     7c8:	052f0602 	streq	r0, [pc, #-1538]!	; 1ce <__code_start__-0x7e32>
     7cc:	0402000a 	streq	r0, [r2], #-10
     7d0:	00010602 	andeq	r0, r1, r2, lsl #12
     7d4:	2e020402 	cdpcs	4, 0, cr0, cr2, cr2, {0}
     7d8:	02000205 	andeq	r0, r0, #1342177280	; 0x50000000
     7dc:	2f060204 	svccs	0x00060204
     7e0:	02040200 	andeq	r0, r4, #0, 4
     7e4:	04020001 	streq	r0, [r2], #-1
     7e8:	02000102 	andeq	r0, r0, #-2147483648	; 0x80000000
     7ec:	00010204 	andeq	r0, r1, r4, lsl #4
     7f0:	01020402 	tsteq	r2, r2, lsl #8
     7f4:	02040200 	andeq	r0, r4, #0, 4
     7f8:	04020001 	streq	r0, [r2], #-1
     7fc:	02000102 	andeq	r0, r0, #-2147483648	; 0x80000000
     800:	00010204 	andeq	r0, r1, r4, lsl #4
     804:	01020402 	tsteq	r2, r2, lsl #8
     808:	02040200 	andeq	r0, r4, #0, 4
     80c:	0402006e 	streq	r0, [r2], #-110	; 0xffffff92
     810:	02000102 	andeq	r0, r0, #-2147483648	; 0x80000000
     814:	00010404 	andeq	r0, r1, r4, lsl #8
     818:	01040402 	tsteq	r4, r2, lsl #8
     81c:	05040200 	streq	r0, [r4, #-512]	; 0xfffffe00
     820:	04020082 	streq	r0, [r2], #-130	; 0xffffff7e
     824:	02008202 	andeq	r8, r0, #536870912	; 0x20000000
     828:	00010204 	andeq	r0, r1, r4, lsl #4
     82c:	82030402 	andhi	r0, r3, #33554432	; 0x2000000
     830:	03040200 	movweq	r0, #16896	; 0x4200
     834:	04020001 	streq	r0, [r2], #-1
     838:	02009e03 	andeq	r9, r0, #3, 28	; 0x30
     83c:	68030104 	stmdavs	r3, {r2, r8}
     840:	0402002e 	streq	r0, [r2], #-46	; 0xffffffd2
     844:	02000101 	andeq	r0, r0, #1073741824	; 0x40000000
     848:	00d60104 	sbcseq	r0, r6, r4, lsl #2
     84c:	33010402 	movwcc	r0, #5122	; 0x1402
     850:	01040200 	mrseq	r0, R12_usr
     854:	04020001 	streq	r0, [r2], #-1
     858:	0200d601 	andeq	sp, r0, #1048576	; 0x100000
     85c:	00320104 	eorseq	r0, r2, r4, lsl #2
     860:	01010402 	tsteq	r1, r2, lsl #8
     864:	01040200 	mrseq	r0, R12_usr
     868:	040200d6 	streq	r0, [r2], #-214	; 0xffffff2a
     86c:	2e0f0301 	cdpcs	3, 0, cr0, cr15, cr1, {0}
     870:	01040200 	mrseq	r0, R12_usr
     874:	04020001 	streq	r0, [r2], #-1
     878:	01059e01 	tsteq	r5, r1, lsl #28
     87c:	054a2f06 	strbeq	r2, [sl, #-3846]	; 0xfffff0fa
     880:	0500063f 	streq	r0, [r0, #-1599]	; 0xfffff9c1
     884:	0086cc02 	addeq	ip, r6, r2, lsl #24
     888:	010f0300 	mrseq	r0, SP_hyp
     88c:	02050106 	andeq	r0, r5, #-2147483647	; 0x80000001
     890:	2e066706 	cdpcs	7, 0, cr6, cr6, cr6, {0}
     894:	0530062e 	ldreq	r0, [r0, #-1582]!	; 0xfffff9d2
     898:	0f050106 	svceq	0x00050106
     89c:	02050106 	andeq	r0, r5, #-2147483647	; 0x80000001
     8a0:	0003052e 	andeq	r0, r3, lr, lsr #10
     8a4:	06010402 	streq	r0, [r1], -r2, lsl #8
     8a8:	04020030 	streq	r0, [r2], #-48	; 0xffffffd0
     8ac:	02000101 	andeq	r0, r0, #1073741824	; 0x40000000
     8b0:	4a060104 	bmi	180cc8 <__bss_end__+0x1769b8>
     8b4:	01040200 	mrseq	r0, R12_usr
     8b8:	02006606 	andeq	r6, r0, #6291456	; 0x600000
     8bc:	002e0604 	eoreq	r0, lr, r4, lsl #12
     8c0:	15060402 	strne	r0, [r6, #-1026]	; 0xfffffbfe
     8c4:	02001305 	andeq	r1, r0, #335544320	; 0x14000000
     8c8:	01060604 	tsteq	r6, r4, lsl #12
     8cc:	02000d05 	andeq	r0, r0, #320	; 0x140
     8d0:	052e0604 	streq	r0, [lr, #-1540]!	; 0xfffff9fc
     8d4:	04020022 	streq	r0, [r2], #-34	; 0xffffffde
     8d8:	05450606 	strbeq	r0, [r5, #-1542]	; 0xfffff9fa
     8dc:	04020023 	streq	r0, [r2], #-35	; 0xffffffdd
     8e0:	05010606 	streq	r0, [r1, #-1542]	; 0xfffff9fa
     8e4:	04020016 	streq	r0, [r2], #-22	; 0xffffffea
     8e8:	052e0602 	streq	r0, [lr, #-1538]!	; 0xfffff9fe
     8ec:	04020002 	streq	r0, [r2], #-2
     8f0:	05010602 	streq	r0, [r1, #-1538]	; 0xfffff9fe
     8f4:	04020003 	streq	r0, [r2], #-3
     8f8:	004c0604 	subeq	r0, ip, r4, lsl #12
     8fc:	01040402 	tsteq	r4, r2, lsl #8
     900:	05040200 	streq	r0, [r4, #-512]	; 0xfffffe00
     904:	04020082 	streq	r0, [r2], #-130	; 0xffffff7e
     908:	02008202 	andeq	r8, r0, #536870912	; 0x20000000
     90c:	00010204 	andeq	r0, r1, r4, lsl #4
     910:	82030402 	andhi	r0, r3, #33554432	; 0x2000000
     914:	03040200 	movweq	r0, #16896	; 0x4200
     918:	04020001 	streq	r0, [r2], #-1
     91c:	004a0603 	subeq	r0, sl, r3, lsl #12
     920:	06030402 	streq	r0, [r3], -r2, lsl #8
     924:	04020066 	streq	r0, [r2], #-102	; 0xffffff9a
     928:	052e0603 	streq	r0, [lr, #-1539]!	; 0xfffff9fd
     92c:	2f180602 	svccs	0x00180602
     930:	13060105 	movwne	r0, #24837	; 0x6105
     934:	f5063e05 			; <UNDEFINED> instruction: 0xf5063e05
     938:	02050106 	andeq	r0, r5, #-2147483647	; 0x80000001
     93c:	2e066706 	cdpcs	7, 0, cr6, cr6, cr6, {0}
     940:	0531062e 	ldreq	r0, [r1, #-1582]!	; 0xfffff9d2
     944:	0f050106 	svceq	0x00050106
     948:	02050106 	andeq	r0, r5, #-2147483647	; 0x80000001
     94c:	0003052e 	andeq	r0, r3, lr, lsr #10
     950:	06010402 	streq	r0, [r1], -r2, lsl #8
     954:	04020030 	streq	r0, [r2], #-48	; 0xffffffd0
     958:	02000101 	andeq	r0, r0, #1073741824	; 0x40000000
     95c:	4a060104 	bmi	180d74 <__bss_end__+0x176a64>
     960:	01040200 	mrseq	r0, R12_usr
     964:	02006606 	andeq	r6, r0, #6291456	; 0x600000
     968:	002e0604 	eoreq	r0, lr, r4, lsl #12
     96c:	15060402 	strne	r0, [r6, #-1026]	; 0xfffffbfe
     970:	02001005 	andeq	r1, r0, #5, 0
     974:	01060604 	tsteq	r6, r4, lsl #12
     978:	02000b05 	andeq	r0, r0, #5120	; 0x1400
     97c:	054a0604 	strbeq	r0, [sl, #-1540]	; 0xfffff9fc
     980:	04020022 	streq	r0, [r2], #-34	; 0xffffffde
     984:	05290606 	streq	r0, [r9, #-1542]!	; 0xfffff9fa
     988:	04020023 	streq	r0, [r2], #-35	; 0xffffffdd
     98c:	05010606 	streq	r0, [r1, #-1542]	; 0xfffff9fa
     990:	04020016 	streq	r0, [r2], #-22	; 0xffffffea
     994:	052e0602 	streq	r0, [lr, #-1538]!	; 0xfffff9fe
     998:	04020002 	streq	r0, [r2], #-2
     99c:	05010602 	streq	r0, [r1, #-1538]	; 0xfffff9fe
     9a0:	04020003 	streq	r0, [r2], #-3
     9a4:	004c0604 	subeq	r0, ip, r4, lsl #12
     9a8:	01040402 	tsteq	r4, r2, lsl #8
     9ac:	05040200 	streq	r0, [r4, #-512]	; 0xfffffe00
     9b0:	04020082 	streq	r0, [r2], #-130	; 0xffffff7e
     9b4:	02008202 	andeq	r8, r0, #536870912	; 0x20000000
     9b8:	00010204 	andeq	r0, r1, r4, lsl #4
     9bc:	82030402 	andhi	r0, r3, #33554432	; 0x2000000
     9c0:	03040200 	movweq	r0, #16896	; 0x4200
     9c4:	04020001 	streq	r0, [r2], #-1
     9c8:	004a0603 	subeq	r0, sl, r3, lsl #12
     9cc:	06030402 	streq	r0, [r3], -r2, lsl #8
     9d0:	04020066 	streq	r0, [r2], #-102	; 0xffffff9a
     9d4:	052e0603 	streq	r0, [lr, #-1539]!	; 0xfffff9fd
     9d8:	2f180602 	svccs	0x00180602
     9dc:	13060105 	movwne	r0, #24837	; 0x6105
     9e0:	f7061e05 			; <UNDEFINED> instruction: 0xf7061e05
     9e4:	05130205 	ldreq	r0, [r3, #-517]	; 0xfffffdfb
     9e8:	05130601 	ldreq	r0, [r3, #-1537]	; 0xfffff9ff
     9ec:	0b030615 	bleq	c2248 <__bss_end__+0xb7f38>
     9f0:	4b020582 	blmi	82000 <__bss_end__+0x77cf0>
     9f4:	32030515 	andcc	r0, r3, #88080384	; 0x5400000
     9f8:	05671313 	strbeq	r1, [r7, #-787]!	; 0xfffffced
     9fc:	03056902 	movweq	r6, #22786	; 0x5902
     a00:	01120532 	tsteq	r2, r2, lsr r5
     a04:	01010101 	tsteq	r1, r1, lsl #2
     a08:	05010101 	streq	r0, [r1, #-257]	; 0xfffffeff
     a0c:	2e131303 	cdpcs	3, 1, cr1, cr3, cr3, {0}
     a10:	01010101 	tsteq	r1, r1, lsl #2
     a14:	05010101 	streq	r0, [r1, #-257]	; 0xfffffeff
     a18:	03056902 	movweq	r6, #22786	; 0x5902
     a1c:	31020530 	tstcc	r2, r0, lsr r5
     a20:	0200012f 	andeq	r0, r0, #-1073741813	; 0xc000000b
     a24:	00660204 	rsbeq	r0, r6, r4, lsl #4
     a28:	01020402 	tsteq	r2, r2, lsl #8
     a2c:	02040200 	andeq	r0, r4, #0, 4
     a30:	00100514 	andseq	r0, r0, r4, lsl r5
     a34:	06020402 	streq	r0, [r2], -r2, lsl #8
     a38:	00010501 	andeq	r0, r1, r1, lsl #10
     a3c:	67020402 	strvs	r0, [r2, -r2, lsl #8]
     a40:	02000205 	andeq	r0, r0, #1342177280	; 0x50000000
     a44:	47060104 	strmi	r0, [r6, -r4, lsl #2]
     a48:	01040200 	mrseq	r0, R12_usr
     a4c:	04020001 	streq	r0, [r2], #-1
     a50:	1a05d601 	bne	17625c <__bss_end__+0x16bf4c>
     a54:	05f25903 	ldrbeq	r5, [r2, #2307]!	; 0x903
     a58:	05052f02 	streq	r2, [r5, #-3842]	; 0xfffff0fe
     a5c:	04050106 	streq	r0, [r5], #-262	; 0xfffffefa
     a60:	0602052e 	streq	r0, [r2], -lr, lsr #10
     a64:	0601054c 	streq	r0, [r1], -ip, asr #10
     a68:	0002022f 	andeq	r0, r2, pc, lsr #4
     a6c:	02890101 	addeq	r0, r9, #1073741824	; 0x40000000
     a70:	00030000 	andeq	r0, r3, r0
     a74:	000000c9 	andeq	r0, r0, r9, asr #1
     a78:	0efb0102 	cdpeq	1, 15, cr0, cr11, cr2, {0}
     a7c:	0101000d 	tsteq	r1, sp
     a80:	00000101 	andeq	r0, r0, r1, lsl #2
     a84:	00000100 	andeq	r0, r0, r0, lsl #2
     a88:	732f2e01 			; <UNDEFINED> instruction: 0x732f2e01
     a8c:	2f006372 	svccs	0x00006372
     a90:	72657355 	rsbvc	r7, r5, #1409286145	; 0x54000001
     a94:	696d2f73 	stmdbvs	sp!, {r0, r1, r4, r5, r6, r8, r9, sl, fp, sp}^
     a98:	2f73656c 	svccs	0x0073656c
     a9c:	72756f53 	rsbsvc	r6, r5, #332	; 0x14c
     aa0:	632f6563 			; <UNDEFINED> instruction: 0x632f6563
     aa4:	30343273 	eorscc	r3, r4, r3, ror r2
     aa8:	6c2f786c 	stcvs	8, cr7, [pc], #-432	; 900 <__code_start__-0x7700>
     aac:	69706269 	ldmdbvs	r0!, {r0, r3, r5, r6, r9, sp, lr}^
     ab0:	636e692f 	cmnvs	lr, #770048	; 0xbc000
     ab4:	6564756c 	strbvs	r7, [r4, #-1388]!	; 0xfffffa94
     ab8:	706f2f00 	rsbvc	r2, pc, r0, lsl #30
     abc:	6f682f74 	svcvs	0x00682f74
     ac0:	7262656d 	rsbvc	r6, r2, #457179136	; 0x1b400000
     ac4:	432f7765 			; <UNDEFINED> instruction: 0x432f7765
     ac8:	616c6c65 	cmnvs	ip, r5, ror #24
     acc:	72612f72 	rsbvc	r2, r1, #456	; 0x1c8
     ad0:	6f6e2d6d 	svcvs	0x006e2d6d
     ad4:	652d656e 	strvs	r6, [sp, #-1390]!	; 0xfffffa92
     ad8:	2d696261 	sfmcs	f6, 2, [r9, #-388]!	; 0xfffffe7c
     adc:	2d392f39 	ldccs	15, cr2, [r9, #-228]!	; 0xffffff1c
     ae0:	39313032 	ldmdbcc	r1!, {r1, r4, r5, ip, sp}
     ae4:	632d3471 			; <UNDEFINED> instruction: 0x632d3471
     ae8:	37303173 			; <UNDEFINED> instruction: 0x37303173
     aec:	696c2f65 	stmdbvs	ip!, {r0, r2, r5, r6, r8, r9, sl, fp, sp}^
     af0:	63672f62 	cmnvs	r7, #392	; 0x188
     af4:	72612f63 	rsbvc	r2, r1, #396	; 0x18c
     af8:	6f6e2d6d 	svcvs	0x006e2d6d
     afc:	652d656e 	strvs	r6, [sp, #-1390]!	; 0xfffffa92
     b00:	2f696261 	svccs	0x00696261
     b04:	2e322e39 	mrccs	14, 1, r2, cr2, cr9, {1}
     b08:	6e692f31 	mcrvs	15, 3, r2, cr9, cr1, {1}
     b0c:	64756c63 	ldrbtvs	r6, [r5], #-3171	; 0xfffff39d
     b10:	67000065 	strvs	r0, [r0, -r5, rrx]
     b14:	2e6f6970 			; <UNDEFINED> instruction: 0x2e6f6970
     b18:	00010063 	andeq	r0, r1, r3, rrx
     b1c:	69707200 	ldmdbvs	r0!, {r9, ip, sp, lr}^
     b20:	0200682e 	andeq	r6, r0, #3014656	; 0x2e0000
     b24:	74730000 	ldrbtvc	r0, [r3], #-0
     b28:	746e6964 	strbtvc	r6, [lr], #-2404	; 0xfffff69c
     b2c:	6363672d 	cmnvs	r3, #11796480	; 0xb40000
     b30:	0300682e 	movweq	r6, #2094	; 0x82e
     b34:	70670000 	rsbvc	r0, r7, r0
     b38:	682e6f69 	stmdavs	lr!, {r0, r3, r5, r6, r8, r9, sl, fp, sp, lr}
     b3c:	00000200 	andeq	r0, r0, r0, lsl #4
     b40:	00380500 	eorseq	r0, r8, r0, lsl #10
     b44:	890c0205 	stmdbhi	ip, {r0, r2, r9}
     b48:	27030000 	strcs	r0, [r3, -r0]
     b4c:	13050501 	movwne	r0, #21761	; 0x5501
     b50:	01060705 	tsteq	r6, r5, lsl #14
     b54:	49060605 	stmdbmi	r6, {r0, r2, r9, sl}
     b58:	05150505 	ldreq	r0, [r5, #-1285]	; 0xfffffafb
     b5c:	05010607 	streq	r0, [r1, #-1543]	; 0xfffff9f9
     b60:	07052b38 	smladxeq	r5, r8, fp, r2
     b64:	0605054d 	streq	r0, [r5], -sp, asr #10
     b68:	06180530 			; <UNDEFINED> instruction: 0x06180530
     b6c:	671c0501 	ldrvs	r0, [ip, -r1, lsl #10]
     b70:	054a0e05 	strbeq	r0, [sl, #-3589]	; 0xfffff1fb
     b74:	12052d18 	andne	r2, r5, #24, 26	; 0x600
     b78:	052f2e4d 	streq	r2, [pc, #-3661]!	; fffffd33 <__bss_end__+0xffff5a23>
     b7c:	05052a0e 	streq	r2, [r5, #-2574]	; 0xfffff5f2
     b80:	13142f06 	tstne	r4, #6, 30
     b84:	01060705 	tsteq	r6, r5, lsl #14
     b88:	2f060505 	svccs	0x00060505
     b8c:	2e2e0613 	mcrcs	6, 1, r0, cr14, cr3, {0}
     b90:	05130105 	ldreq	r0, [r3, #-261]	; 0xfffffefb
     b94:	052e2d05 	streq	r2, [lr, #-3333]!	; 0xfffff2fb
     b98:	05000624 	streq	r0, [r0, #-1572]	; 0xfffff9dc
     b9c:	00896c02 	addeq	r6, r9, r2, lsl #24
     ba0:	05051500 	streq	r1, [r5, #-1280]	; 0xfffffb00
     ba4:	03060513 	movweq	r0, #25875	; 0x6513
     ba8:	05050171 	streq	r0, [r5, #-369]	; 0xfffffe8f
     bac:	06070513 			; <UNDEFINED> instruction: 0x06070513
     bb0:	06060501 	streq	r0, [r6], -r1, lsl #10
     bb4:	15050549 	strne	r0, [r5, #-1353]	; 0xfffffab7
     bb8:	06240514 			; <UNDEFINED> instruction: 0x06240514
     bbc:	05010903 	streq	r0, [r1, #-2307]	; 0xfffff6fd
     bc0:	2e770318 	mrccs	3, 3, r0, cr7, cr8, {0}
     bc4:	05671c05 	strbeq	r1, [r7, #-3077]!	; 0xfffff3fb
     bc8:	18054a0e 	stmdane	r5, {r1, r2, r3, r9, fp, lr}
     bcc:	4d12052d 	cfldr32mi	mvfx0, [r2, #-180]	; 0xffffff4c
     bd0:	0f052f2e 	svceq	0x00052f2e
     bd4:	290e052f 	stmdbcs	lr, {r0, r1, r2, r3, r5, r8, sl}
     bd8:	2f060505 	svccs	0x00060505
     bdc:	07051314 	smladeq	r5, r4, r3, r1
     be0:	05050106 	streq	r0, [r5, #-262]	; 0xfffffefa
     be4:	06132f06 	ldreq	r2, [r3], -r6, lsl #30
     be8:	3301052e 	movwcc	r0, #5422	; 0x152e
     bec:	2e290505 	cfsh64cs	mvdx0, mvdx9, #5
     bf0:	00062705 	andeq	r2, r6, r5, lsl #14
     bf4:	89c40205 	stmibhi	r4, {r0, r2, r9}^
     bf8:	051a0000 	ldreq	r0, [sl, #-0]
     bfc:	27051305 	strcs	r1, [r5, -r5, lsl #6]
     c00:	18051106 	stmdane	r5, {r1, r2, r8, ip}
     c04:	2e05052f 	cfsh32cs	mvfx0, mvfx5, #31
     c08:	28054a2e 	stmdacs	r5, {r1, r2, r3, r5, r9, fp, lr}
     c0c:	02050006 	andeq	r0, r5, #6, 0
     c10:	000089dc 	ldrdeq	r8, [r0], -ip
     c14:	13050516 	movwne	r0, #21782	; 0x5516
     c18:	11062805 	tstne	r6, r5, lsl #16
     c1c:	052f1805 	streq	r1, [pc, #-2053]!	; 41f <__code_start__-0x7be1>
     c20:	4a2e2e05 	bmi	b8c43c <__bss_end__+0xb8212c>
     c24:	00062305 	andeq	r2, r6, r5, lsl #6
     c28:	89f40205 	ldmibhi	r4!, {r0, r2, r9}^
     c2c:	05160000 	ldreq	r0, [r6, #-0]
     c30:	06051305 	streq	r1, [r5], -r5, lsl #6
     c34:	05016203 	streq	r6, [r1, #-515]	; 0xfffffdfd
     c38:	07051305 	streq	r1, [r5, -r5, lsl #6]
     c3c:	06050106 	streq	r0, [r5], -r6, lsl #2
     c40:	05054906 	streq	r4, [r5, #-2310]	; 0xfffff6fa
     c44:	05131415 	ldreq	r1, [r3, #-1045]	; 0xfffffbeb
     c48:	17030623 	strne	r0, [r3, -r3, lsr #12]
     c4c:	03220501 			; <UNDEFINED> instruction: 0x03220501
     c50:	1c052e69 	stcne	14, cr2, [r5], {105}	; 0x69
     c54:	0e052e82 	cdpeq	14, 0, cr2, cr5, cr2, {4}
     c58:	0605052e 	streq	r0, [r5], -lr, lsr #10
     c5c:	06120530 			; <UNDEFINED> instruction: 0x06120530
     c60:	052d4b01 	streq	r4, [sp, #-2817]!	; 0xfffff4ff
     c64:	132f0605 			; <UNDEFINED> instruction: 0x132f0605
     c68:	06180513 			; <UNDEFINED> instruction: 0x06180513
     c6c:	05017a03 	streq	r7, [r1, #-2563]	; 0xfffff5fd
     c70:	05054a0e 	streq	r4, [r5, #-2574]	; 0xfffff5f2
     c74:	01052e34 	tsteq	r5, r4, lsr lr
     c78:	052e1403 	streq	r1, [lr, #-1027]!	; 0xfffffbfd
     c7c:	2e6c0305 	cdpcs	3, 6, cr0, cr12, cr5, {0}
     c80:	062b052e 	strteq	r0, [fp], -lr, lsr #10
     c84:	4c020500 	cfstr32mi	mvfx0, [r2], {-0}
     c88:	0300008a 	movweq	r0, #138	; 0x8a
     c8c:	05050117 	streq	r0, [r5, #-279]	; 0xfffffee9
     c90:	06070513 			; <UNDEFINED> instruction: 0x06070513
     c94:	03180501 	tsteq	r8, #4194304	; 0x400000
     c98:	2b052e71 	blcs	14c664 <__bss_end__+0x142354>
     c9c:	052e0e03 	streq	r0, [lr, #-3587]!	; 0xfffff1fd
     ca0:	09052f07 	stmdbeq	r5, {r0, r1, r2, r8, r9, sl, fp, sp}
     ca4:	0d052f06 	stceq	15, cr2, [r5, #-24]	; 0xffffffe8
     ca8:	05016f03 	streq	r6, [r1, #-3843]	; 0xfffff0fd
     cac:	2e061305 	cdpcs	3, 0, cr1, cr6, cr5, {0}
     cb0:	09052e2e 	stmdbeq	r5, {r1, r2, r3, r5, r9, sl, fp, sp}
     cb4:	01120306 	tsteq	r2, r6, lsl #6
     cb8:	72030d05 	andvc	r0, r3, #320	; 0x140
     cbc:	13050501 	movwne	r0, #21761	; 0x5501
     cc0:	052e2e06 	streq	r2, [lr, #-3590]!	; 0xfffff1fa
     cc4:	1003061d 	andne	r0, r3, sp, lsl r6
     cc8:	13050566 	movwne	r0, #21862	; 0x5566
     ccc:	11061d05 	tstne	r6, r5, lsl #26
     cd0:	0605052e 	streq	r0, [r5], -lr, lsr #10
     cd4:	0e051330 	mcreq	3, 0, r1, cr5, cr0, {1}
     cd8:	17051006 	strne	r1, [r5, -r6]
     cdc:	02042e30 	andeq	r2, r4, #48, 28	; 0x300
     ce0:	03063005 	movweq	r3, #24581	; 0x6005
     ce4:	042e00e2 	strteq	r0, [lr], #-226	; 0xffffff1e
     ce8:	060e0501 	streq	r0, [lr], -r1, lsl #10
     cec:	017f9d03 	cmneq	pc, r3, lsl #26
     cf0:	052f2305 	streq	r2, [pc, #-773]!	; 9f3 <__code_start__-0x760d>
     cf4:	06022f01 	streq	r2, [r2], -r1, lsl #30
     cf8:	20010100 	andcs	r0, r1, r0, lsl #2
     cfc:	03000001 	movweq	r0, #1
     d00:	0000db00 	andeq	sp, r0, r0, lsl #22
     d04:	fb010200 	blx	4150e <__bss_end__+0x371fe>
     d08:	01000d0e 	tsteq	r0, lr, lsl #26
     d0c:	00010101 	andeq	r0, r1, r1, lsl #2
     d10:	00010000 	andeq	r0, r1, r0
     d14:	2f2e0100 	svccs	0x002e0100
     d18:	6362696c 	cmnvs	r2, #108, 18	; 0x1b0000
     d1c:	706f2f00 	rsbvc	r2, pc, r0, lsl #30
     d20:	6f682f74 	svcvs	0x00682f74
     d24:	7262656d 	rsbvc	r6, r2, #457179136	; 0x1b400000
     d28:	432f7765 			; <UNDEFINED> instruction: 0x432f7765
     d2c:	616c6c65 	cmnvs	ip, r5, ror #24
     d30:	72612f72 	rsbvc	r2, r1, #456	; 0x1c8
     d34:	6f6e2d6d 	svcvs	0x006e2d6d
     d38:	652d656e 	strvs	r6, [sp, #-1390]!	; 0xfffffa92
     d3c:	2d696261 	sfmcs	f6, 2, [r9, #-388]!	; 0xfffffe7c
     d40:	2d392f39 	ldccs	15, cr2, [r9, #-228]!	; 0xffffff1c
     d44:	39313032 	ldmdbcc	r1!, {r1, r4, r5, ip, sp}
     d48:	632d3471 			; <UNDEFINED> instruction: 0x632d3471
     d4c:	37303173 			; <UNDEFINED> instruction: 0x37303173
     d50:	696c2f65 	stmdbvs	ip!, {r0, r2, r5, r6, r8, r9, sl, fp, sp}^
     d54:	63672f62 	cmnvs	r7, #392	; 0x188
     d58:	72612f63 	rsbvc	r2, r1, #396	; 0x18c
     d5c:	6f6e2d6d 	svcvs	0x006e2d6d
     d60:	652d656e 	strvs	r6, [sp, #-1390]!	; 0xfffffa92
     d64:	2f696261 	svccs	0x00696261
     d68:	2e322e39 	mrccs	14, 1, r2, cr2, cr9, {1}
     d6c:	6e692f31 	mcrvs	15, 3, r2, cr9, cr1, {1}
     d70:	64756c63 	ldrbtvs	r6, [r5], #-3171	; 0xfffff39d
     d74:	552f0065 	strpl	r0, [pc, #-101]!	; d17 <__code_start__-0x72e9>
     d78:	73726573 	cmnvc	r2, #482344960	; 0x1cc00000
     d7c:	6c696d2f 	stclvs	13, cr6, [r9], #-188	; 0xffffff44
     d80:	532f7365 			; <UNDEFINED> instruction: 0x532f7365
     d84:	6372756f 	cmnvs	r2, #465567744	; 0x1bc00000
     d88:	73632f65 	cmnvc	r3, #404	; 0x194
     d8c:	6c303432 	cfldrsvs	mvf3, [r0], #-200	; 0xffffff38
     d90:	696c2f78 	stmdbvs	ip!, {r3, r4, r5, r6, r8, r9, sl, fp, sp}^
     d94:	2f697062 	svccs	0x00697062
     d98:	6c636e69 	stclvs	14, cr6, [r3], #-420	; 0xfffffe5c
     d9c:	00656475 	rsbeq	r6, r5, r5, ror r4
     da0:	69727000 	ldmdbvs	r2!, {ip, sp, lr}^
     da4:	2e6b746e 	cdpcs	4, 6, cr7, cr11, cr14, {3}
     da8:	00010063 	andeq	r0, r1, r3, rrx
     dac:	64747300 	ldrbtvs	r7, [r4], #-768	; 0xfffffd00
     db0:	2e677261 	cdpcs	2, 6, cr7, cr7, cr1, {3}
     db4:	00020068 	andeq	r0, r2, r8, rrx
     db8:	69707200 	ldmdbvs	r0!, {r9, ip, sp, lr}^
     dbc:	0300682e 	movweq	r6, #2094	; 0x82e
     dc0:	623c0000 	eorsvs	r0, ip, #0, 0
     dc4:	746c6975 	strbtvc	r6, [ip], #-2421	; 0xfffff68b
     dc8:	3e6e692d 	vmulcc.f16	s13, s28, s27	; <UNPREDICTABLE>
     dcc:	00000000 	andeq	r0, r0, r0
     dd0:	702d6176 	eorvc	r6, sp, r6, ror r1
     dd4:	746e6972 	strbtvc	r6, [lr], #-2418	; 0xfffff68e
     dd8:	00682e6b 	rsbeq	r2, r8, fp, ror #28
     ddc:	00000001 	andeq	r0, r0, r1
     de0:	05002205 	streq	r2, [r0, #-517]	; 0xfffffdfb
     de4:	008aa402 	addeq	sl, sl, r2, lsl #8
     de8:	05051700 	streq	r1, [r5, #-1792]	; 0xfffff900
     dec:	05141314 	ldreq	r1, [r4, #-788]	; 0xfffffcec
     df0:	050d0622 	streq	r0, [sp, #-1570]	; 0xfffff9de
     df4:	22055012 	andcs	r5, r5, #18, 0
     df8:	052e7a03 	streq	r7, [lr, #-2563]!	; 0xfffff5fd
     dfc:	12053305 	andne	r3, r5, #335544320	; 0x14000000
     e00:	6505052f 	strvs	r0, [r5, #-1327]	; 0xfffffad1
     e04:	2f060905 	svccs	0x00060905
     e08:	01061205 	tsteq	r6, r5, lsl #4
     e0c:	4b060505 	blmi	182228 <__bss_end__+0x177f18>
     e10:	064a0616 			; <UNDEFINED> instruction: 0x064a0616
     e14:	06010550 			; <UNDEFINED> instruction: 0x06010550
     e18:	08026613 	stmdaeq	r2, {r0, r1, r4, r9, sl, sp, lr}
     e1c:	9e010100 	adflss	f0, f1, f0
     e20:	03000000 	movweq	r0, #0
     e24:	00005a00 	andeq	r5, r0, r0, lsl #20
     e28:	fb010200 	blx	41632 <__bss_end__+0x37322>
     e2c:	01000d0e 	tsteq	r0, lr, lsl #26
     e30:	00010101 	andeq	r0, r1, r1, lsl #2
     e34:	00010000 	andeq	r0, r1, r0
     e38:	2f2e0100 	svccs	0x002e0100
     e3c:	6362696c 	cmnvs	r2, #108, 18	; 0x1b0000
     e40:	73552f00 	cmpvc	r5, #0, 30
     e44:	2f737265 	svccs	0x00737265
     e48:	656c696d 	strbvs	r6, [ip, #-2413]!	; 0xfffff693
     e4c:	6f532f73 	svcvs	0x00532f73
     e50:	65637275 	strbvs	r7, [r3, #-629]!	; 0xfffffd8b
     e54:	3273632f 	rsbscc	r6, r3, #-1140850688	; 0xbc000000
     e58:	786c3034 	stmdavc	ip!, {r2, r4, r5, ip, sp}^
     e5c:	62696c2f 	rsbvs	r6, r9, #12032	; 0x2f00
     e60:	692f6970 	stmdbvs	pc!, {r4, r5, r6, r8, fp, sp, lr}	; <UNPREDICTABLE>
     e64:	756c636e 	strbvc	r6, [ip, #-878]!	; 0xfffffc92
     e68:	00006564 	andeq	r6, r0, r4, ror #10
     e6c:	63747570 	cmnvs	r4, #112, 10	; 0x1c000000
     e70:	2e726168 	rpwcssz	f6, f2, #0.0
     e74:	00010063 	andeq	r0, r1, r3, rrx
     e78:	69707200 	ldmdbvs	r0!, {r9, ip, sp, lr}^
     e7c:	0200682e 	andeq	r6, r0, #3014656	; 0x2e0000
     e80:	05000000 	streq	r0, [r0, #-0]
     e84:	02050024 	andeq	r0, r5, #36, 0	; 0x24
     e88:	00008afc 	strdeq	r8, [r0], -ip
     e8c:	01260514 			; <UNDEFINED> instruction: 0x01260514
     e90:	01062405 	tsteq	r6, r5, lsl #8
     e94:	2e26052e 	cfsh64cs	mvdx0, mvdx6, #30
     e98:	2e063405 	cdpcs	4, 0, cr3, cr6, cr5, {0}
     e9c:	01060105 	tsteq	r6, r5, lsl #2
     ea0:	4f061b05 	svcmi	0x00061b05
     ea4:	05130505 	ldreq	r0, [r3, #-1285]	; 0xfffffafb
     ea8:	05010611 	streq	r0, [r1, #-1553]	; 0xfffff9ef
     eac:	23056701 	movwcs	r6, #22273	; 0x5701
     eb0:	05056706 	streq	r6, [r5, #-1798]	; 0xfffff8fa
     eb4:	06110513 			; <UNDEFINED> instruction: 0x06110513
     eb8:	4b010501 	blmi	422c4 <__bss_end__+0x37fb4>
     ebc:	01000402 	tsteq	r0, r2, lsl #8
     ec0:	0000a001 	andeq	sl, r0, r1
     ec4:	57000300 	strpl	r0, [r0, -r0, lsl #6]
     ec8:	02000000 	andeq	r0, r0, #0, 0
     ecc:	0d0efb01 	vstreq	d15, [lr, #-4]
     ed0:	01010100 	mrseq	r0, (UNDEF: 17)
     ed4:	00000001 	andeq	r0, r0, r1
     ed8:	01000001 	tsteq	r0, r1
     edc:	696c2f2e 	stmdbvs	ip!, {r1, r2, r3, r5, r8, r9, sl, fp, sp}^
     ee0:	2f006362 	svccs	0x00006362
     ee4:	72657355 	rsbvc	r7, r5, #1409286145	; 0x54000001
     ee8:	696d2f73 	stmdbvs	sp!, {r0, r1, r4, r5, r6, r8, r9, sl, fp, sp}^
     eec:	2f73656c 	svccs	0x0073656c
     ef0:	72756f53 	rsbsvc	r6, r5, #332	; 0x14c
     ef4:	632f6563 			; <UNDEFINED> instruction: 0x632f6563
     ef8:	30343273 	eorscc	r3, r4, r3, ror r2
     efc:	6c2f786c 	stcvs	8, cr7, [pc], #-432	; d54 <__code_start__-0x72ac>
     f00:	69706269 	ldmdbvs	r0!, {r0, r3, r5, r6, r9, sp, lr}^
     f04:	636e692f 	cmnvs	lr, #770048	; 0xbc000
     f08:	6564756c 	strbvs	r7, [r4, #-1388]!	; 0xfffffa94
     f0c:	75700000 	ldrbvc	r0, [r0, #-0]!
     f10:	632e6b74 			; <UNDEFINED> instruction: 0x632e6b74
     f14:	00000100 	andeq	r0, r0, r0, lsl #2
     f18:	2e697072 	mcrcs	0, 3, r7, cr9, cr2, {3}
     f1c:	00020068 	andeq	r0, r2, r8, rrx
     f20:	22050000 	andcs	r0, r5, #0, 0
     f24:	38020500 	stmdacc	r2, {r8, sl}
     f28:	1500008b 	strne	r0, [r0, #-139]	; 0xffffff75
     f2c:	05130505 	ldreq	r0, [r3, #-1285]	; 0xfffffafb
     f30:	2e110622 	cfmsub32cs	mvax1, mvfx0, mvfx1, mvfx2
     f34:	2f060b05 	svccs	0x00060b05
     f38:	2e060505 	cfsh32cs	mvfx0, mvfx6, #5
     f3c:	02000905 	andeq	r0, r0, #81920	; 0x14000
     f40:	67060204 	strvs	r0, [r6, -r4, lsl #4]
     f44:	02000f05 	andeq	r0, r0, #5, 30
     f48:	05490204 	strbeq	r0, [r9, #-516]	; 0xfffffdfc
     f4c:	0402000b 	streq	r0, [r2], #-11
     f50:	05050102 	streq	r0, [r5, #-258]	; 0xfffffefe
     f54:	02040200 	andeq	r0, r4, #0, 4
     f58:	4e062e06 	cdpmi	14, 0, cr2, cr6, cr6, {0}
     f5c:	13060105 	movwne	r0, #24837	; 0x6105
     f60:	01000602 	tsteq	r0, r2, lsl #12
     f64:	0008fa01 	andeq	pc, r8, r1, lsl #20
     f68:	f1000300 			; <UNDEFINED> instruction: 0xf1000300
     f6c:	02000000 	andeq	r0, r0, #0, 0
     f70:	0d0efb01 	vstreq	d15, [lr, #-4]
     f74:	01010100 	mrseq	r0, (UNDEF: 17)
     f78:	00000001 	andeq	r0, r0, r1
     f7c:	01000001 	tsteq	r0, r1
     f80:	696c2f2e 	stmdbvs	ip!, {r1, r2, r3, r5, r8, r9, sl, fp, sp}^
     f84:	2f006362 	svccs	0x00006362
     f88:	2f74706f 	svccs	0x0074706f
     f8c:	656d6f68 	strbvs	r6, [sp, #-3944]!	; 0xfffff098
     f90:	77657262 	strbvc	r7, [r5, -r2, ror #4]!
     f94:	6c65432f 	stclvs	3, cr4, [r5], #-188	; 0xffffff44
     f98:	2f72616c 	svccs	0x0072616c
     f9c:	2d6d7261 	sfmcs	f7, 2, [sp, #-388]!	; 0xfffffe7c
     fa0:	656e6f6e 	strbvs	r6, [lr, #-3950]!	; 0xfffff092
     fa4:	6261652d 	rsbvs	r6, r1, #188743680	; 0xb400000
     fa8:	2f392d69 	svccs	0x00392d69
     fac:	30322d39 	eorscc	r2, r2, r9, lsr sp
     fb0:	34713931 	ldrbtcc	r3, [r1], #-2353	; 0xfffff6cf
     fb4:	3173632d 	cmncc	r3, sp, lsr #6
     fb8:	2f653730 	svccs	0x00653730
     fbc:	2f62696c 	svccs	0x0062696c
     fc0:	2f636367 	svccs	0x00636367
     fc4:	2d6d7261 	sfmcs	f7, 2, [sp, #-388]!	; 0xfffffe7c
     fc8:	656e6f6e 	strbvs	r6, [lr, #-3950]!	; 0xfffff092
     fcc:	6261652d 	rsbvs	r6, r1, #188743680	; 0xb400000
     fd0:	2e392f69 	cdpcs	15, 3, cr2, cr9, cr9, {3}
     fd4:	2f312e32 	svccs	0x00312e32
     fd8:	6c636e69 	stclvs	14, cr6, [r3], #-420	; 0xfffffe5c
     fdc:	00656475 	rsbeq	r6, r5, r5, ror r4
     fe0:	6573552f 	ldrbvs	r5, [r3, #-1327]!	; 0xfffffad1
     fe4:	6d2f7372 	stcvs	3, cr7, [pc, #-456]!	; e24 <__code_start__-0x71dc>
     fe8:	73656c69 	cmnvc	r5, #26880	; 0x6900
     fec:	756f532f 	strbvc	r5, [pc, #-815]!	; cc5 <__code_start__-0x733b>
     ff0:	2f656372 	svccs	0x00656372
     ff4:	34327363 	ldrtcc	r7, [r2], #-867	; 0xfffffc9d
     ff8:	2f786c30 	svccs	0x00786c30
     ffc:	7062696c 	rsbvc	r6, r2, ip, ror #18
    1000:	6e692f69 	cdpvs	15, 6, cr2, cr9, cr9, {3}
    1004:	64756c63 	ldrbtvs	r6, [r5], #-3171	; 0xfffff39d
    1008:	76000065 	strvc	r0, [r0], -r5, rrx
    100c:	72702d61 	rsbsvc	r2, r0, #6208	; 0x1840
    1010:	6b746e69 	blvs	1d1c9bc <__bss_end__+0x1d126ac>
    1014:	0100632e 	tsteq	r0, lr, lsr #6
    1018:	74730000 	ldrbtvc	r0, [r3], #-0
    101c:	746e6964 	strbtvc	r6, [lr], #-2404	; 0xfffff69c
    1020:	6363672d 	cmnvs	r3, #11796480	; 0xb40000
    1024:	0200682e 	andeq	r6, r0, #3014656	; 0x2e0000
    1028:	70720000 	rsbsvc	r0, r2, r0
    102c:	00682e69 	rsbeq	r2, r8, r9, ror #28
    1030:	72000003 	andvc	r0, r0, #3, 0
    1034:	692d6970 	pushvs	{r4, r5, r6, r8, fp, sp, lr}
    1038:	7265746e 	rsbvc	r7, r5, #1845493760	; 0x6e000000
    103c:	2e6c616e 	powcsez	f6, f4, #0.5
    1040:	00030068 	andeq	r0, r3, r8, rrx
    1044:	64747300 	ldrbtvs	r7, [r4], #-768	; 0xfffffd00
    1048:	2e677261 	cdpcs	2, 6, cr7, cr7, cr1, {3}
    104c:	00020068 	andeq	r0, r2, r8, rrx
    1050:	75623c00 	strbvc	r3, [r2, #-3072]!	; 0xfffff400
    1054:	2d746c69 	ldclcs	12, cr6, [r4, #-420]!	; 0xfffffe5c
    1058:	003e6e69 	eorseq	r6, lr, r9, ror #28
    105c:	00000000 	andeq	r0, r0, r0
    1060:	05000105 	streq	r0, [r0, #-261]	; 0xfffffefb
    1064:	008b7002 	addeq	r7, fp, r2
    1068:	00c80300 	sbceq	r0, r8, r0, lsl #6
    106c:	14020501 	strne	r0, [r2], #-1281	; 0xfffffaff
    1070:	10060105 	andne	r0, r6, r5, lsl #2
    1074:	05300405 	ldreq	r0, [r0, #-1029]!	; 0xfffffbfb
    1078:	054a2c01 	strbeq	r2, [sl, #-3073]	; 0xfffff3ff
    107c:	02053004 	andeq	r3, r5, #4, 0
    1080:	05133106 	ldreq	r3, [r3, #-262]	; 0xfffffefa
    1084:	052e060b 	streq	r0, [lr, #-1547]!	; 0xfffff9f5
    1088:	05300602 	ldreq	r0, [r0, #-1538]!	; 0xfffff9fe
    108c:	24020609 	strcs	r0, [r2], #-1545	; 0xfffff9f7
    1090:	052e2e0d 	streq	r2, [lr, #-3597]!	; 0xfffff1f3
    1094:	1703060d 	strne	r0, [r3, -sp, lsl #12]
    1098:	1311054a 	tstne	r1, #310378496	; 0x12800000
    109c:	01062d05 	tsteq	r6, r5, lsl #26
    10a0:	052e1605 	streq	r1, [lr, #-1541]!	; 0xfffff9fb
    10a4:	16052f0d 	strne	r2, [r5], -sp, lsl #30
    10a8:	0614052d 	ldreq	r0, [r4], -sp, lsr #10
    10ac:	0617052f 	ldreq	r0, [r7], -pc, lsr #10
    10b0:	2e0d0501 	cfsh32cs	mvfx0, mvfx13, #1
    10b4:	12052f06 	andne	r2, r5, #6, 30
    10b8:	2f2e0106 	svccs	0x002e0106
    10bc:	060d052d 	streq	r0, [sp], -sp, lsr #10
    10c0:	0612052f 	ldreq	r0, [r2], -pc, lsr #10
    10c4:	06190501 	ldreq	r0, [r9], -r1, lsl #10
    10c8:	0304052f 	movweq	r0, #17711	; 0x452f
    10cc:	05010111 	streq	r0, [r1, #-273]	; 0xfffffeef
    10d0:	0e051502 	cfsh32eq	mvfx1, mvfx5, #2
    10d4:	017fb203 	cmneq	pc, r3, lsl #4
    10d8:	05130205 	ldreq	r0, [r3, #-517]	; 0xfffffdfb
    10dc:	05010606 	streq	r0, [r1, #-1542]	; 0xfffff9fa
    10e0:	05300602 	ldreq	r0, [r0, #-1538]!	; 0xfffff9fe
    10e4:	02050108 	andeq	r0, r5, #2
    10e8:	054a0106 	strbeq	r0, [sl, #-262]	; 0xfffffefa
    10ec:	05910808 	ldreq	r0, [r1, #2056]	; 0x808
    10f0:	054a0603 	strbeq	r0, [sl, #-1539]	; 0xfffff9fd
    10f4:	05010608 	streq	r0, [r1, #-1544]	; 0xfffff9f8
    10f8:	052d0615 	streq	r0, [sp, #-1557]!	; 0xfffff9eb
    10fc:	03050108 	movweq	r0, #20744	; 0x5108
    1100:	060805d7 			; <UNDEFINED> instruction: 0x060805d7
    1104:	2d180501 	cfldr32cs	mvfx0, [r8, #-4]
    1108:	052e0205 	streq	r0, [lr, #-517]!	; 0xfffffdfb
    110c:	15052f08 	strne	r2, [r5, #-3848]	; 0xfffff0f8
    1110:	08052d06 	stmdaeq	r5, {r1, r2, r8, sl, fp, sp}
    1114:	06020501 	streq	r0, [r2], -r1, lsl #10
    1118:	06030501 	streq	r0, [r3], -r1, lsl #10
    111c:	0618052f 	ldreq	r0, [r8], -pc, lsr #10
    1120:	2e020511 	mcrcs	5, 0, r0, cr2, cr1, {0}
    1124:	052f0805 	streq	r0, [pc, #-2053]!	; 927 <__code_start__-0x76d9>
    1128:	052d0615 	streq	r0, [sp, #-1557]!	; 0xfffff9eb
    112c:	03050108 	movweq	r0, #20744	; 0x5108
    1130:	06080513 			; <UNDEFINED> instruction: 0x06080513
    1134:	06150501 	ldreq	r0, [r5], -r1, lsl #10
    1138:	0108052d 	tsteq	r8, sp, lsr #10
    113c:	02050106 	andeq	r0, r5, #-2147483647	; 0x80000001
    1140:	0505a006 	streq	sl, [r5, #-6]
    1144:	04050106 	streq	r0, [r5], #-262	; 0xfffffefa
    1148:	2f110536 	svccs	0x00110536
    114c:	052e0905 	streq	r0, [lr, #-2309]!	; 0xfffff6fb
    1150:	05053302 	streq	r3, [r5, #-770]	; 0xfffffcfe
    1154:	052e7203 	streq	r7, [lr, #-515]!	; 0xfffffdfd
    1158:	062f0602 	strteq	r0, [pc], -r2, lsl #12
    115c:	060e0501 	streq	r0, [lr], -r1, lsl #10
    1160:	14020516 	strne	r0, [r2], #-1302	; 0xfffffaea
    1164:	13030513 	movwne	r0, #13587	; 0x3513
    1168:	15140205 	ldrne	r0, [r4, #-517]	; 0xfffffdfb
    116c:	05010b05 	streq	r0, [r1, #-2821]	; 0xfffff4fb
    1170:	2e010602 	cfmadd32cs	mvax0, mvfx0, mvfx1, mvfx2
    1174:	67060305 	strvs	r0, [r6, -r5, lsl #6]
    1178:	01060a05 	tsteq	r6, r5, lsl #20
    117c:	052d0205 	streq	r0, [sp, #-517]!	; 0xfffffdfb
    1180:	17052f0a 	strne	r2, [r5, -sl, lsl #30]
    1184:	0b052d06 	bleq	14c5a4 <__bss_end__+0x142294>
    1188:	06020501 	streq	r0, [r2], -r1, lsl #10
    118c:	4c090501 	cfstr32mi	mvfx0, [r9], {1}
    1190:	0602052e 	streq	r0, [r2], -lr, lsr #10
    1194:	0609052e 	streq	r0, [r9], -lr, lsr #10
    1198:	06020501 	streq	r0, [r2], -r1, lsl #10
    119c:	05010630 	streq	r0, [r1, #-1584]	; 0xfffff9d0
    11a0:	01380301 	teqeq	r8, r1, lsl #6
    11a4:	4f030905 	svcmi	0x00030905
    11a8:	052e2e4a 	streq	r2, [lr, #-3658]!	; 0xfffff1b6
    11ac:	27030619 	smladcs	r3, r9, r6, r0
    11b0:	131a054a 	tstne	sl, #310378496	; 0x12800000
    11b4:	01062805 	tsteq	r6, r5, lsl #16
    11b8:	052e1f05 	streq	r1, [lr, #-3845]!	; 0xfffff0fb
    11bc:	1f052f04 	svcne	0x00052f04
    11c0:	060b052d 	streq	r0, [fp], -sp, lsr #10
    11c4:	060e052f 	streq	r0, [lr], -pc, lsr #10
    11c8:	2e040501 	cfsh32cs	mvfx0, mvfx4, #1
    11cc:	03060205 	movweq	r0, #25093	; 0x6205
    11d0:	05134a59 	ldreq	r4, [r3, #-2649]	; 0xfffff5a7
    11d4:	052e060b 	streq	r0, [lr, #-1547]!	; 0xfffff9f5
    11d8:	05300602 	ldreq	r0, [r0, #-1538]!	; 0xfffff9fe
    11dc:	24020609 	strcs	r0, [r2], #-1545	; 0xfffff9f7
    11e0:	0604050d 	streq	r0, [r4], -sp, lsl #10
    11e4:	06051336 			; <UNDEFINED> instruction: 0x06051336
    11e8:	05050106 	streq	r0, [r5, #-262]	; 0xfffffefa
    11ec:	13136706 	tstne	r3, #1572864	; 0x180000
    11f0:	11060905 	tstne	r6, r5, lsl #18
    11f4:	052b0d05 	streq	r0, [fp, #-3333]!	; 0xfffff2fb
    11f8:	0d05300b 	stceq	0, cr3, [r5, #-44]	; 0xffffffd4
    11fc:	351b052c 	ldrcc	r0, [fp, #-1324]	; 0xfffffad4
    1200:	2d060405 	cfstrscs	mvf0, [r6, #-20]	; 0xffffffec
    1204:	05130505 	ldreq	r0, [r3, #-1285]	; 0xfffffafb
    1208:	052e061b 	streq	r0, [lr, #-1563]!	; 0xfffff9e5
    120c:	0405820a 	streq	r8, [r5], #-522	; 0xfffffdf6
    1210:	2e0e052f 	cfsh32cs	mvfx0, mvfx14, #31
    1214:	05490a05 	strbeq	r0, [r9, #-2565]	; 0xfffff5fb
    1218:	052f060b 	streq	r0, [pc, #-1547]!	; c15 <__code_start__-0x73eb>
    121c:	06010604 	streq	r0, [r1], -r4, lsl #12
    1220:	0606052f 	streq	r0, [r6], -pc, lsr #10
    1224:	06050501 	streq	r0, [r5], -r1, lsl #10
    1228:	060a052f 	streq	r0, [sl], -pc, lsr #10
    122c:	07052e01 	streq	r2, [r5, -r1, lsl #28]
    1230:	052e2e2e 	streq	r2, [lr, #-3630]!	; 0xfffff1d2
    1234:	0d030604 	stceq	6, cr0, [r3, #-16]
    1238:	06020501 	streq	r0, [r2], -r1, lsl #10
    123c:	05014603 	streq	r4, [r1, #-1539]	; 0xfffff9fd
    1240:	2e3a0309 	cdpcs	3, 3, cr0, cr10, cr9, {0}
    1244:	2f060405 	svccs	0x00060405
    1248:	01010d03 	tsteq	r1, r3, lsl #26
    124c:	05150205 	ldreq	r0, [r5, #-517]	; 0xfffffdfb
    1250:	7fb2030e 	svcvc	0x00b2030e
    1254:	13020501 	movwne	r0, #9473	; 0x2501
    1258:	01080514 	tsteq	r8, r4, lsl r5
    125c:	10060605 	andne	r0, r6, r5, lsl #12
    1260:	052e3c03 	streq	r3, [lr, #-3075]!	; 0xfffff3fd
    1264:	4a460302 	bmi	1181e74 <__bss_end__+0x1177b64>
    1268:	05053006 	streq	r3, [r5, #-6]
    126c:	2e2e0106 	sufcse	f0, f6, f6
    1270:	4b060205 	blmi	181a8c <__bss_end__+0x17777c>
    1274:	0e050106 	adfeqs	f0, f5, f6
    1278:	02051606 	andeq	r1, r5, #6291456	; 0x600000
    127c:	15151314 	ldrne	r1, [r5, #-788]	; 0xfffffcec
    1280:	05010b05 	streq	r0, [r1, #-2821]	; 0xfffff4fb
    1284:	062e0602 	strteq	r0, [lr], -r2, lsl #12
    1288:	06090530 			; <UNDEFINED> instruction: 0x06090530
    128c:	06020501 	streq	r0, [r2], -r1, lsl #10
    1290:	0501064c 	streq	r0, [r1, #-1612]	; 0xfffff9b4
    1294:	01380301 	teqeq	r8, r1, lsl #6
    1298:	6e030605 	cfmadd32vs	mvax0, mvfx0, mvfx3, mvfx5
    129c:	0302054a 	movweq	r0, #9546	; 0x254a
    12a0:	2e4a6646 	cdpcs	6, 4, cr6, cr10, cr6, {2}
    12a4:	03060405 	movweq	r0, #25605	; 0x6405
    12a8:	010100c8 	smlabteq	r1, r8, r0, r0
    12ac:	2e060101 	adfcss	f0, f6, f1
    12b0:	034a0682 	movteq	r0, #42626	; 0xa682
    12b4:	09052e72 	stmdbeq	r5, {r1, r4, r5, r6, r9, sl, fp, sp}
    12b8:	04050106 	streq	r0, [r5], #-262	; 0xfffffefa
    12bc:	0d032f06 	stceq	15, cr2, [r3, #-24]	; 0xffffffe8
    12c0:	02050101 	andeq	r0, r5, #1073741824	; 0x40000000
    12c4:	030e0515 	movweq	r0, #58645	; 0xe515
    12c8:	05017fb2 	streq	r7, [r1, #-4018]	; 0xfffff04e
    12cc:	05141302 	ldreq	r1, [r4, #-770]	; 0xfffffcfe
    12d0:	09050108 	stmdbeq	r5, {r3, r8}
    12d4:	011b0306 	tsteq	fp, r6, lsl #6
    12d8:	63030605 	movwvs	r0, #13829	; 0x3605
    12dc:	2e3c032e 	cdpcs	3, 3, cr0, cr12, cr14, {1}
    12e0:	48052e2e 	stmdami	r5, {r1, r2, r3, r5, r9, sl, fp, sp}
    12e4:	7fb40306 	svcvc	0x00b40306
    12e8:	05053c08 	streq	r3, [r5, #-3080]	; 0xfffff3f8
    12ec:	2e060113 	mcrcs	1, 0, r0, cr6, cr3, {0}
    12f0:	02040200 	andeq	r0, r4, #0, 4
    12f4:	02002e06 	andeq	r2, r0, #96	; 0x60
    12f8:	00010204 	andeq	r0, r1, r4, lsl #4
    12fc:	13020402 	movwne	r0, #9218	; 0x2402
    1300:	02001105 	andeq	r1, r0, #1073741825	; 0x40000001
    1304:	01060204 	tsteq	r6, r4, lsl #4
    1308:	02000705 	andeq	r0, r0, #1310720	; 0x140000
    130c:	052f0204 	streq	r0, [pc, #-516]!	; 1110 <__code_start__-0x6ef0>
    1310:	04020011 	streq	r0, [r2], #-17	; 0xffffffef
    1314:	05052d02 	streq	r2, [r5, #-3330]	; 0xfffff2fe
    1318:	02040200 	andeq	r0, r4, #0, 4
    131c:	09052f06 	stmdbeq	r5, {r1, r2, r8, r9, sl, fp, sp}
    1320:	02040200 	andeq	r0, r4, #0, 4
    1324:	000e0513 	andeq	r0, lr, r3, lsl r5
    1328:	06020402 	streq	r0, [r2], -r2, lsl #8
    132c:	00050501 	andeq	r0, r5, r1, lsl #10
    1330:	06010402 	streq	r0, [r1], -r2, lsl #8
    1334:	04020063 	streq	r0, [r2], #-99	; 0xffffff9d
    1338:	48050101 	stmdami	r5, {r0, r8}
    133c:	01040200 	mrseq	r0, R12_usr
    1340:	05051106 	streq	r1, [r5, #-262]	; 0xfffffefa
    1344:	01040200 	mrseq	r0, R12_usr
    1348:	0048052f 	subeq	r0, r8, pc, lsr #10
    134c:	2d010402 	cfstrscs	mvf0, [r1, #-8]
    1350:	02000505 	andeq	r0, r0, #20971520	; 0x1400000
    1354:	002f0104 	eoreq	r0, pc, r4, lsl #2
    1358:	4a010402 	bmi	42368 <__bss_end__+0x38058>
    135c:	01040200 	mrseq	r0, R12_usr
    1360:	0402004a 	streq	r0, [r2], #-74	; 0xffffffb6
    1364:	054a0601 	strbeq	r0, [sl, #-1537]	; 0xfffff9ff
    1368:	00e10340 	rsceq	r0, r1, r0, asr #6
    136c:	050106d6 	streq	r0, [r1, #-1750]	; 0xfffff92a
    1370:	052e4e09 	streq	r4, [lr, #-3593]!	; 0xfffff1f7
    1374:	1e053008 	cdpne	0, 0, cr3, cr5, cr8, {0}
    1378:	2e120529 	cfmul64cs	mvdx0, mvdx2, mvdx9
    137c:	05330d05 	ldreq	r0, [r3, #-3333]!	; 0xfffff2fb
    1380:	05450602 	strbeq	r0, [r5, #-1538]	; 0xfffff9fe
    1384:	02051305 	andeq	r1, r5, #335544320	; 0x14000000
    1388:	13050514 	movwne	r0, #21780	; 0x5514
    138c:	05130205 	ldreq	r0, [r3, #-517]	; 0xfffffdfb
    1390:	40050108 	andmi	r0, r5, r8, lsl #2
    1394:	017a0306 	cmneq	sl, r6, lsl #6
    1398:	340d052e 	strcc	r0, [sp], #-1326	; 0xfffffad2
    139c:	03110566 	tsteq	r1, #427819008	; 0x19800000
    13a0:	054a4a20 	strbeq	r4, [sl, #-2592]	; 0xfffff5e0
    13a4:	62030604 	andvs	r0, r3, #4, 12	; 0x400000
    13a8:	06090501 	streq	r0, [r9], -r1, lsl #10
    13ac:	2e0f0501 	cfsh32cs	mvfx0, mvfx15, #1
    13b0:	2c060805 	stccs	8, cr0, [r6], {5}
    13b4:	2e060d05 	cdpcs	13, 0, cr0, cr6, cr5, {0}
    13b8:	67060305 	strvs	r0, [r6, -r5, lsl #6]
    13bc:	01060505 	tsteq	r6, r5, lsl #10
    13c0:	4d060805 	stcmi	8, cr0, [r6, #-20]	; 0xffffffec
    13c4:	01060e05 	tsteq	r6, r5, lsl #28
    13c8:	052e0a05 	streq	r0, [lr, #-2565]!	; 0xfffff5fb
    13cc:	04052f09 	streq	r2, [r5], #-3849	; 0xfffff0f7
    13d0:	07052f06 	streq	r2, [r5, -r6, lsl #30]
    13d4:	0a050106 	beq	1417f4 <__bss_end__+0x1374e4>
    13d8:	0604052c 	streq	r0, [r4], -ip, lsr #10
    13dc:	062d0532 			; <UNDEFINED> instruction: 0x062d0532
    13e0:	017f9803 	cmneq	pc, r3, lsl #16
    13e4:	ed030905 	vstr.16	s0, [r3, #-10]
    13e8:	0d052e00 	stceq	14, cr2, [r5, #-0]
    13ec:	2b07052c 	blcs	1c28a4 <__bss_end__+0x1b8594>
    13f0:	30060405 	andcc	r0, r6, r5, lsl #8
    13f4:	09051413 	stmdbeq	r5, {r0, r1, r4, sl, ip}
    13f8:	030c0501 	movweq	r0, #50433	; 0xc501
    13fc:	05017f93 	streq	r7, [r1, #-3987]	; 0xfffff06d
    1400:	0106011d 	tsteq	r6, sp, lsl r1
    1404:	ed030905 	vstr.16	s0, [r3, #-10]
    1408:	05050100 	streq	r0, [r5, #-256]	; 0xffffff00
    140c:	12052f06 	andne	r2, r5, #6, 30
    1410:	2d2e0106 	stfcss	f0, [lr, #-24]!	; 0xffffffe8
    1414:	052f0b05 	streq	r0, [pc, #-2821]!	; 917 <__code_start__-0x76e9>
    1418:	052f0605 	streq	r0, [pc, #-1541]!	; e1b <__code_start__-0x71e5>
    141c:	0c051009 	stceq	0, cr1, [r5], {9}
    1420:	017f9303 	cmneq	pc, r3, lsl #6
    1424:	05011d05 	streq	r1, [r1, #-3333]	; 0xfffff2fb
    1428:	0501062d 	streq	r0, [r1, #-1581]	; 0xfffff9d3
    142c:	00ed0309 	rsceq	r0, sp, r9, lsl #6
    1430:	0604052e 	streq	r0, [r4], -lr, lsr #10
    1434:	0200014e 	andeq	r0, r0, #-2147483629	; 0x80000013
    1438:	004a0204 	subeq	r0, sl, r4, lsl #4
    143c:	01020402 	tsteq	r2, r2, lsl #8
    1440:	02040200 	andeq	r0, r4, #0, 4
    1444:	04020015 	streq	r0, [r2], #-21	; 0xffffffeb
    1448:	36020602 	strcc	r0, [r2], -r2, lsl #12
    144c:	04020012 	streq	r0, [r2], #-18	; 0xffffffee
    1450:	02052e02 	andeq	r2, r5, #2, 28
    1454:	00d10306 	sbcseq	r0, r1, r6, lsl #6
    1458:	06070501 	streq	r0, [r7], -r1, lsl #10
    145c:	02052e01 	andeq	r2, r5, #1, 28
    1460:	0b052f06 	bleq	14d080 <__bss_end__+0x142d70>
    1464:	01050106 	tsteq	r5, r6, lsl #2
    1468:	0605052f 	streq	r0, [r5], -pc, lsr #10
    146c:	054a6503 	strbeq	r6, [sl, #-1283]	; 0xfffffafd
    1470:	66010609 	strvs	r0, [r1], -r9, lsl #12
    1474:	9f060505 	svcls	0x00060505
    1478:	11030405 	tstne	r3, r5, lsl #8
    147c:	06070501 	streq	r0, [r7], -r1, lsl #10
    1480:	06040501 	streq	r0, [r4], -r1, lsl #10
    1484:	010a0531 	tsteq	sl, r1, lsr r5
    1488:	02001305 	andeq	r1, r0, #335544320	; 0x14000000
    148c:	2e060104 	adfcss	f0, f6, f4
    1490:	02001005 	andeq	r1, r0, #5, 0
    1494:	052e0104 	streq	r0, [lr, #-260]!	; 0xfffffefc
    1498:	054b0605 	strbeq	r0, [fp, #-1541]	; 0xfffff9fb
    149c:	0601060a 	streq	r0, [r1], -sl, lsl #12
    14a0:	0604052d 	streq	r0, [r4], -sp, lsr #10
    14a4:	06110501 	ldreq	r0, [r1], -r1, lsl #10
    14a8:	667fb603 	ldrbtvs	fp, [pc], -r3, lsl #12
    14ac:	02000113 	andeq	r0, r0, #-1073741820	; 0xc0000004
    14b0:	ba060204 	blt	181cc8 <__bss_end__+0x1779b8>
    14b4:	1401ba06 	strne	fp, [r1], #-2566	; 0xfffff5fa
    14b8:	13061a05 	movwne	r1, #27141	; 0x6a05
    14bc:	11052e2e 	tstne	r5, lr, lsr #28
    14c0:	1405674e 	strne	r6, [r5], #-1870	; 0xfffff8b2
    14c4:	82130568 	andshi	r0, r3, #104, 10	; 0x1a000000
    14c8:	78031505 	stmdavc	r3, {r0, r2, r8, sl, ip}
    14cc:	0611054a 	ldreq	r0, [r1], -sl, asr #10
    14d0:	1413134b 	ldrne	r1, [r3], #-843	; 0xfffffcb5
    14d4:	13051413 	movwne	r1, #21523	; 0x5413
    14d8:	09050106 	stmdbeq	r5, {r1, r2, r8}
    14dc:	0d052f06 	stceq	15, cr2, [r5, #-24]	; 0xffffffe8
    14e0:	2e2e0106 	sufcse	f0, f6, f6
    14e4:	05bb0905 	ldreq	r0, [fp, #2309]!	; 0x905
    14e8:	09059d0d 	stmdbeq	r5, {r0, r2, r3, r8, sl, fp, ip, pc}
    14ec:	15052f06 	strne	r2, [r5, #-3846]	; 0xfffff0fa
    14f0:	7503062f 	strvc	r0, [r3, #-1583]	; 0xfffff9d1
    14f4:	2e0b034a 	cdpcs	3, 0, cr0, cr11, cr10, {2}
    14f8:	0605054a 	streq	r0, [r5], -sl, asr #10
    14fc:	05012303 	streq	r2, [r1, #-771]	; 0xfffffcfd
    1500:	2e010609 	cfmadd32cs	mvax0, mvfx0, mvfx1, mvfx9
    1504:	d7060505 	strle	r0, [r6, -r5, lsl #10]
    1508:	032e6e03 			; <UNDEFINED> instruction: 0x032e6e03
    150c:	0905010e 	stmdbeq	r5, {r1, r2, r3, r8}
    1510:	05050106 	streq	r0, [r5, #-262]	; 0xfffffefa
    1514:	4a100306 	bmi	402134 <__bss_end__+0x3f7e24>
    1518:	ed030105 	stfs	f0, [r3, #-20]	; 0xffffffec
    151c:	0205017e 	andeq	r0, r5, #-2147483617	; 0x8000001f
    1520:	14131514 	ldrne	r1, [r3], #-1300	; 0xfffffaec
    1524:	1a030405 	bne	c2540 <__bss_end__+0xb8230>
    1528:	06090501 	streq	r0, [r9], -r1, lsl #10
    152c:	03020501 	movweq	r0, #9473	; 0x2501
    1530:	09052e46 	stmdbeq	r5, {r1, r2, r6, r9, sl, fp, sp}
    1534:	052e3a03 	streq	r3, [lr, #-2563]!	; 0xfffff5fd
    1538:	032f0604 			; <UNDEFINED> instruction: 0x032f0604
    153c:	0501010d 	streq	r0, [r1, #-269]	; 0xfffffef3
    1540:	0e051502 	cfsh32eq	mvfx1, mvfx5, #2
    1544:	017fb203 	cmneq	pc, r3, lsl #4
    1548:	14130205 	ldrne	r0, [r3], #-517	; 0xfffffdfb
    154c:	05010805 	streq	r0, [r1, #-2053]	; 0xfffff7fb
    1550:	05010602 	streq	r0, [r1, #-1538]	; 0xfffff9fe
    1554:	03059f08 	movweq	r9, #24328	; 0x5f08
    1558:	01064a06 	tsteq	r6, r6, lsl #20
    155c:	052e0805 	streq	r0, [lr, #-2053]!	; 0xfffff7fb
    1560:	052d0615 	streq	r0, [sp, #-1557]!	; 0xfffff9eb
    1564:	03050108 	movweq	r0, #20744	; 0x5108
    1568:	0501062f 	streq	r0, [r1, #-1583]	; 0xfffff9d1
    156c:	15052e08 	strne	r2, [r5, #-3592]	; 0xfffff1f8
    1570:	08052d06 	stmdaeq	r5, {r1, r2, r8, sl, fp, sp}
    1574:	2f030501 	svccs	0x00030501
    1578:	08050106 	stmdaeq	r5, {r1, r2, r8}
    157c:	0615052e 	ldreq	r0, [r5], -lr, lsr #10
    1580:	0108052d 	tsteq	r8, sp, lsr #10
    1584:	062f0305 	strteq	r0, [pc], -r5, lsl #6
    1588:	2e080501 	cfsh32cs	mvfx0, mvfx8, #1
    158c:	2d061505 	cfstr32cs	mvfx1, [r6, #-20]	; 0xffffffec
    1590:	05010805 	streq	r0, [r1, #-2053]	; 0xfffff7fb
    1594:	01062f03 	tsteq	r6, r3, lsl #30
    1598:	052e0805 	streq	r0, [lr, #-2053]!	; 0xfffff7fb
    159c:	052d0615 	streq	r0, [sp, #-1557]!	; 0xfffff9eb
    15a0:	03050108 	movweq	r0, #20744	; 0x5108
    15a4:	0501062f 	streq	r0, [r1, #-1583]	; 0xfffff9d1
    15a8:	15052e08 	strne	r2, [r5, #-3592]	; 0xfffff1f8
    15ac:	08052d06 	stmdaeq	r5, {r1, r2, r8, sl, fp, sp}
    15b0:	13030501 	movwne	r0, #13569	; 0x3501
    15b4:	01060805 	tsteq	r6, r5, lsl #16
    15b8:	2d061505 	cfstr32cs	mvfx1, [r6, #-20]	; 0xffffffec
    15bc:	06010805 	streq	r0, [r1], -r5, lsl #16
    15c0:	06030566 	streq	r0, [r3], -r6, ror #10
    15c4:	06080567 	streq	r0, [r8], -r7, ror #10
    15c8:	2d180501 	cfldr32cs	mvfx0, [r8, #-4]
    15cc:	052e0205 	streq	r0, [lr, #-517]!	; 0xfffffdfb
    15d0:	15052f08 	strne	r2, [r5, #-3848]	; 0xfffff0f8
    15d4:	08052d06 	stmdaeq	r5, {r1, r2, r8, sl, fp, sp}
    15d8:	06020501 	streq	r0, [r2], -r1, lsl #10
    15dc:	06030501 	streq	r0, [r3], -r1, lsl #10
    15e0:	0618052f 	ldreq	r0, [r8], -pc, lsr #10
    15e4:	2e020511 	mcrcs	5, 0, r0, cr2, cr1, {0}
    15e8:	052f0805 	streq	r0, [pc, #-2053]!	; deb <__code_start__-0x7215>
    15ec:	052d0615 	streq	r0, [sp, #-1557]!	; 0xfffff9eb
    15f0:	03050108 	movweq	r0, #20744	; 0x5108
    15f4:	06080513 			; <UNDEFINED> instruction: 0x06080513
    15f8:	06150501 	ldreq	r0, [r5], -r1, lsl #10
    15fc:	0108052d 	tsteq	r8, sp, lsr #10
    1600:	14060505 	strne	r0, [r6], #-1285	; 0xfffffafb
    1604:	0602054a 	streq	r0, [r2], -sl, asr #10
    1608:	060e052e 	streq	r0, [lr], -lr, lsr #10
    160c:	2f040519 	svccs	0x00040519
    1610:	052f1105 	streq	r1, [pc, #-261]!	; 1513 <__code_start__-0x6aed>
    1614:	02054a09 	andeq	r4, r5, #36864	; 0x9000
    1618:	03050533 	movweq	r0, #21811	; 0x5533
    161c:	02052e72 	andeq	r2, r5, #1824	; 0x720
    1620:	01062f06 	tsteq	r6, r6, lsl #30
    1624:	16060e05 	strne	r0, [r6], -r5, lsl #28
    1628:	13140205 	tstne	r4, #1342177280	; 0x50000000
    162c:	05130305 	ldreq	r0, [r3, #-773]	; 0xfffffcfb
    1630:	05151402 	ldreq	r1, [r5, #-1026]	; 0xfffffbfe
    1634:	0205010b 	andeq	r0, r5, #-1073741822	; 0xc0000002
    1638:	662e0106 	strtvs	r0, [lr], -r6, lsl #2
    163c:	2f060305 	svccs	0x00060305
    1640:	01060a05 	tsteq	r6, r5, lsl #20
    1644:	052d0205 	streq	r0, [sp, #-517]!	; 0xfffffdfb
    1648:	17052f0a 	strne	r2, [r5, -sl, lsl #30]
    164c:	0b052d06 	bleq	14ca6c <__bss_end__+0x14275c>
    1650:	06020501 	streq	r0, [r2], -r1, lsl #10
    1654:	054a4a01 	strbeq	r4, [sl, #-2561]	; 0xfffff5ff
    1658:	95030605 	strls	r0, [r3, #-1541]	; 0xfffff9fb
    165c:	11050101 	tstne	r5, r1, lsl #2
    1660:	7ef80306 	cdpvc	3, 15, cr0, cr8, cr6, {0}
    1664:	031b0501 	tsteq	fp, #4194304	; 0x400000
    1668:	054a0188 	strbeq	r0, [sl, #-392]	; 0xfffffe78
    166c:	f3030601 	vmax.u8	d0, d3, d1
    1670:	02052e7e 	andeq	r2, r5, #2016	; 0x7e0
    1674:	14131514 	ldrne	r1, [r3], #-1300	; 0xfffffaec
    1678:	22031905 	andcs	r1, r3, #81920	; 0x14000
    167c:	131a0501 	tstne	sl, #4194304	; 0x400000
    1680:	01062805 	tsteq	r6, r5, lsl #16
    1684:	052e1f05 	streq	r1, [lr, #-3845]!	; 0xfffff0fb
    1688:	0e052f04 	cdpeq	15, 0, cr2, cr5, cr4, {0}
    168c:	2d1f054a 	cfldr32cs	mvfx0, [pc, #-296]	; 156c <__code_start__-0x6a94>
    1690:	2f060b05 	svccs	0x00060b05
    1694:	01060405 	tsteq	r6, r5, lsl #8
    1698:	05013206 	streq	r3, [r1, #-518]	; 0xfffffdfa
    169c:	0e051502 	cfsh32eq	mvfx1, mvfx5, #2
    16a0:	017fb203 	cmneq	pc, r3, lsl #4
    16a4:	05130205 	ldreq	r0, [r3, #-517]	; 0xfffffdfb
    16a8:	05010606 	streq	r0, [r1, #-1542]	; 0xfffff9fa
    16ac:	05300602 	ldreq	r0, [r0, #-1538]!	; 0xfffff9fe
    16b0:	02050108 	andeq	r0, r5, #2
    16b4:	03050106 	movweq	r0, #20742	; 0x5106
    16b8:	05210806 	streq	r0, [r1, #-2054]!	; 0xfffff7fa
    16bc:	05010608 	streq	r0, [r1, #-1544]	; 0xfffff9f8
    16c0:	05490615 	strbeq	r0, [r9, #-1557]	; 0xfffff9eb
    16c4:	03050108 	movweq	r0, #20744	; 0x5108
    16c8:	060805d7 			; <UNDEFINED> instruction: 0x060805d7
    16cc:	2d180501 	cfldr32cs	mvfx0, [r8, #-4]
    16d0:	052e0205 	streq	r0, [lr, #-517]!	; 0xfffffdfb
    16d4:	15052f08 	strne	r2, [r5, #-3848]	; 0xfffff0f8
    16d8:	08052d06 	stmdaeq	r5, {r1, r2, r8, sl, fp, sp}
    16dc:	06020501 	streq	r0, [r2], -r1, lsl #10
    16e0:	06030501 	streq	r0, [r3], -r1, lsl #10
    16e4:	0618052f 	ldreq	r0, [r8], -pc, lsr #10
    16e8:	2e020511 	mcrcs	5, 0, r0, cr2, cr1, {0}
    16ec:	052f0805 	streq	r0, [pc, #-2053]!	; eef <__code_start__-0x7111>
    16f0:	052d0615 	streq	r0, [sp, #-1557]!	; 0xfffff9eb
    16f4:	03050108 	movweq	r0, #20744	; 0x5108
    16f8:	06080513 			; <UNDEFINED> instruction: 0x06080513
    16fc:	06150501 	ldreq	r0, [r5], -r1, lsl #10
    1700:	0108052d 	tsteq	r8, sp, lsr #10
    1704:	14060505 	strne	r0, [r6], #-1285	; 0xfffffafb
    1708:	66060205 	strvs	r0, [r6], -r5, lsl #4
    170c:	1a060405 	bne	182728 <__bss_end__+0x178418>
    1710:	78030505 	stmdavc	r3, {r0, r2, r8, sl}
    1714:	0602054a 	streq	r0, [r2], -sl, asr #10
    1718:	0501062f 	streq	r0, [r1, #-1583]	; 0xfffff9d1
    171c:	0516060e 	ldreq	r0, [r6, #-1550]	; 0xfffff9f2
    1720:	05131402 	ldreq	r1, [r3, #-1026]	; 0xfffffbfe
    1724:	05010604 	streq	r0, [r1, #-1540]	; 0xfffff9fc
    1728:	052f0603 	streq	r0, [pc, #-1539]!	; 112d <__code_start__-0x6ed3>
    172c:	05010611 	streq	r0, [r1, #-1553]	; 0xfffff9ef
    1730:	02052e09 	andeq	r2, r5, #144	; 0x90
    1734:	05153006 	ldreq	r3, [r5, #-6]
    1738:	0205010b 	andeq	r0, r5, #-1073741822	; 0xc0000002
    173c:	4a4a0106 	bmi	1281b5c <__bss_end__+0x127784c>
    1740:	0603052e 	streq	r0, [r3], -lr, lsr #10
    1744:	060a052f 	streq	r0, [sl], -pc, lsr #10
    1748:	2d020501 	cfstr32cs	mvfx0, [r2, #-4]
    174c:	052f0a05 	streq	r0, [pc, #-2565]!	; d4f <__code_start__-0x72b1>
    1750:	052d0617 	streq	r0, [sp, #-1559]!	; 0xfffff9e9
    1754:	0205010b 	andeq	r0, r5, #-1073741822	; 0xc0000002
    1758:	2e4a0106 	dvfcse	f0, f2, f6
    175c:	09051406 	stmdbeq	r5, {r1, r2, sl, ip}
    1760:	02050106 	andeq	r0, r5, #-2147483647	; 0x80000001
    1764:	01064c06 	tsteq	r6, r6, lsl #24
    1768:	03060505 	movweq	r0, #25861	; 0x6505
    176c:	2a010198 	bcs	41dd4 <__bss_end__+0x37ac4>
    1770:	01060705 	tsteq	r6, r5, lsl #14
    1774:	2f060505 	svccs	0x00060505
    1778:	53031805 	movwpl	r1, #14341	; 0x3805
    177c:	061b052e 	ldreq	r0, [fp], -lr, lsr #10
    1780:	821a0501 	andshi	r0, sl, #4194304	; 0x400000
    1784:	4b060905 	blmi	183ba0 <__bss_end__+0x179890>
    1788:	01060d05 	tsteq	r6, r5, lsl #26
    178c:	d709052e 	strle	r0, [r9, -lr, lsr #10]
    1790:	059d0d05 	ldreq	r0, [sp, #3333]	; 0xd05
    1794:	052f0609 	streq	r0, [pc, #-1545]!	; 1193 <__code_start__-0x6e6d>
    1798:	18053015 	stmdane	r5, {r0, r2, r4, ip, sp}
    179c:	17050106 	strne	r0, [r5, -r6, lsl #2]
    17a0:	2f190566 	svccs	0x00190566
    17a4:	05491705 	strbeq	r1, [r9, #-1797]	; 0xfffff8fb
    17a8:	052f0619 	streq	r0, [pc, #-1561]!	; 1197 <__code_start__-0x6e69>
    17ac:	6f030615 	svcvs	0x00030615
    17b0:	0619052e 	ldreq	r0, [r9], -lr, lsr #10
    17b4:	054a1303 	strbeq	r1, [sl, #-771]	; 0xfffffcfd
    17b8:	6d030615 	stcvs	6, cr0, [r3, #-84]	; 0xffffffac
    17bc:	02054a2e 	andeq	r4, r5, #188416	; 0x2e000
    17c0:	017fa003 	cmneq	pc, r3
    17c4:	72030666 	andvc	r0, r3, #106954752	; 0x6600000
    17c8:	06050501 	streq	r0, [r5], -r1, lsl #10
    17cc:	36040501 	strcc	r0, [r4], -r1, lsl #10
    17d0:	78030505 	stmdavc	r3, {r0, r2, r8, sl}
    17d4:	0602052e 	streq	r0, [r2], -lr, lsr #10
    17d8:	0501062f 	streq	r0, [r1, #-1583]	; 0xfffff9d1
    17dc:	0516060e 	ldreq	r0, [r6, #-1550]	; 0xfffff9f2
    17e0:	05131402 	ldreq	r1, [r3, #-1026]	; 0xfffffbfe
    17e4:	4a010604 	bmi	42ffc <__bss_end__+0x38cec>
    17e8:	03060205 	movweq	r0, #25093	; 0x6205
    17ec:	05050178 	streq	r0, [r5, #-376]	; 0xfffffe88
    17f0:	054a0106 	strbeq	r0, [sl, #-262]	; 0xfffffefa
    17f4:	064b0602 	strbeq	r0, [fp], -r2, lsl #12
    17f8:	060e0501 	streq	r0, [lr], -r1, lsl #10
    17fc:	14020516 	strne	r0, [r2], #-1302	; 0xfffffaea
    1800:	05151513 	ldreq	r1, [r5, #-1299]	; 0xfffffaed
    1804:	2e06010b 	adfcss	f0, f6, #3.0
    1808:	03061105 	movweq	r1, #24837	; 0x6105
    180c:	0501019e 	streq	r0, [r1, #-414]	; 0xfffffe62
    1810:	05010622 	streq	r0, [r1, #-1570]	; 0xfffff9de
    1814:	22052f05 	andcs	r2, r5, #5, 30
    1818:	0605052d 	streq	r0, [r5], -sp, lsr #10
    181c:	4b11052f 	blmi	442ce0 <__bss_end__+0x4389d0>
    1820:	01830505 	orreq	r0, r3, r5, lsl #10
    1824:	2e5c039e 	mrccs	3, 2, r0, cr12, cr14, {4}
    1828:	02059e01 	andeq	r9, r5, #1, 28
    182c:	7ef30306 	cdpvc	3, 15, cr0, cr3, cr6, {0}
    1830:	06052e2e 	streq	r2, [r5], -lr, lsr #28
    1834:	0d054a2c 	vstreq	s8, [r5, #-176]	; 0xffffff50
    1838:	0100d803 	tsteq	r0, r3, lsl #16
    183c:	02000405 	andeq	r0, r0, #83886080	; 0x5000000
    1840:	03060104 	movweq	r0, #24836	; 0x6104
    1844:	02004a11 	andeq	r4, r0, #69632	; 0x11000
    1848:	05010104 	streq	r0, [r1, #-260]	; 0xfffffefc
    184c:	06510611 			; <UNDEFINED> instruction: 0x06510611
    1850:	0315059e 	tsteq	r5, #662700032	; 0x27800000
    1854:	ba012e17 	blt	4d0b8 <__bss_end__+0x42da8>
    1858:	69031105 	stmdbvs	r3, {r0, r2, r8, ip}
    185c:	2802012e 	stmdacs	r2, {r1, r2, r3, r5, r8}
    1860:	87010100 	strhi	r0, [r1, -r0, lsl #2]
    1864:	03000000 	movweq	r0, #0
    1868:	00006400 	andeq	r6, r0, r0, lsl #8
    186c:	fb010200 	blx	42076 <__bss_end__+0x37d66>
    1870:	01000d0e 	tsteq	r0, lr, lsl #26
    1874:	00010101 	andeq	r0, r1, r1, lsl #2
    1878:	00010000 	andeq	r0, r1, r0
    187c:	2f2e0100 	svccs	0x002e0100
    1880:	66617473 			; <UNDEFINED> instruction: 0x66617473
    1884:	72732d66 	rsbsvc	r2, r3, #6528	; 0x1980
    1888:	552f0063 	strpl	r0, [pc, #-99]!	; 182d <__code_start__-0x67d3>
    188c:	73726573 	cmnvc	r2, #482344960	; 0x1cc00000
    1890:	6c696d2f 	stclvs	13, cr6, [r9], #-188	; 0xffffff44
    1894:	532f7365 			; <UNDEFINED> instruction: 0x532f7365
    1898:	6372756f 	cmnvs	r2, #465567744	; 0x1bc00000
    189c:	73632f65 	cmnvc	r3, #404	; 0x194
    18a0:	6c303432 	cfldrsvs	mvf3, [r0], #-200	; 0xffffff38
    18a4:	696c2f78 	stmdbvs	ip!, {r3, r4, r5, r6, r8, r9, sl, fp, sp}^
    18a8:	2f697062 	svccs	0x00697062
    18ac:	6c636e69 	stclvs	14, cr6, [r3], #-420	; 0xfffffe5c
    18b0:	00656475 	rsbeq	r6, r5, r5, ror r4
    18b4:	656c6300 	strbvs	r6, [ip, #-768]!	; 0xfffffd00
    18b8:	722d6e61 	eorvc	r6, sp, #1552	; 0x610
    18bc:	6f6f6265 	svcvs	0x006f6265
    18c0:	00632e74 	rsbeq	r2, r3, r4, ror lr
    18c4:	72000001 	andvc	r0, r0, #1, 0
    18c8:	682e6970 	stmdavs	lr!, {r4, r5, r6, r8, fp, sp, lr}
    18cc:	00000200 	andeq	r0, r0, r0, lsl #4
    18d0:	00190500 	andseq	r0, r9, r0, lsl #10
    18d4:	95240205 	strls	r0, [r4, #-517]!	; 0xfffffdfb
    18d8:	05150000 	ldreq	r0, [r5, #-0]
    18dc:	19051305 	stmdbne	r5, {r0, r2, r8, r9, ip}
    18e0:	05052d06 	streq	r2, [r5, #-3334]	; 0xfffff2fa
    18e4:	2f67062f 	svccs	0x0067062f
    18e8:	0006024b 	andeq	r0, r6, fp, asr #4
    18ec:	01760101 	cmneq	r6, r1, lsl #2
    18f0:	00030000 	andeq	r0, r3, r0
    18f4:	0000005e 	andeq	r0, r0, lr, asr r0
    18f8:	0efb0102 	cdpeq	1, 15, cr0, cr11, cr2, {0}
    18fc:	0101000d 	tsteq	r1, sp
    1900:	00000101 	andeq	r0, r0, r1, lsl #2
    1904:	00000100 	andeq	r0, r0, r0, lsl #2
    1908:	732f2e01 			; <UNDEFINED> instruction: 0x732f2e01
    190c:	66666174 			; <UNDEFINED> instruction: 0x66666174
    1910:	6372732d 	cmnvs	r2, #-1275068416	; 0xb4000000
    1914:	73552f00 	cmpvc	r5, #0, 30
    1918:	2f737265 	svccs	0x00737265
    191c:	656c696d 	strbvs	r6, [ip, #-2413]!	; 0xfffff693
    1920:	6f532f73 	svcvs	0x00532f73
    1924:	65637275 	strbvs	r7, [r3, #-629]!	; 0xfffffd8b
    1928:	3273632f 	rsbscc	r6, r3, #-1140850688	; 0xbc000000
    192c:	786c3034 	stmdavc	ip!, {r2, r4, r5, ip, sp}^
    1930:	62696c2f 	rsbvs	r6, r9, #12032	; 0x2f00
    1934:	692f6970 	stmdbvs	pc!, {r4, r5, r6, r8, fp, sp, lr}	; <UNPREDICTABLE>
    1938:	756c636e 	strbvc	r6, [ip, #-878]!	; 0xfffffc92
    193c:	00006564 	andeq	r6, r0, r4, ror #10
    1940:	61747363 	cmnvs	r4, r3, ror #6
    1944:	632e7472 			; <UNDEFINED> instruction: 0x632e7472
    1948:	00000100 	andeq	r0, r0, r0, lsl #2
    194c:	2e697072 	mcrcs	0, 3, r7, cr9, cr2, {3}
    1950:	00020068 	andeq	r0, r2, r8, rrx
    1954:	10050000 	andne	r0, r5, r0
    1958:	50020500 	andpl	r0, r2, r0, lsl #10
    195c:	03000095 	movweq	r0, #149	; 0x95
    1960:	05050110 	streq	r0, [r5, #-272]	; 0xfffffef0
    1964:	13020513 	movwne	r0, #9491	; 0x2513
    1968:	05140505 	ldreq	r0, [r4, #-1285]	; 0xfffffafb
    196c:	050e0610 	streq	r0, [lr, #-1552]	; 0xfffff9f0
    1970:	30063205 	andcc	r3, r6, r5, lsl #4
    1974:	0a051413 	beq	1469c8 <__bss_end__+0x13c6b8>
    1978:	08090501 	stmdaeq	r9, {r0, r8, sl}
    197c:	06100591 			; <UNDEFINED> instruction: 0x06100591
    1980:	9a0a0501 	bls	282d8c <__bss_end__+0x278a7c>
    1984:	056a1005 	strbeq	r1, [sl, #-5]!
    1988:	052d060a 	streq	r0, [sp, #-1546]!	; 0xfffff9f6
    198c:	10052f09 	andne	r2, r5, r9, lsl #30
    1990:	0a050106 	beq	141db0 <__bss_end__+0x137aa0>
    1994:	09052d06 	stmdbeq	r5, {r1, r2, r8, sl, fp, sp}
    1998:	061005bb 			; <UNDEFINED> instruction: 0x061005bb
    199c:	060a0501 	streq	r0, [sl], -r1, lsl #10
    19a0:	4b090565 	blmi	242f3c <__bss_end__+0x238c2c>
    19a4:	01060d05 	tsteq	r6, r5, lsl #26
    19a8:	052d0a05 	streq	r0, [sp, #-2565]!	; 0xfffff5fb
    19ac:	0a052f10 	beq	14d5f4 <__bss_end__+0x1432e4>
    19b0:	09052d06 	stmdbeq	r5, {r1, r2, r8, sl, fp, sp}
    19b4:	060d052f 	streq	r0, [sp], -pc, lsr #10
    19b8:	2d0a0501 	cfstr32cs	mvfx0, [sl, #-4]
    19bc:	052f1005 	streq	r1, [pc, #-5]!	; 19bf <__code_start__-0x6641>
    19c0:	052d060a 	streq	r0, [sp, #-1546]!	; 0xfffff9f6
    19c4:	0d052f09 	stceq	15, cr2, [r5, #-36]	; 0xffffffdc
    19c8:	0a050106 	beq	141de8 <__bss_end__+0x137ad8>
    19cc:	2f10052d 	svccs	0x0010052d
    19d0:	2d060a05 	vstrcs	s0, [r6, #-20]	; 0xffffffec
    19d4:	052f0905 	streq	r0, [pc, #-2309]!	; 10d7 <__code_start__-0x6f29>
    19d8:	0501060d 	streq	r0, [r1, #-1549]	; 0xfffff9f3
    19dc:	10052d0a 	andne	r2, r5, sl, lsl #26
    19e0:	060a052f 	streq	r0, [sl], -pc, lsr #10
    19e4:	1309052d 	movwne	r0, #38189	; 0x952d
    19e8:	01061005 	tsteq	r6, r5
    19ec:	2d060a05 	vstrcs	s0, [r6, #-20]	; 0xffffffec
    19f0:	32150505 	andscc	r0, r5, #20971520	; 0x1400000
    19f4:	144a0101 	strbne	r0, [sl], #-257	; 0xfffffeff
    19f8:	61031105 	tstvs	r3, r5, lsl #2
    19fc:	13050501 	movwne	r0, #21761	; 0x5501
    1a00:	14051414 	strne	r1, [r5], #-1044	; 0xfffffbec
    1a04:	062e0101 	strteq	r0, [lr], -r1, lsl #2
    1a08:	06050501 	streq	r0, [r5], -r1, lsl #10
    1a0c:	0a051513 	beq	146e60 <__bss_end__+0x13cb50>
    1a10:	05050106 	streq	r0, [r5, #-262]	; 0xfffffefa
    1a14:	01064b06 	tsteq	r6, r6, lsl #22
    1a18:	01160306 	tsteq	r6, r6, lsl #6
    1a1c:	0311052f 	tsteq	r1, #197132288	; 0xbc00000
    1a20:	0505015f 	streq	r0, [r5, #-351]	; 0xfffffea1
    1a24:	05141413 	ldreq	r1, [r4, #-1043]	; 0xfffffbed
    1a28:	2e010114 	mcrcs	1, 0, r0, cr1, cr4, {0}
    1a2c:	05050106 	streq	r0, [r5, #-262]	; 0xfffffefa
    1a30:	08051306 	stmdaeq	r5, {r1, r2, r8, r9, ip}
    1a34:	05050106 	streq	r0, [r5, #-262]	; 0xfffffefa
    1a38:	052e1c03 	streq	r1, [lr, #-3075]!	; 0xfffff3fd
    1a3c:	2e640307 	cdpcs	3, 6, cr0, cr4, cr7, {0}
    1a40:	2f060905 	svccs	0x00060905
    1a44:	01060e05 	tsteq	r6, r5, lsl #28
    1a48:	30060505 	andcc	r0, r6, r5, lsl #10
    1a4c:	01060a05 	tsteq	r6, r5, lsl #20
    1a50:	2f060505 	svccs	0x00060505
    1a54:	03060106 	movweq	r0, #24838	; 0x6106
    1a58:	02050118 	andeq	r0, r5, #6
    1a5c:	060a0530 			; <UNDEFINED> instruction: 0x060a0530
    1a60:	022e6f03 	eoreq	r6, lr, #3, 30
    1a64:	0101000c 	tsteq	r1, ip
    1a68:	0000007d 	andeq	r0, r0, sp, ror r0
    1a6c:	00650003 	rsbeq	r0, r5, r3
    1a70:	01020000 	mrseq	r0, (UNDEF: 2)
    1a74:	000d0efb 	strdeq	r0, [sp], -fp
    1a78:	01010101 	tsteq	r1, r1, lsl #2
    1a7c:	01000000 	mrseq	r0, (UNDEF: 0)
    1a80:	2e010000 	cdpcs	0, 0, cr0, cr1, cr0, {0}
    1a84:	6174732f 	cmnvs	r4, pc, lsr #6
    1a88:	732d6666 			; <UNDEFINED> instruction: 0x732d6666
    1a8c:	2f006372 	svccs	0x00006372
    1a90:	72657355 	rsbvc	r7, r5, #1409286145	; 0x54000001
    1a94:	696d2f73 	stmdbvs	sp!, {r0, r1, r4, r5, r6, r8, r9, sl, fp, sp}^
    1a98:	2f73656c 	svccs	0x0073656c
    1a9c:	72756f53 	rsbsvc	r6, r5, #332	; 0x14c
    1aa0:	632f6563 			; <UNDEFINED> instruction: 0x632f6563
    1aa4:	30343273 	eorscc	r3, r4, r3, ror r2
    1aa8:	6c2f786c 	stcvs	8, cr7, [pc], #-432	; 1900 <__code_start__-0x6700>
    1aac:	69706269 	ldmdbvs	r0!, {r0, r3, r5, r6, r9, sp, lr}^
    1ab0:	636e692f 	cmnvs	lr, #770048	; 0xbc000
    1ab4:	6564756c 	strbvs	r7, [r4, #-1388]!	; 0xfffffa94
    1ab8:	75630000 	strbvc	r0, [r3, #-0]!
    1abc:	6d6f7473 	cfstrdvs	mvd7, [pc, #-460]!	; 18f8 <__code_start__-0x6708>
    1ac0:	616f6c2d 	cmnvs	pc, sp, lsr #24
    1ac4:	2e726564 	cdpcs	5, 7, cr6, cr2, cr4, {3}
    1ac8:	00010063 	andeq	r0, r1, r3, rrx
    1acc:	69707200 	ldmdbvs	r0!, {r9, ip, sp, lr}^
    1ad0:	0200682e 	andeq	r6, r0, #3014656	; 0x2e0000
    1ad4:	05000000 	streq	r0, [r0, #-0]
    1ad8:	0205001a 	andeq	r0, r5, #26, 0
    1adc:	00009678 	andeq	r9, r0, r8, ror r6
    1ae0:	14010515 	strne	r0, [r1], #-1301	; 0xfffffaeb
    1ae4:	01000202 	tsteq	r0, r2, lsl #4
    1ae8:	00011401 	andeq	r1, r1, r1, lsl #8
    1aec:	5e000300 	cdppl	3, 0, cr0, cr0, cr0, {0}
    1af0:	02000000 	andeq	r0, r0, #0, 0
    1af4:	0d0efb01 	vstreq	d15, [lr, #-4]
    1af8:	01010100 	mrseq	r0, (UNDEF: 17)
    1afc:	00000001 	andeq	r0, r0, r1
    1b00:	01000001 	tsteq	r0, r1
    1b04:	74732f2e 	ldrbtvc	r2, [r3], #-3886	; 0xfffff0d2
    1b08:	2d666661 	stclcs	6, cr6, [r6, #-388]!	; 0xfffffe7c
    1b0c:	00637273 	rsbeq	r7, r3, r3, ror r2
    1b10:	6573552f 	ldrbvs	r5, [r3, #-1327]!	; 0xfffffad1
    1b14:	6d2f7372 	stcvs	3, cr7, [pc, #-456]!	; 1954 <__code_start__-0x66ac>
    1b18:	73656c69 	cmnvc	r5, #26880	; 0x6900
    1b1c:	756f532f 	strbvc	r5, [pc, #-815]!	; 17f5 <__code_start__-0x680b>
    1b20:	2f656372 	svccs	0x00656372
    1b24:	34327363 	ldrtcc	r7, [r2], #-867	; 0xfffffc9d
    1b28:	2f786c30 	svccs	0x00786c30
    1b2c:	7062696c 	rsbvc	r6, r2, ip, ror #18
    1b30:	6e692f69 	cdpvs	15, 6, cr2, cr9, cr9, {3}
    1b34:	64756c63 	ldrbtvs	r6, [r5], #-3171	; 0xfffff39d
    1b38:	72000065 	andvc	r0, r0, #101, 0	; 0x65
    1b3c:	6f6f6265 	svcvs	0x006f6265
    1b40:	00632e74 	rsbeq	r2, r3, r4, ror lr
    1b44:	72000001 	andvc	r0, r0, #1, 0
    1b48:	682e6970 	stmdavs	lr!, {r4, r5, r6, r8, fp, sp, lr}
    1b4c:	00000200 	andeq	r0, r0, r0, lsl #4
    1b50:	00190500 	andseq	r0, r9, r0, lsl #10
    1b54:	96940205 	ldrls	r0, [r4], r5, lsl #4
    1b58:	0d030000 	stceq	0, cr0, [r3, #-0]
    1b5c:	13050501 	movwne	r0, #21761	; 0x5501
    1b60:	13053113 	movwne	r3, #20755	; 0x5113
    1b64:	01050106 	tsteq	r5, r6, lsl #2
    1b68:	061b052f 	ldreq	r0, [fp], -pc, lsr #10
    1b6c:	13050585 	movwne	r0, #21893	; 0x5585
    1b70:	2f090514 	svccs	0x00090514
    1b74:	01061605 	tsteq	r6, r5, lsl #12
    1b78:	2f060505 	svccs	0x00060505
    1b7c:	11060e05 	tstne	r6, r5, lsl #28
    1b80:	052f0505 	streq	r0, [pc, #-1285]!	; 1683 <__code_start__-0x697d>
    1b84:	17052f01 	strne	r2, [r5, -r1, lsl #30]
    1b88:	05053006 	streq	r3, [r5, #-6]
    1b8c:	016e0313 	cmneq	lr, r3, lsl r3
    1b90:	17051313 	smladne	r5, r3, r3, r1
    1b94:	010f0306 	tsteq	pc, r6, lsl #6
    1b98:	71030505 	tstvc	r3, r5, lsl #10
    1b9c:	0531062e 	ldreq	r0, [r1, #-1582]!	; 0xfffff9d2
    1ba0:	05010613 	streq	r0, [r1, #-1555]	; 0xfffff9ed
    1ba4:	2e0d0307 	cdpcs	3, 0, cr0, cr13, cr7, {0}
    1ba8:	4b060905 	blmi	183fc4 <__bss_end__+0x179cb4>
    1bac:	76030605 	strvc	r0, [r3], -r5, lsl #12
    1bb0:	13050501 	movwne	r0, #21761	; 0x5501
    1bb4:	2f090514 	svccs	0x00090514
    1bb8:	01061605 	tsteq	r6, r5, lsl #12
    1bbc:	2f060505 	svccs	0x00060505
    1bc0:	11060e05 	tstne	r6, r5, lsl #28
    1bc4:	2e2f0505 	cfsh64cs	mvdx0, mvdx15, #5
    1bc8:	010a0306 	tsteq	sl, r6, lsl #6
    1bcc:	134d2f30 	movtne	r2, #57136	; 0xdf30
    1bd0:	67151313 			; <UNDEFINED> instruction: 0x67151313
    1bd4:	01040200 	mrseq	r0, R12_usr
    1bd8:	000d0567 	andeq	r0, sp, r7, ror #10
    1bdc:	01010402 	tsteq	r1, r2, lsl #8
    1be0:	02000a05 	andeq	r0, r0, #20480	; 0x5000
    1be4:	05010104 	streq	r0, [r1, #-260]	; 0xfffffefc
    1be8:	04020005 	streq	r0, [r2], #-5
    1bec:	0d050101 	stfeqs	f0, [r5, #-4]
    1bf0:	01040200 	mrseq	r0, R12_usr
    1bf4:	000a0501 	andeq	r0, sl, r1, lsl #10
    1bf8:	01010402 	tsteq	r1, r2, lsl #8
    1bfc:	01000a02 	tsteq	r0, r2, lsl #20
    1c00:	0001fa01 	andeq	pc, r1, r1, lsl #20
    1c04:	5d000300 	stcpl	3, cr0, [r0, #-0]
    1c08:	02000000 	andeq	r0, r0, #0, 0
    1c0c:	0d0efb01 	vstreq	d15, [lr, #-4]
    1c10:	01010100 	mrseq	r0, (UNDEF: 17)
    1c14:	00000001 	andeq	r0, r0, r1
    1c18:	01000001 	tsteq	r0, r1
    1c1c:	74732f2e 	ldrbtvc	r2, [r3], #-3886	; 0xfffff0d2
    1c20:	2d666661 	stclcs	6, cr6, [r6, #-388]!	; 0xfffffe7c
    1c24:	00637273 	rsbeq	r7, r3, r3, ror r2
    1c28:	6573552f 	ldrbvs	r5, [r3, #-1327]!	; 0xfffffad1
    1c2c:	6d2f7372 	stcvs	3, cr7, [pc, #-456]!	; 1a6c <__code_start__-0x6594>
    1c30:	73656c69 	cmnvc	r5, #26880	; 0x6900
    1c34:	756f532f 	strbvc	r5, [pc, #-815]!	; 190d <__code_start__-0x66f3>
    1c38:	2f656372 	svccs	0x00656372
    1c3c:	34327363 	ldrtcc	r7, [r2], #-867	; 0xfffffc9d
    1c40:	2f786c30 	svccs	0x00786c30
    1c44:	7062696c 	rsbvc	r6, r2, ip, ror #18
    1c48:	6e692f69 	cdpvs	15, 6, cr2, cr9, cr9, {3}
    1c4c:	64756c63 	ldrbtvs	r6, [r5], #-3171	; 0xfffff39d
    1c50:	74000065 	strvc	r0, [r0], #-101	; 0xffffff9b
    1c54:	72656d69 	rsbvc	r6, r5, #6720	; 0x1a40
    1c58:	0100632e 	tsteq	r0, lr, lsr #6
    1c5c:	70720000 	rsbsvc	r0, r2, r0
    1c60:	00682e69 	rsbeq	r2, r8, r9, ror #28
    1c64:	00000002 	andeq	r0, r0, r2
    1c68:	05002305 	streq	r2, [r0, #-773]	; 0xfffffcfb
    1c6c:	00972002 	addseq	r2, r7, r2
    1c70:	05051500 	streq	r1, [r5, #-1280]	; 0xfffffb00
    1c74:	060c0513 			; <UNDEFINED> instruction: 0x060c0513
    1c78:	061f0501 	ldreq	r0, [pc], -r1, lsl #10
    1c7c:	1505056a 	strne	r0, [r5, #-1386]	; 0xfffffa96
    1c80:	0f061f05 	svceq	0x00061f05
    1c84:	06310505 	ldrteq	r0, [r1], -r5, lsl #10
    1c88:	030a052f 	movweq	r0, #42287	; 0xa52f
    1c8c:	05050177 	streq	r0, [r5, #-375]	; 0xfffffe89
    1c90:	060c0513 			; <UNDEFINED> instruction: 0x060c0513
    1c94:	05056601 	streq	r6, [r5, #-1537]	; 0xfffff9ff
    1c98:	01090306 	tsteq	r9, r6, lsl #6
    1c9c:	0601052f 	streq	r0, [r1], -pc, lsr #10
    1ca0:	061c0513 			; <UNDEFINED> instruction: 0x061c0513
    1ca4:	13050568 	movwne	r0, #21864	; 0x5568
    1ca8:	76030a05 	strvc	r0, [r3], -r5, lsl #20
    1cac:	15050501 	strne	r0, [r5, #-1281]	; 0xfffffaff
    1cb0:	18061c05 	stmdane	r6, {r0, r2, sl, fp, ip}
    1cb4:	0305052e 	movweq	r0, #21806	; 0x552e
    1cb8:	2f062e7a 	svccs	0x00062e7a
    1cbc:	77030a05 	strvc	r0, [r3, -r5, lsl #20]
    1cc0:	13050501 	movwne	r0, #21761	; 0x5501
    1cc4:	01060c05 	tsteq	r6, r5, lsl #24
    1cc8:	06050566 	streq	r0, [r5], -r6, ror #10
    1ccc:	2f010903 	svccs	0x00010903
    1cd0:	0c050106 	stfeqs	f0, [r5], {6}
    1cd4:	05017603 	streq	r7, [r1, #-1539]	; 0xfffff9fd
    1cd8:	0f030605 	svceq	0x00030605
    1cdc:	1309052e 	movwne	r0, #38190	; 0x952e
    1ce0:	74030a05 	strvc	r0, [r3], #-2565	; 0xfffff5fb
    1ce4:	15050501 	strne	r0, [r5, #-1281]	; 0xfffffaff
    1ce8:	030a052f 	movweq	r0, #42287	; 0xa52f
    1cec:	05050177 	streq	r0, [r5, #-375]	; 0xfffffe89
    1cf0:	060c0513 			; <UNDEFINED> instruction: 0x060c0513
    1cf4:	05056601 	streq	r6, [r5, #-1537]	; 0xfffff9ff
    1cf8:	01090306 	tsteq	r9, r6, lsl #6
    1cfc:	1a061105 	bne	186118 <__bss_end__+0x17be08>
    1d00:	78030505 	stmdavc	r3, {r0, r2, r8, sl}
    1d04:	052f062e 	streq	r0, [pc, #-1582]!	; 16de <__code_start__-0x6922>
    1d08:	0c051909 			; <UNDEFINED> instruction: 0x0c051909
    1d0c:	1c050106 	stfnes	f0, [r5], {6}
    1d10:	05058706 	streq	r8, [r5, #-1798]	; 0xfffff8fa
    1d14:	061c0513 			; <UNDEFINED> instruction: 0x061c0513
    1d18:	2f050511 	svccs	0x00050511
    1d1c:	0606054a 	streq	r0, [r6], -sl, asr #10
    1d20:	052e7603 	streq	r7, [lr, #-1539]!	; 0xfffff9fd
    1d24:	0a051305 	beq	146940 <__bss_end__+0x13c630>
    1d28:	05017603 	streq	r7, [r1, #-1539]	; 0xfffff9fd
    1d2c:	052f1505 	streq	r1, [pc, #-1285]!	; 182f <__code_start__-0x67d1>
    1d30:	0177030a 	cmneq	r7, sl, lsl #6
    1d34:	05130505 	ldreq	r0, [r3, #-1285]	; 0xfffffafb
    1d38:	6601060c 	strvs	r0, [r1], -ip, lsl #12
    1d3c:	03060505 	movweq	r0, #25861	; 0x6505
    1d40:	062f0109 	strteq	r0, [pc], -r9, lsl #2
    1d44:	030c0501 	movweq	r0, #50433	; 0xc501
    1d48:	05050176 	streq	r0, [r5, #-374]	; 0xfffffe8a
    1d4c:	2e0f0306 	cdpcs	3, 0, cr0, cr15, cr6, {0}
    1d50:	05130905 	ldreq	r0, [r3, #-2309]	; 0xfffff6fb
    1d54:	0174030a 	cmneq	r4, sl, lsl #6
    1d58:	2f150505 	svccs	0x00150505
    1d5c:	77030a05 	strvc	r0, [r3, -r5, lsl #20]
    1d60:	13050501 	movwne	r0, #21761	; 0x5501
    1d64:	01060c05 	tsteq	r6, r5, lsl #24
    1d68:	06050566 	streq	r0, [r5], -r6, ror #10
    1d6c:	05010903 	streq	r0, [r1, #-2307]	; 0xfffff6fd
    1d70:	051a0611 	ldreq	r0, [sl, #-1553]	; 0xfffff9ef
    1d74:	2e780305 	cdpcs	3, 7, cr0, cr8, cr5, {0}
    1d78:	09052f06 	stmdbeq	r5, {r1, r2, r8, r9, sl, fp, sp}
    1d7c:	060c0519 			; <UNDEFINED> instruction: 0x060c0519
    1d80:	061e0501 	ldreq	r0, [lr], -r1, lsl #10
    1d84:	1305058a 	movwne	r0, #21898	; 0x558a
    1d88:	050e0605 	streq	r0, [lr, #-1541]	; 0xfffff9fb
    1d8c:	1e051305 	cdpne	3, 0, cr1, cr5, cr5, {0}
    1d90:	05051406 	streq	r1, [r5, #-1030]	; 0xfffffbfa
    1d94:	0605662c 	streq	r6, [r5], -ip, lsr #12
    1d98:	2e760306 	cdpcs	3, 7, cr0, cr6, cr6, {0}
    1d9c:	05130505 	ldreq	r0, [r3, #-1285]	; 0xfffffafb
    1da0:	0176030a 	cmneq	r6, sl, lsl #6
    1da4:	2f150505 	svccs	0x00150505
    1da8:	77030a05 	strvc	r0, [r3, -r5, lsl #20]
    1dac:	13050501 	movwne	r0, #21761	; 0x5501
    1db0:	01060c05 	tsteq	r6, r5, lsl #24
    1db4:	06050566 	streq	r0, [r5], -r6, ror #10
    1db8:	2f010903 	svccs	0x00010903
    1dbc:	0c050106 	stfeqs	f0, [r5], {6}
    1dc0:	05017603 	streq	r7, [r1, #-1539]	; 0xfffff9fd
    1dc4:	0f030605 	svceq	0x00030605
    1dc8:	1309052e 	movwne	r0, #38190	; 0x952e
    1dcc:	74030a05 	strvc	r0, [r3], #-2565	; 0xfffff5fb
    1dd0:	15050501 	strne	r0, [r5, #-1281]	; 0xfffffaff
    1dd4:	030a052f 	movweq	r0, #42287	; 0xa52f
    1dd8:	05050177 	streq	r0, [r5, #-375]	; 0xfffffe89
    1ddc:	060c0513 			; <UNDEFINED> instruction: 0x060c0513
    1de0:	05056601 	streq	r6, [r5, #-1537]	; 0xfffff9ff
    1de4:	01090306 	tsteq	r9, r6, lsl #6
    1de8:	1a061105 	bne	186204 <__bss_end__+0x17bef4>
    1dec:	78030505 	stmdavc	r3, {r0, r2, r8, sl}
    1df0:	052f062e 	streq	r0, [pc, #-1582]!	; 17ca <__code_start__-0x6836>
    1df4:	0c051909 			; <UNDEFINED> instruction: 0x0c051909
    1df8:	08020106 	stmdaeq	r2, {r1, r2, r8}
    1dfc:	05010100 	streq	r0, [r1, #-256]	; 0xffffff00
    1e00:	03000002 	movweq	r0, #2
    1e04:	0000c900 	andeq	ip, r0, r0, lsl #18
    1e08:	fb010200 	blx	42612 <__bss_end__+0x38302>
    1e0c:	01000d0e 	tsteq	r0, lr, lsl #26
    1e10:	00010101 	andeq	r0, r1, r1, lsl #2
    1e14:	00010000 	andeq	r0, r1, r0
    1e18:	682f0100 	stmdavs	pc!, {r8}	; <UNPREDICTABLE>
    1e1c:	2f656d6f 	svccs	0x00656d6f
    1e20:	6c676e65 	stclvs	14, cr6, [r7], #-404	; 0xfffffe6c
    1e24:	632f7265 			; <UNDEFINED> instruction: 0x632f7265
    1e28:	7373616c 	cmnvc	r3, #27
    1e2c:	3273632f 	rsbscc	r6, r3, #-1140850688	; 0xbc000000
    1e30:	786c3034 	stmdavc	ip!, {r2, r4, r5, ip, sp}^
    1e34:	7332322d 	teqvc	r2, #-805306366	; 0xd0000002
    1e38:	2f2f7270 	svccs	0x002f7270
    1e3c:	7062696c 	rsbvc	r6, r2, ip, ror #18
    1e40:	6e692f69 	cdpvs	15, 6, cr2, cr9, cr9, {3}
    1e44:	64756c63 	ldrbtvs	r6, [r5], #-3171	; 0xfffff39d
    1e48:	752f0065 	strvc	r0, [pc, #-101]!	; 1deb <__code_start__-0x6215>
    1e4c:	732f7273 			; <UNDEFINED> instruction: 0x732f7273
    1e50:	65726168 	ldrbvs	r6, [r2, #-360]!	; 0xfffffe98
    1e54:	6363672f 	cmnvs	r3, #12320768	; 0xbc0000
    1e58:	6d72612d 	ldfvse	f6, [r2, #-180]!	; 0xffffff4c
    1e5c:	6e6f6e2d 	cdpvs	14, 6, cr6, cr15, cr13, {1}
    1e60:	61652d65 	cmnvs	r5, r5, ror #26
    1e64:	312d6962 			; <UNDEFINED> instruction: 0x312d6962
    1e68:	2d332e30 	ldccs	14, cr2, [r3, #-192]!	; 0xffffff40
    1e6c:	31323032 	teqcc	r2, r2, lsr r0
    1e70:	2f30312e 	svccs	0x0030312e
    1e74:	2f62696c 	svccs	0x0062696c
    1e78:	2f636367 	svccs	0x00636367
    1e7c:	2d6d7261 	sfmcs	f7, 2, [sp, #-388]!	; 0xfffffe7c
    1e80:	656e6f6e 	strbvs	r6, [lr, #-3950]!	; 0xfffff092
    1e84:	6261652d 	rsbvs	r6, r1, #188743680	; 0xb400000
    1e88:	30312f69 	eorscc	r2, r1, r9, ror #30
    1e8c:	312e332e 			; <UNDEFINED> instruction: 0x312e332e
    1e90:	636e692f 	cmnvs	lr, #770048	; 0xbc000
    1e94:	6564756c 	strbvs	r7, [r4, #-1388]!	; 0xfffffa94
    1e98:	61750000 	cmnvs	r5, r0
    1e9c:	632e7472 			; <UNDEFINED> instruction: 0x632e7472
    1ea0:	00000000 	andeq	r0, r0, r0
    1ea4:	74726175 	ldrbtvc	r6, [r2], #-373	; 0xfffffe8b
    1ea8:	0100682e 	tsteq	r0, lr, lsr #16
    1eac:	70720000 	rsbsvc	r0, r2, r0
    1eb0:	00682e69 	rsbeq	r2, r8, r9, ror #28
    1eb4:	67000001 	strvs	r0, [r0, -r1]
    1eb8:	2e6f6970 			; <UNDEFINED> instruction: 0x2e6f6970
    1ebc:	00010068 	andeq	r0, r1, r8, rrx
    1ec0:	64747300 	ldrbtvs	r7, [r4], #-768	; 0xfffffd00
    1ec4:	2d746e69 	ldclcs	14, cr6, [r4, #-420]!	; 0xfffffe5c
    1ec8:	2e636367 	cdpcs	3, 6, cr6, cr3, cr7, {3}
    1ecc:	00020068 	andeq	r0, r2, r8, rrx
    1ed0:	39050000 	stmdbcc	r5, {}	; <UNPREDICTABLE>
    1ed4:	3c020500 	cfstr32cc	mvfx0, [r2], {-0}
    1ed8:	03000098 	movweq	r0, #152	; 0x98
    1edc:	01060130 	tsteq	r6, r0, lsr r1
    1ee0:	67060505 	strvs	r0, [r6, -r5, lsl #10]
    1ee4:	01061105 	tsteq	r6, r5, lsl #2
    1ee8:	052e0505 	streq	r0, [lr, #-1285]!	; 0xfffffafb
    1eec:	38056701 	stmdacc	r5, {r0, r8, r9, sl, sp, lr}
    1ef0:	01062906 	tsteq	r6, r6, lsl #18
    1ef4:	67060505 	strvs	r0, [r6, -r5, lsl #10]
    1ef8:	01061105 	tsteq	r6, r5, lsl #2
    1efc:	052e0505 	streq	r0, [lr, #-1285]!	; 0xfffffafb
    1f00:	16056701 	strne	r6, [r5], -r1, lsl #14
    1f04:	2e150306 	cdpcs	3, 1, cr0, cr5, cr6, {0}
    1f08:	67350505 	ldrvs	r0, [r5, -r5, lsl #10]!
    1f0c:	03683568 	cmneq	r8, #104, 10	; 0x1a000000
    1f10:	6b852e0c 	blvs	fe14d748 <__bss_end__+0xfe143438>
    1f14:	0c036969 			; <UNDEFINED> instruction: 0x0c036969
    1f18:	676b1366 	strbvs	r1, [fp, -r6, ror #6]!
    1f1c:	2f060105 	svccs	0x00060105
    1f20:	08061905 	stmdaeq	r6, {r0, r2, r8, fp, ip}
    1f24:	34050525 	strcc	r0, [r5], #-1317	; 0xfffffadb
    1f28:	01060d05 	tsteq	r6, r5, lsl #26
    1f2c:	054c0105 	strbeq	r0, [ip, #-261]	; 0xfffffefb
    1f30:	05670619 	strbeq	r0, [r7, #-1561]!	; 0xfffff9e7
    1f34:	0d053605 	stceq	6, cr3, [r5, #-20]	; 0xffffffec
    1f38:	28050106 	stmdacs	r5, {r1, r2, r8}
    1f3c:	3001054a 	andcc	r0, r1, sl, asr #10
    1f40:	87061505 	strhi	r1, [r6, -r5, lsl #10]
    1f44:	2f2f0505 	svccs	0x002f0505
    1f48:	02000905 	andeq	r0, r0, #81920	; 0x14000
    1f4c:	05130104 	ldreq	r0, [r3, #-260]	; 0xfffffefc
    1f50:	0402000a 	streq	r0, [r2], #-10
    1f54:	0c051101 	stfeqs	f1, [r5], {1}
    1f58:	01040200 	mrseq	r0, R12_usr
    1f5c:	0a050106 	beq	14237c <__bss_end__+0x13806c>
    1f60:	01040200 	mrseq	r0, R12_usr
    1f64:	0605052e 	streq	r0, [r5], -lr, lsr #10
    1f68:	060e054c 	streq	r0, [lr], -ip, asr #10
    1f6c:	4a090501 	bmi	243378 <__bss_end__+0x239068>
    1f70:	2f060505 	svccs	0x00060505
    1f74:	0601052f 	streq	r0, [r1], -pc, lsr #10
    1f78:	061c0513 			; <UNDEFINED> instruction: 0x061c0513
    1f7c:	05010667 	streq	r0, [r1, #-1639]	; 0xfffff999
    1f80:	2f4b0605 	svccs	0x004b0605
    1f84:	02000905 	andeq	r0, r0, #81920	; 0x14000
    1f88:	05130104 	ldreq	r0, [r3, #-260]	; 0xfffffefc
    1f8c:	0402000a 	streq	r0, [r2], #-10
    1f90:	0c051101 	stfeqs	f1, [r5], {1}
    1f94:	01040200 	mrseq	r0, R12_usr
    1f98:	0a050106 	beq	1423b8 <__bss_end__+0x1380a8>
    1f9c:	01040200 	mrseq	r0, R12_usr
    1fa0:	0605052e 	streq	r0, [r5], -lr, lsr #10
    1fa4:	0105674c 	tsteq	r5, ip, asr #14
    1fa8:	19052f06 	stmdbne	r5, {r1, r2, r8, r9, sl, fp, sp}
    1fac:	1b054c06 	blne	154fcc <__bss_end__+0x14acbc>
    1fb0:	2e2a052e 	cfsh64cs	mvdx0, mvdx10, #30
    1fb4:	01063105 	tsteq	r6, r5, lsl #2
    1fb8:	052e4205 	streq	r4, [lr, #-517]!	; 0xfffffdfb
    1fbc:	0531061c 	ldreq	r0, [r1, #-1564]!	; 0xfffff9e4
    1fc0:	09032f05 	stmdbeq	r3, {r0, r2, r8, r9, sl, fp, sp}
    1fc4:	060e052e 	streq	r0, [lr], -lr, lsr #10
    1fc8:	4a210501 	bmi	8433d4 <__bss_end__+0x8390c4>
    1fcc:	0a030105 	beq	c23e8 <__bss_end__+0xb80d8>
    1fd0:	061a052e 	ldreq	r0, [sl], -lr, lsr #10
    1fd4:	00090568 	andeq	r0, r9, r8, ror #10
    1fd8:	30010402 	andcc	r0, r1, r2, lsl #8
    1fdc:	02000a05 	andeq	r0, r0, #20480	; 0x5000
    1fe0:	05110104 	ldreq	r0, [r1, #-260]	; 0xfffffefc
    1fe4:	0402000c 	streq	r0, [r2], #-12
    1fe8:	05010601 	streq	r0, [r1, #-1537]	; 0xfffff9ff
    1fec:	0402000a 	streq	r0, [r2], #-10
    1ff0:	19052e01 	stmdbne	r5, {r0, r9, sl, fp, sp}
    1ff4:	7ee80306 	cdpvc	3, 14, cr0, cr8, cr6, {0}
    1ff8:	2f050566 	svccs	0x00050566
    1ffc:	05672f2f 	strbeq	r2, [r7, #-3887]!	; 0xfffff0d1
    2000:	022f0601 	eoreq	r0, pc, #1048576	; 0x100000
    2004:	01010004 	tsteq	r1, r4
    2008:	000000e2 	andeq	r0, r0, r2, ror #1
    200c:	00590003 	subseq	r0, r9, r3
    2010:	01020000 	mrseq	r0, (UNDEF: 2)
    2014:	000d0efb 	strdeq	r0, [sp], -fp
    2018:	01010101 	tsteq	r1, r1, lsl #2
    201c:	01000000 	mrseq	r0, (UNDEF: 0)
    2020:	2e010000 	cdpcs	0, 0, cr0, cr1, cr0, {0}
    2024:	62696c2f 	rsbvs	r6, r9, #12032	; 0x2f00
    2028:	552f0063 	strpl	r0, [pc, #-99]!	; 1fcd <__code_start__-0x6033>
    202c:	73726573 	cmnvc	r2, #482344960	; 0x1cc00000
    2030:	6c696d2f 	stclvs	13, cr6, [r9], #-188	; 0xffffff44
    2034:	532f7365 			; <UNDEFINED> instruction: 0x532f7365
    2038:	6372756f 	cmnvs	r2, #465567744	; 0x1bc00000
    203c:	73632f65 	cmnvc	r3, #404	; 0x194
    2040:	6c303432 	cfldrsvs	mvf3, [r0], #-200	; 0xffffff38
    2044:	696c2f78 	stmdbvs	ip!, {r3, r4, r5, r6, r8, r9, sl, fp, sp}^
    2048:	2f697062 	svccs	0x00697062
    204c:	6c636e69 	stclvs	14, cr6, [r3], #-420	; 0xfffffe5c
    2050:	00656475 	rsbeq	r6, r5, r5, ror r4
    2054:	72747300 	rsbsvc	r7, r4, #0, 6
    2058:	2e746163 	rpwcssz	f6, f4, f3
    205c:	00010063 	andeq	r0, r1, r3, rrx
    2060:	69707200 	ldmdbvs	r0!, {r9, ip, sp, lr}^
    2064:	0200682e 	andeq	r6, r0, #3014656	; 0x2e0000
    2068:	05000000 	streq	r0, [r0, #-0]
    206c:	0205002c 	andeq	r0, r5, #44, 0	; 0x2c
    2070:	00009a2c 	andeq	r9, r0, ip, lsr #20
    2074:	13050515 	movwne	r0, #21781	; 0x5515
    2078:	060b0513 			; <UNDEFINED> instruction: 0x060b0513
    207c:	00050511 	andeq	r0, r5, r1, lsl r5
    2080:	06010402 	streq	r0, [r1], -r2, lsl #8
    2084:	04020030 	streq	r0, [r2], #-48	; 0xffffffd0
    2088:	09051501 	stmdbeq	r5, {r0, r8, sl, ip}
    208c:	01040200 	mrseq	r0, R12_usr
    2090:	000b0513 	andeq	r0, fp, r3, lsl r5
    2094:	2f010402 	svccs	0x00010402
    2098:	02000505 	andeq	r0, r0, #20971520	; 0x1400000
    209c:	01060104 	tsteq	r6, r4, lsl #2
    20a0:	01040200 	mrseq	r0, R12_usr
    20a4:	054e062e 	strbeq	r0, [lr, #-1582]	; 0xfffff9d2
    20a8:	05010608 	streq	r0, [r1, #-1544]	; 0xfffff9f8
    20ac:	04020005 	streq	r0, [r2], #-5
    20b0:	052f0601 	streq	r0, [pc, #-1537]!	; 1ab7 <__code_start__-0x6549>
    20b4:	04020009 	streq	r0, [r2], #-9
    20b8:	0b051301 	bleq	146cc4 <__bss_end__+0x13c9b4>
    20bc:	01040200 	mrseq	r0, R12_usr
    20c0:	09050106 	stmdbeq	r5, {r1, r2, r8}
    20c4:	01040200 	mrseq	r0, R12_usr
    20c8:	05052f06 	streq	r2, [r5, #-3846]	; 0xfffff0fa
    20cc:	01040200 	mrseq	r0, R12_usr
    20d0:	0f051306 	svceq	0x00051306
    20d4:	01040200 	mrseq	r0, R12_usr
    20d8:	000d052d 	andeq	r0, sp, sp, lsr #10
    20dc:	06010402 	streq	r0, [r1], -r2, lsl #8
    20e0:	0005052f 	andeq	r0, r5, pc, lsr #10
    20e4:	06010402 	streq	r0, [r1], -r2, lsl #8
    20e8:	00040201 	andeq	r0, r4, r1, lsl #4
    20ec:	00b20101 	adcseq	r0, r2, r1, lsl #2
    20f0:	00030000 	andeq	r0, r3, r0
    20f4:	00000059 	andeq	r0, r0, r9, asr r0
    20f8:	0efb0102 	cdpeq	1, 15, cr0, cr11, cr2, {0}
    20fc:	0101000d 	tsteq	r1, sp
    2100:	00000101 	andeq	r0, r0, r1, lsl #2
    2104:	00000100 	andeq	r0, r0, r0, lsl #2
    2108:	6c2f2e01 	stcvs	14, cr2, [pc], #-4	; 210c <__code_start__-0x5ef4>
    210c:	00636269 	rsbeq	r6, r3, r9, ror #4
    2110:	6573552f 	ldrbvs	r5, [r3, #-1327]!	; 0xfffffad1
    2114:	6d2f7372 	stcvs	3, cr7, [pc, #-456]!	; 1f54 <__code_start__-0x60ac>
    2118:	73656c69 	cmnvc	r5, #26880	; 0x6900
    211c:	756f532f 	strbvc	r5, [pc, #-815]!	; 1df5 <__code_start__-0x620b>
    2120:	2f656372 	svccs	0x00656372
    2124:	34327363 	ldrtcc	r7, [r2], #-867	; 0xfffffc9d
    2128:	2f786c30 	svccs	0x00786c30
    212c:	7062696c 	rsbvc	r6, r2, ip, ror #18
    2130:	6e692f69 	cdpvs	15, 6, cr2, cr9, cr9, {3}
    2134:	64756c63 	ldrbtvs	r6, [r5], #-3171	; 0xfffff39d
    2138:	73000065 	movwvc	r0, #101	; 0x65
    213c:	6d637274 	sfmvs	f7, 2, [r3, #-464]!	; 0xfffffe30
    2140:	00632e70 	rsbeq	r2, r3, r0, ror lr
    2144:	72000001 	andvc	r0, r0, #1, 0
    2148:	682e6970 	stmdavs	lr!, {r4, r5, r6, r8, fp, sp, lr}
    214c:	00000200 	andeq	r0, r0, r0, lsl #4
    2150:	002a0500 	eoreq	r0, sl, r0, lsl #10
    2154:	9a580205 	bls	1602970 <__bss_end__+0x15f8660>
    2158:	05140000 	ldreq	r0, [r4, #-0]
    215c:	10051309 	andne	r1, r5, r9, lsl #6
    2160:	0f050106 	svceq	0x00050106
    2164:	10052e06 	andne	r2, r5, r6, lsl #28
    2168:	0f058206 	svceq	0x00058206
    216c:	0011052e 	andseq	r0, r1, lr, lsr #10
    2170:	06010402 	streq	r0, [r1], -r2, lsl #8
    2174:	001c054b 	andseq	r0, ip, fp, asr #10
    2178:	06010402 	streq	r0, [r1], -r2, lsl #8
    217c:	000f052d 	andeq	r0, pc, sp, lsr #10
    2180:	06010402 	streq	r0, [r1], -r2, lsl #8
    2184:	0013052e 	andseq	r0, r3, lr, lsr #10
    2188:	06010402 	streq	r0, [r1], -r2, lsl #8
    218c:	06090501 	streq	r0, [r9], -r1, lsl #10
    2190:	0601054c 	streq	r0, [r1], -ip, asr #10
    2194:	09054a13 	stmdbeq	r5, {r0, r1, r4, r9, fp, lr}
    2198:	01052d06 	tsteq	r5, r6, lsl #26
    219c:	022e1306 	eoreq	r1, lr, #402653184	; 0x18000000
    21a0:	01010002 	tsteq	r1, r2
    21a4:	0000009d 	muleq	r0, sp, r0
    21a8:	00590003 	subseq	r0, r9, r3
    21ac:	01020000 	mrseq	r0, (UNDEF: 2)
    21b0:	000d0efb 	strdeq	r0, [sp], -fp
    21b4:	01010101 	tsteq	r1, r1, lsl #2
    21b8:	01000000 	mrseq	r0, (UNDEF: 0)
    21bc:	2e010000 	cdpcs	0, 0, cr0, cr1, cr0, {0}
    21c0:	62696c2f 	rsbvs	r6, r9, #12032	; 0x2f00
    21c4:	552f0063 	strpl	r0, [pc, #-99]!	; 2169 <__code_start__-0x5e97>
    21c8:	73726573 	cmnvc	r2, #482344960	; 0x1cc00000
    21cc:	6c696d2f 	stclvs	13, cr6, [r9], #-188	; 0xffffff44
    21d0:	532f7365 			; <UNDEFINED> instruction: 0x532f7365
    21d4:	6372756f 	cmnvs	r2, #465567744	; 0x1bc00000
    21d8:	73632f65 	cmnvc	r3, #404	; 0x194
    21dc:	6c303432 	cfldrsvs	mvf3, [r0], #-200	; 0xffffff38
    21e0:	696c2f78 	stmdbvs	ip!, {r3, r4, r5, r6, r8, r9, sl, fp, sp}^
    21e4:	2f697062 	svccs	0x00697062
    21e8:	6c636e69 	stclvs	14, cr6, [r3], #-420	; 0xfffffe5c
    21ec:	00656475 	rsbeq	r6, r5, r5, ror r4
    21f0:	72747300 	rsbsvc	r7, r4, #0, 6
    21f4:	2e797063 	cdpcs	0, 7, cr7, cr9, cr3, {3}
    21f8:	00010063 	andeq	r0, r1, r3, rrx
    21fc:	69707200 	ldmdbvs	r0!, {r9, ip, sp, lr}^
    2200:	0200682e 	andeq	r6, r0, #3014656	; 0x2e0000
    2204:	05000000 	streq	r0, [r0, #-0]
    2208:	0205002a 	andeq	r0, r5, #42, 0	; 0x2a
    220c:	00009a9c 	muleq	r0, ip, sl
    2210:	13050514 	movwne	r0, #21780	; 0x5514
    2214:	00220513 	eoreq	r0, r2, r3, lsl r5
    2218:	2e010402 	cdpcs	4, 0, cr0, cr1, cr2, {0}
    221c:	02000b05 	andeq	r0, r0, #5120	; 0x1400
    2220:	05010104 	streq	r0, [r1, #-260]	; 0xfffffefc
    2224:	04020015 	streq	r0, [r2], #-21	; 0xffffffeb
    2228:	05010601 	streq	r0, [r1, #-1537]	; 0xfffff9ff
    222c:	0402000b 	streq	r0, [r2], #-11
    2230:	13052e01 	movwne	r2, #24065	; 0x5e01
    2234:	01040200 	mrseq	r0, R12_usr
    2238:	000b052e 	andeq	r0, fp, lr, lsr #10
    223c:	2e010402 	cdpcs	4, 0, cr0, cr1, cr2, {0}
    2240:	01000402 	tsteq	r0, r2, lsl #8
    2244:	0000fd01 	andeq	pc, r0, r1, lsl #26
    2248:	bf000300 	svclt	0x00000300
    224c:	02000000 	andeq	r0, r0, #0, 0
    2250:	0d0efb01 	vstreq	d15, [lr, #-4]
    2254:	01010100 	mrseq	r0, (UNDEF: 17)
    2258:	00000001 	andeq	r0, r0, r1
    225c:	01000001 	tsteq	r0, r1
    2260:	696c2f2e 	stmdbvs	ip!, {r1, r2, r3, r5, r8, r9, sl, fp, sp}^
    2264:	2f006362 	svccs	0x00006362
    2268:	72657355 	rsbvc	r7, r5, #1409286145	; 0x54000001
    226c:	696d2f73 	stmdbvs	sp!, {r0, r1, r4, r5, r6, r8, r9, sl, fp, sp}^
    2270:	2f73656c 	svccs	0x0073656c
    2274:	72756f53 	rsbsvc	r6, r5, #332	; 0x14c
    2278:	632f6563 			; <UNDEFINED> instruction: 0x632f6563
    227c:	30343273 	eorscc	r3, r4, r3, ror r2
    2280:	6c2f786c 	stcvs	8, cr7, [pc], #-432	; 20d8 <__code_start__-0x5f28>
    2284:	69706269 	ldmdbvs	r0!, {r0, r3, r5, r6, r9, sp, lr}^
    2288:	636e692f 	cmnvs	lr, #770048	; 0xbc000
    228c:	6564756c 	strbvs	r7, [r4, #-1388]!	; 0xfffffa94
    2290:	706f2f00 	rsbvc	r2, pc, r0, lsl #30
    2294:	6f682f74 	svcvs	0x00682f74
    2298:	7262656d 	rsbvc	r6, r2, #457179136	; 0x1b400000
    229c:	432f7765 			; <UNDEFINED> instruction: 0x432f7765
    22a0:	616c6c65 	cmnvs	ip, r5, ror #24
    22a4:	72612f72 	rsbvc	r2, r1, #456	; 0x1c8
    22a8:	6f6e2d6d 	svcvs	0x006e2d6d
    22ac:	652d656e 	strvs	r6, [sp, #-1390]!	; 0xfffffa92
    22b0:	2d696261 	sfmcs	f6, 2, [r9, #-388]!	; 0xfffffe7c
    22b4:	2d392f39 	ldccs	15, cr2, [r9, #-228]!	; 0xffffff1c
    22b8:	39313032 	ldmdbcc	r1!, {r1, r4, r5, ip, sp}
    22bc:	632d3471 			; <UNDEFINED> instruction: 0x632d3471
    22c0:	37303173 			; <UNDEFINED> instruction: 0x37303173
    22c4:	696c2f65 	stmdbvs	ip!, {r0, r2, r5, r6, r8, r9, sl, fp, sp}^
    22c8:	63672f62 	cmnvs	r7, #392	; 0x188
    22cc:	72612f63 	rsbvc	r2, r1, #396	; 0x18c
    22d0:	6f6e2d6d 	svcvs	0x006e2d6d
    22d4:	652d656e 	strvs	r6, [sp, #-1390]!	; 0xfffffa92
    22d8:	2f696261 	svccs	0x00696261
    22dc:	2e322e39 	mrccs	14, 1, r2, cr2, cr9, {1}
    22e0:	6e692f31 	mcrvs	15, 3, r2, cr9, cr1, {1}
    22e4:	64756c63 	ldrbtvs	r6, [r5], #-3171	; 0xfffff39d
    22e8:	73000065 	movwvc	r0, #101	; 0x65
    22ec:	636e7274 	cmnvs	lr, #116, 4	; 0x40000007
    22f0:	632e706d 			; <UNDEFINED> instruction: 0x632e706d
    22f4:	00000100 	andeq	r0, r0, r0, lsl #2
    22f8:	2e697072 	mcrcs	0, 3, r7, cr9, cr2, {3}
    22fc:	00020068 	andeq	r0, r2, r8, rrx
    2300:	64747300 	ldrbtvs	r7, [r4], #-768	; 0xfffffd00
    2304:	2e666564 	cdpcs	5, 6, cr6, cr6, cr4, {3}
    2308:	00030068 	andeq	r0, r3, r8, rrx
    230c:	39050000 	stmdbcc	r5, {}	; <UNPREDICTABLE>
    2310:	b4020500 	strlt	r0, [r2], #-1280	; 0xfffffb00
    2314:	1500009a 	strne	r0, [r0, #-154]	; 0xffffff66
    2318:	13130505 	tstne	r3, #20971520	; 0x1400000
    231c:	2e060a05 	vmlacs.f32	s0, s12, s10
    2320:	052f0c05 	streq	r0, [pc, #-3077]!	; 1723 <__code_start__-0x68dd>
    2324:	0b052e13 	bleq	14db78 <__bss_end__+0x143868>
    2328:	0609052e 	streq	r0, [r9], -lr, lsr #10
    232c:	110a054a 	tstne	sl, sl, asr #10
    2330:	0c050106 	stfeqs	f0, [r5], {6}
    2334:	2f01054e 	svccs	0x0001054e
    2338:	2b060d05 	blcs	185754 <__bss_end__+0x17b444>
    233c:	01061b05 	tsteq	r6, r5, lsl #22
    2340:	0002022e 	andeq	r0, r2, lr, lsr #4
    2344:	008a0101 	addeq	r0, sl, r1, lsl #2
    2348:	00030000 	andeq	r0, r3, r0
    234c:	0000006e 	andeq	r0, r0, lr, rrx
    2350:	0efb0102 	cdpeq	1, 15, cr0, cr11, cr2, {0}
    2354:	0101000d 	tsteq	r1, sp
    2358:	00000101 	andeq	r0, r0, r1, lsl #2
    235c:	00000100 	andeq	r0, r0, r0, lsl #2
    2360:	732f2e01 			; <UNDEFINED> instruction: 0x732f2e01
    2364:	66666174 			; <UNDEFINED> instruction: 0x66666174
    2368:	6372732d 	cmnvs	r2, #-1275068416	; 0xb4000000
    236c:	73552f00 	cmpvc	r5, #0, 30
    2370:	2f737265 	svccs	0x00737265
    2374:	656c696d 	strbvs	r6, [ip, #-2413]!	; 0xfffff693
    2378:	6f532f73 	svcvs	0x00532f73
    237c:	65637275 	strbvs	r7, [r3, #-629]!	; 0xfffffd8b
    2380:	3273632f 	rsbscc	r6, r3, #-1140850688	; 0xbc000000
    2384:	786c3034 	stmdavc	ip!, {r2, r4, r5, ip, sp}^
    2388:	62696c2f 	rsbvs	r6, r9, #12032	; 0x2f00
    238c:	692f6970 	stmdbvs	pc!, {r4, r5, r6, r8, fp, sp, lr}	; <UNPREDICTABLE>
    2390:	756c636e 	strbvc	r6, [ip, #-878]!	; 0xfffffc92
    2394:	00006564 	andeq	r6, r0, r4, ror #10
    2398:	61666564 	cmnvs	r6, r4, ror #10
    239c:	2d746c75 	ldclcs	12, cr6, [r4, #-468]!	; 0xfffffe2c
    23a0:	6f626572 	svcvs	0x00626572
    23a4:	632d746f 			; <UNDEFINED> instruction: 0x632d746f
    23a8:	6f6c6c61 	svcvs	0x006c6c61
    23ac:	632e7475 			; <UNDEFINED> instruction: 0x632e7475
    23b0:	00000100 	andeq	r0, r0, r0, lsl #2
    23b4:	2e697072 	mcrcs	0, 3, r7, cr9, cr2, {3}
    23b8:	00020068 	andeq	r0, r2, r8, rrx
    23bc:	1b050000 	blne	1423c4 <__bss_end__+0x1380b4>
    23c0:	e4020500 	str	r0, [r2], #-1280	; 0xfffffb00
    23c4:	1400009a 	strne	r0, [r0], #-154	; 0xffffff66
    23c8:	05011c05 	streq	r1, [r1, #-3077]	; 0xfffff3fb
    23cc:	02010601 	andeq	r0, r1, #1048576	; 0x100000
    23d0:	01010002 	tsteq	r1, r2

Disassembly of section .debug_str:

00000000 <.debug_str>:
   0:	666e6f63 	strbtvs	r6, [lr], -r3, ror #30
   4:	725f6769 	subsvc	r6, pc, #27525120	; 0x1a40000
   8:	63006765 	movwvs	r6, #1893	; 0x765
   c:	65766e6f 	ldrbvs	r6, [r6, #-3695]!	; 0xfffff191
  10:	6f697372 	svcvs	0x00697372
  14:	65725f6e 	ldrbvs	r5, [r2, #-3950]!	; 0xfffff092
  18:	6f6e0067 	svcvs	0x006e0067
  1c:	69616d74 	stmdbvs	r1!, {r2, r4, r5, r6, r8, sl, fp, sp, lr}^
  20:	6e75006e 	cdpvs	0, 7, cr0, cr5, cr14, {3}
  24:	6e676973 			; <UNDEFINED> instruction: 0x6e676973
  28:	63206465 			; <UNDEFINED> instruction: 0x63206465
  2c:	00726168 	rsbseq	r6, r2, r8, ror #2
  30:	61656c63 	cmnvs	r5, r3, ror #24
  34:	65725f6e 	ldrbvs	r5, [r2, #-3950]!	; 0xfffff092
  38:	746f6f62 	strbtvc	r6, [pc], #-3938	; 40 <__code_start__-0x7fc0>
  3c:	6f687300 	svcvs	0x00687300
  40:	75207472 	strvc	r7, [r0, #-1138]!	; 0xfffffb8e
  44:	6769736e 	strbvs	r7, [r9, -lr, ror #6]!
  48:	2064656e 	rsbcs	r6, r4, lr, ror #10
  4c:	00746e69 	rsbseq	r6, r4, r9, ror #28
  50:	31736461 	cmncc	r3, r1, ror #8
  54:	5f353131 	svcpl	0x00353131
  58:	64616572 	strbtvs	r6, [r1], #-1394	; 0xfffffa8e
  5c:	61003631 	tstvs	r0, r1, lsr r6
  60:	31317364 	teqcc	r1, r4, ror #6
  64:	635f3531 	cmpvs	pc, #205520896	; 0xc400000
  68:	69666e6f 	stmdbvs	r6!, {r0, r1, r2, r3, r5, r6, r9, sl, fp, sp, lr}^
  6c:	6f5f0067 	svcvs	0x005f0067
  70:	61007475 	tstvs	r0, r5, ror r4
  74:	31317364 	teqcc	r1, r4, ror #6
  78:	775f3531 	smmlarvc	pc, r1, r5, r3	; <UNPREDICTABLE>
  7c:	5f746961 	svcpl	0x00746961
  80:	5f726f66 	svcpl	0x00726f66
  84:	61746164 	cmnvs	r4, r4, ror #2
  88:	69726400 	ldmdbvs	r2!, {sl, sp, lr}^
  8c:	2e726576 	mrccs	5, 3, r6, cr2, cr6, {3}
  90:	6f6c0063 	svcvs	0x006c0063
  94:	6c20676e 	stcvs	7, cr6, [r0], #-440	; 0xfffffe48
  98:	20676e6f 	rsbcs	r6, r7, pc, ror #28
  9c:	69736e75 	ldmdbvs	r3!, {r0, r2, r4, r5, r6, r9, sl, fp, sp, lr}^
  a0:	64656e67 	strbtvs	r6, [r5], #-3687	; 0xfffff199
  a4:	746e6920 	strbtvc	r6, [lr], #-2336	; 0xfffff6e0
  a8:	6e6f6c00 	cdpvs	12, 6, cr6, cr15, cr0, {0}
  ac:	6f6c2067 	svcvs	0x006c2067
  b0:	6920676e 	stmdbvs	r0!, {r1, r2, r3, r5, r6, r8, r9, sl, sp, lr}
  b4:	7200746e 	andvc	r7, r0, #1845493760	; 0x6e000000
  b8:	705f6970 	subsvc	r6, pc, r0, ror r9	; <UNPREDICTABLE>
  bc:	68637475 	stmdavs	r3!, {r0, r2, r4, r5, r6, sl, ip, sp, lr}^
  c0:	73007261 	movwvc	r7, #609	; 0x261
  c4:	74726f68 	ldrbtvc	r6, [r2], #-3944	; 0xfffff098
  c8:	746e6920 	strbtvc	r6, [lr], #-2336	; 0xfffff6e0
  cc:	73552f00 	cmpvc	r5, #0, 30
  d0:	2f737265 	svccs	0x00737265
  d4:	656c696d 	strbvs	r6, [ip, #-2413]!	; 0xfffff693
  d8:	6f532f73 	svcvs	0x00532f73
  dc:	65637275 	strbvs	r7, [r3, #-629]!	; 0xfffffd8b
  e0:	3273632f 	rsbscc	r6, r3, #-1140850688	; 0xbc000000
  e4:	786c3034 	stmdavc	ip!, {r2, r4, r5, ip, sp}^
  e8:	62616c2f 	rsbvs	r6, r1, #12032	; 0x2f00
  ec:	2d382f73 	ldccs	15, cr2, [r8, #-460]!	; 0xfffffe34
  f0:	2d633269 	sfmcs	f3, 2, [r3, #-420]!	; 0xfffffe5c
  f4:	2f636461 	svccs	0x00636461
  f8:	65646f63 	strbvs	r6, [r4, #-3939]!	; 0xfffff09d
  fc:	76656400 	strbtvc	r6, [r5], -r0, lsl #8
 100:	6464615f 	strbtvs	r6, [r4], #-351	; 0xfffffea1
 104:	4e470072 	mcrmi	0, 2, r0, cr7, cr2, {3}
 108:	39432055 	stmdbcc	r3, {r0, r2, r4, r6, sp}^
 10c:	2e392039 	mrccs	0, 1, r2, cr9, cr9, {1}
 110:	20312e32 	eorscs	r2, r1, r2, lsr lr
 114:	39313032 	ldmdbcc	r1!, {r1, r4, r5, ip, sp}
 118:	35323031 	ldrcc	r3, [r2, #-49]!	; 0xffffffcf
 11c:	65722820 	ldrbvs	r2, [r2, #-2080]!	; 0xfffff7e0
 120:	7361656c 	cmnvc	r1, #108, 10	; 0x1b000000
 124:	5b202965 	blpl	80a6c0 <__bss_end__+0x8003b0>
 128:	2f4d5241 	svccs	0x004d5241
 12c:	2d6d7261 	sfmcs	f7, 2, [sp, #-388]!	; 0xfffffe7c
 130:	72622d39 	rsbvc	r2, r2, #3648	; 0xe40
 134:	68636e61 	stmdavs	r3!, {r0, r5, r6, r9, sl, fp, sp, lr}^
 138:	76657220 	strbtvc	r7, [r5], -r0, lsr #4
 13c:	6f697369 	svcvs	0x00697369
 140:	3732206e 	ldrcc	r2, [r2, -lr, rrx]!
 144:	39393537 	ldmdbcc	r9!, {r0, r1, r2, r4, r5, r8, sl, ip, sp}
 148:	6d2d205d 	stcvs	0, cr2, [sp, #-372]!	; 0xfffffe8c
 14c:	3d757063 	ldclcc	0, cr7, [r5, #-396]!	; 0xfffffe74
 150:	316d7261 	cmncc	sp, r1, ror #4
 154:	6a363731 	bvs	d8de20 <__bss_end__+0xd83b10>
 158:	732d667a 			; <UNDEFINED> instruction: 0x732d667a
 15c:	746d2d20 	strbtvc	r2, [sp], #-3360	; 0xfffff2e0
 160:	3d656e75 	stclcc	14, cr6, [r5, #-468]!	; 0xfffffe2c
 164:	316d7261 	cmncc	sp, r1, ror #4
 168:	6a363731 	bvs	d8de34 <__bss_end__+0xd83b24>
 16c:	732d667a 			; <UNDEFINED> instruction: 0x732d667a
 170:	666d2d20 	strbtvs	r2, [sp], -r0, lsr #26
 174:	74616f6c 	strbtvc	r6, [r1], #-3948	; 0xfffff094
 178:	6962612d 	stmdbvs	r2!, {r0, r2, r3, r5, r8, sp, lr}^
 17c:	666f733d 			; <UNDEFINED> instruction: 0x666f733d
 180:	6d2d2074 	stcvs	0, cr2, [sp, #-464]!	; 0xfffffe30
 184:	206d7261 	rsbcs	r7, sp, r1, ror #4
 188:	72616d2d 	rsbvc	r6, r1, #2880	; 0xb40
 18c:	613d6863 	teqvs	sp, r3, ror #16
 190:	36766d72 			; <UNDEFINED> instruction: 0x36766d72
 194:	2d207a6b 	vstmdbcs	r0!, {s14-s120}
 198:	62646767 	rsbvs	r6, r4, #27000832	; 0x19c0000
 19c:	674f2d20 	strbvs	r2, [pc, -r0, lsr #26]
 1a0:	74732d20 	ldrbtvc	r2, [r3], #-3360	; 0xfffff2e0
 1a4:	6e673d64 	cdpvs	13, 6, cr3, cr7, cr4, {3}
 1a8:	20393975 	eorscs	r3, r9, r5, ror r9
 1ac:	7266662d 	rsbvc	r6, r6, #47185920	; 0x2d00000
 1b0:	74736565 	ldrbtvc	r6, [r3], #-1381	; 0xfffffa9b
 1b4:	69646e61 	stmdbvs	r4!, {r0, r5, r6, r9, sl, fp, sp, lr}^
 1b8:	6e00676e 	cdpvs	7, 0, cr6, cr0, cr14, {3}
 1bc:	73746962 	cmnvc	r4, #1605632	; 0x188000
 1c0:	74696200 	strbtvc	r6, [r9], #-512	; 0xfffffe00
 1c4:	65675f73 	strbvs	r5, [r7, #-3955]!	; 0xfffff08d
 1c8:	6f740074 	svcvs	0x00740074
 1cc:	6972775f 	ldmdbvs	r2!, {r0, r1, r2, r3, r4, r6, r8, r9, sl, ip, sp, lr}^
 1d0:	74006574 	strvc	r6, [r0], #-1396	; 0xfffffa8c
 1d4:	6f656d69 	svcvs	0x00656d69
 1d8:	755f7475 	ldrbvc	r7, [pc, #-1141]	; fffffd6b <__bss_end__+0xffff5a5b>
 1dc:	00636573 	rsbeq	r6, r3, r3, ror r5
 1e0:	75665f5f 	strbvc	r5, [r6, #-3935]!	; 0xfffff0a1
 1e4:	5f5f636e 	svcpl	0x005f636e
 1e8:	63326900 	teqvs	r2, #0, 18
 1ec:	6972775f 	ldmdbvs	r2!, {r0, r1, r2, r3, r4, r6, r8, r9, sl, ip, sp, lr}^
 1f0:	62006574 	andvs	r6, r0, #116, 10	; 0x1d000000
 1f4:	5f737469 	svcpl	0x00737469
 1f8:	00746573 	rsbseq	r6, r4, r3, ror r5
 1fc:	31736461 	cmncc	r3, r1, ror #8
 200:	5f353131 	svcpl	0x00353131
 204:	65736572 	ldrbvs	r6, [r3, #-1394]!	; 0xfffffa8e
 208:	70670074 	rsbvc	r0, r7, r4, ror r0
 20c:	725f6f69 	subsvc	r6, pc, #420	; 0x1a4
 210:	00646165 	rsbeq	r6, r4, r5, ror #2
 214:	5f633269 	svcpl	0x00633269
 218:	74696e69 	strbtvc	r6, [r9], #-3689	; 0xfffff197
 21c:	6d697400 	cfstrdvs	mvd7, [r9, #-0]
 220:	675f7265 	ldrbvs	r7, [pc, -r5, ror #4]
 224:	755f7465 	ldrbvc	r7, [pc, #-1125]	; fffffdc7 <__bss_end__+0xffff5ab7>
 228:	00636573 	rsbeq	r6, r3, r3, ror r5
 22c:	616c6564 	cmnvs	ip, r4, ror #10
 230:	736d5f79 	cmnvc	sp, #484	; 0x1e4
 234:	74696200 	strbtvc	r6, [r9], #-512	; 0xfffffe00
 238:	6c635f73 	stclvs	15, cr5, [r3], #-460	; 0xfffffe34
 23c:	70670072 	rsbvc	r0, r7, r2, ror r0
 240:	735f6f69 	cmpvc	pc, #420	; 0x1a4
 244:	695f7465 	ldmdbvs	pc, {r0, r2, r5, r6, sl, ip, sp, lr}^	; <UNPREDICTABLE>
 248:	7475706e 	ldrbtvc	r7, [r5], #-110	; 0xffffff92
 24c:	74696200 	strbtvc	r6, [r9], #-512	; 0xfffffe00
 250:	5f73695f 	svcpl	0x0073695f
 254:	0066666f 	rsbeq	r6, r6, pc, ror #12
 258:	55465f5f 	strbpl	r5, [r6, #-3935]	; 0xfffff0a1
 25c:	4954434e 	ldmdbmi	r4, {r1, r2, r3, r6, r8, r9, lr}^
 260:	5f5f4e4f 	svcpl	0x005f4e4f
 264:	6c656400 	cfstrdvs	mvd6, [r5], #-0
 268:	755f7961 	ldrbvc	r7, [pc, #-2401]	; fffff90f <__bss_end__+0xffff55ff>
 26c:	69620073 	stmdbvs	r2!, {r0, r1, r4, r5, r6}^
 270:	73695f74 	cmnvc	r9, #116, 30	; 0x1d0
 274:	006e6f5f 	rsbeq	r6, lr, pc, asr pc
 278:	746e6975 	strbtvc	r6, [lr], #-2421	; 0xfffff68b
 27c:	00745f38 	rsbseq	r5, r4, r8, lsr pc
 280:	73746962 	cmnvc	r4, #1605632	; 0x188000
 284:	73616d5f 	cmnvc	r1, #6080	; 0x17c0
 288:	6962006b 	stmdbvs	r2!, {r0, r1, r3, r5, r6}^
 28c:	6c635f74 	stclvs	15, cr5, [r3], #-464	; 0xfffffe30
 290:	69750072 	ldmdbvs	r5!, {r1, r4, r5, r6}^
 294:	3631746e 	ldrtcc	r7, [r1], -lr, ror #8
 298:	6200745f 	andvs	r7, r0, #1593835520	; 0x5f000000
 29c:	5f737469 	svcpl	0x00737469
 2a0:	69007165 	stmdbvs	r0, {r0, r2, r5, r6, r8, ip, sp, lr}
 2a4:	725f6332 	subsvc	r6, pc, #-939524096	; 0xc8000000
 2a8:	00646165 	rsbeq	r6, r4, r5, ror #2
 2ac:	746e6975 	strbtvc	r6, [lr], #-2421	; 0xfffff68b
 2b0:	745f3233 	ldrbvc	r3, [pc], #-563	; 2b8 <__code_start__-0x7d48>
 2b4:	73646100 	cmnvc	r4, #0
 2b8:	35313131 	ldrcc	r3, [r1, #-305]!	; 0xfffffecf
 2bc:	7200632e 	andvc	r6, r0, #-1207959552	; 0xb8000000
 2c0:	725f6970 	subsvc	r6, pc, #112, 18	; 0x1c0000
 2c4:	74657365 	strbtvc	r7, [r5], #-869	; 0xfffffc9b
 2c8:	7475705f 	ldrbtvc	r7, [r5], #-95	; 0xffffffa1
 2cc:	64610063 	strbtvs	r0, [r1], #-99	; 0xffffff9d
 2d0:	31313173 	teqcc	r1, r3, ror r1
 2d4:	72775f35 	rsbsvc	r5, r7, #212	; 0xd4
 2d8:	31657469 	cmncc	r5, r9, ror #8
 2dc:	65730036 	ldrbvs	r0, [r3, #-54]!	; 0xffffffca
 2e0:	6c615f74 	stclvs	15, cr5, [r1], #-464	; 0xfffffe30
 2e4:	6e69006c 	cdpvs	0, 6, cr0, cr9, cr12, {3}
 2e8:	61697469 	cmnvs	r9, r9, ror #8
 2ec:	657a696c 	ldrbvs	r6, [sl, #-2412]!	; 0xfffff694
 2f0:	00705f64 	rsbseq	r5, r0, r4, ror #30
 2f4:	63656863 	cmnvs	r5, #6488064	; 0x630000
 2f8:	616c5f6b 	cmnvs	ip, fp, ror #30
 2fc:	74756f79 	ldrbtvc	r6, [r5], #-3961	; 0xfffff087
 300:	6f682f00 	svcvs	0x00682f00
 304:	652f656d 	strvs	r6, [pc, #-1389]!	; fffffd9f <__bss_end__+0xffff5a8f>
 308:	656c676e 	strbvs	r6, [ip, #-1902]!	; 0xfffff892
 30c:	6c632f72 	stclvs	15, cr2, [r3], #-456	; 0xfffffe38
 310:	2f737361 	svccs	0x00737361
 314:	34327363 	ldrtcc	r7, [r2], #-867	; 0xfffffc9d
 318:	2d786c30 	ldclcs	12, cr6, [r8, #-192]!	; 0xffffff40
 31c:	70733232 	rsbsvc	r3, r3, r2, lsr r2
 320:	616c2f72 	smcvs	49906	; 0xc2f2
 324:	382f7362 	stmdacc	pc!, {r1, r5, r6, r8, r9, ip, sp, lr}	; <UNPREDICTABLE>
 328:	6332692d 	teqvs	r2, #737280	; 0xb4000
 32c:	6364612d 	cmnvs	r4, #1073741835	; 0x4000000b
 330:	646f632f 	strbtvs	r6, [pc], #-815	; 338 <__code_start__-0x7cc8>
 334:	74732e65 	ldrbtvc	r2, [r3], #-3685	; 0xfffff19b
 338:	00666661 	rsbeq	r6, r6, r1, ror #12
 33c:	636f6c63 	cmnvs	pc, #25344	; 0x6300
 340:	74735f6b 	ldrbtvc	r5, [r3], #-3947	; 0xfffff095
 344:	63746572 	cmnvs	r4, #478150656	; 0x1c800000
 348:	69745f68 	ldmdbvs	r4!, {r3, r5, r6, r8, r9, sl, fp, ip, lr}^
 34c:	756f656d 	strbvc	r6, [pc, #-1389]!	; fffffde7 <__bss_end__+0xffff5ad7>
 350:	6c630074 	stclvs	0, cr0, [r3], #-464	; 0xfffffe30
 354:	5f726165 	svcpl	0x00726165
 358:	50470063 	subpl	r0, r7, r3, rrx
 35c:	465f4f49 	ldrbmi	r4, [pc], -r9, asr #30
 360:	5f434e55 	svcpl	0x00434e55
 364:	5054554f 	subspl	r5, r4, pc, asr #10
 368:	63005455 	movwvs	r5, #1109	; 0x455
 36c:	7261656c 	rsbvc	r6, r1, #108, 10	; 0x1b000000
 370:	4700735f 	smlsdmi	r0, pc, r3, r7	; <UNPREDICTABLE>
 374:	5f4f4950 	svcpl	0x004f4950
 378:	434e5546 	movtmi	r5, #58694	; 0xe546
 37c:	544c415f 	strbpl	r4, [ip], #-351	; 0xfffffea1
 380:	50470030 	subpl	r0, r7, r0, lsr r0
 384:	465f4f49 	ldrbmi	r4, [pc], -r9, asr #30
 388:	5f434e55 	svcpl	0x00434e55
 38c:	31544c41 	cmpcc	r4, r1, asr #24
 390:	49504700 	ldmdbmi	r0, {r8, r9, sl, lr}^
 394:	55465f4f 	strbpl	r5, [r6, #-3919]	; 0xfffff0b1
 398:	415f434e 	cmpmi	pc, lr, asr #6
 39c:	0032544c 	eorseq	r5, r2, ip, asr #8
 3a0:	4f495047 	svcmi	0x00495047
 3a4:	4e55465f 	mrcmi	6, 2, r4, cr5, cr15, {2}
 3a8:	4c415f43 	mcrrmi	15, 4, r5, r1, cr3
 3ac:	47003354 	smlsdmi	r0, r4, r3, r3
 3b0:	5f4f4950 	svcpl	0x004f4950
 3b4:	434e5546 	movtmi	r5, #58694	; 0xe546
 3b8:	544c415f 	strbpl	r4, [ip], #-351	; 0xfffffea1
 3bc:	50470034 	subpl	r0, r7, r4, lsr r0
 3c0:	465f4f49 	ldrbmi	r4, [pc], -r9, asr #30
 3c4:	5f434e55 	svcpl	0x00434e55
 3c8:	35544c41 	ldrbcc	r4, [r4, #-3137]	; 0xfffff3bf
 3cc:	725f7300 	subsvc	r7, pc, #0, 6
 3d0:	73696765 	cmnvc	r9, #26476544	; 0x1940000
 3d4:	00726574 	rsbseq	r6, r2, r4, ror r5
 3d8:	6e656c64 	cdpvs	12, 6, cr6, cr5, cr4, {3}
 3dc:	74757000 	ldrbtvc	r7, [r5], #-0
 3e0:	63003233 	movwvs	r3, #563	; 0x233
 3e4:	6765725f 			; <UNDEFINED> instruction: 0x6765725f
 3e8:	65747369 	ldrbvs	r7, [r4, #-873]!	; 0xfffffc97
 3ec:	68730072 	ldmdavs	r3!, {r1, r4, r5, r6}^
 3f0:	00746669 	rsbseq	r6, r4, r9, ror #12
 3f4:	636f6c63 	cmnvs	pc, #25344	; 0x6300
 3f8:	69645f6b 	stmdbvs	r4!, {r0, r1, r3, r5, r6, r8, r9, sl, fp, ip, lr}^
 3fc:	6c630076 	stclvs	0, cr0, [r3], #-472	; 0xfffffe28
 400:	00726165 	rsbseq	r6, r2, r5, ror #2
 404:	656e6f64 	strbvs	r6, [lr, #-3940]!	; 0xfffff09c
 408:	49504700 	ldmdbmi	r0, {r8, r9, sl, lr}^
 40c:	55465f4f 	strbpl	r5, [r6, #-3919]	; 0xfffff0b1
 410:	495f434e 	ldmdbmi	pc, {r1, r2, r3, r6, r8, r9, lr}^	; <UNPREDICTABLE>
 414:	5455504e 	ldrbpl	r5, [r5], #-78	; 0xffffffb2
 418:	746e6900 	strbtvc	r6, [lr], #-2304	; 0xfffff700
 41c:	4e470064 	cdpmi	0, 4, cr0, cr7, cr4, {3}
 420:	39432055 	stmdbcc	r3, {r0, r2, r4, r6, sp}^
 424:	30312039 	eorscc	r2, r1, r9, lsr r0
 428:	312e332e 			; <UNDEFINED> instruction: 0x312e332e
 42c:	32303220 	eorscc	r3, r0, #32, 4
 430:	32383031 	eorscc	r3, r8, #49, 0	; 0x31
 434:	72282034 	eorvc	r2, r8, #52, 0	; 0x34
 438:	61656c65 	cmnvs	r5, r5, ror #24
 43c:	20296573 	eorcs	r6, r9, r3, ror r5
 440:	70636d2d 	rsbvc	r6, r3, sp, lsr #26
 444:	72613d75 	rsbvc	r3, r1, #7488	; 0x1d40
 448:	3731316d 	ldrcc	r3, [r1, -sp, ror #2]!
 44c:	667a6a36 			; <UNDEFINED> instruction: 0x667a6a36
 450:	2d20732d 	stccs	3, cr7, [r0, #-180]!	; 0xffffff4c
 454:	6e75746d 	cdpvs	4, 7, cr7, cr5, cr13, {3}
 458:	72613d65 	rsbvc	r3, r1, #6464	; 0x1940
 45c:	3731316d 	ldrcc	r3, [r1, -sp, ror #2]!
 460:	667a6a36 			; <UNDEFINED> instruction: 0x667a6a36
 464:	2d20732d 	stccs	3, cr7, [r0, #-180]!	; 0xffffff4c
 468:	6f6c666d 	svcvs	0x006c666d
 46c:	612d7461 			; <UNDEFINED> instruction: 0x612d7461
 470:	733d6962 	teqvc	sp, #1605632	; 0x188000
 474:	2074666f 	rsbscs	r6, r4, pc, ror #12
 478:	72616d2d 	rsbvc	r6, r1, #2880	; 0xb40
 47c:	6d2d206d 	stcvs	0, cr2, [sp, #-436]!	; 0xfffffe4c
 480:	68637261 	stmdavs	r3!, {r0, r5, r6, r9, ip, sp, lr}^
 484:	6d72613d 	ldfvse	f6, [r2, #-244]!	; 0xffffff0c
 488:	7a6b3676 	bvc	1acde68 <__bss_end__+0x1ac3b58>
 48c:	67672d20 	strbvs	r2, [r7, -r0, lsr #26]!
 490:	2d206264 	sfmcs	f6, 4, [r0, #-400]!	; 0xfffffe70
 494:	2d20674f 	stccs	7, cr6, [r0, #-316]!	; 0xfffffec4
 498:	3d647473 	cfstrdcc	mvd7, [r4, #-460]!	; 0xfffffe34
 49c:	39756e67 	ldmdbcc	r5!, {r0, r1, r2, r5, r6, r9, sl, fp, sp, lr}^
 4a0:	662d2039 			; <UNDEFINED> instruction: 0x662d2039
 4a4:	65657266 	strbvs	r7, [r5, #-614]!	; 0xfffffd9a
 4a8:	6e617473 	mcrvs	4, 3, r7, cr1, cr3, {3}
 4ac:	676e6964 	strbvs	r6, [lr, -r4, ror #18]!
 4b0:	746e6900 	strbtvc	r6, [lr], #-2304	; 0xfffff700
 4b4:	6e690072 	mcrvs	0, 3, r0, cr9, cr2, {3}
 4b8:	66007474 			; <UNDEFINED> instruction: 0x66007474
 4bc:	006f6669 	rsbeq	r6, pc, r9, ror #12
 4c0:	746e6f63 	strbtvc	r6, [lr], #-3939	; 0xfffff09d
 4c4:	006c6f72 	rsbeq	r6, ip, r2, ror pc
 4c8:	66617473 			; <UNDEFINED> instruction: 0x66617473
 4cc:	32692d66 	rsbcc	r2, r9, #6528	; 0x1980
 4d0:	00632e63 	rsbeq	r2, r3, r3, ror #28
 4d4:	5f766564 	svcpl	0x00766564
 4d8:	72726162 	rsbsvc	r6, r2, #-2147483624	; 0x80000018
 4dc:	00726569 	rsbseq	r6, r2, r9, ror #10
 4e0:	33746567 	cmncc	r4, #432013312	; 0x19c00000
 4e4:	50520032 	subspl	r0, r2, r2, lsr r0
 4e8:	32695f49 	rsbcc	r5, r9, #292	; 0x124
 4ec:	32690063 	rsbcc	r0, r9, #99, 0	; 0x63
 4f0:	006e6563 	rsbeq	r6, lr, r3, ror #10
 4f4:	7479626e 	ldrbtvc	r6, [r9], #-622	; 0xfffffd92
 4f8:	72007365 	andvc	r7, r0, #-1811939327	; 0x94000001
 4fc:	5f646165 	svcpl	0x00646165
 500:	32690073 	rsbcc	r0, r9, #115, 0	; 0x73
 504:	73695f63 	cmnvc	r9, #396	; 0x18c
 508:	696e695f 	stmdbvs	lr!, {r0, r1, r2, r3, r4, r6, r8, fp, sp, lr}^
 50c:	6c616974 			; <UNDEFINED> instruction: 0x6c616974
 510:	64657a69 	strbtvs	r7, [r5], #-2665	; 0xfffff597
 514:	61657200 	cmnvs	r5, r0, lsl #4
 518:	00705f64 	rsbseq	r5, r0, r4, ror #30
 51c:	72656678 	rsbvc	r6, r5, #120, 12	; 0x7800000
 520:	6174735f 	cmnvs	r4, pc, asr r3
 524:	63007472 	movwvs	r7, #1138	; 0x472
 528:	6b746b6c 	blvs	1d1b2e0 <__bss_end__+0x1d10fd0>
 52c:	69706700 	ldmdbvs	r0!, {r8, r9, sl, sp, lr}^
 530:	65735f6f 	ldrbvs	r5, [r3, #-3951]!	; 0xfffff091
 534:	75665f74 	strbvc	r5, [r6, #-3956]!	; 0xfffff08c
 538:	6974636e 	ldmdbvs	r4!, {r1, r2, r3, r5, r6, r8, r9, sp, lr}^
 53c:	78006e6f 	stmdavc	r0, {r0, r1, r2, r3, r5, r6, r9, sl, fp, sp, lr}
 540:	5f726566 	svcpl	0x00726566
 544:	00646e65 	rsbeq	r6, r4, r5, ror #28
 548:	64616572 	strbtvs	r6, [r1], #-1394	; 0xfffffa8e
 54c:	6900635f 	stmdbvs	r0, {r0, r1, r2, r3, r4, r6, r8, r9, sp, lr}
 550:	695f6332 	ldmdbvs	pc, {r1, r4, r5, r8, r9, sp, lr}^	; <UNPREDICTABLE>
 554:	5f74696e 	svcpl	0x0074696e
 558:	65636e6f 	strbvs	r6, [r3, #-3695]!	; 0xfffff191
 55c:	755f5f00 	ldrbvc	r5, [pc, #-3840]	; fffff664 <__bss_end__+0xffff5354>
 560:	6573756e 	ldrbvs	r7, [r3, #-1390]!	; 0xfffffa92
 564:	5f003064 	svcpl	0x00003064
 568:	756e755f 	strbvc	r7, [lr, #-1375]!	; 0xfffffaa1
 56c:	31646573 	smccc	18003	; 0x4653
 570:	755f5f00 	ldrbvc	r5, [pc, #-3840]	; fffff678 <__bss_end__+0xffff5368>
 574:	6573756e 	ldrbvs	r7, [r3, #-1390]!	; 0xfffffa92
 578:	5f003264 	svcpl	0x00003264
 57c:	756e755f 	strbvc	r7, [lr, #-1375]!	; 0xfffffaa1
 580:	33646573 	cmncc	r4, #482344960	; 0x1cc00000
 584:	73657200 	cmnvc	r5, #0, 4
 588:	735f7465 	cmpvc	pc, #1694498816	; 0x65000000
 58c:	75746174 	ldrbvc	r6, [r4, #-372]!	; 0xfffffe8c
 590:	6c630073 	stclvs	0, cr0, [r3], #-460	; 0xfffffe34
 594:	5f6b636f 	svcpl	0x006b636f
 598:	616c6564 	cmnvs	ip, r4, ror #10
 59c:	70670079 	rsbvc	r0, r7, r9, ror r0
 5a0:	635f6f69 	cmpvs	pc, #420	; 0x1a4
 5a4:	0030726c 	eorseq	r7, r0, ip, ror #4
 5a8:	6f697067 	svcvs	0x00697067
 5ac:	7465735f 	strbtvc	r7, [r5], #-863	; 0xfffffca1
 5b0:	70670030 	rsbvc	r0, r7, r0, lsr r0
 5b4:	775f6f69 	ldrbvc	r6, [pc, -r9, ror #30]
 5b8:	65746972 	ldrbvs	r6, [r4, #-2418]!	; 0xfffff68e
 5bc:	56454400 	strbpl	r4, [r5], -r0, lsl #8
 5c0:	4c41565f 	mcrrmi	6, 5, r5, r1, cr15
 5c4:	50003233 	andpl	r3, r0, r3, lsr r2
 5c8:	32335455 	eorscc	r5, r3, #1426063360	; 0x55000000
 5cc:	54454700 	strbpl	r4, [r5], #-1792	; 0xfffff900
 5d0:	2e003233 	mcrcs	2, 0, r3, cr0, cr3, {1}
 5d4:	6372732f 	cmnvs	r2, #-1140850688	; 0xbc000000
 5d8:	6970672f 	ldmdbvs	r0!, {r0, r1, r2, r3, r5, r8, r9, sl, sp, lr}^
 5dc:	00632e6f 	rsbeq	r2, r3, pc, ror #28
 5e0:	6f697067 	svcvs	0x00697067
 5e4:	7465735f 	strbtvc	r7, [r5], #-863	; 0xfffffca1
 5e8:	66666f5f 	uqsaxvs	r6, r6, pc	; <UNPREDICTABLE>
 5ec:	69706700 	ldmdbvs	r0!, {r8, r9, sl, sp, lr}^
 5f0:	65735f6f 	ldrbvs	r5, [r3, #-3951]!	; 0xfffff091
 5f4:	756f5f74 	strbvc	r5, [pc, #-3956]!	; fffff688 <__bss_end__+0xffff5378>
 5f8:	74757074 	ldrbtvc	r7, [r5], #-116	; 0xffffff8c
 5fc:	6e756600 	cdpvs	6, 7, cr6, cr5, cr0, {0}
 600:	70670063 	rsbvc	r0, r7, r3, rrx
 604:	665f6f69 	ldrbvs	r6, [pc], -r9, ror #30
 608:	5f636e75 	svcpl	0x00636e75
 60c:	4e470074 	mcrmi	0, 2, r0, cr7, cr4, {3}
 610:	39432055 	stmdbcc	r3, {r0, r2, r4, r6, sp}^
 614:	2e392039 	mrccs	0, 1, r2, cr9, cr9, {1}
 618:	20312e32 	eorscs	r2, r1, r2, lsr lr
 61c:	39313032 	ldmdbcc	r1!, {r1, r4, r5, ip, sp}
 620:	35323031 	ldrcc	r3, [r2, #-49]!	; 0xffffffcf
 624:	65722820 	ldrbvs	r2, [r2, #-2080]!	; 0xfffff7e0
 628:	7361656c 	cmnvc	r1, #108, 10	; 0x1b000000
 62c:	5b202965 	blpl	80abc8 <__bss_end__+0x8008b8>
 630:	2f4d5241 	svccs	0x004d5241
 634:	2d6d7261 	sfmcs	f7, 2, [sp, #-388]!	; 0xfffffe7c
 638:	72622d39 	rsbvc	r2, r2, #3648	; 0xe40
 63c:	68636e61 	stmdavs	r3!, {r0, r5, r6, r9, sl, fp, sp, lr}^
 640:	76657220 	strbtvc	r7, [r5], -r0, lsr #4
 644:	6f697369 	svcvs	0x00697369
 648:	3732206e 	ldrcc	r2, [r2, -lr, rrx]!
 64c:	39393537 	ldmdbcc	r9!, {r0, r1, r2, r4, r5, r8, sl, ip, sp}
 650:	6d2d205d 	stcvs	0, cr2, [sp, #-372]!	; 0xfffffe8c
 654:	3d757063 	ldclcc	0, cr7, [r5, #-396]!	; 0xfffffe74
 658:	316d7261 	cmncc	sp, r1, ror #4
 65c:	6a363731 	bvs	d8e328 <__bss_end__+0xd84018>
 660:	732d667a 			; <UNDEFINED> instruction: 0x732d667a
 664:	746d2d20 	strbtvc	r2, [sp], #-3360	; 0xfffff2e0
 668:	3d656e75 	stclcc	14, cr6, [r5, #-468]!	; 0xfffffe2c
 66c:	316d7261 	cmncc	sp, r1, ror #4
 670:	6a363731 	bvs	d8e33c <__bss_end__+0xd8402c>
 674:	732d667a 			; <UNDEFINED> instruction: 0x732d667a
 678:	666d2d20 	strbtvs	r2, [sp], -r0, lsr #26
 67c:	74616f6c 	strbtvc	r6, [r1], #-3948	; 0xfffff094
 680:	6962612d 	stmdbvs	r2!, {r0, r2, r3, r5, r8, sp, lr}^
 684:	666f733d 			; <UNDEFINED> instruction: 0x666f733d
 688:	6d2d2074 	stcvs	0, cr2, [sp, #-464]!	; 0xfffffe30
 68c:	206d7261 	rsbcs	r7, sp, r1, ror #4
 690:	72616d2d 	rsbvc	r6, r1, #2880	; 0xb40
 694:	613d6863 	teqvs	sp, r3, ror #16
 698:	36766d72 			; <UNDEFINED> instruction: 0x36766d72
 69c:	2d207a6b 	vstmdbcs	r0!, {s14-s120}
 6a0:	62646767 	rsbvs	r6, r4, #27000832	; 0x19c0000
 6a4:	67672d20 	strbvs	r2, [r7, -r0, lsr #26]!
 6a8:	2d206264 	sfmcs	f6, 4, [r0, #-400]!	; 0xfffffe70
 6ac:	7361664f 	cmnvc	r1, #82837504	; 0x4f00000
 6b0:	4f2d2074 	svcmi	0x002d2074
 6b4:	74736166 	ldrbtvc	r6, [r3], #-358	; 0xfffffe9a
 6b8:	74732d20 	ldrbtvc	r2, [r3], #-3360	; 0xfffff2e0
 6bc:	6e673d64 	cdpvs	13, 6, cr3, cr7, cr4, {3}
 6c0:	20393975 	eorscs	r3, r9, r5, ror r9
 6c4:	6474732d 	ldrbtvs	r7, [r4], #-813	; 0xfffffcd3
 6c8:	756e673d 	strbvc	r6, [lr, #-1853]!	; 0xfffff8c3
 6cc:	2d203939 			; <UNDEFINED> instruction: 0x2d203939
 6d0:	65726666 	ldrbvs	r6, [r2, #-1638]!	; 0xfffff99a
 6d4:	61747365 	cmnvs	r4, r5, ror #6
 6d8:	6e69646e 	cdpvs	4, 6, cr6, cr9, cr14, {3}
 6dc:	70670067 	rsbvc	r0, r7, r7, rrx
 6e0:	6c5f6f69 	mrrcvs	15, 6, r6, pc, cr9	; <UNPREDICTABLE>
 6e4:	00307665 	eorseq	r7, r0, r5, ror #12
 6e8:	6573552f 	ldrbvs	r5, [r3, #-1327]!	; 0xfffffad1
 6ec:	6d2f7372 	stcvs	3, cr7, [pc, #-456]!	; 52c <__code_start__-0x7ad4>
 6f0:	73656c69 	cmnvc	r5, #26880	; 0x6900
 6f4:	756f532f 	strbvc	r5, [pc, #-815]!	; 3cd <__code_start__-0x7c33>
 6f8:	2f656372 	svccs	0x00656372
 6fc:	34327363 	ldrtcc	r7, [r2], #-867	; 0xfffffc9d
 700:	2f786c30 	svccs	0x00786c30
 704:	7062696c 	rsbvc	r6, r2, ip, ror #18
 708:	61620069 	cmnvs	r2, r9, rrx
 70c:	67006b6e 	strvs	r6, [r0, -lr, ror #22]
 710:	5f6f6970 	svcpl	0x006f6970
 714:	5f746573 	svcpl	0x00746573
 718:	61006e6f 	tstvs	r0, pc, ror #28
 71c:	00736772 	rsbseq	r6, r3, r2, ror r7
 720:	705f6176 	subsvc	r6, pc, r6, ror r1	; <UNPREDICTABLE>
 724:	746e6972 	strbtvc	r6, [lr], #-2418	; 0xfffff68e
 728:	5f5f006b 	svcpl	0x005f006b
 72c:	63756e67 	cmnvs	r5, #1648	; 0x670
 730:	5f61765f 	svcpl	0x0061765f
 734:	7473696c 	ldrbtvc	r6, [r3], #-2412	; 0xfffff694
 738:	615f5f00 	cmpvs	pc, r0, lsl #30
 73c:	2f2e0070 	svccs	0x002e0070
 740:	6362696c 	cmnvs	r2, #108, 18	; 0x1b0000
 744:	6972702f 	ldmdbvs	r2!, {r0, r1, r2, r3, r5, ip, sp, lr}^
 748:	2e6b746e 	cdpcs	4, 6, cr7, cr11, cr14, {3}
 74c:	5f5f0063 	svcpl	0x005f0063
 750:	6c5f6176 	ldfvse	f6, [pc], {118}	; 0x76
 754:	00747369 	rsbseq	r7, r4, r9, ror #6
 758:	65746e69 	ldrbvs	r6, [r4, #-3689]!	; 0xfffff197
 75c:	6c616e72 	stclvs	14, cr6, [r1], #-456	; 0xfffffe38
 760:	7475705f 	ldrbtvc	r7, [r5], #-95	; 0xffffffa1
 764:	72616863 	rsbvc	r6, r1, #6488064	; 0x630000
 768:	69707200 	ldmdbvs	r0!, {r9, ip, sp, lr}^
 76c:	7465735f 	strbtvc	r7, [r5], #-863	; 0xfffffca1
 770:	7475705f 	ldrbtvc	r7, [r5], #-95	; 0xffffffa1
 774:	2f2e0063 	svccs	0x002e0063
 778:	6362696c 	cmnvs	r2, #108, 18	; 0x1b0000
 77c:	7475702f 	ldrbtvc	r7, [r5], #-47	; 0xffffffd1
 780:	72616863 	rsbvc	r6, r1, #6488064	; 0x630000
 784:	7500632e 	strvc	r6, [r0, #-814]	; 0xfffffcd2
 788:	5f747261 	svcpl	0x00747261
 78c:	63747570 	cmnvs	r4, #112, 10	; 0x1c000000
 790:	746e6900 	strbtvc	r6, [lr], #-2304	; 0xfffff700
 794:	616e7265 	cmnvs	lr, r5, ror #4
 798:	75705f6c 	ldrbvc	r5, [r0, #-3948]!	; 0xfffff094
 79c:	2e006b74 	vmovcs.16	d0[1], r6
 7a0:	62696c2f 	rsbvs	r6, r9, #12032	; 0x2f00
 7a4:	75702f63 	ldrbvc	r2, [r0, #-3939]!	; 0xfffff09d
 7a8:	632e6b74 			; <UNDEFINED> instruction: 0x632e6b74
 7ac:	64736900 	ldrbtvs	r6, [r3], #-2304	; 0xfffff700
 7b0:	74696769 	strbtvc	r6, [r9], #-1897	; 0xfffff897
 7b4:	6e697500 	cdpvs	5, 6, cr7, cr9, cr0, {0}
 7b8:	5f343674 	svcpl	0x00343674
 7bc:	2f2e0074 	svccs	0x002e0074
 7c0:	6362696c 	cmnvs	r2, #108, 18	; 0x1b0000
 7c4:	2d61762f 	stclcs	6, cr7, [r1, #-188]!	; 0xffffff44
 7c8:	6e697270 	mcrvs	2, 3, r7, cr9, cr0, {3}
 7cc:	632e6b74 			; <UNDEFINED> instruction: 0x632e6b74
 7d0:	635f5f00 	cmpvs	pc, #0, 30
 7d4:	5f65646f 	svcpl	0x0065646f
 7d8:	72617473 	rsbvc	r7, r1, #1929379840	; 0x73000000
 7dc:	005f5f74 	subseq	r5, pc, r4, ror pc	; <UNPREDICTABLE>
 7e0:	73625f5f 	cmnvc	r2, #380	; 0x17c
 7e4:	74735f73 	ldrbtvc	r5, [r3], #-3955	; 0xfffff08d
 7e8:	5f747261 	svcpl	0x00747261
 7ec:	6977005f 	ldmdbvs	r7!, {r0, r1, r2, r3, r4, r6}^
 7f0:	00687464 	rsbeq	r7, r8, r4, ror #8
 7f4:	61645f5f 	cmnvs	r4, pc, asr pc
 7f8:	655f6174 	ldrbvs	r6, [pc, #-372]	; 68c <__code_start__-0x7974>
 7fc:	5f5f646e 	svcpl	0x005f646e
 800:	67697300 	strbvs	r7, [r9, -r0, lsl #6]!
 804:	5f64656e 	svcpl	0x0064656e
 808:	75700070 	ldrbvc	r0, [r0, #-112]!	; 0xffffff90
 80c:	665f6374 			; <UNDEFINED> instruction: 0x665f6374
 810:	5f5f0070 	svcpl	0x005f0070
 814:	5f737362 	svcpl	0x00737362
 818:	5f646e65 	svcpl	0x00646e65
 81c:	5f5f005f 	svcpl	0x005f005f
 820:	70616568 	rsbvc	r6, r1, r8, ror #10
 824:	6174735f 	cmnvs	r4, pc, asr r3
 828:	5f5f7472 	svcpl	0x005f7472
 82c:	69707200 	ldmdbvs	r0!, {r9, ip, sp, lr}^
 830:	7465735f 	strbtvc	r7, [r5], #-863	; 0xfffffca1
 834:	74756f5f 	ldrbtvc	r6, [r5], #-3935	; 0xfffff0a1
 838:	00747570 	rsbseq	r7, r4, r0, ror r5
 83c:	5f746d66 	svcpl	0x00746d66
 840:	72617473 	rsbvc	r7, r1, #1929379840	; 0x73000000
 844:	74730074 	ldrbtvc	r0, [r3], #-116	; 0xffffff8c
 848:	74616372 	strbtvc	r6, [r1], #-882	; 0xfffffc8e
 84c:	72747300 	rsbsvc	r7, r4, #0, 6
 850:	00797063 	rsbseq	r7, r9, r3, rrx
 854:	5f67656e 	svcpl	0x0067656e
 858:	5f5f0070 	svcpl	0x005f0070
 85c:	65646f63 	strbvs	r6, [r4, #-3939]!	; 0xfffff09d
 860:	646e655f 	strbtvs	r6, [lr], #-1375	; 0xfffffaa1
 864:	65005f5f 	strvs	r5, [r0, #-3935]	; 0xfffff0a1
 868:	0074696d 	rsbseq	r6, r4, sp, ror #18
 86c:	73747570 	cmnvc	r4, #112, 10	; 0x1c000000
 870:	0070665f 	rsbseq	r6, r0, pc, asr r6
 874:	65766572 	ldrbvs	r6, [r6, #-1394]!	; 0xfffffa8e
 878:	00657372 	rsbeq	r7, r5, r2, ror r3
 87c:	63727473 	cmnvs	r2, #1929379840	; 0x73000000
 880:	5f00706d 	svcpl	0x0000706d
 884:	7461645f 	strbtvc	r6, [r1], #-1119	; 0xfffffba1
 888:	74735f61 	ldrbtvc	r5, [r3], #-3937	; 0xfffff09f
 88c:	5f747261 	svcpl	0x00747261
 890:	5f5f005f 	svcpl	0x005f005f
 894:	676f7270 			; <UNDEFINED> instruction: 0x676f7270
 898:	646e655f 	strbtvs	r6, [lr], #-1375	; 0xfffffaa1
 89c:	6e005f5f 	mcrvs	15, 0, r5, cr0, cr15, {2}
 8a0:	00316d75 	eorseq	r6, r1, r5, ror sp
 8a4:	6e727473 	mrcvs	4, 3, r7, cr2, cr3, {3}
 8a8:	00706d63 	rsbseq	r6, r0, r3, ror #26
 8ac:	65736162 	ldrbvs	r6, [r3, #-354]!	; 0xfffffe9e
 8b0:	69707200 	ldmdbvs	r0!, {r9, ip, sp, lr}^
 8b4:	6265725f 	rsbvs	r7, r5, #-268435451	; 0xf0000005
 8b8:	00746f6f 	rsbseq	r6, r4, pc, ror #30
 8bc:	74732f2e 	ldrbtvc	r2, [r3], #-3886	; 0xfffff0d2
 8c0:	2d666661 	stclcs	6, cr6, [r6, #-388]!	; 0xfffffe7c
 8c4:	2f637273 	svccs	0x00637273
 8c8:	61656c63 	cmnvs	r5, r3, ror #24
 8cc:	65722d6e 	ldrbvs	r2, [r2, #-3438]!	; 0xfffff292
 8d0:	746f6f62 	strbtvc	r6, [pc], #-3938	; 8d8 <__code_start__-0x7728>
 8d4:	7500632e 	strvc	r6, [r0, #-814]	; 0xfffffcd2
 8d8:	5f747261 	svcpl	0x00747261
 8dc:	73756c66 	cmnvc	r5, #26112	; 0x6600
 8e0:	78745f68 	ldmdavc	r4!, {r3, r5, r6, r8, r9, sl, fp, ip, lr}^
 8e4:	73635f00 	cmnvc	r3, #0, 30
 8e8:	74726174 	ldrbtvc	r6, [r2], #-372	; 0xfffffe8c
 8ec:	73736200 	cmnvc	r3, #0, 4
 8f0:	646e655f 	strbtvs	r6, [lr], #-1375	; 0xfffffaa1
 8f4:	72617500 	rsbvc	r7, r1, #0, 10
 8f8:	6e695f74 	mcrvs	15, 3, r5, cr9, cr4, {3}
 8fc:	63007469 	movwvs	r7, #1129	; 0x469
 900:	6f747375 	svcvs	0x00747375
 904:	6f6c5f6d 	svcvs	0x006c5f6d
 908:	72656461 	rsbvc	r6, r5, #1627389952	; 0x61000000
 90c:	732f2e00 			; <UNDEFINED> instruction: 0x732f2e00
 910:	66666174 			; <UNDEFINED> instruction: 0x66666174
 914:	6372732d 	cmnvs	r2, #-1275068416	; 0xb4000000
 918:	7473632f 	ldrbtvc	r6, [r3], #-815	; 0xfffffcd1
 91c:	2e747261 	cdpcs	2, 7, cr7, cr4, cr1, {3}
 920:	79630063 	stmdbvc	r3!, {r0, r1, r5, r6}^
 924:	5f656c63 	svcpl	0x00656c63
 928:	66666964 	strbtvs	r6, [r6], -r4, ror #18
 92c:	73616c00 	cmnvc	r1, #0, 24
 930:	2f2e0074 	svccs	0x002e0074
 934:	66617473 			; <UNDEFINED> instruction: 0x66617473
 938:	72732d66 	rsbsvc	r2, r3, #6528	; 0x1980
 93c:	75632f63 	strbvc	r2, [r3, #-3939]!	; 0xfffff09d
 940:	6d6f7473 	cfstrdvs	mvd7, [pc, #-460]!	; 77c <__code_start__-0x7884>
 944:	616f6c2d 	cmnvs	pc, sp, lsr #24
 948:	2e726564 	cdpcs	5, 7, cr6, cr2, cr4, {3}
 94c:	65720063 	ldrbvs	r0, [r2, #-99]!	; 0xffffff9d
 950:	746f6f62 	strbtvc	r6, [pc], #-3938	; 958 <__code_start__-0x76a8>
 954:	6c61635f 	stclvs	3, cr6, [r1], #-380	; 0xfffffe84
 958:	74756f6c 	ldrbtvc	r6, [r5], #-3948	; 0xfffff094
 95c:	5f4d5000 	svcpl	0x004d5000
 960:	474f4457 	smlsldmi	r4, pc, r7, r4	; <UNPREDICTABLE>
 964:	74657300 	strbtvc	r7, [r5], #-768	; 0xfffffd00
 968:	6573755f 	ldrbvs	r7, [r3, #-1375]!	; 0xfffffaa1
 96c:	656c5f72 	strbvs	r5, [ip, #-3954]!	; 0xfffff08e
 970:	006c6576 	rsbeq	r6, ip, r6, ror r5
 974:	74732f2e 	ldrbtvc	r2, [r3], #-3886	; 0xfffff0d2
 978:	2d666661 	stclcs	6, cr6, [r6, #-388]!	; 0xfffffe7c
 97c:	2f637273 	svccs	0x00637273
 980:	6f626572 	svcvs	0x00626572
 984:	632e746f 			; <UNDEFINED> instruction: 0x632e746f
 988:	5f4d5000 	svcpl	0x004d5000
 98c:	53534150 	cmppl	r3, #20
 990:	44524f57 	ldrbmi	r4, [r2], #-3927	; 0xfffff0a9
 994:	5f746100 	svcpl	0x00746100
 998:	72657375 	rsbvc	r7, r5, #-738197503	; 0xd4000001
 99c:	76656c5f 			; <UNDEFINED> instruction: 0x76656c5f
 9a0:	50006c65 	andpl	r6, r0, r5, ror #24
 9a4:	53525f4d 	cmppl	r2, #308	; 0x134
 9a8:	575f4354 			; <UNDEFINED> instruction: 0x575f4354
 9ac:	47464352 	smlsldmi	r4, r6, r2, r3
 9b0:	4c55465f 	mrrcmi	6, 5, r4, r5, cr15
 9b4:	45525f4c 	ldrbmi	r5, [r2, #-3916]	; 0xfffff0b4
 9b8:	00544553 	subseq	r4, r4, r3, asr r5
 9bc:	525f4d50 	subspl	r4, pc, #80, 26	; 0x1400
 9c0:	00435453 	subeq	r5, r3, r3, asr r4
 9c4:	72737063 	rsbsvc	r7, r3, #99, 0	; 0x63
 9c8:	6c656400 	cfstrdvs	mvd6, [r5], #-0
 9cc:	735f7961 	cmpvc	pc, #1589248	; 0x184000
 9d0:	2e006365 	cdpcs	3, 0, cr6, cr0, cr5, {3}
 9d4:	6174732f 	cmnvs	r4, pc, lsr #6
 9d8:	732d6666 			; <UNDEFINED> instruction: 0x732d6666
 9dc:	742f6372 	strtvc	r6, [pc], #-882	; 9e4 <__code_start__-0x761c>
 9e0:	72656d69 	rsbvc	r6, r5, #6720	; 0x1a40
 9e4:	7400632e 	strvc	r6, [r0], #-814	; 0xfffffcd2
 9e8:	72656d69 	rsbvc	r6, r5, #6720	; 0x1a40
 9ec:	7465675f 	strbtvc	r6, [r5], #-1887	; 0xfffff8a1
 9f0:	6573755f 	ldrbvs	r7, [r3, #-1375]!	; 0xfffffaa1
 9f4:	61725f63 	cmnvs	r2, r3, ror #30
 9f8:	61620077 	smcvs	8199	; 0x2007
 9fc:	765f6475 			; <UNDEFINED> instruction: 0x765f6475
 a00:	73006c61 	movwvc	r6, #3169	; 0xc61
 a04:	00746174 	rsbseq	r6, r4, r4, ror r1
 a08:	74726175 	ldrbtvc	r6, [r2], #-373	; 0xfffffe8b
 a0c:	6e61635f 	mcrvs	3, 3, r6, cr1, cr15, {2}
 a10:	7465675f 	strbtvc	r6, [r5], #-1887	; 0xfffff8a1
 a14:	75610063 	strbvc	r0, [r1, #-99]!	; 0xffffff9d
 a18:	65705f78 	ldrbvs	r5, [r0, #-3960]!	; 0xfffff088
 a1c:	68706972 	ldmdavs	r0!, {r1, r4, r5, r6, r8, fp, sp, lr}^
 a20:	61750073 	cmnvs	r5, r3, ror r0
 a24:	632e7472 			; <UNDEFINED> instruction: 0x632e7472
 a28:	72617500 	rsbvc	r7, r1, #0, 10
 a2c:	61635f74 	smcvs	13812	; 0x35f4
 a30:	75705f6e 	ldrbvc	r5, [r0, #-3950]!	; 0xfffff092
 a34:	75006374 	strvc	r6, [r0, #-884]	; 0xfffffc8c
 a38:	5f747261 	svcpl	0x00747261
 a3c:	695f7874 	ldmdbvs	pc, {r2, r4, r5, r6, fp, ip, sp, lr}^	; <UNPREDICTABLE>
 a40:	6d655f73 	stclvs	15, cr5, [r5, #-460]!	; 0xfffffe34
 a44:	00797470 	rsbseq	r7, r9, r0, ror r4
 a48:	6d6f682f 	stclvs	8, cr6, [pc, #-188]!	; 994 <__code_start__-0x766c>
 a4c:	6e652f65 	cdpvs	15, 6, cr2, cr5, cr5, {3}
 a50:	72656c67 	rsbvc	r6, r5, #26368	; 0x6700
 a54:	616c632f 	cmnvs	ip, pc, lsr #6
 a58:	632f7373 			; <UNDEFINED> instruction: 0x632f7373
 a5c:	30343273 	eorscc	r3, r4, r3, ror r2
 a60:	322d786c 	eorcc	r7, sp, #108, 16	; 0x6c0000
 a64:	72707332 	rsbsvc	r7, r0, #-939524096	; 0xc8000000
 a68:	62696c2f 	rsbvs	r6, r9, #12032	; 0x2f00
 a6c:	732f6970 			; <UNDEFINED> instruction: 0x732f6970
 a70:	66666174 			; <UNDEFINED> instruction: 0x66666174
 a74:	6972702d 	ldmdbvs	r2!, {r0, r2, r3, r5, ip, sp, lr}^
 a78:	65746176 	ldrbvs	r6, [r4, #-374]!	; 0xfffffe8a
 a7c:	75616200 	strbvc	r6, [r1, #-512]!	; 0xfffffe00
 a80:	75610064 	strbvc	r0, [r1, #-100]!	; 0xffffff9c
 a84:	6e655f78 	mcrvs	15, 3, r5, cr5, cr8, {3}
 a88:	656c6261 	strbvs	r6, [ip, #-609]!	; 0xfffffd9f
 a8c:	61750073 	cmnvs	r5, r3, ror r0
 a90:	675f7472 			; <UNDEFINED> instruction: 0x675f7472
 a94:	00637465 	rsbeq	r7, r3, r5, ror #8
 a98:	6c746e63 	ldclvs	14, cr6, [r4], #-396	; 0xfffffe74
 a9c:	72617500 	rsbvc	r7, r1, #0, 10
 aa0:	69645f74 	stmdbvs	r4!, {r2, r4, r5, r6, r8, r9, sl, fp, ip, lr}^
 aa4:	6c626173 	stfvse	f6, [r2], #-460	; 0xfffffe34
 aa8:	61750065 	cmnvs	r5, r5, rrx
 aac:	685f7472 	ldmdavs	pc, {r1, r4, r5, r6, sl, ip, sp, lr}^	; <UNPREDICTABLE>
 ab0:	645f7361 	ldrbvs	r7, [pc], #-865	; ab8 <__code_start__-0x7548>
 ab4:	00617461 	rsbeq	r7, r1, r1, ror #8
 ab8:	695f726f 	ldmdbvs	pc, {r0, r1, r2, r3, r5, r6, r9, ip, sp, lr}^	; <UNPREDICTABLE>
 abc:	0032336e 	eorseq	r3, r2, lr, ror #6
 ac0:	61726373 	cmnvs	r2, r3, ror r3
 ac4:	00686374 	rsbeq	r6, r8, r4, ror r3
 ac8:	74726175 	ldrbtvc	r6, [r2], #-373	; 0xfffffe8b
 acc:	646e6100 	strbtvs	r6, [lr], #-256	; 0xffffff00
 ad0:	336e695f 	cmncc	lr, #1556480	; 0x17c000
 ad4:	65640032 	strbvs	r0, [r4, #-50]!	; 0xffffffce
 ad8:	2e007473 	mcrcs	4, 0, r7, cr0, cr3, {3}
 adc:	62696c2f 	rsbvs	r6, r9, #12032	; 0x2f00
 ae0:	74732f63 	ldrbtvc	r2, [r3], #-3939	; 0xfffff09d
 ae4:	74616372 	strbtvc	r6, [r1], #-882	; 0xfffffc8e
 ae8:	2e00632e 	cdpcs	3, 0, cr6, cr0, cr14, {1}
 aec:	62696c2f 	rsbvs	r6, r9, #12032	; 0x2f00
 af0:	74732f63 	ldrbtvc	r2, [r3], #-3939	; 0xfffff09d
 af4:	706d6372 	rsbvc	r6, sp, r2, ror r3
 af8:	2e00632e 	cdpcs	3, 0, cr6, cr0, cr14, {1}
 afc:	62696c2f 	rsbvs	r6, r9, #12032	; 0x2f00
 b00:	74732f63 	ldrbtvc	r2, [r3], #-3939	; 0xfffff09d
 b04:	79706372 	ldmdbvc	r0!, {r1, r4, r5, r6, r8, r9, sp, lr}^
 b08:	7300632e 	movwvc	r6, #814	; 0x32e
 b0c:	5f657a69 	svcpl	0x00657a69
 b10:	2f2e0074 	svccs	0x002e0074
 b14:	6362696c 	cmnvs	r2, #108, 18	; 0x1b0000
 b18:	7274732f 	rsbsvc	r7, r4, #-1140850688	; 0xbc000000
 b1c:	706d636e 	rsbvc	r6, sp, lr, ror #6
 b20:	2e00632e 	cdpcs	3, 0, cr6, cr0, cr14, {1}
 b24:	6174732f 	cmnvs	r4, pc, lsr #6
 b28:	732d6666 			; <UNDEFINED> instruction: 0x732d6666
 b2c:	642f6372 	strtvs	r6, [pc], #-882	; b34 <__code_start__-0x74cc>
 b30:	75616665 	strbvc	r6, [r1, #-1637]!	; 0xfffff99b
 b34:	722d746c 	eorvc	r7, sp, #108, 8	; 0x6c000000
 b38:	6f6f6265 	svcvs	0x006f6265
 b3c:	61632d74 	smcvs	13012	; 0x32d4
 b40:	756f6c6c 	strbvc	r6, [pc, #-3180]!	; fffffedc <__bss_end__+0xffff5bcc>
 b44:	00632e74 	rsbeq	r2, r3, r4, ror lr

Disassembly of section .debug_frame:

00000000 <.debug_frame>:
   0:	0000000c 	andeq	r0, r0, ip
   4:	ffffffff 			; <UNDEFINED> instruction: 0xffffffff
   8:	7c020001 	stcvc	0, cr0, [r2], {1}
   c:	000d0c0e 	andeq	r0, sp, lr, lsl #24
  10:	0000001c 	andeq	r0, r0, ip, lsl r0
  14:	00000000 	andeq	r0, r0, r0
  18:	00008038 	andeq	r8, r0, r8, lsr r0
  1c:	000000a8 	andeq	r0, r0, r8, lsr #1
  20:	84180e42 	ldrhi	r0, [r8], #-3650	; 0xfffff1be
  24:	86058506 	strhi	r8, [r5], -r6, lsl #10
  28:	88038704 	stmdahi	r3, {r2, r8, r9, sl, pc}
  2c:	00018e02 	andeq	r8, r1, r2, lsl #28
  30:	0000000c 	andeq	r0, r0, ip
  34:	ffffffff 			; <UNDEFINED> instruction: 0xffffffff
  38:	7c020001 	stcvc	0, cr0, [r2], {1}
  3c:	000d0c0e 	andeq	r0, sp, lr, lsl #24
  40:	00000018 	andeq	r0, r0, r8, lsl r0
  44:	00000030 	andeq	r0, r0, r0, lsr r0
  48:	000080e0 	andeq	r8, r0, r0, ror #1
  4c:	00000028 	andeq	r0, r0, r8, lsr #32
  50:	8e040e42 	cdphi	14, 0, cr0, cr4, cr2, {2}
  54:	100e4201 	andne	r4, lr, r1, lsl #4
  58:	00040e4e 	andeq	r0, r4, lr, asr #28
  5c:	00000018 	andeq	r0, r0, r8, lsl r0
  60:	00000030 	andeq	r0, r0, r0, lsr r0
  64:	00008108 	andeq	r8, r0, r8, lsl #2
  68:	0000002c 	andeq	r0, r0, ip, lsr #32
  6c:	8e040e42 	cdphi	14, 0, cr0, cr4, cr2, {2}
  70:	100e4201 	andne	r4, lr, r1, lsl #4
  74:	00040e50 	andeq	r0, r4, r0, asr lr
  78:	0000001c 	andeq	r0, r0, ip, lsl r0
  7c:	00000030 	andeq	r0, r0, r0, lsr r0
  80:	00008134 	andeq	r8, r0, r4, lsr r1
  84:	00000040 	andeq	r0, r0, r0, asr #32
  88:	84080e42 	strhi	r0, [r8], #-3650	; 0xfffff1be
  8c:	42018e02 	andmi	r8, r1, #2, 28
  90:	0e5a180e 	cdpeq	8, 5, cr1, cr10, cr14, {0}
  94:	00000008 	andeq	r0, r0, r8
  98:	00000018 	andeq	r0, r0, r8, lsl r0
  9c:	00000030 	andeq	r0, r0, r0, lsr r0
  a0:	00008174 	andeq	r8, r0, r4, ror r1
  a4:	00000044 	andeq	r0, r0, r4, asr #32
  a8:	84100e42 	ldrhi	r0, [r0], #-3650	; 0xfffff1be
  ac:	86038504 	strhi	r8, [r3], -r4, lsl #10
  b0:	00018e02 	andeq	r8, r1, r2, lsl #28
  b4:	00000020 	andeq	r0, r0, r0, lsr #32
  b8:	00000030 	andeq	r0, r0, r0, lsr r0
  bc:	000081b8 			; <UNDEFINED> instruction: 0x000081b8
  c0:	000001dc 	ldrdeq	r0, [r0], -ip
  c4:	840c0e42 	strhi	r0, [ip], #-3650	; 0xfffff1be
  c8:	8e028503 	cfsh32hi	mvfx8, mvfx2, #3
  cc:	180e4201 	stmdane	lr, {r0, r9, lr}
  d0:	0e0a6402 	cdpeq	4, 0, cr6, cr10, cr2, {0}
  d4:	000b420c 	andeq	r4, fp, ip, lsl #4
  d8:	0000000c 	andeq	r0, r0, ip
  dc:	ffffffff 			; <UNDEFINED> instruction: 0xffffffff
  e0:	7c020001 	stcvc	0, cr0, [r2], {1}
  e4:	000d0c0e 	andeq	r0, sp, lr, lsl #24
  e8:	0000000c 	andeq	r0, r0, ip
  ec:	000000d8 	ldrdeq	r0, [r0], -r8
  f0:	00008394 	muleq	r0, r4, r3
  f4:	00000010 	andeq	r0, r0, r0, lsl r0
  f8:	0000000c 	andeq	r0, r0, ip
  fc:	000000d8 	ldrdeq	r0, [r0], -r8
 100:	000083a4 	andeq	r8, r0, r4, lsr #7
 104:	0000000c 	andeq	r0, r0, ip
 108:	0000001c 	andeq	r0, r0, ip, lsl r0
 10c:	000000d8 	ldrdeq	r0, [r0], -r8
 110:	000083b0 			; <UNDEFINED> instruction: 0x000083b0
 114:	00000100 	andeq	r0, r0, r0, lsl #2
 118:	8e040e42 	cdphi	14, 0, cr0, cr4, cr2, {2}
 11c:	100e4201 	andne	r4, lr, r1, lsl #4
 120:	0e0a4402 	cdpeq	4, 0, cr4, cr10, cr2, {0}
 124:	000b4204 	andeq	r4, fp, r4, lsl #4
 128:	00000014 	andeq	r0, r0, r4, lsl r0
 12c:	000000d8 	ldrdeq	r0, [r0], -r8
 130:	000084b0 			; <UNDEFINED> instruction: 0x000084b0
 134:	00000010 	andeq	r0, r0, r0, lsl r0
 138:	84080e42 	strhi	r0, [r8], #-3650	; 0xfffff1be
 13c:	00018e02 	andeq	r8, r1, r2, lsl #28
 140:	00000014 	andeq	r0, r0, r4, lsl r0
 144:	000000d8 	ldrdeq	r0, [r0], -r8
 148:	000084c0 	andeq	r8, r0, r0, asr #9
 14c:	00000028 	andeq	r0, r0, r8, lsr #32
 150:	84080e42 	strhi	r0, [r8], #-3650	; 0xfffff1be
 154:	00018e02 	andeq	r8, r1, r2, lsl #28
 158:	00000014 	andeq	r0, r0, r4, lsl r0
 15c:	000000d8 	ldrdeq	r0, [r0], -r8
 160:	000084e8 	andeq	r8, r0, r8, ror #9
 164:	00000010 	andeq	r0, r0, r0, lsl r0
 168:	84080e42 	strhi	r0, [r8], #-3650	; 0xfffff1be
 16c:	00018e02 	andeq	r8, r1, r2, lsl #28
 170:	00000020 	andeq	r0, r0, r0, lsr #32
 174:	000000d8 	ldrdeq	r0, [r0], -r8
 178:	000084f8 	strdeq	r8, [r0], -r8	; <UNPREDICTABLE>
 17c:	000001d4 	ldrdeq	r0, [r0], -r4
 180:	84100e42 	ldrhi	r0, [r0], #-3650	; 0xfffff1be
 184:	86038504 	strhi	r8, [r3], -r4, lsl #10
 188:	42018e02 	andmi	r8, r1, #2, 28
 18c:	ca02180e 	bgt	861cc <__bss_end__+0x7bebc>
 190:	0000100e 	andeq	r1, r0, lr
 194:	00000018 	andeq	r0, r0, r8, lsl r0
 198:	000000d8 	ldrdeq	r0, [r0], -r8
 19c:	000086cc 	andeq	r8, r0, ip, asr #13
 1a0:	000000bc 	strheq	r0, [r0], -ip
 1a4:	84100e42 	ldrhi	r0, [r0], #-3650	; 0xfffff1be
 1a8:	86038504 	strhi	r8, [r3], -r4, lsl #10
 1ac:	00018e02 	andeq	r8, r1, r2, lsl #28
 1b0:	00000018 	andeq	r0, r0, r8, lsl r0
 1b4:	000000d8 	ldrdeq	r0, [r0], -r8
 1b8:	00008788 	andeq	r8, r0, r8, lsl #15
 1bc:	000000bc 	strheq	r0, [r0], -ip
 1c0:	84100e42 	ldrhi	r0, [r0], #-3650	; 0xfffff1be
 1c4:	86038504 	strhi	r8, [r3], -r4, lsl #10
 1c8:	00018e02 	andeq	r8, r1, r2, lsl #28
 1cc:	0000000c 	andeq	r0, r0, ip
 1d0:	000000d8 	ldrdeq	r0, [r0], -r8
 1d4:	00008844 	andeq	r8, r0, r4, asr #16
 1d8:	00000010 	andeq	r0, r0, r0, lsl r0
 1dc:	0000001c 	andeq	r0, r0, ip, lsl r0
 1e0:	000000d8 	ldrdeq	r0, [r0], -r8
 1e4:	00008854 	andeq	r8, r0, r4, asr r8
 1e8:	000000a0 	andeq	r0, r0, r0, lsr #1
 1ec:	84080e42 	strhi	r0, [r8], #-3650	; 0xfffff1be
 1f0:	42018e02 	andmi	r8, r1, #2, 28
 1f4:	0a6c100e 	beq	1b04234 <__bss_end__+0x1af9f24>
 1f8:	0b42080e 	bleq	1082238 <__bss_end__+0x1077f28>
 1fc:	00000014 	andeq	r0, r0, r4, lsl r0
 200:	000000d8 	ldrdeq	r0, [r0], -r8
 204:	000088f4 	strdeq	r8, [r0], -r4
 208:	00000018 	andeq	r0, r0, r8, lsl r0
 20c:	84080e42 	strhi	r0, [r8], #-3650	; 0xfffff1be
 210:	00018e02 	andeq	r8, r1, r2, lsl #28
 214:	0000000c 	andeq	r0, r0, ip
 218:	ffffffff 			; <UNDEFINED> instruction: 0xffffffff
 21c:	7c020001 	stcvc	0, cr0, [r2], {1}
 220:	000d0c0e 	andeq	r0, sp, lr, lsl #24
 224:	00000020 	andeq	r0, r0, r0, lsr #32
 228:	00000214 	andeq	r0, r0, r4, lsl r2
 22c:	0000890c 	andeq	r8, r0, ip, lsl #18
 230:	00000060 	andeq	r0, r0, r0, rrx
 234:	84100e48 	ldrhi	r0, [r0], #-3656	; 0xfffff1b8
 238:	86038504 	strhi	r8, [r3], -r4, lsl #10
 23c:	64018e02 	strvs	r8, [r1], #-3586	; 0xfffff1fe
 240:	c4c5c6ce 	strbgt	ip, [r5], #1742	; 0x6ce
 244:	0000000e 	andeq	r0, r0, lr
 248:	00000020 	andeq	r0, r0, r0, lsr #32
 24c:	00000214 	andeq	r0, r0, r4, lsl r2
 250:	0000896c 	andeq	r8, r0, ip, ror #18
 254:	00000058 	andeq	r0, r0, r8, asr r0
 258:	84100e46 	ldrhi	r0, [r0], #-3654	; 0xfffff1ba
 25c:	86038504 	strhi	r8, [r3], -r4, lsl #10
 260:	62018e02 	andvs	r8, r1, #2, 28
 264:	c4c5c6ce 	strbgt	ip, [r5], #1742	; 0x6ce
 268:	0000000e 	andeq	r0, r0, lr
 26c:	0000000c 	andeq	r0, r0, ip
 270:	00000214 	andeq	r0, r0, r4, lsl r2
 274:	000089c4 	andeq	r8, r0, r4, asr #19
 278:	00000018 	andeq	r0, r0, r8, lsl r0
 27c:	0000000c 	andeq	r0, r0, ip
 280:	00000214 	andeq	r0, r0, r4, lsl r2
 284:	000089dc 	ldrdeq	r8, [r0], -ip
 288:	00000018 	andeq	r0, r0, r8, lsl r0
 28c:	00000020 	andeq	r0, r0, r0, lsr #32
 290:	00000214 	andeq	r0, r0, r4, lsl r2
 294:	000089f4 	strdeq	r8, [r0], -r4
 298:	00000058 	andeq	r0, r0, r8, asr r0
 29c:	84100e46 	ldrhi	r0, [r0], #-3654	; 0xfffff1ba
 2a0:	86038504 	strhi	r8, [r3], -r4, lsl #10
 2a4:	62018e02 	andvs	r8, r1, #2, 28
 2a8:	c4c5c6ce 	strbgt	ip, [r5], #1742	; 0x6ce
 2ac:	0000000e 	andeq	r0, r0, lr
 2b0:	0000000c 	andeq	r0, r0, ip
 2b4:	00000214 	andeq	r0, r0, r4, lsl r2
 2b8:	00008a4c 	andeq	r8, r0, ip, asr #20
 2bc:	00000030 	andeq	r0, r0, r0, lsr r0
 2c0:	00000014 	andeq	r0, r0, r4, lsl r0
 2c4:	00000214 	andeq	r0, r0, r4, lsl r2
 2c8:	00008a7c 	andeq	r8, r0, ip, ror sl
 2cc:	00000028 	andeq	r0, r0, r8, lsr #32
 2d0:	84080e42 	strhi	r0, [r8], #-3650	; 0xfffff1be
 2d4:	00018e02 	andeq	r8, r1, r2, lsl #28
 2d8:	0000000c 	andeq	r0, r0, ip
 2dc:	ffffffff 			; <UNDEFINED> instruction: 0xffffffff
 2e0:	7c020001 	stcvc	0, cr0, [r2], {1}
 2e4:	000d0c0e 	andeq	r0, sp, lr, lsl #24
 2e8:	00000034 	andeq	r0, r0, r4, lsr r0
 2ec:	000002d8 	ldrdeq	r0, [r0], -r8
 2f0:	00008aa4 	andeq	r8, r0, r4, lsr #21
 2f4:	00000058 	andeq	r0, r0, r8, asr r0
 2f8:	80100e42 	andshi	r0, r0, r2, asr #28
 2fc:	82038104 	andhi	r8, r3, #1
 300:	42018302 	andmi	r8, r1, #134217728	; 0x8000000
 304:	07841c0e 	streq	r1, [r4, lr, lsl #24]
 308:	058e0685 	streq	r0, [lr, #1669]	; 0x685
 30c:	5a280e44 	bpl	a03c24 <__bss_end__+0x9f9914>
 310:	ce421c0e 	cdpgt	12, 4, cr1, cr2, cr14, {0}
 314:	100ec4c5 	andne	ip, lr, r5, asr #9
 318:	c1c2c342 	bicgt	ip, r2, r2, asr #6
 31c:	00000ec0 	andeq	r0, r0, r0, asr #29
 320:	0000000c 	andeq	r0, r0, ip
 324:	ffffffff 			; <UNDEFINED> instruction: 0xffffffff
 328:	7c020001 	stcvc	0, cr0, [r2], {1}
 32c:	000d0c0e 	andeq	r0, sp, lr, lsl #24
 330:	00000014 	andeq	r0, r0, r4, lsl r0
 334:	00000320 	andeq	r0, r0, r0, lsr #6
 338:	00008afc 	strdeq	r8, [r0], -ip
 33c:	00000014 	andeq	r0, r0, r4, lsl r0
 340:	84080e42 	strhi	r0, [r8], #-3650	; 0xfffff1be
 344:	00018e02 	andeq	r8, r1, r2, lsl #28
 348:	0000000c 	andeq	r0, r0, ip
 34c:	00000320 	andeq	r0, r0, r0, lsr #6
 350:	00008b10 	andeq	r8, r0, r0, lsl fp
 354:	00000018 	andeq	r0, r0, r8, lsl r0
 358:	0000000c 	andeq	r0, r0, ip
 35c:	00000320 	andeq	r0, r0, r0, lsr #6
 360:	00008b28 	andeq	r8, r0, r8, lsr #22
 364:	00000010 	andeq	r0, r0, r0, lsl r0
 368:	0000000c 	andeq	r0, r0, ip
 36c:	ffffffff 			; <UNDEFINED> instruction: 0xffffffff
 370:	7c020001 	stcvc	0, cr0, [r2], {1}
 374:	000d0c0e 	andeq	r0, sp, lr, lsl #24
 378:	00000018 	andeq	r0, r0, r8, lsl r0
 37c:	00000368 	andeq	r0, r0, r8, ror #6
 380:	00008b38 	andeq	r8, r0, r8, lsr fp
 384:	00000038 	andeq	r0, r0, r8, lsr r0
 388:	84100e42 	ldrhi	r0, [r0], #-3650	; 0xfffff1be
 38c:	86038504 	strhi	r8, [r3], -r4, lsl #10
 390:	00018e02 	andeq	r8, r1, r2, lsl #28
 394:	0000000c 	andeq	r0, r0, ip
 398:	ffffffff 			; <UNDEFINED> instruction: 0xffffffff
 39c:	7c020001 	stcvc	0, cr0, [r2], {1}
 3a0:	000d0c0e 	andeq	r0, sp, lr, lsl #24
 3a4:	0000002c 	andeq	r0, r0, ip, lsr #32
 3a8:	00000394 	muleq	r0, r4, r3
 3ac:	00008b70 	andeq	r8, r0, r0, ror fp
 3b0:	00000328 	andeq	r0, r0, r8, lsr #6
 3b4:	84180e42 	ldrhi	r0, [r8], #-3650	; 0xfffff1be
 3b8:	86058506 	strhi	r8, [r5], -r6, lsl #10
 3bc:	88038704 	stmdahi	r3, {r2, r8, r9, sl, pc}
 3c0:	46018e02 	strmi	r8, [r1], -r2, lsl #28
 3c4:	c002600e 	andgt	r6, r2, lr
 3c8:	42180e0a 	andsmi	r0, r8, #160	; 0xa0
 3cc:	0a8e020b 	beq	fe380c00 <__bss_end__+0xfe3768f0>
 3d0:	0b42180e 	bleq	1086410 <__bss_end__+0x107c100>
 3d4:	00000014 	andeq	r0, r0, r4, lsl r0
 3d8:	00000394 	muleq	r0, r4, r3
 3dc:	00008e98 	muleq	r0, r8, lr
 3e0:	00000060 	andeq	r0, r0, r0, rrx
 3e4:	8e040e52 	mcrhi	14, 0, r0, cr4, cr2, {2}
 3e8:	100e4401 	andne	r4, lr, r1, lsl #8
 3ec:	0000002c 	andeq	r0, r0, ip, lsr #32
 3f0:	00000394 	muleq	r0, r4, r3
 3f4:	00008ef8 	strdeq	r8, [r0], -r8	; <UNPREDICTABLE>
 3f8:	0000062c 	andeq	r0, r0, ip, lsr #12
 3fc:	84240e42 	strthi	r0, [r4], #-3650	; 0xfffff1be
 400:	86088509 	strhi	r8, [r8], -r9, lsl #10
 404:	88068707 	stmdahi	r6, {r0, r1, r2, r8, r9, sl, pc}
 408:	8a048905 	bhi	122824 <__bss_end__+0x118514>
 40c:	8e028b03 	vmlahi.f64	d8, d2, d3
 410:	c00e5201 	andgt	r5, lr, r1, lsl #4
 414:	0a860202 	beq	fe180c24 <__bss_end__+0xfe176914>
 418:	0b42240e 	bleq	1089458 <__bss_end__+0x107f148>
 41c:	0000000c 	andeq	r0, r0, ip
 420:	ffffffff 			; <UNDEFINED> instruction: 0xffffffff
 424:	7c020001 	stcvc	0, cr0, [r2], {1}
 428:	000d0c0e 	andeq	r0, sp, lr, lsl #24
 42c:	00000014 	andeq	r0, r0, r4, lsl r0
 430:	0000041c 	andeq	r0, r0, ip, lsl r4
 434:	00009524 	andeq	r9, r0, r4, lsr #10
 438:	0000002c 	andeq	r0, r0, ip, lsr #32
 43c:	84080e44 	strhi	r0, [r8], #-3652	; 0xfffff1bc
 440:	00018e02 	andeq	r8, r1, r2, lsl #28
 444:	0000000c 	andeq	r0, r0, ip
 448:	ffffffff 			; <UNDEFINED> instruction: 0xffffffff
 44c:	7c020001 	stcvc	0, cr0, [r2], {1}
 450:	000d0c0e 	andeq	r0, sp, lr, lsl #24
 454:	00000018 	andeq	r0, r0, r8, lsl r0
 458:	00000444 	andeq	r0, r0, r4, asr #8
 45c:	00009550 	andeq	r9, r0, r0, asr r5
 460:	00000128 	andeq	r0, r0, r8, lsr #2
 464:	84100e42 	ldrhi	r0, [r0], #-3650	; 0xfffff1be
 468:	86038504 	strhi	r8, [r3], -r4, lsl #10
 46c:	00018e02 	andeq	r8, r1, r2, lsl #28
 470:	0000000c 	andeq	r0, r0, ip
 474:	ffffffff 			; <UNDEFINED> instruction: 0xffffffff
 478:	7c020001 	stcvc	0, cr0, [r2], {1}
 47c:	000d0c0e 	andeq	r0, sp, lr, lsl #24
 480:	0000000c 	andeq	r0, r0, ip
 484:	00000470 	andeq	r0, r0, r0, ror r4
 488:	00009678 	andeq	r9, r0, r8, ror r6
 48c:	00000004 	andeq	r0, r0, r4
 490:	0000000c 	andeq	r0, r0, ip
 494:	ffffffff 			; <UNDEFINED> instruction: 0xffffffff
 498:	7c020001 	stcvc	0, cr0, [r2], {1}
 49c:	000d0c0e 	andeq	r0, sp, lr, lsl #24
 4a0:	0000000c 	andeq	r0, r0, ip
 4a4:	00000490 	muleq	r0, r0, r4
 4a8:	00009694 	muleq	r0, r4, r6
 4ac:	00000018 	andeq	r0, r0, r8, lsl r0
 4b0:	0000000c 	andeq	r0, r0, ip
 4b4:	00000490 	muleq	r0, r0, r4
 4b8:	000096ac 	andeq	r9, r0, ip, lsr #13
 4bc:	00000014 	andeq	r0, r0, r4, lsl r0
 4c0:	00000014 	andeq	r0, r0, r4, lsl r0
 4c4:	00000490 	muleq	r0, r0, r4
 4c8:	000096c0 	andeq	r9, r0, r0, asr #13
 4cc:	00000060 	andeq	r0, r0, r0, rrx
 4d0:	84080e42 	strhi	r0, [r8], #-3650	; 0xfffff1be
 4d4:	00018e02 	andeq	r8, r1, r2, lsl #28
 4d8:	0000000c 	andeq	r0, r0, ip
 4dc:	ffffffff 			; <UNDEFINED> instruction: 0xffffffff
 4e0:	7c020001 	stcvc	0, cr0, [r2], {1}
 4e4:	000d0c0e 	andeq	r0, sp, lr, lsl #24
 4e8:	0000000c 	andeq	r0, r0, ip
 4ec:	000004d8 	ldrdeq	r0, [r0], -r8
 4f0:	00009720 	andeq	r9, r0, r0, lsr #14
 4f4:	0000000c 	andeq	r0, r0, ip
 4f8:	00000014 	andeq	r0, r0, r4, lsl r0
 4fc:	000004d8 	ldrdeq	r0, [r0], -r8
 500:	0000972c 	andeq	r9, r0, ip, lsr #14
 504:	00000024 	andeq	r0, r0, r4, lsr #32
 508:	84080e42 	strhi	r0, [r8], #-3650	; 0xfffff1be
 50c:	00018e02 	andeq	r8, r1, r2, lsl #28
 510:	0000001c 	andeq	r0, r0, ip, lsl r0
 514:	000004d8 	ldrdeq	r0, [r0], -r8
 518:	00009750 	andeq	r9, r0, r0, asr r7
 51c:	00000048 	andeq	r0, r0, r8, asr #32
 520:	84180e42 	ldrhi	r0, [r8], #-3650	; 0xfffff1be
 524:	86058506 	strhi	r8, [r5], -r6, lsl #10
 528:	88038704 	stmdahi	r3, {r2, r8, r9, sl, pc}
 52c:	00018e02 	andeq	r8, r1, r2, lsl #28
 530:	0000001c 	andeq	r0, r0, ip, lsl r0
 534:	000004d8 	ldrdeq	r0, [r0], -r8
 538:	00009798 	muleq	r0, r8, r7
 53c:	00000050 	andeq	r0, r0, r0, asr r0
 540:	84180e42 	ldrhi	r0, [r8], #-3650	; 0xfffff1be
 544:	86058506 	strhi	r8, [r5], -r6, lsl #10
 548:	88038704 	stmdahi	r3, {r2, r8, r9, sl, pc}
 54c:	00018e02 	andeq	r8, r1, r2, lsl #28
 550:	0000001c 	andeq	r0, r0, ip, lsl r0
 554:	000004d8 	ldrdeq	r0, [r0], -r8
 558:	000097e8 	andeq	r9, r0, r8, ror #15
 55c:	00000054 	andeq	r0, r0, r4, asr r0
 560:	84180e42 	ldrhi	r0, [r8], #-3650	; 0xfffff1be
 564:	86058506 	strhi	r8, [r5], -r6, lsl #10
 568:	88038704 	stmdahi	r3, {r2, r8, r9, sl, pc}
 56c:	00018e02 	andeq	r8, r1, r2, lsl #28
 570:	0000000c 	andeq	r0, r0, ip
 574:	ffffffff 			; <UNDEFINED> instruction: 0xffffffff
 578:	7c020001 	stcvc	0, cr0, [r2], {1}
 57c:	000d0c0e 	andeq	r0, sp, lr, lsl #24
 580:	00000018 	andeq	r0, r0, r8, lsl r0
 584:	00000570 	andeq	r0, r0, r0, ror r5
 588:	0000983c 	andeq	r9, r0, ip, lsr r8
 58c:	00000020 	andeq	r0, r0, r0, lsr #32
 590:	84100e42 	ldrhi	r0, [r0], #-3650	; 0xfffff1be
 594:	86038504 	strhi	r8, [r3], -r4, lsl #10
 598:	00018e02 	andeq	r8, r1, r2, lsl #28
 59c:	00000018 	andeq	r0, r0, r8, lsl r0
 5a0:	00000570 	andeq	r0, r0, r0, ror r5
 5a4:	0000985c 	andeq	r9, r0, ip, asr r8
 5a8:	00000020 	andeq	r0, r0, r0, lsr #32
 5ac:	84100e42 	ldrhi	r0, [r0], #-3650	; 0xfffff1be
 5b0:	86038504 	strhi	r8, [r3], -r4, lsl #10
 5b4:	00018e02 	andeq	r8, r1, r2, lsl #28
 5b8:	00000014 	andeq	r0, r0, r4, lsl r0
 5bc:	00000570 	andeq	r0, r0, r0, ror r5
 5c0:	0000987c 	andeq	r9, r0, ip, ror r8
 5c4:	000000b0 	strheq	r0, [r0], -r0	; <UNPREDICTABLE>
 5c8:	84080e42 	strhi	r0, [r8], #-3650	; 0xfffff1be
 5cc:	00018e02 	andeq	r8, r1, r2, lsl #28
 5d0:	00000014 	andeq	r0, r0, r4, lsl r0
 5d4:	00000570 	andeq	r0, r0, r0, ror r5
 5d8:	0000992c 	andeq	r9, r0, ip, lsr #18
 5dc:	00000018 	andeq	r0, r0, r8, lsl r0
 5e0:	84080e42 	strhi	r0, [r8], #-3650	; 0xfffff1be
 5e4:	00018e02 	andeq	r8, r1, r2, lsl #28
 5e8:	00000014 	andeq	r0, r0, r4, lsl r0
 5ec:	00000570 	andeq	r0, r0, r0, ror r5
 5f0:	00009944 	andeq	r9, r0, r4, asr #18
 5f4:	00000020 	andeq	r0, r0, r0, lsr #32
 5f8:	84080e42 	strhi	r0, [r8], #-3650	; 0xfffff1be
 5fc:	00018e02 	andeq	r8, r1, r2, lsl #28
 600:	00000014 	andeq	r0, r0, r4, lsl r0
 604:	00000570 	andeq	r0, r0, r0, ror r5
 608:	00009964 	andeq	r9, r0, r4, ror #18
 60c:	00000030 	andeq	r0, r0, r0, lsr r0
 610:	84080e42 	strhi	r0, [r8], #-3650	; 0xfffff1be
 614:	00018e02 	andeq	r8, r1, r2, lsl #28
 618:	00000014 	andeq	r0, r0, r4, lsl r0
 61c:	00000570 	andeq	r0, r0, r0, ror r5
 620:	00009994 	muleq	r0, r4, r9
 624:	00000030 	andeq	r0, r0, r0, lsr r0
 628:	84080e42 	strhi	r0, [r8], #-3650	; 0xfffff1be
 62c:	00018e02 	andeq	r8, r1, r2, lsl #28
 630:	00000014 	andeq	r0, r0, r4, lsl r0
 634:	00000570 	andeq	r0, r0, r0, ror r5
 638:	000099c4 	andeq	r9, r0, r4, asr #19
 63c:	00000010 	andeq	r0, r0, r0, lsl r0
 640:	84080e42 	strhi	r0, [r8], #-3650	; 0xfffff1be
 644:	00018e02 	andeq	r8, r1, r2, lsl #28
 648:	00000014 	andeq	r0, r0, r4, lsl r0
 64c:	00000570 	andeq	r0, r0, r0, ror r5
 650:	000099d4 	ldrdeq	r9, [r0], -r4
 654:	00000020 	andeq	r0, r0, r0, lsr #32
 658:	84080e42 	strhi	r0, [r8], #-3650	; 0xfffff1be
 65c:	00018e02 	andeq	r8, r1, r2, lsl #28
 660:	00000014 	andeq	r0, r0, r4, lsl r0
 664:	00000570 	andeq	r0, r0, r0, ror r5
 668:	000099f4 	strdeq	r9, [r0], -r4
 66c:	00000014 	andeq	r0, r0, r4, lsl r0
 670:	84080e42 	strhi	r0, [r8], #-3650	; 0xfffff1be
 674:	00018e02 	andeq	r8, r1, r2, lsl #28
 678:	00000014 	andeq	r0, r0, r4, lsl r0
 67c:	00000570 	andeq	r0, r0, r0, ror r5
 680:	00009a08 	andeq	r9, r0, r8, lsl #20
 684:	00000024 	andeq	r0, r0, r4, lsr #32
 688:	84080e42 	strhi	r0, [r8], #-3650	; 0xfffff1be
 68c:	00018e02 	andeq	r8, r1, r2, lsl #28
 690:	0000000c 	andeq	r0, r0, ip
 694:	ffffffff 			; <UNDEFINED> instruction: 0xffffffff
 698:	7c020001 	stcvc	0, cr0, [r2], {1}
 69c:	000d0c0e 	andeq	r0, sp, lr, lsl #24
 6a0:	0000000c 	andeq	r0, r0, ip
 6a4:	00000690 	muleq	r0, r0, r6
 6a8:	00009a2c 	andeq	r9, r0, ip, lsr #20
 6ac:	0000002c 	andeq	r0, r0, ip, lsr #32
 6b0:	0000000c 	andeq	r0, r0, ip
 6b4:	ffffffff 			; <UNDEFINED> instruction: 0xffffffff
 6b8:	7c020001 	stcvc	0, cr0, [r2], {1}
 6bc:	000d0c0e 	andeq	r0, sp, lr, lsl #24
 6c0:	0000000c 	andeq	r0, r0, ip
 6c4:	000006b0 			; <UNDEFINED> instruction: 0x000006b0
 6c8:	00009a58 	andeq	r9, r0, r8, asr sl
 6cc:	00000044 	andeq	r0, r0, r4, asr #32
 6d0:	0000000c 	andeq	r0, r0, ip
 6d4:	ffffffff 			; <UNDEFINED> instruction: 0xffffffff
 6d8:	7c020001 	stcvc	0, cr0, [r2], {1}
 6dc:	000d0c0e 	andeq	r0, sp, lr, lsl #24
 6e0:	0000000c 	andeq	r0, r0, ip
 6e4:	000006d0 	ldrdeq	r0, [r0], -r0	; <UNPREDICTABLE>
 6e8:	00009a9c 	muleq	r0, ip, sl
 6ec:	00000018 	andeq	r0, r0, r8, lsl r0
 6f0:	0000000c 	andeq	r0, r0, ip
 6f4:	ffffffff 			; <UNDEFINED> instruction: 0xffffffff
 6f8:	7c020001 	stcvc	0, cr0, [r2], {1}
 6fc:	000d0c0e 	andeq	r0, sp, lr, lsl #24
 700:	0000000c 	andeq	r0, r0, ip
 704:	000006f0 	strdeq	r0, [r0], -r0	; <UNPREDICTABLE>
 708:	00009ab4 			; <UNDEFINED> instruction: 0x00009ab4
 70c:	00000030 	andeq	r0, r0, r0, lsr r0
 710:	0000000c 	andeq	r0, r0, ip
 714:	ffffffff 			; <UNDEFINED> instruction: 0xffffffff
 718:	7c020001 	stcvc	0, cr0, [r2], {1}
 71c:	000d0c0e 	andeq	r0, sp, lr, lsl #24
 720:	0000000c 	andeq	r0, r0, ip
 724:	00000710 	andeq	r0, r0, r0, lsl r7
 728:	00009ae4 	andeq	r9, r0, r4, ror #21
 72c:	00000004 	andeq	r0, r0, r4
