
accel.elf:     file format elf32-littlearm


Disassembly of section .text:

00008000 <__code_start__>:
    8000:	e3a00013 	mov	r0, #19, 0
    8004:	e3800080 	orr	r0, r0, #128, 0	; 0x80
    8008:	e129f000 	msr	CPSR_fc, r0
    800c:	e3a01000 	mov	r1, #0, 0
    8010:	ee071f95 	mcr	15, 0, r1, cr7, cr5, {4}
    8014:	e3a0d302 	mov	sp, #134217728	; 0x8000000
    8018:	e3a0b000 	mov	fp, #0, 0
    801c:	eb0006a3 	bl	9ab0 <_cstart>
    8020:	eb0006fe 	bl	9c20 <rpi_reboot>

00008024 <PUT32>:
    8024:	e5801000 	str	r1, [r0]
    8028:	e12fff1e 	bx	lr

0000802c <GET32>:
    802c:	e5900000 	ldr	r0, [r0]
    8030:	e12fff1e 	bx	lr

00008034 <BRANCHTO>:
    8034:	e12fff10 	bx	r0

00008038 <mg_raw>:
    8038:	e1800401 	orr	r0, r0, r1, lsl #8
    803c:	e6bf0070 	sxth	r0, r0
    8040:	e12fff1e 	bx	lr

00008044 <mg_scaled>:
    8044:	e0010091 	mul	r1, r1, r0
    8048:	e0610281 	rsb	r0, r1, r1, lsl #5
    804c:	e0811100 	add	r1, r1, r0, lsl #2
    8050:	e1a01181 	lsl	r1, r1, #3
    8054:	e59f0010 	ldr	r0, [pc, #16]	; 806c <mg_scaled+0x28>
    8058:	e0c03190 	smull	r3, r0, r0, r1
    805c:	e0800001 	add	r0, r0, r1
    8060:	e1a01fc1 	asr	r1, r1, #31
    8064:	e0610740 	rsb	r0, r1, r0, asr #14
    8068:	e12fff1e 	bx	lr
    806c:	80010003 	andhi	r0, r1, r3

00008070 <test_mg>:
    8070:	e92d4030 	push	{r4, r5, lr}
    8074:	e24dd00c 	sub	sp, sp, #12, 0
    8078:	e1a04000 	mov	r4, r0
    807c:	e1a05003 	mov	r5, r3
    8080:	e1a00002 	mov	r0, r2
    8084:	ebffffeb 	bl	8038 <mg_raw>
    8088:	e1a01005 	mov	r1, r5
    808c:	ebffffec 	bl	8044 <mg_scaled>
    8090:	e1a05000 	mov	r5, r0
    8094:	e1a02000 	mov	r2, r0
    8098:	e1a01004 	mov	r1, r4
    809c:	e59f0030 	ldr	r0, [pc, #48]	; 80d4 <test_mg+0x64>
    80a0:	eb0003e6 	bl	9040 <printk>
    80a4:	e1550004 	cmp	r5, r4
    80a8:	1a000001 	bne	80b4 <test_mg+0x44>
    80ac:	e28dd00c 	add	sp, sp, #12, 0
    80b0:	e8bd8030 	pop	{r4, r5, pc}
    80b4:	e59f301c 	ldr	r3, [pc, #28]	; 80d8 <test_mg+0x68>
    80b8:	e58d3000 	str	r3, [sp]
    80bc:	e3a0305f 	mov	r3, #95, 0	; 0x5f
    80c0:	e59f2014 	ldr	r2, [pc, #20]	; 80dc <test_mg+0x6c>
    80c4:	e59f1014 	ldr	r1, [pc, #20]	; 80e0 <test_mg+0x70>
    80c8:	e59f0014 	ldr	r0, [pc, #20]	; 80e4 <test_mg+0x74>
    80cc:	eb0003db 	bl	9040 <printk>
    80d0:	eb00066b 	bl	9a84 <clean_reboot>
    80d4:	0000a088 	andeq	sl, r0, r8, lsl #1
    80d8:	0000a0bc 	strheq	sl, [r0], -ip
    80dc:	0000a23c 	andeq	sl, r0, ip, lsr r2
    80e0:	0000a0a0 	andeq	sl, r0, r0, lsr #1
    80e4:	0000a0a8 	andeq	sl, r0, r8, lsr #1

000080e8 <xyz_print>:
    80e8:	e52de004 	push	{lr}		; (str lr, [sp, #-4]!)
    80ec:	e24dd01c 	sub	sp, sp, #28, 0
    80f0:	e28dc018 	add	ip, sp, #24, 0
    80f4:	e90c000e 	stmdb	ip, {r1, r2, r3}
    80f8:	e59d3014 	ldr	r3, [sp, #20]
    80fc:	e58d3000 	str	r3, [sp]
    8100:	e59d3010 	ldr	r3, [sp, #16]
    8104:	e59d200c 	ldr	r2, [sp, #12]
    8108:	e1a01000 	mov	r1, r0
    810c:	e59f0008 	ldr	r0, [pc, #8]	; 811c <xyz_print+0x34>
    8110:	eb0003ca 	bl	9040 <printk>
    8114:	e28dd01c 	add	sp, sp, #28, 0
    8118:	e49df004 	pop	{pc}		; (ldr pc, [sp], #4)
    811c:	0000a0cc 	andeq	sl, r0, ip, asr #1

00008120 <imu_rd>:
    8120:	e92d4010 	push	{r4, lr}
    8124:	e24dd010 	sub	sp, sp, #16, 0
    8128:	e1a04000 	mov	r4, r0
    812c:	e5cd1007 	strb	r1, [sp, #7]
    8130:	e3a02001 	mov	r2, #1, 0
    8134:	e28d1007 	add	r1, sp, #7, 0
    8138:	eb00025c 	bl	8ab0 <i2c_write>
    813c:	e3a02001 	mov	r2, #1, 0
    8140:	e28d100f 	add	r1, sp, #15, 0
    8144:	e1a00004 	mov	r0, r4
    8148:	eb000286 	bl	8b68 <i2c_read>
    814c:	e5dd000f 	ldrb	r0, [sp, #15]
    8150:	e28dd010 	add	sp, sp, #16, 0
    8154:	e8bd8010 	pop	{r4, pc}

00008158 <imu_wr>:
    8158:	e52de004 	push	{lr}		; (str lr, [sp, #-4]!)
    815c:	e24dd00c 	sub	sp, sp, #12, 0
    8160:	e5cd1004 	strb	r1, [sp, #4]
    8164:	e5cd2005 	strb	r2, [sp, #5]
    8168:	e3a02002 	mov	r2, #2, 0
    816c:	e28d1004 	add	r1, sp, #4, 0
    8170:	eb00024e 	bl	8ab0 <i2c_write>
    8174:	e28dd00c 	add	sp, sp, #12, 0
    8178:	e49df004 	pop	{pc}		; (ldr pc, [sp], #4)

0000817c <imu_rd_n>:
    817c:	e92d4070 	push	{r4, r5, r6, lr}
    8180:	e24dd008 	sub	sp, sp, #8, 0
    8184:	e1a04000 	mov	r4, r0
    8188:	e1a05002 	mov	r5, r2
    818c:	e1a06003 	mov	r6, r3
    8190:	e5cd1007 	strb	r1, [sp, #7]
    8194:	e3a02001 	mov	r2, #1, 0
    8198:	e28d1007 	add	r1, sp, #7, 0
    819c:	eb000243 	bl	8ab0 <i2c_write>
    81a0:	e1a02006 	mov	r2, r6
    81a4:	e1a01005 	mov	r1, r5
    81a8:	e1a00004 	mov	r0, r4
    81ac:	eb00026d 	bl	8b68 <i2c_read>
    81b0:	e28dd008 	add	sp, sp, #8, 0
    81b4:	e8bd8070 	pop	{r4, r5, r6, pc}

000081b8 <accel_scale>:
    81b8:	e24dd008 	sub	sp, sp, #8, 0
    81bc:	e92d41f0 	push	{r4, r5, r6, r7, r8, lr}
    81c0:	e1a04000 	mov	r4, r0
    81c4:	e28d0014 	add	r0, sp, #20, 0
    81c8:	e980000c 	stmib	r0, {r2, r3}
    81cc:	e5917008 	ldr	r7, [r1, #8]
    81d0:	e59d1018 	ldr	r1, [sp, #24]
    81d4:	e1a00007 	mov	r0, r7
    81d8:	ebffff99 	bl	8044 <mg_scaled>
    81dc:	e1a06000 	mov	r6, r0
    81e0:	e59d101c 	ldr	r1, [sp, #28]
    81e4:	e1a00007 	mov	r0, r7
    81e8:	ebffff95 	bl	8044 <mg_scaled>
    81ec:	e1a05000 	mov	r5, r0
    81f0:	e59d1020 	ldr	r1, [sp, #32]
    81f4:	e1a00007 	mov	r0, r7
    81f8:	ebffff91 	bl	8044 <mg_scaled>
    81fc:	e5846000 	str	r6, [r4]
    8200:	e5845004 	str	r5, [r4, #4]
    8204:	e5840008 	str	r0, [r4, #8]
    8208:	e1a00004 	mov	r0, r4
    820c:	e8bd41f0 	pop	{r4, r5, r6, r7, r8, lr}
    8210:	e28dd008 	add	sp, sp, #8, 0
    8214:	e12fff1e 	bx	lr

00008218 <accel_has_data>:
    8218:	e3a00001 	mov	r0, #1, 0
    821c:	e12fff1e 	bx	lr

00008220 <mpu6500_accel_init>:
    8220:	e92d40f0 	push	{r4, r5, r6, r7, lr}
    8224:	e24dd00c 	sub	sp, sp, #12, 0
    8228:	e1a06000 	mov	r6, r0
    822c:	e1a04001 	mov	r4, r1
    8230:	e1a05002 	mov	r5, r2
    8234:	e3520003 	cmp	r2, #3, 0
    8238:	979ff102 	ldrls	pc, [pc, r2, lsl #2]
    823c:	ea000007 	b	8260 <mpu6500_accel_init+0x40>
    8240:	00008280 	andeq	r8, r0, r0, lsl #5
    8244:	00008304 	andeq	r8, r0, r4, lsl #6
    8248:	00008250 	andeq	r8, r0, r0, asr r2
    824c:	00008258 	andeq	r8, r0, r8, asr r2
    8250:	e3a07008 	mov	r7, #8, 0
    8254:	ea00000a 	b	8284 <mpu6500_accel_init+0x64>
    8258:	e3a07010 	mov	r7, #16, 0
    825c:	ea000008 	b	8284 <mpu6500_accel_init+0x64>
    8260:	e3a03000 	mov	r3, #0, 0
    8264:	e58d3000 	str	r3, [sp]
    8268:	e3a0308b 	mov	r3, #139, 0	; 0x8b
    826c:	e59f20b8 	ldr	r2, [pc, #184]	; 832c <mpu6500_accel_init+0x10c>
    8270:	e59f10b8 	ldr	r1, [pc, #184]	; 8330 <mpu6500_accel_init+0x110>
    8274:	e59f00b8 	ldr	r0, [pc, #184]	; 8334 <mpu6500_accel_init+0x114>
    8278:	eb000370 	bl	9040 <printk>
    827c:	eb000600 	bl	9a84 <clean_reboot>
    8280:	e3a07002 	mov	r7, #2, 0
    8284:	e3a0101d 	mov	r1, #29, 0
    8288:	e1a00004 	mov	r0, r4
    828c:	ebffffa3 	bl	8120 <imu_rd>
    8290:	e1a02000 	mov	r2, r0
    8294:	e3d53003 	bics	r3, r5, #3, 0
    8298:	1a00001b 	bne	830c <mpu6500_accel_init+0xec>
    829c:	e3a0101c 	mov	r1, #28, 0
    82a0:	e1a00004 	mov	r0, r4
    82a4:	ebffffab 	bl	8158 <imu_wr>
    82a8:	e3a02004 	mov	r2, #4, 0
    82ac:	e3a0101d 	mov	r1, #29, 0
    82b0:	e1a00004 	mov	r0, r4
    82b4:	ebffffa7 	bl	8158 <imu_wr>
    82b8:	e3a0101c 	mov	r1, #28, 0
    82bc:	e1a00004 	mov	r0, r4
    82c0:	ebffff96 	bl	8120 <imu_rd>
    82c4:	e1a01000 	mov	r1, r0
    82c8:	e59f0068 	ldr	r0, [pc, #104]	; 8338 <mpu6500_accel_init+0x118>
    82cc:	eb00035b 	bl	9040 <printk>
    82d0:	e3a0101d 	mov	r1, #29, 0
    82d4:	e1a00004 	mov	r0, r4
    82d8:	ebffff90 	bl	8120 <imu_rd>
    82dc:	e1a01000 	mov	r1, r0
    82e0:	e59f0054 	ldr	r0, [pc, #84]	; 833c <mpu6500_accel_init+0x11c>
    82e4:	eb000355 	bl	9040 <printk>
    82e8:	e5c64000 	strb	r4, [r6]
    82ec:	e3a03014 	mov	r3, #20, 0
    82f0:	e5863004 	str	r3, [r6, #4]
    82f4:	e5867008 	str	r7, [r6, #8]
    82f8:	e1a00006 	mov	r0, r6
    82fc:	e28dd00c 	add	sp, sp, #12, 0
    8300:	e8bd80f0 	pop	{r4, r5, r6, r7, pc}
    8304:	e3a07004 	mov	r7, #4, 0
    8308:	eaffffdd 	b	8284 <mpu6500_accel_init+0x64>
    830c:	e59f302c 	ldr	r3, [pc, #44]	; 8340 <mpu6500_accel_init+0x120>
    8310:	e58d3000 	str	r3, [sp]
    8314:	e3a0305e 	mov	r3, #94, 0	; 0x5e
    8318:	e59f2024 	ldr	r2, [pc, #36]	; 8344 <mpu6500_accel_init+0x124>
    831c:	e59f1024 	ldr	r1, [pc, #36]	; 8348 <mpu6500_accel_init+0x128>
    8320:	e59f0024 	ldr	r0, [pc, #36]	; 834c <mpu6500_accel_init+0x12c>
    8324:	eb000345 	bl	9040 <printk>
    8328:	eb0005d5 	bl	9a84 <clean_reboot>
    832c:	0000a244 	andeq	sl, r0, r4, asr #4
    8330:	0000a0a0 	andeq	sl, r0, r0, lsr #1
    8334:	0000a0e4 	andeq	sl, r0, r4, ror #1
    8338:	0000a154 	andeq	sl, r0, r4, asr r1
    833c:	0000a16c 	andeq	sl, r0, ip, ror #2
    8340:	0000a13c 	andeq	sl, r0, ip, lsr r1
    8344:	0000a258 	andeq	sl, r0, r8, asr r2
    8348:	0000a104 	andeq	sl, r0, r4, lsl #2
    834c:	0000a0a8 	andeq	sl, r0, r8, lsr #1

00008350 <mpu6500_reset>:
    8350:	e92d4010 	push	{r4, lr}
    8354:	e3a02001 	mov	r2, #1, 0
    8358:	e3a0106b 	mov	r1, #107, 0	; 0x6b
    835c:	ebffff7d 	bl	8158 <imu_wr>
    8360:	e3a00064 	mov	r0, #100, 0	; 0x64
    8364:	eb000663 	bl	9cf8 <delay_ms>
    8368:	e8bd8010 	pop	{r4, pc}

0000836c <accel_rd>:
    836c:	e92d41f0 	push	{r4, r5, r6, r7, r8, lr}
    8370:	e1a05000 	mov	r5, r0
    8374:	e1a04001 	mov	r4, r1
    8378:	e5d16000 	ldrb	r6, [r1]
    837c:	e1a00004 	mov	r0, r4
    8380:	ebffffa4 	bl	8218 <accel_has_data>
    8384:	e3500000 	cmp	r0, #0, 0
    8388:	0afffffb 	beq	837c <accel_rd+0x10>
    838c:	e3a0103c 	mov	r1, #60, 0	; 0x3c
    8390:	e1a00006 	mov	r0, r6
    8394:	ebffff61 	bl	8120 <imu_rd>
    8398:	e1a04000 	mov	r4, r0
    839c:	e3a0103b 	mov	r1, #59, 0	; 0x3b
    83a0:	e1a00006 	mov	r0, r6
    83a4:	ebffff5d 	bl	8120 <imu_rd>
    83a8:	e1a01000 	mov	r1, r0
    83ac:	e1a00004 	mov	r0, r4
    83b0:	ebffff20 	bl	8038 <mg_raw>
    83b4:	e1a07000 	mov	r7, r0
    83b8:	e3a0103e 	mov	r1, #62, 0	; 0x3e
    83bc:	e1a00006 	mov	r0, r6
    83c0:	ebffff56 	bl	8120 <imu_rd>
    83c4:	e1a04000 	mov	r4, r0
    83c8:	e3a0103d 	mov	r1, #61, 0	; 0x3d
    83cc:	e1a00006 	mov	r0, r6
    83d0:	ebffff52 	bl	8120 <imu_rd>
    83d4:	e1a01000 	mov	r1, r0
    83d8:	e1a00004 	mov	r0, r4
    83dc:	ebffff15 	bl	8038 <mg_raw>
    83e0:	e1a04000 	mov	r4, r0
    83e4:	e3a01040 	mov	r1, #64, 0	; 0x40
    83e8:	e1a00006 	mov	r0, r6
    83ec:	ebffff4b 	bl	8120 <imu_rd>
    83f0:	e1a08000 	mov	r8, r0
    83f4:	e3a0103f 	mov	r1, #63, 0	; 0x3f
    83f8:	e1a00006 	mov	r0, r6
    83fc:	ebffff47 	bl	8120 <imu_rd>
    8400:	e1a01000 	mov	r1, r0
    8404:	e1a00008 	mov	r0, r8
    8408:	ebffff0a 	bl	8038 <mg_raw>
    840c:	e5857000 	str	r7, [r5]
    8410:	e5854004 	str	r4, [r5, #4]
    8414:	e5850008 	str	r0, [r5, #8]
    8418:	e1a00005 	mov	r0, r5
    841c:	e8bd81f0 	pop	{r4, r5, r6, r7, r8, pc}

00008420 <notmain>:
    8420:	e92d4070 	push	{r4, r5, r6, lr}
    8424:	e24dd038 	sub	sp, sp, #56, 0	; 0x38
    8428:	e3a00064 	mov	r0, #100, 0	; 0x64
    842c:	eb000631 	bl	9cf8 <delay_ms>
    8430:	eb00026d 	bl	8dec <i2c_init>
    8434:	e3a00064 	mov	r0, #100, 0	; 0x64
    8438:	eb00062e 	bl	9cf8 <delay_ms>
    843c:	e3a01075 	mov	r1, #117, 0	; 0x75
    8440:	e3a00068 	mov	r0, #104, 0	; 0x68
    8444:	ebffff35 	bl	8120 <imu_rd>
    8448:	e1a01000 	mov	r1, r0
    844c:	e3500071 	cmp	r0, #113, 0	; 0x71
    8450:	13500068 	cmpne	r0, #104, 0	; 0x68
    8454:	1a00003e 	bne	8554 <notmain+0x134>
    8458:	e59f0148 	ldr	r0, [pc, #328]	; 85a8 <notmain+0x188>
    845c:	eb0002f7 	bl	9040 <printk>
    8460:	e3a00068 	mov	r0, #104, 0	; 0x68
    8464:	ebffffb9 	bl	8350 <mpu6500_reset>
    8468:	e3a03002 	mov	r3, #2, 0
    846c:	e3a02000 	mov	r2, #0, 0
    8470:	e1a01002 	mov	r1, r2
    8474:	e1a00002 	mov	r0, r2
    8478:	ebfffefc 	bl	8070 <test_mg>
    847c:	e3a03002 	mov	r3, #2, 0
    8480:	e3a02069 	mov	r2, #105, 0	; 0x69
    8484:	e3a01016 	mov	r1, #22, 0
    8488:	e59f011c 	ldr	r0, [pc, #284]	; 85ac <notmain+0x18c>
    848c:	ebfffef7 	bl	8070 <test_mg>
    8490:	e3a03002 	mov	r3, #2, 0
    8494:	e3a02009 	mov	r2, #9, 0
    8498:	e3a01040 	mov	r1, #64, 0	; 0x40
    849c:	e3a00ffa 	mov	r0, #1000	; 0x3e8
    84a0:	ebfffef2 	bl	8070 <test_mg>
    84a4:	e3a03002 	mov	r3, #2, 0
    84a8:	e3a02097 	mov	r2, #151, 0	; 0x97
    84ac:	e3a010e9 	mov	r1, #233, 0	; 0xe9
    84b0:	e59f00f8 	ldr	r0, [pc, #248]	; 85b0 <notmain+0x190>
    84b4:	ebfffeed 	bl	8070 <test_mg>
    84b8:	e3a03002 	mov	r3, #2, 0
    84bc:	e3a020f7 	mov	r2, #247, 0	; 0xf7
    84c0:	e3a010bf 	mov	r1, #191, 0	; 0xbf
    84c4:	e59f00e8 	ldr	r0, [pc, #232]	; 85b4 <notmain+0x194>
    84c8:	ebfffee8 	bl	8070 <test_mg>
    84cc:	e3a02000 	mov	r2, #0, 0
    84d0:	e3a01068 	mov	r1, #104, 0	; 0x68
    84d4:	e28d0020 	add	r0, sp, #32, 0
    84d8:	ebffff50 	bl	8220 <mpu6500_accel_init>
    84dc:	e59d3028 	ldr	r3, [sp, #40]	; 0x28
    84e0:	e3530002 	cmp	r3, #2, 0
    84e4:	1a000025 	bne	8580 <notmain+0x160>
    84e8:	e3a06000 	mov	r6, #0, 0
    84ec:	e3560063 	cmp	r6, #99, 0	; 0x63
    84f0:	ca00002a 	bgt	85a0 <notmain+0x180>
    84f4:	e28d4014 	add	r4, sp, #20, 0
    84f8:	e28d1020 	add	r1, sp, #32, 0
    84fc:	e1a00004 	mov	r0, r4
    8500:	ebffff99 	bl	836c <accel_rd>
    8504:	e1a01006 	mov	r1, r6
    8508:	e59f00a8 	ldr	r0, [pc, #168]	; 85b8 <notmain+0x198>
    850c:	eb0002cb 	bl	9040 <printk>
    8510:	e894000e 	ldm	r4, {r1, r2, r3}
    8514:	e59f00a0 	ldr	r0, [pc, #160]	; 85bc <notmain+0x19c>
    8518:	ebfffef2 	bl	80e8 <xyz_print>
    851c:	e28d502c 	add	r5, sp, #44, 0	; 0x2c
    8520:	e59d301c 	ldr	r3, [sp, #28]
    8524:	e58d3000 	str	r3, [sp]
    8528:	e894000c 	ldm	r4, {r2, r3}
    852c:	e28d1020 	add	r1, sp, #32, 0
    8530:	e1a00005 	mov	r0, r5
    8534:	ebffff1f 	bl	81b8 <accel_scale>
    8538:	e895000e 	ldm	r5, {r1, r2, r3}
    853c:	e59f007c 	ldr	r0, [pc, #124]	; 85c0 <notmain+0x1a0>
    8540:	ebfffee8 	bl	80e8 <xyz_print>
    8544:	e3a00ffa 	mov	r0, #1000	; 0x3e8
    8548:	eb0005ea 	bl	9cf8 <delay_ms>
    854c:	e2866001 	add	r6, r6, #1, 0
    8550:	eaffffe5 	b	84ec <notmain+0xcc>
    8554:	e58d0008 	str	r0, [sp, #8]
    8558:	e3a03068 	mov	r3, #104, 0	; 0x68
    855c:	e58d3004 	str	r3, [sp, #4]
    8560:	e3a03071 	mov	r3, #113, 0	; 0x71
    8564:	e58d3000 	str	r3, [sp]
    8568:	e3a030d7 	mov	r3, #215, 0	; 0xd7
    856c:	e59f2050 	ldr	r2, [pc, #80]	; 85c4 <notmain+0x1a4>
    8570:	e59f1050 	ldr	r1, [pc, #80]	; 85c8 <notmain+0x1a8>
    8574:	e59f0050 	ldr	r0, [pc, #80]	; 85cc <notmain+0x1ac>
    8578:	eb0002b0 	bl	9040 <printk>
    857c:	eb000540 	bl	9a84 <clean_reboot>
    8580:	e59f3048 	ldr	r3, [pc, #72]	; 85d0 <notmain+0x1b0>
    8584:	e58d3000 	str	r3, [sp]
    8588:	e3a030e9 	mov	r3, #233, 0	; 0xe9
    858c:	e59f2030 	ldr	r2, [pc, #48]	; 85c4 <notmain+0x1a4>
    8590:	e59f1030 	ldr	r1, [pc, #48]	; 85c8 <notmain+0x1a8>
    8594:	e59f0038 	ldr	r0, [pc, #56]	; 85d4 <notmain+0x1b4>
    8598:	eb0002a8 	bl	9040 <printk>
    859c:	eb000538 	bl	9a84 <clean_reboot>
    85a0:	e28dd038 	add	sp, sp, #56, 0	; 0x38
    85a4:	e8bd8070 	pop	{r4, r5, r6, pc}
    85a8:	0000a1c8 	andeq	sl, r0, r8, asr #3
    85ac:	0000015e 	andeq	r0, r0, lr, asr r1
    85b0:	fffffea2 			; <UNDEFINED> instruction: 0xfffffea2
    85b4:	fffffc18 			; <UNDEFINED> instruction: 0xfffffc18
    85b8:	0000a208 	andeq	sl, r0, r8, lsl #4
    85bc:	0000a214 	andeq	sl, r0, r4, lsl r2
    85c0:	0000a21c 	andeq	sl, r0, ip, lsl r2
    85c4:	0000a264 	andeq	sl, r0, r4, ror #4
    85c8:	0000a0a0 	andeq	sl, r0, r0, lsr #1
    85cc:	0000a184 	andeq	sl, r0, r4, lsl #3
    85d0:	0000a200 	andeq	sl, r0, r0, lsl #4
    85d4:	0000a0a8 	andeq	sl, r0, r8, lsr #1

000085d8 <clear_c>:
    85d8:	e3c00b1e 	bic	r0, r0, #30720	; 0x7800
    85dc:	e3c0004e 	bic	r0, r0, #78, 0	; 0x4e
    85e0:	e6ff0070 	uxth	r0, r0
    85e4:	e12fff1e 	bx	lr

000085e8 <clear_s>:
    85e8:	e1a00b00 	lsl	r0, r0, #22
    85ec:	e1a00b20 	lsr	r0, r0, #22
    85f0:	e12fff1e 	bx	lr

000085f4 <check_layout>:
    85f4:	e52de004 	push	{lr}		; (str lr, [sp, #-4]!)
    85f8:	e49df004 	pop	{pc}		; (ldr pc, [sp], #4)

000085fc <xfer_end>:
    85fc:	e52de004 	push	{lr}		; (str lr, [sp, #-4]!)
    8600:	e24dd00c 	sub	sp, sp, #12, 0
    8604:	e59f30c4 	ldr	r3, [pc, #196]	; 86d0 <xfer_end+0xd4>
    8608:	e5933004 	ldr	r3, [r3, #4]
    860c:	e3130002 	tst	r3, #2, 0
    8610:	1a000013 	bne	8664 <xfer_end+0x68>
    8614:	e59f30b4 	ldr	r3, [pc, #180]	; 86d0 <xfer_end+0xd4>
    8618:	e5933004 	ldr	r3, [r3, #4]
    861c:	e3130c01 	tst	r3, #256	; 0x100
    8620:	1a000009 	bne	864c <xfer_end+0x50>
    8624:	e59f30a4 	ldr	r3, [pc, #164]	; 86d0 <xfer_end+0xd4>
    8628:	e5933004 	ldr	r3, [r3, #4]
    862c:	e3130c02 	tst	r3, #512	; 0x200
    8630:	0afffff3 	beq	8604 <xfer_end+0x8>
    8634:	e3a03f46 	mov	r3, #280	; 0x118
    8638:	e59f2094 	ldr	r2, [pc, #148]	; 86d4 <xfer_end+0xd8>
    863c:	e59f1094 	ldr	r1, [pc, #148]	; 86d8 <xfer_end+0xdc>
    8640:	e59f0094 	ldr	r0, [pc, #148]	; 86dc <xfer_end+0xe0>
    8644:	eb00027d 	bl	9040 <printk>
    8648:	eb00050d 	bl	9a84 <clean_reboot>
    864c:	e3a03f46 	mov	r3, #280	; 0x118
    8650:	e59f207c 	ldr	r2, [pc, #124]	; 86d4 <xfer_end+0xd8>
    8654:	e59f107c 	ldr	r1, [pc, #124]	; 86d8 <xfer_end+0xdc>
    8658:	e59f0080 	ldr	r0, [pc, #128]	; 86e0 <xfer_end+0xe4>
    865c:	eb000277 	bl	9040 <printk>
    8660:	eb000507 	bl	9a84 <clean_reboot>
    8664:	e59f3064 	ldr	r3, [pc, #100]	; 86d0 <xfer_end+0xd4>
    8668:	e5933004 	ldr	r3, [r3, #4]
    866c:	e3130001 	tst	r3, #1, 0
    8670:	1a000006 	bne	8690 <xfer_end+0x94>
    8674:	e59f3054 	ldr	r3, [pc, #84]	; 86d0 <xfer_end+0xd4>
    8678:	e5933004 	ldr	r3, [r3, #4]
    867c:	e3130c01 	tst	r3, #256	; 0x100
    8680:	1a00000a 	bne	86b0 <xfer_end+0xb4>
    8684:	eb000554 	bl	9bdc <dev_barrier>
    8688:	e28dd00c 	add	sp, sp, #12, 0
    868c:	e49df004 	pop	{pc}		; (ldr pc, [sp], #4)
    8690:	e59f304c 	ldr	r3, [pc, #76]	; 86e4 <xfer_end+0xe8>
    8694:	e58d3000 	str	r3, [sp]
    8698:	e59f3048 	ldr	r3, [pc, #72]	; 86e8 <xfer_end+0xec>
    869c:	e59f2030 	ldr	r2, [pc, #48]	; 86d4 <xfer_end+0xd8>
    86a0:	e59f1030 	ldr	r1, [pc, #48]	; 86d8 <xfer_end+0xdc>
    86a4:	e59f0040 	ldr	r0, [pc, #64]	; 86ec <xfer_end+0xf0>
    86a8:	eb000264 	bl	9040 <printk>
    86ac:	eb0004f4 	bl	9a84 <clean_reboot>
    86b0:	e59f3038 	ldr	r3, [pc, #56]	; 86f0 <xfer_end+0xf4>
    86b4:	e58d3000 	str	r3, [sp]
    86b8:	e59f3034 	ldr	r3, [pc, #52]	; 86f4 <xfer_end+0xf8>
    86bc:	e59f2010 	ldr	r2, [pc, #16]	; 86d4 <xfer_end+0xd8>
    86c0:	e59f1010 	ldr	r1, [pc, #16]	; 86d8 <xfer_end+0xdc>
    86c4:	e59f0020 	ldr	r0, [pc, #32]	; 86ec <xfer_end+0xf0>
    86c8:	eb00025c 	bl	9040 <printk>
    86cc:	eb0004ec 	bl	9a84 <clean_reboot>
    86d0:	20804000 	addcs	r4, r0, r0
    86d4:	0000a4cc 	andeq	sl, r0, ip, asr #9
    86d8:	0000a26c 	andeq	sl, r0, ip, ror #4
    86dc:	0000a388 	andeq	sl, r0, r8, lsl #7
    86e0:	0000a364 	andeq	sl, r0, r4, ror #6
    86e4:	0000a3b8 			; <UNDEFINED> instruction: 0x0000a3b8
    86e8:	0000011b 	andeq	r0, r0, fp, lsl r1
    86ec:	0000a0a8 	andeq	sl, r0, r8, lsr #1
    86f0:	0000a3cc 	andeq	sl, r0, ip, asr #7
    86f4:	0000011d 	andeq	r0, r0, sp, lsl r1

000086f8 <read_s>:
    86f8:	e92d4010 	push	{r4, lr}
    86fc:	ebfffe4a 	bl	802c <GET32>
    8700:	ebffffb8 	bl	85e8 <clear_s>
    8704:	e8bd8010 	pop	{r4, pc}

00008708 <reset_status>:
    8708:	e92d4010 	push	{r4, lr}
    870c:	e59f4018 	ldr	r4, [pc, #24]	; 872c <reset_status+0x24>
    8710:	e1a00004 	mov	r0, r4
    8714:	ebfffff7 	bl	86f8 <read_s>
    8718:	e3801c03 	orr	r1, r0, #768	; 0x300
    871c:	e3811002 	orr	r1, r1, #2, 0
    8720:	e1a00004 	mov	r0, r4
    8724:	ebfffe3e 	bl	8024 <PUT32>
    8728:	e8bd8010 	pop	{r4, pc}
    872c:	20804004 	addcs	r4, r0, r4

00008730 <read_c>:
    8730:	e92d4010 	push	{r4, lr}
    8734:	ebfffe3c 	bl	802c <GET32>
    8738:	ebffffa6 	bl	85d8 <clear_c>
    873c:	e8bd8010 	pop	{r4, pc}

00008740 <xfer_start>:
    8740:	e92d4070 	push	{r4, r5, r6, lr}
    8744:	e24dd008 	sub	sp, sp, #8, 0
    8748:	e1a06000 	mov	r6, r0
    874c:	e1a05001 	mov	r5, r1
    8750:	e1a04002 	mov	r4, r2
    8754:	eb000520 	bl	9bdc <dev_barrier>
    8758:	e59f3180 	ldr	r3, [pc, #384]	; 88e0 <xfer_start+0x1a0>
    875c:	e5933004 	ldr	r3, [r3, #4]
    8760:	e3130001 	tst	r3, #1, 0
    8764:	0a000013 	beq	87b8 <xfer_start+0x78>
    8768:	e59f3170 	ldr	r3, [pc, #368]	; 88e0 <xfer_start+0x1a0>
    876c:	e5933004 	ldr	r3, [r3, #4]
    8770:	e3130c01 	tst	r3, #256	; 0x100
    8774:	1a000009 	bne	87a0 <xfer_start+0x60>
    8778:	e59f3160 	ldr	r3, [pc, #352]	; 88e0 <xfer_start+0x1a0>
    877c:	e5933004 	ldr	r3, [r3, #4]
    8780:	e3130c02 	tst	r3, #512	; 0x200
    8784:	0afffff3 	beq	8758 <xfer_start+0x18>
    8788:	e3a030f7 	mov	r3, #247, 0	; 0xf7
    878c:	e59f2150 	ldr	r2, [pc, #336]	; 88e4 <xfer_start+0x1a4>
    8790:	e59f1150 	ldr	r1, [pc, #336]	; 88e8 <xfer_start+0x1a8>
    8794:	e59f0150 	ldr	r0, [pc, #336]	; 88ec <xfer_start+0x1ac>
    8798:	eb000228 	bl	9040 <printk>
    879c:	eb0004b8 	bl	9a84 <clean_reboot>
    87a0:	e3a030f7 	mov	r3, #247, 0	; 0xf7
    87a4:	e59f2138 	ldr	r2, [pc, #312]	; 88e4 <xfer_start+0x1a4>
    87a8:	e59f1138 	ldr	r1, [pc, #312]	; 88e8 <xfer_start+0x1a8>
    87ac:	e59f013c 	ldr	r0, [pc, #316]	; 88f0 <xfer_start+0x1b0>
    87b0:	eb000222 	bl	9040 <printk>
    87b4:	eb0004b2 	bl	9a84 <clean_reboot>
    87b8:	e59f3120 	ldr	r3, [pc, #288]	; 88e0 <xfer_start+0x1a0>
    87bc:	e5933004 	ldr	r3, [r3, #4]
    87c0:	e3130040 	tst	r3, #64, 0	; 0x40
    87c4:	0a000025 	beq	8860 <xfer_start+0x120>
    87c8:	ebffffce 	bl	8708 <reset_status>
    87cc:	e1b033a6 	lsrs	r3, r6, #7
    87d0:	1a00002a 	bne	8880 <xfer_start+0x140>
    87d4:	e1a01006 	mov	r1, r6
    87d8:	e59f0114 	ldr	r0, [pc, #276]	; 88f4 <xfer_start+0x1b4>
    87dc:	ebfffe10 	bl	8024 <PUT32>
    87e0:	e1b03825 	lsrs	r3, r5, #16
    87e4:	1a00002d 	bne	88a0 <xfer_start+0x160>
    87e8:	e1a01005 	mov	r1, r5
    87ec:	e59f0104 	ldr	r0, [pc, #260]	; 88f8 <xfer_start+0x1b8>
    87f0:	ebfffe0b 	bl	8024 <PUT32>
    87f4:	e59f50e4 	ldr	r5, [pc, #228]	; 88e0 <xfer_start+0x1a0>
    87f8:	e1a00005 	mov	r0, r5
    87fc:	ebffffcb 	bl	8730 <read_c>
    8800:	e38030b0 	orr	r3, r0, #176, 0	; 0xb0
    8804:	e2041001 	and	r1, r4, #1, 0
    8808:	e3c33001 	bic	r3, r3, #1, 0
    880c:	e1811003 	orr	r1, r1, r3
    8810:	e1a00005 	mov	r0, r5
    8814:	ebfffe02 	bl	8024 <PUT32>
    8818:	e59f30c0 	ldr	r3, [pc, #192]	; 88e0 <xfer_start+0x1a0>
    881c:	e5933004 	ldr	r3, [r3, #4]
    8820:	e3130001 	tst	r3, #1, 0
    8824:	1a00002b 	bne	88d8 <xfer_start+0x198>
    8828:	e59f30b0 	ldr	r3, [pc, #176]	; 88e0 <xfer_start+0x1a0>
    882c:	e5933004 	ldr	r3, [r3, #4]
    8830:	e3130c01 	tst	r3, #256	; 0x100
    8834:	1a000021 	bne	88c0 <xfer_start+0x180>
    8838:	e59f30a0 	ldr	r3, [pc, #160]	; 88e0 <xfer_start+0x1a0>
    883c:	e5933004 	ldr	r3, [r3, #4]
    8840:	e3130c02 	tst	r3, #512	; 0x200
    8844:	0afffff3 	beq	8818 <xfer_start+0xd8>
    8848:	e59f30ac 	ldr	r3, [pc, #172]	; 88fc <xfer_start+0x1bc>
    884c:	e59f2090 	ldr	r2, [pc, #144]	; 88e4 <xfer_start+0x1a4>
    8850:	e59f1090 	ldr	r1, [pc, #144]	; 88e8 <xfer_start+0x1a8>
    8854:	e59f0090 	ldr	r0, [pc, #144]	; 88ec <xfer_start+0x1ac>
    8858:	eb0001f8 	bl	9040 <printk>
    885c:	eb000488 	bl	9a84 <clean_reboot>
    8860:	e59f3098 	ldr	r3, [pc, #152]	; 8900 <xfer_start+0x1c0>
    8864:	e58d3000 	str	r3, [sp]
    8868:	e3a030fa 	mov	r3, #250, 0	; 0xfa
    886c:	e59f2070 	ldr	r2, [pc, #112]	; 88e4 <xfer_start+0x1a4>
    8870:	e59f1070 	ldr	r1, [pc, #112]	; 88e8 <xfer_start+0x1a8>
    8874:	e59f0088 	ldr	r0, [pc, #136]	; 8904 <xfer_start+0x1c4>
    8878:	eb0001f0 	bl	9040 <printk>
    887c:	eb000480 	bl	9a84 <clean_reboot>
    8880:	e59f3080 	ldr	r3, [pc, #128]	; 8908 <xfer_start+0x1c8>
    8884:	e58d3000 	str	r3, [sp]
    8888:	e3a030ff 	mov	r3, #255, 0	; 0xff
    888c:	e59f2050 	ldr	r2, [pc, #80]	; 88e4 <xfer_start+0x1a4>
    8890:	e59f1050 	ldr	r1, [pc, #80]	; 88e8 <xfer_start+0x1a8>
    8894:	e59f0068 	ldr	r0, [pc, #104]	; 8904 <xfer_start+0x1c4>
    8898:	eb0001e8 	bl	9040 <printk>
    889c:	eb000478 	bl	9a84 <clean_reboot>
    88a0:	e59f3064 	ldr	r3, [pc, #100]	; 890c <xfer_start+0x1cc>
    88a4:	e58d3000 	str	r3, [sp]
    88a8:	e59f3060 	ldr	r3, [pc, #96]	; 8910 <xfer_start+0x1d0>
    88ac:	e59f2030 	ldr	r2, [pc, #48]	; 88e4 <xfer_start+0x1a4>
    88b0:	e59f1030 	ldr	r1, [pc, #48]	; 88e8 <xfer_start+0x1a8>
    88b4:	e59f0048 	ldr	r0, [pc, #72]	; 8904 <xfer_start+0x1c4>
    88b8:	eb0001e0 	bl	9040 <printk>
    88bc:	eb000470 	bl	9a84 <clean_reboot>
    88c0:	e59f3034 	ldr	r3, [pc, #52]	; 88fc <xfer_start+0x1bc>
    88c4:	e59f2018 	ldr	r2, [pc, #24]	; 88e4 <xfer_start+0x1a4>
    88c8:	e59f1018 	ldr	r1, [pc, #24]	; 88e8 <xfer_start+0x1a8>
    88cc:	e59f001c 	ldr	r0, [pc, #28]	; 88f0 <xfer_start+0x1b0>
    88d0:	eb0001da 	bl	9040 <printk>
    88d4:	eb00046a 	bl	9a84 <clean_reboot>
    88d8:	e28dd008 	add	sp, sp, #8, 0
    88dc:	e8bd8070 	pop	{r4, r5, r6, pc}
    88e0:	20804000 	addcs	r4, r0, r0
    88e4:	0000a4d8 	ldrdeq	sl, [r0], -r8
    88e8:	0000a26c 	andeq	sl, r0, ip, ror #4
    88ec:	0000a388 	andeq	sl, r0, r8, lsl #7
    88f0:	0000a364 	andeq	sl, r0, r4, ror #6
    88f4:	2080400c 	addcs	r4, r0, ip
    88f8:	20804008 	addcs	r4, r0, r8
    88fc:	00000112 	andeq	r0, r0, r2, lsl r1
    8900:	0000a3e0 	andeq	sl, r0, r0, ror #7
    8904:	0000a0a8 	andeq	sl, r0, r8, lsr #1
    8908:	0000a3f8 	strdeq	sl, [r0], -r8
    890c:	0000a40c 	andeq	sl, r0, ip, lsl #8
    8910:	00000103 	andeq	r0, r0, r3, lsl #2

00008914 <xfer_start_hack>:
    8914:	e92d4070 	push	{r4, r5, r6, lr}
    8918:	e24dd008 	sub	sp, sp, #8, 0
    891c:	e1a06000 	mov	r6, r0
    8920:	e1a05001 	mov	r5, r1
    8924:	e1a04002 	mov	r4, r2
    8928:	eb0004ab 	bl	9bdc <dev_barrier>
    892c:	e59f3150 	ldr	r3, [pc, #336]	; 8a84 <xfer_start_hack+0x170>
    8930:	e5933004 	ldr	r3, [r3, #4]
    8934:	e3130001 	tst	r3, #1, 0
    8938:	0a000013 	beq	898c <xfer_start_hack+0x78>
    893c:	e59f3140 	ldr	r3, [pc, #320]	; 8a84 <xfer_start_hack+0x170>
    8940:	e5933004 	ldr	r3, [r3, #4]
    8944:	e3130c01 	tst	r3, #256	; 0x100
    8948:	1a000009 	bne	8974 <xfer_start_hack+0x60>
    894c:	e59f3130 	ldr	r3, [pc, #304]	; 8a84 <xfer_start_hack+0x170>
    8950:	e5933004 	ldr	r3, [r3, #4]
    8954:	e3130c02 	tst	r3, #512	; 0x200
    8958:	0afffff3 	beq	892c <xfer_start_hack+0x18>
    895c:	e3a03f52 	mov	r3, #328	; 0x148
    8960:	e59f2120 	ldr	r2, [pc, #288]	; 8a88 <xfer_start_hack+0x174>
    8964:	e59f1120 	ldr	r1, [pc, #288]	; 8a8c <xfer_start_hack+0x178>
    8968:	e59f0120 	ldr	r0, [pc, #288]	; 8a90 <xfer_start_hack+0x17c>
    896c:	eb0001b3 	bl	9040 <printk>
    8970:	eb000443 	bl	9a84 <clean_reboot>
    8974:	e3a03f52 	mov	r3, #328	; 0x148
    8978:	e59f2108 	ldr	r2, [pc, #264]	; 8a88 <xfer_start_hack+0x174>
    897c:	e59f1108 	ldr	r1, [pc, #264]	; 8a8c <xfer_start_hack+0x178>
    8980:	e59f010c 	ldr	r0, [pc, #268]	; 8a94 <xfer_start_hack+0x180>
    8984:	eb0001ad 	bl	9040 <printk>
    8988:	eb00043d 	bl	9a84 <clean_reboot>
    898c:	ebffff5d 	bl	8708 <reset_status>
    8990:	e1b033a6 	lsrs	r3, r6, #7
    8994:	1a000022 	bne	8a24 <xfer_start_hack+0x110>
    8998:	e1a01006 	mov	r1, r6
    899c:	e59f00f4 	ldr	r0, [pc, #244]	; 8a98 <xfer_start_hack+0x184>
    89a0:	ebfffd9f 	bl	8024 <PUT32>
    89a4:	e1b03825 	lsrs	r3, r5, #16
    89a8:	1a000025 	bne	8a44 <xfer_start_hack+0x130>
    89ac:	e1a01005 	mov	r1, r5
    89b0:	e59f00e4 	ldr	r0, [pc, #228]	; 8a9c <xfer_start_hack+0x188>
    89b4:	ebfffd9a 	bl	8024 <PUT32>
    89b8:	e59f50c4 	ldr	r5, [pc, #196]	; 8a84 <xfer_start_hack+0x170>
    89bc:	e1a00005 	mov	r0, r5
    89c0:	ebffff5a 	bl	8730 <read_c>
    89c4:	e38030b0 	orr	r3, r0, #176, 0	; 0xb0
    89c8:	e2041001 	and	r1, r4, #1, 0
    89cc:	e3c33001 	bic	r3, r3, #1, 0
    89d0:	e1811003 	orr	r1, r1, r3
    89d4:	e1a00005 	mov	r0, r5
    89d8:	ebfffd91 	bl	8024 <PUT32>
    89dc:	e59f30a0 	ldr	r3, [pc, #160]	; 8a84 <xfer_start_hack+0x170>
    89e0:	e5933004 	ldr	r3, [r3, #4]
    89e4:	e3130001 	tst	r3, #1, 0
    89e8:	1a000023 	bne	8a7c <xfer_start_hack+0x168>
    89ec:	e59f3090 	ldr	r3, [pc, #144]	; 8a84 <xfer_start_hack+0x170>
    89f0:	e5933004 	ldr	r3, [r3, #4]
    89f4:	e3130c01 	tst	r3, #256	; 0x100
    89f8:	1a000019 	bne	8a64 <xfer_start_hack+0x150>
    89fc:	e59f3080 	ldr	r3, [pc, #128]	; 8a84 <xfer_start_hack+0x170>
    8a00:	e5933004 	ldr	r3, [r3, #4]
    8a04:	e3130c02 	tst	r3, #512	; 0x200
    8a08:	0afffff3 	beq	89dc <xfer_start_hack+0xc8>
    8a0c:	e59f308c 	ldr	r3, [pc, #140]	; 8aa0 <xfer_start_hack+0x18c>
    8a10:	e59f2070 	ldr	r2, [pc, #112]	; 8a88 <xfer_start_hack+0x174>
    8a14:	e59f1070 	ldr	r1, [pc, #112]	; 8a8c <xfer_start_hack+0x178>
    8a18:	e59f0070 	ldr	r0, [pc, #112]	; 8a90 <xfer_start_hack+0x17c>
    8a1c:	eb000187 	bl	9040 <printk>
    8a20:	eb000417 	bl	9a84 <clean_reboot>
    8a24:	e59f3078 	ldr	r3, [pc, #120]	; 8aa4 <xfer_start_hack+0x190>
    8a28:	e58d3000 	str	r3, [sp]
    8a2c:	e3a03e15 	mov	r3, #336	; 0x150
    8a30:	e59f2050 	ldr	r2, [pc, #80]	; 8a88 <xfer_start_hack+0x174>
    8a34:	e59f1050 	ldr	r1, [pc, #80]	; 8a8c <xfer_start_hack+0x178>
    8a38:	e59f0068 	ldr	r0, [pc, #104]	; 8aa8 <xfer_start_hack+0x194>
    8a3c:	eb00017f 	bl	9040 <printk>
    8a40:	eb00040f 	bl	9a84 <clean_reboot>
    8a44:	e59f3060 	ldr	r3, [pc, #96]	; 8aac <xfer_start_hack+0x198>
    8a48:	e58d3000 	str	r3, [sp]
    8a4c:	e3a03f55 	mov	r3, #340	; 0x154
    8a50:	e59f2030 	ldr	r2, [pc, #48]	; 8a88 <xfer_start_hack+0x174>
    8a54:	e59f1030 	ldr	r1, [pc, #48]	; 8a8c <xfer_start_hack+0x178>
    8a58:	e59f0048 	ldr	r0, [pc, #72]	; 8aa8 <xfer_start_hack+0x194>
    8a5c:	eb000177 	bl	9040 <printk>
    8a60:	eb000407 	bl	9a84 <clean_reboot>
    8a64:	e59f3034 	ldr	r3, [pc, #52]	; 8aa0 <xfer_start_hack+0x18c>
    8a68:	e59f2018 	ldr	r2, [pc, #24]	; 8a88 <xfer_start_hack+0x174>
    8a6c:	e59f1018 	ldr	r1, [pc, #24]	; 8a8c <xfer_start_hack+0x178>
    8a70:	e59f001c 	ldr	r0, [pc, #28]	; 8a94 <xfer_start_hack+0x180>
    8a74:	eb000171 	bl	9040 <printk>
    8a78:	eb000401 	bl	9a84 <clean_reboot>
    8a7c:	e28dd008 	add	sp, sp, #8, 0
    8a80:	e8bd8070 	pop	{r4, r5, r6, pc}
    8a84:	20804000 	addcs	r4, r0, r0
    8a88:	0000a4e4 	andeq	sl, r0, r4, ror #9
    8a8c:	0000a26c 	andeq	sl, r0, ip, ror #4
    8a90:	0000a388 	andeq	sl, r0, r8, lsl #7
    8a94:	0000a364 	andeq	sl, r0, r4, ror #6
    8a98:	2080400c 	addcs	r4, r0, ip
    8a9c:	20804008 	addcs	r4, r0, r8
    8aa0:	0000015e 	andeq	r0, r0, lr, asr r1
    8aa4:	0000a3f8 	strdeq	sl, [r0], -r8
    8aa8:	0000a0a8 	andeq	sl, r0, r8, lsr #1
    8aac:	0000a40c 	andeq	sl, r0, ip, lsl #8

00008ab0 <i2c_write>:
    8ab0:	e92d4070 	push	{r4, r5, r6, lr}
    8ab4:	e1a05001 	mov	r5, r1
    8ab8:	e1a04002 	mov	r4, r2
    8abc:	e3a02000 	mov	r2, #0, 0
    8ac0:	e1a01004 	mov	r1, r4
    8ac4:	ebffff1d 	bl	8740 <xfer_start>
    8ac8:	e3a02000 	mov	r2, #0, 0
    8acc:	ea000009 	b	8af8 <i2c_write+0x48>
    8ad0:	e3a03f4a 	mov	r3, #296	; 0x128
    8ad4:	e59f2078 	ldr	r2, [pc, #120]	; 8b54 <i2c_write+0xa4>
    8ad8:	e59f1078 	ldr	r1, [pc, #120]	; 8b58 <i2c_write+0xa8>
    8adc:	e59f0078 	ldr	r0, [pc, #120]	; 8b5c <i2c_write+0xac>
    8ae0:	eb000156 	bl	9040 <printk>
    8ae4:	eb0003e6 	bl	9a84 <clean_reboot>
    8ae8:	e7d51002 	ldrb	r1, [r5, r2]
    8aec:	e59f306c 	ldr	r3, [pc, #108]	; 8b60 <i2c_write+0xb0>
    8af0:	e5831010 	str	r1, [r3, #16]
    8af4:	e2822001 	add	r2, r2, #1, 0
    8af8:	e1520004 	cmp	r2, r4
    8afc:	2a000011 	bcs	8b48 <i2c_write+0x98>
    8b00:	e59f3058 	ldr	r3, [pc, #88]	; 8b60 <i2c_write+0xb0>
    8b04:	e5933004 	ldr	r3, [r3, #4]
    8b08:	e3130010 	tst	r3, #16, 0
    8b0c:	1afffff5 	bne	8ae8 <i2c_write+0x38>
    8b10:	e59f3048 	ldr	r3, [pc, #72]	; 8b60 <i2c_write+0xb0>
    8b14:	e5933004 	ldr	r3, [r3, #4]
    8b18:	e3130c01 	tst	r3, #256	; 0x100
    8b1c:	1affffeb 	bne	8ad0 <i2c_write+0x20>
    8b20:	e59f3038 	ldr	r3, [pc, #56]	; 8b60 <i2c_write+0xb0>
    8b24:	e5933004 	ldr	r3, [r3, #4]
    8b28:	e3130c02 	tst	r3, #512	; 0x200
    8b2c:	0afffff3 	beq	8b00 <i2c_write+0x50>
    8b30:	e3a03f4a 	mov	r3, #296	; 0x128
    8b34:	e59f2018 	ldr	r2, [pc, #24]	; 8b54 <i2c_write+0xa4>
    8b38:	e59f1018 	ldr	r1, [pc, #24]	; 8b58 <i2c_write+0xa8>
    8b3c:	e59f0020 	ldr	r0, [pc, #32]	; 8b64 <i2c_write+0xb4>
    8b40:	eb00013e 	bl	9040 <printk>
    8b44:	eb0003ce 	bl	9a84 <clean_reboot>
    8b48:	ebfffeab 	bl	85fc <xfer_end>
    8b4c:	e3a00001 	mov	r0, #1, 0
    8b50:	e8bd8070 	pop	{r4, r5, r6, pc}
    8b54:	0000a4f4 	strdeq	sl, [r0], -r4
    8b58:	0000a26c 	andeq	sl, r0, ip, ror #4
    8b5c:	0000a364 	andeq	sl, r0, r4, ror #6
    8b60:	20804000 	addcs	r4, r0, r0
    8b64:	0000a388 	andeq	sl, r0, r8, lsl #7

00008b68 <i2c_read>:
    8b68:	e92d4070 	push	{r4, r5, r6, lr}
    8b6c:	e1a05001 	mov	r5, r1
    8b70:	e1a04002 	mov	r4, r2
    8b74:	e3a02001 	mov	r2, #1, 0
    8b78:	e1a01004 	mov	r1, r4
    8b7c:	ebfffeef 	bl	8740 <xfer_start>
    8b80:	e3a02000 	mov	r2, #0, 0
    8b84:	ea000009 	b	8bb0 <i2c_read+0x48>
    8b88:	e59f307c 	ldr	r3, [pc, #124]	; 8c0c <i2c_read+0xa4>
    8b8c:	e59f207c 	ldr	r2, [pc, #124]	; 8c10 <i2c_read+0xa8>
    8b90:	e59f107c 	ldr	r1, [pc, #124]	; 8c14 <i2c_read+0xac>
    8b94:	e59f007c 	ldr	r0, [pc, #124]	; 8c18 <i2c_read+0xb0>
    8b98:	eb000128 	bl	9040 <printk>
    8b9c:	eb0003b8 	bl	9a84 <clean_reboot>
    8ba0:	e59f3074 	ldr	r3, [pc, #116]	; 8c1c <i2c_read+0xb4>
    8ba4:	e5933010 	ldr	r3, [r3, #16]
    8ba8:	e7c53002 	strb	r3, [r5, r2]
    8bac:	e2822001 	add	r2, r2, #1, 0
    8bb0:	e1520004 	cmp	r2, r4
    8bb4:	2a000011 	bcs	8c00 <i2c_read+0x98>
    8bb8:	e59f305c 	ldr	r3, [pc, #92]	; 8c1c <i2c_read+0xb4>
    8bbc:	e5933004 	ldr	r3, [r3, #4]
    8bc0:	e3130020 	tst	r3, #32, 0
    8bc4:	1afffff5 	bne	8ba0 <i2c_read+0x38>
    8bc8:	e59f304c 	ldr	r3, [pc, #76]	; 8c1c <i2c_read+0xb4>
    8bcc:	e5933004 	ldr	r3, [r3, #4]
    8bd0:	e3130c01 	tst	r3, #256	; 0x100
    8bd4:	1affffeb 	bne	8b88 <i2c_read+0x20>
    8bd8:	e59f303c 	ldr	r3, [pc, #60]	; 8c1c <i2c_read+0xb4>
    8bdc:	e5933004 	ldr	r3, [r3, #4]
    8be0:	e3130c02 	tst	r3, #512	; 0x200
    8be4:	0afffff3 	beq	8bb8 <i2c_read+0x50>
    8be8:	e59f301c 	ldr	r3, [pc, #28]	; 8c0c <i2c_read+0xa4>
    8bec:	e59f201c 	ldr	r2, [pc, #28]	; 8c10 <i2c_read+0xa8>
    8bf0:	e59f101c 	ldr	r1, [pc, #28]	; 8c14 <i2c_read+0xac>
    8bf4:	e59f0024 	ldr	r0, [pc, #36]	; 8c20 <i2c_read+0xb8>
    8bf8:	eb000110 	bl	9040 <printk>
    8bfc:	eb0003a0 	bl	9a84 <clean_reboot>
    8c00:	ebfffe7d 	bl	85fc <xfer_end>
    8c04:	e3a00001 	mov	r0, #1, 0
    8c08:	e8bd8070 	pop	{r4, r5, r6, pc}
    8c0c:	0000013a 	andeq	r0, r0, sl, lsr r1
    8c10:	0000a500 	andeq	sl, r0, r0, lsl #10
    8c14:	0000a26c 	andeq	sl, r0, ip, ror #4
    8c18:	0000a364 	andeq	sl, r0, r4, ror #6
    8c1c:	20804000 	addcs	r4, r0, r0
    8c20:	0000a388 	andeq	sl, r0, r8, lsl #7

00008c24 <i2c_discover_addr>:
    8c24:	e92d4070 	push	{r4, r5, r6, lr}
    8c28:	e1a05000 	mov	r5, r0
    8c2c:	e1a06001 	mov	r6, r1
    8c30:	e3a04000 	mov	r4, #0, 0
    8c34:	e35400ff 	cmp	r4, #255, 0	; 0xff
    8c38:	8a000054 	bhi	8d90 <i2c_discover_addr+0x16c>
    8c3c:	e3a02001 	mov	r2, #1, 0
    8c40:	e1a01002 	mov	r1, r2
    8c44:	e1a00004 	mov	r0, r4
    8c48:	ebffff31 	bl	8914 <xfer_start_hack>
    8c4c:	e59f3154 	ldr	r3, [pc, #340]	; 8da8 <i2c_discover_addr+0x184>
    8c50:	e5933004 	ldr	r3, [r3, #4]
    8c54:	e3130010 	tst	r3, #16, 0
    8c58:	1a000013 	bne	8cac <i2c_discover_addr+0x88>
    8c5c:	e59f3144 	ldr	r3, [pc, #324]	; 8da8 <i2c_discover_addr+0x184>
    8c60:	e5933004 	ldr	r3, [r3, #4]
    8c64:	e3130c01 	tst	r3, #256	; 0x100
    8c68:	1a000009 	bne	8c94 <i2c_discover_addr+0x70>
    8c6c:	e59f3134 	ldr	r3, [pc, #308]	; 8da8 <i2c_discover_addr+0x184>
    8c70:	e5933004 	ldr	r3, [r3, #4]
    8c74:	e3130c02 	tst	r3, #512	; 0x200
    8c78:	0afffff3 	beq	8c4c <i2c_discover_addr+0x28>
    8c7c:	e59f3128 	ldr	r3, [pc, #296]	; 8dac <i2c_discover_addr+0x188>
    8c80:	e59f2128 	ldr	r2, [pc, #296]	; 8db0 <i2c_discover_addr+0x18c>
    8c84:	e59f1128 	ldr	r1, [pc, #296]	; 8db4 <i2c_discover_addr+0x190>
    8c88:	e59f0128 	ldr	r0, [pc, #296]	; 8db8 <i2c_discover_addr+0x194>
    8c8c:	eb0000eb 	bl	9040 <printk>
    8c90:	eb00037b 	bl	9a84 <clean_reboot>
    8c94:	e59f3110 	ldr	r3, [pc, #272]	; 8dac <i2c_discover_addr+0x188>
    8c98:	e59f2110 	ldr	r2, [pc, #272]	; 8db0 <i2c_discover_addr+0x18c>
    8c9c:	e59f1110 	ldr	r1, [pc, #272]	; 8db4 <i2c_discover_addr+0x190>
    8ca0:	e59f0114 	ldr	r0, [pc, #276]	; 8dbc <i2c_discover_addr+0x198>
    8ca4:	eb0000e5 	bl	9040 <printk>
    8ca8:	eb000375 	bl	9a84 <clean_reboot>
    8cac:	e59f30f4 	ldr	r3, [pc, #244]	; 8da8 <i2c_discover_addr+0x184>
    8cb0:	e5835010 	str	r5, [r3, #16]
    8cb4:	e59f30ec 	ldr	r3, [pc, #236]	; 8da8 <i2c_discover_addr+0x184>
    8cb8:	e5933004 	ldr	r3, [r3, #4]
    8cbc:	e3130010 	tst	r3, #16, 0
    8cc0:	1a000013 	bne	8d14 <i2c_discover_addr+0xf0>
    8cc4:	e59f30dc 	ldr	r3, [pc, #220]	; 8da8 <i2c_discover_addr+0x184>
    8cc8:	e5933004 	ldr	r3, [r3, #4]
    8ccc:	e3130c01 	tst	r3, #256	; 0x100
    8cd0:	1a000009 	bne	8cfc <i2c_discover_addr+0xd8>
    8cd4:	e59f30cc 	ldr	r3, [pc, #204]	; 8da8 <i2c_discover_addr+0x184>
    8cd8:	e5933004 	ldr	r3, [r3, #4]
    8cdc:	e3130c02 	tst	r3, #512	; 0x200
    8ce0:	0afffff3 	beq	8cb4 <i2c_discover_addr+0x90>
    8ce4:	e59f30d4 	ldr	r3, [pc, #212]	; 8dc0 <i2c_discover_addr+0x19c>
    8ce8:	e59f20c0 	ldr	r2, [pc, #192]	; 8db0 <i2c_discover_addr+0x18c>
    8cec:	e59f10c0 	ldr	r1, [pc, #192]	; 8db4 <i2c_discover_addr+0x190>
    8cf0:	e59f00c0 	ldr	r0, [pc, #192]	; 8db8 <i2c_discover_addr+0x194>
    8cf4:	eb0000d1 	bl	9040 <printk>
    8cf8:	eb000361 	bl	9a84 <clean_reboot>
    8cfc:	e59f30bc 	ldr	r3, [pc, #188]	; 8dc0 <i2c_discover_addr+0x19c>
    8d00:	e59f20a8 	ldr	r2, [pc, #168]	; 8db0 <i2c_discover_addr+0x18c>
    8d04:	e59f10a8 	ldr	r1, [pc, #168]	; 8db4 <i2c_discover_addr+0x190>
    8d08:	e59f00ac 	ldr	r0, [pc, #172]	; 8dbc <i2c_discover_addr+0x198>
    8d0c:	eb0000cb 	bl	9040 <printk>
    8d10:	eb00035b 	bl	9a84 <clean_reboot>
    8d14:	e59f308c 	ldr	r3, [pc, #140]	; 8da8 <i2c_discover_addr+0x184>
    8d18:	e5836010 	str	r6, [r3, #16]
    8d1c:	e59f3084 	ldr	r3, [pc, #132]	; 8da8 <i2c_discover_addr+0x184>
    8d20:	e5933004 	ldr	r3, [r3, #4]
    8d24:	e3130002 	tst	r3, #2, 0
    8d28:	1a00000d 	bne	8d64 <i2c_discover_addr+0x140>
    8d2c:	e59f3074 	ldr	r3, [pc, #116]	; 8da8 <i2c_discover_addr+0x184>
    8d30:	e5933004 	ldr	r3, [r3, #4]
    8d34:	e3130c01 	tst	r3, #256	; 0x100
    8d38:	1a00000f 	bne	8d7c <i2c_discover_addr+0x158>
    8d3c:	e59f3064 	ldr	r3, [pc, #100]	; 8da8 <i2c_discover_addr+0x184>
    8d40:	e5933004 	ldr	r3, [r3, #4]
    8d44:	e3130c02 	tst	r3, #512	; 0x200
    8d48:	0afffff3 	beq	8d1c <i2c_discover_addr+0xf8>
    8d4c:	e59f3070 	ldr	r3, [pc, #112]	; 8dc4 <i2c_discover_addr+0x1a0>
    8d50:	e59f2058 	ldr	r2, [pc, #88]	; 8db0 <i2c_discover_addr+0x18c>
    8d54:	e59f1058 	ldr	r1, [pc, #88]	; 8db4 <i2c_discover_addr+0x190>
    8d58:	e59f0068 	ldr	r0, [pc, #104]	; 8dc8 <i2c_discover_addr+0x1a4>
    8d5c:	eb0000b7 	bl	9040 <printk>
    8d60:	eb000347 	bl	9a84 <clean_reboot>
    8d64:	e1a01004 	mov	r1, r4
    8d68:	e59f005c 	ldr	r0, [pc, #92]	; 8dcc <i2c_discover_addr+0x1a8>
    8d6c:	eb0000b3 	bl	9040 <printk>
    8d70:	ebfffe21 	bl	85fc <xfer_end>
    8d74:	e6ef0074 	uxtb	r0, r4
    8d78:	e8bd8070 	pop	{r4, r5, r6, pc}
    8d7c:	e1a01004 	mov	r1, r4
    8d80:	e59f0048 	ldr	r0, [pc, #72]	; 8dd0 <i2c_discover_addr+0x1ac>
    8d84:	eb0000ad 	bl	9040 <printk>
    8d88:	e2844001 	add	r4, r4, #1, 0
    8d8c:	eaffffa8 	b	8c34 <i2c_discover_addr+0x10>
    8d90:	e59f303c 	ldr	r3, [pc, #60]	; 8dd4 <i2c_discover_addr+0x1b0>
    8d94:	e59f2014 	ldr	r2, [pc, #20]	; 8db0 <i2c_discover_addr+0x18c>
    8d98:	e59f1014 	ldr	r1, [pc, #20]	; 8db4 <i2c_discover_addr+0x190>
    8d9c:	e59f0034 	ldr	r0, [pc, #52]	; 8dd8 <i2c_discover_addr+0x1b4>
    8da0:	eb0000a6 	bl	9040 <printk>
    8da4:	eb000336 	bl	9a84 <clean_reboot>
    8da8:	20804000 	addcs	r4, r0, r0
    8dac:	00000167 	andeq	r0, r0, r7, ror #2
    8db0:	0000a50c 	andeq	sl, r0, ip, lsl #10
    8db4:	0000a26c 	andeq	sl, r0, ip, ror #4
    8db8:	0000a388 	andeq	sl, r0, r8, lsl #7
    8dbc:	0000a364 	andeq	sl, r0, r4, ror #6
    8dc0:	00000169 	andeq	r0, r0, r9, ror #2
    8dc4:	00000177 	andeq	r0, r0, r7, ror r1
    8dc8:	0000a46c 	andeq	sl, r0, ip, ror #8
    8dcc:	0000a424 	andeq	sl, r0, r4, lsr #8
    8dd0:	0000a450 	andeq	sl, r0, r0, asr r4
    8dd4:	0000017a 	andeq	r0, r0, sl, ror r1
    8dd8:	0000a49c 	muleq	r0, ip, r4

00008ddc <i2c_is_initialized>:
    8ddc:	e59f3004 	ldr	r3, [pc, #4]	; 8de8 <i2c_is_initialized+0xc>
    8de0:	e5930000 	ldr	r0, [r3]
    8de4:	e12fff1e 	bx	lr
    8de8:	0000a6c0 	andeq	sl, r0, r0, asr #13

00008dec <i2c_init>:
    8dec:	e92d4010 	push	{r4, lr}
    8df0:	e24dd008 	sub	sp, sp, #8, 0
    8df4:	ebfffdfe 	bl	85f4 <check_layout>
    8df8:	eb000377 	bl	9bdc <dev_barrier>
    8dfc:	e3a01004 	mov	r1, #4, 0
    8e00:	e3a00002 	mov	r0, #2, 0
    8e04:	eb000027 	bl	8ea8 <gpio_set_function>
    8e08:	e3a01004 	mov	r1, #4, 0
    8e0c:	e3a00003 	mov	r0, #3, 0
    8e10:	eb000024 	bl	8ea8 <gpio_set_function>
    8e14:	eb000370 	bl	9bdc <dev_barrier>
    8e18:	e59f4054 	ldr	r4, [pc, #84]	; 8e74 <i2c_init+0x88>
    8e1c:	e3a01902 	mov	r1, #32768	; 0x8000
    8e20:	e1a00004 	mov	r0, r4
    8e24:	ebfffc7e 	bl	8024 <PUT32>
    8e28:	eb00036b 	bl	9bdc <dev_barrier>
    8e2c:	ebfffe35 	bl	8708 <reset_status>
    8e30:	eb000369 	bl	9bdc <dev_barrier>
    8e34:	e5943004 	ldr	r3, [r4, #4]
    8e38:	e3130001 	tst	r3, #1, 0
    8e3c:	1a000004 	bne	8e54 <i2c_init+0x68>
    8e40:	e59f3030 	ldr	r3, [pc, #48]	; 8e78 <i2c_init+0x8c>
    8e44:	e3a02001 	mov	r2, #1, 0
    8e48:	e5832000 	str	r2, [r3]
    8e4c:	e28dd008 	add	sp, sp, #8, 0
    8e50:	e8bd8010 	pop	{r4, pc}
    8e54:	e59f3020 	ldr	r3, [pc, #32]	; 8e7c <i2c_init+0x90>
    8e58:	e58d3000 	str	r3, [sp]
    8e5c:	e59f301c 	ldr	r3, [pc, #28]	; 8e80 <i2c_init+0x94>
    8e60:	e59f201c 	ldr	r2, [pc, #28]	; 8e84 <i2c_init+0x98>
    8e64:	e59f101c 	ldr	r1, [pc, #28]	; 8e88 <i2c_init+0x9c>
    8e68:	e59f001c 	ldr	r0, [pc, #28]	; 8e8c <i2c_init+0xa0>
    8e6c:	eb000073 	bl	9040 <printk>
    8e70:	eb000303 	bl	9a84 <clean_reboot>
    8e74:	20804000 	addcs	r4, r0, r0
    8e78:	0000a6c0 	andeq	sl, r0, r0, asr #13
    8e7c:	0000a3b8 			; <UNDEFINED> instruction: 0x0000a3b8
    8e80:	000001aa 	andeq	r0, r0, sl, lsr #3
    8e84:	0000a520 	andeq	sl, r0, r0, lsr #10
    8e88:	0000a26c 	andeq	sl, r0, ip, ror #4
    8e8c:	0000a0a8 	andeq	sl, r0, r8, lsr #1

00008e90 <i2c_init_once>:
    8e90:	e92d4010 	push	{r4, lr}
    8e94:	ebffffd0 	bl	8ddc <i2c_is_initialized>
    8e98:	e3500000 	cmp	r0, #0, 0
    8e9c:	18bd8010 	popne	{r4, pc}
    8ea0:	ebffffd1 	bl	8dec <i2c_init>
    8ea4:	e8bd8010 	pop	{r4, pc}

00008ea8 <gpio_set_function>:
    8ea8:	e350001f 	cmp	r0, #31, 0
    8eac:	812fff1e 	bxhi	lr
    8eb0:	e3d13007 	bics	r3, r1, #7, 0
    8eb4:	e92d4070 	push	{r4, r5, r6, lr}
    8eb8:	e1a05001 	mov	r5, r1
    8ebc:	18bd8070 	popne	{r4, r5, r6, pc}
    8ec0:	e59f403c 	ldr	r4, [pc, #60]	; 8f04 <gpio_set_function+0x5c>
    8ec4:	e0843094 	umull	r3, r4, r4, r0
    8ec8:	e1a041a4 	lsr	r4, r4, #3
    8ecc:	e2843302 	add	r3, r4, #134217728	; 0x8000000
    8ed0:	e2833702 	add	r3, r3, #524288	; 0x80000
    8ed4:	e1a06103 	lsl	r6, r3, #2
    8ed8:	e0844104 	add	r4, r4, r4, lsl #2
    8edc:	e0404084 	sub	r4, r0, r4, lsl #1
    8ee0:	e1a00006 	mov	r0, r6
    8ee4:	ebfffc50 	bl	802c <GET32>
    8ee8:	e3a01007 	mov	r1, #7, 0
    8eec:	e0844084 	add	r4, r4, r4, lsl #1
    8ef0:	e1c01411 	bic	r1, r0, r1, lsl r4
    8ef4:	e1811415 	orr	r1, r1, r5, lsl r4
    8ef8:	e1a00006 	mov	r0, r6
    8efc:	e8bd4070 	pop	{r4, r5, r6, lr}
    8f00:	eafffc47 	b	8024 <PUT32>
    8f04:	cccccccd 	stclgt	12, cr12, [ip], {205}	; 0xcd

00008f08 <gpio_set_output>:
    8f08:	e350001f 	cmp	r0, #31, 0
    8f0c:	812fff1e 	bxhi	lr
    8f10:	e92d4070 	push	{r4, r5, r6, lr}
    8f14:	e59f4040 	ldr	r4, [pc, #64]	; 8f5c <gpio_set_output+0x54>
    8f18:	e0843094 	umull	r3, r4, r4, r0
    8f1c:	e1a041a4 	lsr	r4, r4, #3
    8f20:	e2843302 	add	r3, r4, #134217728	; 0x8000000
    8f24:	e2833702 	add	r3, r3, #524288	; 0x80000
    8f28:	e1a05103 	lsl	r5, r3, #2
    8f2c:	e0844104 	add	r4, r4, r4, lsl #2
    8f30:	e0404084 	sub	r4, r0, r4, lsl #1
    8f34:	e1a00005 	mov	r0, r5
    8f38:	ebfffc3b 	bl	802c <GET32>
    8f3c:	e3a03007 	mov	r3, #7, 0
    8f40:	e3a01001 	mov	r1, #1, 0
    8f44:	e0844084 	add	r4, r4, r4, lsl #1
    8f48:	e1c03413 	bic	r3, r0, r3, lsl r4
    8f4c:	e1831411 	orr	r1, r3, r1, lsl r4
    8f50:	e1a00005 	mov	r0, r5
    8f54:	e8bd4070 	pop	{r4, r5, r6, lr}
    8f58:	eafffc31 	b	8024 <PUT32>
    8f5c:	cccccccd 	stclgt	12, cr12, [ip], {205}	; 0xcd

00008f60 <gpio_set_on>:
    8f60:	e1a03000 	mov	r3, r0
    8f64:	e3a01001 	mov	r1, #1, 0
    8f68:	e59f0004 	ldr	r0, [pc, #4]	; 8f74 <gpio_set_on+0x14>
    8f6c:	e1a01311 	lsl	r1, r1, r3
    8f70:	eafffc2b 	b	8024 <PUT32>
    8f74:	2020001c 	eorcs	r0, r0, ip, lsl r0

00008f78 <gpio_set_off>:
    8f78:	e1a03000 	mov	r3, r0
    8f7c:	e3a01001 	mov	r1, #1, 0
    8f80:	e59f0004 	ldr	r0, [pc, #4]	; 8f8c <gpio_set_off+0x14>
    8f84:	e1a01311 	lsl	r1, r1, r3
    8f88:	eafffc25 	b	8024 <PUT32>
    8f8c:	20200028 	eorcs	r0, r0, r8, lsr #32

00008f90 <gpio_set_input>:
    8f90:	e350001f 	cmp	r0, #31, 0
    8f94:	812fff1e 	bxhi	lr
    8f98:	e92d4070 	push	{r4, r5, r6, lr}
    8f9c:	e59f5040 	ldr	r5, [pc, #64]	; 8fe4 <gpio_set_input+0x54>
    8fa0:	e1a04000 	mov	r4, r0
    8fa4:	e0853095 	umull	r3, r5, r5, r0
    8fa8:	e1a051a5 	lsr	r5, r5, #3
    8fac:	e2850302 	add	r0, r5, #134217728	; 0x8000000
    8fb0:	e2800702 	add	r0, r0, #524288	; 0x80000
    8fb4:	e1a06100 	lsl	r6, r0, #2
    8fb8:	e1a00006 	mov	r0, r6
    8fbc:	ebfffc1a 	bl	802c <GET32>
    8fc0:	e3a01007 	mov	r1, #7, 0
    8fc4:	e1a03000 	mov	r3, r0
    8fc8:	e0855105 	add	r5, r5, r5, lsl #2
    8fcc:	e0444085 	sub	r4, r4, r5, lsl #1
    8fd0:	e0844084 	add	r4, r4, r4, lsl #1
    8fd4:	e1a00006 	mov	r0, r6
    8fd8:	e1c31411 	bic	r1, r3, r1, lsl r4
    8fdc:	e8bd4070 	pop	{r4, r5, r6, lr}
    8fe0:	eafffc0f 	b	8024 <PUT32>
    8fe4:	cccccccd 	stclgt	12, cr12, [ip], {205}	; 0xcd

00008fe8 <gpio_write>:
    8fe8:	e3510000 	cmp	r1, #0, 0
    8fec:	e3a03001 	mov	r3, #1, 0
    8ff0:	e1a01000 	mov	r1, r0
    8ff4:	0a000002 	beq	9004 <gpio_write+0x1c>
    8ff8:	e59f0010 	ldr	r0, [pc, #16]	; 9010 <gpio_write+0x28>
    8ffc:	e1a01113 	lsl	r1, r3, r1
    9000:	eafffc07 	b	8024 <PUT32>
    9004:	e59f0008 	ldr	r0, [pc, #8]	; 9014 <gpio_write+0x2c>
    9008:	e1a01113 	lsl	r1, r3, r1
    900c:	eafffc04 	b	8024 <PUT32>
    9010:	2020001c 	eorcs	r0, r0, ip, lsl r0
    9014:	20200028 	eorcs	r0, r0, r8, lsr #32

00009018 <gpio_read>:
    9018:	e92d4010 	push	{r4, lr}
    901c:	e1a04000 	mov	r4, r0
    9020:	e59f0014 	ldr	r0, [pc, #20]	; 903c <gpio_read+0x24>
    9024:	e08002a4 	add	r0, r0, r4, lsr #5
    9028:	ebfffbff 	bl	802c <GET32>
    902c:	e204401f 	and	r4, r4, #31, 0
    9030:	e1a00430 	lsr	r0, r0, r4
    9034:	e2000001 	and	r0, r0, #1, 0
    9038:	e8bd8010 	pop	{r4, pc}
    903c:	20200034 	eorcs	r0, r0, r4, lsr r0

00009040 <printk>:
    9040:	e92d000f 	push	{r0, r1, r2, r3}
    9044:	e92d4030 	push	{r4, r5, lr}
    9048:	e59f5040 	ldr	r5, [pc, #64]	; 9090 <printk+0x50>
    904c:	e24dd00c 	sub	sp, sp, #12, 0
    9050:	e28d301c 	add	r3, sp, #28, 0
    9054:	e3a01b01 	mov	r1, #1024	; 0x400
    9058:	e59d2018 	ldr	r2, [sp, #24]
    905c:	e1a00005 	mov	r0, r5
    9060:	e58d3004 	str	r3, [sp, #4]
    9064:	eb0000fb 	bl	9458 <va_printk>
    9068:	e1a04000 	mov	r4, r0
    906c:	e59f3020 	ldr	r3, [pc, #32]	; 9094 <printk+0x54>
    9070:	e1a00005 	mov	r0, r5
    9074:	e5933000 	ldr	r3, [r3]
    9078:	e12fff33 	blx	r3
    907c:	e1a00004 	mov	r0, r4
    9080:	e28dd00c 	add	sp, sp, #12, 0
    9084:	e8bd4030 	pop	{r4, r5, lr}
    9088:	e28dd010 	add	sp, sp, #16, 0
    908c:	e12fff1e 	bx	lr
    9090:	0000a6c4 	andeq	sl, r0, r4, asr #13
    9094:	0000a6b8 			; <UNDEFINED> instruction: 0x0000a6b8

00009098 <internal_putk>:
    9098:	e92d4070 	push	{r4, r5, r6, lr}
    909c:	e1a04000 	mov	r4, r0
    90a0:	e5d00000 	ldrb	r0, [r0]
    90a4:	e3500000 	cmp	r0, #0, 0
    90a8:	0a000005 	beq	90c4 <internal_putk+0x2c>
    90ac:	e59f5018 	ldr	r5, [pc, #24]	; 90cc <internal_putk+0x34>
    90b0:	e5953000 	ldr	r3, [r5]
    90b4:	e12fff33 	blx	r3
    90b8:	e5f40001 	ldrb	r0, [r4, #1]!
    90bc:	e3500000 	cmp	r0, #0, 0
    90c0:	1afffffa 	bne	90b0 <internal_putk+0x18>
    90c4:	e3a00001 	mov	r0, #1, 0
    90c8:	e8bd8070 	pop	{r4, r5, r6, pc}
    90cc:	0000a6bc 			; <UNDEFINED> instruction: 0x0000a6bc

000090d0 <emit.constprop.0>:
    90d0:	e92d41f0 	push	{r4, r5, r6, r7, r8, lr}
    90d4:	e3530080 	cmp	r3, #128, 0	; 0x80
    90d8:	e1a0c000 	mov	ip, r0
    90dc:	e24dd048 	sub	sp, sp, #72, 0	; 0x48
    90e0:	e1a00001 	mov	r0, r1
    90e4:	ca000069 	bgt	9290 <emit.constprop.0+0x1c0>
    90e8:	e24c1002 	sub	r1, ip, #2, 0
    90ec:	e1a0c002 	mov	ip, r2
    90f0:	e351000e 	cmp	r1, #14, 0
    90f4:	979ff101 	ldrls	pc, [pc, r1, lsl #2]
    90f8:	ea0000a7 	b	939c <emit.constprop.0+0x2cc>
    90fc:	00009268 	andeq	r9, r0, r8, ror #4
    9100:	0000939c 	muleq	r0, ip, r3
    9104:	0000939c 	muleq	r0, ip, r3
    9108:	0000939c 	muleq	r0, ip, r3
    910c:	0000939c 	muleq	r0, ip, r3
    9110:	0000939c 	muleq	r0, ip, r3
    9114:	00009344 	andeq	r9, r0, r4, asr #6
    9118:	0000939c 	muleq	r0, ip, r3
    911c:	000092e4 	andeq	r9, r0, r4, ror #5
    9120:	0000939c 	muleq	r0, ip, r3
    9124:	0000939c 	muleq	r0, ip, r3
    9128:	0000939c 	muleq	r0, ip, r3
    912c:	0000939c 	muleq	r0, ip, r3
    9130:	0000939c 	muleq	r0, ip, r3
    9134:	0000913c 	andeq	r9, r0, ip, lsr r1
    9138:	e3a0307f 	mov	r3, #127, 0	; 0x7f
    913c:	e28d2008 	add	r2, sp, #8, 0
    9140:	e1a04002 	mov	r4, r2
    9144:	e59f1288 	ldr	r1, [pc, #648]	; 93d4 <emit.constprop.0+0x304>
    9148:	e20ce00f 	and	lr, ip, #15, 0
    914c:	e7d1e00e 	ldrb	lr, [r1, lr]
    9150:	e35c000f 	cmp	ip, #15, 0
    9154:	e4c4e001 	strb	lr, [r4], #1
    9158:	e1a0c22c 	lsr	ip, ip, #4
    915c:	8afffff9 	bhi	9148 <emit.constprop.0+0x78>
    9160:	e3a0c078 	mov	ip, #120, 0	; 0x78
    9164:	e1a0e004 	mov	lr, r4
    9168:	e3a01030 	mov	r1, #48, 0	; 0x30
    916c:	e4cec002 	strb	ip, [lr], #2
    9170:	e5c41001 	strb	r1, [r4, #1]
    9174:	e04e1002 	sub	r1, lr, r2
    9178:	e1510003 	cmp	r1, r3
    917c:	aa000083 	bge	9390 <emit.constprop.0+0x2c0>
    9180:	e1510003 	cmp	r1, r3
    9184:	a3a0c001 	movge	ip, #1, 0
    9188:	b3a0c000 	movlt	ip, #0, 0
    918c:	e2434001 	sub	r4, r3, #1, 0
    9190:	e0444001 	sub	r4, r4, r1
    9194:	b0436001 	sublt	r6, r3, r1
    9198:	a3a06001 	movge	r6, #1, 0
    919c:	e3540002 	cmp	r4, #2, 0
    91a0:	938cc001 	orrls	ip, ip, #1, 0
    91a4:	e35c0000 	cmp	ip, #0, 0
    91a8:	1a000075 	bne	9384 <emit.constprop.0+0x2b4>
    91ac:	e1a0c00e 	mov	ip, lr
    91b0:	e3c65003 	bic	r5, r6, #3, 0
    91b4:	e59f721c 	ldr	r7, [pc, #540]	; 93d8 <emit.constprop.0+0x308>
    91b8:	e085500e 	add	r5, r5, lr
    91bc:	e48c7004 	str	r7, [ip], #4
    91c0:	e15c0005 	cmp	ip, r5
    91c4:	1afffffc 	bne	91bc <emit.constprop.0+0xec>
    91c8:	e3c6c003 	bic	ip, r6, #3, 0
    91cc:	e156000c 	cmp	r6, ip
    91d0:	e08e500c 	add	r5, lr, ip
    91d4:	e08cc001 	add	ip, ip, r1
    91d8:	0a000008 	beq	9200 <emit.constprop.0+0x130>
    91dc:	e3a07020 	mov	r7, #32, 0
    91e0:	e28c8001 	add	r8, ip, #1, 0
    91e4:	e1580003 	cmp	r8, r3
    91e8:	e5c57000 	strb	r7, [r5]
    91ec:	aa000003 	bge	9200 <emit.constprop.0+0x130>
    91f0:	e28cc002 	add	ip, ip, #2, 0
    91f4:	e15c0003 	cmp	ip, r3
    91f8:	e5c57001 	strb	r7, [r5, #1]
    91fc:	b5c57002 	strblt	r7, [r5, #2]
    9200:	e1510003 	cmp	r1, r3
    9204:	a3a04000 	movge	r4, #0, 0
    9208:	e08e6006 	add	r6, lr, r6
    920c:	e0461002 	sub	r1, r6, r2
    9210:	e08ee004 	add	lr, lr, r4
    9214:	e3a03000 	mov	r3, #0, 0
    9218:	e351007f 	cmp	r1, #127, 0	; 0x7f
    921c:	c241407f 	subgt	r4, r1, #127, 0	; 0x7f
    9220:	c0822004 	addgt	r2, r2, r4
    9224:	e152000e 	cmp	r2, lr
    9228:	e5c63000 	strb	r3, [r6]
    922c:	8a00004f 	bhi	9370 <emit.constprop.0+0x2a0>
    9230:	e28ee001 	add	lr, lr, #1, 0
    9234:	e1a0300e 	mov	r3, lr
    9238:	e240c001 	sub	ip, r0, #1, 0
    923c:	e5734001 	ldrb	r4, [r3, #-1]!
    9240:	e1530002 	cmp	r3, r2
    9244:	e5ec4001 	strb	r4, [ip, #1]!
    9248:	1afffffb 	bne	923c <emit.constprop.0+0x16c>
    924c:	e04ee003 	sub	lr, lr, r3
    9250:	e3a03000 	mov	r3, #0, 0
    9254:	e080e00e 	add	lr, r0, lr
    9258:	e5ce3000 	strb	r3, [lr]
    925c:	e28dd048 	add	sp, sp, #72, 0	; 0x48
    9260:	e8bd81f0 	pop	{r4, r5, r6, r7, r8, pc}
    9264:	e3a0307f 	mov	r3, #127, 0	; 0x7f
    9268:	e28d2008 	add	r2, sp, #8, 0
    926c:	e1a0e002 	mov	lr, r2
    9270:	e59f1164 	ldr	r1, [pc, #356]	; 93dc <emit.constprop.0+0x30c>
    9274:	e20c4001 	and	r4, ip, #1, 0
    9278:	e7d14004 	ldrb	r4, [r1, r4]
    927c:	e35c0001 	cmp	ip, #1, 0
    9280:	e4ce4001 	strb	r4, [lr], #1
    9284:	e1a0c0ac 	lsr	ip, ip, #1
    9288:	8afffff9 	bhi	9274 <emit.constprop.0+0x1a4>
    928c:	eaffffb8 	b	9174 <emit.constprop.0+0xa4>
    9290:	e24c3002 	sub	r3, ip, #2, 0
    9294:	e1a0c002 	mov	ip, r2
    9298:	e353000e 	cmp	r3, #14, 0
    929c:	979ff103 	ldrls	pc, [pc, r3, lsl #2]
    92a0:	ea00003d 	b	939c <emit.constprop.0+0x2cc>
    92a4:	00009264 	andeq	r9, r0, r4, ror #4
    92a8:	0000939c 	muleq	r0, ip, r3
    92ac:	0000939c 	muleq	r0, ip, r3
    92b0:	0000939c 	muleq	r0, ip, r3
    92b4:	0000939c 	muleq	r0, ip, r3
    92b8:	0000939c 	muleq	r0, ip, r3
    92bc:	000093bc 			; <UNDEFINED> instruction: 0x000093bc
    92c0:	0000939c 	muleq	r0, ip, r3
    92c4:	000092e0 	andeq	r9, r0, r0, ror #5
    92c8:	0000939c 	muleq	r0, ip, r3
    92cc:	0000939c 	muleq	r0, ip, r3
    92d0:	0000939c 	muleq	r0, ip, r3
    92d4:	0000939c 	muleq	r0, ip, r3
    92d8:	0000939c 	muleq	r0, ip, r3
    92dc:	00009138 	andeq	r9, r0, r8, lsr r1
    92e0:	e3a0307f 	mov	r3, #127, 0	; 0x7f
    92e4:	e59d1060 	ldr	r1, [sp, #96]	; 0x60
    92e8:	e59f70f0 	ldr	r7, [pc, #240]	; 93e0 <emit.constprop.0+0x310>
    92ec:	e0118fa2 	ands	r8, r1, r2, lsr #31
    92f0:	1262c000 	rsbne	ip, r2, #0, 0
    92f4:	e28d2008 	add	r2, sp, #8, 0
    92f8:	13a08001 	movne	r8, #1, 0
    92fc:	e1a0e002 	mov	lr, r2
    9300:	e59f60dc 	ldr	r6, [pc, #220]	; 93e4 <emit.constprop.0+0x314>
    9304:	e1a0500c 	mov	r5, ip
    9308:	e0814c96 	umull	r4, r1, r6, ip
    930c:	e1a011a1 	lsr	r1, r1, #3
    9310:	e0814101 	add	r4, r1, r1, lsl #2
    9314:	e04cc084 	sub	ip, ip, r4, lsl #1
    9318:	e7d7400c 	ldrb	r4, [r7, ip]
    931c:	e3550009 	cmp	r5, #9, 0
    9320:	e1a0c001 	mov	ip, r1
    9324:	e1a0100e 	mov	r1, lr
    9328:	e4ce4001 	strb	r4, [lr], #1
    932c:	8afffff4 	bhi	9304 <emit.constprop.0+0x234>
    9330:	e3580000 	cmp	r8, #0, 0
    9334:	13a0c02d 	movne	ip, #45, 0	; 0x2d
    9338:	15cec000 	strbne	ip, [lr]
    933c:	1281e002 	addne	lr, r1, #2, 0
    9340:	eaffff8b 	b	9174 <emit.constprop.0+0xa4>
    9344:	e3530001 	cmp	r3, #1, 0
    9348:	e5cd2008 	strb	r2, [sp, #8]
    934c:	c3a01001 	movgt	r1, #1, 0
    9350:	c28de009 	addgt	lr, sp, #9, 0
    9354:	c28d2008 	addgt	r2, sp, #8, 0
    9358:	caffff88 	bgt	9180 <emit.constprop.0+0xb0>
    935c:	e3a03000 	mov	r3, #0, 0
    9360:	e28de008 	add	lr, sp, #8, 0
    9364:	e1a0200e 	mov	r2, lr
    9368:	e5cd3009 	strb	r3, [sp, #9]
    936c:	eaffffaf 	b	9230 <emit.constprop.0+0x160>
    9370:	e1a0e000 	mov	lr, r0
    9374:	e3a03000 	mov	r3, #0, 0
    9378:	e5ce3000 	strb	r3, [lr]
    937c:	e28dd048 	add	sp, sp, #72, 0	; 0x48
    9380:	e8bd81f0 	pop	{r4, r5, r6, r7, r8, pc}
    9384:	e1a0c001 	mov	ip, r1
    9388:	e1a0500e 	mov	r5, lr
    938c:	eaffff92 	b	91dc <emit.constprop.0+0x10c>
    9390:	e1a0600e 	mov	r6, lr
    9394:	e24ee001 	sub	lr, lr, #1, 0
    9398:	eaffff9d 	b	9214 <emit.constprop.0+0x144>
    939c:	e59f2044 	ldr	r2, [pc, #68]	; 93e8 <emit.constprop.0+0x318>
    93a0:	e3a03079 	mov	r3, #121, 0	; 0x79
    93a4:	e59f1040 	ldr	r1, [pc, #64]	; 93ec <emit.constprop.0+0x31c>
    93a8:	e58d2000 	str	r2, [sp]
    93ac:	e59f003c 	ldr	r0, [pc, #60]	; 93f0 <emit.constprop.0+0x320>
    93b0:	e59f203c 	ldr	r2, [pc, #60]	; 93f4 <emit.constprop.0+0x324>
    93b4:	ebffff21 	bl	9040 <printk>
    93b8:	eb0001b1 	bl	9a84 <clean_reboot>
    93bc:	e5cd2008 	strb	r2, [sp, #8]
    93c0:	e3a0307f 	mov	r3, #127, 0	; 0x7f
    93c4:	e3a01001 	mov	r1, #1, 0
    93c8:	e28de009 	add	lr, sp, #9, 0
    93cc:	e28d2008 	add	r2, sp, #8, 0
    93d0:	eaffff6a 	b	9180 <emit.constprop.0+0xb0>
    93d4:	0000a540 	andeq	sl, r0, r0, asr #10
    93d8:	20202020 	eorcs	r2, r0, r0, lsr #32
    93dc:	0000a554 	andeq	sl, r0, r4, asr r5
    93e0:	0000a558 	andeq	sl, r0, r8, asr r5
    93e4:	cccccccd 	stclgt	12, cr12, [ip], {205}	; 0xcd
    93e8:	0000a420 	andeq	sl, r0, r0, lsr #8
    93ec:	0000a52c 	andeq	sl, r0, ip, lsr #10
    93f0:	0000a0a8 	andeq	sl, r0, r8, lsr #1
    93f4:	0000a66c 	andeq	sl, r0, ip, ror #12

000093f8 <rpi_set_output>:
    93f8:	e3500000 	cmp	r0, #0, 0
    93fc:	0a000005 	beq	9418 <rpi_set_output+0x20>
    9400:	e59f3038 	ldr	r3, [pc, #56]	; 9440 <rpi_set_output+0x48>
    9404:	e3510000 	cmp	r1, #0, 0
    9408:	e5830000 	str	r0, [r3]
    940c:	159f3030 	ldrne	r3, [pc, #48]	; 9444 <rpi_set_output+0x4c>
    9410:	15831000 	strne	r1, [r3]
    9414:	e12fff1e 	bx	lr
    9418:	e52de004 	push	{lr}		; (str lr, [sp, #-4]!)
    941c:	e59f2024 	ldr	r2, [pc, #36]	; 9448 <rpi_set_output+0x50>
    9420:	e24dd00c 	sub	sp, sp, #12, 0
    9424:	e3a03020 	mov	r3, #32, 0
    9428:	e59f101c 	ldr	r1, [pc, #28]	; 944c <rpi_set_output+0x54>
    942c:	e58d2000 	str	r2, [sp]
    9430:	e59f0018 	ldr	r0, [pc, #24]	; 9450 <rpi_set_output+0x58>
    9434:	e59f2018 	ldr	r2, [pc, #24]	; 9454 <rpi_set_output+0x5c>
    9438:	ebffff00 	bl	9040 <printk>
    943c:	eb000190 	bl	9a84 <clean_reboot>
    9440:	0000a6bc 			; <UNDEFINED> instruction: 0x0000a6bc
    9444:	0000a6b8 			; <UNDEFINED> instruction: 0x0000a6b8
    9448:	0000a564 	andeq	sl, r0, r4, ror #10
    944c:	0000a52c 	andeq	sl, r0, ip, lsr #10
    9450:	0000a0a8 	andeq	sl, r0, r8, lsr #1
    9454:	0000a674 	andeq	sl, r0, r4, ror r6

00009458 <va_printk>:
    9458:	e92d4ff0 	push	{r4, r5, r6, r7, r8, r9, sl, fp, lr}
    945c:	e1a0b000 	mov	fp, r0
    9460:	e3a00000 	mov	r0, #0, 0
    9464:	e5cb0000 	strb	r0, [fp]
    9468:	e5d2c000 	ldrb	ip, [r2]
    946c:	e2417001 	sub	r7, r1, #1, 0
    9470:	e08b7007 	add	r7, fp, r7
    9474:	e15c0000 	cmp	ip, r0
    9478:	115b0007 	cmpne	fp, r7
    947c:	e24ddf47 	sub	sp, sp, #284	; 0x11c
    9480:	e58d2010 	str	r2, [sp, #16]
    9484:	2a000159 	bcs	99f0 <va_printk+0x598>
    9488:	e1a06002 	mov	r6, r2
    948c:	e1a08003 	mov	r8, r3
    9490:	e1a0400b 	mov	r4, fp
    9494:	e59fa5a4 	ldr	sl, [pc, #1444]	; 9a40 <va_printk+0x5e8>
    9498:	e58db00c 	str	fp, [sp, #12]
    949c:	ea000005 	b	94b8 <va_printk+0x60>
    94a0:	e4c4c001 	strb	ip, [r4], #1
    94a4:	e2866001 	add	r6, r6, #1, 0
    94a8:	e5d6c000 	ldrb	ip, [r6]
    94ac:	e35c0000 	cmp	ip, #0, 0
    94b0:	11570004 	cmpne	r7, r4
    94b4:	9a00002f 	bls	9578 <va_printk+0x120>
    94b8:	e35c0025 	cmp	ip, #37, 0	; 0x25
    94bc:	1afffff7 	bne	94a0 <va_printk+0x48>
    94c0:	e5d62001 	ldrb	r2, [r6, #1]
    94c4:	e3520025 	cmp	r2, #37, 0	; 0x25
    94c8:	04c4c001 	strbeq	ip, [r4], #1
    94cc:	02866002 	addeq	r6, r6, #2, 0
    94d0:	0afffff4 	beq	94a8 <va_printk+0x50>
    94d4:	e2423030 	sub	r3, r2, #48, 0	; 0x30
    94d8:	e3530009 	cmp	r3, #9, 0
    94dc:	e3a05000 	mov	r5, #0, 0
    94e0:	e2866001 	add	r6, r6, #1, 0
    94e4:	8a000008 	bhi	950c <va_printk+0xb4>
    94e8:	e0855105 	add	r5, r5, r5, lsl #2
    94ec:	e0825085 	add	r5, r2, r5, lsl #1
    94f0:	e5f62001 	ldrb	r2, [r6, #1]!
    94f4:	e2455030 	sub	r5, r5, #48, 0	; 0x30
    94f8:	e2423030 	sub	r3, r2, #48, 0	; 0x30
    94fc:	e3530009 	cmp	r3, #9, 0
    9500:	9afffff8 	bls	94e8 <va_printk+0x90>
    9504:	e355001f 	cmp	r5, #31, 0
    9508:	8a00013a 	bhi	99f8 <va_printk+0x5a0>
    950c:	e2423062 	sub	r3, r2, #98, 0	; 0x62
    9510:	e3530016 	cmp	r3, #22, 0
    9514:	979ff103 	ldrls	pc, [pc, r3, lsl #2]
    9518:	ea00011b 	b	998c <va_printk+0x534>
    951c:	000097d0 	ldrdeq	r9, [r0], -r0
    9520:	000096cc 	andeq	r9, r0, ip, asr #13
    9524:	000096c4 	andeq	r9, r0, r4, asr #13
    9528:	0000998c 	andeq	r9, r0, ip, lsl #19
    952c:	000099c8 	andeq	r9, r0, r8, asr #19
    9530:	0000998c 	andeq	r9, r0, ip, lsl #19
    9534:	0000998c 	andeq	r9, r0, ip, lsl #19
    9538:	0000998c 	andeq	r9, r0, ip, lsl #19
    953c:	0000998c 	andeq	r9, r0, ip, lsl #19
    9540:	0000998c 	andeq	r9, r0, ip, lsl #19
    9544:	000095d4 	ldrdeq	r9, [r0], -r4
    9548:	0000998c 	andeq	r9, r0, ip, lsl #19
    954c:	0000998c 	andeq	r9, r0, ip, lsl #19
    9550:	0000998c 	andeq	r9, r0, ip, lsl #19
    9554:	00009590 	muleq	r0, r0, r5
    9558:	0000998c 	andeq	r9, r0, ip, lsl #19
    955c:	0000998c 	andeq	r9, r0, ip, lsl #19
    9560:	000098c8 	andeq	r9, r0, r8, asr #17
    9564:	0000998c 	andeq	r9, r0, ip, lsl #19
    9568:	000096a0 	andeq	r9, r0, r0, lsr #13
    956c:	0000998c 	andeq	r9, r0, ip, lsl #19
    9570:	0000998c 	andeq	r9, r0, ip, lsl #19
    9574:	00009590 	muleq	r0, r0, r5
    9578:	e59db00c 	ldr	fp, [sp, #12]
    957c:	e3a03000 	mov	r3, #0, 0
    9580:	e4c43001 	strb	r3, [r4], #1
    9584:	e044000b 	sub	r0, r4, fp
    9588:	e28ddf47 	add	sp, sp, #284	; 0x11c
    958c:	e8bd8ff0 	pop	{r4, r5, r6, r7, r8, r9, sl, fp, pc}
    9590:	e3a01000 	mov	r1, #0, 0
    9594:	e1a03005 	mov	r3, r5
    9598:	e4982004 	ldr	r2, [r8], #4
    959c:	e3a00010 	mov	r0, #16, 0
    95a0:	e58d1000 	str	r1, [sp]
    95a4:	e28d1018 	add	r1, sp, #24, 0
    95a8:	ebfffec8 	bl	90d0 <emit.constprop.0>
    95ac:	e1a05000 	mov	r5, r0
    95b0:	e2866001 	add	r6, r6, #1, 0
    95b4:	e2455001 	sub	r5, r5, #1, 0
    95b8:	e5f53001 	ldrb	r3, [r5, #1]!
    95bc:	e3530000 	cmp	r3, #0, 0
    95c0:	0affffb8 	beq	94a8 <va_printk+0x50>
    95c4:	e4c43001 	strb	r3, [r4], #1
    95c8:	e1570004 	cmp	r7, r4
    95cc:	8afffff9 	bhi	95b8 <va_printk+0x160>
    95d0:	eaffffb4 	b	94a8 <va_printk+0x50>
    95d4:	e3a02003 	mov	r2, #3, 0
    95d8:	e1a00006 	mov	r0, r6
    95dc:	e59f1460 	ldr	r1, [pc, #1120]	; 9a44 <va_printk+0x5ec>
    95e0:	eb00029a 	bl	a050 <strncmp>
    95e4:	e3500000 	cmp	r0, #0, 0
    95e8:	0a000005 	beq	9604 <va_printk+0x1ac>
    95ec:	e3a02003 	mov	r2, #3, 0
    95f0:	e1a00006 	mov	r0, r6
    95f4:	e59f144c 	ldr	r1, [pc, #1100]	; 9a48 <va_printk+0x5f0>
    95f8:	eb000294 	bl	a050 <strncmp>
    95fc:	e3500000 	cmp	r0, #0, 0
    9600:	1a00010b 	bne	9a34 <va_printk+0x5dc>
    9604:	e2888007 	add	r8, r8, #7, 0
    9608:	e3c88007 	bic	r8, r8, #7, 0
    960c:	e598b004 	ldr	fp, [r8, #4]
    9610:	e4989008 	ldr	r9, [r8], #8
    9614:	e1a0100b 	mov	r1, fp
    9618:	e59f042c 	ldr	r0, [pc, #1068]	; 9a4c <va_printk+0x5f4>
    961c:	ebfffe87 	bl	9040 <printk>
    9620:	e1a01009 	mov	r1, r9
    9624:	e59f0424 	ldr	r0, [pc, #1060]	; 9a50 <va_printk+0x5f8>
    9628:	ebfffe84 	bl	9040 <printk>
    962c:	e3a02003 	mov	r2, #3, 0
    9630:	e1a00006 	mov	r0, r6
    9634:	e59f1408 	ldr	r1, [pc, #1032]	; 9a44 <va_printk+0x5ec>
    9638:	eb000284 	bl	a050 <strncmp>
    963c:	e2503000 	subs	r3, r0, #0, 0
    9640:	e1a02003 	mov	r2, r3
    9644:	e2863002 	add	r3, r6, #2, 0
    9648:	e58d3014 	str	r3, [sp, #20]
    964c:	1a00009f 	bne	98d0 <va_printk+0x478>
    9650:	e1a06002 	mov	r6, r2
    9654:	e1a03005 	mov	r3, r5
    9658:	e58d2000 	str	r2, [sp]
    965c:	e28d1018 	add	r1, sp, #24, 0
    9660:	e1a0200b 	mov	r2, fp
    9664:	e3a00010 	mov	r0, #16, 0
    9668:	ebfffe98 	bl	90d0 <emit.constprop.0>
    966c:	e1a0c000 	mov	ip, r0
    9670:	e1a03005 	mov	r3, r5
    9674:	e58d6000 	str	r6, [sp]
    9678:	e28d1098 	add	r1, sp, #152, 0	; 0x98
    967c:	e1a02009 	mov	r2, r9
    9680:	e3a00010 	mov	r0, #16, 0
    9684:	e1a0500c 	mov	r5, ip
    9688:	ebfffe90 	bl	90d0 <emit.constprop.0>
    968c:	e28d0018 	add	r0, sp, #24, 0
    9690:	e28d109a 	add	r1, sp, #154, 0	; 0x9a
    9694:	e59d6014 	ldr	r6, [sp, #20]
    9698:	eb00024a 	bl	9fc8 <strcat>
    969c:	eaffffc3 	b	95b0 <va_printk+0x158>
    96a0:	e3a01000 	mov	r1, #0, 0
    96a4:	e1a03005 	mov	r3, r5
    96a8:	e4982004 	ldr	r2, [r8], #4
    96ac:	e3a0000a 	mov	r0, #10, 0
    96b0:	e58d1000 	str	r1, [sp]
    96b4:	e28d1018 	add	r1, sp, #24, 0
    96b8:	ebfffe84 	bl	90d0 <emit.constprop.0>
    96bc:	e1a05000 	mov	r5, r0
    96c0:	eaffffba 	b	95b0 <va_printk+0x158>
    96c4:	e3a01001 	mov	r1, #1, 0
    96c8:	eafffff5 	b	96a4 <va_printk+0x24c>
    96cc:	e4983004 	ldr	r3, [r8], #4
    96d0:	e3550001 	cmp	r5, #1, 0
    96d4:	e5cd3098 	strb	r3, [sp, #152]	; 0x98
    96d8:	9a0000a6 	bls	9978 <va_printk+0x520>
    96dc:	e2453002 	sub	r3, r5, #2, 0
    96e0:	e3530002 	cmp	r3, #2, 0
    96e4:	e2451001 	sub	r1, r5, #1, 0
    96e8:	9a0000bc 	bls	99e0 <va_printk+0x588>
    96ec:	e59f0360 	ldr	r0, [pc, #864]	; 9a54 <va_printk+0x5fc>
    96f0:	e1a02121 	lsr	r2, r1, #2
    96f4:	e3520001 	cmp	r2, #1, 0
    96f8:	e58d0099 	str	r0, [sp, #153]	; 0x99
    96fc:	0a00000e 	beq	973c <va_printk+0x2e4>
    9700:	e3520002 	cmp	r2, #2, 0
    9704:	e58d009d 	str	r0, [sp, #157]	; 0x9d
    9708:	0a00000b 	beq	973c <va_printk+0x2e4>
    970c:	e3520003 	cmp	r2, #3, 0
    9710:	e58d00a1 	str	r0, [sp, #161]	; 0xa1
    9714:	0a000008 	beq	973c <va_printk+0x2e4>
    9718:	e3520004 	cmp	r2, #4, 0
    971c:	e58d00a5 	str	r0, [sp, #165]	; 0xa5
    9720:	0a000005 	beq	973c <va_printk+0x2e4>
    9724:	e3520005 	cmp	r2, #5, 0
    9728:	e58d00a9 	str	r0, [sp, #169]	; 0xa9
    972c:	0a000002 	beq	973c <va_printk+0x2e4>
    9730:	e3520007 	cmp	r2, #7, 0
    9734:	e58d00ad 	str	r0, [sp, #173]	; 0xad
    9738:	058d00b1 	streq	r0, [sp, #177]	; 0xb1
    973c:	e3c12003 	bic	r2, r1, #3, 0
    9740:	e1510002 	cmp	r1, r2
    9744:	e28dc099 	add	ip, sp, #153, 0	; 0x99
    9748:	e08c0002 	add	r0, ip, r2
    974c:	e2822001 	add	r2, r2, #1, 0
    9750:	0a000008 	beq	9778 <va_printk+0x320>
    9754:	e3a0e020 	mov	lr, #32, 0
    9758:	e2829001 	add	r9, r2, #1, 0
    975c:	e1550009 	cmp	r5, r9
    9760:	e5c0e000 	strb	lr, [r0]
    9764:	da000003 	ble	9778 <va_printk+0x320>
    9768:	e2822002 	add	r2, r2, #2, 0
    976c:	e1550002 	cmp	r5, r2
    9770:	e5c0e001 	strb	lr, [r0, #1]
    9774:	c5c0e002 	strbgt	lr, [r0, #2]
    9778:	e3a0e000 	mov	lr, #0, 0
    977c:	e28d0098 	add	r0, sp, #152, 0	; 0x98
    9780:	e08c2001 	add	r2, ip, r1
    9784:	e0422000 	sub	r2, r2, r0
    9788:	e352007f 	cmp	r2, #127, 0	; 0x7f
    978c:	c242207f 	subgt	r2, r2, #127, 0	; 0x7f
    9790:	e08c3003 	add	r3, ip, r3
    9794:	c0800002 	addgt	r0, r0, r2
    9798:	e1530000 	cmp	r3, r0
    979c:	e7cce001 	strb	lr, [ip, r1]
    97a0:	3a00006c 	bcc	9958 <va_printk+0x500>
    97a4:	e283c001 	add	ip, r3, #1, 0
    97a8:	e1a0300c 	mov	r3, ip
    97ac:	e28d5018 	add	r5, sp, #24, 0
    97b0:	e2452001 	sub	r2, r5, #1, 0
    97b4:	e5731001 	ldrb	r1, [r3, #-1]!
    97b8:	e1500003 	cmp	r0, r3
    97bc:	e5e21001 	strb	r1, [r2, #1]!
    97c0:	1afffffb 	bne	97b4 <va_printk+0x35c>
    97c4:	e04c3000 	sub	r3, ip, r0
    97c8:	e0853003 	add	r3, r5, r3
    97cc:	ea00003a 	b	98bc <va_printk+0x464>
    97d0:	e28d1098 	add	r1, sp, #152, 0	; 0x98
    97d4:	e1a03001 	mov	r3, r1
    97d8:	e4980004 	ldr	r0, [r8], #4
    97dc:	e200c001 	and	ip, r0, #1, 0
    97e0:	e7dac00c 	ldrb	ip, [sl, ip]
    97e4:	e3500001 	cmp	r0, #1, 0
    97e8:	e1a02003 	mov	r2, r3
    97ec:	e1a000a0 	lsr	r0, r0, #1
    97f0:	e4c3c001 	strb	ip, [r3], #1
    97f4:	8afffff8 	bhi	97dc <va_printk+0x384>
    97f8:	e0430001 	sub	r0, r3, r1
    97fc:	e1550000 	cmp	r5, r0
    9800:	da000057 	ble	9964 <va_printk+0x50c>
    9804:	e045c000 	sub	ip, r5, r0
    9808:	e24ce001 	sub	lr, ip, #1, 0
    980c:	e35e0002 	cmp	lr, #2, 0
    9810:	e1a0e003 	mov	lr, r3
    9814:	9a00000a 	bls	9844 <va_printk+0x3ec>
    9818:	e3cc9003 	bic	r9, ip, #3, 0
    981c:	e0899003 	add	r9, r9, r3
    9820:	e59fb22c 	ldr	fp, [pc, #556]	; 9a54 <va_printk+0x5fc>
    9824:	e48eb004 	str	fp, [lr], #4
    9828:	e15e0009 	cmp	lr, r9
    982c:	1afffffb 	bne	9820 <va_printk+0x3c8>
    9830:	e3cce003 	bic	lr, ip, #3, 0
    9834:	e15e000c 	cmp	lr, ip
    9838:	e080000e 	add	r0, r0, lr
    983c:	e083e00e 	add	lr, r3, lr
    9840:	0a000008 	beq	9868 <va_printk+0x410>
    9844:	e3a09020 	mov	r9, #32, 0
    9848:	e280b001 	add	fp, r0, #1, 0
    984c:	e155000b 	cmp	r5, fp
    9850:	e5ce9000 	strb	r9, [lr]
    9854:	da000003 	ble	9868 <va_printk+0x410>
    9858:	e2800002 	add	r0, r0, #2, 0
    985c:	e1550000 	cmp	r5, r0
    9860:	e5ce9001 	strb	r9, [lr, #1]
    9864:	c5ce9002 	strbgt	r9, [lr, #2]
    9868:	e3a0e000 	mov	lr, #0, 0
    986c:	e083000c 	add	r0, r3, ip
    9870:	e0400001 	sub	r0, r0, r1
    9874:	e350007f 	cmp	r0, #127, 0	; 0x7f
    9878:	e082200c 	add	r2, r2, ip
    987c:	e7c3e00c 	strb	lr, [r3, ip]
    9880:	da000001 	ble	988c <va_printk+0x434>
    9884:	e240007f 	sub	r0, r0, #127, 0	; 0x7f
    9888:	e0811000 	add	r1, r1, r0
    988c:	e1510002 	cmp	r1, r2
    9890:	8a000030 	bhi	9958 <va_printk+0x500>
    9894:	e2822001 	add	r2, r2, #1, 0
    9898:	e1a03002 	mov	r3, r2
    989c:	e28d5018 	add	r5, sp, #24, 0
    98a0:	e245c001 	sub	ip, r5, #1, 0
    98a4:	e5730001 	ldrb	r0, [r3, #-1]!
    98a8:	e1530001 	cmp	r3, r1
    98ac:	e5ec0001 	strb	r0, [ip, #1]!
    98b0:	1afffffb 	bne	98a4 <va_printk+0x44c>
    98b4:	e0423003 	sub	r3, r2, r3
    98b8:	e0853003 	add	r3, r5, r3
    98bc:	e3a02000 	mov	r2, #0, 0
    98c0:	e5c32000 	strb	r2, [r3]
    98c4:	eaffff39 	b	95b0 <va_printk+0x158>
    98c8:	e4985004 	ldr	r5, [r8], #4
    98cc:	eaffff37 	b	95b0 <va_printk+0x158>
    98d0:	e3a02003 	mov	r2, #3, 0
    98d4:	e1a00006 	mov	r0, r6
    98d8:	e59f1168 	ldr	r1, [pc, #360]	; 9a48 <va_printk+0x5f0>
    98dc:	eb0001db 	bl	a050 <strncmp>
    98e0:	e2503000 	subs	r3, r0, #0, 0
    98e4:	1a00004b 	bne	9a18 <va_printk+0x5c0>
    98e8:	e1a06003 	mov	r6, r3
    98ec:	e1a0200b 	mov	r2, fp
    98f0:	e58d3000 	str	r3, [sp]
    98f4:	e28d1018 	add	r1, sp, #24, 0
    98f8:	e1a03005 	mov	r3, r5
    98fc:	e3a0000a 	mov	r0, #10, 0
    9900:	ebfffdf2 	bl	90d0 <emit.constprop.0>
    9904:	e1a0c000 	mov	ip, r0
    9908:	e1a03005 	mov	r3, r5
    990c:	e1a02009 	mov	r2, r9
    9910:	e28d1098 	add	r1, sp, #152, 0	; 0x98
    9914:	e3a0000a 	mov	r0, #10, 0
    9918:	e58d6000 	str	r6, [sp]
    991c:	e1a0500c 	mov	r5, ip
    9920:	ebfffdea 	bl	90d0 <emit.constprop.0>
    9924:	e59f112c 	ldr	r1, [pc, #300]	; 9a58 <va_printk+0x600>
    9928:	e28d0018 	add	r0, sp, #24, 0
    992c:	eb0001b0 	bl	9ff4 <strcmp>
    9930:	e3500000 	cmp	r0, #0, 0
    9934:	e28d1098 	add	r1, sp, #152, 0	; 0x98
    9938:	e28d0018 	add	r0, sp, #24, 0
    993c:	1a000002 	bne	994c <va_printk+0x4f4>
    9940:	eb0001bc 	bl	a038 <strcpy>
    9944:	e59d6014 	ldr	r6, [sp, #20]
    9948:	eaffff18 	b	95b0 <va_printk+0x158>
    994c:	eb00019d 	bl	9fc8 <strcat>
    9950:	e59d6014 	ldr	r6, [sp, #20]
    9954:	eaffff15 	b	95b0 <va_printk+0x158>
    9958:	e28d5018 	add	r5, sp, #24, 0
    995c:	e1a03005 	mov	r3, r5
    9960:	eaffffd5 	b	98bc <va_printk+0x464>
    9964:	e3a0c000 	mov	ip, #0, 0
    9968:	e350007f 	cmp	r0, #127, 0	; 0x7f
    996c:	e5c3c000 	strb	ip, [r3]
    9970:	caffffc3 	bgt	9884 <va_printk+0x42c>
    9974:	eaffffc6 	b	9894 <va_printk+0x43c>
    9978:	e3a02000 	mov	r2, #0, 0
    997c:	e28d3098 	add	r3, sp, #152, 0	; 0x98
    9980:	e1a00003 	mov	r0, r3
    9984:	e5cd2099 	strb	r2, [sp, #153]	; 0x99
    9988:	eaffff85 	b	97a4 <va_printk+0x34c>
    998c:	e3a03000 	mov	r3, #0, 0
    9990:	e1a01002 	mov	r1, r2
    9994:	e5c63001 	strb	r3, [r6, #1]
    9998:	e59f00bc 	ldr	r0, [pc, #188]	; 9a5c <va_printk+0x604>
    999c:	ebfffda7 	bl	9040 <printk>
    99a0:	e59f30b8 	ldr	r3, [pc, #184]	; 9a60 <va_printk+0x608>
    99a4:	e59d0010 	ldr	r0, [sp, #16]
    99a8:	e5933000 	ldr	r3, [r3]
    99ac:	e12fff33 	blx	r3
    99b0:	e3a030e2 	mov	r3, #226, 0	; 0xe2
    99b4:	e59f20a8 	ldr	r2, [pc, #168]	; 9a64 <va_printk+0x60c>
    99b8:	e59f10a8 	ldr	r1, [pc, #168]	; 9a68 <va_printk+0x610>
    99bc:	e59f00a8 	ldr	r0, [pc, #168]	; 9a6c <va_printk+0x614>
    99c0:	ebfffd9e 	bl	9040 <printk>
    99c4:	eb00002e 	bl	9a84 <clean_reboot>
    99c8:	e3a030be 	mov	r3, #190, 0	; 0xbe
    99cc:	e59f2090 	ldr	r2, [pc, #144]	; 9a64 <va_printk+0x60c>
    99d0:	e59f1090 	ldr	r1, [pc, #144]	; 9a68 <va_printk+0x610>
    99d4:	e59f0094 	ldr	r0, [pc, #148]	; 9a70 <va_printk+0x618>
    99d8:	ebfffd98 	bl	9040 <printk>
    99dc:	eb000028 	bl	9a84 <clean_reboot>
    99e0:	e28dc099 	add	ip, sp, #153, 0	; 0x99
    99e4:	e1a0000c 	mov	r0, ip
    99e8:	e3a02001 	mov	r2, #1, 0
    99ec:	eaffff58 	b	9754 <va_printk+0x2fc>
    99f0:	e1a0400b 	mov	r4, fp
    99f4:	eafffee0 	b	957c <va_printk+0x124>
    99f8:	e3a03098 	mov	r3, #152, 0	; 0x98
    99fc:	e59f2070 	ldr	r2, [pc, #112]	; 9a74 <va_printk+0x61c>
    9a00:	e59f1060 	ldr	r1, [pc, #96]	; 9a68 <va_printk+0x610>
    9a04:	e58d2000 	str	r2, [sp]
    9a08:	e59f0068 	ldr	r0, [pc, #104]	; 9a78 <va_printk+0x620>
    9a0c:	e59f2050 	ldr	r2, [pc, #80]	; 9a64 <va_printk+0x60c>
    9a10:	ebfffd8a 	bl	9040 <printk>
    9a14:	eb00001a 	bl	9a84 <clean_reboot>
    9a18:	e3a030b6 	mov	r3, #182, 0	; 0xb6
    9a1c:	e59f2040 	ldr	r2, [pc, #64]	; 9a64 <va_printk+0x60c>
    9a20:	e59f1040 	ldr	r1, [pc, #64]	; 9a68 <va_printk+0x610>
    9a24:	e59f0050 	ldr	r0, [pc, #80]	; 9a7c <va_printk+0x624>
    9a28:	e58d6000 	str	r6, [sp]
    9a2c:	ebfffd83 	bl	9040 <printk>
    9a30:	eb000013 	bl	9a84 <clean_reboot>
    9a34:	e3a0309f 	mov	r3, #159, 0	; 0x9f
    9a38:	e59f2040 	ldr	r2, [pc, #64]	; 9a80 <va_printk+0x628>
    9a3c:	eaffffef 	b	9a00 <va_printk+0x5a8>
    9a40:	0000a554 	andeq	sl, r0, r4, asr r5
    9a44:	0000a578 	andeq	sl, r0, r8, ror r5
    9a48:	0000a58c 	andeq	sl, r0, ip, lsl #11
    9a4c:	0000a57c 	andeq	sl, r0, ip, ror r5
    9a50:	0000a584 	andeq	sl, r0, r4, lsl #11
    9a54:	20202020 	eorcs	r2, r0, r0, lsr #32
    9a58:	0000a420 	andeq	sl, r0, r0, lsr #8
    9a5c:	0000a61c 	andeq	sl, r0, ip, lsl r6
    9a60:	0000a6b8 			; <UNDEFINED> instruction: 0x0000a6b8
    9a64:	0000a684 	andeq	sl, r0, r4, lsl #13
    9a68:	0000a52c 	andeq	sl, r0, ip, lsr #10
    9a6c:	0000a64c 	andeq	sl, r0, ip, asr #12
    9a70:	0000a5f4 	strdeq	sl, [r0], -r4
    9a74:	0000a56c 	andeq	sl, r0, ip, ror #10
    9a78:	0000a0a8 	andeq	sl, r0, r8, lsr #1
    9a7c:	0000a5cc 	andeq	sl, r0, ip, asr #11
    9a80:	0000a590 	muleq	r0, r0, r5

00009a84 <clean_reboot>:
    9a84:	e59f301c 	ldr	r3, [pc, #28]	; 9aa8 <clean_reboot+0x24>
    9a88:	e92d4010 	push	{r4, lr}
    9a8c:	e5933000 	ldr	r3, [r3]
    9a90:	e59f0014 	ldr	r0, [pc, #20]	; 9aac <clean_reboot+0x28>
    9a94:	e12fff33 	blx	r3
    9a98:	eb00012d 	bl	9f54 <uart_flush_tx>
    9a9c:	e3a0000a 	mov	r0, #10, 0
    9aa0:	eb000094 	bl	9cf8 <delay_ms>
    9aa4:	eb00005d 	bl	9c20 <rpi_reboot>
    9aa8:	0000a6b8 			; <UNDEFINED> instruction: 0x0000a6b8
    9aac:	0000a690 	muleq	r0, r0, r6

00009ab0 <_cstart>:
    9ab0:	e92d4070 	push	{r4, r5, r6, lr}
    9ab4:	eb000047 	bl	9bd8 <custom_loader>
    9ab8:	e59f2108 	ldr	r2, [pc, #264]	; 9bc8 <_cstart+0x118>
    9abc:	e59fc108 	ldr	ip, [pc, #264]	; 9bcc <_cstart+0x11c>
    9ac0:	e152000c 	cmp	r2, ip
    9ac4:	2a00002e 	bcs	9b84 <_cstart+0xd4>
    9ac8:	e24c1001 	sub	r1, ip, #1, 0
    9acc:	e0411002 	sub	r1, r1, r2
    9ad0:	e3510017 	cmp	r1, #23, 0
    9ad4:	e1a03122 	lsr	r3, r2, #2
    9ad8:	e1a01121 	lsr	r1, r1, #2
    9adc:	e2811001 	add	r1, r1, #1, 0
    9ae0:	e2033001 	and	r3, r3, #1, 0
    9ae4:	9a000035 	bls	9bc0 <_cstart+0x110>
    9ae8:	e3530000 	cmp	r3, #0, 0
    9aec:	11a00002 	movne	r0, r2
    9af0:	13a0e000 	movne	lr, #0, 0
    9af4:	e3a04000 	mov	r4, #0, 0
    9af8:	e3a05000 	mov	r5, #0, 0
    9afc:	e0411003 	sub	r1, r1, r3
    9b00:	01a00002 	moveq	r0, r2
    9b04:	e0823103 	add	r3, r2, r3, lsl #2
    9b08:	e1a020a1 	lsr	r2, r1, #1
    9b0c:	1480e004 	strne	lr, [r0], #4
    9b10:	e0832182 	add	r2, r3, r2, lsl #3
    9b14:	e0c340f8 	strd	r4, [r3], #8
    9b18:	e1520003 	cmp	r2, r3
    9b1c:	1afffffc 	bne	9b14 <_cstart+0x64>
    9b20:	e3c13001 	bic	r3, r1, #1, 0
    9b24:	e1510003 	cmp	r1, r3
    9b28:	e0803103 	add	r3, r0, r3, lsl #2
    9b2c:	0a000014 	beq	9b84 <_cstart+0xd4>
    9b30:	e1a01003 	mov	r1, r3
    9b34:	e3a02000 	mov	r2, #0, 0
    9b38:	e4812004 	str	r2, [r1], #4
    9b3c:	e151000c 	cmp	r1, ip
    9b40:	2a00000f 	bcs	9b84 <_cstart+0xd4>
    9b44:	e2831008 	add	r1, r3, #8, 0
    9b48:	e151000c 	cmp	r1, ip
    9b4c:	e5832004 	str	r2, [r3, #4]
    9b50:	2a00000b 	bcs	9b84 <_cstart+0xd4>
    9b54:	e283100c 	add	r1, r3, #12, 0
    9b58:	e151000c 	cmp	r1, ip
    9b5c:	e5832008 	str	r2, [r3, #8]
    9b60:	2a000007 	bcs	9b84 <_cstart+0xd4>
    9b64:	e2831010 	add	r1, r3, #16, 0
    9b68:	e151000c 	cmp	r1, ip
    9b6c:	e583200c 	str	r2, [r3, #12]
    9b70:	2a000003 	bcs	9b84 <_cstart+0xd4>
    9b74:	e2831014 	add	r1, r3, #20, 0
    9b78:	e151000c 	cmp	r1, ip
    9b7c:	e5832010 	str	r2, [r3, #16]
    9b80:	35832014 	strcc	r2, [r3, #20]
    9b84:	eb000094 	bl	9ddc <uart_init>
    9b88:	e3a03001 	mov	r3, #1, 0
    9b8c:	ee0f3f1c 	mcr	15, 0, r3, cr15, cr12, {0}
    9b90:	ee1f3f3c 	mrc	15, 0, r3, cr15, cr12, {1}
    9b94:	e59f4034 	ldr	r4, [pc, #52]	; 9bd0 <_cstart+0x120>
    9b98:	e5843000 	str	r3, [r4]
    9b9c:	ebfffa1f 	bl	8420 <notmain>
    9ba0:	ee1f3f3c 	mrc	15, 0, r3, cr15, cr12, {1}
    9ba4:	e5941000 	ldr	r1, [r4]
    9ba8:	e59f0024 	ldr	r0, [pc, #36]	; 9bd4 <_cstart+0x124>
    9bac:	e3510000 	cmp	r1, #0, 0
    9bb0:	10431001 	subne	r1, r3, r1
    9bb4:	e5843000 	str	r3, [r4]
    9bb8:	ebfffd20 	bl	9040 <printk>
    9bbc:	ebffffb0 	bl	9a84 <clean_reboot>
    9bc0:	e1a03002 	mov	r3, r2
    9bc4:	eaffffd9 	b	9b30 <_cstart+0x80>
    9bc8:	0000a6c0 	andeq	sl, r0, r0, asr #13
    9bcc:	0000aac8 	andeq	sl, r0, r8, asr #21
    9bd0:	0000aac4 	andeq	sl, r0, r4, asr #21
    9bd4:	0000a69c 	muleq	r0, ip, r6

00009bd8 <custom_loader>:
    9bd8:	e12fff1e 	bx	lr

00009bdc <dev_barrier>:
    9bdc:	ea000002 	b	9bec <dsb>

00009be0 <dmb>:
    9be0:	e3a00000 	mov	r0, #0, 0
    9be4:	ee070fba 	mcr	15, 0, r0, cr7, cr10, {5}
    9be8:	e12fff1e 	bx	lr

00009bec <dsb>:
    9bec:	ee070f9a 	mcr	15, 0, r0, cr7, cr10, {4}
    9bf0:	e12fff1e 	bx	lr

00009bf4 <at_user_level>:
    9bf4:	e10f0000 	mrs	r0, CPSR
    9bf8:	e200001f 	and	r0, r0, #31, 0
    9bfc:	e2400010 	sub	r0, r0, #16, 0
    9c00:	e16f0f10 	clz	r0, r0
    9c04:	e1a002a0 	lsr	r0, r0, #5
    9c08:	e12fff1e 	bx	lr

00009c0c <set_user_level>:
    9c0c:	e10f3000 	mrs	r3, CPSR
    9c10:	e3c3301f 	bic	r3, r3, #31, 0
    9c14:	e3833010 	orr	r3, r3, #16, 0
    9c18:	e129f003 	msr	CPSR_fc, r3
    9c1c:	e12fff1e 	bx	lr

00009c20 <rpi_reboot>:
    9c20:	e92d4010 	push	{r4, lr}
    9c24:	e10f3000 	mrs	r3, CPSR
    9c28:	e203301f 	and	r3, r3, #31, 0
    9c2c:	e3530010 	cmp	r3, #16, 0
    9c30:	1a000003 	bne	9c44 <rpi_reboot+0x24>
    9c34:	e10f3000 	mrs	r3, CPSR
    9c38:	e3c3301f 	bic	r3, r3, #31, 0
    9c3c:	e3833010 	orr	r3, r3, #16, 0
    9c40:	e129f003 	msr	CPSR_fc, r3
    9c44:	eb00010d 	bl	a080 <reboot_callout>
    9c48:	eb0000c1 	bl	9f54 <uart_flush_tx>
    9c4c:	e3a0000a 	mov	r0, #10, 0
    9c50:	eb000028 	bl	9cf8 <delay_ms>
    9c54:	e59f1014 	ldr	r1, [pc, #20]	; 9c70 <rpi_reboot+0x50>
    9c58:	e59f0014 	ldr	r0, [pc, #20]	; 9c74 <rpi_reboot+0x54>
    9c5c:	ebfff8f0 	bl	8024 <PUT32>
    9c60:	e59f1010 	ldr	r1, [pc, #16]	; 9c78 <rpi_reboot+0x58>
    9c64:	e59f0010 	ldr	r0, [pc, #16]	; 9c7c <rpi_reboot+0x5c>
    9c68:	ebfff8ed 	bl	8024 <PUT32>
    9c6c:	eafffffe 	b	9c6c <rpi_reboot+0x4c>
    9c70:	5a000001 	bpl	9c7c <rpi_reboot+0x5c>
    9c74:	20100024 	andscs	r0, r0, r4, lsr #32
    9c78:	5a000020 	bpl	9d00 <delay_ms+0x8>
    9c7c:	2010001c 	andscs	r0, r0, ip, lsl r0

00009c80 <timer_get_usec_raw>:
    9c80:	e59f0000 	ldr	r0, [pc]	; 9c88 <timer_get_usec_raw+0x8>
    9c84:	eafff8e8 	b	802c <GET32>
    9c88:	20003004 	andcs	r3, r0, r4

00009c8c <timer_get_usec>:
    9c8c:	e92d4010 	push	{r4, lr}
    9c90:	ebffffd1 	bl	9bdc <dev_barrier>
    9c94:	e59f0010 	ldr	r0, [pc, #16]	; 9cac <timer_get_usec+0x20>
    9c98:	ebfff8e3 	bl	802c <GET32>
    9c9c:	e1a04000 	mov	r4, r0
    9ca0:	ebffffcd 	bl	9bdc <dev_barrier>
    9ca4:	e1a00004 	mov	r0, r4
    9ca8:	e8bd8010 	pop	{r4, pc}
    9cac:	20003004 	andcs	r3, r0, r4

00009cb0 <delay_us>:
    9cb0:	e92d41f0 	push	{r4, r5, r6, r7, r8, lr}
    9cb4:	e1a06000 	mov	r6, r0
    9cb8:	ebffffc7 	bl	9bdc <dev_barrier>
    9cbc:	e59f0030 	ldr	r0, [pc, #48]	; 9cf4 <delay_us+0x44>
    9cc0:	ebfff8d9 	bl	802c <GET32>
    9cc4:	e1a05000 	mov	r5, r0
    9cc8:	ebffffc3 	bl	9bdc <dev_barrier>
    9ccc:	e59f7020 	ldr	r7, [pc, #32]	; 9cf4 <delay_us+0x44>
    9cd0:	ebffffc1 	bl	9bdc <dev_barrier>
    9cd4:	e1a00007 	mov	r0, r7
    9cd8:	ebfff8d3 	bl	802c <GET32>
    9cdc:	e1a04000 	mov	r4, r0
    9ce0:	e0444005 	sub	r4, r4, r5
    9ce4:	ebffffbc 	bl	9bdc <dev_barrier>
    9ce8:	e1540006 	cmp	r4, r6
    9cec:	3afffff7 	bcc	9cd0 <delay_us+0x20>
    9cf0:	e8bd81f0 	pop	{r4, r5, r6, r7, r8, pc}
    9cf4:	20003004 	andcs	r3, r0, r4

00009cf8 <delay_ms>:
    9cf8:	e92d41f0 	push	{r4, r5, r6, r7, r8, lr}
    9cfc:	e0604280 	rsb	r4, r0, r0, lsl #5
    9d00:	e0800104 	add	r0, r0, r4, lsl #2
    9d04:	e1a04180 	lsl	r4, r0, #3
    9d08:	ebffffb3 	bl	9bdc <dev_barrier>
    9d0c:	e59f0030 	ldr	r0, [pc, #48]	; 9d44 <delay_ms+0x4c>
    9d10:	ebfff8c5 	bl	802c <GET32>
    9d14:	e1a06000 	mov	r6, r0
    9d18:	ebffffaf 	bl	9bdc <dev_barrier>
    9d1c:	e59f7020 	ldr	r7, [pc, #32]	; 9d44 <delay_ms+0x4c>
    9d20:	ebffffad 	bl	9bdc <dev_barrier>
    9d24:	e1a00007 	mov	r0, r7
    9d28:	ebfff8bf 	bl	802c <GET32>
    9d2c:	e1a05000 	mov	r5, r0
    9d30:	e0455006 	sub	r5, r5, r6
    9d34:	ebffffa8 	bl	9bdc <dev_barrier>
    9d38:	e1540005 	cmp	r4, r5
    9d3c:	8afffff7 	bhi	9d20 <delay_ms+0x28>
    9d40:	e8bd81f0 	pop	{r4, r5, r6, r7, r8, pc}
    9d44:	20003004 	andcs	r3, r0, r4

00009d48 <delay_sec>:
    9d48:	e92d41f0 	push	{r4, r5, r6, r7, r8, lr}
    9d4c:	e0604280 	rsb	r4, r0, r0, lsl #5
    9d50:	e0644304 	rsb	r4, r4, r4, lsl #6
    9d54:	e0800184 	add	r0, r0, r4, lsl #3
    9d58:	e1a04300 	lsl	r4, r0, #6
    9d5c:	ebffff9e 	bl	9bdc <dev_barrier>
    9d60:	e59f0030 	ldr	r0, [pc, #48]	; 9d98 <delay_sec+0x50>
    9d64:	ebfff8b0 	bl	802c <GET32>
    9d68:	e1a06000 	mov	r6, r0
    9d6c:	ebffff9a 	bl	9bdc <dev_barrier>
    9d70:	e59f7020 	ldr	r7, [pc, #32]	; 9d98 <delay_sec+0x50>
    9d74:	ebffff98 	bl	9bdc <dev_barrier>
    9d78:	e1a00007 	mov	r0, r7
    9d7c:	ebfff8aa 	bl	802c <GET32>
    9d80:	e1a05000 	mov	r5, r0
    9d84:	e0455006 	sub	r5, r5, r6
    9d88:	ebffff93 	bl	9bdc <dev_barrier>
    9d8c:	e1540005 	cmp	r4, r5
    9d90:	8afffff7 	bhi	9d74 <delay_sec+0x2c>
    9d94:	e8bd81f0 	pop	{r4, r5, r6, r7, r8, pc}
    9d98:	20003004 	andcs	r3, r0, r4

00009d9c <and_in32>:
    9d9c:	e92d4070 	push	{r4, r5, r6, lr}
    9da0:	e1a04000 	mov	r4, r0
    9da4:	e1a05001 	mov	r5, r1
    9da8:	ebfff89f 	bl	802c <GET32>
    9dac:	e0001005 	and	r1, r0, r5
    9db0:	e1a00004 	mov	r0, r4
    9db4:	ebfff89a 	bl	8024 <PUT32>
    9db8:	e8bd8070 	pop	{r4, r5, r6, pc}

00009dbc <or_in32>:
    9dbc:	e92d4070 	push	{r4, r5, r6, lr}
    9dc0:	e1a04000 	mov	r4, r0
    9dc4:	e1a05001 	mov	r5, r1
    9dc8:	ebfff897 	bl	802c <GET32>
    9dcc:	e1801005 	orr	r1, r0, r5
    9dd0:	e1a00004 	mov	r0, r4
    9dd4:	ebfff892 	bl	8024 <PUT32>
    9dd8:	e8bd8070 	pop	{r4, r5, r6, pc}

00009ddc <uart_init>:
    9ddc:	e92d4010 	push	{r4, lr}
    9de0:	e3a01002 	mov	r1, #2, 0
    9de4:	e3a0000e 	mov	r0, #14, 0
    9de8:	ebfffc2e 	bl	8ea8 <gpio_set_function>
    9dec:	e3a01002 	mov	r1, #2, 0
    9df0:	e3a0000f 	mov	r0, #15, 0
    9df4:	ebfffc2b 	bl	8ea8 <gpio_set_function>
    9df8:	ebffff77 	bl	9bdc <dev_barrier>
    9dfc:	e3a01001 	mov	r1, #1, 0
    9e00:	e59f0064 	ldr	r0, [pc, #100]	; 9e6c <uart_init+0x90>
    9e04:	ebffffec 	bl	9dbc <or_in32>
    9e08:	ebffff73 	bl	9bdc <dev_barrier>
    9e0c:	e59f405c 	ldr	r4, [pc, #92]	; 9e70 <uart_init+0x94>
    9e10:	e3a01000 	mov	r1, #0, 0
    9e14:	e1a00004 	mov	r0, r4
    9e18:	ebfff881 	bl	8024 <PUT32>
    9e1c:	e3a01000 	mov	r1, #0, 0
    9e20:	e59f004c 	ldr	r0, [pc, #76]	; 9e74 <uart_init+0x98>
    9e24:	ebfff87e 	bl	8024 <PUT32>
    9e28:	e3a01003 	mov	r1, #3, 0
    9e2c:	e59f0044 	ldr	r0, [pc, #68]	; 9e78 <uart_init+0x9c>
    9e30:	ebfff87b 	bl	8024 <PUT32>
    9e34:	e3a01000 	mov	r1, #0, 0
    9e38:	e59f003c 	ldr	r0, [pc, #60]	; 9e7c <uart_init+0xa0>
    9e3c:	ebfff878 	bl	8024 <PUT32>
    9e40:	e3a010c7 	mov	r1, #199, 0	; 0xc7
    9e44:	e59f0034 	ldr	r0, [pc, #52]	; 9e80 <uart_init+0xa4>
    9e48:	ebfff875 	bl	8024 <PUT32>
    9e4c:	e59f1030 	ldr	r1, [pc, #48]	; 9e84 <uart_init+0xa8>
    9e50:	e59f0030 	ldr	r0, [pc, #48]	; 9e88 <uart_init+0xac>
    9e54:	ebfff872 	bl	8024 <PUT32>
    9e58:	e3a01003 	mov	r1, #3, 0
    9e5c:	e1a00004 	mov	r0, r4
    9e60:	ebfff86f 	bl	8024 <PUT32>
    9e64:	ebffff5c 	bl	9bdc <dev_barrier>
    9e68:	e8bd8010 	pop	{r4, pc}
    9e6c:	20215004 	eorcs	r5, r1, r4
    9e70:	20215060 	eorcs	r5, r1, r0, rrx
    9e74:	20215044 	eorcs	r5, r1, r4, asr #32
    9e78:	2021504c 	eorcs	r5, r1, ip, asr #32
    9e7c:	20215050 	eorcs	r5, r1, r0, asr r0
    9e80:	20215048 	eorcs	r5, r1, r8, asr #32
    9e84:	0000010e 	andeq	r0, r0, lr, lsl #2
    9e88:	20215068 	eorcs	r5, r1, r8, rrx

00009e8c <uart_can_getc>:
    9e8c:	e92d4010 	push	{r4, lr}
    9e90:	e59f0008 	ldr	r0, [pc, #8]	; 9ea0 <uart_can_getc+0x14>
    9e94:	ebfff864 	bl	802c <GET32>
    9e98:	e2000001 	and	r0, r0, #1, 0
    9e9c:	e8bd8010 	pop	{r4, pc}
    9ea0:	20215064 	eorcs	r5, r1, r4, rrx

00009ea4 <uart_can_putc>:
    9ea4:	e92d4010 	push	{r4, lr}
    9ea8:	e59f0010 	ldr	r0, [pc, #16]	; 9ec0 <uart_can_putc+0x1c>
    9eac:	ebfff85e 	bl	802c <GET32>
    9eb0:	e3100002 	tst	r0, #2, 0
    9eb4:	13a00001 	movne	r0, #1, 0
    9eb8:	03a00000 	moveq	r0, #0, 0
    9ebc:	e8bd8010 	pop	{r4, pc}
    9ec0:	20215064 	eorcs	r5, r1, r4, rrx

00009ec4 <uart_getc>:
    9ec4:	e92d4010 	push	{r4, lr}
    9ec8:	ebffff43 	bl	9bdc <dev_barrier>
    9ecc:	ebffffee 	bl	9e8c <uart_can_getc>
    9ed0:	e3500000 	cmp	r0, #0, 0
    9ed4:	0afffffc 	beq	9ecc <uart_getc+0x8>
    9ed8:	e59f0010 	ldr	r0, [pc, #16]	; 9ef0 <uart_getc+0x2c>
    9edc:	ebfff852 	bl	802c <GET32>
    9ee0:	e6ef4070 	uxtb	r4, r0
    9ee4:	ebffff3c 	bl	9bdc <dev_barrier>
    9ee8:	e1a00004 	mov	r0, r4
    9eec:	e8bd8010 	pop	{r4, pc}
    9ef0:	20215040 	eorcs	r5, r1, r0, asr #32

00009ef4 <uart_putc>:
    9ef4:	e92d4010 	push	{r4, lr}
    9ef8:	e1a04000 	mov	r4, r0
    9efc:	ebffff36 	bl	9bdc <dev_barrier>
    9f00:	ebffffe7 	bl	9ea4 <uart_can_putc>
    9f04:	e3500000 	cmp	r0, #0, 0
    9f08:	0afffffc 	beq	9f00 <uart_putc+0xc>
    9f0c:	e6ef1074 	uxtb	r1, r4
    9f10:	e59f0008 	ldr	r0, [pc, #8]	; 9f20 <uart_putc+0x2c>
    9f14:	ebfff842 	bl	8024 <PUT32>
    9f18:	ebffff2f 	bl	9bdc <dev_barrier>
    9f1c:	e8bd8010 	pop	{r4, pc}
    9f20:	20215040 	eorcs	r5, r1, r0, asr #32

00009f24 <uart_has_data>:
    9f24:	e92d4010 	push	{r4, lr}
    9f28:	ebffff2b 	bl	9bdc <dev_barrier>
    9f2c:	ebffffd6 	bl	9e8c <uart_can_getc>
    9f30:	e8bd8010 	pop	{r4, pc}

00009f34 <uart_tx_is_empty>:
    9f34:	e92d4010 	push	{r4, lr}
    9f38:	ebffff27 	bl	9bdc <dev_barrier>
    9f3c:	e59f000c 	ldr	r0, [pc, #12]	; 9f50 <uart_tx_is_empty+0x1c>
    9f40:	ebfff839 	bl	802c <GET32>
    9f44:	e1a004a0 	lsr	r0, r0, #9
    9f48:	e2000001 	and	r0, r0, #1, 0
    9f4c:	e8bd8010 	pop	{r4, pc}
    9f50:	20215064 	eorcs	r5, r1, r4, rrx

00009f54 <uart_flush_tx>:
    9f54:	e92d4010 	push	{r4, lr}
    9f58:	ebfffff5 	bl	9f34 <uart_tx_is_empty>
    9f5c:	e3500000 	cmp	r0, #0, 0
    9f60:	0afffffc 	beq	9f58 <uart_flush_tx+0x4>
    9f64:	e8bd8010 	pop	{r4, pc}

00009f68 <uart_disable>:
    9f68:	e92d4010 	push	{r4, lr}
    9f6c:	ebfffff8 	bl	9f54 <uart_flush_tx>
    9f70:	ebffff19 	bl	9bdc <dev_barrier>
    9f74:	e3e01001 	mvn	r1, #1, 0
    9f78:	e59f0008 	ldr	r0, [pc, #8]	; 9f88 <uart_disable+0x20>
    9f7c:	ebffff86 	bl	9d9c <and_in32>
    9f80:	ebffff15 	bl	9bdc <dev_barrier>
    9f84:	e8bd8010 	pop	{r4, pc}
    9f88:	20215004 	eorcs	r5, r1, r4

00009f8c <internal_putchar>:
    9f8c:	e92d4010 	push	{r4, lr}
    9f90:	e1a04000 	mov	r4, r0
    9f94:	ebffffd6 	bl	9ef4 <uart_putc>
    9f98:	e1a00004 	mov	r0, r4
    9f9c:	e8bd8010 	pop	{r4, pc}

00009fa0 <rpi_reset_putc>:
    9fa0:	e59f3008 	ldr	r3, [pc, #8]	; 9fb0 <rpi_reset_putc+0x10>
    9fa4:	e59f2008 	ldr	r2, [pc, #8]	; 9fb4 <rpi_reset_putc+0x14>
    9fa8:	e5832000 	str	r2, [r3]
    9fac:	e12fff1e 	bx	lr
    9fb0:	0000a6bc 			; <UNDEFINED> instruction: 0x0000a6bc
    9fb4:	00009f8c 	andeq	r9, r0, ip, lsl #31

00009fb8 <rpi_set_putc>:
    9fb8:	e59f3004 	ldr	r3, [pc, #4]	; 9fc4 <rpi_set_putc+0xc>
    9fbc:	e5830000 	str	r0, [r3]
    9fc0:	e12fff1e 	bx	lr
    9fc4:	0000a6bc 			; <UNDEFINED> instruction: 0x0000a6bc

00009fc8 <strcat>:
    9fc8:	e1a02000 	mov	r2, r0
    9fcc:	e1a03002 	mov	r3, r2
    9fd0:	e4d2c001 	ldrb	ip, [r2], #1
    9fd4:	e35c0000 	cmp	ip, #0, 0
    9fd8:	1afffffb 	bne	9fcc <strcat+0x4>
    9fdc:	e2433001 	sub	r3, r3, #1, 0
    9fe0:	e4d12001 	ldrb	r2, [r1], #1
    9fe4:	e3520000 	cmp	r2, #0, 0
    9fe8:	e5e32001 	strb	r2, [r3, #1]!
    9fec:	1afffffb 	bne	9fe0 <strcat+0x18>
    9ff0:	e12fff1e 	bx	lr

00009ff4 <strcmp>:
    9ff4:	e5d03000 	ldrb	r3, [r0]
    9ff8:	e3530000 	cmp	r3, #0, 0
    9ffc:	05d12000 	ldrbeq	r2, [r1]
    a000:	1a000003 	bne	a014 <strcmp+0x20>
    a004:	ea000006 	b	a024 <strcmp+0x30>
    a008:	e5f03001 	ldrb	r3, [r0, #1]!
    a00c:	e3530000 	cmp	r3, #0, 0
    a010:	0a000005 	beq	a02c <strcmp+0x38>
    a014:	e1a0c001 	mov	ip, r1
    a018:	e4d12001 	ldrb	r2, [r1], #1
    a01c:	e1520003 	cmp	r2, r3
    a020:	0afffff8 	beq	a008 <strcmp+0x14>
    a024:	e0430002 	sub	r0, r3, r2
    a028:	e12fff1e 	bx	lr
    a02c:	e5dc2001 	ldrb	r2, [ip, #1]
    a030:	e0430002 	sub	r0, r3, r2
    a034:	e12fff1e 	bx	lr

0000a038 <strcpy>:
    a038:	e2402001 	sub	r2, r0, #1, 0
    a03c:	e4d13001 	ldrb	r3, [r1], #1
    a040:	e3530000 	cmp	r3, #0, 0
    a044:	e5e23001 	strb	r3, [r2, #1]!
    a048:	1afffffb 	bne	a03c <strcpy+0x4>
    a04c:	e12fff1e 	bx	lr

0000a050 <strncmp>:
    a050:	e0802002 	add	r2, r0, r2
    a054:	ea000003 	b	a068 <strncmp+0x18>
    a058:	e4d03001 	ldrb	r3, [r0], #1
    a05c:	e4d1c001 	ldrb	ip, [r1], #1
    a060:	e153000c 	cmp	r3, ip
    a064:	1a000003 	bne	a078 <strncmp+0x28>
    a068:	e1500002 	cmp	r0, r2
    a06c:	1afffff9 	bne	a058 <strncmp+0x8>
    a070:	e3a00000 	mov	r0, #0, 0
    a074:	e12fff1e 	bx	lr
    a078:	e043000c 	sub	r0, r3, ip
    a07c:	e12fff1e 	bx	lr

0000a080 <reboot_callout>:
    a080:	e12fff1e 	bx	lr

0000a084 <__code_end__>:
    a084:	00000000 	andeq	r0, r0, r0

Disassembly of section .rodata:

0000a088 <__FUNCTION__.4112-0x1b4>:
    a088:	65707865 	ldrbvs	r7, [r0, #-2149]!	; 0xfffff79b
    a08c:	3d207463 	cfstrscc	mvf7, [r0, #-396]!	; 0xfffffe74
    a090:	2c642520 	cfstr64cs	mvdx2, [r4], #-128	; 0xffffff80
    a094:	746f6720 	strbtvc	r6, [pc], #-1824	; a09c <__code_end__+0x18>
    a098:	0a642520 	beq	1913520 <__bss_end__+0x1908a58>
    a09c:	00000000 	andeq	r0, r0, r0
    a0a0:	65636361 	strbvs	r6, [r3, #-865]!	; 0xfffffc9f
    a0a4:	00632e6c 	rsbeq	r2, r3, ip, ror #28
    a0a8:	494e4150 	stmdbmi	lr, {r4, r6, r8, lr}^
    a0ac:	73253a43 			; <UNDEFINED> instruction: 0x73253a43
    a0b0:	3a73253a 	bcc	1cd35a0 <__bss_end__+0x1cc8ad8>
    a0b4:	253a6425 	ldrcs	r6, [sl, #-1061]!	; 0xfffffbdb
    a0b8:	00000a73 	andeq	r0, r0, r3, ror sl
    a0bc:	20695f73 	rsbcs	r5, r9, r3, ror pc
    a0c0:	65203d3d 	strvs	r3, [r0, #-3389]!	; 0xfffff2c3
    a0c4:	63657078 	cmnvs	r5, #120, 0	; 0x78
    a0c8:	00646574 	rsbeq	r6, r4, r4, ror r5
    a0cc:	28207325 	stmdacs	r0!, {r0, r2, r5, r8, r9, ip, sp, lr}
    a0d0:	64253d78 	strtvs	r3, [r5], #-3448	; 0xfffff288
    a0d4:	253d792c 	ldrcs	r7, [sp, #-2348]!	; 0xfffff6d4
    a0d8:	3d7a2c64 	ldclcc	12, cr2, [sl, #-400]!	; 0xfffffe70
    a0dc:	0a296425 	beq	a63178 <__bss_end__+0xa586b0>
    a0e0:	00000000 	andeq	r0, r0, r0
    a0e4:	494e4150 	stmdbmi	lr, {r4, r6, r8, lr}^
    a0e8:	73253a43 			; <UNDEFINED> instruction: 0x73253a43
    a0ec:	3a73253a 	bcc	1cd35dc <__bss_end__+0x1cc8b14>
    a0f0:	693a6425 	ldmdbvs	sl!, {r0, r2, r5, sl, sp, lr}
    a0f4:	6c61766e 	stclvs	6, cr7, [r1], #-440	; 0xfffffe48
    a0f8:	67206469 	strvs	r6, [r0, -r9, ror #8]!
    a0fc:	0a62253d 	beq	18935f8 <__bss_end__+0x1888b30>
    a100:	0000000a 	andeq	r0, r0, sl
    a104:	6573552f 	ldrbvs	r5, [r3, #-1327]!	; 0xfffffad1
    a108:	6d2f7372 	stcvs	3, cr7, [pc, #-456]!	; 9f48 <uart_tx_is_empty+0x14>
    a10c:	73656c69 	cmnvc	r5, #26880	; 0x6900
    a110:	756f532f 	strbvc	r5, [pc, #-815]!	; 9de9 <uart_init+0xd>
    a114:	2f656372 	svccs	0x00656372
    a118:	34327363 	ldrtcc	r7, [r2], #-867	; 0xfffffc9d
    a11c:	2f786c30 	svccs	0x00786c30
    a120:	7062696c 	rsbvc	r6, r2, ip, ror #18
    a124:	6e692f69 	cdpvs	15, 6, cr2, cr9, cr9, {3}
    a128:	64756c63 	ldrbtvs	r6, [r5], #-3171	; 0xfffff39d
    a12c:	69622f65 	stmdbvs	r2!, {r0, r2, r5, r6, r8, r9, sl, fp, sp}^
    a130:	75732d74 	ldrbvc	r2, [r3, #-3444]!	; 0xfffff28c
    a134:	726f7070 	rsbvc	r7, pc, #112, 0	; 0x70
    a138:	00682e74 	rsbeq	r2, r8, r4, ror lr
    a13c:	74696228 	strbtvc	r6, [r9], #-552	; 0xfffffdd8
    a140:	616d5f73 	smcvs	54771	; 0xd5f3
    a144:	6e286b73 	vmovvs.16	d8[3], r6
    a148:	20262029 	eorcs	r2, r6, r9, lsr #32
    a14c:	3d202976 			; <UNDEFINED> instruction: 0x3d202976
    a150:	0076203d 	rsbseq	r2, r6, sp, lsr r0
    a154:	65636361 	strbvs	r6, [r3, #-865]!	; 0xfffffc9f
    a158:	6f635f6c 	svcvs	0x00635f6c
    a15c:	6769666e 	strbvs	r6, [r9, -lr, ror #12]!
    a160:	6765725f 			; <UNDEFINED> instruction: 0x6765725f
    a164:	0a62253d 	beq	1893660 <__bss_end__+0x1888b98>
    a168:	00000000 	andeq	r0, r0, r0
    a16c:	65636361 	strbvs	r6, [r3, #-865]!	; 0xfffffc9f
    a170:	6f635f6c 	svcvs	0x00635f6c
    a174:	6769666e 	strbvs	r6, [r9, -lr, ror #12]!
    a178:	6765725f 			; <UNDEFINED> instruction: 0x6765725f
    a17c:	62253d32 	eorvs	r3, r5, #3200	; 0xc80
    a180:	0000000a 	andeq	r0, r0, sl
    a184:	494e4150 	stmdbmi	lr, {r4, r6, r8, lr}^
    a188:	73253a43 			; <UNDEFINED> instruction: 0x73253a43
    a18c:	3a73253a 	bcc	1cd367c <__bss_end__+0x1cc8bb4>
    a190:	493a6425 	ldmdbmi	sl!, {r0, r2, r5, sl, sp, lr}
    a194:	6974696e 	ldmdbvs	r4!, {r1, r2, r3, r5, r6, r8, fp, sp, lr}^
    a198:	70206c61 	eorvc	r6, r0, r1, ror #24
    a19c:	65626f72 	strbvs	r6, [r2, #-3954]!	; 0xfffff08e
    a1a0:	69616620 	stmdbvs	r1!, {r5, r9, sl, sp, lr}^
    a1a4:	3a64656c 	bcc	192375c <__bss_end__+0x1918c94>
    a1a8:	70786520 	rsbsvc	r6, r8, r0, lsr #10
    a1ac:	65746365 	ldrbvs	r6, [r4, #-869]!	; 0xfffffc9b
    a1b0:	62252064 	eorvs	r2, r5, #100, 0	; 0x64
    a1b4:	20726f20 	rsbscs	r6, r2, r0, lsr #30
    a1b8:	202c6225 	eorcs	r6, ip, r5, lsr #4
    a1bc:	20746f67 	rsbscs	r6, r4, r7, ror #30
    a1c0:	0a0a6225 	beq	2a2a5c <__bss_end__+0x297f94>
    a1c4:	00000000 	andeq	r0, r0, r0
    a1c8:	43435553 	movtmi	r5, #13651	; 0x3553
    a1cc:	3a535345 	bcc	14deee8 <__bss_end__+0x14d4420>
    a1d0:	75706d20 	ldrbvc	r6, [r0, #-3360]!	; 0xfffff2e0
    a1d4:	3035362d 	eorscc	r3, r5, sp, lsr #12
    a1d8:	63612030 	cmnvs	r1, #48, 0	; 0x30
    a1dc:	776f6e6b 	strbvc	r6, [pc, -fp, ror #28]!
    a1e0:	6764656c 	strbvs	r6, [r4, -ip, ror #10]!
    a1e4:	6f206465 	svcvs	0x00206465
    a1e8:	70207275 	eorvc	r7, r0, r5, ror r2
    a1ec:	3a676e69 	bcc	19e5b98 <__bss_end__+0x19db0d0>
    a1f0:	4f485720 	svcmi	0x00485720
    a1f4:	5f4d415f 	svcpl	0x004d415f
    a1f8:	62253d49 	eorvs	r3, r5, #4672	; 0x1240
    a1fc:	000a2121 	andeq	r2, sl, r1, lsr #2
    a200:	3d672e68 	stclcc	14, cr2, [r7, #-416]!	; 0xfffffe60
    a204:	0000323d 	andeq	r3, r0, sp, lsr r2
    a208:	64616572 	strbtvs	r6, [r1], #-1394	; 0xfffffa8e
    a20c:	20676e69 	rsbcs	r6, r7, r9, ror #28
    a210:	000a6425 	andeq	r6, sl, r5, lsr #8
    a214:	77617209 	strbvc	r7, [r1, -r9, lsl #4]!
    a218:	00000000 	andeq	r0, r0, r0
    a21c:	61637309 	cmnvs	r3, r9, lsl #6
    a220:	2064656c 	rsbcs	r6, r4, ip, ror #10
    a224:	6c696d28 	stclvs	13, cr6, [r9], #-160	; 0xffffff60
    a228:	6167696c 	cmnvs	r7, ip, ror #18
    a22c:	203a7375 	eorscs	r7, sl, r5, ror r3
    a230:	30303031 	eorscc	r3, r0, r1, lsr r0
    a234:	2967313d 	stmdbcs	r7!, {r0, r2, r3, r4, r5, r8, ip, sp}^
    a238:	00000000 	andeq	r0, r0, r0

0000a23c <__FUNCTION__.4112>:
    a23c:	74736574 	ldrbtvc	r6, [r3], #-1396	; 0xfffffa8c
    a240:	00676d5f 	rsbeq	r6, r7, pc, asr sp

0000a244 <__FUNCTION__.4145>:
    a244:	3675706d 	ldrbtcc	r7, [r5], -sp, rrx
    a248:	5f303035 	svcpl	0x00303035
    a24c:	65636361 	strbvs	r6, [r3, #-865]!	; 0xfffffc9f
    a250:	6e695f6c 	cdpvs	15, 6, cr5, cr9, cr12, {3}
    a254:	00007469 	andeq	r7, r0, r9, ror #8

0000a258 <__FUNCTION__.4000>:
    a258:	73746962 	cmnvc	r4, #1605632	; 0x188000
    a25c:	7465735f 	strbtvc	r7, [r5], #-863	; 0xfffffca1
    a260:	00000000 	andeq	r0, r0, r0

0000a264 <__FUNCTION__.4171>:
    a264:	6d746f6e 	ldclvs	15, cr6, [r4, #-440]!	; 0xfffffe48
    a268:	006e6961 	rsbeq	r6, lr, r1, ror #18
    a26c:	2e633269 	cdpcs	2, 6, cr3, cr3, cr9, {3}
    a270:	00000063 	andeq	r0, r0, r3, rrx
    a274:	494e4150 	stmdbmi	lr, {r4, r6, r8, lr}^
    a278:	73253a43 			; <UNDEFINED> instruction: 0x73253a43
    a27c:	3a73253a 	bcc	1cd376c <__bss_end__+0x1cc8ca4>
    a280:	6f3a6425 	svcvs	0x003a6425
    a284:	65736666 	ldrbvs	r6, [r3, #-1638]!	; 0xfffff99a
    a288:	72772074 	rsbsvc	r2, r7, #116, 0	; 0x74
    a28c:	3a676e6f 	bcc	19e5c50 <__bss_end__+0x19db188>
    a290:	70786520 	rsbsvc	r6, r8, r0, lsr #10
    a294:	20746365 	rsbscs	r6, r4, r5, ror #6
    a298:	67207825 	strvs	r7, [r0, -r5, lsr #16]!
    a29c:	2520746f 	strcs	r7, [r0, #-1135]!	; 0xfffffb91
    a2a0:	73252078 			; <UNDEFINED> instruction: 0x73252078
    a2a4:	666f5b20 	strbtvs	r5, [pc], -r0, lsr #22
    a2a8:	64253d66 	strtvs	r3, [r5], #-3430	; 0xfffff29a
    a2ac:	69626e2c 	stmdbvs	r2!, {r2, r3, r5, r9, sl, fp, sp, lr}^
    a2b0:	253d7374 	ldrcs	r7, [sp, #-884]!	; 0xfffffc8c
    a2b4:	0a0a5d64 	beq	2a184c <__bss_end__+0x296d84>
    a2b8:	00000000 	andeq	r0, r0, r0
    a2bc:	64616572 	strbtvs	r6, [r1], #-1394	; 0xfffffa8e
    a2c0:	00000000 	andeq	r0, r0, r0
    a2c4:	61656c63 	cmnvs	r5, r3, ror #24
    a2c8:	00000072 	andeq	r0, r0, r2, ror r0
    a2cc:	494e4150 	stmdbmi	lr, {r4, r6, r8, lr}^
    a2d0:	73253a43 			; <UNDEFINED> instruction: 0x73253a43
    a2d4:	3a73253a 	bcc	1cd37c4 <__bss_end__+0x1cc8cfc>
    a2d8:	773a6425 	ldrvc	r6, [sl, -r5, lsr #8]!
    a2dc:	68746469 	ldmdavs	r4!, {r0, r3, r5, r6, sl, sp, lr}^
    a2e0:	6f727720 	svcvs	0x00727720
    a2e4:	203a676e 	eorscs	r6, sl, lr, ror #14
    a2e8:	65707865 	ldrbvs	r7, [r0, #-2149]!	; 0xfffff79b
    a2ec:	25207463 	strcs	r7, [r0, #-1123]!	; 0xfffffb9d
    a2f0:	6f672078 	svcvs	0x00672078
    a2f4:	78252074 	stmdavc	r5!, {r2, r4, r5, r6, sp}
    a2f8:	20732520 	rsbscs	r2, r3, r0, lsr #10
    a2fc:	66666f5b 	uqsaxvs	r6, r6, fp
    a300:	2c64253d 	cfstr64cs	mvdx2, [r4], #-244	; 0xffffff0c
    a304:	7469626e 	strbtvc	r6, [r9], #-622	; 0xfffffd92
    a308:	64253d73 	strtvs	r3, [r5], #-3443	; 0xfffff28d
    a30c:	000a0a5d 	andeq	r0, sl, sp, asr sl
    a310:	00007473 	andeq	r7, r0, r3, ror r4
    a314:	64746e69 	ldrbtvs	r6, [r4], #-3689	; 0xfffff197
    a318:	00000000 	andeq	r0, r0, r0
    a31c:	74746e69 	ldrbtvc	r6, [r4], #-3689	; 0xfffff197
    a320:	00000000 	andeq	r0, r0, r0
    a324:	72746e69 	rsbsvc	r6, r4, #1680	; 0x690
    a328:	00000000 	andeq	r0, r0, r0
    a32c:	65633269 	strbvs	r3, [r3, #-617]!	; 0xfffffd97
    a330:	0000006e 	andeq	r0, r0, lr, rrx
    a334:	00006174 	andeq	r6, r0, r4, ror r1
    a338:	656e6f64 	strbvs	r6, [lr, #-3940]!	; 0xfffff09c
    a33c:	00000000 	andeq	r0, r0, r0
    a340:	00777874 	rsbseq	r7, r7, r4, ror r8
    a344:	00727872 	rsbseq	r7, r2, r2, ror r8
    a348:	00647874 	rsbeq	r7, r4, r4, ror r8
    a34c:	00647872 	rsbeq	r7, r4, r2, ror r8
    a350:	00657874 	rsbeq	r7, r5, r4, ror r8
    a354:	00667872 	rsbeq	r7, r6, r2, ror r8
    a358:	00727265 	rsbseq	r7, r2, r5, ror #4
    a35c:	746b6c63 	strbtvc	r6, [fp], #-3171	; 0xfffff39d
    a360:	0000006b 	andeq	r0, r0, fp, rrx
    a364:	494e4150 	stmdbmi	lr, {r4, r6, r8, lr}^
    a368:	73253a43 			; <UNDEFINED> instruction: 0x73253a43
    a36c:	3a73253a 	bcc	1cd385c <__bss_end__+0x1cc8d94>
    a370:	693a6425 	ldmdbvs	sl!, {r0, r2, r5, sl, sp, lr}
    a374:	73206332 			; <UNDEFINED> instruction: 0x73206332
    a378:	6576616c 	ldrbvs	r6, [r6, #-364]!	; 0xfffffe94
    a37c:	6b636120 	blvs	18e2804 <__bss_end__+0x18d7d3c>
    a380:	72726520 	rsbsvc	r6, r2, #32, 10	; 0x8000000
    a384:	000a726f 	andeq	r7, sl, pc, ror #4
    a388:	494e4150 	stmdbmi	lr, {r4, r6, r8, lr}^
    a38c:	73253a43 			; <UNDEFINED> instruction: 0x73253a43
    a390:	3a73253a 	bcc	1cd3880 <__bss_end__+0x1cc8db8>
    a394:	693a6425 	ldmdbvs	sl!, {r0, r2, r5, sl, sp, lr}
    a398:	73206332 			; <UNDEFINED> instruction: 0x73206332
    a39c:	6576616c 	ldrbvs	r6, [r6, #-364]!	; 0xfffffe94
    a3a0:	6c656820 	stclvs	8, cr6, [r5], #-128	; 0xffffff80
    a3a4:	696c2064 	stmdbvs	ip!, {r2, r5, r6, sp}^
    a3a8:	7420656e 	strtvc	r6, [r0], #-1390	; 0xfffffa92
    a3ac:	6c206f6f 	stcvs	15, cr6, [r0], #-444	; 0xfffffe44
    a3b0:	0a676e6f 	beq	19e5d74 <__bss_end__+0x19db2ac>
    a3b4:	00000000 	andeq	r0, r0, r0
    a3b8:	2d633269 	sfmcs	f3, 2, [r3, #-420]!	; 0xfffffe5c
    a3bc:	6174733e 	cmnvs	r4, lr, lsr r3
    a3c0:	2e737574 	mrccs	5, 3, r7, cr3, cr4, {3}
    a3c4:	3d206174 	stfccs	f6, [r0, #-464]!	; 0xfffffe30
    a3c8:	0030203d 	eorseq	r2, r0, sp, lsr r0
    a3cc:	63326921 	teqvs	r2, #540672	; 0x84000
    a3d0:	74733e2d 	ldrbtvc	r3, [r3], #-3629	; 0xfffff1d3
    a3d4:	73757461 	cmnvc	r5, #1627389952	; 0x61000000
    a3d8:	7272652e 	rsbsvc	r6, r2, #192937984	; 0xb800000
    a3dc:	00000000 	andeq	r0, r0, r0
    a3e0:	2d633269 	sfmcs	f3, 2, [r3, #-420]!	; 0xfffffe5c
    a3e4:	6174733e 	cmnvs	r4, lr, lsr r3
    a3e8:	2e737574 	mrccs	5, 3, r7, cr3, cr4, {3}
    a3ec:	20657874 	rsbcs	r7, r5, r4, ror r8
    a3f0:	31203d3d 			; <UNDEFINED> instruction: 0x31203d3d
    a3f4:	00000000 	andeq	r0, r0, r0
    a3f8:	64612828 	strbtvs	r2, [r1], #-2088	; 0xfffff7d8
    a3fc:	20297264 	eorcs	r7, r9, r4, ror #4
    a400:	37203e3e 			; <UNDEFINED> instruction: 0x37203e3e
    a404:	3d3d2029 	ldccc	0, cr2, [sp, #-164]!	; 0xffffff5c
    a408:	00003020 	andeq	r3, r0, r0, lsr #32
    a40c:	626e2828 	rsbvs	r2, lr, #40, 16	; 0x280000
    a410:	73657479 	cmnvc	r5, #2030043136	; 0x79000000
    a414:	3e3e2029 	cdpcc	0, 3, cr2, cr14, cr9, {1}
    a418:	29363120 	ldmdbcs	r6!, {r5, r8, ip, sp}
    a41c:	203d3d20 	eorscs	r3, sp, r0, lsr #26
    a420:	00000030 	andeq	r0, r0, r0, lsr r0
    a424:	72646461 	rsbvc	r6, r4, #1627389952	; 0x61000000
    a428:	20782520 	rsbscs	r2, r8, r0, lsr #10
    a42c:	6d656573 	cfstr64vs	mvdx6, [r5, #-460]!	; 0xfffffe34
    a430:	6f742073 	svcvs	0x00742073
    a434:	726f7720 	rsbvc	r7, pc, #32, 14	; 0x800000
    a438:	67203a6b 	strvs	r3, [r0, -fp, ror #20]!
    a43c:	676e696f 	strbvs	r6, [lr, -pc, ror #18]!
    a440:	206f7420 	rsbcs	r7, pc, r0, lsr #8
    a444:	72656678 	rsbvc	r6, r5, #120, 12	; 0x7800000
    a448:	646e6520 	strbtvs	r6, [lr], #-1312	; 0xfffffae0
    a44c:	0000000a 	andeq	r0, r0, sl
    a450:	20633269 	rsbcs	r3, r3, r9, ror #4
    a454:	76616c73 			; <UNDEFINED> instruction: 0x76616c73
    a458:	63612065 	cmnvs	r1, #101, 0	; 0x65
    a45c:	7265206b 	rsbvc	r2, r5, #107, 0	; 0x6b
    a460:	3a726f72 	bcc	1ca6230 <__bss_end__+0x1c9b768>
    a464:	0a782520 	beq	1e138ec <__bss_end__+0x1e08e24>
    a468:	00000000 	andeq	r0, r0, r0
    a46c:	494e4150 	stmdbmi	lr, {r4, r6, r8, lr}^
    a470:	73253a43 			; <UNDEFINED> instruction: 0x73253a43
    a474:	3a73253a 	bcc	1cd3964 <__bss_end__+0x1cc8e9c>
    a478:	693a6425 	ldmdbvs	sl!, {r0, r2, r5, sl, sp, lr}
    a47c:	73206332 			; <UNDEFINED> instruction: 0x73206332
    a480:	6576616c 	ldrbvs	r6, [r6, #-364]!	; 0xfffffe94
    a484:	6c656820 	stclvs	8, cr6, [r5], #-128	; 0xffffff80
    a488:	696c2064 	stmdbvs	ip!, {r2, r5, r6, sp}^
    a48c:	7420656e 	strtvc	r6, [r0], #-1390	; 0xfffffa92
    a490:	6c206f6f 	stcvs	15, cr6, [r0], #-444	; 0xfffffe44
    a494:	0a676e6f 	beq	19e5e58 <__bss_end__+0x19db390>
    a498:	0000000a 	andeq	r0, r0, sl
    a49c:	494e4150 	stmdbmi	lr, {r4, r6, r8, lr}^
    a4a0:	73253a43 			; <UNDEFINED> instruction: 0x73253a43
    a4a4:	3a73253a 	bcc	1cd3994 <__bss_end__+0x1cc8ecc>
    a4a8:	6e3a6425 	cdpvs	4, 3, cr6, cr10, cr5, {1}
    a4ac:	6461206f 	strbtvs	r2, [r1], #-111	; 0xffffff91
    a4b0:	77207264 	strvc	r7, [r0, -r4, ror #4]!
    a4b4:	656b726f 	strbvs	r7, [fp, #-623]!	; 0xfffffd91
    a4b8:	000a0a64 	andeq	r0, sl, r4, ror #20

0000a4bc <__FUNCTION__.4178>:
    a4bc:	63656863 	cmnvs	r5, #6488064	; 0x630000
    a4c0:	616c5f6b 	cmnvs	ip, fp, ror #30
    a4c4:	74756f79 	ldrbtvc	r6, [r5], #-3961	; 0xfffff087
    a4c8:	00000000 	andeq	r0, r0, r0

0000a4cc <__FUNCTION__.4044>:
    a4cc:	72656678 	rsbvc	r6, r5, #120, 12	; 0x7800000
    a4d0:	646e655f 	strbtvs	r6, [lr], #-1375	; 0xfffffaa1
    a4d4:	00000000 	andeq	r0, r0, r0

0000a4d8 <__FUNCTION__.4023>:
    a4d8:	72656678 	rsbvc	r6, r5, #120, 12	; 0x7800000
    a4dc:	6174735f 	cmnvs	r4, pc, asr r3
    a4e0:	00007472 	andeq	r7, r0, r2, ror r4

0000a4e4 <__FUNCTION__.4079>:
    a4e4:	72656678 	rsbvc	r6, r5, #120, 12	; 0x7800000
    a4e8:	6174735f 	cmnvs	r4, pc, asr r3
    a4ec:	685f7472 	ldmdavs	pc, {r1, r4, r5, r6, sl, ip, sp, lr}^	; <UNPREDICTABLE>
    a4f0:	006b6361 	rsbeq	r6, fp, r1, ror #6

0000a4f4 <__FUNCTION__.4054>:
    a4f4:	5f633269 	svcpl	0x00633269
    a4f8:	74697277 	strbtvc	r7, [r9], #-631	; 0xfffffd89
    a4fc:	00000065 	andeq	r0, r0, r5, rrx

0000a500 <__FUNCTION__.4067>:
    a500:	5f633269 	svcpl	0x00633269
    a504:	64616572 	strbtvs	r6, [r1], #-1394	; 0xfffffa8e
    a508:	00000000 	andeq	r0, r0, r0

0000a50c <__FUNCTION__.4102>:
    a50c:	5f633269 	svcpl	0x00633269
    a510:	63736964 	cmnvs	r3, #100, 18	; 0x190000
    a514:	7265766f 	rsbvc	r7, r5, #116391936	; 0x6f00000
    a518:	6464615f 	strbtvs	r6, [r4], #-351	; 0xfffffea1
    a51c:	00000072 	andeq	r0, r0, r2, ror r0

0000a520 <__FUNCTION__.4149>:
    a520:	5f633269 	svcpl	0x00633269
    a524:	74696e69 	strbtvc	r6, [r9], #-3689	; 0xfffff197
    a528:	00000000 	andeq	r0, r0, r0
    a52c:	696c2f2e 	stmdbvs	ip!, {r1, r2, r3, r5, r8, r9, sl, fp, sp}^
    a530:	762f6362 	strtvc	r6, [pc], -r2, ror #6
    a534:	72702d61 	rsbsvc	r2, r0, #6208	; 0x1840
    a538:	6b746e69 	blvs	1d25ee4 <__bss_end__+0x1d1b41c>
    a53c:	0000632e 	andeq	r6, r0, lr, lsr #6
    a540:	33323130 	teqcc	r2, #12
    a544:	37363534 			; <UNDEFINED> instruction: 0x37363534
    a548:	62613938 	rsbvs	r3, r1, #56, 18	; 0xe0000
    a54c:	66656463 	strbtvs	r6, [r5], -r3, ror #8
    a550:	00000000 	andeq	r0, r0, r0
    a554:	00003130 	andeq	r3, r0, r0, lsr r1
    a558:	33323130 	teqcc	r2, #12
    a55c:	37363534 			; <UNDEFINED> instruction: 0x37363534
    a560:	00003938 	andeq	r3, r0, r8, lsr r9
    a564:	63747570 	cmnvs	r4, #112, 10	; 0x1c000000
    a568:	0070665f 	rsbseq	r6, r0, pc, asr r6
    a56c:	74646977 	strbtvc	r6, [r4], #-2423	; 0xfffff689
    a570:	203c2068 	eorscs	r2, ip, r8, rrx
    a574:	00003233 	andeq	r3, r0, r3, lsr r2
    a578:	00786c6c 	rsbseq	r6, r8, ip, ror #24
    a57c:	253d3078 	ldrcs	r3, [sp, #-120]!	; 0xffffff88
    a580:	00000a78 	andeq	r0, r0, r8, ror sl
    a584:	253d3178 	ldrcs	r3, [sp, #-376]!	; 0xfffffe88
    a588:	00000a78 	andeq	r0, r0, r8, ror sl
    a58c:	00646c6c 	rsbeq	r6, r4, ip, ror #24
    a590:	6e727473 	mrcvs	4, 3, r7, cr2, cr3, {3}
    a594:	28706d63 	ldmdacs	r0!, {r0, r1, r5, r6, r8, sl, fp, sp, lr}^
    a598:	202c7974 	eorcs	r7, ip, r4, ror r9
    a59c:	786c6c22 	stmdavc	ip!, {r1, r5, sl, fp, sp, lr}^
    a5a0:	33202c22 			; <UNDEFINED> instruction: 0x33202c22
    a5a4:	3d3d2029 	ldccc	0, cr2, [sp, #-164]!	; 0xffffff5c
    a5a8:	7c203020 	stcvc	0, cr3, [r0], #-128	; 0xffffff80
    a5ac:	7473207c 	ldrbtvc	r2, [r3], #-124	; 0xffffff84
    a5b0:	6d636e72 	stclvs	14, cr6, [r3, #-456]!	; 0xfffffe38
    a5b4:	79742870 	ldmdbvc	r4!, {r4, r5, r6, fp, sp}^
    a5b8:	6c22202c 	stcvs	0, cr2, [r2], #-176	; 0xffffff50
    a5bc:	2c22646c 	cfstrscs	mvf6, [r2], #-432	; 0xfffffe50
    a5c0:	20293320 	eorcs	r3, r9, r0, lsr #6
    a5c4:	30203d3d 	eorcc	r3, r0, sp, lsr sp
    a5c8:	00000000 	andeq	r0, r0, r0
    a5cc:	494e4150 	stmdbmi	lr, {r4, r6, r8, lr}^
    a5d0:	73253a43 			; <UNDEFINED> instruction: 0x73253a43
    a5d4:	3a73253a 	bcc	1cd3ac4 <__bss_end__+0x1cc8ffc>
    a5d8:	693a6425 	ldmdbvs	sl!, {r0, r2, r5, sl, sp, lr}
    a5dc:	736f706d 	cmnvc	pc, #109, 0	; 0x6d
    a5e0:	6c626973 			; <UNDEFINED> instruction: 0x6c626973
    a5e4:	66203a65 	strtvs	r3, [r0], -r5, ror #20
    a5e8:	3c3d746d 	cfldrscc	mvf7, [sp], #-436	; 0xfffffe4c
    a5ec:	0a3e7325 	beq	fa7288 <__bss_end__+0xf9c7c0>
    a5f0:	0000000a 	andeq	r0, r0, sl
    a5f4:	494e4150 	stmdbmi	lr, {r4, r6, r8, lr}^
    a5f8:	73253a43 			; <UNDEFINED> instruction: 0x73253a43
    a5fc:	3a73253a 	bcc	1cd3aec <__bss_end__+0x1cc9024>
    a600:	663a6425 	ldrtvs	r6, [sl], -r5, lsr #8
    a604:	74616f6c 	strbtvc	r6, [r1], #-3948	; 0xfffff094
    a608:	746f6e20 	strbtvc	r6, [pc], #-3616	; a610 <__FUNCTION__.4149+0xf0>
    a60c:	616e6520 	cmnvs	lr, r0, lsr #10
    a610:	64656c62 	strbtvs	r6, [r5], #-3170	; 0xfffff39e
    a614:	0a212121 	beq	852aa0 <__bss_end__+0x847fd8>
    a618:	00000000 	andeq	r0, r0, r0
    a61c:	6e697270 	mcrvs	2, 3, r7, cr9, cr0, {3}
    a620:	203a6b74 	eorscs	r6, sl, r4, ror fp
    a624:	20746f6e 	rsbscs	r6, r4, lr, ror #30
    a628:	646e6168 	strbtvs	r6, [lr], #-360	; 0xfffffe98
    a62c:	676e696c 	strbvs	r6, [lr, -ip, ror #18]!
    a630:	65707320 	ldrbvs	r7, [r0, #-800]!	; 0xfffffce0
    a634:	69666963 	stmdbvs	r6!, {r0, r1, r5, r6, r8, fp, sp, lr}^
    a638:	27207265 	strcs	r7, [r0, -r5, ror #4]!
    a63c:	20276325 	eorcs	r6, r7, r5, lsr #6
    a640:	63736128 	cmnvs	r3, #10
    a644:	253d6969 	ldrcs	r6, [sp, #-2409]!	; 0xfffff697
    a648:	000a2964 	andeq	r2, sl, r4, ror #18
    a64c:	494e4150 	stmdbmi	lr, {r4, r6, r8, lr}^
    a650:	73253a43 			; <UNDEFINED> instruction: 0x73253a43
    a654:	3a73253a 	bcc	1cd3b44 <__bss_end__+0x1cc907c>
    a658:	703a6425 	eorsvc	r6, sl, r5, lsr #8
    a65c:	746e6972 	strbtvc	r6, [lr], #-2418	; 0xfffff68e
    a660:	7265206b 	rsbvc	r2, r5, #107, 0	; 0x6b
    a664:	0a726f72 	beq	1ca6434 <__bss_end__+0x1c9b96c>
    a668:	0000000a 	andeq	r0, r0, sl

0000a66c <__FUNCTION__.4008>:
    a66c:	74696d65 	strbtvc	r6, [r9], #-3429	; 0xfffff29b
    a670:	00000000 	andeq	r0, r0, r0

0000a674 <__FUNCTION__.3956>:
    a674:	5f697072 	svcpl	0x00697072
    a678:	5f746573 	svcpl	0x00746573
    a67c:	7074756f 	rsbsvc	r7, r4, pc, ror #10
    a680:	00007475 	andeq	r7, r0, r5, ror r4

0000a684 <__FUNCTION__.4034>:
    a684:	705f6176 	subsvc	r6, pc, r6, ror r1	; <UNPREDICTABLE>
    a688:	746e6972 	strbtvc	r6, [lr], #-2418	; 0xfffff68e
    a68c:	0000006b 	andeq	r0, r0, fp, rrx
    a690:	454e4f44 	strbmi	r4, [lr, #-3908]	; 0xfffff0bc
    a694:	0a212121 	beq	852b20 <__bss_end__+0x848058>
    a698:	00000000 	andeq	r0, r0, r0
    a69c:	6e75525b 	mrcvs	2, 3, r5, cr5, cr11, {2}
    a6a0:	676e696e 	strbvs	r6, [lr, -lr, ror #18]!
    a6a4:	6f6f7420 	svcvs	0x006f7420
    a6a8:	6425206b 	strtvs	r2, [r5], #-107	; 0xffffff95
    a6ac:	63796320 	cmnvs	r9, #32, 6	; 0x80000000
    a6b0:	5d73656c 	cfldr64pl	mvdx6, [r3, #-432]!	; 0xfffffe50
    a6b4:	Address 0x000000000000a6b4 is out of bounds.


Disassembly of section .data:

0000a6b8 <putk>:
    a6b8:	00009098 	muleq	r0, r8, r0

0000a6bc <rpi_putchar>:
    a6bc:	00009f8c 	andeq	r9, r0, ip, lsl #31

Disassembly of section .bss:

0000a6c0 <__bss_start__>:
    a6c0:	00000000 	andeq	r0, r0, r0

0000a6c4 <buf.3948>:
	...

0000aac4 <last.3941>:
    aac4:	00000000 	andeq	r0, r0, r0

Disassembly of section .ARM.attributes:

00000000 <.ARM.attributes>:
   0:	00002a41 	andeq	r2, r0, r1, asr #20
   4:	61656100 	cmnvs	r5, r0, lsl #2
   8:	01006962 	tsteq	r0, r2, ror #18
   c:	00000020 	andeq	r0, r0, r0, lsr #32
  10:	4b5a3605 	blmi	168d82c <__bss_end__+0x1682d64>
  14:	08070600 	stmdaeq	r7, {r9, sl}
  18:	12010901 	andne	r0, r1, #16384	; 0x4000
  1c:	15011404 	strne	r1, [r1, #-1028]	; 0xfffffbfc
  20:	18031701 	stmdane	r3, {r0, r8, r9, sl, ip}
  24:	22011a01 	andcs	r1, r1, #4096	; 0x1000
  28:	Address 0x0000000000000028 is out of bounds.


Disassembly of section .comment:

00000000 <.comment>:
   0:	3a434347 	bcc	10d0d24 <__bss_end__+0x10c625c>
   4:	4e472820 	cdpmi	8, 4, cr2, cr7, cr0, {1}
   8:	6f542055 	svcvs	0x00542055
   c:	20736c6f 	rsbscs	r6, r3, pc, ror #24
  10:	20726f66 	rsbscs	r6, r2, r6, ror #30
  14:	206d7241 	rsbcs	r7, sp, r1, asr #4
  18:	65626d45 	strbvs	r6, [r2, #-3397]!	; 0xfffff2bb
  1c:	64656464 	strbtvs	r6, [r5], #-1124	; 0xfffffb9c
  20:	6f725020 	svcvs	0x00725020
  24:	73736563 	cmnvc	r3, #415236096	; 0x18c00000
  28:	2073726f 	rsbscs	r7, r3, pc, ror #4
  2c:	30322d39 	eorscc	r2, r2, r9, lsr sp
  30:	712d3931 			; <UNDEFINED> instruction: 0x712d3931
  34:	616d2d34 	cmnvs	sp, r4, lsr sp
  38:	29726f6a 	ldmdbcs	r2!, {r1, r3, r5, r6, r8, r9, sl, fp, sp, lr}^
  3c:	322e3920 	eorcc	r3, lr, #32, 18	; 0x80000
  40:	3220312e 	eorcc	r3, r0, #-2147483637	; 0x8000000b
  44:	31393130 	teqcc	r9, r0, lsr r1
  48:	20353230 	eorscs	r3, r5, r0, lsr r2
  4c:	6c657228 	sfmvs	f7, 2, [r5], #-160	; 0xffffff60
  50:	65736165 	ldrbvs	r6, [r3, #-357]!	; 0xfffffe9b
  54:	415b2029 	cmpmi	fp, r9, lsr #32
  58:	612f4d52 			; <UNDEFINED> instruction: 0x612f4d52
  5c:	392d6d72 	pushcc	{r1, r4, r5, r6, r8, sl, fp, sp, lr}
  60:	6172622d 	cmnvs	r2, sp, lsr #4
  64:	2068636e 	rsbcs	r6, r8, lr, ror #6
  68:	69766572 	ldmdbvs	r6!, {r1, r4, r5, r6, r8, sl, sp, lr}^
  6c:	6e6f6973 			; <UNDEFINED> instruction: 0x6e6f6973
  70:	37373220 	ldrcc	r3, [r7, -r0, lsr #4]!
  74:	5d393935 			; <UNDEFINED> instruction: 0x5d393935
  78:	43434700 	movtmi	r4, #14080	; 0x3700
  7c:	3128203a 			; <UNDEFINED> instruction: 0x3128203a
  80:	2d393a35 	vldmdbcs	r9!, {s6-s58}
  84:	39313032 	ldmdbcc	r1!, {r1, r4, r5, ip, sp}
  88:	2d34712d 	ldfcss	f7, [r4, #-180]!	; 0xffffff4c
  8c:	75627530 	strbvc	r7, [r2, #-1328]!	; 0xfffffad0
  90:	3175746e 	cmncc	r5, lr, ror #8
  94:	2e392029 	cdpcs	0, 3, cr2, cr9, cr9, {1}
  98:	20312e32 	eorscs	r2, r1, r2, lsr lr
  9c:	39313032 	ldmdbcc	r1!, {r1, r4, r5, ip, sp}
  a0:	35323031 	ldrcc	r3, [r2, #-49]!	; 0xffffffcf
  a4:	65722820 	ldrbvs	r2, [r2, #-2080]!	; 0xfffff7e0
  a8:	7361656c 	cmnvc	r1, #108, 10	; 0x1b000000
  ac:	5b202965 	blpl	80a648 <__bss_end__+0x7ffb80>
  b0:	2f4d5241 	svccs	0x004d5241
  b4:	2d6d7261 	sfmcs	f7, 2, [sp, #-388]!	; 0xfffffe7c
  b8:	72622d39 	rsbvc	r2, r2, #3648	; 0xe40
  bc:	68636e61 	stmdavs	r3!, {r0, r5, r6, r9, sl, fp, sp, lr}^
  c0:	76657220 	strbtvc	r7, [r5], -r0, lsr #4
  c4:	6f697369 	svcvs	0x00697369
  c8:	3732206e 	ldrcc	r2, [r2, -lr, rrx]!
  cc:	39393537 	ldmdbcc	r9!, {r0, r1, r2, r4, r5, r8, sl, ip, sp}
  d0:	4347005d 	movtmi	r0, #28765	; 0x705d
  d4:	28203a43 	stmdacs	r0!, {r0, r1, r6, r9, fp, ip, sp}
  d8:	20554e47 	subscs	r4, r5, r7, asr #28
  dc:	206d7241 	rsbcs	r7, sp, r1, asr #4
  e0:	65626d45 	strbvs	r6, [r2, #-3397]!	; 0xfffff2bb
  e4:	64656464 	strbtvs	r6, [r5], #-1124	; 0xfffffb9c
  e8:	6f6f5420 	svcvs	0x006f5420
  ec:	6168636c 	cmnvs	r8, ip, ror #6
  f0:	31206e69 			; <UNDEFINED> instruction: 0x31206e69
  f4:	2d332e30 	ldccs	14, cr2, [r3, #-192]!	; 0xffffff40
  f8:	31323032 	teqcc	r2, r2, lsr r0
  fc:	2930312e 	ldmdbcs	r0!, {r1, r2, r3, r5, r8, ip, sp}
 100:	2e303120 	rsfcssp	f3, f0, f0
 104:	20312e33 	eorscs	r2, r1, r3, lsr lr
 108:	31323032 	teqcc	r2, r2, lsr r0
 10c:	34323830 	ldrtcc	r3, [r2], #-2096	; 0xfffff7d0
 110:	65722820 	ldrbvs	r2, [r2, #-2080]!	; 0xfffff7e0
 114:	7361656c 	cmnvc	r1, #108, 10	; 0x1b000000
 118:	Address 0x0000000000000118 is out of bounds.


Disassembly of section .debug_info:

00000000 <.debug_info>:
       0:	00000f56 	andeq	r0, r0, r6, asr pc
       4:	00000004 	andeq	r0, r0, r4
       8:	01040000 	mrseq	r0, (UNDEF: 4)
       c:	0000021c 	andeq	r0, r0, ip, lsl r2
      10:	0000090c 	andeq	r0, r0, ip, lsl #18
      14:	0002f000 	andeq	pc, r2, r0
      18:	00803800 	addeq	r3, r0, r0, lsl #16
      1c:	0005a000 	andeq	sl, r5, r0
      20:	00000000 	andeq	r0, r0, r0
      24:	05040200 	streq	r0, [r4, #-512]	; 0xfffffe00
      28:	00746e69 	rsbseq	r6, r4, r9, ror #28
      2c:	7c070403 	cfstrsvc	mvf0, [r7], {3}
      30:	03000001 	movweq	r0, #1
      34:	01510601 	cmpeq	r1, r1, lsl #12
      38:	02030000 	andeq	r0, r3, #0, 0
      3c:	00001105 	andeq	r1, r0, r5, lsl #2
      40:	05040300 	streq	r0, [r4, #-768]	; 0xfffffd00
      44:	00000110 	andeq	r0, r0, r0, lsl r1
      48:	0b050803 	bleq	14205c <__bss_end__+0x137594>
      4c:	04000001 	streq	r0, [r0], #-1
      50:	00000093 	muleq	r0, r3, r0
      54:	5b182e03 	blpl	60b868 <__bss_end__+0x600da0>
      58:	03000000 	movweq	r0, #0
      5c:	014f0801 	cmpeq	pc, r1, lsl #16
      60:	02030000 	andeq	r0, r3, #0, 0
      64:	0001e907 	andeq	lr, r1, r7, lsl #18
      68:	01890400 	orreq	r0, r9, r0, lsl #8
      6c:	34030000 	strcc	r0, [r3], #-0
      70:	00007519 	andeq	r7, r0, r9, lsl r5
      74:	07040300 	streq	r0, [r4, -r0, lsl #6]
      78:	00000177 	andeq	r0, r0, r7, ror r1
      7c:	72070803 	andvc	r0, r7, #196608	; 0x30000
      80:	05000001 	streq	r0, [r0, #-1]
      84:	00000025 	andeq	r0, r0, r5, lsr #32
      88:	00000092 	muleq	r0, r2, r0
      8c:	00002506 	andeq	r2, r0, r6, lsl #10
      90:	49070000 	stmdbmi	r7, {}	; <UNPREDICTABLE>
      94:	04000000 	streq	r0, [r0], #-0
      98:	009e0e1c 	addseq	r0, lr, ip, lsl lr
      9c:	04080000 	streq	r0, [r8], #-0
      a0:	00000083 	andeq	r0, r0, r3, lsl #1
      a4:	00002505 	andeq	r2, r0, r5, lsl #10
      a8:	0000b300 	andeq	fp, r0, r0, lsl #6
      ac:	00b30600 	adcseq	r0, r3, r0, lsl #12
      b0:	08000000 	stmdaeq	r0, {}	; <UNPREDICTABLE>
      b4:	0000c004 	andeq	ip, r0, r4
      b8:	08010300 	stmdaeq	r1, {r8, r9}
      bc:	00000158 	andeq	r0, r0, r8, asr r1
      c0:	0000b909 	andeq	fp, r0, r9, lsl #18
      c4:	07ba0700 	ldreq	r0, [sl, r0, lsl #14]!
      c8:	21040000 	mrscs	r0, (UNDEF: 4)
      cc:	0000d10e 	andeq	sp, r0, lr, lsl #2
      d0:	a4040800 	strge	r0, [r4], #-2048	; 0xfffff800
      d4:	0a000000 	beq	dc <__code_start__-0x7f24>
      d8:	0917010c 	ldmdbeq	r7, {r2, r3, r8}
      dc:	00000102 	andeq	r0, r0, r2, lsl #2
      e0:	0100780b 	tsteq	r0, fp, lsl #16
      e4:	00251617 	eoreq	r1, r5, r7, lsl r6
      e8:	0b000000 	bleq	f0 <__code_start__-0x7f10>
      ec:	17010079 	smlsdxne	r1, r9, r0, r0
      f0:	00002518 	andeq	r2, r0, r8, lsl r5
      f4:	7a0b0400 	bvc	2c10fc <__bss_end__+0x2b6634>
      f8:	1a170100 	bne	5c0500 <__bss_end__+0x5b5a38>
      fc:	00000025 	andeq	r0, r0, r5, lsr #32
     100:	01040008 	tsteq	r4, r8
     104:	01000001 	tsteq	r0, r1
     108:	00d71f17 	sbcseq	r1, r7, r7, lsl pc
     10c:	0c0a0000 	stceq	0, cr0, [sl], {-0}
     110:	3c094201 	sfmcc	f4, 4, [r9], {1}
     114:	0c000001 	stceq	0, cr0, [r0], {1}
     118:	000004ef 	andeq	r0, r0, pc, ror #9
     11c:	4f0d4301 	svcmi	0x000d4301
     120:	00000000 	andeq	r0, r0, r0
     124:	007a680b 	rsbseq	r6, sl, fp, lsl #16
     128:	2c0e4401 	cfstrscs	mvf4, [lr], {1}
     12c:	04000000 	streq	r0, [r0], #-0
     130:	0100670b 	tsteq	r0, fp, lsl #14
     134:	002c0e45 	eoreq	r0, ip, r5, asr #28
     138:	00080000 	andeq	r0, r8, r0
     13c:	00007304 	andeq	r7, r0, r4, lsl #6
     140:	03460100 	movteq	r0, #24832	; 0x6100
     144:	0000010e 	andeq	r0, r0, lr, lsl #2
     148:	00013c09 	andeq	r3, r1, r9, lsl #24
     14c:	01070d00 	tsteq	r7, r0, lsl #26
     150:	0000005b 	andeq	r0, r0, fp, asr r0
     154:	c2066201 	andgt	r6, r6, #268435456	; 0x10000000
     158:	0e000001 	cdpeq	0, 0, cr0, cr0, cr1, {0}
     15c:	00000082 	andeq	r0, r0, r2, lsl #1
     160:	01450e1c 	cmpeq	r5, ip, lsl lr
     164:	0e030000 	cdpeq	0, 0, cr0, cr3, cr0, {0}
     168:	000002d1 	ldrdeq	r0, [r0], -r1
     16c:	00ba0e00 	adcseq	r0, sl, r0, lsl #28
     170:	0e010000 	cdpeq	0, 0, cr0, cr1, cr0, {0}
     174:	000000f8 	strdeq	r0, [r0], -r8
     178:	03300e02 	teqeq	r0, #2, 28
     17c:	0e030000 	cdpeq	0, 0, cr0, cr3, cr0, {0}
     180:	000001ab 	andeq	r0, r0, fp, lsr #3
     184:	01c40e1d 	biceq	r0, r4, sp, lsl lr
     188:	0e030000 	cdpeq	0, 0, cr0, cr3, cr0, {0}
     18c:	0000003a 	andeq	r0, r0, sl, lsr r0
     190:	01fc0e00 	mvnseq	r0, r0, lsl #28
     194:	0e3b0000 	cdpeq	0, 3, cr0, cr11, cr0, {0}
     198:	00000209 	andeq	r0, r0, r9, lsl #4
     19c:	02e30e3c 	rsceq	r0, r3, #60, 28	; 0x3c0
     1a0:	0e3d0000 	cdpeq	0, 3, cr0, cr13, cr0, {0}
     1a4:	00000323 	andeq	r0, r0, r3, lsr #6
     1a8:	002d0e3e 	eoreq	r0, sp, lr, lsr lr
     1ac:	0e3f0000 	cdpeq	0, 3, cr0, cr15, cr0, {0}
     1b0:	0000005d 	andeq	r0, r0, sp, asr r0
     1b4:	035c0e40 	cmpeq	ip, #64, 28	; 0x400
     1b8:	0e6b0000 	cdpeq	0, 6, cr0, cr11, cr0, {0}
     1bc:	00000367 	andeq	r0, r0, r7, ror #6
     1c0:	e10f006c 	tst	pc, ip, rrx
     1c4:	01000001 	tsteq	r0, r1
     1c8:	842006c6 	strthi	r0, [r0], #-1734	; 0xfffff93a
     1cc:	01b80000 			; <UNDEFINED> instruction: 0x01b80000
     1d0:	9c010000 	stcls	0, cr0, [r1], {-0}
     1d4:	000004d3 	ldrdeq	r0, [r0], -r3
     1d8:	00034410 	andeq	r4, r3, r0, lsl r4
     1dc:	0dcc0100 	stfeqe	f0, [ip]
     1e0:	0000004f 	andeq	r0, r0, pc, asr #32
     1e4:	01070d68 	tsteq	r7, r8, ror #26
     1e8:	0000005b 	andeq	r0, r0, fp, asr r0
     1ec:	060ace01 	streq	ip, [sl], -r1, lsl #28
     1f0:	0e000002 	cdpeq	0, 0, cr0, cr0, cr2, {0}
     1f4:	00000119 	andeq	r0, r0, r9, lsl r1
     1f8:	00c30e75 	sbceq	r0, r3, r5, ror lr
     1fc:	0e710000 	cdpeq	0, 7, cr0, cr1, cr0, {0}
     200:	000000d1 	ldrdeq	r0, [r0], -r1
     204:	76110068 	ldrvc	r0, [r1], -r8, rrx
     208:	0dd50100 	ldfeqe	f0, [r5]
     20c:	0000004f 	andeq	r0, r0, pc, asr #32
     210:	00000004 	andeq	r0, r0, r4
     214:	00000000 	andeq	r0, r0, r0
     218:	00012f12 	andeq	r2, r1, r2, lsl pc
     21c:	0004e300 	andeq	lr, r4, r0, lsl #6
     220:	64030500 	strvs	r0, [r3], #-1280	; 0xfffffb00
     224:	130000a2 	movwne	r0, #162	; 0xa2
     228:	e8010068 	stmda	r1, {r3, r5, r6}
     22c:	00013c0d 	andeq	r3, r1, sp, lsl #24
     230:	58910200 	ldmpl	r1, {r9}
     234:	0084e814 	addeq	lr, r4, r4, lsl r8
     238:	00006c00 	andeq	r6, r0, r0, lsl #24
     23c:	0002fd00 	andeq	pc, r2, r0, lsl #26
     240:	00691100 	rsbeq	r1, r9, r0, lsl #2
     244:	250dea01 	strcs	lr, [sp, #-2561]	; 0xfffff5ff
     248:	26000000 	strcs	r0, [r0], -r0
     24c:	22000000 	andcs	r0, r0, #0, 0
     250:	15000000 	strne	r0, [r0, #-0]
     254:	000084f4 	strdeq	r8, [r0], -r4
     258:	00000058 	andeq	r0, r0, r8, asr r0
     25c:	00034d16 	andeq	r4, r3, r6, lsl sp
     260:	13eb0100 	mvnne	r0, #0
     264:	00000102 	andeq	r0, r0, r2, lsl #2
     268:	174c9102 	strbne	r9, [ip, -r2, lsl #2]
     26c:	00008504 	andeq	r8, r0, r4, lsl #10
     270:	000004e8 	andeq	r0, r0, r8, ror #9
     274:	00000285 	andeq	r0, r0, r5, lsl #5
     278:	02500118 	subseq	r0, r0, #6
     27c:	01180074 	tsteq	r8, r4, ror r0
     280:	50910251 	addspl	r0, r1, r1, asr r2
     284:	85101700 	ldrhi	r1, [r0, #-1792]	; 0xfffff900
     288:	0f110000 	svceq	0x00110000
     28c:	02a20000 	adceq	r0, r2, #0, 0
     290:	01180000 	tsteq	r8, r0
     294:	08030550 	stmdaeq	r3, {r4, r6, r8, sl}
     298:	180000a2 	stmdane	r0, {r1, r5, r7}
     29c:	76025101 	strvc	r5, [r2], -r1, lsl #2
     2a0:	1c170000 	ldcne	0, cr0, [r7], {-0}
     2a4:	8a000085 	bhi	4c0 <__code_start__-0x7b40>
     2a8:	b900000d 	stmdblt	r0, {r0, r2, r3}
     2ac:	18000002 	stmdane	r0, {r1}
     2b0:	03055001 	movweq	r5, #20481	; 0x5001
     2b4:	0000a214 	andeq	sl, r0, r4, lsl r2
     2b8:	85381700 	ldrhi	r1, [r8, #-1792]!	; 0xfffff900
     2bc:	0a3f0000 	beq	fc02c4 <__bss_end__+0xfb57fc>
     2c0:	02d30000 	sbcseq	r0, r3, #0, 0
     2c4:	01180000 	tsteq	r8, r0
     2c8:	00750250 	rsbseq	r0, r5, r0, asr r2
     2cc:	02510118 	subseq	r0, r1, #6
     2d0:	17005091 			; <UNDEFINED> instruction: 0x17005091
     2d4:	00008544 	andeq	r8, r0, r4, asr #10
     2d8:	00000d8a 	andeq	r0, r0, sl, lsl #27
     2dc:	000002ea 	andeq	r0, r0, sl, ror #5
     2e0:	05500118 	ldrbeq	r0, [r0, #-280]	; 0xfffffee8
     2e4:	00a21c03 	adceq	r1, r2, r3, lsl #24
     2e8:	4c190000 	ldcmi	0, cr0, [r9], {-0}
     2ec:	1d000085 	stcne	0, cr0, [r0, #-532]	; 0xfffffdec
     2f0:	1800000f 	stmdane	r0, {r0, r1, r2, r3}
     2f4:	0a035001 	beq	d4300 <__bss_end__+0xc9838>
     2f8:	000003e8 	andeq	r0, r0, r8, ror #7
     2fc:	84301700 	ldrthi	r1, [r0], #-1792	; 0xfffff900
     300:	0f1d0000 	svceq	0x001d0000
     304:	03110000 	tsteq	r1, #0, 0
     308:	01180000 	tsteq	r8, r0
     30c:	64080250 	strvs	r0, [r8], #-592	; 0xfffffdb0
     310:	84341a00 	ldrthi	r1, [r4], #-2560	; 0xfffff600
     314:	0f290000 	svceq	0x00290000
     318:	3c170000 	ldccc	0, cr0, [r7], {-0}
     31c:	1d000084 	stcne	0, cr0, [r0, #-528]	; 0xfffffdf0
     320:	2e00000f 	cdpcs	0, 0, cr0, cr0, cr15, {0}
     324:	18000003 	stmdane	r0, {r0, r1}
     328:	08025001 	stmdaeq	r2, {r0, ip, lr}
     32c:	48170064 	ldmdami	r7, {r2, r5, r6}
     330:	00000084 	andeq	r0, r0, r4, lsl #1
     334:	4800000d 	stmdami	r0, {r0, r2, r3}
     338:	18000003 	stmdane	r0, {r0, r1}
     33c:	08025001 	stmdaeq	r2, {r0, ip, lr}
     340:	51011868 	tstpl	r1, r8, ror #16
     344:	00750802 	rsbseq	r0, r5, r2, lsl #16
     348:	00846017 	addeq	r6, r4, r7, lsl r0
     34c:	000f1100 	andeq	r1, pc, r0, lsl #2
     350:	00035f00 	andeq	r5, r3, r0, lsl #30
     354:	50011800 	andpl	r1, r1, r0, lsl #16
     358:	a1c80305 	bicge	r0, r8, r5, lsl #6
     35c:	17000000 	strne	r0, [r0, -r0]
     360:	00008468 	andeq	r8, r0, r8, ror #8
     364:	000006a2 	andeq	r0, r0, r2, lsr #13
     368:	00000373 	andeq	r0, r0, r3, ror r3
     36c:	02500118 	subseq	r0, r0, #6
     370:	17006808 	strne	r6, [r0, -r8, lsl #16]
     374:	0000847c 	andeq	r8, r0, ip, ror r4
     378:	00000939 	andeq	r0, r0, r9, lsr r9
     37c:	00000395 	muleq	r0, r5, r3
     380:	01500118 	cmpeq	r0, r8, lsl r1
     384:	51011830 	tstpl	r1, r0, lsr r8
     388:	01183001 	tsteq	r8, r1
     38c:	18300152 	ldmdane	r0!, {r1, r4, r6, r8}
     390:	32015301 	andcc	r5, r1, #67108864	; 0x4000000
     394:	84901700 	ldrhi	r1, [r0], #1792	; 0x700
     398:	09390000 	ldmdbeq	r9!, {}	; <UNPREDICTABLE>
     39c:	03ba0000 			; <UNDEFINED> instruction: 0x03ba0000
     3a0:	01180000 	tsteq	r8, r0
     3a4:	5e0a0350 	mcrpl	3, 0, r0, cr10, cr0, {2}
     3a8:	51011801 	tstpl	r1, r1, lsl #16
     3ac:	01184601 	tsteq	r8, r1, lsl #12
     3b0:	69080252 	stmdbvs	r8, {r1, r4, r6, r9}
     3b4:	01530118 	cmpeq	r3, r8, lsl r1
     3b8:	a4170032 	ldrge	r0, [r7], #-50	; 0xffffffce
     3bc:	39000084 	stmdbcc	r0, {r2, r7}
     3c0:	df000009 	svcle	0x00000009
     3c4:	18000003 	stmdane	r0, {r0, r1}
     3c8:	0a035001 	beq	d43d4 <__bss_end__+0xc990c>
     3cc:	011803e8 	tsteq	r8, r8, ror #7
     3d0:	40080251 	andmi	r0, r8, r1, asr r2
     3d4:	01520118 	cmpeq	r2, r8, lsl r1
     3d8:	53011839 	movwpl	r1, #6201	; 0x1839
     3dc:	17003201 	strne	r3, [r0, -r1, lsl #4]
     3e0:	000084b8 			; <UNDEFINED> instruction: 0x000084b8
     3e4:	00000939 	andeq	r0, r0, r9, lsr r9
     3e8:	00000405 	andeq	r0, r0, r5, lsl #8
     3ec:	03500118 	cmpeq	r0, #6
     3f0:	18fea20b 	ldmne	lr!, {r0, r1, r3, r9, sp, pc}^
     3f4:	09025101 	stmdbeq	r2, {r0, r8, ip, lr}
     3f8:	520118e9 	andpl	r1, r1, #15269888	; 0xe90000
     3fc:	18970902 	ldmne	r7, {r1, r8, fp}
     400:	32015301 	andcc	r5, r1, #67108864	; 0x4000000
     404:	84cc1700 	strbhi	r1, [ip], #1792	; 0x700
     408:	09390000 	ldmdbeq	r9!, {}	; <UNPREDICTABLE>
     40c:	042b0000 	strteq	r0, [fp], #-0
     410:	01180000 	tsteq	r8, r0
     414:	180b0350 	stmdane	fp, {r4, r6, r8, r9}
     418:	510118fc 	strdpl	r1, [r1, -ip]
     41c:	18bf0902 	ldmne	pc!, {r1, r8, fp}	; <UNPREDICTABLE>
     420:	09025201 	stmdbeq	r2, {r0, r9, ip, lr}
     424:	530118f7 	movwpl	r1, #6391	; 0x18f7
     428:	17003201 	strne	r3, [r0, -r1, lsl #4]
     42c:	000084dc 	ldrdeq	r8, [r0], -ip
     430:	000006f6 	strdeq	r0, [r0], -r6
     434:	0000044a 	andeq	r0, r0, sl, asr #8
     438:	02500118 	subseq	r0, r0, #6
     43c:	01185091 			; <UNDEFINED> instruction: 0x01185091
     440:	68080251 	stmdavs	r8, {r0, r4, r6, r9}
     444:	01520118 	cmpeq	r2, r8, lsl r1
     448:	7c170030 	ldcvc	0, cr0, [r7], {48}	; 0x30
     44c:	11000085 	smlabbne	r0, r5, r0, r0
     450:	8700000f 	strhi	r0, [r0, -pc]
     454:	18000004 	stmdane	r0, {r2}
     458:	03055001 	movweq	r5, #20481	; 0x5001
     45c:	0000a184 	andeq	sl, r0, r4, lsl #3
     460:	05510118 	ldrbeq	r0, [r1, #-280]	; 0xfffffee8
     464:	00a0a003 	adceq	sl, r0, r3
     468:	52011800 	andpl	r1, r1, #0, 16
     46c:	a2640305 	rsbge	r0, r4, #335544320	; 0x14000000
     470:	01180000 	tsteq	r8, r0
     474:	d7080253 	smlsdle	r8, r3, r2, r0
     478:	007d0218 	rsbseq	r0, sp, r8, lsl r2
     47c:	18710802 	ldmdane	r1!, {r1, fp}^
     480:	02047d02 	andeq	r7, r4, #128	; 0x80
     484:	1a006808 	bne	1a4ac <__bss_end__+0xf9e4>
     488:	00008580 	andeq	r8, r0, r0, lsl #11
     48c:	00000f35 	andeq	r0, r0, r5, lsr pc
     490:	00859c17 	addeq	r9, r5, r7, lsl ip
     494:	000f1100 	andeq	r1, pc, r0, lsl #2
     498:	0004c900 	andeq	ip, r4, r0, lsl #18
     49c:	50011800 	andpl	r1, r1, r0, lsl #16
     4a0:	a0a80305 	adcge	r0, r8, r5, lsl #6
     4a4:	01180000 	tsteq	r8, r0
     4a8:	a0030551 	andge	r0, r3, r1, asr r5
     4ac:	180000a0 	stmdane	r0, {r5, r7}
     4b0:	03055201 	movweq	r5, #20993	; 0x5201
     4b4:	0000a264 	andeq	sl, r0, r4, ror #4
     4b8:	02530118 	subseq	r0, r3, #6
     4bc:	0218e908 	andseq	lr, r8, #8, 18	; 0x20000
     4c0:	0305007d 	movweq	r0, #20605	; 0x507d
     4c4:	0000a200 	andeq	sl, r0, r0, lsl #4
     4c8:	85a01a00 	strhi	r1, [r0, #2560]!	; 0xa00
     4cc:	0f350000 	svceq	0x00350000
     4d0:	1b000000 	blne	4d8 <__code_start__-0x7b28>
     4d4:	000000c0 	andeq	r0, r0, r0, asr #1
     4d8:	000004e3 	andeq	r0, r0, r3, ror #9
     4dc:	00002c1c 	andeq	r2, r0, ip, lsl ip
     4e0:	09000700 	stmdbeq	r0, {r8, r9, sl}
     4e4:	000004d3 	ldrdeq	r0, [r0], -r3
     4e8:	0003891d 	andeq	r8, r3, sp, lsl r9
     4ec:	0bad0100 	bleq	feb408f4 <__bss_end__+0xfeb35e2c>
     4f0:	00000102 	andeq	r0, r0, r2, lsl #2
     4f4:	0000836c 	andeq	r8, r0, ip, ror #6
     4f8:	000000b4 	strheq	r0, [r0], -r4
     4fc:	069c9c01 	ldreq	r9, [ip], r1, lsl #24
     500:	681e0000 	ldmdavs	lr, {}	; <UNPREDICTABLE>
     504:	23ad0100 			; <UNDEFINED> instruction: 0x23ad0100
     508:	0000069c 	muleq	r0, ip, r6
     50c:	0000004a 	andeq	r0, r0, sl, asr #32
     510:	00000044 	andeq	r0, r0, r4, asr #32
     514:	0001261f 	andeq	r2, r1, pc, lsl r6
     518:	0eb00100 	frdeqs	f0, f0, f0
     51c:	0000002c 	andeq	r0, r0, ip, lsr #32
     520:	00000078 	andeq	r0, r0, r8, ror r0
     524:	00000076 	andeq	r0, r0, r6, ror r0
     528:	0004ef1f 	andeq	lr, r4, pc, lsl pc
     52c:	0db10100 	ldfeqs	f0, [r1]
     530:	0000004f 	andeq	r0, r0, pc, asr #32
     534:	0000008e 	andeq	r0, r0, lr, lsl #1
     538:	0000008c 	andeq	r0, r0, ip, lsl #1
     53c:	01007811 	tsteq	r0, r1, lsl r8
     540:	002509b9 	strhteq	r0, [r5], -r9
     544:	00a70000 	adceq	r0, r7, r0
     548:	00a10000 	adceq	r0, r1, r0
     54c:	79110000 	ldmdbvc	r1, {}	; <UNPREDICTABLE>
     550:	10b90100 	adcsne	r0, r9, r0, lsl #2
     554:	00000025 	andeq	r0, r0, r5, lsr #32
     558:	000000d7 	ldrdeq	r0, [r0], -r7
     55c:	000000d1 	ldrdeq	r0, [r0], -r1
     560:	01007a11 	tsteq	r0, r1, lsl sl
     564:	002517b9 	strhteq	r1, [r5], -r9
     568:	01070000 	mrseq	r0, (UNDEF: 7)
     56c:	01010000 	mrseq	r0, (UNDEF: 1)
     570:	f4200000 	vld4.8	{d0-d3}, [r0], r0
     574:	0c00000d 	stceq	0, cr0, [r0], {13}
     578:	01000084 	smlabbeq	r0, r4, r0, r0
     57c:	0000840c 	andeq	r8, r0, ip, lsl #8
     580:	0000000c 	andeq	r0, r0, ip
     584:	b30cbf01 	movwlt	fp, #52993	; 0xcf01
     588:	21000005 	tstcs	r0, r5
     58c:	00000e19 	andeq	r0, r0, r9, lsl lr
     590:	00000134 	andeq	r0, r0, r4, lsr r1
     594:	00000132 	andeq	r0, r0, r2, lsr r1
     598:	000e0f21 	andeq	r0, lr, r1, lsr #30
     59c:	00014900 	andeq	r4, r1, r0, lsl #18
     5a0:	00014700 	andeq	r4, r1, r0, lsl #14
     5a4:	0e052100 	adfeqs	f2, f5, f0
     5a8:	015e0000 	cmpeq	lr, r0
     5ac:	015c0000 	cmpeq	ip, r0
     5b0:	17000000 	strne	r0, [r0, -r0]
     5b4:	00008384 	andeq	r8, r0, r4, lsl #7
     5b8:	0000090c 	andeq	r0, r0, ip, lsl #18
     5bc:	000005c7 	andeq	r0, r0, r7, asr #11
     5c0:	02500118 	subseq	r0, r0, #6
     5c4:	17000074 	smlsdxne	r0, r4, r0, r0
     5c8:	00008398 	muleq	r0, r8, r3
     5cc:	00000d00 	andeq	r0, r0, r0, lsl #26
     5d0:	000005e1 	andeq	r0, r0, r1, ror #11
     5d4:	02500118 	subseq	r0, r0, #6
     5d8:	01180076 	tsteq	r8, r6, ror r0
     5dc:	3c080251 	sfmcc	f0, 4, [r8], {81}	; 0x51
     5e0:	83a81700 			; <UNDEFINED> instruction: 0x83a81700
     5e4:	0d000000 	stceq	0, cr0, [r0, #-0]
     5e8:	05fb0000 	ldrbeq	r0, [fp, #0]!
     5ec:	01180000 	tsteq	r8, r0
     5f0:	00760250 	rsbseq	r0, r6, r0, asr r2
     5f4:	02510118 	subseq	r0, r1, #6
     5f8:	17003b08 	strne	r3, [r0, -r8, lsl #22]
     5fc:	000083b4 			; <UNDEFINED> instruction: 0x000083b4
     600:	00000b98 	muleq	r0, r8, fp
     604:	0000060f 	andeq	r0, r0, pc, lsl #12
     608:	02500118 	subseq	r0, r0, #6
     60c:	17000074 	smlsdxne	r0, r4, r0, r0
     610:	000083c4 	andeq	r8, r0, r4, asr #7
     614:	00000d00 	andeq	r0, r0, r0, lsl #26
     618:	00000629 	andeq	r0, r0, r9, lsr #12
     61c:	02500118 	subseq	r0, r0, #6
     620:	01180076 	tsteq	r8, r6, ror r0
     624:	3e080251 	mcrcc	2, 0, r0, cr8, cr1, {2}
     628:	83d41700 	bicshi	r1, r4, #0, 14
     62c:	0d000000 	stceq	0, cr0, [r0, #-0]
     630:	06430000 	strbeq	r0, [r3], -r0
     634:	01180000 	tsteq	r8, r0
     638:	00760250 	rsbseq	r0, r6, r0, asr r2
     63c:	02510118 	subseq	r0, r1, #6
     640:	17003d08 	strne	r3, [r0, -r8, lsl #26]
     644:	000083e0 	andeq	r8, r0, r0, ror #7
     648:	00000b98 	muleq	r0, r8, fp
     64c:	00000657 	andeq	r0, r0, r7, asr r6
     650:	02500118 	subseq	r0, r0, #6
     654:	17000074 	smlsdxne	r0, r4, r0, r0
     658:	000083f0 	strdeq	r8, [r0], -r0
     65c:	00000d00 	andeq	r0, r0, r0, lsl #26
     660:	00000671 	andeq	r0, r0, r1, ror r6
     664:	02500118 	subseq	r0, r0, #6
     668:	01180076 	tsteq	r8, r6, ror r0
     66c:	40080251 	andmi	r0, r8, r1, asr r2
     670:	84001700 	strhi	r1, [r0], #-1792	; 0xfffff900
     674:	0d000000 	stceq	0, cr0, [r0, #-0]
     678:	068b0000 	streq	r0, [fp], r0
     67c:	01180000 	tsteq	r8, r0
     680:	00760250 	rsbseq	r0, r6, r0, asr r2
     684:	02510118 	subseq	r0, r1, #6
     688:	19003f08 	stmdbne	r0, {r3, r8, r9, sl, fp, ip, sp}
     68c:	0000840c 	andeq	r8, r0, ip, lsl #8
     690:	00000b98 	muleq	r0, r8, fp
     694:	02500118 	subseq	r0, r0, #6
     698:	00000078 	andeq	r0, r0, r8, ror r0
     69c:	01480408 	cmpeq	r8, r8, lsl #8
     6a0:	640f0000 	strvs	r0, [pc], #-0	; 6a8 <__code_start__-0x7958>
     6a4:	01000001 	tsteq	r0, r1
     6a8:	8350069b 	cmphi	r0, #162529280	; 0x9b00000
     6ac:	001c0000 	andseq	r0, ip, r0
     6b0:	9c010000 	stcls	0, cr0, [r1], {-0}
     6b4:	000006f6 	strdeq	r0, [r0], -r6
     6b8:	0004ef22 	andeq	lr, r4, r2, lsr #30
     6bc:	1c9b0100 	ldfnes	f0, [fp], {0}
     6c0:	0000004f 	andeq	r0, r0, pc, asr #32
     6c4:	00000175 	andeq	r0, r0, r5, ror r1
     6c8:	00000171 	andeq	r0, r0, r1, ror r1
     6cc:	00836017 	addeq	r6, r3, r7, lsl r0
     6d0:	000c7b00 	andeq	r7, ip, r0, lsl #22
     6d4:	0006e500 	andeq	lr, r6, r0, lsl #10
     6d8:	51011800 	tstpl	r1, r0, lsl #16
     6dc:	186b0802 	stmdane	fp!, {r1, fp}^
     6e0:	31015201 	tstcc	r1, r1, lsl #4
     6e4:	83681900 	cmnhi	r8, #0, 18
     6e8:	0f1d0000 	svceq	0x001d0000
     6ec:	01180000 	tsteq	r8, r0
     6f0:	64080250 	strvs	r0, [r8], #-592	; 0xfffffdb0
     6f4:	a71d0000 	ldrge	r0, [sp, -r0]
     6f8:	01000000 	mrseq	r0, (UNDEF: 0)
     6fc:	013c0984 	teqeq	ip, r4, lsl #19
     700:	82200000 	eorhi	r0, r0, #0, 0
     704:	01300000 	teqeq	r0, r0
     708:	9c010000 	stcls	0, cr0, [r1], {-0}
     70c:	000008f7 	strdeq	r0, [r0], -r7
     710:	0004ef22 	andeq	lr, r4, r2, lsr #30
     714:	24840100 	strcs	r0, [r4], #256	; 0x100
     718:	0000004f 	andeq	r0, r0, pc, asr #32
     71c:	000001a2 	andeq	r0, r0, r2, lsr #3
     720:	00000196 	muleq	r0, r6, r1
     724:	00002522 	andeq	r2, r0, r2, lsr #10
     728:	33840100 	orrcc	r0, r4, #0
     72c:	0000002c 	andeq	r0, r0, ip, lsr #32
     730:	00000201 	andeq	r0, r0, r1, lsl #4
     734:	000001f5 	strdeq	r0, [r0], -r5
     738:	01006711 	tsteq	r0, r1, lsl r7
     73c:	002c0e85 	eoreq	r0, ip, r5, lsl #29
     740:	025b0000 	subseq	r0, fp, #0, 0
     744:	024b0000 	subeq	r0, fp, #0, 0
     748:	2f120000 	svccs	0x00120000
     74c:	07000001 	streq	r0, [r0, -r1]
     750:	05000009 	streq	r0, [r0, #-9]
     754:	00a24403 	adceq	r4, r2, r3, lsl #8
     758:	007b1f00 	rsbseq	r1, fp, r0, lsl #30
     75c:	8f010000 	svchi	0x00010000
     760:	00003a0b 	andeq	r3, r0, fp, lsl #20
     764:	0002c500 	andeq	ip, r2, r0, lsl #10
     768:	0002c100 	andeq	ip, r2, r0, lsl #2
     76c:	0e242300 	cdpeq	3, 2, cr2, cr4, cr0, {0}
     770:	82940000 	addshi	r0, r4, #0, 0
     774:	00010000 	andeq	r0, r1, r0
     778:	01000000 	mrseq	r0, (UNDEF: 0)
     77c:	080c0590 	stmdaeq	ip, {r4, r7, r8, sl}
     780:	55210000 	strpl	r0, [r1, #-0]!
     784:	f100000e 	cps	#14
     788:	ed000002 	stc	0, cr0, [r0, #-8]
     78c:	21000002 	tstcs	r0, r2
     790:	00000e4a 	andeq	r0, r0, sl, asr #28
     794:	00000313 	andeq	r0, r0, r3, lsl r3
     798:	0000030f 	andeq	r0, r0, pc, lsl #6
     79c:	000e3f21 	andeq	r3, lr, r1, lsr #30
     7a0:	00033700 	andeq	r3, r3, r0, lsl #14
     7a4:	00033300 	andeq	r3, r3, r0, lsl #6
     7a8:	0e352100 	rsfeqs	f2, f5, f0
     7ac:	035b0000 	cmpeq	fp, #0, 0
     7b0:	03570000 	cmpeq	r7, #0, 0
     7b4:	00240000 	eoreq	r0, r4, r0
     7b8:	25000000 	strcs	r0, [r0, #-0]
     7bc:	00000e6e 	andeq	r0, r0, lr, ror #28
     7c0:	00000387 	andeq	r0, r0, r7, lsl #7
     7c4:	00000383 	andeq	r0, r0, r3, lsl #7
     7c8:	00832817 	addeq	r2, r3, r7, lsl r8
     7cc:	000f1100 	andeq	r1, pc, r0, lsl #2
     7d0:	00080100 	andeq	r0, r8, r0, lsl #2
     7d4:	50011800 	andpl	r1, r1, r0, lsl #16
     7d8:	a0a80305 	adcge	r0, r8, r5, lsl #6
     7dc:	01180000 	tsteq	r8, r0
     7e0:	04030551 	streq	r0, [r3], #-1361	; 0xfffffaaf
     7e4:	180000a1 	stmdane	r0, {r0, r5, r7}
     7e8:	03055201 	movweq	r5, #20993	; 0x5201
     7ec:	0000a258 	andeq	sl, r0, r8, asr r2
     7f0:	02530118 	subseq	r0, r3, #6
     7f4:	02185e08 	andseq	r5, r8, #8, 28	; 0x80
     7f8:	0305007d 	movweq	r0, #20605	; 0x507d
     7fc:	0000a13c 	andeq	sl, r0, ip, lsr r1
     800:	832c1a00 			; <UNDEFINED> instruction: 0x832c1a00
     804:	0f350000 	svceq	0x00350000
     808:	00000000 	andeq	r0, r0, r0
     80c:	00827c17 	addeq	r7, r2, r7, lsl ip
     810:	000f1100 	andeq	r1, pc, r0, lsl #2
     814:	00084100 	andeq	r4, r8, r0, lsl #2
     818:	50011800 	andpl	r1, r1, r0, lsl #16
     81c:	a0e40305 	rscge	r0, r4, r5, lsl #6
     820:	01180000 	tsteq	r8, r0
     824:	a0030551 	andge	r0, r3, r1, asr r5
     828:	180000a0 	stmdane	r0, {r5, r7}
     82c:	03055201 	movweq	r5, #20993	; 0x5201
     830:	0000a244 	andeq	sl, r0, r4, asr #4
     834:	02530118 	subseq	r0, r3, #6
     838:	02188b08 	andseq	r8, r8, #8, 22	; 0x2000
     83c:	3001007d 	andcc	r0, r1, sp, ror r0
     840:	82801a00 	addhi	r1, r0, #0, 20
     844:	0f350000 	svceq	0x00350000
     848:	90170000 	andsls	r0, r7, r0
     84c:	00000082 	andeq	r0, r0, r2, lsl #1
     850:	6300000d 	movwvs	r0, #13
     854:	18000008 	stmdane	r0, {r3}
     858:	74025001 	strvc	r5, [r2], #-1
     85c:	51011800 	tstpl	r1, r0, lsl #16
     860:	17004d01 	strne	r4, [r0, -r1, lsl #26]
     864:	000082a8 	andeq	r8, r0, r8, lsr #5
     868:	00000c7b 	andeq	r0, r0, fp, ror ip
     86c:	0000087c 	andeq	r0, r0, ip, ror r8
     870:	02500118 	subseq	r0, r0, #6
     874:	01180074 	tsteq	r8, r4, ror r0
     878:	004c0151 	subeq	r0, ip, r1, asr r1
     87c:	0082b817 	addeq	fp, r2, r7, lsl r8
     880:	000c7b00 	andeq	r7, ip, r0, lsl #22
     884:	00089a00 	andeq	r9, r8, r0, lsl #20
     888:	50011800 	andpl	r1, r1, r0, lsl #16
     88c:	18007402 	stmdane	r0, {r1, sl, ip, sp, lr}
     890:	4d015101 	stfmis	f5, [r1, #-4]
     894:	01520118 	cmpeq	r2, r8, lsl r1
     898:	c4170034 	ldrgt	r0, [r7], #-52	; 0xffffffcc
     89c:	00000082 	andeq	r0, r0, r2, lsl #1
     8a0:	b300000d 	movwlt	r0, #13
     8a4:	18000008 	stmdane	r0, {r3}
     8a8:	74025001 	strvc	r5, [r2], #-1
     8ac:	51011800 	tstpl	r1, r0, lsl #16
     8b0:	17004c01 	strne	r4, [r0, -r1, lsl #24]
     8b4:	000082d0 	ldrdeq	r8, [r0], -r0
     8b8:	00000f11 	andeq	r0, r0, r1, lsl pc
     8bc:	000008ca 	andeq	r0, r0, sl, asr #17
     8c0:	05500118 	ldrbeq	r0, [r0, #-280]	; 0xfffffee8
     8c4:	00a15403 	adceq	r5, r1, r3, lsl #8
     8c8:	dc170000 	ldcle	0, cr0, [r7], {-0}
     8cc:	00000082 	andeq	r0, r0, r2, lsl #1
     8d0:	e300000d 	movw	r0, #13
     8d4:	18000008 	stmdane	r0, {r3}
     8d8:	74025001 	strvc	r5, [r2], #-1
     8dc:	51011800 	tstpl	r1, r0, lsl #16
     8e0:	19004d01 	stmdbne	r0, {r0, r8, sl, fp, lr}
     8e4:	000082e8 	andeq	r8, r0, r8, ror #5
     8e8:	00000f11 	andeq	r0, r0, r1, lsl pc
     8ec:	05500118 	ldrbeq	r0, [r0, #-280]	; 0xfffffee8
     8f0:	00a16c03 	adceq	r6, r1, r3, lsl #24
     8f4:	1b000000 	blne	8fc <__code_start__-0x7704>
     8f8:	000000c0 	andeq	r0, r0, r0, asr #1
     8fc:	00000907 	andeq	r0, r0, r7, lsl #18
     900:	00002c1c 	andeq	r2, r0, ip, lsl ip
     904:	09001200 	stmdbeq	r0, {r9, ip}
     908:	000008f7 	strdeq	r0, [r0], -r7
     90c:	00019c1d 	andeq	r9, r1, sp, lsl ip
     910:	057f0100 	ldrbeq	r0, [pc, #-256]!	; 818 <__code_start__-0x77e8>
     914:	00000025 	andeq	r0, r0, r5, lsr #32
     918:	00008218 	andeq	r8, r0, r8, lsl r2
     91c:	00000008 	andeq	r0, r0, r8
     920:	09399c01 	ldmdbeq	r9!, {r0, sl, fp, ip, pc}
     924:	681e0000 	ldmdavs	lr, {}	; <UNPREDICTABLE>
     928:	237f0100 	cmncs	pc, #0
     92c:	0000069c 	muleq	r0, ip, r6
     930:	000003ab 	andeq	r0, r0, fp, lsr #7
     934:	000003a7 	andeq	r0, r0, r7, lsr #7
     938:	00552600 	subseq	r2, r5, r0, lsl #12
     93c:	5c010000 	stcpl	0, cr0, [r1], {-0}
     940:	0080700d 	addeq	r7, r0, sp
     944:	00007800 	andeq	r7, r0, r0, lsl #16
     948:	3f9c0100 	svccc	0x009c0100
     94c:	2200000a 	andcs	r0, r0, #10, 0
     950:	000002da 	ldrdeq	r0, [r0], -sl
     954:	25195c01 	ldrcs	r5, [r9, #-3073]	; 0xfffff3ff
     958:	d0000000 	andle	r0, r0, r0
     95c:	cc000003 	stcgt	0, cr0, [r0], {3}
     960:	1e000003 	cdpne	0, 0, cr0, cr0, cr3, {0}
     964:	5c01006c 	stcpl	0, cr0, [r1], {108}	; 0x6c
     968:	00004f2b 	andeq	r4, r0, fp, lsr #30
     96c:	0003f200 	andeq	pc, r3, r0, lsl #4
     970:	0003ee00 	andeq	lr, r3, r0, lsl #28
     974:	00681e00 	rsbeq	r1, r8, r0, lsl #28
     978:	4f365c01 	svcmi	0x00365c01
     97c:	17000000 	strne	r0, [r0, -r0]
     980:	13000004 	movwne	r0, #4
     984:	1e000004 	cdpne	0, 0, cr0, cr0, cr4, {0}
     988:	5c010067 	stcpl	0, cr0, [r1], {103}	; 0x67
     98c:	00002c42 	andeq	r2, r0, r2, asr #24
     990:	00043e00 	andeq	r3, r4, r0, lsl #28
     994:	00043800 	andeq	r3, r4, r0, lsl #16
     998:	5f731100 	svcpl	0x00731100
     99c:	5d010069 	stcpl	0, cr0, [r1, #-420]	; 0xfffffe5c
     9a0:	00002509 	andeq	r2, r0, r9, lsl #10
     9a4:	00047000 	andeq	r7, r4, r0
     9a8:	00046a00 	andeq	r6, r4, r0, lsl #20
     9ac:	012f1200 			; <UNDEFINED> instruction: 0x012f1200
     9b0:	04e30000 	strbteq	r0, [r3], #0
     9b4:	03050000 	movweq	r0, #20480	; 0x5000
     9b8:	0000a23c 	andeq	sl, r0, ip, lsr r2
     9bc:	0080881a 	addeq	r8, r0, sl, lsl r8
     9c0:	000b9800 	andeq	r9, fp, r0, lsl #16
     9c4:	80901700 	addshi	r1, r0, r0, lsl #14
     9c8:	0b570000 	bleq	15c09d0 <__bss_end__+0x15b5f08>
     9cc:	09d90000 	ldmibeq	r9, {}^	; <UNPREDICTABLE>
     9d0:	01180000 	tsteq	r8, r0
     9d4:	00750251 	rsbseq	r0, r5, r1, asr r2
     9d8:	80a41700 	adchi	r1, r4, r0, lsl #14
     9dc:	0f110000 	svceq	0x00110000
     9e0:	09fc0000 	ldmibeq	ip!, {}^	; <UNPREDICTABLE>
     9e4:	01180000 	tsteq	r8, r0
     9e8:	88030550 	stmdahi	r3, {r4, r6, r8, sl}
     9ec:	180000a0 	stmdane	r0, {r5, r7}
     9f0:	74025101 	strvc	r5, [r2], #-257	; 0xfffffeff
     9f4:	52011800 	andpl	r1, r1, #0, 16
     9f8:	00007502 	andeq	r7, r0, r2, lsl #10
     9fc:	0080d017 	addeq	sp, r0, r7, lsl r0
     a00:	000f1100 	andeq	r1, pc, r0, lsl #2
     a04:	000a3500 	andeq	r3, sl, r0, lsl #10
     a08:	50011800 	andpl	r1, r1, r0, lsl #16
     a0c:	a0a80305 	adcge	r0, r8, r5, lsl #6
     a10:	01180000 	tsteq	r8, r0
     a14:	a0030551 	andge	r0, r3, r1, asr r5
     a18:	180000a0 	stmdane	r0, {r5, r7}
     a1c:	03055201 	movweq	r5, #20993	; 0x5201
     a20:	0000a23c 	andeq	sl, r0, ip, lsr r2
     a24:	02530118 	subseq	r0, r3, #6
     a28:	02185f08 	andseq	r5, r8, #8, 30
     a2c:	0305007d 	movweq	r0, #20605	; 0x507d
     a30:	0000a0bc 	strheq	sl, [r0], -ip
     a34:	80d41a00 	sbcshi	r1, r4, r0, lsl #20
     a38:	0f350000 	svceq	0x00350000
     a3c:	1d000000 	stcne	0, cr0, [r0, #-0]
     a40:	0000009b 	muleq	r0, fp, r0
     a44:	020b5401 	andeq	r5, fp, #16777216	; 0x1000000
     a48:	b8000001 	stmdalt	r0, {r0}
     a4c:	60000081 	andvs	r0, r0, r1, lsl #1
     a50:	01000000 	mrseq	r0, (UNDEF: 0)
     a54:	000b519c 	muleq	fp, ip, r1
     a58:	00681e00 	rsbeq	r1, r8, r0, lsl #28
     a5c:	51205401 			; <UNDEFINED> instruction: 0x51205401
     a60:	9d00000b 	stcls	0, cr0, [r0, #-44]	; 0xffffffd4
     a64:	99000004 	stmdbls	r0, {r2}
     a68:	27000004 	strcs	r0, [r0, -r4]
     a6c:	007a7978 	rsbseq	r7, sl, r8, ror r9
     a70:	022d5401 	eoreq	r5, sp, #16777216	; 0x1000000
     a74:	02000001 	andeq	r0, r0, #1, 0
     a78:	67117891 			; <UNDEFINED> instruction: 0x67117891
     a7c:	09550100 	ldmdbeq	r5, {r8}^
     a80:	00000025 	andeq	r0, r0, r5, lsr #32
     a84:	000004c0 	andeq	r0, r0, r0, asr #9
     a88:	000004be 			; <UNDEFINED> instruction: 0x000004be
     a8c:	01007811 	tsteq	r0, r1, lsl r8
     a90:	00250956 	eoreq	r0, r5, r6, asr r9
     a94:	04d90000 	ldrbeq	r0, [r9], #0
     a98:	04d30000 	ldrbeq	r0, [r3], #0
     a9c:	79110000 	ldmdbvc	r1, {}	; <UNPREDICTABLE>
     aa0:	09570100 	ldmdbeq	r7, {r8}^
     aa4:	00000025 	andeq	r0, r0, r5, lsr #32
     aa8:	00000509 	andeq	r0, r0, r9, lsl #10
     aac:	00000503 	andeq	r0, r0, r3, lsl #10
     ab0:	01007a11 	tsteq	r0, r1, lsl sl
     ab4:	00250958 	eoreq	r0, r5, r8, asr r9
     ab8:	05390000 	ldreq	r0, [r9, #-0]!
     abc:	05330000 	ldreq	r0, [r3, #-0]!
     ac0:	f4200000 	vld4.8	{d0-d3}, [r0], r0
     ac4:	fc00000d 	stc2	0, cr0, [r0], {13}
     ac8:	01000081 	smlabbeq	r0, r1, r0, r0
     acc:	000081fc 	strdeq	r8, [r0], -ip
     ad0:	0000000c 	andeq	r0, r0, ip
     ad4:	030c5901 	movweq	r5, #51457	; 0xc901
     ad8:	2100000b 	tstcs	r0, fp
     adc:	00000e19 	andeq	r0, r0, r9, lsl lr
     ae0:	00000566 	andeq	r0, r0, r6, ror #10
     ae4:	00000564 	andeq	r0, r0, r4, ror #10
     ae8:	000e0f21 	andeq	r0, lr, r1, lsr #30
     aec:	00057b00 	andeq	r7, r5, r0, lsl #22
     af0:	00057900 	andeq	r7, r5, r0, lsl #18
     af4:	0e052100 	adfeqs	f2, f5, f0
     af8:	05900000 	ldreq	r0, [r0]
     afc:	058e0000 	streq	r0, [lr]
     b00:	17000000 	strne	r0, [r0, -r0]
     b04:	000081dc 	ldrdeq	r8, [r0], -ip
     b08:	00000b57 	andeq	r0, r0, r7, asr fp
     b0c:	00000b1e 	andeq	r0, r0, lr, lsl fp
     b10:	02500118 	subseq	r0, r0, #6
     b14:	01180077 	tsteq	r8, r7, ror r0
     b18:	60910351 	addsvs	r0, r1, r1, asr r3
     b1c:	ec170006 	ldc	0, cr0, [r7], {6}
     b20:	57000081 	strpl	r0, [r0, -r1, lsl #1]
     b24:	3900000b 	stmdbcc	r0, {r0, r1, r3}
     b28:	1800000b 	stmdane	r0, {r0, r1, r3}
     b2c:	77025001 	strvc	r5, [r2, -r1]
     b30:	51011800 	tstpl	r1, r0, lsl #16
     b34:	06649103 	strbteq	r9, [r4], -r3, lsl #2
     b38:	81fc1900 	mvnshi	r1, r0, lsl #18
     b3c:	0b570000 	bleq	15c0b44 <__bss_end__+0x15b607c>
     b40:	01180000 	tsteq	r8, r0
     b44:	00770250 	rsbseq	r0, r7, r0, asr r2
     b48:	03510118 	cmpeq	r1, #6
     b4c:	00066891 	muleq	r6, r1, r8
     b50:	3c040800 	stccc	8, cr0, [r4], {-0}
     b54:	28000001 	stmdacs	r0, {r0}
     b58:	00000372 	andeq	r0, r0, r2, ror r3
     b5c:	250c4f01 	strcs	r4, [ip, #-3841]	; 0xfffff0ff
     b60:	44000000 	strmi	r0, [r0], #-0
     b64:	2c000080 	stccs	0, cr0, [r0], {128}	; 0x80
     b68:	01000000 	mrseq	r0, (UNDEF: 0)
     b6c:	000b989c 	muleq	fp, ip, r8
     b70:	00761e00 	rsbseq	r1, r6, r0, lsl #28
     b74:	251a4f01 	ldrcs	r4, [sl, #-3841]	; 0xfffff0ff
     b78:	a7000000 	strge	r0, [r0, -r0]
     b7c:	a3000005 	movwge	r0, #5
     b80:	22000005 	andcs	r0, r0, #5, 0
     b84:	00000126 	andeq	r0, r0, r6, lsr #2
     b88:	25214f01 	strcs	r4, [r1, #-3841]!	; 0xfffff0ff
     b8c:	cc000000 	stcgt	0, cr0, [r0], {-0}
     b90:	c8000005 	stmdagt	r0, {r0, r2}
     b94:	00000005 	andeq	r0, r0, r5
     b98:	00015d28 	andeq	r5, r1, r8, lsr #26
     b9c:	0e4a0100 	dvfeqe	f0, f2, f0
     ba0:	0000003a 	andeq	r0, r0, sl, lsr r0
     ba4:	00008038 	andeq	r8, r0, r8, lsr r0
     ba8:	0000000c 	andeq	r0, r0, ip
     bac:	0bd39c01 	bleq	ff4e7bb8 <__bss_end__+0xff4dd0f0>
     bb0:	6c1e0000 	ldcvs	0, cr0, [lr], {-0}
     bb4:	4a01006f 	bmi	40d78 <__bss_end__+0x362b0>
     bb8:	00004f1d 	andeq	r4, r0, sp, lsl pc
     bbc:	0005f100 	andeq	pc, r5, r0, lsl #2
     bc0:	0005ed00 	andeq	lr, r5, r0, lsl #26
     bc4:	69682700 	stmdbvs	r8!, {r8, r9, sl, sp}^
     bc8:	294a0100 	stmdbcs	sl, {r8}^
     bcc:	0000004f 	andeq	r0, r0, pc, asr #32
     bd0:	1d005101 	stfnes	f5, [r0, #-4]
     bd4:	0000006a 	andeq	r0, r0, sl, rrx
     bd8:	25053701 	strcs	r3, [r5, #-1793]	; 0xfffff8ff
     bdc:	7c000000 	stcvc	0, cr0, [r0], {-0}
     be0:	3c000081 	stccc	0, cr0, [r0], {129}	; 0x81
     be4:	01000000 	mrseq	r0, (UNDEF: 0)
     be8:	000c759c 	muleq	ip, ip, r5
     bec:	04ef2200 	strbteq	r2, [pc], #512	; bf4 <__code_start__-0x740c>
     bf0:	37010000 	strcc	r0, [r1, -r0]
     bf4:	00004f16 	andeq	r4, r0, r6, lsl pc
     bf8:	00061600 	andeq	r1, r6, r0, lsl #12
     bfc:	00061200 	andeq	r1, r6, r0, lsl #4
     c00:	013c2200 	teqeq	ip, r0, lsl #4
     c04:	37010000 	strcc	r0, [r1, -r0]
     c08:	00004f24 	andeq	r4, r0, r4, lsr #30
     c0c:	00063b00 	andeq	r3, r6, r0, lsl #22
     c10:	00063700 	andeq	r3, r6, r0, lsl #14
     c14:	00761e00 	rsbseq	r1, r6, r0, lsl #28
     c18:	75373701 	ldrvc	r3, [r7, #-1793]!	; 0xfffff8ff
     c1c:	5e00000c 	cdppl	0, 0, cr0, cr0, cr12, {0}
     c20:	5a000006 	bpl	c40 <__code_start__-0x73c0>
     c24:	1e000006 	cdpne	0, 0, cr0, cr0, cr6, {0}
     c28:	3701006e 	strcc	r0, [r1, -lr, rrx]
     c2c:	00006943 	andeq	r6, r0, r3, asr #18
     c30:	00068000 	andeq	r8, r6, r0
     c34:	00067c00 	andeq	r7, r6, r0, lsl #24
     c38:	81a01700 	lslhi	r1, r0, #14
     c3c:	0f410000 	svceq	0x00410000
     c40:	0c580000 	mraeq	r0, r8, acc0
     c44:	01180000 	tsteq	r8, r0
     c48:	00740250 	rsbseq	r0, r4, r0, asr r2
     c4c:	02510118 	subseq	r0, r1, #6
     c50:	01186791 			; <UNDEFINED> instruction: 0x01186791
     c54:	00310152 	eorseq	r0, r1, r2, asr r1
     c58:	0081b019 	addeq	fp, r1, r9, lsl r0
     c5c:	000f4d00 	andeq	r4, pc, r0, lsl #26
     c60:	50011800 	andpl	r1, r1, r0, lsl #16
     c64:	18007402 	stmdane	r0, {r1, sl, ip, sp, lr}
     c68:	75025101 	strvc	r5, [r2, #-257]	; 0xfffffeff
     c6c:	52011800 	andpl	r1, r1, #0, 16
     c70:	00007602 	andeq	r7, r0, r2, lsl #12
     c74:	4f040800 	svcmi	0x00040800
     c78:	0f000000 	svceq	0x00000000
     c7c:	00000355 	andeq	r0, r0, r5, asr r3
     c80:	58062d01 	stmdapl	r6, {r0, r8, sl, fp, sp}
     c84:	24000081 	strcs	r0, [r0], #-129	; 0xffffff7f
     c88:	01000000 	mrseq	r0, (UNDEF: 0)
     c8c:	000cf09c 	muleq	ip, ip, r0
     c90:	04ef2200 	strbteq	r2, [pc], #512	; c98 <__code_start__-0x7368>
     c94:	2d010000 	stccs	0, cr0, [r1, #-0]
     c98:	00004f15 	andeq	r4, r0, r5, lsl pc
     c9c:	0006a200 	andeq	sl, r6, r0, lsl #4
     ca0:	00069e00 	andeq	r9, r6, r0, lsl #28
     ca4:	65721e00 	ldrbvs	r1, [r2, #-3584]!	; 0xfffff200
     ca8:	2d010067 	stccs	0, cr0, [r1, #-412]	; 0xfffffe64
     cac:	00004f23 	andeq	r4, r0, r3, lsr #30
     cb0:	0006c900 	andeq	ip, r6, r0, lsl #18
     cb4:	0006c300 	andeq	ip, r6, r0, lsl #6
     cb8:	00761e00 	rsbseq	r1, r6, r0, lsl #28
     cbc:	4f302d01 	svcmi	0x00302d01
     cc0:	fc000000 	stc2	0, cr0, [r0], {-0}
     cc4:	f6000006 			; <UNDEFINED> instruction: 0xf6000006
     cc8:	16000006 	strne	r0, [r0], -r6
     ccc:	000001a6 	andeq	r0, r0, r6, lsr #3
     cd0:	f00d2e01 			; <UNDEFINED> instruction: 0xf00d2e01
     cd4:	0200000c 	andeq	r0, r0, #12, 0
     cd8:	74197491 	ldrvc	r7, [r9], #-1169	; 0xfffffb6f
     cdc:	41000081 	smlabbmi	r0, r1, r0, r0
     ce0:	1800000f 	stmdane	r0, {r0, r1, r2, r3}
     ce4:	91025101 	tstls	r2, r1, lsl #2
     ce8:	5201186c 	andpl	r1, r1, #108, 16	; 0x6c0000
     cec:	00003201 	andeq	r3, r0, r1, lsl #4
     cf0:	00004f1b 	andeq	r4, r0, fp, lsl pc
     cf4:	000d0000 	andeq	r0, sp, r0
     cf8:	002c1c00 	eoreq	r1, ip, r0, lsl #24
     cfc:	00010000 	andeq	r0, r1, r0
     d00:	0000e81d 	andeq	lr, r0, sp, lsl r8
     d04:	09240100 	stmdbeq	r4!, {r8}
     d08:	0000004f 	andeq	r0, r0, pc, asr #32
     d0c:	00008120 	andeq	r8, r0, r0, lsr #2
     d10:	00000038 	andeq	r0, r0, r8, lsr r0
     d14:	0d8a9c01 	stceq	12, cr9, [sl, #4]
     d18:	ef220000 	svc	0x00220000
     d1c:	01000004 	tsteq	r0, r4
     d20:	004f1824 	subeq	r1, pc, r4, lsr #16
     d24:	072d0000 	streq	r0, [sp, -r0]!
     d28:	07290000 	streq	r0, [r9, -r0]!
     d2c:	721e0000 	andsvc	r0, lr, #0, 0
     d30:	01006765 	tsteq	r0, r5, ror #14
     d34:	004f2624 	subeq	r2, pc, r4, lsr #12
     d38:	07520000 	ldrbeq	r0, [r2, -r0]
     d3c:	074e0000 	strbeq	r0, [lr, -r0]
     d40:	76130000 	ldrvc	r0, [r3], -r0
     d44:	0d270100 	stfeqs	f0, [r7, #-0]
     d48:	0000004f 	andeq	r0, r0, pc, asr #32
     d4c:	17779102 	ldrbne	r9, [r7, -r2, lsl #2]!
     d50:	0000813c 	andeq	r8, r0, ip, lsr r1
     d54:	00000f41 	andeq	r0, r0, r1, asr #30
     d58:	00000d6e 	andeq	r0, r0, lr, ror #26
     d5c:	02500118 	subseq	r0, r0, #6
     d60:	01180074 	tsteq	r8, r4, ror r0
     d64:	67910251 			; <UNDEFINED> instruction: 0x67910251
     d68:	01520118 	cmpeq	r2, r8, lsl r1
     d6c:	4c190031 	ldcmi	0, cr0, [r9], {49}	; 0x31
     d70:	4d000081 	stcmi	0, cr0, [r0, #-516]	; 0xfffffdfc
     d74:	1800000f 	stmdane	r0, {r0, r1, r2, r3}
     d78:	74025001 	strvc	r5, [r2], #-1
     d7c:	51011800 	tstpl	r1, r0, lsl #16
     d80:	186f9102 	stmdane	pc!, {r1, r8, ip, pc}^	; <UNPREDICTABLE>
     d84:	31015201 	tstcc	r1, r1, lsl #4
     d88:	920f0000 	andls	r0, pc, #0, 0
     d8c:	01000001 	tsteq	r0, r1
     d90:	80e8061d 	rschi	r0, r8, sp, lsl r6
     d94:	00380000 	eorseq	r0, r8, r0
     d98:	9c010000 	stcls	0, cr0, [r1], {-0}
     d9c:	00000df4 	strdeq	r0, [r0], -r4
     da0:	67736d1e 			; <UNDEFINED> instruction: 0x67736d1e
     da4:	1c1d0100 	ldfnes	f0, [sp], {-0}
     da8:	000000b3 	strheq	r0, [r0], -r3
     dac:	00000777 	andeq	r0, r0, r7, ror r7
     db0:	00000771 	andeq	r0, r0, r1, ror r7
     db4:	7a797827 	bvc	1e5ee58 <__bss_end__+0x1e54390>
     db8:	2b1d0100 	blcs	7411c0 <__bss_end__+0x7366f8>
     dbc:	00000102 	andeq	r0, r0, r2, lsl #2
     dc0:	196c9102 	stmdbne	ip!, {r1, r8, ip, pc}^
     dc4:	00008114 	andeq	r8, r0, r4, lsl r1
     dc8:	00000f11 	andeq	r0, r0, r1, lsl pc
     dcc:	05500118 	ldrbeq	r0, [r0, #-280]	; 0xfffffee8
     dd0:	00a0cc03 	adceq	ip, r0, r3, lsl #24
     dd4:	51011800 	tstpl	r1, r0, lsl #16
     dd8:	5001f303 	andpl	pc, r1, r3, lsl #6
     ddc:	03520118 	cmpeq	r2, #6
     de0:	18066491 	stmdane	r6, {r0, r4, r7, sl, sp, lr}
     de4:	91035301 	tstls	r3, r1, lsl #6
     de8:	02180668 	andseq	r0, r8, #104, 12	; 0x6800000
     dec:	9103007d 	tstls	r3, sp, ror r0
     df0:	0000066c 	andeq	r0, r0, ip, ror #12
     df4:	0001bd29 	andeq	fp, r1, r9, lsr #26
     df8:	011a0100 	tsteq	sl, r0, lsl #2
     dfc:	00000102 	andeq	r0, r0, r2, lsl #2
     e00:	000e2403 	andeq	r2, lr, r3, lsl #8
     e04:	00782a00 	rsbseq	r2, r8, r0, lsl #20
     e08:	250c1a01 	strcs	r1, [ip, #-2561]	; 0xfffff5ff
     e0c:	2a000000 	bcs	e14 <__code_start__-0x71ec>
     e10:	1a010079 	bne	40ffc <__bss_end__+0x36534>
     e14:	00002513 	andeq	r2, r0, r3, lsl r5
     e18:	007a2a00 	rsbseq	r2, sl, r0, lsl #20
     e1c:	251a1a01 	ldrcs	r1, [sl, #-2561]	; 0xfffff5ff
     e20:	00000000 	andeq	r0, r0, r0
     e24:	0001d829 	andeq	sp, r1, r9, lsr #16
     e28:	01530200 	cmpeq	r3, r0, lsl #4
     e2c:	00000069 	andeq	r0, r0, r9, rrx
     e30:	000e7903 	andeq	r7, lr, r3, lsl #18
     e34:	00782a00 	rsbseq	r2, r8, r0, lsl #20
     e38:	69135302 	ldmdbvs	r3, {r1, r8, r9, ip, lr}
     e3c:	2a000000 	bcs	e44 <__code_start__-0x71bc>
     e40:	0200626c 	andeq	r6, r0, #108, 4	; 0xc0000006
     e44:	002c1f53 	eoreq	r1, ip, r3, asr pc
     e48:	752a0000 	strvc	r0, [sl, #-0]!
     e4c:	53020062 	movwpl	r0, #8290	; 0x2062
     e50:	00002c2c 	andeq	r2, r0, ip, lsr #24
     e54:	00762a00 	rsbseq	r2, r6, r0, lsl #20
     e58:	69395302 	ldmdbvs	r9!, {r1, r8, r9, ip, lr}
     e5c:	12000000 	andne	r0, r0, #0, 0
     e60:	0000012f 	andeq	r0, r0, pc, lsr #2
     e64:	00000e89 	andeq	r0, r0, r9, lsl #29
     e68:	a2580305 	subsge	r0, r8, #335544320	; 0x14000000
     e6c:	6e2b0000 	cdpvs	0, 2, cr0, cr11, cr0, {0}
     e70:	0e5c0200 	cdpeq	2, 5, cr0, cr12, cr0, {0}
     e74:	0000002c 	andeq	r0, r0, ip, lsr #32
     e78:	00c01b00 	sbceq	r1, r0, r0, lsl #22
     e7c:	0e890000 	cdpeq	0, 8, cr0, cr9, cr0, {0}
     e80:	2c1c0000 	ldccs	0, cr0, [ip], {-0}
     e84:	08000000 	stmdaeq	r0, {}	; <UNPREDICTABLE>
     e88:	0e790900 	vaddeq.f16	s1, s18, s0	; <UNPREDICTABLE>
     e8c:	ef290000 	svc	0x00290000
     e90:	02000000 	andeq	r0, r0, #0, 0
     e94:	00690147 	rsbeq	r0, r9, r7, asr #2
     e98:	d5030000 	strle	r0, [r3, #-0]
     e9c:	2a00000e 	bcs	edc <__code_start__-0x7124>
     ea0:	47020078 	smlsdxmi	r2, r8, r0, r0
     ea4:	00006913 	andeq	r6, r0, r3, lsl r9
     ea8:	626c2a00 	rsbvs	r2, ip, #0, 20
     eac:	1f470200 	svcne	0x00470200
     eb0:	0000002c 	andeq	r0, r0, ip, lsr #32
     eb4:	0062752a 	rsbeq	r7, r2, sl, lsr #10
     eb8:	2c2c4702 	stccs	7, cr4, [ip], #-8
     ebc:	2c000000 	stccs	0, cr0, [r0], {-0}
     ec0:	0000012f 	andeq	r0, r0, pc, lsr #2
     ec4:	00000e89 	andeq	r0, r0, r9, lsl #29
     ec8:	00033f2d 	andeq	r3, r3, sp, lsr #30
     ecc:	0e4b0200 	cdpeq	2, 4, cr0, cr11, cr0, {0}
     ed0:	00000069 	andeq	r0, r0, r9, rrx
     ed4:	033a2900 	teqeq	sl, #0, 18
     ed8:	35020000 	strcc	r0, [r2, #-0]
     edc:	00006918 	andeq	r6, r0, r8, lsl r9
     ee0:	0efc0300 	cdpeq	3, 15, cr0, cr12, cr0, {0}
     ee4:	162e0000 	strtne	r0, [lr], -r0
     ee8:	02000002 	andeq	r0, r0, #2, 0
     eec:	002c2b35 	eoreq	r2, ip, r5, lsr fp
     ef0:	2f2c0000 	svccs	0x002c0000
     ef4:	0c000001 	stceq	0, cr0, [r0], {1}
     ef8:	0000000f 	andeq	r0, r0, pc
     efc:	0000c01b 	andeq	ip, r0, fp, lsl r0
     f00:	000f0c00 	andeq	r0, pc, r0, lsl #24
     f04:	002c1c00 	eoreq	r1, ip, r0, lsl #24
     f08:	00090000 	andeq	r0, r9, r0
     f0c:	000efc09 	andeq	pc, lr, r9, lsl #24
     f10:	077c2f00 	ldrbeq	r2, [ip, -r0, lsl #30]!
     f14:	077c0000 	ldrbeq	r0, [ip, -r0]!
     f18:	28040000 	stmdacs	r4, {}	; <UNPREDICTABLE>
     f1c:	00df2f06 	sbcseq	r2, pc, r6, lsl #30
     f20:	00df0000 	sbcseq	r0, pc, r0
     f24:	58040000 	stmdapl	r4, {}	; <UNPREDICTABLE>
     f28:	00002f06 	andeq	r2, r0, r6, lsl #30
     f2c:	00000000 	andeq	r0, r0, r0
     f30:	06050000 	streq	r0, [r5], -r0
     f34:	037c2f06 	cmneq	ip, #6, 30
     f38:	037c0000 	cmneq	ip, #0, 0
     f3c:	6e040000 	cdpvs	0, 0, cr0, cr4, cr0, {0}
     f40:	001b2f06 	andseq	r2, fp, r6, lsl #30
     f44:	001b0000 	andseq	r0, fp, r0
     f48:	0c050000 	stceq	0, cr0, [r5], {-0}
     f4c:	03922f05 	orrseq	r2, r2, #5, 30
     f50:	03920000 	orrseq	r0, r2, #0, 0
     f54:	0e050000 	cdpeq	0, 0, cr0, cr5, cr0, {0}
     f58:	19e00005 	stmibne	r0!, {r0, r2}^
     f5c:	00040000 	andeq	r0, r4, r0
     f60:	000002dd 	ldrdeq	r0, [r0], -sp
     f64:	021c0104 	andseq	r0, ip, #1
     f68:	bb0c0000 	bllt	300f70 <__bss_end__+0x2f64a8>
     f6c:	90000003 	andls	r0, r0, r3
     f70:	d8000005 	stmdale	r0, {r0, r2}
     f74:	d0000085 	andle	r0, r0, r5, lsl #1
     f78:	de000008 	cdple	0, 0, cr0, cr0, cr8, {0}
     f7c:	02000003 	andeq	r0, r0, #3, 0
     f80:	6e690504 	cdpvs	5, 6, cr0, cr9, cr4, {0}
     f84:	04030074 	streq	r0, [r3], #-116	; 0xffffff8c
     f88:	00017c07 	andeq	r7, r1, r7, lsl #24
     f8c:	002c0400 	eoreq	r0, ip, r0, lsl #8
     f90:	01030000 	mrseq	r0, (UNDEF: 3)
     f94:	00015106 	andeq	r5, r1, r6, lsl #2
     f98:	05020300 	streq	r0, [r2, #-768]	; 0xfffffd00
     f9c:	00000011 	andeq	r0, r0, r1, lsl r0
     fa0:	10050403 	andne	r0, r5, r3, lsl #8
     fa4:	03000001 	movweq	r0, #1
     fa8:	010b0508 	tsteq	fp, r8, lsl #10
     fac:	93050000 	movwls	r0, #20480	; 0x5000
     fb0:	02000000 	andeq	r0, r0, #0, 0
     fb4:	0060182e 	rsbeq	r1, r0, lr, lsr #16
     fb8:	01030000 	mrseq	r0, (UNDEF: 3)
     fbc:	00014f08 	andeq	r4, r1, r8, lsl #30
     fc0:	07020300 	streq	r0, [r2, -r0, lsl #6]
     fc4:	000001e9 	andeq	r0, r0, r9, ror #3
     fc8:	00018905 	andeq	r8, r1, r5, lsl #18
     fcc:	19340200 	ldmdbne	r4!, {r9}
     fd0:	0000007a 	andeq	r0, r0, sl, ror r0
     fd4:	77070403 	strvc	r0, [r7, -r3, lsl #8]
     fd8:	03000001 	movweq	r0, #1
     fdc:	01720708 	cmneq	r2, r8, lsl #14
     fe0:	25060000 	strcs	r0, [r6, #-0]
     fe4:	97000000 	strls	r0, [r0, -r0]
     fe8:	07000000 	streq	r0, [r0, -r0]
     fec:	00000025 	andeq	r0, r0, r5, lsr #32
     ff0:	00490800 	subeq	r0, r9, r0, lsl #16
     ff4:	1c030000 	stcne	0, cr0, [r3], {-0}
     ff8:	0000a30e 	andeq	sl, r0, lr, lsl #6
     ffc:	88040900 	stmdahi	r4, {r8, fp}
    1000:	06000000 	streq	r0, [r0], -r0
    1004:	00000025 	andeq	r0, r0, r5, lsr #32
    1008:	000000b8 	strheq	r0, [r0], -r8
    100c:	0000b807 	andeq	fp, r0, r7, lsl #16
    1010:	04090000 	streq	r0, [r9], #-0
    1014:	000000c5 	andeq	r0, r0, r5, asr #1
    1018:	58080103 	stmdapl	r8, {r0, r1, r8}
    101c:	04000001 	streq	r0, [r0], #-1
    1020:	000000be 	strheq	r0, [r0], -lr
    1024:	0007ba08 	andeq	fp, r7, r8, lsl #20
    1028:	0e210300 	cdpeq	3, 2, cr0, cr1, cr0, {0}
    102c:	000000d6 	ldrdeq	r0, [r0], -r6
    1030:	00a90409 	adceq	r0, r9, r9, lsl #8
    1034:	070a0000 	streq	r0, [sl, -r0]
    1038:	00006001 	andeq	r6, r0, r1
    103c:	0e0c0400 	cfcpyseq	mvf0, mvf12
    1040:	0000011b 	andeq	r0, r0, fp, lsl r1
    1044:	0004ab0b 	andeq	sl, r4, fp, lsl #22
    1048:	df0b0000 	svcle	0x000b0000
    104c:	01000003 	tsteq	r0, r3
    1050:	0003f80b 	andeq	pc, r3, fp, lsl #16
    1054:	070b0400 	streq	r0, [fp, -r0, lsl #8]
    1058:	05000004 	streq	r0, [r0, #-4]
    105c:	0004160b 	andeq	r1, r4, fp, lsl #12
    1060:	250b0600 	strcs	r0, [fp, #-1536]	; 0xfffffa00
    1064:	07000004 	streq	r0, [r0, -r4]
    1068:	0004340b 	andeq	r3, r4, fp, lsl #8
    106c:	430b0300 	movwmi	r0, #45824	; 0xb300
    1070:	02000004 	andeq	r0, r0, #4, 0
    1074:	01040c00 	tsteq	r4, r0, lsl #24
    1078:	01d40959 	bicseq	r0, r4, r9, asr r9
    107c:	960d0000 	strls	r0, [sp], -r0
    1080:	01000003 	tsteq	r0, r3
    1084:	006e0b5a 	rsbeq	r0, lr, sl, asr fp
    1088:	01040000 	mrseq	r0, (UNDEF: 4)
    108c:	720d001f 	andvc	r0, sp, #31, 0
    1090:	01000005 	tsteq	r0, r5
    1094:	006e035c 	rsbeq	r0, lr, ip, asr r3
    1098:	03040000 	movweq	r0, #16384	; 0x4000
    109c:	a00d001c 	andge	r0, sp, ip, lsl r0
    10a0:	01000004 	tsteq	r0, r4
    10a4:	006e035d 	rsbeq	r0, lr, sp, asr r3
    10a8:	02040000 	andeq	r0, r4, #0, 0
    10ac:	7c0d001a 	stcvc	0, cr0, [sp], {26}
    10b0:	01000005 	tsteq	r0, r5
    10b4:	006e0363 	rsbeq	r0, lr, r3, ror #6
    10b8:	01040000 	mrseq	r0, (UNDEF: 4)
    10bc:	730e0019 	movwvc	r0, #57369	; 0xe019
    10c0:	64010074 	strvs	r0, [r1], #-116	; 0xffffff8c
    10c4:	00006e03 	andeq	r6, r0, r3, lsl #28
    10c8:	18010400 	stmdane	r1, {sl}
    10cc:	04bb0d00 	ldrteq	r0, [fp], #3328	; 0xd00
    10d0:	68010000 	stmdavs	r1, {}	; <UNPREDICTABLE>
    10d4:	00006e03 	andeq	r6, r0, r3, lsl #28
    10d8:	17010400 	strne	r0, [r1, -r0, lsl #8]
    10dc:	04d00d00 	ldrbeq	r0, [r0], #3328	; 0xd00
    10e0:	6b010000 	blvs	410e8 <__bss_end__+0x36620>
    10e4:	00006e03 	andeq	r6, r0, r3, lsl #28
    10e8:	16010400 	strne	r0, [r1], -r0, lsl #8
    10ec:	04cb0d00 	strbeq	r0, [fp], #3328	; 0xd00
    10f0:	6e010000 	cdpvs	0, 0, cr0, cr1, cr0, {0}
    10f4:	00006e03 	andeq	r6, r0, r3, lsl #28
    10f8:	15010400 	strne	r0, [r1, #-1024]	; 0xfffffc00
    10fc:	05860d00 	streq	r0, [r6, #3328]	; 0xd00
    1100:	71010000 	mrsvc	r0, (UNDEF: 1)
    1104:	00006e03 	andeq	r6, r0, r3, lsl #28
    1108:	11040400 	tstne	r4, r0, lsl #8
    110c:	050e0d00 	streq	r0, [lr, #-3328]	; 0xfffff300
    1110:	72010000 	andvc	r0, r1, #0, 0
    1114:	00006e03 	andeq	r6, r0, r3, lsl #28
    1118:	10010400 	andne	r0, r1, r0, lsl #8
    111c:	039b0d00 	orrseq	r0, fp, #0, 26
    1120:	75010000 	strvc	r0, [r1, #-0]
    1124:	00006e03 	andeq	r6, r0, r3, lsl #28
    1128:	00100400 	andseq	r0, r0, r0, lsl #8
    112c:	78050000 	stmdavc	r5, {}	; <UNPREDICTABLE>
    1130:	01000004 	tsteq	r0, r4
    1134:	011b0376 	tsteq	fp, r6, ror r3
    1138:	d40f0000 	strle	r0, [pc], #-0	; 1140 <__code_start__-0x6ec0>
    113c:	0c000001 	stceq	0, cr0, [r0], {1}
    1140:	09840104 	stmibeq	r4, {r2, r8}
    1144:	0000029e 	muleq	r0, lr, r2
    1148:	0061740e 	rsbeq	r7, r1, lr, lsl #8
    114c:	2c0b8501 	cfstr32cs	mvfx8, [fp], {1}
    1150:	04000000 	streq	r0, [r0], #-0
    1154:	0d001f01 	stceq	15, cr1, [r0, #-4]
    1158:	000004a6 	andeq	r0, r0, r6, lsr #9
    115c:	2c038801 	stccs	8, cr8, [r3], {1}
    1160:	04000000 	streq	r0, [r0], #-0
    1164:	0e001e01 	cdpeq	14, 0, cr1, cr0, cr1, {0}
    1168:	00777874 	rsbseq	r7, r7, r4, ror r8
    116c:	2c038c01 	stccs	12, cr8, [r3], {1}
    1170:	04000000 	streq	r0, [r0], #-0
    1174:	0e001d01 	cdpeq	13, 0, cr1, cr0, cr1, {0}
    1178:	00727872 	rsbseq	r7, r2, r2, ror r8
    117c:	2c039201 	sfmcs	f1, 1, [r3], {1}
    1180:	04000000 	streq	r0, [r0], #-0
    1184:	0e001c01 	cdpeq	12, 0, cr1, cr0, cr1, {0}
    1188:	00647874 	rsbeq	r7, r4, r4, ror r8
    118c:	2c039801 	stccs	8, cr9, [r3], {1}
    1190:	04000000 	streq	r0, [r0], #-0
    1194:	0e001b01 	vmlaeq.f64	d1, d0, d1
    1198:	00647872 	rsbeq	r7, r4, r2, ror r8
    119c:	2c039b01 			; <UNDEFINED> instruction: 0x2c039b01
    11a0:	04000000 	streq	r0, [r0], #-0
    11a4:	0e001a01 	vmlaeq.f32	s2, s0, s2
    11a8:	00657874 	rsbeq	r7, r5, r4, ror r8
    11ac:	2c039f01 	stccs	15, cr9, [r3], {1}
    11b0:	04000000 	streq	r0, [r0], #-0
    11b4:	0e001901 	vmlaeq.f16	s2, s0, s2	; <UNPREDICTABLE>
    11b8:	00667872 	rsbeq	r7, r6, r2, ror r8
    11bc:	2c03a401 	cfstrscs	mvf10, [r3], {1}
    11c0:	04000000 	streq	r0, [r0], #-0
    11c4:	0e001801 	cdpeq	8, 0, cr1, cr0, cr1, {0}
    11c8:	00727265 	rsbseq	r7, r2, r5, ror #4
    11cc:	2c03a701 	stccs	7, cr10, [r3], {1}
    11d0:	04000000 	streq	r0, [r0], #-0
    11d4:	0d001701 	stceq	7, cr1, [r0, #-4]
    11d8:	0000053c 	andeq	r0, r0, ip, lsr r5
    11dc:	2c03ab01 			; <UNDEFINED> instruction: 0x2c03ab01
    11e0:	04000000 	streq	r0, [r0], #-0
    11e4:	0d001601 	stceq	6, cr1, [r0, #-4]
    11e8:	00000572 	andeq	r0, r0, r2, ror r5
    11ec:	2c03b001 	stccs	0, cr11, [r3], {1}
    11f0:	04000000 	streq	r0, [r0], #-0
    11f4:	00000016 	andeq	r0, r0, r6, lsl r0
    11f8:	00045205 	andeq	r5, r4, r5, lsl #4
    11fc:	03b10100 			; <UNDEFINED> instruction: 0x03b10100
    1200:	000001e5 	andeq	r0, r0, r5, ror #3
    1204:	00029e0f 	andeq	r9, r2, pc, lsl #28
    1208:	05061000 	streq	r1, [r6, #-0]
    120c:	01200000 			; <UNDEFINED> instruction: 0x01200000
    1210:	032510bc 			; <UNDEFINED> instruction: 0x032510bc
    1214:	da110000 	ble	44121c <__bss_end__+0x436754>
    1218:	01000004 	tsteq	r0, r4
    121c:	01d40dbd 	ldrheq	r0, [r4, #221]	; 0xdd
    1220:	11000000 	mrsne	r0, (UNDEF: 0)
    1224:	000005cb 	andeq	r0, r0, fp, asr #11
    1228:	9e0dbe01 	cdpls	14, 0, cr11, cr13, cr1, {0}
    122c:	04000002 	streq	r0, [r0], #-2
    1230:	00046d11 	andeq	r6, r4, r1, lsl sp
    1234:	0bc10100 	bleq	ff04163c <__bss_end__+0xff036b74>
    1238:	0000006e 	andeq	r0, r0, lr, rrx
    123c:	03441108 	movteq	r1, #16648	; 0x4108
    1240:	ca010000 	bgt	41248 <__bss_end__+0x36780>
    1244:	00006e0c 	andeq	r6, r0, ip, lsl #28
    1248:	d5110c00 	ldrle	r0, [r1, #-3072]	; 0xfffff400
    124c:	01000004 	tsteq	r0, r4
    1250:	006e0bcc 	rsbeq	r0, lr, ip, asr #23
    1254:	11100000 	tstne	r0, r0
    1258:	00000496 	muleq	r0, r6, r4
    125c:	6e0bce01 	cdpvs	14, 0, cr12, cr11, cr1, {0}
    1260:	14000000 	strne	r0, [r0], #-0
    1264:	0005d211 	andeq	sp, r5, r1, lsl r2
    1268:	0bd00100 	bleq	ff401670 <__bss_end__+0xff3f6ba8>
    126c:	0000006e 	andeq	r0, r0, lr, rrx
    1270:	03c11118 	biceq	r1, r1, #6
    1274:	d2010000 	andle	r0, r1, #0, 0
    1278:	00006e0b 	andeq	r6, r0, fp, lsl #28
    127c:	05001c00 	streq	r1, [r0, #-3072]	; 0xfffff400
    1280:	00000506 	andeq	r0, r0, r6, lsl #10
    1284:	af03d301 	svcge	0x0003d301
    1288:	0f000002 	svceq	0x00000002
    128c:	00000325 	andeq	r0, r0, r5, lsr #6
    1290:	63326912 	teqvs	r2, #294912	; 0x48000
    1294:	1ad70100 	bne	ff5c169c <__bss_end__+0xff5b6bd4>
    1298:	00000342 	andeq	r0, r0, r2, asr #6
    129c:	03310409 	teqeq	r1, #150994944	; 0x9000000
    12a0:	ad130000 	ldcge	0, cr0, [r3, #-0]
    12a4:	01000003 	tsteq	r0, r3
    12a8:	250c017e 	strcs	r0, [ip, #-382]	; 0xfffffe82
    12ac:	05000000 	streq	r0, [r0, #-0]
    12b0:	00a6c003 	adceq	ip, r6, r3
    12b4:	04891400 	streq	r1, [r9], #1024	; 0x400
    12b8:	b1010000 	mrslt	r0, (UNDEF: 1)
    12bc:	85f40d01 	ldrbhi	r0, [r4, #3329]!	; 0xd01
    12c0:	00080000 	andeq	r0, r8, r0
    12c4:	9c010000 	stcls	0, cr0, [r1], {-0}
    12c8:	00000a62 	andeq	r0, r0, r2, ror #20
    12cc:	00012f15 	andeq	r2, r1, r5, lsl pc
    12d0:	000a7200 	andeq	r7, sl, r0, lsl #4
    12d4:	bc030500 	cfstr32lt	mvfx0, [r3], {-0}
    12d8:	160000a4 	strne	r0, [r0], -r4, lsr #1
    12dc:	000085f8 	strdeq	r8, [r0], -r8	; <UNPREDICTABLE>
    12e0:	00000000 	andeq	r0, r0, r0
    12e4:	000003e8 	andeq	r0, r0, r8, ror #7
    12e8:	00755f17 	rsbseq	r5, r5, r7, lsl pc
    12ec:	01bc0104 			; <UNDEFINED> instruction: 0x01bc0104
    12f0:	0003b202 	andeq	fp, r3, r2, lsl #4
    12f4:	00731800 	rsbseq	r1, r3, r0, lsl #16
    12f8:	0201bc01 	andeq	fp, r1, #256	; 0x100
    12fc:	000001d4 	ldrdeq	r0, [r0], -r4
    1300:	01007518 	tsteq	r0, r8, lsl r5
    1304:	2c0201bc 	stfcss	f0, [r2], {188}	; 0xbc
    1308:	00000000 	andeq	r0, r0, r0
    130c:	01007819 	tsteq	r0, r9, lsl r8
    1310:	8e0201bc 	mcrhi	1, 0, r0, cr2, cr12, {5}
    1314:	1a000003 	bne	1328 <__code_start__-0x6cd8>
    1318:	00707865 	rsbseq	r7, r0, r5, ror #16
    131c:	0201bc01 	andeq	fp, r1, #256	; 0x100
    1320:	0000002c 	andeq	r0, r0, ip, lsr #32
    1324:	04831b01 	streq	r1, [r3], #2817	; 0xb01
    1328:	bc010000 	stclt	0, cr0, [r1], {-0}
    132c:	002c0201 	eoreq	r0, ip, r1, lsl #4
    1330:	1b1f0000 	blne	7c1338 <__bss_end__+0x7b6870>
    1334:	000003a5 	andeq	r0, r0, r5, lsr #7
    1338:	0201bc01 	andeq	fp, r1, #256	; 0x100
    133c:	0000002c 	andeq	r0, r0, ip, lsr #32
    1340:	f8160001 			; <UNDEFINED> instruction: 0xf8160001
    1344:	00000085 	andeq	r0, r0, r5, lsl #1
    1348:	58000000 	stmdapl	r0, {}	; <UNPREDICTABLE>
    134c:	17000004 	strne	r0, [r0, -r4]
    1350:	0400755f 	streq	r7, [r0], #-1375	; 0xfffffaa1
    1354:	0201bd01 	andeq	fp, r1, #64	; 0x40
    1358:	00000419 	andeq	r0, r0, r9, lsl r4
    135c:	01007318 	tsteq	r0, r8, lsl r3
    1360:	d40201bd 	strle	r0, [r2], #-445	; 0xfffffe43
    1364:	18000001 	stmdane	r0, {r0}
    1368:	bd010075 	stclt	0, cr0, [r1, #-468]	; 0xfffffe2c
    136c:	002c0201 	eoreq	r0, ip, r1, lsl #4
    1370:	1c000000 	stcne	0, cr0, [r0], {-0}
    1374:	bd010078 	stclt	0, cr0, [r1, #-480]	; 0xfffffe20
    1378:	03f50201 	mvnseq	r0, #268435456	; 0x10000000
    137c:	53010000 	movwpl	r0, #4096	; 0x1000
    1380:	7078651d 	rsbsvc	r6, r8, sp, lsl r5
    1384:	01bd0100 			; <UNDEFINED> instruction: 0x01bd0100
    1388:	00002c02 	andeq	r2, r0, r2, lsl #24
    138c:	0007a700 	andeq	sl, r7, r0, lsl #14
    1390:	0007a300 	andeq	sl, r7, r0, lsl #6
    1394:	04831b00 	streq	r1, [r3], #2816	; 0xb00
    1398:	bd010000 	stclt	0, cr0, [r1, #-0]
    139c:	002c0201 	eoreq	r0, ip, r1, lsl #4
    13a0:	1b1e0000 	blne	7813a8 <__bss_end__+0x7768e0>
    13a4:	000003a5 	andeq	r0, r0, r5, lsr #7
    13a8:	0201bd01 	andeq	fp, r1, #64	; 0x40
    13ac:	0000002c 	andeq	r0, r0, ip, lsr #32
    13b0:	f8160003 			; <UNDEFINED> instruction: 0xf8160003
    13b4:	00000085 	andeq	r0, r0, r5, lsl #1
    13b8:	bf000000 	svclt	0x00000000
    13bc:	17000004 	strne	r0, [r0, -r4]
    13c0:	0400755f 	streq	r7, [r0], #-1375	; 0xfffffaa1
    13c4:	0201be01 	andeq	fp, r1, #1, 28
    13c8:	00000489 	andeq	r0, r0, r9, lsl #9
    13cc:	01007318 	tsteq	r0, r8, lsl r3
    13d0:	d40201be 	strle	r0, [r2], #-446	; 0xfffffe42
    13d4:	18000001 	stmdane	r0, {r0}
    13d8:	be010075 	mcrlt	0, 0, r0, cr1, cr5, {3}
    13dc:	002c0201 	eoreq	r0, ip, r1, lsl #4
    13e0:	19000000 	stmdbne	r0, {}	; <UNPREDICTABLE>
    13e4:	be010078 	mcrlt	0, 0, r0, cr1, cr8, {3}
    13e8:	04650201 	strbteq	r0, [r5], #-513	; 0xfffffdff
    13ec:	651a0000 	ldrvs	r0, [sl, #-0]
    13f0:	01007078 	tsteq	r0, r8, ror r0
    13f4:	2c0201be 	stfcss	f0, [r2], {190}	; 0xbe
    13f8:	80000000 	andhi	r0, r0, r0
    13fc:	0004831b 	andeq	r8, r4, fp, lsl r3
    1400:	01be0100 			; <UNDEFINED> instruction: 0x01be0100
    1404:	00002c02 	andeq	r2, r0, r2, lsl #24
    1408:	a51b1f00 	ldrge	r1, [fp, #-3840]	; 0xfffff100
    140c:	01000003 	tsteq	r0, r3
    1410:	2c0201be 	stfcss	f0, [r2], {190}	; 0xbe
    1414:	01000000 	mrseq	r0, (UNDEF: 0)
    1418:	85f81600 	ldrbhi	r1, [r8, #1536]!	; 0x600
    141c:	00000000 	andeq	r0, r0, r0
    1420:	05270000 	streq	r0, [r7, #-0]!
    1424:	5f170000 	svcpl	0x00170000
    1428:	01040075 	tsteq	r4, r5, ror r0
    142c:	f00201bf 			; <UNDEFINED> instruction: 0xf00201bf
    1430:	18000004 	stmdane	r0, {r2}
    1434:	bf010073 	svclt	0x00010073
    1438:	01d40201 	bicseq	r0, r4, r1, lsl #4
    143c:	75180000 	ldrvc	r0, [r8, #-0]
    1440:	01bf0100 			; <UNDEFINED> instruction: 0x01bf0100
    1444:	00002c02 	andeq	r2, r0, r2, lsl #24
    1448:	78190000 	ldmdavc	r9, {}	; <UNPREDICTABLE>
    144c:	01bf0100 			; <UNDEFINED> instruction: 0x01bf0100
    1450:	0004cc02 	andeq	ip, r4, r2, lsl #24
    1454:	78651e00 	stmdavc	r5!, {r9, sl, fp, ip}^
    1458:	bf010070 	svclt	0x00010070
    145c:	002c0201 	eoreq	r0, ip, r1, lsl #4
    1460:	01000000 	mrseq	r0, (UNDEF: 0)
    1464:	0004831b 	andeq	r8, r4, fp, lsl r3
    1468:	01bf0100 			; <UNDEFINED> instruction: 0x01bf0100
    146c:	00002c02 	andeq	r2, r0, r2, lsl #24
    1470:	a51b1f00 	ldrge	r1, [fp, #-3840]	; 0xfffff100
    1474:	01000003 	tsteq	r0, r3
    1478:	2c0201bf 	stfcss	f0, [r2], {191}	; 0xbf
    147c:	01000000 	mrseq	r0, (UNDEF: 0)
    1480:	85f81600 	ldrbhi	r1, [r8, #1536]!	; 0x600
    1484:	00000000 	andeq	r0, r0, r0
    1488:	058f0000 	streq	r0, [pc]	; 1490 <__code_start__-0x6b70>
    148c:	5f170000 	svcpl	0x00170000
    1490:	01040075 	tsteq	r4, r5, ror r0
    1494:	580201c0 	stmdapl	r2, {r6, r7, r8}
    1498:	18000005 	stmdane	r0, {r0, r2}
    149c:	c0010073 	andgt	r0, r1, r3, ror r0
    14a0:	01d40201 	bicseq	r0, r4, r1, lsl #4
    14a4:	75180000 	ldrvc	r0, [r8, #-0]
    14a8:	01c00100 	biceq	r0, r0, r0, lsl #2
    14ac:	00002c02 	andeq	r2, r0, r2, lsl #24
    14b0:	78190000 	ldmdavc	r9, {}	; <UNPREDICTABLE>
    14b4:	01c00100 	biceq	r0, r0, r0, lsl #2
    14b8:	00053402 	andeq	r3, r5, r2, lsl #8
    14bc:	78651e00 	stmdavc	r5!, {r9, sl, fp, ip}^
    14c0:	c0010070 	andgt	r0, r1, r0, ror r0
    14c4:	002c0201 	eoreq	r0, ip, r1, lsl #4
    14c8:	02000000 	andeq	r0, r0, #0, 0
    14cc:	0004831b 	andeq	r8, r4, fp, lsl r3
    14d0:	01c00100 	biceq	r0, r0, r0, lsl #2
    14d4:	00002c02 	andeq	r2, r0, r2, lsl #24
    14d8:	a51b1f00 	ldrge	r1, [fp, #-3840]	; 0xfffff100
    14dc:	01000003 	tsteq	r0, r3
    14e0:	2c0201c0 	stfcss	f0, [r2], {192}	; 0xc0
    14e4:	01000000 	mrseq	r0, (UNDEF: 0)
    14e8:	85f81600 	ldrbhi	r1, [r8, #1536]!	; 0x600
    14ec:	00000000 	andeq	r0, r0, r0
    14f0:	05f70000 	ldrbeq	r0, [r7, #0]!
    14f4:	5f170000 	svcpl	0x00170000
    14f8:	01040075 	tsteq	r4, r5, ror r0
    14fc:	c00201c1 	andgt	r0, r2, r1, asr #3
    1500:	18000005 	stmdane	r0, {r0, r2}
    1504:	c1010073 	tstgt	r1, r3, ror r0
    1508:	01d40201 	bicseq	r0, r4, r1, lsl #4
    150c:	75180000 	ldrvc	r0, [r8, #-0]
    1510:	01c10100 	biceq	r0, r1, r0, lsl #2
    1514:	00002c02 	andeq	r2, r0, r2, lsl #24
    1518:	78190000 	ldmdavc	r9, {}	; <UNPREDICTABLE>
    151c:	01c10100 	biceq	r0, r1, r0, lsl #2
    1520:	00059c02 	andeq	r9, r5, r2, lsl #24
    1524:	78651e00 	stmdavc	r5!, {r9, sl, fp, ip}^
    1528:	c1010070 	tstgt	r1, r0, ror r0
    152c:	002c0201 	eoreq	r0, ip, r1, lsl #4
    1530:	04000000 	streq	r0, [r0], #-0
    1534:	0004831b 	andeq	r8, r4, fp, lsl r3
    1538:	01c10100 	biceq	r0, r1, r0, lsl #2
    153c:	00002c02 	andeq	r2, r0, r2, lsl #24
    1540:	a51b1f00 	ldrge	r1, [fp, #-3840]	; 0xfffff100
    1544:	01000003 	tsteq	r0, r3
    1548:	2c0201c1 	stfcss	f0, [r2], {193}	; 0xc1
    154c:	01000000 	mrseq	r0, (UNDEF: 0)
    1550:	85f81600 	ldrbhi	r1, [r8, #1536]!	; 0x600
    1554:	00000000 	andeq	r0, r0, r0
    1558:	065f0000 	ldrbeq	r0, [pc], -r0
    155c:	5f170000 	svcpl	0x00170000
    1560:	01040075 	tsteq	r4, r5, ror r0
    1564:	280201c2 	stmdacs	r2, {r1, r6, r7, r8}
    1568:	18000006 	stmdane	r0, {r1, r2}
    156c:	c2010073 	andgt	r0, r1, #115, 0	; 0x73
    1570:	01d40201 	bicseq	r0, r4, r1, lsl #4
    1574:	75180000 	ldrvc	r0, [r8, #-0]
    1578:	01c20100 	biceq	r0, r2, r0, lsl #2
    157c:	00002c02 	andeq	r2, r0, r2, lsl #24
    1580:	78190000 	ldmdavc	r9, {}	; <UNPREDICTABLE>
    1584:	01c20100 	biceq	r0, r2, r0, lsl #2
    1588:	00060402 	andeq	r0, r6, r2, lsl #8
    158c:	78651e00 	stmdavc	r5!, {r9, sl, fp, ip}^
    1590:	c2010070 	andgt	r0, r1, #112, 0	; 0x70
    1594:	002c0201 	eoreq	r0, ip, r1, lsl #4
    1598:	80000000 	andhi	r0, r0, r0
    159c:	0004831b 	andeq	r8, r4, fp, lsl r3
    15a0:	01c20100 	biceq	r0, r2, r0, lsl #2
    15a4:	00002c02 	andeq	r2, r0, r2, lsl #24
    15a8:	a51b1f00 	ldrge	r1, [fp, #-3840]	; 0xfffff100
    15ac:	01000003 	tsteq	r0, r3
    15b0:	2c0201c2 	stfcss	f0, [r2], {194}	; 0xc2
    15b4:	01000000 	mrseq	r0, (UNDEF: 0)
    15b8:	85f81600 	ldrbhi	r1, [r8, #1536]!	; 0x600
    15bc:	00000000 	andeq	r0, r0, r0
    15c0:	06c60000 	strbeq	r0, [r6], r0
    15c4:	5f170000 	svcpl	0x00170000
    15c8:	01040075 	tsteq	r4, r5, ror r0
    15cc:	900201c5 	andls	r0, r2, r5, asr #3
    15d0:	18000006 	stmdane	r0, {r1, r2}
    15d4:	c5010073 	strgt	r0, [r1, #-115]	; 0xffffff8d
    15d8:	029e0201 	addseq	r0, lr, #268435456	; 0x10000000
    15dc:	75180000 	ldrvc	r0, [r8, #-0]
    15e0:	01c50100 	biceq	r0, r5, r0, lsl #2
    15e4:	00002c02 	andeq	r2, r0, r2, lsl #24
    15e8:	78190000 	ldmdavc	r9, {}	; <UNPREDICTABLE>
    15ec:	01c50100 	biceq	r0, r5, r0, lsl #2
    15f0:	00066c02 	andeq	r6, r6, r2, lsl #24
    15f4:	78651a00 	stmdavc	r5!, {r9, fp, ip}^
    15f8:	c5010070 	strgt	r0, [r1, #-112]	; 0xffffff90
    15fc:	002c0201 	eoreq	r0, ip, r1, lsl #4
    1600:	1b010000 	blne	41608 <__bss_end__+0x36b40>
    1604:	00000483 	andeq	r0, r0, r3, lsl #9
    1608:	0201c501 	andeq	ip, r1, #4194304	; 0x400000
    160c:	0000002c 	andeq	r0, r0, ip, lsr #32
    1610:	03a51b1f 			; <UNDEFINED> instruction: 0x03a51b1f
    1614:	c5010000 	strgt	r0, [r1, #-0]
    1618:	002c0201 	eoreq	r0, ip, r1, lsl #4
    161c:	00010000 	andeq	r0, r1, r0
    1620:	0085f816 	addeq	pc, r5, r6, lsl r8	; <UNPREDICTABLE>
    1624:	00000000 	andeq	r0, r0, r0
    1628:	00072d00 	andeq	r2, r7, r0, lsl #26
    162c:	755f1700 	ldrbvc	r1, [pc, #-1792]	; f34 <__code_start__-0x70cc>
    1630:	c6010400 	strgt	r0, [r1], -r0, lsl #8
    1634:	06f70201 	ldrbteq	r0, [r7], r1, lsl #4
    1638:	73180000 	tstvc	r8, #0, 0
    163c:	01c60100 	biceq	r0, r6, r0, lsl #2
    1640:	00029e02 	andeq	r9, r2, r2, lsl #28
    1644:	00751800 	rsbseq	r1, r5, r0, lsl #16
    1648:	0201c601 	andeq	ip, r1, #1048576	; 0x100000
    164c:	0000002c 	andeq	r0, r0, ip, lsr #32
    1650:	00781900 	rsbseq	r1, r8, r0, lsl #18
    1654:	0201c601 	andeq	ip, r1, #1048576	; 0x100000
    1658:	000006d3 	ldrdeq	r0, [r0], -r3
    165c:	7078651a 	rsbsvc	r6, r8, sl, lsl r5
    1660:	01c60100 	biceq	r0, r6, r0, lsl #2
    1664:	00002c02 	andeq	r2, r0, r2, lsl #24
    1668:	831b0200 	tsthi	fp, #0, 4
    166c:	01000004 	tsteq	r0, r4
    1670:	2c0201c6 	stfcss	f0, [r2], {198}	; 0xc6
    1674:	1f000000 	svcne	0x00000000
    1678:	0003a51b 	andeq	sl, r3, fp, lsl r5
    167c:	01c60100 	biceq	r0, r6, r0, lsl #2
    1680:	00002c02 	andeq	r2, r0, r2, lsl #24
    1684:	16000100 	strne	r0, [r0], -r0, lsl #2
    1688:	000085f8 	strdeq	r8, [r0], -r8	; <UNPREDICTABLE>
    168c:	00000000 	andeq	r0, r0, r0
    1690:	00000794 	muleq	r0, r4, r7
    1694:	00755f17 	rsbseq	r5, r5, r7, lsl pc
    1698:	01c70104 	biceq	r0, r7, r4, lsl #2
    169c:	00075e02 	andeq	r5, r7, r2, lsl #28
    16a0:	00731800 	rsbseq	r1, r3, r0, lsl #16
    16a4:	0201c701 	andeq	ip, r1, #262144	; 0x40000
    16a8:	0000029e 	muleq	r0, lr, r2
    16ac:	01007518 	tsteq	r0, r8, lsl r5
    16b0:	2c0201c7 	stfcss	f0, [r2], {199}	; 0xc7
    16b4:	00000000 	andeq	r0, r0, r0
    16b8:	01007819 	tsteq	r0, r9, lsl r8
    16bc:	3a0201c7 	bcc	81de0 <__bss_end__+0x77318>
    16c0:	1a000007 	bne	16e4 <__code_start__-0x691c>
    16c4:	00707865 	rsbseq	r7, r0, r5, ror #16
    16c8:	0201c701 	andeq	ip, r1, #262144	; 0x40000
    16cc:	0000002c 	andeq	r0, r0, ip, lsr #32
    16d0:	04831b04 	streq	r1, [r3], #2820	; 0xb04
    16d4:	c7010000 	strgt	r0, [r1, -r0]
    16d8:	002c0201 	eoreq	r0, ip, r1, lsl #4
    16dc:	1b1f0000 	blne	7c16e4 <__bss_end__+0x7b6c1c>
    16e0:	000003a5 	andeq	r0, r0, r5, lsr #7
    16e4:	0201c701 	andeq	ip, r1, #262144	; 0x40000
    16e8:	0000002c 	andeq	r0, r0, ip, lsr #32
    16ec:	f8160001 			; <UNDEFINED> instruction: 0xf8160001
    16f0:	00000085 	andeq	r0, r0, r5, lsl #1
    16f4:	fb000000 	blx	16fe <__code_start__-0x6902>
    16f8:	17000007 	strne	r0, [r0, -r7]
    16fc:	0400755f 	streq	r7, [r0], #-1375	; 0xfffffaa1
    1700:	0201c801 	andeq	ip, r1, #65536	; 0x10000
    1704:	000007c5 	andeq	r0, r0, r5, asr #15
    1708:	01007318 	tsteq	r0, r8, lsl r3
    170c:	9e0201c8 	adflsdm	f0, f2, #0.0
    1710:	18000002 	stmdane	r0, {r1}
    1714:	c8010075 	stmdagt	r1, {r0, r2, r4, r5, r6}
    1718:	002c0201 	eoreq	r0, ip, r1, lsl #4
    171c:	19000000 	stmdbne	r0, {}	; <UNPREDICTABLE>
    1720:	c8010078 	stmdagt	r1, {r3, r4, r5, r6}
    1724:	07a10201 	streq	r0, [r1, r1, lsl #4]!
    1728:	651a0000 	ldrvs	r0, [sl, #-0]
    172c:	01007078 	tsteq	r0, r8, ror r0
    1730:	2c0201c8 	stfcss	f0, [r2], {200}	; 0xc8
    1734:	08000000 	stmdaeq	r0, {}	; <UNPREDICTABLE>
    1738:	0004831b 	andeq	r8, r4, fp, lsl r3
    173c:	01c80100 	biceq	r0, r8, r0, lsl #2
    1740:	00002c02 	andeq	r2, r0, r2, lsl #24
    1744:	a51b1f00 	ldrge	r1, [fp, #-3840]	; 0xfffff100
    1748:	01000003 	tsteq	r0, r3
    174c:	2c0201c8 	stfcss	f0, [r2], {200}	; 0xc8
    1750:	01000000 	mrseq	r0, (UNDEF: 0)
    1754:	85f81600 	ldrbhi	r1, [r8, #1536]!	; 0x600
    1758:	00000000 	andeq	r0, r0, r0
    175c:	08620000 	stmdaeq	r2!, {}^	; <UNPREDICTABLE>
    1760:	5f170000 	svcpl	0x00170000
    1764:	01040075 	tsteq	r4, r5, ror r0
    1768:	2c0201c9 	stfcss	f0, [r2], {201}	; 0xc9
    176c:	18000008 	stmdane	r0, {r3}
    1770:	c9010073 	stmdbgt	r1, {r0, r1, r4, r5, r6}
    1774:	029e0201 	addseq	r0, lr, #268435456	; 0x10000000
    1778:	75180000 	ldrvc	r0, [r8, #-0]
    177c:	01c90100 	biceq	r0, r9, r0, lsl #2
    1780:	00002c02 	andeq	r2, r0, r2, lsl #24
    1784:	78190000 	ldmdavc	r9, {}	; <UNPREDICTABLE>
    1788:	01c90100 	biceq	r0, r9, r0, lsl #2
    178c:	00080802 	andeq	r0, r8, r2, lsl #16
    1790:	78651a00 	stmdavc	r5!, {r9, fp, ip}^
    1794:	c9010070 	stmdbgt	r1, {r4, r5, r6}
    1798:	002c0201 	eoreq	r0, ip, r1, lsl #4
    179c:	1b100000 	blne	4017a4 <__bss_end__+0x3f6cdc>
    17a0:	00000483 	andeq	r0, r0, r3, lsl #9
    17a4:	0201c901 	andeq	ip, r1, #16384	; 0x4000
    17a8:	0000002c 	andeq	r0, r0, ip, lsr #32
    17ac:	03a51b1f 			; <UNDEFINED> instruction: 0x03a51b1f
    17b0:	c9010000 	stmdbgt	r1, {}	; <UNPREDICTABLE>
    17b4:	002c0201 	eoreq	r0, ip, r1, lsl #4
    17b8:	00010000 	andeq	r0, r1, r0
    17bc:	0085f816 	addeq	pc, r5, r6, lsl r8	; <UNPREDICTABLE>
    17c0:	00000000 	andeq	r0, r0, r0
    17c4:	0008c900 	andeq	ip, r8, r0, lsl #18
    17c8:	755f1700 	ldrbvc	r1, [pc, #-1792]	; 10d0 <__code_start__-0x6f30>
    17cc:	ca010400 	bgt	427d4 <__bss_end__+0x37d0c>
    17d0:	08930201 	ldmeq	r3, {r0, r9}
    17d4:	73180000 	tstvc	r8, #0, 0
    17d8:	01ca0100 	biceq	r0, sl, r0, lsl #2
    17dc:	00029e02 	andeq	r9, r2, r2, lsl #28
    17e0:	00751800 	rsbseq	r1, r5, r0, lsl #16
    17e4:	0201ca01 	andeq	ip, r1, #4096	; 0x1000
    17e8:	0000002c 	andeq	r0, r0, ip, lsr #32
    17ec:	00781900 	rsbseq	r1, r8, r0, lsl #18
    17f0:	0201ca01 	andeq	ip, r1, #4096	; 0x1000
    17f4:	0000086f 	andeq	r0, r0, pc, ror #16
    17f8:	7078651a 	rsbsvc	r6, r8, sl, lsl r5
    17fc:	01ca0100 	biceq	r0, sl, r0, lsl #2
    1800:	00002c02 	andeq	r2, r0, r2, lsl #24
    1804:	831b2000 	tsthi	fp, #0, 0
    1808:	01000004 	tsteq	r0, r4
    180c:	2c0201ca 	stfcss	f0, [r2], {202}	; 0xca
    1810:	1f000000 	svcne	0x00000000
    1814:	0003a51b 	andeq	sl, r3, fp, lsl r5
    1818:	01ca0100 	biceq	r0, sl, r0, lsl #2
    181c:	00002c02 	andeq	r2, r0, r2, lsl #24
    1820:	16000100 	strne	r0, [r0], -r0, lsl #2
    1824:	000085f8 	strdeq	r8, [r0], -r8	; <UNPREDICTABLE>
    1828:	00000000 	andeq	r0, r0, r0
    182c:	00000930 	andeq	r0, r0, r0, lsr r9
    1830:	00755f17 	rsbseq	r5, r5, r7, lsl pc
    1834:	01cb0104 	biceq	r0, fp, r4, lsl #2
    1838:	0008fa02 	andeq	pc, r8, r2, lsl #20
    183c:	00731800 	rsbseq	r1, r3, r0, lsl #16
    1840:	0201cb01 	andeq	ip, r1, #1024	; 0x400
    1844:	0000029e 	muleq	r0, lr, r2
    1848:	01007518 	tsteq	r0, r8, lsl r5
    184c:	2c0201cb 	stfcss	f0, [r2], {203}	; 0xcb
    1850:	00000000 	andeq	r0, r0, r0
    1854:	01007819 	tsteq	r0, r9, lsl r8
    1858:	d60201cb 	strle	r0, [r2], -fp, asr #3
    185c:	1a000008 	bne	1884 <__code_start__-0x677c>
    1860:	00707865 	rsbseq	r7, r0, r5, ror #16
    1864:	0201cb01 	andeq	ip, r1, #1024	; 0x400
    1868:	0000002c 	andeq	r0, r0, ip, lsr #32
    186c:	04831b40 	streq	r1, [r3], #2880	; 0xb40
    1870:	cb010000 	blgt	41878 <__bss_end__+0x36db0>
    1874:	002c0201 	eoreq	r0, ip, r1, lsl #4
    1878:	1b1f0000 	blne	7c1880 <__bss_end__+0x7b6db8>
    187c:	000003a5 	andeq	r0, r0, r5, lsr #7
    1880:	0201cb01 	andeq	ip, r1, #1024	; 0x400
    1884:	0000002c 	andeq	r0, r0, ip, lsr #32
    1888:	f8160001 			; <UNDEFINED> instruction: 0xf8160001
    188c:	00000085 	andeq	r0, r0, r5, lsl #1
    1890:	97000000 	strls	r0, [r0, -r0]
    1894:	17000009 	strne	r0, [r0, -r9]
    1898:	0400755f 	streq	r7, [r0], #-1375	; 0xfffffaa1
    189c:	0201cc01 	andeq	ip, r1, #256	; 0x100
    18a0:	00000961 	andeq	r0, r0, r1, ror #18
    18a4:	01007318 	tsteq	r0, r8, lsl r3
    18a8:	9e0201cc 	adflsdm	f0, f2, #4.0
    18ac:	18000002 	stmdane	r0, {r1}
    18b0:	cc010075 	stcgt	0, cr0, [r1], {117}	; 0x75
    18b4:	002c0201 	eoreq	r0, ip, r1, lsl #4
    18b8:	19000000 	stmdbne	r0, {}	; <UNPREDICTABLE>
    18bc:	cc010078 	stcgt	0, cr0, [r1], {120}	; 0x78
    18c0:	093d0201 	ldmdbeq	sp!, {r0, r9}
    18c4:	651a0000 	ldrvs	r0, [sl, #-0]
    18c8:	01007078 	tsteq	r0, r8, ror r0
    18cc:	2c0201cc 	stfcss	f0, [r2], {204}	; 0xcc
    18d0:	80000000 	andhi	r0, r0, r0
    18d4:	0004831b 	andeq	r8, r4, fp, lsl r3
    18d8:	01cc0100 	biceq	r0, ip, r0, lsl #2
    18dc:	00002c02 	andeq	r2, r0, r2, lsl #24
    18e0:	a51b1f00 	ldrge	r1, [fp, #-3840]	; 0xfffff100
    18e4:	01000003 	tsteq	r0, r3
    18e8:	2c0201cc 	stfcss	f0, [r2], {204}	; 0xcc
    18ec:	01000000 	mrseq	r0, (UNDEF: 0)
    18f0:	85f81600 	ldrbhi	r1, [r8, #1536]!	; 0x600
    18f4:	00000000 	andeq	r0, r0, r0
    18f8:	09ff0000 	ldmibeq	pc!, {}^	; <UNPREDICTABLE>
    18fc:	5f170000 	svcpl	0x00170000
    1900:	01040075 	tsteq	r4, r5, ror r0
    1904:	c80201cd 	stmdagt	r2, {r0, r2, r3, r6, r7, r8}
    1908:	18000009 	stmdane	r0, {r0, r3}
    190c:	cd010073 	stcgt	0, cr0, [r1, #-460]	; 0xfffffe34
    1910:	029e0201 	addseq	r0, lr, #268435456	; 0x10000000
    1914:	75180000 	ldrvc	r0, [r8, #-0]
    1918:	01cd0100 	biceq	r0, sp, r0, lsl #2
    191c:	00002c02 	andeq	r2, r0, r2, lsl #24
    1920:	78190000 	ldmdavc	r9, {}	; <UNPREDICTABLE>
    1924:	01cd0100 	biceq	r0, sp, r0, lsl #2
    1928:	0009a402 	andeq	sl, r9, r2, lsl #8
    192c:	78651e00 	stmdavc	r5!, {r9, sl, fp, ip}^
    1930:	cd010070 	stcgt	0, cr0, [r1, #-448]	; 0xfffffe40
    1934:	002c0201 	eoreq	r0, ip, r1, lsl #4
    1938:	01000000 	mrseq	r0, (UNDEF: 0)
    193c:	0004831b 	andeq	r8, r4, fp, lsl r3
    1940:	01cd0100 	biceq	r0, sp, r0, lsl #2
    1944:	00002c02 	andeq	r2, r0, r2, lsl #24
    1948:	a51b1f00 	ldrge	r1, [fp, #-3840]	; 0xfffff100
    194c:	01000003 	tsteq	r0, r3
    1950:	2c0201cd 	stfcss	f0, [r2], {205}	; 0xcd
    1954:	01000000 	mrseq	r0, (UNDEF: 0)
    1958:	85f81f00 	ldrbhi	r1, [r8, #3840]!	; 0xf00
    195c:	00000000 	andeq	r0, r0, r0
    1960:	5f170000 	svcpl	0x00170000
    1964:	01040075 	tsteq	r4, r5, ror r0
    1968:	2c0201ce 	stfcss	f0, [r2], {206}	; 0xce
    196c:	1800000a 	stmdane	r0, {r1, r3}
    1970:	ce010073 	mcrgt	0, 0, r0, cr1, cr3, {3}
    1974:	029e0201 	addseq	r0, lr, #268435456	; 0x10000000
    1978:	75180000 	ldrvc	r0, [r8, #-0]
    197c:	01ce0100 	biceq	r0, lr, r0, lsl #2
    1980:	00002c02 	andeq	r2, r0, r2, lsl #24
    1984:	78190000 	ldmdavc	r9, {}	; <UNPREDICTABLE>
    1988:	01ce0100 	biceq	r0, lr, r0, lsl #2
    198c:	000a0802 	andeq	r0, sl, r2, lsl #16
    1990:	78651e00 	stmdavc	r5!, {r9, sl, fp, ip}^
    1994:	ce010070 	mcrgt	0, 0, r0, cr1, cr0, {3}
    1998:	002c0201 	eoreq	r0, ip, r1, lsl #4
    199c:	02000000 	andeq	r0, r0, #0, 0
    19a0:	00048320 	andeq	r8, r4, r0, lsr #6
    19a4:	01ce0100 	biceq	r0, lr, r0, lsl #2
    19a8:	00002c02 	andeq	r2, r0, r2, lsl #24
    19ac:	03a52000 			; <UNDEFINED> instruction: 0x03a52000
    19b0:	ce010000 	cdpgt	0, 0, cr0, cr1, cr0, {0}
    19b4:	002c0201 	eoreq	r0, ip, r1, lsl #4
    19b8:	00000000 	andeq	r0, r0, r0
    19bc:	0000c521 	andeq	ip, r0, r1, lsr #10
    19c0:	000a7200 	andeq	r7, sl, r0, lsl #4
    19c4:	002c2200 	eoreq	r2, ip, r0, lsl #4
    19c8:	000c0000 	andeq	r0, ip, r0
    19cc:	000a6204 	andeq	r6, sl, r4, lsl #4
    19d0:	00002300 	andeq	r2, r0, r0, lsl #6
    19d4:	8d010000 	stchi	0, cr0, [r1, #-0]
    19d8:	8dec0601 	stclhi	6, cr0, [ip, #4]!
    19dc:	00a40000 	adceq	r0, r4, r0
    19e0:	9c010000 	stcls	0, cr0, [r1], {-0}
    19e4:	00000c05 	andeq	r0, r0, r5, lsl #24
    19e8:	4144531a 	cmpmi	r4, sl, lsl r3
    19ec:	01950100 	orrseq	r0, r5, r0, lsl #2
    19f0:	00003312 	andeq	r3, r0, r2, lsl r3
    19f4:	531a0200 	tstpl	sl, #0, 4
    19f8:	01004c43 	tsteq	r0, r3, asr #24
    19fc:	33120196 	tstcc	r2, #-2147483611	; 0x80000025
    1a00:	03000000 	movweq	r0, #0
    1a04:	01006319 	tsteq	r0, r9, lsl r3
    1a08:	d40e019f 	strle	r0, [lr], #-415	; 0xfffffe61
    1a0c:	15000001 	strne	r0, [r0, #-1]
    1a10:	0000012f 	andeq	r0, r0, pc, lsr #2
    1a14:	00000c15 	andeq	r0, r0, r5, lsl ip
    1a18:	a5200305 	strge	r0, [r0, #-773]!	; 0xfffffcfb
    1a1c:	18160000 	ldmdane	r6, {}	; <UNPREDICTABLE>
    1a20:	0000008e 	andeq	r0, r0, lr, lsl #1
    1a24:	01000000 	mrseq	r0, (UNDEF: 0)
    1a28:	1700000b 	strne	r0, [r0, -fp]
    1a2c:	0400755f 	streq	r7, [r0], #-1375	; 0xfffffaa1
    1a30:	12019f01 	andne	r9, r1, #1, 30
    1a34:	00000af5 	strdeq	r0, [r0], -r5
    1a38:	01007618 	tsteq	r0, r8, lsl r6
    1a3c:	d412019f 	ldrle	r0, [r2], #-415	; 0xfffffe61
    1a40:	18000001 	stmdane	r0, {r0}
    1a44:	9f010075 	svcls	0x00010075
    1a48:	002c1201 	eoreq	r1, ip, r1, lsl #4
    1a4c:	19000000 	stmdbne	r0, {}	; <UNPREDICTABLE>
    1a50:	9f010075 	svcls	0x00010075
    1a54:	0ad11201 	beq	ff446260 <__bss_end__+0xff43b798>
    1a58:	16000000 	strne	r0, [r0], -r0
    1a5c:	00008e1c 	andeq	r8, r0, ip, lsl lr
    1a60:	00000000 	andeq	r0, r0, r0
    1a64:	00000b40 	andeq	r0, r0, r0, asr #22
    1a68:	00755f17 	rsbseq	r5, r5, r7, lsl pc
    1a6c:	01a10104 			; <UNDEFINED> instruction: 0x01a10104
    1a70:	000b3403 	andeq	r3, fp, r3, lsl #8
    1a74:	76761800 	ldrbtvc	r1, [r6], -r0, lsl #16
    1a78:	01a10100 			; <UNDEFINED> instruction: 0x01a10100
    1a7c:	0001d403 	andeq	sp, r1, r3, lsl #8
    1a80:	75751800 	ldrbvc	r1, [r5, #-2048]!	; 0xfffff800
    1a84:	01a10100 			; <UNDEFINED> instruction: 0x01a10100
    1a88:	00006e03 	andeq	r6, r0, r3, lsl #28
    1a8c:	75190000 	ldrvc	r0, [r9, #-0]
    1a90:	01a10100 			; <UNDEFINED> instruction: 0x01a10100
    1a94:	000b0e03 	andeq	r0, fp, r3, lsl #28
    1a98:	f8240000 			; <UNDEFINED> instruction: 0xf8240000
    1a9c:	5b00008d 	blpl	1cd8 <__code_start__-0x6328>
    1aa0:	24000003 	strcs	r0, [r0], #-3
    1aa4:	00008dfc 	strdeq	r8, [r0], -ip
    1aa8:	0000199b 	muleq	r0, fp, r9
    1aac:	008e0825 	addeq	r0, lr, r5, lsr #16
    1ab0:	0019a700 	andseq	sl, r9, r0, lsl #14
    1ab4:	000b6a00 	andeq	r6, fp, r0, lsl #20
    1ab8:	50012600 	andpl	r2, r1, r0, lsl #12
    1abc:	01263201 			; <UNDEFINED> instruction: 0x01263201
    1ac0:	00340151 	eorseq	r0, r4, r1, asr r1
    1ac4:	008e1425 	addeq	r1, lr, r5, lsr #8
    1ac8:	0019a700 	andseq	sl, r9, r0, lsl #14
    1acc:	000b8200 	andeq	r8, fp, r0, lsl #4
    1ad0:	50012600 	andpl	r2, r1, r0, lsl #12
    1ad4:	01263301 			; <UNDEFINED> instruction: 0x01263301
    1ad8:	00340151 	eorseq	r0, r4, r1, asr r1
    1adc:	008e1824 	addeq	r1, lr, r4, lsr #16
    1ae0:	00199b00 	andseq	r9, r9, r0, lsl #22
    1ae4:	8e282500 	cfsh64hi	mvdx2, mvdx8, #0
    1ae8:	19b30000 	ldmibne	r3!, {}	; <UNPREDICTABLE>
    1aec:	0ba60000 	bleq	fe981af4 <__bss_end__+0xfe97702c>
    1af0:	01260000 			; <UNDEFINED> instruction: 0x01260000
    1af4:	00740250 	rsbseq	r0, r4, r0, asr r2
    1af8:	03510126 	cmpeq	r1, #-2147483639	; 0x80000009
    1afc:	0080000a 	addeq	r0, r0, sl
    1b00:	008e2c24 	addeq	r2, lr, r4, lsr #24
    1b04:	00199b00 	andseq	r9, r9, r0, lsl #22
    1b08:	8e302400 	cfabsshi	mvf2, mvf0
    1b0c:	17b50000 	ldrne	r0, [r5, r0]!
    1b10:	34240000 	strtcc	r0, [r4], #-0
    1b14:	9b00008e 	blls	1d54 <__code_start__-0x62ac>
    1b18:	25000019 	strcs	r0, [r0, #-25]	; 0xffffffe7
    1b1c:	00008e70 	andeq	r8, r0, r0, ror lr
    1b20:	000019bf 			; <UNDEFINED> instruction: 0x000019bf
    1b24:	00000bfb 	strdeq	r0, [r0], -fp
    1b28:	05500126 	ldrbeq	r0, [r0, #-294]	; 0xfffffeda
    1b2c:	00a0a803 	adceq	sl, r0, r3, lsl #16
    1b30:	51012600 	tstpl	r1, r0, lsl #12
    1b34:	a26c0305 	rsbge	r0, ip, #335544320	; 0x14000000
    1b38:	01260000 			; <UNDEFINED> instruction: 0x01260000
    1b3c:	20030552 	andcs	r0, r3, r2, asr r5
    1b40:	260000a5 	strcs	r0, [r0], -r5, lsr #1
    1b44:	0a035301 	beq	d6750 <__bss_end__+0xcbc88>
    1b48:	022601aa 	eoreq	r0, r6, #-2147483606	; 0x8000002a
    1b4c:	0305007d 	movweq	r0, #20605	; 0x507d
    1b50:	0000a3b8 			; <UNDEFINED> instruction: 0x0000a3b8
    1b54:	8e742400 	cdphi	4, 7, cr2, cr4, cr0, {0}
    1b58:	19cb0000 	stmibne	fp, {}^	; <UNPREDICTABLE>
    1b5c:	21000000 	mrscs	r0, (UNDEF: 0)
    1b60:	000000c5 	andeq	r0, r0, r5, asr #1
    1b64:	00000c15 	andeq	r0, r0, r5, lsl ip
    1b68:	00002c22 	andeq	r2, r0, r2, lsr #24
    1b6c:	04000800 	streq	r0, [r0], #-2048	; 0xfffff800
    1b70:	00000c05 	andeq	r0, r0, r5, lsl #24
    1b74:	00056423 	andeq	r6, r5, r3, lsr #8
    1b78:	01830100 	orreq	r0, r3, r0, lsl #2
    1b7c:	008e9006 	addeq	r9, lr, r6
    1b80:	00001800 	andeq	r1, r0, r0, lsl #16
    1b84:	449c0100 	ldrmi	r0, [ip], #256	; 0x100
    1b88:	2400000c 	strcs	r0, [r0], #-12
    1b8c:	00008e98 	muleq	r0, r8, lr
    1b90:	00000c44 	andeq	r0, r0, r4, asr #24
    1b94:	008ea424 	addeq	sl, lr, r4, lsr #8
    1b98:	000a7700 	andeq	r7, sl, r0, lsl #14
    1b9c:	22270000 	eorcs	r0, r7, #0, 0
    1ba0:	01000005 	tsteq	r0, r5
    1ba4:	25050180 	strcs	r0, [r5, #-384]	; 0xfffffe80
    1ba8:	dc000000 	stcle	0, cr0, [r0], {-0}
    1bac:	1000008d 	andne	r0, r0, sp, lsl #1
    1bb0:	01000000 	mrseq	r0, (UNDEF: 0)
    1bb4:	04e2289c 	strbteq	r2, [r2], #2204	; 0x89c
    1bb8:	62010000 	andvs	r0, r1, #0, 0
    1bbc:	00540901 	subseq	r0, r4, r1, lsl #18
    1bc0:	8c240000 	stchi	0, cr0, [r4], #-0
    1bc4:	01b80000 			; <UNDEFINED> instruction: 0x01b80000
    1bc8:	9c010000 	stcls	0, cr0, [r1], {-0}
    1bcc:	00000e80 	andeq	r0, r0, r0, lsl #29
    1bd0:	67657229 	strbvs	r7, [r5, -r9, lsr #4]!
    1bd4:	01620100 	cmneq	r2, r0, lsl #2
    1bd8:	00005423 	andeq	r5, r0, r3, lsr #8
    1bdc:	0007cc00 	andeq	ip, r7, r0, lsl #24
    1be0:	0007c800 	andeq	ip, r7, r0, lsl #16
    1be4:	00762900 	rsbseq	r2, r6, r0, lsl #18
    1be8:	30016201 	andcc	r6, r1, r1, lsl #4
    1bec:	00000054 	andeq	r0, r0, r4, asr r0
    1bf0:	000007f1 	strdeq	r0, [r0], -r1
    1bf4:	000007ed 	andeq	r0, r0, sp, ror #15
    1bf8:	00012f15 	andeq	r2, r1, r5, lsl pc
    1bfc:	000e9000 	andeq	r9, lr, r0
    1c00:	0c030500 	cfstr32eq	mvfx0, [r3], {-0}
    1c04:	2a0000a5 	bcs	1ea0 <__code_start__-0x6160>
    1c08:	00000020 	andeq	r0, r0, r0, lsr #32
    1c0c:	00000e46 	andeq	r0, r0, r6, asr #28
    1c10:	0004ef2b 	andeq	lr, r4, fp, lsr #30
    1c14:	01630100 	cmneq	r3, r0, lsl #2
    1c18:	00002c12 	andeq	r2, r0, r2, lsl ip
    1c1c:	00081600 	andeq	r1, r8, r0, lsl #12
    1c20:	00081200 	andeq	r1, r8, r0, lsl #4
    1c24:	8c4c2500 	cfstr64hi	mvdx2, [ip], {-0}
    1c28:	0e950000 	cdpeq	0, 9, cr0, cr5, cr0, {0}
    1c2c:	0ce90000 	stcleq	0, cr0, [r9]
    1c30:	01260000 			; <UNDEFINED> instruction: 0x01260000
    1c34:	00740250 	rsbseq	r0, r4, r0, asr r2
    1c38:	01510126 	cmpeq	r1, r6, lsr #2
    1c3c:	52012631 	andpl	r2, r1, #51380224	; 0x3100000
    1c40:	25003101 	strcs	r3, [r0, #-257]	; 0xfffffeff
    1c44:	00008c90 	muleq	r0, r0, ip
    1c48:	000019bf 			; <UNDEFINED> instruction: 0x000019bf
    1c4c:	00000d19 	andeq	r0, r0, r9, lsl sp
    1c50:	05500126 	ldrbeq	r0, [r0, #-294]	; 0xfffffeda
    1c54:	00a38803 	adceq	r8, r3, r3, lsl #16
    1c58:	51012600 	tstpl	r1, r0, lsl #12
    1c5c:	a26c0305 	rsbge	r0, ip, #335544320	; 0x14000000
    1c60:	01260000 			; <UNDEFINED> instruction: 0x01260000
    1c64:	0c030552 	cfstr32eq	mvfx0, [r3], {82}	; 0x52
    1c68:	260000a5 	strcs	r0, [r0], -r5, lsr #1
    1c6c:	0a035301 	beq	d6878 <__bss_end__+0xcbdb0>
    1c70:	24000167 	strcs	r0, [r0], #-359	; 0xfffffe99
    1c74:	00008c94 	muleq	r0, r4, ip
    1c78:	000019cb 	andeq	r1, r0, fp, asr #19
    1c7c:	008ca825 	addeq	sl, ip, r5, lsr #16
    1c80:	0019bf00 	andseq	fp, r9, r0, lsl #30
    1c84:	000d5200 	andeq	r5, sp, r0, lsl #4
    1c88:	50012600 	andpl	r2, r1, r0, lsl #12
    1c8c:	a3640305 	cmnge	r4, #335544320	; 0x14000000
    1c90:	01260000 			; <UNDEFINED> instruction: 0x01260000
    1c94:	6c030551 	cfstr32vs	mvfx0, [r3], {81}	; 0x51
    1c98:	260000a2 	strcs	r0, [r0], -r2, lsr #1
    1c9c:	03055201 	movweq	r5, #20993	; 0x5201
    1ca0:	0000a50c 	andeq	sl, r0, ip, lsl #10
    1ca4:	03530126 	cmpeq	r3, #-2147483639	; 0x80000009
    1ca8:	0001670a 	andeq	r6, r1, sl, lsl #14
    1cac:	008cac24 	addeq	sl, ip, r4, lsr #24
    1cb0:	0019cb00 	andseq	ip, r9, r0, lsl #22
    1cb4:	8cf82500 	cfldr64hi	mvdx2, [r8]
    1cb8:	19bf0000 	ldmibne	pc!, {}	; <UNPREDICTABLE>
    1cbc:	0d8b0000 	stceq	0, cr0, [fp]
    1cc0:	01260000 			; <UNDEFINED> instruction: 0x01260000
    1cc4:	88030550 	stmdahi	r3, {r4, r6, r8, sl}
    1cc8:	260000a3 	strcs	r0, [r0], -r3, lsr #1
    1ccc:	03055101 	movweq	r5, #20737	; 0x5101
    1cd0:	0000a26c 	andeq	sl, r0, ip, ror #4
    1cd4:	05520126 	ldrbeq	r0, [r2, #-294]	; 0xfffffeda
    1cd8:	00a50c03 	adceq	r0, r5, r3, lsl #24
    1cdc:	53012600 	movwpl	r2, #5632	; 0x1600
    1ce0:	01690a03 	cmneq	r9, r3, lsl #20
    1ce4:	8cfc2400 	cfldrdhi	mvd2, [ip]
    1ce8:	19cb0000 	stmibne	fp, {}^	; <UNPREDICTABLE>
    1cec:	10250000 	eorne	r0, r5, r0
    1cf0:	bf00008d 	svclt	0x0000008d
    1cf4:	c4000019 	strgt	r0, [r0], #-25	; 0xffffffe7
    1cf8:	2600000d 	strcs	r0, [r0], -sp
    1cfc:	03055001 	movweq	r5, #20481	; 0x5001
    1d00:	0000a364 	andeq	sl, r0, r4, ror #6
    1d04:	05510126 	ldrbeq	r0, [r1, #-294]	; 0xfffffeda
    1d08:	00a26c03 	adceq	r6, r2, r3, lsl #24
    1d0c:	52012600 	andpl	r2, r1, #0, 12
    1d10:	a50c0305 	strge	r0, [ip, #-773]	; 0xfffffcfb
    1d14:	01260000 			; <UNDEFINED> instruction: 0x01260000
    1d18:	690a0353 	stmdbvs	sl, {r0, r1, r4, r6, r8, r9}
    1d1c:	14240001 	strtne	r0, [r4], #-1
    1d20:	cb00008d 	blgt	1f5c <__code_start__-0x60a4>
    1d24:	25000019 	strcs	r0, [r0, #-25]	; 0xffffffe7
    1d28:	00008d60 	andeq	r8, r0, r0, ror #26
    1d2c:	000019bf 			; <UNDEFINED> instruction: 0x000019bf
    1d30:	00000dfd 	strdeq	r0, [r0], -sp
    1d34:	05500126 	ldrbeq	r0, [r0, #-294]	; 0xfffffeda
    1d38:	00a46c03 	adceq	r6, r4, r3, lsl #24
    1d3c:	51012600 	tstpl	r1, r0, lsl #12
    1d40:	a26c0305 	rsbge	r0, ip, #335544320	; 0x14000000
    1d44:	01260000 			; <UNDEFINED> instruction: 0x01260000
    1d48:	0c030552 	cfstr32eq	mvfx0, [r3], {82}	; 0x52
    1d4c:	260000a5 	strcs	r0, [r0], -r5, lsr #1
    1d50:	0a035301 	beq	d695c <__bss_end__+0xcbe94>
    1d54:	24000177 	strcs	r0, [r0], #-375	; 0xfffffe89
    1d58:	00008d64 	andeq	r8, r0, r4, ror #26
    1d5c:	000019cb 	andeq	r1, r0, fp, asr #19
    1d60:	008d7025 	addeq	r7, sp, r5, lsr #32
    1d64:	0019bf00 	andseq	fp, r9, r0, lsl #30
    1d68:	000e2300 	andeq	r2, lr, r0, lsl #6
    1d6c:	50012600 	andpl	r2, r1, r0, lsl #12
    1d70:	a4240305 	strtge	r0, [r4], #-773	; 0xfffffcfb
    1d74:	01260000 			; <UNDEFINED> instruction: 0x01260000
    1d78:	00740251 	rsbseq	r0, r4, r1, asr r2
    1d7c:	8d742400 	cfldrdhi	mvd2, [r4, #-0]
    1d80:	13a70000 			; <UNDEFINED> instruction: 0x13a70000
    1d84:	882c0000 	stmdahi	ip!, {}	; <UNPREDICTABLE>
    1d88:	bf00008d 	svclt	0x0000008d
    1d8c:	26000019 			; <UNDEFINED> instruction: 0x26000019
    1d90:	03055001 	movweq	r5, #20481	; 0x5001
    1d94:	0000a450 	andeq	sl, r0, r0, asr r4
    1d98:	02510126 	subseq	r0, r1, #-2147483639	; 0x80000009
    1d9c:	00000074 	andeq	r0, r0, r4, ror r0
    1da0:	008da425 	addeq	sl, sp, r5, lsr #8
    1da4:	0019bf00 	andseq	fp, r9, r0, lsl #30
    1da8:	000e7600 	andeq	r7, lr, r0, lsl #12
    1dac:	50012600 	andpl	r2, r1, r0, lsl #12
    1db0:	a49c0305 	ldrge	r0, [ip], #773	; 0x305
    1db4:	01260000 			; <UNDEFINED> instruction: 0x01260000
    1db8:	6c030551 	cfstr32vs	mvfx0, [r3], {81}	; 0x51
    1dbc:	260000a2 	strcs	r0, [r0], -r2, lsr #1
    1dc0:	03055201 	movweq	r5, #20993	; 0x5201
    1dc4:	0000a50c 	andeq	sl, r0, ip, lsl #10
    1dc8:	03530126 	cmpeq	r3, #-2147483639	; 0x80000009
    1dcc:	00017a0a 	andeq	r7, r1, sl, lsl #20
    1dd0:	008da824 	addeq	sl, sp, r4, lsr #16
    1dd4:	0019cb00 	andseq	ip, r9, r0, lsl #22
    1dd8:	c5210000 	strgt	r0, [r1, #-0]!
    1ddc:	90000000 	andls	r0, r0, r0
    1de0:	2200000e 	andcs	r0, r0, #14, 0
    1de4:	0000002c 	andeq	r0, r0, ip, lsr #32
    1de8:	80040011 	andhi	r0, r4, r1, lsl r0
    1dec:	1400000e 	strne	r0, [r0], #-14
    1df0:	0000045d 	andeq	r0, r0, sp, asr r4
    1df4:	0d014401 	cfstrseq	mvf4, [r1, #-4]
    1df8:	00008914 	andeq	r8, r0, r4, lsl r9
    1dfc:	0000019c 	muleq	r0, ip, r1
    1e00:	112b9c01 			; <UNDEFINED> instruction: 0x112b9c01
    1e04:	ef2d0000 	svc	0x002d0000
    1e08:	01000004 	tsteq	r0, r4
    1e0c:	2c260144 	stfcss	f0, [r6], #-272	; 0xfffffef0
    1e10:	3b000000 	blcc	1e18 <__code_start__-0x61e8>
    1e14:	35000008 	strcc	r0, [r0, #-8]
    1e18:	2d000008 	stccs	0, cr0, [r0, #-32]	; 0xffffffe0
    1e1c:	00000514 	andeq	r0, r0, r4, lsl r5
    1e20:	35014401 	strcc	r4, [r1, #-1025]	; 0xfffffbff
    1e24:	0000002c 	andeq	r0, r0, ip, lsr #32
    1e28:	00000871 	andeq	r0, r0, r1, ror r8
    1e2c:	00000867 	andeq	r0, r0, r7, ror #16
    1e30:	0005352d 	andeq	r3, r5, sp, lsr #10
    1e34:	01440100 	mrseq	r0, (UNDEF: 84)
    1e38:	00002541 	andeq	r2, r0, r1, asr #10
    1e3c:	0008bc00 	andeq	fp, r8, r0, lsl #24
    1e40:	0008b600 	andeq	fp, r8, r0, lsl #12
    1e44:	012f1500 			; <UNDEFINED> instruction: 0x012f1500
    1e48:	113b0000 	teqne	fp, r0
    1e4c:	03050000 	movweq	r0, #20480	; 0x5000
    1e50:	0000a4e4 	andeq	sl, r0, r4, ror #9
    1e54:	0100631d 	tsteq	r0, sp, lsl r3
    1e58:	d40d0157 	strle	r0, [sp], #-343	; 0xfffffea9
    1e5c:	ea000001 	b	1e68 <__code_start__-0x6198>
    1e60:	e8000008 	stmda	r0, {r3}
    1e64:	16000008 	strne	r0, [r0], -r8
    1e68:	000089d0 	ldrdeq	r8, [r0], -r0
    1e6c:	00000000 	andeq	r0, r0, r0
    1e70:	00000f4c 	andeq	r0, r0, ip, asr #30
    1e74:	00755f17 	rsbseq	r5, r5, r7, lsl pc
    1e78:	015b0104 	cmpeq	fp, r4, lsl #2
    1e7c:	000f4002 	andeq	r4, pc, r2
    1e80:	76761800 	ldrbtvc	r1, [r6], -r0, lsl #16
    1e84:	015b0100 	cmpeq	fp, r0, lsl #2
    1e88:	0001d402 	andeq	sp, r1, r2, lsl #8
    1e8c:	75751800 	ldrbvc	r1, [r5, #-2048]!	; 0xfffff800
    1e90:	015b0100 	cmpeq	fp, r0, lsl #2
    1e94:	00006e02 	andeq	r6, r0, r2, lsl #28
    1e98:	75190000 	ldrvc	r0, [r9, #-0]
    1e9c:	015b0100 	cmpeq	fp, r0, lsl #2
    1ea0:	000f1a02 	andeq	r1, pc, r2, lsl #20
    1ea4:	2c240000 	stccs	0, cr0, [r4], #-0
    1ea8:	9b000089 	blls	20d4 <__code_start__-0x5f2c>
    1eac:	25000019 	strcs	r0, [r0, #-25]	; 0xffffffe7
    1eb0:	00008970 	andeq	r8, r0, r0, ror r9
    1eb4:	000019bf 			; <UNDEFINED> instruction: 0x000019bf
    1eb8:	00000f85 	andeq	r0, r0, r5, lsl #31
    1ebc:	05500126 	ldrbeq	r0, [r0, #-294]	; 0xfffffeda
    1ec0:	00a38803 	adceq	r8, r3, r3, lsl #16
    1ec4:	51012600 	tstpl	r1, r0, lsl #12
    1ec8:	a26c0305 	rsbge	r0, ip, #335544320	; 0x14000000
    1ecc:	01260000 			; <UNDEFINED> instruction: 0x01260000
    1ed0:	e4030552 	str	r0, [r3], #-1362	; 0xfffffaae
    1ed4:	260000a4 	strcs	r0, [r0], -r4, lsr #1
    1ed8:	0a035301 	beq	d6ae4 <__bss_end__+0xcc01c>
    1edc:	24000148 	strcs	r0, [r0], #-328	; 0xfffffeb8
    1ee0:	00008974 	andeq	r8, r0, r4, ror r9
    1ee4:	000019cb 	andeq	r1, r0, fp, asr #19
    1ee8:	00898825 	addeq	r8, r9, r5, lsr #16
    1eec:	0019bf00 	andseq	fp, r9, r0, lsl #30
    1ef0:	000fbe00 	andeq	fp, pc, r0, lsl #28
    1ef4:	50012600 	andpl	r2, r1, r0, lsl #12
    1ef8:	a3640305 	cmnge	r4, #335544320	; 0x14000000
    1efc:	01260000 			; <UNDEFINED> instruction: 0x01260000
    1f00:	6c030551 	cfstr32vs	mvfx0, [r3], {81}	; 0x51
    1f04:	260000a2 	strcs	r0, [r0], -r2, lsr #1
    1f08:	03055201 	movweq	r5, #20993	; 0x5201
    1f0c:	0000a4e4 	andeq	sl, r0, r4, ror #9
    1f10:	03530126 	cmpeq	r3, #-2147483639	; 0x80000009
    1f14:	0001480a 	andeq	r4, r1, sl, lsl #16
    1f18:	00898c24 	addeq	r8, r9, r4, lsr #24
    1f1c:	0019cb00 	andseq	ip, r9, r0, lsl #22
    1f20:	89902400 	ldmibhi	r0, {sl, sp}
    1f24:	17b50000 	ldrne	r0, [r5, r0]!
    1f28:	a4250000 	strtge	r0, [r5], #-0
    1f2c:	b3000089 	movwlt	r0, #137	; 0x89
    1f30:	ed000019 	stc	0, cr0, [r0, #-100]	; 0xffffff9c
    1f34:	2600000f 	strcs	r0, [r0], -pc
    1f38:	0c055001 	stceq	0, cr5, [r5], {1}
    1f3c:	2080400c 	addcs	r4, r0, ip
    1f40:	02510126 	subseq	r0, r1, #-2147483639	; 0x80000009
    1f44:	25000076 	strcs	r0, [r0, #-118]	; 0xffffff8a
    1f48:	000089b8 			; <UNDEFINED> instruction: 0x000089b8
    1f4c:	000019b3 			; <UNDEFINED> instruction: 0x000019b3
    1f50:	0000100a 	andeq	r1, r0, sl
    1f54:	05500126 	ldrbeq	r0, [r0, #-294]	; 0xfffffeda
    1f58:	8040080c 	subhi	r0, r0, ip, lsl #16
    1f5c:	51012620 	tstpl	r1, r0, lsr #12
    1f60:	00007502 	andeq	r7, r0, r2, lsl #10
    1f64:	0089c425 	addeq	ip, r9, r5, lsr #8
    1f68:	0018e800 	andseq	lr, r8, r0, lsl #16
    1f6c:	00101e00 	andseq	r1, r0, r0, lsl #28
    1f70:	50012600 	andpl	r2, r1, r0, lsl #12
    1f74:	00007502 	andeq	r7, r0, r2, lsl #10
    1f78:	0089dc25 	addeq	sp, r9, r5, lsr #24
    1f7c:	0019b300 	andseq	fp, r9, r0, lsl #6
    1f80:	00103200 	andseq	r3, r0, r0, lsl #4
    1f84:	50012600 	andpl	r2, r1, r0, lsl #12
    1f88:	00007502 	andeq	r7, r0, r2, lsl #10
    1f8c:	008a2025 	addeq	r2, sl, r5, lsr #32
    1f90:	0019bf00 	andseq	fp, r9, r0, lsl #30
    1f94:	00106200 	andseq	r6, r0, r0, lsl #4
    1f98:	50012600 	andpl	r2, r1, r0, lsl #12
    1f9c:	a3880305 	orrge	r0, r8, #335544320	; 0x14000000
    1fa0:	01260000 			; <UNDEFINED> instruction: 0x01260000
    1fa4:	6c030551 	cfstr32vs	mvfx0, [r3], {81}	; 0x51
    1fa8:	260000a2 	strcs	r0, [r0], -r2, lsr #1
    1fac:	03055201 	movweq	r5, #20993	; 0x5201
    1fb0:	0000a4e4 	andeq	sl, r0, r4, ror #9
    1fb4:	03530126 	cmpeq	r3, #-2147483639	; 0x80000009
    1fb8:	00015e0a 	andeq	r5, r1, sl, lsl #28
    1fbc:	008a2424 	addeq	r2, sl, r4, lsr #8
    1fc0:	0019cb00 	andseq	ip, r9, r0, lsl #22
    1fc4:	8a402500 	bhi	100b3cc <__bss_end__+0x1000904>
    1fc8:	19bf0000 	ldmibne	pc!, {}	; <UNPREDICTABLE>
    1fcc:	10a50000 	adcne	r0, r5, r0
    1fd0:	01260000 			; <UNDEFINED> instruction: 0x01260000
    1fd4:	a8030550 	stmdage	r3, {r4, r6, r8, sl}
    1fd8:	260000a0 	strcs	r0, [r0], -r0, lsr #1
    1fdc:	03055101 	movweq	r5, #20737	; 0x5101
    1fe0:	0000a26c 	andeq	sl, r0, ip, ror #4
    1fe4:	05520126 	ldrbeq	r0, [r2, #-294]	; 0xfffffeda
    1fe8:	00a4e403 	adceq	lr, r4, r3, lsl #8
    1fec:	53012600 	movwpl	r2, #5632	; 0x1600
    1ff0:	01500a03 	cmpeq	r0, r3, lsl #20
    1ff4:	007d0226 	rsbseq	r0, sp, r6, lsr #4
    1ff8:	a3f80305 	mvnsge	r0, #335544320	; 0x14000000
    1ffc:	24000000 	strcs	r0, [r0], #-0
    2000:	00008a44 	andeq	r8, r0, r4, asr #20
    2004:	000019cb 	andeq	r1, r0, fp, asr #19
    2008:	008a6025 	addeq	r6, sl, r5, lsr #32
    200c:	0019bf00 	andseq	fp, r9, r0, lsl #30
    2010:	0010e800 	andseq	lr, r0, r0, lsl #16
    2014:	50012600 	andpl	r2, r1, r0, lsl #12
    2018:	a0a80305 	adcge	r0, r8, r5, lsl #6
    201c:	01260000 			; <UNDEFINED> instruction: 0x01260000
    2020:	6c030551 	cfstr32vs	mvfx0, [r3], {81}	; 0x51
    2024:	260000a2 	strcs	r0, [r0], -r2, lsr #1
    2028:	03055201 	movweq	r5, #20993	; 0x5201
    202c:	0000a4e4 	andeq	sl, r0, r4, ror #9
    2030:	03530126 	cmpeq	r3, #-2147483639	; 0x80000009
    2034:	2601540a 	strcs	r5, [r1], -sl, lsl #8
    2038:	05007d02 	streq	r7, [r0, #-3330]	; 0xfffff2fe
    203c:	00a40c03 	adceq	r0, r4, r3, lsl #24
    2040:	64240000 	strtvs	r0, [r4], #-0
    2044:	cb00008a 	blgt	2274 <__code_start__-0x5d8c>
    2048:	25000019 	strcs	r0, [r0, #-25]	; 0xffffffe7
    204c:	00008a78 	andeq	r8, r0, r8, ror sl
    2050:	000019bf 			; <UNDEFINED> instruction: 0x000019bf
    2054:	00001121 	andeq	r1, r0, r1, lsr #2
    2058:	05500126 	ldrbeq	r0, [r0, #-294]	; 0xfffffeda
    205c:	00a36403 	adceq	r6, r3, r3, lsl #8
    2060:	51012600 	tstpl	r1, r0, lsl #12
    2064:	a26c0305 	rsbge	r0, ip, #335544320	; 0x14000000
    2068:	01260000 			; <UNDEFINED> instruction: 0x01260000
    206c:	e4030552 	str	r0, [r3], #-1362	; 0xfffffaae
    2070:	260000a4 	strcs	r0, [r0], -r4, lsr #1
    2074:	0a035301 	beq	d6c80 <__bss_end__+0xcc1b8>
    2078:	2400015e 	strcs	r0, [r0], #-350	; 0xfffffea2
    207c:	00008a7c 	andeq	r8, r0, ip, ror sl
    2080:	000019cb 	andeq	r1, r0, fp, asr #19
    2084:	00c52100 	sbceq	r2, r5, r0, lsl #2
    2088:	113b0000 	teqne	fp, r0
    208c:	2c220000 	stccs	0, cr0, [r2], #-0
    2090:	0f000000 	svceq	0x00000000
    2094:	112b0400 			; <UNDEFINED> instruction: 0x112b0400
    2098:	92280000 	eorls	r0, r8, #0, 0
    209c:	01000003 	tsteq	r0, r3
    20a0:	25050134 	strcs	r0, [r5, #-308]	; 0xfffffecc
    20a4:	68000000 	stmdavs	r0, {}	; <UNPREDICTABLE>
    20a8:	bc00008b 	stclt	0, cr0, [r0], {139}	; 0x8b
    20ac:	01000000 	mrseq	r0, (UNDEF: 0)
    20b0:	0012669c 	mulseq	r2, ip, r6
    20b4:	04ef2d00 	strbteq	r2, [pc], #3328	; 20bc <__code_start__-0x5f44>
    20b8:	34010000 	strcc	r0, [r1], #-0
    20bc:	002c1701 	eoreq	r1, ip, r1, lsl #14
    20c0:	09010000 	stmdbeq	r1, {}	; <UNPREDICTABLE>
    20c4:	08fd0000 	ldmeq	sp!, {}^	; <UNPREDICTABLE>
    20c8:	a62d0000 	strtge	r0, [sp], -r0
    20cc:	01000001 	tsteq	r0, r1
    20d0:	66250134 			; <UNDEFINED> instruction: 0x66250134
    20d4:	26000012 			; <UNDEFINED> instruction: 0x26000012
    20d8:	22000009 	andcs	r0, r0, #9, 0
    20dc:	2d000009 	stccs	0, cr0, [r0, #-36]	; 0xffffffdc
    20e0:	00000514 	andeq	r0, r0, r4, lsl r5
    20e4:	36013401 	strcc	r3, [r1], -r1, lsl #8
    20e8:	0000002c 	andeq	r0, r0, ip, lsr #32
    20ec:	00000948 	andeq	r0, r0, r8, asr #18
    20f0:	00000944 	andeq	r0, r0, r4, asr #18
    20f4:	00012f15 	andeq	r2, r1, r5, lsl pc
    20f8:	000c1500 	andeq	r1, ip, r0, lsl #10
    20fc:	00030500 	andeq	r0, r3, r0, lsl #10
    2100:	160000a5 	strne	r0, [r0], -r5, lsr #1
    2104:	00008b80 	andeq	r8, r0, r0, lsl #23
    2108:	00000080 	andeq	r0, r0, r0, lsl #1
    210c:	0000123c 	andeq	r1, r0, ip, lsr r2
    2110:	0100691d 	tsteq	r0, sp, lsl r9
    2114:	2c0f0138 	stfcss	f0, [pc], {56}	; 0x38
    2118:	6e000000 	cdpvs	0, 0, cr0, cr0, cr0, {0}
    211c:	66000009 	strvs	r0, [r0], -r9
    2120:	25000009 	strcs	r0, [r0, #-9]
    2124:	00008b9c 	muleq	r0, ip, fp
    2128:	000019bf 			; <UNDEFINED> instruction: 0x000019bf
    212c:	000011f9 	strdeq	r1, [r0], -r9
    2130:	05500126 	ldrbeq	r0, [r0, #-294]	; 0xfffffeda
    2134:	00a36403 	adceq	r6, r3, r3, lsl #8
    2138:	51012600 	tstpl	r1, r0, lsl #12
    213c:	a26c0305 	rsbge	r0, ip, #335544320	; 0x14000000
    2140:	01260000 			; <UNDEFINED> instruction: 0x01260000
    2144:	00030552 	andeq	r0, r3, r2, asr r5
    2148:	260000a5 	strcs	r0, [r0], -r5, lsr #1
    214c:	0a035301 	beq	d6d58 <__bss_end__+0xcc290>
    2150:	2400013a 	strcs	r0, [r0], #-314	; 0xfffffec6
    2154:	00008ba0 	andeq	r8, r0, r0, lsr #23
    2158:	000019cb 	andeq	r1, r0, fp, asr #19
    215c:	008bfc25 	addeq	pc, fp, r5, lsr #24
    2160:	0019bf00 	andseq	fp, r9, r0, lsl #30
    2164:	00123200 	andseq	r3, r2, r0, lsl #4
    2168:	50012600 	andpl	r2, r1, r0, lsl #12
    216c:	a3880305 	orrge	r0, r8, #335544320	; 0x14000000
    2170:	01260000 			; <UNDEFINED> instruction: 0x01260000
    2174:	6c030551 	cfstr32vs	mvfx0, [r3], {81}	; 0x51
    2178:	260000a2 	strcs	r0, [r0], -r2, lsr #1
    217c:	03055201 	movweq	r5, #20993	; 0x5201
    2180:	0000a500 	andeq	sl, r0, r0, lsl #10
    2184:	03530126 	cmpeq	r3, #-2147483639	; 0x80000009
    2188:	00013a0a 	andeq	r3, r1, sl, lsl #20
    218c:	008c0024 	addeq	r0, ip, r4, lsr #32
    2190:	0019cb00 	andseq	ip, r9, r0, lsl #22
    2194:	80250000 	eorhi	r0, r5, r0
    2198:	cf00008b 	svcgt	0x0000008b
    219c:	5c000014 	stcpl	0, cr0, [r0], {20}
    21a0:	26000012 			; <UNDEFINED> instruction: 0x26000012
    21a4:	f3035001 	vhadd.u8	d5, d3, d1
    21a8:	01265001 			; <UNDEFINED> instruction: 0x01265001
    21ac:	00740251 	rsbseq	r0, r4, r1, asr r2
    21b0:	01520126 	cmpeq	r2, r6, lsr #2
    21b4:	04240031 	strteq	r0, [r4], #-49	; 0xffffffcf
    21b8:	a700008c 	strge	r0, [r0, -ip, lsl #1]
    21bc:	00000013 	andeq	r0, r0, r3, lsl r0
    21c0:	00540409 	subseq	r0, r4, r9, lsl #8
    21c4:	1b280000 	blne	a021cc <__bss_end__+0x9f7704>
    21c8:	01000000 	mrseq	r0, (UNDEF: 0)
    21cc:	25050123 	strcs	r0, [r5, #-291]	; 0xfffffedd
    21d0:	b0000000 	andlt	r0, r0, r0
    21d4:	b800008a 	stmdalt	r0, {r1, r3, r7}
    21d8:	01000000 	mrseq	r0, (UNDEF: 0)
    21dc:	0013929c 	mulseq	r3, ip, r2
    21e0:	04ef2d00 	strbteq	r2, [pc], #3328	; 21e8 <__code_start__-0x5e18>
    21e4:	23010000 	movwcs	r0, #4096	; 0x1000
    21e8:	002c1801 	eoreq	r1, ip, r1, lsl #16
    21ec:	09a70000 	stmibeq	r7!, {}	; <UNPREDICTABLE>
    21f0:	09a30000 	stmibeq	r3!, {}	; <UNPREDICTABLE>
    21f4:	a62d0000 	strtge	r0, [sp], -r0
    21f8:	01000001 	tsteq	r0, r1
    21fc:	66260123 	strtvs	r0, [r6], -r3, lsr #2
    2200:	cc000012 	stcgt	0, cr0, [r0], {18}
    2204:	c8000009 	stmdagt	r0, {r0, r3}
    2208:	2d000009 	stccs	0, cr0, [r0, #-36]	; 0xffffffdc
    220c:	00000514 	andeq	r0, r0, r4, lsl r5
    2210:	37012301 	strcc	r2, [r1, -r1, lsl #6]
    2214:	0000002c 	andeq	r0, r0, ip, lsr #32
    2218:	000009ee 	andeq	r0, r0, lr, ror #19
    221c:	000009ea 	andeq	r0, r0, sl, ror #19
    2220:	00012f15 	andeq	r2, r1, r5, lsl pc
    2224:	0013a200 	andseq	sl, r3, r0, lsl #4
    2228:	f4030500 	vst3.8	{d0,d2,d4}, [r3], r0
    222c:	160000a4 	strne	r0, [r0], -r4, lsr #1
    2230:	00008ac8 	andeq	r8, r0, r8, asr #21
    2234:	00000080 	andeq	r0, r0, r0, lsl #1
    2238:	00001368 	andeq	r1, r0, r8, ror #6
    223c:	0100691d 	tsteq	r0, sp, lsl r9
    2240:	2c0f0126 	stfcss	f0, [pc], {38}	; 0x26
    2244:	14000000 	strne	r0, [r0], #-0
    2248:	0c00000a 	stceq	0, cr0, [r0], {10}
    224c:	2500000a 	strcs	r0, [r0, #-10]
    2250:	00008ae4 	andeq	r8, r0, r4, ror #21
    2254:	000019bf 			; <UNDEFINED> instruction: 0x000019bf
    2258:	00001325 	andeq	r1, r0, r5, lsr #6
    225c:	05500126 	ldrbeq	r0, [r0, #-294]	; 0xfffffeda
    2260:	00a36403 	adceq	r6, r3, r3, lsl #8
    2264:	51012600 	tstpl	r1, r0, lsl #12
    2268:	a26c0305 	rsbge	r0, ip, #335544320	; 0x14000000
    226c:	01260000 			; <UNDEFINED> instruction: 0x01260000
    2270:	f4030552 	vst3.16	{d0,d2,d4}, [r3 :64], r2
    2274:	260000a4 	strcs	r0, [r0], -r4, lsr #1
    2278:	0a035301 	beq	d6e84 <__bss_end__+0xcc3bc>
    227c:	24000128 	strcs	r0, [r0], #-296	; 0xfffffed8
    2280:	00008ae8 	andeq	r8, r0, r8, ror #21
    2284:	000019cb 	andeq	r1, r0, fp, asr #19
    2288:	008b4425 	addeq	r4, fp, r5, lsr #8
    228c:	0019bf00 	andseq	fp, r9, r0, lsl #30
    2290:	00135e00 	andseq	r5, r3, r0, lsl #28
    2294:	50012600 	andpl	r2, r1, r0, lsl #12
    2298:	a3880305 	orrge	r0, r8, #335544320	; 0x14000000
    229c:	01260000 			; <UNDEFINED> instruction: 0x01260000
    22a0:	6c030551 	cfstr32vs	mvfx0, [r3], {81}	; 0x51
    22a4:	260000a2 	strcs	r0, [r0], -r2, lsr #1
    22a8:	03055201 	movweq	r5, #20993	; 0x5201
    22ac:	0000a4f4 	strdeq	sl, [r0], -r4
    22b0:	03530126 	cmpeq	r3, #-2147483639	; 0x80000009
    22b4:	0001280a 	andeq	r2, r1, sl, lsl #16
    22b8:	008b4824 	addeq	r4, fp, r4, lsr #16
    22bc:	0019cb00 	andseq	ip, r9, r0, lsl #22
    22c0:	c8250000 	stmdagt	r5!, {}	; <UNPREDICTABLE>
    22c4:	cf00008a 	svcgt	0x0000008a
    22c8:	88000014 	stmdahi	r0, {r2, r4}
    22cc:	26000013 			; <UNDEFINED> instruction: 0x26000013
    22d0:	f3035001 	vhadd.u8	d5, d3, d1
    22d4:	01265001 			; <UNDEFINED> instruction: 0x01265001
    22d8:	00740251 	rsbseq	r0, r4, r1, asr r2
    22dc:	01520126 	cmpeq	r2, r6, lsr #2
    22e0:	4c240030 	stcmi	0, cr0, [r4], #-192	; 0xffffff40
    22e4:	a700008b 	strge	r0, [r0, -fp, lsl #1]
    22e8:	00000013 	andeq	r0, r0, r3, lsl r0
    22ec:	0000c521 	andeq	ip, r0, r1, lsr #10
    22f0:	0013a200 	andseq	sl, r3, r0, lsl #4
    22f4:	002c2200 	eoreq	r2, ip, r0, lsl #4
    22f8:	00090000 	andeq	r0, r9, r0
    22fc:	00139204 	andseq	r9, r3, r4, lsl #4
    2300:	05541400 	ldrbeq	r1, [r4, #-1024]	; 0xfffffc00
    2304:	16010000 	strne	r0, [r1], -r0
    2308:	85fc0d01 	ldrbhi	r0, [ip, #3329]!	; 0xd01
    230c:	00fc0000 	rscseq	r0, ip, r0
    2310:	9c010000 	stcls	0, cr0, [r1], {-0}
    2314:	000014cf 	andeq	r1, r0, pc, asr #9
    2318:	00012f15 	andeq	r2, r1, r5, lsl pc
    231c:	000c1500 	andeq	r1, ip, r0, lsl #10
    2320:	cc030500 	cfstr32gt	mvfx0, [r3], {-0}
    2324:	250000a4 	strcs	r0, [r0, #-164]	; 0xffffff5c
    2328:	00008648 	andeq	r8, r0, r8, asr #12
    232c:	000019bf 			; <UNDEFINED> instruction: 0x000019bf
    2330:	000013fd 	strdeq	r1, [r0], -sp
    2334:	05500126 	ldrbeq	r0, [r0, #-294]	; 0xfffffeda
    2338:	00a38803 	adceq	r8, r3, r3, lsl #16
    233c:	51012600 	tstpl	r1, r0, lsl #12
    2340:	a26c0305 	rsbge	r0, ip, #335544320	; 0x14000000
    2344:	01260000 			; <UNDEFINED> instruction: 0x01260000
    2348:	cc030552 	cfstr32gt	mvfx0, [r3], {82}	; 0x52
    234c:	260000a4 	strcs	r0, [r0], -r4, lsr #1
    2350:	0a035301 	beq	d6f5c <__bss_end__+0xcc494>
    2354:	24000118 	strcs	r0, [r0], #-280	; 0xfffffee8
    2358:	0000864c 	andeq	r8, r0, ip, asr #12
    235c:	000019cb 	andeq	r1, r0, fp, asr #19
    2360:	00866025 	addeq	r6, r6, r5, lsr #32
    2364:	0019bf00 	andseq	fp, r9, r0, lsl #30
    2368:	00143600 	andseq	r3, r4, r0, lsl #12
    236c:	50012600 	andpl	r2, r1, r0, lsl #12
    2370:	a3640305 	cmnge	r4, #335544320	; 0x14000000
    2374:	01260000 			; <UNDEFINED> instruction: 0x01260000
    2378:	6c030551 	cfstr32vs	mvfx0, [r3], {81}	; 0x51
    237c:	260000a2 	strcs	r0, [r0], -r2, lsr #1
    2380:	03055201 	movweq	r5, #20993	; 0x5201
    2384:	0000a4cc 	andeq	sl, r0, ip, asr #9
    2388:	03530126 	cmpeq	r3, #-2147483639	; 0x80000009
    238c:	0001180a 	andeq	r1, r1, sl, lsl #16
    2390:	00866424 	addeq	r6, r6, r4, lsr #8
    2394:	0019cb00 	andseq	ip, r9, r0, lsl #22
    2398:	86882400 	strhi	r2, [r8], r0, lsl #8
    239c:	199b0000 	ldmibne	fp, {}	; <UNPREDICTABLE>
    23a0:	ac250000 	stcge	0, cr0, [r5], #-0
    23a4:	bf000086 	svclt	0x00000086
    23a8:	82000019 	andhi	r0, r0, #25, 0
    23ac:	26000014 			; <UNDEFINED> instruction: 0x26000014
    23b0:	03055001 	movweq	r5, #20481	; 0x5001
    23b4:	0000a0a8 	andeq	sl, r0, r8, lsr #1
    23b8:	05510126 	ldrbeq	r0, [r1, #-294]	; 0xfffffeda
    23bc:	00a26c03 	adceq	r6, r2, r3, lsl #24
    23c0:	52012600 	andpl	r2, r1, #0, 12
    23c4:	a4cc0305 	strbge	r0, [ip], #773	; 0x305
    23c8:	01260000 			; <UNDEFINED> instruction: 0x01260000
    23cc:	1b0a0353 	blne	283120 <__bss_end__+0x278658>
    23d0:	7d022601 	stcvc	6, cr2, [r2, #-4]
    23d4:	b8030500 	stmdalt	r3, {r8, sl}
    23d8:	000000a3 	andeq	r0, r0, r3, lsr #1
    23dc:	0086b024 	addeq	fp, r6, r4, lsr #32
    23e0:	0019cb00 	andseq	ip, r9, r0, lsl #22
    23e4:	86cc2500 	strbhi	r2, [ip], r0, lsl #10
    23e8:	19bf0000 	ldmibne	pc!, {}	; <UNPREDICTABLE>
    23ec:	14c50000 	strbne	r0, [r5], #0
    23f0:	01260000 			; <UNDEFINED> instruction: 0x01260000
    23f4:	a8030550 	stmdage	r3, {r4, r6, r8, sl}
    23f8:	260000a0 	strcs	r0, [r0], -r0, lsr #1
    23fc:	03055101 	movweq	r5, #20737	; 0x5101
    2400:	0000a26c 	andeq	sl, r0, ip, ror #4
    2404:	05520126 	ldrbeq	r0, [r2, #-294]	; 0xfffffeda
    2408:	00a4cc03 	adceq	ip, r4, r3, lsl #24
    240c:	53012600 	movwpl	r2, #5632	; 0x1600
    2410:	011d0a03 	tsteq	sp, r3, lsl #20
    2414:	007d0226 	rsbseq	r0, sp, r6, lsr #4
    2418:	a3cc0305 	bicge	r0, ip, #335544320	; 0x14000000
    241c:	24000000 	strcs	r0, [r0], #-0
    2420:	000086d0 	ldrdeq	r8, [r0], -r0
    2424:	000019cb 	andeq	r1, r0, fp, asr #19
    2428:	04c02e00 	strbeq	r2, [r0], #3584	; 0xe00
    242c:	f3010000 	vhadd.u8	d0, d1, d0
    2430:	0087400d 	addeq	r4, r7, sp
    2434:	0001d400 	andeq	sp, r1, r0, lsl #8
    2438:	a09c0100 	addsge	r0, ip, r0, lsl #2
    243c:	2f000017 	svccs	0x00000017
    2440:	000004ef 	andeq	r0, r0, pc, ror #9
    2444:	2c21f301 	stccs	3, cr15, [r1], #-4
    2448:	4f000000 	svcmi	0x00000000
    244c:	4900000a 	stmdbmi	r0, {r1, r3}
    2450:	2f00000a 	svccs	0x0000000a
    2454:	00000514 	andeq	r0, r0, r4, lsl r5
    2458:	2c30f301 	ldccs	3, cr15, [r0], #-4
    245c:	85000000 	strhi	r0, [r0, #-0]
    2460:	7b00000a 	blvc	2490 <__code_start__-0x5b70>
    2464:	2f00000a 	svccs	0x0000000a
    2468:	00000535 	andeq	r0, r0, r5, lsr r5
    246c:	253cf301 	ldrcs	pc, [ip, #-769]!	; 0xfffffcff
    2470:	d0000000 	andle	r0, r0, r0
    2474:	ca00000a 	bgt	24a4 <__code_start__-0x5b5c>
    2478:	1500000a 	strne	r0, [r0, #-10]
    247c:	0000012f 	andeq	r0, r0, pc, lsr #2
    2480:	000017b0 			; <UNDEFINED> instruction: 0x000017b0
    2484:	a4d80305 	ldrbge	r0, [r8], #773	; 0x305
    2488:	631d0000 	tstvs	sp, #0, 0
    248c:	01060100 	mrseq	r0, (UNDEF: 22)
    2490:	0001d40d 	andeq	sp, r1, sp, lsl #8
    2494:	000afe00 	andeq	pc, sl, r0, lsl #28
    2498:	000afc00 	andeq	pc, sl, r0, lsl #24
    249c:	880c1600 	stmdahi	ip, {r9, sl, ip}
    24a0:	00000000 	andeq	r0, r0, r0
    24a4:	15820000 	strne	r0, [r2]
    24a8:	5f170000 	svcpl	0x00170000
    24ac:	01040075 	tsteq	r4, r5, ror r0
    24b0:	7602010a 	strvc	r0, [r2], -sl, lsl #2
    24b4:	18000015 	stmdane	r0, {r0, r2, r4}
    24b8:	01007676 	tsteq	r0, r6, ror r6
    24bc:	d402010a 	strle	r0, [r2], #-266	; 0xfffffef6
    24c0:	18000001 	stmdane	r0, {r0}
    24c4:	01007575 	tsteq	r0, r5, ror r5
    24c8:	6e02010a 	adfvss	f0, f2, #2.0
    24cc:	00000000 	andeq	r0, r0, r0
    24d0:	01007519 	tsteq	r0, r9, lsl r5
    24d4:	5002010a 	andpl	r0, r2, sl, lsl #2
    24d8:	00000015 	andeq	r0, r0, r5, lsl r0
    24dc:	00875824 	addeq	r5, r7, r4, lsr #16
    24e0:	00199b00 	andseq	r9, r9, r0, lsl #22
    24e4:	879c2500 	ldrhi	r2, [ip, r0, lsl #10]
    24e8:	19bf0000 	ldmibne	pc!, {}	; <UNPREDICTABLE>
    24ec:	15ba0000 	ldrne	r0, [sl, #0]!
    24f0:	01260000 			; <UNDEFINED> instruction: 0x01260000
    24f4:	88030550 	stmdahi	r3, {r4, r6, r8, sl}
    24f8:	260000a3 	strcs	r0, [r0], -r3, lsr #1
    24fc:	03055101 	movweq	r5, #20737	; 0x5101
    2500:	0000a26c 	andeq	sl, r0, ip, ror #4
    2504:	05520126 	ldrbeq	r0, [r2, #-294]	; 0xfffffeda
    2508:	00a4d803 	adceq	sp, r4, r3, lsl #16
    250c:	53012600 	movwpl	r2, #5632	; 0x1600
    2510:	00f70802 	rscseq	r0, r7, r2, lsl #16
    2514:	0087a024 	addeq	sl, r7, r4, lsr #32
    2518:	0019cb00 	andseq	ip, r9, r0, lsl #22
    251c:	87b42500 	ldrhi	r2, [r4, r0, lsl #10]!
    2520:	19bf0000 	ldmibne	pc!, {}	; <UNPREDICTABLE>
    2524:	15f20000 	ldrbne	r0, [r2, #0]!
    2528:	01260000 			; <UNDEFINED> instruction: 0x01260000
    252c:	64030550 	strvs	r0, [r3], #-1360	; 0xfffffab0
    2530:	260000a3 	strcs	r0, [r0], -r3, lsr #1
    2534:	03055101 	movweq	r5, #20737	; 0x5101
    2538:	0000a26c 	andeq	sl, r0, ip, ror #4
    253c:	05520126 	ldrbeq	r0, [r2, #-294]	; 0xfffffeda
    2540:	00a4d803 	adceq	sp, r4, r3, lsl #16
    2544:	53012600 	movwpl	r2, #5632	; 0x1600
    2548:	00f70802 	rscseq	r0, r7, r2, lsl #16
    254c:	0087b824 	addeq	fp, r7, r4, lsr #16
    2550:	0019cb00 	andseq	ip, r9, r0, lsl #22
    2554:	87cc2400 	strbhi	r2, [ip, r0, lsl #8]
    2558:	17b50000 	ldrne	r0, [r5, r0]!
    255c:	e0250000 	eor	r0, r5, r0
    2560:	b3000087 	movwlt	r0, #135	; 0x87
    2564:	21000019 	tstcs	r0, r9, lsl r0
    2568:	26000016 			; <UNDEFINED> instruction: 0x26000016
    256c:	0c055001 	stceq	0, cr5, [r5], {1}
    2570:	2080400c 	addcs	r4, r0, ip
    2574:	02510126 	subseq	r0, r1, #-2147483639	; 0x80000009
    2578:	25000076 	strcs	r0, [r0, #-118]	; 0xffffff8a
    257c:	000087f4 	strdeq	r8, [r0], -r4
    2580:	000019b3 			; <UNDEFINED> instruction: 0x000019b3
    2584:	0000163e 	andeq	r1, r0, lr, lsr r6
    2588:	05500126 	ldrbeq	r0, [r0, #-294]	; 0xfffffeda
    258c:	8040080c 	subhi	r0, r0, ip, lsl #16
    2590:	51012620 	tstpl	r1, r0, lsr #12
    2594:	00007502 	andeq	r7, r0, r2, lsl #10
    2598:	00880025 	addeq	r0, r8, r5, lsr #32
    259c:	0018e800 	andseq	lr, r8, r0, lsl #16
    25a0:	00165200 	andseq	r5, r6, r0, lsl #4
    25a4:	50012600 	andpl	r2, r1, r0, lsl #12
    25a8:	00007502 	andeq	r7, r0, r2, lsl #10
    25ac:	00881825 	addeq	r1, r8, r5, lsr #16
    25b0:	0019b300 	andseq	fp, r9, r0, lsl #6
    25b4:	00166600 	andseq	r6, r6, r0, lsl #12
    25b8:	50012600 	andpl	r2, r1, r0, lsl #12
    25bc:	00007502 	andeq	r7, r0, r2, lsl #10
    25c0:	00885c25 	addeq	r5, r8, r5, lsr #24
    25c4:	0019bf00 	andseq	fp, r9, r0, lsl #30
    25c8:	00169600 	andseq	r9, r6, r0, lsl #12
    25cc:	50012600 	andpl	r2, r1, r0, lsl #12
    25d0:	a3880305 	orrge	r0, r8, #335544320	; 0x14000000
    25d4:	01260000 			; <UNDEFINED> instruction: 0x01260000
    25d8:	6c030551 	cfstr32vs	mvfx0, [r3], {81}	; 0x51
    25dc:	260000a2 	strcs	r0, [r0], -r2, lsr #1
    25e0:	03055201 	movweq	r5, #20993	; 0x5201
    25e4:	0000a4d8 	ldrdeq	sl, [r0], -r8
    25e8:	03530126 	cmpeq	r3, #-2147483639	; 0x80000009
    25ec:	0001120a 	andeq	r1, r1, sl, lsl #4
    25f0:	00886024 	addeq	r6, r8, r4, lsr #32
    25f4:	0019cb00 	andseq	ip, r9, r0, lsl #22
    25f8:	887c2500 	ldmdahi	ip!, {r8, sl, sp}^
    25fc:	19bf0000 	ldmibne	pc!, {}	; <UNPREDICTABLE>
    2600:	16d80000 	ldrbne	r0, [r8], r0
    2604:	01260000 			; <UNDEFINED> instruction: 0x01260000
    2608:	a8030550 	stmdage	r3, {r4, r6, r8, sl}
    260c:	260000a0 	strcs	r0, [r0], -r0, lsr #1
    2610:	03055101 	movweq	r5, #20737	; 0x5101
    2614:	0000a26c 	andeq	sl, r0, ip, ror #4
    2618:	05520126 	ldrbeq	r0, [r2, #-294]	; 0xfffffeda
    261c:	00a4d803 	adceq	sp, r4, r3, lsl #16
    2620:	53012600 	movwpl	r2, #5632	; 0x1600
    2624:	26fa0802 	ldrbtcs	r0, [sl], r2, lsl #16
    2628:	05007d02 	streq	r7, [r0, #-3330]	; 0xfffff2fe
    262c:	00a3e003 	adceq	lr, r3, r3
    2630:	80240000 	eorhi	r0, r4, r0
    2634:	cb000088 	blgt	285c <__code_start__-0x57a4>
    2638:	25000019 	strcs	r0, [r0, #-25]	; 0xffffffe7
    263c:	0000889c 	muleq	r0, ip, r8
    2640:	000019bf 			; <UNDEFINED> instruction: 0x000019bf
    2644:	0000171a 	andeq	r1, r0, sl, lsl r7
    2648:	05500126 	ldrbeq	r0, [r0, #-294]	; 0xfffffeda
    264c:	00a0a803 	adceq	sl, r0, r3, lsl #16
    2650:	51012600 	tstpl	r1, r0, lsl #12
    2654:	a26c0305 	rsbge	r0, ip, #335544320	; 0x14000000
    2658:	01260000 			; <UNDEFINED> instruction: 0x01260000
    265c:	d8030552 	stmdale	r3, {r1, r4, r6, r8, sl}
    2660:	260000a4 	strcs	r0, [r0], -r4, lsr #1
    2664:	08025301 	stmdaeq	r2, {r0, r8, r9, ip, lr}
    2668:	7d0226ff 	stcvc	6, cr2, [r2, #-1020]	; 0xfffffc04
    266c:	f8030500 			; <UNDEFINED> instruction: 0xf8030500
    2670:	000000a3 	andeq	r0, r0, r3, lsr #1
    2674:	0088a024 	addeq	sl, r8, r4, lsr #32
    2678:	0019cb00 	andseq	ip, r9, r0, lsl #22
    267c:	88bc2500 	ldmhi	ip!, {r8, sl, sp}
    2680:	19bf0000 	ldmibne	pc!, {}	; <UNPREDICTABLE>
    2684:	175d0000 	ldrbne	r0, [sp, -r0]
    2688:	01260000 			; <UNDEFINED> instruction: 0x01260000
    268c:	a8030550 	stmdage	r3, {r4, r6, r8, sl}
    2690:	260000a0 	strcs	r0, [r0], -r0, lsr #1
    2694:	03055101 	movweq	r5, #20737	; 0x5101
    2698:	0000a26c 	andeq	sl, r0, ip, ror #4
    269c:	05520126 	ldrbeq	r0, [r2, #-294]	; 0xfffffeda
    26a0:	00a4d803 	adceq	sp, r4, r3, lsl #16
    26a4:	53012600 	movwpl	r2, #5632	; 0x1600
    26a8:	01030a03 	tsteq	r3, r3, lsl #20
    26ac:	007d0226 	rsbseq	r0, sp, r6, lsr #4
    26b0:	a40c0305 	strge	r0, [ip], #-773	; 0xfffffcfb
    26b4:	24000000 	strcs	r0, [r0], #-0
    26b8:	000088c0 	andeq	r8, r0, r0, asr #17
    26bc:	000019cb 	andeq	r1, r0, fp, asr #19
    26c0:	0088d425 	addeq	sp, r8, r5, lsr #8
    26c4:	0019bf00 	andseq	fp, r9, r0, lsl #30
    26c8:	00179600 	andseq	r9, r7, r0, lsl #12
    26cc:	50012600 	andpl	r2, r1, r0, lsl #12
    26d0:	a3640305 	cmnge	r4, #335544320	; 0x14000000
    26d4:	01260000 			; <UNDEFINED> instruction: 0x01260000
    26d8:	6c030551 	cfstr32vs	mvfx0, [r3], {81}	; 0x51
    26dc:	260000a2 	strcs	r0, [r0], -r2, lsr #1
    26e0:	03055201 	movweq	r5, #20993	; 0x5201
    26e4:	0000a4d8 	ldrdeq	sl, [r0], -r8
    26e8:	03530126 	cmpeq	r3, #-2147483639	; 0x80000009
    26ec:	0001120a 	andeq	r1, r1, sl, lsl #4
    26f0:	0088d824 	addeq	sp, r8, r4, lsr #16
    26f4:	0019cb00 	andseq	ip, r9, r0, lsl #22
    26f8:	c5210000 	strgt	r0, [r1, #-0]!
    26fc:	b0000000 	andlt	r0, r0, r0
    2700:	22000017 	andcs	r0, r0, #23, 0
    2704:	0000002c 	andeq	r0, r0, ip, lsr #32
    2708:	a004000a 	andge	r0, r4, sl
    270c:	2e000017 	mcrcs	0, 0, r0, cr0, cr7, {0}
    2710:	000005c5 	andeq	r0, r0, r5, asr #11
    2714:	080de701 	stmdaeq	sp, {r0, r8, r9, sl, sp, lr, pc}
    2718:	28000087 	stmdacs	r0, {r0, r1, r2, r7}
    271c:	01000000 	mrseq	r0, (UNDEF: 0)
    2720:	0018359c 	mulseq	r8, ip, r5
    2724:	00731200 	rsbseq	r1, r3, r0, lsl #4
    2728:	9e0de801 	cdpls	8, 0, cr14, cr13, cr1, {0}
    272c:	16000002 	strne	r0, [r0], -r2
    2730:	00008718 	andeq	r8, r0, r8, lsl r7
    2734:	00000000 	andeq	r0, r0, r0
    2738:	00001810 	andeq	r1, r0, r0, lsl r8
    273c:	00755f30 	rsbseq	r5, r5, r0, lsr pc
    2740:	02ef0104 	rsceq	r0, pc, #1
    2744:	00001805 	andeq	r1, r0, r5, lsl #16
    2748:	00767631 	rsbseq	r7, r6, r1, lsr r6
    274c:	9e02ef01 	cdpls	15, 0, cr14, cr2, cr1, {0}
    2750:	31000002 	tstcc	r0, r2
    2754:	01007575 	tsteq	r0, r5, ror r5
    2758:	006e02ef 	rsbeq	r0, lr, pc, ror #5
    275c:	12000000 	andne	r0, r0, #0, 0
    2760:	ef010075 	svc	0x00010075
    2764:	0017e202 	andseq	lr, r7, r2, lsl #4
    2768:	18250000 	stmdane	r5!, {}	; <UNPREDICTABLE>
    276c:	35000087 	strcc	r0, [r0, #-135]	; 0xffffff79
    2770:	24000018 	strcs	r0, [r0], #-24	; 0xffffffe8
    2774:	26000018 			; <UNDEFINED> instruction: 0x26000018
    2778:	74025001 	strvc	r5, [r2], #-1
    277c:	282c0000 	stmdacs	ip!, {}	; <UNPREDICTABLE>
    2780:	b3000087 	movwlt	r0, #135	; 0x87
    2784:	26000019 			; <UNDEFINED> instruction: 0x26000019
    2788:	74025001 	strvc	r5, [r2], #-1
    278c:	32000000 	andcc	r0, r0, #0, 0
    2790:	0000051b 	andeq	r0, r0, fp, lsl r5
    2794:	9e13b801 	cdpls	8, 1, cr11, cr3, cr1, {0}
    2798:	f8000002 			; <UNDEFINED> instruction: 0xf8000002
    279c:	10000086 	andne	r0, r0, r6, lsl #1
    27a0:	01000000 	mrseq	r0, (UNDEF: 0)
    27a4:	0018b59c 	mulseq	r8, ip, r5
    27a8:	00733300 	rsbseq	r3, r3, r0, lsl #6
    27ac:	b52fb801 	strlt	fp, [pc, #-2049]!	; 1fb3 <__code_start__-0x604d>
    27b0:	15000018 	strne	r0, [r0, #-24]	; 0xffffffe8
    27b4:	1100000b 	tstne	r0, fp
    27b8:	1600000b 	strne	r0, [r0], -fp
    27bc:	000086fc 	strdeq	r8, [r0], -ip
    27c0:	00000004 	andeq	r0, r0, r4
    27c4:	000018ab 	andeq	r1, r0, fp, lsr #17
    27c8:	00755f30 	rsbseq	r5, r5, r0, lsr pc
    27cc:	11b90104 			; <UNDEFINED> instruction: 0x11b90104
    27d0:	0000188f 	andeq	r1, r0, pc, lsl #17
    27d4:	01007631 	tsteq	r0, r1, lsr r6
    27d8:	02aa11b9 	adceq	r1, sl, #1073741870	; 0x4000002e
    27dc:	75310000 	ldrvc	r0, [r1, #-0]!
    27e0:	11b90100 			; <UNDEFINED> instruction: 0x11b90100
    27e4:	0000002c 	andeq	r0, r0, ip, lsr #32
    27e8:	00751200 	rsbseq	r1, r5, r0, lsl #4
    27ec:	6e11b901 	vnmlsvs.f16	s22, s2, s2	; <UNPREDICTABLE>
    27f0:	2c000018 	stccs	0, cr0, [r0], {24}
    27f4:	00008700 	andeq	r8, r0, r0, lsl #14
    27f8:	000019d7 	ldrdeq	r1, [r0], -r7
    27fc:	03500126 	cmpeq	r0, #-2147483639	; 0x80000009
    2800:	005001f3 	ldrsheq	r0, [r0], #-19	; 0xffffffed
    2804:	87042400 	strhi	r2, [r4, -r0, lsl #8]
    2808:	18bb0000 	ldmne	fp!, {}	; <UNPREDICTABLE>
    280c:	09000000 	stmdbeq	r0, {}	; <UNPREDICTABLE>
    2810:	0002aa04 	andeq	sl, r2, r4, lsl #20
    2814:	03f03200 	mvnseq	r3, #0, 4
    2818:	b4010000 	strlt	r0, [r1], #-0
    281c:	00029e13 	andeq	r9, r2, r3, lsl lr
    2820:	0085e800 	addeq	lr, r5, r0, lsl #16
    2824:	00000c00 	andeq	r0, r0, r0, lsl #24
    2828:	e89c0100 	ldm	ip, {r8}
    282c:	33000018 	movwcc	r0, #24
    2830:	b4010073 	strlt	r0, [r1], #-115	; 0xffffff8d
    2834:	00029e26 	andeq	r9, r2, r6, lsr #28
    2838:	000b3800 	andeq	r3, fp, r0, lsl #16
    283c:	000b3600 	andeq	r3, fp, r0, lsl #12
    2840:	5d320000 	ldcpl	0, cr0, [r2, #-0]
    2844:	01000005 	tsteq	r0, r5
    2848:	01d4137e 	bicseq	r1, r4, lr, ror r3
    284c:	87300000 	ldrhi	r0, [r0, -r0]!
    2850:	00100000 	andseq	r0, r0, r0
    2854:	9c010000 	stcls	0, cr0, [r1], {-0}
    2858:	00001968 	andeq	r1, r0, r8, ror #18
    285c:	01006333 	tsteq	r0, r3, lsr r3
    2860:	19682f7e 	stmdbne	r8!, {r1, r2, r3, r4, r5, r6, r8, r9, sl, fp, sp}^
    2864:	0b4f0000 	bleq	13c286c <__bss_end__+0x13b7da4>
    2868:	0b4b0000 	bleq	12c2870 <__bss_end__+0x12b7da8>
    286c:	34160000 	ldrcc	r0, [r6], #-0
    2870:	04000087 	streq	r0, [r0], #-135	; 0xffffff79
    2874:	5e000000 	cdppl	0, 0, cr0, cr0, cr0, {0}
    2878:	30000019 	andcc	r0, r0, r9, lsl r0
    287c:	0400755f 	streq	r7, [r0], #-1375	; 0xfffffaa1
    2880:	42117f01 	andsmi	r7, r1, #1, 30
    2884:	31000019 	tstcc	r0, r9, lsl r0
    2888:	7f010076 	svcvc	0x00010076
    288c:	0001e011 	andeq	lr, r1, r1, lsl r0
    2890:	00753100 	rsbseq	r3, r5, r0, lsl #2
    2894:	2c117f01 	ldccs	15, cr7, [r1], {1}
    2898:	00000000 	andeq	r0, r0, r0
    289c:	01007512 	tsteq	r0, r2, lsl r5
    28a0:	1921117f 	stmdbne	r1!, {r0, r1, r2, r3, r4, r5, r6, r8, ip}
    28a4:	382c0000 	stmdacc	ip!, {}	; <UNPREDICTABLE>
    28a8:	d7000087 	strle	r0, [r0, -r7, lsl #1]
    28ac:	26000019 			; <UNDEFINED> instruction: 0x26000019
    28b0:	f3035001 	vhadd.u8	d5, d3, d1
    28b4:	00005001 	andeq	r5, r0, r1
    28b8:	00873c24 	addeq	r3, r7, r4, lsr #24
    28bc:	00196e00 	andseq	r6, r9, r0, lsl #28
    28c0:	04090000 	streq	r0, [r9], #-0
    28c4:	000001e0 	andeq	r0, r0, r0, ror #3
    28c8:	0003d732 	andeq	sp, r3, r2, lsr r7
    28cc:	13770100 	cmnne	r7, #0
    28d0:	000001d4 	ldrdeq	r0, [r0], -r4
    28d4:	000085d8 	ldrdeq	r8, [r0], -r8	; <UNPREDICTABLE>
    28d8:	00000010 	andeq	r0, r0, r0, lsl r0
    28dc:	199b9c01 	ldmibne	fp, {r0, sl, fp, ip, pc}
    28e0:	63330000 	teqvs	r3, #0, 0
    28e4:	26770100 	ldrbtcs	r0, [r7], -r0, lsl #2
    28e8:	000001d4 	ldrdeq	r0, [r0], -r4
    28ec:	00000b74 	andeq	r0, r0, r4, ror fp
    28f0:	00000b70 	andeq	r0, r0, r0, ror fp
    28f4:	04f43400 	ldrbteq	r3, [r4], #1024	; 0x400
    28f8:	04f40000 	ldrbteq	r0, [r4], #0
    28fc:	93030000 	movwls	r0, #12288	; 0x3000
    2900:	05423406 	strbeq	r3, [r2, #-1030]	; 0xfffffbfa
    2904:	05420000 	strbeq	r0, [r2, #-0]
    2908:	19040000 	stmdbne	r4, {}	; <UNPREDICTABLE>
    290c:	04723406 	ldrbteq	r3, [r2], #-1030	; 0xfffffbfa
    2910:	04720000 	ldrbteq	r0, [r2], #-0
    2914:	a5030000 	strge	r0, [r3, #-0]
    2918:	077c3406 	ldrbeq	r3, [ip, -r6, lsl #8]!
    291c:	077c0000 	ldrbeq	r0, [ip, -r0]!
    2920:	28030000 	stmdacs	r3, {}	; <UNPREDICTABLE>
    2924:	037c3406 	cmneq	ip, #100663296	; 0x6000000
    2928:	037c0000 	cmneq	ip, #0, 0
    292c:	67030000 	strvs	r0, [r3, -r0]
    2930:	05003406 	streq	r3, [r0, #-1030]	; 0xfffffbfa
    2934:	05000000 	streq	r0, [r0, #-0]
    2938:	b1030000 	mrslt	r0, (UNDEF: 3)
    293c:	0673000b 	ldrbteq	r0, [r3], -fp
    2940:	00040000 	andeq	r0, r4, r0
    2944:	0000062b 	andeq	r0, r0, fp, lsr #12
    2948:	06670104 	strbteq	r0, [r7], -r4, lsl #2
    294c:	1d0c0000 	stcne	0, cr0, [ip, #-0]
    2950:	41000006 	tstmi	r0, r6
    2954:	a8000007 	stmdage	r0, {r0, r1, r2}
    2958:	9800008e 	stmdals	r0, {r1, r2, r3, r7}
    295c:	37000001 	strcc	r0, [r0, -r1]
    2960:	0200000d 	andeq	r0, r0, #13, 0
    2964:	01720708 	cmneq	r2, r8, lsl #14
    2968:	04020000 	streq	r0, [r2], #-0
    296c:	00017c07 	andeq	r7, r1, r7, lsl #24
    2970:	05040300 	streq	r0, [r4, #-768]	; 0xfffffd00
    2974:	00746e69 	rsbseq	r6, r4, r9, ror #28
    2978:	00002c04 	andeq	r2, r0, r4, lsl #24
    297c:	06010200 	streq	r0, [r1], -r0, lsl #4
    2980:	00000151 	andeq	r0, r0, r1, asr r1
    2984:	11050202 	tstne	r5, r2, lsl #4
    2988:	02000000 	andeq	r0, r0, #0, 0
    298c:	01100504 	tsteq	r0, r4, lsl #10
    2990:	08020000 	stmdaeq	r2, {}	; <UNPREDICTABLE>
    2994:	00010b05 	andeq	r0, r1, r5, lsl #22
    2998:	08010200 	stmdaeq	r1, {r9}
    299c:	0000014f 	andeq	r0, r0, pc, asr #2
    29a0:	e9070202 	stmdb	r7, {r1, r9}
    29a4:	05000001 	streq	r0, [r0, #-1]
    29a8:	00000189 	andeq	r0, r0, r9, lsl #3
    29ac:	75193403 	ldrvc	r3, [r9, #-1027]	; 0xfffffbfd
    29b0:	02000000 	andeq	r0, r0, #0, 0
    29b4:	01770704 	cmneq	r7, r4, lsl #14
    29b8:	33060000 	movwcc	r0, #24576	; 0x6000
    29bc:	8b000000 	blhi	29c4 <__code_start__-0x563c>
    29c0:	07000000 	streq	r0, [r0, -r0]
    29c4:	00000033 	andeq	r0, r0, r3, lsr r0
    29c8:	00490800 	subeq	r0, r9, r0, lsl #16
    29cc:	1c020000 	stcne	0, cr0, [r2], {-0}
    29d0:	0000970e 	andeq	r9, r0, lr, lsl #14
    29d4:	7c040900 			; <UNDEFINED> instruction: 0x7c040900
    29d8:	06000000 	streq	r0, [r0], -r0
    29dc:	00000033 	andeq	r0, r0, r3, lsr r0
    29e0:	000000ac 	andeq	r0, r0, ip, lsr #1
    29e4:	0000ac07 	andeq	sl, r0, r7, lsl #24
    29e8:	04090000 	streq	r0, [r9], #-0
    29ec:	000000b9 	strheq	r0, [r0], -r9
    29f0:	58080102 	stmdapl	r8, {r1, r8}
    29f4:	04000001 	streq	r0, [r0], #-1
    29f8:	000000b2 	strheq	r0, [r0], -r2
    29fc:	0007ba08 	andeq	fp, r7, r8, lsl #20
    2a00:	0e210200 	cdpeq	2, 2, cr0, cr1, cr0, {0}
    2a04:	000000ca 	andeq	r0, r0, sl, asr #1
    2a08:	009d0409 	addseq	r0, sp, r9, lsl #8
    2a0c:	070a0000 	streq	r0, [sl, -r0]
    2a10:	00005b01 	andeq	r5, r0, r1, lsl #22
    2a14:	0e0c0400 	cfcpyseq	mvf0, mvf12
    2a18:	0000010f 	andeq	r0, r0, pc, lsl #2
    2a1c:	0004ab0b 	andeq	sl, r4, fp, lsl #22
    2a20:	df0b0000 	svcle	0x000b0000
    2a24:	01000003 	tsteq	r0, r3
    2a28:	0003f80b 	andeq	pc, r3, fp, lsl #16
    2a2c:	070b0400 	streq	r0, [fp, -r0, lsl #8]
    2a30:	05000004 	streq	r0, [r0, #-4]
    2a34:	0004160b 	andeq	r1, r4, fp, lsl #12
    2a38:	250b0600 	strcs	r0, [fp, #-1536]	; 0xfffffa00
    2a3c:	07000004 	streq	r0, [r0, -r4]
    2a40:	0004340b 	andeq	r3, r4, fp, lsl #8
    2a44:	430b0300 	movwmi	r0, #45824	; 0xb300
    2a48:	02000004 	andeq	r0, r0, #4, 0
    2a4c:	065b0500 	ldrbeq	r0, [fp], -r0, lsl #10
    2a50:	15040000 	strne	r0, [r4, #-0]
    2a54:	0000d003 	andeq	sp, r0, r3
    2a58:	05e80c00 	strbeq	r0, [r8, #3072]!	; 0xc00
    2a5c:	1d010000 	stcne	0, cr0, [r1, #-0]
    2a60:	00003a17 	andeq	r3, r0, r7, lsl sl
    2a64:	20001c00 	andcs	r1, r0, r0, lsl #24
    2a68:	05de0c20 	ldrbeq	r0, [lr, #3104]	; 0xc20
    2a6c:	1e010000 	cdpne	0, 0, cr0, cr1, cr0, {0}
    2a70:	00003a17 	andeq	r3, r0, r7, lsl sl
    2a74:	20002800 	andcs	r2, r0, r0, lsl #16
    2a78:	07370c20 	ldreq	r0, [r7, -r0, lsr #24]!
    2a7c:	1f010000 	svcne	0x00010000
    2a80:	00003a17 	andeq	r3, r0, r7, lsl sl
    2a84:	20003400 	andcs	r3, r0, r0, lsl #8
    2a88:	060d0d20 	streq	r0, [sp], -r0, lsr #26
    2a8c:	51010000 	mrspl	r0, (UNDEF: 1)
    2a90:	00003305 	andeq	r3, r0, r5, lsl #6
    2a94:	00901800 	addseq	r1, r0, r0, lsl #16
    2a98:	00002800 	andeq	r2, r0, r0, lsl #16
    2a9c:	ba9c0100 	blt	fe702ea4 <__bss_end__+0xfe6f83dc>
    2aa0:	0e000001 	cdpeq	0, 0, cr0, cr0, cr1, {0}
    2aa4:	006e6970 	rsbeq	r6, lr, r0, ror r9
    2aa8:	2c185101 	ldfcss	f5, [r8], {1}
    2aac:	98000000 	stmdals	r0, {}	; <UNPREDICTABLE>
    2ab0:	9200000b 	andls	r0, r0, #11, 0
    2ab4:	0f00000b 	svceq	0x0000000b
    2ab8:	00000763 	andeq	r0, r0, r3, ror #14
    2abc:	2c0e5201 	sfmcs	f5, 4, [lr], {1}
    2ac0:	ce000000 	cdpgt	0, 0, cr0, cr0, cr0, {0}
    2ac4:	c400000b 	strgt	r0, [r0], #-11
    2ac8:	1000000b 	andne	r0, r0, fp
    2acc:	0066666f 	rsbeq	r6, r6, pc, ror #12
    2ad0:	2c0e5301 	stccs	3, cr5, [lr], {1}
    2ad4:	3c000000 	stccc	0, cr0, [r0], {-0}
    2ad8:	3600000c 	strcc	r0, [r0], -ip
    2adc:	1100000c 	tstne	r0, ip
    2ae0:	0000902c 	andeq	r9, r0, ip, lsr #32
    2ae4:	0000065e 	andeq	r0, r0, lr, asr r6
    2ae8:	0a500112 	beq	1402f38 <__bss_end__+0x13f8470>
    2aec:	25350074 	ldrcs	r0, [r5, #-116]!	; 0xffffff8c
    2af0:	8080b423 	addhi	fp, r0, r3, lsr #8
    2af4:	00000281 	andeq	r0, r0, r1, lsl #5
    2af8:	0005f213 	andeq	pc, r5, r3, lsl r2	; <UNPREDICTABLE>
    2afc:	064a0100 	strbeq	r0, [sl], -r0, lsl #2
    2b00:	00008fe8 	andeq	r8, r0, r8, ror #31
    2b04:	00000030 	andeq	r0, r0, r0, lsr r0
    2b08:	02759c01 	rsbseq	r9, r5, #256	; 0x100
    2b0c:	700e0000 	andvc	r0, lr, r0
    2b10:	01006e69 	tsteq	r0, r9, ror #28
    2b14:	002c1a4a 	eoreq	r1, ip, sl, asr #20
    2b18:	0c790000 	ldcleq	0, cr0, [r9], #-0
    2b1c:	0c6d0000 	stcleq	0, cr0, [sp], #-0
    2b20:	760e0000 	strvc	r0, [lr], -r0
    2b24:	284a0100 	stmdacs	sl, {r8}^
    2b28:	0000002c 	andeq	r0, r0, ip, lsr #32
    2b2c:	00000ccd 	andeq	r0, r0, sp, asr #25
    2b30:	00000cc9 	andeq	r0, r0, r9, asr #25
    2b34:	00038d14 	andeq	r8, r3, r4, lsl sp
    2b38:	008ff800 	addeq	pc, pc, r0, lsl #16
    2b3c:	00e00100 	rsceq	r0, r0, r0, lsl #2
    2b40:	4c010000 	stcmi	0, cr0, [r1], {-0}
    2b44:	00023509 	andeq	r3, r2, r9, lsl #10
    2b48:	039a1500 	orrseq	r1, sl, #0, 10
    2b4c:	0cf40000 	ldcleq	0, cr0, [r4]
    2b50:	0cee0000 	stcleq	0, cr0, [lr]
    2b54:	04160000 	ldreq	r0, [r6], #-0
    2b58:	6a000090 	bvs	2da0 <__code_start__-0x5260>
    2b5c:	12000006 	andne	r0, r0, #6, 0
    2b60:	0c055001 	stceq	0, cr5, [r5], {1}
    2b64:	2020001c 	eorcs	r0, r0, ip, lsl r0
    2b68:	05510112 	ldrbeq	r0, [r1, #-274]	; 0xfffffeee
    2b6c:	5001f331 	andpl	pc, r1, r1, lsr r3	; <UNPREDICTABLE>
    2b70:	17000024 	strne	r0, [r0, -r4, lsr #32]
    2b74:	00000373 	andeq	r0, r0, r3, ror r3
    2b78:	00009004 	andeq	r9, r0, r4
    2b7c:	00900402 	addseq	r0, r0, r2, lsl #8
    2b80:	00001400 	andeq	r1, r0, r0, lsl #8
    2b84:	094e0100 	stmdbeq	lr, {r8}^
    2b88:	00038015 	andeq	r8, r3, r5, lsl r0
    2b8c:	000d2600 	andeq	r2, sp, r0, lsl #12
    2b90:	000d2000 	andeq	r2, sp, r0
    2b94:	90101600 	andsls	r1, r0, r0, lsl #12
    2b98:	066a0000 	strbteq	r0, [sl], -r0
    2b9c:	01120000 	tsteq	r2, r0
    2ba0:	280c0550 	stmdacs	ip, {r4, r6, r8, sl}
    2ba4:	12202000 	eorne	r2, r0, #0, 0
    2ba8:	31055101 	tstcc	r5, r1, lsl #2
    2bac:	245001f3 	ldrbcs	r0, [r0], #-499	; 0xfffffe0d
    2bb0:	13000000 	movwne	r0, #0
    2bb4:	0000062a 	andeq	r0, r0, sl, lsr #12
    2bb8:	90064501 	andls	r4, r6, r1, lsl #10
    2bbc:	5800008f 	stmdapl	r0, {r0, r1, r2, r3, r7}
    2bc0:	01000000 	mrseq	r0, (UNDEF: 0)
    2bc4:	0003739c 	muleq	r3, ip, r3
    2bc8:	69700e00 	ldmdbvs	r0!, {r9, sl, fp}^
    2bcc:	4501006e 	strmi	r0, [r1, #-110]	; 0xffffff92
    2bd0:	00002c1e 	andeq	r2, r0, lr, lsl ip
    2bd4:	000d5800 	andeq	r5, sp, r0, lsl #16
    2bd8:	000d5200 	andeq	r5, sp, r0, lsl #4
    2bdc:	04a51800 	strteq	r1, [r5], #2048	; 0x800
    2be0:	8f900000 	svchi	0x00900000
    2be4:	a0020000 	andge	r0, r2, r0
    2be8:	01000000 	mrseq	r0, (UNDEF: 0)
    2bec:	be190546 	cfmac32lt	mvfx0, mvfx9, mvfx6
    2bf0:	00000004 	andeq	r0, r0, r4
    2bf4:	0004b215 	andeq	fp, r4, r5, lsl r2
    2bf8:	000d8a00 	andeq	r8, sp, r0, lsl #20
    2bfc:	000d8400 	andeq	r8, sp, r0, lsl #8
    2c00:	00a01a00 	adceq	r1, r0, r0, lsl #20
    2c04:	ca1b0000 	bgt	6c2c0c <__bss_end__+0x6b8144>
    2c08:	1b000004 	blne	2c20 <__code_start__-0x53e0>
    2c0c:	000004d6 	ldrdeq	r0, [r0], -r6
    2c10:	0004e01b 	andeq	lr, r4, fp, lsl r0
    2c14:	04a51800 	strteq	r1, [r5], #2048	; 0x800
    2c18:	8f980000 	svchi	0x00980000
    2c1c:	c0000000 	andgt	r0, r0, r0
    2c20:	01000000 	mrseq	r0, (UNDEF: 0)
    2c24:	be190628 	cfmsub32lt	mvax1, mvfx0, mvfx9, mvfx8
    2c28:	00000004 	andeq	r0, r0, r4
    2c2c:	0004b215 	andeq	fp, r4, r5, lsl r2
    2c30:	000dbc00 	andeq	fp, sp, r0, lsl #24
    2c34:	000db600 	andeq	fp, sp, r0, lsl #12
    2c38:	00c01a00 	sbceq	r1, r0, r0, lsl #20
    2c3c:	ca1c0000 	bgt	702c44 <__bss_end__+0x6f817c>
    2c40:	ee000004 	cdp	0, 0, cr0, cr0, cr4, {0}
    2c44:	e800000d 	stmda	r0, {r0, r2, r3}
    2c48:	1c00000d 	stcne	0, cr0, [r0], {13}
    2c4c:	000004d6 	ldrdeq	r0, [r0], -r6
    2c50:	00000e30 	andeq	r0, r0, r0, lsr lr
    2c54:	00000e2a 	andeq	r0, r0, sl, lsr #28
    2c58:	0004e01c 	andeq	lr, r4, ip, lsl r0
    2c5c:	000e8600 	andeq	r8, lr, r0, lsl #12
    2c60:	000e7e00 	andeq	r7, lr, r0, lsl #28
    2c64:	8fc01d00 	svchi	0x00c01d00
    2c68:	065e0000 	ldrbeq	r0, [lr], -r0
    2c6c:	033b0000 	teqeq	fp, #0, 0
    2c70:	01120000 	tsteq	r2, r0
    2c74:	00760250 	rsbseq	r0, r6, r0, asr r2
    2c78:	8fe41600 	svchi	0x00e41600
    2c7c:	066a0000 	strbteq	r0, [sl], -r0
    2c80:	01120000 	tsteq	r2, r0
    2c84:	01f32550 	mvnseq	r2, r0, asr r5
    2c88:	f72cf750 			; <UNDEFINED> instruction: 0xf72cf750
    2c8c:	0825f425 	stmdaeq	r5!, {r0, r2, r5, sl, ip, sp, lr, pc}
    2c90:	cccccccd 	stclgt	12, cr12, [ip], {205}	; 0xcd
    2c94:	00000000 	andeq	r0, r0, r0
    2c98:	f720081e 			; <UNDEFINED> instruction: 0xf720081e
    2c9c:	2cf72525 	cfldr64cs	mvdx2, [r7], #148	; 0x94
    2ca0:	253300f7 	ldrcs	r0, [r3, #-247]!	; 0xffffff09
    2ca4:	a0808023 	addge	r8, r0, r3, lsr #32
    2ca8:	00243240 	eoreq	r3, r4, r0, asr #4
    2cac:	00000000 	andeq	r0, r0, r0
    2cb0:	06391e00 	ldrteq	r1, [r9], -r0, lsl #28
    2cb4:	40010000 	andmi	r0, r1, r0
    2cb8:	038d030d 	orreq	r0, sp, #872415232	; 0x34000000
    2cbc:	701f0000 	andsvc	r0, pc, r0
    2cc0:	01006e69 	tsteq	r0, r9, ror #28
    2cc4:	002c2340 	eoreq	r2, ip, r0, asr #6
    2cc8:	1e000000 	cdpne	0, 0, cr0, cr0, cr0, {0}
    2ccc:	00000768 	andeq	r0, r0, r8, ror #14
    2cd0:	030d3b01 	movweq	r3, #56065	; 0xdb01
    2cd4:	000003a7 	andeq	r0, r0, r7, lsr #7
    2cd8:	6e69701f 	mcrvs	0, 3, r7, cr9, cr15, {0}
    2cdc:	223b0100 	eorscs	r0, fp, #0
    2ce0:	0000002c 	andeq	r0, r0, ip, lsr #32
    2ce4:	06461300 	strbeq	r1, [r6], -r0, lsl #6
    2ce8:	36010000 	strcc	r0, [r1], -r0
    2cec:	008f0806 	addeq	r0, pc, r6, lsl #16
    2cf0:	00005800 	andeq	r5, r0, r0, lsl #16
    2cf4:	a59c0100 	ldrge	r0, [ip, #256]	; 0x100
    2cf8:	0e000004 	cdpeq	0, 0, cr0, cr0, cr4, {0}
    2cfc:	006e6970 	rsbeq	r6, lr, r0, ror r9
    2d00:	2c1f3601 	ldccs	6, cr3, [pc], {1}
    2d04:	e4000000 	str	r0, [r0], #-0
    2d08:	e000000e 	and	r0, r0, lr
    2d0c:	1800000e 	stmdane	r0, {r1, r2, r3}
    2d10:	000004a5 	andeq	r0, r0, r5, lsr #9
    2d14:	00008f08 	andeq	r8, r0, r8, lsl #30
    2d18:	00006002 	andeq	r6, r0, r2
    2d1c:	05370100 	ldreq	r0, [r7, #-256]!	; 0xffffff00
    2d20:	0004be19 	andeq	fp, r4, r9, lsl lr
    2d24:	b2150100 	andslt	r0, r5, #0
    2d28:	09000004 	stmdbeq	r0, {r2}
    2d2c:	0500000f 	streq	r0, [r0, #-15]
    2d30:	1a00000f 	bne	2d74 <__code_start__-0x528c>
    2d34:	00000060 	andeq	r0, r0, r0, rrx
    2d38:	0004ca1b 	andeq	ip, r4, fp, lsl sl
    2d3c:	04d61b00 	ldrbeq	r1, [r6], #2816	; 0xb00
    2d40:	e01b0000 	ands	r0, fp, r0
    2d44:	18000004 	stmdane	r0, {r2}
    2d48:	000004a5 	andeq	r0, r0, r5, lsr #9
    2d4c:	00008f10 	andeq	r8, r0, r0, lsl pc
    2d50:	00008000 	andeq	r8, r0, r0
    2d54:	06280100 	strteq	r0, [r8], -r0, lsl #2
    2d58:	0004be19 	andeq	fp, r4, r9, lsl lr
    2d5c:	b2150100 	andslt	r0, r5, #0
    2d60:	2e000004 	cdpcs	0, 0, cr0, cr0, cr4, {0}
    2d64:	2a00000f 	bcs	2da8 <__code_start__-0x5258>
    2d68:	1a00000f 	bne	2dac <__code_start__-0x5254>
    2d6c:	00000080 	andeq	r0, r0, r0, lsl #1
    2d70:	0004ca1c 	andeq	ip, r4, ip, lsl sl
    2d74:	000f5300 	andeq	r5, pc, r0, lsl #6
    2d78:	000f4f00 	andeq	r4, pc, r0, lsl #30
    2d7c:	04d61c00 	ldrbeq	r1, [r6], #3072	; 0xc00
    2d80:	0f9f0000 	svceq	0x009f0000
    2d84:	0f990000 	svceq	0x00990000
    2d88:	e01c0000 	ands	r0, ip, r0
    2d8c:	f5000004 			; <UNDEFINED> instruction: 0xf5000004
    2d90:	ed00000f 	stc	0, cr0, [r0, #-60]	; 0xffffffc4
    2d94:	1d00000f 	stcne	0, cr0, [r0, #-60]	; 0xffffffc4
    2d98:	00008f3c 	andeq	r8, r0, ip, lsr pc
    2d9c:	0000065e 	andeq	r0, r0, lr, asr r6
    2da0:	0000046d 	andeq	r0, r0, sp, ror #8
    2da4:	02500112 	subseq	r0, r0, #-2147483644	; 0x80000004
    2da8:	16000075 			; <UNDEFINED> instruction: 0x16000075
    2dac:	00008f5c 	andeq	r8, r0, ip, asr pc
    2db0:	0000066a 	andeq	r0, r0, sl, ror #12
    2db4:	25500112 	ldrbcs	r0, [r0, #-274]	; 0xfffffeee
    2db8:	f75001f3 			; <UNDEFINED> instruction: 0xf75001f3
    2dbc:	f425f72c 	vld1.8	{d15}, [r5 :128], ip
    2dc0:	cccd0825 	stclgt	8, cr0, [sp], {37}	; 0x25
    2dc4:	0000cccc 	andeq	ip, r0, ip, asr #25
    2dc8:	081e0000 	ldmdaeq	lr, {}	; <UNPREDICTABLE>
    2dcc:	2525f720 	strcs	pc, [r5, #-1824]!	; 0xfffff8e0
    2dd0:	00f72cf7 	ldrshteq	r2, [r7], #199	; 0xc7
    2dd4:	80232533 	eorhi	r2, r3, r3, lsr r5
    2dd8:	3240a080 	subcc	sl, r0, #128, 0	; 0x80
    2ddc:	00000024 	andeq	r0, r0, r4, lsr #32
    2de0:	1e000000 	cdpne	0, 0, cr0, cr0, cr0, {0}
    2de4:	00000542 	andeq	r0, r0, r2, asr #10
    2de8:	01062801 	tsteq	r6, r1, lsl #16
    2dec:	000004eb 	andeq	r0, r0, fp, ror #9
    2df0:	6e69701f 	mcrvs	0, 3, r7, cr9, cr15, {0}
    2df4:	21280100 			; <UNDEFINED> instruction: 0x21280100
    2df8:	0000002c 	andeq	r0, r0, ip, lsr #32
    2dfc:	00065620 	andeq	r5, r6, r0, lsr #12
    2e00:	32280100 	eorcc	r0, r8, #0
    2e04:	0000010f 	andeq	r0, r0, pc, lsl #2
    2e08:	66666f21 	strbtvs	r6, [r6], -r1, lsr #30
    2e0c:	0e2d0100 	sufeqe	f0, f5, f0
    2e10:	0000002c 	andeq	r0, r0, ip, lsr #32
    2e14:	01006721 	tsteq	r0, r1, lsr #14
    2e18:	002c0e2e 	eoreq	r0, ip, lr, lsr #28
    2e1c:	76210000 	strtvc	r0, [r1], -r0
    2e20:	0e300100 	rsfeqs	f0, f0, f0
    2e24:	0000002c 	andeq	r0, r0, ip, lsr #32
    2e28:	05fd2200 	ldrbeq	r2, [sp, #512]!	; 0x200
    2e2c:	b6020000 	strlt	r0, [r2], -r0
    2e30:	00006918 	andeq	r6, r0, r8, lsl r9
    2e34:	05070300 	streq	r0, [r7, #-768]	; 0xfffffd00
    2e38:	781f0000 	ldmdavc	pc, {}	; <UNPREDICTABLE>
    2e3c:	2bb60200 	blcs	fed83644 <__bss_end__+0xfed78b7c>
    2e40:	00000069 	andeq	r0, r0, r9, rrx
    2e44:	04a52300 	strteq	r2, [r5], #768	; 0x300
    2e48:	8ea80000 	cdphi	0, 10, cr0, cr8, cr0, {0}
    2e4c:	00600000 	rsbeq	r0, r0, r0
    2e50:	9c010000 	stcls	0, cr0, [r1], {-0}
    2e54:	000005e4 	andeq	r0, r0, r4, ror #11
    2e58:	0004b215 	andeq	fp, r4, r5, lsl r2
    2e5c:	00103400 	andseq	r3, r0, r0, lsl #8
    2e60:	00103000 	andseq	r3, r0, r0
    2e64:	04be1500 	ldrteq	r1, [lr], #1280	; 0x500
    2e68:	10590000 	subsne	r0, r9, r0
    2e6c:	10550000 	subsne	r0, r5, r0
    2e70:	ca1b0000 	bgt	6c2e78 <__bss_end__+0x6b83b0>
    2e74:	1b000004 	blne	2e8c <__code_start__-0x5174>
    2e78:	000004d6 	ldrdeq	r0, [r0], -r6
    2e7c:	0004e01b 	andeq	lr, r4, fp, lsl r0
    2e80:	04a51800 	strteq	r1, [r5], #2048	; 0x800
    2e84:	8eb00000 	cdphi	0, 11, cr0, cr0, cr0, {0}
    2e88:	40000000 	andmi	r0, r0, r0
    2e8c:	01000000 	mrseq	r0, (UNDEF: 0)
    2e90:	be150628 	cfmsub32lt	mvax1, mvfx0, mvfx5, mvfx8
    2e94:	7e000004 	cdpvc	0, 0, cr0, cr0, cr4, {0}
    2e98:	7a000010 	bvc	2ee0 <__code_start__-0x5120>
    2e9c:	15000010 	strne	r0, [r0, #-16]
    2ea0:	000004b2 			; <UNDEFINED> instruction: 0x000004b2
    2ea4:	000010a3 	andeq	r1, r0, r3, lsr #1
    2ea8:	0000109f 	muleq	r0, pc, r0	; <UNPREDICTABLE>
    2eac:	0000401a 	andeq	r4, r0, sl, lsl r0
    2eb0:	04ca1c00 	strbeq	r1, [sl], #3072	; 0xc00
    2eb4:	10c80000 	sbcne	r0, r8, r0
    2eb8:	10c40000 	sbcne	r0, r4, r0
    2ebc:	d61c0000 	ldrle	r0, [ip], -r0
    2ec0:	14000004 	strne	r0, [r0], #-4
    2ec4:	0e000011 	mcreq	0, 0, r0, cr0, cr1, {0}
    2ec8:	1c000011 	stcne	0, cr0, [r0], {17}
    2ecc:	000004e0 	andeq	r0, r0, r0, ror #9
    2ed0:	0000116a 	andeq	r1, r0, sl, ror #2
    2ed4:	00001162 	andeq	r1, r0, r2, ror #2
    2ed8:	008ee81d 	addeq	lr, lr, sp, lsl r8
    2edc:	00065e00 	andeq	r5, r6, r0, lsl #28
    2ee0:	0005ae00 	andeq	sl, r5, r0, lsl #28
    2ee4:	50011200 	andpl	r1, r1, r0, lsl #4
    2ee8:	00007602 	andeq	r7, r0, r2, lsl #12
    2eec:	008f0416 	addeq	r0, pc, r6, lsl r4	; <UNPREDICTABLE>
    2ef0:	00066a00 	andeq	r6, r6, r0, lsl #20
    2ef4:	50011200 	andpl	r1, r1, r0, lsl #4
    2ef8:	5001f325 	andpl	pc, r1, r5, lsr #6
    2efc:	25f72cf7 	ldrbcs	r2, [r7, #3319]!	; 0xcf7
    2f00:	cd0825f4 	cfstr32gt	mvfx2, [r8, #-976]	; 0xfffffc30
    2f04:	00cccccc 	sbceq	ip, ip, ip, asr #25
    2f08:	1e000000 	cdpne	0, 0, cr0, cr0, cr0, {0}
    2f0c:	25f72008 	ldrbcs	r2, [r7, #8]!
    2f10:	f72cf725 			; <UNDEFINED> instruction: 0xf72cf725
    2f14:	23253300 			; <UNDEFINED> instruction: 0x23253300
    2f18:	40a08080 	adcmi	r8, r0, r0, lsl #1
    2f1c:	00002432 	andeq	r2, r0, r2, lsr r4
    2f20:	8d230000 	stchi	0, cr0, [r3, #-0]
    2f24:	60000003 	andvs	r0, r0, r3
    2f28:	1800008f 	stmdane	r0, {r0, r1, r2, r3, r7}
    2f2c:	01000000 	mrseq	r0, (UNDEF: 0)
    2f30:	0006219c 	muleq	r6, ip, r1
    2f34:	039a1500 	orrseq	r1, sl, #0, 10
    2f38:	11c00000 	bicne	r0, r0, r0
    2f3c:	11ba0000 			; <UNDEFINED> instruction: 0x11ba0000
    2f40:	74160000 	ldrvc	r0, [r6], #-0
    2f44:	6a00008f 	bvs	3188 <__code_start__-0x4e78>
    2f48:	12000006 	andne	r0, r0, #6, 0
    2f4c:	0c055001 	stceq	0, cr5, [r5], {1}
    2f50:	2020001c 	eorcs	r0, r0, ip, lsl r0
    2f54:	05510112 	ldrbeq	r0, [r1, #-274]	; 0xfffffeee
    2f58:	5001f331 	andpl	pc, r1, r1, lsr r3	; <UNPREDICTABLE>
    2f5c:	23000024 	movwcs	r0, #36	; 0x24
    2f60:	00000373 	andeq	r0, r0, r3, ror r3
    2f64:	00008f78 	andeq	r8, r0, r8, ror pc
    2f68:	00000018 	andeq	r0, r0, r8, lsl r0
    2f6c:	065e9c01 	ldrbeq	r9, [lr], -r1, lsl #24
    2f70:	80150000 	andshi	r0, r5, r0
    2f74:	f2000003 	vhadd.s8	d0, d0, d3
    2f78:	ec000011 	stc	0, cr0, [r0], {17}
    2f7c:	16000011 			; <UNDEFINED> instruction: 0x16000011
    2f80:	00008f8c 	andeq	r8, r0, ip, lsl #31
    2f84:	0000066a 	andeq	r0, r0, sl, ror #12
    2f88:	05500112 	ldrbeq	r0, [r0, #-274]	; 0xfffffeee
    2f8c:	2000280c 	andcs	r2, r0, ip, lsl #16
    2f90:	51011220 	tstpl	r1, r0, lsr #4
    2f94:	01f33105 	mvnseq	r3, r5, lsl #2
    2f98:	00002450 	andeq	r2, r0, r0, asr r4
    2f9c:	00061724 	andeq	r1, r6, r4, lsr #14
    2fa0:	00061700 	andeq	r1, r6, r0, lsl #14
    2fa4:	0ac70200 	beq	ff1c37ac <__bss_end__+0xff1b8ce4>
    2fa8:	00060724 	andeq	r0, r6, r4, lsr #14
    2fac:	00060700 	andeq	r0, r6, r0, lsl #14
    2fb0:	06b20200 	ldrteq	r0, [r2], r0, lsl #4
    2fb4:	00019d00 	andeq	r9, r1, r0, lsl #26
    2fb8:	59000400 	stmdbpl	r0, {sl}
    2fbc:	04000008 	streq	r0, [r0], #-8
    2fc0:	00066701 	andeq	r6, r6, r1, lsl #14
    2fc4:	07970c00 	ldreq	r0, [r7, r0, lsl #24]
    2fc8:	07410000 	strbeq	r0, [r1, -r0]
    2fcc:	90400000 	subls	r0, r0, r0
    2fd0:	00580000 	subseq	r0, r8, r0
    2fd4:	0fc40000 	svceq	0x00c40000
    2fd8:	83020000 	movwhi	r0, #8192	; 0x2000
    2fdc:	02000007 	andeq	r0, r0, #7, 0
    2fe0:	00311b28 	eorseq	r1, r1, r8, lsr #22
    2fe4:	a7030000 	strge	r0, [r3, -r0]
    2fe8:	04000007 	streq	r0, [r0], #-7
    2fec:	00480004 	subeq	r0, r8, r4
    2ff0:	92040000 	andls	r0, r4, #0, 0
    2ff4:	48000007 	stmdami	r0, {r0, r1, r2}
    2ff8:	00000000 	andeq	r0, r0, r0
    2ffc:	02040500 	andeq	r0, r4, #0, 10
    3000:	000007a9 	andeq	r0, r0, r9, lsr #15
    3004:	25186302 	ldrcs	r6, [r8, #-770]	; 0xfffffcfe
    3008:	06000000 	streq	r0, [r0], -r0
    300c:	6e690504 	cdpvs	5, 6, cr0, cr9, cr4, {0}
    3010:	04070074 	streq	r0, [r7], #-116	; 0xffffff8c
    3014:	00017c07 	andeq	r7, r1, r7, lsl #24
    3018:	06010700 	streq	r0, [r1], -r0, lsl #14
    301c:	00000151 	andeq	r0, r0, r1, asr r1
    3020:	11050207 	tstne	r5, r7, lsl #4
    3024:	07000000 	streq	r0, [r0, -r0]
    3028:	01100504 	tsteq	r0, r4, lsl #10
    302c:	08070000 	stmdaeq	r7, {}	; <UNPREDICTABLE>
    3030:	00010b05 	andeq	r0, r1, r5, lsl #22
    3034:	08010700 	stmdaeq	r1, {r8, r9, sl}
    3038:	0000014f 	andeq	r0, r0, pc, asr #2
    303c:	e9070207 	stmdb	r7, {r0, r1, r2, r9}
    3040:	07000001 	streq	r0, [r0, -r1]
    3044:	01770704 	cmneq	r7, r4, lsl #14
    3048:	08070000 	stmdaeq	r7, {}	; <UNPREDICTABLE>
    304c:	00017207 	andeq	r7, r1, r7, lsl #4
    3050:	00560800 	subseq	r0, r6, r0, lsl #16
    3054:	00ab0000 	adceq	r0, fp, r0
    3058:	56090000 	strpl	r0, [r9], -r0
    305c:	00000000 	andeq	r0, r0, r0
    3060:	0000490a 	andeq	r4, r0, sl, lsl #18
    3064:	0e1c0300 	cdpeq	3, 1, cr0, cr12, cr0, {0}
    3068:	000000b7 	strheq	r0, [r0], -r7
    306c:	009c040b 	addseq	r0, ip, fp, lsl #8
    3070:	56080000 	strpl	r0, [r8], -r0
    3074:	cc000000 	stcgt	0, cr0, [r0], {-0}
    3078:	09000000 	stmdbeq	r0, {}	; <UNPREDICTABLE>
    307c:	000000cc 	andeq	r0, r0, ip, asr #1
    3080:	d9040b00 	stmdble	r4, {r8, r9, fp}
    3084:	07000000 	streq	r0, [r0, -r0]
    3088:	01580801 	cmpeq	r8, r1, lsl #16
    308c:	d20c0000 	andle	r0, ip, #0, 0
    3090:	0a000000 	beq	3098 <__code_start__-0x4f68>
    3094:	000007ba 			; <UNDEFINED> instruction: 0x000007ba
    3098:	ea0e2103 	b	38b4ac <__bss_end__+0x3809e4>
    309c:	0b000000 	bleq	30a4 <__code_start__-0x4f5c>
    30a0:	0000bd04 	andeq	fp, r0, r4, lsl #26
    30a4:	077c0d00 	ldrbeq	r0, [ip, -r0, lsl #26]!
    30a8:	06010000 	streq	r0, [r1], -r0
    30ac:	00005605 	andeq	r5, r0, r5, lsl #12
    30b0:	00904000 	addseq	r4, r0, r0
    30b4:	00005800 	andeq	r5, r0, r0, lsl #16
    30b8:	839c0100 	orrshi	r0, ip, #0
    30bc:	0e000001 	cdpeq	0, 0, cr0, cr0, cr1, {0}
    30c0:	00746d66 	rsbseq	r6, r4, r6, ror #26
    30c4:	cc180601 	ldcgt	6, cr0, [r8], {1}
    30c8:	02000000 	andeq	r0, r0, #0, 0
    30cc:	100f7091 	mulne	pc, r1, r0	; <UNPREDICTABLE>
    30d0:	00667562 	rsbeq	r7, r6, r2, ror #10
    30d4:	83110801 	tsthi	r1, #65536	; 0x10000
    30d8:	05000001 	streq	r0, [r0, #-1]
    30dc:	00a6c403 	adceq	ip, r6, r3, lsl #8
    30e0:	07741100 	ldrbeq	r1, [r4, -r0, lsl #2]!
    30e4:	09010000 	stmdbeq	r1, {}	; <UNPREDICTABLE>
    30e8:	00004a0d 	andeq	r4, r0, sp, lsl #20
    30ec:	5c910200 	lfmpl	f0, 4, [r1], {0}
    30f0:	007a7312 	rsbseq	r7, sl, r2, lsl r3
    30f4:	560d0c01 	strpl	r0, [sp], -r1, lsl #24
    30f8:	24000000 	strcs	r0, [r0], #-0
    30fc:	1e000012 	mcrne	0, 0, r0, cr0, cr2, {0}
    3100:	13000012 	movwne	r0, #18
    3104:	00009068 	andeq	r9, r0, r8, rrx
    3108:	00000194 	muleq	r0, r4, r1
    310c:	00000176 	andeq	r0, r0, r6, ror r1
    3110:	02500114 	subseq	r0, r0, #5
    3114:	01140075 	tsteq	r4, r5, ror r0
    3118:	000a0351 	andeq	r0, sl, r1, asr r3
    311c:	52011404 	andpl	r1, r1, #4, 8	; 0x4000000
    3120:	06489103 	strbeq	r9, [r8], -r3, lsl #2
    3124:	02530114 	subseq	r0, r3, #5
    3128:	15004c91 	strne	r4, [r0, #-3217]	; 0xfffff36f
    312c:	0000907c 	andeq	r9, r0, ip, ror r0
    3130:	02500114 	subseq	r0, r0, #5
    3134:	00000075 	andeq	r0, r0, r5, ror r0
    3138:	0000d216 	andeq	sp, r0, r6, lsl r2
    313c:	00019400 	andeq	r9, r1, r0, lsl #8
    3140:	005d1700 	subseq	r1, sp, r0, lsl #14
    3144:	03ff0000 	mvnseq	r0, #0, 0
    3148:	07791800 	ldrbeq	r1, [r9, -r0, lsl #16]!
    314c:	07790000 	ldrbeq	r0, [r9, -r0]!
    3150:	02050000 	andeq	r0, r5, #0, 0
    3154:	00f30005 	rscseq	r0, r3, r5
    3158:	00040000 	andeq	r0, r4, r0
    315c:	0000099b 	muleq	r0, fp, r9
    3160:	06670104 	strbteq	r0, [r7], -r4, lsl #2
    3164:	bf0c0000 	svclt	0x000c0000
    3168:	41000007 	tstmi	r0, r7
    316c:	98000007 	stmdals	r0, {r0, r1, r2}
    3170:	38000090 	stmdacc	r0, {r4, r7}
    3174:	e8000000 	stmda	r0, {}	; <UNPREDICTABLE>
    3178:	02000010 	andeq	r0, r0, #16, 0
    317c:	6e690504 	cdpvs	5, 6, cr0, cr9, cr4, {0}
    3180:	04030074 	streq	r0, [r3], #-116	; 0xffffff8c
    3184:	00017c07 	andeq	r7, r1, r7, lsl #24
    3188:	06010300 	streq	r0, [r1], -r0, lsl #6
    318c:	00000151 	andeq	r0, r0, r1, asr r1
    3190:	11050203 	tstne	r5, r3, lsl #4
    3194:	03000000 	movweq	r0, #0
    3198:	01100504 	tsteq	r0, r4, lsl #10
    319c:	08030000 	stmdaeq	r3, {}	; <UNPREDICTABLE>
    31a0:	00010b05 	andeq	r0, r1, r5, lsl #22
    31a4:	08010300 	stmdaeq	r1, {r8, r9}
    31a8:	0000014f 	andeq	r0, r0, pc, asr #2
    31ac:	e9070203 	stmdb	r7, {r0, r1, r9}
    31b0:	03000001 	movweq	r0, #1
    31b4:	01770704 	cmneq	r7, r4, lsl #14
    31b8:	08030000 	stmdaeq	r3, {}	; <UNPREDICTABLE>
    31bc:	00017207 	andeq	r7, r1, r7, lsl #4
    31c0:	00250400 	eoreq	r0, r5, r0, lsl #8
    31c4:	007a0000 	rsbseq	r0, sl, r0
    31c8:	25050000 	strcs	r0, [r5, #-0]
    31cc:	00000000 	andeq	r0, r0, r0
    31d0:	00004906 	andeq	r4, r0, r6, lsl #18
    31d4:	0e1c0200 	cdpeq	2, 1, cr0, cr12, cr0, {0}
    31d8:	00000086 	andeq	r0, r0, r6, lsl #1
    31dc:	006b0407 	rsbeq	r0, fp, r7, lsl #8
    31e0:	25040000 	strcs	r0, [r4, #-0]
    31e4:	9b000000 	blls	31ec <__code_start__-0x4e14>
    31e8:	05000000 	streq	r0, [r0, #-0]
    31ec:	0000009b 	muleq	r0, fp, r0
    31f0:	a8040700 	stmdage	r4, {r8, r9, sl}
    31f4:	03000000 	movweq	r0, #0
    31f8:	01580801 	cmpeq	r8, r1, lsl #16
    31fc:	a1080000 	mrsge	r0, (UNDEF: 8)
    3200:	06000000 	streq	r0, [r0], -r0
    3204:	000007ba 			; <UNDEFINED> instruction: 0x000007ba
    3208:	b90e2102 	stmdblt	lr, {r1, r8, sp}
    320c:	07000000 	streq	r0, [r0, -r0]
    3210:	00008c04 	andeq	r8, r0, r4, lsl #24
    3214:	00ad0900 	adceq	r0, sp, r0, lsl #18
    3218:	0c010000 	stceq	0, cr0, [r1], {-0}
    321c:	b8030507 	stmdalt	r3, {r0, r1, r2, r8, sl}
    3220:	0a0000a6 	beq	34c0 <__code_start__-0x4b40>
    3224:	000007b1 			; <UNDEFINED> instruction: 0x000007b1
    3228:	25050401 	strcs	r0, [r5, #-1025]	; 0xfffffbff
    322c:	98000000 	stmdals	r0, {}	; <UNPREDICTABLE>
    3230:	38000090 	stmdacc	r0, {r4, r7}
    3234:	01000000 	mrseq	r0, (UNDEF: 0)
    3238:	00700b9c 			; <UNDEFINED> instruction: 0x00700b9c
    323c:	9b1f0401 	blls	7c4248 <__bss_end__+0x7b9780>
    3240:	55000000 	strpl	r0, [r0, #-0]
    3244:	4d000012 	stcmi	0, cr0, [r0, #-72]	; 0xffffffb8
    3248:	00000012 	andeq	r0, r0, r2, lsl r0
    324c:	000c7f00 	andeq	r7, ip, r0, lsl #30
    3250:	39000400 	stmdbcc	r0, {sl}
    3254:	0400000a 	streq	r0, [r0], #-10
    3258:	00066701 	andeq	r6, r6, r1, lsl #14
    325c:	07de0c00 	ldrbeq	r0, [lr, r0, lsl #24]
    3260:	07410000 	strbeq	r0, [r1, -r0]
    3264:	90d00000 	sbcsls	r0, r0, r0
    3268:	09b40000 	ldmibeq	r4!, {}	; <UNPREDICTABLE>
    326c:	118c0000 	orrne	r0, ip, r0
    3270:	08020000 	stmdaeq	r2, {}	; <UNPREDICTABLE>
    3274:	00017207 	andeq	r7, r1, r7, lsl #4
    3278:	07040200 	streq	r0, [r4, -r0, lsl #4]
    327c:	0000017c 	andeq	r0, r0, ip, ror r1
    3280:	69050403 	stmdbvs	r5, {r0, r1, sl}
    3284:	0200746e 	andeq	r7, r0, #1845493760	; 0x6e000000
    3288:	01510601 	cmpeq	r1, r1, lsl #12
    328c:	02020000 	andeq	r0, r2, #0, 0
    3290:	00001105 	andeq	r1, r0, r5, lsl #2
    3294:	05040200 	streq	r0, [r4, #-512]	; 0xfffffe00
    3298:	00000110 	andeq	r0, r0, r0, lsl r1
    329c:	0b050802 	bleq	1452ac <__bss_end__+0x13a7e4>
    32a0:	02000001 	andeq	r0, r0, #1, 0
    32a4:	014f0801 	cmpeq	pc, r1, lsl #16
    32a8:	02020000 	andeq	r0, r2, #0, 0
    32ac:	0001e907 	andeq	lr, r1, r7, lsl #18
    32b0:	01890400 	orreq	r0, r9, r0, lsl #8
    32b4:	34020000 	strcc	r0, [r2], #-0
    32b8:	00007019 	andeq	r7, r0, r9, lsl r0
    32bc:	07040200 	streq	r0, [r4, -r0, lsl #4]
    32c0:	00000177 	andeq	r0, r0, r7, ror r1
    32c4:	0007d504 	andeq	sp, r7, r4, lsl #10
    32c8:	19370200 	ldmdbne	r7!, {r9}
    32cc:	00000025 	andeq	r0, r0, r5, lsr #32
    32d0:	00003305 	andeq	r3, r0, r5, lsl #6
    32d4:	00009200 	andeq	r9, r0, r0, lsl #4
    32d8:	00330600 	eorseq	r0, r3, r0, lsl #12
    32dc:	07000000 	streq	r0, [r0, -r0]
    32e0:	00000049 	andeq	r0, r0, r9, asr #32
    32e4:	9e0e1c03 	cdpls	12, 0, cr1, cr14, cr3, {0}
    32e8:	08000000 	stmdaeq	r0, {}	; <UNPREDICTABLE>
    32ec:	00008304 	andeq	r8, r0, r4, lsl #6
    32f0:	00330500 	eorseq	r0, r3, r0, lsl #10
    32f4:	00b30000 	adcseq	r0, r3, r0
    32f8:	b3060000 	movwlt	r0, #24576	; 0x6000
    32fc:	00000000 	andeq	r0, r0, r0
    3300:	00c00408 	sbceq	r0, r0, r8, lsl #8
    3304:	01020000 	mrseq	r0, (UNDEF: 2)
    3308:	00015808 	andeq	r5, r1, r8, lsl #16
    330c:	00b90900 	adcseq	r0, r9, r0, lsl #18
    3310:	ba070000 	blt	1c3318 <__bss_end__+0x1b8850>
    3314:	03000007 	movweq	r0, #7
    3318:	00d10e21 	sbcseq	r0, r1, r1, lsr #28
    331c:	04080000 	streq	r0, [r8], #-0
    3320:	000000a4 	andeq	r0, r0, r4, lsr #1
    3324:	0007f107 	andeq	pc, r7, r7, lsl #2
    3328:	0d0b0400 	cfstrseq	mvf0, [fp, #-0]
    332c:	000000b9 	strheq	r0, [r0], -r9
    3330:	00087a07 	andeq	r7, r8, r7, lsl #20
    3334:	0d0c0400 	cfstrseq	mvf0, [ip, #-0]
    3338:	000000b9 	strheq	r0, [r0], -r9
    333c:	00080007 	andeq	r0, r8, r7
    3340:	0d0d0400 	cfstrseq	mvf0, [sp, #-0]
    3344:	000000b9 	strheq	r0, [r0], -r9
    3348:	00083207 	andeq	r3, r8, r7, lsl #4
    334c:	0d0e0400 	cfstrseq	mvf0, [lr, #-0]
    3350:	000000b9 	strheq	r0, [r0], -r9
    3354:	0008a307 	andeq	sl, r8, r7, lsl #6
    3358:	0d0f0400 	cfstrseq	mvf0, [pc, #-0]	; 3360 <__code_start__-0x4ca0>
    335c:	000000b9 	strheq	r0, [r0], -r9
    3360:	00081407 	andeq	r1, r8, r7, lsl #8
    3364:	0d100400 	cfldrseq	mvf0, [r0, #-0]
    3368:	000000b9 	strheq	r0, [r0], -r9
    336c:	0008b207 	andeq	fp, r8, r7, lsl #4
    3370:	0d110400 	cfldrseq	mvf0, [r1, #-0]
    3374:	000000b9 	strheq	r0, [r0], -r9
    3378:	00083e07 	andeq	r3, r8, r7, lsl #28
    337c:	0d120400 	cfldrseq	mvf0, [r2, #-0]
    3380:	000000b9 	strheq	r0, [r0], -r9
    3384:	00078304 	andeq	r8, r7, r4, lsl #6
    3388:	1b280500 	blne	a04790 <__bss_end__+0x9f9cc8>
    338c:	00000143 	andeq	r0, r0, r3, asr #2
    3390:	0007a70a 	andeq	sl, r7, sl, lsl #14
    3394:	00060400 	andeq	r0, r6, r0, lsl #8
    3398:	0000015a 	andeq	r0, r0, sl, asr r1
    339c:	0007920b 	andeq	r9, r7, fp, lsl #4
    33a0:	00015a00 	andeq	r5, r1, r0, lsl #20
    33a4:	0c000000 	stceq	0, cr0, [r0], {-0}
    33a8:	07a90404 	streq	r0, [r9, r4, lsl #8]!
    33ac:	63050000 	movwvs	r0, #20480	; 0x5000
    33b0:	00013718 	andeq	r3, r1, r8, lsl r7
    33b4:	07790d00 	ldrbeq	r0, [r9, -r0, lsl #26]!
    33b8:	81010000 	mrshi	r0, (UNDEF: 1)
    33bc:	00003305 	andeq	r3, r0, r5, lsl #6
    33c0:	00945800 	addseq	r5, r4, r0, lsl #16
    33c4:	00062c00 	andeq	r2, r6, r0, lsl #24
    33c8:	6a9c0100 	bvs	fe7037d0 <__bss_end__+0xfe6f8d08>
    33cc:	0e000008 	cdpeq	0, 0, cr0, cr0, cr8, {0}
    33d0:	00667562 	rsbeq	r7, r6, r2, ror #10
    33d4:	6a158101 	bvs	5637e0 <__bss_end__+0x558d18>
    33d8:	95000008 	strls	r0, [r0, #-8]
    33dc:	8b000012 	blhi	342c <__code_start__-0x4bd4>
    33e0:	0e000012 	mcreq	0, 0, r0, cr0, cr2, {0}
    33e4:	8101006e 	tsthi	r1, lr, rrx
    33e8:	0000331e 	andeq	r3, r0, lr, lsl r3
    33ec:	0012e200 	andseq	lr, r2, r0, lsl #4
    33f0:	0012da00 	andseq	sp, r2, r0, lsl #20
    33f4:	6d660e00 	stclvs	14, cr0, [r6, #-0]
    33f8:	81010074 	tsthi	r1, r4, ror r0
    33fc:	0000b32d 	andeq	fp, r0, sp, lsr #6
    3400:	00133400 	andseq	r3, r3, r0, lsl #8
    3404:	00131c00 	andseq	r1, r3, r0, lsl #24
    3408:	07740f00 	ldrbeq	r0, [r4, -r0, lsl #30]!
    340c:	81010000 	mrshi	r0, (UNDEF: 1)
    3410:	00015c3a 	andeq	r5, r1, sl, lsr ip
    3414:	0013f800 	andseq	pc, r3, r0, lsl #16
    3418:	0013c800 	andseq	ip, r3, r0, lsl #16
    341c:	00701000 	rsbseq	r1, r0, r0
    3420:	6a088201 	bvs	223c2c <__bss_end__+0x219164>
    3424:	58000008 	stmdapl	r0, {r3}
    3428:	42000015 	andmi	r0, r0, #21, 0
    342c:	10000015 	andne	r0, r0, r5, lsl r0
    3430:	82010065 	andhi	r0, r1, #101, 0	; 0x65
    3434:	00086a12 	andeq	r6, r8, r2, lsl sl
    3438:	0015e100 	andseq	lr, r5, r0, lsl #2
    343c:	0015df00 	andseq	sp, r5, r0, lsl #30
    3440:	30781000 	rsbscc	r1, r8, r0
    3444:	0e830100 	rmfeqs	f0, f3, f0
    3448:	00000064 	andeq	r0, r0, r4, rrx
    344c:	000015fa 	strdeq	r1, [r0], -sl
    3450:	000015f4 	strdeq	r1, [r0], -r4
    3454:	00317810 	eorseq	r7, r1, r0, lsl r8
    3458:	64118301 	ldrvs	r8, [r1], #-769	; 0xfffffcff
    345c:	29000000 	stmdbcs	r0, {}	; <UNPREDICTABLE>
    3460:	23000016 	movwcs	r0, #22
    3464:	11000016 	tstne	r0, r6, lsl r0
    3468:	0000085c 	andeq	r0, r0, ip, asr r8
    346c:	b3118601 	tstlt	r1, #1048576	; 0x100000
    3470:	5a000000 	bpl	3478 <__code_start__-0x4b88>
    3474:	52000016 	andpl	r0, r0, #22, 0
    3478:	12000016 	andne	r0, r0, #22, 0
    347c:	0000012f 	andeq	r0, r0, pc, lsr #2
    3480:	00000880 	andeq	r0, r0, r0, lsl #17
    3484:	a6840305 	strge	r0, [r4], r5, lsl #6
    3488:	60130000 	andsvs	r0, r3, r0
    348c:	10000001 	andne	r0, r0, r1
    3490:	91010073 	tstls	r1, r3, ror r0
    3494:	00086a0a 	andeq	r6, r8, sl, lsl #20
    3498:	0016a000 	andseq	sl, r6, r0
    349c:	00169400 	andseq	r9, r6, r0, lsl #8
    34a0:	756e1400 	strbvc	r1, [lr, #-1024]!	; 0xfffffc00
    34a4:	9101006d 	tstls	r1, sp, rrx
    34a8:	0008850d 	andeq	r8, r8, sp, lsl #10
    34ac:	d8910300 	ldmle	r1, {r8, r9}
    34b0:	08bf157d 	ldmeq	pc!, {r0, r2, r3, r4, r5, r6, r8, sl, ip}	; <UNPREDICTABLE>
    34b4:	91010000 	mrsls	r0, (UNDEF: 1)
    34b8:	00088517 	andeq	r8, r8, r7, lsl r5
    34bc:	d8910300 	ldmle	r1, {r8, r9}
    34c0:	080e117e 	stmdaeq	lr, {r1, r2, r3, r4, r5, r6, r8, ip}
    34c4:	92010000 	andls	r0, r1, #0, 0
    34c8:	00002c0d 	andeq	r2, r0, sp, lsl #24
    34cc:	0016f200 	andseq	pc, r6, r0, lsl #4
    34d0:	0016ea00 	andseq	lr, r6, r0, lsl #20
    34d4:	01881600 	orreq	r1, r8, r0, lsl #12
    34d8:	04f10000 	ldrbteq	r0, [r1], #0
    34dc:	74100000 	ldrvc	r0, [r0], #-0
    34e0:	9e010079 	mcrls	0, 0, r0, cr1, cr9, {3}
    34e4:	0000b31d 	andeq	fp, r0, sp, lsl r3
    34e8:	00173300 	andseq	r3, r7, r0, lsl #6
    34ec:	00172700 	andseq	r2, r7, r0, lsl #14
    34f0:	78781400 	ldmdavc	r8!, {sl, ip}^
    34f4:	1aa20100 	bne	fe8838fc <__bss_end__+0xfe878e34>
    34f8:	00000077 	andeq	r0, r0, r7, ror r0
    34fc:	04935906 	ldreq	r5, [r3], #2310	; 0x906
    3500:	1704935b 	smlsdne	r4, fp, r3, r9
    3504:	000095e4 	andeq	r9, r0, r4, ror #11
    3508:	00000c3a 	andeq	r0, r0, sl, lsr ip
    350c:	000002d8 	ldrdeq	r0, [r0], -r8
    3510:	02500118 	subseq	r0, r0, #6
    3514:	01180076 	tsteq	r8, r6, ror r0
    3518:	78030551 	stmdavc	r3, {r0, r4, r6, r8, sl}
    351c:	180000a5 	stmdane	r0, {r0, r2, r5, r7}
    3520:	33015201 	movwcc	r5, #4609	; 0x1201
    3524:	95fc1700 	ldrbls	r1, [ip, #1792]!	; 0x700
    3528:	0c3a0000 	ldceq	0, cr0, [sl], #-0
    352c:	02fa0000 	rscseq	r0, sl, #0, 0
    3530:	01180000 	tsteq	r8, r0
    3534:	00760250 	rsbseq	r0, r6, r0, asr r2
    3538:	05510118 	ldrbeq	r0, [r1, #-280]	; 0xfffffee8
    353c:	00a58c03 	adceq	r8, r5, r3, lsl #24
    3540:	52011800 	andpl	r1, r1, #0, 16
    3544:	17003301 	strne	r3, [r0, -r1, lsl #6]
    3548:	00009620 	andeq	r9, r0, r0, lsr #12
    354c:	00000c46 	andeq	r0, r0, r6, asr #24
    3550:	00000317 	andeq	r0, r0, r7, lsl r3
    3554:	05500118 	ldrbeq	r0, [r0, #-280]	; 0xfffffee8
    3558:	00a57c03 	adceq	r7, r5, r3, lsl #24
    355c:	51011800 	tstpl	r1, r0, lsl #16
    3560:	00007b02 	andeq	r7, r0, r2, lsl #22
    3564:	00962c17 	addseq	r2, r6, r7, lsl ip
    3568:	000c4600 	andeq	r4, ip, r0, lsl #12
    356c:	00033400 	andeq	r3, r3, r0, lsl #8
    3570:	50011800 	andpl	r1, r1, r0, lsl #16
    3574:	a5840305 	strge	r0, [r4, #773]	; 0x305
    3578:	01180000 	tsteq	r8, r0
    357c:	00790251 	rsbseq	r0, r9, r1, asr r2
    3580:	963c1700 	ldrtls	r1, [ip], -r0, lsl #14
    3584:	0c3a0000 	ldceq	0, cr0, [sl], #-0
    3588:	03560000 	cmpeq	r6, #0, 0
    358c:	01180000 	tsteq	r8, r0
    3590:	00760250 	rsbseq	r0, r6, r0, asr r2
    3594:	05510118 	ldrbeq	r0, [r1, #-280]	; 0xfffffee8
    3598:	00a57803 	adceq	r7, r5, r3, lsl #16
    359c:	52011800 	andpl	r1, r1, #0, 16
    35a0:	17003301 	strne	r3, [r0, -r1, lsl #6]
    35a4:	0000966c 	andeq	r9, r0, ip, ror #12
    35a8:	00000aa4 	andeq	r0, r0, r4, lsr #21
    35ac:	00000383 	andeq	r0, r0, r3, lsl #7
    35b0:	01500118 	cmpeq	r0, r8, lsl r1
    35b4:	51011840 	tstpl	r1, r0, asr #16
    35b8:	7dd09103 	ldfvcp	f1, [r0, #12]
    35bc:	02520118 	subseq	r0, r2, #6
    35c0:	0118007b 	tsteq	r8, fp, ror r0
    35c4:	00750253 	rsbseq	r0, r5, r3, asr r2
    35c8:	007d0218 	rsbseq	r0, sp, r8, lsl r2
    35cc:	00007602 	andeq	r7, r0, r2, lsl #12
    35d0:	00968c17 	addseq	r8, r6, r7, lsl ip
    35d4:	000aa400 	andeq	sl, sl, r0, lsl #8
    35d8:	0003aa00 	andeq	sl, r3, r0, lsl #20
    35dc:	50011800 	andpl	r1, r1, r0, lsl #16
    35e0:	01184001 	tsteq	r8, r1
    35e4:	d0910351 	addsle	r0, r1, r1, asr r3
    35e8:	5201187e 	andpl	r1, r1, #8257536	; 0x7e0000
    35ec:	18007902 	stmdane	r0, {r1, r8, fp, ip, sp, lr}
    35f0:	02007d02 	andeq	r7, r0, #128	; 0x80
    35f4:	17000076 	smlsdxne	r0, r6, r0, r0
    35f8:	0000969c 	muleq	r0, ip, r6
    35fc:	00000c52 	andeq	r0, r0, r2, asr ip
    3600:	000003c6 	andeq	r0, r0, r6, asr #7
    3604:	03500118 	cmpeq	r0, #6
    3608:	187dd091 	ldmdane	sp!, {r0, r4, r7, ip, lr, pc}^
    360c:	91035101 	tstls	r3, r1, lsl #2
    3610:	17007ed2 			; <UNDEFINED> instruction: 0x17007ed2
    3614:	000098e0 	andeq	r9, r0, r0, ror #17
    3618:	00000c3a 	andeq	r0, r0, sl, lsr ip
    361c:	000003e8 	andeq	r0, r0, r8, ror #7
    3620:	02500118 	subseq	r0, r0, #6
    3624:	01180076 	tsteq	r8, r6, ror r0
    3628:	8c030551 	cfstr32hi	mvfx0, [r3], {81}	; 0x51
    362c:	180000a5 	stmdane	r0, {r0, r2, r5, r7}
    3630:	33015201 	movwcc	r5, #4609	; 0x1201
    3634:	99041700 	stmdbls	r4, {r8, r9, sl, ip}
    3638:	0aa40000 	beq	fe903640 <__bss_end__+0xfe8f8b78>
    363c:	04150000 	ldreq	r0, [r5], #-0
    3640:	01180000 	tsteq	r8, r0
    3644:	183a0150 	ldmdane	sl!, {r4, r6, r8}
    3648:	91035101 	tstls	r3, r1, lsl #2
    364c:	01187dd0 			; <UNDEFINED> instruction: 0x01187dd0
    3650:	007b0252 	rsbseq	r0, fp, r2, asr r2
    3654:	02530118 	subseq	r0, r3, #6
    3658:	02180075 	andseq	r0, r8, #117, 0	; 0x75
    365c:	7602007d 			; <UNDEFINED> instruction: 0x7602007d
    3660:	24170000 	ldrcs	r0, [r7], #-0
    3664:	a4000099 	strge	r0, [r0], #-153	; 0xffffff67
    3668:	3c00000a 	stccc	0, cr0, [r0], {10}
    366c:	18000004 	stmdane	r0, {r2}
    3670:	3a015001 	bcc	5767c <__bss_end__+0x4cbb4>
    3674:	03510118 	cmpeq	r1, #6
    3678:	187ed091 	ldmdane	lr!, {r0, r4, r7, ip, lr, pc}^
    367c:	79025201 	stmdbvc	r2, {r0, r9, ip, lr}
    3680:	7d021800 	stcvc	8, cr1, [r2, #-0]
    3684:	00760200 	rsbseq	r0, r6, r0, lsl #4
    3688:	99301700 	ldmdbls	r0!, {r8, r9, sl, ip}
    368c:	0c5e0000 	mraeq	r0, lr, acc0
    3690:	045a0000 	ldrbeq	r0, [sl], #-0
    3694:	01180000 	tsteq	r8, r0
    3698:	d0910350 	addsle	r0, r1, r0, asr r3
    369c:	5101187d 	tstpl	r1, sp, ror r8
    36a0:	a4200305 	strtge	r0, [r0], #-773	; 0xfffffcfb
    36a4:	17000000 	strne	r0, [r0, -r0]
    36a8:	00009944 	andeq	r9, r0, r4, asr #18
    36ac:	00000c6a 	andeq	r0, r0, sl, ror #24
    36b0:	00000476 	andeq	r0, r0, r6, ror r4
    36b4:	03500118 	cmpeq	r0, #6
    36b8:	187dd091 	ldmdane	sp!, {r0, r4, r7, ip, lr, pc}^
    36bc:	91035101 	tstls	r3, r1, lsl #2
    36c0:	19007ed0 	stmdbne	r0, {r4, r6, r7, r9, sl, fp, ip, sp, lr}
    36c4:	00009950 	andeq	r9, r0, r0, asr r9
    36c8:	00000c52 	andeq	r0, r0, r2, asr ip
    36cc:	009a1417 	addseq	r1, sl, r7, lsl r4
    36d0:	000c4600 	andeq	r4, ip, r0, lsl #12
    36d4:	0004a800 	andeq	sl, r4, r0, lsl #16
    36d8:	50011800 	andpl	r1, r1, r0, lsl #16
    36dc:	a0a80305 	adcge	r0, r8, r5, lsl #6
    36e0:	01180000 	tsteq	r8, r0
    36e4:	2c030551 	cfstr32cs	mvfx0, [r3], {81}	; 0x51
    36e8:	180000a5 	stmdane	r0, {r0, r2, r5, r7}
    36ec:	03055201 	movweq	r5, #20993	; 0x5201
    36f0:	0000a684 	andeq	sl, r0, r4, lsl #13
    36f4:	9a181900 	bls	609afc <__bss_end__+0x5ff034>
    36f8:	0c760000 	ldcleq	0, cr0, [r6], #-0
    36fc:	30170000 	andscc	r0, r7, r0
    3700:	4600009a 			; <UNDEFINED> instruction: 0x4600009a
    3704:	e700000c 	str	r0, [r0, -ip]
    3708:	18000004 	stmdane	r0, {r2}
    370c:	03055001 	movweq	r5, #20481	; 0x5001
    3710:	0000a5cc 	andeq	sl, r0, ip, asr #11
    3714:	05510118 	ldrbeq	r0, [r1, #-280]	; 0xfffffee8
    3718:	00a52c03 	adceq	r2, r5, r3, lsl #24
    371c:	52011800 	andpl	r1, r1, #0, 16
    3720:	a6840305 	strge	r0, [r4], r5, lsl #6
    3724:	01180000 	tsteq	r8, r0
    3728:	b6080253 			; <UNDEFINED> instruction: 0xb6080253
    372c:	007d0218 	rsbseq	r0, sp, r8, lsl r2
    3730:	00007602 	andeq	r7, r0, r2, lsl #12
    3734:	009a3419 	addseq	r3, sl, r9, lsl r4
    3738:	000c7600 	andeq	r7, ip, r0, lsl #12
    373c:	e31a0000 	tst	sl, #0, 0
    3740:	e4000009 	str	r0, [r0], #-9
    3744:	04000094 	streq	r0, [r0], #-148	; 0xffffff6c
    3748:	0001b000 	andeq	fp, r1, r0
    374c:	0a940100 	beq	fe503b54 <__bss_end__+0xfe4f908c>
    3750:	00000515 	andeq	r0, r0, r5, lsl r5
    3754:	0009f41b 	andeq	pc, r9, fp, lsl r4	; <UNPREDICTABLE>
    3758:	00178f00 	andseq	r8, r7, r0, lsl #30
    375c:	00178b00 	andseq	r8, r7, r0, lsl #22
    3760:	951a0000 	ldrls	r0, [sl, #-0]
    3764:	cc000008 	stcgt	0, cr0, [r0], {8}
    3768:	01000096 	swpeq	r0, r6, [r0]	; <UNPREDICTABLE>
    376c:	0001d000 	andeq	sp, r1, r0
    3770:	09dc0100 	ldmibeq	ip, {r8}^
    3774:	0000064b 	andeq	r0, r0, fp, asr #12
    3778:	0008be1b 	andeq	fp, r8, fp, lsl lr
    377c:	0017bd00 	andseq	fp, r7, r0, lsl #26
    3780:	0017b700 	andseq	fp, r7, r0, lsl #14
    3784:	08e01b00 	stmiaeq	r0!, {r8, r9, fp, ip}^
    3788:	17f20000 	ldrbne	r0, [r2, r0]!
    378c:	17ec0000 	strbne	r0, [ip, r0]!
    3790:	d41b0000 	ldrle	r0, [fp], #-0
    3794:	24000008 	strcs	r0, [r0], #-8
    3798:	1e000018 	mcrne	0, 0, r0, cr0, cr8, {0}
    379c:	1c000018 	stcne	0, cr0, [r0], {24}
    37a0:	000008c8 	andeq	r0, r0, r8, asr #17
    37a4:	0008b21b 	andeq	fp, r8, fp, lsl r2
    37a8:	00185500 	andseq	r5, r8, r0, lsl #10
    37ac:	00184d00 	andseq	r4, r8, r0, lsl #26
    37b0:	08a61b00 	stmiaeq	r6!, {r8, r9, fp, ip}
    37b4:	18980000 	ldmne	r8, {}	; <UNPREDICTABLE>
    37b8:	18920000 	ldmne	r2, {}	; <UNPREDICTABLE>
    37bc:	d0130000 	andsle	r0, r3, r0
    37c0:	1d000001 	stcne	0, cr0, [r0, #-4]
    37c4:	000008ec 	andeq	r0, r0, ip, ror #17
    37c8:	7ed89103 	atnvce	f1, f3
    37cc:	0008f81e 	andeq	pc, r8, lr, lsl r8	; <UNPREDICTABLE>
    37d0:	0018d200 	andseq	sp, r8, r0, lsl #4
    37d4:	0018c400 	andseq	ip, r8, r0, lsl #8
    37d8:	09021f00 	stmdbeq	r2, {r8, r9, sl, fp, ip}
    37dc:	a31a0000 	tstge	sl, #0, 0
    37e0:	d8000009 	stmdale	r0, {r0, r3}
    37e4:	04000096 	streq	r0, [r0], #-150	; 0xffffff6a
    37e8:	00020000 	andeq	r0, r2, r0
    37ec:	097c0100 	ldmdbeq	ip!, {r8}^
    37f0:	000005e2 	andeq	r0, r0, r2, ror #11
    37f4:	0009ca1b 	andeq	ip, r9, fp, lsl sl
    37f8:	00193c00 	andseq	r3, r9, r0, lsl #24
    37fc:	00193600 	andseq	r3, r9, r0, lsl #12
    3800:	09be1b00 	ldmibeq	lr!, {r8, r9, fp, ip}
    3804:	19710000 	ldmdbne	r1!, {}^	; <UNPREDICTABLE>
    3808:	19650000 	stmdbne	r5!, {}^	; <UNPREDICTABLE>
    380c:	b41b0000 	ldrlt	r0, [fp], #-0
    3810:	d7000009 	strle	r0, [r0, -r9]
    3814:	c7000019 	smladgt	r0, r9, r0, r0
    3818:	13000019 	movwne	r0, #25
    381c:	00000200 	andeq	r0, r0, r0, lsl #4
    3820:	0009d61e 	andeq	sp, r9, lr, lsl r6
    3824:	001a5400 	andseq	r5, sl, r0, lsl #8
    3828:	001a4600 	andseq	r4, sl, r0, lsl #12
    382c:	20000000 	andcs	r0, r0, r0
    3830:	0000094f 	andeq	r0, r0, pc, asr #18
    3834:	000097a0 	andeq	r9, r0, r0, lsr #15
    3838:	02300002 	eorseq	r0, r0, #2, 0
    383c:	7c010000 	stcvc	0, cr0, [r1], {-0}
    3840:	09801b09 	stmibeq	r0, {r0, r3, r8, r9, fp, ip}
    3844:	1ab40000 	bne	fed0384c <__bss_end__+0xfecf8d84>
    3848:	1aae0000 	bne	feb83850 <__bss_end__+0xfeb78d88>
    384c:	761b0000 	ldrvc	r0, [fp], -r0
    3850:	ea000009 	b	387c <__code_start__-0x4784>
    3854:	e000001a 	and	r0, r0, sl, lsl r0
    3858:	1b00001a 	blne	38c8 <__code_start__-0x4738>
    385c:	0000096c 	andeq	r0, r0, ip, ror #18
    3860:	00001b39 	andeq	r1, r0, r9, lsr fp
    3864:	00001b35 	andeq	r1, r0, r5, lsr fp
    3868:	0009601b 	andeq	r6, r9, fp, lsl r0
    386c:	001b6900 	andseq	r6, fp, r0, lsl #18
    3870:	001b5b00 	andseq	r5, fp, r0, lsl #22
    3874:	02301300 	eorseq	r1, r0, #0, 6
    3878:	8c1e0000 	ldchi	0, cr0, [lr], {-0}
    387c:	ce000009 	cdpgt	0, 0, cr0, cr0, cr9, {0}
    3880:	cc00001b 	stcgt	0, cr0, [r0], {27}
    3884:	1e00001b 	mcrne	0, 0, r0, cr0, cr11, {0}
    3888:	00000998 	muleq	r0, r8, r9
    388c:	00001be8 	andeq	r1, r0, r8, ror #23
    3890:	00001be2 	andeq	r1, r0, r2, ror #23
    3894:	00000000 	andeq	r0, r0, r0
    3898:	0008951a 	andeq	r9, r8, sl, lsl r5
    389c:	0097dc00 	addseq	sp, r7, r0, lsl #24
    38a0:	60000000 	andvs	r0, r0, r0
    38a4:	01000002 	tsteq	r0, r2
    38a8:	078909d6 			; <UNDEFINED> instruction: 0x078909d6
    38ac:	be1b0000 	cdplt	0, 1, cr0, cr11, cr0, {0}
    38b0:	1b000008 	blne	38d8 <__code_start__-0x4728>
    38b4:	1700001c 	smladne	r0, ip, r0, r0
    38b8:	1b00001c 	blne	3930 <__code_start__-0x46d0>
    38bc:	000008e0 	andeq	r0, r0, r0, ror #17
    38c0:	00001c41 	andeq	r1, r0, r1, asr #24
    38c4:	00001c3d 	andeq	r1, r0, sp, lsr ip
    38c8:	0008d41b 	andeq	sp, r8, fp, lsl r4
    38cc:	001c6500 	andseq	r6, ip, r0, lsl #10
    38d0:	001c6100 	andseq	r6, ip, r0, lsl #2
    38d4:	08c81c00 	stmiaeq	r8, {sl, fp, ip}^
    38d8:	b21b0000 	andslt	r0, fp, #0, 0
    38dc:	89000008 	stmdbhi	r0, {r3}
    38e0:	8300001c 	movwhi	r0, #28
    38e4:	1b00001c 	blne	395c <__code_start__-0x46a4>
    38e8:	000008a6 	andeq	r0, r0, r6, lsr #17
    38ec:	00001cbc 			; <UNDEFINED> instruction: 0x00001cbc
    38f0:	00001cb8 			; <UNDEFINED> instruction: 0x00001cb8
    38f4:	00026013 	andeq	r6, r2, r3, lsl r0
    38f8:	08ec1d00 	stmiaeq	ip!, {r8, sl, fp, ip}^
    38fc:	91030000 	mrsls	r0, (UNDEF: 3)
    3900:	f81e7ed8 			; <UNDEFINED> instruction: 0xf81e7ed8
    3904:	e6000008 	str	r0, [r0], -r8
    3908:	dc00001c 	stcle	0, cr0, [r0], {28}
    390c:	1e00001c 	mcrne	0, 0, r0, cr0, cr12, {0}
    3910:	00000902 	andeq	r0, r0, r2, lsl #18
    3914:	00001d2b 	andeq	r1, r0, fp, lsr #26
    3918:	00001d27 	andeq	r1, r0, r7, lsr #26
    391c:	0009a31a 	andeq	sl, r9, sl, lsl r3
    3920:	0097f800 	addseq	pc, r7, r0, lsl #16
    3924:	80000300 	andhi	r0, r0, r0, lsl #6
    3928:	01000002 	tsteq	r0, r2
    392c:	0720097c 			; <UNDEFINED> instruction: 0x0720097c
    3930:	ca1b0000 	bgt	6c3938 <__bss_end__+0x6b8e70>
    3934:	4d000009 	stcmi	0, cr0, [r0, #-36]	; 0xffffffdc
    3938:	4900001d 	stmdbmi	r0, {r0, r2, r3, r4}
    393c:	1b00001d 	blne	39b8 <__code_start__-0x4648>
    3940:	000009be 			; <UNDEFINED> instruction: 0x000009be
    3944:	00001d6f 	andeq	r1, r0, pc, ror #26
    3948:	00001d6b 	andeq	r1, r0, fp, ror #26
    394c:	0009b41b 	andeq	fp, r9, fp, lsl r4
    3950:	001d9900 	andseq	r9, sp, r0, lsl #18
    3954:	001d8d00 	andseq	r8, sp, r0, lsl #26
    3958:	02801300 	addeq	r1, r0, #0, 6
    395c:	d61e0000 	ldrle	r0, [lr], -r0
    3960:	f5000009 			; <UNDEFINED> instruction: 0xf5000009
    3964:	e900001d 	stmdb	r0, {r0, r2, r3, r4}
    3968:	0000001d 	andeq	r0, r0, sp, lsl r0
    396c:	094f2000 	stmdbeq	pc, {sp}^	; <UNPREDICTABLE>
    3970:	98800000 	stmls	r0, {}	; <UNPREDICTABLE>
    3974:	00020000 	andeq	r0, r2, r0
    3978:	000002a8 	andeq	r0, r0, r8, lsr #5
    397c:	1b097c01 	blne	262988 <__bss_end__+0x257ec0>
    3980:	00000980 	andeq	r0, r0, r0, lsl #19
    3984:	00001e45 	andeq	r1, r0, r5, asr #28
    3988:	00001e41 	andeq	r1, r0, r1, asr #28
    398c:	0009761b 	andeq	r7, r9, fp, lsl r6
    3990:	001e6d00 	andseq	r6, lr, r0, lsl #26
    3994:	001e6300 	andseq	r6, lr, r0, lsl #6
    3998:	096c1b00 	stmdbeq	ip!, {r8, r9, fp, ip}^
    399c:	1eb90000 	cdpne	0, 11, cr0, cr9, cr0, {0}
    39a0:	1eb50000 	cdpne	0, 11, cr0, cr5, cr0, {0}
    39a4:	601b0000 	andsvs	r0, fp, r0
    39a8:	e7000009 	str	r0, [r0, -r9]
    39ac:	db00001e 	blle	3a2c <__code_start__-0x45d4>
    39b0:	1300001e 	movwne	r0, #30
    39b4:	000002a8 	andeq	r0, r0, r8, lsr #5
    39b8:	00098c1e 	andeq	r8, r9, lr, lsl ip
    39bc:	001f4100 	andseq	r4, pc, r0, lsl #2
    39c0:	001f3d00 	andseq	r3, pc, r0, lsl #26
    39c4:	09981e00 	ldmibeq	r8, {r9, sl, fp, ip}
    39c8:	1f670000 	svcne	0x00670000
    39cc:	1f630000 	svcne	0x00630000
    39d0:	00000000 	andeq	r0, r0, r0
    39d4:	ac170000 	ldcge	0, cr0, [r7], {-0}
    39d8:	a4000095 	strge	r0, [r0], #-149	; 0xffffff6b
    39dc:	af00000a 	svcge	0x0000000a
    39e0:	18000007 	stmdane	r0, {r0, r1, r2}
    39e4:	40015001 	andmi	r5, r1, r1
    39e8:	03510118 	cmpeq	r1, #6
    39ec:	187dd091 	ldmdane	sp!, {r0, r4, r7, ip, lr, pc}^
    39f0:	75025301 	strvc	r5, [r2, #-769]	; 0xfffffcff
    39f4:	7d021800 	stcvc	8, cr1, [r2, #-0]
    39f8:	00300100 	eorseq	r0, r0, r0, lsl #2
    39fc:	0096bc17 	addseq	fp, r6, r7, lsl ip
    3a00:	000aa400 	andeq	sl, sl, r0, lsl #8
    3a04:	0007cf00 	andeq	ip, r7, r0, lsl #30
    3a08:	50011800 	andpl	r1, r1, r0, lsl #16
    3a0c:	01183a01 	tsteq	r8, r1, lsl #20
    3a10:	d0910351 	addsle	r0, r1, r1, asr r3
    3a14:	5301187d 	movwpl	r1, #6269	; 0x187d
    3a18:	00007502 	andeq	r7, r0, r2, lsl #10
    3a1c:	0099a017 	addseq	sl, r9, r7, lsl r0
    3a20:	000c4600 	andeq	r4, ip, r0, lsl #12
    3a24:	0007e600 	andeq	lr, r7, r0, lsl #12
    3a28:	50011800 	andpl	r1, r1, r0, lsl #16
    3a2c:	a61c0305 	ldrge	r0, [ip], -r5, lsl #6
    3a30:	21000000 	mrscs	r0, (UNDEF: 0)
    3a34:	000099b0 			; <UNDEFINED> instruction: 0x000099b0
    3a38:	000007f8 	strdeq	r0, [r0], -r8
    3a3c:	04500118 	ldrbeq	r0, [r0], #-280	; 0xfffffee8
    3a40:	067dc891 			; <UNDEFINED> instruction: 0x067dc891
    3a44:	99c41700 	stmibls	r4, {r8, r9, sl, ip}^
    3a48:	0c460000 	mareq	acc0, r0, r6
    3a4c:	08270000 	stmdaeq	r7!, {}	; <UNPREDICTABLE>
    3a50:	01180000 	tsteq	r8, r0
    3a54:	4c030550 	cfstr32mi	mvfx0, [r3], {80}	; 0x50
    3a58:	180000a6 	stmdane	r0, {r1, r2, r5, r7}
    3a5c:	03055101 	movweq	r5, #20737	; 0x5101
    3a60:	0000a52c 	andeq	sl, r0, ip, lsr #10
    3a64:	05520118 	ldrbeq	r0, [r2, #-280]	; 0xfffffee8
    3a68:	00a68403 	adceq	r8, r6, r3, lsl #8
    3a6c:	53011800 	movwpl	r1, #6144	; 0x1800
    3a70:	00e20802 	rsceq	r0, r2, r2, lsl #16
    3a74:	0099c819 	addseq	ip, r9, r9, lsl r8
    3a78:	000c7600 	andeq	r7, ip, r0, lsl #12
    3a7c:	99dc1700 	ldmibls	ip, {r8, r9, sl, ip}^
    3a80:	0c460000 	mareq	acc0, r0, r6
    3a84:	085f0000 	ldmdaeq	pc, {}^	; <UNPREDICTABLE>
    3a88:	01180000 	tsteq	r8, r0
    3a8c:	f4030550 	vst3.16	{d0,d2,d4}, [r3 :64], r0
    3a90:	180000a5 	stmdane	r0, {r0, r2, r5, r7}
    3a94:	03055101 	movweq	r5, #20737	; 0x5101
    3a98:	0000a52c 	andeq	sl, r0, ip, lsr #10
    3a9c:	05520118 	ldrbeq	r0, [r2, #-280]	; 0xfffffee8
    3aa0:	00a68403 	adceq	r8, r6, r3, lsl #8
    3aa4:	53011800 	movwpl	r1, #6144	; 0x1800
    3aa8:	00be0802 	adcseq	r0, lr, r2, lsl #16
    3aac:	0099e019 	addseq	lr, r9, r9, lsl r0
    3ab0:	000c7600 	andeq	r7, ip, r0, lsl #12
    3ab4:	08000000 	stmdaeq	r0, {}	; <UNPREDICTABLE>
    3ab8:	0000b904 	andeq	fp, r0, r4, lsl #18
    3abc:	00c02200 	sbceq	r2, r0, r0, lsl #4
    3ac0:	08800000 	stmeq	r0, {}	; <UNPREDICTABLE>
    3ac4:	2c230000 	stccs	0, cr0, [r3], #-0
    3ac8:	09000000 	stmdbeq	r0, {}	; <UNPREDICTABLE>
    3acc:	08700900 	ldmdaeq	r0!, {r8, fp}^
    3ad0:	b9220000 	stmdblt	r2!, {}	; <UNPREDICTABLE>
    3ad4:	95000000 	strls	r0, [r0, #-0]
    3ad8:	23000008 	movwcs	r0, #8
    3adc:	0000002c 	andeq	r0, r0, ip, lsr #32
    3ae0:	8724007f 			; <UNDEFINED> instruction: 0x8724007f
    3ae4:	01000008 	tsteq	r0, r8
    3ae8:	086a0149 	stmdaeq	sl!, {r0, r3, r6, r8}^
    3aec:	2a010000 	bcs	43af4 <__bss_end__+0x3902c>
    3af0:	25000009 	strcs	r0, [r0, #-9]
    3af4:	000008cc 	andeq	r0, r0, ip, asr #17
    3af8:	2c0f4901 			; <UNDEFINED> instruction: 0x2c0f4901
    3afc:	26000000 	strcs	r0, [r0], -r0
    3b00:	00747364 	rsbseq	r7, r4, r4, ror #6
    3b04:	6a1b4901 	bvs	6d5f10 <__bss_end__+0x6cb448>
    3b08:	26000008 	strcs	r0, [r0], -r8
    3b0c:	4901006e 	stmdbmi	r1, {r1, r2, r3, r5, r6}
    3b10:	00003324 	andeq	r3, r0, r4, lsr #6
    3b14:	61762600 	cmnvs	r6, r0, lsl #12
    3b18:	4901006c 	stmdbmi	r1, {r2, r3, r5, r6}
    3b1c:	0000332b 	andeq	r3, r0, fp, lsr #6
    3b20:	080e2500 	stmdaeq	lr, {r8, sl, sp}
    3b24:	49010000 	stmdbmi	r1, {}	; <UNPREDICTABLE>
    3b28:	00003334 	andeq	r3, r0, r4, lsr r3
    3b2c:	08212500 	stmdaeq	r1!, {r8, sl, sp}
    3b30:	49010000 	stmdbmi	r1, {}	; <UNPREDICTABLE>
    3b34:	0000333f 	andeq	r3, r0, pc, lsr r3
    3b38:	75622700 	strbvc	r2, [r2, #-1792]!	; 0xfffff900
    3b3c:	4e010066 	cdpmi	0, 0, cr0, cr1, cr6, {3}
    3b40:	00092a07 	andeq	r2, r9, r7, lsl #20
    3b44:	00702700 	rsbseq	r2, r0, r0, lsl #14
    3b48:	6a114e01 	bvs	457354 <__bss_end__+0x44c88c>
    3b4c:	27000008 	strcs	r0, [r0, -r8]
    3b50:	4f010075 	svcmi	0x00010075
    3b54:	00002c0b 	andeq	r2, r0, fp, lsl #24
    3b58:	012f1200 			; <UNDEFINED> instruction: 0x012f1200
    3b5c:	094a0000 	stmdbeq	sl, {}^	; <UNPREDICTABLE>
    3b60:	03050000 	movweq	r0, #20480	; 0x5000
    3b64:	0000a66c 	andeq	sl, r0, ip, ror #12
    3b68:	08742928 	ldmdaeq	r4!, {r3, r5, r8, fp, sp}^
    3b6c:	54010000 	strpl	r0, [r1], #-0
    3b70:	00002c0d 	andeq	r2, r0, sp, lsl #24
    3b74:	22000000 	andcs	r0, r0, #0, 0
    3b78:	000000b9 	strheq	r0, [r0], -r9
    3b7c:	0000093a 	andeq	r0, r0, sl, lsr r9
    3b80:	00002c23 	andeq	r2, r0, r3, lsr #24
    3b84:	22003f00 	andcs	r3, r0, #0, 30
    3b88:	000000c0 	andeq	r0, r0, r0, asr #1
    3b8c:	0000094a 	andeq	r0, r0, sl, asr #18
    3b90:	00002c23 	andeq	r2, r0, r3, lsr #24
    3b94:	09000400 	stmdbeq	r0, {sl}
    3b98:	0000093a 	andeq	r0, r0, sl, lsr r9
    3b9c:	00089424 	andeq	r9, r8, r4, lsr #8
    3ba0:	0e380100 	rsfeqe	f0, f0, f0
    3ba4:	0000086a 	andeq	r0, r0, sl, ror #16
    3ba8:	0009a301 	andeq	sl, r9, r1, lsl #6
    3bac:	73642600 	cmnvc	r4, #0, 12
    3bb0:	38010074 	stmdacc	r1, {r2, r4, r5, r6}
    3bb4:	00086a1c 	andeq	r6, r8, ip, lsl sl
    3bb8:	006e2600 	rsbeq	r2, lr, r0, lsl #12
    3bbc:	33253801 			; <UNDEFINED> instruction: 0x33253801
    3bc0:	26000000 	strcs	r0, [r0], -r0
    3bc4:	38010070 	stmdacc	r1, {r4, r5, r6}
    3bc8:	00086a2e 	andeq	r6, r8, lr, lsr #20
    3bcc:	04c52500 	strbeq	r2, [r5], #1280	; 0x500
    3bd0:	38010000 	stmdacc	r1, {}	; <UNPREDICTABLE>
    3bd4:	00086a37 	andeq	r6, r8, r7, lsr sl
    3bd8:	656c2700 	strbvs	r2, [ip, #-1792]!	; 0xfffff900
    3bdc:	3a01006e 	bcc	43d9c <__bss_end__+0x392d4>
    3be0:	00003306 	andeq	r3, r0, r6, lsl #6
    3be4:	00732700 	rsbseq	r2, r3, r0, lsl #14
    3be8:	6a083e01 	bvs	2133f4 <__bss_end__+0x20892c>
    3bec:	00000008 	andeq	r0, r0, r8
    3bf0:	6461702a 	strbtvs	r7, [r1], #-42	; 0xffffffd6
    3bf4:	0e2e0100 	sufeqe	f0, f6, f0
    3bf8:	0000086a 	andeq	r0, r0, sl, ror #16
    3bfc:	0009e301 	andeq	lr, r9, r1, lsl #6
    3c00:	00702600 	rsbseq	r2, r0, r0, lsl #12
    3c04:	6a182e01 	bvs	60f410 <__bss_end__+0x604948>
    3c08:	25000008 	strcs	r0, [r0, #-8]
    3c0c:	000008cc 	andeq	r0, r0, ip, asr #17
    3c10:	6a222e01 	bvs	88f41c <__bss_end__+0x884954>
    3c14:	25000008 	strcs	r0, [r0, #-8]
    3c18:	0000080e 	andeq	r0, r0, lr, lsl #16
    3c1c:	332c2e01 			; <UNDEFINED> instruction: 0x332c2e01
    3c20:	27000000 	strcs	r0, [r0, -r0]
    3c24:	006e656c 	rsbeq	r6, lr, ip, ror #10
    3c28:	33062f01 	movwcc	r2, #28417	; 0x6f01
    3c2c:	00000000 	andeq	r0, r0, r0
    3c30:	0007cd24 	andeq	ip, r7, r4, lsr #26
    3c34:	0c270100 	stfeqs	f0, [r7], #-0
    3c38:	00000033 	andeq	r0, r0, r3, lsr r0
    3c3c:	0009ff01 	andeq	pc, r9, r1, lsl #30
    3c40:	00632600 	rsbeq	r2, r3, r0, lsl #12
    3c44:	33182701 	tstcc	r8, #262144	; 0x40000
    3c48:	00000000 	andeq	r0, r0, r0
    3c4c:	00084d2b 	andeq	r4, r8, fp, lsr #26
    3c50:	061f0100 	ldreq	r0, [pc], -r0, lsl #2
    3c54:	000093f8 	strdeq	r9, [r0], -r8
    3c58:	00000060 	andeq	r0, r0, r0, rrx
    3c5c:	0a8f9c01 	beq	fe3eac68 <__bss_end__+0xfe3e01a0>
    3c60:	2a0f0000 	bcs	3c3c68 <__bss_end__+0x3b91a0>
    3c64:	01000008 	tsteq	r0, r8
    3c68:	009e1b1f 	addseq	r1, lr, pc, lsl fp
    3c6c:	1f8c0000 	svcne	0x008c0000
    3c70:	1f880000 	svcne	0x00880000
    3c74:	8c0f0000 	stchi	0, cr0, [pc], {-0}
    3c78:	01000008 	tsteq	r0, r8
    3c7c:	00d1301f 	sbcseq	r3, r1, pc, lsl r0
    3c80:	1fb10000 	svcne	0x00b10000
    3c84:	1fad0000 	svcne	0x00ad0000
    3c88:	2f120000 	svccs	0x00120000
    3c8c:	9f000001 	svcls	0x00000001
    3c90:	0500000a 	streq	r0, [r0, #-10]
    3c94:	00a67403 	adceq	r7, r6, r3, lsl #8
    3c98:	943c1700 	ldrtls	r1, [ip], #-1792	; 0xfffff900
    3c9c:	0c460000 	mareq	acc0, r0, r6
    3ca0:	0a850000 	beq	fe143ca8 <__bss_end__+0xfe1391e0>
    3ca4:	01180000 	tsteq	r8, r0
    3ca8:	a8030550 	stmdage	r3, {r4, r6, r8, sl}
    3cac:	180000a0 	stmdane	r0, {r5, r7}
    3cb0:	03055101 	movweq	r5, #20737	; 0x5101
    3cb4:	0000a52c 	andeq	sl, r0, ip, lsr #10
    3cb8:	05520118 	ldrbeq	r0, [r2, #-280]	; 0xfffffee8
    3cbc:	00a67403 	adceq	r7, r6, r3, lsl #8
    3cc0:	53011800 	movwpl	r1, #6144	; 0x1800
    3cc4:	18200802 	stmdane	r0!, {r1, fp}
    3cc8:	05007d02 	streq	r7, [r0, #-3330]	; 0xfffff2fe
    3ccc:	00a56403 	adceq	r6, r5, r3, lsl #8
    3cd0:	40190000 	andsmi	r0, r9, r0
    3cd4:	76000094 			; <UNDEFINED> instruction: 0x76000094
    3cd8:	0000000c 	andeq	r0, r0, ip
    3cdc:	0000c022 	andeq	ip, r0, r2, lsr #32
    3ce0:	000a9f00 	andeq	r9, sl, r0, lsl #30
    3ce4:	002c2300 	eoreq	r2, ip, r0, lsl #6
    3ce8:	000e0000 	andeq	r0, lr, r0
    3cec:	000a8f09 	andeq	r8, sl, r9, lsl #30
    3cf0:	08952c00 	ldmeq	r5, {sl, fp, sp}
    3cf4:	90d00000 	sbcsls	r0, r0, r0
    3cf8:	03280000 			; <UNDEFINED> instruction: 0x03280000
    3cfc:	9c010000 	stcls	0, cr0, [r1], {-0}
    3d00:	00000c3a 	andeq	r0, r0, sl, lsr ip
    3d04:	0008a61b 	andeq	sl, r8, fp, lsl r6
    3d08:	001fea00 	andseq	lr, pc, r0, lsl #20
    3d0c:	001fd200 	andseq	sp, pc, r0, lsl #4
    3d10:	08b21b00 	ldmeq	r2!, {r8, r9, fp, ip}
    3d14:	20940000 	addscs	r0, r4, r0
    3d18:	208c0000 	addcs	r0, ip, r0
    3d1c:	c81b0000 	ldmdagt	fp, {}	; <UNPREDICTABLE>
    3d20:	eb000008 	bl	3d48 <__code_start__-0x42b8>
    3d24:	cb000020 	blgt	3dac <__code_start__-0x4254>
    3d28:	1b000020 	blne	3db0 <__code_start__-0x4250>
    3d2c:	000008d4 	ldrdeq	r0, [r0], -r4
    3d30:	000021c1 	andeq	r2, r0, r1, asr #3
    3d34:	000021b3 			; <UNDEFINED> instruction: 0x000021b3
    3d38:	0008e02d 	andeq	lr, r8, sp, lsr #32
    3d3c:	00910200 	addseq	r0, r1, r0, lsl #4
    3d40:	0008ec1d 	andeq	lr, r8, sp, lsl ip
    3d44:	a8910300 	ldmge	r1, {r8, r9}
    3d48:	08f81e7f 	ldmeq	r8!, {r0, r1, r2, r3, r4, r5, r6, r9, sl, fp, ip}^
    3d4c:	22550000 	subscs	r0, r5, #0, 0
    3d50:	22210000 	eorcs	r0, r1, #0, 0
    3d54:	021e0000 	andseq	r0, lr, #0, 0
    3d58:	bc000009 	stclt	0, cr0, [r0], {9}
    3d5c:	9a000023 	bls	3df0 <__code_start__-0x4210>
    3d60:	2e000023 	cdpcs	0, 0, cr0, cr0, cr3, {1}
    3d64:	000008be 			; <UNDEFINED> instruction: 0x000008be
    3d68:	09a31a80 	stmibeq	r3!, {r7, r9, fp, ip}
    3d6c:	91740000 	cmnls	r4, r0
    3d70:	00040000 	andeq	r0, r4, r0
    3d74:	000000f8 	strdeq	r0, [r0], -r8
    3d78:	6d097c01 	stcvs	12, cr7, [r9, #-4]
    3d7c:	1b00000b 	blne	3db0 <__code_start__-0x4250>
    3d80:	000009ca 	andeq	r0, r0, sl, asr #19
    3d84:	000024a4 	andeq	r2, r0, r4, lsr #9
    3d88:	0000249a 	muleq	r0, sl, r4
    3d8c:	0009be1b 	andeq	fp, r9, fp, lsl lr
    3d90:	0024f800 	eoreq	pc, r4, r0, lsl #16
    3d94:	0024e800 	eoreq	lr, r4, r0, lsl #16
    3d98:	09b41b00 	ldmibeq	r4!, {r8, r9, fp, ip}
    3d9c:	25780000 	ldrbcs	r0, [r8, #-0]!
    3da0:	25640000 	strbcs	r0, [r4, #-0]!
    3da4:	f8130000 			; <UNDEFINED> instruction: 0xf8130000
    3da8:	1e000000 	cdpne	0, 0, cr0, cr0, cr0, {0}
    3dac:	000009d6 	ldrdeq	r0, [r0], -r6
    3db0:	0000260a 	andeq	r2, r0, sl, lsl #12
    3db4:	000025fa 	strdeq	r2, [r0], -sl
    3db8:	4f1a0000 	svcmi	0x001a0000
    3dbc:	2c000009 	stccs	0, cr0, [r0], {9}
    3dc0:	02000092 	andeq	r0, r0, #146, 0	; 0x92
    3dc4:	00014000 	andeq	r4, r1, r0
    3dc8:	097c0100 	ldmdbeq	ip!, {r8}^
    3dcc:	00000bd8 	ldrdeq	r0, [r0], -r8
    3dd0:	0009801b 	andeq	r8, r9, fp, lsl r0
    3dd4:	00267600 	eoreq	r7, r6, r0, lsl #12
    3dd8:	00266e00 	eoreq	r6, r6, r0, lsl #28
    3ddc:	09761b00 	ldmdbeq	r6!, {r8, r9, fp, ip}^
    3de0:	26b50000 	ldrtcs	r0, [r5], r0
    3de4:	26ad0000 	strtcs	r0, [sp], r0
    3de8:	6c1b0000 	ldcvs	0, cr0, [fp], {-0}
    3dec:	f4000009 	vst4.8	{d0-d3}, [r0], r9
    3df0:	f0000026 			; <UNDEFINED> instruction: 0xf0000026
    3df4:	1b000026 	blne	3e94 <__code_start__-0x416c>
    3df8:	00000960 	andeq	r0, r0, r0, ror #18
    3dfc:	00002724 	andeq	r2, r0, r4, lsr #14
    3e00:	00002716 	andeq	r2, r0, r6, lsl r7
    3e04:	00014013 	andeq	r4, r1, r3, lsl r0
    3e08:	098c1e00 	stmibeq	ip, {r9, sl, fp, ip}
    3e0c:	27890000 	strcs	r0, [r9, r0]
    3e10:	27830000 	strcs	r0, [r3, r0]
    3e14:	981e0000 	ldmdals	lr, {}	; <UNPREDICTABLE>
    3e18:	bb000009 	bllt	3e44 <__code_start__-0x41bc>
    3e1c:	b7000027 	strlt	r0, [r0, -r7, lsr #32]
    3e20:	00000027 	andeq	r0, r0, r7, lsr #32
    3e24:	091b2f00 	ldmdbeq	fp, {r8, r9, sl, fp, sp}
    3e28:	92e40000 	rscls	r0, r4, #0, 0
    3e2c:	00600000 	rsbeq	r0, r0, r0
    3e30:	0bf70000 	bleq	ffdc3e38 <__bss_end__+0xffdb9370>
    3e34:	1c1e0000 	ldcne	0, cr0, [lr], {-0}
    3e38:	dd000009 	stcle	0, cr0, [r0, #-36]	; 0xffffffdc
    3e3c:	d9000027 	stmdble	r0, {r0, r1, r2, r5}
    3e40:	00000027 	andeq	r0, r0, r7, lsr #32
    3e44:	0093b817 	addseq	fp, r3, r7, lsl r8
    3e48:	000c4600 	andeq	r4, ip, r0, lsl #12
    3e4c:	000c3000 	andeq	r3, ip, r0
    3e50:	50011800 	andpl	r1, r1, r0, lsl #16
    3e54:	a0a80305 	adcge	r0, r8, r5, lsl #6
    3e58:	01180000 	tsteq	r8, r0
    3e5c:	2c030551 	cfstr32cs	mvfx0, [r3], {81}	; 0x51
    3e60:	180000a5 	stmdane	r0, {r0, r2, r5, r7}
    3e64:	03055201 	movweq	r5, #20993	; 0x5201
    3e68:	0000a66c 	andeq	sl, r0, ip, ror #12
    3e6c:	02530118 	subseq	r0, r3, #6
    3e70:	02187908 	andseq	r7, r8, #8, 18	; 0x20000
    3e74:	0305007d 	movweq	r0, #20605	; 0x507d
    3e78:	0000a420 	andeq	sl, r0, r0, lsr #8
    3e7c:	93bc1900 			; <UNDEFINED> instruction: 0x93bc1900
    3e80:	0c760000 	ldcleq	0, cr0, [r6], #-0
    3e84:	30000000 	andcc	r0, r0, r0
    3e88:	000008c4 	andeq	r0, r0, r4, asr #17
    3e8c:	000008c4 	andeq	r0, r0, r4, asr #17
    3e90:	3005f003 	andcc	pc, r5, r3
    3e94:	0000077c 	andeq	r0, r0, ip, ror r7
    3e98:	0000077c 	andeq	r0, r0, ip, ror r7
    3e9c:	30062803 	andcc	r2, r6, r3, lsl #16
    3ea0:	00000866 	andeq	r0, r0, r6, ror #16
    3ea4:	00000866 	andeq	r0, r0, r6, ror #16
    3ea8:	3007f303 	andcc	pc, r7, r3, lsl #6
    3eac:	0000089c 	muleq	r0, ip, r8
    3eb0:	0000089c 	muleq	r0, ip, r8
    3eb4:	3005ef03 	andcc	lr, r5, r3, lsl #30
    3eb8:	0000086d 	andeq	r0, r0, sp, ror #16
    3ebc:	0000086d 	andeq	r0, r0, sp, ror #16
    3ec0:	3007f203 	andcc	pc, r7, r3, lsl #4
    3ec4:	0000037c 	andeq	r0, r0, ip, ror r3
    3ec8:	0000037c 	andeq	r0, r0, ip, ror r3
    3ecc:	00066e03 	andeq	r6, r6, r3, lsl #28
    3ed0:	0000012f 	andeq	r0, r0, pc, lsr #2
    3ed4:	0cdc0004 	ldcleq	0, cr0, [ip], {4}
    3ed8:	01040000 	mrseq	r0, (UNDEF: 4)
    3edc:	00000667 	andeq	r0, r0, r7, ror #12
    3ee0:	0008dc0c 	andeq	sp, r8, ip, lsl #24
    3ee4:	00074100 	andeq	r4, r7, r0, lsl #2
    3ee8:	009a8400 	addseq	r8, sl, r0, lsl #8
    3eec:	00002c00 	andeq	r2, r0, r0, lsl #24
    3ef0:	001a8a00 	andseq	r8, sl, r0, lsl #20
    3ef4:	05040200 	streq	r0, [r4, #-512]	; 0xfffffe00
    3ef8:	00746e69 	rsbseq	r6, r4, r9, ror #28
    3efc:	7c070403 	cfstrsvc	mvf0, [r7], {3}
    3f00:	03000001 	movweq	r0, #1
    3f04:	01510601 	cmpeq	r1, r1, lsl #12
    3f08:	02030000 	andeq	r0, r3, #0, 0
    3f0c:	00001105 	andeq	r1, r0, r5, lsl #2
    3f10:	05040300 	streq	r0, [r4, #-768]	; 0xfffffd00
    3f14:	00000110 	andeq	r0, r0, r0, lsl r1
    3f18:	0b050803 	bleq	145f2c <__bss_end__+0x13b464>
    3f1c:	03000001 	movweq	r0, #1
    3f20:	014f0801 	cmpeq	pc, r1, lsl #16
    3f24:	02030000 	andeq	r0, r3, #0, 0
    3f28:	0001e907 	andeq	lr, r1, r7, lsl #18
    3f2c:	07040300 	streq	r0, [r4, -r0, lsl #6]
    3f30:	00000177 	andeq	r0, r0, r7, ror r1
    3f34:	72070803 	andvc	r0, r7, #196608	; 0x30000
    3f38:	04000001 	streq	r0, [r0], #-1
    3f3c:	00000025 	andeq	r0, r0, r5, lsr #32
    3f40:	0000007a 	andeq	r0, r0, sl, ror r0
    3f44:	00002505 	andeq	r2, r0, r5, lsl #10
    3f48:	49060000 	stmdbmi	r6, {}	; <UNPREDICTABLE>
    3f4c:	02000000 	andeq	r0, r0, #0, 0
    3f50:	00860e1c 	addeq	r0, r6, ip, lsl lr
    3f54:	04070000 	streq	r0, [r7], #-0
    3f58:	0000006b 	andeq	r0, r0, fp, rrx
    3f5c:	00002504 	andeq	r2, r0, r4, lsl #10
    3f60:	00009b00 	andeq	r9, r0, r0, lsl #22
    3f64:	009b0500 	addseq	r0, fp, r0, lsl #10
    3f68:	07000000 	streq	r0, [r0, -r0]
    3f6c:	0000a804 	andeq	sl, r0, r4, lsl #16
    3f70:	08010300 	stmdaeq	r1, {r8, r9}
    3f74:	00000158 	andeq	r0, r0, r8, asr r1
    3f78:	0000a108 	andeq	sl, r0, r8, lsl #2
    3f7c:	07ba0600 	ldreq	r0, [sl, r0, lsl #12]!
    3f80:	21020000 	mrscs	r0, (UNDEF: 2)
    3f84:	0000b90e 	andeq	fp, r0, lr, lsl #18
    3f88:	8c040700 	stchi	7, cr0, [r4], {-0}
    3f8c:	09000000 	stmdbeq	r0, {}	; <UNPREDICTABLE>
    3f90:	0000037c 	andeq	r0, r0, ip, ror r3
    3f94:	84060401 	strhi	r0, [r6], #-1025	; 0xfffffbff
    3f98:	2c00009a 	stccs	0, cr0, [r0], {154}	; 0x9a
    3f9c:	01000000 	mrseq	r0, (UNDEF: 0)
    3fa0:	00010e9c 	muleq	r1, ip, lr
    3fa4:	9a980a00 	bls	fe6067ac <__bss_end__+0xfe5fbce4>
    3fa8:	00e80000 	rsceq	r0, r8, r0
    3fac:	010b0000 	mrseq	r0, (UNDEF: 11)
    3fb0:	90030550 	andls	r0, r3, r0, asr r5
    3fb4:	000000a6 	andeq	r0, r0, r6, lsr #1
    3fb8:	009a9c0c 	addseq	r9, sl, ip, lsl #24
    3fbc:	00010e00 	andeq	r0, r1, r0, lsl #28
    3fc0:	9aa40d00 	bls	fe9073c8 <__bss_end__+0xfe8fc900>
    3fc4:	011a0000 	tsteq	sl, r0
    3fc8:	01040000 	mrseq	r0, (UNDEF: 4)
    3fcc:	010b0000 	mrseq	r0, (UNDEF: 11)
    3fd0:	003a0150 	eorseq	r0, sl, r0, asr r1
    3fd4:	009aa80c 	addseq	sl, sl, ip, lsl #16
    3fd8:	00012600 	andeq	r2, r1, r0, lsl #12
    3fdc:	f70e0000 			; <UNDEFINED> instruction: 0xf70e0000
    3fe0:	f7000008 			; <UNDEFINED> instruction: 0xf7000008
    3fe4:	02000008 	andeq	r0, r0, #8, 0
    3fe8:	df0e064d 	svcle	0x000e064d
    3fec:	df000000 	svcle	0x00000000
    3ff0:	02000000 	andeq	r0, r0, #0, 0
    3ff4:	d10e0658 	tstle	lr, r8, asr r6
    3ff8:	d1000008 	tstle	r0, r8
    3ffc:	02000008 	andeq	r0, r0, #8, 0
    4000:	b100066b 	tstlt	r0, fp, ror #12
    4004:	04000002 	streq	r0, [r0], #-2
    4008:	000d9c00 	andeq	r9, sp, r0, lsl #24
    400c:	67010400 	strvs	r0, [r1, -r0, lsl #8]
    4010:	0c000006 	stceq	0, cr0, [r0], {6}
    4014:	0000092d 	andeq	r0, r0, sp, lsr #18
    4018:	00000741 	andeq	r0, r0, r1, asr #14
    401c:	00009ab0 			; <UNDEFINED> instruction: 0x00009ab0
    4020:	00000128 	andeq	r0, r0, r8, lsr #2
    4024:	00001b15 	andeq	r1, r0, r5, lsl fp
    4028:	69050402 	stmdbvs	r5, {r1, sl}
    402c:	0300746e 	movweq	r7, #1134	; 0x46e
    4030:	017c0704 	cmneq	ip, r4, lsl #14
    4034:	01030000 	mrseq	r0, (UNDEF: 3)
    4038:	00015106 	andeq	r5, r1, r6, lsl #2
    403c:	05020300 	streq	r0, [r2, #-768]	; 0xfffffd00
    4040:	00000011 	andeq	r0, r0, r1, lsl r0
    4044:	10050403 	andne	r0, r5, r3, lsl #8
    4048:	03000001 	movweq	r0, #1
    404c:	010b0508 	tsteq	fp, r8, lsl #10
    4050:	01030000 	mrseq	r0, (UNDEF: 3)
    4054:	00014f08 	andeq	r4, r1, r8, lsl #30
    4058:	07020300 	streq	r0, [r2, -r0, lsl #6]
    405c:	000001e9 	andeq	r0, r0, r9, ror #3
    4060:	77070403 	strvc	r0, [r7, -r3, lsl #8]
    4064:	03000001 	movweq	r0, #1
    4068:	01720708 	cmneq	r2, r8, lsl #14
    406c:	25040000 	strcs	r0, [r4, #-0]
    4070:	7a000000 	bvc	4078 <__code_start__-0x3f88>
    4074:	05000000 	streq	r0, [r0, #-0]
    4078:	00000025 	andeq	r0, r0, r5, lsr #32
    407c:	00490600 	subeq	r0, r9, r0, lsl #12
    4080:	1c020000 	stcne	0, cr0, [r2], {-0}
    4084:	0000860e 	andeq	r8, r0, lr, lsl #12
    4088:	6b040700 	blvs	105c90 <__bss_end__+0xfb1c8>
    408c:	04000000 	streq	r0, [r0], #-0
    4090:	00000025 	andeq	r0, r0, r5, lsr #32
    4094:	0000009b 	muleq	r0, fp, r0
    4098:	00009b05 	andeq	r9, r0, r5, lsl #22
    409c:	04070000 	streq	r0, [r7], #-0
    40a0:	000000a8 	andeq	r0, r0, r8, lsr #1
    40a4:	58080103 	stmdapl	r8, {r0, r1, r8}
    40a8:	08000001 	stmdaeq	r0, {r0}
    40ac:	000000a1 	andeq	r0, r0, r1, lsr #1
    40b0:	0007ba06 	andeq	fp, r7, r6, lsl #20
    40b4:	0e210200 	cdpeq	2, 2, cr0, cr1, cr0, {0}
    40b8:	000000b9 	strheq	r0, [r0], -r9
    40bc:	008c0407 	addeq	r0, ip, r7, lsl #8
    40c0:	05090000 	streq	r0, [r9, #-0]
    40c4:	01000009 	tsteq	r0, r9
    40c8:	9ab00611 	bls	fec05914 <__bss_end__+0xfebfae4c>
    40cc:	01280000 			; <UNDEFINED> instruction: 0x01280000
    40d0:	9c010000 	stcls	0, cr0, [r1], {-0}
    40d4:	00000226 	andeq	r0, r0, r6, lsr #4
    40d8:	00080006 	andeq	r0, r8, r6
    40dc:	10120100 	andsne	r0, r2, r0, lsl #2
    40e0:	00000025 	andeq	r0, r0, r5, lsr #32
    40e4:	00083206 	andeq	r3, r8, r6, lsl #4
    40e8:	1f120100 	svcne	0x00120100
    40ec:	00000025 	andeq	r0, r0, r5, lsr #32
    40f0:	0001e10a 	andeq	lr, r1, sl, lsl #2
    40f4:	07130100 	ldreq	r0, [r3, -r0, lsl #2]
    40f8:	7373620b 	cmnvc	r3, #-1342177280	; 0xb0000000
    40fc:	0a170100 	beq	5c4504 <__bss_end__+0x5b9a3c>
    4100:	00000226 	andeq	r0, r0, r6, lsr #4
    4104:	00002815 	andeq	r2, r0, r5, lsl r8
    4108:	000027fd 	strdeq	r2, [r0], -sp
    410c:	00090d0c 	andeq	r0, r9, ip, lsl #26
    4110:	0a180100 	beq	604518 <__bss_end__+0x5f9a50>
    4114:	00000226 	andeq	r0, r0, r6, lsr #4
    4118:	00094d0d 	andeq	r4, r9, sp, lsl #26
    411c:	0e250100 	sufeqs	f0, f5, f0
    4120:	0000002c 	andeq	r0, r0, ip, lsr #32
    4124:	000028af 	andeq	r2, r0, pc, lsr #17
    4128:	000028ad 	andeq	r2, r0, sp, lsr #17
    412c:	009b880e 	addseq	r8, fp, lr, lsl #16
    4130:	00000800 	andeq	r0, r0, r0, lsl #16
    4134:	00014a00 	andeq	r4, r1, r0, lsl #20
    4138:	6e690b00 	vmulvs.f64	d16, d9, d0
    413c:	05210100 	streq	r0, [r1, #-256]!	; 0xffffff00
    4140:	0000002c 	andeq	r0, r0, ip, lsr #32
    4144:	000028c4 	andeq	r2, r0, r4, asr #17
    4148:	000028c2 	andeq	r2, r0, r2, asr #17
    414c:	022c0f00 	eoreq	r0, ip, #0, 30
    4150:	9b900000 	blls	fe404158 <__bss_end__+0xfe3f9690>
    4154:	90020000 	andls	r0, r2, r0
    4158:	0c00009b 	stceq	0, cr0, [r0], {155}	; 0x9b
    415c:	01000000 	mrseq	r0, (UNDEF: 0)
    4160:	01990523 	orrseq	r0, r9, r3, lsr #10
    4164:	4f100000 	svcmi	0x00100000
    4168:	da000002 	ble	4178 <__code_start__-0x3e88>
    416c:	d8000028 	stmdale	r0, {r3, r5}
    4170:	10000028 	andne	r0, r0, r8, lsr #32
    4174:	0000025b 	andeq	r0, r0, fp, asr r2
    4178:	000028f0 	strdeq	r2, [r0], -r0
    417c:	000028ee 	andeq	r2, r0, lr, ror #17
    4180:	00026711 	andeq	r6, r2, r1, lsl r7
    4184:	009b9000 	addseq	r9, fp, r0
    4188:	00000400 	andeq	r0, r0, r0, lsl #8
    418c:	02681000 	rsbeq	r1, r8, #0, 0
    4190:	29050000 	stmdbcs	r5, {}	; <UNPREDICTABLE>
    4194:	29030000 	stmdbcs	r3, {}	; <UNPREDICTABLE>
    4198:	00000000 	andeq	r0, r0, r0
    419c:	00022c12 	andeq	r2, r2, r2, lsl ip
    41a0:	009ba000 	addseq	sl, fp, r0
    41a4:	02d00100 	sbcseq	r0, r0, #0
    41a8:	25010000 	strcs	r0, [r1, #-0]
    41ac:	0001ea15 	andeq	lr, r1, r5, lsl sl
    41b0:	02d01300 	sbcseq	r1, r0, #0, 6
    41b4:	4f100000 	svcmi	0x00100000
    41b8:	1c000002 	stcne	0, cr0, [r0], {2}
    41bc:	18000029 	stmdane	r0, {r0, r3, r5}
    41c0:	10000029 	andne	r0, r0, r9, lsr #32
    41c4:	0000025b 	andeq	r0, r0, fp, asr r2
    41c8:	0000293d 	andeq	r2, r0, sp, lsr r9
    41cc:	0000293b 	andeq	r2, r0, fp, lsr r9
    41d0:	00026711 	andeq	r6, r2, r1, lsl r7
    41d4:	009ba000 	addseq	sl, fp, r0
    41d8:	00000400 	andeq	r0, r0, r0, lsl #8
    41dc:	02681000 	rsbeq	r1, r8, #0, 0
    41e0:	29520000 	ldmdbcs	r2, {}^	; <UNPREDICTABLE>
    41e4:	29500000 	ldmdbcs	r0, {}^	; <UNPREDICTABLE>
    41e8:	00000000 	andeq	r0, r0, r0
    41ec:	9ab81400 	bls	fee091f4 <__bss_end__+0xfedfe72c>
    41f0:	02760000 	rsbseq	r0, r6, #0, 0
    41f4:	88140000 	ldmdahi	r4, {}	; <UNPREDICTABLE>
    41f8:	8300009b 	movwhi	r0, #155	; 0x9b
    41fc:	14000002 	strne	r0, [r0], #-2
    4200:	00009ba0 	andeq	r9, r0, r0, lsr #23
    4204:	0000028f 	andeq	r0, r0, pc, lsl #5
    4208:	009bbc15 	addseq	fp, fp, r5, lsl ip
    420c:	00029c00 	andeq	r9, r2, r0, lsl #24
    4210:	00021c00 	andeq	r1, r2, r0, lsl #24
    4214:	50011600 	andpl	r1, r1, r0, lsl #12
    4218:	a69c0305 	ldrge	r0, [ip], r5, lsl #6
    421c:	14000000 	strne	r0, [r0], #-0
    4220:	00009bc0 	andeq	r9, r0, r0, asr #23
    4224:	000002a8 	andeq	r0, r0, r8, lsr #5
    4228:	25040700 	strcs	r0, [r4, #-1792]	; 0xfffff900
    422c:	17000000 	strne	r0, [r0, -r0]
    4230:	00000947 	andeq	r0, r0, r7, asr #18
    4234:	2c110401 	cfldrscs	mvf0, [r1], {1}
    4238:	01000000 	mrseq	r0, (UNDEF: 0)
    423c:	00000276 	andeq	r0, r0, r6, ror r2
    4240:	00095218 	andeq	r5, r9, r8, lsl r2
    4244:	15050100 	strne	r0, [r5, #-256]	; 0xffffff00
    4248:	0000002c 	andeq	r0, r0, ip, lsr #32
    424c:	aac40305 	bge	ff104e68 <__bss_end__+0xff0fa3a0>
    4250:	4d0c0000 	stcmi	0, cr0, [ip, #-0]
    4254:	01000009 	tsteq	r0, r9
    4258:	002c0e07 	eoreq	r0, ip, r7, lsl #28
    425c:	63190000 	tstvs	r9, #0, 0
    4260:	01007275 	tsteq	r0, r5, ror r2
    4264:	002c0e09 	eoreq	r0, ip, r9, lsl #28
    4268:	0c1a0000 	ldceq	0, cr0, [sl], {-0}
    426c:	00000942 	andeq	r0, r0, r2, asr #18
    4270:	2c140901 			; <UNDEFINED> instruction: 0x2c140901
    4274:	00000000 	andeq	r0, r0, r0
    4278:	091f1b00 	ldmdbeq	pc, {r8, r9, fp, ip}	; <UNPREDICTABLE>
    427c:	091f0000 	ldmdbeq	pc, {}	; <UNPREDICTABLE>
    4280:	36020000 	strcc	r0, [r2], -r0
    4284:	151c0601 	ldrne	r0, [ip, #-1537]	; 0xfffff9ff
    4288:	15000009 	strne	r0, [r0, #-9]
    428c:	02000009 	andeq	r0, r0, #9, 0
    4290:	e11b063b 	tst	fp, fp, lsr r6
    4294:	e1000001 	tst	r0, r1
    4298:	02000001 	andeq	r0, r0, #1, 0
    429c:	1c06010a 	stfnes	f0, [r6], {10}
    42a0:	0000077c 	andeq	r0, r0, ip, ror r7
    42a4:	0000077c 	andeq	r0, r0, ip, ror r7
    42a8:	1c062802 	stcne	8, cr2, [r6], {2}
    42ac:	0000037c 	andeq	r0, r0, ip, ror r3
    42b0:	0000037c 	andeq	r0, r0, ip, ror r3
    42b4:	00066e02 	andeq	r6, r6, r2, lsl #28
    42b8:	000000ce 	andeq	r0, r0, lr, asr #1
    42bc:	0f3a0004 	svceq	0x003a0004
    42c0:	01040000 	mrseq	r0, (UNDEF: 4)
    42c4:	00000667 	andeq	r0, r0, r7, ror #12
    42c8:	0009570c 	andeq	r5, r9, ip, lsl #14
    42cc:	00074100 	andeq	r4, r7, r0, lsl #2
    42d0:	009bd800 	addseq	sp, fp, r0, lsl #16
    42d4:	00000400 	andeq	r0, r0, r0, lsl #8
    42d8:	001c8f00 	andseq	r8, ip, r0, lsl #30
    42dc:	05040200 	streq	r0, [r4, #-512]	; 0xfffffe00
    42e0:	00746e69 	rsbseq	r6, r4, r9, ror #28
    42e4:	7c070403 	cfstrsvc	mvf0, [r7], {3}
    42e8:	03000001 	movweq	r0, #1
    42ec:	01510601 	cmpeq	r1, r1, lsl #12
    42f0:	02030000 	andeq	r0, r3, #0, 0
    42f4:	00001105 	andeq	r1, r0, r5, lsl #2
    42f8:	05040300 	streq	r0, [r4, #-768]	; 0xfffffd00
    42fc:	00000110 	andeq	r0, r0, r0, lsl r1
    4300:	0b050803 	bleq	146314 <__bss_end__+0x13b84c>
    4304:	03000001 	movweq	r0, #1
    4308:	014f0801 	cmpeq	pc, r1, lsl #16
    430c:	02030000 	andeq	r0, r3, #0, 0
    4310:	0001e907 	andeq	lr, r1, r7, lsl #18
    4314:	07040300 	streq	r0, [r4, -r0, lsl #6]
    4318:	00000177 	andeq	r0, r0, r7, ror r1
    431c:	72070803 	andvc	r0, r7, #196608	; 0x30000
    4320:	04000001 	streq	r0, [r0], #-1
    4324:	00000025 	andeq	r0, r0, r5, lsr #32
    4328:	0000007a 	andeq	r0, r0, sl, ror r0
    432c:	00002505 	andeq	r2, r0, r5, lsl #10
    4330:	49060000 	stmdbmi	r6, {}	; <UNPREDICTABLE>
    4334:	02000000 	andeq	r0, r0, #0, 0
    4338:	00860e1c 	addeq	r0, r6, ip, lsl lr
    433c:	04070000 	streq	r0, [r7], #-0
    4340:	0000006b 	andeq	r0, r0, fp, rrx
    4344:	00002504 	andeq	r2, r0, r4, lsl #10
    4348:	00009b00 	andeq	r9, r0, r0, lsl #22
    434c:	009b0500 	addseq	r0, fp, r0, lsl #10
    4350:	07000000 	streq	r0, [r0, -r0]
    4354:	0000a804 	andeq	sl, r0, r4, lsl #16
    4358:	08010300 	stmdaeq	r1, {r8, r9}
    435c:	00000158 	andeq	r0, r0, r8, asr r1
    4360:	0000a108 	andeq	sl, r0, r8, lsl #2
    4364:	07ba0600 	ldreq	r0, [sl, r0, lsl #12]!
    4368:	21020000 	mrscs	r0, (UNDEF: 2)
    436c:	0000b90e 	andeq	fp, r0, lr, lsl #18
    4370:	8c040700 	stchi	7, cr0, [r4], {-0}
    4374:	09000000 	stmdbeq	r0, {}	; <UNPREDICTABLE>
    4378:	0000091f 	andeq	r0, r0, pc, lsl r9
    437c:	d8060401 	stmdale	r6, {r0, sl}
    4380:	0400009b 	streq	r0, [r0], #-155	; 0xffffff65
    4384:	01000000 	mrseq	r0, (UNDEF: 0)
    4388:	027d009c 	rsbseq	r0, sp, #156, 0	; 0x9c
    438c:	00040000 	andeq	r0, r4, r0
    4390:	00000fb3 			; <UNDEFINED> instruction: 0x00000fb3
    4394:	06670104 	strbteq	r0, [r7], -r4, lsl #2
    4398:	990c0000 	stmdbls	ip, {}	; <UNPREDICTABLE>
    439c:	41000009 	tstmi	r0, r9
    43a0:	00000007 	andeq	r0, r0, r7
    43a4:	00000003 	andeq	r0, r0, r3
    43a8:	10000000 	andne	r0, r0, r0
    43ac:	0200001d 	andeq	r0, r0, #29, 0
    43b0:	6e690504 	cdpvs	5, 6, cr0, cr9, cr4, {0}
    43b4:	25030074 	strcs	r0, [r3, #-116]	; 0xffffff8c
    43b8:	04000000 	streq	r0, [r0], #-0
    43bc:	017c0704 	cmneq	ip, r4, lsl #14
    43c0:	01040000 	mrseq	r0, (UNDEF: 4)
    43c4:	00015106 	andeq	r5, r1, r6, lsl #2
    43c8:	05020400 	streq	r0, [r2, #-1024]	; 0xfffffc00
    43cc:	00000011 	andeq	r0, r0, r1, lsl r0
    43d0:	10050404 	andne	r0, r5, r4, lsl #8
    43d4:	04000001 	streq	r0, [r0], #-1
    43d8:	010b0508 	tsteq	fp, r8, lsl #10
    43dc:	01040000 	mrseq	r0, (UNDEF: 4)
    43e0:	00014f08 	andeq	r4, r1, r8, lsl #30
    43e4:	07020400 	streq	r0, [r2, -r0, lsl #8]
    43e8:	000001e9 	andeq	r0, r0, r9, ror #3
    43ec:	77070404 	strvc	r0, [r7, -r4, lsl #8]
    43f0:	04000001 	streq	r0, [r0], #-1
    43f4:	01720708 	cmneq	r2, r8, lsl #14
    43f8:	25050000 	strcs	r0, [r5, #-0]
    43fc:	7f000000 	svcvc	0x00000000
    4400:	06000000 	streq	r0, [r0], -r0
    4404:	00000025 	andeq	r0, r0, r5, lsr #32
    4408:	00490700 	subeq	r0, r9, r0, lsl #14
    440c:	1c020000 	stcne	0, cr0, [r2], {-0}
    4410:	00008b0e 	andeq	r8, r0, lr, lsl #22
    4414:	70040800 	andvc	r0, r4, r0, lsl #16
    4418:	05000000 	streq	r0, [r0, #-0]
    441c:	00000025 	andeq	r0, r0, r5, lsr #32
    4420:	000000a0 	andeq	r0, r0, r0, lsr #1
    4424:	0000a006 	andeq	sl, r0, r6
    4428:	04080000 	streq	r0, [r8], #-0
    442c:	000000ad 	andeq	r0, r0, sp, lsr #1
    4430:	58080104 	stmdapl	r8, {r2, r8}
    4434:	03000001 	movweq	r0, #1
    4438:	000000a6 	andeq	r0, r0, r6, lsr #1
    443c:	0007ba07 	andeq	fp, r7, r7, lsl #20
    4440:	0e210200 	cdpeq	2, 2, cr0, cr1, cr0, {0}
    4444:	000000be 	strheq	r0, [r0], -lr
    4448:	00910408 	addseq	r0, r1, r8, lsl #8
    444c:	bd090000 	stclt	0, cr0, [r9, #-0]
    4450:	01000009 	tsteq	r0, r9
    4454:	0031110d 	eorseq	r1, r1, sp, lsl #2
    4458:	d10a0000 	mrsle	r0, (UNDEF: 10)
    445c:	01000008 	tsteq	r0, r8
    4460:	9c20061f 	stcls	6, cr0, [r0], #-124	; 0xffffff84
    4464:	00600000 	rsbeq	r0, r0, r0
    4468:	9c010000 	stcls	0, cr0, [r1], {-0}
    446c:	000001d5 	ldrdeq	r0, [r0], -r5
    4470:	0009e10b 	andeq	lr, r9, fp, lsl #2
    4474:	0f2c0100 	svceq	0x002c0100
    4478:	0000002c 	andeq	r0, r0, ip, lsr #32
    447c:	2010001c 	andscs	r0, r0, ip, lsl r0
    4480:	0009820b 	andeq	r8, r9, fp, lsl #4
    4484:	0f2d0100 	svceq	0x002d0100
    4488:	0000002c 	andeq	r0, r0, ip, lsr #32
    448c:	20100024 	andscs	r0, r0, r4, lsr #32
    4490:	0009ae0b 	andeq	sl, r9, fp, lsl #28
    4494:	0f2e0100 	svceq	0x002e0100
    4498:	0000002c 	andeq	r0, r0, ip, lsr #32
    449c:	5a000000 	bpl	44a4 <__code_start__-0x3b5c>
    44a0:	0009c80c 	andeq	ip, r9, ip, lsl #16
    44a4:	0f2f0100 	svceq	0x002f0100
    44a8:	0000002c 	andeq	r0, r0, ip, lsr #32
    44ac:	01ef0d20 	mvneq	r0, r0, lsr #26
    44b0:	9c200000 	stcls	0, cr0, [r0], #-0
    44b4:	e8020000 	stmda	r2, {}	; <UNPREDICTABLE>
    44b8:	01000002 	tsteq	r0, r2
    44bc:	014c0820 	cmpeq	ip, r0, lsr #16
    44c0:	e80e0000 	stmda	lr, {}	; <UNPREDICTABLE>
    44c4:	0f000002 	svceq	0x00000002
    44c8:	00000200 	andeq	r0, r0, r0, lsl #4
    44cc:	00002969 	andeq	r2, r0, r9, ror #18
    44d0:	00002965 	andeq	r2, r0, r5, ror #18
    44d4:	d5100000 	ldrle	r0, [r0, #-0]
    44d8:	34000001 	strcc	r0, [r0], #-1
    44dc:	0100009c 	swpeq	r0, ip, [r0]	; <UNPREDICTABLE>
    44e0:	00009c34 	andeq	r9, r0, r4, lsr ip
    44e4:	00000010 	andeq	r0, r0, r0, lsl r0
    44e8:	73092101 	movwvc	r2, #37121	; 0x9101
    44ec:	0f000001 	svceq	0x00000001
    44f0:	000001e2 	andeq	r0, r0, r2, ror #3
    44f4:	00002990 	muleq	r0, r0, r9
    44f8:	00002988 	andeq	r2, r0, r8, lsl #19
    44fc:	9c481100 	stflse	f1, [r8], {-0}
    4500:	024f0000 	subeq	r0, pc, #0, 0
    4504:	4c110000 	ldcmi	0, cr0, [r1], {-0}
    4508:	5c00009c 	stcpl	0, cr0, [r0], {156}	; 0x9c
    450c:	12000002 	andne	r0, r0, #2, 0
    4510:	00009c54 	andeq	r9, r0, r4, asr ip
    4514:	00000268 	andeq	r0, r0, r8, ror #4
    4518:	00000198 	muleq	r0, r8, r1
    451c:	01500113 	cmpeq	r0, r3, lsl r1
    4520:	6012003a 	andsvs	r0, r2, sl, lsr r0
    4524:	7400009c 	strvc	r0, [r0], #-156	; 0xffffff64
    4528:	b8000002 	stmdalt	r0, {r1}
    452c:	13000001 	movwne	r0, #1
    4530:	0c055001 	stceq	0, cr5, [r5], {1}
    4534:	20100024 	andscs	r0, r0, r4, lsr #32
    4538:	05510113 	ldrbeq	r0, [r1, #-275]	; 0xfffffeed
    453c:	0000010c 	andeq	r0, r0, ip, lsl #2
    4540:	6c14005a 	ldcvs	0, cr0, [r4], {90}	; 0x5a
    4544:	7400009c 	strvc	r0, [r0], #-156	; 0xffffff64
    4548:	13000002 	movwne	r0, #2
    454c:	0c055001 	stceq	0, cr5, [r5], {1}
    4550:	2010001c 	andscs	r0, r0, ip, lsl r0
    4554:	05510113 	ldrbeq	r0, [r1, #-275]	; 0xfffffeed
    4558:	0000200c 	andeq	r2, r0, ip
    455c:	1500005a 	strne	r0, [r0, #-90]	; 0xffffffa6
    4560:	0000098a 	andeq	r0, r0, sl, lsl #19
    4564:	01061701 	tsteq	r6, r1, lsl #14
    4568:	000001ef 	andeq	r0, r0, pc, ror #3
    456c:	0009e909 	andeq	lr, r9, r9, lsl #18
    4570:	0e180100 	mufeqe	f0, f0, f0
    4574:	00000031 	andeq	r0, r0, r1, lsr r0
    4578:	09ba1600 	ldmibeq	sl!, {r9, sl, ip}
    457c:	0e010000 	cdpeq	0, 0, cr0, cr1, cr0, {0}
    4580:	00002505 	andeq	r2, r0, r5, lsl #10
    4584:	020d0100 	andeq	r0, sp, #0
    4588:	e9090000 	stmdb	r9, {}	; <UNPREDICTABLE>
    458c:	01000009 	tsteq	r0, r9
    4590:	00310e0f 	eorseq	r0, r1, pc, lsl #28
    4594:	17000000 	strne	r0, [r0, -r0]
    4598:	000001ef 	andeq	r0, r0, pc, ror #3
    459c:	00009bf4 	strdeq	r9, [r0], -r4
    45a0:	00000018 	andeq	r0, r0, r8, lsl r0
    45a4:	022e9c01 	eoreq	r9, lr, #256	; 0x100
    45a8:	000f0000 	andeq	r0, pc, r0
    45ac:	cd000002 	stcgt	0, cr0, [r0, #-8]
    45b0:	c9000029 	stmdbgt	r0, {r0, r3, r5}
    45b4:	00000029 	andeq	r0, r0, r9, lsr #32
    45b8:	0001d517 	andeq	sp, r1, r7, lsl r5
    45bc:	009c0c00 	addseq	r0, ip, r0, lsl #24
    45c0:	00001400 	andeq	r1, r0, r0, lsl #8
    45c4:	4f9c0100 	svcmi	0x009c0100
    45c8:	0f000002 	svceq	0x00000002
    45cc:	000001e2 	andeq	r0, r0, r2, ror #3
    45d0:	000029f4 	strdeq	r2, [r0], -r4
    45d4:	000029ec 	andeq	r2, r0, ip, ror #19
    45d8:	09731800 	ldmdbeq	r3!, {fp, ip}^
    45dc:	09730000 	ldmdbeq	r3!, {}^	; <UNPREDICTABLE>
    45e0:	3b020000 	blcc	845e8 <__bss_end__+0x79b20>
    45e4:	f7190601 			; <UNDEFINED> instruction: 0xf7190601
    45e8:	f7000008 			; <UNDEFINED> instruction: 0xf7000008
    45ec:	02000008 	andeq	r0, r0, #8, 0
    45f0:	df19064d 	svcle	0x0019064d
    45f4:	df000000 	svcle	0x00000000
    45f8:	02000000 	andeq	r0, r0, #0, 0
    45fc:	07190658 			; <UNDEFINED> instruction: 0x07190658
    4600:	07000006 	streq	r0, [r0, -r6]
    4604:	02000006 	andeq	r0, r0, #6, 0
    4608:	3f0006b2 	svccc	0x000006b2
    460c:	04000005 	streq	r0, [r0], #-5
    4610:	00113600 	andseq	r3, r1, r0, lsl #12
    4614:	67010400 	strvs	r0, [r1, -r0, lsl #8]
    4618:	0c000006 	stceq	0, cr0, [r0], {6}
    461c:	000009f8 	strdeq	r0, [r0], -r8
    4620:	00000741 	andeq	r0, r0, r1, asr #14
    4624:	00009c80 	andeq	r9, r0, r0, lsl #25
    4628:	0000011c 	andeq	r0, r0, ip, lsl r1
    462c:	00001e28 	andeq	r1, r0, r8, lsr #28
    4630:	69050402 	stmdbvs	r5, {r1, sl}
    4634:	0300746e 	movweq	r7, #1134	; 0x46e
    4638:	017c0704 	cmneq	ip, r4, lsl #14
    463c:	01030000 	mrseq	r0, (UNDEF: 3)
    4640:	00015106 	andeq	r5, r1, r6, lsl #2
    4644:	05020300 	streq	r0, [r2, #-768]	; 0xfffffd00
    4648:	00000011 	andeq	r0, r0, r1, lsl r0
    464c:	10050403 	andne	r0, r5, r3, lsl #8
    4650:	03000001 	movweq	r0, #1
    4654:	010b0508 	tsteq	fp, r8, lsl #10
    4658:	01030000 	mrseq	r0, (UNDEF: 3)
    465c:	00014f08 	andeq	r4, r1, r8, lsl #30
    4660:	07020300 	streq	r0, [r2, -r0, lsl #6]
    4664:	000001e9 	andeq	r0, r0, r9, ror #3
    4668:	77070403 	strvc	r0, [r7, -r3, lsl #8]
    466c:	03000001 	movweq	r0, #1
    4670:	01720708 	cmneq	r2, r8, lsl #14
    4674:	25040000 	strcs	r0, [r4, #-0]
    4678:	7a000000 	bvc	4680 <__code_start__-0x3980>
    467c:	05000000 	streq	r0, [r0, #-0]
    4680:	00000025 	andeq	r0, r0, r5, lsr #32
    4684:	00490600 	subeq	r0, r9, r0, lsl #12
    4688:	1c020000 	stcne	0, cr0, [r2], {-0}
    468c:	0000860e 	andeq	r8, r0, lr, lsl #12
    4690:	6b040700 	blvs	106298 <__bss_end__+0xfb7d0>
    4694:	04000000 	streq	r0, [r0], #-0
    4698:	00000025 	andeq	r0, r0, r5, lsr #32
    469c:	0000009b 	muleq	r0, fp, r0
    46a0:	00009b05 	andeq	r9, r0, r5, lsl #22
    46a4:	04070000 	streq	r0, [r7], #-0
    46a8:	000000a8 	andeq	r0, r0, r8, lsr #1
    46ac:	58080103 	stmdapl	r8, {r0, r1, r8}
    46b0:	08000001 	stmdaeq	r0, {r0}
    46b4:	000000a1 	andeq	r0, r0, r1, lsr #1
    46b8:	0007ba06 	andeq	fp, r7, r6, lsl #20
    46bc:	0e210200 	cdpeq	2, 2, cr0, cr1, cr0, {0}
    46c0:	000000b9 	strheq	r0, [r0], -r9
    46c4:	008c0407 	addeq	r0, ip, r7, lsl #8
    46c8:	ee090000 	cdp	0, 0, cr0, cr9, cr0, {0}
    46cc:	01000009 	tsteq	r0, r9
    46d0:	9d48061e 	stclls	6, cr0, [r8, #-120]	; 0xffffff88
    46d4:	00540000 	subseq	r0, r4, r0
    46d8:	9c010000 	stcls	0, cr0, [r1], {-0}
    46dc:	0000020b 	andeq	r0, r0, fp, lsl #4
    46e0:	6365730a 	cmnvs	r5, #671088640	; 0x28000000
    46e4:	191e0100 	ldmdbne	lr, {r8}
    46e8:	0000002c 	andeq	r0, r0, ip, lsr #32
    46ec:	00002a31 	andeq	r2, r0, r1, lsr sl
    46f0:	00002a2d 	andeq	r2, r0, sp, lsr #20
    46f4:	00020b0b 	andeq	r0, r2, fp, lsl #22
    46f8:	009d4800 	addseq	r4, sp, r0, lsl #16
    46fc:	03c80200 	biceq	r0, r8, #0, 4
    4700:	1f010000 	svcne	0x00010000
    4704:	02180c05 	andseq	r0, r8, #1280	; 0x500
    4708:	2a560000 	bcs	1584710 <__bss_end__+0x1579c48>
    470c:	2a520000 	bcs	1484714 <__bss_end__+0x1479c4c>
    4710:	240d0000 	strcs	r0, [sp], #-0
    4714:	5c000002 	stcpl	0, cr0, [r0], {2}
    4718:	0000009d 	muleq	r0, sp, r0
    471c:	00009d5c 	andeq	r9, r0, ip, asr sp
    4720:	00000040 	andeq	r0, r0, r0, asr #32
    4724:	0c051c01 	stceq	12, cr1, [r5], {1}
    4728:	00000231 	andeq	r0, r0, r1, lsr r2
    472c:	00002a83 	andeq	r2, r0, r3, lsl #21
    4730:	00002a81 	andeq	r2, r0, r1, lsl #21
    4734:	00023c0e 	andeq	r3, r2, lr, lsl #24
    4738:	002a9800 	eoreq	r9, sl, r0, lsl #16
    473c:	002a9600 	eoreq	r9, sl, r0, lsl #12
    4740:	02550f00 	subseq	r0, r5, #0, 30
    4744:	9d5c0000 	ldclls	0, cr0, [ip, #-0]
    4748:	5c020000 	stcpl	0, cr0, [r2], {-0}
    474c:	1400009d 	strne	r0, [r0], #-157	; 0xffffff63
    4750:	01000000 	mrseq	r0, (UNDEF: 0)
    4754:	019c1313 	orrseq	r1, ip, r3, lsl r3
    4758:	660e0000 	strvs	r0, [lr], -r0
    475c:	af000002 	svcge	0x00000002
    4760:	ab00002a 	blge	4810 <__code_start__-0x37f0>
    4764:	0f00002a 	svceq	0x0000002a
    4768:	00000271 	andeq	r0, r0, r1, ror r2
    476c:	00009d60 	andeq	r9, r0, r0, ror #26
    4770:	009d6001 	addseq	r6, sp, r1
    4774:	00000c00 	andeq	r0, r0, r0, lsl #24
    4778:	120d0100 	andne	r0, sp, #0
    477c:	00000189 	andeq	r0, r0, r9, lsl #3
    4780:	009d6810 	addseq	r6, sp, r0, lsl r8
    4784:	00052a00 	andeq	r2, r5, r0, lsl #20
    4788:	50011100 	andpl	r1, r1, r0, lsl #2
    478c:	30040c05 	andcc	r0, r4, r5, lsl #24
    4790:	00002000 	andeq	r2, r0, r0
    4794:	009d6012 	addseq	r6, sp, r2, lsl r0
    4798:	00053600 	andeq	r3, r5, r0, lsl #12
    479c:	9d701200 	lfmls	f1, 2, [r0, #-0]
    47a0:	05360000 	ldreq	r0, [r6, #-0]!
    47a4:	13000000 	movwne	r0, #0
    47a8:	00000247 	andeq	r0, r0, r7, asr #4
    47ac:	000003e0 	andeq	r0, r0, r0, ror #7
    47b0:	00024814 	andeq	r4, r2, r4, lsl r8
    47b4:	02550b00 	subseq	r0, r5, #0, 22
    47b8:	9d740000 	ldclls	0, cr0, [r4, #-0]
    47bc:	f8020000 			; <UNDEFINED> instruction: 0xf8020000
    47c0:	01000003 	tsteq	r0, r3
    47c4:	f8151715 			; <UNDEFINED> instruction: 0xf8151715
    47c8:	0e000003 	cdpeq	0, 0, cr0, cr0, cr3, {0}
    47cc:	00000266 	andeq	r0, r0, r6, ror #4
    47d0:	00002acf 	andeq	r2, r0, pc, asr #21
    47d4:	00002acd 	andeq	r2, r0, sp, asr #21
    47d8:	00027116 	andeq	r7, r2, r6, lsl r1
    47dc:	009d7800 	addseq	r7, sp, r0, lsl #16
    47e0:	04180100 	ldreq	r0, [r8], #-256	; 0xffffff00
    47e4:	0d010000 	stceq	0, cr0, [r1, #-0]
    47e8:	0001f312 	andeq	pc, r1, r2, lsl r3	; <UNPREDICTABLE>
    47ec:	9d801000 	stcls	0, cr1, [r0]
    47f0:	052a0000 	streq	r0, [sl, #-0]!
    47f4:	01110000 	tsteq	r1, r0
    47f8:	00770250 	rsbseq	r0, r7, r0, asr r2
    47fc:	78120000 	ldmdavc	r2, {}	; <UNPREDICTABLE>
    4800:	3600009d 			; <UNDEFINED> instruction: 0x3600009d
    4804:	12000005 	andne	r0, r0, #5, 0
    4808:	00009d8c 	andeq	r9, r0, ip, lsl #27
    480c:	00000536 	andeq	r0, r0, r6, lsr r5
    4810:	00000000 	andeq	r0, r0, r0
    4814:	df170000 	svcle	0x00170000
    4818:	01000000 	mrseq	r0, (UNDEF: 0)
    481c:	2401061b 	strcs	r0, [r1], #-1563	; 0xfffff9e5
    4820:	18000002 	stmdane	r0, {r1}
    4824:	0100736d 	tsteq	r0, sp, ror #6
    4828:	002c181b 	eoreq	r1, ip, fp, lsl r8
    482c:	17000000 	strne	r0, [r0, -r0]
    4830:	00000a2e 	andeq	r0, r0, lr, lsr #20
    4834:	01061201 	tsteq	r6, r1, lsl #4
    4838:	00000255 	andeq	r0, r0, r5, asr r2
    483c:	00737518 	rsbseq	r7, r3, r8, lsl r5
    4840:	2c181201 	lfmcs	f1, 4, [r8], {1}
    4844:	19000000 	stmdbne	r0, {}	; <UNPREDICTABLE>
    4848:	01006272 	tsteq	r0, r2, ror r2
    484c:	002c0e13 	eoreq	r0, ip, r3, lsl lr
    4850:	191a0000 	ldmdbne	sl, {}	; <UNPREDICTABLE>
    4854:	01006172 	tsteq	r0, r2, ror r1
    4858:	002c1215 	eoreq	r1, ip, r5, lsl r2
    485c:	00000000 	andeq	r0, r0, r0
    4860:	000a0c1b 	andeq	r0, sl, fp, lsl ip
    4864:	0a090100 	beq	244c6c <__bss_end__+0x23a1a4>
    4868:	0000002c 	andeq	r0, r0, ip, lsr #32
    486c:	00027101 	andeq	r7, r2, r1, lsl #2
    4870:	00751900 	rsbseq	r1, r5, r0, lsl #18
    4874:	2c0e0d01 	stccs	13, cr0, [lr], {1}
    4878:	00000000 	andeq	r0, r0, r0
    487c:	000a1b1c 	andeq	r1, sl, ip, lsl fp
    4880:	0a040100 	beq	104c88 <__bss_end__+0xfa1c0>
    4884:	0000002c 	andeq	r0, r0, ip, lsr #32
    4888:	02711d01 	rsbseq	r1, r1, #64	; 0x40
    488c:	9c800000 	stcls	0, cr0, [r0], {0}
    4890:	000c0000 	andeq	r0, ip, r0
    4894:	9c010000 	stcls	0, cr0, [r1], {-0}
    4898:	000002a5 	andeq	r0, r0, r5, lsr #5
    489c:	009c881e 	addseq	r8, ip, lr, lsl r8
    48a0:	00052a00 	andeq	r2, r5, r0, lsl #20
    48a4:	50011100 	andpl	r1, r1, r0, lsl #2
    48a8:	30040c05 	andcc	r0, r4, r5, lsl #24
    48ac:	00002000 	andeq	r2, r0, r0
    48b0:	0002551d 	andeq	r5, r2, sp, lsl r5
    48b4:	009c8c00 	addseq	r8, ip, r0, lsl #24
    48b8:	00002400 	andeq	r2, r0, r0, lsl #8
    48bc:	059c0100 	ldreq	r0, [ip, #256]	; 0x100
    48c0:	0e000003 	cdpeq	0, 0, cr0, cr0, cr3, {0}
    48c4:	00000266 	andeq	r0, r0, r6, ror #4
    48c8:	00002ae6 	andeq	r2, r0, r6, ror #21
    48cc:	00002ae2 	andeq	r2, r0, r2, ror #21
    48d0:	0002710f 	andeq	r7, r2, pc, lsl #2
    48d4:	009c9400 	addseq	r9, ip, r0, lsl #8
    48d8:	9c940100 	ldflss	f0, [r4], {0}
    48dc:	000c0000 	andeq	r0, ip, r0
    48e0:	0d010000 	stceq	0, cr0, [r1, #-0]
    48e4:	0002f212 	andeq	pc, r2, r2, lsl r2	; <UNPREDICTABLE>
    48e8:	9c9c1000 	ldcls	0, cr1, [ip], {0}
    48ec:	052a0000 	streq	r0, [sl, #-0]!
    48f0:	01110000 	tsteq	r1, r0
    48f4:	040c0550 	streq	r0, [ip], #-1360	; 0xfffffab0
    48f8:	00200030 	eoreq	r0, r0, r0, lsr r0
    48fc:	9c941200 	lfmls	f1, 4, [r4], {0}
    4900:	05360000 	ldreq	r0, [r6, #-0]!
    4904:	a4120000 	ldrge	r0, [r2], #-0
    4908:	3600009c 			; <UNDEFINED> instruction: 0x3600009c
    490c:	00000005 	andeq	r0, r0, r5
    4910:	0002241d 	andeq	r2, r2, sp, lsl r4
    4914:	009cb000 	addseq	fp, ip, r0
    4918:	00004800 	andeq	r4, r0, r0, lsl #16
    491c:	079c0100 	ldreq	r0, [ip, r0, lsl #2]
    4920:	0c000004 	stceq	0, cr0, [r0], {4}
    4924:	00000231 	andeq	r0, r0, r1, lsr r2
    4928:	00002b08 	andeq	r2, r0, r8, lsl #22
    492c:	00002b04 	andeq	r2, r0, r4, lsl #22
    4930:	00023c0e 	andeq	r3, r2, lr, lsl #24
    4934:	002b2800 	eoreq	r2, fp, r0, lsl #16
    4938:	002b2600 	eoreq	r2, fp, r0, lsl #12
    493c:	02551600 	subseq	r1, r5, #0, 12
    4940:	9cb00000 	ldcls	0, cr0, [r0]
    4944:	10020000 	andne	r0, r2, r0
    4948:	01000003 	tsteq	r0, r3
    494c:	039a1313 	orrseq	r1, sl, #1275068416	; 0x4c000000
    4950:	10150000 	andsne	r0, r5, r0
    4954:	0e000003 	cdpeq	0, 0, cr0, cr0, cr3, {0}
    4958:	00000266 	andeq	r0, r0, r6, ror #4
    495c:	00002b3f 	andeq	r2, r0, pc, lsr fp
    4960:	00002b3b 	andeq	r2, r0, fp, lsr fp
    4964:	0002710f 	andeq	r7, r2, pc, lsl #2
    4968:	009cbc00 	addseq	fp, ip, r0, lsl #24
    496c:	9cbc0100 	ldflss	f0, [ip]
    4970:	000c0000 	andeq	r0, ip, r0
    4974:	0d010000 	stceq	0, cr0, [r1, #-0]
    4978:	00038612 	andeq	r8, r3, r2, lsl r6
    497c:	9cc41000 	stclls	0, cr1, [r4], {0}
    4980:	052a0000 	streq	r0, [sl, #-0]!
    4984:	01110000 	tsteq	r1, r0
    4988:	040c0550 	streq	r0, [ip], #-1360	; 0xfffffab0
    498c:	00200030 	eoreq	r0, r0, r0, lsr r0
    4990:	9cbc1200 	lfmls	f1, 4, [ip]
    4994:	05360000 	ldreq	r0, [r6, #-0]!
    4998:	cc120000 	ldcgt	0, cr0, [r2], {-0}
    499c:	3600009c 			; <UNDEFINED> instruction: 0x3600009c
    49a0:	00000005 	andeq	r0, r0, r5
    49a4:	02471300 	subeq	r1, r7, #0, 6
    49a8:	03280000 			; <UNDEFINED> instruction: 0x03280000
    49ac:	48140000 	ldmdami	r4, {}	; <UNPREDICTABLE>
    49b0:	0b000002 	bleq	49c0 <__code_start__-0x3640>
    49b4:	00000255 	andeq	r0, r0, r5, asr r2
    49b8:	00009cd0 	ldrdeq	r9, [r0], -r0
    49bc:	00034002 	andeq	r4, r3, r2
    49c0:	17150100 	ldrne	r0, [r5, -r0, lsl #2]
    49c4:	00034015 	andeq	r4, r3, r5, lsl r0
    49c8:	02660e00 	rsbeq	r0, r6, #0, 28
    49cc:	2b5f0000 	blcs	17c49d4 <__bss_end__+0x17b9f0c>
    49d0:	2b5d0000 	blcs	17449d8 <__bss_end__+0x1739f10>
    49d4:	71160000 	tstvc	r6, r0
    49d8:	d4000002 	strle	r0, [r0], #-2
    49dc:	0100009c 	swpeq	r0, ip, [r0]	; <UNPREDICTABLE>
    49e0:	00000360 	andeq	r0, r0, r0, ror #6
    49e4:	f1120d01 			; <UNDEFINED> instruction: 0xf1120d01
    49e8:	10000003 	andne	r0, r0, r3
    49ec:	00009cdc 	ldrdeq	r9, [r0], -ip
    49f0:	0000052a 	andeq	r0, r0, sl, lsr #10
    49f4:	02500111 	subseq	r0, r0, #1073741828	; 0x40000004
    49f8:	00000077 	andeq	r0, r0, r7, ror r0
    49fc:	009cd412 	addseq	sp, ip, r2, lsl r4
    4a00:	00053600 	andeq	r3, r5, r0, lsl #12
    4a04:	9ce81200 	sfmls	f1, 2, [r8]
    4a08:	05360000 	ldreq	r0, [r6, #-0]!
    4a0c:	00000000 	andeq	r0, r0, r0
    4a10:	0b1d0000 	bleq	744a18 <__bss_end__+0x739f50>
    4a14:	f8000002 			; <UNDEFINED> instruction: 0xf8000002
    4a18:	5000009c 	mulpl	r0, ip, r0
    4a1c:	01000000 	mrseq	r0, (UNDEF: 0)
    4a20:	00052a9c 	muleq	r5, ip, sl
    4a24:	02180c00 	andseq	r0, r8, #0, 24
    4a28:	2b760000 	blcs	1d84a30 <__bss_end__+0x1d79f68>
    4a2c:	2b720000 	blcs	1c84a34 <__bss_end__+0x1c79f6c>
    4a30:	240d0000 	strcs	r0, [sp], #-0
    4a34:	08000002 	stmdaeq	r0, {r1}
    4a38:	0000009d 	muleq	r0, sp, r0
    4a3c:	00009d08 	andeq	r9, r0, r8, lsl #26
    4a40:	00000040 	andeq	r0, r0, r0, asr #32
    4a44:	0c051c01 	stceq	12, cr1, [r5], {1}
    4a48:	00000231 	andeq	r0, r0, r1, lsr r2
    4a4c:	00002b99 	muleq	r0, r9, fp
    4a50:	00002b97 	muleq	r0, r7, fp
    4a54:	00023c0e 	andeq	r3, r2, lr, lsl #24
    4a58:	002bae00 	eoreq	sl, fp, r0, lsl #28
    4a5c:	002bac00 	eoreq	sl, fp, r0, lsl #24
    4a60:	02550f00 	subseq	r0, r5, #0, 30
    4a64:	9d080000 	stcls	0, cr0, [r8, #-0]
    4a68:	08020000 	stmdaeq	r2, {}	; <UNPREDICTABLE>
    4a6c:	1400009d 	strne	r0, [r0], #-157	; 0xffffff63
    4a70:	01000000 	mrseq	r0, (UNDEF: 0)
    4a74:	04bc1313 	ldrteq	r1, [ip], #787	; 0x313
    4a78:	660e0000 	strvs	r0, [lr], -r0
    4a7c:	c5000002 	strgt	r0, [r0, #-2]
    4a80:	c100002b 	tstgt	r0, fp, lsr #32
    4a84:	0f00002b 	svceq	0x0000002b
    4a88:	00000271 	andeq	r0, r0, r1, ror r2
    4a8c:	00009d0c 	andeq	r9, r0, ip, lsl #26
    4a90:	009d0c01 	addseq	r0, sp, r1, lsl #24
    4a94:	00000c00 	andeq	r0, r0, r0, lsl #24
    4a98:	120d0100 	andne	r0, sp, #0
    4a9c:	000004a9 	andeq	r0, r0, r9, lsr #9
    4aa0:	009d1410 	addseq	r1, sp, r0, lsl r4
    4aa4:	00052a00 	andeq	r2, r5, r0, lsl #20
    4aa8:	50011100 	andpl	r1, r1, r0, lsl #2
    4aac:	30040c05 	andcc	r0, r4, r5, lsl #24
    4ab0:	00002000 	andeq	r2, r0, r0
    4ab4:	009d0c12 	addseq	r0, sp, r2, lsl ip
    4ab8:	00053600 	andeq	r3, r5, r0, lsl #12
    4abc:	9d1c1200 	lfmls	f1, 4, [ip, #-0]
    4ac0:	05360000 	ldreq	r0, [r6, #-0]!
    4ac4:	13000000 	movwne	r0, #0
    4ac8:	00000247 	andeq	r0, r0, r7, asr #4
    4acc:	00000378 	andeq	r0, r0, r8, ror r3
    4ad0:	00024814 	andeq	r4, r2, r4, lsl r8
    4ad4:	02550b00 	subseq	r0, r5, #0, 22
    4ad8:	9d200000 	stcls	0, cr0, [r0, #-0]
    4adc:	90020000 	andls	r0, r2, r0
    4ae0:	01000003 	tsteq	r0, r3
    4ae4:	90151715 	andsls	r1, r5, r5, lsl r7
    4ae8:	0e000003 	cdpeq	0, 0, cr0, cr0, cr3, {0}
    4aec:	00000266 	andeq	r0, r0, r6, ror #4
    4af0:	00002be5 	andeq	r2, r0, r5, ror #23
    4af4:	00002be3 	andeq	r2, r0, r3, ror #23
    4af8:	00027116 	andeq	r7, r2, r6, lsl r1
    4afc:	009d2400 	addseq	r2, sp, r0, lsl #8
    4b00:	03b00100 	movseq	r0, #0
    4b04:	0d010000 	stceq	0, cr0, [r1, #-0]
    4b08:	00051312 	andeq	r1, r5, r2, lsl r3
    4b0c:	9d2c1000 	stcls	0, cr1, [ip, #-0]
    4b10:	052a0000 	streq	r0, [sl, #-0]!
    4b14:	01110000 	tsteq	r1, r0
    4b18:	00770250 	rsbseq	r0, r7, r0, asr r2
    4b1c:	24120000 	ldrcs	r0, [r2], #-0
    4b20:	3600009d 			; <UNDEFINED> instruction: 0x3600009d
    4b24:	12000005 	andne	r0, r0, #5, 0
    4b28:	00009d38 	andeq	r9, r0, r8, lsr sp
    4b2c:	00000536 	andeq	r0, r0, r6, lsr r5
    4b30:	00000000 	andeq	r0, r0, r0
    4b34:	06171f00 	ldreq	r1, [r7], -r0, lsl #30
    4b38:	06170000 	ldreq	r0, [r7], -r0
    4b3c:	c7020000 	strgt	r0, [r2, -r0]
    4b40:	04f41f0a 	ldrbteq	r1, [r4], #3850	; 0xf0a
    4b44:	04f40000 	ldrbteq	r0, [r4], #0
    4b48:	a1020000 	mrsge	r0, (UNDEF: 2)
    4b4c:	05cd0006 	strbeq	r0, [sp, #6]
    4b50:	00040000 	andeq	r0, r4, r0
    4b54:	00001305 	andeq	r1, r0, r5, lsl #6
    4b58:	0ad50104 	beq	ff544f70 <__bss_end__+0xff53a4a8>
    4b5c:	5f0c0000 	svcpl	0x000c0000
    4b60:	8500000a 	strhi	r0, [r0, #-10]
    4b64:	9c00000a 	stcls	0, cr0, [r0], {10}
    4b68:	f000009d 			; <UNDEFINED> instruction: 0xf000009d
    4b6c:	26000001 	strcs	r0, [r0], -r1
    4b70:	02000020 	andeq	r0, r0, #32, 0
    4b74:	6e690504 	cdpvs	5, 6, cr0, cr9, cr4, {0}
    4b78:	04030074 	streq	r0, [r3], #-116	; 0xffffff8c
    4b7c:	00017c07 	andeq	r7, r1, r7, lsl #24
    4b80:	002c0400 	eoreq	r0, ip, r0, lsl #8
    4b84:	01030000 	mrseq	r0, (UNDEF: 3)
    4b88:	00015106 	andeq	r5, r1, r6, lsl #2
    4b8c:	05020300 	streq	r0, [r2, #-768]	; 0xfffffd00
    4b90:	00000011 	andeq	r0, r0, r1, lsl r0
    4b94:	10050403 	andne	r0, r5, r3, lsl #8
    4b98:	03000001 	movweq	r0, #1
    4b9c:	010b0508 	tsteq	fp, r8, lsl #10
    4ba0:	01030000 	mrseq	r0, (UNDEF: 3)
    4ba4:	00014f08 	andeq	r4, r1, r8, lsl #30
    4ba8:	07020300 	streq	r0, [r2, -r0, lsl #6]
    4bac:	000001e9 	andeq	r0, r0, r9, ror #3
    4bb0:	00018905 	andeq	r8, r1, r5, lsl #18
    4bb4:	19340500 	ldmdbne	r4!, {r8, sl}
    4bb8:	0000006e 	andeq	r0, r0, lr, rrx
    4bbc:	77070403 	strvc	r0, [r7, -r3, lsl #8]
    4bc0:	03000001 	movweq	r0, #1
    4bc4:	01720708 	cmneq	r2, r8, lsl #14
    4bc8:	01030000 	mrseq	r0, (UNDEF: 3)
    4bcc:	00015808 	andeq	r5, r1, r8, lsl #16
    4bd0:	01070600 	tsteq	r7, r0, lsl #12
    4bd4:	00000054 	andeq	r0, r0, r4, asr r0
    4bd8:	c20e0c04 	andgt	r0, lr, #4, 24	; 0x400
    4bdc:	07000000 	streq	r0, [r0, -r0]
    4be0:	000004ab 	andeq	r0, r0, fp, lsr #9
    4be4:	03df0700 	bicseq	r0, pc, #0, 14
    4be8:	07010000 	streq	r0, [r1, -r0]
    4bec:	000003f8 	strdeq	r0, [r0], -r8
    4bf0:	04070704 	streq	r0, [r7], #-1796	; 0xfffff8fc
    4bf4:	07050000 	streq	r0, [r5, -r0]
    4bf8:	00000416 	andeq	r0, r0, r6, lsl r4
    4bfc:	04250706 	strteq	r0, [r5], #-1798	; 0xfffff8fa
    4c00:	07070000 	streq	r0, [r7, -r0]
    4c04:	00000434 	andeq	r0, r0, r4, lsr r4
    4c08:	04430703 	strbeq	r0, [r3], #-1795	; 0xfffff8fd
    4c0c:	00020000 	andeq	r0, r2, r0
    4c10:	000a5308 	andeq	r5, sl, r8, lsl #6
    4c14:	06022c00 	streq	r2, [r2], -r0, lsl #24
    4c18:	00015e08 	andeq	r5, r1, r8, lsl #28
    4c1c:	6f690900 	svcvs	0x00690900
    4c20:	09090200 	stmdbeq	r9, {r9}
    4c24:	00000033 	andeq	r0, r0, r3, lsr r0
    4c28:	65690900 	strbvs	r0, [r9, #-2304]!	; 0xfffff700
    4c2c:	0a020072 	beq	84dfc <__bss_end__+0x7a334>
    4c30:	00003309 	andeq	r3, r0, r9, lsl #6
    4c34:	69090400 	stmdbvs	r9, {sl}
    4c38:	02007269 	andeq	r7, r0, #-1879048186	; 0x90000006
    4c3c:	00330911 	eorseq	r0, r3, r1, lsl r9
    4c40:	09080000 	stmdbeq	r8, {}	; <UNPREDICTABLE>
    4c44:	0072636c 	rsbseq	r6, r2, ip, ror #6
    4c48:	33091302 	movwcc	r1, #37634	; 0x9302
    4c4c:	0c000000 	stceq	0, cr0, [r0], {-0}
    4c50:	72636d09 	rsbvc	r6, r3, #576	; 0x240
    4c54:	09140200 	ldmdbeq	r4, {r9}
    4c58:	00000033 	andeq	r0, r0, r3, lsr r0
    4c5c:	736c0910 	cmnvc	ip, #16, 18	; 0x40000
    4c60:	15020072 	strne	r0, [r2, #-114]	; 0xffffff8e
    4c64:	00003309 	andeq	r3, r0, r9, lsl #6
    4c68:	6d091400 	cfstrsvs	mvf1, [r9, #-0]
    4c6c:	02007273 	andeq	r7, r0, #805306375	; 0x30000007
    4c70:	00330916 	eorseq	r0, r3, r6, lsl r9
    4c74:	0a180000 	beq	604c7c <__bss_end__+0x5fa1b4>
    4c78:	00000b90 	muleq	r0, r0, fp
    4c7c:	33091702 	movwcc	r1, #38658	; 0x9702
    4c80:	1c000000 	stcne	0, cr0, [r0], {-0}
    4c84:	000b680a 	andeq	r6, fp, sl, lsl #16
    4c88:	091b0200 	ldmdbeq	fp, {r9}
    4c8c:	00000033 	andeq	r0, r0, r3, lsr r0
    4c90:	0a400a20 	beq	1007518 <__bss_end__+0xffca50>
    4c94:	1d020000 	stcne	0, cr0, [r2, #-0]
    4c98:	00003309 	andeq	r3, r0, r9, lsl #6
    4c9c:	ba0a2400 	blt	28dca4 <__bss_end__+0x2831dc>
    4ca0:	0200000a 	andeq	r0, r0, #10, 0
    4ca4:	0033091e 	eorseq	r0, r3, lr, lsl r9
    4ca8:	00280000 	eoreq	r0, r8, r0
    4cac:	000abf0b 	andeq	fp, sl, fp, lsl #30
    4cb0:	09080100 	stmdbeq	r8, {r8}
    4cb4:	00000174 	andeq	r0, r0, r4, ror r1
    4cb8:	20215004 	eorcs	r5, r1, r4
    4cbc:	0033040c 	eorseq	r0, r3, ip, lsl #8
    4cc0:	6e0d0000 	cdpvs	0, 0, cr0, cr13, cr0, {0}
    4cc4:	0b000001 	bleq	4cd0 <__code_start__-0x3330>
    4cc8:	00000b98 	muleq	r0, r8, fp
    4ccc:	8f232901 	svchi	0x00232901
    4cd0:	40000001 	andmi	r0, r0, r1
    4cd4:	0c202150 	stfeqs	f2, [r0], #-320	; 0xfffffec0
    4cd8:	0000c204 	andeq	ip, r0, r4, lsl #4
    4cdc:	01890d00 	orreq	r0, r9, r0, lsl #26
    4ce0:	f70e0000 			; <UNDEFINED> instruction: 0xf70e0000
    4ce4:	01000008 	tsteq	r0, r8
    4ce8:	9f5406cc 	svcls	0x005406cc
    4cec:	00140000 	andseq	r0, r4, r0
    4cf0:	9c010000 	stcls	0, cr0, [r1], {-0}
    4cf4:	000001b4 			; <UNDEFINED> instruction: 0x000001b4
    4cf8:	009f5c0f 	addseq	r5, pc, pc, lsl #24
    4cfc:	0001b400 	andeq	fp, r1, r0, lsl #8
    4d00:	74100000 	ldrvc	r0, [r0], #-0
    4d04:	0100000a 	tsteq	r0, sl
    4d08:	002505b6 	strhteq	r0, [r5], -r6
    4d0c:	9f340000 	svcls	0x00340000
    4d10:	00200000 	eoreq	r0, r0, r0
    4d14:	9c010000 	stcls	0, cr0, [r1], {-0}
    4d18:	000001eb 	andeq	r0, r0, fp, ror #3
    4d1c:	009f3c0f 	addseq	r3, pc, pc, lsl #24
    4d20:	0005a000 	andeq	sl, r5, r0
    4d24:	9f441100 	svcls	0x00441100
    4d28:	05ac0000 	streq	r0, [ip, #0]!
    4d2c:	01120000 	tsteq	r2, r0
    4d30:	640c0550 	strvs	r0, [ip], #-1360	; 0xfffffab0
    4d34:	00202150 	eoreq	r2, r0, r0, asr r1
    4d38:	0b7a1000 	bleq	1e88d40 <__bss_end__+0x1e7e278>
    4d3c:	b3010000 	movwlt	r0, #4096	; 0x1000
    4d40:	00002505 	andeq	r2, r0, r5, lsl #10
    4d44:	009f2400 	addseq	r2, pc, r0, lsl #8
    4d48:	00001000 	andeq	r1, r0, r0
    4d4c:	189c0100 	ldmne	ip, {r8}
    4d50:	0f000002 	svceq	0x00000002
    4d54:	00009f2c 	andeq	r9, r0, ip, lsr #30
    4d58:	000005a0 	andeq	r0, r0, r0, lsr #11
    4d5c:	009f300f 	addseq	r3, pc, pc
    4d60:	00030900 	andeq	r0, r3, r0, lsl #18
    4d64:	a60e0000 	strge	r0, [lr], -r0
    4d68:	0100000b 	tsteq	r0, fp
    4d6c:	9ef406ab 	cdpls	6, 15, cr0, cr4, cr11, {5}
    4d70:	00300000 	eorseq	r0, r0, r0
    4d74:	9c010000 	stcls	0, cr0, [r1], {-0}
    4d78:	0000027c 	andeq	r0, r0, ip, ror r2
    4d7c:	01006313 	tsteq	r0, r3, lsl r3
    4d80:	002c19ab 	eoreq	r1, ip, fp, lsr #19
    4d84:	2bfc0000 	blcs	fff04d8c <__bss_end__+0xffefa2c4>
    4d88:	2bf80000 	blcs	ffe04d90 <__bss_end__+0xffdfa2c8>
    4d8c:	000f0000 	andeq	r0, pc, r0
    4d90:	a000009f 	mulge	r0, pc, r0	; <UNPREDICTABLE>
    4d94:	0f000005 	svceq	0x00000005
    4d98:	00009f04 	andeq	r9, r0, r4, lsl #30
    4d9c:	000002db 	ldrdeq	r0, [r0], -fp
    4da0:	009f1814 	addseq	r1, pc, r4, lsl r8	; <UNPREDICTABLE>
    4da4:	0005b800 	andeq	fp, r5, r0, lsl #16
    4da8:	00027200 	andeq	r7, r2, r0, lsl #4
    4dac:	50011200 	andpl	r1, r1, r0, lsl #4
    4db0:	50400c05 	subpl	r0, r0, r5, lsl #24
    4db4:	01122021 	tsteq	r2, r1, lsr #32
    4db8:	00740551 	rsbseq	r0, r4, r1, asr r5
    4dbc:	001aff08 	andseq	pc, sl, r8, lsl #30
    4dc0:	009f1c0f 	addseq	r1, pc, pc, lsl #24
    4dc4:	0005a000 	andeq	sl, r5, r0
    4dc8:	cb100000 	blgt	404dd0 <__bss_end__+0x3fa308>
    4dcc:	0100000a 	tsteq	r0, sl
    4dd0:	002505a3 	eoreq	r0, r5, r3, lsr #11
    4dd4:	9ec40000 	cdpls	0, 12, cr0, cr4, cr0, {0}
    4dd8:	00300000 	eorseq	r0, r0, r0
    4ddc:	9c010000 	stcls	0, cr0, [r1], {-0}
    4de0:	000002db 	ldrdeq	r0, [r0], -fp
    4de4:	01006315 	tsteq	r0, r5, lsl r3
    4de8:	002509a7 	eoreq	r0, r5, r7, lsr #19
    4dec:	2c1c0000 	ldccs	0, cr0, [ip], {-0}
    4df0:	2c1a0000 	ldccs	0, cr0, [sl], {-0}
    4df4:	cc0f0000 	stcgt	0, cr0, [pc], {-0}
    4df8:	a000009e 	mulge	r0, lr, r0
    4dfc:	0f000005 	svceq	0x00000005
    4e00:	00009ed0 	ldrdeq	r9, [r0], -r0
    4e04:	00000309 	andeq	r0, r0, r9, lsl #6
    4e08:	009ee014 	addseq	lr, lr, r4, lsl r0
    4e0c:	0005ac00 	andeq	sl, r5, r0, lsl #24
    4e10:	0002d100 	andeq	sp, r2, r0, lsl #2
    4e14:	50011200 	andpl	r1, r1, r0, lsl #4
    4e18:	50400c05 	subpl	r0, r0, r5, lsl #24
    4e1c:	0f002021 	svceq	0x00002021
    4e20:	00009ee8 	andeq	r9, r0, r8, ror #29
    4e24:	000005a0 	andeq	r0, r0, r0, lsr #11
    4e28:	0a661000 	beq	1988e30 <__bss_end__+0x197e368>
    4e2c:	94010000 	strls	r0, [r1], #-0
    4e30:	00002505 	andeq	r2, r0, r5, lsl #10
    4e34:	009ea400 	addseq	sl, lr, r0, lsl #8
    4e38:	00002000 	andeq	r2, r0, r0
    4e3c:	099c0100 	ldmibeq	ip, {r8}
    4e40:	11000003 	tstne	r0, r3
    4e44:	00009eb0 			; <UNDEFINED> instruction: 0x00009eb0
    4e48:	000005ac 	andeq	r0, r0, ip, lsr #11
    4e4c:	05500112 	ldrbeq	r0, [r0, #-274]	; 0xfffffeee
    4e50:	2150640c 	cmpcs	r0, ip, lsl #8
    4e54:	10000020 	andne	r0, r0, r0, lsr #32
    4e58:	00000a45 	andeq	r0, r0, r5, asr #20
    4e5c:	25058b01 	strcs	r8, [r5, #-2817]	; 0xfffff4ff
    4e60:	8c000000 	stchi	0, cr0, [r0], {-0}
    4e64:	1800009e 	stmdane	r0, {r1, r2, r3, r4, r7}
    4e68:	01000000 	mrseq	r0, (UNDEF: 0)
    4e6c:	0003379c 	muleq	r3, ip, r7
    4e70:	9e981100 	fmllse	f1, f0, f0
    4e74:	05ac0000 	streq	r0, [ip, #0]!
    4e78:	01120000 	tsteq	r2, r0
    4e7c:	640c0550 	strvs	r0, [ip], #-1360	; 0xfffffab0
    4e80:	00202150 	eoreq	r2, r0, r0, asr r1
    4e84:	09150e00 	ldmdbeq	r5, {r9, sl, fp}
    4e88:	45010000 	strmi	r0, [r1, #-0]
    4e8c:	009ddc06 	addseq	sp, sp, r6, lsl #24
    4e90:	0000b000 	andeq	fp, r0, r0
    4e94:	849c0100 	ldrhi	r0, [ip], #256	; 0x100
    4e98:	16000004 	strne	r0, [r0], -r4
    4e9c:	00000a37 	andeq	r0, r0, r7, lsr sl
    4ea0:	620e7e01 	andvs	r7, lr, #1, 28
    4ea4:	0e000000 	cdpeq	0, 0, cr0, cr0, cr0, {0}
    4ea8:	9dec1401 	cfstrdls	mvd1, [ip, #4]!
    4eac:	05c40000 	strbeq	r0, [r4]
    4eb0:	03730000 	cmneq	r3, #0, 0
    4eb4:	01120000 	tsteq	r2, r0
    4eb8:	123e0150 	eorsne	r0, lr, #20
    4ebc:	32015101 	andcc	r5, r1, #1073741824	; 0x40000000
    4ec0:	9df81400 	cfldrdls	mvd1, [r8]
    4ec4:	05c40000 	strbeq	r0, [r4]
    4ec8:	038b0000 	orreq	r0, fp, #0, 0
    4ecc:	01120000 	tsteq	r2, r0
    4ed0:	123f0150 	eorsne	r0, pc, #20
    4ed4:	32015101 	andcc	r5, r1, #1073741824	; 0x40000000
    4ed8:	9dfc0f00 	ldclls	15, cr0, [ip]
    4edc:	05a00000 	streq	r0, [r0, #0]!
    4ee0:	08140000 	ldmdaeq	r4, {}	; <UNPREDICTABLE>
    4ee4:	3d00009e 	stccc	0, cr0, [r0, #-632]	; 0xfffffd88
    4ee8:	b0000005 	andlt	r0, r0, r5
    4eec:	12000003 	andne	r0, r0, #3, 0
    4ef0:	0c055001 	stceq	0, cr5, [r5], {1}
    4ef4:	20215004 	eorcs	r5, r1, r4
    4ef8:	01510112 	cmpeq	r1, r2, lsl r1
    4efc:	0c0f0031 	stceq	0, cr0, [pc], {49}	; 0x31
    4f00:	a000009e 	mulge	r0, lr, r0
    4f04:	14000005 	strne	r0, [r0], #-5
    4f08:	00009e1c 	andeq	r9, r0, ip, lsl lr
    4f0c:	000005b8 			; <UNDEFINED> instruction: 0x000005b8
    4f10:	000003d2 	ldrdeq	r0, [r0], -r2
    4f14:	02500112 	subseq	r0, r0, #-2147483644	; 0x80000004
    4f18:	01120074 	tsteq	r2, r4, ror r0
    4f1c:	00300151 	eorseq	r0, r0, r1, asr r1
    4f20:	009e2814 	addseq	r2, lr, r4, lsl r8
    4f24:	0005b800 	andeq	fp, r5, r0, lsl #16
    4f28:	0003ee00 	andeq	lr, r3, r0, lsl #28
    4f2c:	50011200 	andpl	r1, r1, r0, lsl #4
    4f30:	50440c05 	subpl	r0, r4, r5, lsl #24
    4f34:	01122021 	tsteq	r2, r1, lsr #32
    4f38:	00300151 	eorseq	r0, r0, r1, asr r1
    4f3c:	009e3414 	addseq	r3, lr, r4, lsl r4
    4f40:	0005b800 	andeq	fp, r5, r0, lsl #16
    4f44:	00040a00 	andeq	r0, r4, r0, lsl #20
    4f48:	50011200 	andpl	r1, r1, r0, lsl #4
    4f4c:	504c0c05 	subpl	r0, ip, r5, lsl #24
    4f50:	01122021 	tsteq	r2, r1, lsr #32
    4f54:	00330151 	eorseq	r0, r3, r1, asr r1
    4f58:	009e4014 	addseq	r4, lr, r4, lsl r0
    4f5c:	0005b800 	andeq	fp, r5, r0, lsl #16
    4f60:	00042600 	andeq	r2, r4, r0, lsl #12
    4f64:	50011200 	andpl	r1, r1, r0, lsl #4
    4f68:	50500c05 	subspl	r0, r0, r5, lsl #24
    4f6c:	01122021 	tsteq	r2, r1, lsr #32
    4f70:	00300151 	eorseq	r0, r0, r1, asr r1
    4f74:	009e4c14 	addseq	r4, lr, r4, lsl ip
    4f78:	0005b800 	andeq	fp, r5, r0, lsl #16
    4f7c:	00044300 	andeq	r4, r4, r0, lsl #6
    4f80:	50011200 	andpl	r1, r1, r0, lsl #4
    4f84:	50480c05 	subpl	r0, r8, r5, lsl #24
    4f88:	01122021 	tsteq	r2, r1, lsr #32
    4f8c:	c7080251 	smlsdgt	r8, r1, r2, r0
    4f90:	9e581400 	cdpls	4, 5, cr1, cr8, cr0, {0}
    4f94:	05b80000 	ldreq	r0, [r8, #0]!
    4f98:	04610000 	strbteq	r0, [r1], #-0
    4f9c:	01120000 	tsteq	r2, r0
    4fa0:	680c0550 	stmdavs	ip, {r4, r6, r8, sl}
    4fa4:	12202150 	eorne	r2, r0, #20
    4fa8:	0a035101 	beq	d93b4 <__bss_end__+0xce8ec>
    4fac:	1400010e 	strne	r0, [r0], #-270	; 0xfffffef2
    4fb0:	00009e64 	andeq	r9, r0, r4, ror #28
    4fb4:	000005b8 			; <UNDEFINED> instruction: 0x000005b8
    4fb8:	0000047a 	andeq	r0, r0, sl, ror r4
    4fbc:	02500112 	subseq	r0, r0, #-2147483644	; 0x80000004
    4fc0:	01120074 	tsteq	r2, r4, ror r0
    4fc4:	00330151 	eorseq	r0, r3, r1, asr r1
    4fc8:	009e680f 	addseq	r6, lr, pc, lsl #16
    4fcc:	0005a000 	andeq	sl, r5, r0
    4fd0:	6d0e0000 	stcvs	0, cr0, [lr, #-0]
    4fd4:	0100000b 	tsteq	r0, fp
    4fd8:	9f680635 	svcls	0x00680635
    4fdc:	00240000 	eoreq	r0, r4, r0
    4fe0:	9c010000 	stcls	0, cr0, [r1], {-0}
    4fe4:	000004d3 	ldrdeq	r0, [r0], -r3
    4fe8:	009f700f 	addseq	r7, pc, pc
    4fec:	00019400 	andeq	r9, r1, r0, lsl #8
    4ff0:	9f740f00 	svcls	0x00740f00
    4ff4:	05a00000 	streq	r0, [r0, #0]!
    4ff8:	80140000 	andshi	r0, r4, r0
    4ffc:	d300009f 	movwle	r0, #159	; 0x9f
    5000:	c9000004 	stmdbgt	r0, {r2}
    5004:	12000004 	andne	r0, r0, #4, 0
    5008:	0c055001 	stceq	0, cr5, [r5], {1}
    500c:	20215004 	eorcs	r5, r1, r4
    5010:	02510112 	subseq	r0, r1, #-2147483644	; 0x80000004
    5014:	0f00fe09 	svceq	0x0000fe09
    5018:	00009f84 	andeq	r9, r0, r4, lsl #31
    501c:	000005a0 	andeq	r0, r0, r0, lsr #11
    5020:	0b9d1700 	bleq	fe74ac28 <__bss_end__+0xfe740160>
    5024:	31010000 	mrscc	r0, (UNDEF: 1)
    5028:	009d9c0d 	addseq	r9, sp, sp, lsl #24
    502c:	00002000 	andeq	r2, r0, r0
    5030:	369c0100 	ldrcc	r0, [ip], r0, lsl #2
    5034:	18000005 	stmdane	r0, {r0, r2}
    5038:	000004ef 	andeq	r0, r0, pc, ror #9
    503c:	36253101 	strtcc	r3, [r5], -r1, lsl #2
    5040:	33000005 	movwcc	r0, #5
    5044:	2f00002c 	svccs	0x0000002c
    5048:	1300002c 	movwne	r0, #44	; 0x2c
    504c:	006c6176 	rsbeq	r6, ip, r6, ror r1
    5050:	2c343101 	ldfcss	f3, [r4], #-4
    5054:	55000000 	strpl	r0, [r0, #-0]
    5058:	5100002c 	tstpl	r0, ip, lsr #32
    505c:	1400002c 	strne	r0, [r0], #-44	; 0xffffffd4
    5060:	00009dac 	andeq	r9, r0, ip, lsr #27
    5064:	000005ac 	andeq	r0, r0, ip, lsr #11
    5068:	00000525 	andeq	r0, r0, r5, lsr #10
    506c:	02500112 	subseq	r0, r0, #-2147483644	; 0x80000004
    5070:	11000074 	tstne	r0, r4, ror r0
    5074:	00009db8 			; <UNDEFINED> instruction: 0x00009db8
    5078:	000005b8 			; <UNDEFINED> instruction: 0x000005b8
    507c:	02500112 	subseq	r0, r0, #-2147483644	; 0x80000004
    5080:	00000074 	andeq	r0, r0, r4, ror r0
    5084:	053c040c 	ldreq	r0, [ip, #-1036]!	; 0xfffffbf4
    5088:	17190000 	ldrne	r0, [r9, -r0]
    508c:	00000b88 	andeq	r0, r0, r8, lsl #23
    5090:	bc0d2e01 	stclt	14, cr2, [sp], {1}
    5094:	2000009d 	mulcs	r0, sp, r0
    5098:	01000000 	mrseq	r0, (UNDEF: 0)
    509c:	0005a09c 	muleq	r5, ip, r0
    50a0:	04ef1800 	strbteq	r1, [pc], #2048	; 50a8 <__code_start__-0x2f58>
    50a4:	2e010000 	cdpcs	0, 0, cr0, cr1, cr0, {0}
    50a8:	00053624 	andeq	r3, r5, r4, lsr #12
    50ac:	002c7700 	eoreq	r7, ip, r0, lsl #14
    50b0:	002c7300 	eoreq	r7, ip, r0, lsl #6
    50b4:	61761300 	cmnvs	r6, r0, lsl #6
    50b8:	2e01006c 	cdpcs	0, 0, cr0, cr1, cr12, {3}
    50bc:	00002c33 	andeq	r2, r0, r3, lsr ip
    50c0:	002c9900 	eoreq	r9, ip, r0, lsl #18
    50c4:	002c9500 	eoreq	r9, ip, r0, lsl #10
    50c8:	9dcc1400 	cfstrdls	mvd1, [ip]
    50cc:	05ac0000 	streq	r0, [ip, #0]!
    50d0:	058f0000 	streq	r0, [pc]	; 50d8 <__code_start__-0x2f28>
    50d4:	01120000 	tsteq	r2, r0
    50d8:	00740250 	rsbseq	r0, r4, r0, asr r2
    50dc:	9dd81100 	ldflse	f1, [r8]
    50e0:	05b80000 	ldreq	r0, [r8, #0]!
    50e4:	01120000 	tsteq	r2, r0
    50e8:	00740250 	rsbseq	r0, r4, r0, asr r2
    50ec:	f41a0000 			; <UNDEFINED> instruction: 0xf41a0000
    50f0:	f4000004 	vst4.8	{d0-d3}, [r0], r4
    50f4:	03000004 	movweq	r0, #4
    50f8:	001a06a1 	andseq	r0, sl, r1, lsr #13
    50fc:	00000005 	andeq	r0, r0, r5
    5100:	03000005 	movweq	r0, #5
    5104:	721a0bc8 	andsvc	r0, sl, #200, 22	; 0x32000
    5108:	72000004 	andvc	r0, r0, #4, 0
    510c:	03000004 	movweq	r0, #4
    5110:	421a06b3 	andsmi	r0, sl, #187695104	; 0xb300000
    5114:	42000005 	andmi	r0, r0, #5, 0
    5118:	04000005 	streq	r0, [r0], #-5
    511c:	49000619 	stmdbmi	r0, {r0, r3, r4, r9, sl}
    5120:	04000001 	streq	r0, [r0], #-1
    5124:	00149d00 	andseq	r9, r4, r0, lsl #26
    5128:	67010400 	strvs	r0, [r1, -r0, lsl #8]
    512c:	0c000006 	stceq	0, cr0, [r0], {6}
    5130:	00000bce 	andeq	r0, r0, lr, asr #23
    5134:	00000741 	andeq	r0, r0, r1, asr #14
    5138:	00009f8c 	andeq	r9, r0, ip, lsl #31
    513c:	0000003c 	andeq	r0, r0, ip, lsr r0
    5140:	0000222f 	andeq	r2, r0, pc, lsr #4
    5144:	69050402 	stmdbvs	r5, {r1, sl}
    5148:	0300746e 	movweq	r7, #1134	; 0x46e
    514c:	017c0704 	cmneq	ip, r4, lsl #14
    5150:	01030000 	mrseq	r0, (UNDEF: 3)
    5154:	00015106 	andeq	r5, r1, r6, lsl #2
    5158:	05020300 	streq	r0, [r2, #-768]	; 0xfffffd00
    515c:	00000011 	andeq	r0, r0, r1, lsl r0
    5160:	10050403 	andne	r0, r5, r3, lsl #8
    5164:	03000001 	movweq	r0, #1
    5168:	010b0508 	tsteq	fp, r8, lsl #10
    516c:	01030000 	mrseq	r0, (UNDEF: 3)
    5170:	00014f08 	andeq	r4, r1, r8, lsl #30
    5174:	07020300 	streq	r0, [r2, -r0, lsl #6]
    5178:	000001e9 	andeq	r0, r0, r9, ror #3
    517c:	77070403 	strvc	r0, [r7, -r3, lsl #8]
    5180:	03000001 	movweq	r0, #1
    5184:	01720708 	cmneq	r2, r8, lsl #14
    5188:	25040000 	strcs	r0, [r4, #-0]
    518c:	7a000000 	bvc	5194 <__code_start__-0x2e6c>
    5190:	05000000 	streq	r0, [r0, #-0]
    5194:	00000025 	andeq	r0, r0, r5, lsr #32
    5198:	00490600 	subeq	r0, r9, r0, lsl #12
    519c:	1c020000 	stcne	0, cr0, [r2], {-0}
    51a0:	0000860e 	andeq	r8, r0, lr, lsl #12
    51a4:	6b040700 	blvs	106dac <__bss_end__+0xfc2e4>
    51a8:	04000000 	streq	r0, [r0], #-0
    51ac:	00000025 	andeq	r0, r0, r5, lsr #32
    51b0:	0000009b 	muleq	r0, fp, r0
    51b4:	00009b05 	andeq	r9, r0, r5, lsl #22
    51b8:	04070000 	streq	r0, [r7], #-0
    51bc:	000000a8 	andeq	r0, r0, r8, lsr #1
    51c0:	58080103 	stmdapl	r8, {r0, r1, r8}
    51c4:	08000001 	stmdaeq	r0, {r0}
    51c8:	000000a1 	andeq	r0, r0, r1, lsr #1
    51cc:	0007ba06 	andeq	fp, r7, r6, lsl #20
    51d0:	0e210200 	cdpeq	2, 2, cr0, cr1, cr0, {0}
    51d4:	000000b9 	strheq	r0, [r0], -r9
    51d8:	008c0407 	addeq	r0, ip, r7, lsl #8
    51dc:	7a090000 	bvc	2451e4 <__bss_end__+0x23a71c>
    51e0:	01000000 	mrseq	r0, (UNDEF: 0)
    51e4:	03050706 	movweq	r0, #22278	; 0x5706
    51e8:	0000a6bc 			; <UNDEFINED> instruction: 0x0000a6bc
    51ec:	000bc10a 	andeq	ip, fp, sl, lsl #2
    51f0:	060b0100 	streq	r0, [fp], -r0, lsl #2
    51f4:	00009fb8 			; <UNDEFINED> instruction: 0x00009fb8
    51f8:	00000010 	andeq	r0, r0, r0, lsl r0
    51fc:	00f19c01 	rscseq	r9, r1, r1, lsl #24
    5200:	660b0000 	strvs	r0, [fp], -r0
    5204:	0b010070 	bleq	453cc <__bss_end__+0x3a904>
    5208:	00008619 	andeq	r8, r0, r9, lsl r6
    520c:	00500100 	subseq	r0, r0, r0, lsl #2
    5210:	000bdf0c 	andeq	sp, fp, ip, lsl #30
    5214:	06080100 	streq	r0, [r8], -r0, lsl #2
    5218:	00009fa0 	andeq	r9, r0, r0, lsr #31
    521c:	00000018 	andeq	r0, r0, r8, lsl r0
    5220:	b00d9c01 	andlt	r9, sp, r1, lsl #24
    5224:	0100000b 	tsteq	r0, fp
    5228:	00250c03 	eoreq	r0, r5, r3, lsl #24
    522c:	9f8c0000 	svcls	0x008c0000
    5230:	00140000 	andseq	r0, r4, r0
    5234:	9c010000 	stcls	0, cr0, [r1], {-0}
    5238:	00000140 	andeq	r0, r0, r0, asr #2
    523c:	0100630e 	tsteq	r0, lr, lsl #6
    5240:	00252103 	eoreq	r2, r5, r3, lsl #2
    5244:	2cbb0000 	ldccs	0, cr0, [fp]
    5248:	2cb70000 	ldccs	0, cr0, [r7]
    524c:	980f0000 	stmdals	pc, {}	; <UNPREDICTABLE>
    5250:	4000009f 	mulmi	r0, pc, r0	; <UNPREDICTABLE>
    5254:	10000001 	andne	r0, r0, r1
    5258:	74025001 	strvc	r5, [r2], #-1
    525c:	11000000 	mrsne	r0, (UNDEF: 0)
    5260:	00000ba6 	andeq	r0, r0, r6, lsr #23
    5264:	00000ba6 	andeq	r0, r0, r6, lsr #23
    5268:	00064202 	andeq	r4, r6, r2, lsl #4
    526c:	00000137 	andeq	r0, r0, r7, lsr r1
    5270:	15ac0004 	strne	r0, [ip, #4]!
    5274:	01040000 	mrseq	r0, (UNDEF: 4)
    5278:	00000667 	andeq	r0, r0, r7, ror #12
    527c:	000bf30c 	andeq	pc, fp, ip, lsl #6
    5280:	00074100 	andeq	r4, r7, r0, lsl #2
    5284:	009fc800 	addseq	ip, pc, r0, lsl #16
    5288:	00002c00 	andeq	r2, r0, r0, lsl #24
    528c:	0022d100 	eoreq	sp, r2, r0, lsl #2
    5290:	05040200 	streq	r0, [r4, #-512]	; 0xfffffe00
    5294:	00746e69 	rsbseq	r6, r4, r9, ror #28
    5298:	7c070403 	cfstrsvc	mvf0, [r7], {3}
    529c:	03000001 	movweq	r0, #1
    52a0:	01510601 	cmpeq	r1, r1, lsl #12
    52a4:	02030000 	andeq	r0, r3, #0, 0
    52a8:	00001105 	andeq	r1, r0, r5, lsl #2
    52ac:	05040300 	streq	r0, [r4, #-768]	; 0xfffffd00
    52b0:	00000110 	andeq	r0, r0, r0, lsl r1
    52b4:	0b050803 	bleq	1472c8 <__bss_end__+0x13c800>
    52b8:	03000001 	movweq	r0, #1
    52bc:	014f0801 	cmpeq	pc, r1, lsl #16
    52c0:	02030000 	andeq	r0, r3, #0, 0
    52c4:	0001e907 	andeq	lr, r1, r7, lsl #18
    52c8:	07040300 	streq	r0, [r4, -r0, lsl #6]
    52cc:	00000177 	andeq	r0, r0, r7, ror r1
    52d0:	72070803 	andvc	r0, r7, #196608	; 0x30000
    52d4:	04000001 	streq	r0, [r0], #-1
    52d8:	00000025 	andeq	r0, r0, r5, lsr #32
    52dc:	0000007a 	andeq	r0, r0, sl, ror r0
    52e0:	00002505 	andeq	r2, r0, r5, lsl #10
    52e4:	49060000 	stmdbmi	r6, {}	; <UNPREDICTABLE>
    52e8:	02000000 	andeq	r0, r0, #0, 0
    52ec:	00860e1c 	addeq	r0, r6, ip, lsl lr
    52f0:	04070000 	streq	r0, [r7], #-0
    52f4:	0000006b 	andeq	r0, r0, fp, rrx
    52f8:	00002504 	andeq	r2, r0, r4, lsl #10
    52fc:	00009b00 	andeq	r9, r0, r0, lsl #22
    5300:	009b0500 	addseq	r0, fp, r0, lsl #10
    5304:	07000000 	streq	r0, [r0, -r0]
    5308:	0000a804 	andeq	sl, r0, r4, lsl #16
    530c:	08010300 	stmdaeq	r1, {r8, r9}
    5310:	00000158 	andeq	r0, r0, r8, asr r1
    5314:	0000a108 	andeq	sl, r0, r8, lsl #2
    5318:	07ba0600 	ldreq	r0, [sl, r0, lsl #12]!
    531c:	21020000 	mrscs	r0, (UNDEF: 2)
    5320:	0000b90e 	andeq	fp, r0, lr, lsl #18
    5324:	8c040700 	stchi	7, cr0, [r4], {-0}
    5328:	09000000 	stmdbeq	r0, {}	; <UNPREDICTABLE>
    532c:	00000866 	andeq	r0, r0, r6, ror #16
    5330:	34070401 	strcc	r0, [r7], #-1025	; 0xfffffbff
    5334:	c8000001 	stmdagt	r0, {r0}
    5338:	2c00009f 	stccs	0, cr0, [r0], {159}	; 0x9f
    533c:	01000000 	mrseq	r0, (UNDEF: 0)
    5340:	0001349c 	muleq	r1, ip, r4
    5344:	0bee0a00 	bleq	ffb87b4c <__bss_end__+0xffb7d084>
    5348:	04010000 	streq	r0, [r1], #-0
    534c:	00013415 	andeq	r3, r1, r5, lsl r4
    5350:	0b500100 	bleq	1405758 <__bss_end__+0x13fac90>
    5354:	00637273 	rsbeq	r7, r3, r3, ror r2
    5358:	9b270401 	blls	9c6364 <__bss_end__+0x9bb89c>
    535c:	dd000000 	stcle	0, cr0, [r0, #-0]
    5360:	d900002c 	stmdble	r0, {r2, r3, r5}
    5364:	0c00002c 	stceq	0, cr0, [r0], {44}	; 0x2c
    5368:	01003173 	tsteq	r0, r3, ror r1
    536c:	01340b05 	teqeq	r4, r5, lsl #22
    5370:	2d0c0000 	stccs	0, cr0, [ip, #-0]
    5374:	2cfe0000 	ldclcs	0, cr0, [lr]
    5378:	730c0000 	movwvc	r0, #49152	; 0xc000
    537c:	06010032 			; <UNDEFINED> instruction: 0x06010032
    5380:	00009b11 	andeq	r9, r0, r1, lsl fp
    5384:	002d6b00 	eoreq	r6, sp, r0, lsl #22
    5388:	002d6500 	eoreq	r6, sp, r0, lsl #10
    538c:	00630c00 	rsbeq	r0, r3, r0, lsl #24
    5390:	a10a0701 	tstge	sl, r1, lsl #14
    5394:	9c000000 	stcls	0, cr0, [r0], {-0}
    5398:	9600002d 	strls	r0, [r0], -sp, lsr #32
    539c:	0000002d 	andeq	r0, r0, sp, lsr #32
    53a0:	00a10407 	adceq	r0, r1, r7, lsl #8
    53a4:	f7000000 			; <UNDEFINED> instruction: 0xf7000000
    53a8:	04000000 	streq	r0, [r0], #-0
    53ac:	00166200 	andseq	r6, r6, r0, lsl #4
    53b0:	67010400 	strvs	r0, [r1, -r0, lsl #8]
    53b4:	0c000006 	stceq	0, cr0, [r0], {6}
    53b8:	00000c03 	andeq	r0, r0, r3, lsl #24
    53bc:	00000741 	andeq	r0, r0, r1, asr #14
    53c0:	00009ff4 	strdeq	r9, [r0], -r4
    53c4:	00000044 	andeq	r0, r0, r4, asr #32
    53c8:	000023b7 			; <UNDEFINED> instruction: 0x000023b7
    53cc:	69050402 	stmdbvs	r5, {r1, sl}
    53d0:	0300746e 	movweq	r7, #1134	; 0x46e
    53d4:	017c0704 	cmneq	ip, r4, lsl #14
    53d8:	01030000 	mrseq	r0, (UNDEF: 3)
    53dc:	00015106 	andeq	r5, r1, r6, lsl #2
    53e0:	05020300 	streq	r0, [r2, #-768]	; 0xfffffd00
    53e4:	00000011 	andeq	r0, r0, r1, lsl r0
    53e8:	10050403 	andne	r0, r5, r3, lsl #8
    53ec:	03000001 	movweq	r0, #1
    53f0:	010b0508 	tsteq	fp, r8, lsl #10
    53f4:	01030000 	mrseq	r0, (UNDEF: 3)
    53f8:	00014f08 	andeq	r4, r1, r8, lsl #30
    53fc:	07020300 	streq	r0, [r2, -r0, lsl #6]
    5400:	000001e9 	andeq	r0, r0, r9, ror #3
    5404:	77070403 	strvc	r0, [r7, -r3, lsl #8]
    5408:	03000001 	movweq	r0, #1
    540c:	01720708 	cmneq	r2, r8, lsl #14
    5410:	25040000 	strcs	r0, [r4, #-0]
    5414:	7a000000 	bvc	541c <__code_start__-0x2be4>
    5418:	05000000 	streq	r0, [r0, #-0]
    541c:	00000025 	andeq	r0, r0, r5, lsr #32
    5420:	00490600 	subeq	r0, r9, r0, lsl #12
    5424:	1c020000 	stcne	0, cr0, [r2], {-0}
    5428:	0000860e 	andeq	r8, r0, lr, lsl #12
    542c:	6b040700 	blvs	107034 <__bss_end__+0xfc56c>
    5430:	04000000 	streq	r0, [r0], #-0
    5434:	00000025 	andeq	r0, r0, r5, lsr #32
    5438:	0000009b 	muleq	r0, fp, r0
    543c:	00009b05 	andeq	r9, r0, r5, lsl #22
    5440:	04070000 	streq	r0, [r7], #-0
    5444:	000000a8 	andeq	r0, r0, r8, lsr #1
    5448:	58080103 	stmdapl	r8, {r0, r1, r8}
    544c:	08000001 	stmdaeq	r0, {r0}
    5450:	000000a1 	andeq	r0, r0, r1, lsr #1
    5454:	0007ba06 	andeq	fp, r7, r6, lsl #20
    5458:	0e210200 	cdpeq	2, 2, cr0, cr1, cr0, {0}
    545c:	000000b9 	strheq	r0, [r0], -r9
    5460:	008c0407 	addeq	r0, ip, r7, lsl #8
    5464:	9c090000 	stcls	0, cr0, [r9], {-0}
    5468:	01000008 	tsteq	r0, r8
    546c:	00250503 	eoreq	r0, r5, r3, lsl #10
    5470:	9ff40000 	svcls	0x00f40000
    5474:	00440000 	subeq	r0, r4, r0
    5478:	9c010000 	stcls	0, cr0, [r1], {-0}
    547c:	0100610a 	tsteq	r0, sl, lsl #2
    5480:	009b1803 	addseq	r1, fp, r3, lsl #16
    5484:	2dd30000 	ldclcs	0, cr0, [r3]
    5488:	2dc70000 	stclcs	0, cr0, [r7]
    548c:	620a0000 	andvs	r0, sl, #0, 0
    5490:	27030100 	strcs	r0, [r3, -r0, lsl #2]
    5494:	0000009b 	muleq	r0, fp, r0
    5498:	00002e27 	andeq	r2, r0, r7, lsr #28
    549c:	00002e21 	andeq	r2, r0, r1, lsr #28
    54a0:	010f0000 	mrseq	r0, CPSR
    54a4:	00040000 	andeq	r0, r4, r0
    54a8:	000016f1 	strdeq	r1, [r0], -r1	; <UNPREDICTABLE>
    54ac:	06670104 	strbteq	r0, [r7], -r4, lsl #2
    54b0:	130c0000 	movwne	r0, #49152	; 0xc000
    54b4:	4100000c 	tstmi	r0, ip
    54b8:	38000007 	stmdacc	r0, {r0, r1, r2}
    54bc:	180000a0 	stmdane	r0, {r5, r7}
    54c0:	6d000000 	stcvs	0, cr0, [r0, #-0]
    54c4:	02000024 	andeq	r0, r0, #36, 0	; 0x24
    54c8:	6e690504 	cdpvs	5, 6, cr0, cr9, cr4, {0}
    54cc:	04030074 	streq	r0, [r3], #-116	; 0xffffff8c
    54d0:	00017c07 	andeq	r7, r1, r7, lsl #24
    54d4:	06010300 	streq	r0, [r1], -r0, lsl #6
    54d8:	00000151 	andeq	r0, r0, r1, asr r1
    54dc:	11050203 	tstne	r5, r3, lsl #4
    54e0:	03000000 	movweq	r0, #0
    54e4:	01100504 	tsteq	r0, r4, lsl #10
    54e8:	08030000 	stmdaeq	r3, {}	; <UNPREDICTABLE>
    54ec:	00010b05 	andeq	r0, r1, r5, lsl #22
    54f0:	08010300 	stmdaeq	r1, {r8, r9}
    54f4:	0000014f 	andeq	r0, r0, pc, asr #2
    54f8:	e9070203 	stmdb	r7, {r0, r1, r9}
    54fc:	03000001 	movweq	r0, #1
    5500:	01770704 	cmneq	r7, r4, lsl #14
    5504:	08030000 	stmdaeq	r3, {}	; <UNPREDICTABLE>
    5508:	00017207 	andeq	r7, r1, r7, lsl #4
    550c:	00250400 	eoreq	r0, r5, r0, lsl #8
    5510:	007a0000 	rsbseq	r0, sl, r0
    5514:	25050000 	strcs	r0, [r5, #-0]
    5518:	00000000 	andeq	r0, r0, r0
    551c:	00004906 	andeq	r4, r0, r6, lsl #18
    5520:	0e1c0200 	cdpeq	2, 1, cr0, cr12, cr0, {0}
    5524:	00000086 	andeq	r0, r0, r6, lsl #1
    5528:	006b0407 	rsbeq	r0, fp, r7, lsl #8
    552c:	25040000 	strcs	r0, [r4, #-0]
    5530:	9b000000 	blls	5538 <__code_start__-0x2ac8>
    5534:	05000000 	streq	r0, [r0, #-0]
    5538:	0000009b 	muleq	r0, fp, r0
    553c:	a8040700 	stmdage	r4, {r8, r9, sl}
    5540:	03000000 	movweq	r0, #0
    5544:	01580801 	cmpeq	r8, r1, lsl #16
    5548:	a1080000 	mrsge	r0, (UNDEF: 8)
    554c:	06000000 	streq	r0, [r0], -r0
    5550:	000007ba 			; <UNDEFINED> instruction: 0x000007ba
    5554:	b90e2102 	stmdblt	lr, {r1, r8, sp}
    5558:	07000000 	streq	r0, [r0, -r0]
    555c:	00008c04 	andeq	r8, r0, r4, lsl #24
    5560:	086d0900 	stmdaeq	sp!, {r8, fp}^
    5564:	03010000 	movweq	r0, #4096	; 0x1000
    5568:	00010c07 	andeq	r0, r1, r7, lsl #24
    556c:	00a03800 	adceq	r3, r0, r0, lsl #16
    5570:	00001800 	andeq	r1, r0, r0, lsl #16
    5574:	0c9c0100 	ldfeqs	f0, [ip], {0}
    5578:	0a000001 	beq	5584 <__code_start__-0x2a7c>
    557c:	01003173 	tsteq	r0, r3, ror r1
    5580:	010c1503 	tsteq	ip, r3, lsl #10
    5584:	50010000 	andpl	r0, r1, r0
    5588:	0032730b 	eorseq	r7, r2, fp, lsl #6
    558c:	9b260301 	blls	986198 <__bss_end__+0x97b6d0>
    5590:	56000000 	strpl	r0, [r0], -r0
    5594:	5000002e 	andpl	r0, r0, lr, lsr #32
    5598:	0c00002e 	stceq	0, cr0, [r0], {46}	; 0x2e
    559c:	04010073 	streq	r0, [r1], #-115	; 0xffffff8d
    55a0:	00010c14 	andeq	r0, r1, r4, lsl ip
    55a4:	002e8300 	eoreq	r8, lr, r0, lsl #6
    55a8:	002e8100 	eoreq	r8, lr, r0, lsl #2
    55ac:	04070000 	streq	r0, [r7], #-0
    55b0:	000000a1 	andeq	r0, r0, r1, lsr #1
    55b4:	00014e00 	andeq	r4, r1, r0, lsl #28
    55b8:	a7000400 	strge	r0, [r0, -r0, lsl #8]
    55bc:	04000017 	streq	r0, [r0], #-23	; 0xffffffe9
    55c0:	00066701 	andeq	r6, r6, r1, lsl #14
    55c4:	0c2a0c00 	stceq	12, cr0, [sl], #-0
    55c8:	07410000 	strbeq	r0, [r1, -r0]
    55cc:	a0500000 	subsge	r0, r0, r0
    55d0:	00300000 	eorseq	r0, r0, r0
    55d4:	250e0000 	strcs	r0, [lr, #-0]
    55d8:	04020000 	streq	r0, [r2], #-0
    55dc:	746e6905 	strbtvc	r6, [lr], #-2309	; 0xfffff6fb
    55e0:	0c230300 	stceq	3, cr0, [r3], #-0
    55e4:	d1030000 	mrsle	r0, (UNDEF: 3)
    55e8:	00003817 	andeq	r3, r0, r7, lsl r8
    55ec:	07040400 	streq	r0, [r4, -r0, lsl #8]
    55f0:	0000017c 	andeq	r0, r0, ip, ror r1
    55f4:	51060104 	tstpl	r6, r4, lsl #2
    55f8:	04000001 	streq	r0, [r0], #-1
    55fc:	00110502 	andseq	r0, r1, r2, lsl #10
    5600:	04040000 	streq	r0, [r4], #-0
    5604:	00011005 	andeq	r1, r1, r5
    5608:	05080400 	streq	r0, [r8, #-1024]	; 0xfffffc00
    560c:	0000010b 	andeq	r0, r0, fp, lsl #2
    5610:	4f080104 	svcmi	0x00080104
    5614:	05000001 	streq	r0, [r0, #-1]
    5618:	0000005b 	andeq	r0, r0, fp, asr r0
    561c:	e9070204 	stmdb	r7, {r2, r9}
    5620:	04000001 	streq	r0, [r0], #-1
    5624:	01770704 	cmneq	r7, r4, lsl #14
    5628:	08040000 	stmdaeq	r4, {}	; <UNPREDICTABLE>
    562c:	00017207 	andeq	r7, r1, r7, lsl #4
    5630:	00250600 	eoreq	r0, r5, r0, lsl #12
    5634:	008b0000 	addeq	r0, fp, r0
    5638:	25070000 	strcs	r0, [r7, #-0]
    563c:	00000000 	andeq	r0, r0, r0
    5640:	00004908 	andeq	r4, r0, r8, lsl #18
    5644:	0e1c0200 	cdpeq	2, 1, cr0, cr12, cr0, {0}
    5648:	00000097 	muleq	r0, r7, r0
    564c:	007c0409 	rsbseq	r0, ip, r9, lsl #8
    5650:	25060000 	strcs	r0, [r6, #-0]
    5654:	ac000000 	stcge	0, cr0, [r0], {-0}
    5658:	07000000 	streq	r0, [r0, -r0]
    565c:	000000ac 	andeq	r0, r0, ip, lsr #1
    5660:	b9040900 	stmdblt	r4, {r8, fp}
    5664:	04000000 	streq	r0, [r0], #-0
    5668:	01580801 	cmpeq	r8, r1, lsl #16
    566c:	b2050000 	andlt	r0, r5, #0, 0
    5670:	08000000 	stmdaeq	r0, {}	; <UNPREDICTABLE>
    5674:	000007ba 			; <UNDEFINED> instruction: 0x000007ba
    5678:	ca0e2102 	bgt	38da88 <__bss_end__+0x382fc0>
    567c:	09000000 	stmdbeq	r0, {}	; <UNPREDICTABLE>
    5680:	00009d04 	andeq	r9, r0, r4, lsl #26
    5684:	08c40a00 	stmiaeq	r4, {r9, fp}^
    5688:	04010000 	streq	r0, [r1], #-0
    568c:	00002505 	andeq	r2, r0, r5, lsl #10
    5690:	00a05000 	adceq	r5, r0, r0
    5694:	00003000 	andeq	r3, r0, r0
    5698:	4b9c0100 	blmi	fe705aa0 <__bss_end__+0xfe6fafd8>
    569c:	0b000001 	bleq	56a8 <__code_start__-0x2958>
    56a0:	0031735f 	eorseq	r7, r1, pc, asr r3
    56a4:	ac190401 	cfldrsge	mvf0, [r9], {1}
    56a8:	9a000000 	bls	56b0 <__code_start__-0x2950>
    56ac:	9600002e 	strls	r0, [r0], -lr, lsr #32
    56b0:	0b00002e 	bleq	5770 <__code_start__-0x2890>
    56b4:	0032735f 	eorseq	r7, r2, pc, asr r3
    56b8:	ac2a0401 	cfstrsge	mvf0, [sl], #-4
    56bc:	bf000000 	svclt	0x00000000
    56c0:	bb00002e 	bllt	5780 <__code_start__-0x2880>
    56c4:	0b00002e 	bleq	5784 <__code_start__-0x287c>
    56c8:	0401006e 	streq	r0, [r1], #-110	; 0xffffff92
    56cc:	00002c36 	andeq	r2, r0, r6, lsr ip
    56d0:	002eea00 	eoreq	lr, lr, r0, lsl #20
    56d4:	002ee000 	eoreq	lr, lr, r0
    56d8:	31730c00 	cmncc	r3, r0, lsl #24
    56dc:	1a050100 	bne	145ae4 <__bss_end__+0x13b01c>
    56e0:	0000014b 	andeq	r0, r0, fp, asr #2
    56e4:	00002f41 	andeq	r2, r0, r1, asr #30
    56e8:	00002f39 	andeq	r2, r0, r9, lsr pc
    56ec:	0032730c 	eorseq	r7, r2, ip, lsl #6
    56f0:	4b2c0501 	blmi	b06afc <__bss_end__+0xafc034>
    56f4:	7f000001 	svcvc	0x00000001
    56f8:	7900002f 	stmdbvc	r0, {r0, r1, r2, r3, r5}
    56fc:	0000002f 	andeq	r0, r0, pc, lsr #32
    5700:	00620409 	rsbeq	r0, r2, r9, lsl #8
    5704:	ce000000 	cdpgt	0, 0, cr0, cr0, cr0, {0}
    5708:	04000000 	streq	r0, [r0], #-0
    570c:	00185b00 	andseq	r5, r8, r0, lsl #22
    5710:	67010400 	strvs	r0, [r1, -r0, lsl #8]
    5714:	0c000006 	stceq	0, cr0, [r0], {6}
    5718:	00000c3b 	andeq	r0, r0, fp, lsr ip
    571c:	00000741 	andeq	r0, r0, r1, asr #14
    5720:	0000a080 	andeq	sl, r0, r0, lsl #1
    5724:	00000004 	andeq	r0, r0, r4
    5728:	0000260f 	andeq	r2, r0, pc, lsl #12
    572c:	69050402 	stmdbvs	r5, {r1, sl}
    5730:	0300746e 	movweq	r7, #1134	; 0x46e
    5734:	017c0704 	cmneq	ip, r4, lsl #14
    5738:	01030000 	mrseq	r0, (UNDEF: 3)
    573c:	00015106 	andeq	r5, r1, r6, lsl #2
    5740:	05020300 	streq	r0, [r2, #-768]	; 0xfffffd00
    5744:	00000011 	andeq	r0, r0, r1, lsl r0
    5748:	10050403 	andne	r0, r5, r3, lsl #8
    574c:	03000001 	movweq	r0, #1
    5750:	010b0508 	tsteq	fp, r8, lsl #10
    5754:	01030000 	mrseq	r0, (UNDEF: 3)
    5758:	00014f08 	andeq	r4, r1, r8, lsl #30
    575c:	07020300 	streq	r0, [r2, -r0, lsl #6]
    5760:	000001e9 	andeq	r0, r0, r9, ror #3
    5764:	77070403 	strvc	r0, [r7, -r3, lsl #8]
    5768:	03000001 	movweq	r0, #1
    576c:	01720708 	cmneq	r2, r8, lsl #14
    5770:	25040000 	strcs	r0, [r4, #-0]
    5774:	7a000000 	bvc	577c <__code_start__-0x2884>
    5778:	05000000 	streq	r0, [r0, #-0]
    577c:	00000025 	andeq	r0, r0, r5, lsr #32
    5780:	00490600 	subeq	r0, r9, r0, lsl #12
    5784:	1c020000 	stcne	0, cr0, [r2], {-0}
    5788:	0000860e 	andeq	r8, r0, lr, lsl #12
    578c:	6b040700 	blvs	107394 <__bss_end__+0xfc8cc>
    5790:	04000000 	streq	r0, [r0], #-0
    5794:	00000025 	andeq	r0, r0, r5, lsr #32
    5798:	0000009b 	muleq	r0, fp, r0
    579c:	00009b05 	andeq	r9, r0, r5, lsl #22
    57a0:	04070000 	streq	r0, [r7], #-0
    57a4:	000000a8 	andeq	r0, r0, r8, lsr #1
    57a8:	58080103 	stmdapl	r8, {r0, r1, r8}
    57ac:	08000001 	stmdaeq	r0, {r0}
    57b0:	000000a1 	andeq	r0, r0, r1, lsr #1
    57b4:	0007ba06 	andeq	fp, r7, r6, lsl #20
    57b8:	0e210200 	cdpeq	2, 2, cr0, cr1, cr0, {0}
    57bc:	000000b9 	strheq	r0, [r0], -r9
    57c0:	008c0407 	addeq	r0, ip, r7, lsl #8
    57c4:	73090000 	movwvc	r0, #36864	; 0x9000
    57c8:	01000009 	tsteq	r0, r9
    57cc:	a0800603 	addge	r0, r0, r3, lsl #12
    57d0:	00040000 	andeq	r0, r4, r0
    57d4:	9c010000 	stcls	0, cr0, [r1], {-0}
	...

Disassembly of section .debug_abbrev:

00000000 <.debug_abbrev>:
       0:	25011101 	strcs	r1, [r1, #-257]	; 0xfffffeff
       4:	030b130e 	movweq	r1, #45838	; 0xb30e
       8:	110e1b0e 	tstne	lr, lr, lsl #22
       c:	10061201 	andne	r1, r6, r1, lsl #4
      10:	02000017 	andeq	r0, r0, #23, 0
      14:	0b0b0024 	bleq	2c00ac <__bss_end__+0x2b55e4>
      18:	08030b3e 	stmdaeq	r3, {r1, r2, r3, r4, r5, r8, r9, fp}
      1c:	24030000 	strcs	r0, [r3], #-0
      20:	3e0b0b00 	vmlacc.f64	d0, d11, d0
      24:	000e030b 	andeq	r0, lr, fp, lsl #6
      28:	00160400 	andseq	r0, r6, r0, lsl #8
      2c:	0b3a0e03 	bleq	e83840 <__bss_end__+0xe78d78>
      30:	0b390b3b 	bleq	e42d24 <__bss_end__+0xe3825c>
      34:	00001349 	andeq	r1, r0, r9, asr #6
      38:	27011505 	strcs	r1, [r1, -r5, lsl #10]
      3c:	01134919 	tsteq	r3, r9, lsl r9
      40:	06000013 			; <UNDEFINED> instruction: 0x06000013
      44:	13490005 	movtne	r0, #36869	; 0x9005
      48:	34070000 	strcc	r0, [r7], #-0
      4c:	3a0e0300 	bcc	380c54 <__bss_end__+0x37618c>
      50:	390b3b0b 	stmdbcc	fp, {r0, r1, r3, r8, r9, fp, ip, sp}
      54:	3f13490b 	svccc	0x0013490b
      58:	00193c19 	andseq	r3, r9, r9, lsl ip
      5c:	000f0800 	andeq	r0, pc, r0, lsl #16
      60:	13490b0b 	movtne	r0, #39691	; 0x9b0b
      64:	26090000 	strcs	r0, [r9], -r0
      68:	00134900 	andseq	r4, r3, r0, lsl #18
      6c:	01130a00 	tsteq	r3, r0, lsl #20
      70:	0b3a0b0b 	bleq	e82ca4 <__bss_end__+0xe781dc>
      74:	0b390b3b 	bleq	e42d68 <__bss_end__+0xe382a0>
      78:	00001301 	andeq	r1, r0, r1, lsl #6
      7c:	03000d0b 	movweq	r0, #3339	; 0xd0b
      80:	3b0b3a08 	blcc	2ce8a8 <__bss_end__+0x2c3de0>
      84:	490b390b 	stmdbmi	fp, {r0, r1, r3, r8, fp, ip, sp}
      88:	000b3813 	andeq	r3, fp, r3, lsl r8
      8c:	000d0c00 	andeq	r0, sp, r0, lsl #24
      90:	0b3a0e03 	bleq	e838a4 <__bss_end__+0xe78ddc>
      94:	0b390b3b 	bleq	e42d88 <__bss_end__+0xe382c0>
      98:	0b381349 	bleq	e04dc4 <__bss_end__+0xdfa2fc>
      9c:	040d0000 	streq	r0, [sp], #-0
      a0:	0b0b3e01 	bleq	2cf8ac <__bss_end__+0x2c4de4>
      a4:	3a13490b 	bcc	4d24d8 <__bss_end__+0x4c7a10>
      a8:	390b3b0b 	stmdbcc	fp, {r0, r1, r3, r8, r9, fp, ip, sp}
      ac:	0013010b 	andseq	r0, r3, fp, lsl #2
      b0:	00280e00 	eoreq	r0, r8, r0, lsl #28
      b4:	0b1c0e03 	bleq	7038c8 <__bss_end__+0x6f8e00>
      b8:	2e0f0000 	cdpcs	0, 0, cr0, cr15, cr0, {0}
      bc:	03193f01 	tsteq	r9, #1, 30
      c0:	3b0b3a0e 	blcc	2ce900 <__bss_end__+0x2c3e38>
      c4:	270b390b 	strcs	r3, [fp, -fp, lsl #18]
      c8:	12011119 	andne	r1, r1, #1073741830	; 0x40000006
      cc:	97184006 	ldrls	r4, [r8, -r6]
      d0:	13011942 	movwne	r1, #6466	; 0x1942
      d4:	34100000 	ldrcc	r0, [r0], #-0
      d8:	3a0e0300 	bcc	380ce0 <__bss_end__+0x376218>
      dc:	390b3b0b 	stmdbcc	fp, {r0, r1, r3, r8, r9, fp, ip, sp}
      e0:	1c13490b 			; <UNDEFINED> instruction: 0x1c13490b
      e4:	1100000b 	tstne	r0, fp
      e8:	08030034 	stmdaeq	r3, {r2, r4, r5}
      ec:	0b3b0b3a 	bleq	ec2ddc <__bss_end__+0xeb8314>
      f0:	13490b39 	movtne	r0, #39737	; 0x9b39
      f4:	42b71702 	adcsmi	r1, r7, #524288	; 0x80000
      f8:	12000017 	andne	r0, r0, #23, 0
      fc:	0e030034 	mcreq	0, 0, r0, cr3, cr4, {1}
     100:	19341349 	ldmdbne	r4!, {r0, r3, r6, r8, r9, ip}
     104:	00001802 	andeq	r1, r0, r2, lsl #16
     108:	03003413 	movweq	r3, #1043	; 0x413
     10c:	3b0b3a08 	blcc	2ce934 <__bss_end__+0x2c3e6c>
     110:	490b390b 	stmdbmi	fp, {r0, r1, r3, r8, fp, ip, sp}
     114:	00180213 	andseq	r0, r8, r3, lsl r2
     118:	010b1400 	tsteq	fp, r0, lsl #8
     11c:	06120111 			; <UNDEFINED> instruction: 0x06120111
     120:	00001301 	andeq	r1, r0, r1, lsl #6
     124:	11010b15 	tstne	r1, r5, lsl fp
     128:	00061201 	andeq	r1, r6, r1, lsl #4
     12c:	00341600 	eorseq	r1, r4, r0, lsl #12
     130:	0b3a0e03 	bleq	e83944 <__bss_end__+0xe78e7c>
     134:	0b390b3b 	bleq	e42e28 <__bss_end__+0xe38360>
     138:	18021349 	stmdane	r2, {r0, r3, r6, r8, r9, ip}
     13c:	89170000 	ldmdbhi	r7, {}	; <UNPREDICTABLE>
     140:	11010182 	smlabbne	r1, r2, r1, r0
     144:	01133101 	tsteq	r3, r1, lsl #2
     148:	18000013 	stmdane	r0, {r0, r1, r4}
     14c:	0001828a 	andeq	r8, r1, sl, lsl #5
     150:	42911802 	addsmi	r1, r1, #131072	; 0x20000
     154:	19000018 	stmdbne	r0, {r3, r4}
     158:	01018289 	smlabbeq	r1, r9, r2, r8
     15c:	13310111 	teqne	r1, #1073741828	; 0x40000004
     160:	891a0000 	ldmdbhi	sl, {}	; <UNPREDICTABLE>
     164:	11000182 	smlabbne	r0, r2, r1, r0
     168:	00133101 	andseq	r3, r3, r1, lsl #2
     16c:	01011b00 	tsteq	r1, r0, lsl #22
     170:	13011349 	movwne	r1, #4937	; 0x1349
     174:	211c0000 	tstcs	ip, r0
     178:	2f134900 	svccs	0x00134900
     17c:	1d00000b 	stcne	0, cr0, [r0, #-44]	; 0xffffffd4
     180:	193f012e 	ldmdbne	pc!, {r1, r2, r3, r5, r8}	; <UNPREDICTABLE>
     184:	0b3a0e03 	bleq	e83998 <__bss_end__+0xe78ed0>
     188:	0b390b3b 	bleq	e42e7c <__bss_end__+0xe383b4>
     18c:	13491927 	movtne	r1, #39207	; 0x9927
     190:	06120111 			; <UNDEFINED> instruction: 0x06120111
     194:	42971840 	addsmi	r1, r7, #64, 16	; 0x400000
     198:	00130119 	andseq	r0, r3, r9, lsl r1
     19c:	00051e00 	andeq	r1, r5, r0, lsl #28
     1a0:	0b3a0803 	bleq	e821b4 <__bss_end__+0xe776ec>
     1a4:	0b390b3b 	bleq	e42e98 <__bss_end__+0xe383d0>
     1a8:	17021349 	strne	r1, [r2, -r9, asr #6]
     1ac:	001742b7 			; <UNDEFINED> instruction: 0x001742b7
     1b0:	00341f00 	eorseq	r1, r4, r0, lsl #30
     1b4:	0b3a0e03 	bleq	e839c8 <__bss_end__+0xe78f00>
     1b8:	0b390b3b 	bleq	e42eac <__bss_end__+0xe383e4>
     1bc:	17021349 	strne	r1, [r2, -r9, asr #6]
     1c0:	001742b7 			; <UNDEFINED> instruction: 0x001742b7
     1c4:	011d2000 	tsteq	sp, r0
     1c8:	01521331 	cmpeq	r2, r1, lsr r3
     1cc:	110b42b8 			; <UNDEFINED> instruction: 0x110b42b8
     1d0:	58061201 	stmdapl	r6, {r0, r9, ip}
     1d4:	570b590b 	strpl	r5, [fp, -fp, lsl #18]
     1d8:	0013010b 	andseq	r0, r3, fp, lsl #2
     1dc:	00052100 	andeq	r2, r5, r0, lsl #2
     1e0:	17021331 	smladxne	r2, r1, r3, r1
     1e4:	001742b7 			; <UNDEFINED> instruction: 0x001742b7
     1e8:	00052200 	andeq	r2, r5, r0, lsl #4
     1ec:	0b3a0e03 	bleq	e83a00 <__bss_end__+0xe78f38>
     1f0:	0b390b3b 	bleq	e42ee4 <__bss_end__+0xe3841c>
     1f4:	17021349 	strne	r1, [r2, -r9, asr #6]
     1f8:	001742b7 			; <UNDEFINED> instruction: 0x001742b7
     1fc:	011d2300 	tsteq	sp, r0, lsl #6
     200:	01521331 	cmpeq	r2, r1, lsr r3
     204:	550b42b8 	strpl	r4, [fp, #-696]	; 0xfffffd48
     208:	590b5817 	stmdbpl	fp, {r0, r1, r2, r4, fp, ip, lr}
     20c:	010b570b 	tsteq	fp, fp, lsl #14
     210:	24000013 	strcs	r0, [r0], #-19	; 0xffffffed
     214:	1755010b 	ldrbne	r0, [r5, -fp, lsl #2]
     218:	34250000 	strtcc	r0, [r5], #-0
     21c:	02133100 	andseq	r3, r3, #0
     220:	1742b717 	smlaldne	fp, r2, r7, r7
     224:	2e260000 	cdpcs	0, 2, cr0, cr6, cr0, {0}
     228:	3a0e0301 	bcc	380e34 <__bss_end__+0x37636c>
     22c:	390b3b0b 	stmdbcc	fp, {r0, r1, r3, r8, r9, fp, ip, sp}
     230:	1119270b 	tstne	r9, fp, lsl #14
     234:	40061201 	andmi	r1, r6, r1, lsl #4
     238:	19429718 	stmdbne	r2, {r3, r4, r8, r9, sl, ip, pc}^
     23c:	00001301 	andeq	r1, r0, r1, lsl #6
     240:	03000527 	movweq	r0, #1319	; 0x527
     244:	3b0b3a08 	blcc	2cea6c <__bss_end__+0x2c3fa4>
     248:	490b390b 	stmdbmi	fp, {r0, r1, r3, r8, fp, ip, sp}
     24c:	00180213 	andseq	r0, r8, r3, lsl r2
     250:	012e2800 			; <UNDEFINED> instruction: 0x012e2800
     254:	0b3a0e03 	bleq	e83a68 <__bss_end__+0xe78fa0>
     258:	0b390b3b 	bleq	e42f4c <__bss_end__+0xe38484>
     25c:	13491927 	movtne	r1, #39207	; 0x9927
     260:	06120111 			; <UNDEFINED> instruction: 0x06120111
     264:	42971840 	addsmi	r1, r7, #64, 16	; 0x400000
     268:	00130119 	andseq	r0, r3, r9, lsl r1
     26c:	012e2900 			; <UNDEFINED> instruction: 0x012e2900
     270:	0b3a0e03 	bleq	e83a84 <__bss_end__+0xe78fbc>
     274:	0b390b3b 	bleq	e42f68 <__bss_end__+0xe384a0>
     278:	13491927 	movtne	r1, #39207	; 0x9927
     27c:	13010b20 	movwne	r0, #6944	; 0x1b20
     280:	052a0000 	streq	r0, [sl, #-0]!
     284:	3a080300 	bcc	200e8c <__bss_end__+0x1f63c4>
     288:	390b3b0b 	stmdbcc	fp, {r0, r1, r3, r8, r9, fp, ip, sp}
     28c:	0013490b 	andseq	r4, r3, fp, lsl #18
     290:	00342b00 	eorseq	r2, r4, r0, lsl #22
     294:	0b3a0803 	bleq	e822a8 <__bss_end__+0xe777e0>
     298:	0b390b3b 	bleq	e42f8c <__bss_end__+0xe384c4>
     29c:	00001349 	andeq	r1, r0, r9, asr #6
     2a0:	0300342c 	movweq	r3, #1068	; 0x42c
     2a4:	3413490e 	ldrcc	r4, [r3], #-2318	; 0xfffff6f2
     2a8:	2d000019 	stccs	0, cr0, [r0, #-100]	; 0xffffff9c
     2ac:	0e030034 	mcreq	0, 0, r0, cr3, cr4, {1}
     2b0:	0b3b0b3a 	bleq	ec2fa0 <__bss_end__+0xeb84d8>
     2b4:	13490b39 	movtne	r0, #39737	; 0x9b39
     2b8:	052e0000 	streq	r0, [lr, #-0]!
     2bc:	3a0e0300 	bcc	380ec4 <__bss_end__+0x3763fc>
     2c0:	390b3b0b 	stmdbcc	fp, {r0, r1, r3, r8, r9, fp, ip, sp}
     2c4:	0013490b 	andseq	r4, r3, fp, lsl #18
     2c8:	002e2f00 	eoreq	r2, lr, r0, lsl #30
     2cc:	193c193f 	ldmdbne	ip!, {r0, r1, r2, r3, r4, r5, r8, fp, ip}
     2d0:	0e030e6e 	cdpeq	14, 0, cr0, cr3, cr14, {3}
     2d4:	0b3b0b3a 	bleq	ec2fc4 <__bss_end__+0xeb84fc>
     2d8:	00000b39 	andeq	r0, r0, r9, lsr fp
     2dc:	01110100 	tsteq	r1, r0, lsl #2
     2e0:	0b130e25 	bleq	4c3b7c <__bss_end__+0x4b90b4>
     2e4:	0e1b0e03 	cdpeq	14, 1, cr0, cr11, cr3, {0}
     2e8:	06120111 			; <UNDEFINED> instruction: 0x06120111
     2ec:	00001710 	andeq	r1, r0, r0, lsl r7
     2f0:	0b002402 	bleq	9300 <emit.constprop.0+0x230>
     2f4:	030b3e0b 	movweq	r3, #48651	; 0xbe0b
     2f8:	03000008 	movweq	r0, #8
     2fc:	0b0b0024 	bleq	2c0394 <__bss_end__+0x2b58cc>
     300:	0e030b3e 	vmoveq.16	d3[0], r0
     304:	26040000 	strcs	r0, [r4], -r0
     308:	00134900 	andseq	r4, r3, r0, lsl #18
     30c:	00160500 	andseq	r0, r6, r0, lsl #10
     310:	0b3a0e03 	bleq	e83b24 <__bss_end__+0xe7905c>
     314:	0b390b3b 	bleq	e43008 <__bss_end__+0xe38540>
     318:	00001349 	andeq	r1, r0, r9, asr #6
     31c:	27011506 	strcs	r1, [r1, -r6, lsl #10]
     320:	01134919 	tsteq	r3, r9, lsl r9
     324:	07000013 	smladeq	r0, r3, r0, r0
     328:	13490005 	movtne	r0, #36869	; 0x9005
     32c:	34080000 	strcc	r0, [r8], #-0
     330:	3a0e0300 	bcc	380f38 <__bss_end__+0x376470>
     334:	390b3b0b 	stmdbcc	fp, {r0, r1, r3, r8, r9, fp, ip, sp}
     338:	3f13490b 	svccc	0x0013490b
     33c:	00193c19 	andseq	r3, r9, r9, lsl ip
     340:	000f0900 	andeq	r0, pc, r0, lsl #18
     344:	13490b0b 	movtne	r0, #39691	; 0x9b0b
     348:	040a0000 	streq	r0, [sl], #-0
     34c:	0b0b3e01 	bleq	2cfb58 <__bss_end__+0x2c5090>
     350:	3a13490b 	bcc	4d2784 <__bss_end__+0x4c7cbc>
     354:	390b3b0b 	stmdbcc	fp, {r0, r1, r3, r8, r9, fp, ip, sp}
     358:	0013010b 	andseq	r0, r3, fp, lsl #2
     35c:	00280b00 	eoreq	r0, r8, r0, lsl #22
     360:	0b1c0e03 	bleq	703b74 <__bss_end__+0x6f90ac>
     364:	130c0000 	movwne	r0, #49152	; 0xc000
     368:	3a0b0b01 	bcc	2c2f74 <__bss_end__+0x2b84ac>
     36c:	390b3b0b 	stmdbcc	fp, {r0, r1, r3, r8, r9, fp, ip, sp}
     370:	0013010b 	andseq	r0, r3, fp, lsl #2
     374:	000d0d00 	andeq	r0, sp, r0, lsl #26
     378:	0b3a0e03 	bleq	e83b8c <__bss_end__+0xe790c4>
     37c:	0b390b3b 	bleq	e43070 <__bss_end__+0xe385a8>
     380:	0b0b1349 	bleq	2c50ac <__bss_end__+0x2ba5e4>
     384:	0b0c0b0d 	bleq	302fc0 <__bss_end__+0x2f84f8>
     388:	00000b38 	andeq	r0, r0, r8, lsr fp
     38c:	03000d0e 	movweq	r0, #3342	; 0xd0e
     390:	3b0b3a08 	blcc	2cebb8 <__bss_end__+0x2c40f0>
     394:	490b390b 	stmdbmi	fp, {r0, r1, r3, r8, fp, ip, sp}
     398:	0d0b0b13 	vstreq	d0, [fp, #-76]	; 0xffffffb4
     39c:	380b0c0b 	stmdacc	fp, {r0, r1, r3, sl, fp}
     3a0:	0f00000b 	svceq	0x0000000b
     3a4:	13490035 	movtne	r0, #36917	; 0x9035
     3a8:	13100000 	tstne	r0, #0, 0
     3ac:	0b0e0301 	bleq	380fb8 <__bss_end__+0x3764f0>
     3b0:	3b0b3a0b 	blcc	2cebe4 <__bss_end__+0x2c411c>
     3b4:	010b390b 	tsteq	fp, fp, lsl #18
     3b8:	11000013 	tstne	r0, r3, lsl r0
     3bc:	0e03000d 	cdpeq	0, 0, cr0, cr3, cr13, {0}
     3c0:	0b3b0b3a 	bleq	ec30b0 <__bss_end__+0xeb85e8>
     3c4:	13490b39 	movtne	r0, #39737	; 0x9b39
     3c8:	00000b38 	andeq	r0, r0, r8, lsr fp
     3cc:	03003412 	movweq	r3, #1042	; 0x412
     3d0:	3b0b3a08 	blcc	2cebf8 <__bss_end__+0x2c4130>
     3d4:	490b390b 	stmdbmi	fp, {r0, r1, r3, r8, fp, ip, sp}
     3d8:	13000013 	movwne	r0, #19
     3dc:	0e030034 	mcreq	0, 0, r0, cr3, cr4, {1}
     3e0:	053b0b3a 	ldreq	r0, [fp, #-2874]!	; 0xfffff4c6
     3e4:	13490b39 	movtne	r0, #39737	; 0x9b39
     3e8:	00001802 	andeq	r1, r0, r2, lsl #16
     3ec:	03012e14 	movweq	r2, #7700	; 0x1e14
     3f0:	3b0b3a0e 	blcc	2cec30 <__bss_end__+0x2c4168>
     3f4:	270b3905 	strcs	r3, [fp, -r5, lsl #18]
     3f8:	12011119 	andne	r1, r1, #1073741830	; 0x40000006
     3fc:	97184006 	ldrls	r4, [r8, -r6]
     400:	13011942 	movwne	r1, #6466	; 0x1942
     404:	34150000 	ldrcc	r0, [r5], #-0
     408:	490e0300 	stmdbmi	lr, {r8, r9}
     40c:	02193413 	andseq	r3, r9, #318767104	; 0x13000000
     410:	16000018 			; <UNDEFINED> instruction: 0x16000018
     414:	0111010b 	tsteq	r1, fp, lsl #2
     418:	13010612 	movwne	r0, #5650	; 0x1612
     41c:	17170000 	ldrne	r0, [r7, -r0]
     420:	0b080301 	bleq	20102c <__bss_end__+0x1f6564>
     424:	3b0b3a0b 	blcc	2cec58 <__bss_end__+0x2c4190>
     428:	010b3905 	tsteq	fp, r5, lsl #18
     42c:	18000013 	stmdane	r0, {r0, r1, r4}
     430:	0803000d 	stmdaeq	r3, {r0, r2, r3}
     434:	053b0b3a 	ldreq	r0, [fp, #-2874]!	; 0xfffff4c6
     438:	13490b39 	movtne	r0, #39737	; 0x9b39
     43c:	34190000 	ldrcc	r0, [r9], #-0
     440:	3a080300 	bcc	201048 <__bss_end__+0x1f6580>
     444:	39053b0b 	stmdbcc	r5, {r0, r1, r3, r8, r9, fp, ip, sp}
     448:	0013490b 	andseq	r4, r3, fp, lsl #18
     44c:	00341a00 	eorseq	r1, r4, r0, lsl #20
     450:	0b3a0803 	bleq	e82464 <__bss_end__+0xe7799c>
     454:	0b39053b 	bleq	e41948 <__bss_end__+0xe36e80>
     458:	0b1c1349 	bleq	705184 <__bss_end__+0x6fa6bc>
     45c:	341b0000 	ldrcc	r0, [fp], #-0
     460:	3a0e0300 	bcc	381068 <__bss_end__+0x3765a0>
     464:	39053b0b 	stmdbcc	r5, {r0, r1, r3, r8, r9, fp, ip, sp}
     468:	1c13490b 			; <UNDEFINED> instruction: 0x1c13490b
     46c:	1c00000b 	stcne	0, cr0, [r0], {11}
     470:	08030034 	stmdaeq	r3, {r2, r4, r5}
     474:	053b0b3a 	ldreq	r0, [fp, #-2874]!	; 0xfffff4c6
     478:	13490b39 	movtne	r0, #39737	; 0x9b39
     47c:	00001802 	andeq	r1, r0, r2, lsl #16
     480:	0300341d 	movweq	r3, #1053	; 0x41d
     484:	3b0b3a08 	blcc	2cecac <__bss_end__+0x2c41e4>
     488:	490b3905 	stmdbmi	fp, {r0, r2, r8, fp, ip, sp}
     48c:	b7170213 			; <UNDEFINED> instruction: 0xb7170213
     490:	00001742 	andeq	r1, r0, r2, asr #14
     494:	0300341e 	movweq	r3, #1054	; 0x41e
     498:	3b0b3a08 	blcc	2cecc0 <__bss_end__+0x2c41f8>
     49c:	490b3905 	stmdbmi	fp, {r0, r2, r8, fp, ip, sp}
     4a0:	00051c13 	andeq	r1, r5, r3, lsl ip
     4a4:	010b1f00 	tsteq	fp, r0, lsl #30
     4a8:	06120111 			; <UNDEFINED> instruction: 0x06120111
     4ac:	34200000 	strtcc	r0, [r0], #-0
     4b0:	3a0e0300 	bcc	3810b8 <__bss_end__+0x3765f0>
     4b4:	39053b0b 	stmdbcc	r5, {r0, r1, r3, r8, r9, fp, ip, sp}
     4b8:	0013490b 	andseq	r4, r3, fp, lsl #18
     4bc:	01012100 	mrseq	r2, (UNDEF: 17)
     4c0:	13011349 	movwne	r1, #4937	; 0x1349
     4c4:	21220000 			; <UNDEFINED> instruction: 0x21220000
     4c8:	2f134900 	svccs	0x00134900
     4cc:	2300000b 	movwcs	r0, #11
     4d0:	193f012e 	ldmdbne	pc!, {r1, r2, r3, r5, r8}	; <UNPREDICTABLE>
     4d4:	0b3a0e03 	bleq	e83ce8 <__bss_end__+0xe79220>
     4d8:	0b39053b 	bleq	e419cc <__bss_end__+0xe36f04>
     4dc:	01111927 	tsteq	r1, r7, lsr #18
     4e0:	18400612 	stmdane	r0, {r1, r4, r9, sl}^
     4e4:	01194297 			; <UNDEFINED> instruction: 0x01194297
     4e8:	24000013 	strcs	r0, [r0], #-19	; 0xffffffed
     4ec:	00018289 	andeq	r8, r1, r9, lsl #5
     4f0:	13310111 	teqne	r1, #1073741828	; 0x40000004
     4f4:	89250000 	stmdbhi	r5!, {}	; <UNPREDICTABLE>
     4f8:	11010182 	smlabbne	r1, r2, r1, r0
     4fc:	01133101 	tsteq	r3, r1, lsl #2
     500:	26000013 			; <UNDEFINED> instruction: 0x26000013
     504:	0001828a 	andeq	r8, r1, sl, lsl #5
     508:	42911802 	addsmi	r1, r1, #131072	; 0x20000
     50c:	27000018 	smladcs	r0, r8, r0, r0
     510:	193f002e 	ldmdbne	pc!, {r1, r2, r3, r5}	; <UNPREDICTABLE>
     514:	0b3a0e03 	bleq	e83d28 <__bss_end__+0xe79260>
     518:	0b39053b 	bleq	e41a0c <__bss_end__+0xe36f44>
     51c:	13491927 	movtne	r1, #39207	; 0x9927
     520:	06120111 			; <UNDEFINED> instruction: 0x06120111
     524:	42971840 	addsmi	r1, r7, #64, 16	; 0x400000
     528:	28000019 	stmdacs	r0, {r0, r3, r4}
     52c:	193f012e 	ldmdbne	pc!, {r1, r2, r3, r5, r8}	; <UNPREDICTABLE>
     530:	0b3a0e03 	bleq	e83d44 <__bss_end__+0xe7927c>
     534:	0b39053b 	bleq	e41a28 <__bss_end__+0xe36f60>
     538:	13491927 	movtne	r1, #39207	; 0x9927
     53c:	06120111 			; <UNDEFINED> instruction: 0x06120111
     540:	42971840 	addsmi	r1, r7, #64, 16	; 0x400000
     544:	00130119 	andseq	r0, r3, r9, lsl r1
     548:	00052900 	andeq	r2, r5, r0, lsl #18
     54c:	0b3a0803 	bleq	e82560 <__bss_end__+0xe77a98>
     550:	0b39053b 	bleq	e41a44 <__bss_end__+0xe36f7c>
     554:	17021349 	strne	r1, [r2, -r9, asr #6]
     558:	001742b7 			; <UNDEFINED> instruction: 0x001742b7
     55c:	010b2a00 	tsteq	fp, r0, lsl #20
     560:	13011755 	movwne	r1, #5973	; 0x1755
     564:	342b0000 	strtcc	r0, [fp], #-0
     568:	3a0e0300 	bcc	381170 <__bss_end__+0x3766a8>
     56c:	39053b0b 	stmdbcc	r5, {r0, r1, r3, r8, r9, fp, ip, sp}
     570:	0213490b 	andseq	r4, r3, #180224	; 0x2c000
     574:	1742b717 	smlaldne	fp, r2, r7, r7
     578:	892c0000 	stmdbhi	ip!, {}	; <UNPREDICTABLE>
     57c:	11010182 	smlabbne	r1, r2, r1, r0
     580:	00133101 	andseq	r3, r3, r1, lsl #2
     584:	00052d00 	andeq	r2, r5, r0, lsl #26
     588:	0b3a0e03 	bleq	e83d9c <__bss_end__+0xe792d4>
     58c:	0b39053b 	bleq	e41a80 <__bss_end__+0xe36fb8>
     590:	17021349 	strne	r1, [r2, -r9, asr #6]
     594:	001742b7 			; <UNDEFINED> instruction: 0x001742b7
     598:	012e2e00 			; <UNDEFINED> instruction: 0x012e2e00
     59c:	0b3a0e03 	bleq	e83db0 <__bss_end__+0xe792e8>
     5a0:	0b390b3b 	bleq	e43294 <__bss_end__+0xe387cc>
     5a4:	01111927 	tsteq	r1, r7, lsr #18
     5a8:	18400612 	stmdane	r0, {r1, r4, r9, sl}^
     5ac:	01194297 			; <UNDEFINED> instruction: 0x01194297
     5b0:	2f000013 	svccs	0x00000013
     5b4:	0e030005 	cdpeq	0, 0, cr0, cr3, cr5, {0}
     5b8:	0b3b0b3a 	bleq	ec32a8 <__bss_end__+0xeb87e0>
     5bc:	13490b39 	movtne	r0, #39737	; 0x9b39
     5c0:	42b71702 	adcsmi	r1, r7, #524288	; 0x80000
     5c4:	30000017 	andcc	r0, r0, r7, lsl r0
     5c8:	08030117 	stmdaeq	r3, {r0, r1, r2, r4, r8}
     5cc:	0b3a0b0b 	bleq	e83200 <__bss_end__+0xe78738>
     5d0:	0b390b3b 	bleq	e432c4 <__bss_end__+0xe387fc>
     5d4:	00001301 	andeq	r1, r0, r1, lsl #6
     5d8:	03000d31 	movweq	r0, #3377	; 0xd31
     5dc:	3b0b3a08 	blcc	2cee04 <__bss_end__+0x2c433c>
     5e0:	490b390b 	stmdbmi	fp, {r0, r1, r3, r8, fp, ip, sp}
     5e4:	32000013 	andcc	r0, r0, #19, 0
     5e8:	0e03012e 	adfeqsp	f0, f3, #0.5
     5ec:	0b3b0b3a 	bleq	ec32dc <__bss_end__+0xeb8814>
     5f0:	19270b39 	stmdbne	r7!, {r0, r3, r4, r5, r8, r9, fp}
     5f4:	01111349 	tsteq	r1, r9, asr #6
     5f8:	18400612 	stmdane	r0, {r1, r4, r9, sl}^
     5fc:	01194297 			; <UNDEFINED> instruction: 0x01194297
     600:	33000013 	movwcc	r0, #19
     604:	08030005 	stmdaeq	r3, {r0, r2}
     608:	0b3b0b3a 	bleq	ec32f8 <__bss_end__+0xeb8830>
     60c:	13490b39 	movtne	r0, #39737	; 0x9b39
     610:	42b71702 	adcsmi	r1, r7, #524288	; 0x80000
     614:	34000017 	strcc	r0, [r0], #-23	; 0xffffffe9
     618:	193f002e 	ldmdbne	pc!, {r1, r2, r3, r5}	; <UNPREDICTABLE>
     61c:	0e6e193c 			; <UNDEFINED> instruction: 0x0e6e193c
     620:	0b3a0e03 	bleq	e83e34 <__bss_end__+0xe7936c>
     624:	0b390b3b 	bleq	e43318 <__bss_end__+0xe38850>
     628:	01000000 	mrseq	r0, (UNDEF: 0)
     62c:	0e250111 	mcreq	1, 1, r0, cr5, cr1, {0}
     630:	0e030b13 	vmoveq.32	d3[0], r0
     634:	01110e1b 	tsteq	r1, fp, lsl lr
     638:	17100612 			; <UNDEFINED> instruction: 0x17100612
     63c:	24020000 	strcs	r0, [r2], #-0
     640:	3e0b0b00 	vmlacc.f64	d0, d11, d0
     644:	000e030b 	andeq	r0, lr, fp, lsl #6
     648:	00240300 	eoreq	r0, r4, r0, lsl #6
     64c:	0b3e0b0b 	bleq	f83280 <__bss_end__+0xf787b8>
     650:	00000803 	andeq	r0, r0, r3, lsl #16
     654:	49002604 	stmdbmi	r0, {r2, r9, sl, sp}
     658:	05000013 	streq	r0, [r0, #-19]	; 0xffffffed
     65c:	0e030016 	mcreq	0, 0, r0, cr3, cr6, {0}
     660:	0b3b0b3a 	bleq	ec3350 <__bss_end__+0xeb8888>
     664:	13490b39 	movtne	r0, #39737	; 0x9b39
     668:	15060000 	strne	r0, [r6, #-0]
     66c:	49192701 	ldmdbmi	r9, {r0, r8, r9, sl, sp}
     670:	00130113 	andseq	r0, r3, r3, lsl r1
     674:	00050700 	andeq	r0, r5, r0, lsl #14
     678:	00001349 	andeq	r1, r0, r9, asr #6
     67c:	03003408 	movweq	r3, #1032	; 0x408
     680:	3b0b3a0e 	blcc	2ceec0 <__bss_end__+0x2c43f8>
     684:	490b390b 	stmdbmi	fp, {r0, r1, r3, r8, fp, ip, sp}
     688:	3c193f13 	ldccc	15, cr3, [r9], {19}
     68c:	09000019 	stmdbeq	r0, {r0, r3, r4}
     690:	0b0b000f 	bleq	2c06d4 <__bss_end__+0x2b5c0c>
     694:	00001349 	andeq	r1, r0, r9, asr #6
     698:	3e01040a 	cdpcc	4, 0, cr0, cr1, cr10, {0}
     69c:	490b0b0b 	stmdbmi	fp, {r0, r1, r3, r8, r9, fp}
     6a0:	3b0b3a13 	blcc	2ceef4 <__bss_end__+0x2c442c>
     6a4:	010b390b 	tsteq	fp, fp, lsl #18
     6a8:	0b000013 	bleq	6fc <__code_start__-0x7904>
     6ac:	0e030028 	cdpeq	0, 0, cr0, cr3, cr8, {1}
     6b0:	00000b1c 	andeq	r0, r0, ip, lsl fp
     6b4:	0300340c 	movweq	r3, #1036	; 0x40c
     6b8:	3b0b3a0e 	blcc	2ceef8 <__bss_end__+0x2c4430>
     6bc:	490b390b 	stmdbmi	fp, {r0, r1, r3, r8, fp, ip, sp}
     6c0:	00061c13 	andeq	r1, r6, r3, lsl ip
     6c4:	012e0d00 			; <UNDEFINED> instruction: 0x012e0d00
     6c8:	0e03193f 			; <UNDEFINED> instruction: 0x0e03193f
     6cc:	0b3b0b3a 	bleq	ec33bc <__bss_end__+0xeb88f4>
     6d0:	19270b39 	stmdbne	r7!, {r0, r3, r4, r5, r8, r9, fp}
     6d4:	01111349 	tsteq	r1, r9, asr #6
     6d8:	18400612 	stmdane	r0, {r1, r4, r9, sl}^
     6dc:	01194297 			; <UNDEFINED> instruction: 0x01194297
     6e0:	0e000013 	mcreq	0, 0, r0, cr0, cr3, {0}
     6e4:	08030005 	stmdaeq	r3, {r0, r2}
     6e8:	0b3b0b3a 	bleq	ec33d8 <__bss_end__+0xeb8910>
     6ec:	13490b39 	movtne	r0, #39737	; 0x9b39
     6f0:	42b71702 	adcsmi	r1, r7, #524288	; 0x80000
     6f4:	0f000017 	svceq	0x00000017
     6f8:	0e030034 	mcreq	0, 0, r0, cr3, cr4, {1}
     6fc:	0b3b0b3a 	bleq	ec33ec <__bss_end__+0xeb8924>
     700:	13490b39 	movtne	r0, #39737	; 0x9b39
     704:	42b71702 	adcsmi	r1, r7, #524288	; 0x80000
     708:	10000017 	andne	r0, r0, r7, lsl r0
     70c:	08030034 	stmdaeq	r3, {r2, r4, r5}
     710:	0b3b0b3a 	bleq	ec3400 <__bss_end__+0xeb8938>
     714:	13490b39 	movtne	r0, #39737	; 0x9b39
     718:	42b71702 	adcsmi	r1, r7, #524288	; 0x80000
     71c:	11000017 	tstne	r0, r7, lsl r0
     720:	01018289 	smlabbeq	r1, r9, r2, r8
     724:	13310111 	teqne	r1, #1073741828	; 0x40000004
     728:	8a120000 	bhi	480730 <__bss_end__+0x475c68>
     72c:	02000182 	andeq	r0, r0, #-2147483616	; 0x80000020
     730:	18429118 	stmdane	r2, {r3, r4, r8, ip, pc}^
     734:	2e130000 	cdpcs	0, 1, cr0, cr3, cr0, {0}
     738:	03193f01 	tsteq	r9, #1, 30
     73c:	3b0b3a0e 	blcc	2cef7c <__bss_end__+0x2c44b4>
     740:	270b390b 	strcs	r3, [fp, -fp, lsl #18]
     744:	12011119 	andne	r1, r1, #1073741830	; 0x40000006
     748:	97184006 	ldrls	r4, [r8, -r6]
     74c:	13011942 	movwne	r1, #6466	; 0x1942
     750:	1d140000 	ldcne	0, cr0, [r4, #-0]
     754:	52133101 	andspl	r3, r3, #1073741824	; 0x40000000
     758:	0b42b801 	bleq	10ae764 <__bss_end__+0x10a3c9c>
     75c:	0b581755 	bleq	16064b8 <__bss_end__+0x15fb9f0>
     760:	0b570b59 	bleq	15c34cc <__bss_end__+0x15b8a04>
     764:	00001301 	andeq	r1, r0, r1, lsl #6
     768:	31000515 	tstcc	r0, r5, lsl r5
     76c:	b7170213 			; <UNDEFINED> instruction: 0xb7170213
     770:	00001742 	andeq	r1, r0, r2, asr #14
     774:	01828916 	orreq	r8, r2, r6, lsl r9
     778:	95011101 	strls	r1, [r1, #-257]	; 0xfffffeff
     77c:	13311942 	teqne	r1, #1081344	; 0x108000
     780:	1d170000 	ldcne	0, cr0, [r7, #-0]
     784:	52133101 	andspl	r3, r3, #1073741824	; 0x40000000
     788:	0b42b801 	bleq	10ae794 <__bss_end__+0x10a3ccc>
     78c:	06120111 			; <UNDEFINED> instruction: 0x06120111
     790:	0b590b58 	bleq	16434f8 <__bss_end__+0x1638a30>
     794:	00000b57 	andeq	r0, r0, r7, asr fp
     798:	31011d18 	tstcc	r1, r8, lsl sp
     79c:	b8015213 	stmdalt	r1, {r0, r1, r4, r9, ip, lr}
     7a0:	17550b42 	ldrbne	r0, [r5, -r2, asr #22]
     7a4:	0b590b58 	bleq	164350c <__bss_end__+0x1638a44>
     7a8:	00000b57 	andeq	r0, r0, r7, asr fp
     7ac:	31000519 	tstcc	r0, r9, lsl r5
     7b0:	000b1c13 	andeq	r1, fp, r3, lsl ip
     7b4:	010b1a00 	tsteq	fp, r0, lsl #20
     7b8:	00001755 	andeq	r1, r0, r5, asr r7
     7bc:	3100341b 	tstcc	r0, fp, lsl r4
     7c0:	1c000013 	stcne	0, cr0, [r0], {19}
     7c4:	13310034 	teqne	r1, #52, 0	; 0x34
     7c8:	42b71702 	adcsmi	r1, r7, #524288	; 0x80000
     7cc:	1d000017 	stcne	0, cr0, [r0, #-92]	; 0xffffffa4
     7d0:	01018289 	smlabbeq	r1, r9, r2, r8
     7d4:	13310111 	teqne	r1, #1073741828	; 0x40000004
     7d8:	00001301 	andeq	r1, r0, r1, lsl #6
     7dc:	3f012e1e 	svccc	0x00012e1e
     7e0:	3a0e0319 	bcc	38144c <__bss_end__+0x376984>
     7e4:	390b3b0b 	stmdbcc	fp, {r0, r1, r3, r8, r9, fp, ip, sp}
     7e8:	2019270b 	andscs	r2, r9, fp, lsl #14
     7ec:	0013010b 	andseq	r0, r3, fp, lsl #2
     7f0:	00051f00 	andeq	r1, r5, r0, lsl #30
     7f4:	0b3a0803 	bleq	e82808 <__bss_end__+0xe77d40>
     7f8:	0b390b3b 	bleq	e434ec <__bss_end__+0xe38a24>
     7fc:	00001349 	andeq	r1, r0, r9, asr #6
     800:	03000520 	movweq	r0, #1312	; 0x520
     804:	3b0b3a0e 	blcc	2cf044 <__bss_end__+0x2c457c>
     808:	490b390b 	stmdbmi	fp, {r0, r1, r3, r8, fp, ip, sp}
     80c:	21000013 	tstcs	r0, r3, lsl r0
     810:	08030034 	stmdaeq	r3, {r2, r4, r5}
     814:	0b3b0b3a 	bleq	ec3504 <__bss_end__+0xeb8a3c>
     818:	13490b39 	movtne	r0, #39737	; 0x9b39
     81c:	2e220000 	cdpcs	0, 2, cr0, cr2, cr0, {0}
     820:	3a0e0301 	bcc	38142c <__bss_end__+0x376964>
     824:	390b3b0b 	stmdbcc	fp, {r0, r1, r3, r8, r9, fp, ip, sp}
     828:	4919270b 	ldmdbmi	r9, {r0, r1, r3, r8, r9, sl, sp}
     82c:	010b2013 	tsteq	fp, r3, lsl r0
     830:	23000013 	movwcs	r0, #19
     834:	1331012e 	teqne	r1, #-2147483637	; 0x8000000b
     838:	06120111 			; <UNDEFINED> instruction: 0x06120111
     83c:	42971840 	addsmi	r1, r7, #64, 16	; 0x400000
     840:	00130119 	andseq	r0, r3, r9, lsl r1
     844:	002e2400 	eoreq	r2, lr, r0, lsl #8
     848:	193c193f 	ldmdbne	ip!, {r0, r1, r2, r3, r4, r5, r8, fp, ip}
     84c:	0e030e6e 	cdpeq	14, 0, cr0, cr3, cr14, {3}
     850:	0b3b0b3a 	bleq	ec3540 <__bss_end__+0xeb8a78>
     854:	00000b39 	andeq	r0, r0, r9, lsr fp
     858:	01110100 	tsteq	r1, r0, lsl #2
     85c:	0b130e25 	bleq	4c40f8 <__bss_end__+0x4b9630>
     860:	0e1b0e03 	cdpeq	14, 1, cr0, cr11, cr3, {0}
     864:	06120111 			; <UNDEFINED> instruction: 0x06120111
     868:	00001710 	andeq	r1, r0, r0, lsl r7
     86c:	03001602 	movweq	r1, #1538	; 0x602
     870:	3b0b3a0e 	blcc	2cf0b0 <__bss_end__+0x2c45e8>
     874:	490b390b 	stmdbmi	fp, {r0, r1, r3, r8, fp, ip, sp}
     878:	03000013 	movweq	r0, #19
     87c:	0e030113 	mcreq	1, 0, r0, cr3, cr3, {0}
     880:	0b3a0b0b 	bleq	e834b4 <__bss_end__+0xe789ec>
     884:	13010b3b 	movwne	r0, #6971	; 0x1b3b
     888:	0d040000 	stceq	0, cr0, [r4, #-0]
     88c:	490e0300 	stmdbmi	lr, {r8, r9}
     890:	340b3813 	strcc	r3, [fp], #-2067	; 0xfffff7ed
     894:	05000019 	streq	r0, [r0, #-25]	; 0xffffffe7
     898:	0b0b000f 	bleq	2c08dc <__bss_end__+0x2b5e14>
     89c:	24060000 	strcs	r0, [r6], #-0
     8a0:	3e0b0b00 	vmlacc.f64	d0, d11, d0
     8a4:	0008030b 	andeq	r0, r8, fp, lsl #6
     8a8:	00240700 	eoreq	r0, r4, r0, lsl #14
     8ac:	0b3e0b0b 	bleq	f834e0 <__bss_end__+0xf78a18>
     8b0:	00000e03 	andeq	r0, r0, r3, lsl #28
     8b4:	27011508 	strcs	r1, [r1, -r8, lsl #10]
     8b8:	01134919 	tsteq	r3, r9, lsl r9
     8bc:	09000013 	stmdbeq	r0, {r0, r1, r4}
     8c0:	13490005 	movtne	r0, #36869	; 0x9005
     8c4:	340a0000 	strcc	r0, [sl], #-0
     8c8:	3a0e0300 	bcc	3814d0 <__bss_end__+0x376a08>
     8cc:	390b3b0b 	stmdbcc	fp, {r0, r1, r3, r8, r9, fp, ip, sp}
     8d0:	3f13490b 	svccc	0x0013490b
     8d4:	00193c19 	andseq	r3, r9, r9, lsl ip
     8d8:	000f0b00 	andeq	r0, pc, r0, lsl #22
     8dc:	13490b0b 	movtne	r0, #39691	; 0x9b0b
     8e0:	260c0000 	strcs	r0, [ip], -r0
     8e4:	00134900 	andseq	r4, r3, r0, lsl #18
     8e8:	012e0d00 			; <UNDEFINED> instruction: 0x012e0d00
     8ec:	0e03193f 			; <UNDEFINED> instruction: 0x0e03193f
     8f0:	0b3b0b3a 	bleq	ec35e0 <__bss_end__+0xeb8b18>
     8f4:	19270b39 	stmdbne	r7!, {r0, r3, r4, r5, r8, r9, fp}
     8f8:	01111349 	tsteq	r1, r9, asr #6
     8fc:	18400612 	stmdane	r0, {r1, r4, r9, sl}^
     900:	01194297 			; <UNDEFINED> instruction: 0x01194297
     904:	0e000013 	mcreq	0, 0, r0, cr0, cr3, {0}
     908:	08030005 	stmdaeq	r3, {r0, r2}
     90c:	0b3b0b3a 	bleq	ec35fc <__bss_end__+0xeb8b34>
     910:	13490b39 	movtne	r0, #39737	; 0x9b39
     914:	00001802 	andeq	r1, r0, r2, lsl #16
     918:	0000180f 	andeq	r1, r0, pc, lsl #16
     91c:	00341000 	eorseq	r1, r4, r0
     920:	0b3a0803 	bleq	e82934 <__bss_end__+0xe77e6c>
     924:	0b390b3b 	bleq	e43618 <__bss_end__+0xe38b50>
     928:	18021349 	stmdane	r2, {r0, r3, r6, r8, r9, ip}
     92c:	34110000 	ldrcc	r0, [r1], #-0
     930:	3a0e0300 	bcc	381538 <__bss_end__+0x376a70>
     934:	390b3b0b 	stmdbcc	fp, {r0, r1, r3, r8, r9, fp, ip, sp}
     938:	0213490b 	andseq	r4, r3, #180224	; 0x2c000
     93c:	12000018 	andne	r0, r0, #24, 0
     940:	08030034 	stmdaeq	r3, {r2, r4, r5}
     944:	0b3b0b3a 	bleq	ec3634 <__bss_end__+0xeb8b6c>
     948:	13490b39 	movtne	r0, #39737	; 0x9b39
     94c:	42b71702 	adcsmi	r1, r7, #524288	; 0x80000
     950:	13000017 	movwne	r0, #23
     954:	01018289 	smlabbeq	r1, r9, r2, r8
     958:	13310111 	teqne	r1, #1073741828	; 0x40000004
     95c:	00001301 	andeq	r1, r0, r1, lsl #6
     960:	01828a14 	orreq	r8, r2, r4, lsl sl
     964:	91180200 	tstls	r8, r0, lsl #4
     968:	00001842 	andeq	r1, r0, r2, asr #16
     96c:	01828915 	orreq	r8, r2, r5, lsl r9
     970:	00011101 	andeq	r1, r1, r1, lsl #2
     974:	01011600 	tsteq	r1, r0, lsl #12
     978:	13011349 	movwne	r1, #4937	; 0x1349
     97c:	21170000 	tstcs	r7, r0
     980:	2f134900 	svccs	0x00134900
     984:	18000005 	stmdane	r0, {r0, r2}
     988:	193f002e 	ldmdbne	pc!, {r1, r2, r3, r5}	; <UNPREDICTABLE>
     98c:	0e6e193c 			; <UNDEFINED> instruction: 0x0e6e193c
     990:	0b3a0e03 	bleq	e841a4 <__bss_end__+0xe796dc>
     994:	0b390b3b 	bleq	e43688 <__bss_end__+0xe38bc0>
     998:	01000000 	mrseq	r0, (UNDEF: 0)
     99c:	0e250111 	mcreq	1, 1, r0, cr5, cr1, {0}
     9a0:	0e030b13 	vmoveq.32	d3[0], r0
     9a4:	01110e1b 	tsteq	r1, fp, lsl lr
     9a8:	17100612 			; <UNDEFINED> instruction: 0x17100612
     9ac:	24020000 	strcs	r0, [r2], #-0
     9b0:	3e0b0b00 	vmlacc.f64	d0, d11, d0
     9b4:	0008030b 	andeq	r0, r8, fp, lsl #6
     9b8:	00240300 	eoreq	r0, r4, r0, lsl #6
     9bc:	0b3e0b0b 	bleq	f835f0 <__bss_end__+0xf78b28>
     9c0:	00000e03 	andeq	r0, r0, r3, lsl #28
     9c4:	27011504 	strcs	r1, [r1, -r4, lsl #10]
     9c8:	01134919 	tsteq	r3, r9, lsl r9
     9cc:	05000013 	streq	r0, [r0, #-19]	; 0xffffffed
     9d0:	13490005 	movtne	r0, #36869	; 0x9005
     9d4:	34060000 	strcc	r0, [r6], #-0
     9d8:	3a0e0300 	bcc	3815e0 <__bss_end__+0x376b18>
     9dc:	390b3b0b 	stmdbcc	fp, {r0, r1, r3, r8, r9, fp, ip, sp}
     9e0:	3f13490b 	svccc	0x0013490b
     9e4:	00193c19 	andseq	r3, r9, r9, lsl ip
     9e8:	000f0700 	andeq	r0, pc, r0, lsl #14
     9ec:	13490b0b 	movtne	r0, #39691	; 0x9b0b
     9f0:	26080000 	strcs	r0, [r8], -r0
     9f4:	00134900 	andseq	r4, r3, r0, lsl #18
     9f8:	00340900 	eorseq	r0, r4, r0, lsl #18
     9fc:	0b3a1347 	bleq	e85720 <__bss_end__+0xe7ac58>
     a00:	0b390b3b 	bleq	e436f4 <__bss_end__+0xe38c2c>
     a04:	00001802 	andeq	r1, r0, r2, lsl #16
     a08:	3f012e0a 	svccc	0x00012e0a
     a0c:	3a0e0319 	bcc	381678 <__bss_end__+0x376bb0>
     a10:	390b3b0b 	stmdbcc	fp, {r0, r1, r3, r8, r9, fp, ip, sp}
     a14:	4919270b 	ldmdbmi	r9, {r0, r1, r3, r8, r9, sl, sp}
     a18:	12011113 	andne	r1, r1, #-1073741820	; 0xc0000004
     a1c:	96184006 	ldrls	r4, [r8], -r6
     a20:	00001942 	andeq	r1, r0, r2, asr #18
     a24:	0300050b 	movweq	r0, #1291	; 0x50b
     a28:	3b0b3a08 	blcc	2cf250 <__bss_end__+0x2c4788>
     a2c:	490b390b 	stmdbmi	fp, {r0, r1, r3, r8, fp, ip, sp}
     a30:	b7170213 			; <UNDEFINED> instruction: 0xb7170213
     a34:	00001742 	andeq	r1, r0, r2, asr #14
     a38:	01110100 	tsteq	r1, r0, lsl #2
     a3c:	0b130e25 	bleq	4c42d8 <__bss_end__+0x4b9810>
     a40:	0e1b0e03 	cdpeq	14, 1, cr0, cr11, cr3, {0}
     a44:	06120111 			; <UNDEFINED> instruction: 0x06120111
     a48:	00001710 	andeq	r1, r0, r0, lsl r7
     a4c:	0b002402 	bleq	9a5c <va_printk+0x604>
     a50:	030b3e0b 	movweq	r3, #48651	; 0xbe0b
     a54:	0300000e 	movweq	r0, #14
     a58:	0b0b0024 	bleq	2c0af0 <__bss_end__+0x2b6028>
     a5c:	08030b3e 	stmdaeq	r3, {r1, r2, r3, r4, r5, r8, r9, fp}
     a60:	16040000 	strne	r0, [r4], -r0
     a64:	3a0e0300 	bcc	38166c <__bss_end__+0x376ba4>
     a68:	390b3b0b 	stmdbcc	fp, {r0, r1, r3, r8, r9, fp, ip, sp}
     a6c:	0013490b 	andseq	r4, r3, fp, lsl #18
     a70:	01150500 	tsteq	r5, r0, lsl #10
     a74:	13491927 	movtne	r1, #39207	; 0x9927
     a78:	00001301 	andeq	r1, r0, r1, lsl #6
     a7c:	49000506 	stmdbmi	r0, {r1, r2, r8, sl}
     a80:	07000013 	smladeq	r0, r3, r0, r0
     a84:	0e030034 	mcreq	0, 0, r0, cr3, cr4, {1}
     a88:	0b3b0b3a 	bleq	ec3778 <__bss_end__+0xeb8cb0>
     a8c:	13490b39 	movtne	r0, #39737	; 0x9b39
     a90:	193c193f 	ldmdbne	ip!, {r0, r1, r2, r3, r4, r5, r8, fp, ip}
     a94:	0f080000 	svceq	0x00080000
     a98:	490b0b00 	stmdbmi	fp, {r8, r9, fp}
     a9c:	09000013 	stmdbeq	r0, {r0, r1, r4}
     aa0:	13490026 	movtne	r0, #36902	; 0x9026
     aa4:	130a0000 	movwne	r0, #40960	; 0xa000
     aa8:	0b0e0301 	bleq	3816b4 <__bss_end__+0x376bec>
     aac:	3b0b3a0b 	blcc	2cf2e0 <__bss_end__+0x2c4818>
     ab0:	0013010b 	andseq	r0, r3, fp, lsl #2
     ab4:	000d0b00 	andeq	r0, sp, r0, lsl #22
     ab8:	13490e03 	movtne	r0, #40451	; 0x9e03
     abc:	19340b38 	ldmdbne	r4!, {r3, r4, r5, r8, r9, fp}
     ac0:	0f0c0000 	svceq	0x000c0000
     ac4:	000b0b00 	andeq	r0, fp, r0, lsl #22
     ac8:	012e0d00 			; <UNDEFINED> instruction: 0x012e0d00
     acc:	0e03193f 			; <UNDEFINED> instruction: 0x0e03193f
     ad0:	0b3b0b3a 	bleq	ec37c0 <__bss_end__+0xeb8cf8>
     ad4:	19270b39 	stmdbne	r7!, {r0, r3, r4, r5, r8, r9, fp}
     ad8:	01111349 	tsteq	r1, r9, asr #6
     adc:	18400612 	stmdane	r0, {r1, r4, r9, sl}^
     ae0:	01194297 			; <UNDEFINED> instruction: 0x01194297
     ae4:	0e000013 	mcreq	0, 0, r0, cr0, cr3, {0}
     ae8:	08030005 	stmdaeq	r3, {r0, r2}
     aec:	0b3b0b3a 	bleq	ec37dc <__bss_end__+0xeb8d14>
     af0:	13490b39 	movtne	r0, #39737	; 0x9b39
     af4:	42b71702 	adcsmi	r1, r7, #524288	; 0x80000
     af8:	0f000017 	svceq	0x00000017
     afc:	0e030005 	cdpeq	0, 0, cr0, cr3, cr5, {0}
     b00:	0b3b0b3a 	bleq	ec37f0 <__bss_end__+0xeb8d28>
     b04:	13490b39 	movtne	r0, #39737	; 0x9b39
     b08:	42b71702 	adcsmi	r1, r7, #524288	; 0x80000
     b0c:	10000017 	andne	r0, r0, r7, lsl r0
     b10:	08030034 	stmdaeq	r3, {r2, r4, r5}
     b14:	0b3b0b3a 	bleq	ec3804 <__bss_end__+0xeb8d3c>
     b18:	13490b39 	movtne	r0, #39737	; 0x9b39
     b1c:	42b71702 	adcsmi	r1, r7, #524288	; 0x80000
     b20:	11000017 	tstne	r0, r7, lsl r0
     b24:	0e030034 	mcreq	0, 0, r0, cr3, cr4, {1}
     b28:	0b3b0b3a 	bleq	ec3818 <__bss_end__+0xeb8d50>
     b2c:	13490b39 	movtne	r0, #39737	; 0x9b39
     b30:	42b71702 	adcsmi	r1, r7, #524288	; 0x80000
     b34:	12000017 	andne	r0, r0, #23, 0
     b38:	0e030034 	mcreq	0, 0, r0, cr3, cr4, {1}
     b3c:	19341349 	ldmdbne	r4!, {r0, r3, r6, r8, r9, ip}
     b40:	00001802 	andeq	r1, r0, r2, lsl #16
     b44:	55010b13 	strpl	r0, [r1, #-2835]	; 0xfffff4ed
     b48:	14000017 	strne	r0, [r0], #-23	; 0xffffffe9
     b4c:	08030034 	stmdaeq	r3, {r2, r4, r5}
     b50:	0b3b0b3a 	bleq	ec3840 <__bss_end__+0xeb8d78>
     b54:	13490b39 	movtne	r0, #39737	; 0x9b39
     b58:	00001802 	andeq	r1, r0, r2, lsl #16
     b5c:	03003415 	movweq	r3, #1045	; 0x415
     b60:	3b0b3a0e 	blcc	2cf3a0 <__bss_end__+0x2c48d8>
     b64:	490b390b 	stmdbmi	fp, {r0, r1, r3, r8, fp, ip, sp}
     b68:	00180213 	andseq	r0, r8, r3, lsl r2
     b6c:	010b1600 	tsteq	fp, r0, lsl #12
     b70:	13011755 	movwne	r1, #5973	; 0x1755
     b74:	89170000 	ldmdbhi	r7, {}	; <UNPREDICTABLE>
     b78:	11010182 	smlabbne	r1, r2, r1, r0
     b7c:	01133101 	tsteq	r3, r1, lsl #2
     b80:	18000013 	stmdane	r0, {r0, r1, r4}
     b84:	0001828a 	andeq	r8, r1, sl, lsl #5
     b88:	42911802 	addsmi	r1, r1, #131072	; 0x20000
     b8c:	19000018 	stmdbne	r0, {r3, r4}
     b90:	00018289 	andeq	r8, r1, r9, lsl #5
     b94:	13310111 	teqne	r1, #1073741828	; 0x40000004
     b98:	1d1a0000 	ldcne	0, cr0, [sl, #-0]
     b9c:	52133101 	andspl	r3, r3, #1073741824	; 0x40000000
     ba0:	0542b801 	strbeq	fp, [r2, #-2049]	; 0xfffff7ff
     ba4:	0b581755 	bleq	1606900 <__bss_end__+0x15fbe38>
     ba8:	0b570b59 	bleq	15c3914 <__bss_end__+0x15b8e4c>
     bac:	00001301 	andeq	r1, r0, r1, lsl #6
     bb0:	3100051b 	tstcc	r0, fp, lsl r5
     bb4:	b7170213 			; <UNDEFINED> instruction: 0xb7170213
     bb8:	00001742 	andeq	r1, r0, r2, asr #14
     bbc:	3100051c 	tstcc	r0, ip, lsl r5
     bc0:	1d000013 	stcne	0, cr0, [r0, #-76]	; 0xffffffb4
     bc4:	13310034 	teqne	r1, #52, 0	; 0x34
     bc8:	00001802 	andeq	r1, r0, r2, lsl #16
     bcc:	3100341e 	tstcc	r0, lr, lsl r4
     bd0:	b7170213 			; <UNDEFINED> instruction: 0xb7170213
     bd4:	00001742 	andeq	r1, r0, r2, asr #14
     bd8:	3100341f 	tstcc	r0, pc, lsl r4
     bdc:	20000013 	andcs	r0, r0, r3, lsl r0
     be0:	1331011d 	teqne	r1, #1073741831	; 0x40000007
     be4:	42b80152 	adcsmi	r0, r8, #-2147483628	; 0x80000014
     be8:	58175505 	ldmdapl	r7, {r0, r2, r8, sl, ip, lr}
     bec:	570b590b 	strpl	r5, [fp, -fp, lsl #18]
     bf0:	2100000b 	tstcs	r0, fp
     bf4:	01018289 	smlabbeq	r1, r9, r2, r8
     bf8:	13010111 	movwne	r0, #4369	; 0x1111
     bfc:	01220000 			; <UNDEFINED> instruction: 0x01220000
     c00:	01134901 	tsteq	r3, r1, lsl #18
     c04:	23000013 	movwcs	r0, #19
     c08:	13490021 	movtne	r0, #36897	; 0x9021
     c0c:	00000b2f 	andeq	r0, r0, pc, lsr #22
     c10:	03012e24 	movweq	r2, #7716	; 0x1e24
     c14:	3b0b3a0e 	blcc	2cf454 <__bss_end__+0x2c498c>
     c18:	270b390b 	strcs	r3, [fp, -fp, lsl #18]
     c1c:	20134919 	andscs	r4, r3, r9, lsl r9
     c20:	0013010b 	andseq	r0, r3, fp, lsl #2
     c24:	00052500 	andeq	r2, r5, r0, lsl #10
     c28:	0b3a0e03 	bleq	e8443c <__bss_end__+0xe79974>
     c2c:	0b390b3b 	bleq	e43920 <__bss_end__+0xe38e58>
     c30:	00001349 	andeq	r1, r0, r9, asr #6
     c34:	03000526 	movweq	r0, #1318	; 0x526
     c38:	3b0b3a08 	blcc	2cf460 <__bss_end__+0x2c4998>
     c3c:	490b390b 	stmdbmi	fp, {r0, r1, r3, r8, fp, ip, sp}
     c40:	27000013 	smladcs	r0, r3, r0, r0
     c44:	08030034 	stmdaeq	r3, {r2, r4, r5}
     c48:	0b3b0b3a 	bleq	ec3938 <__bss_end__+0xeb8e70>
     c4c:	13490b39 	movtne	r0, #39737	; 0x9b39
     c50:	0b280000 	bleq	a00c58 <__bss_end__+0x9f6190>
     c54:	29000001 	stmdbcs	r0, {r0}
     c58:	0e030034 	mcreq	0, 0, r0, cr3, cr4, {1}
     c5c:	0b3b0b3a 	bleq	ec394c <__bss_end__+0xeb8e84>
     c60:	13490b39 	movtne	r0, #39737	; 0x9b39
     c64:	2e2a0000 	cdpcs	0, 2, cr0, cr10, cr0, {0}
     c68:	3a080301 	bcc	201874 <__bss_end__+0x1f6dac>
     c6c:	390b3b0b 	stmdbcc	fp, {r0, r1, r3, r8, r9, fp, ip, sp}
     c70:	4919270b 	ldmdbmi	r9, {r0, r1, r3, r8, r9, sl, sp}
     c74:	010b2013 	tsteq	fp, r3, lsl r0
     c78:	2b000013 	blcs	ccc <__code_start__-0x7334>
     c7c:	193f012e 	ldmdbne	pc!, {r1, r2, r3, r5, r8}	; <UNPREDICTABLE>
     c80:	0b3a0e03 	bleq	e84494 <__bss_end__+0xe799cc>
     c84:	0b390b3b 	bleq	e43978 <__bss_end__+0xe38eb0>
     c88:	01111927 	tsteq	r1, r7, lsr #18
     c8c:	18400612 	stmdane	r0, {r1, r4, r9, sl}^
     c90:	01194297 			; <UNDEFINED> instruction: 0x01194297
     c94:	2c000013 	stccs	0, cr0, [r0], {19}
     c98:	1331012e 	teqne	r1, #-2147483637	; 0x8000000b
     c9c:	06120111 			; <UNDEFINED> instruction: 0x06120111
     ca0:	42971840 	addsmi	r1, r7, #64, 16	; 0x400000
     ca4:	00130119 	andseq	r0, r3, r9, lsl r1
     ca8:	00052d00 	andeq	r2, r5, r0, lsl #26
     cac:	18021331 	stmdane	r2, {r0, r4, r5, r8, r9, ip}
     cb0:	052e0000 	streq	r0, [lr, #-0]!
     cb4:	1c133100 	ldfnes	f3, [r3], {-0}
     cb8:	2f00000b 	svccs	0x0000000b
     cbc:	1331010b 	teqne	r1, #-1073741822	; 0xc0000002
     cc0:	06120111 			; <UNDEFINED> instruction: 0x06120111
     cc4:	00001301 	andeq	r1, r0, r1, lsl #6
     cc8:	3f002e30 	svccc	0x00002e30
     ccc:	6e193c19 	mrcvs	12, 0, r3, cr9, cr9, {0}
     cd0:	3a0e030e 	bcc	381910 <__bss_end__+0x376e48>
     cd4:	390b3b0b 	stmdbcc	fp, {r0, r1, r3, r8, r9, fp, ip, sp}
     cd8:	0000000b 	andeq	r0, r0, fp
     cdc:	25011101 	strcs	r1, [r1, #-257]	; 0xfffffeff
     ce0:	030b130e 	movweq	r1, #45838	; 0xb30e
     ce4:	110e1b0e 	tstne	lr, lr, lsl #22
     ce8:	10061201 	andne	r1, r6, r1, lsl #4
     cec:	02000017 	andeq	r0, r0, #23, 0
     cf0:	0b0b0024 	bleq	2c0d88 <__bss_end__+0x2b62c0>
     cf4:	08030b3e 	stmdaeq	r3, {r1, r2, r3, r4, r5, r8, r9, fp}
     cf8:	24030000 	strcs	r0, [r3], #-0
     cfc:	3e0b0b00 	vmlacc.f64	d0, d11, d0
     d00:	000e030b 	andeq	r0, lr, fp, lsl #6
     d04:	01150400 	tsteq	r5, r0, lsl #8
     d08:	13491927 	movtne	r1, #39207	; 0x9927
     d0c:	00001301 	andeq	r1, r0, r1, lsl #6
     d10:	49000505 	stmdbmi	r0, {r0, r2, r8, sl}
     d14:	06000013 			; <UNDEFINED> instruction: 0x06000013
     d18:	0e030034 	mcreq	0, 0, r0, cr3, cr4, {1}
     d1c:	0b3b0b3a 	bleq	ec3a0c <__bss_end__+0xeb8f44>
     d20:	13490b39 	movtne	r0, #39737	; 0x9b39
     d24:	193c193f 	ldmdbne	ip!, {r0, r1, r2, r3, r4, r5, r8, fp, ip}
     d28:	0f070000 	svceq	0x00070000
     d2c:	490b0b00 	stmdbmi	fp, {r8, r9, fp}
     d30:	08000013 	stmdaeq	r0, {r0, r1, r4}
     d34:	13490026 	movtne	r0, #36902	; 0x9026
     d38:	2e090000 	cdpcs	0, 0, cr0, cr9, cr0, {0}
     d3c:	03193f01 	tsteq	r9, #1, 30
     d40:	3b0b3a0e 	blcc	2cf580 <__bss_end__+0x2c4ab8>
     d44:	270b390b 	strcs	r3, [fp, -fp, lsl #18]
     d48:	19018719 	stmdbne	r1, {r0, r3, r4, r8, r9, sl, pc}
     d4c:	06120111 			; <UNDEFINED> instruction: 0x06120111
     d50:	42971840 	addsmi	r1, r7, #64, 16	; 0x400000
     d54:	00130119 	andseq	r0, r3, r9, lsl r1
     d58:	82890a00 	addhi	r0, r9, #0, 20
     d5c:	01110101 	tsteq	r1, r1, lsl #2
     d60:	00001301 	andeq	r1, r0, r1, lsl #6
     d64:	01828a0b 	orreq	r8, r2, fp, lsl #20
     d68:	91180200 	tstls	r8, r0, lsl #4
     d6c:	00001842 	andeq	r1, r0, r2, asr #16
     d70:	0182890c 	orreq	r8, r2, ip, lsl #18
     d74:	31011100 	mrscc	r1, (UNDEF: 17)
     d78:	0d000013 	stceq	0, cr0, [r0, #-76]	; 0xffffffb4
     d7c:	01018289 	smlabbeq	r1, r9, r2, r8
     d80:	13310111 	teqne	r1, #1073741828	; 0x40000004
     d84:	00001301 	andeq	r1, r0, r1, lsl #6
     d88:	3f002e0e 	svccc	0x00002e0e
     d8c:	6e193c19 	mrcvs	12, 0, r3, cr9, cr9, {0}
     d90:	3a0e030e 	bcc	3819d0 <__bss_end__+0x376f08>
     d94:	390b3b0b 	stmdbcc	fp, {r0, r1, r3, r8, r9, fp, ip, sp}
     d98:	0000000b 	andeq	r0, r0, fp
     d9c:	25011101 	strcs	r1, [r1, #-257]	; 0xfffffeff
     da0:	030b130e 	movweq	r1, #45838	; 0xb30e
     da4:	110e1b0e 	tstne	lr, lr, lsl #22
     da8:	10061201 	andne	r1, r6, r1, lsl #4
     dac:	02000017 	andeq	r0, r0, #23, 0
     db0:	0b0b0024 	bleq	2c0e48 <__bss_end__+0x2b6380>
     db4:	08030b3e 	stmdaeq	r3, {r1, r2, r3, r4, r5, r8, r9, fp}
     db8:	24030000 	strcs	r0, [r3], #-0
     dbc:	3e0b0b00 	vmlacc.f64	d0, d11, d0
     dc0:	000e030b 	andeq	r0, lr, fp, lsl #6
     dc4:	01150400 	tsteq	r5, r0, lsl #8
     dc8:	13491927 	movtne	r1, #39207	; 0x9927
     dcc:	00001301 	andeq	r1, r0, r1, lsl #6
     dd0:	49000505 	stmdbmi	r0, {r0, r2, r8, sl}
     dd4:	06000013 			; <UNDEFINED> instruction: 0x06000013
     dd8:	0e030034 	mcreq	0, 0, r0, cr3, cr4, {1}
     ddc:	0b3b0b3a 	bleq	ec3acc <__bss_end__+0xeb9004>
     de0:	13490b39 	movtne	r0, #39737	; 0x9b39
     de4:	193c193f 	ldmdbne	ip!, {r0, r1, r2, r3, r4, r5, r8, fp, ip}
     de8:	0f070000 	svceq	0x00070000
     dec:	490b0b00 	stmdbmi	fp, {r8, r9, fp}
     df0:	08000013 	stmdaeq	r0, {r0, r1, r4}
     df4:	13490026 	movtne	r0, #36902	; 0x9026
     df8:	2e090000 	cdpcs	0, 0, cr0, cr9, cr0, {0}
     dfc:	03193f01 	tsteq	r9, #1, 30
     e00:	3b0b3a0e 	blcc	2cf640 <__bss_end__+0x2c4b78>
     e04:	110b390b 	tstne	fp, fp, lsl #18
     e08:	40061201 	andmi	r1, r6, r1, lsl #4
     e0c:	19429718 	stmdbne	r2, {r3, r4, r8, r9, sl, ip, pc}^
     e10:	00001301 	andeq	r1, r0, r1, lsl #6
     e14:	3f002e0a 	svccc	0x00002e0a
     e18:	3a0e0319 	bcc	381a84 <__bss_end__+0x376fbc>
     e1c:	390b3b0b 	stmdbcc	fp, {r0, r1, r3, r8, r9, fp, ip, sp}
     e20:	3c19270b 	ldccc	7, cr2, [r9], {11}
     e24:	0b000019 	bleq	e90 <__code_start__-0x7170>
     e28:	08030034 	stmdaeq	r3, {r2, r4, r5}
     e2c:	0b3b0b3a 	bleq	ec3b1c <__bss_end__+0xeb9054>
     e30:	13490b39 	movtne	r0, #39737	; 0x9b39
     e34:	42b71702 	adcsmi	r1, r7, #524288	; 0x80000
     e38:	0c000017 	stceq	0, cr0, [r0], {23}
     e3c:	0e030034 	mcreq	0, 0, r0, cr3, cr4, {1}
     e40:	0b3b0b3a 	bleq	ec3b30 <__bss_end__+0xeb9068>
     e44:	13490b39 	movtne	r0, #39737	; 0x9b39
     e48:	340d0000 	strcc	r0, [sp], #-0
     e4c:	3a0e0300 	bcc	381a54 <__bss_end__+0x376f8c>
     e50:	390b3b0b 	stmdbcc	fp, {r0, r1, r3, r8, r9, fp, ip, sp}
     e54:	0213490b 	andseq	r4, r3, #180224	; 0x2c000
     e58:	1742b717 	smlaldne	fp, r2, r7, r7
     e5c:	0b0e0000 	bleq	380e64 <__bss_end__+0x37639c>
     e60:	12011101 	andne	r1, r1, #1073741824	; 0x40000000
     e64:	00130106 	andseq	r0, r3, r6, lsl #2
     e68:	011d0f00 	tsteq	sp, r0, lsl #30
     e6c:	01521331 	cmpeq	r2, r1, lsr r3
     e70:	110b42b8 			; <UNDEFINED> instruction: 0x110b42b8
     e74:	58061201 	stmdapl	r6, {r0, r9, ip}
     e78:	570b590b 	strpl	r5, [fp, -fp, lsl #18]
     e7c:	0013010b 	andseq	r0, r3, fp, lsl #2
     e80:	00341000 	eorseq	r1, r4, r0
     e84:	17021331 	smladxne	r2, r1, r3, r1
     e88:	001742b7 			; <UNDEFINED> instruction: 0x001742b7
     e8c:	010b1100 	mrseq	r1, (UNDEF: 27)
     e90:	01111331 	tsteq	r1, r1, lsr r3
     e94:	00000612 	andeq	r0, r0, r2, lsl r6
     e98:	31011d12 	tstcc	r1, r2, lsl sp
     e9c:	b8015213 	stmdalt	r1, {r0, r1, r4, r9, ip, lr}
     ea0:	17550b42 	ldrbne	r0, [r5, -r2, asr #22]
     ea4:	0b590b58 	bleq	1643c0c <__bss_end__+0x1639144>
     ea8:	13010b57 	movwne	r0, #6999	; 0x1b57
     eac:	0b130000 	bleq	4c0eb4 <__bss_end__+0x4b63ec>
     eb0:	00175501 	andseq	r5, r7, r1, lsl #10
     eb4:	82891400 	addhi	r1, r9, #0, 8
     eb8:	01110001 	tsteq	r1, r1
     ebc:	00001331 	andeq	r1, r0, r1, lsr r3
     ec0:	01828915 	orreq	r8, r2, r5, lsl r9
     ec4:	31011101 	tstcc	r1, r1, lsl #2
     ec8:	00130113 	andseq	r0, r3, r3, lsl r1
     ecc:	828a1600 	addhi	r1, sl, #0, 12
     ed0:	18020001 	stmdane	r2, {r0}
     ed4:	00184291 	mulseq	r8, r1, r2
     ed8:	012e1700 			; <UNDEFINED> instruction: 0x012e1700
     edc:	0b3a0e03 	bleq	e846f0 <__bss_end__+0xe79c28>
     ee0:	0b390b3b 	bleq	e43bd4 <__bss_end__+0xe3910c>
     ee4:	13491927 	movtne	r1, #39207	; 0x9927
     ee8:	13010b20 	movwne	r0, #6944	; 0x1b20
     eec:	34180000 	ldrcc	r0, [r8], #-0
     ef0:	3a0e0300 	bcc	381af8 <__bss_end__+0x377030>
     ef4:	390b3b0b 	stmdbcc	fp, {r0, r1, r3, r8, r9, fp, ip, sp}
     ef8:	0213490b 	andseq	r4, r3, #180224	; 0x2c000
     efc:	19000018 	stmdbne	r0, {r3, r4}
     f00:	08030034 	stmdaeq	r3, {r2, r4, r5}
     f04:	0b3b0b3a 	bleq	ec3bf4 <__bss_end__+0xeb912c>
     f08:	13490b39 	movtne	r0, #39737	; 0x9b39
     f0c:	0b1a0000 	bleq	680f14 <__bss_end__+0x67644c>
     f10:	1b000001 	blne	f1c <__code_start__-0x70e4>
     f14:	193f002e 	ldmdbne	pc!, {r1, r2, r3, r5}	; <UNPREDICTABLE>
     f18:	0e6e193c 			; <UNDEFINED> instruction: 0x0e6e193c
     f1c:	0b3a0e03 	bleq	e84730 <__bss_end__+0xe79c68>
     f20:	0b39053b 	bleq	e42414 <__bss_end__+0xe3794c>
     f24:	2e1c0000 	cdpcs	0, 1, cr0, cr12, cr0, {0}
     f28:	3c193f00 	ldccc	15, cr3, [r9], {-0}
     f2c:	030e6e19 	movweq	r6, #60953	; 0xee19
     f30:	3b0b3a0e 	blcc	2cf770 <__bss_end__+0x2c4ca8>
     f34:	000b390b 	andeq	r3, fp, fp, lsl #18
     f38:	11010000 	mrsne	r0, (UNDEF: 1)
     f3c:	130e2501 	movwne	r2, #58625	; 0xe501
     f40:	1b0e030b 	blne	381b74 <__bss_end__+0x3770ac>
     f44:	1201110e 	andne	r1, r1, #-2147483645	; 0x80000003
     f48:	00171006 	andseq	r1, r7, r6
     f4c:	00240200 	eoreq	r0, r4, r0, lsl #4
     f50:	0b3e0b0b 	bleq	f83b84 <__bss_end__+0xf790bc>
     f54:	00000803 	andeq	r0, r0, r3, lsl #16
     f58:	0b002403 	bleq	9f6c <uart_disable+0x4>
     f5c:	030b3e0b 	movweq	r3, #48651	; 0xbe0b
     f60:	0400000e 	streq	r0, [r0], #-14
     f64:	19270115 	stmdbne	r7!, {r0, r2, r4, r8}
     f68:	13011349 	movwne	r1, #4937	; 0x1349
     f6c:	05050000 	streq	r0, [r5, #-0]
     f70:	00134900 	andseq	r4, r3, r0, lsl #18
     f74:	00340600 	eorseq	r0, r4, r0, lsl #12
     f78:	0b3a0e03 	bleq	e8478c <__bss_end__+0xe79cc4>
     f7c:	0b390b3b 	bleq	e43c70 <__bss_end__+0xe391a8>
     f80:	193f1349 	ldmdbne	pc!, {r0, r3, r6, r8, r9, ip}	; <UNPREDICTABLE>
     f84:	0000193c 	andeq	r1, r0, ip, lsr r9
     f88:	0b000f07 	bleq	4bac <__code_start__-0x3454>
     f8c:	0013490b 	andseq	r4, r3, fp, lsl #18
     f90:	00260800 	eoreq	r0, r6, r0, lsl #16
     f94:	00001349 	andeq	r1, r0, r9, asr #6
     f98:	3f002e09 	svccc	0x00002e09
     f9c:	3a0e0319 	bcc	381c08 <__bss_end__+0x377140>
     fa0:	390b3b0b 	stmdbcc	fp, {r0, r1, r3, r8, r9, fp, ip, sp}
     fa4:	1119270b 	tstne	r9, fp, lsl #14
     fa8:	40061201 	andmi	r1, r6, r1, lsl #4
     fac:	19429718 	stmdbne	r2, {r3, r4, r8, r9, sl, ip, pc}^
     fb0:	01000000 	mrseq	r0, (UNDEF: 0)
     fb4:	0e250111 	mcreq	1, 1, r0, cr5, cr1, {0}
     fb8:	0e030b13 	vmoveq.32	d3[0], r0
     fbc:	17550e1b 	smmlane	r5, fp, lr, r0
     fc0:	17100111 			; <UNDEFINED> instruction: 0x17100111
     fc4:	24020000 	strcs	r0, [r2], #-0
     fc8:	3e0b0b00 	vmlacc.f64	d0, d11, d0
     fcc:	0008030b 	andeq	r0, r8, fp, lsl #6
     fd0:	00260300 	eoreq	r0, r6, r0, lsl #6
     fd4:	00001349 	andeq	r1, r0, r9, asr #6
     fd8:	0b002404 	bleq	9ff0 <strcat+0x28>
     fdc:	030b3e0b 	movweq	r3, #48651	; 0xbe0b
     fe0:	0500000e 	streq	r0, [r0, #-14]
     fe4:	19270115 	stmdbne	r7!, {r0, r2, r4, r8}
     fe8:	13011349 	movwne	r1, #4937	; 0x1349
     fec:	05060000 	streq	r0, [r6, #-0]
     ff0:	00134900 	andseq	r4, r3, r0, lsl #18
     ff4:	00340700 	eorseq	r0, r4, r0, lsl #14
     ff8:	0b3a0e03 	bleq	e8480c <__bss_end__+0xe79d44>
     ffc:	0b390b3b 	bleq	e43cf0 <__bss_end__+0xe39228>
    1000:	193f1349 	ldmdbne	pc!, {r0, r3, r6, r8, r9, ip}	; <UNPREDICTABLE>
    1004:	0000193c 	andeq	r1, r0, ip, lsr r9
    1008:	0b000f08 	bleq	4c30 <__code_start__-0x33d0>
    100c:	0013490b 	andseq	r4, r3, fp, lsl #18
    1010:	00340900 	eorseq	r0, r4, r0, lsl #18
    1014:	0b3a0e03 	bleq	e84828 <__bss_end__+0xe79d60>
    1018:	0b390b3b 	bleq	e43d0c <__bss_end__+0xe39244>
    101c:	00001349 	andeq	r1, r0, r9, asr #6
    1020:	3f012e0a 	svccc	0x00012e0a
    1024:	3a0e0319 	bcc	381c90 <__bss_end__+0x3771c8>
    1028:	390b3b0b 	stmdbcc	fp, {r0, r1, r3, r8, r9, fp, ip, sp}
    102c:	8719270b 	ldrhi	r2, [r9, -fp, lsl #14]
    1030:	01111901 	tsteq	r1, r1, lsl #18
    1034:	18400612 	stmdane	r0, {r1, r4, r9, sl}^
    1038:	01194297 			; <UNDEFINED> instruction: 0x01194297
    103c:	0b000013 	bleq	1090 <__code_start__-0x6f70>
    1040:	0e030034 	mcreq	0, 0, r0, cr3, cr4, {1}
    1044:	0b3b0b3a 	bleq	ec3d34 <__bss_end__+0xeb926c>
    1048:	13490b39 	movtne	r0, #39737	; 0x9b39
    104c:	0000061c 	andeq	r0, r0, ip, lsl r6
    1050:	0300340c 	movweq	r3, #1036	; 0x40c
    1054:	3b0b3a0e 	blcc	2cf894 <__bss_end__+0x2c4dcc>
    1058:	490b390b 	stmdbmi	fp, {r0, r1, r3, r8, fp, ip, sp}
    105c:	000b1c13 	andeq	r1, fp, r3, lsl ip
    1060:	011d0d00 	tsteq	sp, r0, lsl #26
    1064:	01521331 	cmpeq	r2, r1, lsr r3
    1068:	550b42b8 	strpl	r4, [fp, #-696]	; 0xfffffd48
    106c:	590b5817 	stmdbpl	fp, {r0, r1, r2, r4, fp, ip, lr}
    1070:	010b570b 	tsteq	fp, fp, lsl #14
    1074:	0e000013 	mcreq	0, 0, r0, cr0, cr3, {0}
    1078:	1755010b 	ldrbne	r0, [r5, -fp, lsl #2]
    107c:	340f0000 	strcc	r0, [pc], #-0	; 1084 <__code_start__-0x6f7c>
    1080:	02133100 	andseq	r3, r3, #0
    1084:	1742b717 	smlaldne	fp, r2, r7, r7
    1088:	1d100000 	ldcne	0, cr0, [r0, #-0]
    108c:	52133101 	andspl	r3, r3, #1073741824	; 0x40000000
    1090:	0b42b801 	bleq	10af09c <__bss_end__+0x10a45d4>
    1094:	06120111 			; <UNDEFINED> instruction: 0x06120111
    1098:	0b590b58 	bleq	1643e00 <__bss_end__+0x1639338>
    109c:	13010b57 	movwne	r0, #6999	; 0x1b57
    10a0:	89110000 	ldmdbhi	r1, {}	; <UNPREDICTABLE>
    10a4:	11000182 	smlabbne	r0, r2, r1, r0
    10a8:	00133101 	andseq	r3, r3, r1, lsl #2
    10ac:	82891200 	addhi	r1, r9, #0, 4
    10b0:	01110101 	tsteq	r1, r1, lsl #2
    10b4:	13011331 	movwne	r1, #4913	; 0x1331
    10b8:	8a130000 	bhi	4c10c0 <__bss_end__+0x4b65f8>
    10bc:	02000182 	andeq	r0, r0, #-2147483616	; 0x80000020
    10c0:	18429118 	stmdane	r2, {r3, r4, r8, ip, pc}^
    10c4:	89140000 	ldmdbhi	r4, {}	; <UNPREDICTABLE>
    10c8:	11010182 	smlabbne	r1, r2, r1, r0
    10cc:	00133101 	andseq	r3, r3, r1, lsl #2
    10d0:	012e1500 			; <UNDEFINED> instruction: 0x012e1500
    10d4:	0e03193f 			; <UNDEFINED> instruction: 0x0e03193f
    10d8:	0b3b0b3a 	bleq	ec3dc8 <__bss_end__+0xeb9300>
    10dc:	19270b39 	stmdbne	r7!, {r0, r3, r4, r5, r8, r9, fp}
    10e0:	13010b20 	movwne	r0, #6944	; 0x1b20
    10e4:	2e160000 	cdpcs	0, 1, cr0, cr6, cr0, {0}
    10e8:	03193f01 	tsteq	r9, #1, 30
    10ec:	3b0b3a0e 	blcc	2cf92c <__bss_end__+0x2c4e64>
    10f0:	270b390b 	strcs	r3, [fp, -fp, lsl #18]
    10f4:	20134919 	andscs	r4, r3, r9, lsl r9
    10f8:	0013010b 	andseq	r0, r3, fp, lsl #2
    10fc:	012e1700 			; <UNDEFINED> instruction: 0x012e1700
    1100:	01111331 	tsteq	r1, r1, lsr r3
    1104:	18400612 	stmdane	r0, {r1, r4, r9, sl}^
    1108:	01194297 			; <UNDEFINED> instruction: 0x01194297
    110c:	18000013 	stmdane	r0, {r0, r1, r4}
    1110:	193f002e 	ldmdbne	pc!, {r1, r2, r3, r5}	; <UNPREDICTABLE>
    1114:	0e6e193c 			; <UNDEFINED> instruction: 0x0e6e193c
    1118:	0b3a0e03 	bleq	e8492c <__bss_end__+0xe79e64>
    111c:	0b39053b 	bleq	e42610 <__bss_end__+0xe37b48>
    1120:	2e190000 	cdpcs	0, 1, cr0, cr9, cr0, {0}
    1124:	3c193f00 	ldccc	15, cr3, [r9], {-0}
    1128:	030e6e19 	movweq	r6, #60953	; 0xee19
    112c:	3b0b3a0e 	blcc	2cf96c <__bss_end__+0x2c4ea4>
    1130:	000b390b 	andeq	r3, fp, fp, lsl #18
    1134:	11010000 	mrsne	r0, (UNDEF: 1)
    1138:	130e2501 	movwne	r2, #58625	; 0xe501
    113c:	1b0e030b 	blne	381d70 <__bss_end__+0x3772a8>
    1140:	1201110e 	andne	r1, r1, #-2147483645	; 0x80000003
    1144:	00171006 	andseq	r1, r7, r6
    1148:	00240200 	eoreq	r0, r4, r0, lsl #4
    114c:	0b3e0b0b 	bleq	f83d80 <__bss_end__+0xf792b8>
    1150:	00000803 	andeq	r0, r0, r3, lsl #16
    1154:	0b002403 	bleq	a168 <__code_end__+0xe4>
    1158:	030b3e0b 	movweq	r3, #48651	; 0xbe0b
    115c:	0400000e 	streq	r0, [r0], #-14
    1160:	19270115 	stmdbne	r7!, {r0, r2, r4, r8}
    1164:	13011349 	movwne	r1, #4937	; 0x1349
    1168:	05050000 	streq	r0, [r5, #-0]
    116c:	00134900 	andseq	r4, r3, r0, lsl #18
    1170:	00340600 	eorseq	r0, r4, r0, lsl #12
    1174:	0b3a0e03 	bleq	e84988 <__bss_end__+0xe79ec0>
    1178:	0b390b3b 	bleq	e43e6c <__bss_end__+0xe393a4>
    117c:	193f1349 	ldmdbne	pc!, {r0, r3, r6, r8, r9, ip}	; <UNPREDICTABLE>
    1180:	0000193c 	andeq	r1, r0, ip, lsr r9
    1184:	0b000f07 	bleq	4da8 <__code_start__-0x3258>
    1188:	0013490b 	andseq	r4, r3, fp, lsl #18
    118c:	00260800 	eoreq	r0, r6, r0, lsl #16
    1190:	00001349 	andeq	r1, r0, r9, asr #6
    1194:	3f012e09 	svccc	0x00012e09
    1198:	3a0e0319 	bcc	381e04 <__bss_end__+0x37733c>
    119c:	390b3b0b 	stmdbcc	fp, {r0, r1, r3, r8, r9, fp, ip, sp}
    11a0:	1119270b 	tstne	r9, fp, lsl #14
    11a4:	40061201 	andmi	r1, r6, r1, lsl #4
    11a8:	19429718 	stmdbne	r2, {r3, r4, r8, r9, sl, ip, pc}^
    11ac:	00001301 	andeq	r1, r0, r1, lsl #6
    11b0:	0300050a 	movweq	r0, #1290	; 0x50a
    11b4:	3b0b3a08 	blcc	2cf9dc <__bss_end__+0x2c4f14>
    11b8:	490b390b 	stmdbmi	fp, {r0, r1, r3, r8, fp, ip, sp}
    11bc:	b7170213 			; <UNDEFINED> instruction: 0xb7170213
    11c0:	00001742 	andeq	r1, r0, r2, asr #14
    11c4:	31011d0b 	tstcc	r1, fp, lsl #26
    11c8:	b8015213 	stmdalt	r1, {r0, r1, r4, r9, ip, lr}
    11cc:	17550b42 	ldrbne	r0, [r5, -r2, asr #22]
    11d0:	0b590b58 	bleq	1643f38 <__bss_end__+0x1639470>
    11d4:	00000b57 	andeq	r0, r0, r7, asr fp
    11d8:	3100050c 	tstcc	r0, ip, lsl #10
    11dc:	b7170213 			; <UNDEFINED> instruction: 0xb7170213
    11e0:	00001742 	andeq	r1, r0, r2, asr #14
    11e4:	31011d0d 	tstcc	r1, sp, lsl #26
    11e8:	b8015213 	stmdalt	r1, {r0, r1, r4, r9, ip, lr}
    11ec:	01110b42 	tsteq	r1, r2, asr #22
    11f0:	0b580612 	bleq	1602a40 <__bss_end__+0x15f7f78>
    11f4:	0b570b59 	bleq	15c3f60 <__bss_end__+0x15b9498>
    11f8:	340e0000 	strcc	r0, [lr], #-0
    11fc:	02133100 	andseq	r3, r3, #0
    1200:	1742b717 	smlaldne	fp, r2, r7, r7
    1204:	1d0f0000 	stcne	0, cr0, [pc, #-0]	; 120c <__code_start__-0x6df4>
    1208:	52133101 	andspl	r3, r3, #1073741824	; 0x40000000
    120c:	0b42b801 	bleq	10af218 <__bss_end__+0x10a4750>
    1210:	06120111 			; <UNDEFINED> instruction: 0x06120111
    1214:	0b590b58 	bleq	1643f7c <__bss_end__+0x16394b4>
    1218:	13010b57 	movwne	r0, #6999	; 0x1b57
    121c:	89100000 	ldmdbhi	r0, {}	; <UNPREDICTABLE>
    1220:	11010182 	smlabbne	r1, r2, r1, r0
    1224:	00133101 	andseq	r3, r3, r1, lsl #2
    1228:	828a1100 	addhi	r1, sl, #0
    122c:	18020001 	stmdane	r2, {r0}
    1230:	00184291 	mulseq	r8, r1, r2
    1234:	82891200 	addhi	r1, r9, #0, 4
    1238:	01110001 	tsteq	r1, r1
    123c:	00001331 	andeq	r1, r0, r1, lsr r3
    1240:	31010b13 	tstcc	r1, r3, lsl fp
    1244:	00175513 	andseq	r5, r7, r3, lsl r5
    1248:	00341400 	eorseq	r1, r4, r0, lsl #8
    124c:	00001331 	andeq	r1, r0, r1, lsr r3
    1250:	55010b15 	strpl	r0, [r1, #-2837]	; 0xfffff4eb
    1254:	16000017 			; <UNDEFINED> instruction: 0x16000017
    1258:	1331011d 	teqne	r1, #1073741831	; 0x40000007
    125c:	42b80152 	adcsmi	r0, r8, #-2147483628	; 0x80000014
    1260:	5817550b 	ldmdapl	r7, {r0, r1, r3, r8, sl, ip, lr}
    1264:	570b590b 	strpl	r5, [fp, -fp, lsl #18]
    1268:	0013010b 	andseq	r0, r3, fp, lsl #2
    126c:	012e1700 			; <UNDEFINED> instruction: 0x012e1700
    1270:	0e03193f 			; <UNDEFINED> instruction: 0x0e03193f
    1274:	0b3b0b3a 	bleq	ec3f64 <__bss_end__+0xeb949c>
    1278:	19270b39 	stmdbne	r7!, {r0, r3, r4, r5, r8, r9, fp}
    127c:	13010b20 	movwne	r0, #6944	; 0x1b20
    1280:	05180000 	ldreq	r0, [r8, #-0]
    1284:	3a080300 	bcc	201e8c <__bss_end__+0x1f73c4>
    1288:	390b3b0b 	stmdbcc	fp, {r0, r1, r3, r8, r9, fp, ip, sp}
    128c:	0013490b 	andseq	r4, r3, fp, lsl #18
    1290:	00341900 	eorseq	r1, r4, r0, lsl #18
    1294:	0b3a0803 	bleq	e832a8 <__bss_end__+0xe787e0>
    1298:	0b390b3b 	bleq	e43f8c <__bss_end__+0xe394c4>
    129c:	00001349 	andeq	r1, r0, r9, asr #6
    12a0:	00010b1a 	andeq	r0, r1, sl, lsl fp
    12a4:	012e1b00 			; <UNDEFINED> instruction: 0x012e1b00
    12a8:	0e03193f 			; <UNDEFINED> instruction: 0x0e03193f
    12ac:	0b3b0b3a 	bleq	ec3f9c <__bss_end__+0xeb94d4>
    12b0:	19270b39 	stmdbne	r7!, {r0, r3, r4, r5, r8, r9, fp}
    12b4:	0b201349 	bleq	805fe0 <__bss_end__+0x7fb518>
    12b8:	00001301 	andeq	r1, r0, r1, lsl #6
    12bc:	3f002e1c 	svccc	0x00002e1c
    12c0:	3a0e0319 	bcc	381f2c <__bss_end__+0x377464>
    12c4:	390b3b0b 	stmdbcc	fp, {r0, r1, r3, r8, r9, fp, ip, sp}
    12c8:	4919270b 	ldmdbmi	r9, {r0, r1, r3, r8, r9, sl, sp}
    12cc:	000b2013 	andeq	r2, fp, r3, lsl r0
    12d0:	012e1d00 			; <UNDEFINED> instruction: 0x012e1d00
    12d4:	01111331 	tsteq	r1, r1, lsr r3
    12d8:	18400612 	stmdane	r0, {r1, r4, r9, sl}^
    12dc:	01194297 			; <UNDEFINED> instruction: 0x01194297
    12e0:	1e000013 	mcrne	0, 0, r0, cr0, cr3, {0}
    12e4:	01018289 	smlabbeq	r1, r9, r2, r8
    12e8:	42950111 	addsmi	r0, r5, #1073741828	; 0x40000004
    12ec:	00133119 	andseq	r3, r3, r9, lsl r1
    12f0:	002e1f00 	eoreq	r1, lr, r0, lsl #30
    12f4:	193c193f 	ldmdbne	ip!, {r0, r1, r2, r3, r4, r5, r8, fp, ip}
    12f8:	0e030e6e 	cdpeq	14, 0, cr0, cr3, cr14, {3}
    12fc:	0b3b0b3a 	bleq	ec3fec <__bss_end__+0xeb9524>
    1300:	00000b39 	andeq	r0, r0, r9, lsr fp
    1304:	01110100 	tsteq	r1, r0, lsl #2
    1308:	0b130e25 	bleq	4c4ba4 <__bss_end__+0x4ba0dc>
    130c:	0e1b0e03 	cdpeq	14, 1, cr0, cr11, cr3, {0}
    1310:	06120111 			; <UNDEFINED> instruction: 0x06120111
    1314:	00001710 	andeq	r1, r0, r0, lsl r7
    1318:	0b002402 	bleq	a328 <__FUNCTION__.4171+0xc4>
    131c:	030b3e0b 	movweq	r3, #48651	; 0xbe0b
    1320:	03000008 	movweq	r0, #8
    1324:	0b0b0024 	bleq	2c13bc <__bss_end__+0x2b68f4>
    1328:	0e030b3e 	vmoveq.16	d3[0], r0
    132c:	35040000 	strcc	r0, [r4, #-0]
    1330:	00134900 	andseq	r4, r3, r0, lsl #18
    1334:	00160500 	andseq	r0, r6, r0, lsl #10
    1338:	0b3a0e03 	bleq	e84b4c <__bss_end__+0xe7a084>
    133c:	0b390b3b 	bleq	e44030 <__bss_end__+0xe39568>
    1340:	00001349 	andeq	r1, r0, r9, asr #6
    1344:	3e010406 	cdpcc	4, 0, cr0, cr1, cr6, {0}
    1348:	490b0b0b 	stmdbmi	fp, {r0, r1, r3, r8, r9, fp}
    134c:	3b0b3a13 	blcc	2cfba0 <__bss_end__+0x2c50d8>
    1350:	010b390b 	tsteq	fp, fp, lsl #18
    1354:	07000013 	smladeq	r0, r3, r0, r0
    1358:	0e030028 	cdpeq	0, 0, cr0, cr3, cr8, {1}
    135c:	00000b1c 	andeq	r0, r0, ip, lsl fp
    1360:	03011308 	movweq	r1, #4872	; 0x1308
    1364:	3a0b0b0e 	bcc	2c3fa4 <__bss_end__+0x2b94dc>
    1368:	390b3b0b 	stmdbcc	fp, {r0, r1, r3, r8, r9, fp, ip, sp}
    136c:	0013010b 	andseq	r0, r3, fp, lsl #2
    1370:	000d0900 	andeq	r0, sp, r0, lsl #18
    1374:	0b3a0803 	bleq	e83388 <__bss_end__+0xe788c0>
    1378:	0b390b3b 	bleq	e4406c <__bss_end__+0xe395a4>
    137c:	0b381349 	bleq	e060a8 <__bss_end__+0xdfb5e0>
    1380:	0d0a0000 	stceq	0, cr0, [sl, #-0]
    1384:	3a0e0300 	bcc	381f8c <__bss_end__+0x3774c4>
    1388:	390b3b0b 	stmdbcc	fp, {r0, r1, r3, r8, r9, fp, ip, sp}
    138c:	3813490b 	ldmdacc	r3, {r0, r1, r3, r8, fp, lr}
    1390:	0b00000b 	bleq	13c4 <__code_start__-0x6c3c>
    1394:	0e030034 	mcreq	0, 0, r0, cr3, cr4, {1}
    1398:	0b3b0b3a 	bleq	ec4088 <__bss_end__+0xeb95c0>
    139c:	13490b39 	movtne	r0, #39737	; 0x9b39
    13a0:	0000061c 	andeq	r0, r0, ip, lsl r6
    13a4:	0b000f0c 	bleq	4fdc <__code_start__-0x3024>
    13a8:	0013490b 	andseq	r4, r3, fp, lsl #18
    13ac:	00260d00 	eoreq	r0, r6, r0, lsl #26
    13b0:	00001349 	andeq	r1, r0, r9, asr #6
    13b4:	3f012e0e 	svccc	0x00012e0e
    13b8:	3a0e0319 	bcc	382024 <__bss_end__+0x37755c>
    13bc:	390b3b0b 	stmdbcc	fp, {r0, r1, r3, r8, r9, fp, ip, sp}
    13c0:	1119270b 	tstne	r9, fp, lsl #14
    13c4:	40061201 	andmi	r1, r6, r1, lsl #4
    13c8:	19429718 	stmdbne	r2, {r3, r4, r8, r9, sl, ip, pc}^
    13cc:	00001301 	andeq	r1, r0, r1, lsl #6
    13d0:	0182890f 	orreq	r8, r2, pc, lsl #18
    13d4:	31011100 	mrscc	r1, (UNDEF: 17)
    13d8:	10000013 	andne	r0, r0, r3, lsl r0
    13dc:	193f012e 	ldmdbne	pc!, {r1, r2, r3, r5, r8}	; <UNPREDICTABLE>
    13e0:	0b3a0e03 	bleq	e84bf4 <__bss_end__+0xe7a12c>
    13e4:	0b390b3b 	bleq	e440d8 <__bss_end__+0xe39610>
    13e8:	13491927 	movtne	r1, #39207	; 0x9927
    13ec:	06120111 			; <UNDEFINED> instruction: 0x06120111
    13f0:	42971840 	addsmi	r1, r7, #64, 16	; 0x400000
    13f4:	00130119 	andseq	r0, r3, r9, lsl r1
    13f8:	82891100 	addhi	r1, r9, #0
    13fc:	01110101 	tsteq	r1, r1, lsl #2
    1400:	00001331 	andeq	r1, r0, r1, lsr r3
    1404:	01828a12 	orreq	r8, r2, r2, lsl sl
    1408:	91180200 	tstls	r8, r0, lsl #4
    140c:	00001842 	andeq	r1, r0, r2, asr #16
    1410:	03000513 	movweq	r0, #1299	; 0x513
    1414:	3b0b3a08 	blcc	2cfc3c <__bss_end__+0x2c5174>
    1418:	490b390b 	stmdbmi	fp, {r0, r1, r3, r8, fp, ip, sp}
    141c:	b7170213 			; <UNDEFINED> instruction: 0xb7170213
    1420:	00001742 	andeq	r1, r0, r2, asr #14
    1424:	01828914 	orreq	r8, r2, r4, lsl r9
    1428:	31011101 	tstcc	r1, r1, lsl #2
    142c:	00130113 	andseq	r0, r3, r3, lsl r1
    1430:	00341500 	eorseq	r1, r4, r0, lsl #10
    1434:	0b3a0803 	bleq	e83448 <__bss_end__+0xe78980>
    1438:	0b390b3b 	bleq	e4412c <__bss_end__+0xe39664>
    143c:	17021349 	strne	r1, [r2, -r9, asr #6]
    1440:	001742b7 			; <UNDEFINED> instruction: 0x001742b7
    1444:	00341600 	eorseq	r1, r4, r0, lsl #12
    1448:	0b3a0e03 	bleq	e84c5c <__bss_end__+0xe7a194>
    144c:	0b390b3b 	bleq	e44140 <__bss_end__+0xe39678>
    1450:	051c1349 	ldreq	r1, [ip, #-841]	; 0xfffffcb7
    1454:	2e170000 	cdpcs	0, 1, cr0, cr7, cr0, {0}
    1458:	3a0e0301 	bcc	382064 <__bss_end__+0x37759c>
    145c:	390b3b0b 	stmdbcc	fp, {r0, r1, r3, r8, r9, fp, ip, sp}
    1460:	1119270b 	tstne	r9, fp, lsl #14
    1464:	40061201 	andmi	r1, r6, r1, lsl #4
    1468:	19429718 	stmdbne	r2, {r3, r4, r8, r9, sl, ip, pc}^
    146c:	00001301 	andeq	r1, r0, r1, lsl #6
    1470:	03000518 	movweq	r0, #1304	; 0x518
    1474:	3b0b3a0e 	blcc	2cfcb4 <__bss_end__+0x2c51ec>
    1478:	490b390b 	stmdbmi	fp, {r0, r1, r3, r8, fp, ip, sp}
    147c:	b7170213 			; <UNDEFINED> instruction: 0xb7170213
    1480:	00001742 	andeq	r1, r0, r2, asr #14
    1484:	00003519 	andeq	r3, r0, r9, lsl r5
    1488:	002e1a00 	eoreq	r1, lr, r0, lsl #20
    148c:	193c193f 	ldmdbne	ip!, {r0, r1, r2, r3, r4, r5, r8, fp, ip}
    1490:	0e030e6e 	cdpeq	14, 0, cr0, cr3, cr14, {3}
    1494:	0b3b0b3a 	bleq	ec4184 <__bss_end__+0xeb96bc>
    1498:	00000b39 	andeq	r0, r0, r9, lsr fp
    149c:	01110100 	tsteq	r1, r0, lsl #2
    14a0:	0b130e25 	bleq	4c4d3c <__bss_end__+0x4ba274>
    14a4:	0e1b0e03 	cdpeq	14, 1, cr0, cr11, cr3, {0}
    14a8:	06120111 			; <UNDEFINED> instruction: 0x06120111
    14ac:	00001710 	andeq	r1, r0, r0, lsl r7
    14b0:	0b002402 	bleq	a4c0 <__FUNCTION__.4178+0x4>
    14b4:	030b3e0b 	movweq	r3, #48651	; 0xbe0b
    14b8:	03000008 	movweq	r0, #8
    14bc:	0b0b0024 	bleq	2c1554 <__bss_end__+0x2b6a8c>
    14c0:	0e030b3e 	vmoveq.16	d3[0], r0
    14c4:	15040000 	strne	r0, [r4, #-0]
    14c8:	49192701 	ldmdbmi	r9, {r0, r8, r9, sl, sp}
    14cc:	00130113 	andseq	r0, r3, r3, lsl r1
    14d0:	00050500 	andeq	r0, r5, r0, lsl #10
    14d4:	00001349 	andeq	r1, r0, r9, asr #6
    14d8:	03003406 	movweq	r3, #1030	; 0x406
    14dc:	3b0b3a0e 	blcc	2cfd1c <__bss_end__+0x2c5254>
    14e0:	490b390b 	stmdbmi	fp, {r0, r1, r3, r8, fp, ip, sp}
    14e4:	3c193f13 	ldccc	15, cr3, [r9], {19}
    14e8:	07000019 	smladeq	r0, r9, r0, r0
    14ec:	0b0b000f 	bleq	2c1530 <__bss_end__+0x2b6a68>
    14f0:	00001349 	andeq	r1, r0, r9, asr #6
    14f4:	49002608 	stmdbmi	r0, {r3, r9, sl, sp}
    14f8:	09000013 	stmdbeq	r0, {r0, r1, r4}
    14fc:	13470034 	movtne	r0, #28724	; 0x7034
    1500:	0b3b0b3a 	bleq	ec41f0 <__bss_end__+0xeb9728>
    1504:	18020b39 	stmdane	r2, {r0, r3, r4, r5, r8, r9, fp}
    1508:	2e0a0000 	cdpcs	0, 0, cr0, cr10, cr0, {0}
    150c:	03193f01 	tsteq	r9, #1, 30
    1510:	3b0b3a0e 	blcc	2cfd50 <__bss_end__+0x2c5288>
    1514:	270b390b 	strcs	r3, [fp, -fp, lsl #18]
    1518:	12011119 	andne	r1, r1, #1073741830	; 0x40000006
    151c:	97184006 	ldrls	r4, [r8, -r6]
    1520:	13011942 	movwne	r1, #6466	; 0x1942
    1524:	050b0000 	streq	r0, [fp, #-0]
    1528:	3a080300 	bcc	202130 <__bss_end__+0x1f7668>
    152c:	390b3b0b 	stmdbcc	fp, {r0, r1, r3, r8, r9, fp, ip, sp}
    1530:	0213490b 	andseq	r4, r3, #180224	; 0x2c000
    1534:	0c000018 	stceq	0, cr0, [r0], {24}
    1538:	193f002e 	ldmdbne	pc!, {r1, r2, r3, r5}	; <UNPREDICTABLE>
    153c:	0b3a0e03 	bleq	e84d50 <__bss_end__+0xe7a288>
    1540:	0b390b3b 	bleq	e44234 <__bss_end__+0xe3976c>
    1544:	01111927 	tsteq	r1, r7, lsr #18
    1548:	18400612 	stmdane	r0, {r1, r4, r9, sl}^
    154c:	00194297 	mulseq	r9, r7, r2
    1550:	012e0d00 			; <UNDEFINED> instruction: 0x012e0d00
    1554:	0b3a0e03 	bleq	e84d68 <__bss_end__+0xe7a2a0>
    1558:	0b390b3b 	bleq	e4424c <__bss_end__+0xe39784>
    155c:	13491927 	movtne	r1, #39207	; 0x9927
    1560:	06120111 			; <UNDEFINED> instruction: 0x06120111
    1564:	42971840 	addsmi	r1, r7, #64, 16	; 0x400000
    1568:	00130119 	andseq	r0, r3, r9, lsl r1
    156c:	00050e00 	andeq	r0, r5, r0, lsl #28
    1570:	0b3a0803 	bleq	e83584 <__bss_end__+0xe78abc>
    1574:	0b390b3b 	bleq	e44268 <__bss_end__+0xe397a0>
    1578:	17021349 	strne	r1, [r2, -r9, asr #6]
    157c:	001742b7 			; <UNDEFINED> instruction: 0x001742b7
    1580:	82890f00 	addhi	r0, r9, #0, 30
    1584:	01110101 	tsteq	r1, r1, lsl #2
    1588:	00001331 	andeq	r1, r0, r1, lsr r3
    158c:	01828a10 	orreq	r8, r2, r0, lsl sl
    1590:	91180200 	tstls	r8, r0, lsl #4
    1594:	00001842 	andeq	r1, r0, r2, asr #16
    1598:	3f002e11 	svccc	0x00002e11
    159c:	6e193c19 	mrcvs	12, 0, r3, cr9, cr9, {0}
    15a0:	3a0e030e 	bcc	3821e0 <__bss_end__+0x377718>
    15a4:	390b3b0b 	stmdbcc	fp, {r0, r1, r3, r8, r9, fp, ip, sp}
    15a8:	0000000b 	andeq	r0, r0, fp
    15ac:	25011101 	strcs	r1, [r1, #-257]	; 0xfffffeff
    15b0:	030b130e 	movweq	r1, #45838	; 0xb30e
    15b4:	110e1b0e 	tstne	lr, lr, lsl #22
    15b8:	10061201 	andne	r1, r6, r1, lsl #4
    15bc:	02000017 	andeq	r0, r0, #23, 0
    15c0:	0b0b0024 	bleq	2c1658 <__bss_end__+0x2b6b90>
    15c4:	08030b3e 	stmdaeq	r3, {r1, r2, r3, r4, r5, r8, r9, fp}
    15c8:	24030000 	strcs	r0, [r3], #-0
    15cc:	3e0b0b00 	vmlacc.f64	d0, d11, d0
    15d0:	000e030b 	andeq	r0, lr, fp, lsl #6
    15d4:	01150400 	tsteq	r5, r0, lsl #8
    15d8:	13491927 	movtne	r1, #39207	; 0x9927
    15dc:	00001301 	andeq	r1, r0, r1, lsl #6
    15e0:	49000505 	stmdbmi	r0, {r0, r2, r8, sl}
    15e4:	06000013 			; <UNDEFINED> instruction: 0x06000013
    15e8:	0e030034 	mcreq	0, 0, r0, cr3, cr4, {1}
    15ec:	0b3b0b3a 	bleq	ec42dc <__bss_end__+0xeb9814>
    15f0:	13490b39 	movtne	r0, #39737	; 0x9b39
    15f4:	193c193f 	ldmdbne	ip!, {r0, r1, r2, r3, r4, r5, r8, fp, ip}
    15f8:	0f070000 	svceq	0x00070000
    15fc:	490b0b00 	stmdbmi	fp, {r8, r9, fp}
    1600:	08000013 	stmdaeq	r0, {r0, r1, r4}
    1604:	13490026 	movtne	r0, #36902	; 0x9026
    1608:	2e090000 	cdpcs	0, 0, cr0, cr9, cr0, {0}
    160c:	03193f01 	tsteq	r9, #1, 30
    1610:	3b0b3a0e 	blcc	2cfe50 <__bss_end__+0x2c5388>
    1614:	270b390b 	strcs	r3, [fp, -fp, lsl #18]
    1618:	11134919 	tstne	r3, r9, lsl r9
    161c:	40061201 	andmi	r1, r6, r1, lsl #4
    1620:	19429718 	stmdbne	r2, {r3, r4, r8, r9, sl, ip, pc}^
    1624:	00001301 	andeq	r1, r0, r1, lsl #6
    1628:	0300050a 	movweq	r0, #1290	; 0x50a
    162c:	3b0b3a0e 	blcc	2cfe6c <__bss_end__+0x2c53a4>
    1630:	490b390b 	stmdbmi	fp, {r0, r1, r3, r8, fp, ip, sp}
    1634:	00180213 	andseq	r0, r8, r3, lsl r2
    1638:	00050b00 	andeq	r0, r5, r0, lsl #22
    163c:	0b3a0803 	bleq	e83650 <__bss_end__+0xe78b88>
    1640:	0b390b3b 	bleq	e44334 <__bss_end__+0xe3986c>
    1644:	17021349 	strne	r1, [r2, -r9, asr #6]
    1648:	001742b7 			; <UNDEFINED> instruction: 0x001742b7
    164c:	00340c00 	eorseq	r0, r4, r0, lsl #24
    1650:	0b3a0803 	bleq	e83664 <__bss_end__+0xe78b9c>
    1654:	0b390b3b 	bleq	e44348 <__bss_end__+0xe39880>
    1658:	17021349 	strne	r1, [r2, -r9, asr #6]
    165c:	001742b7 			; <UNDEFINED> instruction: 0x001742b7
    1660:	11010000 	mrsne	r0, (UNDEF: 1)
    1664:	130e2501 	movwne	r2, #58625	; 0xe501
    1668:	1b0e030b 	blne	38229c <__bss_end__+0x3777d4>
    166c:	1201110e 	andne	r1, r1, #-2147483645	; 0x80000003
    1670:	00171006 	andseq	r1, r7, r6
    1674:	00240200 	eoreq	r0, r4, r0, lsl #4
    1678:	0b3e0b0b 	bleq	f842ac <__bss_end__+0xf797e4>
    167c:	00000803 	andeq	r0, r0, r3, lsl #16
    1680:	0b002403 	bleq	a694 <__FUNCTION__.4034+0x10>
    1684:	030b3e0b 	movweq	r3, #48651	; 0xbe0b
    1688:	0400000e 	streq	r0, [r0], #-14
    168c:	19270115 	stmdbne	r7!, {r0, r2, r4, r8}
    1690:	13011349 	movwne	r1, #4937	; 0x1349
    1694:	05050000 	streq	r0, [r5, #-0]
    1698:	00134900 	andseq	r4, r3, r0, lsl #18
    169c:	00340600 	eorseq	r0, r4, r0, lsl #12
    16a0:	0b3a0e03 	bleq	e84eb4 <__bss_end__+0xe7a3ec>
    16a4:	0b390b3b 	bleq	e44398 <__bss_end__+0xe398d0>
    16a8:	193f1349 	ldmdbne	pc!, {r0, r3, r6, r8, r9, ip}	; <UNPREDICTABLE>
    16ac:	0000193c 	andeq	r1, r0, ip, lsr r9
    16b0:	0b000f07 	bleq	52d4 <__code_start__-0x2d2c>
    16b4:	0013490b 	andseq	r4, r3, fp, lsl #18
    16b8:	00260800 	eoreq	r0, r6, r0, lsl #16
    16bc:	00001349 	andeq	r1, r0, r9, asr #6
    16c0:	3f012e09 	svccc	0x00012e09
    16c4:	3a0e0319 	bcc	382330 <__bss_end__+0x377868>
    16c8:	390b3b0b 	stmdbcc	fp, {r0, r1, r3, r8, r9, fp, ip, sp}
    16cc:	4919270b 	ldmdbmi	r9, {r0, r1, r3, r8, r9, sl, sp}
    16d0:	12011113 	andne	r1, r1, #-1073741820	; 0xc0000004
    16d4:	97184006 	ldrls	r4, [r8, -r6]
    16d8:	00001942 	andeq	r1, r0, r2, asr #18
    16dc:	0300050a 	movweq	r0, #1290	; 0x50a
    16e0:	3b0b3a08 	blcc	2cff08 <__bss_end__+0x2c5440>
    16e4:	490b390b 	stmdbmi	fp, {r0, r1, r3, r8, fp, ip, sp}
    16e8:	b7170213 			; <UNDEFINED> instruction: 0xb7170213
    16ec:	00001742 	andeq	r1, r0, r2, asr #14
    16f0:	01110100 	tsteq	r1, r0, lsl #2
    16f4:	0b130e25 	bleq	4c4f90 <__bss_end__+0x4ba4c8>
    16f8:	0e1b0e03 	cdpeq	14, 1, cr0, cr11, cr3, {0}
    16fc:	06120111 			; <UNDEFINED> instruction: 0x06120111
    1700:	00001710 	andeq	r1, r0, r0, lsl r7
    1704:	0b002402 	bleq	a714 <buf.3948+0x50>
    1708:	030b3e0b 	movweq	r3, #48651	; 0xbe0b
    170c:	03000008 	movweq	r0, #8
    1710:	0b0b0024 	bleq	2c17a8 <__bss_end__+0x2b6ce0>
    1714:	0e030b3e 	vmoveq.16	d3[0], r0
    1718:	15040000 	strne	r0, [r4, #-0]
    171c:	49192701 	ldmdbmi	r9, {r0, r8, r9, sl, sp}
    1720:	00130113 	andseq	r0, r3, r3, lsl r1
    1724:	00050500 	andeq	r0, r5, r0, lsl #10
    1728:	00001349 	andeq	r1, r0, r9, asr #6
    172c:	03003406 	movweq	r3, #1030	; 0x406
    1730:	3b0b3a0e 	blcc	2cff70 <__bss_end__+0x2c54a8>
    1734:	490b390b 	stmdbmi	fp, {r0, r1, r3, r8, fp, ip, sp}
    1738:	3c193f13 	ldccc	15, cr3, [r9], {19}
    173c:	07000019 	smladeq	r0, r9, r0, r0
    1740:	0b0b000f 	bleq	2c1784 <__bss_end__+0x2b6cbc>
    1744:	00001349 	andeq	r1, r0, r9, asr #6
    1748:	49002608 	stmdbmi	r0, {r3, r9, sl, sp}
    174c:	09000013 	stmdbeq	r0, {r0, r1, r4}
    1750:	193f012e 	ldmdbne	pc!, {r1, r2, r3, r5, r8}	; <UNPREDICTABLE>
    1754:	0b3a0e03 	bleq	e84f68 <__bss_end__+0xe7a4a0>
    1758:	0b390b3b 	bleq	e4444c <__bss_end__+0xe39984>
    175c:	13491927 	movtne	r1, #39207	; 0x9927
    1760:	06120111 			; <UNDEFINED> instruction: 0x06120111
    1764:	42971840 	addsmi	r1, r7, #64, 16	; 0x400000
    1768:	00130119 	andseq	r0, r3, r9, lsl r1
    176c:	00050a00 	andeq	r0, r5, r0, lsl #20
    1770:	0b3a0803 	bleq	e83784 <__bss_end__+0xe78cbc>
    1774:	0b390b3b 	bleq	e44468 <__bss_end__+0xe399a0>
    1778:	18021349 	stmdane	r2, {r0, r3, r6, r8, r9, ip}
    177c:	050b0000 	streq	r0, [fp, #-0]
    1780:	3a080300 	bcc	202388 <__bss_end__+0x1f78c0>
    1784:	390b3b0b 	stmdbcc	fp, {r0, r1, r3, r8, r9, fp, ip, sp}
    1788:	0213490b 	andseq	r4, r3, #180224	; 0x2c000
    178c:	1742b717 	smlaldne	fp, r2, r7, r7
    1790:	340c0000 	strcc	r0, [ip], #-0
    1794:	3a080300 	bcc	20239c <__bss_end__+0x1f78d4>
    1798:	390b3b0b 	stmdbcc	fp, {r0, r1, r3, r8, r9, fp, ip, sp}
    179c:	0213490b 	andseq	r4, r3, #180224	; 0x2c000
    17a0:	1742b717 	smlaldne	fp, r2, r7, r7
    17a4:	01000000 	mrseq	r0, (UNDEF: 0)
    17a8:	0e250111 	mcreq	1, 1, r0, cr5, cr1, {0}
    17ac:	0e030b13 	vmoveq.32	d3[0], r0
    17b0:	01110e1b 	tsteq	r1, fp, lsl lr
    17b4:	17100612 			; <UNDEFINED> instruction: 0x17100612
    17b8:	24020000 	strcs	r0, [r2], #-0
    17bc:	3e0b0b00 	vmlacc.f64	d0, d11, d0
    17c0:	0008030b 	andeq	r0, r8, fp, lsl #6
    17c4:	00160300 	andseq	r0, r6, r0, lsl #6
    17c8:	0b3a0e03 	bleq	e84fdc <__bss_end__+0xe7a514>
    17cc:	0b390b3b 	bleq	e444c0 <__bss_end__+0xe399f8>
    17d0:	00001349 	andeq	r1, r0, r9, asr #6
    17d4:	0b002404 	bleq	a7ec <buf.3948+0x128>
    17d8:	030b3e0b 	movweq	r3, #48651	; 0xbe0b
    17dc:	0500000e 	streq	r0, [r0, #-14]
    17e0:	13490026 	movtne	r0, #36902	; 0x9026
    17e4:	15060000 	strne	r0, [r6, #-0]
    17e8:	49192701 	ldmdbmi	r9, {r0, r8, r9, sl, sp}
    17ec:	00130113 	andseq	r0, r3, r3, lsl r1
    17f0:	00050700 	andeq	r0, r5, r0, lsl #14
    17f4:	00001349 	andeq	r1, r0, r9, asr #6
    17f8:	03003408 	movweq	r3, #1032	; 0x408
    17fc:	3b0b3a0e 	blcc	2d003c <__bss_end__+0x2c5574>
    1800:	490b390b 	stmdbmi	fp, {r0, r1, r3, r8, fp, ip, sp}
    1804:	3c193f13 	ldccc	15, cr3, [r9], {19}
    1808:	09000019 	stmdbeq	r0, {r0, r3, r4}
    180c:	0b0b000f 	bleq	2c1850 <__bss_end__+0x2b6d88>
    1810:	00001349 	andeq	r1, r0, r9, asr #6
    1814:	3f012e0a 	svccc	0x00012e0a
    1818:	3a0e0319 	bcc	382484 <__bss_end__+0x3779bc>
    181c:	390b3b0b 	stmdbcc	fp, {r0, r1, r3, r8, r9, fp, ip, sp}
    1820:	4919270b 	ldmdbmi	r9, {r0, r1, r3, r8, r9, sl, sp}
    1824:	12011113 	andne	r1, r1, #-1073741820	; 0xc0000004
    1828:	97184006 	ldrls	r4, [r8, -r6]
    182c:	13011942 	movwne	r1, #6466	; 0x1942
    1830:	050b0000 	streq	r0, [fp, #-0]
    1834:	3a080300 	bcc	20243c <__bss_end__+0x1f7974>
    1838:	390b3b0b 	stmdbcc	fp, {r0, r1, r3, r8, r9, fp, ip, sp}
    183c:	0213490b 	andseq	r4, r3, #180224	; 0x2c000
    1840:	1742b717 	smlaldne	fp, r2, r7, r7
    1844:	340c0000 	strcc	r0, [ip], #-0
    1848:	3a080300 	bcc	202450 <__bss_end__+0x1f7988>
    184c:	390b3b0b 	stmdbcc	fp, {r0, r1, r3, r8, r9, fp, ip, sp}
    1850:	0213490b 	andseq	r4, r3, #180224	; 0x2c000
    1854:	1742b717 	smlaldne	fp, r2, r7, r7
    1858:	01000000 	mrseq	r0, (UNDEF: 0)
    185c:	0e250111 	mcreq	1, 1, r0, cr5, cr1, {0}
    1860:	0e030b13 	vmoveq.32	d3[0], r0
    1864:	01110e1b 	tsteq	r1, fp, lsl lr
    1868:	17100612 			; <UNDEFINED> instruction: 0x17100612
    186c:	24020000 	strcs	r0, [r2], #-0
    1870:	3e0b0b00 	vmlacc.f64	d0, d11, d0
    1874:	0008030b 	andeq	r0, r8, fp, lsl #6
    1878:	00240300 	eoreq	r0, r4, r0, lsl #6
    187c:	0b3e0b0b 	bleq	f844b0 <__bss_end__+0xf799e8>
    1880:	00000e03 	andeq	r0, r0, r3, lsl #28
    1884:	27011504 	strcs	r1, [r1, -r4, lsl #10]
    1888:	01134919 	tsteq	r3, r9, lsl r9
    188c:	05000013 	streq	r0, [r0, #-19]	; 0xffffffed
    1890:	13490005 	movtne	r0, #36869	; 0x9005
    1894:	34060000 	strcc	r0, [r6], #-0
    1898:	3a0e0300 	bcc	3824a0 <__bss_end__+0x3779d8>
    189c:	390b3b0b 	stmdbcc	fp, {r0, r1, r3, r8, r9, fp, ip, sp}
    18a0:	3f13490b 	svccc	0x0013490b
    18a4:	00193c19 	andseq	r3, r9, r9, lsl ip
    18a8:	000f0700 	andeq	r0, pc, r0, lsl #14
    18ac:	13490b0b 	movtne	r0, #39691	; 0x9b0b
    18b0:	26080000 	strcs	r0, [r8], -r0
    18b4:	00134900 	andseq	r4, r3, r0, lsl #18
    18b8:	002e0900 	eoreq	r0, lr, r0, lsl #18
    18bc:	0e03193f 			; <UNDEFINED> instruction: 0x0e03193f
    18c0:	0b3b0b3a 	bleq	ec45b0 <__bss_end__+0xeb9ae8>
    18c4:	19270b39 	stmdbne	r7!, {r0, r3, r4, r5, r8, r9, fp}
    18c8:	06120111 			; <UNDEFINED> instruction: 0x06120111
    18cc:	42971840 	addsmi	r1, r7, #64, 16	; 0x400000
    18d0:	00000019 	andeq	r0, r0, r9, lsl r0

Disassembly of section .debug_loc:

00000000 <.debug_loc>:
       0:	00000000 	andeq	r0, r0, r0
       4:	00000414 	andeq	r0, r0, r4, lsl r4
       8:	00000424 	andeq	r0, r0, r4, lsr #8
       c:	1c500001 	mrrcne	0, 0, r0, r0, cr1	; <UNPREDICTABLE>
      10:	40000005 	andmi	r0, r0, r5
      14:	01000005 	tsteq	r0, r5
      18:	00005000 	andeq	r5, r0, r0
	...
      24:	04b40000 	ldrteq	r0, [r4], #0
      28:	051c0000 	ldreq	r0, [ip, #-0]
      2c:	00010000 	andeq	r0, r1, r0
      30:	00056856 	andeq	r6, r5, r6, asr r8
      34:	00057000 	andeq	r7, r5, r0
      38:	56000100 	strpl	r0, [r0], -r0, lsl #2
	...
      44:	00010100 	andeq	r0, r1, r0, lsl #2
      48:	03340000 	teqeq	r4, #0, 0
      4c:	03440000 	movteq	r0, #16384	; 0x4000
      50:	00010000 	andeq	r0, r1, r0
      54:	00034451 	andeq	r4, r3, r1, asr r4
      58:	00036400 	andeq	r6, r3, r0, lsl #8
      5c:	54000100 	strpl	r0, [r0], #-256	; 0xffffff00
      60:	00000364 	andeq	r0, r0, r4, ror #6
      64:	000003e8 	andeq	r0, r0, r8, ror #7
      68:	01f30004 	mvnseq	r0, r4
      6c:	00009f51 	andeq	r9, r0, r1, asr pc
      70:	00000000 	andeq	r0, r0, r0
      74:	01010000 	mrseq	r0, (UNDEF: 1)
      78:	00000340 	andeq	r0, r0, r0, asr #6
      7c:	00000344 	andeq	r0, r0, r4, asr #6
      80:	08710002 	ldmdaeq	r1!, {r1}^
	...
      8c:	03440000 	movteq	r0, #16384	; 0x4000
      90:	03e80000 	mvneq	r0, #0, 0
      94:	00010000 	andeq	r0, r1, r0
      98:	00000056 	andeq	r0, r0, r6, asr r0
      9c:	00000000 	andeq	r0, r0, r0
      a0:	00000100 	andeq	r0, r0, r0, lsl #2
      a4:	54000000 	strpl	r0, [r0], #-0
      a8:	80000003 	andhi	r0, r0, r3
      ac:	02000003 	andeq	r0, r0, #3, 0
      b0:	809f3000 	addshi	r3, pc, r0
      b4:	88000003 	stmdahi	r0, {r0, r1}
      b8:	01000003 	tsteq	r0, r3
      bc:	03885000 	orreq	r5, r8, #0, 0
      c0:	03e80000 	mvneq	r0, #0, 0
      c4:	00010000 	andeq	r0, r1, r0
      c8:	00000057 	andeq	r0, r0, r7, asr r0
      cc:	00000000 	andeq	r0, r0, r0
      d0:	00000100 	andeq	r0, r0, r0, lsl #2
      d4:	54000000 	strpl	r0, [r0], #-0
      d8:	ac000003 	stcge	0, cr0, [r0], {3}
      dc:	02000003 	andeq	r0, r0, #3, 0
      e0:	ac9f3000 	ldcge	0, cr3, [pc], {0}
      e4:	b4000003 	strlt	r0, [r0], #-3
      e8:	01000003 	tsteq	r0, r3
      ec:	03b45000 			; <UNDEFINED> instruction: 0x03b45000
      f0:	03e80000 	mvneq	r0, #0, 0
      f4:	00010000 	andeq	r0, r1, r0
      f8:	00000054 	andeq	r0, r0, r4, asr r0
      fc:	00000000 	andeq	r0, r0, r0
     100:	00000100 	andeq	r0, r0, r0, lsl #2
     104:	54000000 	strpl	r0, [r0], #-0
     108:	d4000003 	strle	r0, [r0], #-3
     10c:	02000003 	andeq	r0, r0, #3, 0
     110:	d49f3000 	ldrle	r3, [pc], #0	; 118 <__code_start__-0x7ee8>
     114:	e4000003 	str	r0, [r0], #-3
     118:	01000003 	tsteq	r0, r3
     11c:	03e45000 	mvneq	r5, #0, 0
     120:	03e80000 	mvneq	r0, #0, 0
     124:	00020000 	andeq	r0, r2, r0
     128:	00000870 	andeq	r0, r0, r0, ror r8
     12c:	00000000 	andeq	r0, r0, r0
     130:	00010000 	andeq	r0, r1, r0
     134:	000003d4 	ldrdeq	r0, [r0], -r4
     138:	000003e0 	andeq	r0, r0, r0, ror #7
     13c:	00500001 	subseq	r0, r0, r1
     140:	00000000 	andeq	r0, r0, r0
     144:	01000000 	mrseq	r0, (UNDEF: 0)
     148:	0003d400 	andeq	sp, r3, r0, lsl #8
     14c:	0003e000 	andeq	lr, r3, r0
     150:	54000100 	strpl	r0, [r0], #-256	; 0xffffff00
	...
     15c:	03d40001 	bicseq	r0, r4, #1, 0
     160:	03e00000 	mvneq	r0, #0, 0
     164:	00010000 	andeq	r0, r1, r0
     168:	00000057 	andeq	r0, r0, r7, asr r0
	...
     174:	00031800 	andeq	r1, r3, r0, lsl #16
     178:	00032700 	andeq	r2, r3, r0, lsl #14
     17c:	50000100 	andpl	r0, r0, r0, lsl #2
     180:	00000327 	andeq	r0, r0, r7, lsr #6
     184:	00000334 	andeq	r0, r0, r4, lsr r3
     188:	01f30004 	mvnseq	r0, r4
     18c:	00009f50 	andeq	r9, r0, r0, asr pc
	...
     1a0:	01e80000 	mvneq	r0, r0
     1a4:	023c0000 	eorseq	r0, ip, #0, 0
     1a8:	00010000 	andeq	r0, r1, r0
     1ac:	00023c51 	andeq	r3, r2, r1, asr ip
     1b0:	00024800 	andeq	r4, r2, r0, lsl #16
     1b4:	f3000400 	vshl.u8	d0, d0, d0
     1b8:	489f5101 	ldmmi	pc, {r0, r8, ip, lr}	; <UNPREDICTABLE>
     1bc:	50000002 	andpl	r0, r0, r2
     1c0:	01000002 	tsteq	r0, r2
     1c4:	02505100 	subseq	r5, r0, #0
     1c8:	02cc0000 	sbceq	r0, ip, #0, 0
     1cc:	00040000 	andeq	r0, r4, r0
     1d0:	9f5101f3 	svcls	0x005101f3
     1d4:	000002cc 	andeq	r0, r0, ip, asr #5
     1d8:	000002d4 	ldrdeq	r0, [r0], -r4
     1dc:	d4510001 	ldrble	r0, [r1], #-1
     1e0:	18000002 	stmdane	r0, {r1}
     1e4:	04000003 	streq	r0, [r0], #-3
     1e8:	5101f300 	mrspl	pc, SP_irq	; <UNPREDICTABLE>
     1ec:	0000009f 	muleq	r0, pc, r0	; <UNPREDICTABLE>
	...
     200:	0001e800 	andeq	lr, r1, r0, lsl #16
     204:	00023800 	andeq	r3, r2, r0, lsl #16
     208:	52000100 	andpl	r0, r0, #0
     20c:	00000238 	andeq	r0, r0, r8, lsr r2
     210:	00000248 	andeq	r0, r0, r8, asr #4
     214:	48550001 	ldmdami	r5, {r0}^
     218:	57000002 	strpl	r0, [r0, -r2]
     21c:	01000002 	tsteq	r0, r2
     220:	02575200 	subseq	r5, r7, #0, 4
     224:	02cc0000 	sbceq	r0, ip, #0, 0
     228:	00010000 	andeq	r0, r1, r0
     22c:	0002cc55 	andeq	ip, r2, r5, asr ip
     230:	0002d400 	andeq	sp, r2, r0, lsl #8
     234:	52000100 	andpl	r0, r0, #0
     238:	000002d4 	ldrdeq	r0, [r0], -r4
     23c:	00000318 	andeq	r0, r0, r8, lsl r3
     240:	00550001 	subseq	r0, r5, r1
     244:	00000000 	andeq	r0, r0, r0
     248:	01000000 	mrseq	r0, (UNDEF: 0)
     24c:	00000101 	andeq	r0, r0, r1, lsl #2
     250:	00000101 	andeq	r0, r0, r1, lsl #2
     254:	00000000 	andeq	r0, r0, r0
     258:	fc000000 	stc2	0, cr0, [r0], {-0}
     25c:	18000001 	stmdane	r0, {r0}
     260:	02000002 	andeq	r0, r0, #2, 0
     264:	189f3000 	ldmne	pc, {ip, sp}	; <UNPREDICTABLE>
     268:	20000002 	andcs	r0, r0, r2
     26c:	02000002 	andeq	r0, r0, #2, 0
     270:	209f3800 	addscs	r3, pc, r0, lsl #16
     274:	20000002 	andcs	r0, r0, r2
     278:	02000002 	andeq	r0, r0, #2, 0
     27c:	209f3000 	addscs	r3, pc, r0
     280:	28000002 	stmdacs	r0, {r1}
     284:	02000002 	andeq	r0, r0, #2, 0
     288:	289f4000 	ldmcs	pc, {lr}	; <UNPREDICTABLE>
     28c:	4c000002 	stcmi	0, cr0, [r0], {2}
     290:	02000002 	andeq	r0, r0, #2, 0
     294:	4c9f3000 	ldcmi	0, cr3, [pc], {0}
     298:	cc000002 	stcgt	0, cr0, [r0], {2}
     29c:	01000002 	tsteq	r0, r2
     2a0:	02cc5700 	sbceq	r5, ip, #0, 14
     2a4:	02d40000 	sbcseq	r0, r4, #0, 0
     2a8:	00020000 	andeq	r0, r2, r0
     2ac:	02d49f30 	sbcseq	r9, r4, #48, 30	; 0xc0
     2b0:	03180000 	tsteq	r8, #0, 0
     2b4:	00010000 	andeq	r0, r1, r0
     2b8:	00000057 	andeq	r0, r0, r7, asr r0
	...
     2c4:	00025c00 	andeq	r5, r2, r0, lsl #24
     2c8:	00026f00 	andeq	r6, r2, r0, lsl #30
     2cc:	72000600 	andvc	r0, r0, #0, 12
     2d0:	1aff0800 	bne	fffc22d8 <__bss_end__+0xfffb7810>
     2d4:	0002d49f 	muleq	r2, pc, r4	; <UNPREDICTABLE>
     2d8:	0002e400 	andeq	lr, r2, r0, lsl #8
     2dc:	72000600 	andvc	r0, r0, #0, 12
     2e0:	1aff0800 	bne	fffc22e8 <__bss_end__+0xfffb7820>
     2e4:	0000009f 	muleq	r0, pc, r0	; <UNPREDICTABLE>
     2e8:	00000000 	andeq	r0, r0, r0
     2ec:	00140100 	andseq	r0, r4, r0, lsl #2
     2f0:	00025c00 	andeq	r5, r2, r0, lsl #24
     2f4:	00026400 	andeq	r6, r2, r0, lsl #8
     2f8:	55000100 	strpl	r0, [r0, #-256]	; 0xffffff00
     2fc:	000002d4 	ldrdeq	r0, [r0], -r4
     300:	00000318 	andeq	r0, r0, r8, lsl r3
     304:	00550001 	subseq	r0, r5, r1
     308:	00000000 	andeq	r0, r0, r0
     30c:	01000000 	mrseq	r0, (UNDEF: 0)
     310:	5c000014 	stcpl	0, cr0, [r0], {20}
     314:	64000002 	strvs	r0, [r0], #-2
     318:	02000002 	andeq	r0, r0, #2, 0
     31c:	d49f3400 	ldrle	r3, [pc], #1024	; 324 <__code_start__-0x7cdc>
     320:	18000002 	stmdane	r0, {r1}
     324:	02000003 	andeq	r0, r0, #3, 0
     328:	009f3400 	addseq	r3, pc, r0, lsl #8
     32c:	00000000 	andeq	r0, r0, r0
     330:	01000000 	mrseq	r0, (UNDEF: 0)
     334:	5c000014 	stcpl	0, cr0, [r0], {20}
     338:	64000002 	strvs	r0, [r0], #-2
     33c:	02000002 	andeq	r0, r0, #2, 0
     340:	d49f3300 	ldrle	r3, [pc], #768	; 348 <__code_start__-0x7cb8>
     344:	18000002 	stmdane	r0, {r1}
     348:	02000003 	andeq	r0, r0, #3, 0
     34c:	009f3300 	addseq	r3, pc, r0, lsl #6
     350:	00000000 	andeq	r0, r0, r0
     354:	01000000 	mrseq	r0, (UNDEF: 0)
     358:	5c000014 	stcpl	0, cr0, [r0], {20}
     35c:	64000002 	strvs	r0, [r0], #-2
     360:	06000002 	streq	r0, [r0], -r2
     364:	08007200 	stmdaeq	r0, {r9, ip, sp, lr}
     368:	d49f1aff 	ldrle	r1, [pc], #2815	; 370 <__code_start__-0x7c90>
     36c:	e4000002 	str	r0, [r0], #-2
     370:	06000002 	streq	r0, [r0], -r2
     374:	08007200 	stmdaeq	r0, {r9, ip, sp, lr}
     378:	009f1aff 			; <UNDEFINED> instruction: 0x009f1aff
     37c:	00000000 	andeq	r0, r0, r0
     380:	0b000000 	bleq	388 <__code_start__-0x7c78>
     384:	5c000014 	stcpl	0, cr0, [r0], {20}
     388:	64000002 	strvs	r0, [r0], #-2
     38c:	02000002 	andeq	r0, r0, #2, 0
     390:	d49f3200 	ldrle	r3, [pc], #512	; 398 <__code_start__-0x7c68>
     394:	18000002 	stmdane	r0, {r1}
     398:	02000003 	andeq	r0, r0, #3, 0
     39c:	009f3200 	addseq	r3, pc, r0, lsl #4
	...
     3a8:	e0000000 	and	r0, r0, r0
     3ac:	e4000001 	str	r0, [r0], #-1
     3b0:	01000001 	tsteq	r0, r1
     3b4:	01e45000 	mvneq	r5, r0
     3b8:	01e80000 	mvneq	r0, r0
     3bc:	00040000 	andeq	r0, r4, r0
     3c0:	9f5001f3 	svcls	0x005001f3
	...
     3d0:	00000038 	andeq	r0, r0, r8, lsr r0
     3d4:	0000004c 	andeq	r0, r0, ip, asr #32
     3d8:	4c500001 	mrrcmi	0, 0, r0, r0, cr1	; <UNPREDICTABLE>
     3dc:	b0000000 	andlt	r0, r0, r0
     3e0:	01000000 	mrseq	r0, (UNDEF: 0)
     3e4:	00005400 	andeq	r5, r0, r0, lsl #8
	...
     3f0:	00380000 	eorseq	r0, r8, r0
     3f4:	004f0000 	subeq	r0, pc, r0
     3f8:	00010000 	andeq	r0, r1, r0
     3fc:	00004f51 	andeq	r4, r0, r1, asr pc
     400:	0000b000 	andeq	fp, r0, r0
     404:	f3000400 	vshl.u8	d0, d0, d0
     408:	009f5101 	addseq	r5, pc, r1, lsl #2
	...
     414:	38000000 	stmdacc	r0, {}	; <UNPREDICTABLE>
     418:	4f000000 	svcmi	0x00000000
     41c:	01000000 	mrseq	r0, (UNDEF: 0)
     420:	004f5200 	subeq	r5, pc, r0, lsl #4
     424:	00b00000 	adcseq	r0, r0, r0
     428:	00040000 	andeq	r0, r4, r0
     42c:	9f5201f3 	svcls	0x005201f3
	...
     43c:	00380000 	eorseq	r0, r8, r0
     440:	004f0000 	subeq	r0, pc, r0
     444:	00010000 	andeq	r0, r1, r0
     448:	00004f53 	andeq	r4, r0, r3, asr pc
     44c:	00005c00 	andeq	r5, r0, r0, lsl #24
     450:	55000100 	strpl	r0, [r0, #-256]	; 0xffffff00
     454:	0000005c 	andeq	r0, r0, ip, asr r0
     458:	000000b0 	strheq	r0, [r0], -r0	; <UNPREDICTABLE>
     45c:	01f30004 	mvnseq	r0, r4
     460:	00009f53 	andeq	r9, r0, r3, asr pc
	...
     470:	0000005c 	andeq	r0, r0, ip, asr r0
     474:	00000068 	andeq	r0, r0, r8, rrx
     478:	68500001 	ldmdavs	r0, {r0}^
     47c:	6b000000 	blvs	484 <__code_start__-0x7b7c>
     480:	01000000 	mrseq	r0, (UNDEF: 0)
     484:	006b5200 	rsbeq	r5, fp, r0, lsl #4
     488:	00b00000 	adcseq	r0, r0, r0
     48c:	00010000 	andeq	r0, r1, r0
     490:	00000055 	andeq	r0, r0, r5, asr r0
	...
     49c:	00018000 	andeq	r8, r1, r0
     4a0:	00019c00 	andeq	r9, r1, r0, lsl #24
     4a4:	51000100 	mrspl	r0, (UNDEF: 16)
     4a8:	0000019c 	muleq	r0, ip, r1
     4ac:	000001e0 	andeq	r0, r0, r0, ror #3
     4b0:	01f30004 	mvnseq	r0, r4
     4b4:	00009f51 	andeq	r9, r0, r1, asr pc
	...
     4c0:	00000198 	muleq	r0, r8, r1
     4c4:	000001d8 	ldrdeq	r0, [r0], -r8
     4c8:	00570001 	subseq	r0, r7, r1
	...
     4d8:	0001a800 	andeq	sl, r1, r0, lsl #16
     4dc:	0001b000 	andeq	fp, r1, r0
     4e0:	50000100 	andpl	r0, r0, r0, lsl #2
     4e4:	000001b0 			; <UNDEFINED> instruction: 0x000001b0
     4e8:	000001d8 	ldrdeq	r0, [r0], -r8
     4ec:	d8560001 	ldmdale	r6, {r0}^
     4f0:	e0000001 	and	r0, r0, r1
     4f4:	02000001 	andeq	r0, r0, #1, 0
     4f8:	00007000 	andeq	r7, r0, r0
	...
     508:	0001b800 	andeq	fp, r1, r0, lsl #16
     50c:	0001c000 	andeq	ip, r1, r0
     510:	50000100 	andpl	r0, r0, r0, lsl #2
     514:	000001c0 	andeq	r0, r0, r0, asr #3
     518:	000001d8 	ldrdeq	r0, [r0], -r8
     51c:	d8550001 	ldmdale	r5, {r0}^
     520:	e0000001 	and	r0, r0, r1
     524:	02000001 	andeq	r0, r0, #1, 0
     528:	00047000 	andeq	r7, r4, r0
	...
     538:	0001c400 	andeq	ip, r1, r0, lsl #8
     53c:	0001d400 	andeq	sp, r1, r0, lsl #8
     540:	50000100 	andpl	r0, r0, r0, lsl #2
     544:	000001d4 	ldrdeq	r0, [r0], -r4
     548:	000001d8 	ldrdeq	r0, [r0], -r8
     54c:	08740002 	ldmdaeq	r4!, {r1}^
     550:	000001d8 	ldrdeq	r0, [r0], -r8
     554:	000001e0 	andeq	r0, r0, r0, ror #3
     558:	08700002 	ldmdaeq	r0!, {r1}^
	...
     564:	01c40001 	biceq	r0, r4, r1
     568:	01d00000 	bicseq	r0, r0, r0
     56c:	00010000 	andeq	r0, r1, r0
     570:	00000050 	andeq	r0, r0, r0, asr r0
     574:	00000000 	andeq	r0, r0, r0
     578:	c4000100 	strgt	r0, [r0], #-256	; 0xffffff00
     57c:	d0000001 	andle	r0, r0, r1
     580:	01000001 	tsteq	r0, r1
     584:	00005500 	andeq	r5, r0, r0, lsl #10
     588:	00000000 	andeq	r0, r0, r0
     58c:	00010000 	andeq	r0, r1, r0
     590:	000001c4 	andeq	r0, r0, r4, asr #3
     594:	000001d0 	ldrdeq	r0, [r0], -r0	; <UNPREDICTABLE>
     598:	00560001 	subseq	r0, r6, r1
	...
     5a4:	0c000000 	stceq	0, cr0, [r0], {-0}
     5a8:	14000000 	strne	r0, [r0], #-0
     5ac:	01000000 	mrseq	r0, (UNDEF: 0)
     5b0:	00145000 	andseq	r5, r4, r0
     5b4:	00380000 	eorseq	r0, r8, r0
     5b8:	00040000 	andeq	r0, r4, r0
     5bc:	9f5001f3 	svcls	0x005001f3
	...
     5cc:	0000000c 	andeq	r0, r0, ip
     5d0:	00000010 	andeq	r0, r0, r0, lsl r0
     5d4:	10510001 	subsne	r0, r1, r1
     5d8:	38000000 	stmdacc	r0, {}	; <UNPREDICTABLE>
     5dc:	04000000 	streq	r0, [r0], #-0
     5e0:	5101f300 	mrspl	pc, SP_irq	; <UNPREDICTABLE>
     5e4:	0000009f 	muleq	r0, pc, r0	; <UNPREDICTABLE>
	...
     5f4:	00000400 	andeq	r0, r0, r0, lsl #8
     5f8:	50000100 	andpl	r0, r0, r0, lsl #2
     5fc:	00000004 	andeq	r0, r0, r4
     600:	0000000c 	andeq	r0, r0, ip
     604:	01f30004 	mvnseq	r0, r4
     608:	00009f50 	andeq	r9, r0, r0, asr pc
	...
     614:	01440000 	mrseq	r0, (UNDEF: 68)
     618:	01670000 	cmneq	r7, r0
     61c:	00010000 	andeq	r0, r1, r0
     620:	00016750 	andeq	r6, r1, r0, asr r7
     624:	00018000 	andeq	r8, r1, r0
     628:	f3000400 	vshl.u8	d0, d0, d0
     62c:	009f5001 	addseq	r5, pc, r1
	...
     638:	44000000 	strmi	r0, [r0], #-0
     63c:	64000001 	strvs	r0, [r0], #-1
     640:	01000001 	tsteq	r0, r1
     644:	01645100 	cmneq	r4, r0, lsl #2
     648:	01670000 	cmneq	r7, r0
     64c:	00020000 	andeq	r0, r2, r0
     650:	00000071 	andeq	r0, r0, r1, ror r0
	...
     65c:	01440000 	mrseq	r0, (UNDEF: 68)
     660:	01600000 	cmneq	r0, r0
     664:	00010000 	andeq	r0, r1, r0
     668:	00016052 	andeq	r6, r1, r2, asr r0
     66c:	00018000 	andeq	r8, r1, r0
     670:	55000100 	strpl	r0, [r0, #-256]	; 0xffffff00
	...
     680:	00000144 	andeq	r0, r0, r4, asr #2
     684:	00000167 	andeq	r0, r0, r7, ror #2
     688:	67530001 	ldrbvs	r0, [r3, -r1]
     68c:	80000001 	andhi	r0, r0, r1
     690:	01000001 	tsteq	r0, r1
     694:	00005600 	andeq	r5, r0, r0, lsl #12
	...
     6a0:	01200000 			; <UNDEFINED> instruction: 0x01200000
     6a4:	013b0000 	teqeq	fp, r0
     6a8:	00010000 	andeq	r0, r1, r0
     6ac:	00013b50 	andeq	r3, r1, r0, asr fp
     6b0:	00014400 	andeq	r4, r1, r0, lsl #8
     6b4:	f3000400 	vshl.u8	d0, d0, d0
     6b8:	009f5001 	addseq	r5, pc, r1
	...
     6c8:	00012000 	andeq	r2, r1, r0
     6cc:	00013800 	andeq	r3, r1, r0, lsl #16
     6d0:	51000100 	mrspl	r0, (UNDEF: 16)
     6d4:	00000138 	andeq	r0, r0, r8, lsr r1
     6d8:	0000013b 	andeq	r0, r0, fp, lsr r1
     6dc:	00710002 	rsbseq	r0, r1, r2
     6e0:	0000013b 	andeq	r0, r0, fp, lsr r1
     6e4:	00000144 	andeq	r0, r0, r4, asr #2
     6e8:	01f30004 	mvnseq	r0, r4
     6ec:	00009f51 	andeq	r9, r0, r1, asr pc
	...
     6fc:	00000120 	andeq	r0, r0, r0, lsr #2
     700:	00000134 	andeq	r0, r0, r4, lsr r1
     704:	34520001 	ldrbcc	r0, [r2], #-1
     708:	3b000001 	blcc	714 <__code_start__-0x78ec>
     70c:	02000001 	andeq	r0, r0, #1, 0
     710:	3b6d9100 	blcc	1b64b18 <__bss_end__+0x1b5a050>
     714:	44000001 	strmi	r0, [r0], #-1
     718:	04000001 	streq	r0, [r0], #-1
     71c:	5201f300 	andpl	pc, r1, #0, 6
     720:	0000009f 	muleq	r0, pc, r0	; <UNPREDICTABLE>
	...
     72c:	0000e800 	andeq	lr, r0, r0, lsl #16
     730:	00010300 	andeq	r0, r1, r0, lsl #6
     734:	50000100 	andpl	r0, r0, r0, lsl #2
     738:	00000103 	andeq	r0, r0, r3, lsl #2
     73c:	00000120 	andeq	r0, r0, r0, lsr #2
     740:	01f30004 	mvnseq	r0, r4
     744:	00009f50 	andeq	r9, r0, r0, asr pc
	...
     750:	00e80000 	rsceq	r0, r8, r0
     754:	01000000 	mrseq	r0, (UNDEF: 0)
     758:	00010000 	andeq	r0, r1, r0
     75c:	00010051 	andeq	r0, r1, r1, asr r0
     760:	00010300 	andeq	r0, r1, r0, lsl #6
     764:	71000200 	mrsvc	r0, R8_usr
	...
     774:	b0000000 	andlt	r0, r0, r0
     778:	d8000000 	stmdale	r0, {}	; <UNPREDICTABLE>
     77c:	01000000 	mrseq	r0, (UNDEF: 0)
     780:	00d85000 	sbcseq	r5, r8, r0
     784:	00db0000 	sbcseq	r0, fp, r0
     788:	00010000 	andeq	r0, r1, r0
     78c:	0000db51 	andeq	sp, r0, r1, asr fp
     790:	0000e800 	andeq	lr, r0, r0, lsl #16
     794:	f3000400 	vshl.u8	d0, d0, d0
     798:	009f5001 	addseq	r5, pc, r1
     79c:	00000000 	andeq	r0, r0, r0
     7a0:	32000000 	andcc	r0, r0, #0, 0
     7a4:	20003b3b 	andcs	r3, r0, fp, lsr fp
     7a8:	20000000 	andcs	r0, r0, r0
     7ac:	02000000 	andeq	r0, r0, #0, 0
     7b0:	209f4000 	addscs	r4, pc, r0
     7b4:	24000000 	strcs	r0, [r0], #-0
     7b8:	03000000 	movweq	r0, #0
     7bc:	9f300800 	svcls	0x00300800
	...
     7cc:	0000064c 	andeq	r0, r0, ip, asr #12
     7d0:	0000065c 	andeq	r0, r0, ip, asr r6
     7d4:	5c500001 	mrrcpl	0, 0, r0, r0, cr1	; <UNPREDICTABLE>
     7d8:	04000006 	streq	r0, [r0], #-6
     7dc:	04000008 	streq	r0, [r0], #-8
     7e0:	5001f300 	andpl	pc, r1, r0, lsl #6
     7e4:	0000009f 	muleq	r0, pc, r0	; <UNPREDICTABLE>
	...
     7f0:	00064c00 	andeq	r4, r6, r0, lsl #24
     7f4:	00065c00 	andeq	r5, r6, r0, lsl #24
     7f8:	51000100 	mrspl	r0, (UNDEF: 16)
     7fc:	0000065c 	andeq	r0, r0, ip, asr r6
     800:	00000804 	andeq	r0, r0, r4, lsl #16
     804:	01f30004 	mvnseq	r0, r4
     808:	00009f51 	andeq	r9, r0, r1, asr pc
     80c:	00000000 	andeq	r0, r0, r0
     810:	00020000 	andeq	r0, r2, r0
     814:	06580000 	ldrbeq	r0, [r8], -r0
     818:	065c0000 	ldrbeq	r0, [ip], -r0
     81c:	00020000 	andeq	r0, r2, r0
     820:	065c9f30 	uasxeq	r9, ip, r0
     824:	08040000 	stmdaeq	r4, {}	; <UNPREDICTABLE>
     828:	00010000 	andeq	r0, r1, r0
     82c:	00000054 	andeq	r0, r0, r4, asr r0
	...
     838:	3c000000 	stccc	0, cr0, [r0], {-0}
     83c:	53000003 	movwpl	r0, #3
     840:	01000003 	tsteq	r0, r3
     844:	03535000 	cmpeq	r3, #0, 0
     848:	04ac0000 	strteq	r0, [ip], #0
     84c:	00010000 	andeq	r0, r1, r0
     850:	0004ac56 	andeq	sl, r4, r6, asr ip
     854:	0004d800 	andeq	sp, r4, r0, lsl #16
     858:	f3000400 	vshl.u8	d0, d0, d0
     85c:	009f5001 	addseq	r5, pc, r1
	...
     870:	00033c00 	andeq	r3, r3, r0, lsl #24
     874:	00035300 	andeq	r5, r3, r0, lsl #6
     878:	51000100 	mrspl	r0, (UNDEF: 16)
     87c:	00000353 	andeq	r0, r0, r3, asr r3
     880:	000003e4 	andeq	r0, r0, r4, ror #7
     884:	e4550001 	ldrb	r0, [r5], #-1
     888:	4c000003 	stcmi	0, cr0, [r0], {3}
     88c:	04000004 	streq	r0, [r0], #-4
     890:	5101f300 	mrspl	pc, SP_irq	; <UNPREDICTABLE>
     894:	00044c9f 	muleq	r4, pc, ip	; <UNPREDICTABLE>
     898:	00048c00 	andeq	r8, r4, r0, lsl #24
     89c:	55000100 	strpl	r0, [r0, #-256]	; 0xffffff00
     8a0:	0000048c 	andeq	r0, r0, ip, lsl #9
     8a4:	000004d8 	ldrdeq	r0, [r0], -r8
     8a8:	01f30004 	mvnseq	r0, r4
     8ac:	00009f51 	andeq	r9, r0, r1, asr pc
	...
     8bc:	0000033c 	andeq	r0, r0, ip, lsr r3
     8c0:	00000353 	andeq	r0, r0, r3, asr r3
     8c4:	53520001 	cmppl	r2, #1, 0
     8c8:	ac000003 	stcge	0, cr0, [r0], {3}
     8cc:	01000004 	tsteq	r0, r4
     8d0:	04ac5400 	strteq	r5, [ip], #1024	; 0x400
     8d4:	04d80000 	ldrbeq	r0, [r8], #0
     8d8:	00040000 	andeq	r0, r4, r0
     8dc:	9f5201f3 	svcls	0x005201f3
	...
     8e8:	03f40000 	mvnseq	r0, #0, 0
     8ec:	03f80000 	mvnseq	r0, #0, 0
     8f0:	00010000 	andeq	r0, r1, r0
     8f4:	00000053 	andeq	r0, r0, r3, asr r0
	...
     900:	00059000 	andeq	r9, r5, r0
     904:	0005a700 	andeq	sl, r5, r0, lsl #14
     908:	50000100 	andpl	r0, r0, r0, lsl #2
     90c:	000005a7 	andeq	r0, r0, r7, lsr #11
     910:	0000064c 	andeq	r0, r0, ip, asr #12
     914:	01f30004 	mvnseq	r0, r4
     918:	00009f50 	andeq	r9, r0, r0, asr pc
	...
     924:	05900000 	ldreq	r0, [r0]
     928:	05a40000 	streq	r0, [r4, #0]!
     92c:	00010000 	andeq	r0, r1, r0
     930:	0005a451 	andeq	sl, r5, r1, asr r4
     934:	00064c00 	andeq	r4, r6, r0, lsl #24
     938:	55000100 	strpl	r0, [r0, #-256]	; 0xffffff00
	...
     948:	00000590 	muleq	r0, r0, r5
     94c:	000005a0 	andeq	r0, r0, r0, lsr #11
     950:	a0520001 	subsge	r0, r2, r1
     954:	4c000005 	stcmi	0, cr0, [r0], {5}
     958:	01000006 	tsteq	r0, r6
     95c:	00005400 	andeq	r5, r0, r0, lsl #8
     960:	00000000 	andeq	r0, r0, r0
     964:	00020000 	andeq	r0, r2, r0
     968:	00000000 	andeq	r0, r0, r0
     96c:	05a80000 	streq	r0, [r8, #0]!
     970:	05b00000 	ldreq	r0, [r0, #0]!
     974:	00020000 	andeq	r0, r2, r0
     978:	05b09f30 	ldreq	r9, [r0, #3888]!	; 0xf30
     97c:	05b80000 	ldreq	r0, [r8, #0]!
     980:	00010000 	andeq	r0, r1, r0
     984:	0005c852 	andeq	ip, r5, r2, asr r8
     988:	00061800 	andeq	r1, r6, r0, lsl #16
     98c:	52000100 	andpl	r0, r0, #0
     990:	00000628 	andeq	r0, r0, r8, lsr #12
     994:	0000062b 	andeq	r0, r0, fp, lsr #12
     998:	00520001 	subseq	r0, r2, r1
	...
     9a4:	d8000000 	stmdale	r0, {}	; <UNPREDICTABLE>
     9a8:	ef000004 	svc	0x00000004
     9ac:	01000004 	tsteq	r0, r4
     9b0:	04ef5000 	strbteq	r5, [pc], #0	; 9b8 <__code_start__-0x7648>
     9b4:	05900000 	ldreq	r0, [r0]
     9b8:	00040000 	andeq	r0, r4, r0
     9bc:	9f5001f3 	svcls	0x005001f3
	...
     9cc:	000004d8 	ldrdeq	r0, [r0], -r8
     9d0:	000004ec 	andeq	r0, r0, ip, ror #9
     9d4:	ec510001 	mrrc	0, 0, r0, r1, cr1
     9d8:	90000004 	andls	r0, r0, r4
     9dc:	01000005 	tsteq	r0, r5
     9e0:	00005500 	andeq	r5, r0, r0, lsl #10
	...
     9ec:	04d80000 	ldrbeq	r0, [r8], #0
     9f0:	04e80000 	strbteq	r0, [r8], #0
     9f4:	00010000 	andeq	r0, r1, r0
     9f8:	0004e852 	andeq	lr, r4, r2, asr r8
     9fc:	00059000 	andeq	r9, r5, r0
     a00:	54000100 	strpl	r0, [r0], #-256	; 0xffffff00
	...
     a0c:	00000002 	andeq	r0, r0, r2
     a10:	00000000 	andeq	r0, r0, r0
     a14:	000004f0 	strdeq	r0, [r0], -r0	; <UNPREDICTABLE>
     a18:	000004f8 	strdeq	r0, [r0], -r8
     a1c:	9f300002 	svcls	0x00300002
     a20:	000004f8 	strdeq	r0, [r0], -r8
     a24:	00000500 	andeq	r0, r0, r0, lsl #10
     a28:	10520001 	subsne	r0, r2, r1
     a2c:	60000005 	andvs	r0, r0, r5
     a30:	01000005 	tsteq	r0, r5
     a34:	05705200 	ldrbeq	r5, [r0, #-512]!	; 0xfffffe00
     a38:	05730000 	ldrbeq	r0, [r3, #-0]!
     a3c:	00010000 	andeq	r0, r1, r0
     a40:	00000052 	andeq	r0, r0, r2, asr r0
	...
     a4c:	68000000 	stmdavs	r0, {}	; <UNPREDICTABLE>
     a50:	7f000001 	svcvc	0x00000001
     a54:	01000001 	tsteq	r0, r1
     a58:	017f5000 	cmneq	pc, r0
     a5c:	03080000 	movweq	r0, #32768	; 0x8000
     a60:	00010000 	andeq	r0, r1, r0
     a64:	00030856 	andeq	r0, r3, r6, asr r8
     a68:	00033c00 	andeq	r3, r3, r0, lsl #24
     a6c:	f3000400 	vshl.u8	d0, d0, d0
     a70:	009f5001 	addseq	r5, pc, r1
	...
     a84:	00016800 	andeq	r6, r1, r0, lsl #16
     a88:	00017f00 	andeq	r7, r1, r0, lsl #30
     a8c:	51000100 	mrspl	r0, (UNDEF: 16)
     a90:	0000017f 	andeq	r0, r0, pc, ror r1
     a94:	00000220 	andeq	r0, r0, r0, lsr #4
     a98:	20550001 	subscs	r0, r5, r1
     a9c:	88000002 	stmdahi	r0, {r1}
     aa0:	04000002 	streq	r0, [r0], #-2
     aa4:	5101f300 	mrspl	pc, SP_irq	; <UNPREDICTABLE>
     aa8:	0002889f 	muleq	r2, pc, r8	; <UNPREDICTABLE>
     aac:	0002e800 	andeq	lr, r2, r0, lsl #16
     ab0:	55000100 	strpl	r0, [r0, #-256]	; 0xffffff00
     ab4:	000002e8 	andeq	r0, r0, r8, ror #5
     ab8:	0000033c 	andeq	r0, r0, ip, lsr r3
     abc:	01f30004 	mvnseq	r0, r4
     ac0:	00009f51 	andeq	r9, r0, r1, asr pc
	...
     ad0:	00000168 	andeq	r0, r0, r8, ror #2
     ad4:	0000017f 	andeq	r0, r0, pc, ror r1
     ad8:	7f520001 	svcvc	0x00520001
     adc:	08000001 	stmdaeq	r0, {r0}
     ae0:	01000003 	tsteq	r0, r3
     ae4:	03085400 	movweq	r5, #33792	; 0x8400
     ae8:	033c0000 	teqeq	ip, #0, 0
     aec:	00040000 	andeq	r0, r4, r0
     af0:	9f5201f3 	svcls	0x005201f3
	...
     afc:	02300000 	eorseq	r0, r0, #0, 0
     b00:	02340000 	eorseq	r0, r4, #0, 0
     b04:	00010000 	andeq	r0, r1, r0
     b08:	00000053 	andeq	r0, r0, r3, asr r0
	...
     b14:	00012000 	andeq	r2, r1, r0
     b18:	00012700 	andeq	r2, r1, r0, lsl #14
     b1c:	50000100 	andpl	r0, r0, r0, lsl #2
     b20:	00000127 	andeq	r0, r0, r7, lsr #2
     b24:	00000130 	andeq	r0, r0, r0, lsr r1
     b28:	01f30004 	mvnseq	r0, r4
     b2c:	00009f50 	andeq	r9, r0, r0, asr pc
	...
     b38:	00000010 	andeq	r0, r0, r0, lsl r0
     b3c:	00000014 	andeq	r0, r0, r4, lsl r0
     b40:	00500001 	subseq	r0, r0, r1
	...
     b4c:	58000000 	stmdapl	r0, {}	; <UNPREDICTABLE>
     b50:	5f000001 	svcpl	0x00000001
     b54:	01000001 	tsteq	r0, r1
     b58:	015f5000 	cmpeq	pc, r0
     b5c:	01680000 	cmneq	r8, r0
     b60:	00040000 	andeq	r0, r4, r0
     b64:	9f5001f3 	svcls	0x005001f3
	...
     b70:	01000000 	mrseq	r0, (UNDEF: 0)
     b74:	00000000 	andeq	r0, r0, r0
     b78:	00000004 	andeq	r0, r0, r4
     b7c:	0c500001 	mrrceq	0, 0, r0, r0, cr1	; <UNPREDICTABLE>
     b80:	0c000000 	stceq	0, cr0, [r0], {-0}
     b84:	01000000 	mrseq	r0, (UNDEF: 0)
     b88:	00005000 	andeq	r5, r0, r0
	...
     b98:	00000170 	andeq	r0, r0, r0, ror r1
     b9c:	0000017c 	andeq	r0, r0, ip, ror r1
     ba0:	7c500001 	mrrcvc	0, 0, r0, r0, cr1	; <UNPREDICTABLE>
     ba4:	88000001 	stmdahi	r0, {r0}
     ba8:	01000001 	tsteq	r0, r1
     bac:	01885400 	orreq	r5, r8, r0, lsl #8
     bb0:	01980000 	orrseq	r0, r8, r0
     bb4:	00040000 	andeq	r0, r4, r0
     bb8:	9f5001f3 	svcls	0x005001f3
	...
     bcc:	01780000 	cmneq	r8, r0
     bd0:	017c0000 	cmneq	ip, r0
     bd4:	000b0000 	andeq	r0, fp, r0
     bd8:	25350070 	ldrcs	r0, [r5, #-112]!	; 0xffffff90
     bdc:	8080b423 	addhi	fp, r0, r3, lsr #8
     be0:	7c9f0281 	lfmvc	f0, 4, [pc], {129}	; 0x81
     be4:	80000001 	andhi	r0, r0, r1
     be8:	0b000001 	bleq	bf4 <__code_start__-0x740c>
     bec:	35007400 	strcc	r7, [r0, #-1024]	; 0xfffffc00
     bf0:	80b42325 	adcshi	r2, r4, r5, lsr #6
     bf4:	9f028180 	svcls	0x00028180
     bf8:	00000180 	andeq	r0, r0, r0, lsl #3
     bfc:	00000183 	andeq	r0, r0, r3, lsl #3
     c00:	83500001 	cmphi	r0, #1, 0
     c04:	88000001 	stmdahi	r0, {r0}
     c08:	0b000001 	bleq	c14 <__code_start__-0x73ec>
     c0c:	35007400 	strcc	r7, [r0, #-1024]	; 0xfffffc00
     c10:	80b42325 	adcshi	r2, r4, r5, lsr #6
     c14:	9f028180 	svcls	0x00028180
     c18:	00000188 	andeq	r0, r0, r8, lsl #3
     c1c:	00000198 	muleq	r0, r8, r1
     c20:	01f3000c 	mvnseq	r0, ip
     c24:	23253550 			; <UNDEFINED> instruction: 0x23253550
     c28:	818080b4 	strhhi	r8, [r0, r4]
     c2c:	00009f02 	andeq	r9, r0, r2, lsl #30
     c30:	00000000 	andeq	r0, r0, r0
     c34:	00010000 	andeq	r0, r1, r0
     c38:	00000000 	andeq	r0, r0, r0
     c3c:	00000178 	andeq	r0, r0, r8, ror r1
     c40:	0000017c 	andeq	r0, r0, ip, ror r1
     c44:	00700005 	rsbseq	r0, r0, r5
     c48:	7c9f1a4f 	vldmiavc	pc, {s2-s80}
     c4c:	88000001 	stmdahi	r0, {r0}
     c50:	05000001 	streq	r0, [r0, #-1]
     c54:	4f007400 	svcmi	0x00007400
     c58:	01889f1a 	orreq	r9, r8, sl, lsl pc
     c5c:	01980000 	orrseq	r0, r8, r0
     c60:	00010000 	andeq	r0, r1, r0
     c64:	00000054 	andeq	r0, r0, r4, asr r0
	...
     c78:	00014000 	andeq	r4, r1, r0
     c7c:	00015400 	andeq	r5, r1, r0, lsl #8
     c80:	50000100 	andpl	r0, r0, r0, lsl #2
     c84:	00000154 	andeq	r0, r0, r4, asr r1
     c88:	00000158 	andeq	r0, r0, r8, asr r1
     c8c:	58510001 	ldmdapl	r1, {r0}^
     c90:	5c000001 	stcpl	0, cr0, [r0], {1}
     c94:	04000001 	streq	r0, [r0], #-1
     c98:	5001f300 	andpl	pc, r1, r0, lsl #6
     c9c:	00015c9f 	muleq	r1, pc, ip	; <UNPREDICTABLE>
     ca0:	00016000 	andeq	r6, r1, r0
     ca4:	50000100 	andpl	r0, r0, r0, lsl #2
     ca8:	00000160 	andeq	r0, r0, r0, ror #2
     cac:	00000164 	andeq	r0, r0, r4, ror #2
     cb0:	64510001 	ldrbvs	r0, [r1], #-1
     cb4:	70000001 	andvc	r0, r0, r1
     cb8:	04000001 	streq	r0, [r0], #-1
     cbc:	5001f300 	andpl	pc, r1, r0, lsl #6
     cc0:	0000009f 	muleq	r0, pc, r0	; <UNPREDICTABLE>
	...
     ccc:	00014000 	andeq	r4, r1, r0
     cd0:	00014c00 	andeq	r4, r1, r0, lsl #24
     cd4:	51000100 	mrspl	r0, (UNDEF: 16)
     cd8:	0000014c 	andeq	r0, r0, ip, asr #2
     cdc:	00000170 	andeq	r0, r0, r0, ror r1
     ce0:	01f30004 	mvnseq	r0, r4
     ce4:	00009f51 	andeq	r9, r0, r1, asr pc
     ce8:	00000000 	andeq	r0, r0, r0
     cec:	00010000 	andeq	r0, r1, r0
     cf0:	00000000 	andeq	r0, r0, r0
     cf4:	00000150 	andeq	r0, r0, r0, asr r1
     cf8:	00000154 	andeq	r0, r0, r4, asr r1
     cfc:	54500001 	ldrbpl	r0, [r0], #-1
     d00:	58000001 	stmdapl	r0, {r0}
     d04:	01000001 	tsteq	r0, r1
     d08:	01585100 	cmpeq	r8, r0, lsl #2
     d0c:	015c0000 	cmpeq	ip, r0
     d10:	00040000 	andeq	r0, r4, r0
     d14:	9f5001f3 	svcls	0x005001f3
	...
     d20:	00000002 	andeq	r0, r0, r2
     d24:	015c0000 	cmpeq	ip, r0
     d28:	01600000 	cmneq	r0, r0
     d2c:	00010000 	andeq	r0, r1, r0
     d30:	00016050 	andeq	r6, r1, r0, asr r0
     d34:	00016400 	andeq	r6, r1, r0, lsl #8
     d38:	51000100 	mrspl	r0, (UNDEF: 16)
     d3c:	00000164 	andeq	r0, r0, r4, ror #2
     d40:	00000170 	andeq	r0, r0, r0, ror r1
     d44:	01f30004 	mvnseq	r0, r4
     d48:	00009f50 	andeq	r9, r0, r0, asr pc
	...
     d58:	000000e8 	andeq	r0, r0, r8, ror #1
     d5c:	00000108 	andeq	r0, r0, r8, lsl #2
     d60:	08500001 	ldmdaeq	r0, {r0}^
     d64:	28000001 	stmdacs	r0, {r0}
     d68:	01000001 	tsteq	r0, r1
     d6c:	01285400 			; <UNDEFINED> instruction: 0x01285400
     d70:	01400000 	mrseq	r0, (UNDEF: 64)
     d74:	00040000 	andeq	r0, r4, r0
     d78:	9f5001f3 	svcls	0x005001f3
	...
     d84:	00000002 	andeq	r0, r0, r2
     d88:	00e80000 	rsceq	r0, r8, r0
     d8c:	01080000 	mrseq	r0, (UNDEF: 8)
     d90:	00010000 	andeq	r0, r1, r0
     d94:	00010850 	andeq	r0, r1, r0, asr r8
     d98:	00012800 	andeq	r2, r1, r0, lsl #16
     d9c:	54000100 	strpl	r0, [r0], #-256	; 0xffffff00
     da0:	00000128 	andeq	r0, r0, r8, lsr #2
     da4:	00000140 	andeq	r0, r0, r0, asr #2
     da8:	01f30004 	mvnseq	r0, r4
     dac:	00009f50 	andeq	r9, r0, r0, asr pc
	...
     dbc:	000000f0 	strdeq	r0, [r0], -r0	; <UNPREDICTABLE>
     dc0:	00000108 	andeq	r0, r0, r8, lsl #2
     dc4:	08500001 	ldmdaeq	r0, {r0}^
     dc8:	28000001 	stmdacs	r0, {r0}
     dcc:	01000001 	tsteq	r0, r1
     dd0:	01285400 			; <UNDEFINED> instruction: 0x01285400
     dd4:	01400000 	mrseq	r0, (UNDEF: 64)
     dd8:	00040000 	andeq	r0, r4, r0
     ddc:	9f5001f3 	svcls	0x005001f3
	...
     de8:	00000003 	andeq	r0, r0, r3
     dec:	00f00000 	rscseq	r0, r0, r0
     df0:	01080000 	mrseq	r0, (UNDEF: 8)
     df4:	00070000 	andeq	r0, r7, r0
     df8:	1d3a0070 	ldcne	0, cr0, [sl, #-448]!	; 0xfffffe40
     dfc:	089f1e33 	ldmeq	pc, {r0, r1, r4, r5, r9, sl, fp, ip}	; <UNPREDICTABLE>
     e00:	28000001 	stmdacs	r0, {r0}
     e04:	07000001 	streq	r0, [r0, -r1]
     e08:	3a007400 	bcc	1de10 <__bss_end__+0x13348>
     e0c:	9f1e331d 	svcls	0x001e331d
     e10:	00000128 	andeq	r0, r0, r8, lsr #2
     e14:	00000140 	andeq	r0, r0, r0, asr #2
     e18:	01f30008 	mvnseq	r0, r8
     e1c:	331d3a50 	tstcc	sp, #80, 20	; 0x50000
     e20:	00009f1e 	andeq	r9, r0, lr, lsl pc
	...
     e30:	00000110 	andeq	r0, r0, r0, lsl r1
     e34:	00000138 	andeq	r0, r0, r8, lsr r1
     e38:	38560001 	ldmdacc	r6, {r0}^
     e3c:	3b000001 	blcc	e48 <__code_start__-0x71b8>
     e40:	01000001 	tsteq	r0, r1
     e44:	013b5000 	teqeq	fp, r0
     e48:	01400000 	mrseq	r0, (UNDEF: 64)
     e4c:	00260000 	eoreq	r0, r6, r0
     e50:	f75001f3 			; <UNDEFINED> instruction: 0xf75001f3
     e54:	f425f72c 	vld1.8	{d15}, [r5 :128], ip
     e58:	cccd0825 	stclgt	8, cr0, [sp], {37}	; 0x25
     e5c:	0000cccc 	andeq	ip, r0, ip, asr #25
     e60:	081e0000 	ldmdaeq	lr, {}	; <UNPREDICTABLE>
     e64:	2525f720 	strcs	pc, [r5, #-1824]!	; 0xfffff8e0
     e68:	00f72cf7 	ldrshteq	r2, [r7], #199	; 0xc7
     e6c:	80232533 	eorhi	r2, r3, r3, lsr r5
     e70:	3240a080 	subcc	sl, r0, #128, 0	; 0x80
     e74:	00009f24 	andeq	r9, r0, r4, lsr #30
     e78:	00000000 	andeq	r0, r0, r0
     e7c:	01000000 	mrseq	r0, (UNDEF: 0)
     e80:	00000001 	andeq	r0, r0, r1
     e84:	01200000 			; <UNDEFINED> instruction: 0x01200000
     e88:	01200000 			; <UNDEFINED> instruction: 0x01200000
     e8c:	00010000 	andeq	r0, r1, r0
     e90:	00012050 	andeq	r2, r1, r0, asr r0
     e94:	00012800 	andeq	r2, r1, r0, lsl #16
     e98:	37000d00 	strcc	r0, [r0, -r0, lsl #26]
     e9c:	1d3a0074 	ldcne	0, cr0, [sl, #-464]!	; 0xfffffe30
     ea0:	20241e33 	eorcs	r1, r4, r3, lsr lr
     ea4:	9f1a0070 	svcls	0x001a0070
     ea8:	00000128 	andeq	r0, r0, r8, lsr #2
     eac:	00000130 	andeq	r0, r0, r0, lsr r1
     eb0:	f337000e 	vhadd.u<illegal width 64>	d0, d7, d14
     eb4:	1d3a5001 	ldcne	0, cr5, [sl, #-4]!
     eb8:	20241e33 	eorcs	r1, r4, r3, lsr lr
     ebc:	9f1a0070 	svcls	0x001a0070
     ec0:	00000130 	andeq	r0, r0, r0, lsr r1
     ec4:	0000013b 	andeq	r0, r0, fp, lsr r1
     ec8:	f337000e 	vhadd.u<illegal width 64>	d0, d7, d14
     ecc:	1d3a5001 	ldcne	0, cr5, [sl, #-4]!
     ed0:	20241e33 	eorcs	r1, r4, r3, lsr lr
     ed4:	9f1a0073 	svcls	0x001a0073
	...
     ee4:	00000060 	andeq	r0, r0, r0, rrx
     ee8:	00000090 	muleq	r0, r0, r0
     eec:	90500001 	subsls	r0, r0, r1
     ef0:	b8000000 	stmdalt	r0, {}	; <UNPREDICTABLE>
     ef4:	04000000 	streq	r0, [r0], #-0
     ef8:	5001f300 	andpl	pc, r1, r0, lsl #6
     efc:	0000009f 	muleq	r0, pc, r0	; <UNPREDICTABLE>
     f00:	00000000 	andeq	r0, r0, r0
     f04:	00000200 	andeq	r0, r0, r0, lsl #4
     f08:	00006000 	andeq	r6, r0, r0
     f0c:	00009000 	andeq	r9, r0, r0
     f10:	50000100 	andpl	r0, r0, r0, lsl #2
     f14:	00000090 	muleq	r0, r0, r0
     f18:	000000b8 	strheq	r0, [r0], -r8
     f1c:	01f30004 	mvnseq	r0, r4
     f20:	00009f50 	andeq	r9, r0, r0, asr pc
	...
     f2c:	00680000 	rsbeq	r0, r8, r0
     f30:	00900000 	addseq	r0, r0, r0
     f34:	00010000 	andeq	r0, r1, r0
     f38:	00009050 	andeq	r9, r0, r0, asr r0
     f3c:	0000b800 	andeq	fp, r0, r0, lsl #16
     f40:	f3000400 	vshl.u8	d0, d0, d0
     f44:	009f5001 	addseq	r5, pc, r1
	...
     f50:	a0000000 	andge	r0, r0, r0
     f54:	b0000000 	andlt	r0, r0, r0
     f58:	01000000 	mrseq	r0, (UNDEF: 0)
     f5c:	00b05400 	adcseq	r5, r0, r0, lsl #8
     f60:	00b80000 	adcseq	r0, r8, r0
     f64:	00290000 	eoreq	r0, r9, r0
     f68:	f35001f3 	vbsl	q8, q8, <illegal reg q9.5>
     f6c:	2cf75001 	ldclcs	0, cr5, [r7], #4
     f70:	25f425f7 	ldrbcs	r2, [r4, #1527]!	; 0x5f7
     f74:	cccccd08 	stclgt	13, cr12, [ip], {8}
     f78:	000000cc 	andeq	r0, r0, ip, asr #1
     f7c:	20081e00 	andcs	r1, r8, r0, lsl #28
     f80:	f72525f7 			; <UNDEFINED> instruction: 0xf72525f7
     f84:	3300f72c 	movwcc	pc, #1836	; 0x72c	; <UNPREDICTABLE>
     f88:	311e3525 	tstcc	lr, r5, lsr #10
     f8c:	1e331c24 	cdpne	12, 3, cr1, cr3, cr4, {1}
     f90:	0000009f 	muleq	r0, pc, r0	; <UNPREDICTABLE>
     f94:	00000000 	andeq	r0, r0, r0
     f98:	00000100 	andeq	r0, r0, r0, lsl #2
     f9c:	a0000000 	andge	r0, r0, r0
     fa0:	b0000000 	andlt	r0, r0, r0
     fa4:	01000000 	mrseq	r0, (UNDEF: 0)
     fa8:	00b05500 	adcseq	r5, r0, r0, lsl #10
     fac:	00b30000 	adcseq	r0, r3, r0
     fb0:	00010000 	andeq	r0, r1, r0
     fb4:	0000b350 	andeq	fp, r0, r0, asr r3
     fb8:	0000b800 	andeq	fp, r0, r0, lsl #16
     fbc:	f3002600 	vmax.u8	d2, d0, d0
     fc0:	2cf75001 	ldclcs	0, cr5, [r7], #4
     fc4:	25f425f7 	ldrbcs	r2, [r4, #1527]!	; 0x5f7
     fc8:	cccccd08 	stclgt	13, cr12, [ip], {8}
     fcc:	000000cc 	andeq	r0, r0, ip, asr #1
     fd0:	20081e00 	andcs	r1, r8, r0, lsl #28
     fd4:	f72525f7 			; <UNDEFINED> instruction: 0xf72525f7
     fd8:	3300f72c 	movwcc	pc, #1836	; 0x72c	; <UNPREDICTABLE>
     fdc:	80802325 	addhi	r2, r0, r5, lsr #6
     fe0:	243240a0 	ldrtcs	r4, [r2], #-160	; 0xffffff60
     fe4:	0000009f 	muleq	r0, pc, r0	; <UNPREDICTABLE>
     fe8:	00000000 	andeq	r0, r0, r0
     fec:	00000200 	andeq	r0, r0, r0, lsl #4
     ff0:	00000101 	andeq	r0, r0, r1, lsl #2
     ff4:	0000a000 	andeq	sl, r0, r0
     ff8:	0000a400 	andeq	sl, r0, r0, lsl #8
     ffc:	50000100 	andpl	r0, r0, r0, lsl #2
    1000:	000000a4 	andeq	r0, r0, r4, lsr #1
    1004:	000000a4 	andeq	r0, r0, r4, lsr #1
    1008:	a4530001 	ldrbge	r0, [r3], #-1
    100c:	a8000000 	stmdage	r0, {}	; <UNPREDICTABLE>
    1010:	08000000 	stmdaeq	r0, {}	; <UNPREDICTABLE>
    1014:	00743100 	rsbseq	r3, r4, r0, lsl #2
    1018:	21007324 	tstcs	r0, r4, lsr #6
    101c:	0000a89f 	muleq	r0, pc, r8	; <UNPREDICTABLE>
    1020:	0000b300 	andeq	fp, r0, r0, lsl #6
    1024:	51000100 	mrspl	r0, (UNDEF: 16)
	...
    1038:	0000003c 	andeq	r0, r0, ip, lsr r0
    103c:	3c500001 	mrrccc	0, 0, r0, r0, cr1	; <UNPREDICTABLE>
    1040:	60000000 	andvs	r0, r0, r0
    1044:	04000000 	streq	r0, [r0], #-0
    1048:	5001f300 	andpl	pc, r1, r0, lsl #6
    104c:	0000009f 	muleq	r0, pc, r0	; <UNPREDICTABLE>
	...
    105c:	00003f00 	andeq	r3, r0, r0, lsl #30
    1060:	51000100 	mrspl	r0, (UNDEF: 16)
    1064:	0000003f 	andeq	r0, r0, pc, lsr r0
    1068:	00000060 	andeq	r0, r0, r0, rrx
    106c:	01f30004 	mvnseq	r0, r4
    1070:	00009f51 	andeq	r9, r0, r1, asr pc
	...
    107c:	00080000 	andeq	r0, r8, r0
    1080:	003f0000 	eorseq	r0, pc, r0
    1084:	00010000 	andeq	r0, r1, r0
    1088:	00003f51 	andeq	r3, r0, r1, asr pc
    108c:	00006000 	andeq	r6, r0, r0
    1090:	f3000400 	vshl.u8	d0, d0, d0
    1094:	009f5101 	addseq	r5, pc, r1, lsl #2
	...
    10a0:	08000000 	stmdaeq	r0, {}	; <UNPREDICTABLE>
    10a4:	3c000000 	stccc	0, cr0, [r0], {-0}
    10a8:	01000000 	mrseq	r0, (UNDEF: 0)
    10ac:	003c5000 	eorseq	r5, ip, r0
    10b0:	00600000 	rsbeq	r0, r0, r0
    10b4:	00040000 	andeq	r0, r4, r0
    10b8:	9f5001f3 	svcls	0x005001f3
	...
    10c8:	00000048 	andeq	r0, r0, r8, asr #32
    10cc:	00000058 	andeq	r0, r0, r8, asr r0
    10d0:	58540001 	ldmdapl	r4, {r0}^
    10d4:	60000000 	andvs	r0, r0, r0
    10d8:	29000000 	stmdbcs	r0, {}	; <UNPREDICTABLE>
    10dc:	5001f300 	andpl	pc, r1, r0, lsl #6
    10e0:	f75001f3 			; <UNDEFINED> instruction: 0xf75001f3
    10e4:	f425f72c 	vld1.8	{d15}, [r5 :128], ip
    10e8:	cccd0825 	stclgt	8, cr0, [sp], {37}	; 0x25
    10ec:	0000cccc 	andeq	ip, r0, ip, asr #25
    10f0:	081e0000 	ldmdaeq	lr, {}	; <UNPREDICTABLE>
    10f4:	2525f720 	strcs	pc, [r5, #-1824]!	; 0xfffff8e0
    10f8:	00f72cf7 	ldrshteq	r2, [r7], #199	; 0xc7
    10fc:	1e352533 	mrcne	5, 1, r2, cr5, cr3, {1}
    1100:	331c2431 	tstcc	ip, #822083584	; 0x31000000
    1104:	00009f1e 	andeq	r9, r0, lr, lsl pc
    1108:	00000000 	andeq	r0, r0, r0
    110c:	00010000 	andeq	r0, r1, r0
    1110:	00000000 	andeq	r0, r0, r0
    1114:	00000048 	andeq	r0, r0, r8, asr #32
    1118:	00000058 	andeq	r0, r0, r8, asr r0
    111c:	58560001 	ldmdapl	r6, {r0}^
    1120:	5b000000 	blpl	1128 <__code_start__-0x6ed8>
    1124:	01000000 	mrseq	r0, (UNDEF: 0)
    1128:	005b5000 	subseq	r5, fp, r0
    112c:	00600000 	rsbeq	r0, r0, r0
    1130:	00260000 	eoreq	r0, r6, r0
    1134:	f75001f3 			; <UNDEFINED> instruction: 0xf75001f3
    1138:	f425f72c 	vld1.8	{d15}, [r5 :128], ip
    113c:	cccd0825 	stclgt	8, cr0, [sp], {37}	; 0x25
    1140:	0000cccc 	andeq	ip, r0, ip, asr #25
    1144:	081e0000 	ldmdaeq	lr, {}	; <UNPREDICTABLE>
    1148:	2525f720 	strcs	pc, [r5, #-1824]!	; 0xfffff8e0
    114c:	00f72cf7 	ldrshteq	r2, [r7], #199	; 0xc7
    1150:	80232533 	eorhi	r2, r3, r3, lsr r5
    1154:	3240a080 	subcc	sl, r0, #128, 0	; 0x80
    1158:	00009f24 	andeq	r9, r0, r4, lsr #30
    115c:	00000000 	andeq	r0, r0, r0
    1160:	00020000 	andeq	r0, r2, r0
    1164:	00010100 	andeq	r0, r1, r0, lsl #2
    1168:	00480000 	subeq	r0, r8, r0
    116c:	004c0000 	subeq	r0, ip, r0
    1170:	00010000 	andeq	r0, r1, r0
    1174:	00004c50 	andeq	r4, r0, r0, asr ip
    1178:	00004c00 	andeq	r4, r0, r0, lsl #24
    117c:	51000100 	mrspl	r0, (UNDEF: 16)
    1180:	0000004c 	andeq	r0, r0, ip, asr #32
    1184:	00000050 	andeq	r0, r0, r0, asr r0
    1188:	0075000c 	rsbseq	r0, r5, ip
    118c:	741aff08 	ldrvc	pc, [sl], #-3848	; 0xfffff0f8
    1190:	00712400 	rsbseq	r2, r1, r0, lsl #8
    1194:	00509f21 	subseq	r9, r0, r1, lsr #30
    1198:	00540000 	subseq	r0, r4, r0
    119c:	00120000 	andseq	r0, r2, r0
    11a0:	24007437 	strcs	r7, [r0], #-1079	; 0xfffffbc9
    11a4:	1a007020 	bne	1d22c <__bss_end__+0x12764>
    11a8:	ff080075 			; <UNDEFINED> instruction: 0xff080075
    11ac:	2400741a 	strcs	r7, [r0], #-1050	; 0xfffffbe6
    11b0:	00009f21 	andeq	r9, r0, r1, lsr #30
	...
    11c0:	000000b8 	strheq	r0, [r0], -r8
    11c4:	000000c4 	andeq	r0, r0, r4, asr #1
    11c8:	c4500001 	ldrbgt	r0, [r0], #-1
    11cc:	cb000000 	blgt	11d4 <__code_start__-0x6e2c>
    11d0:	01000000 	mrseq	r0, (UNDEF: 0)
    11d4:	00cb5300 	sbceq	r5, fp, r0, lsl #6
    11d8:	00d00000 	sbcseq	r0, r0, r0
    11dc:	00040000 	andeq	r0, r4, r0
    11e0:	9f5001f3 	svcls	0x005001f3
	...
    11f0:	00d00000 	sbcseq	r0, r0, r0
    11f4:	00dc0000 	sbcseq	r0, ip, r0
    11f8:	00010000 	andeq	r0, r1, r0
    11fc:	0000dc50 	andeq	sp, r0, r0, asr ip
    1200:	0000e300 	andeq	lr, r0, r0, lsl #6
    1204:	53000100 	movwpl	r0, #256	; 0x100
    1208:	000000e3 	andeq	r0, r0, r3, ror #1
    120c:	000000e8 	andeq	r0, r0, r8, ror #1
    1210:	01f30004 	mvnseq	r0, r4
    1214:	00009f50 	andeq	r9, r0, r0, asr pc
	...
    1224:	0000002c 	andeq	r0, r0, ip, lsr #32
    1228:	00000034 	andeq	r0, r0, r4, lsr r0
    122c:	34500001 	ldrbcc	r0, [r0], #-1
    1230:	48000000 	stmdami	r0, {}	; <UNPREDICTABLE>
    1234:	01000000 	mrseq	r0, (UNDEF: 0)
    1238:	00485400 	subeq	r5, r8, r0, lsl #8
    123c:	00580000 	subseq	r0, r8, r0
    1240:	00010000 	andeq	r0, r1, r0
    1244:	00000050 	andeq	r0, r0, r0, asr r0
	...
    1250:	00000101 	andeq	r0, r0, r1, lsl #2
    1254:	00000000 	andeq	r0, r0, r0
    1258:	00000c00 	andeq	r0, r0, r0, lsl #24
    125c:	50000100 	andpl	r0, r0, r0, lsl #2
    1260:	0000000c 	andeq	r0, r0, ip
    1264:	00000020 	andeq	r0, r0, r0, lsr #32
    1268:	20540001 	subscs	r0, r4, r1
    126c:	24000000 	strcs	r0, [r0], #-0
    1270:	03000000 	movweq	r0, #0
    1274:	9f017400 	svcls	0x00017400
    1278:	00000024 	andeq	r0, r0, r4, lsr #32
    127c:	00000038 	andeq	r0, r0, r8, lsr r0
    1280:	00540001 	subseq	r0, r4, r1
	...
    1294:	00038800 	andeq	r8, r3, r0, lsl #16
    1298:	00039400 	andeq	r9, r3, r0, lsl #8
    129c:	50000100 	andpl	r0, r0, r0, lsl #2
    12a0:	00000394 	muleq	r0, r4, r3
    12a4:	000003d0 	ldrdeq	r0, [r0], -r0	; <UNPREDICTABLE>
    12a8:	d05b0001 	subsle	r0, fp, r1
    12ac:	20000003 	andcs	r0, r0, r3
    12b0:	04000009 	streq	r0, [r0], #-9
    12b4:	5001f300 	andpl	pc, r1, r0, lsl #6
    12b8:	0009209f 	muleq	r9, pc, r0	; <UNPREDICTABLE>
    12bc:	00092800 	andeq	r2, r9, r0, lsl #16
    12c0:	5b000100 	blpl	16c8 <__code_start__-0x6938>
    12c4:	00000928 	andeq	r0, r0, r8, lsr #18
    12c8:	000009b4 			; <UNDEFINED> instruction: 0x000009b4
    12cc:	01f30004 	mvnseq	r0, r4
    12d0:	00009f50 	andeq	r9, r0, r0, asr pc
	...
    12e0:	03880000 	orreq	r0, r8, #0, 0
    12e4:	03d00000 	bicseq	r0, r0, #0, 0
    12e8:	00010000 	andeq	r0, r1, r0
    12ec:	0003d051 	andeq	sp, r3, r1, asr r0
    12f0:	00092000 	andeq	r2, r9, r0
    12f4:	f3000400 	vshl.u8	d0, d0, d0
    12f8:	209f5101 	addscs	r5, pc, r1, lsl #2
    12fc:	28000009 	stmdacs	r0, {r0, r3}
    1300:	01000009 	tsteq	r0, r9
    1304:	09285100 	stmdbeq	r8!, {r8, ip, lr}
    1308:	09b40000 	ldmibeq	r4!, {}	; <UNPREDICTABLE>
    130c:	00040000 	andeq	r0, r4, r0
    1310:	9f5101f3 	svcls	0x005101f3
	...
    1320:	01000000 	mrseq	r0, (UNDEF: 0)
    1324:	00010000 	andeq	r0, r1, r0
	...
    1334:	00000388 	andeq	r0, r0, r8, lsl #7
    1338:	000003d0 	ldrdeq	r0, [r0], -r0	; <UNPREDICTABLE>
    133c:	d0520001 	subsle	r0, r2, r1
    1340:	00000003 	andeq	r0, r0, r3
    1344:	01000004 	tsteq	r0, r4
    1348:	04145600 	ldreq	r5, [r4], #-1536	; 0xfffffa00
    134c:	04240000 	strteq	r0, [r4], #-0
    1350:	00010000 	andeq	r0, r1, r0
    1354:	00042456 	andeq	r2, r4, r6, asr r4
    1358:	00042800 	andeq	r2, r4, r0, lsl #16
    135c:	76000300 	strvc	r0, [r0], -r0, lsl #6
    1360:	04a89f7f 	strteq	r9, [r8], #3967	; 0xf7f
    1364:	04ac0000 	strteq	r0, [ip], #0
    1368:	00010000 	andeq	r0, r1, r0
    136c:	0004e056 	andeq	lr, r4, r6, asr r0
    1370:	00050400 	andeq	r0, r5, r0, lsl #8
    1374:	56000100 	strpl	r0, [r0], -r0, lsl #2
    1378:	0000057c 	andeq	r0, r0, ip, ror r5
    137c:	00000588 	andeq	r0, r0, r8, lsl #11
    1380:	88530001 	ldmdahi	r3, {r0}^
    1384:	d0000005 	andle	r0, r0, r5
    1388:	03000005 	movweq	r0, #5
    138c:	7dcc9100 	stfvcp	f1, [ip]
    1390:	00000800 	andeq	r0, r0, r0, lsl #16
    1394:	0000080f 	andeq	r0, r0, pc, lsl #16
    1398:	0f530001 	svceq	0x00530001
    139c:	88000008 	stmdahi	r0, {r3}
    13a0:	03000008 	movweq	r0, #8
    13a4:	7dcc9100 	stfvcp	f1, [ip]
    13a8:	00000920 	andeq	r0, r0, r0, lsr #18
    13ac:	00000928 	andeq	r0, r0, r8, lsr #18
    13b0:	48520001 	ldmdami	r2, {r0}^
    13b4:	64000009 	strvs	r0, [r0], #-9
    13b8:	03000009 	movweq	r0, #9
    13bc:	7dcc9100 	stfvcp	f1, [ip]
	...
    13d0:	01000000 	mrseq	r0, (UNDEF: 0)
    13d4:	01000001 	tsteq	r0, r1
    13d8:	00000001 	andeq	r0, r0, r1
    13dc:	00020200 	andeq	r0, r2, r0, lsl #4
    13e0:	00020200 	andeq	r0, r2, r0, lsl #4
    13e4:	00010100 	andeq	r0, r1, r0, lsl #2
    13e8:	00020200 	andeq	r0, r2, r0, lsl #4
    13ec:	00010100 	andeq	r0, r1, r0, lsl #2
	...
    13f8:	00000388 	andeq	r0, r0, r8, lsl #7
    13fc:	000003ac 	andeq	r0, r0, ip, lsr #7
    1400:	ac530001 	mrrcge	0, 0, r0, r3, cr1
    1404:	c0000003 	andgt	r0, r0, r3
    1408:	03000003 	movweq	r0, #3
    140c:	04935300 	ldreq	r5, [r3], #768	; 0x300
    1410:	000003d0 	ldrdeq	r0, [r0], -r0	; <UNPREDICTABLE>
    1414:	000003e8 	andeq	r0, r0, r8, ror #7
    1418:	93580003 	cmpls	r8, #3, 0
    141c:	0003e804 	andeq	lr, r3, r4, lsl #16
    1420:	0004ac00 	andeq	sl, r4, r0, lsl #24
    1424:	58000300 	stmdapl	r0, {r8, r9}
    1428:	04ac0493 	strteq	r0, [ip], #1171	; 0x493
    142c:	04b00000 	ldrteq	r0, [r0], #0
    1430:	00010000 	andeq	r0, r1, r0
    1434:	0004c053 	andeq	ip, r4, r3, asr r0
    1438:	0004c000 	andeq	ip, r4, r0
    143c:	58000300 	stmdapl	r0, {r8, r9}
    1440:	04c00493 	strbeq	r0, [r0], #1171	; 0x493
    1444:	04cc0000 	strbeq	r0, [ip], #0
    1448:	00050000 	andeq	r0, r5, r0
    144c:	939f0478 	orrsls	r0, pc, #120, 8	; 0x78000000
    1450:	0004cc04 	andeq	ip, r4, r4, lsl #24
    1454:	0004e000 	andeq	lr, r4, r0
    1458:	58000300 	stmdapl	r0, {r8, r9}
    145c:	04e00493 	strbteq	r0, [r0], #1171	; 0x493
    1460:	05380000 	ldreq	r0, [r8, #-0]!
    1464:	00030000 	andeq	r0, r3, r0
    1468:	38049358 	stmdacc	r4, {r3, r4, r6, r8, r9, ip, pc}
    146c:	3c000005 	stccc	0, cr0, [r0], {5}
    1470:	05000005 	streq	r0, [r0, #-5]
    1474:	9f797800 	svcls	0x00797800
    1478:	05d00493 	ldrbeq	r0, [r0, #1171]	; 0x493
    147c:	05d00000 	ldrbeq	r0, [r0]
    1480:	00030000 	andeq	r0, r3, r0
    1484:	d0049358 	andle	r9, r4, r8, asr r3
    1488:	d4000005 	strle	r0, [r0], #-5
    148c:	05000005 	streq	r0, [r0, #-5]
    1490:	9f047800 	svcls	0x00047800
    1494:	05f40493 	ldrbeq	r0, [r4, #1171]!	; 0x493
    1498:	05f40000 	ldrbeq	r0, [r4, #0]!
    149c:	00030000 	andeq	r0, r3, r0
    14a0:	f4049358 	vst2.16	{d9-d12}, [r4 :64], r8
    14a4:	fc000005 	stc2	0, cr0, [r0], {5}
    14a8:	05000005 	streq	r0, [r0, #-5]
    14ac:	9f047800 	svcls	0x00047800
    14b0:	05fc0493 	ldrbeq	r0, [ip, #1171]!	; 0x493
    14b4:	05fc0000 	ldrbeq	r0, [ip, #0]!
    14b8:	00030000 	andeq	r0, r3, r0
    14bc:	fc049358 	stc2	3, cr9, [r4], {88}	; 0x58
    14c0:	00000005 	andeq	r0, r0, r5
    14c4:	05000006 	streq	r0, [r0, #-6]
    14c8:	9f047800 	svcls	0x00047800
    14cc:	06000493 			; <UNDEFINED> instruction: 0x06000493
    14d0:	07000000 	streq	r0, [r0, -r0]
    14d4:	00030000 	andeq	r0, r3, r0
    14d8:	00049358 	andeq	r9, r4, r8, asr r3
    14dc:	0c000007 	stceq	0, cr0, [r0], {7}
    14e0:	05000007 	streq	r0, [r0, #-7]
    14e4:	9f047800 	svcls	0x00047800
    14e8:	070c0493 			; <UNDEFINED> instruction: 0x070c0493
    14ec:	07f80000 	ldrbeq	r0, [r8, r0]!
    14f0:	00030000 	andeq	r0, r3, r0
    14f4:	f8049358 			; <UNDEFINED> instruction: 0xf8049358
    14f8:	fc000007 	stc2	0, cr0, [r0], {7}
    14fc:	05000007 	streq	r0, [r0, #-7]
    1500:	9f047800 	svcls	0x00047800
    1504:	07fc0493 			; <UNDEFINED> instruction: 0x07fc0493
    1508:	08000000 	stmdaeq	r0, {}	; <UNPREDICTABLE>
    150c:	00030000 	andeq	r0, r3, r0
    1510:	88049358 	stmdahi	r4, {r3, r4, r6, r8, r9, ip, pc}
    1514:	20000008 	andcs	r0, r0, r8
    1518:	03000009 	movweq	r0, #9
    151c:	04935800 	ldreq	r5, [r3], #2048	; 0x800
    1520:	00000920 	andeq	r0, r0, r0, lsr #18
    1524:	00000928 	andeq	r0, r0, r8, lsr #18
    1528:	93530003 	cmpls	r3, #3, 0
    152c:	00096404 	andeq	r6, r9, r4, lsl #8
    1530:	0009b400 	andeq	fp, r9, r0, lsl #8
    1534:	58000300 	stmdapl	r0, {r8, r9}
    1538:	00000493 	muleq	r0, r3, r4
    153c:	00000000 	andeq	r0, r0, r0
    1540:	00010000 	andeq	r0, r1, r0
    1544:	00000000 	andeq	r0, r0, r0
    1548:	02000000 	andeq	r0, r0, #0, 0
    154c:	00000002 	andeq	r0, r0, r2
    1550:	00010101 	andeq	r0, r1, r1, lsl #2
    1554:	00000000 	andeq	r0, r0, r0
    1558:	000003ac 	andeq	r0, r0, ip, lsr #7
    155c:	000003d0 	ldrdeq	r0, [r0], -r0	; <UNPREDICTABLE>
    1560:	d05b0001 	subsle	r0, fp, r1
    1564:	d4000003 	strle	r0, [r0], #-3
    1568:	01000003 	tsteq	r0, r3
    156c:	03d45400 	bicseq	r5, r4, #0, 8
    1570:	03d80000 	bicseq	r0, r8, #0, 0
    1574:	00030000 	andeq	r0, r3, r0
    1578:	d89f7f74 	ldmle	pc, {r2, r4, r5, r6, r8, r9, sl, fp, ip, sp, lr}	; <UNPREDICTABLE>
    157c:	fc000003 	stc2	0, cr0, [r0], {3}
    1580:	01000003 	tsteq	r0, r3
    1584:	04a85400 	strteq	r5, [r8], #1024	; 0x400
    1588:	04ac0000 	strteq	r0, [ip], #0
    158c:	00010000 	andeq	r0, r1, r0
    1590:	0004ac54 	andeq	sl, r4, r4, asr ip
    1594:	0004b400 	andeq	fp, r4, r0, lsl #8
    1598:	74000300 	strvc	r0, [r0], #-768	; 0xfffffd00
    159c:	04b49f01 	ldrteq	r9, [r4], #3841	; 0xf01
    15a0:	04c00000 	strbeq	r0, [r0], #0
    15a4:	00010000 	andeq	r0, r1, r0
    15a8:	0004e454 	andeq	lr, r4, r4, asr r4
    15ac:	0004f400 	andeq	pc, r4, r0, lsl #8
    15b0:	54000100 	strpl	r0, [r0], #-256	; 0xffffff00
    15b4:	000004f4 	strdeq	r0, [r0], -r4
    15b8:	000004f8 	strdeq	r0, [r0], -r8
    15bc:	01740003 	cmneq	r4, r3
    15c0:	0004f89f 	muleq	r4, pc, r8	; <UNPREDICTABLE>
    15c4:	00050400 	andeq	r0, r5, r0, lsl #8
    15c8:	54000100 	strpl	r0, [r0], #-256	; 0xffffff00
    15cc:	00000920 	andeq	r0, r0, r0, lsr #18
    15d0:	00000928 	andeq	r0, r0, r8, lsr #18
    15d4:	005b0001 	subseq	r0, fp, r1
    15d8:	00000000 	andeq	r0, r0, r0
    15dc:	01000000 	mrseq	r0, (UNDEF: 0)
    15e0:	0003ac00 	andeq	sl, r3, r0, lsl #24
    15e4:	0009b400 	andeq	fp, r9, r0, lsl #8
    15e8:	57000100 	strpl	r0, [r0, -r0, lsl #2]
	...
    15f4:	00000002 	andeq	r0, r0, r2
    15f8:	057c0000 	ldrbeq	r0, [ip, #-0]!
    15fc:	05d00000 	ldrbeq	r0, [r0]
    1600:	00010000 	andeq	r0, r1, r0
    1604:	0008005b 	andeq	r0, r8, fp, asr r0
    1608:	00088800 	andeq	r8, r8, r0, lsl #16
    160c:	5b000100 	blpl	1a14 <__code_start__-0x65ec>
    1610:	00000948 	andeq	r0, r0, r8, asr #18
    1614:	00000964 	andeq	r0, r0, r4, ror #18
    1618:	005b0001 	subseq	r0, fp, r1
    161c:	00000000 	andeq	r0, r0, r0
    1620:	03000000 	movweq	r0, #0
    1624:	00000000 	andeq	r0, r0, r0
    1628:	00057c00 	andeq	r7, r5, r0, lsl #24
    162c:	0005d000 	andeq	sp, r5, r0
    1630:	59000100 	stmdbpl	r0, {r8}
    1634:	00000800 	andeq	r0, r0, r0, lsl #16
    1638:	00000888 	andeq	r0, r0, r8, lsl #17
    163c:	48590001 	ldmdami	r9, {r0}^
    1640:	64000009 	strvs	r0, [r0], #-9
    1644:	01000009 	tsteq	r0, r9
    1648:	00005900 	andeq	r5, r0, r0, lsl #18
    164c:	00000000 	andeq	r0, r0, r0
    1650:	00040000 	andeq	r0, r4, r0
    1654:	00000000 	andeq	r0, r0, r0
    1658:	03ac0000 			; <UNDEFINED> instruction: 0x03ac0000
    165c:	03d00000 	bicseq	r0, r0, #0, 0
    1660:	00010000 	andeq	r0, r1, r0
    1664:	0003d052 	andeq	sp, r3, r2, asr r0
    1668:	00092000 	andeq	r2, r9, r0
    166c:	f3000400 	vshl.u8	d0, d0, d0
    1670:	209f5201 	addscs	r5, pc, r1, lsl #4
    1674:	28000009 	stmdacs	r0, {r0, r3}
    1678:	01000009 	tsteq	r0, r9
    167c:	09285200 	stmdbeq	r8!, {r9, ip, lr}
    1680:	09b40000 	ldmibeq	r4!, {}	; <UNPREDICTABLE>
    1684:	00040000 	andeq	r0, r4, r0
    1688:	9f5201f3 	svcls	0x005201f3
	...
    1694:	00010100 	andeq	r0, r1, r0, lsl #2
    1698:	00000000 	andeq	r0, r0, r0
    169c:	00000001 	andeq	r0, r0, r1
    16a0:	000004e0 	andeq	r0, r0, r0, ror #9
    16a4:	000004e0 	andeq	r0, r0, r0, ror #9
    16a8:	e0500001 	subs	r0, r0, r1
    16ac:	e8000004 	stmda	r0, {r2}
    16b0:	01000004 	tsteq	r0, r4
    16b4:	05b85500 	ldreq	r5, [r8, #1280]!	; 0x500
    16b8:	05d00000 	ldrbeq	r0, [r0]
    16bc:	00010000 	andeq	r0, r1, r0
    16c0:	0005f055 	andeq	pc, r5, r5, asr r0	; <UNPREDICTABLE>
    16c4:	0005f400 	andeq	pc, r5, r0, lsl #8
    16c8:	50000100 	andpl	r0, r0, r0, lsl #2
    16cc:	000007f4 	strdeq	r0, [r0], -r4
    16d0:	000007f8 	strdeq	r0, [r0], -r8
    16d4:	50550001 	subspl	r0, r5, r1
    16d8:	88000008 	stmdahi	r0, {r3}
    16dc:	01000008 	tsteq	r0, r8
    16e0:	00005500 	andeq	r5, r0, r0, lsl #10
    16e4:	00000000 	andeq	r0, r0, r0
    16e8:	00020000 	andeq	r0, r2, r0
    16ec:	00000000 	andeq	r0, r0, r0
    16f0:	04140000 	ldreq	r0, [r4], #-0
    16f4:	04180000 	ldreq	r0, [r8], #-0
    16f8:	00020000 	andeq	r0, r2, r0
    16fc:	04189f30 	ldreq	r9, [r8], #-3888	; 0xfffff0d0
    1700:	041c0000 	ldreq	r0, [ip], #-0
    1704:	00010000 	andeq	r0, r1, r0
    1708:	00042855 	andeq	r2, r4, r5, asr r8
    170c:	00043c00 	andeq	r3, r4, r0, lsl #24
    1710:	55000100 	strpl	r0, [r0, #-256]	; 0xffffff00
    1714:	00000928 	andeq	r0, r0, r8, lsr #18
    1718:	00000930 	andeq	r0, r0, r0, lsr r9
    171c:	00550001 	subseq	r0, r5, r1
    1720:	00000000 	andeq	r0, r0, r0
    1724:	01000000 	mrseq	r0, (UNDEF: 0)
	...
    1730:	04000000 	streq	r0, [r0], #-0
    1734:	84000005 	strhi	r0, [r0], #-5
    1738:	01000005 	tsteq	r0, r5
    173c:	05845600 	streq	r5, [r4, #1536]	; 0x600
    1740:	05880000 	streq	r0, [r8]
    1744:	00030000 	andeq	r0, r3, r0
    1748:	889f7e73 	ldmhi	pc, {r0, r1, r4, r5, r6, r9, sl, fp, ip, sp, lr}	; <UNPREDICTABLE>
    174c:	d0000005 	andle	r0, r0, r5
    1750:	07000005 	streq	r0, [r0, -r5]
    1754:	7dcc9100 	stfvcp	f1, [ip]
    1758:	9f1c3206 	svcls	0x001c3206
    175c:	00000800 	andeq	r0, r0, r0, lsl #16
    1760:	0000081c 	andeq	r0, r0, ip, lsl r8
    1764:	1c560001 	mrrcne	0, 0, r0, r6, cr1
    1768:	88000008 	stmdahi	r0, {r3}
    176c:	07000008 	streq	r0, [r0, -r8]
    1770:	7dcc9100 	stfvcp	f1, [ip]
    1774:	9f1c3206 	svcls	0x001c3206
    1778:	00000948 	andeq	r0, r0, r8, asr #18
    177c:	000009b4 			; <UNDEFINED> instruction: 0x000009b4
    1780:	00560001 	subseq	r0, r6, r1
    1784:	00000000 	andeq	r0, r0, r0
    1788:	04000000 	streq	r0, [r0], #-0
    178c:	14040206 	strne	r0, [r4], #-518	; 0xfffffdfa
    1790:	14000004 	strne	r0, [r0], #-4
    1794:	06000004 	streq	r0, [r0], -r4
    1798:	08007200 	stmdaeq	r0, {r9, ip, sp, lr}
    179c:	289f1aff 	ldmcs	pc, {r0, r1, r2, r3, r4, r5, r6, r7, r9, fp, ip}	; <UNPREDICTABLE>
    17a0:	28000004 	stmdacs	r0, {r2}
    17a4:	06000004 	streq	r0, [r0], -r4
    17a8:	08007200 	stmdaeq	r0, {r9, ip, sp, lr}
    17ac:	009f1aff 			; <UNDEFINED> instruction: 0x009f1aff
    17b0:	00000000 	andeq	r0, r0, r0
    17b4:	02000000 	andeq	r0, r0, #0, 0
    17b8:	00000000 	andeq	r0, r0, r0
    17bc:	0005fc00 	andeq	pc, r5, r0, lsl #24
    17c0:	00070000 	andeq	r0, r7, r0
    17c4:	08000300 	stmdaeq	r0, {r8, r9}
    17c8:	08a89f80 	stmiaeq	r8!, {r7, r8, r9, sl, fp, ip, pc}
    17cc:	08bc0000 	ldmeq	ip!, {}	; <UNPREDICTABLE>
    17d0:	00030000 	andeq	r0, r3, r0
    17d4:	109f8008 	addsne	r8, pc, r8
    17d8:	20000009 	andcs	r0, r0, r9
    17dc:	03000009 	movweq	r0, #9
    17e0:	9f800800 	svcls	0x00800800
	...
    17ec:	00000001 	andeq	r0, r0, r1
    17f0:	05fc0000 	ldrbeq	r0, [ip, #0]!
    17f4:	07000000 	streq	r0, [r0, -r0]
    17f8:	00020000 	andeq	r0, r2, r0
    17fc:	08a89f30 	stmiaeq	r8!, {r4, r5, r8, r9, sl, fp, ip, pc}
    1800:	08bc0000 	ldmeq	ip!, {}	; <UNPREDICTABLE>
    1804:	00020000 	andeq	r0, r2, r0
    1808:	09109f30 	ldmdbeq	r0, {r4, r5, r8, r9, sl, fp, ip, pc}
    180c:	09200000 	stmdbeq	r0!, {}	; <UNPREDICTABLE>
    1810:	00020000 	andeq	r0, r2, r0
    1814:	00009f30 	andeq	r9, r0, r0, lsr pc
    1818:	00000000 	andeq	r0, r0, r0
    181c:	00010000 	andeq	r0, r1, r0
    1820:	00000000 	andeq	r0, r0, r0
    1824:	000005fc 	strdeq	r0, [r0], -ip
    1828:	000006e0 	andeq	r0, r0, r0, ror #13
    182c:	a8550001 	ldmdage	r5, {r0}^
    1830:	bc000008 	stclt	0, cr0, [r0], {8}
    1834:	01000008 	tsteq	r0, r8
    1838:	09105500 	ldmdbeq	r0, {r8, sl, ip, lr}
    183c:	09200000 	stmdbeq	r0!, {}	; <UNPREDICTABLE>
    1840:	00010000 	andeq	r0, r1, r0
    1844:	00000055 	andeq	r0, r0, r5, asr r0
    1848:	00000000 	andeq	r0, r0, r0
    184c:	00000100 	andeq	r0, r0, r0, lsl #2
    1850:	00000000 	andeq	r0, r0, r0
    1854:	0005fc00 	andeq	pc, r5, r0, lsl #24
    1858:	0006e000 	andeq	lr, r6, r0
    185c:	91000400 	tstls	r0, r0, lsl #8
    1860:	e09f7dd0 			; <UNDEFINED> instruction: 0xe09f7dd0
    1864:	00000006 	andeq	r0, r0, r6
    1868:	01000007 	tsteq	r0, r7
    186c:	08a85500 	stmiaeq	r8!, {r8, sl, ip, lr}
    1870:	08bc0000 	ldmeq	ip!, {}	; <UNPREDICTABLE>
    1874:	00040000 	andeq	r0, r4, r0
    1878:	9f7dd091 	svcls	0x007dd091
    187c:	00000910 	andeq	r0, r0, r0, lsl r9
    1880:	00000920 	andeq	r0, r0, r0, lsr #18
    1884:	d0910004 	addsle	r0, r1, r4
    1888:	00009f7d 	andeq	r9, r0, sp, ror pc
    188c:	00000000 	andeq	r0, r0, r0
    1890:	00010000 	andeq	r0, r1, r0
    1894:	00000000 	andeq	r0, r0, r0
    1898:	000005fc 	strdeq	r0, [r0], -ip
    189c:	00000700 	andeq	r0, r0, r0, lsl #14
    18a0:	9f380002 	svcls	0x00380002
    18a4:	000008a8 	andeq	r0, r0, r8, lsr #17
    18a8:	000008bc 			; <UNDEFINED> instruction: 0x000008bc
    18ac:	9f380002 	svcls	0x00380002
    18b0:	00000910 	andeq	r0, r0, r0, lsl r9
    18b4:	00000920 	andeq	r0, r0, r0, lsr #18
    18b8:	9f380002 	svcls	0x00380002
	...
    18c4:	00070704 	andeq	r0, r7, r4, lsl #14
	...
    18d0:	05fc0000 	ldrbeq	r0, [ip, #0]!
    18d4:	05fc0000 	ldrbeq	r0, [ip, #0]!
    18d8:	00040000 	andeq	r0, r4, r0
    18dc:	9f7ed091 	svcls	0x007ed091
    18e0:	000005fc 	strdeq	r0, [r0], -ip
    18e4:	00000678 	andeq	r0, r0, r8, ror r6
    18e8:	d1910004 	orrsle	r0, r1, r4
    18ec:	06789f7e 	uhsub16eq	r9, r8, lr
    18f0:	06d40000 	ldrbeq	r0, [r4], r0
    18f4:	00010000 	andeq	r0, r1, r0
    18f8:	0006d45c 	andeq	sp, r6, ip, asr r4
    18fc:	00070000 	andeq	r0, r7, r0
    1900:	91000400 	tstls	r0, r0, lsl #8
    1904:	a89f7ed1 	ldmge	pc, {r0, r4, r6, r7, r9, sl, fp, ip, sp, lr}	; <UNPREDICTABLE>
    1908:	bc000008 	stclt	0, cr0, [r0], {8}
    190c:	04000008 	streq	r0, [r0], #-8
    1910:	7ed19100 	atnvcs	f1, f0
    1914:	0009109f 	muleq	r9, pc, r0	; <UNPREDICTABLE>
    1918:	00091400 	andeq	r1, r9, r0, lsl #8
    191c:	91000400 	tstls	r0, r0, lsl #8
    1920:	149f7ed1 	ldrne	r7, [pc], #3793	; 1928 <__code_start__-0x66d8>
    1924:	20000009 	andcs	r0, r0, r9
    1928:	01000009 	tsteq	r0, r9
    192c:	00005c00 	andeq	r5, r0, r0, lsl #24
    1930:	00000000 	andeq	r0, r0, r0
    1934:	01040000 	mrseq	r0, (UNDEF: 4)
    1938:	00000100 	andeq	r0, r0, r0, lsl #2
    193c:	00000608 	andeq	r0, r0, r8, lsl #12
    1940:	000006d0 	ldrdeq	r0, [r0], -r0	; <UNPREDICTABLE>
    1944:	a8550001 	ldmdage	r5, {r0}^
    1948:	b8000008 	stmdalt	r0, {r3}
    194c:	01000008 	tsteq	r0, r8
    1950:	09105500 	ldmdbeq	r0, {r8, sl, ip, lr}
    1954:	09200000 	stmdbeq	r0!, {}	; <UNPREDICTABLE>
    1958:	00010000 	andeq	r0, r1, r0
    195c:	00000055 	andeq	r0, r0, r5, asr r0
    1960:	00000000 	andeq	r0, r0, r0
    1964:	00000400 	andeq	r0, r0, r0, lsl #8
    1968:	00010000 	andeq	r0, r1, r0
    196c:	00010000 	andeq	r0, r1, r0
    1970:	00060800 	andeq	r0, r6, r0, lsl #16
    1974:	0006b000 	andeq	fp, r6, r0
    1978:	91000400 	tstls	r0, r0, lsl #8
    197c:	b09f7ed0 			; <UNDEFINED> instruction: 0xb09f7ed0
    1980:	c8000006 	stmdagt	r0, {r1, r2}
    1984:	01000006 	tsteq	r0, r6
    1988:	06c85000 	strbeq	r5, [r8], r0
    198c:	06d00000 	ldrbeq	r0, [r0], r0
    1990:	00040000 	andeq	r0, r4, r0
    1994:	9f7ed091 	svcls	0x007ed091
    1998:	000008a8 	andeq	r0, r0, r8, lsr #17
    199c:	000008b0 			; <UNDEFINED> instruction: 0x000008b0
    19a0:	d0910004 	addsle	r0, r1, r4
    19a4:	08b09f7e 	ldmeq	r0!, {r1, r2, r3, r4, r5, r6, r8, r9, sl, fp, ip, pc}
    19a8:	08b80000 	ldmeq	r8!, {}	; <UNPREDICTABLE>
    19ac:	00010000 	andeq	r0, r1, r0
    19b0:	00091053 	andeq	r1, r9, r3, asr r0
    19b4:	00092000 	andeq	r2, r9, r0
    19b8:	91000400 	tstls	r0, r0, lsl #8
    19bc:	009f7ed0 			; <UNDEFINED> instruction: 0x009f7ed0
    19c0:	00000000 	andeq	r0, r0, r0
    19c4:	04000000 	streq	r0, [r0], #-0
    19c8:	01010000 	mrseq	r0, (UNDEF: 1)
    19cc:	03030101 	movweq	r0, #12545	; 0x3101
    19d0:	00010002 	andeq	r0, r1, r2
    19d4:	08000000 	stmdaeq	r0, {}	; <UNPREDICTABLE>
    19d8:	24000006 	strcs	r0, [r0], #-6
    19dc:	04000006 	streq	r0, [r0], #-6
    19e0:	7ed19100 	atnvcs	f1, f0
    19e4:	0006849f 	muleq	r6, pc, r4	; <UNPREDICTABLE>
    19e8:	00068400 	andeq	r8, r6, r0, lsl #8
    19ec:	50000100 	andpl	r0, r0, r0, lsl #2
    19f0:	00000684 	andeq	r0, r0, r4, lsl #13
    19f4:	00000698 	muleq	r0, r8, r6
    19f8:	01700003 	cmneq	r0, r3
    19fc:	0006989f 	muleq	r6, pc, r8	; <UNPREDICTABLE>
    1a00:	0006a400 	andeq	sl, r6, r0, lsl #8
    1a04:	70000300 	andvc	r0, r0, r0, lsl #6
    1a08:	06a49f02 	strteq	r9, [r4], r2, lsl #30
    1a0c:	06a80000 	strteq	r0, [r8], r0
    1a10:	00030000 	andeq	r0, r3, r0
    1a14:	a89f0370 	ldmge	pc, {r4, r5, r6, r8, r9}	; <UNPREDICTABLE>
    1a18:	b8000008 	stmdalt	r0, {r3}
    1a1c:	04000008 	streq	r0, [r0], #-8
    1a20:	7ed19100 	atnvcs	f1, f0
    1a24:	0009109f 	muleq	r9, pc, r0	; <UNPREDICTABLE>
    1a28:	00091400 	andeq	r1, r9, r0, lsl #8
    1a2c:	91000400 	tstls	r0, r0, lsl #8
    1a30:	149f7ed1 	ldrne	r7, [pc], #3793	; 1a38 <__code_start__-0x65c8>
    1a34:	20000009 	andcs	r0, r0, r9
    1a38:	01000009 	tsteq	r0, r9
    1a3c:	00005c00 	andeq	r5, r0, r0, lsl #24
    1a40:	00000000 	andeq	r0, r0, r0
    1a44:	00060000 	andeq	r0, r6, r0
    1a48:	01010100 	mrseq	r0, (UNDEF: 17)
    1a4c:	02010101 	andeq	r0, r1, #1073741824	; 0x40000000
    1a50:	00000100 	andeq	r0, r0, r0, lsl #2
    1a54:	00000608 	andeq	r0, r0, r8, lsl #12
    1a58:	00000624 	andeq	r0, r0, r4, lsr #12
    1a5c:	9f310002 	svcls	0x00310002
    1a60:	00000684 	andeq	r0, r0, r4, lsl #13
    1a64:	00000694 	muleq	r0, r4, r6
    1a68:	94520001 	ldrbls	r0, [r2], #-1
    1a6c:	a4000006 	strge	r0, [r0], #-6
    1a70:	01000006 	tsteq	r0, r6
    1a74:	06a45900 	strteq	r5, [r4], r0, lsl #18
    1a78:	06a80000 	strteq	r0, [r8], r0
    1a7c:	00010000 	andeq	r0, r1, r0
    1a80:	0006a852 	andeq	sl, r6, r2, asr r8
    1a84:	0006a800 	andeq	sl, r6, r0, lsl #16
    1a88:	72000300 	andvc	r0, r0, #0, 6
    1a8c:	08a89f01 	stmiaeq	r8!, {r0, r8, r9, sl, fp, ip, pc}
    1a90:	08b80000 	ldmeq	r8!, {}	; <UNPREDICTABLE>
    1a94:	00020000 	andeq	r0, r2, r0
    1a98:	09109f31 	ldmdbeq	r0, {r0, r4, r5, r8, r9, sl, fp, ip, pc}
    1a9c:	09200000 	stmdbeq	r0!, {}	; <UNPREDICTABLE>
    1aa0:	00020000 	andeq	r0, r2, r0
    1aa4:	00009f31 	andeq	r9, r0, r1, lsr pc
    1aa8:	00000000 	andeq	r0, r0, r0
    1aac:	06010000 	streq	r0, [r1], -r0
    1ab0:	00010006 	andeq	r0, r1, r6
    1ab4:	000006d0 	ldrdeq	r0, [r0], -r0	; <UNPREDICTABLE>
    1ab8:	000006d0 	ldrdeq	r0, [r0], -r0	; <UNPREDICTABLE>
    1abc:	d0910004 	addsle	r0, r1, r4
    1ac0:	06d09f7e 			; <UNDEFINED> instruction: 0x06d09f7e
    1ac4:	07000000 	streq	r0, [r0, -r0]
    1ac8:	00010000 	andeq	r0, r1, r0
    1acc:	0008b850 	andeq	fp, r8, r0, asr r8
    1ad0:	0008bc00 	andeq	fp, r8, r0, lsl #24
    1ad4:	53000100 	movwpl	r0, #256	; 0x100
	...
    1ae0:	00000801 	andeq	r0, r0, r1, lsl #16
    1ae4:	00010100 	andeq	r0, r1, r0, lsl #2
    1ae8:	06d00701 	ldrbeq	r0, [r0], r1, lsl #14
    1aec:	06d00000 	ldrbeq	r0, [r0], r0
    1af0:	00060000 	andeq	r0, r6, r0
    1af4:	0071007c 	rsbseq	r0, r1, ip, ror r0
    1af8:	06e49f22 	strbteq	r9, [r4], r2, lsr #30
    1afc:	06e80000 	strbteq	r0, [r8], r0
    1b00:	00030000 	andeq	r0, r3, r0
    1b04:	e89f7f73 	ldm	pc, {r0, r1, r4, r5, r6, r8, r9, sl, fp, ip, sp, lr}	; <UNPREDICTABLE>
    1b08:	f0000006 			; <UNDEFINED> instruction: 0xf0000006
    1b0c:	01000006 	tsteq	r0, r6
    1b10:	06f05300 	ldrbteq	r5, [r0], r0, lsl #6
    1b14:	06f80000 	ldrbteq	r0, [r8], r0
    1b18:	00030000 	andeq	r0, r3, r0
    1b1c:	b89f7f73 	ldmlt	pc, {r0, r1, r4, r5, r6, r8, r9, sl, fp, ip, sp, lr}	; <UNPREDICTABLE>
    1b20:	b8000008 	stmdalt	r0, {r3}
    1b24:	04000008 	streq	r0, [r0], #-8
    1b28:	7ed19100 	atnvcs	f1, f0
    1b2c:	0000009f 	muleq	r0, pc, r0	; <UNPREDICTABLE>
    1b30:	00000000 	andeq	r0, r0, r0
    1b34:	01000100 	mrseq	r0, (UNDEF: 16)
    1b38:	0006d000 	andeq	sp, r6, r0
    1b3c:	00070000 	andeq	r0, r7, r0
    1b40:	08000300 	stmdaeq	r0, {r8, r9}
    1b44:	08b89f80 	ldmeq	r8!, {r7, r8, r9, sl, fp, ip, pc}
    1b48:	08bc0000 	ldmeq	ip!, {}	; <UNPREDICTABLE>
    1b4c:	00030000 	andeq	r0, r3, r0
    1b50:	009f8008 	addseq	r8, pc, r8
    1b54:	00000000 	andeq	r0, r0, r0
    1b58:	01000000 	mrseq	r0, (UNDEF: 0)
    1b5c:	00000000 	andeq	r0, r0, r0
    1b60:	00000101 	andeq	r0, r0, r1, lsl #2
    1b64:	01010200 	mrseq	r0, R9_usr
    1b68:	0006d000 	andeq	sp, r6, r0
    1b6c:	0006e000 	andeq	lr, r6, r0
    1b70:	91000400 	tstls	r0, r0, lsl #8
    1b74:	e09f7dd0 			; <UNDEFINED> instruction: 0xe09f7dd0
    1b78:	e4000006 	str	r0, [r0], #-6
    1b7c:	01000006 	tsteq	r0, r6
    1b80:	06e45500 	strbteq	r5, [r4], r0, lsl #10
    1b84:	06e40000 	strbteq	r0, [r4], r0
    1b88:	00030000 	andeq	r0, r3, r0
    1b8c:	e49f0172 	ldr	r0, [pc], #370	; 1b94 <__code_start__-0x646c>
    1b90:	f0000006 			; <UNDEFINED> instruction: 0xf0000006
    1b94:	03000006 	movweq	r0, #6
    1b98:	9f027200 	svcls	0x00027200
    1b9c:	000006f0 	strdeq	r0, [r0], -r0	; <UNPREDICTABLE>
    1ba0:	00000700 	andeq	r0, r0, r0, lsl #14
    1ba4:	01720003 	cmneq	r2, r3
    1ba8:	0007ec9f 	muleq	r7, pc, ip	; <UNPREDICTABLE>
    1bac:	0007f400 	andeq	pc, r7, r0, lsl #8
    1bb0:	73000300 	movwvc	r0, #768	; 0x300
    1bb4:	08b89f01 	ldmeq	r8!, {r0, r8, r9, sl, fp, ip, pc}
    1bb8:	08bc0000 	ldmeq	ip!, {}	; <UNPREDICTABLE>
    1bbc:	00040000 	andeq	r0, r4, r0
    1bc0:	9f7dd091 	svcls	0x007dd091
	...
    1bcc:	08b80004 	ldmeq	r8!, {r2}
    1bd0:	08bc0000 	ldmeq	ip!, {}	; <UNPREDICTABLE>
    1bd4:	00020000 	andeq	r0, r2, r0
    1bd8:	00009f32 	andeq	r9, r0, r2, lsr pc
    1bdc:	00000000 	andeq	r0, r0, r0
    1be0:	00070000 	andeq	r0, r7, r0
    1be4:	00060000 	andeq	r0, r6, r0
    1be8:	000006d0 	ldrdeq	r0, [r0], -r0	; <UNPREDICTABLE>
    1bec:	000006e0 	andeq	r0, r0, r0, ror #13
    1bf0:	d0910004 	addsle	r0, r1, r4
    1bf4:	06e09f7d 			; <UNDEFINED> instruction: 0x06e09f7d
    1bf8:	07000000 	streq	r0, [r0, -r0]
    1bfc:	00010000 	andeq	r0, r1, r0
    1c00:	0008b855 	andeq	fp, r8, r5, asr r8
    1c04:	0008bc00 	andeq	fp, r8, r0, lsl #24
    1c08:	91000400 	tstls	r0, r0, lsl #8
    1c0c:	009f7dd0 			; <UNDEFINED> instruction: 0x009f7dd0
    1c10:	00000000 	andeq	r0, r0, r0
    1c14:	01000000 	mrseq	r0, (UNDEF: 0)
    1c18:	0c000000 	stceq	0, cr0, [r0], {-0}
    1c1c:	ec000007 	stc	0, cr0, [r0], {7}
    1c20:	03000007 	movweq	r0, #7
    1c24:	9f800800 	svcls	0x00800800
    1c28:	00000894 	muleq	r0, r4, r8
    1c2c:	000008a8 	andeq	r0, r0, r8, lsr #17
    1c30:	80080003 	andhi	r0, r8, r3
    1c34:	0000009f 	muleq	r0, pc, r0	; <UNPREDICTABLE>
	...
    1c40:	00070c00 	andeq	r0, r7, r0, lsl #24
    1c44:	0007ec00 	andeq	lr, r7, r0, lsl #24
    1c48:	30000200 	andcc	r0, r0, r0, lsl #4
    1c4c:	0008949f 	muleq	r8, pc, r4	; <UNPREDICTABLE>
    1c50:	0008a800 	andeq	sl, r8, r0, lsl #16
    1c54:	30000200 	andcc	r0, r0, r0, lsl #4
    1c58:	0000009f 	muleq	r0, pc, r0	; <UNPREDICTABLE>
	...
    1c64:	00070c00 	andeq	r0, r7, r0, lsl #24
    1c68:	0007d000 	andeq	sp, r7, r0
    1c6c:	55000100 	strpl	r0, [r0, #-256]	; 0xffffff00
    1c70:	00000894 	muleq	r0, r4, r8
    1c74:	000008a8 	andeq	r0, r0, r8, lsr #17
    1c78:	00550001 	subseq	r0, r5, r1
	...
    1c88:	00070c00 	andeq	r0, r7, r0, lsl #24
    1c8c:	0007d000 	andeq	sp, r7, r0
    1c90:	91000400 	tstls	r0, r0, lsl #8
    1c94:	d09f7dd0 			; <UNDEFINED> instruction: 0xd09f7dd0
    1c98:	ec000007 	stc	0, cr0, [r0], {7}
    1c9c:	01000007 	tsteq	r0, r7
    1ca0:	08945500 	ldmeq	r4, {r8, sl, ip, lr}
    1ca4:	08a80000 	stmiaeq	r8!, {}	; <UNPREDICTABLE>
    1ca8:	00040000 	andeq	r0, r4, r0
    1cac:	9f7dd091 	svcls	0x007dd091
	...
    1cbc:	0000070c 	andeq	r0, r0, ip, lsl #14
    1cc0:	000007ec 	andeq	r0, r0, ip, ror #15
    1cc4:	9f320002 	svcls	0x00320002
    1cc8:	00000894 	muleq	r0, r4, r8
    1ccc:	000008a8 	andeq	r0, r0, r8, lsr #17
    1cd0:	9f320002 	svcls	0x00320002
	...
    1cdc:	00050503 	andeq	r0, r5, r3, lsl #10
    1ce0:	00000000 	andeq	r0, r0, r0
    1ce4:	070c0000 	streq	r0, [ip, -r0]
    1ce8:	070c0000 	streq	r0, [ip, -r0]
    1cec:	00010000 	andeq	r0, r1, r0
    1cf0:	00070c51 	andeq	r0, r7, r1, asr ip
    1cf4:	00071c00 	andeq	r1, r7, r0, lsl #24
    1cf8:	53000100 	movwpl	r0, #256	; 0x100
    1cfc:	0000071c 	andeq	r0, r0, ip, lsl r7
    1d00:	00000724 	andeq	r0, r0, r4, lsr #14
    1d04:	01720003 	cmneq	r2, r3
    1d08:	0007249f 	muleq	r7, pc, r4	; <UNPREDICTABLE>
    1d0c:	0007cc00 	andeq	ip, r7, r0, lsl #24
    1d10:	53000100 	movwpl	r0, #256	; 0x100
    1d14:	00000894 	muleq	r0, r4, r8
    1d18:	000008a8 	andeq	r0, r0, r8, lsr #17
    1d1c:	00530001 	subseq	r0, r3, r1
    1d20:	00000000 	andeq	r0, r0, r0
    1d24:	05000000 	streq	r0, [r0, #-0]
    1d28:	0c000100 	stfeqs	f0, [r0], {-0}
    1d2c:	20000007 	andcs	r0, r0, r7
    1d30:	01000007 	tsteq	r0, r7
    1d34:	07245000 	streq	r5, [r4, -r0]!
    1d38:	072c0000 	streq	r0, [ip, -r0]!
    1d3c:	00010000 	andeq	r0, r1, r0
    1d40:	00000050 	andeq	r0, r0, r0, asr r0
    1d44:	00000000 	andeq	r0, r0, r0
    1d48:	00010300 	andeq	r0, r1, r0, lsl #6
    1d4c:	00072801 	andeq	r2, r7, r1, lsl #16
    1d50:	0007b000 	andeq	fp, r7, r0
    1d54:	55000100 	strpl	r0, [r0, #-256]	; 0xffffff00
    1d58:	00000894 	muleq	r0, r4, r8
    1d5c:	000008a0 	andeq	r0, r0, r0, lsr #17
    1d60:	00550001 	subseq	r0, r5, r1
    1d64:	00000000 	andeq	r0, r0, r0
    1d68:	03000000 	movweq	r0, #0
    1d6c:	28010001 	stmdacs	r1, {r0}
    1d70:	b0000007 	andlt	r0, r0, r7
    1d74:	01000007 	tsteq	r0, r7
    1d78:	08945100 	ldmeq	r4, {r8, ip, lr}
    1d7c:	08a00000 	stmiaeq	r0!, {}	; <UNPREDICTABLE>
    1d80:	00010000 	andeq	r0, r1, r0
    1d84:	00000051 	andeq	r0, r0, r1, asr r0
    1d88:	00000000 	andeq	r0, r0, r0
    1d8c:	00000300 	andeq	r0, r0, r0, lsl #6
    1d90:	01010101 	tsteq	r1, r1, lsl #2
    1d94:	00020303 	andeq	r0, r2, r3, lsl #6
    1d98:	00072801 	andeq	r2, r7, r1, lsl #16
    1d9c:	00075000 	andeq	r5, r7, r0
    1da0:	53000100 	movwpl	r0, #256	; 0x100
    1da4:	00000774 	andeq	r0, r0, r4, ror r7
    1da8:	00000774 	andeq	r0, r0, r4, ror r7
    1dac:	745e0001 	ldrbvc	r0, [lr], #-1
    1db0:	88000007 	stmdahi	r0, {r0, r1, r2}
    1db4:	03000007 	movweq	r0, #7
    1db8:	9f017e00 	svcls	0x00017e00
    1dbc:	00000788 	andeq	r0, r0, r8, lsl #15
    1dc0:	00000794 	muleq	r0, r4, r7
    1dc4:	027e0003 	rsbseq	r0, lr, #3, 0
    1dc8:	0007949f 	muleq	r7, pc, r4	; <UNPREDICTABLE>
    1dcc:	00079800 	andeq	r9, r7, r0, lsl #16
    1dd0:	7e000300 	cdpvc	3, 0, cr0, cr0, cr0, {0}
    1dd4:	08949f03 	ldmeq	r4, {r0, r1, r8, r9, sl, fp, ip, pc}
    1dd8:	08a00000 	stmiaeq	r0!, {}	; <UNPREDICTABLE>
    1ddc:	00010000 	andeq	r0, r1, r0
    1de0:	00000053 	andeq	r0, r0, r3, asr r0
	...
    1dec:	01010101 	tsteq	r1, r1, lsl #2
    1df0:	00020101 	andeq	r0, r2, r1, lsl #2
    1df4:	00072c01 	andeq	r2, r7, r1, lsl #24
    1df8:	00075000 	andeq	r5, r7, r0
    1dfc:	50000100 	andpl	r0, r0, r0, lsl #2
    1e00:	00000774 	andeq	r0, r0, r4, ror r7
    1e04:	00000784 	andeq	r0, r0, r4, lsl #15
    1e08:	84500001 	ldrbhi	r0, [r0], #-1
    1e0c:	94000007 	strls	r0, [r0], #-7
    1e10:	01000007 	tsteq	r0, r7
    1e14:	07945b00 	ldreq	r5, [r4, r0, lsl #22]
    1e18:	07980000 	ldreq	r0, [r8, r0]
    1e1c:	00010000 	andeq	r0, r1, r0
    1e20:	00079850 	andeq	r9, r7, r0, asr r8
    1e24:	00079800 	andeq	r9, r7, r0, lsl #16
    1e28:	70000300 	andvc	r0, r0, r0, lsl #6
    1e2c:	08949f01 	ldmeq	r4, {r0, r8, r9, sl, fp, ip, pc}
    1e30:	08a00000 	stmiaeq	r0!, {}	; <UNPREDICTABLE>
    1e34:	00010000 	andeq	r0, r1, r0
    1e38:	00000050 	andeq	r0, r0, r0, asr r0
    1e3c:	00000000 	andeq	r0, r0, r0
    1e40:	01000100 	mrseq	r0, (UNDEF: 16)
    1e44:	0007b000 	andeq	fp, r7, r0
    1e48:	0007ec00 	andeq	lr, r7, r0, lsl #24
    1e4c:	51000100 	mrspl	r0, (UNDEF: 16)
    1e50:	000008a0 	andeq	r0, r0, r0, lsr #17
    1e54:	000008a8 	andeq	r0, r0, r8, lsr #17
    1e58:	00510001 	subseq	r0, r1, r1
    1e5c:	00000000 	andeq	r0, r0, r0
    1e60:	01000000 	mrseq	r0, (UNDEF: 0)
    1e64:	00000000 	andeq	r0, r0, r0
    1e68:	01000101 	tsteq	r0, r1, lsl #2
    1e6c:	0007b000 	andeq	fp, r7, r0
    1e70:	0007b400 	andeq	fp, r7, r0, lsl #8
    1e74:	73000600 	movwvc	r0, #1536	; 0x600
    1e78:	22007c00 	andcs	r7, r0, #0, 24
    1e7c:	0007d49f 	muleq	r7, pc, r4	; <UNPREDICTABLE>
    1e80:	0007d800 	andeq	sp, r7, r0, lsl #16
    1e84:	73000300 	movwvc	r0, #768	; 0x300
    1e88:	07d89f7f 			; <UNDEFINED> instruction: 0x07d89f7f
    1e8c:	07e00000 	strbeq	r0, [r0, r0]!
    1e90:	00010000 	andeq	r0, r1, r0
    1e94:	0007e053 	andeq	lr, r7, r3, asr r0
    1e98:	0007e800 	andeq	lr, r7, r0, lsl #16
    1e9c:	73000300 	movwvc	r0, #768	; 0x300
    1ea0:	08a09f7f 	stmiaeq	r0!, {r0, r1, r2, r3, r4, r5, r6, r8, r9, sl, fp, ip, pc}
    1ea4:	08a80000 	stmiaeq	r8!, {}	; <UNPREDICTABLE>
    1ea8:	00010000 	andeq	r0, r1, r0
    1eac:	00000053 	andeq	r0, r0, r3, asr r0
    1eb0:	00000000 	andeq	r0, r0, r0
    1eb4:	01000100 	mrseq	r0, (UNDEF: 16)
    1eb8:	0007b000 	andeq	fp, r7, r0
    1ebc:	0007ec00 	andeq	lr, r7, r0, lsl #24
    1ec0:	08000300 	stmdaeq	r0, {r8, r9}
    1ec4:	08a09f80 	stmiaeq	r0!, {r7, r8, r9, sl, fp, ip, pc}
    1ec8:	08a80000 	stmiaeq	r8!, {}	; <UNPREDICTABLE>
    1ecc:	00030000 	andeq	r0, r3, r0
    1ed0:	009f8008 	addseq	r8, pc, r8
    1ed4:	00000000 	andeq	r0, r0, r0
    1ed8:	01000000 	mrseq	r0, (UNDEF: 0)
    1edc:	00000000 	andeq	r0, r0, r0
    1ee0:	00000101 	andeq	r0, r0, r1, lsl #2
    1ee4:	b0000100 	andlt	r0, r0, r0, lsl #2
    1ee8:	d0000007 	andle	r0, r0, r7
    1eec:	04000007 	streq	r0, [r0], #-7
    1ef0:	7dd09100 	ldfvcp	f1, [r0]
    1ef4:	0007d09f 	muleq	r7, pc, r0	; <UNPREDICTABLE>
    1ef8:	0007d400 	andeq	sp, r7, r0, lsl #8
    1efc:	55000100 	strpl	r0, [r0, #-256]	; 0xffffff00
    1f00:	000007d4 	ldrdeq	r0, [r0], -r4
    1f04:	000007d4 	ldrdeq	r0, [r0], -r4
    1f08:	017c0003 	cmneq	ip, r3
    1f0c:	0007d49f 	muleq	r7, pc, r4	; <UNPREDICTABLE>
    1f10:	0007e000 	andeq	lr, r7, r0
    1f14:	7c000300 	stcvc	3, cr0, [r0], {-0}
    1f18:	07e09f02 	strbeq	r9, [r0, r2, lsl #30]!
    1f1c:	07ec0000 	strbeq	r0, [ip, r0]!
    1f20:	00030000 	andeq	r0, r3, r0
    1f24:	a09f017c 	addsge	r0, pc, ip, ror r1	; <UNPREDICTABLE>
    1f28:	a8000008 	stmdage	r0, {r3}
    1f2c:	04000008 	streq	r0, [r0], #-8
    1f30:	7dd09100 	ldfvcp	f1, [r0]
    1f34:	0000009f 	muleq	r0, pc, r0	; <UNPREDICTABLE>
    1f38:	00000000 	andeq	r0, r0, r0
    1f3c:	04000400 	streq	r0, [r0], #-1024	; 0xfffffc00
    1f40:	0007b000 	andeq	fp, r7, r0
    1f44:	0007b400 	andeq	fp, r7, r0, lsl #8
    1f48:	70000300 	andvc	r0, r0, r0, lsl #6
    1f4c:	08a09f01 	stmiaeq	r0!, {r0, r8, r9, sl, fp, ip, pc}
    1f50:	08a80000 	stmiaeq	r8!, {}	; <UNPREDICTABLE>
    1f54:	00030000 	andeq	r0, r3, r0
    1f58:	009f0170 	addseq	r0, pc, r0, ror r1	; <UNPREDICTABLE>
    1f5c:	00000000 	andeq	r0, r0, r0
    1f60:	01000000 	mrseq	r0, (UNDEF: 0)
    1f64:	bc000000 	stclt	0, cr0, [r0], {-0}
    1f68:	d0000007 	andle	r0, r0, r7
    1f6c:	04000007 	streq	r0, [r0], #-7
    1f70:	7dd09100 	ldfvcp	f1, [r0]
    1f74:	0007d09f 	muleq	r7, pc, r0	; <UNPREDICTABLE>
    1f78:	0007ec00 	andeq	lr, r7, r0, lsl #24
    1f7c:	55000100 	strpl	r0, [r0, #-256]	; 0xffffff00
	...
    1f8c:	00000328 	andeq	r0, r0, r8, lsr #6
    1f90:	00000364 	andeq	r0, r0, r4, ror #6
    1f94:	64500001 	ldrbvs	r0, [r0], #-1
    1f98:	88000003 	stmdahi	r0, {r0, r1}
    1f9c:	04000003 	streq	r0, [r0], #-3
    1fa0:	5001f300 	andpl	pc, r1, r0, lsl #6
    1fa4:	0000009f 	muleq	r0, pc, r0	; <UNPREDICTABLE>
	...
    1fb0:	00032800 	andeq	r2, r3, r0, lsl #16
    1fb4:	00035c00 	andeq	r5, r3, r0, lsl #24
    1fb8:	51000100 	mrspl	r0, (UNDEF: 16)
    1fbc:	0000035c 	andeq	r0, r0, ip, asr r3
    1fc0:	00000388 	andeq	r0, r0, r8, lsl #7
    1fc4:	01f30004 	mvnseq	r0, r4
    1fc8:	00009f51 	andeq	r9, r0, r1, asr pc
	...
    1fec:	00140000 	andseq	r0, r4, r0
    1ff0:	00010000 	andeq	r0, r1, r0
    1ff4:	00001450 	andeq	r1, r0, r0, asr r4
    1ff8:	00002000 	andeq	r2, r0, r0
    1ffc:	5c000100 	stfpls	f0, [r0], {-0}
    2000:	00000020 	andeq	r0, r0, r0, lsr #32
    2004:	00000068 	andeq	r0, r0, r8, rrx
    2008:	02710003 	rsbseq	r0, r1, #3, 0
    200c:	0000689f 	muleq	r0, pc, r8	; <UNPREDICTABLE>
    2010:	00006c00 	andeq	r6, r0, r0, lsl #24
    2014:	73000300 	movwvc	r0, #768	; 0x300
    2018:	006c9f02 	rsbeq	r9, ip, r2, lsl #30
    201c:	01940000 	orrseq	r0, r4, r0
    2020:	00040000 	andeq	r0, r4, r0
    2024:	9f5001f3 	svcls	0x005001f3
    2028:	00000194 	muleq	r0, r4, r1
    202c:	00000198 	muleq	r0, r8, r1
    2030:	02730003 	rsbseq	r0, r3, #3, 0
    2034:	0001989f 	muleq	r1, pc, r8	; <UNPREDICTABLE>
    2038:	0001c000 	andeq	ip, r1, r0
    203c:	f3000400 	vshl.u8	d0, d0, d0
    2040:	c09f5001 	addsgt	r5, pc, r1
    2044:	c8000001 	stmdagt	r0, {r0}
    2048:	01000001 	tsteq	r0, r1
    204c:	01c85c00 	biceq	r5, r8, r0, lsl #24
    2050:	02140000 	andseq	r0, r4, #0, 0
    2054:	00030000 	andeq	r0, r3, r0
    2058:	149f0273 	ldrne	r0, [pc], #627	; 2060 <__code_start__-0x5fa0>
    205c:	ec000002 	stc	0, cr0, [r0], {2}
    2060:	04000002 	streq	r0, [r0], #-2
    2064:	5001f300 	andpl	pc, r1, r0, lsl #6
    2068:	0002ec9f 	muleq	r2, pc, ip	; <UNPREDICTABLE>
    206c:	0002f400 	andeq	pc, r2, r0, lsl #8
    2070:	73000300 	movwvc	r0, #768	; 0x300
    2074:	02f49f02 	rscseq	r9, r4, #2, 30
    2078:	03280000 			; <UNDEFINED> instruction: 0x03280000
    207c:	00040000 	andeq	r0, r4, r0
    2080:	9f5001f3 	svcls	0x005001f3
	...
    2098:	0000001c 	andeq	r0, r0, ip, lsl r0
    209c:	1c510001 	mrrcne	0, 0, r0, r1, cr1
    20a0:	e0000000 	and	r0, r0, r0
    20a4:	01000002 	tsteq	r0, r2
    20a8:	02e05000 	rsceq	r5, r0, #0, 0
    20ac:	02ec0000 	rsceq	r0, ip, #0, 0
    20b0:	00040000 	andeq	r0, r4, r0
    20b4:	9f5101f3 	svcls	0x005101f3
    20b8:	000002ec 	andeq	r0, r0, ip, ror #5
    20bc:	00000328 	andeq	r0, r0, r8, lsr #6
    20c0:	00500001 	subseq	r0, r0, r1
	...
    20d0:	00000001 	andeq	r0, r0, r1
    20d4:	00000000 	andeq	r0, r0, r0
    20d8:	00000202 	andeq	r0, r0, r2, lsl #4
	...
    20ec:	70000000 	andvc	r0, r0, r0
    20f0:	01000000 	mrseq	r0, (UNDEF: 0)
    20f4:	00705200 	rsbseq	r5, r0, r0, lsl #4
    20f8:	00780000 	rsbseq	r0, r8, r0
    20fc:	00010000 	andeq	r0, r1, r0
    2100:	0000785c 	andeq	r7, r0, ip, asr r8
    2104:	0000a400 	andeq	sl, r0, r0, lsl #8
    2108:	f3000400 	vshl.u8	d0, d0, d0
    210c:	949f5201 	ldrls	r5, [pc], #513	; 2114 <__code_start__-0x5eec>
    2110:	9c000001 	stcls	0, cr0, [r0], {1}
    2114:	01000001 	tsteq	r0, r1
    2118:	019c5200 	orrseq	r5, ip, r0, lsl #4
    211c:	01a40000 			; <UNDEFINED> instruction: 0x01a40000
    2120:	00010000 	andeq	r0, r1, r0
    2124:	0001a45c 	andeq	sl, r1, ip, asr r4
    2128:	0001c000 	andeq	ip, r1, r0
    212c:	f3000400 	vshl.u8	d0, d0, d0
    2130:	c09f5201 	addsgt	r5, pc, r1, lsl #4
    2134:	20000001 	andcs	r0, r0, r1
    2138:	01000002 	tsteq	r0, r2
    213c:	02205200 	eoreq	r5, r0, #0, 4
    2140:	02280000 	eoreq	r0, r8, #0, 0
    2144:	00040000 	andeq	r0, r4, r0
    2148:	9f1f0072 	svcls	0x001f0072
    214c:	00000228 	andeq	r0, r0, r8, lsr #4
    2150:	00000274 	andeq	r0, r0, r4, ror r2
    2154:	01f30005 	mvnseq	r0, r5
    2158:	749f1f52 	ldrvc	r1, [pc], #3922	; 2160 <__code_start__-0x5ea0>
    215c:	88000002 	stmdahi	r0, {r1}
    2160:	01000002 	tsteq	r0, r2
    2164:	02885200 	addeq	r5, r8, #0, 4
    2168:	02a00000 	adceq	r0, r0, #0, 0
    216c:	00010000 	andeq	r0, r1, r0
    2170:	0002cc5c 	andeq	ip, r2, ip, asr ip
    2174:	0002d000 	andeq	sp, r2, r0
    2178:	52000100 	andpl	r0, r0, #0
    217c:	000002d0 	ldrdeq	r0, [r0], -r0	; <UNPREDICTABLE>
    2180:	000002e7 	andeq	r0, r0, r7, ror #5
    2184:	e75c0001 	ldrb	r0, [ip, -r1]
    2188:	ec000002 	stc	0, cr0, [r0], {2}
    218c:	04000002 	streq	r0, [r0], #-2
    2190:	5201f300 	andpl	pc, r1, #0, 6
    2194:	0002ec9f 	muleq	r2, pc, ip	; <UNPREDICTABLE>
    2198:	00030000 	andeq	r0, r3, r0
    219c:	52000100 	andpl	r0, r0, #0
    21a0:	00000300 	andeq	r0, r0, r0, lsl #6
    21a4:	00000328 	andeq	r0, r0, r8, lsr #6
    21a8:	005c0001 	subseq	r0, ip, r1
	...
    21c4:	00006800 	andeq	r6, r0, r0, lsl #16
    21c8:	53000100 	movwpl	r0, #256	; 0x100
    21cc:	00000068 	andeq	r0, r0, r8, rrx
    21d0:	0000006c 	andeq	r0, r0, ip, rrx
    21d4:	7f080003 	svcvc	0x00080003
    21d8:	0001949f 	muleq	r1, pc, r4	; <UNPREDICTABLE>
    21dc:	00019800 	andeq	r9, r1, r0, lsl #16
    21e0:	08000300 	stmdaeq	r0, {r8, r9}
    21e4:	01c09f7f 	biceq	r9, r0, pc, ror pc
    21e8:	02140000 	andseq	r0, r4, #0, 0
    21ec:	00030000 	andeq	r0, r3, r0
    21f0:	749f7f08 	ldrvc	r7, [pc], #3848	; 21f8 <__code_start__-0x5e08>
    21f4:	90000002 	andls	r0, r0, r2
    21f8:	01000002 	tsteq	r0, r2
    21fc:	02905300 	addseq	r5, r0, #0, 6
    2200:	02a00000 	adceq	r0, r0, #0, 0
    2204:	00040000 	andeq	r0, r4, r0
    2208:	9f5301f3 	svcls	0x005301f3
    220c:	000002ec 	andeq	r0, r0, ip, ror #5
    2210:	00000328 	andeq	r0, r0, r8, lsr #6
    2214:	7f080003 	svcvc	0x00080003
    2218:	0000009f 	muleq	r0, pc, r0	; <UNPREDICTABLE>
    221c:	00000000 	andeq	r0, r0, r0
    2220:	00000100 	andeq	r0, r0, r0, lsl #2
    2224:	02020000 	andeq	r0, r2, #0, 0
    2228:	01010000 	mrseq	r0, (UNDEF: 1)
	...
    2234:	00000202 	andeq	r0, r0, r2, lsl #4
    2238:	00000100 	andeq	r0, r0, r0, lsl #2
    223c:	00000000 	andeq	r0, r0, r0
    2240:	01010000 	mrseq	r0, (UNDEF: 1)
    2244:	00000000 	andeq	r0, r0, r0
    2248:	00000202 	andeq	r0, r0, r2, lsl #4
    224c:	00000000 	andeq	r0, r0, r0
    2250:	00000101 	andeq	r0, r0, r1, lsl #2
    2254:	00001800 	andeq	r1, r0, r0, lsl #16
    2258:	00007000 	andeq	r7, r0, r0
    225c:	91000400 	tstls	r0, r0, lsl #8
    2260:	709f7fa0 	addsvc	r7, pc, r0, lsr #31
    2264:	78000000 	stmdavc	r0, {}	; <UNPREDICTABLE>
    2268:	01000000 	mrseq	r0, (UNDEF: 0)
    226c:	00785200 	rsbseq	r5, r8, r0, lsl #4
    2270:	00780000 	rsbseq	r0, r8, r0
    2274:	00010000 	andeq	r0, r1, r0
    2278:	00007854 	andeq	r7, r0, r4, asr r8
    227c:	00008800 	andeq	r8, r0, r0, lsl #16
    2280:	74000300 	strvc	r0, [r0], #-768	; 0xfffffd00
    2284:	00889f01 	addeq	r9, r8, r1, lsl #30
    2288:	00900000 	addseq	r0, r0, r0
    228c:	00010000 	andeq	r0, r1, r0
    2290:	00009054 	andeq	r9, r0, r4, asr r0
    2294:	0000a000 	andeq	sl, r0, r0
    2298:	74000300 	strvc	r0, [r0], #-768	; 0xfffffd00
    229c:	00a09f02 	adceq	r9, r0, r2, lsl #30
    22a0:	00b00000 	adcseq	r0, r0, r0
    22a4:	00010000 	andeq	r0, r1, r0
    22a8:	0001945e 	andeq	r9, r1, lr, asr r4
    22ac:	00019c00 	andeq	r9, r1, r0, lsl #24
    22b0:	91000400 	tstls	r0, r0, lsl #8
    22b4:	9c9f7fa0 	ldcls	15, cr7, [pc], {160}	; 0xa0
    22b8:	a4000001 	strge	r0, [r0], #-1
    22bc:	01000001 	tsteq	r0, r1
    22c0:	01a45200 			; <UNDEFINED> instruction: 0x01a45200
    22c4:	01a40000 			; <UNDEFINED> instruction: 0x01a40000
    22c8:	00010000 	andeq	r0, r1, r0
    22cc:	0001a45e 	andeq	sl, r1, lr, asr r4
    22d0:	0001b400 	andeq	fp, r1, r0, lsl #8
    22d4:	7e000300 	cdpvc	3, 0, cr0, cr0, cr0, {0}
    22d8:	01b49f01 			; <UNDEFINED> instruction: 0x01b49f01
    22dc:	01c00000 	biceq	r0, r0, r0
    22e0:	00010000 	andeq	r0, r1, r0
    22e4:	0001c05e 	andeq	ip, r1, lr, asr r0
    22e8:	00022800 	andeq	r2, r2, r0, lsl #16
    22ec:	91000400 	tstls	r0, r0, lsl #8
    22f0:	289f7fa0 	ldmcs	pc, {r5, r7, r8, r9, sl, fp, ip, sp, lr}	; <UNPREDICTABLE>
    22f4:	34000002 	strcc	r0, [r0], #-2
    22f8:	01000002 	tsteq	r0, r2
    22fc:	02345200 	eorseq	r5, r4, #0, 4
    2300:	02580000 	subseq	r0, r8, #0, 0
    2304:	00010000 	andeq	r0, r1, r0
    2308:	0002585e 	andeq	r5, r2, lr, asr r8
    230c:	00025c00 	andeq	r5, r2, r0, lsl #24
    2310:	7e000300 	cdpvc	3, 0, cr0, cr0, cr0, {0}
    2314:	025c9f01 	subseq	r9, ip, #1, 30
    2318:	02640000 	rsbeq	r0, r4, #0, 0
    231c:	00010000 	andeq	r0, r1, r0
    2320:	0002645e 	andeq	r6, r2, lr, asr r4
    2324:	00027000 	andeq	r7, r2, r0
    2328:	71000300 	mrsvc	r0, LR_irq
    232c:	02709f02 	rsbseq	r9, r0, #2, 30
    2330:	02740000 	rsbseq	r0, r4, #0, 0
    2334:	00010000 	andeq	r0, r1, r0
    2338:	0002745e 	andeq	r7, r2, lr, asr r4
    233c:	00027400 	andeq	r7, r2, r0, lsl #8
    2340:	91000400 	tstls	r0, r0, lsl #8
    2344:	749f7fa0 	ldrvc	r7, [pc], #4000	; 234c <__code_start__-0x5cb4>
    2348:	a0000002 	andge	r0, r0, r2
    234c:	04000002 	streq	r0, [r0], #-2
    2350:	7fa19100 	svcvc	0x00a19100
    2354:	0002c09f 	muleq	r2, pc, r0	; <UNPREDICTABLE>
    2358:	0002c800 	andeq	ip, r2, r0, lsl #16
    235c:	5e000100 	adfpls	f0, f0, f0
    2360:	000002c8 	andeq	r0, r0, r8, asr #5
    2364:	000002cc 	andeq	r0, r0, ip, asr #5
    2368:	cc560001 	mrrcgt	0, 0, r0, r6, cr1
    236c:	ec000002 	stc	0, cr0, [r0], {2}
    2370:	04000002 	streq	r0, [r0], #-2
    2374:	7fa09100 	svcvc	0x00a09100
    2378:	0002ec9f 	muleq	r2, pc, ip	; <UNPREDICTABLE>
    237c:	0002fc00 	andeq	pc, r2, r0, lsl #24
    2380:	91000400 	tstls	r0, r0, lsl #8
    2384:	fc9f7fa1 	ldc2	15, cr7, [pc], {161}	; 0xa1
    2388:	28000002 	stmdacs	r0, {r1}
    238c:	01000003 	tsteq	r0, r3
    2390:	00005e00 	andeq	r5, r0, r0, lsl #28
	...
    23a8:	00010100 	andeq	r0, r1, r0, lsl #2
	...
    23bc:	00000020 	andeq	r0, r0, r0, lsr #32
    23c0:	00000070 	andeq	r0, r0, r0, ror r0
    23c4:	70520001 	subsvc	r0, r2, r1
    23c8:	94000000 	strls	r0, [r0], #-0
    23cc:	01000000 	mrseq	r0, (UNDEF: 0)
    23d0:	01945c00 	orrseq	r5, r4, r0, lsl #24
    23d4:	019c0000 	orrseq	r0, ip, r0
    23d8:	00010000 	andeq	r0, r1, r0
    23dc:	00019c52 	andeq	r9, r1, r2, asr ip
    23e0:	0001c000 	andeq	ip, r1, r0
    23e4:	5c000100 	stfpls	f0, [r0], {-0}
    23e8:	000001c8 	andeq	r0, r0, r8, asr #3
    23ec:	00000210 	andeq	r0, r0, r0, lsl r2
    23f0:	105c0001 	subsne	r0, ip, r1
    23f4:	24000002 	strcs	r0, [r0], #-2
    23f8:	01000002 	tsteq	r0, r2
    23fc:	02245200 	eoreq	r5, r4, #0, 4
    2400:	02480000 	subeq	r0, r8, #0, 0
    2404:	00010000 	andeq	r0, r1, r0
    2408:	0002485c 	andeq	r4, r2, ip, asr r8
    240c:	00025c00 	andeq	r5, r2, r0, lsl #24
    2410:	55000100 	strpl	r0, [r0, #-256]	; 0xffffff00
    2414:	0000025c 	andeq	r0, r0, ip, asr r2
    2418:	00000268 	andeq	r0, r0, r8, ror #4
    241c:	685c0001 	ldmdavs	ip, {r0}^
    2420:	74000002 	strvc	r0, [r0], #-2
    2424:	19000002 	stmdbne	r0, {r1}
    2428:	f7007500 			; <UNDEFINED> instruction: 0xf7007500
    242c:	7625f72c 	strtvc	pc, [r5], -ip, lsr #14
    2430:	f72cf700 			; <UNDEFINED> instruction: 0xf72cf700
    2434:	20081e25 	andcs	r1, r8, r5, lsr #28
    2438:	f72525f7 			; <UNDEFINED> instruction: 0xf72525f7
    243c:	3300f72c 	movwcc	pc, #1836	; 0x72c	; <UNPREDICTABLE>
    2440:	02749f25 	rsbseq	r9, r4, #148	; 0x94
    2444:	02880000 	addeq	r0, r8, #0, 0
    2448:	00010000 	andeq	r0, r1, r0
    244c:	00028852 	andeq	r8, r2, r2, asr r8
    2450:	0002a000 	andeq	sl, r2, r0
    2454:	5c000100 	stfpls	f0, [r0], {-0}
    2458:	000002cc 	andeq	r0, r0, ip, asr #5
    245c:	000002d0 	ldrdeq	r0, [r0], -r0	; <UNPREDICTABLE>
    2460:	d0520001 	subsle	r0, r2, r1
    2464:	e7000002 	str	r0, [r0, -r2]
    2468:	01000002 	tsteq	r0, r2
    246c:	02e75c00 	rsceq	r5, r7, #0, 24
    2470:	02ec0000 	rsceq	r0, ip, #0, 0
    2474:	00040000 	andeq	r0, r4, r0
    2478:	9f5201f3 	svcls	0x005201f3
    247c:	000002ec 	andeq	r0, r0, ip, ror #5
    2480:	00000300 	andeq	r0, r0, r0, lsl #6
    2484:	00520001 	subseq	r0, r2, r1
    2488:	28000003 	stmdacs	r0, {r0, r1}
    248c:	01000003 	tsteq	r0, r3
    2490:	00005c00 	andeq	r5, r0, r0, lsl #24
    2494:	00000000 	andeq	r0, r0, r0
    2498:	00040000 	andeq	r0, r4, r0
    249c:	01000004 	tsteq	r0, r4
    24a0:	00040000 	andeq	r0, r4, r0
    24a4:	000000a4 	andeq	r0, r0, r4, lsr #1
    24a8:	000000b0 	strheq	r0, [r0], -r0	; <UNPREDICTABLE>
    24ac:	7c530001 	mrrcvc	0, 0, r0, r3, cr1
    24b0:	90000002 	andls	r0, r0, r2
    24b4:	01000002 	tsteq	r0, r2
    24b8:	02905300 	addseq	r5, r0, #0, 6
    24bc:	029c0000 	addseq	r0, ip, #0, 0
    24c0:	00040000 	andeq	r0, r4, r0
    24c4:	9f5301f3 	svcls	0x005301f3
    24c8:	000002c0 	andeq	r0, r0, r0, asr #5
    24cc:	000002cc 	andeq	r0, r0, ip, asr #5
    24d0:	f0530001 			; <UNDEFINED> instruction: 0xf0530001
    24d4:	28000002 	stmdacs	r0, {r1}
    24d8:	03000003 	movweq	r0, #3
    24dc:	9f7f0800 	svcls	0x007f0800
	...
    24e8:	01000004 	tsteq	r0, r4
    24ec:	01000004 	tsteq	r0, r4
    24f0:	00000000 	andeq	r0, r0, r0
    24f4:	00000004 	andeq	r0, r0, r4
    24f8:	000000a4 	andeq	r0, r0, r4, lsr #1
    24fc:	000000b0 	strheq	r0, [r0], -r0	; <UNPREDICTABLE>
    2500:	b0520001 	subslt	r0, r2, r1
    2504:	5c000000 	stcpl	0, cr0, [r0], {-0}
    2508:	04000001 	streq	r0, [r0], #-1
    250c:	7fa09100 	svcvc	0x00a09100
    2510:	00027c9f 	muleq	r2, pc, ip	; <UNPREDICTABLE>
    2514:	00029400 	andeq	r9, r2, r0, lsl #8
    2518:	91000400 	tstls	r0, r0, lsl #8
    251c:	949f7fa0 	ldrls	r7, [pc], #4000	; 2524 <__code_start__-0x5adc>
    2520:	9c000002 	stcls	0, cr0, [r0], {2}
    2524:	01000002 	tsteq	r0, r2
    2528:	02b45e00 	adcseq	r5, r4, #0, 28
    252c:	02c00000 	sbceq	r0, r0, #0, 0
    2530:	00040000 	andeq	r0, r4, r0
    2534:	9f7fa091 	svcls	0x007fa091
    2538:	000002c0 	andeq	r0, r0, r0, asr #5
    253c:	000002cc 	andeq	r0, r0, ip, asr #5
    2540:	f0520001 			; <UNDEFINED> instruction: 0xf0520001
    2544:	00000002 	andeq	r0, r0, r2
    2548:	04000003 	streq	r0, [r0], #-3
    254c:	7fa09100 	svcvc	0x00a09100
    2550:	0003009f 	muleq	r3, pc, r0	; <UNPREDICTABLE>
    2554:	00032800 	andeq	r2, r3, r0, lsl #16
    2558:	52000100 	andpl	r0, r0, #0
	...
    2564:	01000004 	tsteq	r0, r4
    2568:	03010101 	movweq	r0, #4353	; 0x1101
    256c:	01040203 	tsteq	r4, r3, lsl #4
    2570:	00000000 	andeq	r0, r0, r0
    2574:	00000004 	andeq	r0, r0, r4
    2578:	000000a4 	andeq	r0, r0, r4, lsr #1
    257c:	000000b0 	strheq	r0, [r0], -r0	; <UNPREDICTABLE>
    2580:	0c5e0001 	mrrceq	0, 0, r0, lr, cr1
    2584:	0c000001 	stceq	0, cr0, [r0], {1}
    2588:	01000001 	tsteq	r0, r1
    258c:	010c5500 	tsteq	ip, r0, lsl #10
    2590:	01200000 			; <UNDEFINED> instruction: 0x01200000
    2594:	00030000 	andeq	r0, r3, r0
    2598:	209f0175 	addscs	r0, pc, r5, ror r1	; <UNPREDICTABLE>
    259c:	2c000001 	stccs	0, cr0, [r0], {1}
    25a0:	03000001 	movweq	r0, #1
    25a4:	9f027500 	svcls	0x00027500
    25a8:	0000012c 	andeq	r0, r0, ip, lsr #2
    25ac:	00000130 	andeq	r0, r0, r0, lsr r1
    25b0:	03750003 	cmneq	r5, #3, 0
    25b4:	00027c9f 	muleq	r2, pc, ip	; <UNPREDICTABLE>
    25b8:	00029c00 	andeq	r9, r2, r0, lsl #24
    25bc:	91000400 	tstls	r0, r0, lsl #8
    25c0:	c09f7fa1 	addsgt	r7, pc, r1, lsr #31
    25c4:	c8000002 	stmdagt	r0, {r1}
    25c8:	01000002 	tsteq	r0, r2
    25cc:	02c85e00 	sbceq	r5, r8, #0, 28
    25d0:	02cc0000 	sbceq	r0, ip, #0, 0
    25d4:	00010000 	andeq	r0, r1, r0
    25d8:	0002f056 	andeq	pc, r2, r6, asr r0	; <UNPREDICTABLE>
    25dc:	0002fc00 	andeq	pc, r2, r0, lsl #24
    25e0:	91000400 	tstls	r0, r0, lsl #8
    25e4:	fc9f7fa1 	ldc2	15, cr7, [pc], {161}	; 0xa1
    25e8:	28000002 	stmdacs	r0, {r1}
    25ec:	01000003 	tsteq	r0, r3
    25f0:	00005e00 	andeq	r5, r0, r0, lsl #28
	...
    25fc:	01010100 	mrseq	r0, (UNDEF: 17)
    2600:	02010101 	andeq	r0, r1, #1073741824	; 0x40000000
    2604:	00000106 	andeq	r0, r0, r6, lsl #2
    2608:	00a80006 	adceq	r0, r8, r6
    260c:	00b00000 	adcseq	r0, r0, r0
    2610:	00010000 	andeq	r0, r1, r0
    2614:	00010c51 	andeq	r0, r1, r1, asr ip
    2618:	00011c00 	andeq	r1, r1, r0, lsl #24
    261c:	5c000100 	stfpls	f0, [r0], {-0}
    2620:	0000011c 	andeq	r0, r0, ip, lsl r1
    2624:	0000012c 	andeq	r0, r0, ip, lsr #2
    2628:	2c580001 	mrrccs	0, 0, r0, r8, cr1
    262c:	30000001 	andcc	r0, r0, r1
    2630:	01000001 	tsteq	r0, r1
    2634:	01305c00 	teqeq	r0, r0, lsl #24
    2638:	01300000 	teqeq	r0, r0
    263c:	00030000 	andeq	r0, r3, r0
    2640:	7c9f017c 	ldfvcs	f0, [pc], {124}	; 0x7c
    2644:	9c000002 	stcls	0, cr0, [r0], {2}
    2648:	02000002 	andeq	r0, r0, #2, 0
    264c:	c09f3100 	addsgt	r3, pc, r0, lsl #2
    2650:	cc000002 	stcgt	0, cr0, [r0], {2}
    2654:	01000002 	tsteq	r0, r2
    2658:	02f05100 	rscseq	r5, r0, #0
    265c:	03280000 			; <UNDEFINED> instruction: 0x03280000
    2660:	00020000 	andeq	r0, r2, r0
    2664:	00009f31 	andeq	r9, r0, r1, lsr pc
    2668:	00000000 	andeq	r0, r0, r0
    266c:	06010000 	streq	r0, [r1], -r0
    2670:	00010106 	andeq	r0, r1, r6, lsl #2
    2674:	015c0100 	cmpeq	ip, r0, lsl #2
    2678:	015c0000 	cmpeq	ip, r0
    267c:	00040000 	andeq	r0, r4, r0
    2680:	9f7fa091 	svcls	0x007fa091
    2684:	0000015c 	andeq	r0, r0, ip, asr r1
    2688:	0000018c 	andeq	r0, r0, ip, lsl #3
    268c:	9c520001 	mrrcls	0, 0, r0, r2, cr1
    2690:	a0000002 	andge	r0, r0, r2
    2694:	01000002 	tsteq	r0, r2
    2698:	02a05e00 	adceq	r5, r0, #0, 28
    269c:	02ac0000 	adceq	r0, ip, #0, 0
    26a0:	00010000 	andeq	r0, r1, r0
    26a4:	00000052 	andeq	r0, r0, r2, asr r0
	...
    26b0:	01000101 	tsteq	r0, r1, lsl #2
    26b4:	00016c07 	andeq	r6, r1, r7, lsl #24
    26b8:	00017000 	andeq	r7, r1, r0
    26bc:	73000300 	movwvc	r0, #768	; 0x300
    26c0:	01709f7f 	cmneq	r0, pc, ror pc
    26c4:	01780000 	cmneq	r8, r0
    26c8:	00010000 	andeq	r0, r1, r0
    26cc:	00017853 	andeq	r7, r1, r3, asr r8
    26d0:	00018400 	andeq	r8, r1, r0, lsl #8
    26d4:	73000300 	movwvc	r0, #768	; 0x300
    26d8:	029c9f7f 	addseq	r9, ip, #508	; 0x1fc
    26dc:	029c0000 	addseq	r0, ip, #0, 0
    26e0:	00040000 	andeq	r0, r4, r0
    26e4:	9f7fa191 	svcls	0x007fa191
	...
    26f0:	01010101 	tsteq	r1, r1, lsl #2
    26f4:	0000015c 	andeq	r0, r0, ip, asr r1
    26f8:	0000018c 	andeq	r0, r0, ip, lsl #3
    26fc:	80080003 	andhi	r0, r8, r3
    2700:	00029c9f 	muleq	r2, pc, ip	; <UNPREDICTABLE>
    2704:	0002ac00 	andeq	sl, r2, r0, lsl #24
    2708:	08000300 	stmdaeq	r0, {r8, r9}
    270c:	00009f80 	andeq	r9, r0, r0, lsl #31
    2710:	00000000 	andeq	r0, r0, r0
    2714:	00010000 	andeq	r0, r1, r0
    2718:	00010100 	andeq	r0, r1, r0, lsl #2
    271c:	01010100 	mrseq	r0, (UNDEF: 17)
    2720:	01010101 	tsteq	r1, r1, lsl #2
    2724:	0000015c 	andeq	r0, r0, ip, asr r1
    2728:	0000016c 	andeq	r0, r0, ip, ror #2
    272c:	6c500001 	mrrcvs	0, 0, r0, r0, cr1	; <UNPREDICTABLE>
    2730:	6c000001 	stcvs	0, cr0, [r0], {1}
    2734:	03000001 	movweq	r0, #1
    2738:	9f017c00 	svcls	0x00017c00
    273c:	0000016c 	andeq	r0, r0, ip, ror #2
    2740:	00000178 	andeq	r0, r0, r8, ror r1
    2744:	027c0003 	rsbseq	r0, ip, #3, 0
    2748:	0001789f 	muleq	r1, pc, r8	; <UNPREDICTABLE>
    274c:	00018800 	andeq	r8, r1, r0, lsl #16
    2750:	7c000300 	stcvc	3, cr0, [r0], {-0}
    2754:	01889f01 	orreq	r9, r8, r1, lsl #30
    2758:	018c0000 	orreq	r0, ip, r0
    275c:	00030000 	andeq	r0, r3, r0
    2760:	9c9f017e 	ldflss	f0, [pc], {126}	; 0x7e
    2764:	a4000002 	strge	r0, [r0], #-2
    2768:	01000002 	tsteq	r0, r2
    276c:	02a45000 	adceq	r5, r4, #0, 0
    2770:	02ac0000 	adceq	r0, ip, #0, 0
    2774:	00030000 	andeq	r0, r3, r0
    2778:	009f017e 	addseq	r0, pc, lr, ror r1	; <UNPREDICTABLE>
    277c:	00000000 	andeq	r0, r0, r0
    2780:	04000000 	streq	r0, [r0], #-0
    2784:	00000400 	andeq	r0, r0, r0, lsl #8
    2788:	00015c01 	andeq	r5, r1, r1, lsl #24
    278c:	00016000 	andeq	r6, r1, r0
    2790:	71000300 	mrsvc	r0, LR_irq
    2794:	029c9f01 	addseq	r9, ip, #1, 30
    2798:	02a00000 	adceq	r0, r0, #0, 0
    279c:	00020000 	andeq	r0, r2, r0
    27a0:	02a09f32 	adceq	r9, r0, #200	; 0xc8
    27a4:	02ac0000 	adceq	r0, ip, #0, 0
    27a8:	00030000 	andeq	r0, r3, r0
    27ac:	009f0171 	addseq	r0, pc, r1, ror r1	; <UNPREDICTABLE>
    27b0:	00000000 	andeq	r0, r0, r0
    27b4:	07000000 	streq	r0, [r0, -r0]
    27b8:	5c000600 	stcpl	6, cr0, [r0], {-0}
    27bc:	94000001 	strls	r0, [r0], #-1
    27c0:	01000001 	tsteq	r0, r1
    27c4:	029c5000 	addseq	r5, ip, #0, 0
    27c8:	02b40000 	adcseq	r0, r4, #0, 0
    27cc:	00010000 	andeq	r0, r1, r0
    27d0:	00000050 	andeq	r0, r0, r0, asr r0
    27d4:	00000000 	andeq	r0, r0, r0
    27d8:	01010100 	mrseq	r0, (UNDEF: 17)
    27dc:	00021400 	andeq	r1, r2, r0, lsl #8
    27e0:	00022000 	andeq	r2, r2, r0
    27e4:	30000200 	andcc	r0, r0, r0, lsl #4
    27e8:	0002209f 	muleq	r2, pc, r0	; <UNPREDICTABLE>
    27ec:	00023400 	andeq	r3, r2, r0, lsl #8
    27f0:	31000200 	mrscc	r0, R8_usr
    27f4:	0000009f 	muleq	r0, pc, r0	; <UNPREDICTABLE>
    27f8:	00000000 	andeq	r0, r0, r0
    27fc:	01010000 	mrseq	r0, (UNDEF: 1)
    2800:	01010000 	mrseq	r0, (UNDEF: 1)
    2804:	01010000 	mrseq	r0, (UNDEF: 1)
    2808:	01010000 	mrseq	r0, (UNDEF: 1)
    280c:	01010000 	mrseq	r0, (UNDEF: 1)
    2810:	02020000 	andeq	r0, r2, #0, 0
    2814:	00008001 	andeq	r8, r0, r1
    2818:	00008000 	andeq	r8, r0, r0
    281c:	53000100 	movwpl	r0, #256	; 0x100
    2820:	00000080 	andeq	r0, r0, r0, lsl #1
    2824:	0000008c 	andeq	r0, r0, ip, lsl #1
    2828:	04730003 	ldrbteq	r0, [r3], #-3
    282c:	00008c9f 	muleq	r0, pc, ip	; <UNPREDICTABLE>
    2830:	00009400 	andeq	r9, r0, r0, lsl #8
    2834:	51000100 	mrspl	r0, (UNDEF: 16)
    2838:	00000094 	muleq	r0, r4, r0
    283c:	00000098 	muleq	r0, r8, r0
    2840:	08730003 	ldmdaeq	r3!, {r0, r1}^
    2844:	0000989f 	muleq	r0, pc, r8	; <UNPREDICTABLE>
    2848:	0000a400 	andeq	sl, r0, r0, lsl #8
    284c:	51000100 	mrspl	r0, (UNDEF: 16)
    2850:	000000a4 	andeq	r0, r0, r4, lsr #1
    2854:	000000a8 	andeq	r0, r0, r8, lsr #1
    2858:	0c730003 	ldcleq	0, cr0, [r3], #-12
    285c:	0000a89f 	muleq	r0, pc, r8	; <UNPREDICTABLE>
    2860:	0000b400 	andeq	fp, r0, r0, lsl #8
    2864:	51000100 	mrspl	r0, (UNDEF: 16)
    2868:	000000b4 	strheq	r0, [r0], -r4
    286c:	000000b8 	strheq	r0, [r0], -r8
    2870:	10730003 	rsbsne	r0, r3, r3
    2874:	0000b89f 	muleq	r0, pc, r8	; <UNPREDICTABLE>
    2878:	0000c400 	andeq	ip, r0, r0, lsl #8
    287c:	51000100 	mrspl	r0, (UNDEF: 16)
    2880:	000000c4 	andeq	r0, r0, r4, asr #1
    2884:	000000c8 	andeq	r0, r0, r8, asr #1
    2888:	14730003 	ldrbtne	r0, [r3], #-3
    288c:	0000c89f 	muleq	r0, pc, r8	; <UNPREDICTABLE>
    2890:	0000d000 	andeq	sp, r0, r0
    2894:	51000100 	mrspl	r0, (UNDEF: 16)
    2898:	000000d0 	ldrdeq	r0, [r0], -r0	; <UNPREDICTABLE>
    289c:	000000d4 	ldrdeq	r0, [r0], -r4
    28a0:	04710003 	ldrbteq	r0, [r1], #-3
    28a4:	0000009f 	muleq	r0, pc, r0	; <UNPREDICTABLE>
    28a8:	00000000 	andeq	r0, r0, r0
    28ac:	08000100 	stmdaeq	r0, {r8}
    28b0:	0b000001 	bleq	28bc <__code_start__-0x5744>
    28b4:	01000001 	tsteq	r0, r1
    28b8:	00005100 	andeq	r5, r0, r0, lsl #2
    28bc:	00000000 	andeq	r0, r0, r0
    28c0:	00020000 	andeq	r0, r2, r0
    28c4:	000000d8 	ldrdeq	r0, [r0], -r8
    28c8:	00000110 	andeq	r0, r0, r0, lsl r1
    28cc:	9f310002 	svcls	0x00310002
	...
    28d8:	00e00305 	rsceq	r0, r0, r5, lsl #6
    28dc:	00e40000 	rsceq	r0, r4, r0
    28e0:	00020000 	andeq	r0, r2, r0
    28e4:	00009f30 	andeq	r9, r0, r0, lsr pc
    28e8:	00000000 	andeq	r0, r0, r0
    28ec:	00010000 	andeq	r0, r1, r0
    28f0:	000000e4 	andeq	r0, r0, r4, ror #1
    28f4:	000000ef 	andeq	r0, r0, pc, ror #1
    28f8:	00530001 	subseq	r0, r3, r1
	...
    2904:	0000e401 	andeq	lr, r0, r1, lsl #8
    2908:	0000ec00 	andeq	lr, r0, r0, lsl #24
    290c:	53000100 	movwpl	r0, #256	; 0x100
	...
    2918:	01000004 	tsteq	r0, r4
    291c:	000000f0 	strdeq	r0, [r0], -r0	; <UNPREDICTABLE>
    2920:	00000104 	andeq	r0, r0, r4, lsl #2
    2924:	9f300002 	svcls	0x00300002
    2928:	00000104 	andeq	r0, r0, r4, lsl #2
    292c:	00000108 	andeq	r0, r0, r8, lsl #2
    2930:	00510001 	subseq	r0, r1, r1
    2934:	00000000 	andeq	r0, r0, r0
    2938:	01000000 	mrseq	r0, (UNDEF: 0)
    293c:	0000f400 	andeq	pc, r0, r0, lsl #8
    2940:	00010b00 	andeq	r0, r1, r0, lsl #22
    2944:	53000100 	movwpl	r0, #256	; 0x100
	...
    2950:	00f40100 	rscseq	r0, r4, r0, lsl #2
    2954:	01080000 	mrseq	r0, (UNDEF: 8)
    2958:	00010000 	andeq	r0, r1, r0
    295c:	00000053 	andeq	r0, r0, r3, asr r0
    2960:	00000000 	andeq	r0, r0, r0
    2964:	00000400 	andeq	r0, r0, r0, lsl #8
    2968:	009c2001 	addseq	r2, ip, r1
    296c:	009c2800 	addseq	r2, ip, r0, lsl #16
    2970:	30000200 	andcc	r0, r0, r0, lsl #4
    2974:	009c289f 	umullseq	r2, ip, pc, r8	; <UNPREDICTABLE>
    2978:	009c2800 	addseq	r2, ip, r0, lsl #16
    297c:	53000100 	movwpl	r0, #256	; 0x100
	...
    2988:	00000003 	andeq	r0, r0, r3
    298c:	00000000 	andeq	r0, r0, r0
    2990:	00009c34 	andeq	r9, r0, r4, lsr ip
    2994:	00009c38 	andeq	r9, r0, r8, lsr ip
    2998:	9f300002 	svcls	0x00300002
    299c:	00009c38 	andeq	r9, r0, r8, lsr ip
    29a0:	00009c3c 	andeq	r9, r0, ip, lsr ip
    29a4:	3c530001 	mrrccc	0, 0, r0, r3, cr1
    29a8:	4000009c 	mulmi	r0, ip, r0
    29ac:	0500009c 	streq	r0, [r0, #-156]	; 0xffffff64
    29b0:	40007300 	andmi	r7, r0, r0, lsl #6
    29b4:	9c409f21 	mcrrls	15, 2, r9, r0, cr1
    29b8:	9c440000 	marls	acc0, r0, r4
    29bc:	00010000 	andeq	r0, r1, r0
    29c0:	00000053 	andeq	r0, r0, r3, asr r0
    29c4:	00000000 	andeq	r0, r0, r0
    29c8:	00000200 	andeq	r0, r0, r0, lsl #4
    29cc:	009bf400 	addseq	pc, fp, r0, lsl #8
    29d0:	009bf800 	addseq	pc, fp, r0, lsl #16
    29d4:	30000200 	andcc	r0, r0, r0, lsl #4
    29d8:	009bf89f 	umullseq	pc, fp, pc, r8	; <UNPREDICTABLE>
    29dc:	009bfc00 	addseq	pc, fp, r0, lsl #24
    29e0:	50000100 	andpl	r0, r0, r0, lsl #2
	...
    29ec:	00000002 	andeq	r0, r0, r2
    29f0:	00000000 	andeq	r0, r0, r0
    29f4:	00009c0c 	andeq	r9, r0, ip, lsl #24
    29f8:	00009c10 	andeq	r9, r0, r0, lsl ip
    29fc:	9f300002 	svcls	0x00300002
    2a00:	00009c10 	andeq	r9, r0, r0, lsl ip
    2a04:	00009c14 	andeq	r9, r0, r4, lsl ip
    2a08:	14530001 	ldrbne	r0, [r3], #-1
    2a0c:	1800009c 	stmdane	r0, {r2, r3, r4, r7}
    2a10:	0500009c 	streq	r0, [r0, #-156]	; 0xffffff64
    2a14:	40007300 	andmi	r7, r0, r0, lsl #6
    2a18:	9c189f21 	ldcls	15, cr9, [r8], {33}	; 0x21
    2a1c:	9c200000 	stcls	0, cr0, [r0], #-0
    2a20:	00010000 	andeq	r0, r1, r0
    2a24:	00000053 	andeq	r0, r0, r3, asr r0
	...
    2a30:	0000c800 	andeq	ip, r0, r0, lsl #16
    2a34:	0000d800 	andeq	sp, r0, r0, lsl #16
    2a38:	50000100 	andpl	r0, r0, r0, lsl #2
    2a3c:	000000d8 	ldrdeq	r0, [r0], -r8
    2a40:	0000011c 	andeq	r0, r0, ip, lsl r1
    2a44:	01f30004 	mvnseq	r0, r4
    2a48:	00009f50 	andeq	r9, r0, r0, asr pc
    2a4c:	00000000 	andeq	r0, r0, r0
    2a50:	00020000 	andeq	r0, r2, r0
    2a54:	00c80000 	sbceq	r0, r8, r0
    2a58:	00d80000 	sbcseq	r0, r8, r0
    2a5c:	00070000 	andeq	r0, r7, r0
    2a60:	e80a0070 	stmda	sl, {r4, r5, r6}
    2a64:	d89f1e03 	ldmle	pc, {r0, r1, r9, sl, fp, ip}	; <UNPREDICTABLE>
    2a68:	1c000000 	stcne	0, cr0, [r0], {-0}
    2a6c:	08000001 	stmdaeq	r0, {r0}
    2a70:	5001f300 	andpl	pc, r1, r0, lsl #6
    2a74:	1e03e80a 	cdpne	8, 0, cr14, cr3, cr10, {0}
    2a78:	0000009f 	muleq	r0, pc, r0	; <UNPREDICTABLE>
    2a7c:	00000000 	andeq	r0, r0, r0
    2a80:	dc000000 	stcle	0, cr0, [r0], {-0}
    2a84:	1c000000 	stcne	0, cr0, [r0], {-0}
    2a88:	01000001 	tsteq	r0, r1
    2a8c:	00005400 	andeq	r5, r0, r0, lsl #8
    2a90:	00000000 	andeq	r0, r0, r0
    2a94:	00010000 	andeq	r0, r1, r0
    2a98:	000000f0 	strdeq	r0, [r0], -r0	; <UNPREDICTABLE>
    2a9c:	0000011c 	andeq	r0, r0, ip, lsl r1
    2aa0:	00560001 	subseq	r0, r6, r1
	...
    2aac:	ec000000 	stc	0, cr0, [r0], {-0}
    2ab0:	ef000000 	svc	0x00000000
    2ab4:	01000000 	mrseq	r0, (UNDEF: 0)
    2ab8:	00ef5000 	rsceq	r5, pc, r0
    2abc:	011c0000 	tsteq	ip, r0
    2ac0:	00010000 	andeq	r0, r1, r0
    2ac4:	00000056 	andeq	r0, r0, r6, asr r0
    2ac8:	00000000 	andeq	r0, r0, r0
    2acc:	04000000 	streq	r0, [r0], #-0
    2ad0:	0b000001 	bleq	2adc <__code_start__-0x5524>
    2ad4:	01000001 	tsteq	r0, r1
    2ad8:	00005000 	andeq	r5, r0, r0
	...
    2ae4:	00200000 	eoreq	r0, r0, r0
    2ae8:	00230000 	eoreq	r0, r3, r0
    2aec:	00010000 	andeq	r0, r1, r0
    2af0:	00002350 	andeq	r2, r0, r0, asr r3
    2af4:	00003000 	andeq	r3, r0, r0
    2af8:	54000100 	strpl	r0, [r0], #-256	; 0xffffff00
	...
    2b08:	00000030 	andeq	r0, r0, r0, lsr r0
    2b0c:	0000003b 	andeq	r0, r0, fp, lsr r0
    2b10:	3b500001 	blcc	1402b1c <__bss_end__+0x13f8054>
    2b14:	78000000 	stmdavc	r0, {}	; <UNPREDICTABLE>
    2b18:	01000000 	mrseq	r0, (UNDEF: 0)
    2b1c:	00005600 	andeq	r5, r0, r0, lsl #12
    2b20:	00000000 	andeq	r0, r0, r0
    2b24:	00010000 	andeq	r0, r1, r0
    2b28:	0000004c 	andeq	r0, r0, ip, asr #32
    2b2c:	00000078 	andeq	r0, r0, r8, ror r0
    2b30:	00550001 	subseq	r0, r5, r1
	...
    2b3c:	48000000 	stmdami	r0, {}	; <UNPREDICTABLE>
    2b40:	4b000000 	blmi	2b48 <__code_start__-0x54b8>
    2b44:	01000000 	mrseq	r0, (UNDEF: 0)
    2b48:	004b5000 	subeq	r5, fp, r0
    2b4c:	00780000 	rsbseq	r0, r8, r0
    2b50:	00010000 	andeq	r0, r1, r0
    2b54:	00000055 	andeq	r0, r0, r5, asr r0
    2b58:	00000000 	andeq	r0, r0, r0
    2b5c:	60000000 	andvs	r0, r0, r0
    2b60:	67000000 	strvs	r0, [r0, -r0]
    2b64:	01000000 	mrseq	r0, (UNDEF: 0)
    2b68:	00005000 	andeq	r5, r0, r0
	...
    2b74:	00780000 	rsbseq	r0, r8, r0
    2b78:	00840000 	addeq	r0, r4, r0
    2b7c:	00010000 	andeq	r0, r1, r0
    2b80:	00008450 	andeq	r8, r0, r0, asr r4
    2b84:	0000c800 	andeq	ip, r0, r0, lsl #16
    2b88:	f3000400 	vshl.u8	d0, d0, d0
    2b8c:	009f5001 	addseq	r5, pc, r1
	...
    2b98:	00008800 	andeq	r8, r0, r0, lsl #16
    2b9c:	0000c800 	andeq	ip, r0, r0, lsl #16
    2ba0:	54000100 	strpl	r0, [r0], #-256	; 0xffffff00
	...
    2bac:	009c0001 	addseq	r0, ip, r1
    2bb0:	00c80000 	sbceq	r0, r8, r0
    2bb4:	00010000 	andeq	r0, r1, r0
    2bb8:	00000056 	andeq	r0, r0, r6, asr r0
	...
    2bc4:	00009800 	andeq	r9, r0, r0, lsl #16
    2bc8:	00009b00 	andeq	r9, r0, r0, lsl #22
    2bcc:	50000100 	andpl	r0, r0, r0, lsl #2
    2bd0:	0000009b 	muleq	r0, fp, r0
    2bd4:	000000c8 	andeq	r0, r0, r8, asr #1
    2bd8:	00560001 	subseq	r0, r6, r1
	...
    2be4:	0000b000 	andeq	fp, r0, r0
    2be8:	0000b700 	andeq	fp, r0, r0, lsl #14
    2bec:	50000100 	andpl	r0, r0, r0, lsl #2
	...
    2bfc:	00000158 	andeq	r0, r0, r8, asr r1
    2c00:	00000163 	andeq	r0, r0, r3, ror #2
    2c04:	63500001 	cmpvs	r0, #1, 0
    2c08:	88000001 	stmdahi	r0, {r0}
    2c0c:	01000001 	tsteq	r0, r1
    2c10:	00005400 	andeq	r5, r0, r0, lsl #8
	...
    2c1c:	00000148 	andeq	r0, r0, r8, asr #2
    2c20:	00000158 	andeq	r0, r0, r8, asr r1
    2c24:	00540001 	subseq	r0, r4, r1
	...
    2c34:	0f000000 	svceq	0x00000000
    2c38:	01000000 	mrseq	r0, (UNDEF: 0)
    2c3c:	000f5000 	andeq	r5, pc, r0
    2c40:	00200000 	eoreq	r0, r0, r0
    2c44:	00010000 	andeq	r0, r1, r0
    2c48:	00000054 	andeq	r0, r0, r4, asr r0
	...
    2c58:	00000f00 	andeq	r0, r0, r0, lsl #30
    2c5c:	51000100 	mrspl	r0, (UNDEF: 16)
    2c60:	0000000f 	andeq	r0, r0, pc
    2c64:	00000020 	andeq	r0, r0, r0, lsr #32
    2c68:	00550001 	subseq	r0, r5, r1
	...
    2c74:	20000000 	andcs	r0, r0, r0
    2c78:	2f000000 	svccs	0x00000000
    2c7c:	01000000 	mrseq	r0, (UNDEF: 0)
    2c80:	002f5000 	eoreq	r5, pc, r0
    2c84:	00400000 	subeq	r0, r0, r0
    2c88:	00010000 	andeq	r0, r1, r0
    2c8c:	00000054 	andeq	r0, r0, r4, asr r0
	...
    2c98:	00002000 	andeq	r2, r0, r0
    2c9c:	00002f00 	andeq	r2, r0, r0, lsl #30
    2ca0:	51000100 	mrspl	r0, (UNDEF: 16)
    2ca4:	0000002f 	andeq	r0, r0, pc, lsr #32
    2ca8:	00000040 	andeq	r0, r0, r0, asr #32
    2cac:	00550001 	subseq	r0, r5, r1
	...
    2cbc:	0b000000 	bleq	2cc4 <__code_start__-0x533c>
    2cc0:	01000000 	mrseq	r0, (UNDEF: 0)
    2cc4:	000b5000 	andeq	r5, fp, r0
    2cc8:	00140000 	andseq	r0, r4, r0
    2ccc:	00010000 	andeq	r0, r1, r0
    2cd0:	00000054 	andeq	r0, r0, r4, asr r0
	...
    2ce0:	00001800 	andeq	r1, r0, r0, lsl #16
    2ce4:	51000100 	mrspl	r0, (UNDEF: 16)
    2ce8:	00000018 	andeq	r0, r0, r8, lsl r0
    2cec:	0000002c 	andeq	r0, r0, ip, lsr #32
    2cf0:	01f30004 	mvnseq	r0, r4
    2cf4:	00009f51 	andeq	r9, r0, r1, asr pc
    2cf8:	00000000 	andeq	r0, r0, r0
    2cfc:	00020000 	andeq	r0, r2, r0
    2d00:	00000000 	andeq	r0, r0, r0
    2d04:	01000000 	mrseq	r0, (UNDEF: 0)
    2d08:	00000001 	andeq	r0, r0, r1
    2d0c:	00000000 	andeq	r0, r0, r0
    2d10:	00000004 	andeq	r0, r0, r4
    2d14:	04500001 	ldrbeq	r0, [r0], #-1
    2d18:	08000000 	stmdaeq	r0, {}	; <UNPREDICTABLE>
    2d1c:	01000000 	mrseq	r0, (UNDEF: 0)
    2d20:	00085200 	andeq	r5, r8, r0, lsl #4
    2d24:	000c0000 	andeq	r0, ip, r0
    2d28:	00030000 	andeq	r0, r3, r0
    2d2c:	0c9f0172 	ldfeqs	f0, [pc], {114}	; 0x72
    2d30:	18000000 	stmdane	r0, {}	; <UNPREDICTABLE>
    2d34:	01000000 	mrseq	r0, (UNDEF: 0)
    2d38:	00185200 	andseq	r5, r8, r0, lsl #4
    2d3c:	001c0000 	andseq	r0, ip, r0
    2d40:	00010000 	andeq	r0, r1, r0
    2d44:	00001c53 	andeq	r1, r0, r3, asr ip
    2d48:	00002400 	andeq	r2, r0, r0, lsl #8
    2d4c:	73000300 	movwvc	r0, #768	; 0x300
    2d50:	00249f01 	eoreq	r9, r4, r1, lsl #30
    2d54:	002c0000 	eoreq	r0, ip, r0
    2d58:	00010000 	andeq	r0, r1, r0
    2d5c:	00000053 	andeq	r0, r0, r3, asr r0
    2d60:	00000000 	andeq	r0, r0, r0
    2d64:	02020300 	andeq	r0, r2, #0, 6
    2d68:	00000000 	andeq	r0, r0, r0
    2d6c:	18000000 	stmdane	r0, {}	; <UNPREDICTABLE>
    2d70:	01000000 	mrseq	r0, (UNDEF: 0)
    2d74:	00185100 	andseq	r5, r8, r0, lsl #2
    2d78:	001c0000 	andseq	r0, ip, r0
    2d7c:	00030000 	andeq	r0, r3, r0
    2d80:	1c9f0171 	ldfnes	f0, [pc], {113}	; 0x71
    2d84:	2c000000 	stccs	0, cr0, [r0], {-0}
    2d88:	01000000 	mrseq	r0, (UNDEF: 0)
    2d8c:	00005100 	andeq	r5, r0, r0, lsl #2
	...
    2d9c:	00000008 	andeq	r0, r0, r8
    2da0:	0000000c 	andeq	r0, r0, ip
    2da4:	00720002 	rsbseq	r0, r2, r2
    2da8:	0000000c 	andeq	r0, r0, ip
    2dac:	00000018 	andeq	r0, r0, r8, lsl r0
    2db0:	00730002 	rsbseq	r0, r3, r2
    2db4:	0000001c 	andeq	r0, r0, ip, lsl r0
    2db8:	0000002c 	andeq	r0, r0, ip, lsr #32
    2dbc:	00520001 	subseq	r0, r2, r1
	...
    2dd4:	14000000 	strne	r0, [r0], #-0
    2dd8:	01000000 	mrseq	r0, (UNDEF: 0)
    2ddc:	00145000 	andseq	r5, r4, r0
    2de0:	00180000 	andseq	r0, r8, r0
    2de4:	00030000 	andeq	r0, r3, r0
    2de8:	189f0170 	ldmne	pc, {r4, r5, r6, r8}	; <UNPREDICTABLE>
    2dec:	20000000 	andcs	r0, r0, r0
    2df0:	01000000 	mrseq	r0, (UNDEF: 0)
    2df4:	00245000 	eoreq	r5, r4, r0
    2df8:	00280000 	eoreq	r0, r8, r0
    2dfc:	00010000 	andeq	r0, r1, r0
    2e00:	00002850 	andeq	r2, r0, r0, asr r8
    2e04:	00003000 	andeq	r3, r0, r0
    2e08:	70000300 	andvc	r0, r0, r0, lsl #6
    2e0c:	00389f01 	eorseq	r9, r8, r1, lsl #30
    2e10:	00400000 	subeq	r0, r0, r0
    2e14:	00010000 	andeq	r0, r1, r0
    2e18:	00000050 	andeq	r0, r0, r0, asr r0
	...
    2e28:	24000000 	strcs	r0, [r0], #-0
    2e2c:	01000000 	mrseq	r0, (UNDEF: 0)
    2e30:	00245100 	eoreq	r5, r4, r0, lsl #2
    2e34:	00280000 	eoreq	r0, r8, r0
    2e38:	00010000 	andeq	r0, r1, r0
    2e3c:	0000285c 	andeq	r2, r0, ip, asr r8
    2e40:	00004400 	andeq	r4, r0, r0, lsl #8
    2e44:	51000100 	mrspl	r0, (UNDEF: 16)
	...
    2e50:	00020200 	andeq	r0, r2, r0, lsl #4
    2e54:	00000000 	andeq	r0, r0, r0
    2e58:	00040000 	andeq	r0, r4, r0
    2e5c:	00010000 	andeq	r0, r1, r0
    2e60:	00000451 	andeq	r0, r0, r1, asr r4
    2e64:	00000800 	andeq	r0, r0, r0, lsl #16
    2e68:	71000300 	mrsvc	r0, LR_irq
    2e6c:	00089f01 	andeq	r9, r8, r1, lsl #30
    2e70:	00180000 	andseq	r0, r8, r0
    2e74:	00010000 	andeq	r0, r1, r0
    2e78:	00000051 	andeq	r0, r0, r1, asr r0
    2e7c:	00000000 	andeq	r0, r0, r0
    2e80:	00000200 	andeq	r0, r0, r0, lsl #4
    2e84:	04000000 	streq	r0, [r0], #-0
    2e88:	01000000 	mrseq	r0, (UNDEF: 0)
    2e8c:	00005000 	andeq	r5, r0, r0
	...
    2e9c:	00080000 	andeq	r0, r8, r0
    2ea0:	00010000 	andeq	r0, r1, r0
    2ea4:	00000850 	andeq	r0, r0, r0, asr r8
    2ea8:	00003000 	andeq	r3, r0, r0
    2eac:	f3000400 	vshl.u8	d0, d0, d0
    2eb0:	009f5001 	addseq	r5, pc, r1
	...
    2ec0:	08000000 	stmdaeq	r0, {}	; <UNPREDICTABLE>
    2ec4:	01000000 	mrseq	r0, (UNDEF: 0)
    2ec8:	00085100 	andeq	r5, r8, r0, lsl #2
    2ecc:	00300000 	eorseq	r0, r0, r0
    2ed0:	00040000 	andeq	r0, r4, r0
    2ed4:	9f5101f3 	svcls	0x005101f3
	...
    2ee4:	02010000 	andeq	r0, r1, #0, 0
    2ee8:	00000002 	andeq	r0, r0, r2
    2eec:	00040000 	andeq	r0, r4, r0
    2ef0:	00010000 	andeq	r0, r1, r0
    2ef4:	00000452 	andeq	r0, r0, r2, asr r4
    2ef8:	00000800 	andeq	r0, r0, r0, lsl #16
    2efc:	f3000400 	vshl.u8	d0, d0, d0
    2f00:	089f5201 	ldmeq	pc, {r0, r9, ip, lr}	; <UNPREDICTABLE>
    2f04:	18000000 	stmdane	r0, {}	; <UNPREDICTABLE>
    2f08:	06000000 	streq	r0, [r0], -r0
    2f0c:	5201f300 	andpl	pc, r1, #0, 6
    2f10:	189f1c31 	ldmne	pc, {r0, r4, r5, sl, fp, ip}	; <UNPREDICTABLE>
    2f14:	18000000 	stmdane	r0, {}	; <UNPREDICTABLE>
    2f18:	04000000 	streq	r0, [r0], #-0
    2f1c:	5201f300 	andpl	pc, r1, #0, 6
    2f20:	0000189f 	muleq	r0, pc, r8	; <UNPREDICTABLE>
    2f24:	00003000 	andeq	r3, r0, r0
    2f28:	f3000600 	vmax.u8	d0, d0, d0
    2f2c:	1c315201 	lfmne	f5, 4, [r1], #-4
    2f30:	0000009f 	muleq	r0, pc, r0	; <UNPREDICTABLE>
    2f34:	00000000 	andeq	r0, r0, r0
    2f38:	00000200 	andeq	r0, r0, r0, lsl #4
    2f3c:	00000100 	andeq	r0, r0, r0, lsl #2
    2f40:	00000000 	andeq	r0, r0, r0
    2f44:	00000c00 	andeq	r0, r0, r0, lsl #24
    2f48:	50000100 	andpl	r0, r0, r0, lsl #2
    2f4c:	0000000c 	andeq	r0, r0, ip
    2f50:	00000018 	andeq	r0, r0, r8, lsl r0
    2f54:	7f700003 	svcvc	0x00700003
    2f58:	0000189f 	muleq	r0, pc, r8	; <UNPREDICTABLE>
    2f5c:	00002400 	andeq	r2, r0, r0, lsl #8
    2f60:	50000100 	andpl	r0, r0, r0, lsl #2
    2f64:	00000028 	andeq	r0, r0, r8, lsr #32
    2f68:	0000002c 	andeq	r0, r0, ip, lsr #32
    2f6c:	7f700003 	svcvc	0x00700003
    2f70:	0000009f 	muleq	r0, pc, r0	; <UNPREDICTABLE>
    2f74:	00000000 	andeq	r0, r0, r0
    2f78:	00000200 	andeq	r0, r0, r0, lsl #4
    2f7c:	00000000 	andeq	r0, r0, r0
    2f80:	0c000000 	stceq	0, cr0, [r0], {-0}
    2f84:	01000000 	mrseq	r0, (UNDEF: 0)
    2f88:	000c5100 	andeq	r5, ip, r0, lsl #2
    2f8c:	00100000 	andseq	r0, r0, r0
    2f90:	00030000 	andeq	r0, r3, r0
    2f94:	109f0171 	addsne	r0, pc, r1, ror r1	; <UNPREDICTABLE>
    2f98:	30000000 	andcc	r0, r0, r0
    2f9c:	01000000 	mrseq	r0, (UNDEF: 0)
    2fa0:	00005100 	andeq	r5, r0, r0, lsl #2
    2fa4:	00000000 	andeq	r0, r0, r0
	...

Disassembly of section .debug_aranges:

00000000 <.debug_aranges>:
   0:	0000001c 	andeq	r0, r0, ip, lsl r0
   4:	00000002 	andeq	r0, r0, r2
   8:	00040000 	andeq	r0, r4, r0
   c:	00000000 	andeq	r0, r0, r0
  10:	00008038 	andeq	r8, r0, r8, lsr r0
  14:	000005a0 	andeq	r0, r0, r0, lsr #11
	...
  20:	0000001c 	andeq	r0, r0, ip, lsl r0
  24:	0f5a0002 	svceq	0x005a0002
  28:	00040000 	andeq	r0, r4, r0
  2c:	00000000 	andeq	r0, r0, r0
  30:	000085d8 	ldrdeq	r8, [r0], -r8	; <UNPREDICTABLE>
  34:	000008d0 	ldrdeq	r0, [r0], -r0	; <UNPREDICTABLE>
	...
  40:	0000001c 	andeq	r0, r0, ip, lsl r0
  44:	293e0002 	ldmdbcs	lr!, {r1}
  48:	00040000 	andeq	r0, r4, r0
  4c:	00000000 	andeq	r0, r0, r0
  50:	00008ea8 	andeq	r8, r0, r8, lsr #29
  54:	00000198 	muleq	r0, r8, r1
	...
  60:	0000001c 	andeq	r0, r0, ip, lsl r0
  64:	2fb50002 	svccs	0x00b50002
  68:	00040000 	andeq	r0, r4, r0
  6c:	00000000 	andeq	r0, r0, r0
  70:	00009040 	andeq	r9, r0, r0, asr #32
  74:	00000058 	andeq	r0, r0, r8, asr r0
	...
  80:	0000001c 	andeq	r0, r0, ip, lsl r0
  84:	31560002 	cmpcc	r6, r2
  88:	00040000 	andeq	r0, r4, r0
  8c:	00000000 	andeq	r0, r0, r0
  90:	00009098 	muleq	r0, r8, r0
  94:	00000038 	andeq	r0, r0, r8, lsr r0
	...
  a0:	0000001c 	andeq	r0, r0, ip, lsl r0
  a4:	324d0002 	subcc	r0, sp, #2, 0
  a8:	00040000 	andeq	r0, r4, r0
  ac:	00000000 	andeq	r0, r0, r0
  b0:	000090d0 	ldrdeq	r9, [r0], -r0
  b4:	000009b4 			; <UNDEFINED> instruction: 0x000009b4
	...
  c0:	0000001c 	andeq	r0, r0, ip, lsl r0
  c4:	3ed00002 	cdpcc	0, 13, cr0, cr0, cr2, {0}
  c8:	00040000 	andeq	r0, r4, r0
  cc:	00000000 	andeq	r0, r0, r0
  d0:	00009a84 	andeq	r9, r0, r4, lsl #21
  d4:	0000002c 	andeq	r0, r0, ip, lsr #32
	...
  e0:	0000001c 	andeq	r0, r0, ip, lsl r0
  e4:	40030002 	andmi	r0, r3, r2
  e8:	00040000 	andeq	r0, r4, r0
  ec:	00000000 	andeq	r0, r0, r0
  f0:	00009ab0 			; <UNDEFINED> instruction: 0x00009ab0
  f4:	00000128 	andeq	r0, r0, r8, lsr #2
	...
 100:	0000001c 	andeq	r0, r0, ip, lsl r0
 104:	42b80002 	adcsmi	r0, r8, #2, 0
 108:	00040000 	andeq	r0, r4, r0
 10c:	00000000 	andeq	r0, r0, r0
 110:	00009bd8 	ldrdeq	r9, [r0], -r8
 114:	00000004 	andeq	r0, r0, r4
	...
 120:	0000001c 	andeq	r0, r0, ip, lsl r0
 124:	438a0002 	orrmi	r0, sl, #2, 0
 128:	00040000 	andeq	r0, r4, r0
 12c:	00000000 	andeq	r0, r0, r0
 130:	00009bf4 	strdeq	r9, [r0], -r4
 134:	0000008c 	andeq	r0, r0, ip, lsl #1
	...
 140:	0000001c 	andeq	r0, r0, ip, lsl r0
 144:	460b0002 	strmi	r0, [fp], -r2
 148:	00040000 	andeq	r0, r4, r0
 14c:	00000000 	andeq	r0, r0, r0
 150:	00009c80 	andeq	r9, r0, r0, lsl #25
 154:	0000011c 	andeq	r0, r0, ip, lsl r1
	...
 160:	0000001c 	andeq	r0, r0, ip, lsl r0
 164:	4b4e0002 	blmi	1380174 <__bss_end__+0x13756ac>
 168:	00040000 	andeq	r0, r4, r0
 16c:	00000000 	andeq	r0, r0, r0
 170:	00009d9c 	muleq	r0, ip, sp
 174:	000001f0 	strdeq	r0, [r0], -r0	; <UNPREDICTABLE>
	...
 180:	0000001c 	andeq	r0, r0, ip, lsl r0
 184:	511f0002 	tstpl	pc, r2
 188:	00040000 	andeq	r0, r4, r0
 18c:	00000000 	andeq	r0, r0, r0
 190:	00009f8c 	andeq	r9, r0, ip, lsl #31
 194:	0000003c 	andeq	r0, r0, ip, lsr r0
	...
 1a0:	0000001c 	andeq	r0, r0, ip, lsl r0
 1a4:	526c0002 	rsbpl	r0, ip, #2, 0
 1a8:	00040000 	andeq	r0, r4, r0
 1ac:	00000000 	andeq	r0, r0, r0
 1b0:	00009fc8 	andeq	r9, r0, r8, asr #31
 1b4:	0000002c 	andeq	r0, r0, ip, lsr #32
	...
 1c0:	0000001c 	andeq	r0, r0, ip, lsl r0
 1c4:	53a70002 			; <UNDEFINED> instruction: 0x53a70002
 1c8:	00040000 	andeq	r0, r4, r0
 1cc:	00000000 	andeq	r0, r0, r0
 1d0:	00009ff4 	strdeq	r9, [r0], -r4
 1d4:	00000044 	andeq	r0, r0, r4, asr #32
	...
 1e0:	0000001c 	andeq	r0, r0, ip, lsl r0
 1e4:	54a20002 	strtpl	r0, [r2], #2
 1e8:	00040000 	andeq	r0, r4, r0
 1ec:	00000000 	andeq	r0, r0, r0
 1f0:	0000a038 	andeq	sl, r0, r8, lsr r0
 1f4:	00000018 	andeq	r0, r0, r8, lsl r0
	...
 200:	0000001c 	andeq	r0, r0, ip, lsl r0
 204:	55b50002 	ldrpl	r0, [r5, #2]!
 208:	00040000 	andeq	r0, r4, r0
 20c:	00000000 	andeq	r0, r0, r0
 210:	0000a050 	andeq	sl, r0, r0, asr r0
 214:	00000030 	andeq	r0, r0, r0, lsr r0
	...
 220:	0000001c 	andeq	r0, r0, ip, lsl r0
 224:	57070002 	strpl	r0, [r7, -r2]
 228:	00040000 	andeq	r0, r4, r0
 22c:	00000000 	andeq	r0, r0, r0
 230:	0000a080 	andeq	sl, r0, r0, lsl #1
 234:	00000004 	andeq	r0, r0, r4
	...

Disassembly of section .debug_ranges:

00000000 <.debug_ranges>:
   0:	0000025c 	andeq	r0, r0, ip, asr r2
   4:	0000025c 	andeq	r0, r0, ip, asr r2
   8:	0000025c 	andeq	r0, r0, ip, asr r2
   c:	00000264 	andeq	r0, r0, r4, ror #4
  10:	000002d4 	ldrdeq	r0, [r0], -r4
  14:	00000318 	andeq	r0, r0, r8, lsl r3
	...
  20:	00000658 	andeq	r0, r0, r8, asr r6
  24:	0000079c 	muleq	r0, ip, r7
  28:	0000079c 	muleq	r0, ip, r7
  2c:	000007a0 	andeq	r0, r0, r0, lsr #15
  30:	000007a4 	andeq	r0, r0, r4, lsr #15
  34:	000007b8 			; <UNDEFINED> instruction: 0x000007b8
	...
  40:	00000008 	andeq	r0, r0, r8
  44:	0000000c 	andeq	r0, r0, ip
  48:	00000014 	andeq	r0, r0, r4, lsl r0
  4c:	00000054 	andeq	r0, r0, r4, asr r0
  50:	00000058 	andeq	r0, r0, r8, asr r0
  54:	00000060 	andeq	r0, r0, r0, rrx
	...
  60:	00000060 	andeq	r0, r0, r0, rrx
  64:	00000068 	andeq	r0, r0, r8, rrx
  68:	0000006c 	andeq	r0, r0, ip, rrx
  6c:	000000ac 	andeq	r0, r0, ip, lsr #1
  70:	000000b0 	strheq	r0, [r0], -r0	; <UNPREDICTABLE>
  74:	000000b8 	strheq	r0, [r0], -r8
	...
  80:	00000068 	andeq	r0, r0, r8, rrx
  84:	00000068 	andeq	r0, r0, r8, rrx
  88:	0000006c 	andeq	r0, r0, ip, rrx
  8c:	000000ac 	andeq	r0, r0, ip, lsr #1
  90:	000000b0 	strheq	r0, [r0], -r0	; <UNPREDICTABLE>
  94:	000000b8 	strheq	r0, [r0], -r8
	...
  a0:	000000e8 	andeq	r0, r0, r8, ror #1
  a4:	000000f0 	strdeq	r0, [r0], -r0	; <UNPREDICTABLE>
  a8:	000000f4 	strdeq	r0, [r0], -r4
  ac:	00000134 	andeq	r0, r0, r4, lsr r1
  b0:	00000138 	andeq	r0, r0, r8, lsr r1
  b4:	00000140 	andeq	r0, r0, r0, asr #2
	...
  c0:	000000f0 	strdeq	r0, [r0], -r0	; <UNPREDICTABLE>
  c4:	000000f0 	strdeq	r0, [r0], -r0	; <UNPREDICTABLE>
  c8:	000000f4 	strdeq	r0, [r0], -r4
  cc:	00000134 	andeq	r0, r0, r4, lsr r1
  d0:	00000138 	andeq	r0, r0, r8, lsr r1
  d4:	00000140 	andeq	r0, r0, r0, asr #2
	...
  e0:	00000144 	andeq	r0, r0, r4, asr #2
  e4:	00000148 	andeq	r0, r0, r8, asr #2
  e8:	00000150 	andeq	r0, r0, r0, asr r1
  ec:	0000015c 	andeq	r0, r0, ip, asr r1
	...
  f8:	000000a4 	andeq	r0, r0, r4, lsr #1
  fc:	00000148 	andeq	r0, r0, r8, asr #2
 100:	00000158 	andeq	r0, r0, r8, asr r1
 104:	0000015c 	andeq	r0, r0, ip, asr r1
 108:	00000274 	andeq	r0, r0, r4, ror r2
 10c:	00000278 	andeq	r0, r0, r8, ror r2
 110:	0000027c 	andeq	r0, r0, ip, ror r2
 114:	00000280 	andeq	r0, r0, r0, lsl #5
 118:	00000288 	andeq	r0, r0, r8, lsl #5
 11c:	0000029c 	muleq	r0, ip, r2
 120:	000002c0 	andeq	r0, r0, r0, asr #5
 124:	000002cc 	andeq	r0, r0, ip, asr #5
 128:	000002f0 	strdeq	r0, [r0], -r0	; <UNPREDICTABLE>
 12c:	000002f0 	strdeq	r0, [r0], -r0	; <UNPREDICTABLE>
 130:	000002f4 	strdeq	r0, [r0], -r4
 134:	000002f8 	strdeq	r0, [r0], -r8
	...
 140:	00000148 	andeq	r0, r0, r8, asr #2
 144:	00000158 	andeq	r0, r0, r8, asr r1
 148:	0000015c 	andeq	r0, r0, ip, asr r1
 14c:	0000018c 	andeq	r0, r0, ip, lsl #3
 150:	0000029c 	muleq	r0, ip, r2
 154:	000002ac 	andeq	r0, r0, ip, lsr #5
	...
 160:	000003c8 	andeq	r0, r0, r8, asr #7
 164:	000003d0 	ldrdeq	r0, [r0], -r0	; <UNPREDICTABLE>
 168:	00000404 	andeq	r0, r0, r4, lsl #8
 16c:	000004ac 	andeq	r0, r0, ip, lsr #9
 170:	000004c0 	andeq	r0, r0, r0, asr #9
 174:	00000920 	andeq	r0, r0, r0, lsr #18
 178:	00000928 	andeq	r0, r0, r8, lsr #18
 17c:	000009b4 			; <UNDEFINED> instruction: 0x000009b4
	...
 188:	000003c8 	andeq	r0, r0, r8, asr #7
 18c:	000003d0 	ldrdeq	r0, [r0], -r0	; <UNPREDICTABLE>
 190:	00000504 	andeq	r0, r0, r4, lsl #10
 194:	000005d0 	ldrdeq	r0, [r0], -r0	; <UNPREDICTABLE>
 198:	00000800 	andeq	r0, r0, r0, lsl #16
 19c:	00000888 	andeq	r0, r0, r8, lsl #17
 1a0:	00000930 	andeq	r0, r0, r0, lsr r9
 1a4:	000009b4 			; <UNDEFINED> instruction: 0x000009b4
	...
 1b0:	00000404 	andeq	r0, r0, r4, lsl #8
 1b4:	00000408 	andeq	r0, r0, r8, lsl #8
 1b8:	00000414 	andeq	r0, r0, r4, lsl r4
 1bc:	00000414 	andeq	r0, r0, r4, lsl r4
 1c0:	00000428 	andeq	r0, r0, r8, lsr #8
 1c4:	0000042c 	andeq	r0, r0, ip, lsr #8
	...
 1d0:	000005fc 	strdeq	r0, [r0], -ip
 1d4:	00000700 	andeq	r0, r0, r0, lsl #14
 1d8:	000007ec 	andeq	r0, r0, ip, ror #15
 1dc:	000007f4 	strdeq	r0, [r0], -r4
 1e0:	00000888 	andeq	r0, r0, r8, lsl #17
 1e4:	00000894 	muleq	r0, r4, r8
 1e8:	000008a8 	andeq	r0, r0, r8, lsr #17
 1ec:	000008bc 			; <UNDEFINED> instruction: 0x000008bc
 1f0:	00000910 	andeq	r0, r0, r0, lsl r9
 1f4:	00000920 	andeq	r0, r0, r0, lsr #18
	...
 200:	00000600 	andeq	r0, r0, r0, lsl #12
 204:	00000604 	andeq	r0, r0, r4, lsl #12
 208:	00000608 	andeq	r0, r0, r8, lsl #12
 20c:	000006b4 			; <UNDEFINED> instruction: 0x000006b4
 210:	000006cc 	andeq	r0, r0, ip, asr #13
 214:	000006d0 	ldrdeq	r0, [r0], -r0	; <UNPREDICTABLE>
 218:	000008a8 	andeq	r0, r0, r8, lsr #17
 21c:	000008b8 			; <UNDEFINED> instruction: 0x000008b8
 220:	00000910 	andeq	r0, r0, r0, lsl r9
 224:	00000920 	andeq	r0, r0, r0, lsr #18
	...
 230:	000006b4 			; <UNDEFINED> instruction: 0x000006b4
 234:	000006cc 	andeq	r0, r0, ip, asr #13
 238:	000006d0 	ldrdeq	r0, [r0], -r0	; <UNPREDICTABLE>
 23c:	00000700 	andeq	r0, r0, r0, lsl #14
 240:	000007ec 	andeq	r0, r0, ip, ror #15
 244:	000007f4 	strdeq	r0, [r0], -r4
 248:	00000888 	andeq	r0, r0, r8, lsl #17
 24c:	00000894 	muleq	r0, r4, r8
 250:	000008b8 			; <UNDEFINED> instruction: 0x000008b8
 254:	000008bc 			; <UNDEFINED> instruction: 0x000008bc
	...
 260:	00000700 	andeq	r0, r0, r0, lsl #14
 264:	00000708 	andeq	r0, r0, r8, lsl #14
 268:	0000070c 	andeq	r0, r0, ip, lsl #14
 26c:	000007ec 	andeq	r0, r0, ip, ror #15
 270:	00000894 	muleq	r0, r4, r8
 274:	000008a8 	andeq	r0, r0, r8, lsr #17
	...
 280:	00000728 	andeq	r0, r0, r8, lsr #14
 284:	000007a4 	andeq	r0, r0, r4, lsr #15
 288:	000007ac 	andeq	r0, r0, ip, lsr #15
 28c:	000007b0 			; <UNDEFINED> instruction: 0x000007b0
 290:	00000894 	muleq	r0, r4, r8
 294:	00000898 	muleq	r0, r8, r8
 298:	0000089c 	muleq	r0, ip, r8
 29c:	000008a0 	andeq	r0, r0, r0, lsr #17
	...
 2a8:	000007a4 	andeq	r0, r0, r4, lsr #15
 2ac:	000007ac 	andeq	r0, r0, ip, lsr #15
 2b0:	000007b0 			; <UNDEFINED> instruction: 0x000007b0
 2b4:	000007ec 	andeq	r0, r0, ip, ror #15
 2b8:	00000898 	muleq	r0, r8, r8
 2bc:	0000089c 	muleq	r0, ip, r8
 2c0:	000008a0 	andeq	r0, r0, r0, lsr #17
 2c4:	000008a8 	andeq	r0, r0, r8, lsr #17
	...
 2d0:	000000f0 	strdeq	r0, [r0], -r0	; <UNPREDICTABLE>
 2d4:	000000f8 	strdeq	r0, [r0], -r8
 2d8:	000000fc 	strdeq	r0, [r0], -ip
 2dc:	00000108 	andeq	r0, r0, r8, lsl #2
	...
 2e8:	00009c20 	andeq	r9, r0, r0, lsr #24
 2ec:	00009c20 	andeq	r9, r0, r0, lsr #24
 2f0:	00009c24 	andeq	r9, r0, r4, lsr #24
 2f4:	00009c2c 	andeq	r9, r0, ip, lsr #24
	...
 300:	00009bf4 	strdeq	r9, [r0], -r4
 304:	00009c80 	andeq	r9, r0, r0, lsl #25
	...
 310:	00000030 	andeq	r0, r0, r0, lsr r0
 314:	00000030 	andeq	r0, r0, r0, lsr r0
 318:	00000038 	andeq	r0, r0, r8, lsr r0
 31c:	0000004c 	andeq	r0, r0, ip, asr #32
	...
 328:	0000004c 	andeq	r0, r0, ip, asr #32
 32c:	00000050 	andeq	r0, r0, r0, asr r0
 330:	00000050 	andeq	r0, r0, r0, asr r0
 334:	00000078 	andeq	r0, r0, r8, ror r0
	...
 340:	0000004c 	andeq	r0, r0, ip, asr #32
 344:	00000050 	andeq	r0, r0, r0, asr r0
 348:	00000050 	andeq	r0, r0, r0, asr r0
 34c:	00000060 	andeq	r0, r0, r0, rrx
 350:	00000064 	andeq	r0, r0, r4, rrx
 354:	00000068 	andeq	r0, r0, r8, rrx
	...
 360:	0000004c 	andeq	r0, r0, ip, asr #32
 364:	00000050 	andeq	r0, r0, r0, asr r0
 368:	00000054 	andeq	r0, r0, r4, asr r0
 36c:	00000060 	andeq	r0, r0, r0, rrx
	...
 378:	0000009c 	muleq	r0, ip, r0
 37c:	000000a0 	andeq	r0, r0, r0, lsr #1
 380:	000000a0 	andeq	r0, r0, r0, lsr #1
 384:	000000c8 	andeq	r0, r0, r8, asr #1
	...
 390:	0000009c 	muleq	r0, ip, r0
 394:	000000a0 	andeq	r0, r0, r0, lsr #1
 398:	000000a0 	andeq	r0, r0, r0, lsr #1
 39c:	000000b0 	strheq	r0, [r0], -r0	; <UNPREDICTABLE>
 3a0:	000000b4 	strheq	r0, [r0], -r4
 3a4:	000000b8 	strheq	r0, [r0], -r8
	...
 3b0:	0000009c 	muleq	r0, ip, r0
 3b4:	000000a0 	andeq	r0, r0, r0, lsr #1
 3b8:	000000a4 	andeq	r0, r0, r4, lsr #1
 3bc:	000000b0 	strheq	r0, [r0], -r0	; <UNPREDICTABLE>
	...
 3c8:	000000c8 	andeq	r0, r0, r8, asr #1
 3cc:	000000c8 	andeq	r0, r0, r8, asr #1
 3d0:	000000cc 	andeq	r0, r0, ip, asr #1
 3d4:	0000011c 	andeq	r0, r0, ip, lsl r1
	...
 3e0:	000000f0 	strdeq	r0, [r0], -r0	; <UNPREDICTABLE>
 3e4:	000000f4 	strdeq	r0, [r0], -r4
 3e8:	000000f4 	strdeq	r0, [r0], -r4
 3ec:	0000011c 	andeq	r0, r0, ip, lsl r1
	...
 3f8:	000000f0 	strdeq	r0, [r0], -r0	; <UNPREDICTABLE>
 3fc:	000000f4 	strdeq	r0, [r0], -r4
 400:	000000f4 	strdeq	r0, [r0], -r4
 404:	00000104 	andeq	r0, r0, r4, lsl #2
 408:	00000108 	andeq	r0, r0, r8, lsl #2
 40c:	0000010c 	andeq	r0, r0, ip, lsl #2
	...
 418:	000000f0 	strdeq	r0, [r0], -r0	; <UNPREDICTABLE>
 41c:	000000f4 	strdeq	r0, [r0], -r4
 420:	000000f8 	strdeq	r0, [r0], -r8
 424:	00000104 	andeq	r0, r0, r4, lsl #2
	...

Disassembly of section .debug_line:

00000000 <.debug_line>:
       0:	000003da 	ldrdeq	r0, [r0], -sl
       4:	00d40003 	sbcseq	r0, r4, r3
       8:	01020000 	mrseq	r0, (UNDEF: 2)
       c:	000d0efb 	strdeq	r0, [sp], -fp
      10:	01010101 	tsteq	r1, r1, lsl #2
      14:	01000000 	mrseq	r0, (UNDEF: 0)
      18:	2f010000 	svccs	0x00010000
      1c:	72657355 	rsbvc	r7, r5, #1409286145	; 0x54000001
      20:	696d2f73 	stmdbvs	sp!, {r0, r1, r4, r5, r6, r8, r9, sl, fp, sp}^
      24:	2f73656c 	svccs	0x0073656c
      28:	72756f53 	rsbsvc	r6, r5, #332	; 0x14c
      2c:	632f6563 			; <UNDEFINED> instruction: 0x632f6563
      30:	30343273 	eorscc	r3, r4, r3, ror r2
      34:	6c2f786c 	stcvs	8, cr7, [pc], #-432	; fffffe8c <__bss_end__+0xffff53c4>
      38:	69706269 	ldmdbvs	r0!, {r0, r3, r5, r6, r9, sp, lr}^
      3c:	636e692f 	cmnvs	lr, #770048	; 0xbc000
      40:	6564756c 	strbvs	r7, [r4, #-1388]!	; 0xfffffa94
      44:	706f2f00 	rsbvc	r2, pc, r0, lsl #30
      48:	6f682f74 	svcvs	0x00682f74
      4c:	7262656d 	rsbvc	r6, r2, #457179136	; 0x1b400000
      50:	432f7765 			; <UNDEFINED> instruction: 0x432f7765
      54:	616c6c65 	cmnvs	ip, r5, ror #24
      58:	72612f72 	rsbvc	r2, r1, #456	; 0x1c8
      5c:	6f6e2d6d 	svcvs	0x006e2d6d
      60:	652d656e 	strvs	r6, [sp, #-1390]!	; 0xfffffa92
      64:	2d696261 	sfmcs	f6, 2, [r9, #-388]!	; 0xfffffe7c
      68:	2d392f39 	ldccs	15, cr2, [r9, #-228]!	; 0xffffff1c
      6c:	39313032 	ldmdbcc	r1!, {r1, r4, r5, ip, sp}
      70:	632d3471 			; <UNDEFINED> instruction: 0x632d3471
      74:	37303173 			; <UNDEFINED> instruction: 0x37303173
      78:	696c2f65 	stmdbvs	ip!, {r0, r2, r5, r6, r8, r9, sl, fp, sp}^
      7c:	63672f62 	cmnvs	r7, #392	; 0x188
      80:	72612f63 	rsbvc	r2, r1, #396	; 0x18c
      84:	6f6e2d6d 	svcvs	0x006e2d6d
      88:	652d656e 	strvs	r6, [sp, #-1390]!	; 0xfffffa92
      8c:	2f696261 	svccs	0x00696261
      90:	2e322e39 	mrccs	14, 1, r2, cr2, cr9, {1}
      94:	6e692f31 	mcrvs	15, 3, r2, cr9, cr1, {1}
      98:	64756c63 	ldrbtvs	r6, [r5], #-3171	; 0xfffff39d
      9c:	61000065 	tstvs	r0, r5, rrx
      a0:	6c656363 	stclvs	3, cr6, [r5], #-396	; 0xfffffe74
      a4:	0000632e 	andeq	r6, r0, lr, lsr #6
      a8:	69620000 	stmdbvs	r2!, {}^	; <UNPREDICTABLE>
      ac:	75732d74 	ldrbvc	r2, [r3, #-3444]!	; 0xfffff28c
      b0:	726f7070 	rsbvc	r7, pc, #112, 0	; 0x70
      b4:	00682e74 	rsbeq	r2, r8, r4, ror lr
      b8:	73000001 	movwvc	r0, #1
      bc:	6e696474 	mcrvs	4, 3, r6, cr9, cr4, {3}
      c0:	63672d74 	cmnvs	r7, #116, 26	; 0x1d00
      c4:	00682e63 	rsbeq	r2, r8, r3, ror #28
      c8:	72000002 	andvc	r0, r0, #2, 0
      cc:	682e6970 	stmdavs	lr!, {r4, r5, r6, r8, fp, sp, lr}
      d0:	00000100 	andeq	r0, r0, r0, lsl #2
      d4:	2e633269 	cdpcs	2, 6, cr3, cr3, cr9, {3}
      d8:	00000068 	andeq	r0, r0, r8, rrx
      dc:	2d050000 	stccs	0, cr0, [r5, #-0]
      e0:	38020500 	stmdacc	r2, {r8, sl}
      e4:	03000080 	movweq	r0, #128	; 0x80
      e8:	050100c9 	streq	r0, [r1, #-201]	; 0xffffff37
      ec:	0c051305 	stceq	3, cr1, [r5], {5}
      f0:	01050106 	tsteq	r5, r6, lsl #2
      f4:	062b052f 	strteq	r0, [fp], -pc, lsr #10
      f8:	1305054d 	movwne	r0, #21837	; 0x554d
      fc:	01061405 	tsteq	r6, r5, lsl #8
     100:	20052e2e 	andcs	r2, r5, lr, lsr #28
     104:	8301054a 	movwhi	r0, #5450	; 0x154a
     108:	03064505 	movweq	r4, #25861	; 0x6505
     10c:	0106660b 	tsteq	r6, fp, lsl #12
     110:	83060505 	movwhi	r0, #25861	; 0x6505
     114:	01061905 	tsteq	r6, r5, lsl #18
     118:	2e0f052e 	cfsh32cs	mvfx0, mvfx15, #30
     11c:	67060505 	strvs	r0, [r6, -r5, lsl #10]
     120:	2f066606 	svccs	0x00066606
     124:	06010501 	streq	r0, [r1], -r1, lsl #10
     128:	0005054b 	andeq	r0, r5, fp, asr #10
     12c:	06010402 	streq	r0, [r1], -r2, lsl #8
     130:	04020049 	streq	r0, [r2], #-73	; 0xffffffb7
     134:	02000101 	andeq	r0, r0, #1073741824	; 0x40000000
     138:	05d60104 	ldrbeq	r0, [r6, #260]	; 0x104
     13c:	7fbe0330 	svcvc	0x00be0330
     140:	050106ba 	streq	r0, [r1, #-1722]	; 0xfffff946
     144:	06830605 	streq	r0, [r3], r5, lsl #12
     148:	2f0105ba 	svccs	0x000105ba
     14c:	6b062b05 	blvs	18ad68 <__bss_end__+0x1802a0>
     150:	05050106 	streq	r0, [r5, #-262]	; 0xfffffefa
     154:	4a068306 	bmi	1a0d74 <__bss_end__+0x1962ac>
     158:	83133006 	tsthi	r3, #6, 0
     15c:	13060105 	movwne	r0, #24837	; 0x6105
     160:	69063305 	stmdbvs	r6, {r0, r2, r8, r9, ip, sp}
     164:	05050106 	streq	r0, [r5, #-262]	; 0xfffffefa
     168:	05134b06 	ldreq	r4, [r3, #-2822]	; 0xfffff4fa
     16c:	0501060d 	streq	r0, [r1, #-1549]	; 0xfffff9f3
     170:	052f0605 	streq	r0, [pc, #-1541]!	; fffffb73 <__bss_end__+0xffff50ab>
     174:	0501060d 	streq	r0, [r1, #-1549]	; 0xfffff9f3
     178:	062f0605 	strteq	r0, [pc], -r5, lsl #12
     17c:	01052e2e 	tsteq	r5, lr, lsr #28
     180:	06460530 			; <UNDEFINED> instruction: 0x06460530
     184:	0501064e 	streq	r0, [r1, #-1614]	; 0xfffff9b2
     188:	06bb0609 	ldrteq	r0, [fp], r9, lsl #12
     18c:	2f062e2e 	svccs	0x00062e2e
     190:	01061005 	tsteq	r6, r5
     194:	4a830105 	bmi	fe0c05b0 <__bss_end__+0xfe0b5ae8>
     198:	00063205 	andeq	r3, r6, r5, lsl #4
     19c:	81b80205 			; <UNDEFINED> instruction: 0x81b80205
     1a0:	1a030000 	bne	c01a8 <__bss_end__+0xb56e0>
     1a4:	82010601 	andhi	r0, r1, #1048576	; 0x100000
     1a8:	2f060505 	svccs	0x00060505
     1ac:	01060e05 	tsteq	r6, r5, lsl #28
     1b0:	2f060505 	svccs	0x00060505
     1b4:	01060d05 	tsteq	r6, r5, lsl #26
     1b8:	0605052e 	streq	r0, [r5], -lr, lsr #10
     1bc:	060d0567 	streq	r0, [sp], -r7, ror #10
     1c0:	05054a01 	streq	r4, [r5, #-2561]	; 0xfffff5ff
     1c4:	0d054b06 	vstreq	d4, [r5, #-24]	; 0xffffffe8
     1c8:	054a0106 	strbeq	r0, [sl, #-262]	; 0xfffffefa
     1cc:	052f0605 	streq	r0, [pc, #-1541]!	; fffffbcf <__bss_end__+0xffff5107>
     1d0:	01410301 	cmpeq	r1, r1, lsl #6
     1d4:	05130505 	ldreq	r0, [r3, #-1285]	; 0xfffffafb
     1d8:	6601060c 	strvs	r0, [r1], -ip, lsl #12
     1dc:	3f030105 	svccc	0x00030105
     1e0:	052e2e01 	streq	r2, [lr, #-3585]!	; 0xfffff1ff
     1e4:	25030626 	strcs	r0, [r3, #-1574]	; 0xfffff9da
     1e8:	1305054a 	movwne	r0, #21834	; 0x554a
     1ec:	13060105 	movwne	r0, #24837	; 0x6105
     1f0:	063c052e 	ldrteq	r0, [ip], -lr, lsr #10
     1f4:	05010631 	streq	r0, [r1, #-1585]	; 0xfffff9cf
     1f8:	139f0605 	orrsne	r0, pc, #5242880	; 0x500000
     1fc:	05d91405 	ldrbeq	r1, [r9, #1029]	; 0x405
     200:	1605011b 			; <UNDEFINED> instruction: 0x1605011b
     204:	05050106 	streq	r0, [r5, #-262]	; 0xfffffefa
     208:	0615052e 	ldreq	r0, [r5], -lr, lsr #10
     20c:	011d052f 	tsteq	sp, pc, lsr #10
     210:	01061705 	tsteq	r6, r5, lsl #14
     214:	052e0505 	streq	r0, [lr, #-1285]!	; 0xfffffafb
     218:	012f060e 			; <UNDEFINED> instruction: 0x012f060e
     21c:	2e2e8206 	cdpcs	2, 2, cr8, cr14, cr6, {0}
     220:	16052e06 	strne	r2, [r5], -r6, lsl #28
     224:	0e052c06 	cdpeq	12, 0, cr2, cr5, cr6, {0}
     228:	05053006 	streq	r3, [r5, #-6]
     22c:	06140516 			; <UNDEFINED> instruction: 0x06140516
     230:	2e2e2e01 	cdpcs	14, 2, cr2, cr14, cr1, {0}
     234:	2f060505 	svccs	0x00060505
     238:	01050204 	tsteq	r5, r4, lsl #4
     23c:	05014303 	streq	r4, [r1, #-771]	; 0xfffffcfd
     240:	01011305 	tsteq	r1, r5, lsl #6
     244:	01011301 	tsteq	r1, r1, lsl #6
     248:	01131901 	tsteq	r3, r1, lsl #18
     24c:	01130101 	tsteq	r3, r1, lsl #2
     250:	03060106 	movweq	r0, #24838	; 0x6106
     254:	01140159 	tsteq	r4, r9, asr r1
     258:	06130101 	ldreq	r0, [r3], -r1, lsl #2
     25c:	06012403 	streq	r2, [r1], -r3, lsl #8
     260:	0614014a 	ldreq	r0, [r4], -sl, asr #2
     264:	68030601 	stmdavs	r3, {r0, r9, sl}
     268:	01010101 	tsteq	r1, r1, lsl #2
     26c:	01010113 	tsteq	r1, r3, lsl r1
     270:	016c0314 	cmneq	ip, r4, lsl r3
     274:	01010114 	tsteq	r1, r4, lsl r1
     278:	01140313 	tsteq	r4, r3, lsl r3
     27c:	c3030104 	movwgt	r0, #12548	; 0x3104
     280:	84680100 	strbthi	r0, [r8], #-256	; 0xffffff00
     284:	01062505 	tsteq	r6, r5, lsl #10
     288:	06820505 	streq	r0, [r2], r5, lsl #10
     28c:	0626054b 	strteq	r0, [r6], -fp, asr #10
     290:	82050501 	andhi	r0, r5, #4194304	; 0x400000
     294:	0c054b06 			; <UNDEFINED> instruction: 0x0c054b06
     298:	01050106 	tsteq	r5, r6, lsl #2
     29c:	03160583 	tsteq	r6, #549453824	; 0x20c00000
     2a0:	02046670 	andeq	r6, r4, #112, 12	; 0x7000000
     2a4:	03060505 	movweq	r0, #25861	; 0x6505
     2a8:	06014a56 			; <UNDEFINED> instruction: 0x06014a56
     2ac:	04660682 	strbteq	r0, [r6], #-1666	; 0xfffff97e
     2b0:	03220501 			; <UNDEFINED> instruction: 0x03220501
     2b4:	063c083d 			; <UNDEFINED> instruction: 0x063c083d
     2b8:	06050501 	streq	r0, [r5], -r1, lsl #10
     2bc:	01056930 	tsteq	r5, r0, lsr r9
     2c0:	26054b06 	strcs	r4, [r5], -r6, lsl #22
     2c4:	2e0c0306 	cdpcs	3, 0, cr0, cr12, cr6, {0}
     2c8:	05050106 	streq	r0, [r5, #-262]	; 0xfffffefa
     2cc:	05136906 	ldreq	r6, [r3, #-2310]	; 0xfffff6fa
     2d0:	0501060d 	streq	r0, [r1, #-1549]	; 0xfffff9f3
     2d4:	05310605 	ldreq	r0, [r1, #-1541]!	; 0xfffff9fb
     2d8:	04020009 	streq	r0, [r2], #-9
     2dc:	0a051301 	beq	144ee8 <__bss_end__+0x13a420>
     2e0:	01040200 	mrseq	r0, R12_usr
     2e4:	000c0511 	andeq	r0, ip, r1, lsl r5
     2e8:	06010402 	streq	r0, [r1], -r2, lsl #8
     2ec:	000a0501 	andeq	r0, sl, r1, lsl #10
     2f0:	4a010402 	bmi	41300 <__bss_end__+0x36838>
     2f4:	4f060505 	svcmi	0x00060505
     2f8:	06090514 			; <UNDEFINED> instruction: 0x06090514
     2fc:	05058201 	streq	r8, [r5, #-513]	; 0xfffffdff
     300:	0905d706 	stmdbeq	r5, {r1, r2, r8, r9, sl, ip, lr, pc}
     304:	054a0106 	strbeq	r0, [sl, #-262]	; 0xfffffefa
     308:	21080605 	tstcs	r8, r5, lsl #12
     30c:	01060905 	tsteq	r6, r5, lsl #18
     310:	0605054a 	streq	r0, [r5], -sl, asr #10
     314:	030105f4 	movweq	r0, #5620	; 0x15f4
     318:	05017edb 	streq	r7, [r1, #-3803]	; 0xfffff125
     31c:	0c051305 	stceq	3, cr1, [r5], {5}
     320:	05660106 	strbeq	r0, [r6, #-262]!	; 0xfffffefa
     324:	01a50301 			; <UNDEFINED> instruction: 0x01a50301
     328:	14052e01 	strne	r2, [r5], #-3585	; 0xfffff1ff
     32c:	05053406 	streq	r3, [r5, #-1030]	; 0xfffffbfa
     330:	4d2f4b4b 	fstmdbxmi	pc!, {d4-d40}	;@ Deprecated
     334:	11051914 	tstne	r5, r4, lsl r9
     338:	05050106 	streq	r0, [r5, #-262]	; 0xfffffefa
     33c:	07058306 	streq	r8, [r5, -r6, lsl #6]
     340:	09050106 	stmdbeq	r5, {r1, r2, r8}
     344:	06156706 	ldreq	r6, [r5], -r6, lsl #14
     348:	0605052e 	streq	r0, [r5], -lr, lsr #10
     34c:	9f9f4e31 	svcls	0x009f4e31
     350:	05a19f9f 	streq	r9, [r1, #3999]!	; 0xf9f
     354:	05010611 	streq	r0, [r1, #-1553]	; 0xfffff9ef
     358:	01830605 	orreq	r0, r3, r5, lsl #12
     35c:	67060d05 	strvs	r0, [r6, -r5, lsl #26]
     360:	02001405 	andeq	r1, r0, #83886080	; 0x5000000
     364:	2e060104 	adfcss	f0, f6, f4
     368:	02000505 	andeq	r0, r0, #20971520	; 0x1400000
     36c:	01060104 	tsteq	r6, r4, lsl #2
     370:	02000905 	andeq	r0, r0, #81920	; 0x14000
     374:	4b060304 	blmi	180f8c <__bss_end__+0x1764c4>
     378:	02001d05 	andeq	r1, r0, #320	; 0x140
     37c:	01060304 	tsteq	r6, r4, lsl #6
     380:	02000905 	andeq	r0, r0, #81920	; 0x14000
     384:	83060304 	movwhi	r0, #25348	; 0x6304
     388:	03040200 	movweq	r0, #16896	; 0x4200
     38c:	04020067 	streq	r0, [r2], #-103	; 0xffffff99
     390:	02006703 	andeq	r6, r0, #786432	; 0xc0000
     394:	3e080304 	cdpcc	3, 0, cr0, cr8, cr4, {0}
     398:	02001d05 	andeq	r1, r0, #320	; 0x140
     39c:	7a030304 	bvc	c0fb4 <__bss_end__+0xb64ec>
     3a0:	001e054a 	andseq	r0, lr, sl, asr #10
     3a4:	06030402 	streq	r0, [r3], -r2, lsl #8
     3a8:	04020001 	streq	r0, [r2], #-1
     3ac:	02002e03 	andeq	r2, r0, #3, 28	; 0x30
     3b0:	052e0304 	streq	r0, [lr, #-772]!	; 0xfffffcfc
     3b4:	6d030609 	stcvs	6, cr0, [r3, #-36]	; 0xffffffdc
     3b8:	08060101 	stmdaeq	r6, {r0, r8}
     3bc:	052e0620 	streq	r0, [lr, #-1568]!	; 0xfffff9e0
     3c0:	04020005 	streq	r0, [r2], #-5
     3c4:	2e120301 	cdpcs	3, 1, cr0, cr2, cr1, {0}
     3c8:	01040200 	mrseq	r0, R12_usr
     3cc:	04020001 	streq	r0, [r2], #-1
     3d0:	0105d601 	tsteq	r5, r1, lsl #12
     3d4:	2e090306 	cdpcs	3, 0, cr0, cr9, cr6, {0}
     3d8:	0018024a 	andseq	r0, r8, sl, asr #4
     3dc:	09550101 	ldmdbeq	r5, {r0, r8}^
     3e0:	00030000 	andeq	r0, r3, r0
     3e4:	00000092 	muleq	r0, r2, r0
     3e8:	0efb0102 	cdpeq	1, 15, cr0, cr11, cr2, {0}
     3ec:	0101000d 	tsteq	r1, sp
     3f0:	00000101 	andeq	r0, r0, r1, lsl #2
     3f4:	00000100 	andeq	r0, r0, r0, lsl #2
     3f8:	73752f01 	cmnvc	r5, #1, 30
     3fc:	696c2f72 	stmdbvs	ip!, {r1, r4, r5, r6, r8, r9, sl, fp, sp}^
     400:	63672f62 	cmnvs	r7, #392	; 0x188
     404:	72612f63 	rsbvc	r2, r1, #396	; 0x18c
     408:	6f6e2d6d 	svcvs	0x006e2d6d
     40c:	652d656e 	strvs	r6, [sp, #-1390]!	; 0xfffffa92
     410:	2f696261 	svccs	0x00696261
     414:	2e322e39 	mrccs	14, 1, r2, cr2, cr9, {1}
     418:	6e692f31 	mcrvs	15, 3, r2, cr9, cr1, {1}
     41c:	64756c63 	ldrbtvs	r6, [r5], #-3171	; 0xfffff39d
     420:	682f0065 	stmdavs	pc!, {r0, r2, r5, r6}	; <UNPREDICTABLE>
     424:	2f656d6f 	svccs	0x00656d6f
     428:	6c676e65 	stclvs	14, cr6, [r7], #-404	; 0xfffffe6c
     42c:	632f7265 			; <UNDEFINED> instruction: 0x632f7265
     430:	7373616c 	cmnvc	r3, #27
     434:	3473632f 	ldrbtcc	r6, [r3], #-815	; 0xfffffcd1
     438:	322d6e39 	eorcc	r6, sp, #912	; 0x390
     43c:	74756131 	ldrbtvc	r6, [r5], #-305	; 0xfffffecf
     440:	696c2f2f 	stmdbvs	ip!, {r0, r1, r2, r3, r5, r8, r9, sl, fp, sp}^
     444:	2f697062 	svccs	0x00697062
     448:	6c636e69 	stclvs	14, cr6, [r3], #-420	; 0xfffffe5c
     44c:	00656475 	rsbeq	r6, r5, r5, ror r4
     450:	63326900 	teqvs	r2, #0, 18
     454:	0000632e 	andeq	r6, r0, lr, lsr #6
     458:	74730000 	ldrbtvc	r0, [r3], #-0
     45c:	746e6964 	strbtvc	r6, [lr], #-2404	; 0xfffff69c
     460:	0100682e 	tsteq	r0, lr, lsr #16
     464:	70720000 	rsbsvc	r0, r2, r0
     468:	00682e69 	rsbeq	r2, r8, r9, ror #28
     46c:	67000002 	strvs	r0, [r0, -r2]
     470:	2e6f6970 			; <UNDEFINED> instruction: 0x2e6f6970
     474:	00020068 	andeq	r0, r2, r8, rrx
     478:	29050000 	stmdbcs	r5, {}	; <UNPREDICTABLE>
     47c:	d8020500 	stmdale	r2, {r8, sl}
     480:	03000085 	movweq	r0, #133	; 0x85
     484:	050100f6 	streq	r0, [r1, #-246]	; 0xffffff0a
     488:	13131302 	tstne	r3, #134217728	; 0x8000000
     48c:	01060e05 	tsteq	r6, r5, lsl #28
     490:	0602052e 	streq	r0, [r2], -lr, lsr #10
     494:	060e052f 	streq	r0, [lr], -pc, lsr #10
     498:	06020501 	streq	r0, [r2], -r1, lsl #10
     49c:	0601052f 	streq	r0, [r1], -pc, lsr #10
     4a0:	06290513 			; <UNDEFINED> instruction: 0x06290513
     4a4:	052e3703 	streq	r3, [lr, #-1795]!	; 0xfffff8fd
     4a8:	05131302 	ldreq	r1, [r3, #-770]	; 0xfffffcfe
     4ac:	2e130601 	cfmsub32cs	mvax0, mvfx0, mvfx3, mvfx1
     4b0:	03062005 	movweq	r2, #24581	; 0x6005
     4b4:	054a01fa 	strbeq	r0, [sl, #-506]	; 0xfffffe06
     4b8:	05012f05 	streq	r2, [r1, #-3845]	; 0xfffff0fb
     4bc:	05050131 	streq	r0, [r5, #-305]	; 0xfffffecf
     4c0:	30050113 	andcc	r0, r5, r3, lsl r1
     4c4:	13050501 	movwne	r0, #21761	; 0x5501
     4c8:	012e0501 			; <UNDEFINED> instruction: 0x012e0501
     4cc:	01130505 	tsteq	r3, r5, lsl #10
     4d0:	05013205 	streq	r3, [r1, #-517]	; 0xfffffdfb
     4d4:	05011305 	streq	r1, [r1, #-773]	; 0xfffffcfb
     4d8:	0505012f 	streq	r0, [r5, #-303]	; 0xfffffed1
     4dc:	34050113 	strcc	r0, [r5], #-275	; 0xfffffeed
     4e0:	13050501 	movwne	r0, #21761	; 0x5501
     4e4:	01360501 	teqeq	r6, r1, lsl #10
     4e8:	01130505 	tsteq	r3, r5, lsl #10
     4ec:	05014005 	streq	r4, [r1, #-5]
     4f0:	05011405 	streq	r1, [r1, #-1029]	; 0xfffffbfb
     4f4:	02050127 	andeq	r0, r5, #-1073741815	; 0xc0000009
     4f8:	01010113 	tsteq	r1, r3, lsl r1
     4fc:	01010101 	tsteq	r1, r1, lsl #2
     500:	01010101 	tsteq	r1, r1, lsl #2
     504:	01010101 	tsteq	r1, r1, lsl #2
     508:	01010101 	tsteq	r1, r1, lsl #2
     50c:	01010113 	tsteq	r1, r3, lsl r1
     510:	01010101 	tsteq	r1, r1, lsl #2
     514:	01010101 	tsteq	r1, r1, lsl #2
     518:	01010101 	tsteq	r1, r1, lsl #2
     51c:	01010101 	tsteq	r1, r1, lsl #2
     520:	01010113 	tsteq	r1, r3, lsl r1
     524:	01010101 	tsteq	r1, r1, lsl #2
     528:	01010101 	tsteq	r1, r1, lsl #2
     52c:	01010101 	tsteq	r1, r1, lsl #2
     530:	01010101 	tsteq	r1, r1, lsl #2
     534:	01010113 	tsteq	r1, r3, lsl r1
     538:	01010101 	tsteq	r1, r1, lsl #2
     53c:	01010101 	tsteq	r1, r1, lsl #2
     540:	01010101 	tsteq	r1, r1, lsl #2
     544:	01010101 	tsteq	r1, r1, lsl #2
     548:	01010113 	tsteq	r1, r3, lsl r1
     54c:	01010101 	tsteq	r1, r1, lsl #2
     550:	01010101 	tsteq	r1, r1, lsl #2
     554:	01010101 	tsteq	r1, r1, lsl #2
     558:	01010101 	tsteq	r1, r1, lsl #2
     55c:	01010113 	tsteq	r1, r3, lsl r1
     560:	01010101 	tsteq	r1, r1, lsl #2
     564:	01010101 	tsteq	r1, r1, lsl #2
     568:	01010101 	tsteq	r1, r1, lsl #2
     56c:	01010101 	tsteq	r1, r1, lsl #2
     570:	01010113 	tsteq	r1, r3, lsl r1
     574:	01010101 	tsteq	r1, r1, lsl #2
     578:	01010101 	tsteq	r1, r1, lsl #2
     57c:	01010101 	tsteq	r1, r1, lsl #2
     580:	01010101 	tsteq	r1, r1, lsl #2
     584:	01140505 	tsteq	r4, r5, lsl #10
     588:	05012705 	streq	r2, [r1, #-1797]	; 0xfffff8fb
     58c:	01011302 	tsteq	r1, r2, lsl #6
     590:	01010101 	tsteq	r1, r1, lsl #2
     594:	01010101 	tsteq	r1, r1, lsl #2
     598:	01010101 	tsteq	r1, r1, lsl #2
     59c:	01010101 	tsteq	r1, r1, lsl #2
     5a0:	01011301 	tsteq	r1, r1, lsl #6
     5a4:	01010101 	tsteq	r1, r1, lsl #2
     5a8:	01010101 	tsteq	r1, r1, lsl #2
     5ac:	01010101 	tsteq	r1, r1, lsl #2
     5b0:	01010101 	tsteq	r1, r1, lsl #2
     5b4:	01011301 	tsteq	r1, r1, lsl #6
     5b8:	01010101 	tsteq	r1, r1, lsl #2
     5bc:	01010101 	tsteq	r1, r1, lsl #2
     5c0:	01010101 	tsteq	r1, r1, lsl #2
     5c4:	01010101 	tsteq	r1, r1, lsl #2
     5c8:	01011301 	tsteq	r1, r1, lsl #6
     5cc:	01010101 	tsteq	r1, r1, lsl #2
     5d0:	01010101 	tsteq	r1, r1, lsl #2
     5d4:	01010101 	tsteq	r1, r1, lsl #2
     5d8:	01010101 	tsteq	r1, r1, lsl #2
     5dc:	01011301 	tsteq	r1, r1, lsl #6
     5e0:	01010101 	tsteq	r1, r1, lsl #2
     5e4:	01010101 	tsteq	r1, r1, lsl #2
     5e8:	01010101 	tsteq	r1, r1, lsl #2
     5ec:	01010101 	tsteq	r1, r1, lsl #2
     5f0:	01011301 	tsteq	r1, r1, lsl #6
     5f4:	01010101 	tsteq	r1, r1, lsl #2
     5f8:	01010101 	tsteq	r1, r1, lsl #2
     5fc:	01010101 	tsteq	r1, r1, lsl #2
     600:	01010101 	tsteq	r1, r1, lsl #2
     604:	01011301 	tsteq	r1, r1, lsl #6
     608:	01010101 	tsteq	r1, r1, lsl #2
     60c:	01010101 	tsteq	r1, r1, lsl #2
     610:	01010101 	tsteq	r1, r1, lsl #2
     614:	01010101 	tsteq	r1, r1, lsl #2
     618:	01011301 	tsteq	r1, r1, lsl #6
     61c:	01010101 	tsteq	r1, r1, lsl #2
     620:	01010101 	tsteq	r1, r1, lsl #2
     624:	01010101 	tsteq	r1, r1, lsl #2
     628:	01010101 	tsteq	r1, r1, lsl #2
     62c:	01011301 	tsteq	r1, r1, lsl #6
     630:	01010101 	tsteq	r1, r1, lsl #2
     634:	01010101 	tsteq	r1, r1, lsl #2
     638:	01010101 	tsteq	r1, r1, lsl #2
     63c:	01010101 	tsteq	r1, r1, lsl #2
     640:	01011301 	tsteq	r1, r1, lsl #6
     644:	06010501 	streq	r0, [r1], -r1, lsl #10
     648:	061c0513 			; <UNDEFINED> instruction: 0x061c0513
     64c:	2e7ec703 	cdpcs	7, 7, cr12, cr14, cr3, {0}
     650:	014c0205 	cmpeq	ip, r5, lsl #4
     654:	04040200 	streq	r0, [r4], #-512	; 0xfffffe00
     658:	04020001 	streq	r0, [r2], #-1
     65c:	02000104 	andeq	r0, r0, #1
     660:	00820504 	addeq	r0, r2, r4, lsl #10
     664:	82020402 	andhi	r0, r2, #33554432	; 0x2000000
     668:	02040200 	andeq	r0, r4, #0, 4
     66c:	04020001 	streq	r0, [r2], #-1
     670:	02008203 	andeq	r8, r0, #805306368	; 0x30000000
     674:	00010304 	andeq	r0, r1, r4, lsl #6
     678:	9e030402 	cdpls	4, 0, cr0, cr3, cr2, {0}
     67c:	01040200 	mrseq	r0, R12_usr
     680:	0402002e 	streq	r0, [r2], #-46	; 0xffffffd2
     684:	02000101 	andeq	r0, r0, #1073741824	; 0x40000000
     688:	009e0104 	addseq	r0, lr, r4, lsl #2
     68c:	2e060402 	cdpcs	4, 0, cr0, cr6, cr2, {0}
     690:	06040200 	streq	r0, [r4], -r0, lsl #4
     694:	04020015 	streq	r0, [r2], #-21	; 0xffffffeb
     698:	02000106 	andeq	r0, r0, #-2147483647	; 0x80000001
     69c:	00820204 	addeq	r0, r2, r4, lsl #4
     6a0:	01020402 	tsteq	r2, r2, lsl #8
     6a4:	02040200 	andeq	r0, r4, #0, 4
     6a8:	04020014 	streq	r0, [r2], #-20	; 0xffffffec
     6ac:	02000102 	andeq	r0, r0, #-2147483648	; 0x80000000
     6b0:	00820204 	addeq	r0, r2, r4, lsl #4
     6b4:	01020402 	tsteq	r2, r2, lsl #8
     6b8:	02040200 	andeq	r0, r4, #0, 4
     6bc:	00010514 	andeq	r0, r1, r4, lsl r5
     6c0:	06020402 	streq	r0, [r2], -r2, lsl #8
     6c4:	0002052f 	andeq	r0, r2, pc, lsr #10
     6c8:	06010402 	streq	r0, [r1], -r2, lsl #8
     6cc:	04020045 	streq	r0, [r2], #-69	; 0xffffffbb
     6d0:	02000101 	andeq	r0, r0, #1073741824	; 0x40000000
     6d4:	00d60104 	sbcseq	r0, r6, r4, lsl #2
     6d8:	30010402 	andcc	r0, r1, r2, lsl #8
     6dc:	01040200 	mrseq	r0, R12_usr
     6e0:	04020001 	streq	r0, [r2], #-1
     6e4:	3205d601 	andcc	sp, r5, #1048576	; 0x100000
     6e8:	087f9b03 	ldmdaeq	pc!, {r0, r1, r8, r9, fp, ip, pc}^	; <UNPREDICTABLE>
     6ec:	05010658 	streq	r0, [r1, #-1624]	; 0xfffff9a8
     6f0:	052f0602 	streq	r0, [pc, #-1538]!	; f6 <__code_start__-0x7f0a>
     6f4:	01010111 	tsteq	r1, r1, lsl r1
     6f8:	01010101 	tsteq	r1, r1, lsl #2
     6fc:	0609052e 	streq	r0, [r9], -lr, lsr #10
     700:	2f010501 	svccs	0x00010501
     704:	03062005 	movweq	r2, #24581	; 0x6005
     708:	02052e2d 	andeq	r2, r5, #720	; 0x2d0
     70c:	0611052f 	ldreq	r0, [r1], -pc, lsr #10
     710:	06030501 	streq	r0, [r3], -r1, lsl #10
     714:	05131667 	ldreq	r1, [r3, #-1639]	; 0xfffff999
     718:	01011302 	tsteq	r1, r2, lsl #6
     71c:	01010101 	tsteq	r1, r1, lsl #2
     720:	01050101 	tsteq	r5, r1, lsl #2
     724:	32058306 	andcc	r8, r5, #402653184	; 0x18000000
     728:	7f8e0306 	svcvc	0x008e0306
     72c:	0501064a 	streq	r0, [r1, #-1610]	; 0xfffff9b6
     730:	052f0602 	streq	r0, [pc, #-1538]!	; 136 <__code_start__-0x7eca>
     734:	01010111 	tsteq	r1, r1, lsl r1
     738:	01010101 	tsteq	r1, r1, lsl #2
     73c:	0609052e 	streq	r0, [r9], -lr, lsr #10
     740:	2f010501 	svccs	0x00010501
     744:	03064405 	movweq	r4, #25605	; 0x6405
     748:	062e00f3 			; <UNDEFINED> instruction: 0x062e00f3
     74c:	06050501 	streq	r0, [r5], -r1, lsl #10
     750:	3102059f 			; <UNDEFINED> instruction: 0x3102059f
     754:	04020001 	streq	r0, [r2], #-1
     758:	02000104 	andeq	r0, r0, #1
     75c:	00010404 	andeq	r0, r1, r4, lsl #8
     760:	82050402 	andhi	r0, r5, #33554432	; 0x2000000
     764:	02040200 	andeq	r0, r4, #0, 4
     768:	04020082 	streq	r0, [r2], #-130	; 0xffffff7e
     76c:	02000102 	andeq	r0, r0, #-2147483648	; 0x80000000
     770:	00820304 	addeq	r0, r2, r4, lsl #6
     774:	01030402 	tsteq	r3, r2, lsl #8
     778:	03040200 	movweq	r0, #16896	; 0x4200
     77c:	0402009e 	streq	r0, [r2], #-158	; 0xffffff62
     780:	02002e01 	andeq	r2, r0, #1, 28
     784:	00010104 	andeq	r0, r1, r4, lsl #2
     788:	9e010402 	cdpls	4, 0, cr0, cr1, cr2, {0}
     78c:	06040200 	streq	r0, [r4], -r0, lsl #4
     790:	0402002e 	streq	r0, [r2], #-46	; 0xffffffd2
     794:	02001506 	andeq	r1, r0, #25165824	; 0x1800000
     798:	00010604 	andeq	r0, r1, r4, lsl #12
     79c:	82020402 	andhi	r0, r2, #33554432	; 0x2000000
     7a0:	02040200 	andeq	r0, r4, #0, 4
     7a4:	04020001 	streq	r0, [r2], #-1
     7a8:	02001402 	andeq	r1, r0, #33554432	; 0x2000000
     7ac:	00310204 	eorseq	r0, r1, r4, lsl #4
     7b0:	01020402 	tsteq	r2, r2, lsl #8
     7b4:	02040200 	andeq	r0, r4, #0, 4
     7b8:	0402004a 	streq	r0, [r2], #-74	; 0xffffffb6
     7bc:	02000102 	andeq	r0, r0, #-2147483648	; 0x80000000
     7c0:	00130204 	andseq	r0, r3, r4, lsl #4
     7c4:	69020402 	stmdbvs	r2, {r1, sl}
     7c8:	02040200 	andeq	r0, r4, #0, 4
     7cc:	04020001 	streq	r0, [r2], #-1
     7d0:	02004a02 	andeq	r4, r0, #8192	; 0x2000
     7d4:	00010204 	andeq	r0, r1, r4, lsl #4
     7d8:	13020402 	movwne	r0, #9218	; 0x2402
     7dc:	02040200 	andeq	r0, r4, #0, 4
     7e0:	00110568 	andseq	r0, r1, r8, ror #10
     7e4:	06020402 	streq	r0, [r2], -r2, lsl #8
     7e8:	04020001 	streq	r0, [r2], #-1
     7ec:	03052e02 	movweq	r2, #24066	; 0x5e02
     7f0:	02040200 	andeq	r0, r4, #0, 4
     7f4:	02004b06 	andeq	r4, r0, #6144	; 0x1800
     7f8:	05130204 	ldreq	r0, [r3, #-516]	; 0xfffffdfc
     7fc:	04020008 	streq	r0, [r2], #-8
     800:	05010602 	streq	r0, [r1, #-1538]	; 0xfffff9fe
     804:	04020003 	streq	r0, [r2], #-3
     808:	052f0602 	streq	r0, [pc, #-1538]!	; 20e <__code_start__-0x7df2>
     80c:	0402000a 	streq	r0, [r2], #-10
     810:	00010602 	andeq	r0, r1, r2, lsl #12
     814:	2e020402 	cdpcs	4, 0, cr0, cr2, cr2, {0}
     818:	02000205 	andeq	r0, r0, #1342177280	; 0x50000000
     81c:	2f060204 	svccs	0x00060204
     820:	02040200 	andeq	r0, r4, #0, 4
     824:	04020001 	streq	r0, [r2], #-1
     828:	02000102 	andeq	r0, r0, #-2147483648	; 0x80000000
     82c:	00010204 	andeq	r0, r1, r4, lsl #4
     830:	01020402 	tsteq	r2, r2, lsl #8
     834:	02040200 	andeq	r0, r4, #0, 4
     838:	04020001 	streq	r0, [r2], #-1
     83c:	02000102 	andeq	r0, r0, #-2147483648	; 0x80000000
     840:	00010204 	andeq	r0, r1, r4, lsl #4
     844:	01020402 	tsteq	r2, r2, lsl #8
     848:	02040200 	andeq	r0, r4, #0, 4
     84c:	0402006e 	streq	r0, [r2], #-110	; 0xffffff92
     850:	02000102 	andeq	r0, r0, #-2147483648	; 0x80000000
     854:	00010404 	andeq	r0, r1, r4, lsl #8
     858:	01040402 	tsteq	r4, r2, lsl #8
     85c:	05040200 	streq	r0, [r4, #-512]	; 0xfffffe00
     860:	04020082 	streq	r0, [r2], #-130	; 0xffffff7e
     864:	02008202 	andeq	r8, r0, #536870912	; 0x20000000
     868:	00010204 	andeq	r0, r1, r4, lsl #4
     86c:	82030402 	andhi	r0, r3, #33554432	; 0x2000000
     870:	03040200 	movweq	r0, #16896	; 0x4200
     874:	04020001 	streq	r0, [r2], #-1
     878:	02009e03 	andeq	r9, r0, #3, 28	; 0x30
     87c:	68030104 	stmdavs	r3, {r2, r8}
     880:	0402002e 	streq	r0, [r2], #-46	; 0xffffffd2
     884:	02000101 	andeq	r0, r0, #1073741824	; 0x40000000
     888:	00d60104 	sbcseq	r0, r6, r4, lsl #2
     88c:	33010402 	movwcc	r0, #5122	; 0x1402
     890:	01040200 	mrseq	r0, R12_usr
     894:	04020001 	streq	r0, [r2], #-1
     898:	0200d601 	andeq	sp, r0, #1048576	; 0x100000
     89c:	00320104 	eorseq	r0, r2, r4, lsl #2
     8a0:	01010402 	tsteq	r1, r2, lsl #8
     8a4:	01040200 	mrseq	r0, R12_usr
     8a8:	040200d6 	streq	r0, [r2], #-214	; 0xffffff2a
     8ac:	2e0f0301 	cdpcs	3, 0, cr0, cr15, cr1, {0}
     8b0:	01040200 	mrseq	r0, R12_usr
     8b4:	04020001 	streq	r0, [r2], #-1
     8b8:	01059e01 	tsteq	r5, r1, lsl #28
     8bc:	054a2f06 	strbeq	r2, [sl, #-3846]	; 0xfffff0fa
     8c0:	05000649 	streq	r0, [r0, #-1609]	; 0xfffff9b7
     8c4:	00891402 	addeq	r1, r9, r2, lsl #8
     8c8:	01310300 	teqeq	r1, r0, lsl #6
     8cc:	05050106 	streq	r0, [r5, #-262]	; 0xfffffefa
     8d0:	02059f06 	andeq	r9, r5, #6, 30
     8d4:	02000131 	andeq	r0, r0, #1073741836	; 0x4000000c
     8d8:	00010404 	andeq	r0, r1, r4, lsl #8
     8dc:	01040402 	tsteq	r4, r2, lsl #8
     8e0:	05040200 	streq	r0, [r4, #-512]	; 0xfffffe00
     8e4:	04020082 	streq	r0, [r2], #-130	; 0xffffff7e
     8e8:	02008202 	andeq	r8, r0, #536870912	; 0x20000000
     8ec:	00010204 	andeq	r0, r1, r4, lsl #4
     8f0:	82030402 	andhi	r0, r3, #33554432	; 0x2000000
     8f4:	03040200 	movweq	r0, #16896	; 0x4200
     8f8:	04020001 	streq	r0, [r2], #-1
     8fc:	02009e03 	andeq	r9, r0, #3, 28	; 0x30
     900:	002e0104 	eoreq	r0, lr, r4, lsl #2
     904:	01010402 	tsteq	r1, r2, lsl #8
     908:	01040200 	mrseq	r0, R12_usr
     90c:	0402009e 	streq	r0, [r2], #-158	; 0xffffff62
     910:	02002e06 	andeq	r2, r0, #96	; 0x60
     914:	00170604 	andseq	r0, r7, r4, lsl #12
     918:	31060402 	tstcc	r6, r2, lsl #8
     91c:	06040200 	streq	r0, [r4], -r0, lsl #4
     920:	04020001 	streq	r0, [r2], #-1
     924:	02004a02 	andeq	r4, r0, #8192	; 0x2000
     928:	00010204 	andeq	r0, r1, r4, lsl #4
     92c:	13020402 	movwne	r0, #9218	; 0x2402
     930:	02040200 	andeq	r0, r4, #0, 4
     934:	04020069 	streq	r0, [r2], #-105	; 0xffffff97
     938:	02000102 	andeq	r0, r0, #-2147483648	; 0x80000000
     93c:	004a0204 	subeq	r0, sl, r4, lsl #4
     940:	01020402 	tsteq	r2, r2, lsl #8
     944:	02040200 	andeq	r0, r4, #0, 4
     948:	04020013 	streq	r0, [r2], #-19	; 0xffffffed
     94c:	11056802 	tstne	r5, r2, lsl #16
     950:	02040200 	andeq	r0, r4, #0, 4
     954:	02000106 	andeq	r0, r0, #-2147483647	; 0x80000001
     958:	052e0204 	streq	r0, [lr, #-516]!	; 0xfffffdfc
     95c:	04020003 	streq	r0, [r2], #-3
     960:	004b0602 	subeq	r0, fp, r2, lsl #12
     964:	13020402 	movwne	r0, #9218	; 0x2402
     968:	02000805 	andeq	r0, r0, #327680	; 0x50000
     96c:	01060204 	tsteq	r6, r4, lsl #4
     970:	02000305 	andeq	r0, r0, #335544320	; 0x14000000
     974:	2f060204 	svccs	0x00060204
     978:	02000a05 	andeq	r0, r0, #20480	; 0x5000
     97c:	01060204 	tsteq	r6, r4, lsl #4
     980:	02040200 	andeq	r0, r4, #0, 4
     984:	0002052e 	andeq	r0, r2, lr, lsr #10
     988:	06020402 	streq	r0, [r2], -r2, lsl #8
     98c:	0402002f 	streq	r0, [r2], #-47	; 0xffffffd1
     990:	02000102 	andeq	r0, r0, #-2147483648	; 0x80000000
     994:	00010204 	andeq	r0, r1, r4, lsl #4
     998:	01020402 	tsteq	r2, r2, lsl #8
     99c:	02040200 	andeq	r0, r4, #0, 4
     9a0:	04020001 	streq	r0, [r2], #-1
     9a4:	02000102 	andeq	r0, r0, #-2147483648	; 0x80000000
     9a8:	00010204 	andeq	r0, r1, r4, lsl #4
     9ac:	01020402 	tsteq	r2, r2, lsl #8
     9b0:	02040200 	andeq	r0, r4, #0, 4
     9b4:	04020001 	streq	r0, [r2], #-1
     9b8:	02006902 	andeq	r6, r0, #32768	; 0x8000
     9bc:	00010204 	andeq	r0, r1, r4, lsl #4
     9c0:	01040402 	tsteq	r4, r2, lsl #8
     9c4:	04040200 	streq	r0, [r4], #-512	; 0xfffffe00
     9c8:	04020001 	streq	r0, [r2], #-1
     9cc:	02008205 	andeq	r8, r0, #1342177280	; 0x50000000
     9d0:	00820204 	addeq	r0, r2, r4, lsl #4
     9d4:	01020402 	tsteq	r2, r2, lsl #8
     9d8:	03040200 	movweq	r0, #16896	; 0x4200
     9dc:	04020082 	streq	r0, [r2], #-130	; 0xffffff7e
     9e0:	02000103 	andeq	r0, r0, #-1073741824	; 0xc0000000
     9e4:	009e0304 	addseq	r0, lr, r4, lsl #6
     9e8:	03010402 	movweq	r0, #5122	; 0x1402
     9ec:	02002e72 	andeq	r2, r0, #1824	; 0x720
     9f0:	00010104 	andeq	r0, r1, r4, lsl #2
     9f4:	d6010402 	strle	r0, [r1], -r2, lsl #8
     9f8:	01040200 	mrseq	r0, R12_usr
     9fc:	04020032 	streq	r0, [r2], #-50	; 0xffffffce
     a00:	02000101 	andeq	r0, r0, #1073741824	; 0x40000000
     a04:	00d60104 	sbcseq	r0, r6, r4, lsl #2
     a08:	03010402 	movweq	r0, #5122	; 0x1402
     a0c:	02002e0a 	andeq	r2, r0, #160	; 0xa0
     a10:	00010104 	andeq	r0, r1, r4, lsl #2
     a14:	9e010402 	cdpls	4, 0, cr0, cr1, cr2, {0}
     a18:	2f060105 	svccs	0x00060105
     a1c:	063f054a 	ldrteq	r0, [pc], -sl, asr #10
     a20:	b0020500 	andlt	r0, r2, r0, lsl #10
     a24:	0300008a 	movweq	r0, #138	; 0x8a
     a28:	01060144 	tsteq	r6, r4, asr #2
     a2c:	67060205 	strvs	r0, [r6, -r5, lsl #4]
     a30:	062e2e06 	strteq	r2, [lr], -r6, lsl #28
     a34:	01060530 	tsteq	r6, r0, lsr r5
     a38:	01060f05 	tsteq	r6, r5, lsl #30
     a3c:	052e0205 	streq	r0, [lr, #-517]!	; 0xfffffdfb
     a40:	04020003 	streq	r0, [r2], #-3
     a44:	00300601 	eorseq	r0, r0, r1, lsl #12
     a48:	01010402 	tsteq	r1, r2, lsl #8
     a4c:	01040200 	mrseq	r0, R12_usr
     a50:	02004a06 	andeq	r4, r0, #24576	; 0x6000
     a54:	66060104 	strvs	r0, [r6], -r4, lsl #2
     a58:	06040200 	streq	r0, [r4], -r0, lsl #4
     a5c:	0402002e 	streq	r0, [r2], #-46	; 0xffffffd2
     a60:	13051506 	movwne	r1, #21766	; 0x5506
     a64:	06040200 	streq	r0, [r4], -r0, lsl #4
     a68:	0d050106 	stfeqs	f0, [r5, #-24]	; 0xffffffe8
     a6c:	06040200 	streq	r0, [r4], -r0, lsl #4
     a70:	0022052e 	eoreq	r0, r2, lr, lsr #10
     a74:	06060402 	streq	r0, [r6], -r2, lsl #8
     a78:	00230545 	eoreq	r0, r3, r5, asr #10
     a7c:	06060402 	streq	r0, [r6], -r2, lsl #8
     a80:	00160501 	andseq	r0, r6, r1, lsl #10
     a84:	06020402 	streq	r0, [r2], -r2, lsl #8
     a88:	0002052e 	andeq	r0, r2, lr, lsr #10
     a8c:	06020402 	streq	r0, [r2], -r2, lsl #8
     a90:	00030501 	andeq	r0, r3, r1, lsl #10
     a94:	06040402 	streq	r0, [r4], -r2, lsl #8
     a98:	0402004c 	streq	r0, [r2], #-76	; 0xffffffb4
     a9c:	02000104 	andeq	r0, r0, #1
     aa0:	00820504 	addeq	r0, r2, r4, lsl #10
     aa4:	82020402 	andhi	r0, r2, #33554432	; 0x2000000
     aa8:	02040200 	andeq	r0, r4, #0, 4
     aac:	04020001 	streq	r0, [r2], #-1
     ab0:	02008203 	andeq	r8, r0, #805306368	; 0x30000000
     ab4:	00010304 	andeq	r0, r1, r4, lsl #6
     ab8:	06030402 	streq	r0, [r3], -r2, lsl #8
     abc:	0402004a 	streq	r0, [r2], #-74	; 0xffffffb6
     ac0:	00660603 	rsbeq	r0, r6, r3, lsl #12
     ac4:	06030402 	streq	r0, [r3], -r2, lsl #8
     ac8:	0602052e 	streq	r0, [r2], -lr, lsr #10
     acc:	01052f18 	tsteq	r5, r8, lsl pc
     ad0:	3e051306 	cdpcc	3, 0, cr1, cr5, cr6, {0}
     ad4:	0106da06 	tsteq	r6, r6, lsl #20
     ad8:	67060205 	strvs	r0, [r6, -r5, lsl #4]
     adc:	062e2e06 	strteq	r2, [lr], -r6, lsl #28
     ae0:	01060531 	tsteq	r6, r1, lsr r5
     ae4:	01060f05 	tsteq	r6, r5, lsl #30
     ae8:	052e0205 	streq	r0, [lr, #-517]!	; 0xfffffdfb
     aec:	04020003 	streq	r0, [r2], #-3
     af0:	00300601 	eorseq	r0, r0, r1, lsl #12
     af4:	01010402 	tsteq	r1, r2, lsl #8
     af8:	01040200 	mrseq	r0, R12_usr
     afc:	02004a06 	andeq	r4, r0, #24576	; 0x6000
     b00:	66060104 	strvs	r0, [r6], -r4, lsl #2
     b04:	06040200 	streq	r0, [r4], -r0, lsl #4
     b08:	0402002e 	streq	r0, [r2], #-46	; 0xffffffd2
     b0c:	10051506 	andne	r1, r5, r6, lsl #10
     b10:	06040200 	streq	r0, [r4], -r0, lsl #4
     b14:	0b050106 	bleq	140f34 <__bss_end__+0x13646c>
     b18:	06040200 	streq	r0, [r4], -r0, lsl #4
     b1c:	0022054a 	eoreq	r0, r2, sl, asr #10
     b20:	06060402 	streq	r0, [r6], -r2, lsl #8
     b24:	00230529 	eoreq	r0, r3, r9, lsr #10
     b28:	06060402 	streq	r0, [r6], -r2, lsl #8
     b2c:	00160501 	andseq	r0, r6, r1, lsl #10
     b30:	06020402 	streq	r0, [r2], -r2, lsl #8
     b34:	0002052e 	andeq	r0, r2, lr, lsr #10
     b38:	06020402 	streq	r0, [r2], -r2, lsl #8
     b3c:	00030501 	andeq	r0, r3, r1, lsl #10
     b40:	06040402 	streq	r0, [r4], -r2, lsl #8
     b44:	0402004c 	streq	r0, [r2], #-76	; 0xffffffb4
     b48:	02000104 	andeq	r0, r0, #1
     b4c:	00820504 	addeq	r0, r2, r4, lsl #10
     b50:	82020402 	andhi	r0, r2, #33554432	; 0x2000000
     b54:	02040200 	andeq	r0, r4, #0, 4
     b58:	04020001 	streq	r0, [r2], #-1
     b5c:	02008203 	andeq	r8, r0, #805306368	; 0x30000000
     b60:	00010304 	andeq	r0, r1, r4, lsl #6
     b64:	06030402 	streq	r0, [r3], -r2, lsl #8
     b68:	0402004a 	streq	r0, [r2], #-74	; 0xffffffb6
     b6c:	00660603 	rsbeq	r0, r6, r3, lsl #12
     b70:	06030402 	streq	r0, [r3], -r2, lsl #8
     b74:	0602052e 	streq	r0, [r2], -lr, lsr #10
     b78:	01052f18 	tsteq	r5, r8, lsl pc
     b7c:	33051306 	movwcc	r1, #21254	; 0x5306
     b80:	f2200306 	vcgt.s32	d0, d0, d6
     b84:	05050106 	streq	r0, [r5, #-262]	; 0xfffffefa
     b88:	09056706 	stmdbeq	r5, {r1, r2, r8, r9, sl, sp, lr}
     b8c:	06120501 	ldreq	r0, [r2], -r1, lsl #10
     b90:	001d0501 	andseq	r0, sp, r1, lsl #10
     b94:	06010402 	streq	r0, [r1], -r2, lsl #8
     b98:	0005052e 	andeq	r0, r5, lr, lsr #10
     b9c:	06010402 	streq	r0, [r1], -r2, lsl #8
     ba0:	06090501 	streq	r0, [r9], -r1, lsl #10
     ba4:	8403054c 	strhi	r0, [r3], #-1356	; 0xfffffab4
     ba8:	04020001 	streq	r0, [r2], #-1
     bac:	02000104 	andeq	r0, r0, #1
     bb0:	00010404 	andeq	r0, r1, r4, lsl #8
     bb4:	82050402 	andhi	r0, r5, #33554432	; 0x2000000
     bb8:	02040200 	andeq	r0, r4, #0, 4
     bbc:	04020082 	streq	r0, [r2], #-130	; 0xffffff7e
     bc0:	02000102 	andeq	r0, r0, #-2147483648	; 0x80000000
     bc4:	00820304 	addeq	r0, r2, r4, lsl #6
     bc8:	01030402 	tsteq	r3, r2, lsl #8
     bcc:	03040200 	movweq	r0, #16896	; 0x4200
     bd0:	0402009e 	streq	r0, [r2], #-158	; 0xffffff62
     bd4:	02002e01 	andeq	r2, r0, #1, 28
     bd8:	00010104 	andeq	r0, r1, r4, lsl #2
     bdc:	9e010402 	cdpls	4, 0, cr0, cr1, cr2, {0}
     be0:	06040200 	streq	r0, [r4], -r0, lsl #4
     be4:	0009052e 	andeq	r0, r9, lr, lsr #10
     be8:	13060402 	movwne	r0, #25602	; 0x6402
     bec:	02001305 	andeq	r1, r0, #335544320	; 0x14000000
     bf0:	01060604 	tsteq	r6, r4, lsl #12
     bf4:	02000305 	andeq	r0, r0, #335544320	; 0x14000000
     bf8:	4b060604 	blmi	182410 <__bss_end__+0x177948>
     bfc:	06040200 	streq	r0, [r4], -r0, lsl #4
     c00:	04020001 	streq	r0, [r2], #-1
     c04:	02000104 	andeq	r0, r0, #1
     c08:	00010404 	andeq	r0, r1, r4, lsl #8
     c0c:	82050402 	andhi	r0, r5, #33554432	; 0x2000000
     c10:	02040200 	andeq	r0, r4, #0, 4
     c14:	04020082 	streq	r0, [r2], #-130	; 0xffffff7e
     c18:	02000102 	andeq	r0, r0, #-2147483648	; 0x80000000
     c1c:	00820304 	addeq	r0, r2, r4, lsl #6
     c20:	01030402 	tsteq	r3, r2, lsl #8
     c24:	03040200 	movweq	r0, #16896	; 0x4200
     c28:	0402009e 	streq	r0, [r2], #-158	; 0xffffff62
     c2c:	02002e01 	andeq	r2, r0, #1, 28
     c30:	00010104 	andeq	r0, r1, r4, lsl #2
     c34:	9e010402 	cdpls	4, 0, cr0, cr1, cr2, {0}
     c38:	06040200 	streq	r0, [r4], -r0, lsl #4
     c3c:	0009052e 	andeq	r0, r9, lr, lsr #10
     c40:	13060402 	movwne	r0, #25602	; 0x6402
     c44:	02001305 	andeq	r1, r0, #335544320	; 0x14000000
     c48:	01060604 	tsteq	r6, r4, lsl #12
     c4c:	4c060905 			; <UNDEFINED> instruction: 0x4c060905
     c50:	05130a05 	ldreq	r0, [r3, #-2565]	; 0xfffff5fb
     c54:	05010618 	streq	r0, [r1, #-1560]	; 0xfffff9e8
     c58:	07054a0c 	streq	r4, [r5, -ip, lsl #20]
     c5c:	15054f06 	strne	r4, [r5, #-3846]	; 0xfffff0fa
     c60:	09050106 	stmdbeq	r5, {r1, r2, r8}
     c64:	060d054a 	streq	r0, [sp], -sl, asr #10
     c68:	061b054e 	ldreq	r0, [fp], -lr, asr #10
     c6c:	4a0f0501 	bmi	3c2078 <__bss_end__+0x3b75b0>
     c70:	4b060805 	blmi	182c8c <__bss_end__+0x1781c4>
     c74:	11059e01 	tstne	r5, r1, lsl #28
     c78:	672e7703 	strvs	r7, [lr, -r3, lsl #14]!
     c7c:	0305052f 	movweq	r0, #21807	; 0x552f
     c80:	1805010a 	stmdane	r5, {r1, r3, r8}
     c84:	01760306 	cmneq	r6, r6, lsl #6
     c88:	0b030105 	bleq	c10a4 <__bss_end__+0xb65dc>
     c8c:	0608052e 	streq	r0, [r8], -lr, lsr #10
     c90:	052e7803 	streq	r7, [lr, #-2051]!	; 0xfffff7fd
     c94:	2a056711 	bcs	15a8e0 <__bss_end__+0x14fe18>
     c98:	05016f03 	streq	r6, [r1, #-3843]	; 0xfffff0fd
     c9c:	2e01062e 	cfmadd32cs	mvax1, mvfx0, mvfx1, mvfx14
     ca0:	0605052e 	streq	r0, [r5], -lr, lsr #10
     ca4:	01011703 	tsteq	r1, r3, lsl #14
     ca8:	081e059e 	ldmdaeq	lr, {r1, r2, r3, r4, r7, r8, sl}
     cac:	130205b2 	movwne	r0, #9650	; 0x25b2
     cb0:	13060105 	movwne	r0, #24837	; 0x6105
     cb4:	03061505 	movweq	r1, #25861	; 0x6505
     cb8:	0205820b 	andeq	r8, r5, #-1342177280	; 0xb0000000
     cbc:	0305314b 	movweq	r3, #20811	; 0x514b
     cc0:	67131332 			; <UNDEFINED> instruction: 0x67131332
     cc4:	05690205 	strbeq	r0, [r9, #-517]!	; 0xfffffdfb
     cc8:	12053203 	andne	r3, r5, #805306368	; 0x30000000
     ccc:	01010101 	tsteq	r1, r1, lsl #2
     cd0:	01010101 	tsteq	r1, r1, lsl #2
     cd4:	13130305 	tstne	r3, #335544320	; 0x14000000
     cd8:	0101012e 	tsteq	r1, lr, lsr #2
     cdc:	01010101 	tsteq	r1, r1, lsl #2
     ce0:	05690205 	strbeq	r0, [r9, #-517]!	; 0xfffffdfb
     ce4:	02053003 	andeq	r3, r5, #3, 0
     ce8:	00012f31 	andeq	r2, r1, r1, lsr pc
     cec:	66020402 	strvs	r0, [r2], -r2, lsl #8
     cf0:	02040200 	andeq	r0, r4, #0, 4
     cf4:	04020001 	streq	r0, [r2], #-1
     cf8:	10051402 	andne	r1, r5, r2, lsl #8
     cfc:	02040200 	andeq	r0, r4, #0, 4
     d00:	01050106 	tsteq	r5, r6, lsl #2
     d04:	02040200 	andeq	r0, r4, #0, 4
     d08:	00020567 	andeq	r0, r2, r7, ror #10
     d0c:	06010402 	streq	r0, [r1], -r2, lsl #8
     d10:	04020047 	streq	r0, [r2], #-71	; 0xffffffb9
     d14:	02000101 	andeq	r0, r0, #1073741824	; 0x40000000
     d18:	05d60104 	ldrbeq	r0, [r6, #260]	; 0x104
     d1c:	f259031a 	vcge.s16	d16, d9, d10
     d20:	052f0205 	streq	r0, [pc, #-517]!	; b23 <__code_start__-0x74dd>
     d24:	05010605 	streq	r0, [r1, #-1541]	; 0xfffff9fb
     d28:	02052e04 	andeq	r2, r5, #4, 28	; 0x40
     d2c:	01054c06 	tsteq	r5, r6, lsl #24
     d30:	02022f06 	andeq	r2, r2, #6, 30
     d34:	89010100 	stmdbhi	r1, {r8}
     d38:	03000002 	movweq	r0, #2
     d3c:	0000c900 	andeq	ip, r0, r0, lsl #18
     d40:	fb010200 	blx	4154a <__bss_end__+0x36a82>
     d44:	01000d0e 	tsteq	r0, lr, lsl #26
     d48:	00010101 	andeq	r0, r1, r1, lsl #2
     d4c:	00010000 	andeq	r0, r1, r0
     d50:	2f2e0100 	svccs	0x002e0100
     d54:	00637273 	rsbeq	r7, r3, r3, ror r2
     d58:	6573552f 	ldrbvs	r5, [r3, #-1327]!	; 0xfffffad1
     d5c:	6d2f7372 	stcvs	3, cr7, [pc, #-456]!	; b9c <__code_start__-0x7464>
     d60:	73656c69 	cmnvc	r5, #26880	; 0x6900
     d64:	756f532f 	strbvc	r5, [pc, #-815]!	; a3d <__code_start__-0x75c3>
     d68:	2f656372 	svccs	0x00656372
     d6c:	34327363 	ldrtcc	r7, [r2], #-867	; 0xfffffc9d
     d70:	2f786c30 	svccs	0x00786c30
     d74:	7062696c 	rsbvc	r6, r2, ip, ror #18
     d78:	6e692f69 	cdpvs	15, 6, cr2, cr9, cr9, {3}
     d7c:	64756c63 	ldrbtvs	r6, [r5], #-3171	; 0xfffff39d
     d80:	6f2f0065 	svcvs	0x002f0065
     d84:	682f7470 	stmdavs	pc!, {r4, r5, r6, sl, ip, sp, lr}	; <UNPREDICTABLE>
     d88:	62656d6f 	rsbvs	r6, r5, #7104	; 0x1bc0
     d8c:	2f776572 	svccs	0x00776572
     d90:	6c6c6543 	cfstr64vs	mvdx6, [ip], #-268	; 0xfffffef4
     d94:	612f7261 			; <UNDEFINED> instruction: 0x612f7261
     d98:	6e2d6d72 	mcrvs	13, 1, r6, cr13, cr2, {3}
     d9c:	2d656e6f 	stclcs	14, cr6, [r5, #-444]!	; 0xfffffe44
     da0:	69626165 	stmdbvs	r2!, {r0, r2, r5, r6, r8, sp, lr}^
     da4:	392f392d 	stmdbcc	pc!, {r0, r2, r3, r5, r8, fp, ip, sp}	; <UNPREDICTABLE>
     da8:	3130322d 	teqcc	r0, sp, lsr #4
     dac:	2d347139 	ldfcss	f7, [r4, #-228]!	; 0xffffff1c
     db0:	30317363 	eorscc	r7, r1, r3, ror #6
     db4:	6c2f6537 	cfstr32vs	mvfx6, [pc], #-220	; ce0 <__code_start__-0x7320>
     db8:	672f6269 	strvs	r6, [pc, -r9, ror #4]!
     dbc:	612f6363 			; <UNDEFINED> instruction: 0x612f6363
     dc0:	6e2d6d72 	mcrvs	13, 1, r6, cr13, cr2, {3}
     dc4:	2d656e6f 	stclcs	14, cr6, [r5, #-444]!	; 0xfffffe44
     dc8:	69626165 	stmdbvs	r2!, {r0, r2, r5, r6, r8, sp, lr}^
     dcc:	322e392f 	eorcc	r3, lr, #770048	; 0xbc000
     dd0:	692f312e 	stmdbvs	pc!, {r1, r2, r3, r5, r8, ip, sp}	; <UNPREDICTABLE>
     dd4:	756c636e 	strbvc	r6, [ip, #-878]!	; 0xfffffc92
     dd8:	00006564 	andeq	r6, r0, r4, ror #10
     ddc:	6f697067 	svcvs	0x00697067
     de0:	0100632e 	tsteq	r0, lr, lsr #6
     de4:	70720000 	rsbsvc	r0, r2, r0
     de8:	00682e69 	rsbeq	r2, r8, r9, ror #28
     dec:	73000002 	movwvc	r0, #2
     df0:	6e696474 	mcrvs	4, 3, r6, cr9, cr4, {3}
     df4:	63672d74 	cmnvs	r7, #116, 26	; 0x1d00
     df8:	00682e63 	rsbeq	r2, r8, r3, ror #28
     dfc:	67000003 	strvs	r0, [r0, -r3]
     e00:	2e6f6970 			; <UNDEFINED> instruction: 0x2e6f6970
     e04:	00020068 	andeq	r0, r2, r8, rrx
     e08:	38050000 	stmdacc	r5, {}	; <UNPREDICTABLE>
     e0c:	a8020500 	stmdage	r2, {r8, sl}
     e10:	0300008e 	movweq	r0, #142	; 0x8e
     e14:	05050127 	streq	r0, [r5, #-295]	; 0xfffffed9
     e18:	06070513 			; <UNDEFINED> instruction: 0x06070513
     e1c:	06060501 	streq	r0, [r6], -r1, lsl #10
     e20:	15050549 	strne	r0, [r5, #-1353]	; 0xfffffab7
     e24:	01060705 	tsteq	r6, r5, lsl #14
     e28:	052b3805 	streq	r3, [fp, #-2053]!	; 0xfffff7fb
     e2c:	05054d07 	streq	r4, [r5, #-3335]	; 0xfffff2f9
     e30:	18053006 	stmdane	r5, {r1, r2, ip, sp}
     e34:	1c050106 	stfnes	f0, [r5], {6}
     e38:	4a0e0567 	bmi	3823dc <__bss_end__+0x377914>
     e3c:	052d1805 	streq	r1, [sp, #-2053]!	; 0xfffff7fb
     e40:	2f2e4d12 	svccs	0x002e4d12
     e44:	052a0e05 	streq	r0, [sl, #-3589]!	; 0xfffff1fb
     e48:	142f0605 	strtne	r0, [pc], #-1541	; e50 <__code_start__-0x71b0>
     e4c:	06070513 			; <UNDEFINED> instruction: 0x06070513
     e50:	06050501 	streq	r0, [r5], -r1, lsl #10
     e54:	2e06132f 	cdpcs	3, 0, cr1, cr6, cr15, {1}
     e58:	1301052e 	movwne	r0, #5422	; 0x152e
     e5c:	2e2d0505 	cfsh64cs	mvdx0, mvdx13, #5
     e60:	00062405 	andeq	r2, r6, r5, lsl #8
     e64:	8f080205 	svchi	0x00080205
     e68:	05150000 	ldreq	r0, [r5, #-0]
     e6c:	06051305 	streq	r1, [r5], -r5, lsl #6
     e70:	05017103 	streq	r7, [r1, #-259]	; 0xfffffefd
     e74:	07051305 	streq	r1, [r5, -r5, lsl #6]
     e78:	06050106 	streq	r0, [r5], -r6, lsl #2
     e7c:	05054906 	streq	r4, [r5, #-2310]	; 0xfffff6fa
     e80:	24051415 	strcs	r1, [r5], #-1045	; 0xfffffbeb
     e84:	01090306 	tsteq	r9, r6, lsl #6
     e88:	77031805 	strvc	r1, [r3, -r5, lsl #16]
     e8c:	671c052e 	ldrvs	r0, [ip, -lr, lsr #10]
     e90:	054a0e05 	strbeq	r0, [sl, #-3589]	; 0xfffff1fb
     e94:	12052d18 	andne	r2, r5, #24, 26	; 0x600
     e98:	052f2e4d 	streq	r2, [pc, #-3661]!	; 53 <__code_start__-0x7fad>
     e9c:	0e052f0f 	cdpeq	15, 0, cr2, cr5, cr15, {0}
     ea0:	06050529 	streq	r0, [r5], -r9, lsr #10
     ea4:	0513142f 	ldreq	r1, [r3, #-1071]	; 0xfffffbd1
     ea8:	05010607 	streq	r0, [r1, #-1543]	; 0xfffff9f9
     eac:	132f0605 			; <UNDEFINED> instruction: 0x132f0605
     eb0:	01052e06 	tsteq	r5, r6, lsl #28
     eb4:	29050533 	stmdbcs	r5, {r0, r1, r4, r5, r8, sl}
     eb8:	0627052e 	strteq	r0, [r7], -lr, lsr #10
     ebc:	60020500 	andvs	r0, r2, r0, lsl #10
     ec0:	1a00008f 	bne	1104 <__code_start__-0x6efc>
     ec4:	05130505 	ldreq	r0, [r3, #-1285]	; 0xfffffafb
     ec8:	05110627 	ldreq	r0, [r1, #-1575]	; 0xfffff9d9
     ecc:	05052f18 	streq	r2, [r5, #-3864]	; 0xfffff0e8
     ed0:	054a2e2e 	strbeq	r2, [sl, #-3630]	; 0xfffff1d2
     ed4:	05000628 	streq	r0, [r0, #-1576]	; 0xfffff9d8
     ed8:	008f7802 	addeq	r7, pc, r2, lsl #16
     edc:	05051600 	streq	r1, [r5, #-1536]	; 0xfffffa00
     ee0:	06280513 			; <UNDEFINED> instruction: 0x06280513
     ee4:	2f180511 	svccs	0x00180511
     ee8:	2e2e0505 	cfsh64cs	mvdx0, mvdx14, #5
     eec:	0623054a 	strteq	r0, [r3], -sl, asr #10
     ef0:	90020500 	andls	r0, r2, r0, lsl #10
     ef4:	1600008f 	strne	r0, [r0], -pc, lsl #1
     ef8:	05130505 	ldreq	r0, [r3, #-1285]	; 0xfffffafb
     efc:	01620306 	cmneq	r2, r6, lsl #6
     f00:	05130505 	ldreq	r0, [r3, #-1285]	; 0xfffffafb
     f04:	05010607 	streq	r0, [r1, #-1543]	; 0xfffff9f9
     f08:	05490606 	strbeq	r0, [r9, #-1542]	; 0xfffff9fa
     f0c:	13141505 	tstne	r4, #20971520	; 0x1400000
     f10:	03062305 	movweq	r2, #25349	; 0x6305
     f14:	22050117 	andcs	r0, r5, #-1073741819	; 0xc0000005
     f18:	052e6903 	streq	r6, [lr, #-2307]!	; 0xfffff6fd
     f1c:	052e821c 	streq	r8, [lr, #-540]!	; 0xfffffde4
     f20:	05052e0e 	streq	r2, [r5, #-3598]	; 0xfffff1f2
     f24:	12053006 	andne	r3, r5, #6, 0
     f28:	2d4b0106 	stfcse	f0, [fp, #-24]	; 0xffffffe8
     f2c:	2f060505 	svccs	0x00060505
     f30:	18051313 	stmdane	r5, {r0, r1, r4, r8, r9, ip}
     f34:	017a0306 	cmneq	sl, r6, lsl #6
     f38:	054a0e05 	strbeq	r0, [sl, #-3589]	; 0xfffff1fb
     f3c:	052e3405 	streq	r3, [lr, #-1029]!	; 0xfffffbfb
     f40:	2e140301 	cdpcs	3, 1, cr0, cr4, cr1, {0}
     f44:	6c030505 	cfstr32vs	mvfx0, [r3], {5}
     f48:	2b052e2e 	blcs	14c808 <__bss_end__+0x141d40>
     f4c:	02050006 	andeq	r0, r5, #6, 0
     f50:	00008fe8 	andeq	r8, r0, r8, ror #31
     f54:	05011703 	streq	r1, [r1, #-1795]	; 0xfffff8fd
     f58:	07051305 	streq	r1, [r5, -r5, lsl #6]
     f5c:	18050106 	stmdane	r5, {r1, r2, r8}
     f60:	052e7103 	streq	r7, [lr, #-259]!	; 0xfffffefd
     f64:	2e0e032b 	cdpcs	3, 0, cr0, cr14, cr11, {1}
     f68:	052f0705 	streq	r0, [pc, #-1797]!	; 86b <__code_start__-0x7795>
     f6c:	052f0609 	streq	r0, [pc, #-1545]!	; 96b <__code_start__-0x7695>
     f70:	016f030d 	cmneq	pc, sp, lsl #6
     f74:	06130505 	ldreq	r0, [r3], -r5, lsl #10
     f78:	052e2e2e 	streq	r2, [lr, #-3630]!	; 0xfffff1d2
     f7c:	12030609 	andne	r0, r3, #9437184	; 0x900000
     f80:	030d0501 	movweq	r0, #54529	; 0xd501
     f84:	05050172 	streq	r0, [r5, #-370]	; 0xfffffe8e
     f88:	2e2e0613 	mcrcs	6, 1, r0, cr14, cr3, {0}
     f8c:	03061d05 	movweq	r1, #27909	; 0x6d05
     f90:	05056610 	streq	r6, [r5, #-1552]	; 0xfffff9f0
     f94:	061d0513 			; <UNDEFINED> instruction: 0x061d0513
     f98:	05052e11 	streq	r2, [r5, #-3601]	; 0xfffff1ef
     f9c:	05133006 	ldreq	r3, [r3, #-6]
     fa0:	0510060e 	ldreq	r0, [r0, #-1550]	; 0xfffff9f2
     fa4:	042e3017 	strteq	r3, [lr], #-23	; 0xffffffe9
     fa8:	06300502 	ldrteq	r0, [r0], -r2, lsl #10
     fac:	2e00e203 	cdpcs	2, 0, cr14, cr0, cr3, {0}
     fb0:	0e050104 	adfeqs	f0, f5, f4
     fb4:	7f9d0306 	svcvc	0x009d0306
     fb8:	2f230501 	svccs	0x00230501
     fbc:	022f0105 	eoreq	r0, pc, #1073741825	; 0x40000001
     fc0:	01010006 	tsteq	r1, r6
     fc4:	00000120 	andeq	r0, r0, r0, lsr #2
     fc8:	00db0003 	sbcseq	r0, fp, r3
     fcc:	01020000 	mrseq	r0, (UNDEF: 2)
     fd0:	000d0efb 	strdeq	r0, [sp], -fp
     fd4:	01010101 	tsteq	r1, r1, lsl #2
     fd8:	01000000 	mrseq	r0, (UNDEF: 0)
     fdc:	2e010000 	cdpcs	0, 0, cr0, cr1, cr0, {0}
     fe0:	62696c2f 	rsbvs	r6, r9, #12032	; 0x2f00
     fe4:	6f2f0063 	svcvs	0x002f0063
     fe8:	682f7470 	stmdavs	pc!, {r4, r5, r6, sl, ip, sp, lr}	; <UNPREDICTABLE>
     fec:	62656d6f 	rsbvs	r6, r5, #7104	; 0x1bc0
     ff0:	2f776572 	svccs	0x00776572
     ff4:	6c6c6543 	cfstr64vs	mvdx6, [ip], #-268	; 0xfffffef4
     ff8:	612f7261 			; <UNDEFINED> instruction: 0x612f7261
     ffc:	6e2d6d72 	mcrvs	13, 1, r6, cr13, cr2, {3}
    1000:	2d656e6f 	stclcs	14, cr6, [r5, #-444]!	; 0xfffffe44
    1004:	69626165 	stmdbvs	r2!, {r0, r2, r5, r6, r8, sp, lr}^
    1008:	392f392d 	stmdbcc	pc!, {r0, r2, r3, r5, r8, fp, ip, sp}	; <UNPREDICTABLE>
    100c:	3130322d 	teqcc	r0, sp, lsr #4
    1010:	2d347139 	ldfcss	f7, [r4, #-228]!	; 0xffffff1c
    1014:	30317363 	eorscc	r7, r1, r3, ror #6
    1018:	6c2f6537 	cfstr32vs	mvfx6, [pc], #-220	; f44 <__code_start__-0x70bc>
    101c:	672f6269 	strvs	r6, [pc, -r9, ror #4]!
    1020:	612f6363 			; <UNDEFINED> instruction: 0x612f6363
    1024:	6e2d6d72 	mcrvs	13, 1, r6, cr13, cr2, {3}
    1028:	2d656e6f 	stclcs	14, cr6, [r5, #-444]!	; 0xfffffe44
    102c:	69626165 	stmdbvs	r2!, {r0, r2, r5, r6, r8, sp, lr}^
    1030:	322e392f 	eorcc	r3, lr, #770048	; 0xbc000
    1034:	692f312e 	stmdbvs	pc!, {r1, r2, r3, r5, r8, ip, sp}	; <UNPREDICTABLE>
    1038:	756c636e 	strbvc	r6, [ip, #-878]!	; 0xfffffc92
    103c:	2f006564 	svccs	0x00006564
    1040:	72657355 	rsbvc	r7, r5, #1409286145	; 0x54000001
    1044:	696d2f73 	stmdbvs	sp!, {r0, r1, r4, r5, r6, r8, r9, sl, fp, sp}^
    1048:	2f73656c 	svccs	0x0073656c
    104c:	72756f53 	rsbsvc	r6, r5, #332	; 0x14c
    1050:	632f6563 			; <UNDEFINED> instruction: 0x632f6563
    1054:	30343273 	eorscc	r3, r4, r3, ror r2
    1058:	6c2f786c 	stcvs	8, cr7, [pc], #-432	; eb0 <__code_start__-0x7150>
    105c:	69706269 	ldmdbvs	r0!, {r0, r3, r5, r6, r9, sp, lr}^
    1060:	636e692f 	cmnvs	lr, #770048	; 0xbc000
    1064:	6564756c 	strbvs	r7, [r4, #-1388]!	; 0xfffffa94
    1068:	72700000 	rsbsvc	r0, r0, #0, 0
    106c:	6b746e69 	blvs	1d1ca18 <__bss_end__+0x1d11f50>
    1070:	0100632e 	tsteq	r0, lr, lsr #6
    1074:	74730000 	ldrbtvc	r0, [r3], #-0
    1078:	67726164 	ldrbvs	r6, [r2, -r4, ror #2]!
    107c:	0200682e 	andeq	r6, r0, #3014656	; 0x2e0000
    1080:	70720000 	rsbsvc	r0, r2, r0
    1084:	00682e69 	rsbeq	r2, r8, r9, ror #28
    1088:	3c000003 	stccc	0, cr0, [r0], {3}
    108c:	6c697562 	cfstr64vs	mvdx7, [r9], #-392	; 0xfffffe78
    1090:	6e692d74 	mcrvs	13, 3, r2, cr9, cr4, {3}
    1094:	0000003e 	andeq	r0, r0, lr, lsr r0
    1098:	2d617600 	stclcs	6, cr7, [r1, #-0]
    109c:	6e697270 	mcrvs	2, 3, r7, cr9, cr0, {3}
    10a0:	682e6b74 	stmdavs	lr!, {r2, r4, r5, r6, r8, r9, fp, sp, lr}
    10a4:	00000100 	andeq	r0, r0, r0, lsl #2
    10a8:	00220500 	eoreq	r0, r2, r0, lsl #10
    10ac:	90400205 	subls	r0, r0, r5, lsl #4
    10b0:	05170000 	ldreq	r0, [r7, #-0]
    10b4:	14131405 	ldrne	r1, [r3], #-1029	; 0xfffffbfb
    10b8:	0d062205 	sfmeq	f2, 4, [r6, #-20]	; 0xffffffec
    10bc:	05501205 	ldrbeq	r1, [r0, #-517]	; 0xfffffdfb
    10c0:	2e7a0322 	cdpcs	3, 7, cr0, cr10, cr2, {1}
    10c4:	05330505 	ldreq	r0, [r3, #-1285]!	; 0xfffffafb
    10c8:	05052f12 	streq	r2, [r5, #-3858]	; 0xfffff0ee
    10cc:	06090565 	streq	r0, [r9], -r5, ror #10
    10d0:	0612052f 	ldreq	r0, [r2], -pc, lsr #10
    10d4:	06050501 	streq	r0, [r5], -r1, lsl #10
    10d8:	4a06164b 	bmi	186a0c <__bss_end__+0x17bf44>
    10dc:	01055006 	tsteq	r5, r6
    10e0:	02661306 	rsbeq	r1, r6, #402653184	; 0x18000000
    10e4:	01010008 	tsteq	r1, r8
    10e8:	000000a0 	andeq	r0, r0, r0, lsr #1
    10ec:	00570003 	subseq	r0, r7, r3
    10f0:	01020000 	mrseq	r0, (UNDEF: 2)
    10f4:	000d0efb 	strdeq	r0, [sp], -fp
    10f8:	01010101 	tsteq	r1, r1, lsl #2
    10fc:	01000000 	mrseq	r0, (UNDEF: 0)
    1100:	2e010000 	cdpcs	0, 0, cr0, cr1, cr0, {0}
    1104:	62696c2f 	rsbvs	r6, r9, #12032	; 0x2f00
    1108:	552f0063 	strpl	r0, [pc, #-99]!	; 10ad <__code_start__-0x6f53>
    110c:	73726573 	cmnvc	r2, #482344960	; 0x1cc00000
    1110:	6c696d2f 	stclvs	13, cr6, [r9], #-188	; 0xffffff44
    1114:	532f7365 			; <UNDEFINED> instruction: 0x532f7365
    1118:	6372756f 	cmnvs	r2, #465567744	; 0x1bc00000
    111c:	73632f65 	cmnvc	r3, #404	; 0x194
    1120:	6c303432 	cfldrsvs	mvf3, [r0], #-200	; 0xffffff38
    1124:	696c2f78 	stmdbvs	ip!, {r3, r4, r5, r6, r8, r9, sl, fp, sp}^
    1128:	2f697062 	svccs	0x00697062
    112c:	6c636e69 	stclvs	14, cr6, [r3], #-420	; 0xfffffe5c
    1130:	00656475 	rsbeq	r6, r5, r5, ror r4
    1134:	74757000 	ldrbtvc	r7, [r5], #-0
    1138:	00632e6b 	rsbeq	r2, r3, fp, ror #28
    113c:	72000001 	andvc	r0, r0, #1, 0
    1140:	682e6970 	stmdavs	lr!, {r4, r5, r6, r8, fp, sp, lr}
    1144:	00000200 	andeq	r0, r0, r0, lsl #4
    1148:	00220500 	eoreq	r0, r2, r0, lsl #10
    114c:	90980205 	addsls	r0, r8, r5, lsl #4
    1150:	05150000 	ldreq	r0, [r5, #-0]
    1154:	22051305 	andcs	r1, r5, #335544320	; 0x14000000
    1158:	052e1106 	streq	r1, [lr, #-262]!	; 0xfffffefa
    115c:	052f060b 	streq	r0, [pc, #-1547]!	; b59 <__code_start__-0x74a7>
    1160:	052e0605 	streq	r0, [lr, #-1541]!	; 0xfffff9fb
    1164:	04020009 	streq	r0, [r2], #-9
    1168:	05670602 	strbeq	r0, [r7, #-1538]!	; 0xfffff9fe
    116c:	0402000f 	streq	r0, [r2], #-15
    1170:	0b054902 	bleq	153580 <__bss_end__+0x148ab8>
    1174:	02040200 	andeq	r0, r4, #0, 4
    1178:	00050501 	andeq	r0, r5, r1, lsl #10
    117c:	06020402 	streq	r0, [r2], -r2, lsl #8
    1180:	054e062e 	strbeq	r0, [lr, #-1582]	; 0xfffff9d2
    1184:	02130601 	andseq	r0, r3, #1048576	; 0x100000
    1188:	01010006 	tsteq	r1, r6
    118c:	000008fa 	strdeq	r0, [r0], -sl
    1190:	00f10003 	rscseq	r0, r1, r3
    1194:	01020000 	mrseq	r0, (UNDEF: 2)
    1198:	000d0efb 	strdeq	r0, [sp], -fp
    119c:	01010101 	tsteq	r1, r1, lsl #2
    11a0:	01000000 	mrseq	r0, (UNDEF: 0)
    11a4:	2e010000 	cdpcs	0, 0, cr0, cr1, cr0, {0}
    11a8:	62696c2f 	rsbvs	r6, r9, #12032	; 0x2f00
    11ac:	6f2f0063 	svcvs	0x002f0063
    11b0:	682f7470 	stmdavs	pc!, {r4, r5, r6, sl, ip, sp, lr}	; <UNPREDICTABLE>
    11b4:	62656d6f 	rsbvs	r6, r5, #7104	; 0x1bc0
    11b8:	2f776572 	svccs	0x00776572
    11bc:	6c6c6543 	cfstr64vs	mvdx6, [ip], #-268	; 0xfffffef4
    11c0:	612f7261 			; <UNDEFINED> instruction: 0x612f7261
    11c4:	6e2d6d72 	mcrvs	13, 1, r6, cr13, cr2, {3}
    11c8:	2d656e6f 	stclcs	14, cr6, [r5, #-444]!	; 0xfffffe44
    11cc:	69626165 	stmdbvs	r2!, {r0, r2, r5, r6, r8, sp, lr}^
    11d0:	392f392d 	stmdbcc	pc!, {r0, r2, r3, r5, r8, fp, ip, sp}	; <UNPREDICTABLE>
    11d4:	3130322d 	teqcc	r0, sp, lsr #4
    11d8:	2d347139 	ldfcss	f7, [r4, #-228]!	; 0xffffff1c
    11dc:	30317363 	eorscc	r7, r1, r3, ror #6
    11e0:	6c2f6537 	cfstr32vs	mvfx6, [pc], #-220	; 110c <__code_start__-0x6ef4>
    11e4:	672f6269 	strvs	r6, [pc, -r9, ror #4]!
    11e8:	612f6363 			; <UNDEFINED> instruction: 0x612f6363
    11ec:	6e2d6d72 	mcrvs	13, 1, r6, cr13, cr2, {3}
    11f0:	2d656e6f 	stclcs	14, cr6, [r5, #-444]!	; 0xfffffe44
    11f4:	69626165 	stmdbvs	r2!, {r0, r2, r5, r6, r8, sp, lr}^
    11f8:	322e392f 	eorcc	r3, lr, #770048	; 0xbc000
    11fc:	692f312e 	stmdbvs	pc!, {r1, r2, r3, r5, r8, ip, sp}	; <UNPREDICTABLE>
    1200:	756c636e 	strbvc	r6, [ip, #-878]!	; 0xfffffc92
    1204:	2f006564 	svccs	0x00006564
    1208:	72657355 	rsbvc	r7, r5, #1409286145	; 0x54000001
    120c:	696d2f73 	stmdbvs	sp!, {r0, r1, r4, r5, r6, r8, r9, sl, fp, sp}^
    1210:	2f73656c 	svccs	0x0073656c
    1214:	72756f53 	rsbsvc	r6, r5, #332	; 0x14c
    1218:	632f6563 			; <UNDEFINED> instruction: 0x632f6563
    121c:	30343273 	eorscc	r3, r4, r3, ror r2
    1220:	6c2f786c 	stcvs	8, cr7, [pc], #-432	; 1078 <__code_start__-0x6f88>
    1224:	69706269 	ldmdbvs	r0!, {r0, r3, r5, r6, r9, sp, lr}^
    1228:	636e692f 	cmnvs	lr, #770048	; 0xbc000
    122c:	6564756c 	strbvs	r7, [r4, #-1388]!	; 0xfffffa94
    1230:	61760000 	cmnvs	r6, r0
    1234:	6972702d 	ldmdbvs	r2!, {r0, r2, r3, r5, ip, sp, lr}^
    1238:	2e6b746e 	cdpcs	4, 6, cr7, cr11, cr14, {3}
    123c:	00010063 	andeq	r0, r1, r3, rrx
    1240:	64747300 	ldrbtvs	r7, [r4], #-768	; 0xfffffd00
    1244:	2d746e69 	ldclcs	14, cr6, [r4, #-420]!	; 0xfffffe5c
    1248:	2e636367 	cdpcs	3, 6, cr6, cr3, cr7, {3}
    124c:	00020068 	andeq	r0, r2, r8, rrx
    1250:	69707200 	ldmdbvs	r0!, {r9, ip, sp, lr}^
    1254:	0300682e 	movweq	r6, #2094	; 0x82e
    1258:	70720000 	rsbsvc	r0, r2, r0
    125c:	6e692d69 	cdpvs	13, 6, cr2, cr9, cr9, {3}
    1260:	6e726574 	mrcvs	5, 3, r6, cr2, cr4, {3}
    1264:	682e6c61 	stmdavs	lr!, {r0, r5, r6, sl, fp, sp, lr}
    1268:	00000300 	andeq	r0, r0, r0, lsl #6
    126c:	61647473 	smcvs	18243	; 0x4743
    1270:	682e6772 	stmdavs	lr!, {r1, r4, r5, r6, r8, r9, sl, sp, lr}
    1274:	00000200 	andeq	r0, r0, r0, lsl #4
    1278:	6975623c 	ldmdbvs	r5!, {r2, r3, r4, r5, r9, sp, lr}^
    127c:	692d746c 	pushvs	{r2, r3, r5, r6, sl, ip, sp, lr}
    1280:	00003e6e 	andeq	r3, r0, lr, ror #28
    1284:	05000000 	streq	r0, [r0, #-0]
    1288:	02050001 	andeq	r0, r5, #1, 0
    128c:	000090d0 	ldrdeq	r9, [r0], -r0
    1290:	0100c803 	tsteq	r0, r3, lsl #16
    1294:	05140205 	ldreq	r0, [r4, #-517]	; 0xfffffdfb
    1298:	05100601 	ldreq	r0, [r0, #-1537]	; 0xfffff9ff
    129c:	01053004 	tsteq	r5, r4
    12a0:	04054a2c 	streq	r4, [r5], #-2604	; 0xfffff5d4
    12a4:	06020530 			; <UNDEFINED> instruction: 0x06020530
    12a8:	0b051331 	bleq	145f74 <__bss_end__+0x13b4ac>
    12ac:	02052e06 	andeq	r2, r5, #96	; 0x60
    12b0:	09053006 	stmdbeq	r5, {r1, r2, ip, sp}
    12b4:	0d240206 	sfmeq	f0, 4, [r4, #-24]!	; 0xffffffe8
    12b8:	0d052e2e 	stceq	14, cr2, [r5, #-184]	; 0xffffff48
    12bc:	4a170306 	bmi	5c1edc <__bss_end__+0x5b7414>
    12c0:	05131105 	ldreq	r1, [r3, #-261]	; 0xfffffefb
    12c4:	0501062d 	streq	r0, [r1, #-1581]	; 0xfffff9d3
    12c8:	0d052e16 	stceq	14, cr2, [r5, #-88]	; 0xffffffa8
    12cc:	2d16052f 	cfldr32cs	mvfx0, [r6, #-188]	; 0xffffff44
    12d0:	2f061405 	svccs	0x00061405
    12d4:	01061705 	tsteq	r6, r5, lsl #14
    12d8:	062e0d05 	strteq	r0, [lr], -r5, lsl #26
    12dc:	0612052f 	ldreq	r0, [r2], -pc, lsr #10
    12e0:	2d2f2e01 	stccs	14, cr2, [pc, #-4]!	; 12e4 <__code_start__-0x6d1c>
    12e4:	2f060d05 	svccs	0x00060d05
    12e8:	01061205 	tsteq	r6, r5, lsl #4
    12ec:	2f061905 	svccs	0x00061905
    12f0:	11030405 	tstne	r3, r5, lsl #8
    12f4:	02050101 	andeq	r0, r5, #1073741824	; 0x40000000
    12f8:	030e0515 	movweq	r0, #58645	; 0xe515
    12fc:	05017fb2 	streq	r7, [r1, #-4018]	; 0xfffff04e
    1300:	06051302 	streq	r1, [r5], -r2, lsl #6
    1304:	02050106 	andeq	r0, r5, #-2147483647	; 0x80000001
    1308:	08053006 	stmdaeq	r5, {r1, r2, ip, sp}
    130c:	06020501 	streq	r0, [r2], -r1, lsl #10
    1310:	08054a01 	stmdaeq	r5, {r0, r9, fp, lr}
    1314:	03059108 	movweq	r9, #20744	; 0x5108
    1318:	08054a06 	stmdaeq	r5, {r1, r2, r9, fp, lr}
    131c:	15050106 	strne	r0, [r5, #-262]	; 0xfffffefa
    1320:	08052d06 	stmdaeq	r5, {r1, r2, r8, sl, fp, sp}
    1324:	d7030501 	strle	r0, [r3, -r1, lsl #10]
    1328:	01060805 	tsteq	r6, r5, lsl #16
    132c:	052d1805 	streq	r1, [sp, #-2053]!	; 0xfffff7fb
    1330:	08052e02 	stmdaeq	r5, {r1, r9, sl, fp, sp}
    1334:	0615052f 	ldreq	r0, [r5], -pc, lsr #10
    1338:	0108052d 	tsteq	r8, sp, lsr #10
    133c:	01060205 	tsteq	r6, r5, lsl #4
    1340:	2f060305 	svccs	0x00060305
    1344:	11061805 	tstne	r6, r5, lsl #16
    1348:	052e0205 	streq	r0, [lr, #-517]!	; 0xfffffdfb
    134c:	15052f08 	strne	r2, [r5, #-3848]	; 0xfffff0f8
    1350:	08052d06 	stmdaeq	r5, {r1, r2, r8, sl, fp, sp}
    1354:	13030501 	movwne	r0, #13569	; 0x3501
    1358:	01060805 	tsteq	r6, r5, lsl #16
    135c:	2d061505 	cfstr32cs	mvfx1, [r6, #-20]	; 0xffffffec
    1360:	06010805 	streq	r0, [r1], -r5, lsl #16
    1364:	06020501 	streq	r0, [r2], -r1, lsl #10
    1368:	060505a0 	streq	r0, [r5], -r0, lsr #11
    136c:	36040501 	strcc	r0, [r4], -r1, lsl #10
    1370:	052f1105 	streq	r1, [pc, #-261]!	; 1273 <__code_start__-0x6d8d>
    1374:	02052e09 	andeq	r2, r5, #144	; 0x90
    1378:	03050533 	movweq	r0, #21811	; 0x5533
    137c:	02052e72 	andeq	r2, r5, #1824	; 0x720
    1380:	01062f06 	tsteq	r6, r6, lsl #30
    1384:	16060e05 	strne	r0, [r6], -r5, lsl #28
    1388:	13140205 	tstne	r4, #1342177280	; 0x50000000
    138c:	05130305 	ldreq	r0, [r3, #-773]	; 0xfffffcfb
    1390:	05151402 	ldreq	r1, [r5, #-1026]	; 0xfffffbfe
    1394:	0205010b 	andeq	r0, r5, #-1073741822	; 0xc0000002
    1398:	052e0106 	streq	r0, [lr, #-262]!	; 0xfffffefa
    139c:	05670603 	strbeq	r0, [r7, #-1539]!	; 0xfffff9fd
    13a0:	0501060a 	streq	r0, [r1, #-1546]	; 0xfffff9f6
    13a4:	0a052d02 	beq	14c7b4 <__bss_end__+0x141cec>
    13a8:	0617052f 	ldreq	r0, [r7], -pc, lsr #10
    13ac:	010b052d 	tsteq	fp, sp, lsr #10
    13b0:	01060205 	tsteq	r6, r5, lsl #4
    13b4:	2e4c0905 	vmlacs.f16	s1, s24, s10	; <UNPREDICTABLE>
    13b8:	2e060205 	cdpcs	2, 0, cr0, cr6, cr5, {0}
    13bc:	01060905 	tsteq	r6, r5, lsl #18
    13c0:	30060205 	andcc	r0, r6, r5, lsl #4
    13c4:	01050106 	tsteq	r5, r6, lsl #2
    13c8:	05013803 	streq	r3, [r1, #-2051]	; 0xfffff7fd
    13cc:	4a4f0309 	bmi	13c1ff8 <__bss_end__+0x13b7530>
    13d0:	19052e2e 	stmdbne	r5, {r1, r2, r3, r5, r9, sl, fp, sp}
    13d4:	4a270306 	bmi	9c1ff4 <__bss_end__+0x9b752c>
    13d8:	05131a05 	ldreq	r1, [r3, #-2565]	; 0xfffff5fb
    13dc:	05010628 	streq	r0, [r1, #-1576]	; 0xfffff9d8
    13e0:	04052e1f 	streq	r2, [r5], #-3615	; 0xfffff1e1
    13e4:	2d1f052f 	cfldr32cs	mvfx0, [pc, #-188]	; 1330 <__code_start__-0x6cd0>
    13e8:	2f060b05 	svccs	0x00060b05
    13ec:	01060e05 	tsteq	r6, r5, lsl #28
    13f0:	052e0405 	streq	r0, [lr, #-1029]!	; 0xfffffbfb
    13f4:	59030602 	stmdbpl	r3, {r1, r9, sl}
    13f8:	0b05134a 	bleq	146128 <__bss_end__+0x13b660>
    13fc:	02052e06 	andeq	r2, r5, #96	; 0x60
    1400:	09053006 	stmdbeq	r5, {r1, r2, ip, sp}
    1404:	0d240206 	sfmeq	f0, 4, [r4, #-24]!	; 0xffffffe8
    1408:	36060405 	strcc	r0, [r6], -r5, lsl #8
    140c:	06060513 			; <UNDEFINED> instruction: 0x06060513
    1410:	06050501 	streq	r0, [r5], -r1, lsl #10
    1414:	05131367 	ldreq	r1, [r3, #-871]	; 0xfffffc99
    1418:	05110609 	ldreq	r0, [r1, #-1545]	; 0xfffff9f7
    141c:	0b052b0d 	bleq	14c058 <__bss_end__+0x141590>
    1420:	2c0d0530 	cfstr32cs	mvfx0, [sp], {48}	; 0x30
    1424:	05351b05 	ldreq	r1, [r5, #-2821]!	; 0xfffff4fb
    1428:	052d0604 	streq	r0, [sp, #-1540]!	; 0xfffff9fc
    142c:	1b051305 	blne	146048 <__bss_end__+0x13b580>
    1430:	0a052e06 	beq	14cc50 <__bss_end__+0x142188>
    1434:	2f040582 	svccs	0x00040582
    1438:	052e0e05 	streq	r0, [lr, #-3589]!	; 0xfffff1fb
    143c:	0b05490a 	bleq	15386c <__bss_end__+0x148da4>
    1440:	04052f06 	streq	r2, [r5], #-3846	; 0xfffff0fa
    1444:	2f060106 	svccs	0x00060106
    1448:	01060605 	tsteq	r6, r5, lsl #12
    144c:	2f060505 	svccs	0x00060505
    1450:	01060a05 	tsteq	r6, r5, lsl #20
    1454:	2e07052e 	cfsh32cs	mvfx0, mvfx7, #30
    1458:	04052e2e 	streq	r2, [r5], #-3630	; 0xfffff1d2
    145c:	010d0306 	tsteq	sp, r6, lsl #6
    1460:	03060205 	movweq	r0, #25093	; 0x6205
    1464:	09050146 	stmdbeq	r5, {r1, r2, r6, r8}
    1468:	052e3a03 	streq	r3, [lr, #-2563]!	; 0xfffff5fd
    146c:	032f0604 			; <UNDEFINED> instruction: 0x032f0604
    1470:	0501010d 	streq	r0, [r1, #-269]	; 0xfffffef3
    1474:	0e051502 	cfsh32eq	mvfx1, mvfx5, #2
    1478:	017fb203 	cmneq	pc, r3, lsl #4
    147c:	14130205 	ldrne	r0, [r3], #-517	; 0xfffffdfb
    1480:	05010805 	streq	r0, [r1, #-2053]	; 0xfffff7fb
    1484:	03100606 	tsteq	r0, #6291456	; 0x600000
    1488:	02052e3c 	andeq	r2, r5, #60, 28	; 0x3c0
    148c:	064a4603 	strbeq	r4, [sl], -r3, lsl #12
    1490:	06050530 			; <UNDEFINED> instruction: 0x06050530
    1494:	052e2e01 	streq	r2, [lr, #-3585]!	; 0xfffff1ff
    1498:	064b0602 	strbeq	r0, [fp], -r2, lsl #12
    149c:	060e0501 	streq	r0, [lr], -r1, lsl #10
    14a0:	14020516 	strne	r0, [r2], #-1302	; 0xfffffaea
    14a4:	05151513 	ldreq	r1, [r5, #-1299]	; 0xfffffaed
    14a8:	0205010b 	andeq	r0, r5, #-1073741822	; 0xc0000002
    14ac:	30062e06 	andcc	r2, r6, r6, lsl #28
    14b0:	01060905 	tsteq	r6, r5, lsl #18
    14b4:	4c060205 	sfmmi	f0, 4, [r6], {5}
    14b8:	01050106 	tsteq	r5, r6, lsl #2
    14bc:	05013803 	streq	r3, [r1, #-2051]	; 0xfffff7fd
    14c0:	4a6e0306 	bmi	1b820e0 <__bss_end__+0x1b77618>
    14c4:	46030205 	strmi	r0, [r3], -r5, lsl #4
    14c8:	052e4a66 	streq	r4, [lr, #-2662]!	; 0xfffff59a
    14cc:	c8030604 	stmdagt	r3, {r2, r9, sl}
    14d0:	01010100 	mrseq	r0, (UNDEF: 17)
    14d4:	822e0601 	eorhi	r0, lr, #1048576	; 0x100000
    14d8:	72034a06 	andvc	r4, r3, #24576	; 0x6000
    14dc:	0609052e 	streq	r0, [r9], -lr, lsr #10
    14e0:	06040501 	streq	r0, [r4], -r1, lsl #10
    14e4:	010d032f 	tsteq	sp, pc, lsr #6
    14e8:	15020501 	strne	r0, [r2, #-1281]	; 0xfffffaff
    14ec:	b2030e05 	andlt	r0, r3, #80	; 0x50
    14f0:	0205017f 	andeq	r0, r5, #-1073741793	; 0xc000001f
    14f4:	08051413 	stmdaeq	r5, {r0, r1, r4, sl, ip}
    14f8:	06090501 	streq	r0, [r9], -r1, lsl #10
    14fc:	05011b03 	streq	r1, [r1, #-2819]	; 0xfffff4fd
    1500:	2e630306 	cdpcs	3, 6, cr0, cr3, cr6, {0}
    1504:	2e2e3c03 	cdpcs	12, 2, cr3, cr14, cr3, {0}
    1508:	0648052e 	strbeq	r0, [r8], -lr, lsr #10
    150c:	087fb403 	ldmdaeq	pc!, {r0, r1, sl, ip, sp, pc}^	; <UNPREDICTABLE>
    1510:	1305053c 	movwne	r0, #21820	; 0x553c
    1514:	002e0601 	eoreq	r0, lr, r1, lsl #12
    1518:	06020402 	streq	r0, [r2], -r2, lsl #8
    151c:	0402002e 	streq	r0, [r2], #-46	; 0xffffffd2
    1520:	02000102 	andeq	r0, r0, #-2147483648	; 0x80000000
    1524:	05130204 	ldreq	r0, [r3, #-516]	; 0xfffffdfc
    1528:	04020011 	streq	r0, [r2], #-17	; 0xffffffef
    152c:	05010602 	streq	r0, [r1, #-1538]	; 0xfffff9fe
    1530:	04020007 	streq	r0, [r2], #-7
    1534:	11052f02 	tstne	r5, r2, lsl #30
    1538:	02040200 	andeq	r0, r4, #0, 4
    153c:	0005052d 	andeq	r0, r5, sp, lsr #10
    1540:	06020402 	streq	r0, [r2], -r2, lsl #8
    1544:	0009052f 	andeq	r0, r9, pc, lsr #10
    1548:	13020402 	movwne	r0, #9218	; 0x2402
    154c:	02000e05 	andeq	r0, r0, #80	; 0x50
    1550:	01060204 	tsteq	r6, r4, lsl #4
    1554:	02000505 	andeq	r0, r0, #20971520	; 0x1400000
    1558:	63060104 	movwvs	r0, #24836	; 0x6104
    155c:	01040200 	mrseq	r0, R12_usr
    1560:	00480501 	subeq	r0, r8, r1, lsl #10
    1564:	06010402 	streq	r0, [r1], -r2, lsl #8
    1568:	00050511 	andeq	r0, r5, r1, lsl r5
    156c:	2f010402 	svccs	0x00010402
    1570:	02004805 	andeq	r4, r0, #327680	; 0x50000
    1574:	052d0104 	streq	r0, [sp, #-260]!	; 0xfffffefc
    1578:	04020005 	streq	r0, [r2], #-5
    157c:	02002f01 	andeq	r2, r0, #1, 30
    1580:	004a0104 	subeq	r0, sl, r4, lsl #2
    1584:	4a010402 	bmi	42594 <__bss_end__+0x37acc>
    1588:	01040200 	mrseq	r0, R12_usr
    158c:	40054a06 	andmi	r4, r5, r6, lsl #20
    1590:	d600e103 	strle	lr, [r0], -r3, lsl #2
    1594:	09050106 	stmdbeq	r5, {r1, r2, r8}
    1598:	08052e4e 	stmdaeq	r5, {r1, r2, r3, r6, r9, sl, fp, sp}
    159c:	291e0530 	ldmdbcs	lr, {r4, r5, r8, sl}
    15a0:	052e1205 	streq	r1, [lr, #-517]!	; 0xfffffdfb
    15a4:	0205330d 	andeq	r3, r5, #872415232	; 0x34000000
    15a8:	05054506 	streq	r4, [r5, #-1286]	; 0xfffffafa
    15ac:	14020513 	strne	r0, [r2], #-1299	; 0xfffffaed
    15b0:	05130505 	ldreq	r0, [r3, #-1285]	; 0xfffffafb
    15b4:	08051302 	stmdaeq	r5, {r1, r8, r9, ip}
    15b8:	06400501 	strbeq	r0, [r0], -r1, lsl #10
    15bc:	2e017a03 	vmlacs.f32	s14, s2, s6
    15c0:	66340d05 	ldrtvs	r0, [r4], -r5, lsl #26
    15c4:	20031105 	andcs	r1, r3, r5, lsl #2
    15c8:	04054a4a 	streq	r4, [r5], #-2634	; 0xfffff5b6
    15cc:	01620306 	cmneq	r2, r6, lsl #6
    15d0:	01060905 	tsteq	r6, r5, lsl #18
    15d4:	052e0f05 	streq	r0, [lr, #-3845]!	; 0xfffff0fb
    15d8:	052c0608 	streq	r0, [ip, #-1544]!	; 0xfffff9f8
    15dc:	052e060d 	streq	r0, [lr, #-1549]!	; 0xfffff9f3
    15e0:	05670603 	strbeq	r0, [r7, #-1539]!	; 0xfffff9fd
    15e4:	05010605 	streq	r0, [r1, #-1541]	; 0xfffff9fb
    15e8:	054d0608 	strbeq	r0, [sp, #-1544]	; 0xfffff9f8
    15ec:	0501060e 	streq	r0, [r1, #-1550]	; 0xfffff9f2
    15f0:	09052e0a 	stmdbeq	r5, {r1, r3, r9, sl, fp, sp}
    15f4:	0604052f 	streq	r0, [r4], -pc, lsr #10
    15f8:	0607052f 	streq	r0, [r7], -pc, lsr #10
    15fc:	2c0a0501 	cfstr32cs	mvfx0, [sl], {1}
    1600:	32060405 	andcc	r0, r6, #83886080	; 0x5000000
    1604:	03062d05 	movweq	r2, #27909	; 0x6d05
    1608:	05017f98 	streq	r7, [r1, #-3992]	; 0xfffff068
    160c:	00ed0309 	rsceq	r0, sp, r9, lsl #6
    1610:	2c0d052e 	cfstr32cs	mvfx0, [sp], {46}	; 0x2e
    1614:	052b0705 	streq	r0, [fp, #-1797]!	; 0xfffff8fb
    1618:	13300604 	teqne	r0, #4, 12	; 0x400000
    161c:	01090514 	tsteq	r9, r4, lsl r5
    1620:	93030c05 	movwls	r0, #15365	; 0x3c05
    1624:	1d05017f 	stfnes	f0, [r5, #-508]	; 0xfffffe04
    1628:	05010601 	streq	r0, [r1, #-1537]	; 0xfffff9ff
    162c:	00ed0309 	rsceq	r0, sp, r9, lsl #6
    1630:	06050501 	streq	r0, [r5], -r1, lsl #10
    1634:	0612052f 	ldreq	r0, [r2], -pc, lsr #10
    1638:	052d2e01 	streq	r2, [sp, #-3585]!	; 0xfffff1ff
    163c:	05052f0b 	streq	r2, [r5, #-3851]	; 0xfffff0f5
    1640:	09052f06 	stmdbeq	r5, {r1, r2, r8, r9, sl, fp, sp}
    1644:	030c0510 	movweq	r0, #50448	; 0xc510
    1648:	05017f93 	streq	r7, [r1, #-3987]	; 0xfffff06d
    164c:	2d05011d 	stfcss	f0, [r5, #-116]	; 0xffffff8c
    1650:	09050106 	stmdbeq	r5, {r1, r2, r8}
    1654:	2e00ed03 	cdpcs	13, 0, cr14, cr0, cr3, {0}
    1658:	4e060405 	cdpmi	4, 0, cr0, cr6, cr5, {0}
    165c:	04020001 	streq	r0, [r2], #-1
    1660:	02004a02 	andeq	r4, r0, #8192	; 0x2000
    1664:	00010204 	andeq	r0, r1, r4, lsl #4
    1668:	15020402 	strne	r0, [r2, #-1026]	; 0xfffffbfe
    166c:	02040200 	andeq	r0, r4, #0, 4
    1670:	12360206 	eorsne	r0, r6, #1610612736	; 0x60000000
    1674:	02040200 	andeq	r0, r4, #0, 4
    1678:	0602052e 	streq	r0, [r2], -lr, lsr #10
    167c:	0100d103 	tsteq	r0, r3, lsl #2
    1680:	01060705 	tsteq	r6, r5, lsl #14
    1684:	0602052e 	streq	r0, [r2], -lr, lsr #10
    1688:	060b052f 	streq	r0, [fp], -pc, lsr #10
    168c:	2f010501 	svccs	0x00010501
    1690:	03060505 	movweq	r0, #25861	; 0x6505
    1694:	09054a65 	stmdbeq	r5, {r0, r2, r5, r6, r9, fp, lr}
    1698:	05660106 	strbeq	r0, [r6, #-262]!	; 0xfffffefa
    169c:	059f0605 	ldreq	r0, [pc, #1541]	; 1ca9 <__code_start__-0x6357>
    16a0:	01110304 	tsteq	r1, r4, lsl #6
    16a4:	01060705 	tsteq	r6, r5, lsl #14
    16a8:	31060405 	tstcc	r6, r5, lsl #8
    16ac:	05010a05 	streq	r0, [r1, #-2565]	; 0xfffff5fb
    16b0:	04020013 	streq	r0, [r2], #-19	; 0xffffffed
    16b4:	052e0601 	streq	r0, [lr, #-1537]!	; 0xfffff9ff
    16b8:	04020010 	streq	r0, [r2], #-16
    16bc:	05052e01 	streq	r2, [r5, #-3585]	; 0xfffff1ff
    16c0:	0a054b06 	beq	1542e0 <__bss_end__+0x149818>
    16c4:	2d060106 	stfcss	f0, [r6, #-24]	; 0xffffffe8
    16c8:	01060405 	tsteq	r6, r5, lsl #8
    16cc:	03061105 	movweq	r1, #24837	; 0x6105
    16d0:	13667fb6 	cmnne	r6, #728	; 0x2d8
    16d4:	04020001 	streq	r0, [r2], #-1
    16d8:	06ba0602 	ldrteq	r0, [sl], r2, lsl #12
    16dc:	051401ba 	ldreq	r0, [r4, #-442]	; 0xfffffe46
    16e0:	2e13061a 	mrccs	6, 0, r0, cr3, cr10, {0}
    16e4:	4e11052e 	cfmul64mi	mvdx0, mvdx1, mvdx14
    16e8:	68140567 	ldmdavs	r4, {r0, r1, r2, r5, r6, r8, sl}
    16ec:	05821305 	streq	r1, [r2, #773]	; 0x305
    16f0:	4a780315 	bmi	1e0234c <__bss_end__+0x1df7884>
    16f4:	4b061105 	blmi	185b10 <__bss_end__+0x17b048>
    16f8:	13141313 	tstne	r4, #1275068416	; 0x4c000000
    16fc:	06130514 			; <UNDEFINED> instruction: 0x06130514
    1700:	06090501 	streq	r0, [r9], -r1, lsl #10
    1704:	060d052f 	streq	r0, [sp], -pc, lsr #10
    1708:	052e2e01 	streq	r2, [lr, #-3585]!	; 0xfffff1ff
    170c:	0d05bb09 	vstreq	d11, [r5, #-36]	; 0xffffffdc
    1710:	0609059d 			; <UNDEFINED> instruction: 0x0609059d
    1714:	2f15052f 	svccs	0x0015052f
    1718:	4a750306 	bmi	1d42338 <__bss_end__+0x1d37870>
    171c:	4a2e0b03 	bmi	b84330 <__bss_end__+0xb79868>
    1720:	03060505 	movweq	r0, #25861	; 0x6505
    1724:	09050123 	stmdbeq	r5, {r0, r1, r5, r8}
    1728:	052e0106 	streq	r0, [lr, #-262]!	; 0xfffffefa
    172c:	03d70605 	bicseq	r0, r7, #5242880	; 0x500000
    1730:	0e032e6e 	cdpeq	14, 0, cr2, cr3, cr14, {3}
    1734:	06090501 	streq	r0, [r9], -r1, lsl #10
    1738:	06050501 	streq	r0, [r5], -r1, lsl #10
    173c:	054a1003 	strbeq	r1, [sl, #-3]
    1740:	7eed0301 	cdpvc	3, 14, cr0, cr13, cr1, {0}
    1744:	14020501 	strne	r0, [r2], #-1281	; 0xfffffaff
    1748:	05141315 	ldreq	r1, [r4, #-789]	; 0xfffffceb
    174c:	011a0304 	tsteq	sl, r4, lsl #6
    1750:	01060905 	tsteq	r6, r5, lsl #18
    1754:	46030205 	strmi	r0, [r3], -r5, lsl #4
    1758:	0309052e 	movweq	r0, #38190	; 0x952e
    175c:	04052e3a 	streq	r2, [r5], #-3642	; 0xfffff1c6
    1760:	0d032f06 	stceq	15, cr2, [r3, #-24]	; 0xffffffe8
    1764:	02050101 	andeq	r0, r5, #1073741824	; 0x40000000
    1768:	030e0515 	movweq	r0, #58645	; 0xe515
    176c:	05017fb2 	streq	r7, [r1, #-4018]	; 0xfffff04e
    1770:	05141302 	ldreq	r1, [r4, #-770]	; 0xfffffcfe
    1774:	02050108 	andeq	r0, r5, #2
    1778:	08050106 	stmdaeq	r5, {r1, r2, r8}
    177c:	0603059f 			; <UNDEFINED> instruction: 0x0603059f
    1780:	0501064a 	streq	r0, [r1, #-1610]	; 0xfffff9b6
    1784:	15052e08 	strne	r2, [r5, #-3592]	; 0xfffff1f8
    1788:	08052d06 	stmdaeq	r5, {r1, r2, r8, sl, fp, sp}
    178c:	2f030501 	svccs	0x00030501
    1790:	08050106 	stmdaeq	r5, {r1, r2, r8}
    1794:	0615052e 	ldreq	r0, [r5], -lr, lsr #10
    1798:	0108052d 	tsteq	r8, sp, lsr #10
    179c:	062f0305 	strteq	r0, [pc], -r5, lsl #6
    17a0:	2e080501 	cfsh32cs	mvfx0, mvfx8, #1
    17a4:	2d061505 	cfstr32cs	mvfx1, [r6, #-20]	; 0xffffffec
    17a8:	05010805 	streq	r0, [r1, #-2053]	; 0xfffff7fb
    17ac:	01062f03 	tsteq	r6, r3, lsl #30
    17b0:	052e0805 	streq	r0, [lr, #-2053]!	; 0xfffff7fb
    17b4:	052d0615 	streq	r0, [sp, #-1557]!	; 0xfffff9eb
    17b8:	03050108 	movweq	r0, #20744	; 0x5108
    17bc:	0501062f 	streq	r0, [r1, #-1583]	; 0xfffff9d1
    17c0:	15052e08 	strne	r2, [r5, #-3592]	; 0xfffff1f8
    17c4:	08052d06 	stmdaeq	r5, {r1, r2, r8, sl, fp, sp}
    17c8:	2f030501 	svccs	0x00030501
    17cc:	08050106 	stmdaeq	r5, {r1, r2, r8}
    17d0:	0615052e 	ldreq	r0, [r5], -lr, lsr #10
    17d4:	0108052d 	tsteq	r8, sp, lsr #10
    17d8:	05130305 	ldreq	r0, [r3, #-773]	; 0xfffffcfb
    17dc:	05010608 	streq	r0, [r1, #-1544]	; 0xfffff9f8
    17e0:	052d0615 	streq	r0, [sp, #-1557]!	; 0xfffff9eb
    17e4:	66060108 	strvs	r0, [r6], -r8, lsl #2
    17e8:	67060305 	strvs	r0, [r6, -r5, lsl #6]
    17ec:	01060805 	tsteq	r6, r5, lsl #16
    17f0:	052d1805 	streq	r1, [sp, #-2053]!	; 0xfffff7fb
    17f4:	08052e02 	stmdaeq	r5, {r1, r9, sl, fp, sp}
    17f8:	0615052f 	ldreq	r0, [r5], -pc, lsr #10
    17fc:	0108052d 	tsteq	r8, sp, lsr #10
    1800:	01060205 	tsteq	r6, r5, lsl #4
    1804:	2f060305 	svccs	0x00060305
    1808:	11061805 	tstne	r6, r5, lsl #16
    180c:	052e0205 	streq	r0, [lr, #-517]!	; 0xfffffdfb
    1810:	15052f08 	strne	r2, [r5, #-3848]	; 0xfffff0f8
    1814:	08052d06 	stmdaeq	r5, {r1, r2, r8, sl, fp, sp}
    1818:	13030501 	movwne	r0, #13569	; 0x3501
    181c:	01060805 	tsteq	r6, r5, lsl #16
    1820:	2d061505 	cfstr32cs	mvfx1, [r6, #-20]	; 0xffffffec
    1824:	05010805 	streq	r0, [r1, #-2053]	; 0xfffff7fb
    1828:	4a140605 	bmi	503044 <__bss_end__+0x4f857c>
    182c:	2e060205 	cdpcs	2, 0, cr0, cr6, cr5, {0}
    1830:	19060e05 	stmdbne	r6, {r0, r2, r9, sl, fp}
    1834:	052f0405 	streq	r0, [pc, #-1029]!	; 1437 <__code_start__-0x6bc9>
    1838:	09052f11 	stmdbeq	r5, {r0, r4, r8, r9, sl, fp, sp}
    183c:	3302054a 	movwcc	r0, #9546	; 0x254a
    1840:	72030505 	andvc	r0, r3, #20971520	; 0x1400000
    1844:	0602052e 	streq	r0, [r2], -lr, lsr #10
    1848:	0501062f 	streq	r0, [r1, #-1583]	; 0xfffff9d1
    184c:	0516060e 	ldreq	r0, [r6, #-1550]	; 0xfffff9f2
    1850:	05131402 	ldreq	r1, [r3, #-1026]	; 0xfffffbfe
    1854:	02051303 	andeq	r1, r5, #201326592	; 0xc000000
    1858:	0b051514 	bleq	146cb0 <__bss_end__+0x13c1e8>
    185c:	06020501 	streq	r0, [r2], -r1, lsl #10
    1860:	05662e01 	strbeq	r2, [r6, #-3585]!	; 0xfffff1ff
    1864:	052f0603 	streq	r0, [pc, #-1539]!	; 1269 <__code_start__-0x6d97>
    1868:	0501060a 	streq	r0, [r1, #-1546]	; 0xfffff9f6
    186c:	0a052d02 	beq	14cc7c <__bss_end__+0x1421b4>
    1870:	0617052f 	ldreq	r0, [r7], -pc, lsr #10
    1874:	010b052d 	tsteq	fp, sp, lsr #10
    1878:	01060205 	tsteq	r6, r5, lsl #4
    187c:	05054a4a 	streq	r4, [r5, #-2634]	; 0xfffff5b6
    1880:	01950306 	orrseq	r0, r5, r6, lsl #6
    1884:	06110501 	ldreq	r0, [r1], -r1, lsl #10
    1888:	017ef803 	cmneq	lr, r3, lsl #16	; <UNPREDICTABLE>
    188c:	88031b05 	stmdahi	r3, {r0, r2, r8, r9, fp, ip}
    1890:	01054a01 	tsteq	r5, r1, lsl #20
    1894:	7ef30306 	cdpvc	3, 15, cr0, cr3, cr6, {0}
    1898:	1402052e 	strne	r0, [r2], #-1326	; 0xfffffad2
    189c:	05141315 	ldreq	r1, [r4, #-789]	; 0xfffffceb
    18a0:	01220319 			; <UNDEFINED> instruction: 0x01220319
    18a4:	05131a05 	ldreq	r1, [r3, #-2565]	; 0xfffff5fb
    18a8:	05010628 	streq	r0, [r1, #-1576]	; 0xfffff9d8
    18ac:	04052e1f 	streq	r2, [r5], #-3615	; 0xfffff1e1
    18b0:	4a0e052f 	bmi	382d74 <__bss_end__+0x3782ac>
    18b4:	052d1f05 	streq	r1, [sp, #-3845]!	; 0xfffff0fb
    18b8:	052f060b 	streq	r0, [pc, #-1547]!	; 12b5 <__code_start__-0x6d4b>
    18bc:	06010604 	streq	r0, [r1], -r4, lsl #12
    18c0:	02050132 	andeq	r0, r5, #-2147483636	; 0x8000000c
    18c4:	030e0515 	movweq	r0, #58645	; 0xe515
    18c8:	05017fb2 	streq	r7, [r1, #-4018]	; 0xfffff04e
    18cc:	06051302 	streq	r1, [r5], -r2, lsl #6
    18d0:	02050106 	andeq	r0, r5, #-2147483647	; 0x80000001
    18d4:	08053006 	stmdaeq	r5, {r1, r2, ip, sp}
    18d8:	06020501 	streq	r0, [r2], -r1, lsl #10
    18dc:	06030501 	streq	r0, [r3], -r1, lsl #10
    18e0:	08052108 	stmdaeq	r5, {r3, r8, sp}
    18e4:	15050106 	strne	r0, [r5, #-262]	; 0xfffffefa
    18e8:	08054906 	stmdaeq	r5, {r1, r2, r8, fp, lr}
    18ec:	d7030501 	strle	r0, [r3, -r1, lsl #10]
    18f0:	01060805 	tsteq	r6, r5, lsl #16
    18f4:	052d1805 	streq	r1, [sp, #-2053]!	; 0xfffff7fb
    18f8:	08052e02 	stmdaeq	r5, {r1, r9, sl, fp, sp}
    18fc:	0615052f 	ldreq	r0, [r5], -pc, lsr #10
    1900:	0108052d 	tsteq	r8, sp, lsr #10
    1904:	01060205 	tsteq	r6, r5, lsl #4
    1908:	2f060305 	svccs	0x00060305
    190c:	11061805 	tstne	r6, r5, lsl #16
    1910:	052e0205 	streq	r0, [lr, #-517]!	; 0xfffffdfb
    1914:	15052f08 	strne	r2, [r5, #-3848]	; 0xfffff0f8
    1918:	08052d06 	stmdaeq	r5, {r1, r2, r8, sl, fp, sp}
    191c:	13030501 	movwne	r0, #13569	; 0x3501
    1920:	01060805 	tsteq	r6, r5, lsl #16
    1924:	2d061505 	cfstr32cs	mvfx1, [r6, #-20]	; 0xffffffec
    1928:	05010805 	streq	r0, [r1, #-2053]	; 0xfffff7fb
    192c:	05140605 	ldreq	r0, [r4, #-1541]	; 0xfffff9fb
    1930:	05660602 	strbeq	r0, [r6, #-1538]!	; 0xfffff9fe
    1934:	051a0604 	ldreq	r0, [sl, #-1540]	; 0xfffff9fc
    1938:	4a780305 	bmi	1e02554 <__bss_end__+0x1df7a8c>
    193c:	2f060205 	svccs	0x00060205
    1940:	0e050106 	adfeqs	f0, f5, f6
    1944:	02051606 	andeq	r1, r5, #6291456	; 0x600000
    1948:	04051314 	streq	r1, [r5], #-788	; 0xfffffcec
    194c:	03050106 	movweq	r0, #20742	; 0x5106
    1950:	11052f06 	tstne	r5, r6, lsl #30
    1954:	09050106 	stmdbeq	r5, {r1, r2, r8}
    1958:	0602052e 	streq	r0, [r2], -lr, lsr #10
    195c:	0b051530 	bleq	146e24 <__bss_end__+0x13c35c>
    1960:	06020501 	streq	r0, [r2], -r1, lsl #10
    1964:	2e4a4a01 	vmlacs.f32	s9, s20, s2
    1968:	2f060305 	svccs	0x00060305
    196c:	01060a05 	tsteq	r6, r5, lsl #20
    1970:	052d0205 	streq	r0, [sp, #-517]!	; 0xfffffdfb
    1974:	17052f0a 	strne	r2, [r5, -sl, lsl #30]
    1978:	0b052d06 	bleq	14cd98 <__bss_end__+0x1422d0>
    197c:	06020501 	streq	r0, [r2], -r1, lsl #10
    1980:	062e4a01 	strteq	r4, [lr], -r1, lsl #20
    1984:	06090514 			; <UNDEFINED> instruction: 0x06090514
    1988:	06020501 	streq	r0, [r2], -r1, lsl #10
    198c:	0501064c 	streq	r0, [r1, #-1612]	; 0xfffff9b4
    1990:	98030605 	stmdals	r3, {r0, r2, r9, sl}
    1994:	052a0101 	streq	r0, [sl, #-257]!	; 0xfffffeff
    1998:	05010607 	streq	r0, [r1, #-1543]	; 0xfffff9f9
    199c:	052f0605 	streq	r0, [pc, #-1541]!	; 139f <__code_start__-0x6c61>
    19a0:	2e530318 	mrccs	3, 2, r0, cr3, cr8, {0}
    19a4:	01061b05 	tsteq	r6, r5, lsl #22
    19a8:	05821a05 	streq	r1, [r2, #2565]	; 0xa05
    19ac:	054b0609 	strbeq	r0, [fp, #-1545]	; 0xfffff9f7
    19b0:	2e01060d 	cfmadd32cs	mvax0, mvfx0, mvfx1, mvfx13
    19b4:	05d70905 	ldrbeq	r0, [r7, #2309]	; 0x905
    19b8:	09059d0d 	stmdbeq	r5, {r0, r2, r3, r8, sl, fp, ip, pc}
    19bc:	15052f06 	strne	r2, [r5, #-3846]	; 0xfffff0fa
    19c0:	06180530 			; <UNDEFINED> instruction: 0x06180530
    19c4:	66170501 	ldrvs	r0, [r7], -r1, lsl #10
    19c8:	052f1905 	streq	r1, [pc, #-2309]!	; 10cb <__code_start__-0x6f35>
    19cc:	19054917 	stmdbne	r5, {r0, r1, r2, r4, r8, fp, lr}
    19d0:	15052f06 	strne	r2, [r5, #-3846]	; 0xfffff0fa
    19d4:	2e6f0306 	cdpcs	3, 6, cr0, cr15, cr6, {0}
    19d8:	03061905 	movweq	r1, #26885	; 0x6905
    19dc:	15054a13 	strne	r4, [r5, #-2579]	; 0xfffff5ed
    19e0:	2e6d0306 	cdpcs	3, 6, cr0, cr13, cr6, {0}
    19e4:	0302054a 	movweq	r0, #9546	; 0x254a
    19e8:	66017fa0 	strvs	r7, [r1], -r0, lsr #31
    19ec:	01720306 	cmneq	r2, r6, lsl #6
    19f0:	01060505 	tsteq	r6, r5, lsl #10
    19f4:	05360405 	ldreq	r0, [r6, #-1029]!	; 0xfffffbfb
    19f8:	2e780305 	cdpcs	3, 7, cr0, cr8, cr5, {0}
    19fc:	2f060205 	svccs	0x00060205
    1a00:	0e050106 	adfeqs	f0, f5, f6
    1a04:	02051606 	andeq	r1, r5, #6291456	; 0x600000
    1a08:	04051314 	streq	r1, [r5], #-788	; 0xfffffcec
    1a0c:	054a0106 	strbeq	r0, [sl, #-262]	; 0xfffffefa
    1a10:	78030602 	stmdavc	r3, {r1, r9, sl}
    1a14:	06050501 	streq	r0, [r5], -r1, lsl #10
    1a18:	02054a01 	andeq	r4, r5, #4096	; 0x1000
    1a1c:	01064b06 	tsteq	r6, r6, lsl #22
    1a20:	16060e05 	strne	r0, [r6], -r5, lsl #28
    1a24:	13140205 	tstne	r4, #1342177280	; 0x50000000
    1a28:	0b051515 	bleq	146e84 <__bss_end__+0x13c3bc>
    1a2c:	052e0601 	streq	r0, [lr, #-1537]!	; 0xfffff9ff
    1a30:	9e030611 	mcrls	6, 0, r0, cr3, cr1, {0}
    1a34:	22050101 	andcs	r0, r5, #1073741824	; 0x40000000
    1a38:	05050106 	streq	r0, [r5, #-262]	; 0xfffffefa
    1a3c:	2d22052f 	cfstr32cs	mvfx0, [r2, #-188]!	; 0xffffff44
    1a40:	2f060505 	svccs	0x00060505
    1a44:	054b1105 	strbeq	r1, [fp, #-261]	; 0xfffffefb
    1a48:	9e018305 	cdpls	3, 0, cr8, cr1, cr5, {0}
    1a4c:	012e5c03 			; <UNDEFINED> instruction: 0x012e5c03
    1a50:	0602059e 			; <UNDEFINED> instruction: 0x0602059e
    1a54:	2e7ef303 	cdpcs	3, 7, cr15, cr14, cr3, {0}
    1a58:	2c06052e 	cfstr32cs	mvfx0, [r6], {46}	; 0x2e
    1a5c:	030d054a 	movweq	r0, #54602	; 0xd54a
    1a60:	050100d8 	streq	r0, [r1, #-216]	; 0xffffff28
    1a64:	04020004 	streq	r0, [r2], #-4
    1a68:	11030601 	tstne	r3, r1, lsl #12
    1a6c:	0402004a 	streq	r0, [r2], #-74	; 0xffffffb6
    1a70:	11050101 	tstne	r5, r1, lsl #2
    1a74:	9e065106 	adflss	f5, f6, f6
    1a78:	17031505 	strne	r1, [r3, -r5, lsl #10]
    1a7c:	05ba012e 	ldreq	r0, [sl, #302]!	; 0x12e
    1a80:	2e690311 	mcrcs	3, 3, r0, cr9, cr1, {0}
    1a84:	00280201 	eoreq	r0, r8, r1, lsl #4
    1a88:	00870101 	addeq	r0, r7, r1, lsl #2
    1a8c:	00030000 	andeq	r0, r3, r0
    1a90:	00000064 	andeq	r0, r0, r4, rrx
    1a94:	0efb0102 	cdpeq	1, 15, cr0, cr11, cr2, {0}
    1a98:	0101000d 	tsteq	r1, sp
    1a9c:	00000101 	andeq	r0, r0, r1, lsl #2
    1aa0:	00000100 	andeq	r0, r0, r0, lsl #2
    1aa4:	732f2e01 			; <UNDEFINED> instruction: 0x732f2e01
    1aa8:	66666174 			; <UNDEFINED> instruction: 0x66666174
    1aac:	6372732d 	cmnvs	r2, #-1275068416	; 0xb4000000
    1ab0:	73552f00 	cmpvc	r5, #0, 30
    1ab4:	2f737265 	svccs	0x00737265
    1ab8:	656c696d 	strbvs	r6, [ip, #-2413]!	; 0xfffff693
    1abc:	6f532f73 	svcvs	0x00532f73
    1ac0:	65637275 	strbvs	r7, [r3, #-629]!	; 0xfffffd8b
    1ac4:	3273632f 	rsbscc	r6, r3, #-1140850688	; 0xbc000000
    1ac8:	786c3034 	stmdavc	ip!, {r2, r4, r5, ip, sp}^
    1acc:	62696c2f 	rsbvs	r6, r9, #12032	; 0x2f00
    1ad0:	692f6970 	stmdbvs	pc!, {r4, r5, r6, r8, fp, sp, lr}	; <UNPREDICTABLE>
    1ad4:	756c636e 	strbvc	r6, [ip, #-878]!	; 0xfffffc92
    1ad8:	00006564 	andeq	r6, r0, r4, ror #10
    1adc:	61656c63 	cmnvs	r5, r3, ror #24
    1ae0:	65722d6e 	ldrbvs	r2, [r2, #-3438]!	; 0xfffff292
    1ae4:	746f6f62 	strbtvc	r6, [pc], #-3938	; 1aec <__code_start__-0x6514>
    1ae8:	0100632e 	tsteq	r0, lr, lsr #6
    1aec:	70720000 	rsbsvc	r0, r2, r0
    1af0:	00682e69 	rsbeq	r2, r8, r9, ror #28
    1af4:	00000002 	andeq	r0, r0, r2
    1af8:	05001905 	streq	r1, [r0, #-2309]	; 0xfffff6fb
    1afc:	009a8402 	addseq	r8, sl, r2, lsl #8
    1b00:	05051500 	streq	r1, [r5, #-1280]	; 0xfffffb00
    1b04:	06190513 			; <UNDEFINED> instruction: 0x06190513
    1b08:	2f05052d 	svccs	0x0005052d
    1b0c:	4b2f6706 	blmi	bdb72c <__bss_end__+0xbd0c64>
    1b10:	01000602 	tsteq	r0, r2, lsl #12
    1b14:	00017601 	andeq	r7, r1, r1, lsl #12
    1b18:	5e000300 	cdppl	3, 0, cr0, cr0, cr0, {0}
    1b1c:	02000000 	andeq	r0, r0, #0, 0
    1b20:	0d0efb01 	vstreq	d15, [lr, #-4]
    1b24:	01010100 	mrseq	r0, (UNDEF: 17)
    1b28:	00000001 	andeq	r0, r0, r1
    1b2c:	01000001 	tsteq	r0, r1
    1b30:	74732f2e 	ldrbtvc	r2, [r3], #-3886	; 0xfffff0d2
    1b34:	2d666661 	stclcs	6, cr6, [r6, #-388]!	; 0xfffffe7c
    1b38:	00637273 	rsbeq	r7, r3, r3, ror r2
    1b3c:	6573552f 	ldrbvs	r5, [r3, #-1327]!	; 0xfffffad1
    1b40:	6d2f7372 	stcvs	3, cr7, [pc, #-456]!	; 1980 <__code_start__-0x6680>
    1b44:	73656c69 	cmnvc	r5, #26880	; 0x6900
    1b48:	756f532f 	strbvc	r5, [pc, #-815]!	; 1821 <__code_start__-0x67df>
    1b4c:	2f656372 	svccs	0x00656372
    1b50:	34327363 	ldrtcc	r7, [r2], #-867	; 0xfffffc9d
    1b54:	2f786c30 	svccs	0x00786c30
    1b58:	7062696c 	rsbvc	r6, r2, ip, ror #18
    1b5c:	6e692f69 	cdpvs	15, 6, cr2, cr9, cr9, {3}
    1b60:	64756c63 	ldrbtvs	r6, [r5], #-3171	; 0xfffff39d
    1b64:	63000065 	movwvs	r0, #101	; 0x65
    1b68:	72617473 	rsbvc	r7, r1, #1929379840	; 0x73000000
    1b6c:	00632e74 	rsbeq	r2, r3, r4, ror lr
    1b70:	72000001 	andvc	r0, r0, #1, 0
    1b74:	682e6970 	stmdavs	lr!, {r4, r5, r6, r8, fp, sp, lr}
    1b78:	00000200 	andeq	r0, r0, r0, lsl #4
    1b7c:	00100500 	andseq	r0, r0, r0, lsl #10
    1b80:	9ab00205 	bls	fec0239c <__bss_end__+0xfebf78d4>
    1b84:	10030000 	andne	r0, r3, r0
    1b88:	13050501 	movwne	r0, #21761	; 0x5501
    1b8c:	05130205 	ldreq	r0, [r3, #-517]	; 0xfffffdfb
    1b90:	10051405 	andne	r1, r5, r5, lsl #8
    1b94:	05050e06 	streq	r0, [r5, #-3590]	; 0xfffff1fa
    1b98:	13300632 	teqne	r0, #52428800	; 0x3200000
    1b9c:	010a0514 	tsteq	sl, r4, lsl r5
    1ba0:	91080905 	tstls	r8, r5, lsl #18
    1ba4:	01061005 	tsteq	r6, r5
    1ba8:	059a0a05 	ldreq	r0, [sl, #2565]	; 0xa05
    1bac:	0a056a10 	beq	15c3f4 <__bss_end__+0x15192c>
    1bb0:	09052d06 	stmdbeq	r5, {r1, r2, r8, sl, fp, sp}
    1bb4:	0610052f 	ldreq	r0, [r0], -pc, lsr #10
    1bb8:	060a0501 	streq	r0, [sl], -r1, lsl #10
    1bbc:	bb09052d 	bllt	243078 <__bss_end__+0x2385b0>
    1bc0:	01061005 	tsteq	r6, r5
    1bc4:	65060a05 	strvs	r0, [r6, #-2565]	; 0xfffff5fb
    1bc8:	054b0905 	strbeq	r0, [fp, #-2309]	; 0xfffff6fb
    1bcc:	0501060d 	streq	r0, [r1, #-1549]	; 0xfffff9f3
    1bd0:	10052d0a 	andne	r2, r5, sl, lsl #26
    1bd4:	060a052f 	streq	r0, [sl], -pc, lsr #10
    1bd8:	2f09052d 	svccs	0x0009052d
    1bdc:	01060d05 	tsteq	r6, r5, lsl #26
    1be0:	052d0a05 	streq	r0, [sp, #-2565]!	; 0xfffff5fb
    1be4:	0a052f10 	beq	14d82c <__bss_end__+0x142d64>
    1be8:	09052d06 	stmdbeq	r5, {r1, r2, r8, sl, fp, sp}
    1bec:	060d052f 	streq	r0, [sp], -pc, lsr #10
    1bf0:	2d0a0501 	cfstr32cs	mvfx0, [sl, #-4]
    1bf4:	052f1005 	streq	r1, [pc, #-5]!	; 1bf7 <__code_start__-0x6409>
    1bf8:	052d060a 	streq	r0, [sp, #-1546]!	; 0xfffff9f6
    1bfc:	0d052f09 	stceq	15, cr2, [r5, #-36]	; 0xffffffdc
    1c00:	0a050106 	beq	142020 <__bss_end__+0x137558>
    1c04:	2f10052d 	svccs	0x0010052d
    1c08:	2d060a05 	vstrcs	s0, [r6, #-20]	; 0xffffffec
    1c0c:	05130905 	ldreq	r0, [r3, #-2309]	; 0xfffff6fb
    1c10:	05010610 	streq	r0, [r1, #-1552]	; 0xfffff9f0
    1c14:	052d060a 	streq	r0, [sp, #-1546]!	; 0xfffff9f6
    1c18:	01321505 	teqeq	r2, r5, lsl #10
    1c1c:	05144a01 	ldreq	r4, [r4, #-2561]	; 0xfffff5ff
    1c20:	01610311 	cmneq	r1, r1, lsl r3
    1c24:	14130505 	ldrne	r0, [r3], #-1285	; 0xfffffafb
    1c28:	01140514 	tsteq	r4, r4, lsl r5
    1c2c:	01062e01 	tsteq	r6, r1, lsl #28
    1c30:	13060505 	movwne	r0, #25861	; 0x6505
    1c34:	060a0515 			; <UNDEFINED> instruction: 0x060a0515
    1c38:	06050501 	streq	r0, [r5], -r1, lsl #10
    1c3c:	0601064b 	streq	r0, [r1], -fp, asr #12
    1c40:	2f011603 	svccs	0x00011603
    1c44:	5f031105 	svcpl	0x00031105
    1c48:	13050501 	movwne	r0, #21761	; 0x5501
    1c4c:	14051414 	strne	r1, [r5], #-1044	; 0xfffffbec
    1c50:	062e0101 	strteq	r0, [lr], -r1, lsl #2
    1c54:	06050501 	streq	r0, [r5], -r1, lsl #10
    1c58:	06080513 			; <UNDEFINED> instruction: 0x06080513
    1c5c:	03050501 	movweq	r0, #21761	; 0x5501
    1c60:	07052e1c 	smladeq	r5, ip, lr, r2
    1c64:	052e6403 	streq	r6, [lr, #-1027]!	; 0xfffffbfd
    1c68:	052f0609 	streq	r0, [pc, #-1545]!	; 1667 <__code_start__-0x6999>
    1c6c:	0501060e 	streq	r0, [r1, #-1550]	; 0xfffff9f2
    1c70:	05300605 	ldreq	r0, [r0, #-1541]!	; 0xfffff9fb
    1c74:	0501060a 	streq	r0, [r1, #-1546]	; 0xfffff9f6
    1c78:	062f0605 	strteq	r0, [pc], -r5, lsl #12
    1c7c:	18030601 	stmdane	r3, {r0, r9, sl}
    1c80:	30020501 	andcc	r0, r2, r1, lsl #10
    1c84:	03060a05 	movweq	r0, #27141	; 0x6a05
    1c88:	0c022e6f 	stceq	14, cr2, [r2], {111}	; 0x6f
    1c8c:	7d010100 	stfvcs	f0, [r1, #-0]
    1c90:	03000000 	movweq	r0, #0
    1c94:	00006500 	andeq	r6, r0, r0, lsl #10
    1c98:	fb010200 	blx	424a2 <__bss_end__+0x379da>
    1c9c:	01000d0e 	tsteq	r0, lr, lsl #26
    1ca0:	00010101 	andeq	r0, r1, r1, lsl #2
    1ca4:	00010000 	andeq	r0, r1, r0
    1ca8:	2f2e0100 	svccs	0x002e0100
    1cac:	66617473 			; <UNDEFINED> instruction: 0x66617473
    1cb0:	72732d66 	rsbsvc	r2, r3, #6528	; 0x1980
    1cb4:	552f0063 	strpl	r0, [pc, #-99]!	; 1c59 <__code_start__-0x63a7>
    1cb8:	73726573 	cmnvc	r2, #482344960	; 0x1cc00000
    1cbc:	6c696d2f 	stclvs	13, cr6, [r9], #-188	; 0xffffff44
    1cc0:	532f7365 			; <UNDEFINED> instruction: 0x532f7365
    1cc4:	6372756f 	cmnvs	r2, #465567744	; 0x1bc00000
    1cc8:	73632f65 	cmnvc	r3, #404	; 0x194
    1ccc:	6c303432 	cfldrsvs	mvf3, [r0], #-200	; 0xffffff38
    1cd0:	696c2f78 	stmdbvs	ip!, {r3, r4, r5, r6, r8, r9, sl, fp, sp}^
    1cd4:	2f697062 	svccs	0x00697062
    1cd8:	6c636e69 	stclvs	14, cr6, [r3], #-420	; 0xfffffe5c
    1cdc:	00656475 	rsbeq	r6, r5, r5, ror r4
    1ce0:	73756300 	cmnvc	r5, #0, 6
    1ce4:	2d6d6f74 	stclcs	15, cr6, [sp, #-464]!	; 0xfffffe30
    1ce8:	64616f6c 	strbtvs	r6, [r1], #-3948	; 0xfffff094
    1cec:	632e7265 			; <UNDEFINED> instruction: 0x632e7265
    1cf0:	00000100 	andeq	r0, r0, r0, lsl #2
    1cf4:	2e697072 	mcrcs	0, 3, r7, cr9, cr2, {3}
    1cf8:	00020068 	andeq	r0, r2, r8, rrx
    1cfc:	1a050000 	bne	141d04 <__bss_end__+0x13723c>
    1d00:	d8020500 	stmdale	r2, {r8, sl}
    1d04:	1500009b 	strne	r0, [r0, #-155]	; 0xffffff65
    1d08:	02140105 	andseq	r0, r4, #1073741825	; 0x40000001
    1d0c:	01010002 	tsteq	r1, r2
    1d10:	00000114 	andeq	r0, r0, r4, lsl r1
    1d14:	005e0003 	subseq	r0, lr, r3
    1d18:	01020000 	mrseq	r0, (UNDEF: 2)
    1d1c:	000d0efb 	strdeq	r0, [sp], -fp
    1d20:	01010101 	tsteq	r1, r1, lsl #2
    1d24:	01000000 	mrseq	r0, (UNDEF: 0)
    1d28:	2e010000 	cdpcs	0, 0, cr0, cr1, cr0, {0}
    1d2c:	6174732f 	cmnvs	r4, pc, lsr #6
    1d30:	732d6666 			; <UNDEFINED> instruction: 0x732d6666
    1d34:	2f006372 	svccs	0x00006372
    1d38:	72657355 	rsbvc	r7, r5, #1409286145	; 0x54000001
    1d3c:	696d2f73 	stmdbvs	sp!, {r0, r1, r4, r5, r6, r8, r9, sl, fp, sp}^
    1d40:	2f73656c 	svccs	0x0073656c
    1d44:	72756f53 	rsbsvc	r6, r5, #332	; 0x14c
    1d48:	632f6563 			; <UNDEFINED> instruction: 0x632f6563
    1d4c:	30343273 	eorscc	r3, r4, r3, ror r2
    1d50:	6c2f786c 	stcvs	8, cr7, [pc], #-432	; 1ba8 <__code_start__-0x6458>
    1d54:	69706269 	ldmdbvs	r0!, {r0, r3, r5, r6, r9, sp, lr}^
    1d58:	636e692f 	cmnvs	lr, #770048	; 0xbc000
    1d5c:	6564756c 	strbvs	r7, [r4, #-1388]!	; 0xfffffa94
    1d60:	65720000 	ldrbvs	r0, [r2, #-0]!
    1d64:	746f6f62 	strbtvc	r6, [pc], #-3938	; 1d6c <__code_start__-0x6294>
    1d68:	0100632e 	tsteq	r0, lr, lsr #6
    1d6c:	70720000 	rsbsvc	r0, r2, r0
    1d70:	00682e69 	rsbeq	r2, r8, r9, ror #28
    1d74:	00000002 	andeq	r0, r0, r2
    1d78:	05001905 	streq	r1, [r0, #-2309]	; 0xfffff6fb
    1d7c:	009bf402 	addseq	pc, fp, r2, lsl #8
    1d80:	010d0300 	mrseq	r0, SP_mon
    1d84:	13130505 	tstne	r3, #20971520	; 0x1400000
    1d88:	06130531 			; <UNDEFINED> instruction: 0x06130531
    1d8c:	2f010501 	svccs	0x00010501
    1d90:	85061b05 	strhi	r1, [r6, #-2821]	; 0xfffff4fb
    1d94:	14130505 	ldrne	r0, [r3], #-1285	; 0xfffffafb
    1d98:	052f0905 	streq	r0, [pc, #-2309]!	; 149b <__code_start__-0x6b65>
    1d9c:	05010616 	streq	r0, [r1, #-1558]	; 0xfffff9ea
    1da0:	052f0605 	streq	r0, [pc, #-1541]!	; 17a3 <__code_start__-0x685d>
    1da4:	0511060e 	ldreq	r0, [r1, #-1550]	; 0xfffff9f2
    1da8:	01052f05 	tsteq	r5, r5, lsl #30
    1dac:	0617052f 	ldreq	r0, [r7], -pc, lsr #10
    1db0:	13050530 	movwne	r0, #21808	; 0x5530
    1db4:	13016e03 	movwne	r6, #7683	; 0x1e03
    1db8:	06170513 			; <UNDEFINED> instruction: 0x06170513
    1dbc:	05010f03 	streq	r0, [r1, #-3843]	; 0xfffff0fd
    1dc0:	2e710305 	cdpcs	3, 7, cr0, cr1, cr5, {0}
    1dc4:	13053106 	movwne	r3, #20742	; 0x5106
    1dc8:	07050106 	streq	r0, [r5, -r6, lsl #2]
    1dcc:	052e0d03 	streq	r0, [lr, #-3331]!	; 0xfffff2fd
    1dd0:	054b0609 	strbeq	r0, [fp, #-1545]	; 0xfffff9f7
    1dd4:	01760306 	cmneq	r6, r6, lsl #6
    1dd8:	14130505 	ldrne	r0, [r3], #-1285	; 0xfffffafb
    1ddc:	052f0905 	streq	r0, [pc, #-2309]!	; 14df <__code_start__-0x6b21>
    1de0:	05010616 	streq	r0, [r1, #-1558]	; 0xfffff9ea
    1de4:	052f0605 	streq	r0, [pc, #-1541]!	; 17e7 <__code_start__-0x6819>
    1de8:	0511060e 	ldreq	r0, [r1, #-1550]	; 0xfffff9f2
    1dec:	062e2f05 	strteq	r2, [lr], -r5, lsl #30
    1df0:	30010a03 	andcc	r0, r1, r3, lsl #20
    1df4:	13134d2f 	tstne	r3, #3008	; 0xbc0
    1df8:	00671513 	rsbeq	r1, r7, r3, lsl r5
    1dfc:	67010402 	strvs	r0, [r1, -r2, lsl #8]
    1e00:	02000d05 	andeq	r0, r0, #320	; 0x140
    1e04:	05010104 	streq	r0, [r1, #-260]	; 0xfffffefc
    1e08:	0402000a 	streq	r0, [r2], #-10
    1e0c:	05050101 	streq	r0, [r5, #-257]	; 0xfffffeff
    1e10:	01040200 	mrseq	r0, R12_usr
    1e14:	000d0501 	andeq	r0, sp, r1, lsl #10
    1e18:	01010402 	tsteq	r1, r2, lsl #8
    1e1c:	02000a05 	andeq	r0, r0, #20480	; 0x5000
    1e20:	02010104 	andeq	r0, r1, #1
    1e24:	0101000a 	tsteq	r1, sl
    1e28:	000001fa 	strdeq	r0, [r0], -sl
    1e2c:	005d0003 	subseq	r0, sp, r3
    1e30:	01020000 	mrseq	r0, (UNDEF: 2)
    1e34:	000d0efb 	strdeq	r0, [sp], -fp
    1e38:	01010101 	tsteq	r1, r1, lsl #2
    1e3c:	01000000 	mrseq	r0, (UNDEF: 0)
    1e40:	2e010000 	cdpcs	0, 0, cr0, cr1, cr0, {0}
    1e44:	6174732f 	cmnvs	r4, pc, lsr #6
    1e48:	732d6666 			; <UNDEFINED> instruction: 0x732d6666
    1e4c:	2f006372 	svccs	0x00006372
    1e50:	72657355 	rsbvc	r7, r5, #1409286145	; 0x54000001
    1e54:	696d2f73 	stmdbvs	sp!, {r0, r1, r4, r5, r6, r8, r9, sl, fp, sp}^
    1e58:	2f73656c 	svccs	0x0073656c
    1e5c:	72756f53 	rsbsvc	r6, r5, #332	; 0x14c
    1e60:	632f6563 			; <UNDEFINED> instruction: 0x632f6563
    1e64:	30343273 	eorscc	r3, r4, r3, ror r2
    1e68:	6c2f786c 	stcvs	8, cr7, [pc], #-432	; 1cc0 <__code_start__-0x6340>
    1e6c:	69706269 	ldmdbvs	r0!, {r0, r3, r5, r6, r9, sp, lr}^
    1e70:	636e692f 	cmnvs	lr, #770048	; 0xbc000
    1e74:	6564756c 	strbvs	r7, [r4, #-1388]!	; 0xfffffa94
    1e78:	69740000 	ldmdbvs	r4!, {}^	; <UNPREDICTABLE>
    1e7c:	2e72656d 	cdpcs	5, 7, cr6, cr2, cr13, {3}
    1e80:	00010063 	andeq	r0, r1, r3, rrx
    1e84:	69707200 	ldmdbvs	r0!, {r9, ip, sp, lr}^
    1e88:	0200682e 	andeq	r6, r0, #3014656	; 0x2e0000
    1e8c:	05000000 	streq	r0, [r0, #-0]
    1e90:	02050023 	andeq	r0, r5, #35, 0	; 0x23
    1e94:	00009c80 	andeq	r9, r0, r0, lsl #25
    1e98:	13050515 	movwne	r0, #21781	; 0x5515
    1e9c:	01060c05 	tsteq	r6, r5, lsl #24
    1ea0:	6a061f05 	bvs	189abc <__bss_end__+0x17eff4>
    1ea4:	05150505 	ldreq	r0, [r5, #-1285]	; 0xfffffafb
    1ea8:	050f061f 	streq	r0, [pc, #-1567]	; 1891 <__code_start__-0x676f>
    1eac:	2f063105 	svccs	0x00063105
    1eb0:	77030a05 	strvc	r0, [r3, -r5, lsl #20]
    1eb4:	13050501 	movwne	r0, #21761	; 0x5501
    1eb8:	01060c05 	tsteq	r6, r5, lsl #24
    1ebc:	06050566 	streq	r0, [r5], -r6, ror #10
    1ec0:	2f010903 	svccs	0x00010903
    1ec4:	13060105 	movwne	r0, #24837	; 0x6105
    1ec8:	68061c05 	stmdavs	r6, {r0, r2, sl, fp, ip}
    1ecc:	05130505 	ldreq	r0, [r3, #-1285]	; 0xfffffafb
    1ed0:	0176030a 	cmneq	r6, sl, lsl #6
    1ed4:	05150505 	ldreq	r0, [r5, #-1285]	; 0xfffffafb
    1ed8:	2e18061c 	mrccs	6, 0, r0, cr8, cr12, {0}
    1edc:	7a030505 	bvc	c32f8 <__bss_end__+0xb8830>
    1ee0:	052f062e 	streq	r0, [pc, #-1582]!	; 18ba <__code_start__-0x6746>
    1ee4:	0177030a 	cmneq	r7, sl, lsl #6
    1ee8:	05130505 	ldreq	r0, [r3, #-1285]	; 0xfffffafb
    1eec:	6601060c 	strvs	r0, [r1], -ip, lsl #12
    1ef0:	03060505 	movweq	r0, #25861	; 0x6505
    1ef4:	062f0109 	strteq	r0, [pc], -r9, lsl #2
    1ef8:	030c0501 	movweq	r0, #50433	; 0xc501
    1efc:	05050176 	streq	r0, [r5, #-374]	; 0xfffffe8a
    1f00:	2e0f0306 	cdpcs	3, 0, cr0, cr15, cr6, {0}
    1f04:	05130905 	ldreq	r0, [r3, #-2309]	; 0xfffff6fb
    1f08:	0174030a 	cmneq	r4, sl, lsl #6
    1f0c:	2f150505 	svccs	0x00150505
    1f10:	77030a05 	strvc	r0, [r3, -r5, lsl #20]
    1f14:	13050501 	movwne	r0, #21761	; 0x5501
    1f18:	01060c05 	tsteq	r6, r5, lsl #24
    1f1c:	06050566 	streq	r0, [r5], -r6, ror #10
    1f20:	05010903 	streq	r0, [r1, #-2307]	; 0xfffff6fd
    1f24:	051a0611 	ldreq	r0, [sl, #-1553]	; 0xfffff9ef
    1f28:	2e780305 	cdpcs	3, 7, cr0, cr8, cr5, {0}
    1f2c:	09052f06 	stmdbeq	r5, {r1, r2, r8, r9, sl, fp, sp}
    1f30:	060c0519 			; <UNDEFINED> instruction: 0x060c0519
    1f34:	061c0501 	ldreq	r0, [ip], -r1, lsl #10
    1f38:	13050587 	movwne	r0, #21895	; 0x5587
    1f3c:	11061c05 	tstne	r6, r5, lsl #24
    1f40:	4a2f0505 	bmi	bc335c <__bss_end__+0xbb8894>
    1f44:	03060605 	movweq	r0, #26117	; 0x6605
    1f48:	05052e76 	streq	r2, [r5, #-3702]	; 0xfffff18a
    1f4c:	030a0513 	movweq	r0, #42259	; 0xa513
    1f50:	05050176 	streq	r0, [r5, #-374]	; 0xfffffe8a
    1f54:	0a052f15 	beq	14dbb0 <__bss_end__+0x1430e8>
    1f58:	05017703 	streq	r7, [r1, #-1795]	; 0xfffff8fd
    1f5c:	0c051305 	stceq	3, cr1, [r5], {5}
    1f60:	05660106 	strbeq	r0, [r6, #-262]!	; 0xfffffefa
    1f64:	09030605 	stmdbeq	r3, {r0, r2, r9, sl}
    1f68:	01062f01 	tsteq	r6, r1, lsl #30
    1f6c:	76030c05 	strvc	r0, [r3], -r5, lsl #24
    1f70:	06050501 	streq	r0, [r5], -r1, lsl #10
    1f74:	052e0f03 	streq	r0, [lr, #-3843]!	; 0xfffff0fd
    1f78:	0a051309 	beq	146ba4 <__bss_end__+0x13c0dc>
    1f7c:	05017403 	streq	r7, [r1, #-1027]	; 0xfffffbfd
    1f80:	052f1505 	streq	r1, [pc, #-1285]!	; 1a83 <__code_start__-0x657d>
    1f84:	0177030a 	cmneq	r7, sl, lsl #6
    1f88:	05130505 	ldreq	r0, [r3, #-1285]	; 0xfffffafb
    1f8c:	6601060c 	strvs	r0, [r1], -ip, lsl #12
    1f90:	03060505 	movweq	r0, #25861	; 0x6505
    1f94:	11050109 	tstne	r5, r9, lsl #2
    1f98:	05051a06 	streq	r1, [r5, #-2566]	; 0xfffff5fa
    1f9c:	062e7803 	strteq	r7, [lr], -r3, lsl #16
    1fa0:	1909052f 	stmdbne	r9, {r0, r1, r2, r3, r5, r8, sl}
    1fa4:	01060c05 	tsteq	r6, r5, lsl #24
    1fa8:	8a061e05 	bhi	1897c4 <__bss_end__+0x17ecfc>
    1fac:	05130505 	ldreq	r0, [r3, #-1285]	; 0xfffffafb
    1fb0:	05050e06 	streq	r0, [r5, #-3590]	; 0xfffff1fa
    1fb4:	061e0513 			; <UNDEFINED> instruction: 0x061e0513
    1fb8:	2c050514 	cfstr32cs	mvfx0, [r5], {20}
    1fbc:	06060566 	streq	r0, [r6], -r6, ror #10
    1fc0:	052e7603 	streq	r7, [lr, #-1539]!	; 0xfffff9fd
    1fc4:	0a051305 	beq	146be0 <__bss_end__+0x13c118>
    1fc8:	05017603 	streq	r7, [r1, #-1539]	; 0xfffff9fd
    1fcc:	052f1505 	streq	r1, [pc, #-1285]!	; 1acf <__code_start__-0x6531>
    1fd0:	0177030a 	cmneq	r7, sl, lsl #6
    1fd4:	05130505 	ldreq	r0, [r3, #-1285]	; 0xfffffafb
    1fd8:	6601060c 	strvs	r0, [r1], -ip, lsl #12
    1fdc:	03060505 	movweq	r0, #25861	; 0x6505
    1fe0:	062f0109 	strteq	r0, [pc], -r9, lsl #2
    1fe4:	030c0501 	movweq	r0, #50433	; 0xc501
    1fe8:	05050176 	streq	r0, [r5, #-374]	; 0xfffffe8a
    1fec:	2e0f0306 	cdpcs	3, 0, cr0, cr15, cr6, {0}
    1ff0:	05130905 	ldreq	r0, [r3, #-2309]	; 0xfffff6fb
    1ff4:	0174030a 	cmneq	r4, sl, lsl #6
    1ff8:	2f150505 	svccs	0x00150505
    1ffc:	77030a05 	strvc	r0, [r3, -r5, lsl #20]
    2000:	13050501 	movwne	r0, #21761	; 0x5501
    2004:	01060c05 	tsteq	r6, r5, lsl #24
    2008:	06050566 	streq	r0, [r5], -r6, ror #10
    200c:	05010903 	streq	r0, [r1, #-2307]	; 0xfffff6fd
    2010:	051a0611 	ldreq	r0, [sl, #-1553]	; 0xfffff9ef
    2014:	2e780305 	cdpcs	3, 7, cr0, cr8, cr5, {0}
    2018:	09052f06 	stmdbeq	r5, {r1, r2, r8, r9, sl, fp, sp}
    201c:	060c0519 			; <UNDEFINED> instruction: 0x060c0519
    2020:	00080201 	andeq	r0, r8, r1, lsl #4
    2024:	02050101 	andeq	r0, r5, #1073741824	; 0x40000000
    2028:	00030000 	andeq	r0, r3, r0
    202c:	000000c9 	andeq	r0, r0, r9, asr #1
    2030:	0efb0102 	cdpeq	1, 15, cr0, cr11, cr2, {0}
    2034:	0101000d 	tsteq	r1, sp
    2038:	00000101 	andeq	r0, r0, r1, lsl #2
    203c:	00000100 	andeq	r0, r0, r0, lsl #2
    2040:	6f682f01 	svcvs	0x00682f01
    2044:	652f656d 	strvs	r6, [pc, #-1389]!	; 1adf <__code_start__-0x6521>
    2048:	656c676e 	strbvs	r6, [ip, #-1902]!	; 0xfffff892
    204c:	6c632f72 	stclvs	15, cr2, [r3], #-456	; 0xfffffe38
    2050:	2f737361 	svccs	0x00737361
    2054:	34327363 	ldrtcc	r7, [r2], #-867	; 0xfffffc9d
    2058:	2d786c30 	ldclcs	12, cr6, [r8, #-192]!	; 0xffffff40
    205c:	70733232 	rsbsvc	r3, r3, r2, lsr r2
    2060:	6c2f2f72 	stcvs	15, cr2, [pc], #-456	; 1ea0 <__code_start__-0x6160>
    2064:	69706269 	ldmdbvs	r0!, {r0, r3, r5, r6, r9, sp, lr}^
    2068:	636e692f 	cmnvs	lr, #770048	; 0xbc000
    206c:	6564756c 	strbvs	r7, [r4, #-1388]!	; 0xfffffa94
    2070:	73752f00 	cmnvc	r5, #0, 30
    2074:	68732f72 	ldmdavs	r3!, {r1, r4, r5, r6, r8, r9, sl, fp, sp}^
    2078:	2f657261 	svccs	0x00657261
    207c:	2d636367 	stclcs	3, cr6, [r3, #-412]!	; 0xfffffe64
    2080:	2d6d7261 	sfmcs	f7, 2, [sp, #-388]!	; 0xfffffe7c
    2084:	656e6f6e 	strbvs	r6, [lr, #-3950]!	; 0xfffff092
    2088:	6261652d 	rsbvs	r6, r1, #188743680	; 0xb400000
    208c:	30312d69 	eorscc	r2, r1, r9, ror #26
    2090:	322d332e 	eorcc	r3, sp, #-1207959552	; 0xb8000000
    2094:	2e313230 	mrccs	2, 1, r3, cr1, cr0, {1}
    2098:	6c2f3031 	stcvs	0, cr3, [pc], #-196	; 1fdc <__code_start__-0x6024>
    209c:	672f6269 	strvs	r6, [pc, -r9, ror #4]!
    20a0:	612f6363 			; <UNDEFINED> instruction: 0x612f6363
    20a4:	6e2d6d72 	mcrvs	13, 1, r6, cr13, cr2, {3}
    20a8:	2d656e6f 	stclcs	14, cr6, [r5, #-444]!	; 0xfffffe44
    20ac:	69626165 	stmdbvs	r2!, {r0, r2, r5, r6, r8, sp, lr}^
    20b0:	2e30312f 	rsfcssp	f3, f0, #10.0
    20b4:	2f312e33 	svccs	0x00312e33
    20b8:	6c636e69 	stclvs	14, cr6, [r3], #-420	; 0xfffffe5c
    20bc:	00656475 	rsbeq	r6, r5, r5, ror r4
    20c0:	72617500 	rsbvc	r7, r1, #0, 10
    20c4:	00632e74 	rsbeq	r2, r3, r4, ror lr
    20c8:	75000000 	strvc	r0, [r0, #-0]
    20cc:	2e747261 	cdpcs	2, 7, cr7, cr4, cr1, {3}
    20d0:	00010068 	andeq	r0, r1, r8, rrx
    20d4:	69707200 	ldmdbvs	r0!, {r9, ip, sp, lr}^
    20d8:	0100682e 	tsteq	r0, lr, lsr #16
    20dc:	70670000 	rsbvc	r0, r7, r0
    20e0:	682e6f69 	stmdavs	lr!, {r0, r3, r5, r6, r8, r9, sl, fp, sp, lr}
    20e4:	00000100 	andeq	r0, r0, r0, lsl #2
    20e8:	69647473 	stmdbvs	r4!, {r0, r1, r4, r5, r6, sl, ip, sp, lr}^
    20ec:	672d746e 	strvs	r7, [sp, -lr, ror #8]!
    20f0:	682e6363 	stmdavs	lr!, {r0, r1, r5, r6, r8, r9, sp, lr}
    20f4:	00000200 	andeq	r0, r0, r0, lsl #4
    20f8:	00390500 	eorseq	r0, r9, r0, lsl #10
    20fc:	9d9c0205 	lfmls	f0, 4, [ip, #20]
    2100:	30030000 	andcc	r0, r3, r0
    2104:	05010601 	streq	r0, [r1, #-1537]	; 0xfffff9ff
    2108:	05670605 	strbeq	r0, [r7, #-1541]!	; 0xfffff9fb
    210c:	05010611 	streq	r0, [r1, #-1553]	; 0xfffff9ef
    2110:	01052e05 	tsteq	r5, r5, lsl #28
    2114:	06380567 	ldrteq	r0, [r8], -r7, ror #10
    2118:	05010629 	streq	r0, [r1, #-1577]	; 0xfffff9d7
    211c:	05670605 	strbeq	r0, [r7, #-1541]!	; 0xfffff9fb
    2120:	05010611 	streq	r0, [r1, #-1553]	; 0xfffff9ef
    2124:	01052e05 	tsteq	r5, r5, lsl #28
    2128:	06160567 	ldreq	r0, [r6], -r7, ror #10
    212c:	052e1503 	streq	r1, [lr, #-1283]!	; 0xfffffafd
    2130:	68673505 	stmdavs	r7!, {r0, r2, r8, sl, ip, sp}^
    2134:	0c036835 	stceq	8, cr6, [r3], {53}	; 0x35
    2138:	696b852e 	stmdbvs	fp!, {r1, r2, r3, r5, r8, sl, pc}^
    213c:	660c0369 	strvs	r0, [ip], -r9, ror #6
    2140:	05676b13 	strbeq	r6, [r7, #-2835]!	; 0xfffff4ed
    2144:	052f0601 	streq	r0, [pc, #-1537]!	; 1b4b <__code_start__-0x64b5>
    2148:	25080619 	strcs	r0, [r8, #-1561]	; 0xfffff9e7
    214c:	05340505 	ldreq	r0, [r4, #-1285]!	; 0xfffffafb
    2150:	0501060d 	streq	r0, [r1, #-1549]	; 0xfffff9f3
    2154:	19054c01 	stmdbne	r5, {r0, sl, fp, lr}
    2158:	05056706 	streq	r6, [r5, #-1798]	; 0xfffff8fa
    215c:	060d0536 			; <UNDEFINED> instruction: 0x060d0536
    2160:	4a280501 	bmi	a0356c <__bss_end__+0x9f8aa4>
    2164:	05300105 	ldreq	r0, [r0, #-261]!	; 0xfffffefb
    2168:	05870615 	streq	r0, [r7, #1557]	; 0x615
    216c:	052f2f05 	streq	r2, [pc, #-3845]!	; 126f <__code_start__-0x6d91>
    2170:	04020009 	streq	r0, [r2], #-9
    2174:	0a051301 	beq	146d80 <__bss_end__+0x13c2b8>
    2178:	01040200 	mrseq	r0, R12_usr
    217c:	000c0511 	andeq	r0, ip, r1, lsl r5
    2180:	06010402 	streq	r0, [r1], -r2, lsl #8
    2184:	000a0501 	andeq	r0, sl, r1, lsl #10
    2188:	2e010402 	cdpcs	4, 0, cr0, cr1, cr2, {0}
    218c:	4c060505 	cfstr32mi	mvfx0, [r6], {5}
    2190:	01060e05 	tsteq	r6, r5, lsl #28
    2194:	054a0905 	strbeq	r0, [sl, #-2309]	; 0xfffff6fb
    2198:	2f2f0605 	svccs	0x002f0605
    219c:	13060105 	movwne	r0, #24837	; 0x6105
    21a0:	67061c05 	strvs	r1, [r6, -r5, lsl #24]
    21a4:	05050106 	streq	r0, [r5, #-262]	; 0xfffffefa
    21a8:	052f4b06 	streq	r4, [pc, #-2822]!	; 16aa <__code_start__-0x6956>
    21ac:	04020009 	streq	r0, [r2], #-9
    21b0:	0a051301 	beq	146dbc <__bss_end__+0x13c2f4>
    21b4:	01040200 	mrseq	r0, R12_usr
    21b8:	000c0511 	andeq	r0, ip, r1, lsl r5
    21bc:	06010402 	streq	r0, [r1], -r2, lsl #8
    21c0:	000a0501 	andeq	r0, sl, r1, lsl #10
    21c4:	2e010402 	cdpcs	4, 0, cr0, cr1, cr2, {0}
    21c8:	4c060505 	cfstr32mi	mvfx0, [r6], {5}
    21cc:	06010567 	streq	r0, [r1], -r7, ror #10
    21d0:	0619052f 	ldreq	r0, [r9], -pc, lsr #10
    21d4:	2e1b054c 	cfmac32cs	mvfx0, mvfx11, mvfx12
    21d8:	052e2a05 	streq	r2, [lr, #-2565]!	; 0xfffff5fb
    21dc:	05010631 	streq	r0, [r1, #-1585]	; 0xfffff9cf
    21e0:	1c052e42 	stcne	14, cr2, [r5], {66}	; 0x42
    21e4:	05053106 	streq	r3, [r5, #-262]	; 0xfffffefa
    21e8:	2e09032f 	cdpcs	3, 0, cr0, cr9, cr15, {1}
    21ec:	01060e05 	tsteq	r6, r5, lsl #28
    21f0:	054a2105 	strbeq	r2, [sl, #-261]	; 0xfffffefb
    21f4:	2e0a0301 	cdpcs	3, 0, cr0, cr10, cr1, {0}
    21f8:	68061a05 	stmdavs	r6, {r0, r2, r9, fp, ip}
    21fc:	02000905 	andeq	r0, r0, #81920	; 0x14000
    2200:	05300104 	ldreq	r0, [r0, #-260]!	; 0xfffffefc
    2204:	0402000a 	streq	r0, [r2], #-10
    2208:	0c051101 	stfeqs	f1, [r5], {1}
    220c:	01040200 	mrseq	r0, R12_usr
    2210:	0a050106 	beq	142630 <__bss_end__+0x137b68>
    2214:	01040200 	mrseq	r0, R12_usr
    2218:	0619052e 	ldreq	r0, [r9], -lr, lsr #10
    221c:	667ee803 	ldrbtvs	lr, [lr], -r3, lsl #16
    2220:	2f2f0505 	svccs	0x002f0505
    2224:	0105672f 	tsteq	r5, pc, lsr #14
    2228:	04022f06 	streq	r2, [r2], #-3846	; 0xfffff0fa
    222c:	9e010100 	adflss	f0, f1, f0
    2230:	03000000 	movweq	r0, #0
    2234:	00005a00 	andeq	r5, r0, r0, lsl #20
    2238:	fb010200 	blx	42a42 <__bss_end__+0x37f7a>
    223c:	01000d0e 	tsteq	r0, lr, lsl #26
    2240:	00010101 	andeq	r0, r1, r1, lsl #2
    2244:	00010000 	andeq	r0, r1, r0
    2248:	2f2e0100 	svccs	0x002e0100
    224c:	6362696c 	cmnvs	r2, #108, 18	; 0x1b0000
    2250:	73552f00 	cmpvc	r5, #0, 30
    2254:	2f737265 	svccs	0x00737265
    2258:	656c696d 	strbvs	r6, [ip, #-2413]!	; 0xfffff693
    225c:	6f532f73 	svcvs	0x00532f73
    2260:	65637275 	strbvs	r7, [r3, #-629]!	; 0xfffffd8b
    2264:	3273632f 	rsbscc	r6, r3, #-1140850688	; 0xbc000000
    2268:	786c3034 	stmdavc	ip!, {r2, r4, r5, ip, sp}^
    226c:	62696c2f 	rsbvs	r6, r9, #12032	; 0x2f00
    2270:	692f6970 	stmdbvs	pc!, {r4, r5, r6, r8, fp, sp, lr}	; <UNPREDICTABLE>
    2274:	756c636e 	strbvc	r6, [ip, #-878]!	; 0xfffffc92
    2278:	00006564 	andeq	r6, r0, r4, ror #10
    227c:	63747570 	cmnvs	r4, #112, 10	; 0x1c000000
    2280:	2e726168 	rpwcssz	f6, f2, #0.0
    2284:	00010063 	andeq	r0, r1, r3, rrx
    2288:	69707200 	ldmdbvs	r0!, {r9, ip, sp, lr}^
    228c:	0200682e 	andeq	r6, r0, #3014656	; 0x2e0000
    2290:	05000000 	streq	r0, [r0, #-0]
    2294:	02050024 	andeq	r0, r5, #36, 0	; 0x24
    2298:	00009f8c 	andeq	r9, r0, ip, lsl #31
    229c:	01260514 			; <UNDEFINED> instruction: 0x01260514
    22a0:	01062405 	tsteq	r6, r5, lsl #8
    22a4:	2e26052e 	cfsh64cs	mvdx0, mvdx6, #30
    22a8:	2e063405 	cdpcs	4, 0, cr3, cr6, cr5, {0}
    22ac:	01060105 	tsteq	r6, r5, lsl #2
    22b0:	4f061b05 	svcmi	0x00061b05
    22b4:	05130505 	ldreq	r0, [r3, #-1285]	; 0xfffffafb
    22b8:	05010611 	streq	r0, [r1, #-1553]	; 0xfffff9ef
    22bc:	23056701 	movwcs	r6, #22273	; 0x5701
    22c0:	05056706 	streq	r6, [r5, #-1798]	; 0xfffff8fa
    22c4:	06110513 			; <UNDEFINED> instruction: 0x06110513
    22c8:	4b010501 	blmi	436d4 <__bss_end__+0x38c0c>
    22cc:	01000402 	tsteq	r0, r2, lsl #8
    22d0:	0000e201 	andeq	lr, r0, r1, lsl #4
    22d4:	59000300 	stmdbpl	r0, {r8, r9}
    22d8:	02000000 	andeq	r0, r0, #0, 0
    22dc:	0d0efb01 	vstreq	d15, [lr, #-4]
    22e0:	01010100 	mrseq	r0, (UNDEF: 17)
    22e4:	00000001 	andeq	r0, r0, r1
    22e8:	01000001 	tsteq	r0, r1
    22ec:	696c2f2e 	stmdbvs	ip!, {r1, r2, r3, r5, r8, r9, sl, fp, sp}^
    22f0:	2f006362 	svccs	0x00006362
    22f4:	72657355 	rsbvc	r7, r5, #1409286145	; 0x54000001
    22f8:	696d2f73 	stmdbvs	sp!, {r0, r1, r4, r5, r6, r8, r9, sl, fp, sp}^
    22fc:	2f73656c 	svccs	0x0073656c
    2300:	72756f53 	rsbsvc	r6, r5, #332	; 0x14c
    2304:	632f6563 			; <UNDEFINED> instruction: 0x632f6563
    2308:	30343273 	eorscc	r3, r4, r3, ror r2
    230c:	6c2f786c 	stcvs	8, cr7, [pc], #-432	; 2164 <__code_start__-0x5e9c>
    2310:	69706269 	ldmdbvs	r0!, {r0, r3, r5, r6, r9, sp, lr}^
    2314:	636e692f 	cmnvs	lr, #770048	; 0xbc000
    2318:	6564756c 	strbvs	r7, [r4, #-1388]!	; 0xfffffa94
    231c:	74730000 	ldrbtvc	r0, [r3], #-0
    2320:	74616372 	strbtvc	r6, [r1], #-882	; 0xfffffc8e
    2324:	0100632e 	tsteq	r0, lr, lsr #6
    2328:	70720000 	rsbsvc	r0, r2, r0
    232c:	00682e69 	rsbeq	r2, r8, r9, ror #28
    2330:	00000002 	andeq	r0, r0, r2
    2334:	05002c05 	streq	r2, [r0, #-3077]	; 0xfffff3fb
    2338:	009fc802 	addseq	ip, pc, r2, lsl #16
    233c:	05051500 	streq	r1, [r5, #-1280]	; 0xfffffb00
    2340:	0b051313 	bleq	146f94 <__bss_end__+0x13c4cc>
    2344:	05051106 	streq	r1, [r5, #-262]	; 0xfffffefa
    2348:	01040200 	mrseq	r0, R12_usr
    234c:	02003006 	andeq	r3, r0, #6, 0
    2350:	05150104 	ldreq	r0, [r5, #-260]	; 0xfffffefc
    2354:	04020009 	streq	r0, [r2], #-9
    2358:	0b051301 	bleq	146f64 <__bss_end__+0x13c49c>
    235c:	01040200 	mrseq	r0, R12_usr
    2360:	0005052f 	andeq	r0, r5, pc, lsr #10
    2364:	06010402 	streq	r0, [r1], -r2, lsl #8
    2368:	04020001 	streq	r0, [r2], #-1
    236c:	4e062e01 	cdpmi	14, 0, cr2, cr6, cr1, {0}
    2370:	01060805 	tsteq	r6, r5, lsl #16
    2374:	02000505 	andeq	r0, r0, #20971520	; 0x1400000
    2378:	2f060104 	svccs	0x00060104
    237c:	02000905 	andeq	r0, r0, #81920	; 0x14000
    2380:	05130104 	ldreq	r0, [r3, #-260]	; 0xfffffefc
    2384:	0402000b 	streq	r0, [r2], #-11
    2388:	05010601 	streq	r0, [r1, #-1537]	; 0xfffff9ff
    238c:	04020009 	streq	r0, [r2], #-9
    2390:	052f0601 	streq	r0, [pc, #-1537]!	; 1d97 <__code_start__-0x6269>
    2394:	04020005 	streq	r0, [r2], #-5
    2398:	05130601 	ldreq	r0, [r3, #-1537]	; 0xfffff9ff
    239c:	0402000f 	streq	r0, [r2], #-15
    23a0:	0d052d01 	stceq	13, cr2, [r5, #-4]
    23a4:	01040200 	mrseq	r0, R12_usr
    23a8:	05052f06 	streq	r2, [r5, #-3846]	; 0xfffff0fa
    23ac:	01040200 	mrseq	r0, R12_usr
    23b0:	04020106 	streq	r0, [r2], #-262	; 0xfffffefa
    23b4:	b2010100 	andlt	r0, r1, #0
    23b8:	03000000 	movweq	r0, #0
    23bc:	00005900 	andeq	r5, r0, r0, lsl #18
    23c0:	fb010200 	blx	42bca <__bss_end__+0x38102>
    23c4:	01000d0e 	tsteq	r0, lr, lsl #26
    23c8:	00010101 	andeq	r0, r1, r1, lsl #2
    23cc:	00010000 	andeq	r0, r1, r0
    23d0:	2f2e0100 	svccs	0x002e0100
    23d4:	6362696c 	cmnvs	r2, #108, 18	; 0x1b0000
    23d8:	73552f00 	cmpvc	r5, #0, 30
    23dc:	2f737265 	svccs	0x00737265
    23e0:	656c696d 	strbvs	r6, [ip, #-2413]!	; 0xfffff693
    23e4:	6f532f73 	svcvs	0x00532f73
    23e8:	65637275 	strbvs	r7, [r3, #-629]!	; 0xfffffd8b
    23ec:	3273632f 	rsbscc	r6, r3, #-1140850688	; 0xbc000000
    23f0:	786c3034 	stmdavc	ip!, {r2, r4, r5, ip, sp}^
    23f4:	62696c2f 	rsbvs	r6, r9, #12032	; 0x2f00
    23f8:	692f6970 	stmdbvs	pc!, {r4, r5, r6, r8, fp, sp, lr}	; <UNPREDICTABLE>
    23fc:	756c636e 	strbvc	r6, [ip, #-878]!	; 0xfffffc92
    2400:	00006564 	andeq	r6, r0, r4, ror #10
    2404:	63727473 	cmnvs	r2, #1929379840	; 0x73000000
    2408:	632e706d 			; <UNDEFINED> instruction: 0x632e706d
    240c:	00000100 	andeq	r0, r0, r0, lsl #2
    2410:	2e697072 	mcrcs	0, 3, r7, cr9, cr2, {3}
    2414:	00020068 	andeq	r0, r2, r8, rrx
    2418:	2a050000 	bcs	142420 <__bss_end__+0x137958>
    241c:	f4020500 	vst3.8	{d0,d2,d4}, [r2], r0
    2420:	1400009f 	strne	r0, [r0], #-159	; 0xffffff61
    2424:	05130905 	ldreq	r0, [r3, #-2309]	; 0xfffff6fb
    2428:	05010610 	streq	r0, [r1, #-1552]	; 0xfffff9f0
    242c:	052e060f 	streq	r0, [lr, #-1551]!	; 0xfffff9f1
    2430:	05820610 	streq	r0, [r2, #1552]	; 0x610
    2434:	11052e0f 	tstne	r5, pc, lsl #28
    2438:	01040200 	mrseq	r0, R12_usr
    243c:	1c054b06 			; <UNDEFINED> instruction: 0x1c054b06
    2440:	01040200 	mrseq	r0, R12_usr
    2444:	0f052d06 	svceq	0x00052d06
    2448:	01040200 	mrseq	r0, R12_usr
    244c:	13052e06 	movwne	r2, #24070	; 0x5e06
    2450:	01040200 	mrseq	r0, R12_usr
    2454:	09050106 	stmdbeq	r5, {r1, r2, r8}
    2458:	01054c06 	tsteq	r5, r6, lsl #24
    245c:	054a1306 	strbeq	r1, [sl, #-774]	; 0xfffffcfa
    2460:	052d0609 	streq	r0, [sp, #-1545]!	; 0xfffff9f7
    2464:	2e130601 	cfmsub32cs	mvax0, mvfx0, mvfx3, mvfx1
    2468:	01000202 	tsteq	r0, r2, lsl #4
    246c:	00009d01 	andeq	r9, r0, r1, lsl #26
    2470:	59000300 	stmdbpl	r0, {r8, r9}
    2474:	02000000 	andeq	r0, r0, #0, 0
    2478:	0d0efb01 	vstreq	d15, [lr, #-4]
    247c:	01010100 	mrseq	r0, (UNDEF: 17)
    2480:	00000001 	andeq	r0, r0, r1
    2484:	01000001 	tsteq	r0, r1
    2488:	696c2f2e 	stmdbvs	ip!, {r1, r2, r3, r5, r8, r9, sl, fp, sp}^
    248c:	2f006362 	svccs	0x00006362
    2490:	72657355 	rsbvc	r7, r5, #1409286145	; 0x54000001
    2494:	696d2f73 	stmdbvs	sp!, {r0, r1, r4, r5, r6, r8, r9, sl, fp, sp}^
    2498:	2f73656c 	svccs	0x0073656c
    249c:	72756f53 	rsbsvc	r6, r5, #332	; 0x14c
    24a0:	632f6563 			; <UNDEFINED> instruction: 0x632f6563
    24a4:	30343273 	eorscc	r3, r4, r3, ror r2
    24a8:	6c2f786c 	stcvs	8, cr7, [pc], #-432	; 2300 <__code_start__-0x5d00>
    24ac:	69706269 	ldmdbvs	r0!, {r0, r3, r5, r6, r9, sp, lr}^
    24b0:	636e692f 	cmnvs	lr, #770048	; 0xbc000
    24b4:	6564756c 	strbvs	r7, [r4, #-1388]!	; 0xfffffa94
    24b8:	74730000 	ldrbtvc	r0, [r3], #-0
    24bc:	79706372 	ldmdbvc	r0!, {r1, r4, r5, r6, r8, r9, sp, lr}^
    24c0:	0100632e 	tsteq	r0, lr, lsr #6
    24c4:	70720000 	rsbsvc	r0, r2, r0
    24c8:	00682e69 	rsbeq	r2, r8, r9, ror #28
    24cc:	00000002 	andeq	r0, r0, r2
    24d0:	05002a05 	streq	r2, [r0, #-2565]	; 0xfffff5fb
    24d4:	00a03802 	adceq	r3, r0, r2, lsl #16
    24d8:	05051400 	streq	r1, [r5, #-1024]	; 0xfffffc00
    24dc:	22051313 	andcs	r1, r5, #1275068416	; 0x4c000000
    24e0:	01040200 	mrseq	r0, R12_usr
    24e4:	000b052e 	andeq	r0, fp, lr, lsr #10
    24e8:	01010402 	tsteq	r1, r2, lsl #8
    24ec:	02001505 	andeq	r1, r0, #20971520	; 0x1400000
    24f0:	01060104 	tsteq	r6, r4, lsl #2
    24f4:	02000b05 	andeq	r0, r0, #5120	; 0x1400
    24f8:	052e0104 	streq	r0, [lr, #-260]!	; 0xfffffefc
    24fc:	04020013 	streq	r0, [r2], #-19	; 0xffffffed
    2500:	0b052e01 	bleq	14dd0c <__bss_end__+0x143244>
    2504:	01040200 	mrseq	r0, R12_usr
    2508:	0004022e 	andeq	r0, r4, lr, lsr #4
    250c:	00fd0101 	rscseq	r0, sp, r1, lsl #2
    2510:	00030000 	andeq	r0, r3, r0
    2514:	000000bf 	strheq	r0, [r0], -pc	; <UNPREDICTABLE>
    2518:	0efb0102 	cdpeq	1, 15, cr0, cr11, cr2, {0}
    251c:	0101000d 	tsteq	r1, sp
    2520:	00000101 	andeq	r0, r0, r1, lsl #2
    2524:	00000100 	andeq	r0, r0, r0, lsl #2
    2528:	6c2f2e01 	stcvs	14, cr2, [pc], #-4	; 252c <__code_start__-0x5ad4>
    252c:	00636269 	rsbeq	r6, r3, r9, ror #4
    2530:	6573552f 	ldrbvs	r5, [r3, #-1327]!	; 0xfffffad1
    2534:	6d2f7372 	stcvs	3, cr7, [pc, #-456]!	; 2374 <__code_start__-0x5c8c>
    2538:	73656c69 	cmnvc	r5, #26880	; 0x6900
    253c:	756f532f 	strbvc	r5, [pc, #-815]!	; 2215 <__code_start__-0x5deb>
    2540:	2f656372 	svccs	0x00656372
    2544:	34327363 	ldrtcc	r7, [r2], #-867	; 0xfffffc9d
    2548:	2f786c30 	svccs	0x00786c30
    254c:	7062696c 	rsbvc	r6, r2, ip, ror #18
    2550:	6e692f69 	cdpvs	15, 6, cr2, cr9, cr9, {3}
    2554:	64756c63 	ldrbtvs	r6, [r5], #-3171	; 0xfffff39d
    2558:	6f2f0065 	svcvs	0x002f0065
    255c:	682f7470 	stmdavs	pc!, {r4, r5, r6, sl, ip, sp, lr}	; <UNPREDICTABLE>
    2560:	62656d6f 	rsbvs	r6, r5, #7104	; 0x1bc0
    2564:	2f776572 	svccs	0x00776572
    2568:	6c6c6543 	cfstr64vs	mvdx6, [ip], #-268	; 0xfffffef4
    256c:	612f7261 			; <UNDEFINED> instruction: 0x612f7261
    2570:	6e2d6d72 	mcrvs	13, 1, r6, cr13, cr2, {3}
    2574:	2d656e6f 	stclcs	14, cr6, [r5, #-444]!	; 0xfffffe44
    2578:	69626165 	stmdbvs	r2!, {r0, r2, r5, r6, r8, sp, lr}^
    257c:	392f392d 	stmdbcc	pc!, {r0, r2, r3, r5, r8, fp, ip, sp}	; <UNPREDICTABLE>
    2580:	3130322d 	teqcc	r0, sp, lsr #4
    2584:	2d347139 	ldfcss	f7, [r4, #-228]!	; 0xffffff1c
    2588:	30317363 	eorscc	r7, r1, r3, ror #6
    258c:	6c2f6537 	cfstr32vs	mvfx6, [pc], #-220	; 24b8 <__code_start__-0x5b48>
    2590:	672f6269 	strvs	r6, [pc, -r9, ror #4]!
    2594:	612f6363 			; <UNDEFINED> instruction: 0x612f6363
    2598:	6e2d6d72 	mcrvs	13, 1, r6, cr13, cr2, {3}
    259c:	2d656e6f 	stclcs	14, cr6, [r5, #-444]!	; 0xfffffe44
    25a0:	69626165 	stmdbvs	r2!, {r0, r2, r5, r6, r8, sp, lr}^
    25a4:	322e392f 	eorcc	r3, lr, #770048	; 0xbc000
    25a8:	692f312e 	stmdbvs	pc!, {r1, r2, r3, r5, r8, ip, sp}	; <UNPREDICTABLE>
    25ac:	756c636e 	strbvc	r6, [ip, #-878]!	; 0xfffffc92
    25b0:	00006564 	andeq	r6, r0, r4, ror #10
    25b4:	6e727473 	mrcvs	4, 3, r7, cr2, cr3, {3}
    25b8:	2e706d63 	cdpcs	13, 7, cr6, cr0, cr3, {3}
    25bc:	00010063 	andeq	r0, r1, r3, rrx
    25c0:	69707200 	ldmdbvs	r0!, {r9, ip, sp, lr}^
    25c4:	0200682e 	andeq	r6, r0, #3014656	; 0x2e0000
    25c8:	74730000 	ldrbtvc	r0, [r3], #-0
    25cc:	66656464 	strbtvs	r6, [r5], -r4, ror #8
    25d0:	0300682e 	movweq	r6, #2094	; 0x82e
    25d4:	05000000 	streq	r0, [r0, #-0]
    25d8:	02050039 	andeq	r0, r5, #57, 0	; 0x39
    25dc:	0000a050 	andeq	sl, r0, r0, asr r0
    25e0:	13050515 	movwne	r0, #21781	; 0x5515
    25e4:	060a0513 			; <UNDEFINED> instruction: 0x060a0513
    25e8:	2f0c052e 	svccs	0x000c052e
    25ec:	052e1305 	streq	r1, [lr, #-773]!	; 0xfffffcfb
    25f0:	09052e0b 	stmdbeq	r5, {r0, r1, r3, r9, sl, fp, sp}
    25f4:	0a054a06 	beq	154e14 <__bss_end__+0x14a34c>
    25f8:	05010611 	streq	r0, [r1, #-1553]	; 0xfffff9ef
    25fc:	01054e0c 	tsteq	r5, ip, lsl #28
    2600:	060d052f 	streq	r0, [sp], -pc, lsr #10
    2604:	061b052b 	ldreq	r0, [fp], -fp, lsr #10
    2608:	02022e01 	andeq	r2, r2, #1, 28
    260c:	8a010100 	bhi	42a14 <__bss_end__+0x37f4c>
    2610:	03000000 	movweq	r0, #0
    2614:	00006e00 	andeq	r6, r0, r0, lsl #28
    2618:	fb010200 	blx	42e22 <__bss_end__+0x3835a>
    261c:	01000d0e 	tsteq	r0, lr, lsl #26
    2620:	00010101 	andeq	r0, r1, r1, lsl #2
    2624:	00010000 	andeq	r0, r1, r0
    2628:	2f2e0100 	svccs	0x002e0100
    262c:	66617473 			; <UNDEFINED> instruction: 0x66617473
    2630:	72732d66 	rsbsvc	r2, r3, #6528	; 0x1980
    2634:	552f0063 	strpl	r0, [pc, #-99]!	; 25d9 <__code_start__-0x5a27>
    2638:	73726573 	cmnvc	r2, #482344960	; 0x1cc00000
    263c:	6c696d2f 	stclvs	13, cr6, [r9], #-188	; 0xffffff44
    2640:	532f7365 			; <UNDEFINED> instruction: 0x532f7365
    2644:	6372756f 	cmnvs	r2, #465567744	; 0x1bc00000
    2648:	73632f65 	cmnvc	r3, #404	; 0x194
    264c:	6c303432 	cfldrsvs	mvf3, [r0], #-200	; 0xffffff38
    2650:	696c2f78 	stmdbvs	ip!, {r3, r4, r5, r6, r8, r9, sl, fp, sp}^
    2654:	2f697062 	svccs	0x00697062
    2658:	6c636e69 	stclvs	14, cr6, [r3], #-420	; 0xfffffe5c
    265c:	00656475 	rsbeq	r6, r5, r5, ror r4
    2660:	66656400 	strbtvs	r6, [r5], -r0, lsl #8
    2664:	746c7561 	strbtvc	r7, [ip], #-1377	; 0xfffffa9f
    2668:	6265722d 	rsbvs	r7, r5, #-805306366	; 0xd0000002
    266c:	2d746f6f 	ldclcs	15, cr6, [r4, #-444]!	; 0xfffffe44
    2670:	6c6c6163 	stfvse	f6, [ip], #-396	; 0xfffffe74
    2674:	2e74756f 	cdpcs	5, 7, cr7, cr4, cr15, {3}
    2678:	00010063 	andeq	r0, r1, r3, rrx
    267c:	69707200 	ldmdbvs	r0!, {r9, ip, sp, lr}^
    2680:	0200682e 	andeq	r6, r0, #3014656	; 0x2e0000
    2684:	05000000 	streq	r0, [r0, #-0]
    2688:	0205001b 	andeq	r0, r5, #27, 0
    268c:	0000a080 	andeq	sl, r0, r0, lsl #1
    2690:	011c0514 	tsteq	ip, r4, lsl r5
    2694:	01060105 	tsteq	r6, r5, lsl #2
    2698:	01000202 	tsteq	r0, r2, lsl #4
    269c:	Address 0x000000000000269c is out of bounds.


Disassembly of section .debug_str:

00000000 <.debug_str>:
   0:	5f633269 	svcpl	0x00633269
   4:	74696e69 	strbtvc	r6, [r9], #-3689	; 0xfffff197
   8:	63636100 	cmnvs	r3, #0
   c:	632e6c65 			; <UNDEFINED> instruction: 0x632e6c65
  10:	6f687300 	svcvs	0x00687300
  14:	69207472 	stmdbvs	r0!, {r1, r4, r5, r6, sl, ip, sp, lr}
  18:	6900746e 	stmdbvs	r0, {r1, r2, r3, r5, r6, sl, ip, sp, lr}
  1c:	775f6332 	smmlarvc	pc, r2, r3, r6	; <UNPREDICTABLE>
  20:	65746972 	ldrbvs	r6, [r4, #-2418]!	; 0xfffff68e
  24:	63636100 	cmnvs	r3, #0
  28:	675f6c65 	ldrbvs	r6, [pc, -r5, ror #24]
  2c:	43434100 	movtmi	r4, #12544	; 0x3100
  30:	5a5f4c45 	bpl	17d314c <__bss_end__+0x17c8684>
  34:	5f54554f 	svcpl	0x0054554f
  38:	5f610048 	svcpl	0x00610048
  3c:	66706c64 	ldrbtvs	r6, [r0], -r4, ror #24
  40:	6766635f 			; <UNDEFINED> instruction: 0x6766635f
  44:	66666f5f 	uqsaxvs	r6, r6, pc	; <UNPREDICTABLE>
  48:	69707200 	ldmdbvs	r0!, {r9, ip, sp, lr}^
  4c:	7475705f 	ldrbtvc	r7, [r5], #-95	; 0xffffffa1
  50:	72616863 	rsbvc	r6, r1, #6488064	; 0x630000
  54:	73657400 	cmnvc	r5, #0, 8
  58:	676d5f74 			; <UNDEFINED> instruction: 0x676d5f74
  5c:	43434100 	movtmi	r4, #12544	; 0x3100
  60:	5a5f4c45 	bpl	17d317c <__bss_end__+0x17c86b4>
  64:	5f54554f 	svcpl	0x0054554f
  68:	6d69004c 	stclvs	0, cr0, [r9, #-304]!	; 0xfffffed0
  6c:	64725f75 	ldrbtvs	r5, [r2], #-3957	; 0xfffff08b
  70:	61006e5f 	tstvs	r0, pc, asr lr
  74:	6c656363 	stclvs	3, cr6, [r5], #-396	; 0xfffffe74
  78:	6300745f 	movwvs	r7, #1119	; 0x45f
  7c:	69666e6f 	stmdbvs	r6!, {r0, r1, r2, r3, r5, r6, r9, sl, fp, sp, lr}^
  80:	63610067 	cmnvs	r1, #103, 0	; 0x67
  84:	5f6c6563 	svcpl	0x006c6563
  88:	666e6f63 	strbtvs	r6, [lr], -r3, ror #30
  8c:	725f6769 	subsvc	r6, pc, #27525120	; 0x1a40000
  90:	75006765 	strvc	r6, [r0, #-1893]	; 0xfffff89b
  94:	38746e69 	ldmdacc	r4!, {r0, r3, r5, r6, r9, sl, fp, sp, lr}^
  98:	6100745f 	tstvs	r0, pc, asr r4
  9c:	6c656363 	stclvs	3, cr6, [r5], #-396	; 0xfffffe74
  a0:	6163735f 	cmnvs	r3, pc, asr r3
  a4:	6d00656c 	cfstr32vs	mvfx6, [r0, #-432]	; 0xfffffe50
  a8:	35367570 	ldrcc	r7, [r6, #-1392]!	; 0xfffffa90
  ac:	615f3030 	cmpvs	pc, r0, lsr r0	; <UNPREDICTABLE>
  b0:	6c656363 	stclvs	3, cr6, [r5], #-396	; 0xfffffe74
  b4:	696e695f 	stmdbvs	lr!, {r0, r1, r2, r3, r4, r6, r8, fp, sp, lr}^
  b8:	63610074 	cmnvs	r1, #116, 0	; 0x74
  bc:	5f6c6563 	svcpl	0x006c6563
  c0:	57006734 	smladxpl	r0, r4, r7, r6
  c4:	415f4f48 	cmpmi	pc, r8, asr #30
  c8:	5f495f4d 	svcpl	0x00495f4d
  cc:	314c4156 	cmpcc	ip, r6, asr r1
  d0:	4f485700 	svcmi	0x00485700
  d4:	5f4d415f 	svcpl	0x004d415f
  d8:	41565f49 	cmpmi	r6, r9, asr #30
  dc:	6400324c 	strvs	r3, [r0], #-588	; 0xfffffdb4
  e0:	79616c65 	stmdbvc	r1!, {r0, r2, r5, r6, sl, fp, sp, lr}^
  e4:	00736d5f 	rsbseq	r6, r3, pc, asr sp
  e8:	5f756d69 	svcpl	0x00756d69
  ec:	62006472 	andvs	r6, r0, #1912602624	; 0x72000000
  f0:	5f737469 	svcpl	0x00737469
  f4:	00726c63 	rsbseq	r6, r2, r3, ror #24
  f8:	65636361 	strbvs	r6, [r3, #-865]!	; 0xfffffc9f
  fc:	67385f6c 	ldrvs	r5, [r8, -ip, ror #30]!
 100:	756d6900 	strbvc	r6, [sp, #-2304]!	; 0xfffff700
 104:	7a79785f 	bvc	1e5e288 <__bss_end__+0x1e537c0>
 108:	6c00745f 	cfstrsvs	mvf7, [r0], {95}	; 0x5f
 10c:	20676e6f 	rsbcs	r6, r7, pc, ror #28
 110:	676e6f6c 	strbvs	r6, [lr, -ip, ror #30]!
 114:	746e6920 	strbtvc	r6, [lr], #-2336	; 0xfffff6e0
 118:	4f485700 	svcmi	0x00485700
 11c:	5f4d415f 	svcpl	0x004d415f
 120:	45525f49 	ldrbmi	r5, [r2, #-3913]	; 0xfffff0b7
 124:	676d0047 	strbvs	r0, [sp, -r7, asr #32]!
 128:	6163735f 	cmnvs	r3, pc, asr r3
 12c:	5f00656c 	svcpl	0x0000656c
 130:	4e55465f 	mrcmi	6, 2, r4, cr5, cr15, {2}
 134:	4f495443 	svcmi	0x00495443
 138:	005f5f4e 	subseq	r5, pc, lr, asr #30
 13c:	65736162 	ldrbvs	r6, [r3, #-354]!	; 0xfffffe9e
 140:	6765725f 			; <UNDEFINED> instruction: 0x6765725f
 144:	63636100 	cmnvs	r3, #0
 148:	6f5f6c65 	svcvs	0x005f6c65
 14c:	75006666 	strvc	r6, [r0, #-1638]	; 0xfffff99a
 150:	6769736e 	strbvs	r7, [r9, -lr, ror #6]!
 154:	2064656e 	rsbcs	r6, r4, lr, ror #10
 158:	72616863 	rsbvc	r6, r1, #6488064	; 0x630000
 15c:	5f676d00 	svcpl	0x00676d00
 160:	00776172 	rsbseq	r6, r7, r2, ror r1
 164:	3675706d 	ldrbtcc	r7, [r5], -sp, rrx
 168:	5f303035 	svcpl	0x00303035
 16c:	65736572 	ldrbvs	r6, [r3, #-1394]!	; 0xfffffa8e
 170:	6f6c0074 	svcvs	0x006c0074
 174:	6c20676e 	stcvs	7, cr6, [r0], #-440	; 0xfffffe48
 178:	20676e6f 	rsbcs	r6, r7, pc, ror #28
 17c:	69736e75 	ldmdbvs	r3!, {r0, r2, r4, r5, r6, r9, sl, fp, sp, lr}^
 180:	64656e67 	strbtvs	r6, [r5], #-3687	; 0xfffff199
 184:	746e6920 	strbtvc	r6, [lr], #-2336	; 0xfffff6e0
 188:	6e697500 	cdpvs	5, 6, cr7, cr9, cr0, {0}
 18c:	5f323374 	svcpl	0x00323374
 190:	79780074 	ldmdbvc	r8!, {r2, r4, r5, r6}^
 194:	72705f7a 	rsbsvc	r5, r0, #488	; 0x1e8
 198:	00746e69 	rsbseq	r6, r4, r9, ror #28
 19c:	65636361 	strbvs	r6, [r3, #-865]!	; 0xfffffc9f
 1a0:	61685f6c 	cmnvs	r8, ip, ror #30
 1a4:	61645f73 	smcvs	17907	; 0x45f3
 1a8:	61006174 	tstvs	r0, r4, ror r1
 1ac:	6c656363 	stclvs	3, cr6, [r5], #-396	; 0xfffffe74
 1b0:	6e6f635f 	mcrvs	3, 3, r6, cr15, cr15, {2}
 1b4:	5f676966 	svcpl	0x00676966
 1b8:	32676572 	rsbcc	r6, r7, #478150656	; 0x1c800000
 1bc:	7a797800 	bvc	1e5e1c4 <__bss_end__+0x1e536fc>
 1c0:	006b6d5f 	rsbeq	r6, fp, pc, asr sp
 1c4:	65636361 	strbvs	r6, [r3, #-865]!	; 0xfffffc9f
 1c8:	63665f6c 	cmnvs	r6, #108, 30	; 0x1b0
 1cc:	63696f68 	cmnvs	r9, #104, 30	; 0x1a0
 1d0:	5f625f65 	svcpl	0x00625f65
 1d4:	0066666f 	rsbeq	r6, r6, pc, ror #12
 1d8:	73746962 	cmnvc	r4, #1605632	; 0x188000
 1dc:	7465735f 	strbtvc	r7, [r5], #-863	; 0xfffffca1
 1e0:	746f6e00 	strbtvc	r6, [pc], #-3584	; 1e8 <__code_start__-0x7e18>
 1e4:	6e69616d 	powvsez	f6, f1, #5.0
 1e8:	6f687300 	svcvs	0x00687300
 1ec:	75207472 	strvc	r7, [r0, #-1138]!	; 0xfffffb8e
 1f0:	6769736e 	strbvs	r7, [r9, -lr, ror #6]!
 1f4:	2064656e 	rsbcs	r6, r4, lr, ror #10
 1f8:	00746e69 	rsbseq	r6, r4, r9, ror #28
 1fc:	45434341 	strbmi	r4, [r3, #-833]	; 0xfffffcbf
 200:	4f585f4c 	svcmi	0x00585f4c
 204:	485f5455 	ldmdami	pc, {r0, r2, r4, r6, sl, ip, lr}^	; <UNPREDICTABLE>
 208:	43434100 	movtmi	r4, #12544	; 0x3100
 20c:	585f4c45 	ldmdapl	pc, {r0, r2, r6, sl, fp, lr}^	; <UNPREDICTABLE>
 210:	5f54554f 	svcpl	0x0054554f
 214:	626e004c 	rsbvs	r0, lr, #76, 0	; 0x4c
 218:	00737469 	rsbseq	r7, r3, r9, ror #8
 21c:	20554e47 	subscs	r4, r5, r7, asr #28
 220:	20393943 	eorscs	r3, r9, r3, asr #18
 224:	2e322e39 	mrccs	14, 1, r2, cr2, cr9, {1}
 228:	30322031 	eorscc	r2, r2, r1, lsr r0
 22c:	30313931 	eorscc	r3, r1, r1, lsr r9
 230:	28203532 	stmdacs	r0!, {r1, r4, r5, r8, sl, ip, sp}
 234:	656c6572 	strbvs	r6, [ip, #-1394]!	; 0xfffffa8e
 238:	29657361 	stmdbcs	r5!, {r0, r5, r6, r8, r9, ip, sp, lr}^
 23c:	52415b20 	subpl	r5, r1, #32, 22	; 0x8000
 240:	72612f4d 	rsbvc	r2, r1, #308	; 0x134
 244:	2d392d6d 	ldccs	13, cr2, [r9, #-436]!	; 0xfffffe4c
 248:	6e617262 	cdpvs	2, 6, cr7, cr1, cr2, {3}
 24c:	72206863 	eorvc	r6, r0, #6488064	; 0x630000
 250:	73697665 	cmnvc	r9, #105906176	; 0x6500000
 254:	206e6f69 	rsbcs	r6, lr, r9, ror #30
 258:	35373732 	ldrcc	r3, [r7, #-1842]!	; 0xfffff8ce
 25c:	205d3939 	subscs	r3, sp, r9, lsr r9
 260:	70636d2d 	rsbvc	r6, r3, sp, lsr #26
 264:	72613d75 	rsbvc	r3, r1, #7488	; 0x1d40
 268:	3731316d 	ldrcc	r3, [r1, -sp, ror #2]!
 26c:	667a6a36 			; <UNDEFINED> instruction: 0x667a6a36
 270:	2d20732d 	stccs	3, cr7, [r0, #-180]!	; 0xffffff4c
 274:	6e75746d 	cdpvs	4, 7, cr7, cr5, cr13, {3}
 278:	72613d65 	rsbvc	r3, r1, #6464	; 0x1940
 27c:	3731316d 	ldrcc	r3, [r1, -sp, ror #2]!
 280:	667a6a36 			; <UNDEFINED> instruction: 0x667a6a36
 284:	2d20732d 	stccs	3, cr7, [r0, #-180]!	; 0xffffff4c
 288:	6f6c666d 	svcvs	0x006c666d
 28c:	612d7461 			; <UNDEFINED> instruction: 0x612d7461
 290:	733d6962 	teqvc	sp, #1605632	; 0x188000
 294:	2074666f 	rsbscs	r6, r4, pc, ror #12
 298:	72616d2d 	rsbvc	r6, r1, #2880	; 0xb40
 29c:	6d2d206d 	stcvs	0, cr2, [sp, #-436]!	; 0xfffffe4c
 2a0:	68637261 	stmdavs	r3!, {r0, r5, r6, r9, ip, sp, lr}^
 2a4:	6d72613d 	ldfvse	f6, [r2, #-244]!	; 0xffffff0c
 2a8:	7a6b3676 	bvc	1acdc88 <__bss_end__+0x1ac31c0>
 2ac:	67672d20 	strbvs	r2, [r7, -r0, lsr #26]!
 2b0:	2d206264 	sfmcs	f6, 4, [r0, #-400]!	; 0xfffffe70
 2b4:	2d20674f 	stccs	7, cr6, [r0, #-316]!	; 0xfffffec4
 2b8:	3d647473 	cfstrdcc	mvd7, [r4, #-460]!	; 0xfffffe34
 2bc:	39756e67 	ldmdbcc	r5!, {r0, r1, r2, r5, r6, r9, sl, fp, sp, lr}^
 2c0:	662d2039 			; <UNDEFINED> instruction: 0x662d2039
 2c4:	65657266 	strbvs	r7, [r5, #-614]!	; 0xfffffd9a
 2c8:	6e617473 	mcrvs	4, 3, r7, cr1, cr3, {3}
 2cc:	676e6964 	strbvs	r6, [lr, -r4, ror #18]!
 2d0:	63636100 	cmnvs	r3, #0
 2d4:	325f6c65 	subscc	r6, pc, #25856	; 0x6500
 2d8:	78650067 	stmdavc	r5!, {r0, r1, r2, r5, r6}^
 2dc:	74636570 	strbtvc	r6, [r3], #-1392	; 0xfffffa90
 2e0:	41006465 	tstmi	r0, r5, ror #8
 2e4:	4c454343 	mcrrmi	3, 4, r4, r5, cr3
 2e8:	554f595f 	strbpl	r5, [pc, #-2399]	; fffff991 <__bss_end__+0xffff4ec9>
 2ec:	00485f54 	subeq	r5, r8, r4, asr pc
 2f0:	6573552f 	ldrbvs	r5, [r3, #-1327]!	; 0xfffffad1
 2f4:	6d2f7372 	stcvs	3, cr7, [pc, #-456]!	; 134 <__code_start__-0x7ecc>
 2f8:	73656c69 	cmnvc	r5, #26880	; 0x6900
 2fc:	756f532f 	strbvc	r5, [pc, #-815]!	; ffffffd5 <__bss_end__+0xffff550d>
 300:	2f656372 	svccs	0x00656372
 304:	34327363 	ldrtcc	r7, [r2], #-867	; 0xfffffc9d
 308:	2f786c30 	svccs	0x00786c30
 30c:	7362616c 	cmnvc	r2, #27
 310:	2d30312f 	ldfcss	f3, [r0, #-188]!	; 0xffffff44
 314:	2d633269 	sfmcs	f3, 2, [r3, #-420]!	; 0xfffffe5c
 318:	65636361 	strbvs	r6, [r3, #-865]!	; 0xfffffc9f
 31c:	6f632f6c 	svcvs	0x00632f6c
 320:	41006564 	tstmi	r0, r4, ror #10
 324:	4c454343 	mcrrmi	3, 4, r4, r5, cr3
 328:	554f595f 	strbpl	r5, [pc, #-2399]	; fffff9d1 <__bss_end__+0xffff4f09>
 32c:	004c5f54 	subeq	r5, ip, r4, asr pc
 330:	65636361 	strbvs	r6, [r3, #-865]!	; 0xfffffc9f
 334:	36315f6c 	ldrtcc	r5, [r1], -ip, ror #30
 338:	69620067 	stmdbvs	r2!, {r0, r1, r2, r5, r6}^
 33c:	6d5f7374 	ldclvs	3, cr7, [pc, #-464]	; 174 <__code_start__-0x7e8c>
 340:	006b7361 	rsbeq	r7, fp, r1, ror #6
 344:	5f766564 	svcpl	0x00766564
 348:	72646461 	rsbvc	r6, r4, #1627389952	; 0x61000000
 34c:	7a797800 	bvc	1e5e354 <__bss_end__+0x1e5388c>
 350:	7761725f 			; <UNDEFINED> instruction: 0x7761725f
 354:	756d6900 	strbvc	r6, [sp, #-2304]!	; 0xfffff700
 358:	0072775f 	rsbseq	r7, r2, pc, asr r7
 35c:	5f525750 	svcpl	0x00525750
 360:	544d474d 	strbpl	r4, [sp], #-1869	; 0xfffff8b3
 364:	5000315f 	andpl	r3, r0, pc, asr r1
 368:	4d5f5257 	lfmmi	f5, 2, [pc, #-348]	; 214 <__code_start__-0x7dec>
 36c:	5f544d47 	svcpl	0x00544d47
 370:	676d0032 			; <UNDEFINED> instruction: 0x676d0032
 374:	6163735f 	cmnvs	r3, pc, asr r3
 378:	0064656c 	rsbeq	r6, r4, ip, ror #10
 37c:	61656c63 	cmnvs	r5, r3, ror #24
 380:	65725f6e 	ldrbvs	r5, [r2, #-3950]!	; 0xfffff092
 384:	746f6f62 	strbtvc	r6, [pc], #-3938	; 38c <__code_start__-0x7c74>
 388:	63636100 	cmnvs	r3, #0
 38c:	725f6c65 	subsvc	r6, pc, #25856	; 0x6500
 390:	32690064 	rsbcc	r0, r9, #100, 0	; 0x64
 394:	65725f63 	ldrbvs	r5, [r2, #-3939]!	; 0xfffff09d
 398:	5f006461 	svcpl	0x00006461
 39c:	756e755f 	strbvc	r7, [lr, #-1375]!	; 0xfffffaa1
 3a0:	33646573 	cmncc	r4, #482344960	; 0x1cc00000
 3a4:	74657300 	strbtvc	r7, [r5], #-768	; 0xfffffd00
 3a8:	6c6c615f 	stfvse	f6, [ip], #-380	; 0xfffffe84
 3ac:	696e6900 	stmdbvs	lr!, {r8, fp, sp, lr}^
 3b0:	6c616974 			; <UNDEFINED> instruction: 0x6c616974
 3b4:	64657a69 	strbtvs	r7, [r5], #-2665	; 0xfffff597
 3b8:	6900705f 	stmdbvs	r0, {r0, r1, r2, r3, r4, r6, ip, sp, lr}
 3bc:	632e6332 			; <UNDEFINED> instruction: 0x632e6332
 3c0:	6f6c6300 	svcvs	0x006c6300
 3c4:	735f6b63 	cmpvc	pc, #101376	; 0x18c00
 3c8:	74657274 	strbtvc	r7, [r5], #-628	; 0xfffffd8c
 3cc:	745f6863 	ldrbvc	r6, [pc], #-2147	; 3d4 <__code_start__-0x7c2c>
 3d0:	6f656d69 	svcvs	0x00656d69
 3d4:	63007475 	movwvs	r7, #1141	; 0x475
 3d8:	7261656c 	rsbvc	r6, r1, #108, 10	; 0x1b000000
 3dc:	4700635f 	smlsdmi	r0, pc, r3, r6	; <UNPREDICTABLE>
 3e0:	5f4f4950 	svcpl	0x004f4950
 3e4:	434e5546 	movtmi	r5, #58694	; 0xe546
 3e8:	54554f5f 	ldrbpl	r4, [r5], #-3935	; 0xfffff0a1
 3ec:	00545550 	subseq	r5, r4, r0, asr r5
 3f0:	61656c63 	cmnvs	r5, r3, ror #24
 3f4:	00735f72 	rsbseq	r5, r3, r2, ror pc
 3f8:	4f495047 	svcmi	0x00495047
 3fc:	4e55465f 	mrcmi	6, 2, r4, cr5, cr15, {2}
 400:	4c415f43 	mcrrmi	15, 4, r5, r1, cr3
 404:	47003054 	smlsdmi	r0, r4, r0, r3
 408:	5f4f4950 	svcpl	0x004f4950
 40c:	434e5546 	movtmi	r5, #58694	; 0xe546
 410:	544c415f 	strbpl	r4, [ip], #-351	; 0xfffffea1
 414:	50470031 	subpl	r0, r7, r1, lsr r0
 418:	465f4f49 	ldrbmi	r4, [pc], -r9, asr #30
 41c:	5f434e55 	svcpl	0x00434e55
 420:	32544c41 	subscc	r4, r4, #16640	; 0x4100
 424:	49504700 	ldmdbmi	r0, {r8, r9, sl, lr}^
 428:	55465f4f 	strbpl	r5, [r6, #-3919]	; 0xfffff0b1
 42c:	415f434e 	cmpmi	pc, lr, asr #6
 430:	0033544c 	eorseq	r5, r3, ip, asr #8
 434:	4f495047 	svcmi	0x00495047
 438:	4e55465f 	mrcmi	6, 2, r4, cr5, cr15, {2}
 43c:	4c415f43 	mcrrmi	15, 4, r5, r1, cr3
 440:	47003454 	smlsdmi	r0, r4, r4, r3
 444:	5f4f4950 	svcpl	0x004f4950
 448:	434e5546 	movtmi	r5, #58694	; 0xe546
 44c:	544c415f 	strbpl	r4, [ip], #-351	; 0xfffffea1
 450:	5f730035 	svcpl	0x00730035
 454:	69676572 	stmdbvs	r7!, {r1, r4, r5, r6, r8, sl, sp, lr}^
 458:	72657473 	rsbvc	r7, r5, #1929379840	; 0x73000000
 45c:	65667800 	strbvs	r7, [r6, #-2048]!	; 0xfffff800
 460:	74735f72 	ldrbtvc	r5, [r3], #-3954	; 0xfffff08e
 464:	5f747261 	svcpl	0x00747261
 468:	6b636168 	blvs	18d8a10 <__bss_end__+0x18cdf48>
 46c:	656c6400 	strbvs	r6, [ip, #-1024]!	; 0xfffffc00
 470:	7570006e 	ldrbvc	r0, [r0, #-110]!	; 0xffffff92
 474:	00323374 	eorseq	r3, r2, r4, ror r3
 478:	65725f63 	ldrbvs	r5, [r2, #-3939]!	; 0xfffff09d
 47c:	74736967 	ldrbtvc	r6, [r3], #-2407	; 0xfffff699
 480:	73007265 	movwvc	r7, #613	; 0x265
 484:	74666968 	strbtvc	r6, [r6], #-2408	; 0xfffff698
 488:	65686300 	strbvs	r6, [r8, #-768]!	; 0xfffffd00
 48c:	6c5f6b63 	mrrcvs	11, 6, r6, pc, cr3	; <UNPREDICTABLE>
 490:	756f7961 	strbvc	r7, [pc, #-2401]!	; fffffb37 <__bss_end__+0xffff506f>
 494:	6c630074 	stclvs	0, cr0, [r3], #-464	; 0xfffffe30
 498:	5f6b636f 	svcpl	0x006b636f
 49c:	00766964 	rsbseq	r6, r6, r4, ror #18
 4a0:	61656c63 	cmnvs	r5, r3, ror #24
 4a4:	6f640072 	svcvs	0x00640072
 4a8:	4700656e 	strmi	r6, [r0, -lr, ror #10]
 4ac:	5f4f4950 	svcpl	0x004f4950
 4b0:	434e5546 	movtmi	r5, #58694	; 0xe546
 4b4:	504e495f 	subpl	r4, lr, pc, asr r9
 4b8:	69005455 	stmdbvs	r0, {r0, r2, r4, r6, sl, ip, lr}
 4bc:	0064746e 	rsbeq	r7, r4, lr, ror #8
 4c0:	72656678 	rsbvc	r6, r5, #120, 12	; 0x7800000
 4c4:	6174735f 	cmnvs	r4, pc, asr r3
 4c8:	69007472 	stmdbvs	r0, {r1, r4, r5, r6, sl, ip, sp, lr}
 4cc:	0072746e 	rsbseq	r7, r2, lr, ror #8
 4d0:	74746e69 	ldrbtvc	r6, [r4], #-3689	; 0xfffff197
 4d4:	66696600 	strbtvs	r6, [r9], -r0, lsl #12
 4d8:	6f63006f 	svcvs	0x0063006f
 4dc:	6f72746e 	svcvs	0x0072746e
 4e0:	3269006c 	rsbcc	r0, r9, #108, 0	; 0x6c
 4e4:	69645f63 	stmdbvs	r4!, {r0, r1, r5, r6, r8, r9, sl, fp, ip, lr}^
 4e8:	766f6373 			; <UNDEFINED> instruction: 0x766f6373
 4ec:	615f7265 	cmpvs	pc, r5, ror #4
 4f0:	00726464 	rsbseq	r6, r2, r4, ror #8
 4f4:	5f766564 	svcpl	0x00766564
 4f8:	72726162 	rsbsvc	r6, r2, #-2147483624	; 0x80000018
 4fc:	00726569 	rsbseq	r6, r2, r9, ror #10
 500:	33746567 	cmncc	r4, #432013312	; 0x19c00000
 504:	50520032 	subspl	r0, r2, r2, lsr r0
 508:	32695f49 	rsbcc	r5, r9, #292	; 0x124
 50c:	32690063 	rsbcc	r0, r9, #99, 0	; 0x63
 510:	006e6563 	rsbeq	r6, lr, r3, ror #10
 514:	7479626e 	ldrbtvc	r6, [r9], #-622	; 0xfffffd92
 518:	72007365 	andvc	r7, r0, #-1811939327	; 0x94000001
 51c:	5f646165 	svcpl	0x00646165
 520:	32690073 	rsbcc	r0, r9, #115, 0	; 0x73
 524:	73695f63 	cmnvc	r9, #396	; 0x18c
 528:	696e695f 	stmdbvs	lr!, {r0, r1, r2, r3, r4, r6, r8, fp, sp, lr}^
 52c:	6c616974 			; <UNDEFINED> instruction: 0x6c616974
 530:	64657a69 	strbtvs	r7, [r5], #-2665	; 0xfffff597
 534:	61657200 	cmnvs	r5, r0, lsl #4
 538:	00705f64 	rsbseq	r5, r0, r4, ror #30
 53c:	746b6c63 	strbtvc	r6, [fp], #-3171	; 0xfffff39d
 540:	7067006b 	rsbvc	r0, r7, fp, rrx
 544:	735f6f69 	cmpvc	pc, #420	; 0x1a4
 548:	665f7465 	ldrbvs	r7, [pc], -r5, ror #8
 54c:	74636e75 	strbtvc	r6, [r3], #-3701	; 0xfffff18b
 550:	006e6f69 	rsbeq	r6, lr, r9, ror #30
 554:	72656678 	rsbvc	r6, r5, #120, 12	; 0x7800000
 558:	646e655f 	strbtvs	r6, [lr], #-1375	; 0xfffffaa1
 55c:	61657200 	cmnvs	r5, r0, lsl #4
 560:	00635f64 	rsbeq	r5, r3, r4, ror #30
 564:	5f633269 	svcpl	0x00633269
 568:	74696e69 	strbtvc	r6, [r9], #-3689	; 0xfffff197
 56c:	636e6f5f 	cmnvs	lr, #380	; 0x17c
 570:	5f5f0065 	svcpl	0x005f0065
 574:	73756e75 	cmnvc	r5, #1872	; 0x750
 578:	00306465 	eorseq	r6, r0, r5, ror #8
 57c:	6e755f5f 	mrcvs	15, 3, r5, cr5, cr15, {2}
 580:	64657375 	strbtvs	r7, [r5], #-885	; 0xfffffc8b
 584:	5f5f0031 	svcpl	0x005f0031
 588:	73756e75 	cmnvc	r5, #1872	; 0x750
 58c:	00326465 	eorseq	r6, r2, r5, ror #8
 590:	6d6f682f 	stclvs	8, cr6, [pc, #-188]!	; 4dc <__code_start__-0x7b24>
 594:	6e652f65 	cdpvs	15, 6, cr2, cr5, cr5, {3}
 598:	72656c67 	rsbvc	r6, r5, #26368	; 0x6700
 59c:	616c632f 	cmnvs	ip, pc, lsr #6
 5a0:	632f7373 			; <UNDEFINED> instruction: 0x632f7373
 5a4:	6e393473 	mrcvs	4, 1, r3, cr9, cr3, {3}
 5a8:	6131322d 	teqvs	r1, sp, lsr #4
 5ac:	6c2f7475 	cfstrsvs	mvf7, [pc], #-468	; 3e0 <__code_start__-0x7c20>
 5b0:	2f736261 	svccs	0x00736261
 5b4:	32692d38 	rsbcc	r2, r9, #56, 26	; 0xe00
 5b8:	63612d63 	cmnvs	r1, #6336	; 0x18c0
 5bc:	2f6c6563 	svccs	0x006c6563
 5c0:	65646f63 	strbvs	r6, [r4, #-3939]!	; 0xfffff09d
 5c4:	73657200 	cmnvc	r5, #0, 4
 5c8:	735f7465 	cmpvc	pc, #1694498816	; 0x65000000
 5cc:	75746174 	ldrbvc	r6, [r4, #-372]!	; 0xfffffe8c
 5d0:	6c630073 	stclvs	0, cr0, [r3], #-460	; 0xfffffe34
 5d4:	5f6b636f 	svcpl	0x006b636f
 5d8:	616c6564 	cmnvs	ip, r4, ror #10
 5dc:	70670079 	rsbvc	r0, r7, r9, ror r0
 5e0:	635f6f69 	cmpvs	pc, #420	; 0x1a4
 5e4:	0030726c 	eorseq	r7, r0, ip, ror #4
 5e8:	6f697067 	svcvs	0x00697067
 5ec:	7465735f 	strbtvc	r7, [r5], #-863	; 0xfffffca1
 5f0:	70670030 	rsbvc	r0, r7, r0, lsr r0
 5f4:	775f6f69 	ldrbvc	r6, [pc, -r9, ror #30]
 5f8:	65746972 	ldrbvs	r6, [r4, #-2418]!	; 0xfffff68e
 5fc:	56454400 	strbpl	r4, [r5], -r0, lsl #8
 600:	4c41565f 	mcrrmi	6, 5, r5, r1, cr15
 604:	50003233 	andpl	r3, r0, r3, lsr r2
 608:	32335455 	eorscc	r5, r3, #1426063360	; 0x55000000
 60c:	69706700 	ldmdbvs	r0!, {r8, r9, sl, sp, lr}^
 610:	65725f6f 	ldrbvs	r5, [r2, #-3951]!	; 0xfffff091
 614:	47006461 	strmi	r6, [r0, -r1, ror #8]
 618:	32335445 	eorscc	r5, r3, #1157627904	; 0x45000000
 61c:	732f2e00 			; <UNDEFINED> instruction: 0x732f2e00
 620:	672f6372 			; <UNDEFINED> instruction: 0x672f6372
 624:	2e6f6970 			; <UNDEFINED> instruction: 0x2e6f6970
 628:	70670063 	rsbvc	r0, r7, r3, rrx
 62c:	735f6f69 	cmpvc	pc, #420	; 0x1a4
 630:	695f7465 	ldmdbvs	pc, {r0, r2, r5, r6, sl, ip, sp, lr}^	; <UNPREDICTABLE>
 634:	7475706e 	ldrbtvc	r7, [r5], #-110	; 0xffffff92
 638:	69706700 	ldmdbvs	r0!, {r8, r9, sl, sp, lr}^
 63c:	65735f6f 	ldrbvs	r5, [r3, #-3951]!	; 0xfffff091
 640:	666f5f74 	uqsub16vs	r5, pc, r4	; <UNPREDICTABLE>
 644:	70670066 	rsbvc	r0, r7, r6, rrx
 648:	735f6f69 	cmpvc	pc, #420	; 0x1a4
 64c:	6f5f7465 	svcvs	0x005f7465
 650:	75707475 	ldrbvc	r7, [r0, #-1141]!	; 0xfffffb8b
 654:	75660074 	strbvc	r0, [r6, #-116]!	; 0xffffff8c
 658:	6700636e 	strvs	r6, [r0, -lr, ror #6]
 65c:	5f6f6970 	svcpl	0x006f6970
 660:	636e7566 	cmnvs	lr, #427819008	; 0x19800000
 664:	4700745f 	smlsdmi	r0, pc, r4, r7	; <UNPREDICTABLE>
 668:	4320554e 			; <UNDEFINED> instruction: 0x4320554e
 66c:	39203939 	stmdbcc	r0!, {r0, r3, r4, r5, r8, fp, ip, sp}
 670:	312e322e 			; <UNDEFINED> instruction: 0x312e322e
 674:	31303220 	teqcc	r0, r0, lsr #4
 678:	32303139 	eorscc	r3, r0, #1073741838	; 0x4000000e
 67c:	72282035 	eorvc	r2, r8, #53, 0	; 0x35
 680:	61656c65 	cmnvs	r5, r5, ror #24
 684:	20296573 	eorcs	r6, r9, r3, ror r5
 688:	4d52415b 	ldfmie	f4, [r2, #-364]	; 0xfffffe94
 68c:	6d72612f 	ldfvse	f6, [r2, #-188]!	; 0xffffff44
 690:	622d392d 	eorvs	r3, sp, #737280	; 0xb4000
 694:	636e6172 	cmnvs	lr, #-2147483620	; 0x8000001c
 698:	65722068 	ldrbvs	r2, [r2, #-104]!	; 0xffffff98
 69c:	69736976 	ldmdbvs	r3!, {r1, r2, r4, r5, r6, r8, fp, sp, lr}^
 6a0:	32206e6f 	eorcc	r6, r0, #1776	; 0x6f0
 6a4:	39353737 	ldmdbcc	r5!, {r0, r1, r2, r4, r5, r8, r9, sl, ip, sp}
 6a8:	2d205d39 	stccs	13, cr5, [r0, #-228]!	; 0xffffff1c
 6ac:	7570636d 	ldrbvc	r6, [r0, #-877]!	; 0xfffffc93
 6b0:	6d72613d 	ldfvse	f6, [r2, #-244]!	; 0xffffff0c
 6b4:	36373131 			; <UNDEFINED> instruction: 0x36373131
 6b8:	2d667a6a 	vstmdbcs	r6!, {s15-s120}
 6bc:	6d2d2073 	stcvs	0, cr2, [sp, #-460]!	; 0xfffffe34
 6c0:	656e7574 	strbvs	r7, [lr, #-1396]!	; 0xfffffa8c
 6c4:	6d72613d 	ldfvse	f6, [r2, #-244]!	; 0xffffff0c
 6c8:	36373131 			; <UNDEFINED> instruction: 0x36373131
 6cc:	2d667a6a 	vstmdbcs	r6!, {s15-s120}
 6d0:	6d2d2073 	stcvs	0, cr2, [sp, #-460]!	; 0xfffffe34
 6d4:	616f6c66 	cmnvs	pc, r6, ror #24
 6d8:	62612d74 	rsbvs	r2, r1, #116, 26	; 0x1d00
 6dc:	6f733d69 	svcvs	0x00733d69
 6e0:	2d207466 	cfstrscs	mvf7, [r0, #-408]!	; 0xfffffe68
 6e4:	6d72616d 	ldfvse	f6, [r2, #-436]!	; 0xfffffe4c
 6e8:	616d2d20 	cmnvs	sp, r0, lsr #26
 6ec:	3d686372 	stclcc	3, cr6, [r8, #-456]!	; 0xfffffe38
 6f0:	766d7261 	strbtvc	r7, [sp], -r1, ror #4
 6f4:	207a6b36 	rsbscs	r6, sl, r6, lsr fp
 6f8:	6467672d 	strbtvs	r6, [r7], #-1837	; 0xfffff8d3
 6fc:	672d2062 	strvs	r2, [sp, -r2, rrx]!
 700:	20626467 	rsbcs	r6, r2, r7, ror #8
 704:	61664f2d 	cmnvs	r6, sp, lsr #30
 708:	2d207473 	cfstrscs	mvf7, [r0, #-460]!	; 0xfffffe34
 70c:	7361664f 	cmnvc	r1, #82837504	; 0x4f00000
 710:	732d2074 			; <UNDEFINED> instruction: 0x732d2074
 714:	673d6474 			; <UNDEFINED> instruction: 0x673d6474
 718:	3939756e 	ldmdbcc	r9!, {r1, r2, r3, r5, r6, r8, sl, ip, sp, lr}
 71c:	74732d20 	ldrbtvc	r2, [r3], #-3360	; 0xfffff2e0
 720:	6e673d64 	cdpvs	13, 6, cr3, cr7, cr4, {3}
 724:	20393975 	eorscs	r3, r9, r5, ror r9
 728:	7266662d 	rsbvc	r6, r6, #47185920	; 0x2d00000
 72c:	74736565 	ldrbtvc	r6, [r3], #-1381	; 0xfffffa9b
 730:	69646e61 	stmdbvs	r4!, {r0, r5, r6, r9, sl, fp, sp, lr}^
 734:	6700676e 	strvs	r6, [r0, -lr, ror #14]
 738:	5f6f6970 	svcpl	0x006f6970
 73c:	3076656c 	rsbscc	r6, r6, ip, ror #10
 740:	73552f00 	cmpvc	r5, #0, 30
 744:	2f737265 	svccs	0x00737265
 748:	656c696d 	strbvs	r6, [ip, #-2413]!	; 0xfffff693
 74c:	6f532f73 	svcvs	0x00532f73
 750:	65637275 	strbvs	r7, [r3, #-629]!	; 0xfffffd8b
 754:	3273632f 	rsbscc	r6, r3, #-1140850688	; 0xbc000000
 758:	786c3034 	stmdavc	ip!, {r2, r4, r5, ip, sp}^
 75c:	62696c2f 	rsbvs	r6, r9, #12032	; 0x2f00
 760:	62006970 	andvs	r6, r0, #112, 18	; 0x1c0000
 764:	006b6e61 	rsbeq	r6, fp, r1, ror #28
 768:	6f697067 	svcvs	0x00697067
 76c:	7465735f 	strbtvc	r7, [r5], #-863	; 0xfffffca1
 770:	006e6f5f 	rsbeq	r6, lr, pc, asr pc
 774:	73677261 	cmnvc	r7, #268435462	; 0x10000006
 778:	5f617600 	svcpl	0x00617600
 77c:	6e697270 	mcrvs	2, 3, r7, cr9, cr0, {3}
 780:	5f006b74 	svcpl	0x00006b74
 784:	756e675f 	strbvc	r6, [lr, #-1887]!	; 0xfffff8a1
 788:	61765f63 	cmnvs	r6, r3, ror #30
 78c:	73696c5f 	cmnvc	r9, #24320	; 0x5f00
 790:	5f5f0074 	svcpl	0x005f0074
 794:	2e007061 	cdpcs	0, 0, cr7, cr0, cr1, {3}
 798:	62696c2f 	rsbvs	r6, r9, #12032	; 0x2f00
 79c:	72702f63 	rsbsvc	r2, r0, #396	; 0x18c
 7a0:	6b746e69 	blvs	1d1c14c <__bss_end__+0x1d11684>
 7a4:	5f00632e 	svcpl	0x0000632e
 7a8:	5f61765f 	svcpl	0x0061765f
 7ac:	7473696c 	ldrbtvc	r6, [r3], #-2412	; 0xfffff694
 7b0:	746e6900 	strbtvc	r6, [lr], #-2304	; 0xfffff700
 7b4:	616e7265 	cmnvs	lr, r5, ror #4
 7b8:	75705f6c 	ldrbvc	r5, [r0, #-3948]!	; 0xfffff094
 7bc:	2e006b74 	vmovcs.16	d0[1], r6
 7c0:	62696c2f 	rsbvs	r6, r9, #12032	; 0x2f00
 7c4:	75702f63 	ldrbvc	r2, [r0, #-3939]!	; 0xfffff09d
 7c8:	632e6b74 			; <UNDEFINED> instruction: 0x632e6b74
 7cc:	64736900 	ldrbtvs	r6, [r3], #-2304	; 0xfffff700
 7d0:	74696769 	strbtvc	r6, [r9], #-1897	; 0xfffff897
 7d4:	6e697500 	cdpvs	5, 6, cr7, cr9, cr0, {0}
 7d8:	5f343674 	svcpl	0x00343674
 7dc:	2f2e0074 	svccs	0x002e0074
 7e0:	6362696c 	cmnvs	r2, #108, 18	; 0x1b0000
 7e4:	2d61762f 	stclcs	6, cr7, [r1, #-188]!	; 0xffffff44
 7e8:	6e697270 	mcrvs	2, 3, r7, cr9, cr0, {3}
 7ec:	632e6b74 			; <UNDEFINED> instruction: 0x632e6b74
 7f0:	635f5f00 	cmpvs	pc, #0, 30
 7f4:	5f65646f 	svcpl	0x0065646f
 7f8:	72617473 	rsbvc	r7, r1, #1929379840	; 0x73000000
 7fc:	005f5f74 	subseq	r5, pc, r4, ror pc	; <UNPREDICTABLE>
 800:	73625f5f 	cmnvc	r2, #380	; 0x17c
 804:	74735f73 	ldrbtvc	r5, [r3], #-3955	; 0xfffff08d
 808:	5f747261 	svcpl	0x00747261
 80c:	6977005f 	ldmdbvs	r7!, {r0, r1, r2, r3, r4, r6}^
 810:	00687464 	rsbeq	r7, r8, r4, ror #8
 814:	61645f5f 	cmnvs	r4, pc, asr pc
 818:	655f6174 	ldrbvs	r6, [pc, #-372]	; 6ac <__code_start__-0x7954>
 81c:	5f5f646e 	svcpl	0x005f646e
 820:	67697300 	strbvs	r7, [r9, -r0, lsl #6]!
 824:	5f64656e 	svcpl	0x0064656e
 828:	75700070 	ldrbvc	r0, [r0, #-112]!	; 0xffffff90
 82c:	665f6374 			; <UNDEFINED> instruction: 0x665f6374
 830:	5f5f0070 	svcpl	0x005f0070
 834:	5f737362 	svcpl	0x00737362
 838:	5f646e65 	svcpl	0x00646e65
 83c:	5f5f005f 	svcpl	0x005f005f
 840:	70616568 	rsbvc	r6, r1, r8, ror #10
 844:	6174735f 	cmnvs	r4, pc, asr r3
 848:	5f5f7472 	svcpl	0x005f7472
 84c:	69707200 	ldmdbvs	r0!, {r9, ip, sp, lr}^
 850:	7465735f 	strbtvc	r7, [r5], #-863	; 0xfffffca1
 854:	74756f5f 	ldrbtvc	r6, [r5], #-3935	; 0xfffff0a1
 858:	00747570 	rsbseq	r7, r4, r0, ror r5
 85c:	5f746d66 	svcpl	0x00746d66
 860:	72617473 	rsbvc	r7, r1, #1929379840	; 0x73000000
 864:	74730074 	ldrbtvc	r0, [r3], #-116	; 0xffffff8c
 868:	74616372 	strbtvc	r6, [r1], #-882	; 0xfffffc8e
 86c:	72747300 	rsbsvc	r7, r4, #0, 6
 870:	00797063 	rsbseq	r7, r9, r3, rrx
 874:	5f67656e 	svcpl	0x0067656e
 878:	5f5f0070 	svcpl	0x005f0070
 87c:	65646f63 	strbvs	r6, [r4, #-3939]!	; 0xfffff09d
 880:	646e655f 	strbtvs	r6, [lr], #-1375	; 0xfffffaa1
 884:	65005f5f 	strvs	r5, [r0, #-3935]	; 0xfffff0a1
 888:	0074696d 	rsbseq	r6, r4, sp, ror #18
 88c:	73747570 	cmnvc	r4, #112, 10	; 0x1c000000
 890:	0070665f 	rsbseq	r6, r0, pc, asr r6
 894:	65766572 	ldrbvs	r6, [r6, #-1394]!	; 0xfffffa8e
 898:	00657372 	rsbeq	r7, r5, r2, ror r3
 89c:	63727473 	cmnvs	r2, #1929379840	; 0x73000000
 8a0:	5f00706d 	svcpl	0x0000706d
 8a4:	7461645f 	strbtvc	r6, [r1], #-1119	; 0xfffffba1
 8a8:	74735f61 	ldrbtvc	r5, [r3], #-3937	; 0xfffff09f
 8ac:	5f747261 	svcpl	0x00747261
 8b0:	5f5f005f 	svcpl	0x005f005f
 8b4:	676f7270 			; <UNDEFINED> instruction: 0x676f7270
 8b8:	646e655f 	strbtvs	r6, [lr], #-1375	; 0xfffffaa1
 8bc:	6e005f5f 	mcrvs	15, 0, r5, cr0, cr15, {2}
 8c0:	00316d75 	eorseq	r6, r1, r5, ror sp
 8c4:	6e727473 	mrcvs	4, 3, r7, cr2, cr3, {3}
 8c8:	00706d63 	rsbseq	r6, r0, r3, ror #26
 8cc:	65736162 	ldrbvs	r6, [r3, #-354]!	; 0xfffffe9e
 8d0:	69707200 	ldmdbvs	r0!, {r9, ip, sp, lr}^
 8d4:	6265725f 	rsbvs	r7, r5, #-268435451	; 0xf0000005
 8d8:	00746f6f 	rsbseq	r6, r4, pc, ror #30
 8dc:	74732f2e 	ldrbtvc	r2, [r3], #-3886	; 0xfffff0d2
 8e0:	2d666661 	stclcs	6, cr6, [r6, #-388]!	; 0xfffffe7c
 8e4:	2f637273 	svccs	0x00637273
 8e8:	61656c63 	cmnvs	r5, r3, ror #24
 8ec:	65722d6e 	ldrbvs	r2, [r2, #-3438]!	; 0xfffff292
 8f0:	746f6f62 	strbtvc	r6, [pc], #-3938	; 8f8 <__code_start__-0x7708>
 8f4:	7500632e 	strvc	r6, [r0, #-814]	; 0xfffffcd2
 8f8:	5f747261 	svcpl	0x00747261
 8fc:	73756c66 	cmnvc	r5, #26112	; 0x6600
 900:	78745f68 	ldmdavc	r4!, {r3, r5, r6, r8, r9, sl, fp, ip, lr}^
 904:	73635f00 	cmnvc	r3, #0, 30
 908:	74726174 	ldrbtvc	r6, [r2], #-372	; 0xfffffe8c
 90c:	73736200 	cmnvc	r3, #0, 4
 910:	646e655f 	strbtvs	r6, [lr], #-1375	; 0xfffffaa1
 914:	72617500 	rsbvc	r7, r1, #0, 10
 918:	6e695f74 	mcrvs	15, 3, r5, cr9, cr4, {3}
 91c:	63007469 	movwvs	r7, #1129	; 0x469
 920:	6f747375 	svcvs	0x00747375
 924:	6f6c5f6d 	svcvs	0x006c5f6d
 928:	72656461 	rsbvc	r6, r5, #1627389952	; 0x61000000
 92c:	732f2e00 			; <UNDEFINED> instruction: 0x732f2e00
 930:	66666174 			; <UNDEFINED> instruction: 0x66666174
 934:	6372732d 	cmnvs	r2, #-1275068416	; 0xb4000000
 938:	7473632f 	ldrbtvc	r6, [r3], #-815	; 0xfffffcd1
 93c:	2e747261 	cdpcs	2, 7, cr7, cr4, cr1, {3}
 940:	6f5f0063 	svcvs	0x005f0063
 944:	63007475 	movwvs	r7, #1141	; 0x475
 948:	656c6379 	strbvs	r6, [ip, #-889]!	; 0xfffffc87
 94c:	6669645f 			; <UNDEFINED> instruction: 0x6669645f
 950:	616c0066 	cmnvs	ip, r6, rrx
 954:	2e007473 	mcrcs	4, 0, r7, cr0, cr3, {3}
 958:	6174732f 	cmnvs	r4, pc, lsr #6
 95c:	732d6666 			; <UNDEFINED> instruction: 0x732d6666
 960:	632f6372 			; <UNDEFINED> instruction: 0x632f6372
 964:	6f747375 	svcvs	0x00747375
 968:	6f6c2d6d 	svcvs	0x006c2d6d
 96c:	72656461 	rsbvc	r6, r5, #1627389952	; 0x61000000
 970:	7200632e 	andvc	r6, r0, #-1207959552	; 0xb8000000
 974:	6f6f6265 	svcvs	0x006f6265
 978:	61635f74 	smcvs	13812	; 0x35f4
 97c:	756f6c6c 	strbvc	r6, [pc, #-3180]!	; fffffd18 <__bss_end__+0xffff5250>
 980:	4d500074 	ldclmi	0, cr0, [r0, #-464]	; 0xfffffe30
 984:	4f44575f 	svcmi	0x0044575f
 988:	65730047 	ldrbvs	r0, [r3, #-71]!	; 0xffffffb9
 98c:	73755f74 	cmnvc	r5, #116, 30	; 0x1d0
 990:	6c5f7265 	lfmvs	f7, 2, [pc], {101}	; 0x65
 994:	6c657665 	stclvs	6, cr7, [r5], #-404	; 0xfffffe6c
 998:	732f2e00 			; <UNDEFINED> instruction: 0x732f2e00
 99c:	66666174 			; <UNDEFINED> instruction: 0x66666174
 9a0:	6372732d 	cmnvs	r2, #-1275068416	; 0xb4000000
 9a4:	6265722f 	rsbvs	r7, r5, #-268435454	; 0xf0000002
 9a8:	2e746f6f 	cdpcs	15, 7, cr6, cr4, cr15, {3}
 9ac:	4d500063 	ldclmi	0, cr0, [r0, #-396]	; 0xfffffe74
 9b0:	5341505f 	movtpl	r5, #4191	; 0x105f
 9b4:	524f5753 	subpl	r5, pc, #21757952	; 0x14c0000
 9b8:	74610044 	strbtvc	r0, [r1], #-68	; 0xffffffbc
 9bc:	6573755f 	ldrbvs	r7, [r3, #-1375]!	; 0xfffffaa1
 9c0:	656c5f72 	strbvs	r5, [ip, #-3954]!	; 0xfffff08e
 9c4:	006c6576 	rsbeq	r6, ip, r6, ror r5
 9c8:	525f4d50 	subspl	r4, pc, #80, 26	; 0x1400
 9cc:	5f435453 	svcpl	0x00435453
 9d0:	46435257 			; <UNDEFINED> instruction: 0x46435257
 9d4:	55465f47 	strbpl	r5, [r6, #-3911]	; 0xfffff0b9
 9d8:	525f4c4c 	subspl	r4, pc, #76, 24	; 0x4c00
 9dc:	54455345 	strbpl	r5, [r5], #-837	; 0xfffffcbb
 9e0:	5f4d5000 	svcpl	0x004d5000
 9e4:	43545352 	cmpmi	r4, #1207959553	; 0x48000001
 9e8:	73706300 	cmnvc	r0, #0, 6
 9ec:	65640072 	strbvs	r0, [r4, #-114]!	; 0xffffff8e
 9f0:	5f79616c 	svcpl	0x0079616c
 9f4:	00636573 	rsbeq	r6, r3, r3, ror r5
 9f8:	74732f2e 	ldrbtvc	r2, [r3], #-3886	; 0xfffff0d2
 9fc:	2d666661 	stclcs	6, cr6, [r6, #-388]!	; 0xfffffe7c
 a00:	2f637273 	svccs	0x00637273
 a04:	656d6974 	strbvs	r6, [sp, #-2420]!	; 0xfffff68c
 a08:	00632e72 	rsbeq	r2, r3, r2, ror lr
 a0c:	656d6974 	strbvs	r6, [sp, #-2420]!	; 0xfffff68c
 a10:	65675f72 	strbvs	r5, [r7, #-3954]!	; 0xfffff08e
 a14:	73755f74 	cmnvc	r5, #116, 30	; 0x1d0
 a18:	74006365 	strvc	r6, [r0], #-869	; 0xfffffc9b
 a1c:	72656d69 	rsbvc	r6, r5, #6720	; 0x1a40
 a20:	7465675f 	strbtvc	r6, [r5], #-1887	; 0xfffff8a1
 a24:	6573755f 	ldrbvs	r7, [r3, #-1375]!	; 0xfffffaa1
 a28:	61725f63 	cmnvs	r2, r3, ror #30
 a2c:	65640077 	strbvs	r0, [r4, #-119]!	; 0xffffff89
 a30:	5f79616c 	svcpl	0x0079616c
 a34:	62007375 	andvs	r7, r0, #-738197503	; 0xd4000001
 a38:	5f647561 	svcpl	0x00647561
 a3c:	006c6176 	rsbeq	r6, ip, r6, ror r1
 a40:	74617473 	strbtvc	r7, [r1], #-1139	; 0xfffffb8d
 a44:	72617500 	rsbvc	r7, r1, #0, 10
 a48:	61635f74 	smcvs	13812	; 0x35f4
 a4c:	65675f6e 	strbvs	r5, [r7, #-3950]!	; 0xfffff092
 a50:	61006374 	tstvs	r0, r4, ror r3
 a54:	705f7875 	subsvc	r7, pc, r5, ror r8	; <UNPREDICTABLE>
 a58:	70697265 	rsbvc	r7, r9, r5, ror #4
 a5c:	75007368 	strvc	r7, [r0, #-872]	; 0xfffffc98
 a60:	2e747261 	cdpcs	2, 7, cr7, cr4, cr1, {3}
 a64:	61750063 	cmnvs	r5, r3, rrx
 a68:	635f7472 	cmpvs	pc, #1912602624	; 0x72000000
 a6c:	705f6e61 	subsvc	r6, pc, r1, ror #28
 a70:	00637475 	rsbeq	r7, r3, r5, ror r4
 a74:	74726175 	ldrbtvc	r6, [r2], #-373	; 0xfffffe8b
 a78:	5f78745f 	svcpl	0x0078745f
 a7c:	655f7369 	ldrbvs	r7, [pc, #-873]	; 71b <__code_start__-0x78e5>
 a80:	7974706d 	ldmdbvc	r4!, {r0, r2, r3, r5, r6, ip, sp, lr}^
 a84:	6f682f00 	svcvs	0x00682f00
 a88:	652f656d 	strvs	r6, [pc, #-1389]!	; 523 <__code_start__-0x7add>
 a8c:	656c676e 	strbvs	r6, [ip, #-1902]!	; 0xfffff892
 a90:	6c632f72 	stclvs	15, cr2, [r3], #-456	; 0xfffffe38
 a94:	2f737361 	svccs	0x00737361
 a98:	34327363 	ldrtcc	r7, [r2], #-867	; 0xfffffc9d
 a9c:	2d786c30 	ldclcs	12, cr6, [r8, #-192]!	; 0xffffff40
 aa0:	70733232 	rsbsvc	r3, r3, r2, lsr r2
 aa4:	696c2f72 	stmdbvs	ip!, {r1, r4, r5, r6, r8, r9, sl, fp, sp}^
 aa8:	2f697062 	svccs	0x00697062
 aac:	66617473 			; <UNDEFINED> instruction: 0x66617473
 ab0:	72702d66 	rsbsvc	r2, r0, #6528	; 0x1980
 ab4:	74617669 	strbtvc	r7, [r1], #-1641	; 0xfffff997
 ab8:	61620065 	cmnvs	r2, r5, rrx
 abc:	61006475 	tstvs	r0, r5, ror r4
 ac0:	655f7875 	ldrbvs	r7, [pc, #-2165]	; 253 <__code_start__-0x7dad>
 ac4:	6c62616e 	stfvse	f6, [r2], #-440	; 0xfffffe48
 ac8:	75007365 	strvc	r7, [r0, #-869]	; 0xfffffc9b
 acc:	5f747261 	svcpl	0x00747261
 ad0:	63746567 	cmnvs	r4, #432013312	; 0x19c00000
 ad4:	554e4700 	strbpl	r4, [lr, #-1792]	; 0xfffff900
 ad8:	39394320 	ldmdbcc	r9!, {r5, r8, r9, lr}
 adc:	2e303120 	rsfcssp	f3, f0, f0
 ae0:	20312e33 	eorscs	r2, r1, r3, lsr lr
 ae4:	31323032 	teqcc	r2, r2, lsr r0
 ae8:	34323830 	ldrtcc	r3, [r2], #-2096	; 0xfffff7d0
 aec:	65722820 	ldrbvs	r2, [r2, #-2080]!	; 0xfffff7e0
 af0:	7361656c 	cmnvc	r1, #108, 10	; 0x1b000000
 af4:	2d202965 			; <UNDEFINED> instruction: 0x2d202965
 af8:	7570636d 	ldrbvc	r6, [r0, #-877]!	; 0xfffffc93
 afc:	6d72613d 	ldfvse	f6, [r2, #-244]!	; 0xffffff0c
 b00:	36373131 			; <UNDEFINED> instruction: 0x36373131
 b04:	2d667a6a 	vstmdbcs	r6!, {s15-s120}
 b08:	6d2d2073 	stcvs	0, cr2, [sp, #-460]!	; 0xfffffe34
 b0c:	656e7574 	strbvs	r7, [lr, #-1396]!	; 0xfffffa8c
 b10:	6d72613d 	ldfvse	f6, [r2, #-244]!	; 0xffffff0c
 b14:	36373131 			; <UNDEFINED> instruction: 0x36373131
 b18:	2d667a6a 	vstmdbcs	r6!, {s15-s120}
 b1c:	6d2d2073 	stcvs	0, cr2, [sp, #-460]!	; 0xfffffe34
 b20:	616f6c66 	cmnvs	pc, r6, ror #24
 b24:	62612d74 	rsbvs	r2, r1, #116, 26	; 0x1d00
 b28:	6f733d69 	svcvs	0x00733d69
 b2c:	2d207466 	cfstrscs	mvf7, [r0, #-408]!	; 0xfffffe68
 b30:	6d72616d 	ldfvse	f6, [r2, #-436]!	; 0xfffffe4c
 b34:	616d2d20 	cmnvs	sp, r0, lsr #26
 b38:	3d686372 	stclcc	3, cr6, [r8, #-456]!	; 0xfffffe38
 b3c:	766d7261 	strbtvc	r7, [sp], -r1, ror #4
 b40:	207a6b36 	rsbscs	r6, sl, r6, lsr fp
 b44:	6467672d 	strbtvs	r6, [r7], #-1837	; 0xfffff8d3
 b48:	4f2d2062 	svcmi	0x002d2062
 b4c:	732d2067 			; <UNDEFINED> instruction: 0x732d2067
 b50:	673d6474 			; <UNDEFINED> instruction: 0x673d6474
 b54:	3939756e 	ldmdbcc	r9!, {r1, r2, r3, r5, r6, r8, sl, ip, sp, lr}
 b58:	66662d20 	strbtvs	r2, [r6], -r0, lsr #26
 b5c:	73656572 	cmnvc	r5, #478150656	; 0x1c800000
 b60:	646e6174 	strbtvs	r6, [lr], #-372	; 0xfffffe8c
 b64:	00676e69 	rsbeq	r6, r7, r9, ror #28
 b68:	6c746e63 	ldclvs	14, cr6, [r4], #-396	; 0xfffffe74
 b6c:	72617500 	rsbvc	r7, r1, #0, 10
 b70:	69645f74 	stmdbvs	r4!, {r2, r4, r5, r6, r8, r9, sl, fp, ip, lr}^
 b74:	6c626173 	stfvse	f6, [r2], #-460	; 0xfffffe34
 b78:	61750065 	cmnvs	r5, r5, rrx
 b7c:	685f7472 	ldmdavs	pc, {r1, r4, r5, r6, sl, ip, sp, lr}^	; <UNPREDICTABLE>
 b80:	645f7361 	ldrbvs	r7, [pc], #-865	; b88 <__code_start__-0x7478>
 b84:	00617461 	rsbeq	r7, r1, r1, ror #8
 b88:	695f726f 	ldmdbvs	pc, {r0, r1, r2, r3, r5, r6, r9, ip, sp, lr}^	; <UNPREDICTABLE>
 b8c:	0032336e 	eorseq	r3, r2, lr, ror #6
 b90:	61726373 	cmnvs	r2, r3, ror r3
 b94:	00686374 	rsbeq	r6, r8, r4, ror r3
 b98:	74726175 	ldrbtvc	r6, [r2], #-373	; 0xfffffe8b
 b9c:	646e6100 	strbtvs	r6, [lr], #-256	; 0xffffff00
 ba0:	336e695f 	cmncc	lr, #1556480	; 0x17c000
 ba4:	61750032 	cmnvs	r5, r2, lsr r0
 ba8:	705f7472 	subsvc	r7, pc, r2, ror r4	; <UNPREDICTABLE>
 bac:	00637475 	rsbeq	r7, r3, r5, ror r4
 bb0:	65746e69 	ldrbvs	r6, [r4, #-3689]!	; 0xfffff197
 bb4:	6c616e72 	stclvs	14, cr6, [r1], #-456	; 0xfffffe38
 bb8:	7475705f 	ldrbtvc	r7, [r5], #-95	; 0xffffffa1
 bbc:	72616863 	rsbvc	r6, r1, #6488064	; 0x630000
 bc0:	69707200 	ldmdbvs	r0!, {r9, ip, sp, lr}^
 bc4:	7465735f 	strbtvc	r7, [r5], #-863	; 0xfffffca1
 bc8:	7475705f 	ldrbtvc	r7, [r5], #-95	; 0xffffffa1
 bcc:	2f2e0063 	svccs	0x002e0063
 bd0:	6362696c 	cmnvs	r2, #108, 18	; 0x1b0000
 bd4:	7475702f 	ldrbtvc	r7, [r5], #-47	; 0xffffffd1
 bd8:	72616863 	rsbvc	r6, r1, #6488064	; 0x630000
 bdc:	7200632e 	andvc	r6, r0, #-1207959552	; 0xb8000000
 be0:	725f6970 	subsvc	r6, pc, #112, 18	; 0x1c0000
 be4:	74657365 	strbtvc	r7, [r5], #-869	; 0xfffffc9b
 be8:	7475705f 	ldrbtvc	r7, [r5], #-95	; 0xffffffa1
 bec:	65640063 	strbvs	r0, [r4, #-99]!	; 0xffffff9d
 bf0:	2e007473 	mcrcs	4, 0, r7, cr0, cr3, {3}
 bf4:	62696c2f 	rsbvs	r6, r9, #12032	; 0x2f00
 bf8:	74732f63 	ldrbtvc	r2, [r3], #-3939	; 0xfffff09d
 bfc:	74616372 	strbtvc	r6, [r1], #-882	; 0xfffffc8e
 c00:	2e00632e 	cdpcs	3, 0, cr6, cr0, cr14, {1}
 c04:	62696c2f 	rsbvs	r6, r9, #12032	; 0x2f00
 c08:	74732f63 	ldrbtvc	r2, [r3], #-3939	; 0xfffff09d
 c0c:	706d6372 	rsbvc	r6, sp, r2, ror r3
 c10:	2e00632e 	cdpcs	3, 0, cr6, cr0, cr14, {1}
 c14:	62696c2f 	rsbvs	r6, r9, #12032	; 0x2f00
 c18:	74732f63 	ldrbtvc	r2, [r3], #-3939	; 0xfffff09d
 c1c:	79706372 	ldmdbvc	r0!, {r1, r4, r5, r6, r8, r9, sp, lr}^
 c20:	7300632e 	movwvc	r6, #814	; 0x32e
 c24:	5f657a69 	svcpl	0x00657a69
 c28:	2f2e0074 	svccs	0x002e0074
 c2c:	6362696c 	cmnvs	r2, #108, 18	; 0x1b0000
 c30:	7274732f 	rsbsvc	r7, r4, #-1140850688	; 0xbc000000
 c34:	706d636e 	rsbvc	r6, sp, lr, ror #6
 c38:	2e00632e 	cdpcs	3, 0, cr6, cr0, cr14, {1}
 c3c:	6174732f 	cmnvs	r4, pc, lsr #6
 c40:	732d6666 			; <UNDEFINED> instruction: 0x732d6666
 c44:	642f6372 	strtvs	r6, [pc], #-882	; c4c <__code_start__-0x73b4>
 c48:	75616665 	strbvc	r6, [r1, #-1637]!	; 0xfffff99b
 c4c:	722d746c 	eorvc	r7, sp, #108, 8	; 0x6c000000
 c50:	6f6f6265 	svcvs	0x006f6265
 c54:	61632d74 	smcvs	13012	; 0x32d4
 c58:	756f6c6c 	strbvc	r6, [pc, #-3180]!	; fffffff4 <__bss_end__+0xffff552c>
 c5c:	00632e74 	rsbeq	r2, r3, r4, ror lr

Disassembly of section .debug_frame:

00000000 <.debug_frame>:
   0:	0000000c 	andeq	r0, r0, ip
   4:	ffffffff 			; <UNDEFINED> instruction: 0xffffffff
   8:	7c020001 	stcvc	0, cr0, [r2], {1}
   c:	000d0c0e 	andeq	r0, sp, lr, lsl #24
  10:	0000000c 	andeq	r0, r0, ip
  14:	00000000 	andeq	r0, r0, r0
  18:	00008038 	andeq	r8, r0, r8, lsr r0
  1c:	0000000c 	andeq	r0, r0, ip
  20:	0000000c 	andeq	r0, r0, ip
  24:	00000000 	andeq	r0, r0, r0
  28:	00008044 	andeq	r8, r0, r4, asr #32
  2c:	0000002c 	andeq	r0, r0, ip, lsr #32
  30:	00000020 	andeq	r0, r0, r0, lsr #32
  34:	00000000 	andeq	r0, r0, r0
  38:	00008070 	andeq	r8, r0, r0, ror r0
  3c:	00000078 	andeq	r0, r0, r8, ror r0
  40:	840c0e42 	strhi	r0, [ip], #-3650	; 0xfffff1be
  44:	8e028503 	cfsh32hi	mvfx8, mvfx2, #3
  48:	180e4201 	stmdane	lr, {r0, r9, lr}
  4c:	0c0e0a5c 			; <UNDEFINED> instruction: 0x0c0e0a5c
  50:	00000b42 	andeq	r0, r0, r2, asr #22
  54:	00000018 	andeq	r0, r0, r8, lsl r0
  58:	00000000 	andeq	r0, r0, r0
  5c:	000080e8 	andeq	r8, r0, r8, ror #1
  60:	00000038 	andeq	r0, r0, r8, lsr r0
  64:	8e040e42 	cdphi	14, 0, cr0, cr4, cr2, {2}
  68:	200e4201 	andcs	r4, lr, r1, lsl #4
  6c:	00040e54 	andeq	r0, r4, r4, asr lr
  70:	0000001c 	andeq	r0, r0, ip, lsl r0
  74:	00000000 	andeq	r0, r0, r0
  78:	00008120 	andeq	r8, r0, r0, lsr #2
  7c:	00000038 	andeq	r0, r0, r8, lsr r0
  80:	84080e42 	strhi	r0, [r8], #-3650	; 0xfffff1be
  84:	42018e02 	andmi	r8, r1, #2, 28
  88:	0e56180e 	cdpeq	8, 5, cr1, cr6, cr14, {0}
  8c:	00000008 	andeq	r0, r0, r8
  90:	00000018 	andeq	r0, r0, r8, lsl r0
  94:	00000000 	andeq	r0, r0, r0
  98:	00008158 	andeq	r8, r0, r8, asr r1
  9c:	00000024 	andeq	r0, r0, r4, lsr #32
  a0:	8e040e42 	cdphi	14, 0, cr0, cr4, cr2, {2}
  a4:	100e4201 	andne	r4, lr, r1, lsl #4
  a8:	00040e4c 	andeq	r0, r4, ip, asr #28
  ac:	00000020 	andeq	r0, r0, r0, lsr #32
  b0:	00000000 	andeq	r0, r0, r0
  b4:	0000817c 	andeq	r8, r0, ip, ror r1
  b8:	0000003c 	andeq	r0, r0, ip, lsr r0
  bc:	84100e42 	ldrhi	r0, [r0], #-3650	; 0xfffff1be
  c0:	86038504 	strhi	r8, [r3], -r4, lsl #10
  c4:	42018e02 	andmi	r8, r1, #2, 28
  c8:	0e58180e 	cdpeq	8, 5, cr1, cr8, cr14, {0}
  cc:	00000010 	andeq	r0, r0, r0, lsl r0
  d0:	0000002c 	andeq	r0, r0, ip, lsr #32
  d4:	00000000 	andeq	r0, r0, r0
  d8:	000081b8 			; <UNDEFINED> instruction: 0x000081b8
  dc:	00000060 	andeq	r0, r0, r0, rrx
  e0:	42080e42 	andmi	r0, r8, #1056	; 0x420
  e4:	0884200e 	stmeq	r4, {r1, r2, r3, sp}
  e8:	06860785 	streq	r0, [r6], r5, lsl #15
  ec:	04880587 	streq	r0, [r8], #1415	; 0x587
  f0:	ce68038e 	cdpgt	3, 6, cr0, cr8, cr14, {4}
  f4:	c5c6c7c8 	strbgt	ip, [r6, #1992]	; 0x7c8
  f8:	42080ec4 	andmi	r0, r8, #196, 28	; 0xc40
  fc:	0000000e 	andeq	r0, r0, lr
 100:	0000000c 	andeq	r0, r0, ip
 104:	00000000 	andeq	r0, r0, r0
 108:	00008218 	andeq	r8, r0, r8, lsl r2
 10c:	00000008 	andeq	r0, r0, r8
 110:	00000024 	andeq	r0, r0, r4, lsr #32
 114:	00000000 	andeq	r0, r0, r0
 118:	00008220 	andeq	r8, r0, r0, lsr #4
 11c:	00000130 	andeq	r0, r0, r0, lsr r1
 120:	84140e42 	ldrhi	r0, [r4], #-3650	; 0xfffff1be
 124:	86048505 	strhi	r8, [r4], -r5, lsl #10
 128:	8e028703 	cdphi	7, 0, cr8, cr2, cr3, {0}
 12c:	200e4201 	andcs	r4, lr, r1, lsl #4
 130:	0e0a6c02 	cdpeq	12, 0, cr6, cr10, cr2, {0}
 134:	000b4214 	andeq	r4, fp, r4, lsl r2
 138:	00000014 	andeq	r0, r0, r4, lsl r0
 13c:	00000000 	andeq	r0, r0, r0
 140:	00008350 	andeq	r8, r0, r0, asr r3
 144:	0000001c 	andeq	r0, r0, ip, lsl r0
 148:	84080e42 	strhi	r0, [r8], #-3650	; 0xfffff1be
 14c:	00018e02 	andeq	r8, r1, r2, lsl #28
 150:	0000001c 	andeq	r0, r0, ip, lsl r0
 154:	00000000 	andeq	r0, r0, r0
 158:	0000836c 	andeq	r8, r0, ip, ror #6
 15c:	000000b4 	strheq	r0, [r0], -r4
 160:	84180e42 	ldrhi	r0, [r8], #-3650	; 0xfffff1be
 164:	86058506 	strhi	r8, [r5], -r6, lsl #10
 168:	88038704 	stmdahi	r3, {r2, r8, r9, sl, pc}
 16c:	00018e02 	andeq	r8, r1, r2, lsl #28
 170:	00000020 	andeq	r0, r0, r0, lsr #32
 174:	00000000 	andeq	r0, r0, r0
 178:	00008420 	andeq	r8, r0, r0, lsr #8
 17c:	000001b8 			; <UNDEFINED> instruction: 0x000001b8
 180:	84100e42 	ldrhi	r0, [r0], #-3650	; 0xfffff1be
 184:	86038504 	strhi	r8, [r3], -r4, lsl #10
 188:	42018e02 	andmi	r8, r1, #2, 28
 18c:	be02480e 	cdplt	8, 0, cr4, cr2, cr14, {0}
 190:	0000100e 	andeq	r1, r0, lr
 194:	0000000c 	andeq	r0, r0, ip
 198:	ffffffff 			; <UNDEFINED> instruction: 0xffffffff
 19c:	7c020001 	stcvc	0, cr0, [r2], {1}
 1a0:	000d0c0e 	andeq	r0, sp, lr, lsl #24
 1a4:	0000000c 	andeq	r0, r0, ip
 1a8:	00000194 	muleq	r0, r4, r1
 1ac:	000085d8 	ldrdeq	r8, [r0], -r8	; <UNPREDICTABLE>
 1b0:	00000010 	andeq	r0, r0, r0, lsl r0
 1b4:	0000000c 	andeq	r0, r0, ip
 1b8:	00000194 	muleq	r0, r4, r1
 1bc:	000085e8 	andeq	r8, r0, r8, ror #11
 1c0:	0000000c 	andeq	r0, r0, ip
 1c4:	00000014 	andeq	r0, r0, r4, lsl r0
 1c8:	00000194 	muleq	r0, r4, r1
 1cc:	000085f4 	strdeq	r8, [r0], -r4
 1d0:	00000008 	andeq	r0, r0, r8
 1d4:	8e040e42 	cdphi	14, 0, cr0, cr4, cr2, {2}
 1d8:	00000001 	andeq	r0, r0, r1
 1dc:	0000001c 	andeq	r0, r0, ip, lsl r0
 1e0:	00000194 	muleq	r0, r4, r1
 1e4:	000085fc 	strdeq	r8, [r0], -ip
 1e8:	000000fc 	strdeq	r0, [r0], -ip
 1ec:	8e040e42 	cdphi	14, 0, cr0, cr4, cr2, {2}
 1f0:	100e4201 	andne	r4, lr, r1, lsl #4
 1f4:	0e0a4402 	cdpeq	4, 0, cr4, cr10, cr2, {0}
 1f8:	000b4204 	andeq	r4, fp, r4, lsl #4
 1fc:	00000014 	andeq	r0, r0, r4, lsl r0
 200:	00000194 	muleq	r0, r4, r1
 204:	000086f8 	strdeq	r8, [r0], -r8	; <UNPREDICTABLE>
 208:	00000010 	andeq	r0, r0, r0, lsl r0
 20c:	84080e42 	strhi	r0, [r8], #-3650	; 0xfffff1be
 210:	00018e02 	andeq	r8, r1, r2, lsl #28
 214:	00000014 	andeq	r0, r0, r4, lsl r0
 218:	00000194 	muleq	r0, r4, r1
 21c:	00008708 	andeq	r8, r0, r8, lsl #14
 220:	00000028 	andeq	r0, r0, r8, lsr #32
 224:	84080e42 	strhi	r0, [r8], #-3650	; 0xfffff1be
 228:	00018e02 	andeq	r8, r1, r2, lsl #28
 22c:	00000014 	andeq	r0, r0, r4, lsl r0
 230:	00000194 	muleq	r0, r4, r1
 234:	00008730 	andeq	r8, r0, r0, lsr r7
 238:	00000010 	andeq	r0, r0, r0, lsl r0
 23c:	84080e42 	strhi	r0, [r8], #-3650	; 0xfffff1be
 240:	00018e02 	andeq	r8, r1, r2, lsl #28
 244:	00000020 	andeq	r0, r0, r0, lsr #32
 248:	00000194 	muleq	r0, r4, r1
 24c:	00008740 	andeq	r8, r0, r0, asr #14
 250:	000001d4 	ldrdeq	r0, [r0], -r4
 254:	84100e42 	ldrhi	r0, [r0], #-3650	; 0xfffff1be
 258:	86038504 	strhi	r8, [r3], -r4, lsl #10
 25c:	42018e02 	andmi	r8, r1, #2, 28
 260:	ca02180e 	bgt	862a0 <__bss_end__+0x7b7d8>
 264:	0000100e 	andeq	r1, r0, lr
 268:	00000020 	andeq	r0, r0, r0, lsr #32
 26c:	00000194 	muleq	r0, r4, r1
 270:	00008914 	andeq	r8, r0, r4, lsl r9
 274:	0000019c 	muleq	r0, ip, r1
 278:	84100e42 	ldrhi	r0, [r0], #-3650	; 0xfffff1be
 27c:	86038504 	strhi	r8, [r3], -r4, lsl #10
 280:	42018e02 	andmi	r8, r1, #2, 28
 284:	b202180e 	andlt	r1, r2, #917504	; 0xe0000
 288:	0000100e 	andeq	r1, r0, lr
 28c:	00000018 	andeq	r0, r0, r8, lsl r0
 290:	00000194 	muleq	r0, r4, r1
 294:	00008ab0 			; <UNDEFINED> instruction: 0x00008ab0
 298:	000000b8 	strheq	r0, [r0], -r8
 29c:	84100e42 	ldrhi	r0, [r0], #-3650	; 0xfffff1be
 2a0:	86038504 	strhi	r8, [r3], -r4, lsl #10
 2a4:	00018e02 	andeq	r8, r1, r2, lsl #28
 2a8:	00000018 	andeq	r0, r0, r8, lsl r0
 2ac:	00000194 	muleq	r0, r4, r1
 2b0:	00008b68 	andeq	r8, r0, r8, ror #22
 2b4:	000000bc 	strheq	r0, [r0], -ip
 2b8:	84100e42 	ldrhi	r0, [r0], #-3650	; 0xfffff1be
 2bc:	86038504 	strhi	r8, [r3], -r4, lsl #10
 2c0:	00018e02 	andeq	r8, r1, r2, lsl #28
 2c4:	00000018 	andeq	r0, r0, r8, lsl r0
 2c8:	00000194 	muleq	r0, r4, r1
 2cc:	00008c24 	andeq	r8, r0, r4, lsr #24
 2d0:	000001b8 			; <UNDEFINED> instruction: 0x000001b8
 2d4:	84100e42 	ldrhi	r0, [r0], #-3650	; 0xfffff1be
 2d8:	86038504 	strhi	r8, [r3], -r4, lsl #10
 2dc:	00018e02 	andeq	r8, r1, r2, lsl #28
 2e0:	0000000c 	andeq	r0, r0, ip
 2e4:	00000194 	muleq	r0, r4, r1
 2e8:	00008ddc 	ldrdeq	r8, [r0], -ip
 2ec:	00000010 	andeq	r0, r0, r0, lsl r0
 2f0:	0000001c 	andeq	r0, r0, ip, lsl r0
 2f4:	00000194 	muleq	r0, r4, r1
 2f8:	00008dec 	andeq	r8, r0, ip, ror #27
 2fc:	000000a4 	andeq	r0, r0, r4, lsr #1
 300:	84080e42 	strhi	r0, [r8], #-3650	; 0xfffff1be
 304:	42018e02 	andmi	r8, r1, #2, 28
 308:	0a6e100e 	beq	1b84348 <__bss_end__+0x1b79880>
 30c:	0b42080e 	bleq	108234c <__bss_end__+0x1077884>
 310:	00000014 	andeq	r0, r0, r4, lsl r0
 314:	00000194 	muleq	r0, r4, r1
 318:	00008e90 	muleq	r0, r0, lr
 31c:	00000018 	andeq	r0, r0, r8, lsl r0
 320:	84080e42 	strhi	r0, [r8], #-3650	; 0xfffff1be
 324:	00018e02 	andeq	r8, r1, r2, lsl #28
 328:	0000000c 	andeq	r0, r0, ip
 32c:	ffffffff 			; <UNDEFINED> instruction: 0xffffffff
 330:	7c020001 	stcvc	0, cr0, [r2], {1}
 334:	000d0c0e 	andeq	r0, sp, lr, lsl #24
 338:	00000020 	andeq	r0, r0, r0, lsr #32
 33c:	00000328 	andeq	r0, r0, r8, lsr #6
 340:	00008ea8 	andeq	r8, r0, r8, lsr #29
 344:	00000060 	andeq	r0, r0, r0, rrx
 348:	84100e48 	ldrhi	r0, [r0], #-3656	; 0xfffff1b8
 34c:	86038504 	strhi	r8, [r3], -r4, lsl #10
 350:	64018e02 	strvs	r8, [r1], #-3586	; 0xfffff1fe
 354:	c4c5c6ce 	strbgt	ip, [r5], #1742	; 0x6ce
 358:	0000000e 	andeq	r0, r0, lr
 35c:	00000020 	andeq	r0, r0, r0, lsr #32
 360:	00000328 	andeq	r0, r0, r8, lsr #6
 364:	00008f08 	andeq	r8, r0, r8, lsl #30
 368:	00000058 	andeq	r0, r0, r8, asr r0
 36c:	84100e46 	ldrhi	r0, [r0], #-3654	; 0xfffff1ba
 370:	86038504 	strhi	r8, [r3], -r4, lsl #10
 374:	62018e02 	andvs	r8, r1, #2, 28
 378:	c4c5c6ce 	strbgt	ip, [r5], #1742	; 0x6ce
 37c:	0000000e 	andeq	r0, r0, lr
 380:	0000000c 	andeq	r0, r0, ip
 384:	00000328 	andeq	r0, r0, r8, lsr #6
 388:	00008f60 	andeq	r8, r0, r0, ror #30
 38c:	00000018 	andeq	r0, r0, r8, lsl r0
 390:	0000000c 	andeq	r0, r0, ip
 394:	00000328 	andeq	r0, r0, r8, lsr #6
 398:	00008f78 	andeq	r8, r0, r8, ror pc
 39c:	00000018 	andeq	r0, r0, r8, lsl r0
 3a0:	00000020 	andeq	r0, r0, r0, lsr #32
 3a4:	00000328 	andeq	r0, r0, r8, lsr #6
 3a8:	00008f90 	muleq	r0, r0, pc	; <UNPREDICTABLE>
 3ac:	00000058 	andeq	r0, r0, r8, asr r0
 3b0:	84100e46 	ldrhi	r0, [r0], #-3654	; 0xfffff1ba
 3b4:	86038504 	strhi	r8, [r3], -r4, lsl #10
 3b8:	62018e02 	andvs	r8, r1, #2, 28
 3bc:	c4c5c6ce 	strbgt	ip, [r5], #1742	; 0x6ce
 3c0:	0000000e 	andeq	r0, r0, lr
 3c4:	0000000c 	andeq	r0, r0, ip
 3c8:	00000328 	andeq	r0, r0, r8, lsr #6
 3cc:	00008fe8 	andeq	r8, r0, r8, ror #31
 3d0:	00000030 	andeq	r0, r0, r0, lsr r0
 3d4:	00000014 	andeq	r0, r0, r4, lsl r0
 3d8:	00000328 	andeq	r0, r0, r8, lsr #6
 3dc:	00009018 	andeq	r9, r0, r8, lsl r0
 3e0:	00000028 	andeq	r0, r0, r8, lsr #32
 3e4:	84080e42 	strhi	r0, [r8], #-3650	; 0xfffff1be
 3e8:	00018e02 	andeq	r8, r1, r2, lsl #28
 3ec:	0000000c 	andeq	r0, r0, ip
 3f0:	ffffffff 			; <UNDEFINED> instruction: 0xffffffff
 3f4:	7c020001 	stcvc	0, cr0, [r2], {1}
 3f8:	000d0c0e 	andeq	r0, sp, lr, lsl #24
 3fc:	00000034 	andeq	r0, r0, r4, lsr r0
 400:	000003ec 	andeq	r0, r0, ip, ror #7
 404:	00009040 	andeq	r9, r0, r0, asr #32
 408:	00000058 	andeq	r0, r0, r8, asr r0
 40c:	80100e42 	andshi	r0, r0, r2, asr #28
 410:	82038104 	andhi	r8, r3, #1
 414:	42018302 	andmi	r8, r1, #134217728	; 0x8000000
 418:	07841c0e 	streq	r1, [r4, lr, lsl #24]
 41c:	058e0685 	streq	r0, [lr, #1669]	; 0x685
 420:	5a280e44 	bpl	a03d38 <__bss_end__+0x9f9270>
 424:	ce421c0e 	cdpgt	12, 4, cr1, cr2, cr14, {0}
 428:	100ec4c5 	andne	ip, lr, r5, asr #9
 42c:	c1c2c342 	bicgt	ip, r2, r2, asr #6
 430:	00000ec0 	andeq	r0, r0, r0, asr #29
 434:	0000000c 	andeq	r0, r0, ip
 438:	ffffffff 			; <UNDEFINED> instruction: 0xffffffff
 43c:	7c020001 	stcvc	0, cr0, [r2], {1}
 440:	000d0c0e 	andeq	r0, sp, lr, lsl #24
 444:	00000018 	andeq	r0, r0, r8, lsl r0
 448:	00000434 	andeq	r0, r0, r4, lsr r4
 44c:	00009098 	muleq	r0, r8, r0
 450:	00000038 	andeq	r0, r0, r8, lsr r0
 454:	84100e42 	ldrhi	r0, [r0], #-3650	; 0xfffff1be
 458:	86038504 	strhi	r8, [r3], -r4, lsl #10
 45c:	00018e02 	andeq	r8, r1, r2, lsl #28
 460:	0000000c 	andeq	r0, r0, ip
 464:	ffffffff 			; <UNDEFINED> instruction: 0xffffffff
 468:	7c020001 	stcvc	0, cr0, [r2], {1}
 46c:	000d0c0e 	andeq	r0, sp, lr, lsl #24
 470:	0000002c 	andeq	r0, r0, ip, lsr #32
 474:	00000460 	andeq	r0, r0, r0, ror #8
 478:	000090d0 	ldrdeq	r9, [r0], -r0
 47c:	00000328 	andeq	r0, r0, r8, lsr #6
 480:	84180e42 	ldrhi	r0, [r8], #-3650	; 0xfffff1be
 484:	86058506 	strhi	r8, [r5], -r6, lsl #10
 488:	88038704 	stmdahi	r3, {r2, r8, r9, sl, pc}
 48c:	46018e02 	strmi	r8, [r1], -r2, lsl #28
 490:	c002600e 	andgt	r6, r2, lr
 494:	42180e0a 	andsmi	r0, r8, #160	; 0xa0
 498:	0a8e020b 	beq	fe380ccc <__bss_end__+0xfe376204>
 49c:	0b42180e 	bleq	10864dc <__bss_end__+0x107ba14>
 4a0:	00000014 	andeq	r0, r0, r4, lsl r0
 4a4:	00000460 	andeq	r0, r0, r0, ror #8
 4a8:	000093f8 	strdeq	r9, [r0], -r8
 4ac:	00000060 	andeq	r0, r0, r0, rrx
 4b0:	8e040e52 	mcrhi	14, 0, r0, cr4, cr2, {2}
 4b4:	100e4401 	andne	r4, lr, r1, lsl #8
 4b8:	0000002c 	andeq	r0, r0, ip, lsr #32
 4bc:	00000460 	andeq	r0, r0, r0, ror #8
 4c0:	00009458 	andeq	r9, r0, r8, asr r4
 4c4:	0000062c 	andeq	r0, r0, ip, lsr #12
 4c8:	84240e42 	strthi	r0, [r4], #-3650	; 0xfffff1be
 4cc:	86088509 	strhi	r8, [r8], -r9, lsl #10
 4d0:	88068707 	stmdahi	r6, {r0, r1, r2, r8, r9, sl, pc}
 4d4:	8a048905 	bhi	1228f0 <__bss_end__+0x117e28>
 4d8:	8e028b03 	vmlahi.f64	d8, d2, d3
 4dc:	c00e5201 	andgt	r5, lr, r1, lsl #4
 4e0:	0a860202 	beq	fe180cf0 <__bss_end__+0xfe176228>
 4e4:	0b42240e 	bleq	1089524 <__bss_end__+0x107ea5c>
 4e8:	0000000c 	andeq	r0, r0, ip
 4ec:	ffffffff 			; <UNDEFINED> instruction: 0xffffffff
 4f0:	7c020001 	stcvc	0, cr0, [r2], {1}
 4f4:	000d0c0e 	andeq	r0, sp, lr, lsl #24
 4f8:	00000014 	andeq	r0, r0, r4, lsl r0
 4fc:	000004e8 	andeq	r0, r0, r8, ror #9
 500:	00009a84 	andeq	r9, r0, r4, lsl #21
 504:	0000002c 	andeq	r0, r0, ip, lsr #32
 508:	84080e44 	strhi	r0, [r8], #-3652	; 0xfffff1bc
 50c:	00018e02 	andeq	r8, r1, r2, lsl #28
 510:	0000000c 	andeq	r0, r0, ip
 514:	ffffffff 			; <UNDEFINED> instruction: 0xffffffff
 518:	7c020001 	stcvc	0, cr0, [r2], {1}
 51c:	000d0c0e 	andeq	r0, sp, lr, lsl #24
 520:	00000018 	andeq	r0, r0, r8, lsl r0
 524:	00000510 	andeq	r0, r0, r0, lsl r5
 528:	00009ab0 			; <UNDEFINED> instruction: 0x00009ab0
 52c:	00000128 	andeq	r0, r0, r8, lsr #2
 530:	84100e42 	ldrhi	r0, [r0], #-3650	; 0xfffff1be
 534:	86038504 	strhi	r8, [r3], -r4, lsl #10
 538:	00018e02 	andeq	r8, r1, r2, lsl #28
 53c:	0000000c 	andeq	r0, r0, ip
 540:	ffffffff 			; <UNDEFINED> instruction: 0xffffffff
 544:	7c020001 	stcvc	0, cr0, [r2], {1}
 548:	000d0c0e 	andeq	r0, sp, lr, lsl #24
 54c:	0000000c 	andeq	r0, r0, ip
 550:	0000053c 	andeq	r0, r0, ip, lsr r5
 554:	00009bd8 	ldrdeq	r9, [r0], -r8
 558:	00000004 	andeq	r0, r0, r4
 55c:	0000000c 	andeq	r0, r0, ip
 560:	ffffffff 			; <UNDEFINED> instruction: 0xffffffff
 564:	7c020001 	stcvc	0, cr0, [r2], {1}
 568:	000d0c0e 	andeq	r0, sp, lr, lsl #24
 56c:	0000000c 	andeq	r0, r0, ip
 570:	0000055c 	andeq	r0, r0, ip, asr r5
 574:	00009bf4 	strdeq	r9, [r0], -r4
 578:	00000018 	andeq	r0, r0, r8, lsl r0
 57c:	0000000c 	andeq	r0, r0, ip
 580:	0000055c 	andeq	r0, r0, ip, asr r5
 584:	00009c0c 	andeq	r9, r0, ip, lsl #24
 588:	00000014 	andeq	r0, r0, r4, lsl r0
 58c:	00000014 	andeq	r0, r0, r4, lsl r0
 590:	0000055c 	andeq	r0, r0, ip, asr r5
 594:	00009c20 	andeq	r9, r0, r0, lsr #24
 598:	00000060 	andeq	r0, r0, r0, rrx
 59c:	84080e42 	strhi	r0, [r8], #-3650	; 0xfffff1be
 5a0:	00018e02 	andeq	r8, r1, r2, lsl #28
 5a4:	0000000c 	andeq	r0, r0, ip
 5a8:	ffffffff 			; <UNDEFINED> instruction: 0xffffffff
 5ac:	7c020001 	stcvc	0, cr0, [r2], {1}
 5b0:	000d0c0e 	andeq	r0, sp, lr, lsl #24
 5b4:	0000000c 	andeq	r0, r0, ip
 5b8:	000005a4 	andeq	r0, r0, r4, lsr #11
 5bc:	00009c80 	andeq	r9, r0, r0, lsl #25
 5c0:	0000000c 	andeq	r0, r0, ip
 5c4:	00000014 	andeq	r0, r0, r4, lsl r0
 5c8:	000005a4 	andeq	r0, r0, r4, lsr #11
 5cc:	00009c8c 	andeq	r9, r0, ip, lsl #25
 5d0:	00000024 	andeq	r0, r0, r4, lsr #32
 5d4:	84080e42 	strhi	r0, [r8], #-3650	; 0xfffff1be
 5d8:	00018e02 	andeq	r8, r1, r2, lsl #28
 5dc:	0000001c 	andeq	r0, r0, ip, lsl r0
 5e0:	000005a4 	andeq	r0, r0, r4, lsr #11
 5e4:	00009cb0 			; <UNDEFINED> instruction: 0x00009cb0
 5e8:	00000048 	andeq	r0, r0, r8, asr #32
 5ec:	84180e42 	ldrhi	r0, [r8], #-3650	; 0xfffff1be
 5f0:	86058506 	strhi	r8, [r5], -r6, lsl #10
 5f4:	88038704 	stmdahi	r3, {r2, r8, r9, sl, pc}
 5f8:	00018e02 	andeq	r8, r1, r2, lsl #28
 5fc:	0000001c 	andeq	r0, r0, ip, lsl r0
 600:	000005a4 	andeq	r0, r0, r4, lsr #11
 604:	00009cf8 	strdeq	r9, [r0], -r8
 608:	00000050 	andeq	r0, r0, r0, asr r0
 60c:	84180e42 	ldrhi	r0, [r8], #-3650	; 0xfffff1be
 610:	86058506 	strhi	r8, [r5], -r6, lsl #10
 614:	88038704 	stmdahi	r3, {r2, r8, r9, sl, pc}
 618:	00018e02 	andeq	r8, r1, r2, lsl #28
 61c:	0000001c 	andeq	r0, r0, ip, lsl r0
 620:	000005a4 	andeq	r0, r0, r4, lsr #11
 624:	00009d48 	andeq	r9, r0, r8, asr #26
 628:	00000054 	andeq	r0, r0, r4, asr r0
 62c:	84180e42 	ldrhi	r0, [r8], #-3650	; 0xfffff1be
 630:	86058506 	strhi	r8, [r5], -r6, lsl #10
 634:	88038704 	stmdahi	r3, {r2, r8, r9, sl, pc}
 638:	00018e02 	andeq	r8, r1, r2, lsl #28
 63c:	0000000c 	andeq	r0, r0, ip
 640:	ffffffff 			; <UNDEFINED> instruction: 0xffffffff
 644:	7c020001 	stcvc	0, cr0, [r2], {1}
 648:	000d0c0e 	andeq	r0, sp, lr, lsl #24
 64c:	00000018 	andeq	r0, r0, r8, lsl r0
 650:	0000063c 	andeq	r0, r0, ip, lsr r6
 654:	00009d9c 	muleq	r0, ip, sp
 658:	00000020 	andeq	r0, r0, r0, lsr #32
 65c:	84100e42 	ldrhi	r0, [r0], #-3650	; 0xfffff1be
 660:	86038504 	strhi	r8, [r3], -r4, lsl #10
 664:	00018e02 	andeq	r8, r1, r2, lsl #28
 668:	00000018 	andeq	r0, r0, r8, lsl r0
 66c:	0000063c 	andeq	r0, r0, ip, lsr r6
 670:	00009dbc 			; <UNDEFINED> instruction: 0x00009dbc
 674:	00000020 	andeq	r0, r0, r0, lsr #32
 678:	84100e42 	ldrhi	r0, [r0], #-3650	; 0xfffff1be
 67c:	86038504 	strhi	r8, [r3], -r4, lsl #10
 680:	00018e02 	andeq	r8, r1, r2, lsl #28
 684:	00000014 	andeq	r0, r0, r4, lsl r0
 688:	0000063c 	andeq	r0, r0, ip, lsr r6
 68c:	00009ddc 	ldrdeq	r9, [r0], -ip
 690:	000000b0 	strheq	r0, [r0], -r0	; <UNPREDICTABLE>
 694:	84080e42 	strhi	r0, [r8], #-3650	; 0xfffff1be
 698:	00018e02 	andeq	r8, r1, r2, lsl #28
 69c:	00000014 	andeq	r0, r0, r4, lsl r0
 6a0:	0000063c 	andeq	r0, r0, ip, lsr r6
 6a4:	00009e8c 	andeq	r9, r0, ip, lsl #29
 6a8:	00000018 	andeq	r0, r0, r8, lsl r0
 6ac:	84080e42 	strhi	r0, [r8], #-3650	; 0xfffff1be
 6b0:	00018e02 	andeq	r8, r1, r2, lsl #28
 6b4:	00000014 	andeq	r0, r0, r4, lsl r0
 6b8:	0000063c 	andeq	r0, r0, ip, lsr r6
 6bc:	00009ea4 	andeq	r9, r0, r4, lsr #29
 6c0:	00000020 	andeq	r0, r0, r0, lsr #32
 6c4:	84080e42 	strhi	r0, [r8], #-3650	; 0xfffff1be
 6c8:	00018e02 	andeq	r8, r1, r2, lsl #28
 6cc:	00000014 	andeq	r0, r0, r4, lsl r0
 6d0:	0000063c 	andeq	r0, r0, ip, lsr r6
 6d4:	00009ec4 	andeq	r9, r0, r4, asr #29
 6d8:	00000030 	andeq	r0, r0, r0, lsr r0
 6dc:	84080e42 	strhi	r0, [r8], #-3650	; 0xfffff1be
 6e0:	00018e02 	andeq	r8, r1, r2, lsl #28
 6e4:	00000014 	andeq	r0, r0, r4, lsl r0
 6e8:	0000063c 	andeq	r0, r0, ip, lsr r6
 6ec:	00009ef4 	strdeq	r9, [r0], -r4
 6f0:	00000030 	andeq	r0, r0, r0, lsr r0
 6f4:	84080e42 	strhi	r0, [r8], #-3650	; 0xfffff1be
 6f8:	00018e02 	andeq	r8, r1, r2, lsl #28
 6fc:	00000014 	andeq	r0, r0, r4, lsl r0
 700:	0000063c 	andeq	r0, r0, ip, lsr r6
 704:	00009f24 	andeq	r9, r0, r4, lsr #30
 708:	00000010 	andeq	r0, r0, r0, lsl r0
 70c:	84080e42 	strhi	r0, [r8], #-3650	; 0xfffff1be
 710:	00018e02 	andeq	r8, r1, r2, lsl #28
 714:	00000014 	andeq	r0, r0, r4, lsl r0
 718:	0000063c 	andeq	r0, r0, ip, lsr r6
 71c:	00009f34 	andeq	r9, r0, r4, lsr pc
 720:	00000020 	andeq	r0, r0, r0, lsr #32
 724:	84080e42 	strhi	r0, [r8], #-3650	; 0xfffff1be
 728:	00018e02 	andeq	r8, r1, r2, lsl #28
 72c:	00000014 	andeq	r0, r0, r4, lsl r0
 730:	0000063c 	andeq	r0, r0, ip, lsr r6
 734:	00009f54 	andeq	r9, r0, r4, asr pc
 738:	00000014 	andeq	r0, r0, r4, lsl r0
 73c:	84080e42 	strhi	r0, [r8], #-3650	; 0xfffff1be
 740:	00018e02 	andeq	r8, r1, r2, lsl #28
 744:	00000014 	andeq	r0, r0, r4, lsl r0
 748:	0000063c 	andeq	r0, r0, ip, lsr r6
 74c:	00009f68 	andeq	r9, r0, r8, ror #30
 750:	00000024 	andeq	r0, r0, r4, lsr #32
 754:	84080e42 	strhi	r0, [r8], #-3650	; 0xfffff1be
 758:	00018e02 	andeq	r8, r1, r2, lsl #28
 75c:	0000000c 	andeq	r0, r0, ip
 760:	ffffffff 			; <UNDEFINED> instruction: 0xffffffff
 764:	7c020001 	stcvc	0, cr0, [r2], {1}
 768:	000d0c0e 	andeq	r0, sp, lr, lsl #24
 76c:	00000014 	andeq	r0, r0, r4, lsl r0
 770:	0000075c 	andeq	r0, r0, ip, asr r7
 774:	00009f8c 	andeq	r9, r0, ip, lsl #31
 778:	00000014 	andeq	r0, r0, r4, lsl r0
 77c:	84080e42 	strhi	r0, [r8], #-3650	; 0xfffff1be
 780:	00018e02 	andeq	r8, r1, r2, lsl #28
 784:	0000000c 	andeq	r0, r0, ip
 788:	0000075c 	andeq	r0, r0, ip, asr r7
 78c:	00009fa0 	andeq	r9, r0, r0, lsr #31
 790:	00000018 	andeq	r0, r0, r8, lsl r0
 794:	0000000c 	andeq	r0, r0, ip
 798:	0000075c 	andeq	r0, r0, ip, asr r7
 79c:	00009fb8 			; <UNDEFINED> instruction: 0x00009fb8
 7a0:	00000010 	andeq	r0, r0, r0, lsl r0
 7a4:	0000000c 	andeq	r0, r0, ip
 7a8:	ffffffff 			; <UNDEFINED> instruction: 0xffffffff
 7ac:	7c020001 	stcvc	0, cr0, [r2], {1}
 7b0:	000d0c0e 	andeq	r0, sp, lr, lsl #24
 7b4:	0000000c 	andeq	r0, r0, ip
 7b8:	000007a4 	andeq	r0, r0, r4, lsr #15
 7bc:	00009fc8 	andeq	r9, r0, r8, asr #31
 7c0:	0000002c 	andeq	r0, r0, ip, lsr #32
 7c4:	0000000c 	andeq	r0, r0, ip
 7c8:	ffffffff 			; <UNDEFINED> instruction: 0xffffffff
 7cc:	7c020001 	stcvc	0, cr0, [r2], {1}
 7d0:	000d0c0e 	andeq	r0, sp, lr, lsl #24
 7d4:	0000000c 	andeq	r0, r0, ip
 7d8:	000007c4 	andeq	r0, r0, r4, asr #15
 7dc:	00009ff4 	strdeq	r9, [r0], -r4
 7e0:	00000044 	andeq	r0, r0, r4, asr #32
 7e4:	0000000c 	andeq	r0, r0, ip
 7e8:	ffffffff 			; <UNDEFINED> instruction: 0xffffffff
 7ec:	7c020001 	stcvc	0, cr0, [r2], {1}
 7f0:	000d0c0e 	andeq	r0, sp, lr, lsl #24
 7f4:	0000000c 	andeq	r0, r0, ip
 7f8:	000007e4 	andeq	r0, r0, r4, ror #15
 7fc:	0000a038 	andeq	sl, r0, r8, lsr r0
 800:	00000018 	andeq	r0, r0, r8, lsl r0
 804:	0000000c 	andeq	r0, r0, ip
 808:	ffffffff 			; <UNDEFINED> instruction: 0xffffffff
 80c:	7c020001 	stcvc	0, cr0, [r2], {1}
 810:	000d0c0e 	andeq	r0, sp, lr, lsl #24
 814:	0000000c 	andeq	r0, r0, ip
 818:	00000804 	andeq	r0, r0, r4, lsl #16
 81c:	0000a050 	andeq	sl, r0, r0, asr r0
 820:	00000030 	andeq	r0, r0, r0, lsr r0
 824:	0000000c 	andeq	r0, r0, ip
 828:	ffffffff 			; <UNDEFINED> instruction: 0xffffffff
 82c:	7c020001 	stcvc	0, cr0, [r2], {1}
 830:	000d0c0e 	andeq	r0, sp, lr, lsl #24
 834:	0000000c 	andeq	r0, r0, ip
 838:	00000824 	andeq	r0, r0, r4, lsr #16
 83c:	0000a080 	andeq	sl, r0, r0, lsl #1
 840:	00000004 	andeq	r0, r0, r4
