
gyro.elf:     file format elf32-littlearm


Disassembly of section .text:

00008000 <__code_start__>:
    8000:	e3a00013 	mov	r0, #19, 0
    8004:	e3800080 	orr	r0, r0, #128, 0	; 0x80
    8008:	e129f000 	msr	CPSR_fc, r0
    800c:	e3a01000 	mov	r1, #0, 0
    8010:	ee071f95 	mcr	15, 0, r1, cr7, cr5, {4}
    8014:	e3a0d302 	mov	sp, #134217728	; 0x8000000
    8018:	e3a0b000 	mov	fp, #0, 0
    801c:	eb0006d0 	bl	9b64 <_cstart>
    8020:	eb00072b 	bl	9cd4 <rpi_reboot>

00008024 <PUT32>:
    8024:	e5801000 	str	r1, [r0]
    8028:	e12fff1e 	bx	lr

0000802c <GET32>:
    802c:	e5900000 	ldr	r0, [r0]
    8030:	e12fff1e 	bx	lr

00008034 <BRANCHTO>:
    8034:	e12fff10 	bx	r0

00008038 <mg_raw>:
    8038:	e1800401 	orr	r0, r0, r1, lsl #8
    803c:	e6bf0070 	sxth	r0, r0
    8040:	e12fff1e 	bx	lr

00008044 <mdps_scale_deg2>:
    8044:	e35100fa 	cmp	r1, #250, 0	; 0xfa
    8048:	0a00000a 	beq	8078 <mdps_scale_deg2+0x34>
    804c:	e3510f7d 	cmp	r1, #500	; 0x1f4
    8050:	1a000011 	bne	809c <mdps_scale_deg2+0x58>
    8054:	e0603280 	rsb	r3, r0, r0, lsl #5
    8058:	e0800103 	add	r0, r0, r3, lsl #2
    805c:	e1a00100 	lsl	r0, r0, #2
    8060:	e59f3058 	ldr	r3, [pc, #88]	; 80c0 <mdps_scale_deg2+0x7c>
    8064:	e0c32093 	smull	r2, r3, r3, r0
    8068:	e0833000 	add	r3, r3, r0
    806c:	e1a00fc0 	asr	r0, r0, #31
    8070:	e0600743 	rsb	r0, r0, r3, asr #14
    8074:	e12fff1e 	bx	lr
    8078:	e0603280 	rsb	r3, r0, r0, lsl #5
    807c:	e0800103 	add	r0, r0, r3, lsl #2
    8080:	e1a03080 	lsl	r3, r0, #1
    8084:	e59f0034 	ldr	r0, [pc, #52]	; 80c0 <mdps_scale_deg2+0x7c>
    8088:	e0c02390 	smull	r2, r0, r0, r3
    808c:	e0802003 	add	r2, r0, r3
    8090:	e1a00fc3 	asr	r0, r3, #31
    8094:	e0600742 	rsb	r0, r0, r2, asr #14
    8098:	e12fff1e 	bx	lr
    809c:	e52de004 	push	{lr}		; (str lr, [sp, #-4]!)
    80a0:	e24dd00c 	sub	sp, sp, #12, 0
    80a4:	e58d1000 	str	r1, [sp]
    80a8:	e3a0308e 	mov	r3, #142, 0	; 0x8e
    80ac:	e59f2010 	ldr	r2, [pc, #16]	; 80c4 <mdps_scale_deg2+0x80>
    80b0:	e59f1010 	ldr	r1, [pc, #16]	; 80c8 <mdps_scale_deg2+0x84>
    80b4:	e59f0010 	ldr	r0, [pc, #16]	; 80cc <mdps_scale_deg2+0x88>
    80b8:	eb00040d 	bl	90f4 <printk>
    80bc:	eb00069d 	bl	9b38 <clean_reboot>
    80c0:	80010003 	andhi	r0, r1, r3
    80c4:	0000a2f0 	strdeq	sl, [r0], -r0
    80c8:	0000a138 	andeq	sl, r0, r8, lsr r1
    80cc:	0000a140 	andeq	sl, r0, r0, asr #2

000080d0 <dps_to_scale>:
    80d0:	e3500f7d 	cmp	r0, #500	; 0x1f4
    80d4:	0a000015 	beq	8130 <dps_to_scale+0x60>
    80d8:	9a000005 	bls	80f4 <dps_to_scale+0x24>
    80dc:	e3500ffa 	cmp	r0, #1000	; 0x3e8
    80e0:	0a000016 	beq	8140 <dps_to_scale+0x70>
    80e4:	e3500e7d 	cmp	r0, #2000	; 0x7d0
    80e8:	1a000007 	bne	810c <dps_to_scale+0x3c>
    80ec:	e59f0054 	ldr	r0, [pc, #84]	; 8148 <dps_to_scale+0x78>
    80f0:	e12fff1e 	bx	lr
    80f4:	e35000f5 	cmp	r0, #245, 0	; 0xf5
    80f8:	0a00000e 	beq	8138 <dps_to_scale+0x68>
    80fc:	e35000fa 	cmp	r0, #250, 0	; 0xfa
    8100:	1a000001 	bne	810c <dps_to_scale+0x3c>
    8104:	e59f0040 	ldr	r0, [pc, #64]	; 814c <dps_to_scale+0x7c>
    8108:	e12fff1e 	bx	lr
    810c:	e52de004 	push	{lr}		; (str lr, [sp, #-4]!)
    8110:	e24dd00c 	sub	sp, sp, #12, 0
    8114:	e58d0000 	str	r0, [sp]
    8118:	e3a03083 	mov	r3, #131, 0	; 0x83
    811c:	e59f202c 	ldr	r2, [pc, #44]	; 8150 <dps_to_scale+0x80>
    8120:	e59f102c 	ldr	r1, [pc, #44]	; 8154 <dps_to_scale+0x84>
    8124:	e59f002c 	ldr	r0, [pc, #44]	; 8158 <dps_to_scale+0x88>
    8128:	eb0003f1 	bl	90f4 <printk>
    812c:	eb000681 	bl	9b38 <clean_reboot>
    8130:	e59f0024 	ldr	r0, [pc, #36]	; 815c <dps_to_scale+0x8c>
    8134:	e12fff1e 	bx	lr
    8138:	e59f000c 	ldr	r0, [pc, #12]	; 814c <dps_to_scale+0x7c>
    813c:	e12fff1e 	bx	lr
    8140:	e59f0018 	ldr	r0, [pc, #24]	; 8160 <dps_to_scale+0x90>
    8144:	e12fff1e 	bx	lr
    8148:	00011170 	andeq	r1, r1, r0, ror r1
    814c:	0000222e 	andeq	r2, r0, lr, lsr #4
    8150:	0000a300 	andeq	sl, r0, r0, lsl #6
    8154:	0000a138 	andeq	sl, r0, r8, lsr r1
    8158:	0000a15c 	andeq	sl, r0, ip, asr r1
    815c:	0000445c 	andeq	r4, r0, ip, asr r4
    8160:	000088b8 			; <UNDEFINED> instruction: 0x000088b8

00008164 <mdps_scale_deg>:
    8164:	e92d4010 	push	{r4, lr}
    8168:	e1a04000 	mov	r4, r0
    816c:	e1a00001 	mov	r0, r1
    8170:	ebffffd6 	bl	80d0 <dps_to_scale>
    8174:	e0000094 	mul	r0, r4, r0
    8178:	e59f300c 	ldr	r3, [pc, #12]	; 818c <mdps_scale_deg+0x28>
    817c:	e0c32093 	smull	r2, r3, r3, r0
    8180:	e1a00fc0 	asr	r0, r0, #31
    8184:	e0600343 	rsb	r0, r0, r3, asr #6
    8188:	e8bd8010 	pop	{r4, pc}
    818c:	10624dd3 	ldrdne	r4, [r2], #-211	; 0xffffff2d	; <UNPREDICTABLE>

00008190 <test_dps>:
    8190:	e92d4030 	push	{r4, r5, lr}
    8194:	e24dd014 	sub	sp, sp, #20, 0
    8198:	e1a04000 	mov	r4, r0
    819c:	e1a05003 	mov	r5, r3
    81a0:	e1a00002 	mov	r0, r2
    81a4:	ebffffa3 	bl	8038 <mg_raw>
    81a8:	e1a01005 	mov	r1, r5
    81ac:	ebffffec 	bl	8164 <mdps_scale_deg>
    81b0:	e1a02000 	mov	r2, r0
    81b4:	e0640284 	rsb	r0, r4, r4, lsl #5
    81b8:	e0844100 	add	r4, r4, r0, lsl #2
    81bc:	e1a01184 	lsl	r1, r4, #3
    81c0:	e0724184 	rsbs	r4, r2, r4, lsl #3
    81c4:	4a000007 	bmi	81e8 <test_dps+0x58>
    81c8:	e3540005 	cmp	r4, #5, 0
    81cc:	ca000007 	bgt	81f0 <test_dps+0x60>
    81d0:	e58d5000 	str	r5, [sp]
    81d4:	e3a03005 	mov	r3, #5, 0
    81d8:	e59f0034 	ldr	r0, [pc, #52]	; 8214 <test_dps+0x84>
    81dc:	eb0003c4 	bl	90f4 <printk>
    81e0:	e28dd014 	add	sp, sp, #20, 0
    81e4:	e8bd8030 	pop	{r4, r5, pc}
    81e8:	e0424001 	sub	r4, r2, r1
    81ec:	eafffff5 	b	81c8 <test_dps+0x38>
    81f0:	e58d5008 	str	r5, [sp, #8]
    81f4:	e58d2004 	str	r2, [sp, #4]
    81f8:	e58d1000 	str	r1, [sp]
    81fc:	e3a030a1 	mov	r3, #161, 0	; 0xa1
    8200:	e59f2010 	ldr	r2, [pc, #16]	; 8218 <test_dps+0x88>
    8204:	e59f1010 	ldr	r1, [pc, #16]	; 821c <test_dps+0x8c>
    8208:	e59f0010 	ldr	r0, [pc, #16]	; 8220 <test_dps+0x90>
    820c:	eb0003b8 	bl	90f4 <printk>
    8210:	eb000648 	bl	9b38 <clean_reboot>
    8214:	0000a1b4 			; <UNDEFINED> instruction: 0x0000a1b4
    8218:	0000a310 	andeq	sl, r0, r0, lsl r3
    821c:	0000a138 	andeq	sl, r0, r8, lsr r1
    8220:	0000a180 	andeq	sl, r0, r0, lsl #3

00008224 <xyz_print>:
    8224:	e52de004 	push	{lr}		; (str lr, [sp, #-4]!)
    8228:	e24dd01c 	sub	sp, sp, #28, 0
    822c:	e28dc018 	add	ip, sp, #24, 0
    8230:	e90c000e 	stmdb	ip, {r1, r2, r3}
    8234:	e59d3014 	ldr	r3, [sp, #20]
    8238:	e58d3000 	str	r3, [sp]
    823c:	e59d3010 	ldr	r3, [sp, #16]
    8240:	e59d200c 	ldr	r2, [sp, #12]
    8244:	e1a01000 	mov	r1, r0
    8248:	e59f0008 	ldr	r0, [pc, #8]	; 8258 <xyz_print+0x34>
    824c:	eb0003a8 	bl	90f4 <printk>
    8250:	e28dd01c 	add	sp, sp, #28, 0
    8254:	e49df004 	pop	{pc}		; (ldr pc, [sp], #4)
    8258:	0000a1e4 	andeq	sl, r0, r4, ror #3

0000825c <imu_rd>:
    825c:	e92d4010 	push	{r4, lr}
    8260:	e24dd010 	sub	sp, sp, #16, 0
    8264:	e1a04000 	mov	r4, r0
    8268:	e5cd1007 	strb	r1, [sp, #7]
    826c:	e3a02001 	mov	r2, #1, 0
    8270:	e28d1007 	add	r1, sp, #7, 0
    8274:	eb00023a 	bl	8b64 <i2c_write>
    8278:	e3a02001 	mov	r2, #1, 0
    827c:	e28d100f 	add	r1, sp, #15, 0
    8280:	e1a00004 	mov	r0, r4
    8284:	eb000264 	bl	8c1c <i2c_read>
    8288:	e5dd000f 	ldrb	r0, [sp, #15]
    828c:	e28dd010 	add	sp, sp, #16, 0
    8290:	e8bd8010 	pop	{r4, pc}

00008294 <imu_wr>:
    8294:	e52de004 	push	{lr}		; (str lr, [sp, #-4]!)
    8298:	e24dd00c 	sub	sp, sp, #12, 0
    829c:	e5cd1004 	strb	r1, [sp, #4]
    82a0:	e5cd2005 	strb	r2, [sp, #5]
    82a4:	e3a02002 	mov	r2, #2, 0
    82a8:	e28d1004 	add	r1, sp, #4, 0
    82ac:	eb00022c 	bl	8b64 <i2c_write>
    82b0:	e28dd00c 	add	sp, sp, #12, 0
    82b4:	e49df004 	pop	{pc}		; (ldr pc, [sp], #4)

000082b8 <imu_rd_n>:
    82b8:	e92d4070 	push	{r4, r5, r6, lr}
    82bc:	e24dd008 	sub	sp, sp, #8, 0
    82c0:	e1a04000 	mov	r4, r0
    82c4:	e1a05002 	mov	r5, r2
    82c8:	e1a06003 	mov	r6, r3
    82cc:	e5cd1007 	strb	r1, [sp, #7]
    82d0:	e3a02001 	mov	r2, #1, 0
    82d4:	e28d1007 	add	r1, sp, #7, 0
    82d8:	eb000221 	bl	8b64 <i2c_write>
    82dc:	e1a02006 	mov	r2, r6
    82e0:	e1a01005 	mov	r1, r5
    82e4:	e1a00004 	mov	r0, r4
    82e8:	eb00024b 	bl	8c1c <i2c_read>
    82ec:	e28dd008 	add	sp, sp, #8, 0
    82f0:	e8bd8070 	pop	{r4, r5, r6, pc}

000082f4 <mpu6500_gyro_init>:
    82f4:	e92d40f0 	push	{r4, r5, r6, r7, lr}
    82f8:	e24dd00c 	sub	sp, sp, #12, 0
    82fc:	e1a05000 	mov	r5, r0
    8300:	e1a06001 	mov	r6, r1
    8304:	e1a04002 	mov	r4, r2
    8308:	e3520003 	cmp	r2, #3, 0
    830c:	979ff102 	ldrls	pc, [pc, r2, lsl #2]
    8310:	ea000007 	b	8334 <mpu6500_gyro_init+0x40>
    8314:	00008354 	andeq	r8, r0, r4, asr r3
    8318:	00008398 	muleq	r0, r8, r3
    831c:	00008324 	andeq	r8, r0, r4, lsr #6
    8320:	0000832c 	andeq	r8, r0, ip, lsr #6
    8324:	e3a07ffa 	mov	r7, #1000	; 0x3e8
    8328:	ea00000a 	b	8358 <mpu6500_gyro_init+0x64>
    832c:	e3a07e7d 	mov	r7, #2000	; 0x7d0
    8330:	ea000008 	b	8358 <mpu6500_gyro_init+0x64>
    8334:	e3a03000 	mov	r3, #0, 0
    8338:	e58d3000 	str	r3, [sp]
    833c:	e3a0306b 	mov	r3, #107, 0	; 0x6b
    8340:	e59f2058 	ldr	r2, [pc, #88]	; 83a0 <mpu6500_gyro_init+0xac>
    8344:	e59f1058 	ldr	r1, [pc, #88]	; 83a4 <mpu6500_gyro_init+0xb0>
    8348:	e59f0058 	ldr	r0, [pc, #88]	; 83a8 <mpu6500_gyro_init+0xb4>
    834c:	eb000368 	bl	90f4 <printk>
    8350:	eb0005f8 	bl	9b38 <clean_reboot>
    8354:	e3a070fa 	mov	r7, #250, 0	; 0xfa
    8358:	e3a02004 	mov	r2, #4, 0
    835c:	e3a0101a 	mov	r1, #26, 0
    8360:	e1a00006 	mov	r0, r6
    8364:	ebffffca 	bl	8294 <imu_wr>
    8368:	e1a02184 	lsl	r2, r4, #3
    836c:	e20220f8 	and	r2, r2, #248, 0	; 0xf8
    8370:	e3a0101b 	mov	r1, #27, 0
    8374:	e1a00006 	mov	r0, r6
    8378:	ebffffc5 	bl	8294 <imu_wr>
    837c:	e5c56000 	strb	r6, [r5]
    8380:	e3a03014 	mov	r3, #20, 0
    8384:	e5853004 	str	r3, [r5, #4]
    8388:	e5857008 	str	r7, [r5, #8]
    838c:	e1a00005 	mov	r0, r5
    8390:	e28dd00c 	add	sp, sp, #12, 0
    8394:	e8bd80f0 	pop	{r4, r5, r6, r7, pc}
    8398:	e3a07f7d 	mov	r7, #500	; 0x1f4
    839c:	eaffffed 	b	8358 <mpu6500_gyro_init+0x64>
    83a0:	0000a31c 	andeq	sl, r0, ip, lsl r3
    83a4:	0000a138 	andeq	sl, r0, r8, lsr r1
    83a8:	0000a1fc 	strdeq	sl, [r0], -ip

000083ac <gyro_has_data>:
    83ac:	e3a00001 	mov	r0, #1, 0
    83b0:	e12fff1e 	bx	lr

000083b4 <gyro_rd>:
    83b4:	e92d41f0 	push	{r4, r5, r6, r7, r8, lr}
    83b8:	e1a05000 	mov	r5, r0
    83bc:	e1a04001 	mov	r4, r1
    83c0:	e5d16000 	ldrb	r6, [r1]
    83c4:	e1a00004 	mov	r0, r4
    83c8:	ebfffff7 	bl	83ac <gyro_has_data>
    83cc:	e3500000 	cmp	r0, #0, 0
    83d0:	0afffffb 	beq	83c4 <gyro_rd+0x10>
    83d4:	e3a01043 	mov	r1, #67, 0	; 0x43
    83d8:	e1a00006 	mov	r0, r6
    83dc:	ebffff9e 	bl	825c <imu_rd>
    83e0:	e1a04000 	mov	r4, r0
    83e4:	e3a01043 	mov	r1, #67, 0	; 0x43
    83e8:	e1a00006 	mov	r0, r6
    83ec:	ebffff9a 	bl	825c <imu_rd>
    83f0:	e1a01000 	mov	r1, r0
    83f4:	e1a00004 	mov	r0, r4
    83f8:	ebffff0e 	bl	8038 <mg_raw>
    83fc:	e1a07000 	mov	r7, r0
    8400:	e3a01045 	mov	r1, #69, 0	; 0x45
    8404:	e1a00006 	mov	r0, r6
    8408:	ebffff93 	bl	825c <imu_rd>
    840c:	e1a04000 	mov	r4, r0
    8410:	e3a01045 	mov	r1, #69, 0	; 0x45
    8414:	e1a00006 	mov	r0, r6
    8418:	ebffff8f 	bl	825c <imu_rd>
    841c:	e1a01000 	mov	r1, r0
    8420:	e1a00004 	mov	r0, r4
    8424:	ebffff03 	bl	8038 <mg_raw>
    8428:	e1a04000 	mov	r4, r0
    842c:	e3a01047 	mov	r1, #71, 0	; 0x47
    8430:	e1a00006 	mov	r0, r6
    8434:	ebffff88 	bl	825c <imu_rd>
    8438:	e1a08000 	mov	r8, r0
    843c:	e3a01047 	mov	r1, #71, 0	; 0x47
    8440:	e1a00006 	mov	r0, r6
    8444:	ebffff84 	bl	825c <imu_rd>
    8448:	e1a01000 	mov	r1, r0
    844c:	e1a00008 	mov	r0, r8
    8450:	ebfffef8 	bl	8038 <mg_raw>
    8454:	e5857000 	str	r7, [r5]
    8458:	e5854004 	str	r4, [r5, #4]
    845c:	e5850008 	str	r0, [r5, #8]
    8460:	e1a00005 	mov	r0, r5
    8464:	e8bd81f0 	pop	{r4, r5, r6, r7, r8, pc}

00008468 <gyro_scale>:
    8468:	e24dd008 	sub	sp, sp, #8, 0
    846c:	e92d41f0 	push	{r4, r5, r6, r7, r8, lr}
    8470:	e1a04000 	mov	r4, r0
    8474:	e28d0014 	add	r0, sp, #20, 0
    8478:	e980000c 	stmib	r0, {r2, r3}
    847c:	e5917008 	ldr	r7, [r1, #8]
    8480:	e1a01007 	mov	r1, r7
    8484:	e59d0018 	ldr	r0, [sp, #24]
    8488:	ebfffeed 	bl	8044 <mdps_scale_deg2>
    848c:	e1a06000 	mov	r6, r0
    8490:	e1a01007 	mov	r1, r7
    8494:	e59d001c 	ldr	r0, [sp, #28]
    8498:	ebfffee9 	bl	8044 <mdps_scale_deg2>
    849c:	e1a05000 	mov	r5, r0
    84a0:	e1a01007 	mov	r1, r7
    84a4:	e59d0020 	ldr	r0, [sp, #32]
    84a8:	ebfffee5 	bl	8044 <mdps_scale_deg2>
    84ac:	e5846000 	str	r6, [r4]
    84b0:	e5845004 	str	r5, [r4, #4]
    84b4:	e5840008 	str	r0, [r4, #8]
    84b8:	e1a00004 	mov	r0, r4
    84bc:	e8bd41f0 	pop	{r4, r5, r6, r7, r8, lr}
    84c0:	e28dd008 	add	sp, sp, #8, 0
    84c4:	e12fff1e 	bx	lr

000084c8 <mpu6500_reset>:
    84c8:	e92d4010 	push	{r4, lr}
    84cc:	e3a02001 	mov	r2, #1, 0
    84d0:	e3a0106b 	mov	r1, #107, 0	; 0x6b
    84d4:	ebffff6e 	bl	8294 <imu_wr>
    84d8:	e3a00064 	mov	r0, #100, 0	; 0x64
    84dc:	eb000632 	bl	9dac <delay_ms>
    84e0:	e8bd8010 	pop	{r4, pc}

000084e4 <notmain>:
    84e4:	e92d4070 	push	{r4, r5, r6, lr}
    84e8:	e24dd038 	sub	sp, sp, #56, 0	; 0x38
    84ec:	e3a00064 	mov	r0, #100, 0	; 0x64
    84f0:	eb00062d 	bl	9dac <delay_ms>
    84f4:	eb000269 	bl	8ea0 <i2c_init>
    84f8:	e3a00064 	mov	r0, #100, 0	; 0x64
    84fc:	eb00062a 	bl	9dac <delay_ms>
    8500:	e3a01075 	mov	r1, #117, 0	; 0x75
    8504:	e3a00068 	mov	r0, #104, 0	; 0x68
    8508:	ebffff53 	bl	825c <imu_rd>
    850c:	e1a01000 	mov	r1, r0
    8510:	e2403070 	sub	r3, r0, #112, 0	; 0x70
    8514:	e6ef3073 	uxtb	r3, r3
    8518:	e3500068 	cmp	r0, #104, 0	; 0x68
    851c:	13530001 	cmpne	r3, #1, 0
    8520:	8a000039 	bhi	860c <notmain+0x128>
    8524:	e59f013c 	ldr	r0, [pc, #316]	; 8668 <notmain+0x184>
    8528:	eb0002f1 	bl	90f4 <printk>
    852c:	e3a00068 	mov	r0, #104, 0	; 0x68
    8530:	ebffffe4 	bl	84c8 <mpu6500_reset>
    8534:	e3a030f5 	mov	r3, #245, 0	; 0xf5
    8538:	e3a02000 	mov	r2, #0, 0
    853c:	e1a01002 	mov	r1, r2
    8540:	e1a00002 	mov	r0, r2
    8544:	ebffff11 	bl	8190 <test_dps>
    8548:	e3a030f5 	mov	r3, #245, 0	; 0xf5
    854c:	e3a020a4 	mov	r2, #164, 0	; 0xa4
    8550:	e3a0102c 	mov	r1, #44, 0	; 0x2c
    8554:	e3a00064 	mov	r0, #100, 0	; 0x64
    8558:	ebffff0c 	bl	8190 <test_dps>
    855c:	e3a030f5 	mov	r3, #245, 0	; 0xf5
    8560:	e3a02049 	mov	r2, #73, 0	; 0x49
    8564:	e3a01059 	mov	r1, #89, 0	; 0x59
    8568:	e3a000c8 	mov	r0, #200, 0	; 0xc8
    856c:	ebffff07 	bl	8190 <test_dps>
    8570:	e3a030f5 	mov	r3, #245, 0	; 0xf5
    8574:	e3a0205c 	mov	r2, #92, 0	; 0x5c
    8578:	e3a010d3 	mov	r1, #211, 0	; 0xd3
    857c:	e3e00063 	mvn	r0, #99, 0	; 0x63
    8580:	ebffff02 	bl	8190 <test_dps>
    8584:	e3a02000 	mov	r2, #0, 0
    8588:	e3a01068 	mov	r1, #104, 0	; 0x68
    858c:	e28d0020 	add	r0, sp, #32, 0
    8590:	ebffff57 	bl	82f4 <mpu6500_gyro_init>
    8594:	e59d3028 	ldr	r3, [sp, #40]	; 0x28
    8598:	e35300fa 	cmp	r3, #250, 0	; 0xfa
    859c:	1a000027 	bne	8640 <notmain+0x15c>
    85a0:	e3a06000 	mov	r6, #0, 0
    85a4:	e3560063 	cmp	r6, #99, 0	; 0x63
    85a8:	ca00002c 	bgt	8660 <notmain+0x17c>
    85ac:	e28d4014 	add	r4, sp, #20, 0
    85b0:	e28d1020 	add	r1, sp, #32, 0
    85b4:	e1a00004 	mov	r0, r4
    85b8:	ebffff7d 	bl	83b4 <gyro_rd>
    85bc:	e1a01006 	mov	r1, r6
    85c0:	e59f00a4 	ldr	r0, [pc, #164]	; 866c <notmain+0x188>
    85c4:	eb0002ca 	bl	90f4 <printk>
    85c8:	e894000e 	ldm	r4, {r1, r2, r3}
    85cc:	e59f009c 	ldr	r0, [pc, #156]	; 8670 <notmain+0x18c>
    85d0:	ebffff13 	bl	8224 <xyz_print>
    85d4:	e28d502c 	add	r5, sp, #44, 0	; 0x2c
    85d8:	e59d301c 	ldr	r3, [sp, #28]
    85dc:	e58d3000 	str	r3, [sp]
    85e0:	e894000c 	ldm	r4, {r2, r3}
    85e4:	e28d1020 	add	r1, sp, #32, 0
    85e8:	e1a00005 	mov	r0, r5
    85ec:	ebffff9d 	bl	8468 <gyro_scale>
    85f0:	e895000e 	ldm	r5, {r1, r2, r3}
    85f4:	e59f0078 	ldr	r0, [pc, #120]	; 8674 <notmain+0x190>
    85f8:	ebffff09 	bl	8224 <xyz_print>
    85fc:	e3a00ffa 	mov	r0, #1000	; 0x3e8
    8600:	eb0005e9 	bl	9dac <delay_ms>
    8604:	e2866001 	add	r6, r6, #1, 0
    8608:	eaffffe5 	b	85a4 <notmain+0xc0>
    860c:	e58d000c 	str	r0, [sp, #12]
    8610:	e3a03068 	mov	r3, #104, 0	; 0x68
    8614:	e58d3008 	str	r3, [sp, #8]
    8618:	e3a03071 	mov	r3, #113, 0	; 0x71
    861c:	e58d3004 	str	r3, [sp, #4]
    8620:	e3a03070 	mov	r3, #112, 0	; 0x70
    8624:	e58d3000 	str	r3, [sp]
    8628:	e3a030e3 	mov	r3, #227, 0	; 0xe3
    862c:	e59f2044 	ldr	r2, [pc, #68]	; 8678 <notmain+0x194>
    8630:	e59f1044 	ldr	r1, [pc, #68]	; 867c <notmain+0x198>
    8634:	e59f0044 	ldr	r0, [pc, #68]	; 8680 <notmain+0x19c>
    8638:	eb0002ad 	bl	90f4 <printk>
    863c:	eb00053d 	bl	9b38 <clean_reboot>
    8640:	e59f303c 	ldr	r3, [pc, #60]	; 8684 <notmain+0x1a0>
    8644:	e58d3000 	str	r3, [sp]
    8648:	e3a030f7 	mov	r3, #247, 0	; 0xf7
    864c:	e59f2024 	ldr	r2, [pc, #36]	; 8678 <notmain+0x194>
    8650:	e59f1024 	ldr	r1, [pc, #36]	; 867c <notmain+0x198>
    8654:	e59f002c 	ldr	r0, [pc, #44]	; 8688 <notmain+0x1a4>
    8658:	eb0002a5 	bl	90f4 <printk>
    865c:	eb000535 	bl	9b38 <clean_reboot>
    8660:	e28dd038 	add	sp, sp, #56, 0	; 0x38
    8664:	e8bd8070 	pop	{r4, r5, r6, pc}
    8668:	0000a268 	andeq	sl, r0, r8, ror #4
    866c:	0000a2c0 	andeq	sl, r0, r0, asr #5
    8670:	0000a2d4 	ldrdeq	sl, [r0], -r4
    8674:	0000a2dc 	ldrdeq	sl, [r0], -ip
    8678:	0000a330 	andeq	sl, r0, r0, lsr r3
    867c:	0000a138 	andeq	sl, r0, r8, lsr r1
    8680:	0000a220 	andeq	sl, r0, r0, lsr #4
    8684:	0000a2b4 			; <UNDEFINED> instruction: 0x0000a2b4
    8688:	0000a2a0 	andeq	sl, r0, r0, lsr #5

0000868c <clear_c>:
    868c:	e3c00b1e 	bic	r0, r0, #30720	; 0x7800
    8690:	e3c0004e 	bic	r0, r0, #78, 0	; 0x4e
    8694:	e6ff0070 	uxth	r0, r0
    8698:	e12fff1e 	bx	lr

0000869c <clear_s>:
    869c:	e1a00b00 	lsl	r0, r0, #22
    86a0:	e1a00b20 	lsr	r0, r0, #22
    86a4:	e12fff1e 	bx	lr

000086a8 <check_layout>:
    86a8:	e52de004 	push	{lr}		; (str lr, [sp, #-4]!)
    86ac:	e49df004 	pop	{pc}		; (ldr pc, [sp], #4)

000086b0 <xfer_end>:
    86b0:	e52de004 	push	{lr}		; (str lr, [sp, #-4]!)
    86b4:	e24dd00c 	sub	sp, sp, #12, 0
    86b8:	e59f30c4 	ldr	r3, [pc, #196]	; 8784 <xfer_end+0xd4>
    86bc:	e5933004 	ldr	r3, [r3, #4]
    86c0:	e3130002 	tst	r3, #2, 0
    86c4:	1a000013 	bne	8718 <xfer_end+0x68>
    86c8:	e59f30b4 	ldr	r3, [pc, #180]	; 8784 <xfer_end+0xd4>
    86cc:	e5933004 	ldr	r3, [r3, #4]
    86d0:	e3130c01 	tst	r3, #256	; 0x100
    86d4:	1a000009 	bne	8700 <xfer_end+0x50>
    86d8:	e59f30a4 	ldr	r3, [pc, #164]	; 8784 <xfer_end+0xd4>
    86dc:	e5933004 	ldr	r3, [r3, #4]
    86e0:	e3130c02 	tst	r3, #512	; 0x200
    86e4:	0afffff3 	beq	86b8 <xfer_end+0x8>
    86e8:	e3a03f46 	mov	r3, #280	; 0x118
    86ec:	e59f2094 	ldr	r2, [pc, #148]	; 8788 <xfer_end+0xd8>
    86f0:	e59f1094 	ldr	r1, [pc, #148]	; 878c <xfer_end+0xdc>
    86f4:	e59f0094 	ldr	r0, [pc, #148]	; 8790 <xfer_end+0xe0>
    86f8:	eb00027d 	bl	90f4 <printk>
    86fc:	eb00050d 	bl	9b38 <clean_reboot>
    8700:	e3a03f46 	mov	r3, #280	; 0x118
    8704:	e59f207c 	ldr	r2, [pc, #124]	; 8788 <xfer_end+0xd8>
    8708:	e59f107c 	ldr	r1, [pc, #124]	; 878c <xfer_end+0xdc>
    870c:	e59f0080 	ldr	r0, [pc, #128]	; 8794 <xfer_end+0xe4>
    8710:	eb000277 	bl	90f4 <printk>
    8714:	eb000507 	bl	9b38 <clean_reboot>
    8718:	e59f3064 	ldr	r3, [pc, #100]	; 8784 <xfer_end+0xd4>
    871c:	e5933004 	ldr	r3, [r3, #4]
    8720:	e3130001 	tst	r3, #1, 0
    8724:	1a000006 	bne	8744 <xfer_end+0x94>
    8728:	e59f3054 	ldr	r3, [pc, #84]	; 8784 <xfer_end+0xd4>
    872c:	e5933004 	ldr	r3, [r3, #4]
    8730:	e3130c01 	tst	r3, #256	; 0x100
    8734:	1a00000a 	bne	8764 <xfer_end+0xb4>
    8738:	eb000554 	bl	9c90 <dev_barrier>
    873c:	e28dd00c 	add	sp, sp, #12, 0
    8740:	e49df004 	pop	{pc}		; (ldr pc, [sp], #4)
    8744:	e59f304c 	ldr	r3, [pc, #76]	; 8798 <xfer_end+0xe8>
    8748:	e58d3000 	str	r3, [sp]
    874c:	e59f3048 	ldr	r3, [pc, #72]	; 879c <xfer_end+0xec>
    8750:	e59f2030 	ldr	r2, [pc, #48]	; 8788 <xfer_end+0xd8>
    8754:	e59f1030 	ldr	r1, [pc, #48]	; 878c <xfer_end+0xdc>
    8758:	e59f0040 	ldr	r0, [pc, #64]	; 87a0 <xfer_end+0xf0>
    875c:	eb000264 	bl	90f4 <printk>
    8760:	eb0004f4 	bl	9b38 <clean_reboot>
    8764:	e59f3038 	ldr	r3, [pc, #56]	; 87a4 <xfer_end+0xf4>
    8768:	e58d3000 	str	r3, [sp]
    876c:	e59f3034 	ldr	r3, [pc, #52]	; 87a8 <xfer_end+0xf8>
    8770:	e59f2010 	ldr	r2, [pc, #16]	; 8788 <xfer_end+0xd8>
    8774:	e59f1010 	ldr	r1, [pc, #16]	; 878c <xfer_end+0xdc>
    8778:	e59f0020 	ldr	r0, [pc, #32]	; 87a0 <xfer_end+0xf0>
    877c:	eb00025c 	bl	90f4 <printk>
    8780:	eb0004ec 	bl	9b38 <clean_reboot>
    8784:	20804000 	addcs	r4, r0, r0
    8788:	0000a598 	muleq	r0, r8, r5
    878c:	0000a338 	andeq	sl, r0, r8, lsr r3
    8790:	0000a454 	andeq	sl, r0, r4, asr r4
    8794:	0000a430 	andeq	sl, r0, r0, lsr r4
    8798:	0000a484 	andeq	sl, r0, r4, lsl #9
    879c:	0000011b 	andeq	r0, r0, fp, lsl r1
    87a0:	0000a2a0 	andeq	sl, r0, r0, lsr #5
    87a4:	0000a498 	muleq	r0, r8, r4
    87a8:	0000011d 	andeq	r0, r0, sp, lsl r1

000087ac <read_s>:
    87ac:	e92d4010 	push	{r4, lr}
    87b0:	ebfffe1d 	bl	802c <GET32>
    87b4:	ebffffb8 	bl	869c <clear_s>
    87b8:	e8bd8010 	pop	{r4, pc}

000087bc <reset_status>:
    87bc:	e92d4010 	push	{r4, lr}
    87c0:	e59f4018 	ldr	r4, [pc, #24]	; 87e0 <reset_status+0x24>
    87c4:	e1a00004 	mov	r0, r4
    87c8:	ebfffff7 	bl	87ac <read_s>
    87cc:	e3801c03 	orr	r1, r0, #768	; 0x300
    87d0:	e3811002 	orr	r1, r1, #2, 0
    87d4:	e1a00004 	mov	r0, r4
    87d8:	ebfffe11 	bl	8024 <PUT32>
    87dc:	e8bd8010 	pop	{r4, pc}
    87e0:	20804004 	addcs	r4, r0, r4

000087e4 <read_c>:
    87e4:	e92d4010 	push	{r4, lr}
    87e8:	ebfffe0f 	bl	802c <GET32>
    87ec:	ebffffa6 	bl	868c <clear_c>
    87f0:	e8bd8010 	pop	{r4, pc}

000087f4 <xfer_start>:
    87f4:	e92d4070 	push	{r4, r5, r6, lr}
    87f8:	e24dd008 	sub	sp, sp, #8, 0
    87fc:	e1a06000 	mov	r6, r0
    8800:	e1a05001 	mov	r5, r1
    8804:	e1a04002 	mov	r4, r2
    8808:	eb000520 	bl	9c90 <dev_barrier>
    880c:	e59f3180 	ldr	r3, [pc, #384]	; 8994 <xfer_start+0x1a0>
    8810:	e5933004 	ldr	r3, [r3, #4]
    8814:	e3130001 	tst	r3, #1, 0
    8818:	0a000013 	beq	886c <xfer_start+0x78>
    881c:	e59f3170 	ldr	r3, [pc, #368]	; 8994 <xfer_start+0x1a0>
    8820:	e5933004 	ldr	r3, [r3, #4]
    8824:	e3130c01 	tst	r3, #256	; 0x100
    8828:	1a000009 	bne	8854 <xfer_start+0x60>
    882c:	e59f3160 	ldr	r3, [pc, #352]	; 8994 <xfer_start+0x1a0>
    8830:	e5933004 	ldr	r3, [r3, #4]
    8834:	e3130c02 	tst	r3, #512	; 0x200
    8838:	0afffff3 	beq	880c <xfer_start+0x18>
    883c:	e3a030f7 	mov	r3, #247, 0	; 0xf7
    8840:	e59f2150 	ldr	r2, [pc, #336]	; 8998 <xfer_start+0x1a4>
    8844:	e59f1150 	ldr	r1, [pc, #336]	; 899c <xfer_start+0x1a8>
    8848:	e59f0150 	ldr	r0, [pc, #336]	; 89a0 <xfer_start+0x1ac>
    884c:	eb000228 	bl	90f4 <printk>
    8850:	eb0004b8 	bl	9b38 <clean_reboot>
    8854:	e3a030f7 	mov	r3, #247, 0	; 0xf7
    8858:	e59f2138 	ldr	r2, [pc, #312]	; 8998 <xfer_start+0x1a4>
    885c:	e59f1138 	ldr	r1, [pc, #312]	; 899c <xfer_start+0x1a8>
    8860:	e59f013c 	ldr	r0, [pc, #316]	; 89a4 <xfer_start+0x1b0>
    8864:	eb000222 	bl	90f4 <printk>
    8868:	eb0004b2 	bl	9b38 <clean_reboot>
    886c:	e59f3120 	ldr	r3, [pc, #288]	; 8994 <xfer_start+0x1a0>
    8870:	e5933004 	ldr	r3, [r3, #4]
    8874:	e3130040 	tst	r3, #64, 0	; 0x40
    8878:	0a000025 	beq	8914 <xfer_start+0x120>
    887c:	ebffffce 	bl	87bc <reset_status>
    8880:	e1b033a6 	lsrs	r3, r6, #7
    8884:	1a00002a 	bne	8934 <xfer_start+0x140>
    8888:	e1a01006 	mov	r1, r6
    888c:	e59f0114 	ldr	r0, [pc, #276]	; 89a8 <xfer_start+0x1b4>
    8890:	ebfffde3 	bl	8024 <PUT32>
    8894:	e1b03825 	lsrs	r3, r5, #16
    8898:	1a00002d 	bne	8954 <xfer_start+0x160>
    889c:	e1a01005 	mov	r1, r5
    88a0:	e59f0104 	ldr	r0, [pc, #260]	; 89ac <xfer_start+0x1b8>
    88a4:	ebfffdde 	bl	8024 <PUT32>
    88a8:	e59f50e4 	ldr	r5, [pc, #228]	; 8994 <xfer_start+0x1a0>
    88ac:	e1a00005 	mov	r0, r5
    88b0:	ebffffcb 	bl	87e4 <read_c>
    88b4:	e38030b0 	orr	r3, r0, #176, 0	; 0xb0
    88b8:	e2041001 	and	r1, r4, #1, 0
    88bc:	e3c33001 	bic	r3, r3, #1, 0
    88c0:	e1811003 	orr	r1, r1, r3
    88c4:	e1a00005 	mov	r0, r5
    88c8:	ebfffdd5 	bl	8024 <PUT32>
    88cc:	e59f30c0 	ldr	r3, [pc, #192]	; 8994 <xfer_start+0x1a0>
    88d0:	e5933004 	ldr	r3, [r3, #4]
    88d4:	e3130001 	tst	r3, #1, 0
    88d8:	1a00002b 	bne	898c <xfer_start+0x198>
    88dc:	e59f30b0 	ldr	r3, [pc, #176]	; 8994 <xfer_start+0x1a0>
    88e0:	e5933004 	ldr	r3, [r3, #4]
    88e4:	e3130c01 	tst	r3, #256	; 0x100
    88e8:	1a000021 	bne	8974 <xfer_start+0x180>
    88ec:	e59f30a0 	ldr	r3, [pc, #160]	; 8994 <xfer_start+0x1a0>
    88f0:	e5933004 	ldr	r3, [r3, #4]
    88f4:	e3130c02 	tst	r3, #512	; 0x200
    88f8:	0afffff3 	beq	88cc <xfer_start+0xd8>
    88fc:	e59f30ac 	ldr	r3, [pc, #172]	; 89b0 <xfer_start+0x1bc>
    8900:	e59f2090 	ldr	r2, [pc, #144]	; 8998 <xfer_start+0x1a4>
    8904:	e59f1090 	ldr	r1, [pc, #144]	; 899c <xfer_start+0x1a8>
    8908:	e59f0090 	ldr	r0, [pc, #144]	; 89a0 <xfer_start+0x1ac>
    890c:	eb0001f8 	bl	90f4 <printk>
    8910:	eb000488 	bl	9b38 <clean_reboot>
    8914:	e59f3098 	ldr	r3, [pc, #152]	; 89b4 <xfer_start+0x1c0>
    8918:	e58d3000 	str	r3, [sp]
    891c:	e3a030fa 	mov	r3, #250, 0	; 0xfa
    8920:	e59f2070 	ldr	r2, [pc, #112]	; 8998 <xfer_start+0x1a4>
    8924:	e59f1070 	ldr	r1, [pc, #112]	; 899c <xfer_start+0x1a8>
    8928:	e59f0088 	ldr	r0, [pc, #136]	; 89b8 <xfer_start+0x1c4>
    892c:	eb0001f0 	bl	90f4 <printk>
    8930:	eb000480 	bl	9b38 <clean_reboot>
    8934:	e59f3080 	ldr	r3, [pc, #128]	; 89bc <xfer_start+0x1c8>
    8938:	e58d3000 	str	r3, [sp]
    893c:	e3a030ff 	mov	r3, #255, 0	; 0xff
    8940:	e59f2050 	ldr	r2, [pc, #80]	; 8998 <xfer_start+0x1a4>
    8944:	e59f1050 	ldr	r1, [pc, #80]	; 899c <xfer_start+0x1a8>
    8948:	e59f0068 	ldr	r0, [pc, #104]	; 89b8 <xfer_start+0x1c4>
    894c:	eb0001e8 	bl	90f4 <printk>
    8950:	eb000478 	bl	9b38 <clean_reboot>
    8954:	e59f3064 	ldr	r3, [pc, #100]	; 89c0 <xfer_start+0x1cc>
    8958:	e58d3000 	str	r3, [sp]
    895c:	e59f3060 	ldr	r3, [pc, #96]	; 89c4 <xfer_start+0x1d0>
    8960:	e59f2030 	ldr	r2, [pc, #48]	; 8998 <xfer_start+0x1a4>
    8964:	e59f1030 	ldr	r1, [pc, #48]	; 899c <xfer_start+0x1a8>
    8968:	e59f0048 	ldr	r0, [pc, #72]	; 89b8 <xfer_start+0x1c4>
    896c:	eb0001e0 	bl	90f4 <printk>
    8970:	eb000470 	bl	9b38 <clean_reboot>
    8974:	e59f3034 	ldr	r3, [pc, #52]	; 89b0 <xfer_start+0x1bc>
    8978:	e59f2018 	ldr	r2, [pc, #24]	; 8998 <xfer_start+0x1a4>
    897c:	e59f1018 	ldr	r1, [pc, #24]	; 899c <xfer_start+0x1a8>
    8980:	e59f001c 	ldr	r0, [pc, #28]	; 89a4 <xfer_start+0x1b0>
    8984:	eb0001da 	bl	90f4 <printk>
    8988:	eb00046a 	bl	9b38 <clean_reboot>
    898c:	e28dd008 	add	sp, sp, #8, 0
    8990:	e8bd8070 	pop	{r4, r5, r6, pc}
    8994:	20804000 	addcs	r4, r0, r0
    8998:	0000a5a4 	andeq	sl, r0, r4, lsr #11
    899c:	0000a338 	andeq	sl, r0, r8, lsr r3
    89a0:	0000a454 	andeq	sl, r0, r4, asr r4
    89a4:	0000a430 	andeq	sl, r0, r0, lsr r4
    89a8:	2080400c 	addcs	r4, r0, ip
    89ac:	20804008 	addcs	r4, r0, r8
    89b0:	00000112 	andeq	r0, r0, r2, lsl r1
    89b4:	0000a4ac 	andeq	sl, r0, ip, lsr #9
    89b8:	0000a2a0 	andeq	sl, r0, r0, lsr #5
    89bc:	0000a4c4 	andeq	sl, r0, r4, asr #9
    89c0:	0000a4d8 	ldrdeq	sl, [r0], -r8
    89c4:	00000103 	andeq	r0, r0, r3, lsl #2

000089c8 <xfer_start_hack>:
    89c8:	e92d4070 	push	{r4, r5, r6, lr}
    89cc:	e24dd008 	sub	sp, sp, #8, 0
    89d0:	e1a06000 	mov	r6, r0
    89d4:	e1a05001 	mov	r5, r1
    89d8:	e1a04002 	mov	r4, r2
    89dc:	eb0004ab 	bl	9c90 <dev_barrier>
    89e0:	e59f3150 	ldr	r3, [pc, #336]	; 8b38 <xfer_start_hack+0x170>
    89e4:	e5933004 	ldr	r3, [r3, #4]
    89e8:	e3130001 	tst	r3, #1, 0
    89ec:	0a000013 	beq	8a40 <xfer_start_hack+0x78>
    89f0:	e59f3140 	ldr	r3, [pc, #320]	; 8b38 <xfer_start_hack+0x170>
    89f4:	e5933004 	ldr	r3, [r3, #4]
    89f8:	e3130c01 	tst	r3, #256	; 0x100
    89fc:	1a000009 	bne	8a28 <xfer_start_hack+0x60>
    8a00:	e59f3130 	ldr	r3, [pc, #304]	; 8b38 <xfer_start_hack+0x170>
    8a04:	e5933004 	ldr	r3, [r3, #4]
    8a08:	e3130c02 	tst	r3, #512	; 0x200
    8a0c:	0afffff3 	beq	89e0 <xfer_start_hack+0x18>
    8a10:	e3a03f52 	mov	r3, #328	; 0x148
    8a14:	e59f2120 	ldr	r2, [pc, #288]	; 8b3c <xfer_start_hack+0x174>
    8a18:	e59f1120 	ldr	r1, [pc, #288]	; 8b40 <xfer_start_hack+0x178>
    8a1c:	e59f0120 	ldr	r0, [pc, #288]	; 8b44 <xfer_start_hack+0x17c>
    8a20:	eb0001b3 	bl	90f4 <printk>
    8a24:	eb000443 	bl	9b38 <clean_reboot>
    8a28:	e3a03f52 	mov	r3, #328	; 0x148
    8a2c:	e59f2108 	ldr	r2, [pc, #264]	; 8b3c <xfer_start_hack+0x174>
    8a30:	e59f1108 	ldr	r1, [pc, #264]	; 8b40 <xfer_start_hack+0x178>
    8a34:	e59f010c 	ldr	r0, [pc, #268]	; 8b48 <xfer_start_hack+0x180>
    8a38:	eb0001ad 	bl	90f4 <printk>
    8a3c:	eb00043d 	bl	9b38 <clean_reboot>
    8a40:	ebffff5d 	bl	87bc <reset_status>
    8a44:	e1b033a6 	lsrs	r3, r6, #7
    8a48:	1a000022 	bne	8ad8 <xfer_start_hack+0x110>
    8a4c:	e1a01006 	mov	r1, r6
    8a50:	e59f00f4 	ldr	r0, [pc, #244]	; 8b4c <xfer_start_hack+0x184>
    8a54:	ebfffd72 	bl	8024 <PUT32>
    8a58:	e1b03825 	lsrs	r3, r5, #16
    8a5c:	1a000025 	bne	8af8 <xfer_start_hack+0x130>
    8a60:	e1a01005 	mov	r1, r5
    8a64:	e59f00e4 	ldr	r0, [pc, #228]	; 8b50 <xfer_start_hack+0x188>
    8a68:	ebfffd6d 	bl	8024 <PUT32>
    8a6c:	e59f50c4 	ldr	r5, [pc, #196]	; 8b38 <xfer_start_hack+0x170>
    8a70:	e1a00005 	mov	r0, r5
    8a74:	ebffff5a 	bl	87e4 <read_c>
    8a78:	e38030b0 	orr	r3, r0, #176, 0	; 0xb0
    8a7c:	e2041001 	and	r1, r4, #1, 0
    8a80:	e3c33001 	bic	r3, r3, #1, 0
    8a84:	e1811003 	orr	r1, r1, r3
    8a88:	e1a00005 	mov	r0, r5
    8a8c:	ebfffd64 	bl	8024 <PUT32>
    8a90:	e59f30a0 	ldr	r3, [pc, #160]	; 8b38 <xfer_start_hack+0x170>
    8a94:	e5933004 	ldr	r3, [r3, #4]
    8a98:	e3130001 	tst	r3, #1, 0
    8a9c:	1a000023 	bne	8b30 <xfer_start_hack+0x168>
    8aa0:	e59f3090 	ldr	r3, [pc, #144]	; 8b38 <xfer_start_hack+0x170>
    8aa4:	e5933004 	ldr	r3, [r3, #4]
    8aa8:	e3130c01 	tst	r3, #256	; 0x100
    8aac:	1a000019 	bne	8b18 <xfer_start_hack+0x150>
    8ab0:	e59f3080 	ldr	r3, [pc, #128]	; 8b38 <xfer_start_hack+0x170>
    8ab4:	e5933004 	ldr	r3, [r3, #4]
    8ab8:	e3130c02 	tst	r3, #512	; 0x200
    8abc:	0afffff3 	beq	8a90 <xfer_start_hack+0xc8>
    8ac0:	e59f308c 	ldr	r3, [pc, #140]	; 8b54 <xfer_start_hack+0x18c>
    8ac4:	e59f2070 	ldr	r2, [pc, #112]	; 8b3c <xfer_start_hack+0x174>
    8ac8:	e59f1070 	ldr	r1, [pc, #112]	; 8b40 <xfer_start_hack+0x178>
    8acc:	e59f0070 	ldr	r0, [pc, #112]	; 8b44 <xfer_start_hack+0x17c>
    8ad0:	eb000187 	bl	90f4 <printk>
    8ad4:	eb000417 	bl	9b38 <clean_reboot>
    8ad8:	e59f3078 	ldr	r3, [pc, #120]	; 8b58 <xfer_start_hack+0x190>
    8adc:	e58d3000 	str	r3, [sp]
    8ae0:	e3a03e15 	mov	r3, #336	; 0x150
    8ae4:	e59f2050 	ldr	r2, [pc, #80]	; 8b3c <xfer_start_hack+0x174>
    8ae8:	e59f1050 	ldr	r1, [pc, #80]	; 8b40 <xfer_start_hack+0x178>
    8aec:	e59f0068 	ldr	r0, [pc, #104]	; 8b5c <xfer_start_hack+0x194>
    8af0:	eb00017f 	bl	90f4 <printk>
    8af4:	eb00040f 	bl	9b38 <clean_reboot>
    8af8:	e59f3060 	ldr	r3, [pc, #96]	; 8b60 <xfer_start_hack+0x198>
    8afc:	e58d3000 	str	r3, [sp]
    8b00:	e3a03f55 	mov	r3, #340	; 0x154
    8b04:	e59f2030 	ldr	r2, [pc, #48]	; 8b3c <xfer_start_hack+0x174>
    8b08:	e59f1030 	ldr	r1, [pc, #48]	; 8b40 <xfer_start_hack+0x178>
    8b0c:	e59f0048 	ldr	r0, [pc, #72]	; 8b5c <xfer_start_hack+0x194>
    8b10:	eb000177 	bl	90f4 <printk>
    8b14:	eb000407 	bl	9b38 <clean_reboot>
    8b18:	e59f3034 	ldr	r3, [pc, #52]	; 8b54 <xfer_start_hack+0x18c>
    8b1c:	e59f2018 	ldr	r2, [pc, #24]	; 8b3c <xfer_start_hack+0x174>
    8b20:	e59f1018 	ldr	r1, [pc, #24]	; 8b40 <xfer_start_hack+0x178>
    8b24:	e59f001c 	ldr	r0, [pc, #28]	; 8b48 <xfer_start_hack+0x180>
    8b28:	eb000171 	bl	90f4 <printk>
    8b2c:	eb000401 	bl	9b38 <clean_reboot>
    8b30:	e28dd008 	add	sp, sp, #8, 0
    8b34:	e8bd8070 	pop	{r4, r5, r6, pc}
    8b38:	20804000 	addcs	r4, r0, r0
    8b3c:	0000a5b0 			; <UNDEFINED> instruction: 0x0000a5b0
    8b40:	0000a338 	andeq	sl, r0, r8, lsr r3
    8b44:	0000a454 	andeq	sl, r0, r4, asr r4
    8b48:	0000a430 	andeq	sl, r0, r0, lsr r4
    8b4c:	2080400c 	addcs	r4, r0, ip
    8b50:	20804008 	addcs	r4, r0, r8
    8b54:	0000015e 	andeq	r0, r0, lr, asr r1
    8b58:	0000a4c4 	andeq	sl, r0, r4, asr #9
    8b5c:	0000a2a0 	andeq	sl, r0, r0, lsr #5
    8b60:	0000a4d8 	ldrdeq	sl, [r0], -r8

00008b64 <i2c_write>:
    8b64:	e92d4070 	push	{r4, r5, r6, lr}
    8b68:	e1a05001 	mov	r5, r1
    8b6c:	e1a04002 	mov	r4, r2
    8b70:	e3a02000 	mov	r2, #0, 0
    8b74:	e1a01004 	mov	r1, r4
    8b78:	ebffff1d 	bl	87f4 <xfer_start>
    8b7c:	e3a02000 	mov	r2, #0, 0
    8b80:	ea000009 	b	8bac <i2c_write+0x48>
    8b84:	e3a03f4a 	mov	r3, #296	; 0x128
    8b88:	e59f2078 	ldr	r2, [pc, #120]	; 8c08 <i2c_write+0xa4>
    8b8c:	e59f1078 	ldr	r1, [pc, #120]	; 8c0c <i2c_write+0xa8>
    8b90:	e59f0078 	ldr	r0, [pc, #120]	; 8c10 <i2c_write+0xac>
    8b94:	eb000156 	bl	90f4 <printk>
    8b98:	eb0003e6 	bl	9b38 <clean_reboot>
    8b9c:	e7d51002 	ldrb	r1, [r5, r2]
    8ba0:	e59f306c 	ldr	r3, [pc, #108]	; 8c14 <i2c_write+0xb0>
    8ba4:	e5831010 	str	r1, [r3, #16]
    8ba8:	e2822001 	add	r2, r2, #1, 0
    8bac:	e1520004 	cmp	r2, r4
    8bb0:	2a000011 	bcs	8bfc <i2c_write+0x98>
    8bb4:	e59f3058 	ldr	r3, [pc, #88]	; 8c14 <i2c_write+0xb0>
    8bb8:	e5933004 	ldr	r3, [r3, #4]
    8bbc:	e3130010 	tst	r3, #16, 0
    8bc0:	1afffff5 	bne	8b9c <i2c_write+0x38>
    8bc4:	e59f3048 	ldr	r3, [pc, #72]	; 8c14 <i2c_write+0xb0>
    8bc8:	e5933004 	ldr	r3, [r3, #4]
    8bcc:	e3130c01 	tst	r3, #256	; 0x100
    8bd0:	1affffeb 	bne	8b84 <i2c_write+0x20>
    8bd4:	e59f3038 	ldr	r3, [pc, #56]	; 8c14 <i2c_write+0xb0>
    8bd8:	e5933004 	ldr	r3, [r3, #4]
    8bdc:	e3130c02 	tst	r3, #512	; 0x200
    8be0:	0afffff3 	beq	8bb4 <i2c_write+0x50>
    8be4:	e3a03f4a 	mov	r3, #296	; 0x128
    8be8:	e59f2018 	ldr	r2, [pc, #24]	; 8c08 <i2c_write+0xa4>
    8bec:	e59f1018 	ldr	r1, [pc, #24]	; 8c0c <i2c_write+0xa8>
    8bf0:	e59f0020 	ldr	r0, [pc, #32]	; 8c18 <i2c_write+0xb4>
    8bf4:	eb00013e 	bl	90f4 <printk>
    8bf8:	eb0003ce 	bl	9b38 <clean_reboot>
    8bfc:	ebfffeab 	bl	86b0 <xfer_end>
    8c00:	e3a00001 	mov	r0, #1, 0
    8c04:	e8bd8070 	pop	{r4, r5, r6, pc}
    8c08:	0000a5c0 	andeq	sl, r0, r0, asr #11
    8c0c:	0000a338 	andeq	sl, r0, r8, lsr r3
    8c10:	0000a430 	andeq	sl, r0, r0, lsr r4
    8c14:	20804000 	addcs	r4, r0, r0
    8c18:	0000a454 	andeq	sl, r0, r4, asr r4

00008c1c <i2c_read>:
    8c1c:	e92d4070 	push	{r4, r5, r6, lr}
    8c20:	e1a05001 	mov	r5, r1
    8c24:	e1a04002 	mov	r4, r2
    8c28:	e3a02001 	mov	r2, #1, 0
    8c2c:	e1a01004 	mov	r1, r4
    8c30:	ebfffeef 	bl	87f4 <xfer_start>
    8c34:	e3a02000 	mov	r2, #0, 0
    8c38:	ea000009 	b	8c64 <i2c_read+0x48>
    8c3c:	e59f307c 	ldr	r3, [pc, #124]	; 8cc0 <i2c_read+0xa4>
    8c40:	e59f207c 	ldr	r2, [pc, #124]	; 8cc4 <i2c_read+0xa8>
    8c44:	e59f107c 	ldr	r1, [pc, #124]	; 8cc8 <i2c_read+0xac>
    8c48:	e59f007c 	ldr	r0, [pc, #124]	; 8ccc <i2c_read+0xb0>
    8c4c:	eb000128 	bl	90f4 <printk>
    8c50:	eb0003b8 	bl	9b38 <clean_reboot>
    8c54:	e59f3074 	ldr	r3, [pc, #116]	; 8cd0 <i2c_read+0xb4>
    8c58:	e5933010 	ldr	r3, [r3, #16]
    8c5c:	e7c53002 	strb	r3, [r5, r2]
    8c60:	e2822001 	add	r2, r2, #1, 0
    8c64:	e1520004 	cmp	r2, r4
    8c68:	2a000011 	bcs	8cb4 <i2c_read+0x98>
    8c6c:	e59f305c 	ldr	r3, [pc, #92]	; 8cd0 <i2c_read+0xb4>
    8c70:	e5933004 	ldr	r3, [r3, #4]
    8c74:	e3130020 	tst	r3, #32, 0
    8c78:	1afffff5 	bne	8c54 <i2c_read+0x38>
    8c7c:	e59f304c 	ldr	r3, [pc, #76]	; 8cd0 <i2c_read+0xb4>
    8c80:	e5933004 	ldr	r3, [r3, #4]
    8c84:	e3130c01 	tst	r3, #256	; 0x100
    8c88:	1affffeb 	bne	8c3c <i2c_read+0x20>
    8c8c:	e59f303c 	ldr	r3, [pc, #60]	; 8cd0 <i2c_read+0xb4>
    8c90:	e5933004 	ldr	r3, [r3, #4]
    8c94:	e3130c02 	tst	r3, #512	; 0x200
    8c98:	0afffff3 	beq	8c6c <i2c_read+0x50>
    8c9c:	e59f301c 	ldr	r3, [pc, #28]	; 8cc0 <i2c_read+0xa4>
    8ca0:	e59f201c 	ldr	r2, [pc, #28]	; 8cc4 <i2c_read+0xa8>
    8ca4:	e59f101c 	ldr	r1, [pc, #28]	; 8cc8 <i2c_read+0xac>
    8ca8:	e59f0024 	ldr	r0, [pc, #36]	; 8cd4 <i2c_read+0xb8>
    8cac:	eb000110 	bl	90f4 <printk>
    8cb0:	eb0003a0 	bl	9b38 <clean_reboot>
    8cb4:	ebfffe7d 	bl	86b0 <xfer_end>
    8cb8:	e3a00001 	mov	r0, #1, 0
    8cbc:	e8bd8070 	pop	{r4, r5, r6, pc}
    8cc0:	0000013a 	andeq	r0, r0, sl, lsr r1
    8cc4:	0000a5cc 	andeq	sl, r0, ip, asr #11
    8cc8:	0000a338 	andeq	sl, r0, r8, lsr r3
    8ccc:	0000a430 	andeq	sl, r0, r0, lsr r4
    8cd0:	20804000 	addcs	r4, r0, r0
    8cd4:	0000a454 	andeq	sl, r0, r4, asr r4

00008cd8 <i2c_discover_addr>:
    8cd8:	e92d4070 	push	{r4, r5, r6, lr}
    8cdc:	e1a05000 	mov	r5, r0
    8ce0:	e1a06001 	mov	r6, r1
    8ce4:	e3a04000 	mov	r4, #0, 0
    8ce8:	e35400ff 	cmp	r4, #255, 0	; 0xff
    8cec:	8a000054 	bhi	8e44 <i2c_discover_addr+0x16c>
    8cf0:	e3a02001 	mov	r2, #1, 0
    8cf4:	e1a01002 	mov	r1, r2
    8cf8:	e1a00004 	mov	r0, r4
    8cfc:	ebffff31 	bl	89c8 <xfer_start_hack>
    8d00:	e59f3154 	ldr	r3, [pc, #340]	; 8e5c <i2c_discover_addr+0x184>
    8d04:	e5933004 	ldr	r3, [r3, #4]
    8d08:	e3130010 	tst	r3, #16, 0
    8d0c:	1a000013 	bne	8d60 <i2c_discover_addr+0x88>
    8d10:	e59f3144 	ldr	r3, [pc, #324]	; 8e5c <i2c_discover_addr+0x184>
    8d14:	e5933004 	ldr	r3, [r3, #4]
    8d18:	e3130c01 	tst	r3, #256	; 0x100
    8d1c:	1a000009 	bne	8d48 <i2c_discover_addr+0x70>
    8d20:	e59f3134 	ldr	r3, [pc, #308]	; 8e5c <i2c_discover_addr+0x184>
    8d24:	e5933004 	ldr	r3, [r3, #4]
    8d28:	e3130c02 	tst	r3, #512	; 0x200
    8d2c:	0afffff3 	beq	8d00 <i2c_discover_addr+0x28>
    8d30:	e59f3128 	ldr	r3, [pc, #296]	; 8e60 <i2c_discover_addr+0x188>
    8d34:	e59f2128 	ldr	r2, [pc, #296]	; 8e64 <i2c_discover_addr+0x18c>
    8d38:	e59f1128 	ldr	r1, [pc, #296]	; 8e68 <i2c_discover_addr+0x190>
    8d3c:	e59f0128 	ldr	r0, [pc, #296]	; 8e6c <i2c_discover_addr+0x194>
    8d40:	eb0000eb 	bl	90f4 <printk>
    8d44:	eb00037b 	bl	9b38 <clean_reboot>
    8d48:	e59f3110 	ldr	r3, [pc, #272]	; 8e60 <i2c_discover_addr+0x188>
    8d4c:	e59f2110 	ldr	r2, [pc, #272]	; 8e64 <i2c_discover_addr+0x18c>
    8d50:	e59f1110 	ldr	r1, [pc, #272]	; 8e68 <i2c_discover_addr+0x190>
    8d54:	e59f0114 	ldr	r0, [pc, #276]	; 8e70 <i2c_discover_addr+0x198>
    8d58:	eb0000e5 	bl	90f4 <printk>
    8d5c:	eb000375 	bl	9b38 <clean_reboot>
    8d60:	e59f30f4 	ldr	r3, [pc, #244]	; 8e5c <i2c_discover_addr+0x184>
    8d64:	e5835010 	str	r5, [r3, #16]
    8d68:	e59f30ec 	ldr	r3, [pc, #236]	; 8e5c <i2c_discover_addr+0x184>
    8d6c:	e5933004 	ldr	r3, [r3, #4]
    8d70:	e3130010 	tst	r3, #16, 0
    8d74:	1a000013 	bne	8dc8 <i2c_discover_addr+0xf0>
    8d78:	e59f30dc 	ldr	r3, [pc, #220]	; 8e5c <i2c_discover_addr+0x184>
    8d7c:	e5933004 	ldr	r3, [r3, #4]
    8d80:	e3130c01 	tst	r3, #256	; 0x100
    8d84:	1a000009 	bne	8db0 <i2c_discover_addr+0xd8>
    8d88:	e59f30cc 	ldr	r3, [pc, #204]	; 8e5c <i2c_discover_addr+0x184>
    8d8c:	e5933004 	ldr	r3, [r3, #4]
    8d90:	e3130c02 	tst	r3, #512	; 0x200
    8d94:	0afffff3 	beq	8d68 <i2c_discover_addr+0x90>
    8d98:	e59f30d4 	ldr	r3, [pc, #212]	; 8e74 <i2c_discover_addr+0x19c>
    8d9c:	e59f20c0 	ldr	r2, [pc, #192]	; 8e64 <i2c_discover_addr+0x18c>
    8da0:	e59f10c0 	ldr	r1, [pc, #192]	; 8e68 <i2c_discover_addr+0x190>
    8da4:	e59f00c0 	ldr	r0, [pc, #192]	; 8e6c <i2c_discover_addr+0x194>
    8da8:	eb0000d1 	bl	90f4 <printk>
    8dac:	eb000361 	bl	9b38 <clean_reboot>
    8db0:	e59f30bc 	ldr	r3, [pc, #188]	; 8e74 <i2c_discover_addr+0x19c>
    8db4:	e59f20a8 	ldr	r2, [pc, #168]	; 8e64 <i2c_discover_addr+0x18c>
    8db8:	e59f10a8 	ldr	r1, [pc, #168]	; 8e68 <i2c_discover_addr+0x190>
    8dbc:	e59f00ac 	ldr	r0, [pc, #172]	; 8e70 <i2c_discover_addr+0x198>
    8dc0:	eb0000cb 	bl	90f4 <printk>
    8dc4:	eb00035b 	bl	9b38 <clean_reboot>
    8dc8:	e59f308c 	ldr	r3, [pc, #140]	; 8e5c <i2c_discover_addr+0x184>
    8dcc:	e5836010 	str	r6, [r3, #16]
    8dd0:	e59f3084 	ldr	r3, [pc, #132]	; 8e5c <i2c_discover_addr+0x184>
    8dd4:	e5933004 	ldr	r3, [r3, #4]
    8dd8:	e3130002 	tst	r3, #2, 0
    8ddc:	1a00000d 	bne	8e18 <i2c_discover_addr+0x140>
    8de0:	e59f3074 	ldr	r3, [pc, #116]	; 8e5c <i2c_discover_addr+0x184>
    8de4:	e5933004 	ldr	r3, [r3, #4]
    8de8:	e3130c01 	tst	r3, #256	; 0x100
    8dec:	1a00000f 	bne	8e30 <i2c_discover_addr+0x158>
    8df0:	e59f3064 	ldr	r3, [pc, #100]	; 8e5c <i2c_discover_addr+0x184>
    8df4:	e5933004 	ldr	r3, [r3, #4]
    8df8:	e3130c02 	tst	r3, #512	; 0x200
    8dfc:	0afffff3 	beq	8dd0 <i2c_discover_addr+0xf8>
    8e00:	e59f3070 	ldr	r3, [pc, #112]	; 8e78 <i2c_discover_addr+0x1a0>
    8e04:	e59f2058 	ldr	r2, [pc, #88]	; 8e64 <i2c_discover_addr+0x18c>
    8e08:	e59f1058 	ldr	r1, [pc, #88]	; 8e68 <i2c_discover_addr+0x190>
    8e0c:	e59f0068 	ldr	r0, [pc, #104]	; 8e7c <i2c_discover_addr+0x1a4>
    8e10:	eb0000b7 	bl	90f4 <printk>
    8e14:	eb000347 	bl	9b38 <clean_reboot>
    8e18:	e1a01004 	mov	r1, r4
    8e1c:	e59f005c 	ldr	r0, [pc, #92]	; 8e80 <i2c_discover_addr+0x1a8>
    8e20:	eb0000b3 	bl	90f4 <printk>
    8e24:	ebfffe21 	bl	86b0 <xfer_end>
    8e28:	e6ef0074 	uxtb	r0, r4
    8e2c:	e8bd8070 	pop	{r4, r5, r6, pc}
    8e30:	e1a01004 	mov	r1, r4
    8e34:	e59f0048 	ldr	r0, [pc, #72]	; 8e84 <i2c_discover_addr+0x1ac>
    8e38:	eb0000ad 	bl	90f4 <printk>
    8e3c:	e2844001 	add	r4, r4, #1, 0
    8e40:	eaffffa8 	b	8ce8 <i2c_discover_addr+0x10>
    8e44:	e59f303c 	ldr	r3, [pc, #60]	; 8e88 <i2c_discover_addr+0x1b0>
    8e48:	e59f2014 	ldr	r2, [pc, #20]	; 8e64 <i2c_discover_addr+0x18c>
    8e4c:	e59f1014 	ldr	r1, [pc, #20]	; 8e68 <i2c_discover_addr+0x190>
    8e50:	e59f0034 	ldr	r0, [pc, #52]	; 8e8c <i2c_discover_addr+0x1b4>
    8e54:	eb0000a6 	bl	90f4 <printk>
    8e58:	eb000336 	bl	9b38 <clean_reboot>
    8e5c:	20804000 	addcs	r4, r0, r0
    8e60:	00000167 	andeq	r0, r0, r7, ror #2
    8e64:	0000a5d8 	ldrdeq	sl, [r0], -r8
    8e68:	0000a338 	andeq	sl, r0, r8, lsr r3
    8e6c:	0000a454 	andeq	sl, r0, r4, asr r4
    8e70:	0000a430 	andeq	sl, r0, r0, lsr r4
    8e74:	00000169 	andeq	r0, r0, r9, ror #2
    8e78:	00000177 	andeq	r0, r0, r7, ror r1
    8e7c:	0000a538 	andeq	sl, r0, r8, lsr r5
    8e80:	0000a4f0 	strdeq	sl, [r0], -r0
    8e84:	0000a51c 	andeq	sl, r0, ip, lsl r5
    8e88:	0000017a 	andeq	r0, r0, sl, ror r1
    8e8c:	0000a568 	andeq	sl, r0, r8, ror #10

00008e90 <i2c_is_initialized>:
    8e90:	e59f3004 	ldr	r3, [pc, #4]	; 8e9c <i2c_is_initialized+0xc>
    8e94:	e5930000 	ldr	r0, [r3]
    8e98:	e12fff1e 	bx	lr
    8e9c:	0000a78c 	andeq	sl, r0, ip, lsl #15

00008ea0 <i2c_init>:
    8ea0:	e92d4010 	push	{r4, lr}
    8ea4:	e24dd008 	sub	sp, sp, #8, 0
    8ea8:	ebfffdfe 	bl	86a8 <check_layout>
    8eac:	eb000377 	bl	9c90 <dev_barrier>
    8eb0:	e3a01004 	mov	r1, #4, 0
    8eb4:	e3a00002 	mov	r0, #2, 0
    8eb8:	eb000027 	bl	8f5c <gpio_set_function>
    8ebc:	e3a01004 	mov	r1, #4, 0
    8ec0:	e3a00003 	mov	r0, #3, 0
    8ec4:	eb000024 	bl	8f5c <gpio_set_function>
    8ec8:	eb000370 	bl	9c90 <dev_barrier>
    8ecc:	e59f4054 	ldr	r4, [pc, #84]	; 8f28 <i2c_init+0x88>
    8ed0:	e3a01902 	mov	r1, #32768	; 0x8000
    8ed4:	e1a00004 	mov	r0, r4
    8ed8:	ebfffc51 	bl	8024 <PUT32>
    8edc:	eb00036b 	bl	9c90 <dev_barrier>
    8ee0:	ebfffe35 	bl	87bc <reset_status>
    8ee4:	eb000369 	bl	9c90 <dev_barrier>
    8ee8:	e5943004 	ldr	r3, [r4, #4]
    8eec:	e3130001 	tst	r3, #1, 0
    8ef0:	1a000004 	bne	8f08 <i2c_init+0x68>
    8ef4:	e59f3030 	ldr	r3, [pc, #48]	; 8f2c <i2c_init+0x8c>
    8ef8:	e3a02001 	mov	r2, #1, 0
    8efc:	e5832000 	str	r2, [r3]
    8f00:	e28dd008 	add	sp, sp, #8, 0
    8f04:	e8bd8010 	pop	{r4, pc}
    8f08:	e59f3020 	ldr	r3, [pc, #32]	; 8f30 <i2c_init+0x90>
    8f0c:	e58d3000 	str	r3, [sp]
    8f10:	e59f301c 	ldr	r3, [pc, #28]	; 8f34 <i2c_init+0x94>
    8f14:	e59f201c 	ldr	r2, [pc, #28]	; 8f38 <i2c_init+0x98>
    8f18:	e59f101c 	ldr	r1, [pc, #28]	; 8f3c <i2c_init+0x9c>
    8f1c:	e59f001c 	ldr	r0, [pc, #28]	; 8f40 <i2c_init+0xa0>
    8f20:	eb000073 	bl	90f4 <printk>
    8f24:	eb000303 	bl	9b38 <clean_reboot>
    8f28:	20804000 	addcs	r4, r0, r0
    8f2c:	0000a78c 	andeq	sl, r0, ip, lsl #15
    8f30:	0000a484 	andeq	sl, r0, r4, lsl #9
    8f34:	000001aa 	andeq	r0, r0, sl, lsr #3
    8f38:	0000a5ec 	andeq	sl, r0, ip, ror #11
    8f3c:	0000a338 	andeq	sl, r0, r8, lsr r3
    8f40:	0000a2a0 	andeq	sl, r0, r0, lsr #5

00008f44 <i2c_init_once>:
    8f44:	e92d4010 	push	{r4, lr}
    8f48:	ebffffd0 	bl	8e90 <i2c_is_initialized>
    8f4c:	e3500000 	cmp	r0, #0, 0
    8f50:	18bd8010 	popne	{r4, pc}
    8f54:	ebffffd1 	bl	8ea0 <i2c_init>
    8f58:	e8bd8010 	pop	{r4, pc}

00008f5c <gpio_set_function>:
    8f5c:	e350001f 	cmp	r0, #31, 0
    8f60:	812fff1e 	bxhi	lr
    8f64:	e3d13007 	bics	r3, r1, #7, 0
    8f68:	e92d4070 	push	{r4, r5, r6, lr}
    8f6c:	e1a05001 	mov	r5, r1
    8f70:	18bd8070 	popne	{r4, r5, r6, pc}
    8f74:	e59f403c 	ldr	r4, [pc, #60]	; 8fb8 <gpio_set_function+0x5c>
    8f78:	e0843094 	umull	r3, r4, r4, r0
    8f7c:	e1a041a4 	lsr	r4, r4, #3
    8f80:	e2843302 	add	r3, r4, #134217728	; 0x8000000
    8f84:	e2833702 	add	r3, r3, #524288	; 0x80000
    8f88:	e1a06103 	lsl	r6, r3, #2
    8f8c:	e0844104 	add	r4, r4, r4, lsl #2
    8f90:	e0404084 	sub	r4, r0, r4, lsl #1
    8f94:	e1a00006 	mov	r0, r6
    8f98:	ebfffc23 	bl	802c <GET32>
    8f9c:	e3a01007 	mov	r1, #7, 0
    8fa0:	e0844084 	add	r4, r4, r4, lsl #1
    8fa4:	e1c01411 	bic	r1, r0, r1, lsl r4
    8fa8:	e1811415 	orr	r1, r1, r5, lsl r4
    8fac:	e1a00006 	mov	r0, r6
    8fb0:	e8bd4070 	pop	{r4, r5, r6, lr}
    8fb4:	eafffc1a 	b	8024 <PUT32>
    8fb8:	cccccccd 	stclgt	12, cr12, [ip], {205}	; 0xcd

00008fbc <gpio_set_output>:
    8fbc:	e350001f 	cmp	r0, #31, 0
    8fc0:	812fff1e 	bxhi	lr
    8fc4:	e92d4070 	push	{r4, r5, r6, lr}
    8fc8:	e59f4040 	ldr	r4, [pc, #64]	; 9010 <gpio_set_output+0x54>
    8fcc:	e0843094 	umull	r3, r4, r4, r0
    8fd0:	e1a041a4 	lsr	r4, r4, #3
    8fd4:	e2843302 	add	r3, r4, #134217728	; 0x8000000
    8fd8:	e2833702 	add	r3, r3, #524288	; 0x80000
    8fdc:	e1a05103 	lsl	r5, r3, #2
    8fe0:	e0844104 	add	r4, r4, r4, lsl #2
    8fe4:	e0404084 	sub	r4, r0, r4, lsl #1
    8fe8:	e1a00005 	mov	r0, r5
    8fec:	ebfffc0e 	bl	802c <GET32>
    8ff0:	e3a03007 	mov	r3, #7, 0
    8ff4:	e3a01001 	mov	r1, #1, 0
    8ff8:	e0844084 	add	r4, r4, r4, lsl #1
    8ffc:	e1c03413 	bic	r3, r0, r3, lsl r4
    9000:	e1831411 	orr	r1, r3, r1, lsl r4
    9004:	e1a00005 	mov	r0, r5
    9008:	e8bd4070 	pop	{r4, r5, r6, lr}
    900c:	eafffc04 	b	8024 <PUT32>
    9010:	cccccccd 	stclgt	12, cr12, [ip], {205}	; 0xcd

00009014 <gpio_set_on>:
    9014:	e1a03000 	mov	r3, r0
    9018:	e3a01001 	mov	r1, #1, 0
    901c:	e59f0004 	ldr	r0, [pc, #4]	; 9028 <gpio_set_on+0x14>
    9020:	e1a01311 	lsl	r1, r1, r3
    9024:	eafffbfe 	b	8024 <PUT32>
    9028:	2020001c 	eorcs	r0, r0, ip, lsl r0

0000902c <gpio_set_off>:
    902c:	e1a03000 	mov	r3, r0
    9030:	e3a01001 	mov	r1, #1, 0
    9034:	e59f0004 	ldr	r0, [pc, #4]	; 9040 <gpio_set_off+0x14>
    9038:	e1a01311 	lsl	r1, r1, r3
    903c:	eafffbf8 	b	8024 <PUT32>
    9040:	20200028 	eorcs	r0, r0, r8, lsr #32

00009044 <gpio_set_input>:
    9044:	e350001f 	cmp	r0, #31, 0
    9048:	812fff1e 	bxhi	lr
    904c:	e92d4070 	push	{r4, r5, r6, lr}
    9050:	e59f5040 	ldr	r5, [pc, #64]	; 9098 <gpio_set_input+0x54>
    9054:	e1a04000 	mov	r4, r0
    9058:	e0853095 	umull	r3, r5, r5, r0
    905c:	e1a051a5 	lsr	r5, r5, #3
    9060:	e2850302 	add	r0, r5, #134217728	; 0x8000000
    9064:	e2800702 	add	r0, r0, #524288	; 0x80000
    9068:	e1a06100 	lsl	r6, r0, #2
    906c:	e1a00006 	mov	r0, r6
    9070:	ebfffbed 	bl	802c <GET32>
    9074:	e3a01007 	mov	r1, #7, 0
    9078:	e1a03000 	mov	r3, r0
    907c:	e0855105 	add	r5, r5, r5, lsl #2
    9080:	e0444085 	sub	r4, r4, r5, lsl #1
    9084:	e0844084 	add	r4, r4, r4, lsl #1
    9088:	e1a00006 	mov	r0, r6
    908c:	e1c31411 	bic	r1, r3, r1, lsl r4
    9090:	e8bd4070 	pop	{r4, r5, r6, lr}
    9094:	eafffbe2 	b	8024 <PUT32>
    9098:	cccccccd 	stclgt	12, cr12, [ip], {205}	; 0xcd

0000909c <gpio_write>:
    909c:	e3510000 	cmp	r1, #0, 0
    90a0:	e3a03001 	mov	r3, #1, 0
    90a4:	e1a01000 	mov	r1, r0
    90a8:	0a000002 	beq	90b8 <gpio_write+0x1c>
    90ac:	e59f0010 	ldr	r0, [pc, #16]	; 90c4 <gpio_write+0x28>
    90b0:	e1a01113 	lsl	r1, r3, r1
    90b4:	eafffbda 	b	8024 <PUT32>
    90b8:	e59f0008 	ldr	r0, [pc, #8]	; 90c8 <gpio_write+0x2c>
    90bc:	e1a01113 	lsl	r1, r3, r1
    90c0:	eafffbd7 	b	8024 <PUT32>
    90c4:	2020001c 	eorcs	r0, r0, ip, lsl r0
    90c8:	20200028 	eorcs	r0, r0, r8, lsr #32

000090cc <gpio_read>:
    90cc:	e92d4010 	push	{r4, lr}
    90d0:	e1a04000 	mov	r4, r0
    90d4:	e59f0014 	ldr	r0, [pc, #20]	; 90f0 <gpio_read+0x24>
    90d8:	e08002a4 	add	r0, r0, r4, lsr #5
    90dc:	ebfffbd2 	bl	802c <GET32>
    90e0:	e204401f 	and	r4, r4, #31, 0
    90e4:	e1a00430 	lsr	r0, r0, r4
    90e8:	e2000001 	and	r0, r0, #1, 0
    90ec:	e8bd8010 	pop	{r4, pc}
    90f0:	20200034 	eorcs	r0, r0, r4, lsr r0

000090f4 <printk>:
    90f4:	e92d000f 	push	{r0, r1, r2, r3}
    90f8:	e92d4030 	push	{r4, r5, lr}
    90fc:	e59f5040 	ldr	r5, [pc, #64]	; 9144 <printk+0x50>
    9100:	e24dd00c 	sub	sp, sp, #12, 0
    9104:	e28d301c 	add	r3, sp, #28, 0
    9108:	e3a01b01 	mov	r1, #1024	; 0x400
    910c:	e59d2018 	ldr	r2, [sp, #24]
    9110:	e1a00005 	mov	r0, r5
    9114:	e58d3004 	str	r3, [sp, #4]
    9118:	eb0000fb 	bl	950c <va_printk>
    911c:	e1a04000 	mov	r4, r0
    9120:	e59f3020 	ldr	r3, [pc, #32]	; 9148 <printk+0x54>
    9124:	e1a00005 	mov	r0, r5
    9128:	e5933000 	ldr	r3, [r3]
    912c:	e12fff33 	blx	r3
    9130:	e1a00004 	mov	r0, r4
    9134:	e28dd00c 	add	sp, sp, #12, 0
    9138:	e8bd4030 	pop	{r4, r5, lr}
    913c:	e28dd010 	add	sp, sp, #16, 0
    9140:	e12fff1e 	bx	lr
    9144:	0000a790 	muleq	r0, r0, r7
    9148:	0000a784 	andeq	sl, r0, r4, lsl #15

0000914c <internal_putk>:
    914c:	e92d4070 	push	{r4, r5, r6, lr}
    9150:	e1a04000 	mov	r4, r0
    9154:	e5d00000 	ldrb	r0, [r0]
    9158:	e3500000 	cmp	r0, #0, 0
    915c:	0a000005 	beq	9178 <internal_putk+0x2c>
    9160:	e59f5018 	ldr	r5, [pc, #24]	; 9180 <internal_putk+0x34>
    9164:	e5953000 	ldr	r3, [r5]
    9168:	e12fff33 	blx	r3
    916c:	e5f40001 	ldrb	r0, [r4, #1]!
    9170:	e3500000 	cmp	r0, #0, 0
    9174:	1afffffa 	bne	9164 <internal_putk+0x18>
    9178:	e3a00001 	mov	r0, #1, 0
    917c:	e8bd8070 	pop	{r4, r5, r6, pc}
    9180:	0000a788 	andeq	sl, r0, r8, lsl #15

00009184 <emit.constprop.0>:
    9184:	e92d41f0 	push	{r4, r5, r6, r7, r8, lr}
    9188:	e3530080 	cmp	r3, #128, 0	; 0x80
    918c:	e1a0c000 	mov	ip, r0
    9190:	e24dd048 	sub	sp, sp, #72, 0	; 0x48
    9194:	e1a00001 	mov	r0, r1
    9198:	ca000069 	bgt	9344 <emit.constprop.0+0x1c0>
    919c:	e24c1002 	sub	r1, ip, #2, 0
    91a0:	e1a0c002 	mov	ip, r2
    91a4:	e351000e 	cmp	r1, #14, 0
    91a8:	979ff101 	ldrls	pc, [pc, r1, lsl #2]
    91ac:	ea0000a7 	b	9450 <emit.constprop.0+0x2cc>
    91b0:	0000931c 	andeq	r9, r0, ip, lsl r3
    91b4:	00009450 	andeq	r9, r0, r0, asr r4
    91b8:	00009450 	andeq	r9, r0, r0, asr r4
    91bc:	00009450 	andeq	r9, r0, r0, asr r4
    91c0:	00009450 	andeq	r9, r0, r0, asr r4
    91c4:	00009450 	andeq	r9, r0, r0, asr r4
    91c8:	000093f8 	strdeq	r9, [r0], -r8
    91cc:	00009450 	andeq	r9, r0, r0, asr r4
    91d0:	00009398 	muleq	r0, r8, r3
    91d4:	00009450 	andeq	r9, r0, r0, asr r4
    91d8:	00009450 	andeq	r9, r0, r0, asr r4
    91dc:	00009450 	andeq	r9, r0, r0, asr r4
    91e0:	00009450 	andeq	r9, r0, r0, asr r4
    91e4:	00009450 	andeq	r9, r0, r0, asr r4
    91e8:	000091f0 	strdeq	r9, [r0], -r0
    91ec:	e3a0307f 	mov	r3, #127, 0	; 0x7f
    91f0:	e28d2008 	add	r2, sp, #8, 0
    91f4:	e1a04002 	mov	r4, r2
    91f8:	e59f1288 	ldr	r1, [pc, #648]	; 9488 <emit.constprop.0+0x304>
    91fc:	e20ce00f 	and	lr, ip, #15, 0
    9200:	e7d1e00e 	ldrb	lr, [r1, lr]
    9204:	e35c000f 	cmp	ip, #15, 0
    9208:	e4c4e001 	strb	lr, [r4], #1
    920c:	e1a0c22c 	lsr	ip, ip, #4
    9210:	8afffff9 	bhi	91fc <emit.constprop.0+0x78>
    9214:	e3a0c078 	mov	ip, #120, 0	; 0x78
    9218:	e1a0e004 	mov	lr, r4
    921c:	e3a01030 	mov	r1, #48, 0	; 0x30
    9220:	e4cec002 	strb	ip, [lr], #2
    9224:	e5c41001 	strb	r1, [r4, #1]
    9228:	e04e1002 	sub	r1, lr, r2
    922c:	e1510003 	cmp	r1, r3
    9230:	aa000083 	bge	9444 <emit.constprop.0+0x2c0>
    9234:	e1510003 	cmp	r1, r3
    9238:	a3a0c001 	movge	ip, #1, 0
    923c:	b3a0c000 	movlt	ip, #0, 0
    9240:	e2434001 	sub	r4, r3, #1, 0
    9244:	e0444001 	sub	r4, r4, r1
    9248:	b0436001 	sublt	r6, r3, r1
    924c:	a3a06001 	movge	r6, #1, 0
    9250:	e3540002 	cmp	r4, #2, 0
    9254:	938cc001 	orrls	ip, ip, #1, 0
    9258:	e35c0000 	cmp	ip, #0, 0
    925c:	1a000075 	bne	9438 <emit.constprop.0+0x2b4>
    9260:	e1a0c00e 	mov	ip, lr
    9264:	e3c65003 	bic	r5, r6, #3, 0
    9268:	e59f721c 	ldr	r7, [pc, #540]	; 948c <emit.constprop.0+0x308>
    926c:	e085500e 	add	r5, r5, lr
    9270:	e48c7004 	str	r7, [ip], #4
    9274:	e15c0005 	cmp	ip, r5
    9278:	1afffffc 	bne	9270 <emit.constprop.0+0xec>
    927c:	e3c6c003 	bic	ip, r6, #3, 0
    9280:	e156000c 	cmp	r6, ip
    9284:	e08e500c 	add	r5, lr, ip
    9288:	e08cc001 	add	ip, ip, r1
    928c:	0a000008 	beq	92b4 <emit.constprop.0+0x130>
    9290:	e3a07020 	mov	r7, #32, 0
    9294:	e28c8001 	add	r8, ip, #1, 0
    9298:	e1580003 	cmp	r8, r3
    929c:	e5c57000 	strb	r7, [r5]
    92a0:	aa000003 	bge	92b4 <emit.constprop.0+0x130>
    92a4:	e28cc002 	add	ip, ip, #2, 0
    92a8:	e15c0003 	cmp	ip, r3
    92ac:	e5c57001 	strb	r7, [r5, #1]
    92b0:	b5c57002 	strblt	r7, [r5, #2]
    92b4:	e1510003 	cmp	r1, r3
    92b8:	a3a04000 	movge	r4, #0, 0
    92bc:	e08e6006 	add	r6, lr, r6
    92c0:	e0461002 	sub	r1, r6, r2
    92c4:	e08ee004 	add	lr, lr, r4
    92c8:	e3a03000 	mov	r3, #0, 0
    92cc:	e351007f 	cmp	r1, #127, 0	; 0x7f
    92d0:	c241407f 	subgt	r4, r1, #127, 0	; 0x7f
    92d4:	c0822004 	addgt	r2, r2, r4
    92d8:	e152000e 	cmp	r2, lr
    92dc:	e5c63000 	strb	r3, [r6]
    92e0:	8a00004f 	bhi	9424 <emit.constprop.0+0x2a0>
    92e4:	e28ee001 	add	lr, lr, #1, 0
    92e8:	e1a0300e 	mov	r3, lr
    92ec:	e240c001 	sub	ip, r0, #1, 0
    92f0:	e5734001 	ldrb	r4, [r3, #-1]!
    92f4:	e1530002 	cmp	r3, r2
    92f8:	e5ec4001 	strb	r4, [ip, #1]!
    92fc:	1afffffb 	bne	92f0 <emit.constprop.0+0x16c>
    9300:	e04ee003 	sub	lr, lr, r3
    9304:	e3a03000 	mov	r3, #0, 0
    9308:	e080e00e 	add	lr, r0, lr
    930c:	e5ce3000 	strb	r3, [lr]
    9310:	e28dd048 	add	sp, sp, #72, 0	; 0x48
    9314:	e8bd81f0 	pop	{r4, r5, r6, r7, r8, pc}
    9318:	e3a0307f 	mov	r3, #127, 0	; 0x7f
    931c:	e28d2008 	add	r2, sp, #8, 0
    9320:	e1a0e002 	mov	lr, r2
    9324:	e59f1164 	ldr	r1, [pc, #356]	; 9490 <emit.constprop.0+0x30c>
    9328:	e20c4001 	and	r4, ip, #1, 0
    932c:	e7d14004 	ldrb	r4, [r1, r4]
    9330:	e35c0001 	cmp	ip, #1, 0
    9334:	e4ce4001 	strb	r4, [lr], #1
    9338:	e1a0c0ac 	lsr	ip, ip, #1
    933c:	8afffff9 	bhi	9328 <emit.constprop.0+0x1a4>
    9340:	eaffffb8 	b	9228 <emit.constprop.0+0xa4>
    9344:	e24c3002 	sub	r3, ip, #2, 0
    9348:	e1a0c002 	mov	ip, r2
    934c:	e353000e 	cmp	r3, #14, 0
    9350:	979ff103 	ldrls	pc, [pc, r3, lsl #2]
    9354:	ea00003d 	b	9450 <emit.constprop.0+0x2cc>
    9358:	00009318 	andeq	r9, r0, r8, lsl r3
    935c:	00009450 	andeq	r9, r0, r0, asr r4
    9360:	00009450 	andeq	r9, r0, r0, asr r4
    9364:	00009450 	andeq	r9, r0, r0, asr r4
    9368:	00009450 	andeq	r9, r0, r0, asr r4
    936c:	00009450 	andeq	r9, r0, r0, asr r4
    9370:	00009470 	andeq	r9, r0, r0, ror r4
    9374:	00009450 	andeq	r9, r0, r0, asr r4
    9378:	00009394 	muleq	r0, r4, r3
    937c:	00009450 	andeq	r9, r0, r0, asr r4
    9380:	00009450 	andeq	r9, r0, r0, asr r4
    9384:	00009450 	andeq	r9, r0, r0, asr r4
    9388:	00009450 	andeq	r9, r0, r0, asr r4
    938c:	00009450 	andeq	r9, r0, r0, asr r4
    9390:	000091ec 	andeq	r9, r0, ip, ror #3
    9394:	e3a0307f 	mov	r3, #127, 0	; 0x7f
    9398:	e59d1060 	ldr	r1, [sp, #96]	; 0x60
    939c:	e59f70f0 	ldr	r7, [pc, #240]	; 9494 <emit.constprop.0+0x310>
    93a0:	e0118fa2 	ands	r8, r1, r2, lsr #31
    93a4:	1262c000 	rsbne	ip, r2, #0, 0
    93a8:	e28d2008 	add	r2, sp, #8, 0
    93ac:	13a08001 	movne	r8, #1, 0
    93b0:	e1a0e002 	mov	lr, r2
    93b4:	e59f60dc 	ldr	r6, [pc, #220]	; 9498 <emit.constprop.0+0x314>
    93b8:	e1a0500c 	mov	r5, ip
    93bc:	e0814c96 	umull	r4, r1, r6, ip
    93c0:	e1a011a1 	lsr	r1, r1, #3
    93c4:	e0814101 	add	r4, r1, r1, lsl #2
    93c8:	e04cc084 	sub	ip, ip, r4, lsl #1
    93cc:	e7d7400c 	ldrb	r4, [r7, ip]
    93d0:	e3550009 	cmp	r5, #9, 0
    93d4:	e1a0c001 	mov	ip, r1
    93d8:	e1a0100e 	mov	r1, lr
    93dc:	e4ce4001 	strb	r4, [lr], #1
    93e0:	8afffff4 	bhi	93b8 <emit.constprop.0+0x234>
    93e4:	e3580000 	cmp	r8, #0, 0
    93e8:	13a0c02d 	movne	ip, #45, 0	; 0x2d
    93ec:	15cec000 	strbne	ip, [lr]
    93f0:	1281e002 	addne	lr, r1, #2, 0
    93f4:	eaffff8b 	b	9228 <emit.constprop.0+0xa4>
    93f8:	e3530001 	cmp	r3, #1, 0
    93fc:	e5cd2008 	strb	r2, [sp, #8]
    9400:	c3a01001 	movgt	r1, #1, 0
    9404:	c28de009 	addgt	lr, sp, #9, 0
    9408:	c28d2008 	addgt	r2, sp, #8, 0
    940c:	caffff88 	bgt	9234 <emit.constprop.0+0xb0>
    9410:	e3a03000 	mov	r3, #0, 0
    9414:	e28de008 	add	lr, sp, #8, 0
    9418:	e1a0200e 	mov	r2, lr
    941c:	e5cd3009 	strb	r3, [sp, #9]
    9420:	eaffffaf 	b	92e4 <emit.constprop.0+0x160>
    9424:	e1a0e000 	mov	lr, r0
    9428:	e3a03000 	mov	r3, #0, 0
    942c:	e5ce3000 	strb	r3, [lr]
    9430:	e28dd048 	add	sp, sp, #72, 0	; 0x48
    9434:	e8bd81f0 	pop	{r4, r5, r6, r7, r8, pc}
    9438:	e1a0c001 	mov	ip, r1
    943c:	e1a0500e 	mov	r5, lr
    9440:	eaffff92 	b	9290 <emit.constprop.0+0x10c>
    9444:	e1a0600e 	mov	r6, lr
    9448:	e24ee001 	sub	lr, lr, #1, 0
    944c:	eaffff9d 	b	92c8 <emit.constprop.0+0x144>
    9450:	e59f2044 	ldr	r2, [pc, #68]	; 949c <emit.constprop.0+0x318>
    9454:	e3a03079 	mov	r3, #121, 0	; 0x79
    9458:	e59f1040 	ldr	r1, [pc, #64]	; 94a0 <emit.constprop.0+0x31c>
    945c:	e58d2000 	str	r2, [sp]
    9460:	e59f003c 	ldr	r0, [pc, #60]	; 94a4 <emit.constprop.0+0x320>
    9464:	e59f203c 	ldr	r2, [pc, #60]	; 94a8 <emit.constprop.0+0x324>
    9468:	ebffff21 	bl	90f4 <printk>
    946c:	eb0001b1 	bl	9b38 <clean_reboot>
    9470:	e5cd2008 	strb	r2, [sp, #8]
    9474:	e3a0307f 	mov	r3, #127, 0	; 0x7f
    9478:	e3a01001 	mov	r1, #1, 0
    947c:	e28de009 	add	lr, sp, #9, 0
    9480:	e28d2008 	add	r2, sp, #8, 0
    9484:	eaffff6a 	b	9234 <emit.constprop.0+0xb0>
    9488:	0000a60c 	andeq	sl, r0, ip, lsl #12
    948c:	20202020 	eorcs	r2, r0, r0, lsr #32
    9490:	0000a620 	andeq	sl, r0, r0, lsr #12
    9494:	0000a624 	andeq	sl, r0, r4, lsr #12
    9498:	cccccccd 	stclgt	12, cr12, [ip], {205}	; 0xcd
    949c:	0000a4ec 	andeq	sl, r0, ip, ror #9
    94a0:	0000a5f8 	strdeq	sl, [r0], -r8
    94a4:	0000a2a0 	andeq	sl, r0, r0, lsr #5
    94a8:	0000a738 	andeq	sl, r0, r8, lsr r7

000094ac <rpi_set_output>:
    94ac:	e3500000 	cmp	r0, #0, 0
    94b0:	0a000005 	beq	94cc <rpi_set_output+0x20>
    94b4:	e59f3038 	ldr	r3, [pc, #56]	; 94f4 <rpi_set_output+0x48>
    94b8:	e3510000 	cmp	r1, #0, 0
    94bc:	e5830000 	str	r0, [r3]
    94c0:	159f3030 	ldrne	r3, [pc, #48]	; 94f8 <rpi_set_output+0x4c>
    94c4:	15831000 	strne	r1, [r3]
    94c8:	e12fff1e 	bx	lr
    94cc:	e52de004 	push	{lr}		; (str lr, [sp, #-4]!)
    94d0:	e59f2024 	ldr	r2, [pc, #36]	; 94fc <rpi_set_output+0x50>
    94d4:	e24dd00c 	sub	sp, sp, #12, 0
    94d8:	e3a03020 	mov	r3, #32, 0
    94dc:	e59f101c 	ldr	r1, [pc, #28]	; 9500 <rpi_set_output+0x54>
    94e0:	e58d2000 	str	r2, [sp]
    94e4:	e59f0018 	ldr	r0, [pc, #24]	; 9504 <rpi_set_output+0x58>
    94e8:	e59f2018 	ldr	r2, [pc, #24]	; 9508 <rpi_set_output+0x5c>
    94ec:	ebffff00 	bl	90f4 <printk>
    94f0:	eb000190 	bl	9b38 <clean_reboot>
    94f4:	0000a788 	andeq	sl, r0, r8, lsl #15
    94f8:	0000a784 	andeq	sl, r0, r4, lsl #15
    94fc:	0000a630 	andeq	sl, r0, r0, lsr r6
    9500:	0000a5f8 	strdeq	sl, [r0], -r8
    9504:	0000a2a0 	andeq	sl, r0, r0, lsr #5
    9508:	0000a740 	andeq	sl, r0, r0, asr #14

0000950c <va_printk>:
    950c:	e92d4ff0 	push	{r4, r5, r6, r7, r8, r9, sl, fp, lr}
    9510:	e1a0b000 	mov	fp, r0
    9514:	e3a00000 	mov	r0, #0, 0
    9518:	e5cb0000 	strb	r0, [fp]
    951c:	e5d2c000 	ldrb	ip, [r2]
    9520:	e2417001 	sub	r7, r1, #1, 0
    9524:	e08b7007 	add	r7, fp, r7
    9528:	e15c0000 	cmp	ip, r0
    952c:	115b0007 	cmpne	fp, r7
    9530:	e24ddf47 	sub	sp, sp, #284	; 0x11c
    9534:	e58d2010 	str	r2, [sp, #16]
    9538:	2a000159 	bcs	9aa4 <va_printk+0x598>
    953c:	e1a06002 	mov	r6, r2
    9540:	e1a08003 	mov	r8, r3
    9544:	e1a0400b 	mov	r4, fp
    9548:	e59fa5a4 	ldr	sl, [pc, #1444]	; 9af4 <va_printk+0x5e8>
    954c:	e58db00c 	str	fp, [sp, #12]
    9550:	ea000005 	b	956c <va_printk+0x60>
    9554:	e4c4c001 	strb	ip, [r4], #1
    9558:	e2866001 	add	r6, r6, #1, 0
    955c:	e5d6c000 	ldrb	ip, [r6]
    9560:	e35c0000 	cmp	ip, #0, 0
    9564:	11570004 	cmpne	r7, r4
    9568:	9a00002f 	bls	962c <va_printk+0x120>
    956c:	e35c0025 	cmp	ip, #37, 0	; 0x25
    9570:	1afffff7 	bne	9554 <va_printk+0x48>
    9574:	e5d62001 	ldrb	r2, [r6, #1]
    9578:	e3520025 	cmp	r2, #37, 0	; 0x25
    957c:	04c4c001 	strbeq	ip, [r4], #1
    9580:	02866002 	addeq	r6, r6, #2, 0
    9584:	0afffff4 	beq	955c <va_printk+0x50>
    9588:	e2423030 	sub	r3, r2, #48, 0	; 0x30
    958c:	e3530009 	cmp	r3, #9, 0
    9590:	e3a05000 	mov	r5, #0, 0
    9594:	e2866001 	add	r6, r6, #1, 0
    9598:	8a000008 	bhi	95c0 <va_printk+0xb4>
    959c:	e0855105 	add	r5, r5, r5, lsl #2
    95a0:	e0825085 	add	r5, r2, r5, lsl #1
    95a4:	e5f62001 	ldrb	r2, [r6, #1]!
    95a8:	e2455030 	sub	r5, r5, #48, 0	; 0x30
    95ac:	e2423030 	sub	r3, r2, #48, 0	; 0x30
    95b0:	e3530009 	cmp	r3, #9, 0
    95b4:	9afffff8 	bls	959c <va_printk+0x90>
    95b8:	e355001f 	cmp	r5, #31, 0
    95bc:	8a00013a 	bhi	9aac <va_printk+0x5a0>
    95c0:	e2423062 	sub	r3, r2, #98, 0	; 0x62
    95c4:	e3530016 	cmp	r3, #22, 0
    95c8:	979ff103 	ldrls	pc, [pc, r3, lsl #2]
    95cc:	ea00011b 	b	9a40 <va_printk+0x534>
    95d0:	00009884 	andeq	r9, r0, r4, lsl #17
    95d4:	00009780 	andeq	r9, r0, r0, lsl #15
    95d8:	00009778 	andeq	r9, r0, r8, ror r7
    95dc:	00009a40 	andeq	r9, r0, r0, asr #20
    95e0:	00009a7c 	andeq	r9, r0, ip, ror sl
    95e4:	00009a40 	andeq	r9, r0, r0, asr #20
    95e8:	00009a40 	andeq	r9, r0, r0, asr #20
    95ec:	00009a40 	andeq	r9, r0, r0, asr #20
    95f0:	00009a40 	andeq	r9, r0, r0, asr #20
    95f4:	00009a40 	andeq	r9, r0, r0, asr #20
    95f8:	00009688 	andeq	r9, r0, r8, lsl #13
    95fc:	00009a40 	andeq	r9, r0, r0, asr #20
    9600:	00009a40 	andeq	r9, r0, r0, asr #20
    9604:	00009a40 	andeq	r9, r0, r0, asr #20
    9608:	00009644 	andeq	r9, r0, r4, asr #12
    960c:	00009a40 	andeq	r9, r0, r0, asr #20
    9610:	00009a40 	andeq	r9, r0, r0, asr #20
    9614:	0000997c 	andeq	r9, r0, ip, ror r9
    9618:	00009a40 	andeq	r9, r0, r0, asr #20
    961c:	00009754 	andeq	r9, r0, r4, asr r7
    9620:	00009a40 	andeq	r9, r0, r0, asr #20
    9624:	00009a40 	andeq	r9, r0, r0, asr #20
    9628:	00009644 	andeq	r9, r0, r4, asr #12
    962c:	e59db00c 	ldr	fp, [sp, #12]
    9630:	e3a03000 	mov	r3, #0, 0
    9634:	e4c43001 	strb	r3, [r4], #1
    9638:	e044000b 	sub	r0, r4, fp
    963c:	e28ddf47 	add	sp, sp, #284	; 0x11c
    9640:	e8bd8ff0 	pop	{r4, r5, r6, r7, r8, r9, sl, fp, pc}
    9644:	e3a01000 	mov	r1, #0, 0
    9648:	e1a03005 	mov	r3, r5
    964c:	e4982004 	ldr	r2, [r8], #4
    9650:	e3a00010 	mov	r0, #16, 0
    9654:	e58d1000 	str	r1, [sp]
    9658:	e28d1018 	add	r1, sp, #24, 0
    965c:	ebfffec8 	bl	9184 <emit.constprop.0>
    9660:	e1a05000 	mov	r5, r0
    9664:	e2866001 	add	r6, r6, #1, 0
    9668:	e2455001 	sub	r5, r5, #1, 0
    966c:	e5f53001 	ldrb	r3, [r5, #1]!
    9670:	e3530000 	cmp	r3, #0, 0
    9674:	0affffb8 	beq	955c <va_printk+0x50>
    9678:	e4c43001 	strb	r3, [r4], #1
    967c:	e1570004 	cmp	r7, r4
    9680:	8afffff9 	bhi	966c <va_printk+0x160>
    9684:	eaffffb4 	b	955c <va_printk+0x50>
    9688:	e3a02003 	mov	r2, #3, 0
    968c:	e1a00006 	mov	r0, r6
    9690:	e59f1460 	ldr	r1, [pc, #1120]	; 9af8 <va_printk+0x5ec>
    9694:	eb00029a 	bl	a104 <strncmp>
    9698:	e3500000 	cmp	r0, #0, 0
    969c:	0a000005 	beq	96b8 <va_printk+0x1ac>
    96a0:	e3a02003 	mov	r2, #3, 0
    96a4:	e1a00006 	mov	r0, r6
    96a8:	e59f144c 	ldr	r1, [pc, #1100]	; 9afc <va_printk+0x5f0>
    96ac:	eb000294 	bl	a104 <strncmp>
    96b0:	e3500000 	cmp	r0, #0, 0
    96b4:	1a00010b 	bne	9ae8 <va_printk+0x5dc>
    96b8:	e2888007 	add	r8, r8, #7, 0
    96bc:	e3c88007 	bic	r8, r8, #7, 0
    96c0:	e598b004 	ldr	fp, [r8, #4]
    96c4:	e4989008 	ldr	r9, [r8], #8
    96c8:	e1a0100b 	mov	r1, fp
    96cc:	e59f042c 	ldr	r0, [pc, #1068]	; 9b00 <va_printk+0x5f4>
    96d0:	ebfffe87 	bl	90f4 <printk>
    96d4:	e1a01009 	mov	r1, r9
    96d8:	e59f0424 	ldr	r0, [pc, #1060]	; 9b04 <va_printk+0x5f8>
    96dc:	ebfffe84 	bl	90f4 <printk>
    96e0:	e3a02003 	mov	r2, #3, 0
    96e4:	e1a00006 	mov	r0, r6
    96e8:	e59f1408 	ldr	r1, [pc, #1032]	; 9af8 <va_printk+0x5ec>
    96ec:	eb000284 	bl	a104 <strncmp>
    96f0:	e2503000 	subs	r3, r0, #0, 0
    96f4:	e1a02003 	mov	r2, r3
    96f8:	e2863002 	add	r3, r6, #2, 0
    96fc:	e58d3014 	str	r3, [sp, #20]
    9700:	1a00009f 	bne	9984 <va_printk+0x478>
    9704:	e1a06002 	mov	r6, r2
    9708:	e1a03005 	mov	r3, r5
    970c:	e58d2000 	str	r2, [sp]
    9710:	e28d1018 	add	r1, sp, #24, 0
    9714:	e1a0200b 	mov	r2, fp
    9718:	e3a00010 	mov	r0, #16, 0
    971c:	ebfffe98 	bl	9184 <emit.constprop.0>
    9720:	e1a0c000 	mov	ip, r0
    9724:	e1a03005 	mov	r3, r5
    9728:	e58d6000 	str	r6, [sp]
    972c:	e28d1098 	add	r1, sp, #152, 0	; 0x98
    9730:	e1a02009 	mov	r2, r9
    9734:	e3a00010 	mov	r0, #16, 0
    9738:	e1a0500c 	mov	r5, ip
    973c:	ebfffe90 	bl	9184 <emit.constprop.0>
    9740:	e28d0018 	add	r0, sp, #24, 0
    9744:	e28d109a 	add	r1, sp, #154, 0	; 0x9a
    9748:	e59d6014 	ldr	r6, [sp, #20]
    974c:	eb00024a 	bl	a07c <strcat>
    9750:	eaffffc3 	b	9664 <va_printk+0x158>
    9754:	e3a01000 	mov	r1, #0, 0
    9758:	e1a03005 	mov	r3, r5
    975c:	e4982004 	ldr	r2, [r8], #4
    9760:	e3a0000a 	mov	r0, #10, 0
    9764:	e58d1000 	str	r1, [sp]
    9768:	e28d1018 	add	r1, sp, #24, 0
    976c:	ebfffe84 	bl	9184 <emit.constprop.0>
    9770:	e1a05000 	mov	r5, r0
    9774:	eaffffba 	b	9664 <va_printk+0x158>
    9778:	e3a01001 	mov	r1, #1, 0
    977c:	eafffff5 	b	9758 <va_printk+0x24c>
    9780:	e4983004 	ldr	r3, [r8], #4
    9784:	e3550001 	cmp	r5, #1, 0
    9788:	e5cd3098 	strb	r3, [sp, #152]	; 0x98
    978c:	9a0000a6 	bls	9a2c <va_printk+0x520>
    9790:	e2453002 	sub	r3, r5, #2, 0
    9794:	e3530002 	cmp	r3, #2, 0
    9798:	e2451001 	sub	r1, r5, #1, 0
    979c:	9a0000bc 	bls	9a94 <va_printk+0x588>
    97a0:	e59f0360 	ldr	r0, [pc, #864]	; 9b08 <va_printk+0x5fc>
    97a4:	e1a02121 	lsr	r2, r1, #2
    97a8:	e3520001 	cmp	r2, #1, 0
    97ac:	e58d0099 	str	r0, [sp, #153]	; 0x99
    97b0:	0a00000e 	beq	97f0 <va_printk+0x2e4>
    97b4:	e3520002 	cmp	r2, #2, 0
    97b8:	e58d009d 	str	r0, [sp, #157]	; 0x9d
    97bc:	0a00000b 	beq	97f0 <va_printk+0x2e4>
    97c0:	e3520003 	cmp	r2, #3, 0
    97c4:	e58d00a1 	str	r0, [sp, #161]	; 0xa1
    97c8:	0a000008 	beq	97f0 <va_printk+0x2e4>
    97cc:	e3520004 	cmp	r2, #4, 0
    97d0:	e58d00a5 	str	r0, [sp, #165]	; 0xa5
    97d4:	0a000005 	beq	97f0 <va_printk+0x2e4>
    97d8:	e3520005 	cmp	r2, #5, 0
    97dc:	e58d00a9 	str	r0, [sp, #169]	; 0xa9
    97e0:	0a000002 	beq	97f0 <va_printk+0x2e4>
    97e4:	e3520007 	cmp	r2, #7, 0
    97e8:	e58d00ad 	str	r0, [sp, #173]	; 0xad
    97ec:	058d00b1 	streq	r0, [sp, #177]	; 0xb1
    97f0:	e3c12003 	bic	r2, r1, #3, 0
    97f4:	e1510002 	cmp	r1, r2
    97f8:	e28dc099 	add	ip, sp, #153, 0	; 0x99
    97fc:	e08c0002 	add	r0, ip, r2
    9800:	e2822001 	add	r2, r2, #1, 0
    9804:	0a000008 	beq	982c <va_printk+0x320>
    9808:	e3a0e020 	mov	lr, #32, 0
    980c:	e2829001 	add	r9, r2, #1, 0
    9810:	e1550009 	cmp	r5, r9
    9814:	e5c0e000 	strb	lr, [r0]
    9818:	da000003 	ble	982c <va_printk+0x320>
    981c:	e2822002 	add	r2, r2, #2, 0
    9820:	e1550002 	cmp	r5, r2
    9824:	e5c0e001 	strb	lr, [r0, #1]
    9828:	c5c0e002 	strbgt	lr, [r0, #2]
    982c:	e3a0e000 	mov	lr, #0, 0
    9830:	e28d0098 	add	r0, sp, #152, 0	; 0x98
    9834:	e08c2001 	add	r2, ip, r1
    9838:	e0422000 	sub	r2, r2, r0
    983c:	e352007f 	cmp	r2, #127, 0	; 0x7f
    9840:	c242207f 	subgt	r2, r2, #127, 0	; 0x7f
    9844:	e08c3003 	add	r3, ip, r3
    9848:	c0800002 	addgt	r0, r0, r2
    984c:	e1530000 	cmp	r3, r0
    9850:	e7cce001 	strb	lr, [ip, r1]
    9854:	3a00006c 	bcc	9a0c <va_printk+0x500>
    9858:	e283c001 	add	ip, r3, #1, 0
    985c:	e1a0300c 	mov	r3, ip
    9860:	e28d5018 	add	r5, sp, #24, 0
    9864:	e2452001 	sub	r2, r5, #1, 0
    9868:	e5731001 	ldrb	r1, [r3, #-1]!
    986c:	e1500003 	cmp	r0, r3
    9870:	e5e21001 	strb	r1, [r2, #1]!
    9874:	1afffffb 	bne	9868 <va_printk+0x35c>
    9878:	e04c3000 	sub	r3, ip, r0
    987c:	e0853003 	add	r3, r5, r3
    9880:	ea00003a 	b	9970 <va_printk+0x464>
    9884:	e28d1098 	add	r1, sp, #152, 0	; 0x98
    9888:	e1a03001 	mov	r3, r1
    988c:	e4980004 	ldr	r0, [r8], #4
    9890:	e200c001 	and	ip, r0, #1, 0
    9894:	e7dac00c 	ldrb	ip, [sl, ip]
    9898:	e3500001 	cmp	r0, #1, 0
    989c:	e1a02003 	mov	r2, r3
    98a0:	e1a000a0 	lsr	r0, r0, #1
    98a4:	e4c3c001 	strb	ip, [r3], #1
    98a8:	8afffff8 	bhi	9890 <va_printk+0x384>
    98ac:	e0430001 	sub	r0, r3, r1
    98b0:	e1550000 	cmp	r5, r0
    98b4:	da000057 	ble	9a18 <va_printk+0x50c>
    98b8:	e045c000 	sub	ip, r5, r0
    98bc:	e24ce001 	sub	lr, ip, #1, 0
    98c0:	e35e0002 	cmp	lr, #2, 0
    98c4:	e1a0e003 	mov	lr, r3
    98c8:	9a00000a 	bls	98f8 <va_printk+0x3ec>
    98cc:	e3cc9003 	bic	r9, ip, #3, 0
    98d0:	e0899003 	add	r9, r9, r3
    98d4:	e59fb22c 	ldr	fp, [pc, #556]	; 9b08 <va_printk+0x5fc>
    98d8:	e48eb004 	str	fp, [lr], #4
    98dc:	e15e0009 	cmp	lr, r9
    98e0:	1afffffb 	bne	98d4 <va_printk+0x3c8>
    98e4:	e3cce003 	bic	lr, ip, #3, 0
    98e8:	e15e000c 	cmp	lr, ip
    98ec:	e080000e 	add	r0, r0, lr
    98f0:	e083e00e 	add	lr, r3, lr
    98f4:	0a000008 	beq	991c <va_printk+0x410>
    98f8:	e3a09020 	mov	r9, #32, 0
    98fc:	e280b001 	add	fp, r0, #1, 0
    9900:	e155000b 	cmp	r5, fp
    9904:	e5ce9000 	strb	r9, [lr]
    9908:	da000003 	ble	991c <va_printk+0x410>
    990c:	e2800002 	add	r0, r0, #2, 0
    9910:	e1550000 	cmp	r5, r0
    9914:	e5ce9001 	strb	r9, [lr, #1]
    9918:	c5ce9002 	strbgt	r9, [lr, #2]
    991c:	e3a0e000 	mov	lr, #0, 0
    9920:	e083000c 	add	r0, r3, ip
    9924:	e0400001 	sub	r0, r0, r1
    9928:	e350007f 	cmp	r0, #127, 0	; 0x7f
    992c:	e082200c 	add	r2, r2, ip
    9930:	e7c3e00c 	strb	lr, [r3, ip]
    9934:	da000001 	ble	9940 <va_printk+0x434>
    9938:	e240007f 	sub	r0, r0, #127, 0	; 0x7f
    993c:	e0811000 	add	r1, r1, r0
    9940:	e1510002 	cmp	r1, r2
    9944:	8a000030 	bhi	9a0c <va_printk+0x500>
    9948:	e2822001 	add	r2, r2, #1, 0
    994c:	e1a03002 	mov	r3, r2
    9950:	e28d5018 	add	r5, sp, #24, 0
    9954:	e245c001 	sub	ip, r5, #1, 0
    9958:	e5730001 	ldrb	r0, [r3, #-1]!
    995c:	e1530001 	cmp	r3, r1
    9960:	e5ec0001 	strb	r0, [ip, #1]!
    9964:	1afffffb 	bne	9958 <va_printk+0x44c>
    9968:	e0423003 	sub	r3, r2, r3
    996c:	e0853003 	add	r3, r5, r3
    9970:	e3a02000 	mov	r2, #0, 0
    9974:	e5c32000 	strb	r2, [r3]
    9978:	eaffff39 	b	9664 <va_printk+0x158>
    997c:	e4985004 	ldr	r5, [r8], #4
    9980:	eaffff37 	b	9664 <va_printk+0x158>
    9984:	e3a02003 	mov	r2, #3, 0
    9988:	e1a00006 	mov	r0, r6
    998c:	e59f1168 	ldr	r1, [pc, #360]	; 9afc <va_printk+0x5f0>
    9990:	eb0001db 	bl	a104 <strncmp>
    9994:	e2503000 	subs	r3, r0, #0, 0
    9998:	1a00004b 	bne	9acc <va_printk+0x5c0>
    999c:	e1a06003 	mov	r6, r3
    99a0:	e1a0200b 	mov	r2, fp
    99a4:	e58d3000 	str	r3, [sp]
    99a8:	e28d1018 	add	r1, sp, #24, 0
    99ac:	e1a03005 	mov	r3, r5
    99b0:	e3a0000a 	mov	r0, #10, 0
    99b4:	ebfffdf2 	bl	9184 <emit.constprop.0>
    99b8:	e1a0c000 	mov	ip, r0
    99bc:	e1a03005 	mov	r3, r5
    99c0:	e1a02009 	mov	r2, r9
    99c4:	e28d1098 	add	r1, sp, #152, 0	; 0x98
    99c8:	e3a0000a 	mov	r0, #10, 0
    99cc:	e58d6000 	str	r6, [sp]
    99d0:	e1a0500c 	mov	r5, ip
    99d4:	ebfffdea 	bl	9184 <emit.constprop.0>
    99d8:	e59f112c 	ldr	r1, [pc, #300]	; 9b0c <va_printk+0x600>
    99dc:	e28d0018 	add	r0, sp, #24, 0
    99e0:	eb0001b0 	bl	a0a8 <strcmp>
    99e4:	e3500000 	cmp	r0, #0, 0
    99e8:	e28d1098 	add	r1, sp, #152, 0	; 0x98
    99ec:	e28d0018 	add	r0, sp, #24, 0
    99f0:	1a000002 	bne	9a00 <va_printk+0x4f4>
    99f4:	eb0001bc 	bl	a0ec <strcpy>
    99f8:	e59d6014 	ldr	r6, [sp, #20]
    99fc:	eaffff18 	b	9664 <va_printk+0x158>
    9a00:	eb00019d 	bl	a07c <strcat>
    9a04:	e59d6014 	ldr	r6, [sp, #20]
    9a08:	eaffff15 	b	9664 <va_printk+0x158>
    9a0c:	e28d5018 	add	r5, sp, #24, 0
    9a10:	e1a03005 	mov	r3, r5
    9a14:	eaffffd5 	b	9970 <va_printk+0x464>
    9a18:	e3a0c000 	mov	ip, #0, 0
    9a1c:	e350007f 	cmp	r0, #127, 0	; 0x7f
    9a20:	e5c3c000 	strb	ip, [r3]
    9a24:	caffffc3 	bgt	9938 <va_printk+0x42c>
    9a28:	eaffffc6 	b	9948 <va_printk+0x43c>
    9a2c:	e3a02000 	mov	r2, #0, 0
    9a30:	e28d3098 	add	r3, sp, #152, 0	; 0x98
    9a34:	e1a00003 	mov	r0, r3
    9a38:	e5cd2099 	strb	r2, [sp, #153]	; 0x99
    9a3c:	eaffff85 	b	9858 <va_printk+0x34c>
    9a40:	e3a03000 	mov	r3, #0, 0
    9a44:	e1a01002 	mov	r1, r2
    9a48:	e5c63001 	strb	r3, [r6, #1]
    9a4c:	e59f00bc 	ldr	r0, [pc, #188]	; 9b10 <va_printk+0x604>
    9a50:	ebfffda7 	bl	90f4 <printk>
    9a54:	e59f30b8 	ldr	r3, [pc, #184]	; 9b14 <va_printk+0x608>
    9a58:	e59d0010 	ldr	r0, [sp, #16]
    9a5c:	e5933000 	ldr	r3, [r3]
    9a60:	e12fff33 	blx	r3
    9a64:	e3a030e2 	mov	r3, #226, 0	; 0xe2
    9a68:	e59f20a8 	ldr	r2, [pc, #168]	; 9b18 <va_printk+0x60c>
    9a6c:	e59f10a8 	ldr	r1, [pc, #168]	; 9b1c <va_printk+0x610>
    9a70:	e59f00a8 	ldr	r0, [pc, #168]	; 9b20 <va_printk+0x614>
    9a74:	ebfffd9e 	bl	90f4 <printk>
    9a78:	eb00002e 	bl	9b38 <clean_reboot>
    9a7c:	e3a030be 	mov	r3, #190, 0	; 0xbe
    9a80:	e59f2090 	ldr	r2, [pc, #144]	; 9b18 <va_printk+0x60c>
    9a84:	e59f1090 	ldr	r1, [pc, #144]	; 9b1c <va_printk+0x610>
    9a88:	e59f0094 	ldr	r0, [pc, #148]	; 9b24 <va_printk+0x618>
    9a8c:	ebfffd98 	bl	90f4 <printk>
    9a90:	eb000028 	bl	9b38 <clean_reboot>
    9a94:	e28dc099 	add	ip, sp, #153, 0	; 0x99
    9a98:	e1a0000c 	mov	r0, ip
    9a9c:	e3a02001 	mov	r2, #1, 0
    9aa0:	eaffff58 	b	9808 <va_printk+0x2fc>
    9aa4:	e1a0400b 	mov	r4, fp
    9aa8:	eafffee0 	b	9630 <va_printk+0x124>
    9aac:	e3a03098 	mov	r3, #152, 0	; 0x98
    9ab0:	e59f2070 	ldr	r2, [pc, #112]	; 9b28 <va_printk+0x61c>
    9ab4:	e59f1060 	ldr	r1, [pc, #96]	; 9b1c <va_printk+0x610>
    9ab8:	e58d2000 	str	r2, [sp]
    9abc:	e59f0068 	ldr	r0, [pc, #104]	; 9b2c <va_printk+0x620>
    9ac0:	e59f2050 	ldr	r2, [pc, #80]	; 9b18 <va_printk+0x60c>
    9ac4:	ebfffd8a 	bl	90f4 <printk>
    9ac8:	eb00001a 	bl	9b38 <clean_reboot>
    9acc:	e3a030b6 	mov	r3, #182, 0	; 0xb6
    9ad0:	e59f2040 	ldr	r2, [pc, #64]	; 9b18 <va_printk+0x60c>
    9ad4:	e59f1040 	ldr	r1, [pc, #64]	; 9b1c <va_printk+0x610>
    9ad8:	e59f0050 	ldr	r0, [pc, #80]	; 9b30 <va_printk+0x624>
    9adc:	e58d6000 	str	r6, [sp]
    9ae0:	ebfffd83 	bl	90f4 <printk>
    9ae4:	eb000013 	bl	9b38 <clean_reboot>
    9ae8:	e3a0309f 	mov	r3, #159, 0	; 0x9f
    9aec:	e59f2040 	ldr	r2, [pc, #64]	; 9b34 <va_printk+0x628>
    9af0:	eaffffef 	b	9ab4 <va_printk+0x5a8>
    9af4:	0000a620 	andeq	sl, r0, r0, lsr #12
    9af8:	0000a644 	andeq	sl, r0, r4, asr #12
    9afc:	0000a658 	andeq	sl, r0, r8, asr r6
    9b00:	0000a648 	andeq	sl, r0, r8, asr #12
    9b04:	0000a650 	andeq	sl, r0, r0, asr r6
    9b08:	20202020 	eorcs	r2, r0, r0, lsr #32
    9b0c:	0000a4ec 	andeq	sl, r0, ip, ror #9
    9b10:	0000a6e8 	andeq	sl, r0, r8, ror #13
    9b14:	0000a784 	andeq	sl, r0, r4, lsl #15
    9b18:	0000a750 	andeq	sl, r0, r0, asr r7
    9b1c:	0000a5f8 	strdeq	sl, [r0], -r8
    9b20:	0000a718 	andeq	sl, r0, r8, lsl r7
    9b24:	0000a6c0 	andeq	sl, r0, r0, asr #13
    9b28:	0000a638 	andeq	sl, r0, r8, lsr r6
    9b2c:	0000a2a0 	andeq	sl, r0, r0, lsr #5
    9b30:	0000a698 	muleq	r0, r8, r6
    9b34:	0000a65c 	andeq	sl, r0, ip, asr r6

00009b38 <clean_reboot>:
    9b38:	e59f301c 	ldr	r3, [pc, #28]	; 9b5c <clean_reboot+0x24>
    9b3c:	e92d4010 	push	{r4, lr}
    9b40:	e5933000 	ldr	r3, [r3]
    9b44:	e59f0014 	ldr	r0, [pc, #20]	; 9b60 <clean_reboot+0x28>
    9b48:	e12fff33 	blx	r3
    9b4c:	eb00012d 	bl	a008 <uart_flush_tx>
    9b50:	e3a0000a 	mov	r0, #10, 0
    9b54:	eb000094 	bl	9dac <delay_ms>
    9b58:	eb00005d 	bl	9cd4 <rpi_reboot>
    9b5c:	0000a784 	andeq	sl, r0, r4, lsl #15
    9b60:	0000a75c 	andeq	sl, r0, ip, asr r7

00009b64 <_cstart>:
    9b64:	e92d4070 	push	{r4, r5, r6, lr}
    9b68:	eb000047 	bl	9c8c <custom_loader>
    9b6c:	e59f2108 	ldr	r2, [pc, #264]	; 9c7c <_cstart+0x118>
    9b70:	e59fc108 	ldr	ip, [pc, #264]	; 9c80 <_cstart+0x11c>
    9b74:	e152000c 	cmp	r2, ip
    9b78:	2a00002e 	bcs	9c38 <_cstart+0xd4>
    9b7c:	e24c1001 	sub	r1, ip, #1, 0
    9b80:	e0411002 	sub	r1, r1, r2
    9b84:	e3510017 	cmp	r1, #23, 0
    9b88:	e1a03122 	lsr	r3, r2, #2
    9b8c:	e1a01121 	lsr	r1, r1, #2
    9b90:	e2811001 	add	r1, r1, #1, 0
    9b94:	e2033001 	and	r3, r3, #1, 0
    9b98:	9a000035 	bls	9c74 <_cstart+0x110>
    9b9c:	e3530000 	cmp	r3, #0, 0
    9ba0:	11a00002 	movne	r0, r2
    9ba4:	13a0e000 	movne	lr, #0, 0
    9ba8:	e3a04000 	mov	r4, #0, 0
    9bac:	e3a05000 	mov	r5, #0, 0
    9bb0:	e0411003 	sub	r1, r1, r3
    9bb4:	01a00002 	moveq	r0, r2
    9bb8:	e0823103 	add	r3, r2, r3, lsl #2
    9bbc:	e1a020a1 	lsr	r2, r1, #1
    9bc0:	1480e004 	strne	lr, [r0], #4
    9bc4:	e0832182 	add	r2, r3, r2, lsl #3
    9bc8:	e0c340f8 	strd	r4, [r3], #8
    9bcc:	e1520003 	cmp	r2, r3
    9bd0:	1afffffc 	bne	9bc8 <_cstart+0x64>
    9bd4:	e3c13001 	bic	r3, r1, #1, 0
    9bd8:	e1510003 	cmp	r1, r3
    9bdc:	e0803103 	add	r3, r0, r3, lsl #2
    9be0:	0a000014 	beq	9c38 <_cstart+0xd4>
    9be4:	e1a01003 	mov	r1, r3
    9be8:	e3a02000 	mov	r2, #0, 0
    9bec:	e4812004 	str	r2, [r1], #4
    9bf0:	e151000c 	cmp	r1, ip
    9bf4:	2a00000f 	bcs	9c38 <_cstart+0xd4>
    9bf8:	e2831008 	add	r1, r3, #8, 0
    9bfc:	e151000c 	cmp	r1, ip
    9c00:	e5832004 	str	r2, [r3, #4]
    9c04:	2a00000b 	bcs	9c38 <_cstart+0xd4>
    9c08:	e283100c 	add	r1, r3, #12, 0
    9c0c:	e151000c 	cmp	r1, ip
    9c10:	e5832008 	str	r2, [r3, #8]
    9c14:	2a000007 	bcs	9c38 <_cstart+0xd4>
    9c18:	e2831010 	add	r1, r3, #16, 0
    9c1c:	e151000c 	cmp	r1, ip
    9c20:	e583200c 	str	r2, [r3, #12]
    9c24:	2a000003 	bcs	9c38 <_cstart+0xd4>
    9c28:	e2831014 	add	r1, r3, #20, 0
    9c2c:	e151000c 	cmp	r1, ip
    9c30:	e5832010 	str	r2, [r3, #16]
    9c34:	35832014 	strcc	r2, [r3, #20]
    9c38:	eb000094 	bl	9e90 <uart_init>
    9c3c:	e3a03001 	mov	r3, #1, 0
    9c40:	ee0f3f1c 	mcr	15, 0, r3, cr15, cr12, {0}
    9c44:	ee1f3f3c 	mrc	15, 0, r3, cr15, cr12, {1}
    9c48:	e59f4034 	ldr	r4, [pc, #52]	; 9c84 <_cstart+0x120>
    9c4c:	e5843000 	str	r3, [r4]
    9c50:	ebfffa23 	bl	84e4 <notmain>
    9c54:	ee1f3f3c 	mrc	15, 0, r3, cr15, cr12, {1}
    9c58:	e5941000 	ldr	r1, [r4]
    9c5c:	e59f0024 	ldr	r0, [pc, #36]	; 9c88 <_cstart+0x124>
    9c60:	e3510000 	cmp	r1, #0, 0
    9c64:	10431001 	subne	r1, r3, r1
    9c68:	e5843000 	str	r3, [r4]
    9c6c:	ebfffd20 	bl	90f4 <printk>
    9c70:	ebffffb0 	bl	9b38 <clean_reboot>
    9c74:	e1a03002 	mov	r3, r2
    9c78:	eaffffd9 	b	9be4 <_cstart+0x80>
    9c7c:	0000a78c 	andeq	sl, r0, ip, lsl #15
    9c80:	0000ab98 	muleq	r0, r8, fp
    9c84:	0000ab90 	muleq	r0, r0, fp
    9c88:	0000a768 	andeq	sl, r0, r8, ror #14

00009c8c <custom_loader>:
    9c8c:	e12fff1e 	bx	lr

00009c90 <dev_barrier>:
    9c90:	ea000002 	b	9ca0 <dsb>

00009c94 <dmb>:
    9c94:	e3a00000 	mov	r0, #0, 0
    9c98:	ee070fba 	mcr	15, 0, r0, cr7, cr10, {5}
    9c9c:	e12fff1e 	bx	lr

00009ca0 <dsb>:
    9ca0:	ee070f9a 	mcr	15, 0, r0, cr7, cr10, {4}
    9ca4:	e12fff1e 	bx	lr

00009ca8 <at_user_level>:
    9ca8:	e10f0000 	mrs	r0, CPSR
    9cac:	e200001f 	and	r0, r0, #31, 0
    9cb0:	e2400010 	sub	r0, r0, #16, 0
    9cb4:	e16f0f10 	clz	r0, r0
    9cb8:	e1a002a0 	lsr	r0, r0, #5
    9cbc:	e12fff1e 	bx	lr

00009cc0 <set_user_level>:
    9cc0:	e10f3000 	mrs	r3, CPSR
    9cc4:	e3c3301f 	bic	r3, r3, #31, 0
    9cc8:	e3833010 	orr	r3, r3, #16, 0
    9ccc:	e129f003 	msr	CPSR_fc, r3
    9cd0:	e12fff1e 	bx	lr

00009cd4 <rpi_reboot>:
    9cd4:	e92d4010 	push	{r4, lr}
    9cd8:	e10f3000 	mrs	r3, CPSR
    9cdc:	e203301f 	and	r3, r3, #31, 0
    9ce0:	e3530010 	cmp	r3, #16, 0
    9ce4:	1a000003 	bne	9cf8 <rpi_reboot+0x24>
    9ce8:	e10f3000 	mrs	r3, CPSR
    9cec:	e3c3301f 	bic	r3, r3, #31, 0
    9cf0:	e3833010 	orr	r3, r3, #16, 0
    9cf4:	e129f003 	msr	CPSR_fc, r3
    9cf8:	eb00010d 	bl	a134 <reboot_callout>
    9cfc:	eb0000c1 	bl	a008 <uart_flush_tx>
    9d00:	e3a0000a 	mov	r0, #10, 0
    9d04:	eb000028 	bl	9dac <delay_ms>
    9d08:	e59f1014 	ldr	r1, [pc, #20]	; 9d24 <rpi_reboot+0x50>
    9d0c:	e59f0014 	ldr	r0, [pc, #20]	; 9d28 <rpi_reboot+0x54>
    9d10:	ebfff8c3 	bl	8024 <PUT32>
    9d14:	e59f1010 	ldr	r1, [pc, #16]	; 9d2c <rpi_reboot+0x58>
    9d18:	e59f0010 	ldr	r0, [pc, #16]	; 9d30 <rpi_reboot+0x5c>
    9d1c:	ebfff8c0 	bl	8024 <PUT32>
    9d20:	eafffffe 	b	9d20 <rpi_reboot+0x4c>
    9d24:	5a000001 	bpl	9d30 <rpi_reboot+0x5c>
    9d28:	20100024 	andscs	r0, r0, r4, lsr #32
    9d2c:	5a000020 	bpl	9db4 <delay_ms+0x8>
    9d30:	2010001c 	andscs	r0, r0, ip, lsl r0

00009d34 <timer_get_usec_raw>:
    9d34:	e59f0000 	ldr	r0, [pc]	; 9d3c <timer_get_usec_raw+0x8>
    9d38:	eafff8bb 	b	802c <GET32>
    9d3c:	20003004 	andcs	r3, r0, r4

00009d40 <timer_get_usec>:
    9d40:	e92d4010 	push	{r4, lr}
    9d44:	ebffffd1 	bl	9c90 <dev_barrier>
    9d48:	e59f0010 	ldr	r0, [pc, #16]	; 9d60 <timer_get_usec+0x20>
    9d4c:	ebfff8b6 	bl	802c <GET32>
    9d50:	e1a04000 	mov	r4, r0
    9d54:	ebffffcd 	bl	9c90 <dev_barrier>
    9d58:	e1a00004 	mov	r0, r4
    9d5c:	e8bd8010 	pop	{r4, pc}
    9d60:	20003004 	andcs	r3, r0, r4

00009d64 <delay_us>:
    9d64:	e92d41f0 	push	{r4, r5, r6, r7, r8, lr}
    9d68:	e1a06000 	mov	r6, r0
    9d6c:	ebffffc7 	bl	9c90 <dev_barrier>
    9d70:	e59f0030 	ldr	r0, [pc, #48]	; 9da8 <delay_us+0x44>
    9d74:	ebfff8ac 	bl	802c <GET32>
    9d78:	e1a05000 	mov	r5, r0
    9d7c:	ebffffc3 	bl	9c90 <dev_barrier>
    9d80:	e59f7020 	ldr	r7, [pc, #32]	; 9da8 <delay_us+0x44>
    9d84:	ebffffc1 	bl	9c90 <dev_barrier>
    9d88:	e1a00007 	mov	r0, r7
    9d8c:	ebfff8a6 	bl	802c <GET32>
    9d90:	e1a04000 	mov	r4, r0
    9d94:	e0444005 	sub	r4, r4, r5
    9d98:	ebffffbc 	bl	9c90 <dev_barrier>
    9d9c:	e1540006 	cmp	r4, r6
    9da0:	3afffff7 	bcc	9d84 <delay_us+0x20>
    9da4:	e8bd81f0 	pop	{r4, r5, r6, r7, r8, pc}
    9da8:	20003004 	andcs	r3, r0, r4

00009dac <delay_ms>:
    9dac:	e92d41f0 	push	{r4, r5, r6, r7, r8, lr}
    9db0:	e0604280 	rsb	r4, r0, r0, lsl #5
    9db4:	e0800104 	add	r0, r0, r4, lsl #2
    9db8:	e1a04180 	lsl	r4, r0, #3
    9dbc:	ebffffb3 	bl	9c90 <dev_barrier>
    9dc0:	e59f0030 	ldr	r0, [pc, #48]	; 9df8 <delay_ms+0x4c>
    9dc4:	ebfff898 	bl	802c <GET32>
    9dc8:	e1a06000 	mov	r6, r0
    9dcc:	ebffffaf 	bl	9c90 <dev_barrier>
    9dd0:	e59f7020 	ldr	r7, [pc, #32]	; 9df8 <delay_ms+0x4c>
    9dd4:	ebffffad 	bl	9c90 <dev_barrier>
    9dd8:	e1a00007 	mov	r0, r7
    9ddc:	ebfff892 	bl	802c <GET32>
    9de0:	e1a05000 	mov	r5, r0
    9de4:	e0455006 	sub	r5, r5, r6
    9de8:	ebffffa8 	bl	9c90 <dev_barrier>
    9dec:	e1540005 	cmp	r4, r5
    9df0:	8afffff7 	bhi	9dd4 <delay_ms+0x28>
    9df4:	e8bd81f0 	pop	{r4, r5, r6, r7, r8, pc}
    9df8:	20003004 	andcs	r3, r0, r4

00009dfc <delay_sec>:
    9dfc:	e92d41f0 	push	{r4, r5, r6, r7, r8, lr}
    9e00:	e0604280 	rsb	r4, r0, r0, lsl #5
    9e04:	e0644304 	rsb	r4, r4, r4, lsl #6
    9e08:	e0800184 	add	r0, r0, r4, lsl #3
    9e0c:	e1a04300 	lsl	r4, r0, #6
    9e10:	ebffff9e 	bl	9c90 <dev_barrier>
    9e14:	e59f0030 	ldr	r0, [pc, #48]	; 9e4c <delay_sec+0x50>
    9e18:	ebfff883 	bl	802c <GET32>
    9e1c:	e1a06000 	mov	r6, r0
    9e20:	ebffff9a 	bl	9c90 <dev_barrier>
    9e24:	e59f7020 	ldr	r7, [pc, #32]	; 9e4c <delay_sec+0x50>
    9e28:	ebffff98 	bl	9c90 <dev_barrier>
    9e2c:	e1a00007 	mov	r0, r7
    9e30:	ebfff87d 	bl	802c <GET32>
    9e34:	e1a05000 	mov	r5, r0
    9e38:	e0455006 	sub	r5, r5, r6
    9e3c:	ebffff93 	bl	9c90 <dev_barrier>
    9e40:	e1540005 	cmp	r4, r5
    9e44:	8afffff7 	bhi	9e28 <delay_sec+0x2c>
    9e48:	e8bd81f0 	pop	{r4, r5, r6, r7, r8, pc}
    9e4c:	20003004 	andcs	r3, r0, r4

00009e50 <and_in32>:
    9e50:	e92d4070 	push	{r4, r5, r6, lr}
    9e54:	e1a04000 	mov	r4, r0
    9e58:	e1a05001 	mov	r5, r1
    9e5c:	ebfff872 	bl	802c <GET32>
    9e60:	e0001005 	and	r1, r0, r5
    9e64:	e1a00004 	mov	r0, r4
    9e68:	ebfff86d 	bl	8024 <PUT32>
    9e6c:	e8bd8070 	pop	{r4, r5, r6, pc}

00009e70 <or_in32>:
    9e70:	e92d4070 	push	{r4, r5, r6, lr}
    9e74:	e1a04000 	mov	r4, r0
    9e78:	e1a05001 	mov	r5, r1
    9e7c:	ebfff86a 	bl	802c <GET32>
    9e80:	e1801005 	orr	r1, r0, r5
    9e84:	e1a00004 	mov	r0, r4
    9e88:	ebfff865 	bl	8024 <PUT32>
    9e8c:	e8bd8070 	pop	{r4, r5, r6, pc}

00009e90 <uart_init>:
    9e90:	e92d4010 	push	{r4, lr}
    9e94:	e3a01002 	mov	r1, #2, 0
    9e98:	e3a0000e 	mov	r0, #14, 0
    9e9c:	ebfffc2e 	bl	8f5c <gpio_set_function>
    9ea0:	e3a01002 	mov	r1, #2, 0
    9ea4:	e3a0000f 	mov	r0, #15, 0
    9ea8:	ebfffc2b 	bl	8f5c <gpio_set_function>
    9eac:	ebffff77 	bl	9c90 <dev_barrier>
    9eb0:	e3a01001 	mov	r1, #1, 0
    9eb4:	e59f0064 	ldr	r0, [pc, #100]	; 9f20 <uart_init+0x90>
    9eb8:	ebffffec 	bl	9e70 <or_in32>
    9ebc:	ebffff73 	bl	9c90 <dev_barrier>
    9ec0:	e59f405c 	ldr	r4, [pc, #92]	; 9f24 <uart_init+0x94>
    9ec4:	e3a01000 	mov	r1, #0, 0
    9ec8:	e1a00004 	mov	r0, r4
    9ecc:	ebfff854 	bl	8024 <PUT32>
    9ed0:	e3a01000 	mov	r1, #0, 0
    9ed4:	e59f004c 	ldr	r0, [pc, #76]	; 9f28 <uart_init+0x98>
    9ed8:	ebfff851 	bl	8024 <PUT32>
    9edc:	e3a01003 	mov	r1, #3, 0
    9ee0:	e59f0044 	ldr	r0, [pc, #68]	; 9f2c <uart_init+0x9c>
    9ee4:	ebfff84e 	bl	8024 <PUT32>
    9ee8:	e3a01000 	mov	r1, #0, 0
    9eec:	e59f003c 	ldr	r0, [pc, #60]	; 9f30 <uart_init+0xa0>
    9ef0:	ebfff84b 	bl	8024 <PUT32>
    9ef4:	e3a010c7 	mov	r1, #199, 0	; 0xc7
    9ef8:	e59f0034 	ldr	r0, [pc, #52]	; 9f34 <uart_init+0xa4>
    9efc:	ebfff848 	bl	8024 <PUT32>
    9f00:	e59f1030 	ldr	r1, [pc, #48]	; 9f38 <uart_init+0xa8>
    9f04:	e59f0030 	ldr	r0, [pc, #48]	; 9f3c <uart_init+0xac>
    9f08:	ebfff845 	bl	8024 <PUT32>
    9f0c:	e3a01003 	mov	r1, #3, 0
    9f10:	e1a00004 	mov	r0, r4
    9f14:	ebfff842 	bl	8024 <PUT32>
    9f18:	ebffff5c 	bl	9c90 <dev_barrier>
    9f1c:	e8bd8010 	pop	{r4, pc}
    9f20:	20215004 	eorcs	r5, r1, r4
    9f24:	20215060 	eorcs	r5, r1, r0, rrx
    9f28:	20215044 	eorcs	r5, r1, r4, asr #32
    9f2c:	2021504c 	eorcs	r5, r1, ip, asr #32
    9f30:	20215050 	eorcs	r5, r1, r0, asr r0
    9f34:	20215048 	eorcs	r5, r1, r8, asr #32
    9f38:	0000010e 	andeq	r0, r0, lr, lsl #2
    9f3c:	20215068 	eorcs	r5, r1, r8, rrx

00009f40 <uart_can_getc>:
    9f40:	e92d4010 	push	{r4, lr}
    9f44:	e59f0008 	ldr	r0, [pc, #8]	; 9f54 <uart_can_getc+0x14>
    9f48:	ebfff837 	bl	802c <GET32>
    9f4c:	e2000001 	and	r0, r0, #1, 0
    9f50:	e8bd8010 	pop	{r4, pc}
    9f54:	20215064 	eorcs	r5, r1, r4, rrx

00009f58 <uart_can_putc>:
    9f58:	e92d4010 	push	{r4, lr}
    9f5c:	e59f0010 	ldr	r0, [pc, #16]	; 9f74 <uart_can_putc+0x1c>
    9f60:	ebfff831 	bl	802c <GET32>
    9f64:	e3100002 	tst	r0, #2, 0
    9f68:	13a00001 	movne	r0, #1, 0
    9f6c:	03a00000 	moveq	r0, #0, 0
    9f70:	e8bd8010 	pop	{r4, pc}
    9f74:	20215064 	eorcs	r5, r1, r4, rrx

00009f78 <uart_getc>:
    9f78:	e92d4010 	push	{r4, lr}
    9f7c:	ebffff43 	bl	9c90 <dev_barrier>
    9f80:	ebffffee 	bl	9f40 <uart_can_getc>
    9f84:	e3500000 	cmp	r0, #0, 0
    9f88:	0afffffc 	beq	9f80 <uart_getc+0x8>
    9f8c:	e59f0010 	ldr	r0, [pc, #16]	; 9fa4 <uart_getc+0x2c>
    9f90:	ebfff825 	bl	802c <GET32>
    9f94:	e6ef4070 	uxtb	r4, r0
    9f98:	ebffff3c 	bl	9c90 <dev_barrier>
    9f9c:	e1a00004 	mov	r0, r4
    9fa0:	e8bd8010 	pop	{r4, pc}
    9fa4:	20215040 	eorcs	r5, r1, r0, asr #32

00009fa8 <uart_putc>:
    9fa8:	e92d4010 	push	{r4, lr}
    9fac:	e1a04000 	mov	r4, r0
    9fb0:	ebffff36 	bl	9c90 <dev_barrier>
    9fb4:	ebffffe7 	bl	9f58 <uart_can_putc>
    9fb8:	e3500000 	cmp	r0, #0, 0
    9fbc:	0afffffc 	beq	9fb4 <uart_putc+0xc>
    9fc0:	e6ef1074 	uxtb	r1, r4
    9fc4:	e59f0008 	ldr	r0, [pc, #8]	; 9fd4 <uart_putc+0x2c>
    9fc8:	ebfff815 	bl	8024 <PUT32>
    9fcc:	ebffff2f 	bl	9c90 <dev_barrier>
    9fd0:	e8bd8010 	pop	{r4, pc}
    9fd4:	20215040 	eorcs	r5, r1, r0, asr #32

00009fd8 <uart_has_data>:
    9fd8:	e92d4010 	push	{r4, lr}
    9fdc:	ebffff2b 	bl	9c90 <dev_barrier>
    9fe0:	ebffffd6 	bl	9f40 <uart_can_getc>
    9fe4:	e8bd8010 	pop	{r4, pc}

00009fe8 <uart_tx_is_empty>:
    9fe8:	e92d4010 	push	{r4, lr}
    9fec:	ebffff27 	bl	9c90 <dev_barrier>
    9ff0:	e59f000c 	ldr	r0, [pc, #12]	; a004 <uart_tx_is_empty+0x1c>
    9ff4:	ebfff80c 	bl	802c <GET32>
    9ff8:	e1a004a0 	lsr	r0, r0, #9
    9ffc:	e2000001 	and	r0, r0, #1, 0
    a000:	e8bd8010 	pop	{r4, pc}
    a004:	20215064 	eorcs	r5, r1, r4, rrx

0000a008 <uart_flush_tx>:
    a008:	e92d4010 	push	{r4, lr}
    a00c:	ebfffff5 	bl	9fe8 <uart_tx_is_empty>
    a010:	e3500000 	cmp	r0, #0, 0
    a014:	0afffffc 	beq	a00c <uart_flush_tx+0x4>
    a018:	e8bd8010 	pop	{r4, pc}

0000a01c <uart_disable>:
    a01c:	e92d4010 	push	{r4, lr}
    a020:	ebfffff8 	bl	a008 <uart_flush_tx>
    a024:	ebffff19 	bl	9c90 <dev_barrier>
    a028:	e3e01001 	mvn	r1, #1, 0
    a02c:	e59f0008 	ldr	r0, [pc, #8]	; a03c <uart_disable+0x20>
    a030:	ebffff86 	bl	9e50 <and_in32>
    a034:	ebffff15 	bl	9c90 <dev_barrier>
    a038:	e8bd8010 	pop	{r4, pc}
    a03c:	20215004 	eorcs	r5, r1, r4

0000a040 <internal_putchar>:
    a040:	e92d4010 	push	{r4, lr}
    a044:	e1a04000 	mov	r4, r0
    a048:	ebffffd6 	bl	9fa8 <uart_putc>
    a04c:	e1a00004 	mov	r0, r4
    a050:	e8bd8010 	pop	{r4, pc}

0000a054 <rpi_reset_putc>:
    a054:	e59f3008 	ldr	r3, [pc, #8]	; a064 <rpi_reset_putc+0x10>
    a058:	e59f2008 	ldr	r2, [pc, #8]	; a068 <rpi_reset_putc+0x14>
    a05c:	e5832000 	str	r2, [r3]
    a060:	e12fff1e 	bx	lr
    a064:	0000a788 	andeq	sl, r0, r8, lsl #15
    a068:	0000a040 	andeq	sl, r0, r0, asr #32

0000a06c <rpi_set_putc>:
    a06c:	e59f3004 	ldr	r3, [pc, #4]	; a078 <rpi_set_putc+0xc>
    a070:	e5830000 	str	r0, [r3]
    a074:	e12fff1e 	bx	lr
    a078:	0000a788 	andeq	sl, r0, r8, lsl #15

0000a07c <strcat>:
    a07c:	e1a02000 	mov	r2, r0
    a080:	e1a03002 	mov	r3, r2
    a084:	e4d2c001 	ldrb	ip, [r2], #1
    a088:	e35c0000 	cmp	ip, #0, 0
    a08c:	1afffffb 	bne	a080 <strcat+0x4>
    a090:	e2433001 	sub	r3, r3, #1, 0
    a094:	e4d12001 	ldrb	r2, [r1], #1
    a098:	e3520000 	cmp	r2, #0, 0
    a09c:	e5e32001 	strb	r2, [r3, #1]!
    a0a0:	1afffffb 	bne	a094 <strcat+0x18>
    a0a4:	e12fff1e 	bx	lr

0000a0a8 <strcmp>:
    a0a8:	e5d03000 	ldrb	r3, [r0]
    a0ac:	e3530000 	cmp	r3, #0, 0
    a0b0:	05d12000 	ldrbeq	r2, [r1]
    a0b4:	1a000003 	bne	a0c8 <strcmp+0x20>
    a0b8:	ea000006 	b	a0d8 <strcmp+0x30>
    a0bc:	e5f03001 	ldrb	r3, [r0, #1]!
    a0c0:	e3530000 	cmp	r3, #0, 0
    a0c4:	0a000005 	beq	a0e0 <strcmp+0x38>
    a0c8:	e1a0c001 	mov	ip, r1
    a0cc:	e4d12001 	ldrb	r2, [r1], #1
    a0d0:	e1520003 	cmp	r2, r3
    a0d4:	0afffff8 	beq	a0bc <strcmp+0x14>
    a0d8:	e0430002 	sub	r0, r3, r2
    a0dc:	e12fff1e 	bx	lr
    a0e0:	e5dc2001 	ldrb	r2, [ip, #1]
    a0e4:	e0430002 	sub	r0, r3, r2
    a0e8:	e12fff1e 	bx	lr

0000a0ec <strcpy>:
    a0ec:	e2402001 	sub	r2, r0, #1, 0
    a0f0:	e4d13001 	ldrb	r3, [r1], #1
    a0f4:	e3530000 	cmp	r3, #0, 0
    a0f8:	e5e23001 	strb	r3, [r2, #1]!
    a0fc:	1afffffb 	bne	a0f0 <strcpy+0x4>
    a100:	e12fff1e 	bx	lr

0000a104 <strncmp>:
    a104:	e0802002 	add	r2, r0, r2
    a108:	ea000003 	b	a11c <strncmp+0x18>
    a10c:	e4d03001 	ldrb	r3, [r0], #1
    a110:	e4d1c001 	ldrb	ip, [r1], #1
    a114:	e153000c 	cmp	r3, ip
    a118:	1a000003 	bne	a12c <strncmp+0x28>
    a11c:	e1500002 	cmp	r0, r2
    a120:	1afffff9 	bne	a10c <strncmp+0x8>
    a124:	e3a00000 	mov	r0, #0, 0
    a128:	e12fff1e 	bx	lr
    a12c:	e043000c 	sub	r0, r3, ip
    a130:	e12fff1e 	bx	lr

0000a134 <reboot_callout>:
    a134:	e12fff1e 	bx	lr

Disassembly of section .rodata:

0000a138 <__FUNCTION__.4058-0x1b8>:
    a138:	6f727967 	svcvs	0x00727967
    a13c:	0000632e 	andeq	r6, r0, lr, lsr #6
    a140:	494e4150 	stmdbmi	lr, {r4, r6, r8, lr}^
    a144:	73253a43 			; <UNDEFINED> instruction: 0x73253a43
    a148:	3a73253a 	bcc	1cd3638 <__bss_end__+0x1cc8aa0>
    a14c:	623a6425 	eorsvs	r6, sl, #620756992	; 0x25000000
    a150:	64206461 	strtvs	r6, [r0], #-1121	; 0xfffffb9f
    a154:	253d7370 	ldrcs	r7, [sp, #-880]!	; 0xfffffc90
    a158:	000a0a64 	andeq	r0, sl, r4, ror #20
    a15c:	494e4150 	stmdbmi	lr, {r4, r6, r8, lr}^
    a160:	73253a43 			; <UNDEFINED> instruction: 0x73253a43
    a164:	3a73253a 	bcc	1cd3654 <__bss_end__+0x1cc8abc>
    a168:	693a6425 	ldmdbvs	sl!, {r0, r2, r5, sl, sp, lr}
    a16c:	6c61766e 	stclvs	6, cr7, [r1], #-440	; 0xfffffe48
    a170:	64206469 	strtvs	r6, [r0], #-1129	; 0xfffffb97
    a174:	203a7370 	eorscs	r7, sl, r0, ror r3
    a178:	0a0a6425 	beq	2a3214 <__bss_end__+0x29867c>
    a17c:	00000000 	andeq	r0, r0, r0
    a180:	494e4150 	stmdbmi	lr, {r4, r6, r8, lr}^
    a184:	73253a43 			; <UNDEFINED> instruction: 0x73253a43
    a188:	3a73253a 	bcc	1cd3678 <__bss_end__+0x1cc8ae0>
    a18c:	653a6425 	ldrvs	r6, [sl, #-1061]!	; 0xfffffbdb
    a190:	63657078 	cmnvs	r5, #120, 0	; 0x78
    a194:	20646574 	rsbcs	r6, r4, r4, ror r5
    a198:	202c6425 	eorcs	r6, ip, r5, lsr #8
    a19c:	20746f67 	rsbscs	r6, r4, r7, ror #30
    a1a0:	6425203d 	strtvs	r2, [r5], #-61	; 0xffffffc3
    a1a4:	6373202c 	cmnvs	r3, #44, 0	; 0x2c
    a1a8:	3d656c61 	stclcc	12, cr6, [r5, #-388]!	; 0xfffffe7c
    a1ac:	0a0a6425 	beq	2a3248 <__bss_end__+0x2986b0>
    a1b0:	00000000 	andeq	r0, r0, r0
    a1b4:	65707865 	ldrbvs	r7, [r0, #-2149]!	; 0xfffff79b
    a1b8:	64657463 	strbtvs	r7, [r5], #-1123	; 0xfffffb9d
    a1bc:	2c642520 	cfstr64cs	mvdx2, [r4], #-128	; 0xffffff80
    a1c0:	746f6720 	strbtvc	r6, [pc], #-1824	; a1c8 <__code_end__+0x90>
    a1c4:	25203d20 	strcs	r3, [r0, #-3360]!	; 0xfffff2e0
    a1c8:	28202c64 	stmdacs	r0!, {r2, r5, r6, sl, fp, sp}
    a1cc:	68746977 	ldmdavs	r4!, {r0, r1, r2, r4, r5, r6, r8, fp, sp, lr}^
    a1d0:	2b206e69 	blcs	825b7c <__bss_end__+0x81afe4>
    a1d4:	64252d2f 	strtvs	r2, [r5], #-3375	; 0xfffff2d1
    a1d8:	63732029 	cmnvs	r3, #41, 0	; 0x29
    a1dc:	3d656c61 	stclcc	12, cr6, [r5, #-388]!	; 0xfffffe7c
    a1e0:	000a6425 	andeq	r6, sl, r5, lsr #8
    a1e4:	28207325 	stmdacs	r0!, {r0, r2, r5, r8, r9, ip, sp, lr}
    a1e8:	64253d78 	strtvs	r3, [r5], #-3448	; 0xfffff288
    a1ec:	253d792c 	ldrcs	r7, [sp, #-2348]!	; 0xfffff6d4
    a1f0:	3d7a2c64 	ldclcc	12, cr2, [sl, #-400]!	; 0xfffffe70
    a1f4:	0a296425 	beq	a63290 <__bss_end__+0xa586f8>
    a1f8:	00000000 	andeq	r0, r0, r0
    a1fc:	494e4150 	stmdbmi	lr, {r4, r6, r8, lr}^
    a200:	73253a43 			; <UNDEFINED> instruction: 0x73253a43
    a204:	3a73253a 	bcc	1cd36f4 <__bss_end__+0x1cc8b5c>
    a208:	693a6425 	ldmdbvs	sl!, {r0, r2, r5, sl, sp, lr}
    a20c:	6c61766e 	stclvs	6, cr7, [r1], #-440	; 0xfffffe48
    a210:	64206469 	strtvs	r6, [r0], #-1129	; 0xfffffb97
    a214:	203a7370 	eorscs	r7, sl, r0, ror r3
    a218:	0a0a6225 	beq	2a2ab4 <__bss_end__+0x297f1c>
    a21c:	00000000 	andeq	r0, r0, r0
    a220:	494e4150 	stmdbmi	lr, {r4, r6, r8, lr}^
    a224:	73253a43 			; <UNDEFINED> instruction: 0x73253a43
    a228:	3a73253a 	bcc	1cd3718 <__bss_end__+0x1cc8b80>
    a22c:	493a6425 	ldmdbmi	sl!, {r0, r2, r5, sl, sp, lr}
    a230:	6974696e 	ldmdbvs	r4!, {r1, r2, r3, r5, r6, r8, fp, sp, lr}^
    a234:	70206c61 	eorvc	r6, r0, r1, ror #24
    a238:	65626f72 	strbvs	r6, [r2, #-3954]!	; 0xfffff08e
    a23c:	69616620 	stmdbvs	r1!, {r5, r9, sl, sp, lr}^
    a240:	3a64656c 	bcc	19237f8 <__bss_end__+0x1918c60>
    a244:	70786520 	rsbsvc	r6, r8, r0, lsr #10
    a248:	65746365 	ldrbvs	r6, [r4, #-869]!	; 0xfffffc9b
    a24c:	62252064 	eorvs	r2, r5, #100, 0	; 0x64
    a250:	20726f20 	rsbscs	r6, r2, r0, lsr #30
    a254:	6f206225 	svcvs	0x00206225
    a258:	62252072 	eorvs	r2, r5, #114, 0	; 0x72
    a25c:	6f67202c 	svcvs	0x0067202c
    a260:	62252074 	eorvs	r2, r5, #116, 0	; 0x74
    a264:	00000a0a 	andeq	r0, r0, sl, lsl #20
    a268:	43435553 	movtmi	r5, #13651	; 0x3553
    a26c:	3a535345 	bcc	14def88 <__bss_end__+0x14d43f0>
    a270:	75706d20 	ldrbvc	r6, [r0, #-3360]!	; 0xfffff2e0
    a274:	3035362d 	eorscc	r3, r5, sp, lsr #12
    a278:	63612030 	cmnvs	r1, #48, 0	; 0x30
    a27c:	776f6e6b 	strbvc	r6, [pc, -fp, ror #28]!
    a280:	6764656c 	strbvs	r6, [r4, -ip, ror #10]!
    a284:	6f206465 	svcvs	0x00206465
    a288:	70207275 	eorvc	r7, r0, r5, ror r2
    a28c:	3a676e69 	bcc	19e5c38 <__bss_end__+0x19db0a0>
    a290:	4f485720 	svcmi	0x00485720
    a294:	5f4d415f 	svcpl	0x004d415f
    a298:	62253d49 	eorvs	r3, r5, #4672	; 0x1240
    a29c:	000a2121 	andeq	r2, sl, r1, lsr #2
    a2a0:	494e4150 	stmdbmi	lr, {r4, r6, r8, lr}^
    a2a4:	73253a43 			; <UNDEFINED> instruction: 0x73253a43
    a2a8:	3a73253a 	bcc	1cd3798 <__bss_end__+0x1cc8c00>
    a2ac:	253a6425 	ldrcs	r6, [sl, #-1061]!	; 0xfffffbdb
    a2b0:	00000a73 	andeq	r0, r0, r3, ror sl
    a2b4:	70642e67 	rsbvc	r2, r4, r7, ror #28
    a2b8:	323d3d73 	eorscc	r3, sp, #7360	; 0x1cc0
    a2bc:	00003035 	andeq	r3, r0, r5, lsr r0
    a2c0:	64616572 	strbtvs	r6, [r1], #-1394	; 0xfffffa8e
    a2c4:	20676e69 	rsbcs	r6, r7, r9, ror #28
    a2c8:	6f727967 	svcvs	0x00727967
    a2cc:	0a642520 	beq	1913754 <__bss_end__+0x1908bbc>
    a2d0:	00000000 	andeq	r0, r0, r0
    a2d4:	77617209 	strbvc	r7, [r1, -r9, lsl #4]!
    a2d8:	00000000 	andeq	r0, r0, r0
    a2dc:	61637309 	cmnvs	r3, r9, lsl #6
    a2e0:	2064656c 	rsbcs	r6, r4, ip, ror #10
    a2e4:	6c696d28 	stclvs	13, cr6, [r9], #-160	; 0xffffff60
    a2e8:	6420696c 	strtvs	r6, [r0], #-2412	; 0xfffff694
    a2ec:	00297370 	eoreq	r7, r9, r0, ror r3

0000a2f0 <__FUNCTION__.4058>:
    a2f0:	7370646d 	cmnvc	r0, #1828716544	; 0x6d000000
    a2f4:	6163735f 	cmnvs	r3, pc, asr r3
    a2f8:	645f656c 	ldrbvs	r6, [pc], #-1388	; a300 <__FUNCTION__.4053>
    a2fc:	00326765 	eorseq	r6, r2, r5, ror #14

0000a300 <__FUNCTION__.4053>:
    a300:	5f737064 	svcpl	0x00737064
    a304:	735f6f74 	cmpvc	pc, #116, 30	; 0x1d0
    a308:	656c6163 	strbvs	r6, [ip, #-355]!	; 0xfffffe9d
    a30c:	00000000 	andeq	r0, r0, r0

0000a310 <__FUNCTION__.4077>:
    a310:	74736574 	ldrbtvc	r6, [r3], #-1396	; 0xfffffa8c
    a314:	7370645f 	cmnvc	r0, #1593835520	; 0x5f000000
    a318:	00000000 	andeq	r0, r0, r0

0000a31c <__FUNCTION__.4039>:
    a31c:	3675706d 	ldrbtcc	r7, [r5], -sp, rrx
    a320:	5f303035 	svcpl	0x00303035
    a324:	6f727967 	svcvs	0x00727967
    a328:	696e695f 	stmdbvs	lr!, {r0, r1, r2, r3, r4, r6, r8, fp, sp, lr}^
    a32c:	00000074 	andeq	r0, r0, r4, ror r0

0000a330 <__FUNCTION__.4110>:
    a330:	6d746f6e 	ldclvs	15, cr6, [r4, #-440]!	; 0xfffffe48
    a334:	006e6961 	rsbeq	r6, lr, r1, ror #18
    a338:	2e633269 	cdpcs	2, 6, cr3, cr3, cr9, {3}
    a33c:	00000063 	andeq	r0, r0, r3, rrx
    a340:	494e4150 	stmdbmi	lr, {r4, r6, r8, lr}^
    a344:	73253a43 			; <UNDEFINED> instruction: 0x73253a43
    a348:	3a73253a 	bcc	1cd3838 <__bss_end__+0x1cc8ca0>
    a34c:	6f3a6425 	svcvs	0x003a6425
    a350:	65736666 	ldrbvs	r6, [r3, #-1638]!	; 0xfffff99a
    a354:	72772074 	rsbsvc	r2, r7, #116, 0	; 0x74
    a358:	3a676e6f 	bcc	19e5d1c <__bss_end__+0x19db184>
    a35c:	70786520 	rsbsvc	r6, r8, r0, lsr #10
    a360:	20746365 	rsbscs	r6, r4, r5, ror #6
    a364:	67207825 	strvs	r7, [r0, -r5, lsr #16]!
    a368:	2520746f 	strcs	r7, [r0, #-1135]!	; 0xfffffb91
    a36c:	73252078 			; <UNDEFINED> instruction: 0x73252078
    a370:	666f5b20 	strbtvs	r5, [pc], -r0, lsr #22
    a374:	64253d66 	strtvs	r3, [r5], #-3430	; 0xfffff29a
    a378:	69626e2c 	stmdbvs	r2!, {r2, r3, r5, r9, sl, fp, sp, lr}^
    a37c:	253d7374 	ldrcs	r7, [sp, #-884]!	; 0xfffffc8c
    a380:	0a0a5d64 	beq	2a1918 <__bss_end__+0x296d80>
    a384:	00000000 	andeq	r0, r0, r0
    a388:	64616572 	strbtvs	r6, [r1], #-1394	; 0xfffffa8e
    a38c:	00000000 	andeq	r0, r0, r0
    a390:	61656c63 	cmnvs	r5, r3, ror #24
    a394:	00000072 	andeq	r0, r0, r2, ror r0
    a398:	494e4150 	stmdbmi	lr, {r4, r6, r8, lr}^
    a39c:	73253a43 			; <UNDEFINED> instruction: 0x73253a43
    a3a0:	3a73253a 	bcc	1cd3890 <__bss_end__+0x1cc8cf8>
    a3a4:	773a6425 	ldrvc	r6, [sl, -r5, lsr #8]!
    a3a8:	68746469 	ldmdavs	r4!, {r0, r3, r5, r6, sl, sp, lr}^
    a3ac:	6f727720 	svcvs	0x00727720
    a3b0:	203a676e 	eorscs	r6, sl, lr, ror #14
    a3b4:	65707865 	ldrbvs	r7, [r0, #-2149]!	; 0xfffff79b
    a3b8:	25207463 	strcs	r7, [r0, #-1123]!	; 0xfffffb9d
    a3bc:	6f672078 	svcvs	0x00672078
    a3c0:	78252074 	stmdavc	r5!, {r2, r4, r5, r6, sp}
    a3c4:	20732520 	rsbscs	r2, r3, r0, lsr #10
    a3c8:	66666f5b 	uqsaxvs	r6, r6, fp
    a3cc:	2c64253d 	cfstr64cs	mvdx2, [r4], #-244	; 0xffffff0c
    a3d0:	7469626e 	strbtvc	r6, [r9], #-622	; 0xfffffd92
    a3d4:	64253d73 	strtvs	r3, [r5], #-3443	; 0xfffff28d
    a3d8:	000a0a5d 	andeq	r0, sl, sp, asr sl
    a3dc:	00007473 	andeq	r7, r0, r3, ror r4
    a3e0:	64746e69 	ldrbtvs	r6, [r4], #-3689	; 0xfffff197
    a3e4:	00000000 	andeq	r0, r0, r0
    a3e8:	74746e69 	ldrbtvc	r6, [r4], #-3689	; 0xfffff197
    a3ec:	00000000 	andeq	r0, r0, r0
    a3f0:	72746e69 	rsbsvc	r6, r4, #1680	; 0x690
    a3f4:	00000000 	andeq	r0, r0, r0
    a3f8:	65633269 	strbvs	r3, [r3, #-617]!	; 0xfffffd97
    a3fc:	0000006e 	andeq	r0, r0, lr, rrx
    a400:	00006174 	andeq	r6, r0, r4, ror r1
    a404:	656e6f64 	strbvs	r6, [lr, #-3940]!	; 0xfffff09c
    a408:	00000000 	andeq	r0, r0, r0
    a40c:	00777874 	rsbseq	r7, r7, r4, ror r8
    a410:	00727872 	rsbseq	r7, r2, r2, ror r8
    a414:	00647874 	rsbeq	r7, r4, r4, ror r8
    a418:	00647872 	rsbeq	r7, r4, r2, ror r8
    a41c:	00657874 	rsbeq	r7, r5, r4, ror r8
    a420:	00667872 	rsbeq	r7, r6, r2, ror r8
    a424:	00727265 	rsbseq	r7, r2, r5, ror #4
    a428:	746b6c63 	strbtvc	r6, [fp], #-3171	; 0xfffff39d
    a42c:	0000006b 	andeq	r0, r0, fp, rrx
    a430:	494e4150 	stmdbmi	lr, {r4, r6, r8, lr}^
    a434:	73253a43 			; <UNDEFINED> instruction: 0x73253a43
    a438:	3a73253a 	bcc	1cd3928 <__bss_end__+0x1cc8d90>
    a43c:	693a6425 	ldmdbvs	sl!, {r0, r2, r5, sl, sp, lr}
    a440:	73206332 			; <UNDEFINED> instruction: 0x73206332
    a444:	6576616c 	ldrbvs	r6, [r6, #-364]!	; 0xfffffe94
    a448:	6b636120 	blvs	18e28d0 <__bss_end__+0x18d7d38>
    a44c:	72726520 	rsbsvc	r6, r2, #32, 10	; 0x8000000
    a450:	000a726f 	andeq	r7, sl, pc, ror #4
    a454:	494e4150 	stmdbmi	lr, {r4, r6, r8, lr}^
    a458:	73253a43 			; <UNDEFINED> instruction: 0x73253a43
    a45c:	3a73253a 	bcc	1cd394c <__bss_end__+0x1cc8db4>
    a460:	693a6425 	ldmdbvs	sl!, {r0, r2, r5, sl, sp, lr}
    a464:	73206332 			; <UNDEFINED> instruction: 0x73206332
    a468:	6576616c 	ldrbvs	r6, [r6, #-364]!	; 0xfffffe94
    a46c:	6c656820 	stclvs	8, cr6, [r5], #-128	; 0xffffff80
    a470:	696c2064 	stmdbvs	ip!, {r2, r5, r6, sp}^
    a474:	7420656e 	strtvc	r6, [r0], #-1390	; 0xfffffa92
    a478:	6c206f6f 	stcvs	15, cr6, [r0], #-444	; 0xfffffe44
    a47c:	0a676e6f 	beq	19e5e40 <__bss_end__+0x19db2a8>
    a480:	00000000 	andeq	r0, r0, r0
    a484:	2d633269 	sfmcs	f3, 2, [r3, #-420]!	; 0xfffffe5c
    a488:	6174733e 	cmnvs	r4, lr, lsr r3
    a48c:	2e737574 	mrccs	5, 3, r7, cr3, cr4, {3}
    a490:	3d206174 	stfccs	f6, [r0, #-464]!	; 0xfffffe30
    a494:	0030203d 	eorseq	r2, r0, sp, lsr r0
    a498:	63326921 	teqvs	r2, #540672	; 0x84000
    a49c:	74733e2d 	ldrbtvc	r3, [r3], #-3629	; 0xfffff1d3
    a4a0:	73757461 	cmnvc	r5, #1627389952	; 0x61000000
    a4a4:	7272652e 	rsbsvc	r6, r2, #192937984	; 0xb800000
    a4a8:	00000000 	andeq	r0, r0, r0
    a4ac:	2d633269 	sfmcs	f3, 2, [r3, #-420]!	; 0xfffffe5c
    a4b0:	6174733e 	cmnvs	r4, lr, lsr r3
    a4b4:	2e737574 	mrccs	5, 3, r7, cr3, cr4, {3}
    a4b8:	20657874 	rsbcs	r7, r5, r4, ror r8
    a4bc:	31203d3d 			; <UNDEFINED> instruction: 0x31203d3d
    a4c0:	00000000 	andeq	r0, r0, r0
    a4c4:	64612828 	strbtvs	r2, [r1], #-2088	; 0xfffff7d8
    a4c8:	20297264 	eorcs	r7, r9, r4, ror #4
    a4cc:	37203e3e 			; <UNDEFINED> instruction: 0x37203e3e
    a4d0:	3d3d2029 	ldccc	0, cr2, [sp, #-164]!	; 0xffffff5c
    a4d4:	00003020 	andeq	r3, r0, r0, lsr #32
    a4d8:	626e2828 	rsbvs	r2, lr, #40, 16	; 0x280000
    a4dc:	73657479 	cmnvc	r5, #2030043136	; 0x79000000
    a4e0:	3e3e2029 	cdpcc	0, 3, cr2, cr14, cr9, {1}
    a4e4:	29363120 	ldmdbcs	r6!, {r5, r8, ip, sp}
    a4e8:	203d3d20 	eorscs	r3, sp, r0, lsr #26
    a4ec:	00000030 	andeq	r0, r0, r0, lsr r0
    a4f0:	72646461 	rsbvc	r6, r4, #1627389952	; 0x61000000
    a4f4:	20782520 	rsbscs	r2, r8, r0, lsr #10
    a4f8:	6d656573 	cfstr64vs	mvdx6, [r5, #-460]!	; 0xfffffe34
    a4fc:	6f742073 	svcvs	0x00742073
    a500:	726f7720 	rsbvc	r7, pc, #32, 14	; 0x800000
    a504:	67203a6b 	strvs	r3, [r0, -fp, ror #20]!
    a508:	676e696f 	strbvs	r6, [lr, -pc, ror #18]!
    a50c:	206f7420 	rsbcs	r7, pc, r0, lsr #8
    a510:	72656678 	rsbvc	r6, r5, #120, 12	; 0x7800000
    a514:	646e6520 	strbtvs	r6, [lr], #-1312	; 0xfffffae0
    a518:	0000000a 	andeq	r0, r0, sl
    a51c:	20633269 	rsbcs	r3, r3, r9, ror #4
    a520:	76616c73 			; <UNDEFINED> instruction: 0x76616c73
    a524:	63612065 	cmnvs	r1, #101, 0	; 0x65
    a528:	7265206b 	rsbvc	r2, r5, #107, 0	; 0x6b
    a52c:	3a726f72 	bcc	1ca62fc <__bss_end__+0x1c9b764>
    a530:	0a782520 	beq	1e139b8 <__bss_end__+0x1e08e20>
    a534:	00000000 	andeq	r0, r0, r0
    a538:	494e4150 	stmdbmi	lr, {r4, r6, r8, lr}^
    a53c:	73253a43 			; <UNDEFINED> instruction: 0x73253a43
    a540:	3a73253a 	bcc	1cd3a30 <__bss_end__+0x1cc8e98>
    a544:	693a6425 	ldmdbvs	sl!, {r0, r2, r5, sl, sp, lr}
    a548:	73206332 			; <UNDEFINED> instruction: 0x73206332
    a54c:	6576616c 	ldrbvs	r6, [r6, #-364]!	; 0xfffffe94
    a550:	6c656820 	stclvs	8, cr6, [r5], #-128	; 0xffffff80
    a554:	696c2064 	stmdbvs	ip!, {r2, r5, r6, sp}^
    a558:	7420656e 	strtvc	r6, [r0], #-1390	; 0xfffffa92
    a55c:	6c206f6f 	stcvs	15, cr6, [r0], #-444	; 0xfffffe44
    a560:	0a676e6f 	beq	19e5f24 <__bss_end__+0x19db38c>
    a564:	0000000a 	andeq	r0, r0, sl
    a568:	494e4150 	stmdbmi	lr, {r4, r6, r8, lr}^
    a56c:	73253a43 			; <UNDEFINED> instruction: 0x73253a43
    a570:	3a73253a 	bcc	1cd3a60 <__bss_end__+0x1cc8ec8>
    a574:	6e3a6425 	cdpvs	4, 3, cr6, cr10, cr5, {1}
    a578:	6461206f 	strbtvs	r2, [r1], #-111	; 0xffffff91
    a57c:	77207264 	strvc	r7, [r0, -r4, ror #4]!
    a580:	656b726f 	strbvs	r7, [fp, #-623]!	; 0xfffffd91
    a584:	000a0a64 	andeq	r0, sl, r4, ror #20

0000a588 <__FUNCTION__.4178>:
    a588:	63656863 	cmnvs	r5, #6488064	; 0x630000
    a58c:	616c5f6b 	cmnvs	ip, fp, ror #30
    a590:	74756f79 	ldrbtvc	r6, [r5], #-3961	; 0xfffff087
    a594:	00000000 	andeq	r0, r0, r0

0000a598 <__FUNCTION__.4044>:
    a598:	72656678 	rsbvc	r6, r5, #120, 12	; 0x7800000
    a59c:	646e655f 	strbtvs	r6, [lr], #-1375	; 0xfffffaa1
    a5a0:	00000000 	andeq	r0, r0, r0

0000a5a4 <__FUNCTION__.4023>:
    a5a4:	72656678 	rsbvc	r6, r5, #120, 12	; 0x7800000
    a5a8:	6174735f 	cmnvs	r4, pc, asr r3
    a5ac:	00007472 	andeq	r7, r0, r2, ror r4

0000a5b0 <__FUNCTION__.4079>:
    a5b0:	72656678 	rsbvc	r6, r5, #120, 12	; 0x7800000
    a5b4:	6174735f 	cmnvs	r4, pc, asr r3
    a5b8:	685f7472 	ldmdavs	pc, {r1, r4, r5, r6, sl, ip, sp, lr}^	; <UNPREDICTABLE>
    a5bc:	006b6361 	rsbeq	r6, fp, r1, ror #6

0000a5c0 <__FUNCTION__.4054>:
    a5c0:	5f633269 	svcpl	0x00633269
    a5c4:	74697277 	strbtvc	r7, [r9], #-631	; 0xfffffd89
    a5c8:	00000065 	andeq	r0, r0, r5, rrx

0000a5cc <__FUNCTION__.4067>:
    a5cc:	5f633269 	svcpl	0x00633269
    a5d0:	64616572 	strbtvs	r6, [r1], #-1394	; 0xfffffa8e
    a5d4:	00000000 	andeq	r0, r0, r0

0000a5d8 <__FUNCTION__.4102>:
    a5d8:	5f633269 	svcpl	0x00633269
    a5dc:	63736964 	cmnvs	r3, #100, 18	; 0x190000
    a5e0:	7265766f 	rsbvc	r7, r5, #116391936	; 0x6f00000
    a5e4:	6464615f 	strbtvs	r6, [r4], #-351	; 0xfffffea1
    a5e8:	00000072 	andeq	r0, r0, r2, ror r0

0000a5ec <__FUNCTION__.4149>:
    a5ec:	5f633269 	svcpl	0x00633269
    a5f0:	74696e69 	strbtvc	r6, [r9], #-3689	; 0xfffff197
    a5f4:	00000000 	andeq	r0, r0, r0
    a5f8:	696c2f2e 	stmdbvs	ip!, {r1, r2, r3, r5, r8, r9, sl, fp, sp}^
    a5fc:	762f6362 	strtvc	r6, [pc], -r2, ror #6
    a600:	72702d61 	rsbsvc	r2, r0, #6208	; 0x1840
    a604:	6b746e69 	blvs	1d25fb0 <__bss_end__+0x1d1b418>
    a608:	0000632e 	andeq	r6, r0, lr, lsr #6
    a60c:	33323130 	teqcc	r2, #12
    a610:	37363534 			; <UNDEFINED> instruction: 0x37363534
    a614:	62613938 	rsbvs	r3, r1, #56, 18	; 0xe0000
    a618:	66656463 	strbtvs	r6, [r5], -r3, ror #8
    a61c:	00000000 	andeq	r0, r0, r0
    a620:	00003130 	andeq	r3, r0, r0, lsr r1
    a624:	33323130 	teqcc	r2, #12
    a628:	37363534 			; <UNDEFINED> instruction: 0x37363534
    a62c:	00003938 	andeq	r3, r0, r8, lsr r9
    a630:	63747570 	cmnvs	r4, #112, 10	; 0x1c000000
    a634:	0070665f 	rsbseq	r6, r0, pc, asr r6
    a638:	74646977 	strbtvc	r6, [r4], #-2423	; 0xfffff689
    a63c:	203c2068 	eorscs	r2, ip, r8, rrx
    a640:	00003233 	andeq	r3, r0, r3, lsr r2
    a644:	00786c6c 	rsbseq	r6, r8, ip, ror #24
    a648:	253d3078 	ldrcs	r3, [sp, #-120]!	; 0xffffff88
    a64c:	00000a78 	andeq	r0, r0, r8, ror sl
    a650:	253d3178 	ldrcs	r3, [sp, #-376]!	; 0xfffffe88
    a654:	00000a78 	andeq	r0, r0, r8, ror sl
    a658:	00646c6c 	rsbeq	r6, r4, ip, ror #24
    a65c:	6e727473 	mrcvs	4, 3, r7, cr2, cr3, {3}
    a660:	28706d63 	ldmdacs	r0!, {r0, r1, r5, r6, r8, sl, fp, sp, lr}^
    a664:	202c7974 	eorcs	r7, ip, r4, ror r9
    a668:	786c6c22 	stmdavc	ip!, {r1, r5, sl, fp, sp, lr}^
    a66c:	33202c22 			; <UNDEFINED> instruction: 0x33202c22
    a670:	3d3d2029 	ldccc	0, cr2, [sp, #-164]!	; 0xffffff5c
    a674:	7c203020 	stcvc	0, cr3, [r0], #-128	; 0xffffff80
    a678:	7473207c 	ldrbtvc	r2, [r3], #-124	; 0xffffff84
    a67c:	6d636e72 	stclvs	14, cr6, [r3, #-456]!	; 0xfffffe38
    a680:	79742870 	ldmdbvc	r4!, {r4, r5, r6, fp, sp}^
    a684:	6c22202c 	stcvs	0, cr2, [r2], #-176	; 0xffffff50
    a688:	2c22646c 	cfstrscs	mvf6, [r2], #-432	; 0xfffffe50
    a68c:	20293320 	eorcs	r3, r9, r0, lsr #6
    a690:	30203d3d 	eorcc	r3, r0, sp, lsr sp
    a694:	00000000 	andeq	r0, r0, r0
    a698:	494e4150 	stmdbmi	lr, {r4, r6, r8, lr}^
    a69c:	73253a43 			; <UNDEFINED> instruction: 0x73253a43
    a6a0:	3a73253a 	bcc	1cd3b90 <__bss_end__+0x1cc8ff8>
    a6a4:	693a6425 	ldmdbvs	sl!, {r0, r2, r5, sl, sp, lr}
    a6a8:	736f706d 	cmnvc	pc, #109, 0	; 0x6d
    a6ac:	6c626973 			; <UNDEFINED> instruction: 0x6c626973
    a6b0:	66203a65 	strtvs	r3, [r0], -r5, ror #20
    a6b4:	3c3d746d 	cfldrscc	mvf7, [sp], #-436	; 0xfffffe4c
    a6b8:	0a3e7325 	beq	fa7354 <__bss_end__+0xf9c7bc>
    a6bc:	0000000a 	andeq	r0, r0, sl
    a6c0:	494e4150 	stmdbmi	lr, {r4, r6, r8, lr}^
    a6c4:	73253a43 			; <UNDEFINED> instruction: 0x73253a43
    a6c8:	3a73253a 	bcc	1cd3bb8 <__bss_end__+0x1cc9020>
    a6cc:	663a6425 	ldrtvs	r6, [sl], -r5, lsr #8
    a6d0:	74616f6c 	strbtvc	r6, [r1], #-3948	; 0xfffff094
    a6d4:	746f6e20 	strbtvc	r6, [pc], #-3616	; a6dc <__FUNCTION__.4149+0xf0>
    a6d8:	616e6520 	cmnvs	lr, r0, lsr #10
    a6dc:	64656c62 	strbtvs	r6, [r5], #-3170	; 0xfffff39e
    a6e0:	0a212121 	beq	852b6c <__bss_end__+0x847fd4>
    a6e4:	00000000 	andeq	r0, r0, r0
    a6e8:	6e697270 	mcrvs	2, 3, r7, cr9, cr0, {3}
    a6ec:	203a6b74 	eorscs	r6, sl, r4, ror fp
    a6f0:	20746f6e 	rsbscs	r6, r4, lr, ror #30
    a6f4:	646e6168 	strbtvs	r6, [lr], #-360	; 0xfffffe98
    a6f8:	676e696c 	strbvs	r6, [lr, -ip, ror #18]!
    a6fc:	65707320 	ldrbvs	r7, [r0, #-800]!	; 0xfffffce0
    a700:	69666963 	stmdbvs	r6!, {r0, r1, r5, r6, r8, fp, sp, lr}^
    a704:	27207265 	strcs	r7, [r0, -r5, ror #4]!
    a708:	20276325 	eorcs	r6, r7, r5, lsr #6
    a70c:	63736128 	cmnvs	r3, #10
    a710:	253d6969 	ldrcs	r6, [sp, #-2409]!	; 0xfffff697
    a714:	000a2964 	andeq	r2, sl, r4, ror #18
    a718:	494e4150 	stmdbmi	lr, {r4, r6, r8, lr}^
    a71c:	73253a43 			; <UNDEFINED> instruction: 0x73253a43
    a720:	3a73253a 	bcc	1cd3c10 <__bss_end__+0x1cc9078>
    a724:	703a6425 	eorsvc	r6, sl, r5, lsr #8
    a728:	746e6972 	strbtvc	r6, [lr], #-2418	; 0xfffff68e
    a72c:	7265206b 	rsbvc	r2, r5, #107, 0	; 0x6b
    a730:	0a726f72 	beq	1ca6500 <__bss_end__+0x1c9b968>
    a734:	0000000a 	andeq	r0, r0, sl

0000a738 <__FUNCTION__.4008>:
    a738:	74696d65 	strbtvc	r6, [r9], #-3429	; 0xfffff29b
    a73c:	00000000 	andeq	r0, r0, r0

0000a740 <__FUNCTION__.3956>:
    a740:	5f697072 	svcpl	0x00697072
    a744:	5f746573 	svcpl	0x00746573
    a748:	7074756f 	rsbsvc	r7, r4, pc, ror #10
    a74c:	00007475 	andeq	r7, r0, r5, ror r4

0000a750 <__FUNCTION__.4034>:
    a750:	705f6176 	subsvc	r6, pc, r6, ror r1	; <UNPREDICTABLE>
    a754:	746e6972 	strbtvc	r6, [lr], #-2418	; 0xfffff68e
    a758:	0000006b 	andeq	r0, r0, fp, rrx
    a75c:	454e4f44 	strbmi	r4, [lr, #-3908]	; 0xfffff0bc
    a760:	0a212121 	beq	852bec <__bss_end__+0x848054>
    a764:	00000000 	andeq	r0, r0, r0
    a768:	6e75525b 	mrcvs	2, 3, r5, cr5, cr11, {2}
    a76c:	676e696e 	strbvs	r6, [lr, -lr, ror #18]!
    a770:	6f6f7420 	svcvs	0x006f7420
    a774:	6425206b 	strtvs	r2, [r5], #-107	; 0xffffff95
    a778:	63796320 	cmnvs	r9, #32, 6	; 0x80000000
    a77c:	5d73656c 	cfldr64pl	mvdx6, [r3, #-432]!	; 0xfffffe50
    a780:	Address 0x000000000000a780 is out of bounds.


Disassembly of section .data:

0000a784 <putk>:
    a784:	0000914c 	andeq	r9, r0, ip, asr #2

0000a788 <rpi_putchar>:
    a788:	0000a040 	andeq	sl, r0, r0, asr #32

Disassembly of section .bss:

0000a78c <__bss_start__>:
    a78c:	00000000 	andeq	r0, r0, r0

0000a790 <buf.3948>:
	...

0000ab90 <last.3941>:
	...

Disassembly of section .ARM.attributes:

00000000 <.ARM.attributes>:
   0:	00002a41 	andeq	r2, r0, r1, asr #20
   4:	61656100 	cmnvs	r5, r0, lsl #2
   8:	01006962 	tsteq	r0, r2, ror #18
   c:	00000020 	andeq	r0, r0, r0, lsr #32
  10:	4b5a3605 	blmi	168d82c <__bss_end__+0x1682c94>
  14:	08070600 	stmdaeq	r7, {r9, sl}
  18:	12010901 	andne	r0, r1, #16384	; 0x4000
  1c:	15011404 	strne	r1, [r1, #-1028]	; 0xfffffbfc
  20:	18031701 	stmdane	r3, {r0, r8, r9, sl, ip}
  24:	22011a01 	andcs	r1, r1, #4096	; 0x1000
  28:	Address 0x0000000000000028 is out of bounds.


Disassembly of section .comment:

00000000 <.comment>:
   0:	3a434347 	bcc	10d0d24 <__bss_end__+0x10c618c>
   4:	4e472820 	cdpmi	8, 4, cr2, cr7, cr0, {1}
   8:	6f542055 	svcvs	0x00542055
   c:	20736c6f 	rsbscs	r6, r3, pc, ror #24
  10:	20726f66 	rsbscs	r6, r2, r6, ror #30
  14:	206d7241 	rsbcs	r7, sp, r1, asr #4
  18:	65626d45 	strbvs	r6, [r2, #-3397]!	; 0xfffff2bb
  1c:	64656464 	strbtvs	r6, [r5], #-1124	; 0xfffffb9c
  20:	6f725020 	svcvs	0x00725020
  24:	73736563 	cmnvc	r3, #415236096	; 0x18c00000
  28:	2073726f 	rsbscs	r7, r3, pc, ror #4
  2c:	30322d39 	eorscc	r2, r2, r9, lsr sp
  30:	712d3931 			; <UNDEFINED> instruction: 0x712d3931
  34:	616d2d34 	cmnvs	sp, r4, lsr sp
  38:	29726f6a 	ldmdbcs	r2!, {r1, r3, r5, r6, r8, r9, sl, fp, sp, lr}^
  3c:	322e3920 	eorcc	r3, lr, #32, 18	; 0x80000
  40:	3220312e 	eorcc	r3, r0, #-2147483637	; 0x8000000b
  44:	31393130 	teqcc	r9, r0, lsr r1
  48:	20353230 	eorscs	r3, r5, r0, lsr r2
  4c:	6c657228 	sfmvs	f7, 2, [r5], #-160	; 0xffffff60
  50:	65736165 	ldrbvs	r6, [r3, #-357]!	; 0xfffffe9b
  54:	415b2029 	cmpmi	fp, r9, lsr #32
  58:	612f4d52 			; <UNDEFINED> instruction: 0x612f4d52
  5c:	392d6d72 	pushcc	{r1, r4, r5, r6, r8, sl, fp, sp, lr}
  60:	6172622d 	cmnvs	r2, sp, lsr #4
  64:	2068636e 	rsbcs	r6, r8, lr, ror #6
  68:	69766572 	ldmdbvs	r6!, {r1, r4, r5, r6, r8, sl, sp, lr}^
  6c:	6e6f6973 			; <UNDEFINED> instruction: 0x6e6f6973
  70:	37373220 	ldrcc	r3, [r7, -r0, lsr #4]!
  74:	5d393935 			; <UNDEFINED> instruction: 0x5d393935
  78:	43434700 	movtmi	r4, #14080	; 0x3700
  7c:	3128203a 			; <UNDEFINED> instruction: 0x3128203a
  80:	2d393a35 	vldmdbcs	r9!, {s6-s58}
  84:	39313032 	ldmdbcc	r1!, {r1, r4, r5, ip, sp}
  88:	2d34712d 	ldfcss	f7, [r4, #-180]!	; 0xffffff4c
  8c:	75627530 	strbvc	r7, [r2, #-1328]!	; 0xfffffad0
  90:	3175746e 	cmncc	r5, lr, ror #8
  94:	2e392029 	cdpcs	0, 3, cr2, cr9, cr9, {1}
  98:	20312e32 	eorscs	r2, r1, r2, lsr lr
  9c:	39313032 	ldmdbcc	r1!, {r1, r4, r5, ip, sp}
  a0:	35323031 	ldrcc	r3, [r2, #-49]!	; 0xffffffcf
  a4:	65722820 	ldrbvs	r2, [r2, #-2080]!	; 0xfffff7e0
  a8:	7361656c 	cmnvc	r1, #108, 10	; 0x1b000000
  ac:	5b202965 	blpl	80a648 <__bss_end__+0x7ffab0>
  b0:	2f4d5241 	svccs	0x004d5241
  b4:	2d6d7261 	sfmcs	f7, 2, [sp, #-388]!	; 0xfffffe7c
  b8:	72622d39 	rsbvc	r2, r2, #3648	; 0xe40
  bc:	68636e61 	stmdavs	r3!, {r0, r5, r6, r9, sl, fp, sp, lr}^
  c0:	76657220 	strbtvc	r7, [r5], -r0, lsr #4
  c4:	6f697369 	svcvs	0x00697369
  c8:	3732206e 	ldrcc	r2, [r2, -lr, rrx]!
  cc:	39393537 	ldmdbcc	r9!, {r0, r1, r2, r4, r5, r8, sl, ip, sp}
  d0:	4347005d 	movtmi	r0, #28765	; 0x705d
  d4:	28203a43 	stmdacs	r0!, {r0, r1, r6, r9, fp, ip, sp}
  d8:	20554e47 	subscs	r4, r5, r7, asr #28
  dc:	206d7241 	rsbcs	r7, sp, r1, asr #4
  e0:	65626d45 	strbvs	r6, [r2, #-3397]!	; 0xfffff2bb
  e4:	64656464 	strbtvs	r6, [r5], #-1124	; 0xfffffb9c
  e8:	6f6f5420 	svcvs	0x006f5420
  ec:	6168636c 	cmnvs	r8, ip, ror #6
  f0:	31206e69 			; <UNDEFINED> instruction: 0x31206e69
  f4:	2d332e30 	ldccs	14, cr2, [r3, #-192]!	; 0xffffff40
  f8:	31323032 	teqcc	r2, r2, lsr r0
  fc:	2930312e 	ldmdbcs	r0!, {r1, r2, r3, r5, r8, ip, sp}
 100:	2e303120 	rsfcssp	f3, f0, f0
 104:	20312e33 	eorscs	r2, r1, r3, lsr lr
 108:	31323032 	teqcc	r2, r2, lsr r0
 10c:	34323830 	ldrtcc	r3, [r2], #-2096	; 0xfffff7d0
 110:	65722820 	ldrbvs	r2, [r2, #-2080]!	; 0xfffff7e0
 114:	7361656c 	cmnvc	r1, #108, 10	; 0x1b000000
 118:	Address 0x0000000000000118 is out of bounds.


Disassembly of section .debug_info:

00000000 <.debug_info>:
       0:	00000f4a 	andeq	r0, r0, sl, asr #30
       4:	00000004 	andeq	r0, r0, r4
       8:	01040000 	mrseq	r0, (UNDEF: 4)
       c:	0000021b 	andeq	r0, r0, fp, lsl r2
      10:	00012f0c 	andeq	r2, r1, ip, lsl #30
      14:	0002e800 	andeq	lr, r2, r0, lsl #16
      18:	00803800 	addeq	r3, r0, r0, lsl #16
      1c:	00065400 	andeq	r5, r6, r0, lsl #8
      20:	00000000 	andeq	r0, r0, r0
      24:	05040200 	streq	r0, [r4, #-512]	; 0xfffffe00
      28:	00746e69 	rsbseq	r6, r4, r9, ror #28
      2c:	a0070403 	andge	r0, r7, r3, lsl #8
      30:	03000001 	movweq	r0, #1
      34:	01750601 	cmneq	r5, r1, lsl #12
      38:	02030000 	andeq	r0, r3, #0, 0
      3c:	00002e05 	andeq	r2, r0, r5, lsl #28
      40:	05040300 	streq	r0, [r4, #-768]	; 0xfffffd00
      44:	000000ff 	strdeq	r0, [r0], -pc	; <UNPREDICTABLE>
      48:	fa050803 	blx	14205c <__bss_end__+0x1374c4>
      4c:	04000000 	streq	r0, [r0], #-0
      50:	00000093 	muleq	r0, r3, r0
      54:	5b182e02 	blpl	60b864 <__bss_end__+0x600ccc>
      58:	03000000 	movweq	r0, #0
      5c:	01730801 	cmneq	r3, r1, lsl #16
      60:	02030000 	andeq	r0, r3, #0, 0
      64:	0001ef07 	andeq	lr, r1, r7, lsl #30
      68:	01ad0400 			; <UNDEFINED> instruction: 0x01ad0400
      6c:	34020000 	strcc	r0, [r2], #-0
      70:	00007519 	andeq	r7, r0, r9, lsl r5
      74:	07040300 	streq	r0, [r4, -r0, lsl #6]
      78:	0000019b 	muleq	r0, fp, r1
      7c:	96070803 	strls	r0, [r7], -r3, lsl #16
      80:	05000001 	streq	r0, [r0, #-1]
      84:	00000025 	andeq	r0, r0, r5, lsr #32
      88:	00000092 	muleq	r0, r2, r0
      8c:	00002506 	andeq	r2, r0, r6, lsl #10
      90:	5a070000 	bpl	1c0098 <__bss_end__+0x1b5500>
      94:	03000000 	movweq	r0, #0
      98:	009e0e1c 	addseq	r0, lr, ip, lsl lr
      9c:	04080000 	streq	r0, [r8], #-0
      a0:	00000083 	andeq	r0, r0, r3, lsl #1
      a4:	00002505 	andeq	r2, r0, r5, lsl #10
      a8:	0000b300 	andeq	fp, r0, r0, lsl #6
      ac:	00b30600 	adcseq	r0, r3, r0, lsl #12
      b0:	08000000 	stmdaeq	r0, {}	; <UNPREDICTABLE>
      b4:	0000c004 	andeq	ip, r0, r4
      b8:	08010300 	stmdaeq	r1, {r8, r9}
      bc:	0000017c 	andeq	r0, r0, ip, ror r1
      c0:	0000b909 	andeq	fp, r0, r9, lsl #18
      c4:	07890700 	streq	r0, [r9, r0, lsl #14]
      c8:	21030000 	mrscs	r0, (UNDEF: 3)
      cc:	0000d10e 	andeq	sp, r0, lr, lsl #2
      d0:	a4040800 	strge	r0, [r4], #-2048	; 0xfffff800
      d4:	0a000000 	beq	dc <__code_start__-0x7f24>
      d8:	0916010c 	ldmdbeq	r6, {r2, r3, r8}
      dc:	00000102 	andeq	r0, r0, r2, lsl #2
      e0:	0100780b 	tsteq	r0, fp, lsl #16
      e4:	00251616 	eoreq	r1, r5, r6, lsl r6
      e8:	0b000000 	bleq	f0 <__code_start__-0x7f10>
      ec:	16010079 			; <UNDEFINED> instruction: 0x16010079
      f0:	00002518 	andeq	r2, r0, r8, lsl r5
      f4:	7a0b0400 	bvc	2c10fc <__bss_end__+0x2b6564>
      f8:	1a160100 	bne	580500 <__bss_end__+0x575968>
      fc:	00000025 	andeq	r0, r0, r5, lsr #32
     100:	f0040008 			; <UNDEFINED> instruction: 0xf0040008
     104:	01000000 	mrseq	r0, (UNDEF: 0)
     108:	00d71f16 	sbcseq	r1, r7, r6, lsl pc
     10c:	0c0a0000 	stceq	0, cr0, [sl], {-0}
     110:	3e093e01 	cdpcc	14, 0, cr3, cr9, cr1, {0}
     114:	0c000001 	stceq	0, cr0, [r0], {1}
     118:	000004be 			; <UNDEFINED> instruction: 0x000004be
     11c:	4f0d3f01 	svcmi	0x000d3f01
     120:	00000000 	andeq	r0, r0, r0
     124:	007a680b 	rsbseq	r6, sl, fp, lsl #16
     128:	2c0e4001 	stccs	0, cr4, [lr], {1}
     12c:	04000000 	streq	r0, [r0], #-0
     130:	7370640b 	cmnvc	r0, #184549376	; 0xb000000
     134:	0e430100 	dvfeqs	f0, f3, f0
     138:	0000002c 	andeq	r0, r0, ip, lsr #32
     13c:	d0040008 	andle	r0, r4, r8
     140:	01000001 	tsteq	r0, r1
     144:	010e0344 	tsteq	lr, r4, asr #6
     148:	3e090000 	cdpcc	0, 0, cr0, cr9, cr0, {0}
     14c:	0d000001 	stceq	0, cr0, [r0, #-4]
     150:	005b0107 	subseq	r0, fp, r7, lsl #2
     154:	46010000 	strmi	r0, [r1], -r0
     158:	0001ac06 	andeq	sl, r1, r6, lsl #24
     15c:	032b0e00 			; <UNDEFINED> instruction: 0x032b0e00
     160:	0e1c0000 	cdpeq	0, 1, cr0, cr12, cr0, {0}
     164:	00000326 	andeq	r0, r0, r6, lsr #6
     168:	01c00e1d 	biceq	r0, r0, sp, lsl lr
     16c:	0e1a0000 	cdpeq	0, 1, cr0, cr10, cr0, {0}
     170:	00000022 	andeq	r0, r0, r2, lsr #32
     174:	00d10e00 	sbcseq	r0, r1, r0, lsl #28
     178:	0e010000 	cdpeq	0, 0, cr0, cr1, cr0, {0}
     17c:	00000115 	andeq	r0, r0, r5, lsl r1
     180:	034a0e02 	movteq	r0, #44546	; 0xae02
     184:	0e030000 	cdpeq	0, 0, cr0, cr3, cr0, {0}
     188:	00000087 	andeq	r0, r0, r7, lsl #1
     18c:	009b0e43 	addseq	r0, fp, r3, asr #28
     190:	0e440000 	cdpeq	0, 4, cr0, cr4, cr0, {0}
     194:	00000038 	andeq	r0, r0, r8, lsr r0
     198:	004e0e45 	subeq	r0, lr, r5, asr #28
     19c:	0e460000 	cdpeq	0, 4, cr0, cr6, cr0, {0}
     1a0:	000002d0 	ldrdeq	r0, [r0], -r0	; <UNPREDICTABLE>
     1a4:	02dc0e47 	sbcseq	r0, ip, #1136	; 0x470
     1a8:	00480000 	subeq	r0, r8, r0
     1ac:	0001e70f 	andeq	lr, r1, pc, lsl #14
     1b0:	06ce0100 	strbeq	r0, [lr], r0, lsl #2
     1b4:	000084e4 	andeq	r8, r0, r4, ror #9
     1b8:	000001a8 	andeq	r0, r0, r8, lsr #3
     1bc:	04bb9c01 	ldrteq	r9, [fp], #3073	; 0xc01
     1c0:	d7100000 	ldrle	r0, [r0, -r0]
     1c4:	01000001 	tsteq	r0, r1
     1c8:	004f0dd5 	ldrdeq	r0, [pc], #-213	; <UNPREDICTABLE>
     1cc:	0d680000 	stcleq	0, cr0, [r8, #-0]
     1d0:	005b0107 	subseq	r0, fp, r7, lsl #2
     1d4:	d7010000 	strle	r0, [r1, -r0]
     1d8:	0001f60a 	andeq	pc, r1, sl, lsl #12
     1dc:	01080e00 	tsteq	r8, r0, lsl #28
     1e0:	0e750000 	cdpeq	0, 7, cr0, cr5, cr0, {0}
     1e4:	000000a7 	andeq	r0, r0, r7, lsr #1
     1e8:	00b50e70 	adcseq	r0, r5, r0, ror lr
     1ec:	0e710000 	cdpeq	0, 7, cr0, cr1, cr0, {0}
     1f0:	000000c3 	andeq	r0, r0, r3, asr #1
     1f4:	76110068 	ldrvc	r0, [r1], -r8, rrx
     1f8:	0ddf0100 	ldfeqe	f0, [pc]	; 200 <__code_start__-0x7e00>
     1fc:	0000004f 	andeq	r0, r0, pc, asr #32
     200:	00000004 	andeq	r0, r0, r4
     204:	00000000 	andeq	r0, r0, r0
     208:	00012212 	andeq	r2, r1, r2, lsl r2
     20c:	0004cb00 	andeq	ip, r4, r0, lsl #22
     210:	30030500 	andcc	r0, r3, r0, lsl #10
     214:	110000a3 	smlatbne	r0, r3, r0, r0
     218:	00737064 	rsbseq	r7, r3, r4, rrx
     21c:	2509ef01 	strcs	lr, [r9, #-3841]	; 0xfffff0ff
     220:	26000000 	strcs	r0, [r0], -r0
     224:	22000000 	andcs	r0, r0, #0, 0
     228:	13000000 	movwne	r0, #0
     22c:	f6010067 			; <UNDEFINED> instruction: 0xf6010067
     230:	00013e0c 	andeq	r3, r1, ip, lsl #28
     234:	58910200 	ldmpl	r1, {r9}
     238:	0085a014 	addeq	sl, r5, r4, lsl r0
     23c:	00006c00 	andeq	r6, r0, r0, lsl #24
     240:	00030100 	andeq	r0, r3, r0, lsl #2
     244:	00691100 	rsbeq	r1, r9, r0, lsl #2
     248:	250df801 	strcs	pc, [sp, #-2049]	; 0xfffff7ff
     24c:	4c000000 	stcmi	0, cr0, [r0], {-0}
     250:	48000000 	stmdami	r0, {}	; <UNPREDICTABLE>
     254:	15000000 	strne	r0, [r0, #-0]
     258:	000085ac 	andeq	r8, r0, ip, lsr #11
     25c:	00000058 	andeq	r0, r0, r8, asr r0
     260:	00033b16 	andeq	r3, r3, r6, lsl fp
     264:	13f90100 	mvnsne	r0, #0
     268:	00000102 	andeq	r0, r0, r2, lsl #2
     26c:	174c9102 	strbne	r9, [ip, -r2, lsl #2]
     270:	000085bc 			; <UNDEFINED> instruction: 0x000085bc
     274:	0000063e 	andeq	r0, r0, lr, lsr r6
     278:	00000289 	andeq	r0, r0, r9, lsl #5
     27c:	02500118 	subseq	r0, r0, #6
     280:	01180074 	tsteq	r8, r4, ror r0
     284:	50910251 	addspl	r0, r1, r1, asr r2
     288:	85c81700 	strbhi	r1, [r8, #1792]	; 0x700
     28c:	0f050000 	svceq	0x00050000
     290:	02a60000 	adceq	r0, r6, #0, 0
     294:	01180000 	tsteq	r8, r0
     298:	c0030550 	andgt	r0, r3, r0, asr r5
     29c:	180000a2 	stmdane	r0, {r1, r5, r7}
     2a0:	76025101 	strvc	r5, [r2], -r1, lsl #2
     2a4:	d4170000 	ldrle	r0, [r7], #-0
     2a8:	6b000085 	blvs	4c4 <__code_start__-0x7b3c>
     2ac:	bd00000e 	stclt	0, cr0, [r0, #-56]	; 0xffffffc8
     2b0:	18000002 	stmdane	r0, {r1}
     2b4:	03055001 	movweq	r5, #20481	; 0x5001
     2b8:	0000a2d4 	ldrdeq	sl, [r0], -r4
     2bc:	85f01700 	ldrbhi	r1, [r0, #1792]!	; 0x700
     2c0:	05240000 	streq	r0, [r4, #-0]!
     2c4:	02d70000 	sbcseq	r0, r7, #0, 0
     2c8:	01180000 	tsteq	r8, r0
     2cc:	00750250 	rsbseq	r0, r5, r0, asr r2
     2d0:	02510118 	subseq	r0, r1, #6
     2d4:	17005091 			; <UNDEFINED> instruction: 0x17005091
     2d8:	000085fc 	strdeq	r8, [r0], -ip
     2dc:	00000e6b 	andeq	r0, r0, fp, ror #28
     2e0:	000002ee 	andeq	r0, r0, lr, ror #5
     2e4:	05500118 	ldrbeq	r0, [r0, #-280]	; 0xfffffee8
     2e8:	00a2dc03 	adceq	sp, r2, r3, lsl #24
     2ec:	04190000 	ldreq	r0, [r9], #-0
     2f0:	11000086 	smlabbne	r0, r6, r0, r0
     2f4:	1800000f 	stmdane	r0, {r0, r1, r2, r3}
     2f8:	0a035001 	beq	d4304 <__bss_end__+0xc976c>
     2fc:	000003e8 	andeq	r0, r0, r8, ror #7
     300:	84f41700 	ldrbthi	r1, [r4], #1792	; 0x700
     304:	0f110000 	svceq	0x00110000
     308:	03150000 	tsteq	r5, #0, 0
     30c:	01180000 	tsteq	r8, r0
     310:	64080250 	strvs	r0, [r8], #-592	; 0xfffffdb0
     314:	84f81a00 	ldrbthi	r1, [r8], #2560	; 0xa00
     318:	0f1d0000 	svceq	0x001d0000
     31c:	00170000 	andseq	r0, r7, r0
     320:	11000085 	smlabbne	r0, r5, r0, r0
     324:	3200000f 	andcc	r0, r0, #15, 0
     328:	18000003 	stmdane	r0, {r0, r1}
     32c:	08025001 	stmdaeq	r2, {r0, ip, lr}
     330:	0c170064 	ldceq	0, cr0, [r7], {100}	; 0x64
     334:	e1000085 	smlabb	r0, r5, r0, r0
     338:	4c00000d 	stcmi	0, cr0, [r0], {13}
     33c:	18000003 	stmdane	r0, {r0, r1}
     340:	08025001 	stmdaeq	r2, {r0, ip, lr}
     344:	51011868 	tstpl	r1, r8, ror #16
     348:	00750802 	rsbseq	r0, r5, r2, lsl #16
     34c:	00852c17 	addeq	r2, r5, r7, lsl ip
     350:	000f0500 	andeq	r0, pc, r0, lsl #10
     354:	00036300 	andeq	r6, r3, r0, lsl #6
     358:	50011800 	andpl	r1, r1, r0, lsl #16
     35c:	a2680305 	rsbge	r0, r8, #335544320	; 0x14000000
     360:	17000000 	strne	r0, [r0, -r0]
     364:	00008534 	andeq	r8, r0, r4, lsr r5
     368:	000004d0 	ldrdeq	r0, [r0], -r0	; <UNPREDICTABLE>
     36c:	00000377 	andeq	r0, r0, r7, ror r3
     370:	02500118 	subseq	r0, r0, #6
     374:	17006808 	strne	r6, [r0, -r8, lsl #16]
     378:	00008548 	andeq	r8, r0, r8, asr #10
     37c:	000007f8 	strdeq	r0, [r0], -r8
     380:	0000039a 	muleq	r0, sl, r3
     384:	01500118 	cmpeq	r0, r8, lsl r1
     388:	51011830 	tstpl	r1, r0, lsr r8
     38c:	01183001 	tsteq	r8, r1
     390:	18300152 	ldmdane	r0!, {r1, r4, r6, r8}
     394:	08025301 	stmdaeq	r2, {r0, r8, r9, ip, lr}
     398:	5c1700f5 	ldcpl	0, cr0, [r7], {245}	; 0xf5
     39c:	f8000085 			; <UNDEFINED> instruction: 0xf8000085
     3a0:	c0000007 	andgt	r0, r0, r7
     3a4:	18000003 	stmdane	r0, {r0, r1}
     3a8:	08025001 	stmdaeq	r2, {r0, ip, lr}
     3ac:	51011864 	tstpl	r1, r4, ror #16
     3b0:	182c0802 	stmdane	ip!, {r1, fp}
     3b4:	09025201 	stmdbeq	r2, {r0, r9, ip, lr}
     3b8:	530118a4 	movwpl	r1, #6308	; 0x18a4
     3bc:	00f50802 	rscseq	r0, r5, r2, lsl #16
     3c0:	00857017 	addeq	r7, r5, r7, lsl r0
     3c4:	0007f800 	andeq	pc, r7, r0, lsl #16
     3c8:	0003e600 	andeq	lr, r3, r0, lsl #12
     3cc:	50011800 	andpl	r1, r1, r0, lsl #16
     3d0:	18c80802 	stmiane	r8, {r1, fp}^
     3d4:	08025101 	stmdaeq	r2, {r0, r8, ip, lr}
     3d8:	52011859 	andpl	r1, r1, #5832704	; 0x590000
     3dc:	18490802 	stmdane	r9, {r1, fp}^
     3e0:	08025301 	stmdaeq	r2, {r0, r8, r9, ip, lr}
     3e4:	841700f5 	ldrhi	r0, [r7], #-245	; 0xffffff0b
     3e8:	f8000085 			; <UNDEFINED> instruction: 0xf8000085
     3ec:	0c000007 	stceq	0, cr0, [r0], {7}
     3f0:	18000004 	stmdane	r0, {r2}
     3f4:	09025001 	stmdbeq	r2, {r0, ip, lr}
     3f8:	5101189c 			; <UNDEFINED> instruction: 0x5101189c
     3fc:	18d30902 	ldmne	r3, {r1, r8, fp}^
     400:	08025201 	stmdaeq	r2, {r0, r9, ip, lr}
     404:	5301185c 	movwpl	r1, #6236	; 0x185c
     408:	00f50802 	rscseq	r0, r5, r2, lsl #16
     40c:	00859417 	addeq	r9, r5, r7, lsl r4
     410:	000b8200 	andeq	r8, fp, r0, lsl #4
     414:	00042b00 	andeq	r2, r4, r0, lsl #22
     418:	50011800 	andpl	r1, r1, r0, lsl #16
     41c:	18509102 	ldmdane	r0, {r1, r8, ip, pc}^
     420:	08025101 	stmdaeq	r2, {r0, r8, ip, lr}
     424:	52011868 	andpl	r1, r1, #104, 16	; 0x680000
     428:	17003001 	strne	r3, [r0, -r1]
     42c:	0000863c 	andeq	r8, r0, ip, lsr r6
     430:	00000f05 	andeq	r0, r0, r5, lsl #30
     434:	0000046f 	andeq	r0, r0, pc, ror #8
     438:	05500118 	ldrbeq	r0, [r0, #-280]	; 0xfffffee8
     43c:	00a22003 	adceq	r2, r2, r3
     440:	51011800 	tstpl	r1, r0, lsl #16
     444:	a1380305 	teqge	r8, r5, lsl #6
     448:	01180000 	tsteq	r8, r0
     44c:	30030552 	andcc	r0, r3, r2, asr r5
     450:	180000a3 	stmdane	r0, {r0, r1, r5, r7}
     454:	08025301 	stmdaeq	r2, {r0, r8, r9, ip, lr}
     458:	7d0218e3 	stcvc	8, cr1, [r2, #-908]	; 0xfffffc74
     45c:	70080200 	andvc	r0, r8, r0, lsl #4
     460:	047d0218 	ldrbteq	r0, [sp], #-536	; 0xfffffde8
     464:	18710802 	ldmdane	r1!, {r1, fp}^
     468:	02087d02 	andeq	r7, r8, #128	; 0x80
     46c:	1a006808 	bne	1a494 <__bss_end__+0xf8fc>
     470:	00008640 	andeq	r8, r0, r0, asr #12
     474:	00000f29 	andeq	r0, r0, r9, lsr #30
     478:	00865c17 	addeq	r5, r6, r7, lsl ip
     47c:	000f0500 	andeq	r0, pc, r0, lsl #10
     480:	0004b100 	andeq	fp, r4, r0, lsl #2
     484:	50011800 	andpl	r1, r1, r0, lsl #16
     488:	a2a00305 	adcge	r0, r0, #335544320	; 0x14000000
     48c:	01180000 	tsteq	r8, r0
     490:	38030551 	stmdacc	r3, {r0, r4, r6, r8, sl}
     494:	180000a1 	stmdane	r0, {r0, r5, r7}
     498:	03055201 	movweq	r5, #20993	; 0x5201
     49c:	0000a330 	andeq	sl, r0, r0, lsr r3
     4a0:	02530118 	subseq	r0, r3, #6
     4a4:	0218f708 	andseq	pc, r8, #8, 14	; 0x200000
     4a8:	0305007d 	movweq	r0, #20605	; 0x507d
     4ac:	0000a2b4 			; <UNDEFINED> instruction: 0x0000a2b4
     4b0:	86601a00 	strbthi	r1, [r0], -r0, lsl #20
     4b4:	0f290000 	svceq	0x00290000
     4b8:	1b000000 	blne	4c0 <__code_start__-0x7b40>
     4bc:	000000c0 	andeq	r0, r0, r0, asr #1
     4c0:	000004cb 	andeq	r0, r0, fp, asr #9
     4c4:	00002c1c 	andeq	r2, r0, ip, lsl ip
     4c8:	09000700 	stmdbeq	r0, {r8, r9, sl}
     4cc:	000004bb 			; <UNDEFINED> instruction: 0x000004bb
     4d0:	0001880f 	andeq	r8, r1, pc, lsl #16
     4d4:	06c10100 	strbeq	r0, [r1], r0, lsl #2
     4d8:	000084c8 	andeq	r8, r0, r8, asr #9
     4dc:	0000001c 	andeq	r0, r0, ip, lsl r0
     4e0:	05249c01 	streq	r9, [r4, #-3073]!	; 0xfffff3ff
     4e4:	be1d0000 	cdplt	0, 1, cr0, cr13, cr0, {0}
     4e8:	01000004 	tsteq	r0, r4
     4ec:	004f1cc1 	subeq	r1, pc, r1, asr #25
     4f0:	006e0000 	rsbeq	r0, lr, r0
     4f4:	006a0000 	rsbeq	r0, sl, r0
     4f8:	d8170000 	ldmdale	r7, {}	; <UNPREDICTABLE>
     4fc:	5c000084 	stcpl	0, cr0, [r0], {132}	; 0x84
     500:	1300000d 	movwne	r0, #13
     504:	18000005 	stmdane	r0, {r0, r2}
     508:	08025101 	stmdaeq	r2, {r0, r8, ip, lr}
     50c:	5201186b 	andpl	r1, r1, #7012352	; 0x6b0000
     510:	19003101 	stmdbne	r0, {r0, r8, ip, sp}
     514:	000084e0 	andeq	r8, r0, r0, ror #9
     518:	00000f11 	andeq	r0, r0, r1, lsl pc
     51c:	02500118 	subseq	r0, r0, #6
     520:	00006408 	andeq	r6, r0, r8, lsl #8
     524:	0002101e 	andeq	r1, r2, lr, lsl r0
     528:	0bb80100 	bleq	fee00930 <__bss_end__+0xfedf5d98>
     52c:	00000102 	andeq	r0, r0, r2, lsl #2
     530:	00008468 	andeq	r8, r0, r8, ror #8
     534:	00000060 	andeq	r0, r0, r0, rrx
     538:	06389c01 	ldrteq	r9, [r8], -r1, lsl #24
     53c:	681f0000 	ldmdavs	pc, {}	; <UNPREDICTABLE>
     540:	1eb80100 	frdnee	f0, f0, f0
     544:	00000638 	andeq	r0, r0, r8, lsr r6
     548:	00000093 	muleq	r0, r3, r0
     54c:	0000008f 	andeq	r0, r0, pc, lsl #1
     550:	7a797820 	bvc	1e5e5d8 <__bss_end__+0x1e53a40>
     554:	2bb80100 	blcs	fee0095c <__bss_end__+0xfedf5dc4>
     558:	00000102 	andeq	r0, r0, r2, lsl #2
     55c:	11789102 	cmnne	r8, r2, lsl #2
     560:	00737064 	rsbseq	r7, r3, r4, rrx
     564:	2509b901 	strcs	fp, [r9, #-2305]	; 0xfffff6ff
     568:	b6000000 	strlt	r0, [r0], -r0
     56c:	b4000000 	strlt	r0, [r0], #-0
     570:	11000000 	mrsne	r0, (UNDEF: 0)
     574:	ba010078 	blt	4075c <__bss_end__+0x35bc4>
     578:	00002509 	andeq	r2, r0, r9, lsl #10
     57c:	0000cf00 	andeq	ip, r0, r0, lsl #30
     580:	0000c900 	andeq	ip, r0, r0, lsl #18
     584:	00791100 	rsbseq	r1, r9, r0, lsl #2
     588:	2509bb01 	strcs	fp, [r9, #-2817]	; 0xfffff4ff
     58c:	ff000000 			; <UNDEFINED> instruction: 0xff000000
     590:	f9000000 			; <UNDEFINED> instruction: 0xf9000000
     594:	11000000 	mrsne	r0, (UNDEF: 0)
     598:	bc01007a 	stclt	0, cr0, [r1], {122}	; 0x7a
     59c:	00002509 	andeq	r2, r0, r9, lsl #10
     5a0:	00012f00 	andeq	r2, r1, r0, lsl #30
     5a4:	00012900 	andeq	r2, r1, r0, lsl #18
     5a8:	0ed52100 	cdpeq	1, 13, cr2, cr5, cr0, {0}
     5ac:	84ac0000 	strthi	r0, [ip], #0
     5b0:	ac010000 	stcge	0, cr0, [r1], {-0}
     5b4:	0c000084 	stceq	0, cr0, [r0], {132}	; 0x84
     5b8:	01000000 	mrseq	r0, (UNDEF: 0)
     5bc:	05ea0cbd 	strbeq	r0, [sl, #3261]!	; 0xcbd
     5c0:	fa220000 	blx	8805c8 <__bss_end__+0x875a30>
     5c4:	5c00000e 	stcpl	0, cr0, [r0], {14}
     5c8:	5a000001 	bpl	5d4 <__code_start__-0x7a2c>
     5cc:	22000001 	andcs	r0, r0, #1, 0
     5d0:	00000ef0 	strdeq	r0, [r0], -r0	; <UNPREDICTABLE>
     5d4:	00000171 	andeq	r0, r0, r1, ror r1
     5d8:	0000016f 	andeq	r0, r0, pc, ror #2
     5dc:	000ee622 	andeq	lr, lr, r2, lsr #12
     5e0:	00018600 	andeq	r8, r1, r0, lsl #12
     5e4:	00018400 	andeq	r8, r1, r0, lsl #8
     5e8:	8c170000 	ldchi	0, cr0, [r7], {-0}
     5ec:	1b000084 	blne	804 <__code_start__-0x77fc>
     5f0:	0500000a 	streq	r0, [r0, #-10]
     5f4:	18000006 	stmdane	r0, {r1, r2}
     5f8:	91035001 	tstls	r3, r1
     5fc:	01180660 	tsteq	r8, r0, ror #12
     600:	00770251 	rsbseq	r0, r7, r1, asr r2
     604:	849c1700 	ldrhi	r1, [ip], #1792	; 0x700
     608:	0a1b0000 	beq	6c0610 <__bss_end__+0x6b5a78>
     60c:	06200000 	strteq	r0, [r0], -r0
     610:	01180000 	tsteq	r8, r0
     614:	64910350 	ldrvs	r0, [r1], #848	; 0x350
     618:	51011806 	tstpl	r1, r6, lsl #16
     61c:	00007702 	andeq	r7, r0, r2, lsl #14
     620:	0084ac19 	addeq	sl, r4, r9, lsl ip
     624:	000a1b00 	andeq	r1, sl, r0, lsl #22
     628:	50011800 	andpl	r1, r1, r0, lsl #16
     62c:	06689103 	strbteq	r9, [r8], -r3, lsl #2
     630:	02510118 	subseq	r0, r1, #6
     634:	00000077 	andeq	r0, r0, r7, ror r0
     638:	013e0408 	teqeq	lr, r8, lsl #8
     63c:	431e0000 	tstmi	lr, #0, 0
     640:	01000001 	tsteq	r0, r1
     644:	01020ba6 	smlatbeq	r2, r6, fp, r0
     648:	83b40000 			; <UNDEFINED> instruction: 0x83b40000
     64c:	00b40000 	adcseq	r0, r4, r0
     650:	9c010000 	stcls	0, cr0, [r1], {-0}
     654:	000007f2 	strdeq	r0, [r0], -r2
     658:	0100681f 	tsteq	r0, pc, lsl r8
     65c:	07f221a6 	ldrbeq	r2, [r2, r6, lsr #3]!
     660:	019f0000 	orrseq	r0, pc, r0
     664:	01990000 	orrseq	r0, r9, r0
     668:	57230000 	strpl	r0, [r3, -r0]!
     66c:	01000003 	tsteq	r0, r3
     670:	002c0ea9 	eoreq	r0, ip, r9, lsr #29
     674:	01cd0000 	biceq	r0, sp, r0
     678:	01cb0000 	biceq	r0, fp, r0
     67c:	be230000 	cdplt	0, 2, cr0, cr3, cr0, {0}
     680:	01000004 	tsteq	r0, r4
     684:	004f0daa 	subeq	r0, pc, sl, lsr #27
     688:	01e30000 	mvneq	r0, r0
     68c:	01e10000 	mvneq	r0, r0
     690:	78110000 	ldmdavc	r1, {}	; <UNPREDICTABLE>
     694:	09af0100 	stmibeq	pc!, {r8}	; <UNPREDICTABLE>
     698:	00000025 	andeq	r0, r0, r5, lsr #32
     69c:	000001fc 	strdeq	r0, [r0], -ip
     6a0:	000001f6 	strdeq	r0, [r0], -r6
     6a4:	01007911 	tsteq	r0, r1, lsl r9
     6a8:	002510af 	eoreq	r1, r5, pc, lsr #1
     6ac:	022c0000 	eoreq	r0, ip, #0, 0
     6b0:	02260000 	eoreq	r0, r6, #0, 0
     6b4:	7a110000 	bvc	4406bc <__bss_end__+0x435b24>
     6b8:	17af0100 	strne	r0, [pc, r0, lsl #2]!
     6bc:	00000025 	andeq	r0, r0, r5, lsr #32
     6c0:	0000025c 	andeq	r0, r0, ip, asr r2
     6c4:	00000256 	andeq	r0, r0, r6, asr r2
     6c8:	000ed521 	andeq	sp, lr, r1, lsr #10
     6cc:	00845400 	addeq	r5, r4, r0, lsl #8
     6d0:	84540100 	ldrbhi	r0, [r4], #-256	; 0xffffff00
     6d4:	000c0000 	andeq	r0, ip, r0
     6d8:	b4010000 	strlt	r0, [r1], #-0
     6dc:	0007090c 	andeq	r0, r7, ip, lsl #18
     6e0:	0efa2200 	cdpeq	2, 15, cr2, cr10, cr0, {0}
     6e4:	02890000 	addeq	r0, r9, #0, 0
     6e8:	02870000 	addeq	r0, r7, #0, 0
     6ec:	f0220000 			; <UNDEFINED> instruction: 0xf0220000
     6f0:	9e00000e 	cdpls	0, 0, cr0, cr0, cr14, {0}
     6f4:	9c000002 	stcls	0, cr0, [r0], {2}
     6f8:	22000002 	andcs	r0, r0, #2, 0
     6fc:	00000ee6 	andeq	r0, r0, r6, ror #29
     700:	000002b3 			; <UNDEFINED> instruction: 0x000002b3
     704:	000002b1 			; <UNDEFINED> instruction: 0x000002b1
     708:	83cc1700 	bichi	r1, ip, #0, 14
     70c:	0b550000 	bleq	1540714 <__bss_end__+0x1535b7c>
     710:	071d0000 	ldreq	r0, [sp, -r0]
     714:	01180000 	tsteq	r8, r0
     718:	00740250 	rsbseq	r0, r4, r0, asr r2
     71c:	83e01700 	mvnhi	r1, #0, 14
     720:	0de10000 	stcleq	0, cr0, [r1]
     724:	07370000 	ldreq	r0, [r7, -r0]!
     728:	01180000 	tsteq	r8, r0
     72c:	00760250 	rsbseq	r0, r6, r0, asr r2
     730:	02510118 	subseq	r0, r1, #6
     734:	17004308 	strne	r4, [r0, -r8, lsl #6]
     738:	000083f0 	strdeq	r8, [r0], -r0
     73c:	00000de1 	andeq	r0, r0, r1, ror #27
     740:	00000751 	andeq	r0, r0, r1, asr r7
     744:	02500118 	subseq	r0, r0, #6
     748:	01180076 	tsteq	r8, r6, ror r0
     74c:	43080251 	movwmi	r0, #33361	; 0x8251
     750:	83fc1700 	mvnshi	r1, #0, 14
     754:	0c790000 	ldcleq	0, cr0, [r9], #-0
     758:	07650000 	strbeq	r0, [r5, -r0]!
     75c:	01180000 	tsteq	r8, r0
     760:	00740250 	rsbseq	r0, r4, r0, asr r2
     764:	840c1700 	strhi	r1, [ip], #-1792	; 0xfffff900
     768:	0de10000 	stcleq	0, cr0, [r1]
     76c:	077f0000 	ldrbeq	r0, [pc, -r0]!
     770:	01180000 	tsteq	r8, r0
     774:	00760250 	rsbseq	r0, r6, r0, asr r2
     778:	02510118 	subseq	r0, r1, #6
     77c:	17004508 	strne	r4, [r0, -r8, lsl #10]
     780:	0000841c 	andeq	r8, r0, ip, lsl r4
     784:	00000de1 	andeq	r0, r0, r1, ror #27
     788:	00000799 	muleq	r0, r9, r7
     78c:	02500118 	subseq	r0, r0, #6
     790:	01180076 	tsteq	r8, r6, ror r0
     794:	45080251 	strmi	r0, [r8, #-593]	; 0xfffffdaf
     798:	84281700 	strthi	r1, [r8], #-1792	; 0xfffff900
     79c:	0c790000 	ldcleq	0, cr0, [r9], #-0
     7a0:	07ad0000 	streq	r0, [sp, r0]!
     7a4:	01180000 	tsteq	r8, r0
     7a8:	00740250 	rsbseq	r0, r4, r0, asr r2
     7ac:	84381700 	ldrthi	r1, [r8], #-1792	; 0xfffff900
     7b0:	0de10000 	stcleq	0, cr0, [r1]
     7b4:	07c70000 	strbeq	r0, [r7, r0]
     7b8:	01180000 	tsteq	r8, r0
     7bc:	00760250 	rsbseq	r0, r6, r0, asr r2
     7c0:	02510118 	subseq	r0, r1, #6
     7c4:	17004708 	strne	r4, [r0, -r8, lsl #14]
     7c8:	00008448 	andeq	r8, r0, r8, asr #8
     7cc:	00000de1 	andeq	r0, r0, r1, ror #27
     7d0:	000007e1 	andeq	r0, r0, r1, ror #15
     7d4:	02500118 	subseq	r0, r0, #6
     7d8:	01180076 	tsteq	r8, r6, ror r0
     7dc:	47080251 	smlsdmi	r8, r1, r2, r0
     7e0:	84541900 	ldrbhi	r1, [r4], #-2304	; 0xfffff700
     7e4:	0c790000 	ldcleq	0, cr0, [r9], #-0
     7e8:	01180000 	tsteq	r8, r0
     7ec:	00780250 	rsbseq	r0, r8, r0, asr r2
     7f0:	04080000 	streq	r0, [r8], #-0
     7f4:	0000014a 	andeq	r0, r0, sl, asr #2
     7f8:	00033224 	andeq	r3, r3, r4, lsr #4
     7fc:	0d9c0100 	ldfeqs	f0, [ip]
     800:	00008190 	muleq	r0, r0, r1
     804:	00000094 	muleq	r0, r4, r0
     808:	09709c01 	ldmdbeq	r0!, {r0, sl, fp, ip, pc}^
     80c:	1b1d0000 	blne	740814 <__bss_end__+0x735c7c>
     810:	01000003 	tsteq	r0, r3
     814:	00251a9c 	mlaeq	r5, ip, sl, r1
     818:	02d60000 	sbcseq	r0, r6, #0, 0
     81c:	02c60000 	sbceq	r0, r6, #0, 0
     820:	681f0000 	ldmdavs	pc, {}	; <UNPREDICTABLE>
     824:	2e9c0100 	fmlcse	f0, f4, f0
     828:	0000004f 	andeq	r0, r0, pc, asr #32
     82c:	00000360 	andeq	r0, r0, r0, ror #6
     830:	0000035c 	andeq	r0, r0, ip, asr r3
     834:	01006c1f 	tsteq	r0, pc, lsl ip
     838:	004f399c 	umaaleq	r3, pc, ip, r9	; <UNPREDICTABLE>
     83c:	03850000 	orreq	r0, r5, #0, 0
     840:	03810000 	orreq	r0, r1, #0, 0
     844:	641f0000 	ldrvs	r0, [pc], #-0	; 84c <__code_start__-0x77b4>
     848:	01007370 	tsteq	r0, r0, ror r3
     84c:	0025409c 	mlaeq	r5, ip, r0, r4
     850:	03aa0000 			; <UNDEFINED> instruction: 0x03aa0000
     854:	03a60000 			; <UNDEFINED> instruction: 0x03a60000
     858:	73110000 	tstvc	r1, #0, 0
     85c:	0100695f 	tsteq	r0, pc, asr r9
     860:	0025099d 	mlaeq	r5, sp, r9, r0
     864:	03d00000 	bicseq	r0, r0, #0, 0
     868:	03c80000 	biceq	r0, r8, #0, 0
     86c:	74250000 	strtvc	r0, [r5], #-0
     870:	01006c6f 	tsteq	r0, pc, ror #24
     874:	0025099f 	mlaeq	r5, pc, r9, r0	; <UNPREDICTABLE>
     878:	12050000 	andne	r0, r5, #0, 0
     87c:	00000122 	andeq	r0, r0, r2, lsr #2
     880:	00000980 	andeq	r0, r0, r0, lsl #19
     884:	a3100305 	tstge	r0, #335544320	; 0x14000000
     888:	85260000 	strhi	r0, [r6, #-0]!
     88c:	c0000009 	andgt	r0, r0, r9
     890:	02000081 	andeq	r0, r0, #129, 0	; 0x81
     894:	00000000 	andeq	r0, r0, r0
     898:	da09a001 	ble	2688a4 <__bss_end__+0x25dd0c>
     89c:	22000008 	andcs	r0, r0, #8, 0
     8a0:	000009ae 	andeq	r0, r0, lr, lsr #19
     8a4:	00000409 	andeq	r0, r0, r9, lsl #8
     8a8:	00000405 	andeq	r0, r0, r5, lsl #8
     8ac:	0009a222 	andeq	sl, r9, r2, lsr #4
     8b0:	00042d00 	andeq	r2, r4, r0, lsl #26
     8b4:	00042900 	andeq	r2, r4, r0, lsl #18
     8b8:	09962200 	ldmibeq	r6, {r9, sp}
     8bc:	044f0000 	strbeq	r0, [pc], #-0	; 8c4 <__code_start__-0x773c>
     8c0:	044b0000 	strbeq	r0, [fp], #-0
     8c4:	00270000 	eoreq	r0, r7, r0
     8c8:	28000000 	stmdacs	r0, {}	; <UNPREDICTABLE>
     8cc:	000009ba 			; <UNDEFINED> instruction: 0x000009ba
     8d0:	00000473 	andeq	r0, r0, r3, ror r4
     8d4:	0000046d 	andeq	r0, r0, sp, ror #8
     8d8:	a81a0000 	ldmdage	sl, {}	; <UNPREDICTABLE>
     8dc:	79000081 	stmdbvc	r0, {r0, r7}
     8e0:	1700000c 	strne	r0, [r0, -ip]
     8e4:	000081b0 			; <UNDEFINED> instruction: 0x000081b0
     8e8:	000009c7 	andeq	r0, r0, r7, asr #19
     8ec:	000008f7 	strdeq	r0, [r0], -r7
     8f0:	02510118 	subseq	r0, r1, #6
     8f4:	17000075 	smlsdxne	r0, r5, r0, r0
     8f8:	000081e0 	andeq	r8, r0, r0, ror #3
     8fc:	00000f05 	andeq	r0, r0, r5, lsl #30
     900:	0000091a 	andeq	r0, r0, sl, lsl r9
     904:	05500118 	ldrbeq	r0, [r0, #-280]	; 0xfffffee8
     908:	00a1b403 	adceq	fp, r1, r3, lsl #8
     90c:	53011800 	movwpl	r1, #6144	; 0x1800
     910:	02183501 	andseq	r3, r8, #4194304	; 0x400000
     914:	7502007d 	strvc	r0, [r2, #-125]	; 0xffffff83
     918:	10170000 	andsne	r0, r7, r0
     91c:	05000082 	streq	r0, [r0, #-130]	; 0xffffff7e
     920:	6600000f 	strvs	r0, [r0], -pc
     924:	18000009 	stmdane	r0, {r0, r3}
     928:	03055001 	movweq	r5, #20481	; 0x5001
     92c:	0000a180 	andeq	sl, r0, r0, lsl #3
     930:	05510118 	ldrbeq	r0, [r1, #-280]	; 0xfffffee8
     934:	00a13803 	adceq	r3, r1, r3, lsl #16
     938:	52011800 	andpl	r1, r1, #0, 16
     93c:	a3100305 	tstge	r0, #335544320	; 0x14000000
     940:	01180000 	tsteq	r8, r0
     944:	a1080253 	tstge	r8, r3, asr r2
     948:	007d0218 	rsbseq	r0, sp, r8, lsl r2
     94c:	5001f311 	andpl	pc, r1, r1, lsl r3	; <UNPREDICTABLE>
     950:	01f32435 	mvnseq	r2, r5, lsr r4
     954:	24321c50 	ldrtcs	r1, [r2], #-3152	; 0xfffff3b0
     958:	225001f3 	subscs	r0, r0, #-1073741764	; 0xc000003c
     95c:	02182433 	andseq	r2, r8, #855638016	; 0x33000000
     960:	7502087d 	strvc	r0, [r2, #-2173]	; 0xfffff783
     964:	141a0000 	ldrne	r0, [sl], #-0
     968:	29000082 	stmdbcs	r0, {r1, r7}
     96c:	0000000f 	andeq	r0, r0, pc
     970:	0000c01b 	andeq	ip, r0, fp, lsl r0
     974:	00098000 	andeq	r8, r9, r0
     978:	002c1c00 	eoreq	r1, ip, r0, lsl #24
     97c:	00080000 	andeq	r0, r8, r0
     980:	00097009 	andeq	r7, r9, r9
     984:	00e92900 	rsceq	r2, r9, r0, lsl #18
     988:	95010000 	strls	r0, [r1, #-0]
     98c:	00002513 	andeq	r2, r0, r3, lsl r5
     990:	09c70300 	stmibeq	r7, {r8, r9}^
     994:	652a0000 	strvs	r0, [sl, #-0]!
     998:	01007078 	tsteq	r0, r8, ror r0
     99c:	00251e95 	mlaeq	r5, r5, lr, r1
     9a0:	e42b0000 	strt	r0, [fp], #-0
     9a4:	01000000 	mrseq	r0, (UNDEF: 0)
     9a8:	00252795 	mlaeq	r5, r5, r7, r2
     9ac:	742a0000 	strtvc	r0, [sl], #-0
     9b0:	01006c6f 	tsteq	r0, pc, ror #24
     9b4:	00253195 	mlaeq	r5, r5, r1, r3
     9b8:	1c2c0000 	stcne	0, cr0, [ip], #-0
     9bc:	01000009 	tsteq	r0, r9
     9c0:	00250996 	mlaeq	r5, r6, r9, r0
     9c4:	2d000000 	stccs	0, cr0, [r0, #-0]
     9c8:	00000066 	andeq	r0, r0, r6, rrx
     9cc:	250c9101 	strcs	r9, [ip, #-257]	; 0xfffffeff
     9d0:	64000000 	strvs	r0, [r0], #-0
     9d4:	2c000081 	stccs	0, cr0, [r0], {129}	; 0x81
     9d8:	01000000 	mrseq	r0, (UNDEF: 0)
     9dc:	000a1b9c 	muleq	sl, ip, fp
     9e0:	65641f00 	strbvs	r1, [r4, #-3840]!	; 0xfffff100
     9e4:	91010067 	tstls	r1, r7, rrx
     9e8:	0000251f 	andeq	r2, r0, pc, lsl r5
     9ec:	0004a700 	andeq	sl, r4, r0, lsl #14
     9f0:	0004a300 	andeq	sl, r4, r0, lsl #6
     9f4:	70641f00 	rsbvc	r1, r4, r0, lsl #30
     9f8:	91010073 	tstls	r1, r3, ror r0
     9fc:	00002528 	andeq	r2, r0, r8, lsr #10
     a00:	0004c900 	andeq	ip, r4, r0, lsl #18
     a04:	0004c500 	andeq	ip, r4, r0, lsl #10
     a08:	81741900 	cmnhi	r4, r0, lsl #18
     a0c:	0ac20000 	beq	ff080a14 <__bss_end__+0xff075e7c>
     a10:	01180000 	tsteq	r8, r0
     a14:	01f30350 	mvnseq	r0, r0, asr r3
     a18:	2d000051 	stccs	0, cr0, [r0, #-324]	; 0xfffffebc
     a1c:	00000012 	andeq	r0, r0, r2, lsl r0
     a20:	250c8701 	strcs	r8, [ip, #-1793]	; 0xfffff8ff
     a24:	44000000 	strmi	r0, [r0], #-0
     a28:	8c000080 	stchi	0, cr0, [r0], {128}	; 0x80
     a2c:	01000000 	mrseq	r0, (UNDEF: 0)
     a30:	000aad9c 	muleq	sl, ip, sp
     a34:	65641f00 	strbvs	r1, [r4, #-3840]!	; 0xfffff100
     a38:	87010067 	strhi	r0, [r1, -r7, rrx]
     a3c:	00002520 	andeq	r2, r0, r0, lsr #10
     a40:	0004f600 	andeq	pc, r4, r0, lsl #12
     a44:	0004ea00 	andeq	lr, r4, r0, lsl #20
     a48:	70641f00 	rsbvc	r1, r4, r0, lsl #30
     a4c:	87010073 	smlsdxhi	r1, r3, r0, r0
     a50:	00002529 	andeq	r2, r0, r9, lsr #10
     a54:	00054f00 	andeq	r4, r5, r0, lsl #30
     a58:	00054900 	andeq	r4, r5, r0, lsl #18
     a5c:	01221200 			; <UNDEFINED> instruction: 0x01221200
     a60:	0abd0000 	beq	fef40a68 <__bss_end__+0xfef35ed0>
     a64:	03050000 	movweq	r0, #20480	; 0x5000
     a68:	0000a2f0 	strdeq	sl, [r0], -r0
     a6c:	0080bc17 	addeq	fp, r0, r7, lsl ip
     a70:	000f0500 	andeq	r0, pc, r0, lsl #10
     a74:	000aa300 	andeq	sl, sl, r0, lsl #6
     a78:	50011800 	andpl	r1, r1, r0, lsl #16
     a7c:	a1400305 	cmpge	r0, r5, lsl #6
     a80:	01180000 	tsteq	r8, r0
     a84:	38030551 	stmdacc	r3, {r0, r4, r6, r8, sl}
     a88:	180000a1 	stmdane	r0, {r0, r5, r7}
     a8c:	03055201 	movweq	r5, #20993	; 0x5201
     a90:	0000a2f0 	strdeq	sl, [r0], -r0
     a94:	02530118 	subseq	r0, r3, #6
     a98:	02188e08 	andseq	r8, r8, #8, 28	; 0x80
     a9c:	f303007d 	vqadd.u8	q0, <illegal reg q1.5>, <illegal reg q14.5>
     aa0:	1a005101 	bne	14eac <__bss_end__+0xa314>
     aa4:	000080c0 	andeq	r8, r0, r0, asr #1
     aa8:	00000f29 	andeq	r0, r0, r9, lsr #30
     aac:	00c01b00 	sbceq	r1, r0, r0, lsl #22
     ab0:	0abd0000 	beq	fef40ab8 <__bss_end__+0xfef35f20>
     ab4:	2c1c0000 	ldccs	0, cr0, [ip], {-0}
     ab8:	0f000000 	svceq	0x00000000
     abc:	0aad0900 	beq	feb42ec4 <__bss_end__+0xfeb3832c>
     ac0:	362d0000 	strtcc	r0, [sp], -r0
     ac4:	01000001 	tsteq	r0, r1
     ac8:	00250c7b 	eoreq	r0, r5, fp, ror ip
     acc:	80d00000 	sbcshi	r0, r0, r0
     ad0:	00940000 	addseq	r0, r4, r0
     ad4:	9c010000 	stcls	0, cr0, [r1], {-0}
     ad8:	00000b40 	andeq	r0, r0, r0, asr #22
     adc:	7370641f 	cmnvc	r0, #520093696	; 0x1f000000
     ae0:	227b0100 	rsbscs	r0, fp, #0
     ae4:	0000002c 	andeq	r0, r0, ip, lsr #32
     ae8:	00000596 	muleq	r0, r6, r5
     aec:	0000057c 	andeq	r0, r0, ip, ror r5
     af0:	00012212 	andeq	r2, r1, r2, lsl r2
     af4:	000b5000 	andeq	r5, fp, r0
     af8:	00030500 	andeq	r0, r3, r0, lsl #10
     afc:	170000a3 	strne	r0, [r0, -r3, lsr #1]
     b00:	0000812c 	andeq	r8, r0, ip, lsr #2
     b04:	00000f05 	andeq	r0, r0, r5, lsl #30
     b08:	00000b36 	andeq	r0, r0, r6, lsr fp
     b0c:	05500118 	ldrbeq	r0, [r0, #-280]	; 0xfffffee8
     b10:	00a15c03 	adceq	r5, r1, r3, lsl #24
     b14:	51011800 	tstpl	r1, r0, lsl #16
     b18:	a1380305 	teqge	r8, r5, lsl #6
     b1c:	01180000 	tsteq	r8, r0
     b20:	00030552 	andeq	r0, r3, r2, asr r5
     b24:	180000a3 	stmdane	r0, {r0, r1, r5, r7}
     b28:	08025301 	stmdaeq	r2, {r0, r8, r9, ip, lr}
     b2c:	7d021883 	stcvc	8, cr1, [r2, #-524]	; 0xfffffdf4
     b30:	01f30300 	mvnseq	r0, r0, lsl #6
     b34:	301a0050 	andscc	r0, sl, r0, asr r0
     b38:	29000081 	stmdbcs	r0, {r0, r7}
     b3c:	0000000f 	andeq	r0, r0, pc
     b40:	0000c01b 	andeq	ip, r0, fp, lsl r0
     b44:	000b5000 	andeq	r5, fp, r0
     b48:	002c1c00 	eoreq	r1, ip, r0, lsl #24
     b4c:	000c0000 	andeq	r0, ip, r0
     b50:	000b4009 	andeq	r4, fp, r9
     b54:	02021e00 	andeq	r1, r2, #0, 28
     b58:	77010000 	strvc	r0, [r1, -r0]
     b5c:	00002505 	andeq	r2, r0, r5, lsl #10
     b60:	0083ac00 	addeq	sl, r3, r0, lsl #24
     b64:	00000800 	andeq	r0, r0, r0, lsl #16
     b68:	829c0100 	addshi	r0, ip, #0
     b6c:	1f00000b 	svcne	0x0000000b
     b70:	77010068 	strvc	r0, [r1, -r8, rrx]
     b74:	0007f221 	andeq	pc, r7, r1, lsr #4
     b78:	00064400 	andeq	r4, r6, r0, lsl #8
     b7c:	00064000 	andeq	r4, r6, r0
     b80:	611e0000 	tstvs	lr, r0
     b84:	01000001 	tsteq	r0, r1
     b88:	013e0864 	teqeq	lr, r4, ror #16
     b8c:	82f40000 	rscshi	r0, r4, #0, 0
     b90:	00b80000 	adcseq	r0, r8, r0
     b94:	9c010000 	stcls	0, cr0, [r1], {-0}
     b98:	00000c64 	andeq	r0, r0, r4, ror #24
     b9c:	0004be1d 	andeq	fp, r4, sp, lsl lr
     ba0:	22640100 	rsbcs	r0, r4, #0
     ba4:	0000004f 	andeq	r0, r0, pc, asr #32
     ba8:	0000066f 	andeq	r0, r0, pc, ror #12
     bac:	00000665 	andeq	r0, r0, r5, ror #12
     bb0:	0001581d 	andeq	r5, r1, sp, lsl r8
     bb4:	31640100 	cmncc	r4, r0, lsl #2
     bb8:	0000002c 	andeq	r0, r0, ip, lsr #32
     bbc:	000006be 			; <UNDEFINED> instruction: 0x000006be
     bc0:	000006b4 			; <UNDEFINED> instruction: 0x000006b4
     bc4:	73706411 	cmnvc	r0, #285212672	; 0x11000000
     bc8:	0e650100 	poweqs	f0, f5, f0
     bcc:	0000002c 	andeq	r0, r0, ip, lsr #32
     bd0:	0000070b 	andeq	r0, r0, fp, lsl #14
     bd4:	000006fd 	strdeq	r0, [r0], -sp
     bd8:	00012212 	andeq	r2, r1, r2, lsl r2
     bdc:	000c7400 	andeq	r7, ip, r0, lsl #8
     be0:	1c030500 	cfstr32ne	mvfx0, [r3], {-0}
     be4:	170000a3 	strne	r0, [r0, -r3, lsr #1]
     be8:	00008350 	andeq	r8, r0, r0, asr r3
     bec:	00000f05 	andeq	r0, r0, r5, lsl #30
     bf0:	00000c1c 	andeq	r0, r0, ip, lsl ip
     bf4:	05500118 	ldrbeq	r0, [r0, #-280]	; 0xfffffee8
     bf8:	00a1fc03 	adceq	pc, r1, r3, lsl #24
     bfc:	51011800 	tstpl	r1, r0, lsl #16
     c00:	a1380305 	teqge	r8, r5, lsl #6
     c04:	01180000 	tsteq	r8, r0
     c08:	1c030552 	cfstr32ne	mvfx0, [r3], {82}	; 0x52
     c0c:	180000a3 	stmdane	r0, {r0, r1, r5, r7}
     c10:	08025301 	stmdaeq	r2, {r0, r8, r9, ip, lr}
     c14:	7d02186b 	stcvc	8, cr1, [r2, #-428]	; 0xfffffe54
     c18:	00300100 	eorseq	r0, r0, r0, lsl #2
     c1c:	0083541a 	addeq	r5, r3, sl, lsl r4
     c20:	000f2900 	andeq	r2, pc, r0, lsl #18
     c24:	83681700 	cmnhi	r8, #0, 14
     c28:	0d5c0000 	ldcleq	0, cr0, [ip, #-0]
     c2c:	0c430000 	mareq	acc0, r0, r3
     c30:	01180000 	tsteq	r8, r0
     c34:	00760250 	rsbseq	r0, r6, r0, asr r2
     c38:	01510118 	cmpeq	r1, r8, lsl r1
     c3c:	5201184a 	andpl	r1, r1, #4849664	; 0x4a0000
     c40:	19003401 	stmdbne	r0, {r0, sl, ip, sp}
     c44:	0000837c 	andeq	r8, r0, ip, ror r3
     c48:	00000d5c 	andeq	r0, r0, ip, asr sp
     c4c:	02500118 	subseq	r0, r0, #6
     c50:	01180076 	tsteq	r8, r6, ror r0
     c54:	184b0151 	stmdane	fp, {r0, r4, r6, r8}^
     c58:	74075201 	strvc	r5, [r7], #-513	; 0xfffffdff
     c5c:	08243300 	stmdaeq	r4!, {r8, r9, ip, sp}
     c60:	00001af8 	strdeq	r1, [r0], -r8
     c64:	0000c01b 	andeq	ip, r0, fp, lsl r0
     c68:	000c7400 	andeq	r7, ip, r0, lsl #8
     c6c:	002c1c00 	eoreq	r1, ip, r0, lsl #24
     c70:	00110000 	andseq	r0, r1, r0
     c74:	000c6409 	andeq	r6, ip, r9, lsl #8
     c78:	01812d00 	orreq	r2, r1, r0, lsl #26
     c7c:	5e010000 	cdppl	0, 0, cr0, cr1, cr0, {0}
     c80:	00003a0e 	andeq	r3, r0, lr, lsl #20
     c84:	00803800 	addeq	r3, r0, r0, lsl #16
     c88:	00000c00 	andeq	r0, r0, r0, lsl #24
     c8c:	b49c0100 	ldrlt	r0, [ip], #256	; 0x100
     c90:	1f00000c 	svcne	0x0000000c
     c94:	01006f6c 	tsteq	r0, ip, ror #30
     c98:	004f1d5e 	subeq	r1, pc, lr, asr sp	; <UNPREDICTABLE>
     c9c:	076e0000 	strbeq	r0, [lr, -r0]!
     ca0:	076a0000 	strbeq	r0, [sl, -r0]!
     ca4:	68200000 	stmdavs	r0!, {}	; <UNPREDICTABLE>
     ca8:	5e010069 	cdppl	0, 0, cr0, cr1, cr9, {3}
     cac:	00004f29 	andeq	r4, r0, r9, lsr #30
     cb0:	00510100 	subseq	r0, r1, r0, lsl #2
     cb4:	0000751e 	andeq	r7, r0, lr, lsl r5
     cb8:	05360100 	ldreq	r0, [r6, #-256]!	; 0xffffff00
     cbc:	00000025 	andeq	r0, r0, r5, lsr #32
     cc0:	000082b8 			; <UNDEFINED> instruction: 0x000082b8
     cc4:	0000003c 	andeq	r0, r0, ip, lsr r0
     cc8:	0d569c01 	ldcleq	12, cr9, [r6, #-4]
     ccc:	be1d0000 	cdplt	0, 1, cr0, cr13, cr0, {0}
     cd0:	01000004 	tsteq	r0, r4
     cd4:	004f1636 	subeq	r1, pc, r6, lsr r6	; <UNPREDICTABLE>
     cd8:	07930000 	ldreq	r0, [r3, r0]
     cdc:	078f0000 	streq	r0, [pc, r0]
     ce0:	7e1d0000 	cdpvc	0, 1, cr0, cr13, cr0, {0}
     ce4:	01000000 	mrseq	r0, (UNDEF: 0)
     ce8:	004f2436 	subeq	r2, pc, r6, lsr r4	; <UNPREDICTABLE>
     cec:	07b80000 	ldreq	r0, [r8, r0]!
     cf0:	07b40000 	ldreq	r0, [r4, r0]!
     cf4:	761f0000 	ldrvc	r0, [pc], -r0
     cf8:	37360100 	ldrcc	r0, [r6, -r0, lsl #2]!
     cfc:	00000d56 	andeq	r0, r0, r6, asr sp
     d00:	000007db 	ldrdeq	r0, [r0], -fp
     d04:	000007d7 	ldrdeq	r0, [r0], -r7
     d08:	01006e1f 	tsteq	r0, pc, lsl lr
     d0c:	00694336 	rsbeq	r4, r9, r6, lsr r3
     d10:	07fd0000 	ldrbeq	r0, [sp, r0]!
     d14:	07f90000 	ldrbeq	r0, [r9, r0]!
     d18:	dc170000 	ldcle	0, cr0, [r7], {-0}
     d1c:	35000082 	strcc	r0, [r0, #-130]	; 0xffffff7e
     d20:	3900000f 	stmdbcc	r0, {r0, r1, r2, r3}
     d24:	1800000d 	stmdane	r0, {r0, r2, r3}
     d28:	74025001 	strvc	r5, [r2], #-1
     d2c:	51011800 	tstpl	r1, r0, lsl #16
     d30:	18679102 	stmdane	r7!, {r1, r8, ip, pc}^
     d34:	31015201 	tstcc	r1, r1, lsl #4
     d38:	82ec1900 	rschi	r1, ip, #0, 18
     d3c:	0f410000 	svceq	0x00410000
     d40:	01180000 	tsteq	r8, r0
     d44:	00740250 	rsbseq	r0, r4, r0, asr r2
     d48:	02510118 	subseq	r0, r1, #6
     d4c:	01180075 	tsteq	r8, r5, ror r0
     d50:	00760252 	rsbseq	r0, r6, r2, asr r2
     d54:	04080000 	streq	r0, [r8], #-0
     d58:	0000004f 	andeq	r0, r0, pc, asr #32
     d5c:	0003430f 	andeq	r4, r3, pc, lsl #6
     d60:	062c0100 	strteq	r0, [ip], -r0, lsl #2
     d64:	00008294 	muleq	r0, r4, r2
     d68:	00000024 	andeq	r0, r0, r4, lsr #32
     d6c:	0dd19c01 	ldcleq	12, cr9, [r1, #4]
     d70:	be1d0000 	cdplt	0, 1, cr0, cr13, cr0, {0}
     d74:	01000004 	tsteq	r0, r4
     d78:	004f152c 	subeq	r1, pc, ip, lsr #10
     d7c:	081f0000 	ldmdaeq	pc, {}	; <UNPREDICTABLE>
     d80:	081b0000 	ldmdaeq	fp, {}	; <UNPREDICTABLE>
     d84:	721f0000 	andsvc	r0, pc, #0, 0
     d88:	01006765 	tsteq	r0, r5, ror #14
     d8c:	004f232c 	subeq	r2, pc, ip, lsr #6
     d90:	08460000 	stmdaeq	r6, {}^	; <UNPREDICTABLE>
     d94:	08400000 	stmdaeq	r0, {}^	; <UNPREDICTABLE>
     d98:	761f0000 	ldrvc	r0, [pc], -r0
     d9c:	302c0100 	eorcc	r0, ip, r0, lsl #2
     da0:	0000004f 	andeq	r0, r0, pc, asr #32
     da4:	00000879 	andeq	r0, r0, r9, ror r8
     da8:	00000873 	andeq	r0, r0, r3, ror r8
     dac:	00020b16 	andeq	r0, r2, r6, lsl fp
     db0:	0d2d0100 	stfeqs	f0, [sp, #-0]
     db4:	00000dd1 	ldrdeq	r0, [r0], -r1
     db8:	19749102 	ldmdbne	r4!, {r1, r8, ip, pc}^
     dbc:	000082b0 			; <UNDEFINED> instruction: 0x000082b0
     dc0:	00000f35 	andeq	r0, r0, r5, lsr pc
     dc4:	02510118 	subseq	r0, r1, #6
     dc8:	01186c91 			; <UNDEFINED> instruction: 0x01186c91
     dcc:	00320152 	eorseq	r0, r2, r2, asr r1
     dd0:	004f1b00 	subeq	r1, pc, r0, lsl #22
     dd4:	0de10000 	stcleq	0, cr0, [r1]
     dd8:	2c1c0000 	ldccs	0, cr0, [ip], {-0}
     ddc:	01000000 	mrseq	r0, (UNDEF: 0)
     de0:	00dd1e00 	sbcseq	r1, sp, r0, lsl #28
     de4:	23010000 	movwcs	r0, #4096	; 0x1000
     de8:	00004f09 	andeq	r4, r0, r9, lsl #30
     dec:	00825c00 	addeq	r5, r2, r0, lsl #24
     df0:	00003800 	andeq	r3, r0, r0, lsl #16
     df4:	6b9c0100 	blvs	fe7011fc <__bss_end__+0xfe6f6664>
     df8:	1d00000e 	stcne	0, cr0, [r0, #-56]	; 0xffffffc8
     dfc:	000004be 			; <UNDEFINED> instruction: 0x000004be
     e00:	4f182301 	svcmi	0x00182301
     e04:	aa000000 	bge	e0c <__code_start__-0x71f4>
     e08:	a6000008 	strge	r0, [r0], -r8
     e0c:	1f000008 	svcne	0x00000008
     e10:	00676572 	rsbeq	r6, r7, r2, ror r5
     e14:	4f262301 	svcmi	0x00262301
     e18:	cf000000 	svcgt	0x00000000
     e1c:	cb000008 	blgt	e44 <__code_start__-0x71bc>
     e20:	13000008 	movwne	r0, #8
     e24:	26010076 			; <UNDEFINED> instruction: 0x26010076
     e28:	00004f0d 	andeq	r4, r0, sp, lsl #30
     e2c:	77910200 	ldrvc	r0, [r1, r0, lsl #4]
     e30:	00827817 	addeq	r7, r2, r7, lsl r8
     e34:	000f3500 	andeq	r3, pc, r0, lsl #10
     e38:	000e4f00 	andeq	r4, lr, r0, lsl #30
     e3c:	50011800 	andpl	r1, r1, r0, lsl #16
     e40:	18007402 	stmdane	r0, {r1, sl, ip, sp, lr}
     e44:	91025101 	tstls	r2, r1, lsl #2
     e48:	52011867 	andpl	r1, r1, #6750208	; 0x670000
     e4c:	19003101 	stmdbne	r0, {r0, r8, ip, sp}
     e50:	00008288 	andeq	r8, r0, r8, lsl #5
     e54:	00000f41 	andeq	r0, r0, r1, asr #30
     e58:	02500118 	subseq	r0, r0, #6
     e5c:	01180074 	tsteq	r8, r4, ror r0
     e60:	6f910251 	svcvs	0x00910251
     e64:	01520118 	cmpeq	r2, r8, lsl r1
     e68:	0f000031 	svceq	0x00000031
     e6c:	000001b6 			; <UNDEFINED> instruction: 0x000001b6
     e70:	24061c01 	strcs	r1, [r6], #-3073	; 0xfffff3ff
     e74:	38000082 	stmdacc	r0, {r1, r7}
     e78:	01000000 	mrseq	r0, (UNDEF: 0)
     e7c:	000ed59c 	muleq	lr, ip, r5
     e80:	736d1f00 	cmnvc	sp, #0, 30
     e84:	1c010067 	stcne	0, cr0, [r1], {103}	; 0x67
     e88:	0000b31c 	andeq	fp, r0, ip, lsl r3
     e8c:	0008f400 	andeq	pc, r8, r0, lsl #8
     e90:	0008ee00 	andeq	lr, r8, r0, lsl #28
     e94:	79782000 	ldmdbvc	r8!, {sp}^
     e98:	1c01007a 	stcne	0, cr0, [r1], {122}	; 0x7a
     e9c:	0001022b 	andeq	r0, r1, fp, lsr #4
     ea0:	6c910200 	lfmvs	f0, 4, [r1], {0}
     ea4:	00825019 	addeq	r5, r2, r9, lsl r0
     ea8:	000f0500 	andeq	r0, pc, r0, lsl #10
     eac:	50011800 	andpl	r1, r1, r0, lsl #16
     eb0:	a1e40305 	mvnge	r0, r5, lsl #6
     eb4:	01180000 	tsteq	r8, r0
     eb8:	01f30351 	mvnseq	r0, r1, asr r3
     ebc:	52011850 	andpl	r1, r1, #80, 16	; 0x500000
     ec0:	06649103 	strbteq	r9, [r4], -r3, lsl #2
     ec4:	03530118 	cmpeq	r3, #6
     ec8:	18066891 	stmdane	r6, {r0, r4, r7, fp, sp, lr}
     ecc:	03007d02 	movweq	r7, #3330	; 0xd02
     ed0:	00066c91 	muleq	r6, r1, ip
     ed4:	01e02900 	mvneq	r2, r0, lsl #18
     ed8:	19010000 	stmdbne	r1, {}	; <UNPREDICTABLE>
     edc:	00010201 	andeq	r0, r1, r1, lsl #4
     ee0:	0f050300 	svceq	0x00050300
     ee4:	782a0000 	stmdavc	sl!, {}	; <UNPREDICTABLE>
     ee8:	0c190100 	ldfeqs	f0, [r9], {-0}
     eec:	00000025 	andeq	r0, r0, r5, lsr #32
     ef0:	0100792a 	tsteq	r0, sl, lsr #18
     ef4:	00251319 	eoreq	r1, r5, r9, lsl r3
     ef8:	7a2a0000 	bvc	a80f00 <__bss_end__+0xa76368>
     efc:	1a190100 	bne	641304 <__bss_end__+0x63676c>
     f00:	00000025 	andeq	r0, r0, r5, lsr #32
     f04:	074b2e00 	strbeq	r2, [fp, -r0, lsl #28]
     f08:	074b0000 	strbeq	r0, [fp, -r0]
     f0c:	28030000 	stmdacs	r3, {}	; <UNPREDICTABLE>
     f10:	00092e06 	andeq	r2, r9, r6, lsl #28
     f14:	00090000 	andeq	r0, r9, r0
     f18:	58030000 	stmdapl	r3, {}	; <UNPREDICTABLE>
     f1c:	00002e06 	andeq	r2, r0, r6, lsl #28
     f20:	00000000 	andeq	r0, r0, r0
     f24:	06040000 	streq	r0, [r4], -r0
     f28:	014b2e06 	cmpeq	fp, r6, lsl #28
     f2c:	014b0000 	mrseq	r0, (UNDEF: 75)
     f30:	6e030000 	cdpvs	0, 0, cr0, cr3, cr0, {0}
     f34:	00442e06 	subeq	r2, r4, r6, lsl #28
     f38:	00440000 	subeq	r0, r4, r0
     f3c:	0c040000 	stceq	0, cr0, [r4], {-0}
     f40:	03612e05 	cmneq	r1, #80	; 0x50
     f44:	03610000 	cmneq	r1, #0, 0
     f48:	0e040000 	cdpeq	0, 0, cr0, cr4, cr0, {0}
     f4c:	19e00005 	stmibne	r0!, {r0, r2}^
     f50:	00040000 	andeq	r0, r4, r0
     f54:	000002d4 	ldrdeq	r0, [r0], -r4
     f58:	021b0104 	andseq	r0, fp, #1
     f5c:	8a0c0000 	bhi	300f64 <__bss_end__+0x2f63cc>
     f60:	5f000003 	svcpl	0x00000003
     f64:	8c000005 	stchi	0, cr0, [r0], {5}
     f68:	d0000086 	andle	r0, r0, r6, lsl #1
     f6c:	f7000008 			; <UNDEFINED> instruction: 0xf7000008
     f70:	02000003 	andeq	r0, r0, #3, 0
     f74:	6e690504 	cdpvs	5, 6, cr0, cr9, cr4, {0}
     f78:	04030074 	streq	r0, [r3], #-116	; 0xffffff8c
     f7c:	0001a007 	andeq	sl, r1, r7
     f80:	002c0400 	eoreq	r0, ip, r0, lsl #8
     f84:	01030000 	mrseq	r0, (UNDEF: 3)
     f88:	00017506 	andeq	r7, r1, r6, lsl #10
     f8c:	05020300 	streq	r0, [r2, #-768]	; 0xfffffd00
     f90:	0000002e 	andeq	r0, r0, lr, lsr #32
     f94:	ff050403 			; <UNDEFINED> instruction: 0xff050403
     f98:	03000000 	movweq	r0, #0
     f9c:	00fa0508 	rscseq	r0, sl, r8, lsl #10
     fa0:	93050000 	movwls	r0, #20480	; 0x5000
     fa4:	02000000 	andeq	r0, r0, #0, 0
     fa8:	0060182e 	rsbeq	r1, r0, lr, lsr #16
     fac:	01030000 	mrseq	r0, (UNDEF: 3)
     fb0:	00017308 	andeq	r7, r1, r8, lsl #6
     fb4:	07020300 	streq	r0, [r2, -r0, lsl #6]
     fb8:	000001ef 	andeq	r0, r0, pc, ror #3
     fbc:	0001ad05 	andeq	sl, r1, r5, lsl #26
     fc0:	19340200 	ldmdbne	r4!, {r9}
     fc4:	0000007a 	andeq	r0, r0, sl, ror r0
     fc8:	9b070403 	blls	1c1fdc <__bss_end__+0x1b7444>
     fcc:	03000001 	movweq	r0, #1
     fd0:	01960708 	orrseq	r0, r6, r8, lsl #14
     fd4:	25060000 	strcs	r0, [r6, #-0]
     fd8:	97000000 	strls	r0, [r0, -r0]
     fdc:	07000000 	streq	r0, [r0, -r0]
     fe0:	00000025 	andeq	r0, r0, r5, lsr #32
     fe4:	005a0800 	subseq	r0, sl, r0, lsl #16
     fe8:	1c030000 	stcne	0, cr0, [r3], {-0}
     fec:	0000a30e 	andeq	sl, r0, lr, lsl #6
     ff0:	88040900 	stmdahi	r4, {r8, fp}
     ff4:	06000000 	streq	r0, [r0], -r0
     ff8:	00000025 	andeq	r0, r0, r5, lsr #32
     ffc:	000000b8 	strheq	r0, [r0], -r8
    1000:	0000b807 	andeq	fp, r0, r7, lsl #16
    1004:	04090000 	streq	r0, [r9], #-0
    1008:	000000c5 	andeq	r0, r0, r5, asr #1
    100c:	7c080103 	stfvcs	f0, [r8], {3}
    1010:	04000001 	streq	r0, [r0], #-1
    1014:	000000be 	strheq	r0, [r0], -lr
    1018:	00078908 	andeq	r8, r7, r8, lsl #18
    101c:	0e210300 	cdpeq	3, 2, cr0, cr1, cr0, {0}
    1020:	000000d6 	ldrdeq	r0, [r0], -r6
    1024:	00a90409 	adceq	r0, r9, r9, lsl #8
    1028:	070a0000 	streq	r0, [sl, -r0]
    102c:	00006001 	andeq	r6, r0, r1
    1030:	0e0c0400 	cfcpyseq	mvf0, mvf12
    1034:	0000011b 	andeq	r0, r0, fp, lsl r1
    1038:	00047a0b 	andeq	r7, r4, fp, lsl #20
    103c:	ae0b0000 	cdpge	0, 0, cr0, cr11, cr0, {0}
    1040:	01000003 	tsteq	r0, r3
    1044:	0003c70b 	andeq	ip, r3, fp, lsl #14
    1048:	d60b0400 	strle	r0, [fp], -r0, lsl #8
    104c:	05000003 	streq	r0, [r0, #-3]
    1050:	0003e50b 	andeq	lr, r3, fp, lsl #10
    1054:	f40b0600 	vst1.8	{d0-d2}, [fp], r0
    1058:	07000003 	streq	r0, [r0, -r3]
    105c:	0004030b 	andeq	r0, r4, fp, lsl #6
    1060:	120b0300 	andne	r0, fp, #0, 6
    1064:	02000004 	andeq	r0, r0, #4, 0
    1068:	01040c00 	tsteq	r4, r0, lsl #24
    106c:	01d40959 	bicseq	r0, r4, r9, asr r9
    1070:	650d0000 	strvs	r0, [sp, #-0]
    1074:	01000003 	tsteq	r0, r3
    1078:	006e0b5a 	rsbeq	r0, lr, sl, asr fp
    107c:	01040000 	mrseq	r0, (UNDEF: 4)
    1080:	410d001f 	tstmi	sp, pc, lsl r0
    1084:	01000005 	tsteq	r0, r5
    1088:	006e035c 	rsbeq	r0, lr, ip, asr r3
    108c:	03040000 	movweq	r0, #16384	; 0x4000
    1090:	6f0d001c 	svcvs	0x000d001c
    1094:	01000004 	tsteq	r0, r4
    1098:	006e035d 	rsbeq	r0, lr, sp, asr r3
    109c:	02040000 	andeq	r0, r4, #0, 0
    10a0:	4b0d001a 	blmi	341110 <__bss_end__+0x336578>
    10a4:	01000005 	tsteq	r0, r5
    10a8:	006e0363 	rsbeq	r0, lr, r3, ror #6
    10ac:	01040000 	mrseq	r0, (UNDEF: 4)
    10b0:	730e0019 	movwvc	r0, #57369	; 0xe019
    10b4:	64010074 	strvs	r0, [r1], #-116	; 0xffffff8c
    10b8:	00006e03 	andeq	r6, r0, r3, lsl #28
    10bc:	18010400 	stmdane	r1, {sl}
    10c0:	048a0d00 	streq	r0, [sl], #3328	; 0xd00
    10c4:	68010000 	stmdavs	r1, {}	; <UNPREDICTABLE>
    10c8:	00006e03 	andeq	r6, r0, r3, lsl #28
    10cc:	17010400 	strne	r0, [r1, -r0, lsl #8]
    10d0:	049f0d00 	ldreq	r0, [pc], #3328	; 10d8 <__code_start__-0x6f28>
    10d4:	6b010000 	blvs	410dc <__bss_end__+0x36544>
    10d8:	00006e03 	andeq	r6, r0, r3, lsl #28
    10dc:	16010400 	strne	r0, [r1], -r0, lsl #8
    10e0:	049a0d00 	ldreq	r0, [sl], #3328	; 0xd00
    10e4:	6e010000 	cdpvs	0, 0, cr0, cr1, cr0, {0}
    10e8:	00006e03 	andeq	r6, r0, r3, lsl #28
    10ec:	15010400 	strne	r0, [r1, #-1024]	; 0xfffffc00
    10f0:	05550d00 	ldrbeq	r0, [r5, #-3328]	; 0xfffff300
    10f4:	71010000 	mrsvc	r0, (UNDEF: 1)
    10f8:	00006e03 	andeq	r6, r0, r3, lsl #28
    10fc:	11040400 	tstne	r4, r0, lsl #8
    1100:	04dd0d00 	ldrbeq	r0, [sp], #3328	; 0xd00
    1104:	72010000 	andvc	r0, r1, #0, 0
    1108:	00006e03 	andeq	r6, r0, r3, lsl #28
    110c:	10010400 	andne	r0, r1, r0, lsl #8
    1110:	036a0d00 	cmneq	sl, #0, 26
    1114:	75010000 	strvc	r0, [r1, #-0]
    1118:	00006e03 	andeq	r6, r0, r3, lsl #28
    111c:	00100400 	andseq	r0, r0, r0, lsl #8
    1120:	47050000 	strmi	r0, [r5, -r0]
    1124:	01000004 	tsteq	r0, r4
    1128:	011b0376 	tsteq	fp, r6, ror r3
    112c:	d40f0000 	strle	r0, [pc], #-0	; 1134 <__code_start__-0x6ecc>
    1130:	0c000001 	stceq	0, cr0, [r0], {1}
    1134:	09840104 	stmibeq	r4, {r2, r8}
    1138:	0000029e 	muleq	r0, lr, r2
    113c:	0061740e 	rsbeq	r7, r1, lr, lsl #8
    1140:	2c0b8501 	cfstr32cs	mvfx8, [fp], {1}
    1144:	04000000 	streq	r0, [r0], #-0
    1148:	0d001f01 	stceq	15, cr1, [r0, #-4]
    114c:	00000475 	andeq	r0, r0, r5, ror r4
    1150:	2c038801 	stccs	8, cr8, [r3], {1}
    1154:	04000000 	streq	r0, [r0], #-0
    1158:	0e001e01 	cdpeq	14, 0, cr1, cr0, cr1, {0}
    115c:	00777874 	rsbseq	r7, r7, r4, ror r8
    1160:	2c038c01 	stccs	12, cr8, [r3], {1}
    1164:	04000000 	streq	r0, [r0], #-0
    1168:	0e001d01 	cdpeq	13, 0, cr1, cr0, cr1, {0}
    116c:	00727872 	rsbseq	r7, r2, r2, ror r8
    1170:	2c039201 	sfmcs	f1, 1, [r3], {1}
    1174:	04000000 	streq	r0, [r0], #-0
    1178:	0e001c01 	cdpeq	12, 0, cr1, cr0, cr1, {0}
    117c:	00647874 	rsbeq	r7, r4, r4, ror r8
    1180:	2c039801 	stccs	8, cr9, [r3], {1}
    1184:	04000000 	streq	r0, [r0], #-0
    1188:	0e001b01 	vmlaeq.f64	d1, d0, d1
    118c:	00647872 	rsbeq	r7, r4, r2, ror r8
    1190:	2c039b01 			; <UNDEFINED> instruction: 0x2c039b01
    1194:	04000000 	streq	r0, [r0], #-0
    1198:	0e001a01 	vmlaeq.f32	s2, s0, s2
    119c:	00657874 	rsbeq	r7, r5, r4, ror r8
    11a0:	2c039f01 	stccs	15, cr9, [r3], {1}
    11a4:	04000000 	streq	r0, [r0], #-0
    11a8:	0e001901 	vmlaeq.f16	s2, s0, s2	; <UNPREDICTABLE>
    11ac:	00667872 	rsbeq	r7, r6, r2, ror r8
    11b0:	2c03a401 	cfstrscs	mvf10, [r3], {1}
    11b4:	04000000 	streq	r0, [r0], #-0
    11b8:	0e001801 	cdpeq	8, 0, cr1, cr0, cr1, {0}
    11bc:	00727265 	rsbseq	r7, r2, r5, ror #4
    11c0:	2c03a701 	stccs	7, cr10, [r3], {1}
    11c4:	04000000 	streq	r0, [r0], #-0
    11c8:	0d001701 	stceq	7, cr1, [r0, #-4]
    11cc:	0000050b 	andeq	r0, r0, fp, lsl #10
    11d0:	2c03ab01 			; <UNDEFINED> instruction: 0x2c03ab01
    11d4:	04000000 	streq	r0, [r0], #-0
    11d8:	0d001601 	stceq	6, cr1, [r0, #-4]
    11dc:	00000541 	andeq	r0, r0, r1, asr #10
    11e0:	2c03b001 	stccs	0, cr11, [r3], {1}
    11e4:	04000000 	streq	r0, [r0], #-0
    11e8:	00000016 	andeq	r0, r0, r6, lsl r0
    11ec:	00042105 	andeq	r2, r4, r5, lsl #2
    11f0:	03b10100 			; <UNDEFINED> instruction: 0x03b10100
    11f4:	000001e5 	andeq	r0, r0, r5, ror #3
    11f8:	00029e0f 	andeq	r9, r2, pc, lsl #28
    11fc:	04d51000 	ldrbeq	r1, [r5], #0
    1200:	01200000 			; <UNDEFINED> instruction: 0x01200000
    1204:	032510bc 			; <UNDEFINED> instruction: 0x032510bc
    1208:	a9110000 	ldmdbge	r1, {}	; <UNPREDICTABLE>
    120c:	01000004 	tsteq	r0, r4
    1210:	01d40dbd 	ldrheq	r0, [r4, #221]	; 0xdd
    1214:	11000000 	mrsne	r0, (UNDEF: 0)
    1218:	0000059a 	muleq	r0, sl, r5
    121c:	9e0dbe01 	cdpls	14, 0, cr11, cr13, cr1, {0}
    1220:	04000002 	streq	r0, [r0], #-2
    1224:	00043c11 	andeq	r3, r4, r1, lsl ip
    1228:	0bc10100 	bleq	ff041630 <__bss_end__+0xff036a98>
    122c:	0000006e 	andeq	r0, r0, lr, rrx
    1230:	01d71108 	bicseq	r1, r7, r8, lsl #2
    1234:	ca010000 	bgt	4123c <__bss_end__+0x366a4>
    1238:	00006e0c 	andeq	r6, r0, ip, lsl #28
    123c:	a4110c00 	ldrge	r0, [r1], #-3072	; 0xfffff400
    1240:	01000004 	tsteq	r0, r4
    1244:	006e0bcc 	rsbeq	r0, lr, ip, asr #23
    1248:	11100000 	tstne	r0, r0
    124c:	00000465 	andeq	r0, r0, r5, ror #8
    1250:	6e0bce01 	cdpvs	14, 0, cr12, cr11, cr1, {0}
    1254:	14000000 	strne	r0, [r0], #-0
    1258:	0005a111 	andeq	sl, r5, r1, lsl r1
    125c:	0bd00100 	bleq	ff401664 <__bss_end__+0xff3f6acc>
    1260:	0000006e 	andeq	r0, r0, lr, rrx
    1264:	03901118 	orrseq	r1, r0, #6
    1268:	d2010000 	andle	r0, r1, #0, 0
    126c:	00006e0b 	andeq	r6, r0, fp, lsl #28
    1270:	05001c00 	streq	r1, [r0, #-3072]	; 0xfffff400
    1274:	000004d5 	ldrdeq	r0, [r0], -r5
    1278:	af03d301 	svcge	0x0003d301
    127c:	0f000002 	svceq	0x00000002
    1280:	00000325 	andeq	r0, r0, r5, lsr #6
    1284:	63326912 	teqvs	r2, #294912	; 0x48000
    1288:	1ad70100 	bne	ff5c1690 <__bss_end__+0xff5b6af8>
    128c:	00000342 	andeq	r0, r0, r2, asr #6
    1290:	03310409 	teqeq	r1, #150994944	; 0x9000000
    1294:	7c130000 	ldcvc	0, cr0, [r3], {-0}
    1298:	01000003 	tsteq	r0, r3
    129c:	250c017e 	strcs	r0, [ip, #-382]	; 0xfffffe82
    12a0:	05000000 	streq	r0, [r0, #-0]
    12a4:	00a78c03 	adceq	r8, r7, r3, lsl #24
    12a8:	04581400 	ldrbeq	r1, [r8], #-1024	; 0xfffffc00
    12ac:	b1010000 	mrslt	r0, (UNDEF: 1)
    12b0:	86a80d01 	strthi	r0, [r8], r1, lsl #26
    12b4:	00080000 	andeq	r0, r8, r0
    12b8:	9c010000 	stcls	0, cr0, [r1], {-0}
    12bc:	00000a62 	andeq	r0, r0, r2, ror #20
    12c0:	00012215 	andeq	r2, r1, r5, lsl r2
    12c4:	000a7200 	andeq	r7, sl, r0, lsl #4
    12c8:	88030500 	stmdahi	r3, {r8, sl}
    12cc:	160000a5 	strne	r0, [r0], -r5, lsr #1
    12d0:	000086ac 	andeq	r8, r0, ip, lsr #13
    12d4:	00000000 	andeq	r0, r0, r0
    12d8:	000003e8 	andeq	r0, r0, r8, ror #7
    12dc:	00755f17 	rsbseq	r5, r5, r7, lsl pc
    12e0:	01bc0104 			; <UNDEFINED> instruction: 0x01bc0104
    12e4:	0003b202 	andeq	fp, r3, r2, lsl #4
    12e8:	00731800 	rsbseq	r1, r3, r0, lsl #16
    12ec:	0201bc01 	andeq	fp, r1, #256	; 0x100
    12f0:	000001d4 	ldrdeq	r0, [r0], -r4
    12f4:	01007518 	tsteq	r0, r8, lsl r5
    12f8:	2c0201bc 	stfcss	f0, [r2], {188}	; 0xbc
    12fc:	00000000 	andeq	r0, r0, r0
    1300:	01007819 	tsteq	r0, r9, lsl r8
    1304:	8e0201bc 	mcrhi	1, 0, r0, cr2, cr12, {5}
    1308:	1a000003 	bne	131c <__code_start__-0x6ce4>
    130c:	00707865 	rsbseq	r7, r0, r5, ror #16
    1310:	0201bc01 	andeq	fp, r1, #256	; 0x100
    1314:	0000002c 	andeq	r0, r0, ip, lsr #32
    1318:	04521b01 	ldrbeq	r1, [r2], #-2817	; 0xfffff4ff
    131c:	bc010000 	stclt	0, cr0, [r1], {-0}
    1320:	002c0201 	eoreq	r0, ip, r1, lsl #4
    1324:	1b1f0000 	blne	7c132c <__bss_end__+0x7b6794>
    1328:	00000374 	andeq	r0, r0, r4, ror r3
    132c:	0201bc01 	andeq	fp, r1, #256	; 0x100
    1330:	0000002c 	andeq	r0, r0, ip, lsr #32
    1334:	ac160001 	ldcge	0, cr0, [r6], {1}
    1338:	00000086 	andeq	r0, r0, r6, lsl #1
    133c:	58000000 	stmdapl	r0, {}	; <UNPREDICTABLE>
    1340:	17000004 	strne	r0, [r0, -r4]
    1344:	0400755f 	streq	r7, [r0], #-1375	; 0xfffffaa1
    1348:	0201bd01 	andeq	fp, r1, #64	; 0x40
    134c:	00000419 	andeq	r0, r0, r9, lsl r4
    1350:	01007318 	tsteq	r0, r8, lsl r3
    1354:	d40201bd 	strle	r0, [r2], #-445	; 0xfffffe43
    1358:	18000001 	stmdane	r0, {r0}
    135c:	bd010075 	stclt	0, cr0, [r1, #-468]	; 0xfffffe2c
    1360:	002c0201 	eoreq	r0, ip, r1, lsl #4
    1364:	1c000000 	stcne	0, cr0, [r0], {-0}
    1368:	bd010078 	stclt	0, cr0, [r1, #-480]	; 0xfffffe20
    136c:	03f50201 	mvnseq	r0, #268435456	; 0x10000000
    1370:	53010000 	movwpl	r0, #4096	; 0x1000
    1374:	7078651d 	rsbsvc	r6, r8, sp, lsl r5
    1378:	01bd0100 			; <UNDEFINED> instruction: 0x01bd0100
    137c:	00002c02 	andeq	r2, r0, r2, lsl #24
    1380:	00092400 	andeq	r2, r9, r0, lsl #8
    1384:	00092000 	andeq	r2, r9, r0
    1388:	04521b00 	ldrbeq	r1, [r2], #-2816	; 0xfffff500
    138c:	bd010000 	stclt	0, cr0, [r1, #-0]
    1390:	002c0201 	eoreq	r0, ip, r1, lsl #4
    1394:	1b1e0000 	blne	78139c <__bss_end__+0x776804>
    1398:	00000374 	andeq	r0, r0, r4, ror r3
    139c:	0201bd01 	andeq	fp, r1, #64	; 0x40
    13a0:	0000002c 	andeq	r0, r0, ip, lsr #32
    13a4:	ac160003 	ldcge	0, cr0, [r6], {3}
    13a8:	00000086 	andeq	r0, r0, r6, lsl #1
    13ac:	bf000000 	svclt	0x00000000
    13b0:	17000004 	strne	r0, [r0, -r4]
    13b4:	0400755f 	streq	r7, [r0], #-1375	; 0xfffffaa1
    13b8:	0201be01 	andeq	fp, r1, #1, 28
    13bc:	00000489 	andeq	r0, r0, r9, lsl #9
    13c0:	01007318 	tsteq	r0, r8, lsl r3
    13c4:	d40201be 	strle	r0, [r2], #-446	; 0xfffffe42
    13c8:	18000001 	stmdane	r0, {r0}
    13cc:	be010075 	mcrlt	0, 0, r0, cr1, cr5, {3}
    13d0:	002c0201 	eoreq	r0, ip, r1, lsl #4
    13d4:	19000000 	stmdbne	r0, {}	; <UNPREDICTABLE>
    13d8:	be010078 	mcrlt	0, 0, r0, cr1, cr8, {3}
    13dc:	04650201 	strbteq	r0, [r5], #-513	; 0xfffffdff
    13e0:	651a0000 	ldrvs	r0, [sl, #-0]
    13e4:	01007078 	tsteq	r0, r8, ror r0
    13e8:	2c0201be 	stfcss	f0, [r2], {190}	; 0xbe
    13ec:	80000000 	andhi	r0, r0, r0
    13f0:	0004521b 	andeq	r5, r4, fp, lsl r2
    13f4:	01be0100 			; <UNDEFINED> instruction: 0x01be0100
    13f8:	00002c02 	andeq	r2, r0, r2, lsl #24
    13fc:	741b1f00 	ldrvc	r1, [fp], #-3840	; 0xfffff100
    1400:	01000003 	tsteq	r0, r3
    1404:	2c0201be 	stfcss	f0, [r2], {190}	; 0xbe
    1408:	01000000 	mrseq	r0, (UNDEF: 0)
    140c:	86ac1600 	strthi	r1, [ip], r0, lsl #12
    1410:	00000000 	andeq	r0, r0, r0
    1414:	05270000 	streq	r0, [r7, #-0]!
    1418:	5f170000 	svcpl	0x00170000
    141c:	01040075 	tsteq	r4, r5, ror r0
    1420:	f00201bf 			; <UNDEFINED> instruction: 0xf00201bf
    1424:	18000004 	stmdane	r0, {r2}
    1428:	bf010073 	svclt	0x00010073
    142c:	01d40201 	bicseq	r0, r4, r1, lsl #4
    1430:	75180000 	ldrvc	r0, [r8, #-0]
    1434:	01bf0100 			; <UNDEFINED> instruction: 0x01bf0100
    1438:	00002c02 	andeq	r2, r0, r2, lsl #24
    143c:	78190000 	ldmdavc	r9, {}	; <UNPREDICTABLE>
    1440:	01bf0100 			; <UNDEFINED> instruction: 0x01bf0100
    1444:	0004cc02 	andeq	ip, r4, r2, lsl #24
    1448:	78651e00 	stmdavc	r5!, {r9, sl, fp, ip}^
    144c:	bf010070 	svclt	0x00010070
    1450:	002c0201 	eoreq	r0, ip, r1, lsl #4
    1454:	01000000 	mrseq	r0, (UNDEF: 0)
    1458:	0004521b 	andeq	r5, r4, fp, lsl r2
    145c:	01bf0100 			; <UNDEFINED> instruction: 0x01bf0100
    1460:	00002c02 	andeq	r2, r0, r2, lsl #24
    1464:	741b1f00 	ldrvc	r1, [fp], #-3840	; 0xfffff100
    1468:	01000003 	tsteq	r0, r3
    146c:	2c0201bf 	stfcss	f0, [r2], {191}	; 0xbf
    1470:	01000000 	mrseq	r0, (UNDEF: 0)
    1474:	86ac1600 	strthi	r1, [ip], r0, lsl #12
    1478:	00000000 	andeq	r0, r0, r0
    147c:	058f0000 	streq	r0, [pc]	; 1484 <__code_start__-0x6b7c>
    1480:	5f170000 	svcpl	0x00170000
    1484:	01040075 	tsteq	r4, r5, ror r0
    1488:	580201c0 	stmdapl	r2, {r6, r7, r8}
    148c:	18000005 	stmdane	r0, {r0, r2}
    1490:	c0010073 	andgt	r0, r1, r3, ror r0
    1494:	01d40201 	bicseq	r0, r4, r1, lsl #4
    1498:	75180000 	ldrvc	r0, [r8, #-0]
    149c:	01c00100 	biceq	r0, r0, r0, lsl #2
    14a0:	00002c02 	andeq	r2, r0, r2, lsl #24
    14a4:	78190000 	ldmdavc	r9, {}	; <UNPREDICTABLE>
    14a8:	01c00100 	biceq	r0, r0, r0, lsl #2
    14ac:	00053402 	andeq	r3, r5, r2, lsl #8
    14b0:	78651e00 	stmdavc	r5!, {r9, sl, fp, ip}^
    14b4:	c0010070 	andgt	r0, r1, r0, ror r0
    14b8:	002c0201 	eoreq	r0, ip, r1, lsl #4
    14bc:	02000000 	andeq	r0, r0, #0, 0
    14c0:	0004521b 	andeq	r5, r4, fp, lsl r2
    14c4:	01c00100 	biceq	r0, r0, r0, lsl #2
    14c8:	00002c02 	andeq	r2, r0, r2, lsl #24
    14cc:	741b1f00 	ldrvc	r1, [fp], #-3840	; 0xfffff100
    14d0:	01000003 	tsteq	r0, r3
    14d4:	2c0201c0 	stfcss	f0, [r2], {192}	; 0xc0
    14d8:	01000000 	mrseq	r0, (UNDEF: 0)
    14dc:	86ac1600 	strthi	r1, [ip], r0, lsl #12
    14e0:	00000000 	andeq	r0, r0, r0
    14e4:	05f70000 	ldrbeq	r0, [r7, #0]!
    14e8:	5f170000 	svcpl	0x00170000
    14ec:	01040075 	tsteq	r4, r5, ror r0
    14f0:	c00201c1 	andgt	r0, r2, r1, asr #3
    14f4:	18000005 	stmdane	r0, {r0, r2}
    14f8:	c1010073 	tstgt	r1, r3, ror r0
    14fc:	01d40201 	bicseq	r0, r4, r1, lsl #4
    1500:	75180000 	ldrvc	r0, [r8, #-0]
    1504:	01c10100 	biceq	r0, r1, r0, lsl #2
    1508:	00002c02 	andeq	r2, r0, r2, lsl #24
    150c:	78190000 	ldmdavc	r9, {}	; <UNPREDICTABLE>
    1510:	01c10100 	biceq	r0, r1, r0, lsl #2
    1514:	00059c02 	andeq	r9, r5, r2, lsl #24
    1518:	78651e00 	stmdavc	r5!, {r9, sl, fp, ip}^
    151c:	c1010070 	tstgt	r1, r0, ror r0
    1520:	002c0201 	eoreq	r0, ip, r1, lsl #4
    1524:	04000000 	streq	r0, [r0], #-0
    1528:	0004521b 	andeq	r5, r4, fp, lsl r2
    152c:	01c10100 	biceq	r0, r1, r0, lsl #2
    1530:	00002c02 	andeq	r2, r0, r2, lsl #24
    1534:	741b1f00 	ldrvc	r1, [fp], #-3840	; 0xfffff100
    1538:	01000003 	tsteq	r0, r3
    153c:	2c0201c1 	stfcss	f0, [r2], {193}	; 0xc1
    1540:	01000000 	mrseq	r0, (UNDEF: 0)
    1544:	86ac1600 	strthi	r1, [ip], r0, lsl #12
    1548:	00000000 	andeq	r0, r0, r0
    154c:	065f0000 	ldrbeq	r0, [pc], -r0
    1550:	5f170000 	svcpl	0x00170000
    1554:	01040075 	tsteq	r4, r5, ror r0
    1558:	280201c2 	stmdacs	r2, {r1, r6, r7, r8}
    155c:	18000006 	stmdane	r0, {r1, r2}
    1560:	c2010073 	andgt	r0, r1, #115, 0	; 0x73
    1564:	01d40201 	bicseq	r0, r4, r1, lsl #4
    1568:	75180000 	ldrvc	r0, [r8, #-0]
    156c:	01c20100 	biceq	r0, r2, r0, lsl #2
    1570:	00002c02 	andeq	r2, r0, r2, lsl #24
    1574:	78190000 	ldmdavc	r9, {}	; <UNPREDICTABLE>
    1578:	01c20100 	biceq	r0, r2, r0, lsl #2
    157c:	00060402 	andeq	r0, r6, r2, lsl #8
    1580:	78651e00 	stmdavc	r5!, {r9, sl, fp, ip}^
    1584:	c2010070 	andgt	r0, r1, #112, 0	; 0x70
    1588:	002c0201 	eoreq	r0, ip, r1, lsl #4
    158c:	80000000 	andhi	r0, r0, r0
    1590:	0004521b 	andeq	r5, r4, fp, lsl r2
    1594:	01c20100 	biceq	r0, r2, r0, lsl #2
    1598:	00002c02 	andeq	r2, r0, r2, lsl #24
    159c:	741b1f00 	ldrvc	r1, [fp], #-3840	; 0xfffff100
    15a0:	01000003 	tsteq	r0, r3
    15a4:	2c0201c2 	stfcss	f0, [r2], {194}	; 0xc2
    15a8:	01000000 	mrseq	r0, (UNDEF: 0)
    15ac:	86ac1600 	strthi	r1, [ip], r0, lsl #12
    15b0:	00000000 	andeq	r0, r0, r0
    15b4:	06c60000 	strbeq	r0, [r6], r0
    15b8:	5f170000 	svcpl	0x00170000
    15bc:	01040075 	tsteq	r4, r5, ror r0
    15c0:	900201c5 	andls	r0, r2, r5, asr #3
    15c4:	18000006 	stmdane	r0, {r1, r2}
    15c8:	c5010073 	strgt	r0, [r1, #-115]	; 0xffffff8d
    15cc:	029e0201 	addseq	r0, lr, #268435456	; 0x10000000
    15d0:	75180000 	ldrvc	r0, [r8, #-0]
    15d4:	01c50100 	biceq	r0, r5, r0, lsl #2
    15d8:	00002c02 	andeq	r2, r0, r2, lsl #24
    15dc:	78190000 	ldmdavc	r9, {}	; <UNPREDICTABLE>
    15e0:	01c50100 	biceq	r0, r5, r0, lsl #2
    15e4:	00066c02 	andeq	r6, r6, r2, lsl #24
    15e8:	78651a00 	stmdavc	r5!, {r9, fp, ip}^
    15ec:	c5010070 	strgt	r0, [r1, #-112]	; 0xffffff90
    15f0:	002c0201 	eoreq	r0, ip, r1, lsl #4
    15f4:	1b010000 	blne	415fc <__bss_end__+0x36a64>
    15f8:	00000452 	andeq	r0, r0, r2, asr r4
    15fc:	0201c501 	andeq	ip, r1, #4194304	; 0x400000
    1600:	0000002c 	andeq	r0, r0, ip, lsr #32
    1604:	03741b1f 	cmneq	r4, #31744	; 0x7c00
    1608:	c5010000 	strgt	r0, [r1, #-0]
    160c:	002c0201 	eoreq	r0, ip, r1, lsl #4
    1610:	00010000 	andeq	r0, r1, r0
    1614:	0086ac16 	addeq	sl, r6, r6, lsl ip
    1618:	00000000 	andeq	r0, r0, r0
    161c:	00072d00 	andeq	r2, r7, r0, lsl #26
    1620:	755f1700 	ldrbvc	r1, [pc, #-1792]	; f28 <__code_start__-0x70d8>
    1624:	c6010400 	strgt	r0, [r1], -r0, lsl #8
    1628:	06f70201 	ldrbteq	r0, [r7], r1, lsl #4
    162c:	73180000 	tstvc	r8, #0, 0
    1630:	01c60100 	biceq	r0, r6, r0, lsl #2
    1634:	00029e02 	andeq	r9, r2, r2, lsl #28
    1638:	00751800 	rsbseq	r1, r5, r0, lsl #16
    163c:	0201c601 	andeq	ip, r1, #1048576	; 0x100000
    1640:	0000002c 	andeq	r0, r0, ip, lsr #32
    1644:	00781900 	rsbseq	r1, r8, r0, lsl #18
    1648:	0201c601 	andeq	ip, r1, #1048576	; 0x100000
    164c:	000006d3 	ldrdeq	r0, [r0], -r3
    1650:	7078651a 	rsbsvc	r6, r8, sl, lsl r5
    1654:	01c60100 	biceq	r0, r6, r0, lsl #2
    1658:	00002c02 	andeq	r2, r0, r2, lsl #24
    165c:	521b0200 	andspl	r0, fp, #0, 4
    1660:	01000004 	tsteq	r0, r4
    1664:	2c0201c6 	stfcss	f0, [r2], {198}	; 0xc6
    1668:	1f000000 	svcne	0x00000000
    166c:	0003741b 	andeq	r7, r3, fp, lsl r4
    1670:	01c60100 	biceq	r0, r6, r0, lsl #2
    1674:	00002c02 	andeq	r2, r0, r2, lsl #24
    1678:	16000100 	strne	r0, [r0], -r0, lsl #2
    167c:	000086ac 	andeq	r8, r0, ip, lsr #13
    1680:	00000000 	andeq	r0, r0, r0
    1684:	00000794 	muleq	r0, r4, r7
    1688:	00755f17 	rsbseq	r5, r5, r7, lsl pc
    168c:	01c70104 	biceq	r0, r7, r4, lsl #2
    1690:	00075e02 	andeq	r5, r7, r2, lsl #28
    1694:	00731800 	rsbseq	r1, r3, r0, lsl #16
    1698:	0201c701 	andeq	ip, r1, #262144	; 0x40000
    169c:	0000029e 	muleq	r0, lr, r2
    16a0:	01007518 	tsteq	r0, r8, lsl r5
    16a4:	2c0201c7 	stfcss	f0, [r2], {199}	; 0xc7
    16a8:	00000000 	andeq	r0, r0, r0
    16ac:	01007819 	tsteq	r0, r9, lsl r8
    16b0:	3a0201c7 	bcc	81dd4 <__bss_end__+0x7723c>
    16b4:	1a000007 	bne	16d8 <__code_start__-0x6928>
    16b8:	00707865 	rsbseq	r7, r0, r5, ror #16
    16bc:	0201c701 	andeq	ip, r1, #262144	; 0x40000
    16c0:	0000002c 	andeq	r0, r0, ip, lsr #32
    16c4:	04521b04 	ldrbeq	r1, [r2], #-2820	; 0xfffff4fc
    16c8:	c7010000 	strgt	r0, [r1, -r0]
    16cc:	002c0201 	eoreq	r0, ip, r1, lsl #4
    16d0:	1b1f0000 	blne	7c16d8 <__bss_end__+0x7b6b40>
    16d4:	00000374 	andeq	r0, r0, r4, ror r3
    16d8:	0201c701 	andeq	ip, r1, #262144	; 0x40000
    16dc:	0000002c 	andeq	r0, r0, ip, lsr #32
    16e0:	ac160001 	ldcge	0, cr0, [r6], {1}
    16e4:	00000086 	andeq	r0, r0, r6, lsl #1
    16e8:	fb000000 	blx	16f2 <__code_start__-0x690e>
    16ec:	17000007 	strne	r0, [r0, -r7]
    16f0:	0400755f 	streq	r7, [r0], #-1375	; 0xfffffaa1
    16f4:	0201c801 	andeq	ip, r1, #65536	; 0x10000
    16f8:	000007c5 	andeq	r0, r0, r5, asr #15
    16fc:	01007318 	tsteq	r0, r8, lsl r3
    1700:	9e0201c8 	adflsdm	f0, f2, #0.0
    1704:	18000002 	stmdane	r0, {r1}
    1708:	c8010075 	stmdagt	r1, {r0, r2, r4, r5, r6}
    170c:	002c0201 	eoreq	r0, ip, r1, lsl #4
    1710:	19000000 	stmdbne	r0, {}	; <UNPREDICTABLE>
    1714:	c8010078 	stmdagt	r1, {r3, r4, r5, r6}
    1718:	07a10201 	streq	r0, [r1, r1, lsl #4]!
    171c:	651a0000 	ldrvs	r0, [sl, #-0]
    1720:	01007078 	tsteq	r0, r8, ror r0
    1724:	2c0201c8 	stfcss	f0, [r2], {200}	; 0xc8
    1728:	08000000 	stmdaeq	r0, {}	; <UNPREDICTABLE>
    172c:	0004521b 	andeq	r5, r4, fp, lsl r2
    1730:	01c80100 	biceq	r0, r8, r0, lsl #2
    1734:	00002c02 	andeq	r2, r0, r2, lsl #24
    1738:	741b1f00 	ldrvc	r1, [fp], #-3840	; 0xfffff100
    173c:	01000003 	tsteq	r0, r3
    1740:	2c0201c8 	stfcss	f0, [r2], {200}	; 0xc8
    1744:	01000000 	mrseq	r0, (UNDEF: 0)
    1748:	86ac1600 	strthi	r1, [ip], r0, lsl #12
    174c:	00000000 	andeq	r0, r0, r0
    1750:	08620000 	stmdaeq	r2!, {}^	; <UNPREDICTABLE>
    1754:	5f170000 	svcpl	0x00170000
    1758:	01040075 	tsteq	r4, r5, ror r0
    175c:	2c0201c9 	stfcss	f0, [r2], {201}	; 0xc9
    1760:	18000008 	stmdane	r0, {r3}
    1764:	c9010073 	stmdbgt	r1, {r0, r1, r4, r5, r6}
    1768:	029e0201 	addseq	r0, lr, #268435456	; 0x10000000
    176c:	75180000 	ldrvc	r0, [r8, #-0]
    1770:	01c90100 	biceq	r0, r9, r0, lsl #2
    1774:	00002c02 	andeq	r2, r0, r2, lsl #24
    1778:	78190000 	ldmdavc	r9, {}	; <UNPREDICTABLE>
    177c:	01c90100 	biceq	r0, r9, r0, lsl #2
    1780:	00080802 	andeq	r0, r8, r2, lsl #16
    1784:	78651a00 	stmdavc	r5!, {r9, fp, ip}^
    1788:	c9010070 	stmdbgt	r1, {r4, r5, r6}
    178c:	002c0201 	eoreq	r0, ip, r1, lsl #4
    1790:	1b100000 	blne	401798 <__bss_end__+0x3f6c00>
    1794:	00000452 	andeq	r0, r0, r2, asr r4
    1798:	0201c901 	andeq	ip, r1, #16384	; 0x4000
    179c:	0000002c 	andeq	r0, r0, ip, lsr #32
    17a0:	03741b1f 	cmneq	r4, #31744	; 0x7c00
    17a4:	c9010000 	stmdbgt	r1, {}	; <UNPREDICTABLE>
    17a8:	002c0201 	eoreq	r0, ip, r1, lsl #4
    17ac:	00010000 	andeq	r0, r1, r0
    17b0:	0086ac16 	addeq	sl, r6, r6, lsl ip
    17b4:	00000000 	andeq	r0, r0, r0
    17b8:	0008c900 	andeq	ip, r8, r0, lsl #18
    17bc:	755f1700 	ldrbvc	r1, [pc, #-1792]	; 10c4 <__code_start__-0x6f3c>
    17c0:	ca010400 	bgt	427c8 <__bss_end__+0x37c30>
    17c4:	08930201 	ldmeq	r3, {r0, r9}
    17c8:	73180000 	tstvc	r8, #0, 0
    17cc:	01ca0100 	biceq	r0, sl, r0, lsl #2
    17d0:	00029e02 	andeq	r9, r2, r2, lsl #28
    17d4:	00751800 	rsbseq	r1, r5, r0, lsl #16
    17d8:	0201ca01 	andeq	ip, r1, #4096	; 0x1000
    17dc:	0000002c 	andeq	r0, r0, ip, lsr #32
    17e0:	00781900 	rsbseq	r1, r8, r0, lsl #18
    17e4:	0201ca01 	andeq	ip, r1, #4096	; 0x1000
    17e8:	0000086f 	andeq	r0, r0, pc, ror #16
    17ec:	7078651a 	rsbsvc	r6, r8, sl, lsl r5
    17f0:	01ca0100 	biceq	r0, sl, r0, lsl #2
    17f4:	00002c02 	andeq	r2, r0, r2, lsl #24
    17f8:	521b2000 	andspl	r2, fp, #0, 0
    17fc:	01000004 	tsteq	r0, r4
    1800:	2c0201ca 	stfcss	f0, [r2], {202}	; 0xca
    1804:	1f000000 	svcne	0x00000000
    1808:	0003741b 	andeq	r7, r3, fp, lsl r4
    180c:	01ca0100 	biceq	r0, sl, r0, lsl #2
    1810:	00002c02 	andeq	r2, r0, r2, lsl #24
    1814:	16000100 	strne	r0, [r0], -r0, lsl #2
    1818:	000086ac 	andeq	r8, r0, ip, lsr #13
    181c:	00000000 	andeq	r0, r0, r0
    1820:	00000930 	andeq	r0, r0, r0, lsr r9
    1824:	00755f17 	rsbseq	r5, r5, r7, lsl pc
    1828:	01cb0104 	biceq	r0, fp, r4, lsl #2
    182c:	0008fa02 	andeq	pc, r8, r2, lsl #20
    1830:	00731800 	rsbseq	r1, r3, r0, lsl #16
    1834:	0201cb01 	andeq	ip, r1, #1024	; 0x400
    1838:	0000029e 	muleq	r0, lr, r2
    183c:	01007518 	tsteq	r0, r8, lsl r5
    1840:	2c0201cb 	stfcss	f0, [r2], {203}	; 0xcb
    1844:	00000000 	andeq	r0, r0, r0
    1848:	01007819 	tsteq	r0, r9, lsl r8
    184c:	d60201cb 	strle	r0, [r2], -fp, asr #3
    1850:	1a000008 	bne	1878 <__code_start__-0x6788>
    1854:	00707865 	rsbseq	r7, r0, r5, ror #16
    1858:	0201cb01 	andeq	ip, r1, #1024	; 0x400
    185c:	0000002c 	andeq	r0, r0, ip, lsr #32
    1860:	04521b40 	ldrbeq	r1, [r2], #-2880	; 0xfffff4c0
    1864:	cb010000 	blgt	4186c <__bss_end__+0x36cd4>
    1868:	002c0201 	eoreq	r0, ip, r1, lsl #4
    186c:	1b1f0000 	blne	7c1874 <__bss_end__+0x7b6cdc>
    1870:	00000374 	andeq	r0, r0, r4, ror r3
    1874:	0201cb01 	andeq	ip, r1, #1024	; 0x400
    1878:	0000002c 	andeq	r0, r0, ip, lsr #32
    187c:	ac160001 	ldcge	0, cr0, [r6], {1}
    1880:	00000086 	andeq	r0, r0, r6, lsl #1
    1884:	97000000 	strls	r0, [r0, -r0]
    1888:	17000009 	strne	r0, [r0, -r9]
    188c:	0400755f 	streq	r7, [r0], #-1375	; 0xfffffaa1
    1890:	0201cc01 	andeq	ip, r1, #256	; 0x100
    1894:	00000961 	andeq	r0, r0, r1, ror #18
    1898:	01007318 	tsteq	r0, r8, lsl r3
    189c:	9e0201cc 	adflsdm	f0, f2, #4.0
    18a0:	18000002 	stmdane	r0, {r1}
    18a4:	cc010075 	stcgt	0, cr0, [r1], {117}	; 0x75
    18a8:	002c0201 	eoreq	r0, ip, r1, lsl #4
    18ac:	19000000 	stmdbne	r0, {}	; <UNPREDICTABLE>
    18b0:	cc010078 	stcgt	0, cr0, [r1], {120}	; 0x78
    18b4:	093d0201 	ldmdbeq	sp!, {r0, r9}
    18b8:	651a0000 	ldrvs	r0, [sl, #-0]
    18bc:	01007078 	tsteq	r0, r8, ror r0
    18c0:	2c0201cc 	stfcss	f0, [r2], {204}	; 0xcc
    18c4:	80000000 	andhi	r0, r0, r0
    18c8:	0004521b 	andeq	r5, r4, fp, lsl r2
    18cc:	01cc0100 	biceq	r0, ip, r0, lsl #2
    18d0:	00002c02 	andeq	r2, r0, r2, lsl #24
    18d4:	741b1f00 	ldrvc	r1, [fp], #-3840	; 0xfffff100
    18d8:	01000003 	tsteq	r0, r3
    18dc:	2c0201cc 	stfcss	f0, [r2], {204}	; 0xcc
    18e0:	01000000 	mrseq	r0, (UNDEF: 0)
    18e4:	86ac1600 	strthi	r1, [ip], r0, lsl #12
    18e8:	00000000 	andeq	r0, r0, r0
    18ec:	09ff0000 	ldmibeq	pc!, {}^	; <UNPREDICTABLE>
    18f0:	5f170000 	svcpl	0x00170000
    18f4:	01040075 	tsteq	r4, r5, ror r0
    18f8:	c80201cd 	stmdagt	r2, {r0, r2, r3, r6, r7, r8}
    18fc:	18000009 	stmdane	r0, {r0, r3}
    1900:	cd010073 	stcgt	0, cr0, [r1, #-460]	; 0xfffffe34
    1904:	029e0201 	addseq	r0, lr, #268435456	; 0x10000000
    1908:	75180000 	ldrvc	r0, [r8, #-0]
    190c:	01cd0100 	biceq	r0, sp, r0, lsl #2
    1910:	00002c02 	andeq	r2, r0, r2, lsl #24
    1914:	78190000 	ldmdavc	r9, {}	; <UNPREDICTABLE>
    1918:	01cd0100 	biceq	r0, sp, r0, lsl #2
    191c:	0009a402 	andeq	sl, r9, r2, lsl #8
    1920:	78651e00 	stmdavc	r5!, {r9, sl, fp, ip}^
    1924:	cd010070 	stcgt	0, cr0, [r1, #-448]	; 0xfffffe40
    1928:	002c0201 	eoreq	r0, ip, r1, lsl #4
    192c:	01000000 	mrseq	r0, (UNDEF: 0)
    1930:	0004521b 	andeq	r5, r4, fp, lsl r2
    1934:	01cd0100 	biceq	r0, sp, r0, lsl #2
    1938:	00002c02 	andeq	r2, r0, r2, lsl #24
    193c:	741b1f00 	ldrvc	r1, [fp], #-3840	; 0xfffff100
    1940:	01000003 	tsteq	r0, r3
    1944:	2c0201cd 	stfcss	f0, [r2], {205}	; 0xcd
    1948:	01000000 	mrseq	r0, (UNDEF: 0)
    194c:	86ac1f00 	strthi	r1, [ip], r0, lsl #30
    1950:	00000000 	andeq	r0, r0, r0
    1954:	5f170000 	svcpl	0x00170000
    1958:	01040075 	tsteq	r4, r5, ror r0
    195c:	2c0201ce 	stfcss	f0, [r2], {206}	; 0xce
    1960:	1800000a 	stmdane	r0, {r1, r3}
    1964:	ce010073 	mcrgt	0, 0, r0, cr1, cr3, {3}
    1968:	029e0201 	addseq	r0, lr, #268435456	; 0x10000000
    196c:	75180000 	ldrvc	r0, [r8, #-0]
    1970:	01ce0100 	biceq	r0, lr, r0, lsl #2
    1974:	00002c02 	andeq	r2, r0, r2, lsl #24
    1978:	78190000 	ldmdavc	r9, {}	; <UNPREDICTABLE>
    197c:	01ce0100 	biceq	r0, lr, r0, lsl #2
    1980:	000a0802 	andeq	r0, sl, r2, lsl #16
    1984:	78651e00 	stmdavc	r5!, {r9, sl, fp, ip}^
    1988:	ce010070 	mcrgt	0, 0, r0, cr1, cr0, {3}
    198c:	002c0201 	eoreq	r0, ip, r1, lsl #4
    1990:	02000000 	andeq	r0, r0, #0, 0
    1994:	00045220 	andeq	r5, r4, r0, lsr #4
    1998:	01ce0100 	biceq	r0, lr, r0, lsl #2
    199c:	00002c02 	andeq	r2, r0, r2, lsl #24
    19a0:	03742000 	cmneq	r4, #0, 0
    19a4:	ce010000 	cdpgt	0, 0, cr0, cr1, cr0, {0}
    19a8:	002c0201 	eoreq	r0, ip, r1, lsl #4
    19ac:	00000000 	andeq	r0, r0, r0
    19b0:	0000c521 	andeq	ip, r0, r1, lsr #10
    19b4:	000a7200 	andeq	r7, sl, r0, lsl #4
    19b8:	002c2200 	eoreq	r2, ip, r0, lsl #4
    19bc:	000c0000 	andeq	r0, ip, r0
    19c0:	000a6204 	andeq	r6, sl, r4, lsl #4
    19c4:	00002300 	andeq	r2, r0, r0, lsl #6
    19c8:	8d010000 	stchi	0, cr0, [r1, #-0]
    19cc:	8ea00601 	cdphi	6, 10, cr0, cr0, cr1, {0}
    19d0:	00a40000 	adceq	r0, r4, r0
    19d4:	9c010000 	stcls	0, cr0, [r1], {-0}
    19d8:	00000c05 	andeq	r0, r0, r5, lsl #24
    19dc:	4144531a 	cmpmi	r4, sl, lsl r3
    19e0:	01950100 	orrseq	r0, r5, r0, lsl #2
    19e4:	00003312 	andeq	r3, r0, r2, lsl r3
    19e8:	531a0200 	tstpl	sl, #0, 4
    19ec:	01004c43 	tsteq	r0, r3, asr #24
    19f0:	33120196 	tstcc	r2, #-2147483611	; 0x80000025
    19f4:	03000000 	movweq	r0, #0
    19f8:	01006319 	tsteq	r0, r9, lsl r3
    19fc:	d40e019f 	strle	r0, [lr], #-415	; 0xfffffe61
    1a00:	15000001 	strne	r0, [r0, #-1]
    1a04:	00000122 	andeq	r0, r0, r2, lsr #2
    1a08:	00000c15 	andeq	r0, r0, r5, lsl ip
    1a0c:	a5ec0305 	strbge	r0, [ip, #773]!	; 0x305
    1a10:	cc160000 	ldcgt	0, cr0, [r6], {-0}
    1a14:	0000008e 	andeq	r0, r0, lr, lsl #1
    1a18:	01000000 	mrseq	r0, (UNDEF: 0)
    1a1c:	1700000b 	strne	r0, [r0, -fp]
    1a20:	0400755f 	streq	r7, [r0], #-1375	; 0xfffffaa1
    1a24:	12019f01 	andne	r9, r1, #1, 30
    1a28:	00000af5 	strdeq	r0, [r0], -r5
    1a2c:	01007618 	tsteq	r0, r8, lsl r6
    1a30:	d412019f 	ldrle	r0, [r2], #-415	; 0xfffffe61
    1a34:	18000001 	stmdane	r0, {r0}
    1a38:	9f010075 	svcls	0x00010075
    1a3c:	002c1201 	eoreq	r1, ip, r1, lsl #4
    1a40:	19000000 	stmdbne	r0, {}	; <UNPREDICTABLE>
    1a44:	9f010075 	svcls	0x00010075
    1a48:	0ad11201 	beq	ff446254 <__bss_end__+0xff43b6bc>
    1a4c:	16000000 	strne	r0, [r0], -r0
    1a50:	00008ed0 	ldrdeq	r8, [r0], -r0
    1a54:	00000000 	andeq	r0, r0, r0
    1a58:	00000b40 	andeq	r0, r0, r0, asr #22
    1a5c:	00755f17 	rsbseq	r5, r5, r7, lsl pc
    1a60:	01a10104 			; <UNDEFINED> instruction: 0x01a10104
    1a64:	000b3403 	andeq	r3, fp, r3, lsl #8
    1a68:	76761800 	ldrbtvc	r1, [r6], -r0, lsl #16
    1a6c:	01a10100 			; <UNDEFINED> instruction: 0x01a10100
    1a70:	0001d403 	andeq	sp, r1, r3, lsl #8
    1a74:	75751800 	ldrbvc	r1, [r5, #-2048]!	; 0xfffff800
    1a78:	01a10100 			; <UNDEFINED> instruction: 0x01a10100
    1a7c:	00006e03 	andeq	r6, r0, r3, lsl #28
    1a80:	75190000 	ldrvc	r0, [r9, #-0]
    1a84:	01a10100 			; <UNDEFINED> instruction: 0x01a10100
    1a88:	000b0e03 	andeq	r0, fp, r3, lsl #28
    1a8c:	ac240000 	stcge	0, cr0, [r4], #-0
    1a90:	5b00008e 	blpl	1cd0 <__code_start__-0x6330>
    1a94:	24000003 	strcs	r0, [r0], #-3
    1a98:	00008eb0 			; <UNDEFINED> instruction: 0x00008eb0
    1a9c:	0000199b 	muleq	r0, fp, r9
    1aa0:	008ebc25 	addeq	fp, lr, r5, lsr #24
    1aa4:	0019a700 	andseq	sl, r9, r0, lsl #14
    1aa8:	000b6a00 	andeq	r6, fp, r0, lsl #20
    1aac:	50012600 	andpl	r2, r1, r0, lsl #12
    1ab0:	01263201 			; <UNDEFINED> instruction: 0x01263201
    1ab4:	00340151 	eorseq	r0, r4, r1, asr r1
    1ab8:	008ec825 	addeq	ip, lr, r5, lsr #16
    1abc:	0019a700 	andseq	sl, r9, r0, lsl #14
    1ac0:	000b8200 	andeq	r8, fp, r0, lsl #4
    1ac4:	50012600 	andpl	r2, r1, r0, lsl #12
    1ac8:	01263301 			; <UNDEFINED> instruction: 0x01263301
    1acc:	00340151 	eorseq	r0, r4, r1, asr r1
    1ad0:	008ecc24 	addeq	ip, lr, r4, lsr #24
    1ad4:	00199b00 	andseq	r9, r9, r0, lsl #22
    1ad8:	8edc2500 	cdphi	5, 13, cr2, cr12, cr0, {0}
    1adc:	19b30000 	ldmibne	r3!, {}	; <UNPREDICTABLE>
    1ae0:	0ba60000 	bleq	fe981ae8 <__bss_end__+0xfe976f50>
    1ae4:	01260000 			; <UNDEFINED> instruction: 0x01260000
    1ae8:	00740250 	rsbseq	r0, r4, r0, asr r2
    1aec:	03510126 	cmpeq	r1, #-2147483639	; 0x80000009
    1af0:	0080000a 	addeq	r0, r0, sl
    1af4:	008ee024 	addeq	lr, lr, r4, lsr #32
    1af8:	00199b00 	andseq	r9, r9, r0, lsl #22
    1afc:	8ee42400 	cdphi	4, 14, cr2, cr4, cr0, {0}
    1b00:	17b50000 	ldrne	r0, [r5, r0]!
    1b04:	e8240000 	stmda	r4!, {}	; <UNPREDICTABLE>
    1b08:	9b00008e 	blls	1d48 <__code_start__-0x62b8>
    1b0c:	25000019 	strcs	r0, [r0, #-25]	; 0xffffffe7
    1b10:	00008f24 	andeq	r8, r0, r4, lsr #30
    1b14:	000019bf 			; <UNDEFINED> instruction: 0x000019bf
    1b18:	00000bfb 	strdeq	r0, [r0], -fp
    1b1c:	05500126 	ldrbeq	r0, [r0, #-294]	; 0xfffffeda
    1b20:	00a2a003 	adceq	sl, r2, r3
    1b24:	51012600 	tstpl	r1, r0, lsl #12
    1b28:	a3380305 	teqge	r8, #335544320	; 0x14000000
    1b2c:	01260000 			; <UNDEFINED> instruction: 0x01260000
    1b30:	ec030552 	cfstr32	mvfx0, [r3], {82}	; 0x52
    1b34:	260000a5 	strcs	r0, [r0], -r5, lsr #1
    1b38:	0a035301 	beq	d6744 <__bss_end__+0xcbbac>
    1b3c:	022601aa 	eoreq	r0, r6, #-2147483606	; 0x8000002a
    1b40:	0305007d 	movweq	r0, #20605	; 0x507d
    1b44:	0000a484 	andeq	sl, r0, r4, lsl #9
    1b48:	8f282400 	svchi	0x00282400
    1b4c:	19cb0000 	stmibne	fp, {}^	; <UNPREDICTABLE>
    1b50:	21000000 	mrscs	r0, (UNDEF: 0)
    1b54:	000000c5 	andeq	r0, r0, r5, asr #1
    1b58:	00000c15 	andeq	r0, r0, r5, lsl ip
    1b5c:	00002c22 	andeq	r2, r0, r2, lsr #24
    1b60:	04000800 	streq	r0, [r0], #-2048	; 0xfffff800
    1b64:	00000c05 	andeq	r0, r0, r5, lsl #24
    1b68:	00053323 	andeq	r3, r5, r3, lsr #6
    1b6c:	01830100 	orreq	r0, r3, r0, lsl #2
    1b70:	008f4406 	addeq	r4, pc, r6, lsl #8
    1b74:	00001800 	andeq	r1, r0, r0, lsl #16
    1b78:	449c0100 	ldrmi	r0, [ip], #256	; 0x100
    1b7c:	2400000c 	strcs	r0, [r0], #-12
    1b80:	00008f4c 	andeq	r8, r0, ip, asr #30
    1b84:	00000c44 	andeq	r0, r0, r4, asr #24
    1b88:	008f5824 	addeq	r5, pc, r4, lsr #16
    1b8c:	000a7700 	andeq	r7, sl, r0, lsl #14
    1b90:	f1270000 			; <UNDEFINED> instruction: 0xf1270000
    1b94:	01000004 	tsteq	r0, r4
    1b98:	25050180 	strcs	r0, [r5, #-384]	; 0xfffffe80
    1b9c:	90000000 	andls	r0, r0, r0
    1ba0:	1000008e 	andne	r0, r0, lr, lsl #1
    1ba4:	01000000 	mrseq	r0, (UNDEF: 0)
    1ba8:	04b1289c 	ldrteq	r2, [r1], #2204	; 0x89c
    1bac:	62010000 	andvs	r0, r1, #0, 0
    1bb0:	00540901 	subseq	r0, r4, r1, lsl #18
    1bb4:	8cd80000 	ldclhi	0, cr0, [r8], {0}
    1bb8:	01b80000 			; <UNDEFINED> instruction: 0x01b80000
    1bbc:	9c010000 	stcls	0, cr0, [r1], {-0}
    1bc0:	00000e80 	andeq	r0, r0, r0, lsl #29
    1bc4:	67657229 	strbvs	r7, [r5, -r9, lsr #4]!
    1bc8:	01620100 	cmneq	r2, r0, lsl #2
    1bcc:	00005423 	andeq	r5, r0, r3, lsr #8
    1bd0:	00094900 	andeq	r4, r9, r0, lsl #18
    1bd4:	00094500 	andeq	r4, r9, r0, lsl #10
    1bd8:	00762900 	rsbseq	r2, r6, r0, lsl #18
    1bdc:	30016201 	andcc	r6, r1, r1, lsl #4
    1be0:	00000054 	andeq	r0, r0, r4, asr r0
    1be4:	0000096e 	andeq	r0, r0, lr, ror #18
    1be8:	0000096a 	andeq	r0, r0, sl, ror #18
    1bec:	00012215 	andeq	r2, r1, r5, lsl r2
    1bf0:	000e9000 	andeq	r9, lr, r0
    1bf4:	d8030500 	stmdale	r3, {r8, sl}
    1bf8:	2a0000a5 	bcs	1e94 <__code_start__-0x616c>
    1bfc:	00000018 	andeq	r0, r0, r8, lsl r0
    1c00:	00000e46 	andeq	r0, r0, r6, asr #28
    1c04:	0004be2b 	andeq	fp, r4, fp, lsr #28
    1c08:	01630100 	cmneq	r3, r0, lsl #2
    1c0c:	00002c12 	andeq	r2, r0, r2, lsl ip
    1c10:	00099300 	andeq	r9, r9, r0, lsl #6
    1c14:	00098f00 	andeq	r8, r9, r0, lsl #30
    1c18:	8d002500 	cfstr32hi	mvfx2, [r0, #-0]
    1c1c:	0e950000 	cdpeq	0, 9, cr0, cr5, cr0, {0}
    1c20:	0ce90000 	stcleq	0, cr0, [r9]
    1c24:	01260000 			; <UNDEFINED> instruction: 0x01260000
    1c28:	00740250 	rsbseq	r0, r4, r0, asr r2
    1c2c:	01510126 	cmpeq	r1, r6, lsr #2
    1c30:	52012631 	andpl	r2, r1, #51380224	; 0x3100000
    1c34:	25003101 	strcs	r3, [r0, #-257]	; 0xfffffeff
    1c38:	00008d44 	andeq	r8, r0, r4, asr #26
    1c3c:	000019bf 			; <UNDEFINED> instruction: 0x000019bf
    1c40:	00000d19 	andeq	r0, r0, r9, lsl sp
    1c44:	05500126 	ldrbeq	r0, [r0, #-294]	; 0xfffffeda
    1c48:	00a45403 	adceq	r5, r4, r3, lsl #8
    1c4c:	51012600 	tstpl	r1, r0, lsl #12
    1c50:	a3380305 	teqge	r8, #335544320	; 0x14000000
    1c54:	01260000 			; <UNDEFINED> instruction: 0x01260000
    1c58:	d8030552 	stmdale	r3, {r1, r4, r6, r8, sl}
    1c5c:	260000a5 	strcs	r0, [r0], -r5, lsr #1
    1c60:	0a035301 	beq	d686c <__bss_end__+0xcbcd4>
    1c64:	24000167 	strcs	r0, [r0], #-359	; 0xfffffe99
    1c68:	00008d48 	andeq	r8, r0, r8, asr #26
    1c6c:	000019cb 	andeq	r1, r0, fp, asr #19
    1c70:	008d5c25 	addeq	r5, sp, r5, lsr #24
    1c74:	0019bf00 	andseq	fp, r9, r0, lsl #30
    1c78:	000d5200 	andeq	r5, sp, r0, lsl #4
    1c7c:	50012600 	andpl	r2, r1, r0, lsl #12
    1c80:	a4300305 	ldrtge	r0, [r0], #-773	; 0xfffffcfb
    1c84:	01260000 			; <UNDEFINED> instruction: 0x01260000
    1c88:	38030551 	stmdacc	r3, {r0, r4, r6, r8, sl}
    1c8c:	260000a3 	strcs	r0, [r0], -r3, lsr #1
    1c90:	03055201 	movweq	r5, #20993	; 0x5201
    1c94:	0000a5d8 	ldrdeq	sl, [r0], -r8
    1c98:	03530126 	cmpeq	r3, #-2147483639	; 0x80000009
    1c9c:	0001670a 	andeq	r6, r1, sl, lsl #14
    1ca0:	008d6024 	addeq	r6, sp, r4, lsr #32
    1ca4:	0019cb00 	andseq	ip, r9, r0, lsl #22
    1ca8:	8dac2500 	cfstr32hi	mvfx2, [ip]
    1cac:	19bf0000 	ldmibne	pc!, {}	; <UNPREDICTABLE>
    1cb0:	0d8b0000 	stceq	0, cr0, [fp]
    1cb4:	01260000 			; <UNDEFINED> instruction: 0x01260000
    1cb8:	54030550 	strpl	r0, [r3], #-1360	; 0xfffffab0
    1cbc:	260000a4 	strcs	r0, [r0], -r4, lsr #1
    1cc0:	03055101 	movweq	r5, #20737	; 0x5101
    1cc4:	0000a338 	andeq	sl, r0, r8, lsr r3
    1cc8:	05520126 	ldrbeq	r0, [r2, #-294]	; 0xfffffeda
    1ccc:	00a5d803 	adceq	sp, r5, r3, lsl #16
    1cd0:	53012600 	movwpl	r2, #5632	; 0x1600
    1cd4:	01690a03 	cmneq	r9, r3, lsl #20
    1cd8:	8db02400 	cfldrshi	mvf2, [r0]
    1cdc:	19cb0000 	stmibne	fp, {}^	; <UNPREDICTABLE>
    1ce0:	c4250000 	strtgt	r0, [r5], #-0
    1ce4:	bf00008d 	svclt	0x0000008d
    1ce8:	c4000019 	strgt	r0, [r0], #-25	; 0xffffffe7
    1cec:	2600000d 	strcs	r0, [r0], -sp
    1cf0:	03055001 	movweq	r5, #20481	; 0x5001
    1cf4:	0000a430 	andeq	sl, r0, r0, lsr r4
    1cf8:	05510126 	ldrbeq	r0, [r1, #-294]	; 0xfffffeda
    1cfc:	00a33803 	adceq	r3, r3, r3, lsl #16
    1d00:	52012600 	andpl	r2, r1, #0, 12
    1d04:	a5d80305 	ldrbge	r0, [r8, #773]	; 0x305
    1d08:	01260000 			; <UNDEFINED> instruction: 0x01260000
    1d0c:	690a0353 	stmdbvs	sl, {r0, r1, r4, r6, r8, r9}
    1d10:	c8240001 	stmdagt	r4!, {r0}
    1d14:	cb00008d 	blgt	1f50 <__code_start__-0x60b0>
    1d18:	25000019 	strcs	r0, [r0, #-25]	; 0xffffffe7
    1d1c:	00008e14 	andeq	r8, r0, r4, lsl lr
    1d20:	000019bf 			; <UNDEFINED> instruction: 0x000019bf
    1d24:	00000dfd 	strdeq	r0, [r0], -sp
    1d28:	05500126 	ldrbeq	r0, [r0, #-294]	; 0xfffffeda
    1d2c:	00a53803 	adceq	r3, r5, r3, lsl #16
    1d30:	51012600 	tstpl	r1, r0, lsl #12
    1d34:	a3380305 	teqge	r8, #335544320	; 0x14000000
    1d38:	01260000 			; <UNDEFINED> instruction: 0x01260000
    1d3c:	d8030552 	stmdale	r3, {r1, r4, r6, r8, sl}
    1d40:	260000a5 	strcs	r0, [r0], -r5, lsr #1
    1d44:	0a035301 	beq	d6950 <__bss_end__+0xcbdb8>
    1d48:	24000177 	strcs	r0, [r0], #-375	; 0xfffffe89
    1d4c:	00008e18 	andeq	r8, r0, r8, lsl lr
    1d50:	000019cb 	andeq	r1, r0, fp, asr #19
    1d54:	008e2425 	addeq	r2, lr, r5, lsr #8
    1d58:	0019bf00 	andseq	fp, r9, r0, lsl #30
    1d5c:	000e2300 	andeq	r2, lr, r0, lsl #6
    1d60:	50012600 	andpl	r2, r1, r0, lsl #12
    1d64:	a4f00305 	ldrbtge	r0, [r0], #773	; 0x305
    1d68:	01260000 			; <UNDEFINED> instruction: 0x01260000
    1d6c:	00740251 	rsbseq	r0, r4, r1, asr r2
    1d70:	8e282400 	cdphi	4, 2, cr2, cr8, cr0, {0}
    1d74:	13a70000 			; <UNDEFINED> instruction: 0x13a70000
    1d78:	3c2c0000 	stccc	0, cr0, [ip], #-0
    1d7c:	bf00008e 	svclt	0x0000008e
    1d80:	26000019 			; <UNDEFINED> instruction: 0x26000019
    1d84:	03055001 	movweq	r5, #20481	; 0x5001
    1d88:	0000a51c 	andeq	sl, r0, ip, lsl r5
    1d8c:	02510126 	subseq	r0, r1, #-2147483639	; 0x80000009
    1d90:	00000074 	andeq	r0, r0, r4, ror r0
    1d94:	008e5825 	addeq	r5, lr, r5, lsr #16
    1d98:	0019bf00 	andseq	fp, r9, r0, lsl #30
    1d9c:	000e7600 	andeq	r7, lr, r0, lsl #12
    1da0:	50012600 	andpl	r2, r1, r0, lsl #12
    1da4:	a5680305 	strbge	r0, [r8, #-773]!	; 0xfffffcfb
    1da8:	01260000 			; <UNDEFINED> instruction: 0x01260000
    1dac:	38030551 	stmdacc	r3, {r0, r4, r6, r8, sl}
    1db0:	260000a3 	strcs	r0, [r0], -r3, lsr #1
    1db4:	03055201 	movweq	r5, #20993	; 0x5201
    1db8:	0000a5d8 	ldrdeq	sl, [r0], -r8
    1dbc:	03530126 	cmpeq	r3, #-2147483639	; 0x80000009
    1dc0:	00017a0a 	andeq	r7, r1, sl, lsl #20
    1dc4:	008e5c24 	addeq	r5, lr, r4, lsr #24
    1dc8:	0019cb00 	andseq	ip, r9, r0, lsl #22
    1dcc:	c5210000 	strgt	r0, [r1, #-0]!
    1dd0:	90000000 	andls	r0, r0, r0
    1dd4:	2200000e 	andcs	r0, r0, #14, 0
    1dd8:	0000002c 	andeq	r0, r0, ip, lsr #32
    1ddc:	80040011 	andhi	r0, r4, r1, lsl r0
    1de0:	1400000e 	strne	r0, [r0], #-14
    1de4:	0000042c 	andeq	r0, r0, ip, lsr #8
    1de8:	0d014401 	cfstrseq	mvf4, [r1, #-4]
    1dec:	000089c8 	andeq	r8, r0, r8, asr #19
    1df0:	0000019c 	muleq	r0, ip, r1
    1df4:	112b9c01 			; <UNDEFINED> instruction: 0x112b9c01
    1df8:	be2d0000 	cdplt	0, 2, cr0, cr13, cr0, {0}
    1dfc:	01000004 	tsteq	r0, r4
    1e00:	2c260144 	stfcss	f0, [r6], #-272	; 0xfffffef0
    1e04:	b8000000 	stmdalt	r0, {}	; <UNPREDICTABLE>
    1e08:	b2000009 	andlt	r0, r0, #9, 0
    1e0c:	2d000009 	stccs	0, cr0, [r0, #-36]	; 0xffffffdc
    1e10:	000004e3 	andeq	r0, r0, r3, ror #9
    1e14:	35014401 	strcc	r4, [r1, #-1025]	; 0xfffffbff
    1e18:	0000002c 	andeq	r0, r0, ip, lsr #32
    1e1c:	000009ee 	andeq	r0, r0, lr, ror #19
    1e20:	000009e4 	andeq	r0, r0, r4, ror #19
    1e24:	0005042d 	andeq	r0, r5, sp, lsr #8
    1e28:	01440100 	mrseq	r0, (UNDEF: 84)
    1e2c:	00002541 	andeq	r2, r0, r1, asr #10
    1e30:	000a3900 	andeq	r3, sl, r0, lsl #18
    1e34:	000a3300 	andeq	r3, sl, r0, lsl #6
    1e38:	01221500 			; <UNDEFINED> instruction: 0x01221500
    1e3c:	113b0000 	teqne	fp, r0
    1e40:	03050000 	movweq	r0, #20480	; 0x5000
    1e44:	0000a5b0 			; <UNDEFINED> instruction: 0x0000a5b0
    1e48:	0100631d 	tsteq	r0, sp, lsl r3
    1e4c:	d40d0157 	strle	r0, [sp], #-343	; 0xfffffea9
    1e50:	67000001 	strvs	r0, [r0, -r1]
    1e54:	6500000a 	strvs	r0, [r0, #-10]
    1e58:	1600000a 	strne	r0, [r0], -sl
    1e5c:	00008a84 	andeq	r8, r0, r4, lsl #21
    1e60:	00000000 	andeq	r0, r0, r0
    1e64:	00000f4c 	andeq	r0, r0, ip, asr #30
    1e68:	00755f17 	rsbseq	r5, r5, r7, lsl pc
    1e6c:	015b0104 	cmpeq	fp, r4, lsl #2
    1e70:	000f4002 	andeq	r4, pc, r2
    1e74:	76761800 	ldrbtvc	r1, [r6], -r0, lsl #16
    1e78:	015b0100 	cmpeq	fp, r0, lsl #2
    1e7c:	0001d402 	andeq	sp, r1, r2, lsl #8
    1e80:	75751800 	ldrbvc	r1, [r5, #-2048]!	; 0xfffff800
    1e84:	015b0100 	cmpeq	fp, r0, lsl #2
    1e88:	00006e02 	andeq	r6, r0, r2, lsl #28
    1e8c:	75190000 	ldrvc	r0, [r9, #-0]
    1e90:	015b0100 	cmpeq	fp, r0, lsl #2
    1e94:	000f1a02 	andeq	r1, pc, r2, lsl #20
    1e98:	e0240000 	eor	r0, r4, r0
    1e9c:	9b000089 	blls	20c8 <__code_start__-0x5f38>
    1ea0:	25000019 	strcs	r0, [r0, #-25]	; 0xffffffe7
    1ea4:	00008a24 	andeq	r8, r0, r4, lsr #20
    1ea8:	000019bf 			; <UNDEFINED> instruction: 0x000019bf
    1eac:	00000f85 	andeq	r0, r0, r5, lsl #31
    1eb0:	05500126 	ldrbeq	r0, [r0, #-294]	; 0xfffffeda
    1eb4:	00a45403 	adceq	r5, r4, r3, lsl #8
    1eb8:	51012600 	tstpl	r1, r0, lsl #12
    1ebc:	a3380305 	teqge	r8, #335544320	; 0x14000000
    1ec0:	01260000 			; <UNDEFINED> instruction: 0x01260000
    1ec4:	b0030552 	andlt	r0, r3, r2, asr r5
    1ec8:	260000a5 	strcs	r0, [r0], -r5, lsr #1
    1ecc:	0a035301 	beq	d6ad8 <__bss_end__+0xcbf40>
    1ed0:	24000148 	strcs	r0, [r0], #-328	; 0xfffffeb8
    1ed4:	00008a28 	andeq	r8, r0, r8, lsr #20
    1ed8:	000019cb 	andeq	r1, r0, fp, asr #19
    1edc:	008a3c25 	addeq	r3, sl, r5, lsr #24
    1ee0:	0019bf00 	andseq	fp, r9, r0, lsl #30
    1ee4:	000fbe00 	andeq	fp, pc, r0, lsl #28
    1ee8:	50012600 	andpl	r2, r1, r0, lsl #12
    1eec:	a4300305 	ldrtge	r0, [r0], #-773	; 0xfffffcfb
    1ef0:	01260000 			; <UNDEFINED> instruction: 0x01260000
    1ef4:	38030551 	stmdacc	r3, {r0, r4, r6, r8, sl}
    1ef8:	260000a3 	strcs	r0, [r0], -r3, lsr #1
    1efc:	03055201 	movweq	r5, #20993	; 0x5201
    1f00:	0000a5b0 			; <UNDEFINED> instruction: 0x0000a5b0
    1f04:	03530126 	cmpeq	r3, #-2147483639	; 0x80000009
    1f08:	0001480a 	andeq	r4, r1, sl, lsl #16
    1f0c:	008a4024 	addeq	r4, sl, r4, lsr #32
    1f10:	0019cb00 	andseq	ip, r9, r0, lsl #22
    1f14:	8a442400 	bhi	110af1c <__bss_end__+0x1100384>
    1f18:	17b50000 	ldrne	r0, [r5, r0]!
    1f1c:	58250000 	stmdapl	r5!, {}	; <UNPREDICTABLE>
    1f20:	b300008a 	movwlt	r0, #138	; 0x8a
    1f24:	ed000019 	stc	0, cr0, [r0, #-100]	; 0xffffff9c
    1f28:	2600000f 	strcs	r0, [r0], -pc
    1f2c:	0c055001 	stceq	0, cr5, [r5], {1}
    1f30:	2080400c 	addcs	r4, r0, ip
    1f34:	02510126 	subseq	r0, r1, #-2147483639	; 0x80000009
    1f38:	25000076 	strcs	r0, [r0, #-118]	; 0xffffff8a
    1f3c:	00008a6c 	andeq	r8, r0, ip, ror #20
    1f40:	000019b3 			; <UNDEFINED> instruction: 0x000019b3
    1f44:	0000100a 	andeq	r1, r0, sl
    1f48:	05500126 	ldrbeq	r0, [r0, #-294]	; 0xfffffeda
    1f4c:	8040080c 	subhi	r0, r0, ip, lsl #16
    1f50:	51012620 	tstpl	r1, r0, lsr #12
    1f54:	00007502 	andeq	r7, r0, r2, lsl #10
    1f58:	008a7825 	addeq	r7, sl, r5, lsr #16
    1f5c:	0018e800 	andseq	lr, r8, r0, lsl #16
    1f60:	00101e00 	andseq	r1, r0, r0, lsl #28
    1f64:	50012600 	andpl	r2, r1, r0, lsl #12
    1f68:	00007502 	andeq	r7, r0, r2, lsl #10
    1f6c:	008a9025 	addeq	r9, sl, r5, lsr #32
    1f70:	0019b300 	andseq	fp, r9, r0, lsl #6
    1f74:	00103200 	andseq	r3, r0, r0, lsl #4
    1f78:	50012600 	andpl	r2, r1, r0, lsl #12
    1f7c:	00007502 	andeq	r7, r0, r2, lsl #10
    1f80:	008ad425 	addeq	sp, sl, r5, lsr #8
    1f84:	0019bf00 	andseq	fp, r9, r0, lsl #30
    1f88:	00106200 	andseq	r6, r0, r0, lsl #4
    1f8c:	50012600 	andpl	r2, r1, r0, lsl #12
    1f90:	a4540305 	ldrbge	r0, [r4], #-773	; 0xfffffcfb
    1f94:	01260000 			; <UNDEFINED> instruction: 0x01260000
    1f98:	38030551 	stmdacc	r3, {r0, r4, r6, r8, sl}
    1f9c:	260000a3 	strcs	r0, [r0], -r3, lsr #1
    1fa0:	03055201 	movweq	r5, #20993	; 0x5201
    1fa4:	0000a5b0 			; <UNDEFINED> instruction: 0x0000a5b0
    1fa8:	03530126 	cmpeq	r3, #-2147483639	; 0x80000009
    1fac:	00015e0a 	andeq	r5, r1, sl, lsl #28
    1fb0:	008ad824 	addeq	sp, sl, r4, lsr #16
    1fb4:	0019cb00 	andseq	ip, r9, r0, lsl #22
    1fb8:	8af42500 	bhi	ffd0b3c0 <__bss_end__+0xffd00828>
    1fbc:	19bf0000 	ldmibne	pc!, {}	; <UNPREDICTABLE>
    1fc0:	10a50000 	adcne	r0, r5, r0
    1fc4:	01260000 			; <UNDEFINED> instruction: 0x01260000
    1fc8:	a0030550 	andge	r0, r3, r0, asr r5
    1fcc:	260000a2 	strcs	r0, [r0], -r2, lsr #1
    1fd0:	03055101 	movweq	r5, #20737	; 0x5101
    1fd4:	0000a338 	andeq	sl, r0, r8, lsr r3
    1fd8:	05520126 	ldrbeq	r0, [r2, #-294]	; 0xfffffeda
    1fdc:	00a5b003 	adceq	fp, r5, r3
    1fe0:	53012600 	movwpl	r2, #5632	; 0x1600
    1fe4:	01500a03 	cmpeq	r0, r3, lsl #20
    1fe8:	007d0226 	rsbseq	r0, sp, r6, lsr #4
    1fec:	a4c40305 	strbge	r0, [r4], #773	; 0x305
    1ff0:	24000000 	strcs	r0, [r0], #-0
    1ff4:	00008af8 	strdeq	r8, [r0], -r8	; <UNPREDICTABLE>
    1ff8:	000019cb 	andeq	r1, r0, fp, asr #19
    1ffc:	008b1425 	addeq	r1, fp, r5, lsr #8
    2000:	0019bf00 	andseq	fp, r9, r0, lsl #30
    2004:	0010e800 	andseq	lr, r0, r0, lsl #16
    2008:	50012600 	andpl	r2, r1, r0, lsl #12
    200c:	a2a00305 	adcge	r0, r0, #335544320	; 0x14000000
    2010:	01260000 			; <UNDEFINED> instruction: 0x01260000
    2014:	38030551 	stmdacc	r3, {r0, r4, r6, r8, sl}
    2018:	260000a3 	strcs	r0, [r0], -r3, lsr #1
    201c:	03055201 	movweq	r5, #20993	; 0x5201
    2020:	0000a5b0 			; <UNDEFINED> instruction: 0x0000a5b0
    2024:	03530126 	cmpeq	r3, #-2147483639	; 0x80000009
    2028:	2601540a 	strcs	r5, [r1], -sl, lsl #8
    202c:	05007d02 	streq	r7, [r0, #-3330]	; 0xfffff2fe
    2030:	00a4d803 	adceq	sp, r4, r3, lsl #16
    2034:	18240000 	stmdane	r4!, {}	; <UNPREDICTABLE>
    2038:	cb00008b 	blgt	226c <__code_start__-0x5d94>
    203c:	25000019 	strcs	r0, [r0, #-25]	; 0xffffffe7
    2040:	00008b2c 	andeq	r8, r0, ip, lsr #22
    2044:	000019bf 			; <UNDEFINED> instruction: 0x000019bf
    2048:	00001121 	andeq	r1, r0, r1, lsr #2
    204c:	05500126 	ldrbeq	r0, [r0, #-294]	; 0xfffffeda
    2050:	00a43003 	adceq	r3, r4, r3
    2054:	51012600 	tstpl	r1, r0, lsl #12
    2058:	a3380305 	teqge	r8, #335544320	; 0x14000000
    205c:	01260000 			; <UNDEFINED> instruction: 0x01260000
    2060:	b0030552 	andlt	r0, r3, r2, asr r5
    2064:	260000a5 	strcs	r0, [r0], -r5, lsr #1
    2068:	0a035301 	beq	d6c74 <__bss_end__+0xcc0dc>
    206c:	2400015e 	strcs	r0, [r0], #-350	; 0xfffffea2
    2070:	00008b30 	andeq	r8, r0, r0, lsr fp
    2074:	000019cb 	andeq	r1, r0, fp, asr #19
    2078:	00c52100 	sbceq	r2, r5, r0, lsl #2
    207c:	113b0000 	teqne	fp, r0
    2080:	2c220000 	stccs	0, cr0, [r2], #-0
    2084:	0f000000 	svceq	0x00000000
    2088:	112b0400 			; <UNDEFINED> instruction: 0x112b0400
    208c:	61280000 			; <UNDEFINED> instruction: 0x61280000
    2090:	01000003 	tsteq	r0, r3
    2094:	25050134 	strcs	r0, [r5, #-308]	; 0xfffffecc
    2098:	1c000000 	stcne	0, cr0, [r0], {-0}
    209c:	bc00008c 	stclt	0, cr0, [r0], {140}	; 0x8c
    20a0:	01000000 	mrseq	r0, (UNDEF: 0)
    20a4:	0012669c 	mulseq	r2, ip, r6
    20a8:	04be2d00 	ldrteq	r2, [lr], #3328	; 0xd00
    20ac:	34010000 	strcc	r0, [r1], #-0
    20b0:	002c1701 	eoreq	r1, ip, r1, lsl #14
    20b4:	0a7e0000 	beq	1f820bc <__bss_end__+0x1f77524>
    20b8:	0a7a0000 	beq	1e820c0 <__bss_end__+0x1e77528>
    20bc:	0b2d0000 	bleq	b420c4 <__bss_end__+0xb3752c>
    20c0:	01000002 	tsteq	r0, r2
    20c4:	66250134 			; <UNDEFINED> instruction: 0x66250134
    20c8:	a3000012 	movwge	r0, #18
    20cc:	9f00000a 	svcls	0x0000000a
    20d0:	2d00000a 	stccs	0, cr0, [r0, #-40]	; 0xffffffd8
    20d4:	000004e3 	andeq	r0, r0, r3, ror #9
    20d8:	36013401 	strcc	r3, [r1], -r1, lsl #8
    20dc:	0000002c 	andeq	r0, r0, ip, lsr #32
    20e0:	00000ac5 	andeq	r0, r0, r5, asr #21
    20e4:	00000ac1 	andeq	r0, r0, r1, asr #21
    20e8:	00012215 	andeq	r2, r1, r5, lsl r2
    20ec:	000c1500 	andeq	r1, ip, r0, lsl #10
    20f0:	cc030500 	cfstr32gt	mvfx0, [r3], {-0}
    20f4:	160000a5 	strne	r0, [r0], -r5, lsr #1
    20f8:	00008c34 	andeq	r8, r0, r4, lsr ip
    20fc:	00000080 	andeq	r0, r0, r0, lsl #1
    2100:	0000123c 	andeq	r1, r0, ip, lsr r2
    2104:	0100691d 	tsteq	r0, sp, lsl r9
    2108:	2c0f0138 	stfcss	f0, [pc], {56}	; 0x38
    210c:	eb000000 	bl	2114 <__code_start__-0x5eec>
    2110:	e300000a 	movw	r0, #10
    2114:	2500000a 	strcs	r0, [r0, #-10]
    2118:	00008c50 	andeq	r8, r0, r0, asr ip
    211c:	000019bf 			; <UNDEFINED> instruction: 0x000019bf
    2120:	000011f9 	strdeq	r1, [r0], -r9
    2124:	05500126 	ldrbeq	r0, [r0, #-294]	; 0xfffffeda
    2128:	00a43003 	adceq	r3, r4, r3
    212c:	51012600 	tstpl	r1, r0, lsl #12
    2130:	a3380305 	teqge	r8, #335544320	; 0x14000000
    2134:	01260000 			; <UNDEFINED> instruction: 0x01260000
    2138:	cc030552 	cfstr32gt	mvfx0, [r3], {82}	; 0x52
    213c:	260000a5 	strcs	r0, [r0], -r5, lsr #1
    2140:	0a035301 	beq	d6d4c <__bss_end__+0xcc1b4>
    2144:	2400013a 	strcs	r0, [r0], #-314	; 0xfffffec6
    2148:	00008c54 	andeq	r8, r0, r4, asr ip
    214c:	000019cb 	andeq	r1, r0, fp, asr #19
    2150:	008cb025 	addeq	fp, ip, r5, lsr #32
    2154:	0019bf00 	andseq	fp, r9, r0, lsl #30
    2158:	00123200 	andseq	r3, r2, r0, lsl #4
    215c:	50012600 	andpl	r2, r1, r0, lsl #12
    2160:	a4540305 	ldrbge	r0, [r4], #-773	; 0xfffffcfb
    2164:	01260000 			; <UNDEFINED> instruction: 0x01260000
    2168:	38030551 	stmdacc	r3, {r0, r4, r6, r8, sl}
    216c:	260000a3 	strcs	r0, [r0], -r3, lsr #1
    2170:	03055201 	movweq	r5, #20993	; 0x5201
    2174:	0000a5cc 	andeq	sl, r0, ip, asr #11
    2178:	03530126 	cmpeq	r3, #-2147483639	; 0x80000009
    217c:	00013a0a 	andeq	r3, r1, sl, lsl #20
    2180:	008cb424 	addeq	fp, ip, r4, lsr #8
    2184:	0019cb00 	andseq	ip, r9, r0, lsl #22
    2188:	34250000 	strtcc	r0, [r5], #-0
    218c:	cf00008c 	svcgt	0x0000008c
    2190:	5c000014 	stcpl	0, cr0, [r0], {20}
    2194:	26000012 			; <UNDEFINED> instruction: 0x26000012
    2198:	f3035001 	vhadd.u8	d5, d3, d1
    219c:	01265001 			; <UNDEFINED> instruction: 0x01265001
    21a0:	00740251 	rsbseq	r0, r4, r1, asr r2
    21a4:	01520126 	cmpeq	r2, r6, lsr #2
    21a8:	b8240031 	stmdalt	r4!, {r0, r4, r5}
    21ac:	a700008c 	strge	r0, [r0, -ip, lsl #1]
    21b0:	00000013 	andeq	r0, r0, r3, lsl r0
    21b4:	00540409 	subseq	r0, r4, r9, lsl #8
    21b8:	44280000 	strtmi	r0, [r8], #-0
    21bc:	01000000 	mrseq	r0, (UNDEF: 0)
    21c0:	25050123 	strcs	r0, [r5, #-291]	; 0xfffffedd
    21c4:	64000000 	strvs	r0, [r0], #-0
    21c8:	b800008b 	stmdalt	r0, {r0, r1, r3, r7}
    21cc:	01000000 	mrseq	r0, (UNDEF: 0)
    21d0:	0013929c 	mulseq	r3, ip, r2
    21d4:	04be2d00 	ldrteq	r2, [lr], #3328	; 0xd00
    21d8:	23010000 	movwcs	r0, #4096	; 0x1000
    21dc:	002c1801 	eoreq	r1, ip, r1, lsl #16
    21e0:	0b240000 	bleq	9021e8 <__bss_end__+0x8f7650>
    21e4:	0b200000 	bleq	8021ec <__bss_end__+0x7f7654>
    21e8:	0b2d0000 	bleq	b421f0 <__bss_end__+0xb37658>
    21ec:	01000002 	tsteq	r0, r2
    21f0:	66260123 	strtvs	r0, [r6], -r3, lsr #2
    21f4:	49000012 	stmdbmi	r0, {r1, r4}
    21f8:	4500000b 	strmi	r0, [r0, #-11]
    21fc:	2d00000b 	stccs	0, cr0, [r0, #-44]	; 0xffffffd4
    2200:	000004e3 	andeq	r0, r0, r3, ror #9
    2204:	37012301 	strcc	r2, [r1, -r1, lsl #6]
    2208:	0000002c 	andeq	r0, r0, ip, lsr #32
    220c:	00000b6b 	andeq	r0, r0, fp, ror #22
    2210:	00000b67 	andeq	r0, r0, r7, ror #22
    2214:	00012215 	andeq	r2, r1, r5, lsl r2
    2218:	0013a200 	andseq	sl, r3, r0, lsl #4
    221c:	c0030500 	andgt	r0, r3, r0, lsl #10
    2220:	160000a5 	strne	r0, [r0], -r5, lsr #1
    2224:	00008b7c 	andeq	r8, r0, ip, ror fp
    2228:	00000080 	andeq	r0, r0, r0, lsl #1
    222c:	00001368 	andeq	r1, r0, r8, ror #6
    2230:	0100691d 	tsteq	r0, sp, lsl r9
    2234:	2c0f0126 	stfcss	f0, [pc], {38}	; 0x26
    2238:	91000000 	mrsls	r0, (UNDEF: 0)
    223c:	8900000b 	stmdbhi	r0, {r0, r1, r3}
    2240:	2500000b 	strcs	r0, [r0, #-11]
    2244:	00008b98 	muleq	r0, r8, fp
    2248:	000019bf 			; <UNDEFINED> instruction: 0x000019bf
    224c:	00001325 	andeq	r1, r0, r5, lsr #6
    2250:	05500126 	ldrbeq	r0, [r0, #-294]	; 0xfffffeda
    2254:	00a43003 	adceq	r3, r4, r3
    2258:	51012600 	tstpl	r1, r0, lsl #12
    225c:	a3380305 	teqge	r8, #335544320	; 0x14000000
    2260:	01260000 			; <UNDEFINED> instruction: 0x01260000
    2264:	c0030552 	andgt	r0, r3, r2, asr r5
    2268:	260000a5 	strcs	r0, [r0], -r5, lsr #1
    226c:	0a035301 	beq	d6e78 <__bss_end__+0xcc2e0>
    2270:	24000128 	strcs	r0, [r0], #-296	; 0xfffffed8
    2274:	00008b9c 	muleq	r0, ip, fp
    2278:	000019cb 	andeq	r1, r0, fp, asr #19
    227c:	008bf825 	addeq	pc, fp, r5, lsr #16
    2280:	0019bf00 	andseq	fp, r9, r0, lsl #30
    2284:	00135e00 	andseq	r5, r3, r0, lsl #28
    2288:	50012600 	andpl	r2, r1, r0, lsl #12
    228c:	a4540305 	ldrbge	r0, [r4], #-773	; 0xfffffcfb
    2290:	01260000 			; <UNDEFINED> instruction: 0x01260000
    2294:	38030551 	stmdacc	r3, {r0, r4, r6, r8, sl}
    2298:	260000a3 	strcs	r0, [r0], -r3, lsr #1
    229c:	03055201 	movweq	r5, #20993	; 0x5201
    22a0:	0000a5c0 	andeq	sl, r0, r0, asr #11
    22a4:	03530126 	cmpeq	r3, #-2147483639	; 0x80000009
    22a8:	0001280a 	andeq	r2, r1, sl, lsl #16
    22ac:	008bfc24 	addeq	pc, fp, r4, lsr #24
    22b0:	0019cb00 	andseq	ip, r9, r0, lsl #22
    22b4:	7c250000 	stcvc	0, cr0, [r5], #-0
    22b8:	cf00008b 	svcgt	0x0000008b
    22bc:	88000014 	stmdahi	r0, {r2, r4}
    22c0:	26000013 			; <UNDEFINED> instruction: 0x26000013
    22c4:	f3035001 	vhadd.u8	d5, d3, d1
    22c8:	01265001 			; <UNDEFINED> instruction: 0x01265001
    22cc:	00740251 	rsbseq	r0, r4, r1, asr r2
    22d0:	01520126 	cmpeq	r2, r6, lsr #2
    22d4:	00240030 	eoreq	r0, r4, r0, lsr r0
    22d8:	a700008c 	strge	r0, [r0, -ip, lsl #1]
    22dc:	00000013 	andeq	r0, r0, r3, lsl r0
    22e0:	0000c521 	andeq	ip, r0, r1, lsr #10
    22e4:	0013a200 	andseq	sl, r3, r0, lsl #4
    22e8:	002c2200 	eoreq	r2, ip, r0, lsl #4
    22ec:	00090000 	andeq	r0, r9, r0
    22f0:	00139204 	andseq	r9, r3, r4, lsl #4
    22f4:	05231400 	streq	r1, [r3, #-1024]!	; 0xfffffc00
    22f8:	16010000 	strne	r0, [r1], -r0
    22fc:	86b00d01 	ldrthi	r0, [r0], r1, lsl #26
    2300:	00fc0000 	rscseq	r0, ip, r0
    2304:	9c010000 	stcls	0, cr0, [r1], {-0}
    2308:	000014cf 	andeq	r1, r0, pc, asr #9
    230c:	00012215 	andeq	r2, r1, r5, lsl r2
    2310:	000c1500 	andeq	r1, ip, r0, lsl #10
    2314:	98030500 	stmdals	r3, {r8, sl}
    2318:	250000a5 	strcs	r0, [r0, #-165]	; 0xffffff5b
    231c:	000086fc 	strdeq	r8, [r0], -ip
    2320:	000019bf 			; <UNDEFINED> instruction: 0x000019bf
    2324:	000013fd 	strdeq	r1, [r0], -sp
    2328:	05500126 	ldrbeq	r0, [r0, #-294]	; 0xfffffeda
    232c:	00a45403 	adceq	r5, r4, r3, lsl #8
    2330:	51012600 	tstpl	r1, r0, lsl #12
    2334:	a3380305 	teqge	r8, #335544320	; 0x14000000
    2338:	01260000 			; <UNDEFINED> instruction: 0x01260000
    233c:	98030552 	stmdals	r3, {r1, r4, r6, r8, sl}
    2340:	260000a5 	strcs	r0, [r0], -r5, lsr #1
    2344:	0a035301 	beq	d6f50 <__bss_end__+0xcc3b8>
    2348:	24000118 	strcs	r0, [r0], #-280	; 0xfffffee8
    234c:	00008700 	andeq	r8, r0, r0, lsl #14
    2350:	000019cb 	andeq	r1, r0, fp, asr #19
    2354:	00871425 	addeq	r1, r7, r5, lsr #8
    2358:	0019bf00 	andseq	fp, r9, r0, lsl #30
    235c:	00143600 	andseq	r3, r4, r0, lsl #12
    2360:	50012600 	andpl	r2, r1, r0, lsl #12
    2364:	a4300305 	ldrtge	r0, [r0], #-773	; 0xfffffcfb
    2368:	01260000 			; <UNDEFINED> instruction: 0x01260000
    236c:	38030551 	stmdacc	r3, {r0, r4, r6, r8, sl}
    2370:	260000a3 	strcs	r0, [r0], -r3, lsr #1
    2374:	03055201 	movweq	r5, #20993	; 0x5201
    2378:	0000a598 	muleq	r0, r8, r5
    237c:	03530126 	cmpeq	r3, #-2147483639	; 0x80000009
    2380:	0001180a 	andeq	r1, r1, sl, lsl #16
    2384:	00871824 	addeq	r1, r7, r4, lsr #16
    2388:	0019cb00 	andseq	ip, r9, r0, lsl #22
    238c:	873c2400 	ldrhi	r2, [ip, -r0, lsl #8]!
    2390:	199b0000 	ldmibne	fp, {}	; <UNPREDICTABLE>
    2394:	60250000 	eorvs	r0, r5, r0
    2398:	bf000087 	svclt	0x00000087
    239c:	82000019 	andhi	r0, r0, #25, 0
    23a0:	26000014 			; <UNDEFINED> instruction: 0x26000014
    23a4:	03055001 	movweq	r5, #20481	; 0x5001
    23a8:	0000a2a0 	andeq	sl, r0, r0, lsr #5
    23ac:	05510126 	ldrbeq	r0, [r1, #-294]	; 0xfffffeda
    23b0:	00a33803 	adceq	r3, r3, r3, lsl #16
    23b4:	52012600 	andpl	r2, r1, #0, 12
    23b8:	a5980305 	ldrge	r0, [r8, #773]	; 0x305
    23bc:	01260000 			; <UNDEFINED> instruction: 0x01260000
    23c0:	1b0a0353 	blne	283114 <__bss_end__+0x27857c>
    23c4:	7d022601 	stcvc	6, cr2, [r2, #-4]
    23c8:	84030500 	strhi	r0, [r3], #-1280	; 0xfffffb00
    23cc:	000000a4 	andeq	r0, r0, r4, lsr #1
    23d0:	00876424 	addeq	r6, r7, r4, lsr #8
    23d4:	0019cb00 	andseq	ip, r9, r0, lsl #22
    23d8:	87802500 	strhi	r2, [r0, r0, lsl #10]
    23dc:	19bf0000 	ldmibne	pc!, {}	; <UNPREDICTABLE>
    23e0:	14c50000 	strbne	r0, [r5], #0
    23e4:	01260000 			; <UNDEFINED> instruction: 0x01260000
    23e8:	a0030550 	andge	r0, r3, r0, asr r5
    23ec:	260000a2 	strcs	r0, [r0], -r2, lsr #1
    23f0:	03055101 	movweq	r5, #20737	; 0x5101
    23f4:	0000a338 	andeq	sl, r0, r8, lsr r3
    23f8:	05520126 	ldrbeq	r0, [r2, #-294]	; 0xfffffeda
    23fc:	00a59803 	adceq	r9, r5, r3, lsl #16
    2400:	53012600 	movwpl	r2, #5632	; 0x1600
    2404:	011d0a03 	tsteq	sp, r3, lsl #20
    2408:	007d0226 	rsbseq	r0, sp, r6, lsr #4
    240c:	a4980305 	ldrge	r0, [r8], #773	; 0x305
    2410:	24000000 	strcs	r0, [r0], #-0
    2414:	00008784 	andeq	r8, r0, r4, lsl #15
    2418:	000019cb 	andeq	r1, r0, fp, asr #19
    241c:	048f2e00 	streq	r2, [pc], #3584	; 2424 <__code_start__-0x5bdc>
    2420:	f3010000 	vhadd.u8	d0, d1, d0
    2424:	0087f40d 	addeq	pc, r7, sp, lsl #8
    2428:	0001d400 	andeq	sp, r1, r0, lsl #8
    242c:	a09c0100 	addsge	r0, ip, r0, lsl #2
    2430:	2f000017 	svccs	0x00000017
    2434:	000004be 			; <UNDEFINED> instruction: 0x000004be
    2438:	2c21f301 	stccs	3, cr15, [r1], #-4
    243c:	cc000000 	stcgt	0, cr0, [r0], {-0}
    2440:	c600000b 	strgt	r0, [r0], -fp
    2444:	2f00000b 	svccs	0x0000000b
    2448:	000004e3 	andeq	r0, r0, r3, ror #9
    244c:	2c30f301 	ldccs	3, cr15, [r0], #-4
    2450:	02000000 	andeq	r0, r0, #0, 0
    2454:	f800000c 			; <UNDEFINED> instruction: 0xf800000c
    2458:	2f00000b 	svccs	0x0000000b
    245c:	00000504 	andeq	r0, r0, r4, lsl #10
    2460:	253cf301 	ldrcs	pc, [ip, #-769]!	; 0xfffffcff
    2464:	4d000000 	stcmi	0, cr0, [r0, #-0]
    2468:	4700000c 	strmi	r0, [r0, -ip]
    246c:	1500000c 	strne	r0, [r0, #-12]
    2470:	00000122 	andeq	r0, r0, r2, lsr #2
    2474:	000017b0 			; <UNDEFINED> instruction: 0x000017b0
    2478:	a5a40305 	strge	r0, [r4, #773]!	; 0x305
    247c:	631d0000 	tstvs	sp, #0, 0
    2480:	01060100 	mrseq	r0, (UNDEF: 22)
    2484:	0001d40d 	andeq	sp, r1, sp, lsl #8
    2488:	000c7b00 	andeq	r7, ip, r0, lsl #22
    248c:	000c7900 	andeq	r7, ip, r0, lsl #18
    2490:	88c01600 	stmiahi	r0, {r9, sl, ip}^
    2494:	00000000 	andeq	r0, r0, r0
    2498:	15820000 	strne	r0, [r2]
    249c:	5f170000 	svcpl	0x00170000
    24a0:	01040075 	tsteq	r4, r5, ror r0
    24a4:	7602010a 	strvc	r0, [r2], -sl, lsl #2
    24a8:	18000015 	stmdane	r0, {r0, r2, r4}
    24ac:	01007676 	tsteq	r0, r6, ror r6
    24b0:	d402010a 	strle	r0, [r2], #-266	; 0xfffffef6
    24b4:	18000001 	stmdane	r0, {r0}
    24b8:	01007575 	tsteq	r0, r5, ror r5
    24bc:	6e02010a 	adfvss	f0, f2, #2.0
    24c0:	00000000 	andeq	r0, r0, r0
    24c4:	01007519 	tsteq	r0, r9, lsl r5
    24c8:	5002010a 	andpl	r0, r2, sl, lsl #2
    24cc:	00000015 	andeq	r0, r0, r5, lsl r0
    24d0:	00880c24 	addeq	r0, r8, r4, lsr #24
    24d4:	00199b00 	andseq	r9, r9, r0, lsl #22
    24d8:	88502500 	ldmdahi	r0, {r8, sl, sp}^
    24dc:	19bf0000 	ldmibne	pc!, {}	; <UNPREDICTABLE>
    24e0:	15ba0000 	ldrne	r0, [sl, #0]!
    24e4:	01260000 			; <UNDEFINED> instruction: 0x01260000
    24e8:	54030550 	strpl	r0, [r3], #-1360	; 0xfffffab0
    24ec:	260000a4 	strcs	r0, [r0], -r4, lsr #1
    24f0:	03055101 	movweq	r5, #20737	; 0x5101
    24f4:	0000a338 	andeq	sl, r0, r8, lsr r3
    24f8:	05520126 	ldrbeq	r0, [r2, #-294]	; 0xfffffeda
    24fc:	00a5a403 	adceq	sl, r5, r3, lsl #8
    2500:	53012600 	movwpl	r2, #5632	; 0x1600
    2504:	00f70802 	rscseq	r0, r7, r2, lsl #16
    2508:	00885424 	addeq	r5, r8, r4, lsr #8
    250c:	0019cb00 	andseq	ip, r9, r0, lsl #22
    2510:	88682500 	stmdahi	r8!, {r8, sl, sp}^
    2514:	19bf0000 	ldmibne	pc!, {}	; <UNPREDICTABLE>
    2518:	15f20000 	ldrbne	r0, [r2, #0]!
    251c:	01260000 			; <UNDEFINED> instruction: 0x01260000
    2520:	30030550 	andcc	r0, r3, r0, asr r5
    2524:	260000a4 	strcs	r0, [r0], -r4, lsr #1
    2528:	03055101 	movweq	r5, #20737	; 0x5101
    252c:	0000a338 	andeq	sl, r0, r8, lsr r3
    2530:	05520126 	ldrbeq	r0, [r2, #-294]	; 0xfffffeda
    2534:	00a5a403 	adceq	sl, r5, r3, lsl #8
    2538:	53012600 	movwpl	r2, #5632	; 0x1600
    253c:	00f70802 	rscseq	r0, r7, r2, lsl #16
    2540:	00886c24 	addeq	r6, r8, r4, lsr #24
    2544:	0019cb00 	andseq	ip, r9, r0, lsl #22
    2548:	88802400 	stmhi	r0, {sl, sp}
    254c:	17b50000 	ldrne	r0, [r5, r0]!
    2550:	94250000 	strtls	r0, [r5], #-0
    2554:	b3000088 	movwlt	r0, #136	; 0x88
    2558:	21000019 	tstcs	r0, r9, lsl r0
    255c:	26000016 			; <UNDEFINED> instruction: 0x26000016
    2560:	0c055001 	stceq	0, cr5, [r5], {1}
    2564:	2080400c 	addcs	r4, r0, ip
    2568:	02510126 	subseq	r0, r1, #-2147483639	; 0x80000009
    256c:	25000076 	strcs	r0, [r0, #-118]	; 0xffffff8a
    2570:	000088a8 	andeq	r8, r0, r8, lsr #17
    2574:	000019b3 			; <UNDEFINED> instruction: 0x000019b3
    2578:	0000163e 	andeq	r1, r0, lr, lsr r6
    257c:	05500126 	ldrbeq	r0, [r0, #-294]	; 0xfffffeda
    2580:	8040080c 	subhi	r0, r0, ip, lsl #16
    2584:	51012620 	tstpl	r1, r0, lsr #12
    2588:	00007502 	andeq	r7, r0, r2, lsl #10
    258c:	0088b425 	addeq	fp, r8, r5, lsr #8
    2590:	0018e800 	andseq	lr, r8, r0, lsl #16
    2594:	00165200 	andseq	r5, r6, r0, lsl #4
    2598:	50012600 	andpl	r2, r1, r0, lsl #12
    259c:	00007502 	andeq	r7, r0, r2, lsl #10
    25a0:	0088cc25 	addeq	ip, r8, r5, lsr #24
    25a4:	0019b300 	andseq	fp, r9, r0, lsl #6
    25a8:	00166600 	andseq	r6, r6, r0, lsl #12
    25ac:	50012600 	andpl	r2, r1, r0, lsl #12
    25b0:	00007502 	andeq	r7, r0, r2, lsl #10
    25b4:	00891025 	addeq	r1, r9, r5, lsr #32
    25b8:	0019bf00 	andseq	fp, r9, r0, lsl #30
    25bc:	00169600 	andseq	r9, r6, r0, lsl #12
    25c0:	50012600 	andpl	r2, r1, r0, lsl #12
    25c4:	a4540305 	ldrbge	r0, [r4], #-773	; 0xfffffcfb
    25c8:	01260000 			; <UNDEFINED> instruction: 0x01260000
    25cc:	38030551 	stmdacc	r3, {r0, r4, r6, r8, sl}
    25d0:	260000a3 	strcs	r0, [r0], -r3, lsr #1
    25d4:	03055201 	movweq	r5, #20993	; 0x5201
    25d8:	0000a5a4 	andeq	sl, r0, r4, lsr #11
    25dc:	03530126 	cmpeq	r3, #-2147483639	; 0x80000009
    25e0:	0001120a 	andeq	r1, r1, sl, lsl #4
    25e4:	00891424 	addeq	r1, r9, r4, lsr #8
    25e8:	0019cb00 	andseq	ip, r9, r0, lsl #22
    25ec:	89302500 	ldmdbhi	r0!, {r8, sl, sp}
    25f0:	19bf0000 	ldmibne	pc!, {}	; <UNPREDICTABLE>
    25f4:	16d80000 	ldrbne	r0, [r8], r0
    25f8:	01260000 			; <UNDEFINED> instruction: 0x01260000
    25fc:	a0030550 	andge	r0, r3, r0, asr r5
    2600:	260000a2 	strcs	r0, [r0], -r2, lsr #1
    2604:	03055101 	movweq	r5, #20737	; 0x5101
    2608:	0000a338 	andeq	sl, r0, r8, lsr r3
    260c:	05520126 	ldrbeq	r0, [r2, #-294]	; 0xfffffeda
    2610:	00a5a403 	adceq	sl, r5, r3, lsl #8
    2614:	53012600 	movwpl	r2, #5632	; 0x1600
    2618:	26fa0802 	ldrbtcs	r0, [sl], r2, lsl #16
    261c:	05007d02 	streq	r7, [r0, #-3330]	; 0xfffff2fe
    2620:	00a4ac03 	adceq	sl, r4, r3, lsl #24
    2624:	34240000 	strtcc	r0, [r4], #-0
    2628:	cb000089 	blgt	2854 <__code_start__-0x57ac>
    262c:	25000019 	strcs	r0, [r0, #-25]	; 0xffffffe7
    2630:	00008950 	andeq	r8, r0, r0, asr r9
    2634:	000019bf 			; <UNDEFINED> instruction: 0x000019bf
    2638:	0000171a 	andeq	r1, r0, sl, lsl r7
    263c:	05500126 	ldrbeq	r0, [r0, #-294]	; 0xfffffeda
    2640:	00a2a003 	adceq	sl, r2, r3
    2644:	51012600 	tstpl	r1, r0, lsl #12
    2648:	a3380305 	teqge	r8, #335544320	; 0x14000000
    264c:	01260000 			; <UNDEFINED> instruction: 0x01260000
    2650:	a4030552 	strge	r0, [r3], #-1362	; 0xfffffaae
    2654:	260000a5 	strcs	r0, [r0], -r5, lsr #1
    2658:	08025301 	stmdaeq	r2, {r0, r8, r9, ip, lr}
    265c:	7d0226ff 	stcvc	6, cr2, [r2, #-1020]	; 0xfffffc04
    2660:	c4030500 	strgt	r0, [r3], #-1280	; 0xfffffb00
    2664:	000000a4 	andeq	r0, r0, r4, lsr #1
    2668:	00895424 	addeq	r5, r9, r4, lsr #8
    266c:	0019cb00 	andseq	ip, r9, r0, lsl #22
    2670:	89702500 	ldmdbhi	r0!, {r8, sl, sp}^
    2674:	19bf0000 	ldmibne	pc!, {}	; <UNPREDICTABLE>
    2678:	175d0000 	ldrbne	r0, [sp, -r0]
    267c:	01260000 			; <UNDEFINED> instruction: 0x01260000
    2680:	a0030550 	andge	r0, r3, r0, asr r5
    2684:	260000a2 	strcs	r0, [r0], -r2, lsr #1
    2688:	03055101 	movweq	r5, #20737	; 0x5101
    268c:	0000a338 	andeq	sl, r0, r8, lsr r3
    2690:	05520126 	ldrbeq	r0, [r2, #-294]	; 0xfffffeda
    2694:	00a5a403 	adceq	sl, r5, r3, lsl #8
    2698:	53012600 	movwpl	r2, #5632	; 0x1600
    269c:	01030a03 	tsteq	r3, r3, lsl #20
    26a0:	007d0226 	rsbseq	r0, sp, r6, lsr #4
    26a4:	a4d80305 	ldrbge	r0, [r8], #773	; 0x305
    26a8:	24000000 	strcs	r0, [r0], #-0
    26ac:	00008974 	andeq	r8, r0, r4, ror r9
    26b0:	000019cb 	andeq	r1, r0, fp, asr #19
    26b4:	00898825 	addeq	r8, r9, r5, lsr #16
    26b8:	0019bf00 	andseq	fp, r9, r0, lsl #30
    26bc:	00179600 	andseq	r9, r7, r0, lsl #12
    26c0:	50012600 	andpl	r2, r1, r0, lsl #12
    26c4:	a4300305 	ldrtge	r0, [r0], #-773	; 0xfffffcfb
    26c8:	01260000 			; <UNDEFINED> instruction: 0x01260000
    26cc:	38030551 	stmdacc	r3, {r0, r4, r6, r8, sl}
    26d0:	260000a3 	strcs	r0, [r0], -r3, lsr #1
    26d4:	03055201 	movweq	r5, #20993	; 0x5201
    26d8:	0000a5a4 	andeq	sl, r0, r4, lsr #11
    26dc:	03530126 	cmpeq	r3, #-2147483639	; 0x80000009
    26e0:	0001120a 	andeq	r1, r1, sl, lsl #4
    26e4:	00898c24 	addeq	r8, r9, r4, lsr #24
    26e8:	0019cb00 	andseq	ip, r9, r0, lsl #22
    26ec:	c5210000 	strgt	r0, [r1, #-0]!
    26f0:	b0000000 	andlt	r0, r0, r0
    26f4:	22000017 	andcs	r0, r0, #23, 0
    26f8:	0000002c 	andeq	r0, r0, ip, lsr #32
    26fc:	a004000a 	andge	r0, r4, sl
    2700:	2e000017 	mcrcs	0, 0, r0, cr0, cr7, {0}
    2704:	00000594 	muleq	r0, r4, r5
    2708:	bc0de701 	stclt	7, cr14, [sp], {1}
    270c:	28000087 	stmdacs	r0, {r0, r1, r2, r7}
    2710:	01000000 	mrseq	r0, (UNDEF: 0)
    2714:	0018359c 	mulseq	r8, ip, r5
    2718:	00731200 	rsbseq	r1, r3, r0, lsl #4
    271c:	9e0de801 	cdpls	8, 0, cr14, cr13, cr1, {0}
    2720:	16000002 	strne	r0, [r0], -r2
    2724:	000087cc 	andeq	r8, r0, ip, asr #15
    2728:	00000000 	andeq	r0, r0, r0
    272c:	00001810 	andeq	r1, r0, r0, lsl r8
    2730:	00755f30 	rsbseq	r5, r5, r0, lsr pc
    2734:	02ef0104 	rsceq	r0, pc, #1
    2738:	00001805 	andeq	r1, r0, r5, lsl #16
    273c:	00767631 	rsbseq	r7, r6, r1, lsr r6
    2740:	9e02ef01 	cdpls	15, 0, cr14, cr2, cr1, {0}
    2744:	31000002 	tstcc	r0, r2
    2748:	01007575 	tsteq	r0, r5, ror r5
    274c:	006e02ef 	rsbeq	r0, lr, pc, ror #5
    2750:	12000000 	andne	r0, r0, #0, 0
    2754:	ef010075 	svc	0x00010075
    2758:	0017e202 	andseq	lr, r7, r2, lsl #4
    275c:	cc250000 	stcgt	0, cr0, [r5], #-0
    2760:	35000087 	strcc	r0, [r0, #-135]	; 0xffffff79
    2764:	24000018 	strcs	r0, [r0], #-24	; 0xffffffe8
    2768:	26000018 			; <UNDEFINED> instruction: 0x26000018
    276c:	74025001 	strvc	r5, [r2], #-1
    2770:	dc2c0000 	stcle	0, cr0, [ip], #-0
    2774:	b3000087 	movwlt	r0, #135	; 0x87
    2778:	26000019 			; <UNDEFINED> instruction: 0x26000019
    277c:	74025001 	strvc	r5, [r2], #-1
    2780:	32000000 	andcc	r0, r0, #0, 0
    2784:	000004ea 	andeq	r0, r0, sl, ror #9
    2788:	9e13b801 	cdpls	8, 1, cr11, cr3, cr1, {0}
    278c:	ac000002 	stcge	0, cr0, [r0], {2}
    2790:	10000087 	andne	r0, r0, r7, lsl #1
    2794:	01000000 	mrseq	r0, (UNDEF: 0)
    2798:	0018b59c 	mulseq	r8, ip, r5
    279c:	00733300 	rsbseq	r3, r3, r0, lsl #6
    27a0:	b52fb801 	strlt	fp, [pc, #-2049]!	; 1fa7 <__code_start__-0x6059>
    27a4:	92000018 	andls	r0, r0, #24, 0
    27a8:	8e00000c 	cdphi	0, 0, cr0, cr0, cr12, {0}
    27ac:	1600000c 	strne	r0, [r0], -ip
    27b0:	000087b0 			; <UNDEFINED> instruction: 0x000087b0
    27b4:	00000004 	andeq	r0, r0, r4
    27b8:	000018ab 	andeq	r1, r0, fp, lsr #17
    27bc:	00755f30 	rsbseq	r5, r5, r0, lsr pc
    27c0:	11b90104 			; <UNDEFINED> instruction: 0x11b90104
    27c4:	0000188f 	andeq	r1, r0, pc, lsl #17
    27c8:	01007631 	tsteq	r0, r1, lsr r6
    27cc:	02aa11b9 	adceq	r1, sl, #1073741870	; 0x4000002e
    27d0:	75310000 	ldrvc	r0, [r1, #-0]!
    27d4:	11b90100 			; <UNDEFINED> instruction: 0x11b90100
    27d8:	0000002c 	andeq	r0, r0, ip, lsr #32
    27dc:	00751200 	rsbseq	r1, r5, r0, lsl #4
    27e0:	6e11b901 	vnmlsvs.f16	s22, s2, s2	; <UNPREDICTABLE>
    27e4:	2c000018 	stccs	0, cr0, [r0], {24}
    27e8:	000087b4 			; <UNDEFINED> instruction: 0x000087b4
    27ec:	000019d7 	ldrdeq	r1, [r0], -r7
    27f0:	03500126 	cmpeq	r0, #-2147483639	; 0x80000009
    27f4:	005001f3 	ldrsheq	r0, [r0], #-19	; 0xffffffed
    27f8:	87b82400 	ldrhi	r2, [r8, r0, lsl #8]!
    27fc:	18bb0000 	ldmne	fp!, {}	; <UNPREDICTABLE>
    2800:	09000000 	stmdbeq	r0, {}	; <UNPREDICTABLE>
    2804:	0002aa04 	andeq	sl, r2, r4, lsl #20
    2808:	03bf3200 			; <UNDEFINED> instruction: 0x03bf3200
    280c:	b4010000 	strlt	r0, [r1], #-0
    2810:	00029e13 	andeq	r9, r2, r3, lsl lr
    2814:	00869c00 	addeq	r9, r6, r0, lsl #24
    2818:	00000c00 	andeq	r0, r0, r0, lsl #24
    281c:	e89c0100 	ldm	ip, {r8}
    2820:	33000018 	movwcc	r0, #24
    2824:	b4010073 	strlt	r0, [r1], #-115	; 0xffffff8d
    2828:	00029e26 	andeq	r9, r2, r6, lsr #28
    282c:	000cb500 	andeq	fp, ip, r0, lsl #10
    2830:	000cb300 	andeq	fp, ip, r0, lsl #6
    2834:	2c320000 	ldccs	0, cr0, [r2], #-0
    2838:	01000005 	tsteq	r0, r5
    283c:	01d4137e 	bicseq	r1, r4, lr, ror r3
    2840:	87e40000 	strbhi	r0, [r4, r0]!
    2844:	00100000 	andseq	r0, r0, r0
    2848:	9c010000 	stcls	0, cr0, [r1], {-0}
    284c:	00001968 	andeq	r1, r0, r8, ror #18
    2850:	01006333 	tsteq	r0, r3, lsr r3
    2854:	19682f7e 	stmdbne	r8!, {r1, r2, r3, r4, r5, r6, r8, r9, sl, fp, sp}^
    2858:	0ccc0000 	stcleq	0, cr0, [ip], {0}
    285c:	0cc80000 	stcleq	0, cr0, [r8], {0}
    2860:	e8160000 	ldmda	r6, {}	; <UNPREDICTABLE>
    2864:	04000087 	streq	r0, [r0], #-135	; 0xffffff79
    2868:	5e000000 	cdppl	0, 0, cr0, cr0, cr0, {0}
    286c:	30000019 	andcc	r0, r0, r9, lsl r0
    2870:	0400755f 	streq	r7, [r0], #-1375	; 0xfffffaa1
    2874:	42117f01 	andsmi	r7, r1, #1, 30
    2878:	31000019 	tstcc	r0, r9, lsl r0
    287c:	7f010076 	svcvc	0x00010076
    2880:	0001e011 	andeq	lr, r1, r1, lsl r0
    2884:	00753100 	rsbseq	r3, r5, r0, lsl #2
    2888:	2c117f01 	ldccs	15, cr7, [r1], {1}
    288c:	00000000 	andeq	r0, r0, r0
    2890:	01007512 	tsteq	r0, r2, lsl r5
    2894:	1921117f 	stmdbne	r1!, {r0, r1, r2, r3, r4, r5, r6, r8, ip}
    2898:	ec2c0000 	stc	0, cr0, [ip], #-0
    289c:	d7000087 	strle	r0, [r0, -r7, lsl #1]
    28a0:	26000019 			; <UNDEFINED> instruction: 0x26000019
    28a4:	f3035001 	vhadd.u8	d5, d3, d1
    28a8:	00005001 	andeq	r5, r0, r1
    28ac:	0087f024 	addeq	pc, r7, r4, lsr #32
    28b0:	00196e00 	andseq	r6, r9, r0, lsl #28
    28b4:	04090000 	streq	r0, [r9], #-0
    28b8:	000001e0 	andeq	r0, r0, r0, ror #3
    28bc:	0003a632 	andeq	sl, r3, r2, lsr r6
    28c0:	13770100 	cmnne	r7, #0
    28c4:	000001d4 	ldrdeq	r0, [r0], -r4
    28c8:	0000868c 	andeq	r8, r0, ip, lsl #13
    28cc:	00000010 	andeq	r0, r0, r0, lsl r0
    28d0:	199b9c01 	ldmibne	fp, {r0, sl, fp, ip, pc}
    28d4:	63330000 	teqvs	r3, #0, 0
    28d8:	26770100 	ldrbtcs	r0, [r7], -r0, lsl #2
    28dc:	000001d4 	ldrdeq	r0, [r0], -r4
    28e0:	00000cf1 	strdeq	r0, [r0], -r1
    28e4:	00000ced 	andeq	r0, r0, sp, ror #25
    28e8:	04c33400 	strbeq	r3, [r3], #1024	; 0x400
    28ec:	04c30000 	strbeq	r0, [r3], #0
    28f0:	93030000 	movwls	r0, #12288	; 0x3000
    28f4:	05113406 	ldreq	r3, [r1, #-1030]	; 0xfffffbfa
    28f8:	05110000 	ldreq	r0, [r1, #-0]
    28fc:	19040000 	stmdbne	r4, {}	; <UNPREDICTABLE>
    2900:	04413406 	strbeq	r3, [r1], #-1030	; 0xfffffbfa
    2904:	04410000 	strbeq	r0, [r1], #-0
    2908:	a5030000 	strge	r0, [r3, #-0]
    290c:	074b3406 	strbeq	r3, [fp, -r6, lsl #8]
    2910:	074b0000 	strbeq	r0, [fp, -r0]
    2914:	28030000 	stmdacs	r3, {}	; <UNPREDICTABLE>
    2918:	014b3406 	cmpeq	fp, r6, lsl #8
    291c:	014b0000 	mrseq	r0, (UNDEF: 75)
    2920:	67030000 	strvs	r0, [r3, -r0]
    2924:	04cf3406 	strbeq	r3, [pc], #1030	; 292c <__code_start__-0x56d4>
    2928:	04cf0000 	strbeq	r0, [pc], #0	; 2930 <__code_start__-0x56d0>
    292c:	b1030000 	mrslt	r0, (UNDEF: 3)
    2930:	0673000b 	ldrbteq	r0, [r3], -fp
    2934:	00040000 	andeq	r0, r4, r0
    2938:	00000622 	andeq	r0, r0, r2, lsr #12
    293c:	06360104 	ldrteq	r0, [r6], -r4, lsl #2
    2940:	ec0c0000 	stc	0, cr0, [ip], {-0}
    2944:	10000005 	andne	r0, r0, r5
    2948:	5c000007 	stcpl	0, cr0, [r0], {7}
    294c:	9800008f 	stmdals	r0, {r0, r1, r2, r3, r7}
    2950:	50000001 	andpl	r0, r0, r1
    2954:	0200000d 	andeq	r0, r0, #13, 0
    2958:	01960708 	orrseq	r0, r6, r8, lsl #14
    295c:	04020000 	streq	r0, [r2], #-0
    2960:	0001a007 	andeq	sl, r1, r7
    2964:	05040300 	streq	r0, [r4, #-768]	; 0xfffffd00
    2968:	00746e69 	rsbseq	r6, r4, r9, ror #28
    296c:	00002c04 	andeq	r2, r0, r4, lsl #24
    2970:	06010200 	streq	r0, [r1], -r0, lsl #4
    2974:	00000175 	andeq	r0, r0, r5, ror r1
    2978:	2e050202 	cdpcs	2, 0, cr0, cr5, cr2, {0}
    297c:	02000000 	andeq	r0, r0, #0, 0
    2980:	00ff0504 	rscseq	r0, pc, r4, lsl #10
    2984:	08020000 	stmdaeq	r2, {}	; <UNPREDICTABLE>
    2988:	0000fa05 	andeq	pc, r0, r5, lsl #20
    298c:	08010200 	stmdaeq	r1, {r9}
    2990:	00000173 	andeq	r0, r0, r3, ror r1
    2994:	ef070202 	svc	0x00070202
    2998:	05000001 	streq	r0, [r0, #-1]
    299c:	000001ad 	andeq	r0, r0, sp, lsr #3
    29a0:	75193403 	ldrvc	r3, [r9, #-1027]	; 0xfffffbfd
    29a4:	02000000 	andeq	r0, r0, #0, 0
    29a8:	019b0704 	orrseq	r0, fp, r4, lsl #14
    29ac:	33060000 	movwcc	r0, #24576	; 0x6000
    29b0:	8b000000 	blhi	29b8 <__code_start__-0x5648>
    29b4:	07000000 	streq	r0, [r0, -r0]
    29b8:	00000033 	andeq	r0, r0, r3, lsr r0
    29bc:	005a0800 	subseq	r0, sl, r0, lsl #16
    29c0:	1c020000 	stcne	0, cr0, [r2], {-0}
    29c4:	0000970e 	andeq	r9, r0, lr, lsl #14
    29c8:	7c040900 			; <UNDEFINED> instruction: 0x7c040900
    29cc:	06000000 	streq	r0, [r0], -r0
    29d0:	00000033 	andeq	r0, r0, r3, lsr r0
    29d4:	000000ac 	andeq	r0, r0, ip, lsr #1
    29d8:	0000ac07 	andeq	sl, r0, r7, lsl #24
    29dc:	04090000 	streq	r0, [r9], #-0
    29e0:	000000b9 	strheq	r0, [r0], -r9
    29e4:	7c080102 	stfvcs	f0, [r8], {2}
    29e8:	04000001 	streq	r0, [r0], #-1
    29ec:	000000b2 	strheq	r0, [r0], -r2
    29f0:	00078908 	andeq	r8, r7, r8, lsl #18
    29f4:	0e210200 	cdpeq	2, 2, cr0, cr1, cr0, {0}
    29f8:	000000ca 	andeq	r0, r0, sl, asr #1
    29fc:	009d0409 	addseq	r0, sp, r9, lsl #8
    2a00:	070a0000 	streq	r0, [sl, -r0]
    2a04:	00005b01 	andeq	r5, r0, r1, lsl #22
    2a08:	0e0c0400 	cfcpyseq	mvf0, mvf12
    2a0c:	0000010f 	andeq	r0, r0, pc, lsl #2
    2a10:	00047a0b 	andeq	r7, r4, fp, lsl #20
    2a14:	ae0b0000 	cdpge	0, 0, cr0, cr11, cr0, {0}
    2a18:	01000003 	tsteq	r0, r3
    2a1c:	0003c70b 	andeq	ip, r3, fp, lsl #14
    2a20:	d60b0400 	strle	r0, [fp], -r0, lsl #8
    2a24:	05000003 	streq	r0, [r0, #-3]
    2a28:	0003e50b 	andeq	lr, r3, fp, lsl #10
    2a2c:	f40b0600 	vst1.8	{d0-d2}, [fp], r0
    2a30:	07000003 	streq	r0, [r0, -r3]
    2a34:	0004030b 	andeq	r0, r4, fp, lsl #6
    2a38:	120b0300 	andne	r0, fp, #0, 6
    2a3c:	02000004 	andeq	r0, r0, #4, 0
    2a40:	062a0500 	strteq	r0, [sl], -r0, lsl #10
    2a44:	15040000 	strne	r0, [r4, #-0]
    2a48:	0000d003 	andeq	sp, r0, r3
    2a4c:	05b70c00 	ldreq	r0, [r7, #3072]!	; 0xc00
    2a50:	1d010000 	stcne	0, cr0, [r1, #-0]
    2a54:	00003a17 	andeq	r3, r0, r7, lsl sl
    2a58:	20001c00 	andcs	r1, r0, r0, lsl #24
    2a5c:	05ad0c20 	streq	r0, [sp, #3104]!	; 0xc20
    2a60:	1e010000 	cdpne	0, 0, cr0, cr1, cr0, {0}
    2a64:	00003a17 	andeq	r3, r0, r7, lsl sl
    2a68:	20002800 	andcs	r2, r0, r0, lsl #16
    2a6c:	07060c20 	streq	r0, [r6, -r0, lsr #24]
    2a70:	1f010000 	svcne	0x00010000
    2a74:	00003a17 	andeq	r3, r0, r7, lsl sl
    2a78:	20003400 	andcs	r3, r0, r0, lsl #8
    2a7c:	05dc0d20 	ldrbeq	r0, [ip, #3360]	; 0xd20
    2a80:	51010000 	mrspl	r0, (UNDEF: 1)
    2a84:	00003305 	andeq	r3, r0, r5, lsl #6
    2a88:	0090cc00 	addseq	ip, r0, r0, lsl #24
    2a8c:	00002800 	andeq	r2, r0, r0, lsl #16
    2a90:	ba9c0100 	blt	fe702e98 <__bss_end__+0xfe6f8300>
    2a94:	0e000001 	cdpeq	0, 0, cr0, cr0, cr1, {0}
    2a98:	006e6970 	rsbeq	r6, lr, r0, ror r9
    2a9c:	2c185101 	ldfcss	f5, [r8], {1}
    2aa0:	15000000 	strne	r0, [r0, #-0]
    2aa4:	0f00000d 	svceq	0x0000000d
    2aa8:	0f00000d 	svceq	0x0000000d
    2aac:	00000732 	andeq	r0, r0, r2, lsr r7
    2ab0:	2c0e5201 	sfmcs	f5, 4, [lr], {1}
    2ab4:	4b000000 	blmi	2abc <__code_start__-0x5544>
    2ab8:	4100000d 	tstmi	r0, sp
    2abc:	1000000d 	andne	r0, r0, sp
    2ac0:	0066666f 	rsbeq	r6, r6, pc, ror #12
    2ac4:	2c0e5301 	stccs	3, cr5, [lr], {1}
    2ac8:	b9000000 	stmdblt	r0, {}	; <UNPREDICTABLE>
    2acc:	b300000d 	movwlt	r0, #13
    2ad0:	1100000d 	tstne	r0, sp
    2ad4:	000090e0 	andeq	r9, r0, r0, ror #1
    2ad8:	0000065e 	andeq	r0, r0, lr, asr r6
    2adc:	0a500112 	beq	1402f2c <__bss_end__+0x13f8394>
    2ae0:	25350074 	ldrcs	r0, [r5, #-116]!	; 0xffffff8c
    2ae4:	8080b423 	addhi	fp, r0, r3, lsr #8
    2ae8:	00000281 	andeq	r0, r0, r1, lsl #5
    2aec:	0005c113 	andeq	ip, r5, r3, lsl r1
    2af0:	064a0100 	strbeq	r0, [sl], -r0, lsl #2
    2af4:	0000909c 	muleq	r0, ip, r0
    2af8:	00000030 	andeq	r0, r0, r0, lsr r0
    2afc:	02759c01 	rsbseq	r9, r5, #256	; 0x100
    2b00:	700e0000 	andvc	r0, lr, r0
    2b04:	01006e69 	tsteq	r0, r9, ror #28
    2b08:	002c1a4a 	eoreq	r1, ip, sl, asr #20
    2b0c:	0df60000 	ldcleq	0, cr0, [r6]
    2b10:	0dea0000 	stcleq	0, cr0, [sl]
    2b14:	760e0000 	strvc	r0, [lr], -r0
    2b18:	284a0100 	stmdacs	sl, {r8}^
    2b1c:	0000002c 	andeq	r0, r0, ip, lsr #32
    2b20:	00000e4a 	andeq	r0, r0, sl, asr #28
    2b24:	00000e46 	andeq	r0, r0, r6, asr #28
    2b28:	00038d14 	andeq	r8, r3, r4, lsl sp
    2b2c:	0090ac00 	addseq	sl, r0, r0, lsl #24
    2b30:	00d80100 	sbcseq	r0, r8, r0, lsl #2
    2b34:	4c010000 	stcmi	0, cr0, [r1], {-0}
    2b38:	00023509 	andeq	r3, r2, r9, lsl #10
    2b3c:	039a1500 	orrseq	r1, sl, #0, 10
    2b40:	0e710000 	cdpeq	0, 7, cr0, cr1, cr0, {0}
    2b44:	0e6b0000 	cdpeq	0, 6, cr0, cr11, cr0, {0}
    2b48:	b8160000 	ldmdalt	r6, {}	; <UNPREDICTABLE>
    2b4c:	6a000090 	bvs	2d94 <__code_start__-0x526c>
    2b50:	12000006 	andne	r0, r0, #6, 0
    2b54:	0c055001 	stceq	0, cr5, [r5], {1}
    2b58:	2020001c 	eorcs	r0, r0, ip, lsl r0
    2b5c:	05510112 	ldrbeq	r0, [r1, #-274]	; 0xfffffeee
    2b60:	5001f331 	andpl	pc, r1, r1, lsr r3	; <UNPREDICTABLE>
    2b64:	17000024 	strne	r0, [r0, -r4, lsr #32]
    2b68:	00000373 	andeq	r0, r0, r3, ror r3
    2b6c:	000090b8 	strheq	r9, [r0], -r8
    2b70:	0090b802 	addseq	fp, r0, r2, lsl #16
    2b74:	00001400 	andeq	r1, r0, r0, lsl #8
    2b78:	094e0100 	stmdbeq	lr, {r8}^
    2b7c:	00038015 	andeq	r8, r3, r5, lsl r0
    2b80:	000ea300 	andeq	sl, lr, r0, lsl #6
    2b84:	000e9d00 	andeq	r9, lr, r0, lsl #26
    2b88:	90c41600 	sbcls	r1, r4, r0, lsl #12
    2b8c:	066a0000 	strbteq	r0, [sl], -r0
    2b90:	01120000 	tsteq	r2, r0
    2b94:	280c0550 	stmdacs	ip, {r4, r6, r8, sl}
    2b98:	12202000 	eorne	r2, r0, #0, 0
    2b9c:	31055101 	tstcc	r5, r1, lsl #2
    2ba0:	245001f3 	ldrbcs	r0, [r0], #-499	; 0xfffffe0d
    2ba4:	13000000 	movwne	r0, #0
    2ba8:	000005f9 	strdeq	r0, [r0], -r9
    2bac:	44064501 	strmi	r4, [r6], #-1281	; 0xfffffaff
    2bb0:	58000090 	stmdapl	r0, {r4, r7}
    2bb4:	01000000 	mrseq	r0, (UNDEF: 0)
    2bb8:	0003739c 	muleq	r3, ip, r3
    2bbc:	69700e00 	ldmdbvs	r0!, {r9, sl, fp}^
    2bc0:	4501006e 	strmi	r0, [r1, #-110]	; 0xffffff92
    2bc4:	00002c1e 	andeq	r2, r0, lr, lsl ip
    2bc8:	000ed500 	andeq	sp, lr, r0, lsl #10
    2bcc:	000ecf00 	andeq	ip, lr, r0, lsl #30
    2bd0:	04a51800 	strteq	r1, [r5], #2048	; 0x800
    2bd4:	90440000 	subls	r0, r4, r0
    2bd8:	98020000 	stmdals	r2, {}	; <UNPREDICTABLE>
    2bdc:	01000000 	mrseq	r0, (UNDEF: 0)
    2be0:	be190546 	cfmac32lt	mvfx0, mvfx9, mvfx6
    2be4:	00000004 	andeq	r0, r0, r4
    2be8:	0004b215 	andeq	fp, r4, r5, lsl r2
    2bec:	000f0700 	andeq	r0, pc, r0, lsl #14
    2bf0:	000f0100 	andeq	r0, pc, r0, lsl #2
    2bf4:	00981a00 	addseq	r1, r8, r0, lsl #20
    2bf8:	ca1b0000 	bgt	6c2c00 <__bss_end__+0x6b8068>
    2bfc:	1b000004 	blne	2c14 <__code_start__-0x53ec>
    2c00:	000004d6 	ldrdeq	r0, [r0], -r6
    2c04:	0004e01b 	andeq	lr, r4, fp, lsl r0
    2c08:	04a51800 	strteq	r1, [r5], #2048	; 0x800
    2c0c:	904c0000 	subls	r0, ip, r0
    2c10:	b8000000 	stmdalt	r0, {}	; <UNPREDICTABLE>
    2c14:	01000000 	mrseq	r0, (UNDEF: 0)
    2c18:	be190628 	cfmsub32lt	mvax1, mvfx0, mvfx9, mvfx8
    2c1c:	00000004 	andeq	r0, r0, r4
    2c20:	0004b215 	andeq	fp, r4, r5, lsl r2
    2c24:	000f3900 	andeq	r3, pc, r0, lsl #18
    2c28:	000f3300 	andeq	r3, pc, r0, lsl #6
    2c2c:	00b81a00 	adcseq	r1, r8, r0, lsl #20
    2c30:	ca1c0000 	bgt	702c38 <__bss_end__+0x6f80a0>
    2c34:	6b000004 	blvs	2c4c <__code_start__-0x53b4>
    2c38:	6500000f 	strvs	r0, [r0, #-15]
    2c3c:	1c00000f 	stcne	0, cr0, [r0], {15}
    2c40:	000004d6 	ldrdeq	r0, [r0], -r6
    2c44:	00000fad 	andeq	r0, r0, sp, lsr #31
    2c48:	00000fa7 	andeq	r0, r0, r7, lsr #31
    2c4c:	0004e01c 	andeq	lr, r4, ip, lsl r0
    2c50:	00100300 	andseq	r0, r0, r0, lsl #6
    2c54:	000ffb00 	andeq	pc, pc, r0, lsl #22
    2c58:	90741d00 	rsbsls	r1, r4, r0, lsl #26
    2c5c:	065e0000 	ldrbeq	r0, [lr], -r0
    2c60:	033b0000 	teqeq	fp, #0, 0
    2c64:	01120000 	tsteq	r2, r0
    2c68:	00760250 	rsbseq	r0, r6, r0, asr r2
    2c6c:	90981600 	addsls	r1, r8, r0, lsl #12
    2c70:	066a0000 	strbteq	r0, [sl], -r0
    2c74:	01120000 	tsteq	r2, r0
    2c78:	01f32550 	mvnseq	r2, r0, asr r5
    2c7c:	f72cf750 			; <UNDEFINED> instruction: 0xf72cf750
    2c80:	0825f425 	stmdaeq	r5!, {r0, r2, r5, sl, ip, sp, lr, pc}
    2c84:	cccccccd 	stclgt	12, cr12, [ip], {205}	; 0xcd
    2c88:	00000000 	andeq	r0, r0, r0
    2c8c:	f720081e 			; <UNDEFINED> instruction: 0xf720081e
    2c90:	2cf72525 	cfldr64cs	mvdx2, [r7], #148	; 0x94
    2c94:	253300f7 	ldrcs	r0, [r3, #-247]!	; 0xffffff09
    2c98:	a0808023 	addge	r8, r0, r3, lsr #32
    2c9c:	00243240 	eoreq	r3, r4, r0, asr #4
    2ca0:	00000000 	andeq	r0, r0, r0
    2ca4:	06081e00 	streq	r1, [r8], -r0, lsl #28
    2ca8:	40010000 	andmi	r0, r1, r0
    2cac:	038d030d 	orreq	r0, sp, #872415232	; 0x34000000
    2cb0:	701f0000 	andsvc	r0, pc, r0
    2cb4:	01006e69 	tsteq	r0, r9, ror #28
    2cb8:	002c2340 	eoreq	r2, ip, r0, asr #6
    2cbc:	1e000000 	cdpne	0, 0, cr0, cr0, cr0, {0}
    2cc0:	00000737 	andeq	r0, r0, r7, lsr r7
    2cc4:	030d3b01 	movweq	r3, #56065	; 0xdb01
    2cc8:	000003a7 	andeq	r0, r0, r7, lsr #7
    2ccc:	6e69701f 	mcrvs	0, 3, r7, cr9, cr15, {0}
    2cd0:	223b0100 	eorscs	r0, fp, #0
    2cd4:	0000002c 	andeq	r0, r0, ip, lsr #32
    2cd8:	06151300 	ldreq	r1, [r5], -r0, lsl #6
    2cdc:	36010000 	strcc	r0, [r1], -r0
    2ce0:	008fbc06 	addeq	fp, pc, r6, lsl #24
    2ce4:	00005800 	andeq	r5, r0, r0, lsl #16
    2ce8:	a59c0100 	ldrge	r0, [ip, #256]	; 0x100
    2cec:	0e000004 	cdpeq	0, 0, cr0, cr0, cr4, {0}
    2cf0:	006e6970 	rsbeq	r6, lr, r0, ror r9
    2cf4:	2c1f3601 	ldccs	6, cr3, [pc], {1}
    2cf8:	61000000 	mrsvs	r0, (UNDEF: 0)
    2cfc:	5d000010 	stcpl	0, cr0, [r0, #-64]	; 0xffffffc0
    2d00:	18000010 	stmdane	r0, {r4}
    2d04:	000004a5 	andeq	r0, r0, r5, lsr #9
    2d08:	00008fbc 			; <UNDEFINED> instruction: 0x00008fbc
    2d0c:	00005802 	andeq	r5, r0, r2, lsl #16
    2d10:	05370100 	ldreq	r0, [r7, #-256]!	; 0xffffff00
    2d14:	0004be19 	andeq	fp, r4, r9, lsl lr
    2d18:	b2150100 	andslt	r0, r5, #0
    2d1c:	86000004 	strhi	r0, [r0], -r4
    2d20:	82000010 	andhi	r0, r0, #16, 0
    2d24:	1a000010 	bne	2d6c <__code_start__-0x5294>
    2d28:	00000058 	andeq	r0, r0, r8, asr r0
    2d2c:	0004ca1b 	andeq	ip, r4, fp, lsl sl
    2d30:	04d61b00 	ldrbeq	r1, [r6], #2816	; 0xb00
    2d34:	e01b0000 	ands	r0, fp, r0
    2d38:	18000004 	stmdane	r0, {r2}
    2d3c:	000004a5 	andeq	r0, r0, r5, lsr #9
    2d40:	00008fc4 	andeq	r8, r0, r4, asr #31
    2d44:	00007800 	andeq	r7, r0, r0, lsl #16
    2d48:	06280100 	strteq	r0, [r8], -r0, lsl #2
    2d4c:	0004be19 	andeq	fp, r4, r9, lsl lr
    2d50:	b2150100 	andslt	r0, r5, #0
    2d54:	ab000004 	blge	2d6c <__code_start__-0x5294>
    2d58:	a7000010 	smladge	r0, r0, r0, r0
    2d5c:	1a000010 	bne	2da4 <__code_start__-0x525c>
    2d60:	00000078 	andeq	r0, r0, r8, ror r0
    2d64:	0004ca1c 	andeq	ip, r4, ip, lsl sl
    2d68:	0010d000 	andseq	sp, r0, r0
    2d6c:	0010cc00 	andseq	ip, r0, r0, lsl #24
    2d70:	04d61c00 	ldrbeq	r1, [r6], #3072	; 0xc00
    2d74:	111c0000 	tstne	ip, r0
    2d78:	11160000 	tstne	r6, r0
    2d7c:	e01c0000 	ands	r0, ip, r0
    2d80:	72000004 	andvc	r0, r0, #4, 0
    2d84:	6a000011 	bvs	2dd0 <__code_start__-0x5230>
    2d88:	1d000011 	stcne	0, cr0, [r0, #-68]	; 0xffffffbc
    2d8c:	00008ff0 	strdeq	r8, [r0], -r0
    2d90:	0000065e 	andeq	r0, r0, lr, asr r6
    2d94:	0000046d 	andeq	r0, r0, sp, ror #8
    2d98:	02500112 	subseq	r0, r0, #-2147483644	; 0x80000004
    2d9c:	16000075 			; <UNDEFINED> instruction: 0x16000075
    2da0:	00009010 	andeq	r9, r0, r0, lsl r0
    2da4:	0000066a 	andeq	r0, r0, sl, ror #12
    2da8:	25500112 	ldrbcs	r0, [r0, #-274]	; 0xfffffeee
    2dac:	f75001f3 			; <UNDEFINED> instruction: 0xf75001f3
    2db0:	f425f72c 	vld1.8	{d15}, [r5 :128], ip
    2db4:	cccd0825 	stclgt	8, cr0, [sp], {37}	; 0x25
    2db8:	0000cccc 	andeq	ip, r0, ip, asr #25
    2dbc:	081e0000 	ldmdaeq	lr, {}	; <UNPREDICTABLE>
    2dc0:	2525f720 	strcs	pc, [r5, #-1824]!	; 0xfffff8e0
    2dc4:	00f72cf7 	ldrshteq	r2, [r7], #199	; 0xc7
    2dc8:	80232533 	eorhi	r2, r3, r3, lsr r5
    2dcc:	3240a080 	subcc	sl, r0, #128, 0	; 0x80
    2dd0:	00000024 	andeq	r0, r0, r4, lsr #32
    2dd4:	1e000000 	cdpne	0, 0, cr0, cr0, cr0, {0}
    2dd8:	00000511 	andeq	r0, r0, r1, lsl r5
    2ddc:	01062801 	tsteq	r6, r1, lsl #16
    2de0:	000004eb 	andeq	r0, r0, fp, ror #9
    2de4:	6e69701f 	mcrvs	0, 3, r7, cr9, cr15, {0}
    2de8:	21280100 			; <UNDEFINED> instruction: 0x21280100
    2dec:	0000002c 	andeq	r0, r0, ip, lsr #32
    2df0:	00062520 	andeq	r2, r6, r0, lsr #10
    2df4:	32280100 	eorcc	r0, r8, #0
    2df8:	0000010f 	andeq	r0, r0, pc, lsl #2
    2dfc:	66666f21 	strbtvs	r6, [r6], -r1, lsr #30
    2e00:	0e2d0100 	sufeqe	f0, f5, f0
    2e04:	0000002c 	andeq	r0, r0, ip, lsr #32
    2e08:	01006721 	tsteq	r0, r1, lsr #14
    2e0c:	002c0e2e 	eoreq	r0, ip, lr, lsr #28
    2e10:	76210000 	strtvc	r0, [r1], -r0
    2e14:	0e300100 	rsfeqs	f0, f0, f0
    2e18:	0000002c 	andeq	r0, r0, ip, lsr #32
    2e1c:	05cc2200 	strbeq	r2, [ip, #512]	; 0x200
    2e20:	b6020000 	strlt	r0, [r2], -r0
    2e24:	00006918 	andeq	r6, r0, r8, lsl r9
    2e28:	05070300 	streq	r0, [r7, #-768]	; 0xfffffd00
    2e2c:	781f0000 	ldmdavc	pc, {}	; <UNPREDICTABLE>
    2e30:	2bb60200 	blcs	fed83638 <__bss_end__+0xfed78aa0>
    2e34:	00000069 	andeq	r0, r0, r9, rrx
    2e38:	04a52300 	strteq	r2, [r5], #768	; 0x300
    2e3c:	8f5c0000 	svchi	0x005c0000
    2e40:	00600000 	rsbeq	r0, r0, r0
    2e44:	9c010000 	stcls	0, cr0, [r1], {-0}
    2e48:	000005e4 	andeq	r0, r0, r4, ror #11
    2e4c:	0004b215 	andeq	fp, r4, r5, lsl r2
    2e50:	0011b100 	andseq	fp, r1, r0, lsl #2
    2e54:	0011ad00 	andseq	sl, r1, r0, lsl #26
    2e58:	04be1500 	ldrteq	r1, [lr], #1280	; 0x500
    2e5c:	11d60000 	bicsne	r0, r6, r0
    2e60:	11d20000 	bicsne	r0, r2, r0
    2e64:	ca1b0000 	bgt	6c2e6c <__bss_end__+0x6b82d4>
    2e68:	1b000004 	blne	2e80 <__code_start__-0x5180>
    2e6c:	000004d6 	ldrdeq	r0, [r0], -r6
    2e70:	0004e01b 	andeq	lr, r4, fp, lsl r0
    2e74:	04a51800 	strteq	r1, [r5], #2048	; 0x800
    2e78:	8f640000 	svchi	0x00640000
    2e7c:	38000000 	stmdacc	r0, {}	; <UNPREDICTABLE>
    2e80:	01000000 	mrseq	r0, (UNDEF: 0)
    2e84:	be150628 	cfmsub32lt	mvax1, mvfx0, mvfx5, mvfx8
    2e88:	fb000004 	blx	2ea2 <__code_start__-0x515e>
    2e8c:	f7000011 			; <UNDEFINED> instruction: 0xf7000011
    2e90:	15000011 	strne	r0, [r0, #-17]	; 0xffffffef
    2e94:	000004b2 			; <UNDEFINED> instruction: 0x000004b2
    2e98:	00001220 	andeq	r1, r0, r0, lsr #4
    2e9c:	0000121c 	andeq	r1, r0, ip, lsl r2
    2ea0:	0000381a 	andeq	r3, r0, sl, lsl r8
    2ea4:	04ca1c00 	strbeq	r1, [sl], #3072	; 0xc00
    2ea8:	12450000 	subne	r0, r5, #0, 0
    2eac:	12410000 	subne	r0, r1, #0, 0
    2eb0:	d61c0000 	ldrle	r0, [ip], -r0
    2eb4:	91000004 	tstls	r0, r4
    2eb8:	8b000012 	blhi	2f08 <__code_start__-0x50f8>
    2ebc:	1c000012 	stcne	0, cr0, [r0], {18}
    2ec0:	000004e0 	andeq	r0, r0, r0, ror #9
    2ec4:	000012e7 	andeq	r1, r0, r7, ror #5
    2ec8:	000012df 	ldrdeq	r1, [r0], -pc	; <UNPREDICTABLE>
    2ecc:	008f9c1d 	addeq	r9, pc, sp, lsl ip	; <UNPREDICTABLE>
    2ed0:	00065e00 	andeq	r5, r6, r0, lsl #28
    2ed4:	0005ae00 	andeq	sl, r5, r0, lsl #28
    2ed8:	50011200 	andpl	r1, r1, r0, lsl #4
    2edc:	00007602 	andeq	r7, r0, r2, lsl #12
    2ee0:	008fb816 	addeq	fp, pc, r6, lsl r8	; <UNPREDICTABLE>
    2ee4:	00066a00 	andeq	r6, r6, r0, lsl #20
    2ee8:	50011200 	andpl	r1, r1, r0, lsl #4
    2eec:	5001f325 	andpl	pc, r1, r5, lsr #6
    2ef0:	25f72cf7 	ldrbcs	r2, [r7, #3319]!	; 0xcf7
    2ef4:	cd0825f4 	cfstr32gt	mvfx2, [r8, #-976]	; 0xfffffc30
    2ef8:	00cccccc 	sbceq	ip, ip, ip, asr #25
    2efc:	1e000000 	cdpne	0, 0, cr0, cr0, cr0, {0}
    2f00:	25f72008 	ldrbcs	r2, [r7, #8]!
    2f04:	f72cf725 			; <UNDEFINED> instruction: 0xf72cf725
    2f08:	23253300 			; <UNDEFINED> instruction: 0x23253300
    2f0c:	40a08080 	adcmi	r8, r0, r0, lsl #1
    2f10:	00002432 	andeq	r2, r0, r2, lsr r4
    2f14:	8d230000 	stchi	0, cr0, [r3, #-0]
    2f18:	14000003 	strne	r0, [r0], #-3
    2f1c:	18000090 	stmdane	r0, {r4, r7}
    2f20:	01000000 	mrseq	r0, (UNDEF: 0)
    2f24:	0006219c 	muleq	r6, ip, r1
    2f28:	039a1500 	orrseq	r1, sl, #0, 10
    2f2c:	133d0000 	teqne	sp, #0, 0
    2f30:	13370000 	teqne	r7, #0, 0
    2f34:	28160000 	ldmdacs	r6, {}	; <UNPREDICTABLE>
    2f38:	6a000090 	bvs	3180 <__code_start__-0x4e80>
    2f3c:	12000006 	andne	r0, r0, #6, 0
    2f40:	0c055001 	stceq	0, cr5, [r5], {1}
    2f44:	2020001c 	eorcs	r0, r0, ip, lsl r0
    2f48:	05510112 	ldrbeq	r0, [r1, #-274]	; 0xfffffeee
    2f4c:	5001f331 	andpl	pc, r1, r1, lsr r3	; <UNPREDICTABLE>
    2f50:	23000024 	movwcs	r0, #36	; 0x24
    2f54:	00000373 	andeq	r0, r0, r3, ror r3
    2f58:	0000902c 	andeq	r9, r0, ip, lsr #32
    2f5c:	00000018 	andeq	r0, r0, r8, lsl r0
    2f60:	065e9c01 	ldrbeq	r9, [lr], -r1, lsl #24
    2f64:	80150000 	andshi	r0, r5, r0
    2f68:	6f000003 	svcvs	0x00000003
    2f6c:	69000013 	stmdbvs	r0, {r0, r1, r4}
    2f70:	16000013 			; <UNDEFINED> instruction: 0x16000013
    2f74:	00009040 	andeq	r9, r0, r0, asr #32
    2f78:	0000066a 	andeq	r0, r0, sl, ror #12
    2f7c:	05500112 	ldrbeq	r0, [r0, #-274]	; 0xfffffeee
    2f80:	2000280c 	andcs	r2, r0, ip, lsl #16
    2f84:	51011220 	tstpl	r1, r0, lsr #4
    2f88:	01f33105 	mvnseq	r3, r5, lsl #2
    2f8c:	00002450 	andeq	r2, r0, r0, asr r4
    2f90:	0005e624 	andeq	lr, r5, r4, lsr #12
    2f94:	0005e600 	andeq	lr, r5, r0, lsl #12
    2f98:	0ac70200 	beq	ff1c37a0 <__bss_end__+0xff1b8c08>
    2f9c:	0005d624 	andeq	sp, r5, r4, lsr #12
    2fa0:	0005d600 	andeq	sp, r5, r0, lsl #12
    2fa4:	06b20200 	ldrteq	r0, [r2], r0, lsl #4
    2fa8:	00019d00 	andeq	r9, r1, r0, lsl #26
    2fac:	50000400 	andpl	r0, r0, r0, lsl #8
    2fb0:	04000008 	streq	r0, [r0], #-8
    2fb4:	00063601 	andeq	r3, r6, r1, lsl #12
    2fb8:	07660c00 	strbeq	r0, [r6, -r0, lsl #24]!
    2fbc:	07100000 	ldreq	r0, [r0, -r0]
    2fc0:	90f40000 	rscsls	r0, r4, r0
    2fc4:	00580000 	subseq	r0, r8, r0
    2fc8:	0fdd0000 	svceq	0x00dd0000
    2fcc:	52020000 	andpl	r0, r2, #0, 0
    2fd0:	02000007 	andeq	r0, r0, #7, 0
    2fd4:	00311b28 	eorseq	r1, r1, r8, lsr #22
    2fd8:	76030000 	strvc	r0, [r3], -r0
    2fdc:	04000007 	streq	r0, [r0], #-7
    2fe0:	00480004 	subeq	r0, r8, r4
    2fe4:	61040000 	mrsvs	r0, (UNDEF: 4)
    2fe8:	48000007 	stmdami	r0, {r0, r1, r2}
    2fec:	00000000 	andeq	r0, r0, r0
    2ff0:	02040500 	andeq	r0, r4, #0, 10
    2ff4:	00000778 	andeq	r0, r0, r8, ror r7
    2ff8:	25186302 	ldrcs	r6, [r8, #-770]	; 0xfffffcfe
    2ffc:	06000000 	streq	r0, [r0], -r0
    3000:	6e690504 	cdpvs	5, 6, cr0, cr9, cr4, {0}
    3004:	04070074 	streq	r0, [r7], #-116	; 0xffffff8c
    3008:	0001a007 	andeq	sl, r1, r7
    300c:	06010700 	streq	r0, [r1], -r0, lsl #14
    3010:	00000175 	andeq	r0, r0, r5, ror r1
    3014:	2e050207 	cdpcs	2, 0, cr0, cr5, cr7, {0}
    3018:	07000000 	streq	r0, [r0, -r0]
    301c:	00ff0504 	rscseq	r0, pc, r4, lsl #10
    3020:	08070000 	stmdaeq	r7, {}	; <UNPREDICTABLE>
    3024:	0000fa05 	andeq	pc, r0, r5, lsl #20
    3028:	08010700 	stmdaeq	r1, {r8, r9, sl}
    302c:	00000173 	andeq	r0, r0, r3, ror r1
    3030:	ef070207 	svc	0x00070207
    3034:	07000001 	streq	r0, [r0, -r1]
    3038:	019b0704 	orrseq	r0, fp, r4, lsl #14
    303c:	08070000 	stmdaeq	r7, {}	; <UNPREDICTABLE>
    3040:	00019607 	andeq	r9, r1, r7, lsl #12
    3044:	00560800 	subseq	r0, r6, r0, lsl #16
    3048:	00ab0000 	adceq	r0, fp, r0
    304c:	56090000 	strpl	r0, [r9], -r0
    3050:	00000000 	andeq	r0, r0, r0
    3054:	00005a0a 	andeq	r5, r0, sl, lsl #20
    3058:	0e1c0300 	cdpeq	3, 1, cr0, cr12, cr0, {0}
    305c:	000000b7 	strheq	r0, [r0], -r7
    3060:	009c040b 	addseq	r0, ip, fp, lsl #8
    3064:	56080000 	strpl	r0, [r8], -r0
    3068:	cc000000 	stcgt	0, cr0, [r0], {-0}
    306c:	09000000 	stmdbeq	r0, {}	; <UNPREDICTABLE>
    3070:	000000cc 	andeq	r0, r0, ip, asr #1
    3074:	d9040b00 	stmdble	r4, {r8, r9, fp}
    3078:	07000000 	streq	r0, [r0, -r0]
    307c:	017c0801 	cmneq	ip, r1, lsl #16
    3080:	d20c0000 	andle	r0, ip, #0, 0
    3084:	0a000000 	beq	308c <__code_start__-0x4f74>
    3088:	00000789 	andeq	r0, r0, r9, lsl #15
    308c:	ea0e2103 	b	38b4a0 <__bss_end__+0x380908>
    3090:	0b000000 	bleq	3098 <__code_start__-0x4f68>
    3094:	0000bd04 	andeq	fp, r0, r4, lsl #26
    3098:	074b0d00 	strbeq	r0, [fp, -r0, lsl #26]
    309c:	06010000 	streq	r0, [r1], -r0
    30a0:	00005605 	andeq	r5, r0, r5, lsl #12
    30a4:	0090f400 	addseq	pc, r0, r0, lsl #8
    30a8:	00005800 	andeq	r5, r0, r0, lsl #16
    30ac:	839c0100 	orrshi	r0, ip, #0
    30b0:	0e000001 	cdpeq	0, 0, cr0, cr0, cr1, {0}
    30b4:	00746d66 	rsbseq	r6, r4, r6, ror #26
    30b8:	cc180601 	ldcgt	6, cr0, [r8], {1}
    30bc:	02000000 	andeq	r0, r0, #0, 0
    30c0:	100f7091 	mulne	pc, r1, r0	; <UNPREDICTABLE>
    30c4:	00667562 	rsbeq	r7, r6, r2, ror #10
    30c8:	83110801 	tsthi	r1, #65536	; 0x10000
    30cc:	05000001 	streq	r0, [r0, #-1]
    30d0:	00a79003 	adceq	r9, r7, r3
    30d4:	07431100 	strbeq	r1, [r3, -r0, lsl #2]
    30d8:	09010000 	stmdbeq	r1, {}	; <UNPREDICTABLE>
    30dc:	00004a0d 	andeq	r4, r0, sp, lsl #20
    30e0:	5c910200 	lfmpl	f0, 4, [r1], {0}
    30e4:	007a7312 	rsbseq	r7, sl, r2, lsl r3
    30e8:	560d0c01 	strpl	r0, [sp], -r1, lsl #24
    30ec:	a1000000 	mrsge	r0, (UNDEF: 0)
    30f0:	9b000013 	blls	3144 <__code_start__-0x4ebc>
    30f4:	13000013 	movwne	r0, #19
    30f8:	0000911c 	andeq	r9, r0, ip, lsl r1
    30fc:	00000194 	muleq	r0, r4, r1
    3100:	00000176 	andeq	r0, r0, r6, ror r1
    3104:	02500114 	subseq	r0, r0, #5
    3108:	01140075 	tsteq	r4, r5, ror r0
    310c:	000a0351 	andeq	r0, sl, r1, asr r3
    3110:	52011404 	andpl	r1, r1, #4, 8	; 0x4000000
    3114:	06489103 	strbeq	r9, [r8], -r3, lsl #2
    3118:	02530114 	subseq	r0, r3, #5
    311c:	15004c91 	strne	r4, [r0, #-3217]	; 0xfffff36f
    3120:	00009130 	andeq	r9, r0, r0, lsr r1
    3124:	02500114 	subseq	r0, r0, #5
    3128:	00000075 	andeq	r0, r0, r5, ror r0
    312c:	0000d216 	andeq	sp, r0, r6, lsl r2
    3130:	00019400 	andeq	r9, r1, r0, lsl #8
    3134:	005d1700 	subseq	r1, sp, r0, lsl #14
    3138:	03ff0000 	mvnseq	r0, #0, 0
    313c:	07481800 	strbeq	r1, [r8, -r0, lsl #16]
    3140:	07480000 	strbeq	r0, [r8, -r0]
    3144:	02050000 	andeq	r0, r5, #0, 0
    3148:	00f30005 	rscseq	r0, r3, r5
    314c:	00040000 	andeq	r0, r4, r0
    3150:	00000992 	muleq	r0, r2, r9
    3154:	06360104 	ldrteq	r0, [r6], -r4, lsl #2
    3158:	8e0c0000 	cdphi	0, 0, cr0, cr12, cr0, {0}
    315c:	10000007 	andne	r0, r0, r7
    3160:	4c000007 	stcmi	0, cr0, [r0], {7}
    3164:	38000091 	stmdacc	r0, {r0, r4, r7}
    3168:	01000000 	mrseq	r0, (UNDEF: 0)
    316c:	02000011 	andeq	r0, r0, #17, 0
    3170:	6e690504 	cdpvs	5, 6, cr0, cr9, cr4, {0}
    3174:	04030074 	streq	r0, [r3], #-116	; 0xffffff8c
    3178:	0001a007 	andeq	sl, r1, r7
    317c:	06010300 	streq	r0, [r1], -r0, lsl #6
    3180:	00000175 	andeq	r0, r0, r5, ror r1
    3184:	2e050203 	cdpcs	2, 0, cr0, cr5, cr3, {0}
    3188:	03000000 	movweq	r0, #0
    318c:	00ff0504 	rscseq	r0, pc, r4, lsl #10
    3190:	08030000 	stmdaeq	r3, {}	; <UNPREDICTABLE>
    3194:	0000fa05 	andeq	pc, r0, r5, lsl #20
    3198:	08010300 	stmdaeq	r1, {r8, r9}
    319c:	00000173 	andeq	r0, r0, r3, ror r1
    31a0:	ef070203 	svc	0x00070203
    31a4:	03000001 	movweq	r0, #1
    31a8:	019b0704 	orrseq	r0, fp, r4, lsl #14
    31ac:	08030000 	stmdaeq	r3, {}	; <UNPREDICTABLE>
    31b0:	00019607 	andeq	r9, r1, r7, lsl #12
    31b4:	00250400 	eoreq	r0, r5, r0, lsl #8
    31b8:	007a0000 	rsbseq	r0, sl, r0
    31bc:	25050000 	strcs	r0, [r5, #-0]
    31c0:	00000000 	andeq	r0, r0, r0
    31c4:	00005a06 	andeq	r5, r0, r6, lsl #20
    31c8:	0e1c0200 	cdpeq	2, 1, cr0, cr12, cr0, {0}
    31cc:	00000086 	andeq	r0, r0, r6, lsl #1
    31d0:	006b0407 	rsbeq	r0, fp, r7, lsl #8
    31d4:	25040000 	strcs	r0, [r4, #-0]
    31d8:	9b000000 	blls	31e0 <__code_start__-0x4e20>
    31dc:	05000000 	streq	r0, [r0, #-0]
    31e0:	0000009b 	muleq	r0, fp, r0
    31e4:	a8040700 	stmdage	r4, {r8, r9, sl}
    31e8:	03000000 	movweq	r0, #0
    31ec:	017c0801 	cmneq	ip, r1, lsl #16
    31f0:	a1080000 	mrsge	r0, (UNDEF: 8)
    31f4:	06000000 	streq	r0, [r0], -r0
    31f8:	00000789 	andeq	r0, r0, r9, lsl #15
    31fc:	b90e2102 	stmdblt	lr, {r1, r8, sp}
    3200:	07000000 	streq	r0, [r0, -r0]
    3204:	00008c04 	andeq	r8, r0, r4, lsl #24
    3208:	00ad0900 	adceq	r0, sp, r0, lsl #18
    320c:	0c010000 	stceq	0, cr0, [r1], {-0}
    3210:	84030507 	strhi	r0, [r3], #-1287	; 0xfffffaf9
    3214:	0a0000a7 	beq	34b8 <__code_start__-0x4b48>
    3218:	00000780 	andeq	r0, r0, r0, lsl #15
    321c:	25050401 	strcs	r0, [r5, #-1025]	; 0xfffffbff
    3220:	4c000000 	stcmi	0, cr0, [r0], {-0}
    3224:	38000091 	stmdacc	r0, {r0, r4, r7}
    3228:	01000000 	mrseq	r0, (UNDEF: 0)
    322c:	00700b9c 			; <UNDEFINED> instruction: 0x00700b9c
    3230:	9b1f0401 	blls	7c423c <__bss_end__+0x7b96a4>
    3234:	d2000000 	andle	r0, r0, #0, 0
    3238:	ca000013 	bgt	328c <__code_start__-0x4d74>
    323c:	00000013 	andeq	r0, r0, r3, lsl r0
    3240:	000c7f00 	andeq	r7, ip, r0, lsl #30
    3244:	30000400 	andcc	r0, r0, r0, lsl #8
    3248:	0400000a 	streq	r0, [r0], #-10
    324c:	00063601 	andeq	r3, r6, r1, lsl #12
    3250:	07ad0c00 	streq	r0, [sp, r0, lsl #24]!
    3254:	07100000 	ldreq	r0, [r0, -r0]
    3258:	91840000 	orrls	r0, r4, r0
    325c:	09b40000 	ldmibeq	r4!, {}	; <UNPREDICTABLE>
    3260:	11a50000 			; <UNDEFINED> instruction: 0x11a50000
    3264:	08020000 	stmdaeq	r2, {}	; <UNPREDICTABLE>
    3268:	00019607 	andeq	r9, r1, r7, lsl #12
    326c:	07040200 	streq	r0, [r4, -r0, lsl #4]
    3270:	000001a0 	andeq	r0, r0, r0, lsr #3
    3274:	69050403 	stmdbvs	r5, {r0, r1, sl}
    3278:	0200746e 	andeq	r7, r0, #1845493760	; 0x6e000000
    327c:	01750601 	cmneq	r5, r1, lsl #12
    3280:	02020000 	andeq	r0, r2, #0, 0
    3284:	00002e05 	andeq	r2, r0, r5, lsl #28
    3288:	05040200 	streq	r0, [r4, #-512]	; 0xfffffe00
    328c:	000000ff 	strdeq	r0, [r0], -pc	; <UNPREDICTABLE>
    3290:	fa050802 	blx	1452a0 <__bss_end__+0x13a708>
    3294:	02000000 	andeq	r0, r0, #0, 0
    3298:	01730801 	cmneq	r3, r1, lsl #16
    329c:	02020000 	andeq	r0, r2, #0, 0
    32a0:	0001ef07 	andeq	lr, r1, r7, lsl #30
    32a4:	01ad0400 			; <UNDEFINED> instruction: 0x01ad0400
    32a8:	34020000 	strcc	r0, [r2], #-0
    32ac:	00007019 	andeq	r7, r0, r9, lsl r0
    32b0:	07040200 	streq	r0, [r4, -r0, lsl #4]
    32b4:	0000019b 	muleq	r0, fp, r1
    32b8:	0007a404 	andeq	sl, r7, r4, lsl #8
    32bc:	19370200 	ldmdbne	r7!, {r9}
    32c0:	00000025 	andeq	r0, r0, r5, lsr #32
    32c4:	00003305 	andeq	r3, r0, r5, lsl #6
    32c8:	00009200 	andeq	r9, r0, r0, lsl #4
    32cc:	00330600 	eorseq	r0, r3, r0, lsl #12
    32d0:	07000000 	streq	r0, [r0, -r0]
    32d4:	0000005a 	andeq	r0, r0, sl, asr r0
    32d8:	9e0e1c03 	cdpls	12, 0, cr1, cr14, cr3, {0}
    32dc:	08000000 	stmdaeq	r0, {}	; <UNPREDICTABLE>
    32e0:	00008304 	andeq	r8, r0, r4, lsl #6
    32e4:	00330500 	eorseq	r0, r3, r0, lsl #10
    32e8:	00b30000 	adcseq	r0, r3, r0
    32ec:	b3060000 	movwlt	r0, #24576	; 0x6000
    32f0:	00000000 	andeq	r0, r0, r0
    32f4:	00c00408 	sbceq	r0, r0, r8, lsl #8
    32f8:	01020000 	mrseq	r0, (UNDEF: 2)
    32fc:	00017c08 	andeq	r7, r1, r8, lsl #24
    3300:	00b90900 	adcseq	r0, r9, r0, lsl #18
    3304:	89070000 	stmdbhi	r7, {}	; <UNPREDICTABLE>
    3308:	03000007 	movweq	r0, #7
    330c:	00d10e21 	sbcseq	r0, r1, r1, lsr #28
    3310:	04080000 	streq	r0, [r8], #-0
    3314:	000000a4 	andeq	r0, r0, r4, lsr #1
    3318:	0007c007 	andeq	ip, r7, r7
    331c:	0d0b0400 	cfstrseq	mvf0, [fp, #-0]
    3320:	000000b9 	strheq	r0, [r0], -r9
    3324:	00084907 	andeq	r4, r8, r7, lsl #18
    3328:	0d0c0400 	cfstrseq	mvf0, [ip, #-0]
    332c:	000000b9 	strheq	r0, [r0], -r9
    3330:	0007cf07 	andeq	ip, r7, r7, lsl #30
    3334:	0d0d0400 	cfstrseq	mvf0, [sp, #-0]
    3338:	000000b9 	strheq	r0, [r0], -r9
    333c:	00080107 	andeq	r0, r8, r7, lsl #2
    3340:	0d0e0400 	cfstrseq	mvf0, [lr, #-0]
    3344:	000000b9 	strheq	r0, [r0], -r9
    3348:	00087207 	andeq	r7, r8, r7, lsl #4
    334c:	0d0f0400 	cfstrseq	mvf0, [pc, #-0]	; 3354 <__code_start__-0x4cac>
    3350:	000000b9 	strheq	r0, [r0], -r9
    3354:	0007e307 	andeq	lr, r7, r7, lsl #6
    3358:	0d100400 	cfldrseq	mvf0, [r0, #-0]
    335c:	000000b9 	strheq	r0, [r0], -r9
    3360:	00088107 	andeq	r8, r8, r7, lsl #2
    3364:	0d110400 	cfldrseq	mvf0, [r1, #-0]
    3368:	000000b9 	strheq	r0, [r0], -r9
    336c:	00080d07 	andeq	r0, r8, r7, lsl #26
    3370:	0d120400 	cfldrseq	mvf0, [r2, #-0]
    3374:	000000b9 	strheq	r0, [r0], -r9
    3378:	00075204 	andeq	r5, r7, r4, lsl #4
    337c:	1b280500 	blne	a04784 <__bss_end__+0x9f9bec>
    3380:	00000143 	andeq	r0, r0, r3, asr #2
    3384:	0007760a 	andeq	r7, r7, sl, lsl #12
    3388:	00060400 	andeq	r0, r6, r0, lsl #8
    338c:	0000015a 	andeq	r0, r0, sl, asr r1
    3390:	0007610b 	andeq	r6, r7, fp, lsl #2
    3394:	00015a00 	andeq	r5, r1, r0, lsl #20
    3398:	0c000000 	stceq	0, cr0, [r0], {-0}
    339c:	07780404 	ldrbeq	r0, [r8, -r4, lsl #8]!
    33a0:	63050000 	movwvs	r0, #20480	; 0x5000
    33a4:	00013718 	andeq	r3, r1, r8, lsl r7
    33a8:	07480d00 	strbeq	r0, [r8, -r0, lsl #26]
    33ac:	81010000 	mrshi	r0, (UNDEF: 1)
    33b0:	00003305 	andeq	r3, r0, r5, lsl #6
    33b4:	00950c00 	addseq	r0, r5, r0, lsl #24
    33b8:	00062c00 	andeq	r2, r6, r0, lsl #24
    33bc:	6a9c0100 	bvs	fe7037c4 <__bss_end__+0xfe6f8c2c>
    33c0:	0e000008 	cdpeq	0, 0, cr0, cr0, cr8, {0}
    33c4:	00667562 	rsbeq	r7, r6, r2, ror #10
    33c8:	6a158101 	bvs	5637d4 <__bss_end__+0x558c3c>
    33cc:	12000008 	andne	r0, r0, #8, 0
    33d0:	08000014 	stmdaeq	r0, {r2, r4}
    33d4:	0e000014 	mcreq	0, 0, r0, cr0, cr4, {0}
    33d8:	8101006e 	tsthi	r1, lr, rrx
    33dc:	0000331e 	andeq	r3, r0, lr, lsl r3
    33e0:	00145f00 	andseq	r5, r4, r0, lsl #30
    33e4:	00145700 	andseq	r5, r4, r0, lsl #14
    33e8:	6d660e00 	stclvs	14, cr0, [r6, #-0]
    33ec:	81010074 	tsthi	r1, r4, ror r0
    33f0:	0000b32d 	andeq	fp, r0, sp, lsr #6
    33f4:	0014b100 	andseq	fp, r4, r0, lsl #2
    33f8:	00149900 	andseq	r9, r4, r0, lsl #18
    33fc:	07430f00 	strbeq	r0, [r3, -r0, lsl #30]
    3400:	81010000 	mrshi	r0, (UNDEF: 1)
    3404:	00015c3a 	andeq	r5, r1, sl, lsr ip
    3408:	00157500 	andseq	r7, r5, r0, lsl #10
    340c:	00154500 	andseq	r4, r5, r0, lsl #10
    3410:	00701000 	rsbseq	r1, r0, r0
    3414:	6a088201 	bvs	223c20 <__bss_end__+0x219088>
    3418:	d5000008 	strle	r0, [r0, #-8]
    341c:	bf000016 	svclt	0x00000016
    3420:	10000016 	andne	r0, r0, r6, lsl r0
    3424:	82010065 	andhi	r0, r1, #101, 0	; 0x65
    3428:	00086a12 	andeq	r6, r8, r2, lsl sl
    342c:	00175e00 	andseq	r5, r7, r0, lsl #28
    3430:	00175c00 	andseq	r5, r7, r0, lsl #24
    3434:	30781000 	rsbscc	r1, r8, r0
    3438:	0e830100 	rmfeqs	f0, f3, f0
    343c:	00000064 	andeq	r0, r0, r4, rrx
    3440:	00001777 	andeq	r1, r0, r7, ror r7
    3444:	00001771 	andeq	r1, r0, r1, ror r7
    3448:	00317810 	eorseq	r7, r1, r0, lsl r8
    344c:	64118301 	ldrvs	r8, [r1], #-769	; 0xfffffcff
    3450:	a6000000 	strge	r0, [r0], -r0
    3454:	a0000017 	andge	r0, r0, r7, lsl r0
    3458:	11000017 	tstne	r0, r7, lsl r0
    345c:	0000082b 	andeq	r0, r0, fp, lsr #16
    3460:	b3118601 	tstlt	r1, #1048576	; 0x100000
    3464:	d7000000 	strle	r0, [r0, -r0]
    3468:	cf000017 	svcgt	0x00000017
    346c:	12000017 	andne	r0, r0, #23, 0
    3470:	00000122 	andeq	r0, r0, r2, lsr #2
    3474:	00000880 	andeq	r0, r0, r0, lsl #17
    3478:	a7500305 	ldrbge	r0, [r0, -r5, lsl #6]
    347c:	58130000 	ldmdapl	r3, {}	; <UNPREDICTABLE>
    3480:	10000001 	andne	r0, r0, r1
    3484:	91010073 	tstls	r1, r3, ror r0
    3488:	00086a0a 	andeq	r6, r8, sl, lsl #20
    348c:	00181d00 	andseq	r1, r8, r0, lsl #26
    3490:	00181100 	andseq	r1, r8, r0, lsl #2
    3494:	756e1400 	strbvc	r1, [lr, #-1024]!	; 0xfffffc00
    3498:	9101006d 	tstls	r1, sp, rrx
    349c:	0008850d 	andeq	r8, r8, sp, lsl #10
    34a0:	d8910300 	ldmle	r1, {r8, r9}
    34a4:	088e157d 	stmeq	lr, {r0, r2, r3, r4, r5, r6, r8, sl, ip}
    34a8:	91010000 	mrsls	r0, (UNDEF: 1)
    34ac:	00088517 	andeq	r8, r8, r7, lsl r5
    34b0:	d8910300 	ldmle	r1, {r8, r9}
    34b4:	07dd117e 			; <UNDEFINED> instruction: 0x07dd117e
    34b8:	92010000 	andls	r0, r1, #0, 0
    34bc:	00002c0d 	andeq	r2, r0, sp, lsl #24
    34c0:	00186f00 	andseq	r6, r8, r0, lsl #30
    34c4:	00186700 	andseq	r6, r8, r0, lsl #14
    34c8:	01801600 	orreq	r1, r0, r0, lsl #12
    34cc:	04f10000 	ldrbteq	r0, [r1], #0
    34d0:	74100000 	ldrvc	r0, [r0], #-0
    34d4:	9e010079 	mcrls	0, 0, r0, cr1, cr9, {3}
    34d8:	0000b31d 	andeq	fp, r0, sp, lsl r3
    34dc:	0018b000 	andseq	fp, r8, r0
    34e0:	0018a400 	andseq	sl, r8, r0, lsl #8
    34e4:	78781400 	ldmdavc	r8!, {sl, ip}^
    34e8:	1aa20100 	bne	fe8838f0 <__bss_end__+0xfe878d58>
    34ec:	00000077 	andeq	r0, r0, r7, ror r0
    34f0:	04935906 	ldreq	r5, [r3], #2310	; 0x906
    34f4:	1704935b 	smlsdne	r4, fp, r3, r9
    34f8:	00009698 	muleq	r0, r8, r6
    34fc:	00000c3a 	andeq	r0, r0, sl, lsr ip
    3500:	000002d8 	ldrdeq	r0, [r0], -r8
    3504:	02500118 	subseq	r0, r0, #6
    3508:	01180076 	tsteq	r8, r6, ror r0
    350c:	44030551 	strmi	r0, [r3], #-1361	; 0xfffffaaf
    3510:	180000a6 	stmdane	r0, {r1, r2, r5, r7}
    3514:	33015201 	movwcc	r5, #4609	; 0x1201
    3518:	96b01700 	ldrtls	r1, [r0], r0, lsl #14
    351c:	0c3a0000 	ldceq	0, cr0, [sl], #-0
    3520:	02fa0000 	rscseq	r0, sl, #0, 0
    3524:	01180000 	tsteq	r8, r0
    3528:	00760250 	rsbseq	r0, r6, r0, asr r2
    352c:	05510118 	ldrbeq	r0, [r1, #-280]	; 0xfffffee8
    3530:	00a65803 	adceq	r5, r6, r3, lsl #16
    3534:	52011800 	andpl	r1, r1, #0, 16
    3538:	17003301 	strne	r3, [r0, -r1, lsl #6]
    353c:	000096d4 	ldrdeq	r9, [r0], -r4
    3540:	00000c46 	andeq	r0, r0, r6, asr #24
    3544:	00000317 	andeq	r0, r0, r7, lsl r3
    3548:	05500118 	ldrbeq	r0, [r0, #-280]	; 0xfffffee8
    354c:	00a64803 	adceq	r4, r6, r3, lsl #16
    3550:	51011800 	tstpl	r1, r0, lsl #16
    3554:	00007b02 	andeq	r7, r0, r2, lsl #22
    3558:	0096e017 	addseq	lr, r6, r7, lsl r0
    355c:	000c4600 	andeq	r4, ip, r0, lsl #12
    3560:	00033400 	andeq	r3, r3, r0, lsl #8
    3564:	50011800 	andpl	r1, r1, r0, lsl #16
    3568:	a6500305 	ldrbge	r0, [r0], -r5, lsl #6
    356c:	01180000 	tsteq	r8, r0
    3570:	00790251 	rsbseq	r0, r9, r1, asr r2
    3574:	96f01700 	ldrbtls	r1, [r0], r0, lsl #14
    3578:	0c3a0000 	ldceq	0, cr0, [sl], #-0
    357c:	03560000 	cmpeq	r6, #0, 0
    3580:	01180000 	tsteq	r8, r0
    3584:	00760250 	rsbseq	r0, r6, r0, asr r2
    3588:	05510118 	ldrbeq	r0, [r1, #-280]	; 0xfffffee8
    358c:	00a64403 	adceq	r4, r6, r3, lsl #8
    3590:	52011800 	andpl	r1, r1, #0, 16
    3594:	17003301 	strne	r3, [r0, -r1, lsl #6]
    3598:	00009720 	andeq	r9, r0, r0, lsr #14
    359c:	00000aa4 	andeq	r0, r0, r4, lsr #21
    35a0:	00000383 	andeq	r0, r0, r3, lsl #7
    35a4:	01500118 	cmpeq	r0, r8, lsl r1
    35a8:	51011840 	tstpl	r1, r0, asr #16
    35ac:	7dd09103 	ldfvcp	f1, [r0, #12]
    35b0:	02520118 	subseq	r0, r2, #6
    35b4:	0118007b 	tsteq	r8, fp, ror r0
    35b8:	00750253 	rsbseq	r0, r5, r3, asr r2
    35bc:	007d0218 	rsbseq	r0, sp, r8, lsl r2
    35c0:	00007602 	andeq	r7, r0, r2, lsl #12
    35c4:	00974017 	addseq	r4, r7, r7, lsl r0
    35c8:	000aa400 	andeq	sl, sl, r0, lsl #8
    35cc:	0003aa00 	andeq	sl, r3, r0, lsl #20
    35d0:	50011800 	andpl	r1, r1, r0, lsl #16
    35d4:	01184001 	tsteq	r8, r1
    35d8:	d0910351 	addsle	r0, r1, r1, asr r3
    35dc:	5201187e 	andpl	r1, r1, #8257536	; 0x7e0000
    35e0:	18007902 	stmdane	r0, {r1, r8, fp, ip, sp, lr}
    35e4:	02007d02 	andeq	r7, r0, #128	; 0x80
    35e8:	17000076 	smlsdxne	r0, r6, r0, r0
    35ec:	00009750 	andeq	r9, r0, r0, asr r7
    35f0:	00000c52 	andeq	r0, r0, r2, asr ip
    35f4:	000003c6 	andeq	r0, r0, r6, asr #7
    35f8:	03500118 	cmpeq	r0, #6
    35fc:	187dd091 	ldmdane	sp!, {r0, r4, r7, ip, lr, pc}^
    3600:	91035101 	tstls	r3, r1, lsl #2
    3604:	17007ed2 			; <UNDEFINED> instruction: 0x17007ed2
    3608:	00009994 	muleq	r0, r4, r9
    360c:	00000c3a 	andeq	r0, r0, sl, lsr ip
    3610:	000003e8 	andeq	r0, r0, r8, ror #7
    3614:	02500118 	subseq	r0, r0, #6
    3618:	01180076 	tsteq	r8, r6, ror r0
    361c:	58030551 	stmdapl	r3, {r0, r4, r6, r8, sl}
    3620:	180000a6 	stmdane	r0, {r1, r2, r5, r7}
    3624:	33015201 	movwcc	r5, #4609	; 0x1201
    3628:	99b81700 	ldmibls	r8!, {r8, r9, sl, ip}
    362c:	0aa40000 	beq	fe903634 <__bss_end__+0xfe8f8a9c>
    3630:	04150000 	ldreq	r0, [r5], #-0
    3634:	01180000 	tsteq	r8, r0
    3638:	183a0150 	ldmdane	sl!, {r4, r6, r8}
    363c:	91035101 	tstls	r3, r1, lsl #2
    3640:	01187dd0 			; <UNDEFINED> instruction: 0x01187dd0
    3644:	007b0252 	rsbseq	r0, fp, r2, asr r2
    3648:	02530118 	subseq	r0, r3, #6
    364c:	02180075 	andseq	r0, r8, #117, 0	; 0x75
    3650:	7602007d 			; <UNDEFINED> instruction: 0x7602007d
    3654:	d8170000 	ldmdale	r7, {}	; <UNPREDICTABLE>
    3658:	a4000099 	strge	r0, [r0], #-153	; 0xffffff67
    365c:	3c00000a 	stccc	0, cr0, [r0], {10}
    3660:	18000004 	stmdane	r0, {r2}
    3664:	3a015001 	bcc	57670 <__bss_end__+0x4cad8>
    3668:	03510118 	cmpeq	r1, #6
    366c:	187ed091 	ldmdane	lr!, {r0, r4, r7, ip, lr, pc}^
    3670:	79025201 	stmdbvc	r2, {r0, r9, ip, lr}
    3674:	7d021800 	stcvc	8, cr1, [r2, #-0]
    3678:	00760200 	rsbseq	r0, r6, r0, lsl #4
    367c:	99e41700 	stmibls	r4!, {r8, r9, sl, ip}^
    3680:	0c5e0000 	mraeq	r0, lr, acc0
    3684:	045a0000 	ldrbeq	r0, [sl], #-0
    3688:	01180000 	tsteq	r8, r0
    368c:	d0910350 	addsle	r0, r1, r0, asr r3
    3690:	5101187d 	tstpl	r1, sp, ror r8
    3694:	a4ec0305 	strbtge	r0, [ip], #773	; 0x305
    3698:	17000000 	strne	r0, [r0, -r0]
    369c:	000099f8 	strdeq	r9, [r0], -r8
    36a0:	00000c6a 	andeq	r0, r0, sl, ror #24
    36a4:	00000476 	andeq	r0, r0, r6, ror r4
    36a8:	03500118 	cmpeq	r0, #6
    36ac:	187dd091 	ldmdane	sp!, {r0, r4, r7, ip, lr, pc}^
    36b0:	91035101 	tstls	r3, r1, lsl #2
    36b4:	19007ed0 	stmdbne	r0, {r4, r6, r7, r9, sl, fp, ip, sp, lr}
    36b8:	00009a04 	andeq	r9, r0, r4, lsl #20
    36bc:	00000c52 	andeq	r0, r0, r2, asr ip
    36c0:	009ac817 	addseq	ip, sl, r7, lsl r8
    36c4:	000c4600 	andeq	r4, ip, r0, lsl #12
    36c8:	0004a800 	andeq	sl, r4, r0, lsl #16
    36cc:	50011800 	andpl	r1, r1, r0, lsl #16
    36d0:	a2a00305 	adcge	r0, r0, #335544320	; 0x14000000
    36d4:	01180000 	tsteq	r8, r0
    36d8:	f8030551 			; <UNDEFINED> instruction: 0xf8030551
    36dc:	180000a5 	stmdane	r0, {r0, r2, r5, r7}
    36e0:	03055201 	movweq	r5, #20993	; 0x5201
    36e4:	0000a750 	andeq	sl, r0, r0, asr r7
    36e8:	9acc1900 	bls	ff309af0 <__bss_end__+0xff2fef58>
    36ec:	0c760000 	ldcleq	0, cr0, [r6], #-0
    36f0:	e4170000 	ldr	r0, [r7], #-0
    36f4:	4600009a 			; <UNDEFINED> instruction: 0x4600009a
    36f8:	e700000c 	str	r0, [r0, -ip]
    36fc:	18000004 	stmdane	r0, {r2}
    3700:	03055001 	movweq	r5, #20481	; 0x5001
    3704:	0000a698 	muleq	r0, r8, r6
    3708:	05510118 	ldrbeq	r0, [r1, #-280]	; 0xfffffee8
    370c:	00a5f803 	adceq	pc, r5, r3, lsl #16
    3710:	52011800 	andpl	r1, r1, #0, 16
    3714:	a7500305 	ldrbge	r0, [r0, -r5, lsl #6]
    3718:	01180000 	tsteq	r8, r0
    371c:	b6080253 			; <UNDEFINED> instruction: 0xb6080253
    3720:	007d0218 	rsbseq	r0, sp, r8, lsl r2
    3724:	00007602 	andeq	r7, r0, r2, lsl #12
    3728:	009ae819 	addseq	lr, sl, r9, lsl r8
    372c:	000c7600 	andeq	r7, ip, r0, lsl #12
    3730:	e31a0000 	tst	sl, #0, 0
    3734:	98000009 	stmdals	r0, {r0, r3}
    3738:	04000095 	streq	r0, [r0], #-149	; 0xffffff6b
    373c:	0001a800 	andeq	sl, r1, r0, lsl #16
    3740:	0a940100 	beq	fe503b48 <__bss_end__+0xfe4f8fb0>
    3744:	00000515 	andeq	r0, r0, r5, lsl r5
    3748:	0009f41b 	andeq	pc, r9, fp, lsl r4	; <UNPREDICTABLE>
    374c:	00190c00 	andseq	r0, r9, r0, lsl #24
    3750:	00190800 	andseq	r0, r9, r0, lsl #16
    3754:	951a0000 	ldrls	r0, [sl, #-0]
    3758:	80000008 	andhi	r0, r0, r8
    375c:	01000097 	swpeq	r0, r7, [r0]	; <UNPREDICTABLE>
    3760:	0001c800 	andeq	ip, r1, r0, lsl #16
    3764:	09dc0100 	ldmibeq	ip, {r8}^
    3768:	0000064b 	andeq	r0, r0, fp, asr #12
    376c:	0008be1b 	andeq	fp, r8, fp, lsl lr
    3770:	00193a00 	andseq	r3, r9, r0, lsl #20
    3774:	00193400 	andseq	r3, r9, r0, lsl #8
    3778:	08e01b00 	stmiaeq	r0!, {r8, r9, fp, ip}^
    377c:	196f0000 	stmdbne	pc!, {}^	; <UNPREDICTABLE>
    3780:	19690000 	stmdbne	r9!, {}^	; <UNPREDICTABLE>
    3784:	d41b0000 	ldrle	r0, [fp], #-0
    3788:	a1000008 	tstge	r0, r8
    378c:	9b000019 	blls	37f8 <__code_start__-0x4808>
    3790:	1c000019 	stcne	0, cr0, [r0], {25}
    3794:	000008c8 	andeq	r0, r0, r8, asr #17
    3798:	0008b21b 	andeq	fp, r8, fp, lsl r2
    379c:	0019d200 	andseq	sp, r9, r0, lsl #4
    37a0:	0019ca00 	andseq	ip, r9, r0, lsl #20
    37a4:	08a61b00 	stmiaeq	r6!, {r8, r9, fp, ip}
    37a8:	1a150000 	bne	5437b0 <__bss_end__+0x538c18>
    37ac:	1a0f0000 	bne	3c37b4 <__bss_end__+0x3b8c1c>
    37b0:	c8130000 	ldmdagt	r3, {}	; <UNPREDICTABLE>
    37b4:	1d000001 	stcne	0, cr0, [r0, #-4]
    37b8:	000008ec 	andeq	r0, r0, ip, ror #17
    37bc:	7ed89103 	atnvce	f1, f3
    37c0:	0008f81e 	andeq	pc, r8, lr, lsl r8	; <UNPREDICTABLE>
    37c4:	001a4f00 	andseq	r4, sl, r0, lsl #30
    37c8:	001a4100 	andseq	r4, sl, r0, lsl #2
    37cc:	09021f00 	stmdbeq	r2, {r8, r9, sl, fp, ip}
    37d0:	a31a0000 	tstge	sl, #0, 0
    37d4:	8c000009 	stchi	0, cr0, [r0], {9}
    37d8:	04000097 	streq	r0, [r0], #-151	; 0xffffff69
    37dc:	0001f800 	andeq	pc, r1, r0, lsl #16
    37e0:	097c0100 	ldmdbeq	ip!, {r8}^
    37e4:	000005e2 	andeq	r0, r0, r2, ror #11
    37e8:	0009ca1b 	andeq	ip, r9, fp, lsl sl
    37ec:	001ab900 	andseq	fp, sl, r0, lsl #18
    37f0:	001ab300 	andseq	fp, sl, r0, lsl #6
    37f4:	09be1b00 	ldmibeq	lr!, {r8, r9, fp, ip}
    37f8:	1aee0000 	bne	ffb83800 <__bss_end__+0xffb78c68>
    37fc:	1ae20000 	bne	ff883804 <__bss_end__+0xff878c6c>
    3800:	b41b0000 	ldrlt	r0, [fp], #-0
    3804:	54000009 	strpl	r0, [r0], #-9
    3808:	4400001b 	strmi	r0, [r0], #-27	; 0xffffffe5
    380c:	1300001b 	movwne	r0, #27
    3810:	000001f8 	strdeq	r0, [r0], -r8
    3814:	0009d61e 	andeq	sp, r9, lr, lsl r6
    3818:	001bd100 	andseq	sp, fp, r0, lsl #2
    381c:	001bc300 	andseq	ip, fp, r0, lsl #6
    3820:	20000000 	andcs	r0, r0, r0
    3824:	0000094f 	andeq	r0, r0, pc, asr #18
    3828:	00009854 	andeq	r9, r0, r4, asr r8
    382c:	02280002 	eoreq	r0, r8, #2, 0
    3830:	7c010000 	stcvc	0, cr0, [r1], {-0}
    3834:	09801b09 	stmibeq	r0, {r0, r3, r8, r9, fp, ip}
    3838:	1c310000 	ldcne	0, cr0, [r1], #-0
    383c:	1c2b0000 	stcne	0, cr0, [fp], #-0
    3840:	761b0000 	ldrvc	r0, [fp], -r0
    3844:	67000009 	strvs	r0, [r0, -r9]
    3848:	5d00001c 	stcpl	0, cr0, [r0, #-112]	; 0xffffff90
    384c:	1b00001c 	blne	38c4 <__code_start__-0x473c>
    3850:	0000096c 	andeq	r0, r0, ip, ror #18
    3854:	00001cb6 			; <UNDEFINED> instruction: 0x00001cb6
    3858:	00001cb2 			; <UNDEFINED> instruction: 0x00001cb2
    385c:	0009601b 	andeq	r6, r9, fp, lsl r0
    3860:	001ce600 	andseq	lr, ip, r0, lsl #12
    3864:	001cd800 	andseq	sp, ip, r0, lsl #16
    3868:	02281300 	eoreq	r1, r8, #0, 6
    386c:	8c1e0000 	ldchi	0, cr0, [lr], {-0}
    3870:	4b000009 	blmi	389c <__code_start__-0x4764>
    3874:	4900001d 	stmdbmi	r0, {r0, r2, r3, r4}
    3878:	1e00001d 	mcrne	0, 0, r0, cr0, cr13, {0}
    387c:	00000998 	muleq	r0, r8, r9
    3880:	00001d65 	andeq	r1, r0, r5, ror #26
    3884:	00001d5f 	andeq	r1, r0, pc, asr sp
    3888:	00000000 	andeq	r0, r0, r0
    388c:	0008951a 	andeq	r9, r8, sl, lsl r5
    3890:	00989000 	addseq	r9, r8, r0
    3894:	58000000 	stmdapl	r0, {}	; <UNPREDICTABLE>
    3898:	01000002 	tsteq	r0, r2
    389c:	078909d6 			; <UNDEFINED> instruction: 0x078909d6
    38a0:	be1b0000 	cdplt	0, 1, cr0, cr11, cr0, {0}
    38a4:	98000008 	stmdals	r0, {r3}
    38a8:	9400001d 	strls	r0, [r0], #-29	; 0xffffffe3
    38ac:	1b00001d 	blne	3928 <__code_start__-0x46d8>
    38b0:	000008e0 	andeq	r0, r0, r0, ror #17
    38b4:	00001dbe 			; <UNDEFINED> instruction: 0x00001dbe
    38b8:	00001dba 			; <UNDEFINED> instruction: 0x00001dba
    38bc:	0008d41b 	andeq	sp, r8, fp, lsl r4
    38c0:	001de200 	andseq	lr, sp, r0, lsl #4
    38c4:	001dde00 	andseq	sp, sp, r0, lsl #28
    38c8:	08c81c00 	stmiaeq	r8, {sl, fp, ip}^
    38cc:	b21b0000 	andslt	r0, fp, #0, 0
    38d0:	06000008 	streq	r0, [r0], -r8
    38d4:	0000001e 	andeq	r0, r0, lr, lsl r0
    38d8:	1b00001e 	blne	3958 <__code_start__-0x46a8>
    38dc:	000008a6 	andeq	r0, r0, r6, lsr #17
    38e0:	00001e39 	andeq	r1, r0, r9, lsr lr
    38e4:	00001e35 	andeq	r1, r0, r5, lsr lr
    38e8:	00025813 	andeq	r5, r2, r3, lsl r8
    38ec:	08ec1d00 	stmiaeq	ip!, {r8, sl, fp, ip}^
    38f0:	91030000 	mrsls	r0, (UNDEF: 3)
    38f4:	f81e7ed8 			; <UNDEFINED> instruction: 0xf81e7ed8
    38f8:	63000008 	movwvs	r0, #8
    38fc:	5900001e 	stmdbpl	r0, {r1, r2, r3, r4}
    3900:	1e00001e 	mcrne	0, 0, r0, cr0, cr14, {0}
    3904:	00000902 	andeq	r0, r0, r2, lsl #18
    3908:	00001ea8 	andeq	r1, r0, r8, lsr #29
    390c:	00001ea4 	andeq	r1, r0, r4, lsr #29
    3910:	0009a31a 	andeq	sl, r9, sl, lsl r3
    3914:	0098ac00 	addseq	sl, r8, r0, lsl #24
    3918:	78000300 	stmdavc	r0, {r8, r9}
    391c:	01000002 	tsteq	r0, r2
    3920:	0720097c 			; <UNDEFINED> instruction: 0x0720097c
    3924:	ca1b0000 	bgt	6c392c <__bss_end__+0x6b8d94>
    3928:	ca000009 	bgt	3954 <__code_start__-0x46ac>
    392c:	c600001e 			; <UNDEFINED> instruction: 0xc600001e
    3930:	1b00001e 	blne	39b0 <__code_start__-0x4650>
    3934:	000009be 			; <UNDEFINED> instruction: 0x000009be
    3938:	00001eec 	andeq	r1, r0, ip, ror #29
    393c:	00001ee8 	andeq	r1, r0, r8, ror #29
    3940:	0009b41b 	andeq	fp, r9, fp, lsl r4
    3944:	001f1600 	andseq	r1, pc, r0, lsl #12
    3948:	001f0a00 	andseq	r0, pc, r0, lsl #20
    394c:	02781300 	rsbseq	r1, r8, #0, 6
    3950:	d61e0000 	ldrle	r0, [lr], -r0
    3954:	72000009 	andvc	r0, r0, #9, 0
    3958:	6600001f 			; <UNDEFINED> instruction: 0x6600001f
    395c:	0000001f 	andeq	r0, r0, pc, lsl r0
    3960:	094f2000 	stmdbeq	pc, {sp}^	; <UNPREDICTABLE>
    3964:	99340000 	ldmdbls	r4!, {}	; <UNPREDICTABLE>
    3968:	00020000 	andeq	r0, r2, r0
    396c:	000002a0 	andeq	r0, r0, r0, lsr #5
    3970:	1b097c01 	blne	26297c <__bss_end__+0x257de4>
    3974:	00000980 	andeq	r0, r0, r0, lsl #19
    3978:	00001fc2 	andeq	r1, r0, r2, asr #31
    397c:	00001fbe 			; <UNDEFINED> instruction: 0x00001fbe
    3980:	0009761b 	andeq	r7, r9, fp, lsl r6
    3984:	001fea00 	andseq	lr, pc, r0, lsl #20
    3988:	001fe000 	andseq	lr, pc, r0
    398c:	096c1b00 	stmdbeq	ip!, {r8, r9, fp, ip}^
    3990:	20360000 	eorscs	r0, r6, r0
    3994:	20320000 	eorscs	r0, r2, r0
    3998:	601b0000 	andsvs	r0, fp, r0
    399c:	64000009 	strvs	r0, [r0], #-9
    39a0:	58000020 	stmdapl	r0, {r5}
    39a4:	13000020 	movwne	r0, #32
    39a8:	000002a0 	andeq	r0, r0, r0, lsr #5
    39ac:	00098c1e 	andeq	r8, r9, lr, lsl ip
    39b0:	0020be00 	eoreq	fp, r0, r0, lsl #28
    39b4:	0020ba00 	eoreq	fp, r0, r0, lsl #20
    39b8:	09981e00 	ldmibeq	r8, {r9, sl, fp, ip}
    39bc:	20e40000 	rsccs	r0, r4, r0
    39c0:	20e00000 	rsccs	r0, r0, r0
    39c4:	00000000 	andeq	r0, r0, r0
    39c8:	60170000 	andsvs	r0, r7, r0
    39cc:	a4000096 	strge	r0, [r0], #-150	; 0xffffff6a
    39d0:	af00000a 	svcge	0x0000000a
    39d4:	18000007 	stmdane	r0, {r0, r1, r2}
    39d8:	40015001 	andmi	r5, r1, r1
    39dc:	03510118 	cmpeq	r1, #6
    39e0:	187dd091 	ldmdane	sp!, {r0, r4, r7, ip, lr, pc}^
    39e4:	75025301 	strvc	r5, [r2, #-769]	; 0xfffffcff
    39e8:	7d021800 	stcvc	8, cr1, [r2, #-0]
    39ec:	00300100 	eorseq	r0, r0, r0, lsl #2
    39f0:	00977017 	addseq	r7, r7, r7, lsl r0
    39f4:	000aa400 	andeq	sl, sl, r0, lsl #8
    39f8:	0007cf00 	andeq	ip, r7, r0, lsl #30
    39fc:	50011800 	andpl	r1, r1, r0, lsl #16
    3a00:	01183a01 	tsteq	r8, r1, lsl #20
    3a04:	d0910351 	addsle	r0, r1, r1, asr r3
    3a08:	5301187d 	movwpl	r1, #6269	; 0x187d
    3a0c:	00007502 	andeq	r7, r0, r2, lsl #10
    3a10:	009a5417 	addseq	r5, sl, r7, lsl r4
    3a14:	000c4600 	andeq	r4, ip, r0, lsl #12
    3a18:	0007e600 	andeq	lr, r7, r0, lsl #12
    3a1c:	50011800 	andpl	r1, r1, r0, lsl #16
    3a20:	a6e80305 	strbtge	r0, [r8], r5, lsl #6
    3a24:	21000000 	mrscs	r0, (UNDEF: 0)
    3a28:	00009a64 	andeq	r9, r0, r4, ror #20
    3a2c:	000007f8 	strdeq	r0, [r0], -r8
    3a30:	04500118 	ldrbeq	r0, [r0], #-280	; 0xfffffee8
    3a34:	067dc891 			; <UNDEFINED> instruction: 0x067dc891
    3a38:	9a781700 	bls	1e09640 <__bss_end__+0x1dfeaa8>
    3a3c:	0c460000 	mareq	acc0, r0, r6
    3a40:	08270000 	stmdaeq	r7!, {}	; <UNPREDICTABLE>
    3a44:	01180000 	tsteq	r8, r0
    3a48:	18030550 	stmdane	r3, {r4, r6, r8, sl}
    3a4c:	180000a7 	stmdane	r0, {r0, r1, r2, r5, r7}
    3a50:	03055101 	movweq	r5, #20737	; 0x5101
    3a54:	0000a5f8 	strdeq	sl, [r0], -r8
    3a58:	05520118 	ldrbeq	r0, [r2, #-280]	; 0xfffffee8
    3a5c:	00a75003 	adceq	r5, r7, r3
    3a60:	53011800 	movwpl	r1, #6144	; 0x1800
    3a64:	00e20802 	rsceq	r0, r2, r2, lsl #16
    3a68:	009a7c19 	addseq	r7, sl, r9, lsl ip
    3a6c:	000c7600 	andeq	r7, ip, r0, lsl #12
    3a70:	9a901700 	bls	fe409678 <__bss_end__+0xfe3feae0>
    3a74:	0c460000 	mareq	acc0, r0, r6
    3a78:	085f0000 	ldmdaeq	pc, {}^	; <UNPREDICTABLE>
    3a7c:	01180000 	tsteq	r8, r0
    3a80:	c0030550 	andgt	r0, r3, r0, asr r5
    3a84:	180000a6 	stmdane	r0, {r1, r2, r5, r7}
    3a88:	03055101 	movweq	r5, #20737	; 0x5101
    3a8c:	0000a5f8 	strdeq	sl, [r0], -r8
    3a90:	05520118 	ldrbeq	r0, [r2, #-280]	; 0xfffffee8
    3a94:	00a75003 	adceq	r5, r7, r3
    3a98:	53011800 	movwpl	r1, #6144	; 0x1800
    3a9c:	00be0802 	adcseq	r0, lr, r2, lsl #16
    3aa0:	009a9419 	addseq	r9, sl, r9, lsl r4
    3aa4:	000c7600 	andeq	r7, ip, r0, lsl #12
    3aa8:	08000000 	stmdaeq	r0, {}	; <UNPREDICTABLE>
    3aac:	0000b904 	andeq	fp, r0, r4, lsl #18
    3ab0:	00c02200 	sbceq	r2, r0, r0, lsl #4
    3ab4:	08800000 	stmeq	r0, {}	; <UNPREDICTABLE>
    3ab8:	2c230000 	stccs	0, cr0, [r3], #-0
    3abc:	09000000 	stmdbeq	r0, {}	; <UNPREDICTABLE>
    3ac0:	08700900 	ldmdaeq	r0!, {r8, fp}^
    3ac4:	b9220000 	stmdblt	r2!, {}	; <UNPREDICTABLE>
    3ac8:	95000000 	strls	r0, [r0, #-0]
    3acc:	23000008 	movwcs	r0, #8
    3ad0:	0000002c 	andeq	r0, r0, ip, lsr #32
    3ad4:	5624007f 			; <UNDEFINED> instruction: 0x5624007f
    3ad8:	01000008 	tsteq	r0, r8
    3adc:	086a0149 	stmdaeq	sl!, {r0, r3, r6, r8}^
    3ae0:	2a010000 	bcs	43ae8 <__bss_end__+0x38f50>
    3ae4:	25000009 	strcs	r0, [r0, #-9]
    3ae8:	0000089b 	muleq	r0, fp, r8
    3aec:	2c0f4901 			; <UNDEFINED> instruction: 0x2c0f4901
    3af0:	26000000 	strcs	r0, [r0], -r0
    3af4:	00747364 	rsbseq	r7, r4, r4, ror #6
    3af8:	6a1b4901 	bvs	6d5f04 <__bss_end__+0x6cb36c>
    3afc:	26000008 	strcs	r0, [r0], -r8
    3b00:	4901006e 	stmdbmi	r1, {r1, r2, r3, r5, r6}
    3b04:	00003324 	andeq	r3, r0, r4, lsr #6
    3b08:	61762600 	cmnvs	r6, r0, lsl #12
    3b0c:	4901006c 	stmdbmi	r1, {r2, r3, r5, r6}
    3b10:	0000332b 	andeq	r3, r0, fp, lsr #6
    3b14:	07dd2500 	ldrbeq	r2, [sp, r0, lsl #10]
    3b18:	49010000 	stmdbmi	r1, {}	; <UNPREDICTABLE>
    3b1c:	00003334 	andeq	r3, r0, r4, lsr r3
    3b20:	07f02500 	ldrbeq	r2, [r0, r0, lsl #10]!
    3b24:	49010000 	stmdbmi	r1, {}	; <UNPREDICTABLE>
    3b28:	0000333f 	andeq	r3, r0, pc, lsr r3
    3b2c:	75622700 	strbvc	r2, [r2, #-1792]!	; 0xfffff900
    3b30:	4e010066 	cdpmi	0, 0, cr0, cr1, cr6, {3}
    3b34:	00092a07 	andeq	r2, r9, r7, lsl #20
    3b38:	00702700 	rsbseq	r2, r0, r0, lsl #14
    3b3c:	6a114e01 	bvs	457348 <__bss_end__+0x44c7b0>
    3b40:	27000008 	strcs	r0, [r0, -r8]
    3b44:	4f010075 	svcmi	0x00010075
    3b48:	00002c0b 	andeq	r2, r0, fp, lsl #24
    3b4c:	01221200 			; <UNDEFINED> instruction: 0x01221200
    3b50:	094a0000 	stmdbeq	sl, {}^	; <UNPREDICTABLE>
    3b54:	03050000 	movweq	r0, #20480	; 0x5000
    3b58:	0000a738 	andeq	sl, r0, r8, lsr r7
    3b5c:	08432928 	stmdaeq	r3, {r3, r5, r8, fp, sp}^
    3b60:	54010000 	strpl	r0, [r1], #-0
    3b64:	00002c0d 	andeq	r2, r0, sp, lsl #24
    3b68:	22000000 	andcs	r0, r0, #0, 0
    3b6c:	000000b9 	strheq	r0, [r0], -r9
    3b70:	0000093a 	andeq	r0, r0, sl, lsr r9
    3b74:	00002c23 	andeq	r2, r0, r3, lsr #24
    3b78:	22003f00 	andcs	r3, r0, #0, 30
    3b7c:	000000c0 	andeq	r0, r0, r0, asr #1
    3b80:	0000094a 	andeq	r0, r0, sl, asr #18
    3b84:	00002c23 	andeq	r2, r0, r3, lsr #24
    3b88:	09000400 	stmdbeq	r0, {sl}
    3b8c:	0000093a 	andeq	r0, r0, sl, lsr r9
    3b90:	00086324 	andeq	r6, r8, r4, lsr #6
    3b94:	0e380100 	rsfeqe	f0, f0, f0
    3b98:	0000086a 	andeq	r0, r0, sl, ror #16
    3b9c:	0009a301 	andeq	sl, r9, r1, lsl #6
    3ba0:	73642600 	cmnvc	r4, #0, 12
    3ba4:	38010074 	stmdacc	r1, {r2, r4, r5, r6}
    3ba8:	00086a1c 	andeq	r6, r8, ip, lsl sl
    3bac:	006e2600 	rsbeq	r2, lr, r0, lsl #12
    3bb0:	33253801 			; <UNDEFINED> instruction: 0x33253801
    3bb4:	26000000 	strcs	r0, [r0], -r0
    3bb8:	38010070 	stmdacc	r1, {r4, r5, r6}
    3bbc:	00086a2e 	andeq	r6, r8, lr, lsr #20
    3bc0:	04942500 	ldreq	r2, [r4], #1280	; 0x500
    3bc4:	38010000 	stmdacc	r1, {}	; <UNPREDICTABLE>
    3bc8:	00086a37 	andeq	r6, r8, r7, lsr sl
    3bcc:	656c2700 	strbvs	r2, [ip, #-1792]!	; 0xfffff900
    3bd0:	3a01006e 	bcc	43d90 <__bss_end__+0x391f8>
    3bd4:	00003306 	andeq	r3, r0, r6, lsl #6
    3bd8:	00732700 	rsbseq	r2, r3, r0, lsl #14
    3bdc:	6a083e01 	bvs	2133e8 <__bss_end__+0x208850>
    3be0:	00000008 	andeq	r0, r0, r8
    3be4:	6461702a 	strbtvs	r7, [r1], #-42	; 0xffffffd6
    3be8:	0e2e0100 	sufeqe	f0, f6, f0
    3bec:	0000086a 	andeq	r0, r0, sl, ror #16
    3bf0:	0009e301 	andeq	lr, r9, r1, lsl #6
    3bf4:	00702600 	rsbseq	r2, r0, r0, lsl #12
    3bf8:	6a182e01 	bvs	60f404 <__bss_end__+0x60486c>
    3bfc:	25000008 	strcs	r0, [r0, #-8]
    3c00:	0000089b 	muleq	r0, fp, r8
    3c04:	6a222e01 	bvs	88f410 <__bss_end__+0x884878>
    3c08:	25000008 	strcs	r0, [r0, #-8]
    3c0c:	000007dd 	ldrdeq	r0, [r0], -sp
    3c10:	332c2e01 			; <UNDEFINED> instruction: 0x332c2e01
    3c14:	27000000 	strcs	r0, [r0, -r0]
    3c18:	006e656c 	rsbeq	r6, lr, ip, ror #10
    3c1c:	33062f01 	movwcc	r2, #28417	; 0x6f01
    3c20:	00000000 	andeq	r0, r0, r0
    3c24:	00079c24 	andeq	r9, r7, r4, lsr #24
    3c28:	0c270100 	stfeqs	f0, [r7], #-0
    3c2c:	00000033 	andeq	r0, r0, r3, lsr r0
    3c30:	0009ff01 	andeq	pc, r9, r1, lsl #30
    3c34:	00632600 	rsbeq	r2, r3, r0, lsl #12
    3c38:	33182701 	tstcc	r8, #262144	; 0x40000
    3c3c:	00000000 	andeq	r0, r0, r0
    3c40:	00081c2b 	andeq	r1, r8, fp, lsr #24
    3c44:	061f0100 	ldreq	r0, [pc], -r0, lsl #2
    3c48:	000094ac 	andeq	r9, r0, ip, lsr #9
    3c4c:	00000060 	andeq	r0, r0, r0, rrx
    3c50:	0a8f9c01 	beq	fe3eac5c <__bss_end__+0xfe3e00c4>
    3c54:	f90f0000 			; <UNDEFINED> instruction: 0xf90f0000
    3c58:	01000007 	tsteq	r0, r7
    3c5c:	009e1b1f 	addseq	r1, lr, pc, lsl fp
    3c60:	21090000 	mrscs	r0, (UNDEF: 9)
    3c64:	21050000 	mrscs	r0, (UNDEF: 5)
    3c68:	5b0f0000 	blpl	3c3c70 <__bss_end__+0x3b90d8>
    3c6c:	01000008 	tsteq	r0, r8
    3c70:	00d1301f 	sbcseq	r3, r1, pc, lsl r0
    3c74:	212e0000 			; <UNDEFINED> instruction: 0x212e0000
    3c78:	212a0000 			; <UNDEFINED> instruction: 0x212a0000
    3c7c:	22120000 	andscs	r0, r2, #0, 0
    3c80:	9f000001 	svcls	0x00000001
    3c84:	0500000a 	streq	r0, [r0, #-10]
    3c88:	00a74003 	adceq	r4, r7, r3
    3c8c:	94f01700 	ldrbtls	r1, [r0], #1792	; 0x700
    3c90:	0c460000 	mareq	acc0, r0, r6
    3c94:	0a850000 	beq	fe143c9c <__bss_end__+0xfe139104>
    3c98:	01180000 	tsteq	r8, r0
    3c9c:	a0030550 	andge	r0, r3, r0, asr r5
    3ca0:	180000a2 	stmdane	r0, {r1, r5, r7}
    3ca4:	03055101 	movweq	r5, #20737	; 0x5101
    3ca8:	0000a5f8 	strdeq	sl, [r0], -r8
    3cac:	05520118 	ldrbeq	r0, [r2, #-280]	; 0xfffffee8
    3cb0:	00a74003 	adceq	r4, r7, r3
    3cb4:	53011800 	movwpl	r1, #6144	; 0x1800
    3cb8:	18200802 	stmdane	r0!, {r1, fp}
    3cbc:	05007d02 	streq	r7, [r0, #-3330]	; 0xfffff2fe
    3cc0:	00a63003 	adceq	r3, r6, r3
    3cc4:	f4190000 			; <UNDEFINED> instruction: 0xf4190000
    3cc8:	76000094 			; <UNDEFINED> instruction: 0x76000094
    3ccc:	0000000c 	andeq	r0, r0, ip
    3cd0:	0000c022 	andeq	ip, r0, r2, lsr #32
    3cd4:	000a9f00 	andeq	r9, sl, r0, lsl #30
    3cd8:	002c2300 	eoreq	r2, ip, r0, lsl #6
    3cdc:	000e0000 	andeq	r0, lr, r0
    3ce0:	000a8f09 	andeq	r8, sl, r9, lsl #30
    3ce4:	08952c00 	ldmeq	r5, {sl, fp, sp}
    3ce8:	91840000 	orrls	r0, r4, r0
    3cec:	03280000 			; <UNDEFINED> instruction: 0x03280000
    3cf0:	9c010000 	stcls	0, cr0, [r1], {-0}
    3cf4:	00000c3a 	andeq	r0, r0, sl, lsr ip
    3cf8:	0008a61b 	andeq	sl, r8, fp, lsl r6
    3cfc:	00216700 	eoreq	r6, r1, r0, lsl #14
    3d00:	00214f00 	eoreq	r4, r1, r0, lsl #30
    3d04:	08b21b00 	ldmeq	r2!, {r8, r9, fp, ip}
    3d08:	22110000 	andscs	r0, r1, #0, 0
    3d0c:	22090000 	andcs	r0, r9, #0, 0
    3d10:	c81b0000 	ldmdagt	fp, {}	; <UNPREDICTABLE>
    3d14:	68000008 	stmdavs	r0, {r3}
    3d18:	48000022 	stmdami	r0, {r1, r5}
    3d1c:	1b000022 	blne	3dac <__code_start__-0x4254>
    3d20:	000008d4 	ldrdeq	r0, [r0], -r4
    3d24:	0000233e 	andeq	r2, r0, lr, lsr r3
    3d28:	00002330 	andeq	r2, r0, r0, lsr r3
    3d2c:	0008e02d 	andeq	lr, r8, sp, lsr #32
    3d30:	00910200 	addseq	r0, r1, r0, lsl #4
    3d34:	0008ec1d 	andeq	lr, r8, sp, lsl ip
    3d38:	a8910300 	ldmge	r1, {r8, r9}
    3d3c:	08f81e7f 	ldmeq	r8!, {r0, r1, r2, r3, r4, r5, r6, r9, sl, fp, ip}^
    3d40:	23d20000 	bicscs	r0, r2, #0, 0
    3d44:	239e0000 	orrscs	r0, lr, #0, 0
    3d48:	021e0000 	andseq	r0, lr, #0, 0
    3d4c:	39000009 	stmdbcc	r0, {r0, r3}
    3d50:	17000025 	strne	r0, [r0, -r5, lsr #32]
    3d54:	2e000025 	cdpcs	0, 0, cr0, cr0, cr5, {1}
    3d58:	000008be 			; <UNDEFINED> instruction: 0x000008be
    3d5c:	09a31a80 	stmibeq	r3!, {r7, r9, fp, ip}
    3d60:	92280000 	eorls	r0, r8, #0, 0
    3d64:	00040000 	andeq	r0, r4, r0
    3d68:	000000f0 	strdeq	r0, [r0], -r0	; <UNPREDICTABLE>
    3d6c:	6d097c01 	stcvs	12, cr7, [r9, #-4]
    3d70:	1b00000b 	blne	3da4 <__code_start__-0x425c>
    3d74:	000009ca 	andeq	r0, r0, sl, asr #19
    3d78:	00002621 	andeq	r2, r0, r1, lsr #12
    3d7c:	00002617 	andeq	r2, r0, r7, lsl r6
    3d80:	0009be1b 	andeq	fp, r9, fp, lsl lr
    3d84:	00267500 	eoreq	r7, r6, r0, lsl #10
    3d88:	00266500 	eoreq	r6, r6, r0, lsl #10
    3d8c:	09b41b00 	ldmibeq	r4!, {r8, r9, fp, ip}
    3d90:	26f50000 	ldrbtcs	r0, [r5], r0
    3d94:	26e10000 	strbtcs	r0, [r1], r0
    3d98:	f0130000 			; <UNDEFINED> instruction: 0xf0130000
    3d9c:	1e000000 	cdpne	0, 0, cr0, cr0, cr0, {0}
    3da0:	000009d6 	ldrdeq	r0, [r0], -r6
    3da4:	00002787 	andeq	r2, r0, r7, lsl #15
    3da8:	00002777 	andeq	r2, r0, r7, ror r7
    3dac:	4f1a0000 	svcmi	0x001a0000
    3db0:	e0000009 	and	r0, r0, r9
    3db4:	02000092 	andeq	r0, r0, #146, 0	; 0x92
    3db8:	00013800 	andeq	r3, r1, r0, lsl #16
    3dbc:	097c0100 	ldmdbeq	ip!, {r8}^
    3dc0:	00000bd8 	ldrdeq	r0, [r0], -r8
    3dc4:	0009801b 	andeq	r8, r9, fp, lsl r0
    3dc8:	0027f300 	eoreq	pc, r7, r0, lsl #6
    3dcc:	0027eb00 	eoreq	lr, r7, r0, lsl #22
    3dd0:	09761b00 	ldmdbeq	r6!, {r8, r9, fp, ip}^
    3dd4:	28320000 	ldmdacs	r2!, {}	; <UNPREDICTABLE>
    3dd8:	282a0000 	stmdacs	sl!, {}	; <UNPREDICTABLE>
    3ddc:	6c1b0000 	ldcvs	0, cr0, [fp], {-0}
    3de0:	71000009 	tstvc	r0, r9
    3de4:	6d000028 	stcvs	0, cr0, [r0, #-160]	; 0xffffff60
    3de8:	1b000028 	blne	3e90 <__code_start__-0x4170>
    3dec:	00000960 	andeq	r0, r0, r0, ror #18
    3df0:	000028a1 	andeq	r2, r0, r1, lsr #17
    3df4:	00002893 	muleq	r0, r3, r8
    3df8:	00013813 	andeq	r3, r1, r3, lsl r8
    3dfc:	098c1e00 	stmibeq	ip, {r9, sl, fp, ip}
    3e00:	29060000 	stmdbcs	r6, {}	; <UNPREDICTABLE>
    3e04:	29000000 	stmdbcs	r0, {}	; <UNPREDICTABLE>
    3e08:	981e0000 	ldmdals	lr, {}	; <UNPREDICTABLE>
    3e0c:	38000009 	stmdacc	r0, {r0, r3}
    3e10:	34000029 	strcc	r0, [r0], #-41	; 0xffffffd7
    3e14:	00000029 	andeq	r0, r0, r9, lsr #32
    3e18:	091b2f00 	ldmdbeq	fp, {r8, r9, sl, fp, sp}
    3e1c:	93980000 	orrsls	r0, r8, #0, 0
    3e20:	00600000 	rsbeq	r0, r0, r0
    3e24:	0bf70000 	bleq	ffdc3e2c <__bss_end__+0xffdb9294>
    3e28:	1c1e0000 	ldcne	0, cr0, [lr], {-0}
    3e2c:	5a000009 	bpl	3e58 <__code_start__-0x41a8>
    3e30:	56000029 	strpl	r0, [r0], -r9, lsr #32
    3e34:	00000029 	andeq	r0, r0, r9, lsr #32
    3e38:	00946c17 	addseq	r6, r4, r7, lsl ip
    3e3c:	000c4600 	andeq	r4, ip, r0, lsl #12
    3e40:	000c3000 	andeq	r3, ip, r0
    3e44:	50011800 	andpl	r1, r1, r0, lsl #16
    3e48:	a2a00305 	adcge	r0, r0, #335544320	; 0x14000000
    3e4c:	01180000 	tsteq	r8, r0
    3e50:	f8030551 			; <UNDEFINED> instruction: 0xf8030551
    3e54:	180000a5 	stmdane	r0, {r0, r2, r5, r7}
    3e58:	03055201 	movweq	r5, #20993	; 0x5201
    3e5c:	0000a738 	andeq	sl, r0, r8, lsr r7
    3e60:	02530118 	subseq	r0, r3, #6
    3e64:	02187908 	andseq	r7, r8, #8, 18	; 0x20000
    3e68:	0305007d 	movweq	r0, #20605	; 0x507d
    3e6c:	0000a4ec 	andeq	sl, r0, ip, ror #9
    3e70:	94701900 	ldrbtls	r1, [r0], #-2304	; 0xfffff700
    3e74:	0c760000 	ldcleq	0, cr0, [r6], #-0
    3e78:	30000000 	andcc	r0, r0, r0
    3e7c:	00000893 	muleq	r0, r3, r8
    3e80:	00000893 	muleq	r0, r3, r8
    3e84:	3005f003 	andcc	pc, r5, r3
    3e88:	0000074b 	andeq	r0, r0, fp, asr #14
    3e8c:	0000074b 	andeq	r0, r0, fp, asr #14
    3e90:	30062803 	andcc	r2, r6, r3, lsl #16
    3e94:	00000835 	andeq	r0, r0, r5, lsr r8
    3e98:	00000835 	andeq	r0, r0, r5, lsr r8
    3e9c:	3007f303 	andcc	pc, r7, r3, lsl #6
    3ea0:	0000086b 	andeq	r0, r0, fp, ror #16
    3ea4:	0000086b 	andeq	r0, r0, fp, ror #16
    3ea8:	3005ef03 	andcc	lr, r5, r3, lsl #30
    3eac:	0000083c 	andeq	r0, r0, ip, lsr r8
    3eb0:	0000083c 	andeq	r0, r0, ip, lsr r8
    3eb4:	3007f203 	andcc	pc, r7, r3, lsl #4
    3eb8:	0000014b 	andeq	r0, r0, fp, asr #2
    3ebc:	0000014b 	andeq	r0, r0, fp, asr #2
    3ec0:	00066e03 	andeq	r6, r6, r3, lsl #28
    3ec4:	0000012f 	andeq	r0, r0, pc, lsr #2
    3ec8:	0cd30004 	ldcleq	0, cr0, [r3], {4}
    3ecc:	01040000 	mrseq	r0, (UNDEF: 4)
    3ed0:	00000636 	andeq	r0, r0, r6, lsr r6
    3ed4:	0008ab0c 	andeq	sl, r8, ip, lsl #22
    3ed8:	00071000 	andeq	r1, r7, r0
    3edc:	009b3800 	addseq	r3, fp, r0, lsl #16
    3ee0:	00002c00 	andeq	r2, r0, r0, lsl #24
    3ee4:	001aa300 	andseq	sl, sl, r0, lsl #6
    3ee8:	05040200 	streq	r0, [r4, #-512]	; 0xfffffe00
    3eec:	00746e69 	rsbseq	r6, r4, r9, ror #28
    3ef0:	a0070403 	andge	r0, r7, r3, lsl #8
    3ef4:	03000001 	movweq	r0, #1
    3ef8:	01750601 	cmneq	r5, r1, lsl #12
    3efc:	02030000 	andeq	r0, r3, #0, 0
    3f00:	00002e05 	andeq	r2, r0, r5, lsl #28
    3f04:	05040300 	streq	r0, [r4, #-768]	; 0xfffffd00
    3f08:	000000ff 	strdeq	r0, [r0], -pc	; <UNPREDICTABLE>
    3f0c:	fa050803 	blx	145f20 <__bss_end__+0x13b388>
    3f10:	03000000 	movweq	r0, #0
    3f14:	01730801 	cmneq	r3, r1, lsl #16
    3f18:	02030000 	andeq	r0, r3, #0, 0
    3f1c:	0001ef07 	andeq	lr, r1, r7, lsl #30
    3f20:	07040300 	streq	r0, [r4, -r0, lsl #6]
    3f24:	0000019b 	muleq	r0, fp, r1
    3f28:	96070803 	strls	r0, [r7], -r3, lsl #16
    3f2c:	04000001 	streq	r0, [r0], #-1
    3f30:	00000025 	andeq	r0, r0, r5, lsr #32
    3f34:	0000007a 	andeq	r0, r0, sl, ror r0
    3f38:	00002505 	andeq	r2, r0, r5, lsl #10
    3f3c:	5a060000 	bpl	183f44 <__bss_end__+0x1793ac>
    3f40:	02000000 	andeq	r0, r0, #0, 0
    3f44:	00860e1c 	addeq	r0, r6, ip, lsl lr
    3f48:	04070000 	streq	r0, [r7], #-0
    3f4c:	0000006b 	andeq	r0, r0, fp, rrx
    3f50:	00002504 	andeq	r2, r0, r4, lsl #10
    3f54:	00009b00 	andeq	r9, r0, r0, lsl #22
    3f58:	009b0500 	addseq	r0, fp, r0, lsl #10
    3f5c:	07000000 	streq	r0, [r0, -r0]
    3f60:	0000a804 	andeq	sl, r0, r4, lsl #16
    3f64:	08010300 	stmdaeq	r1, {r8, r9}
    3f68:	0000017c 	andeq	r0, r0, ip, ror r1
    3f6c:	0000a108 	andeq	sl, r0, r8, lsl #2
    3f70:	07890600 	streq	r0, [r9, r0, lsl #12]
    3f74:	21020000 	mrscs	r0, (UNDEF: 2)
    3f78:	0000b90e 	andeq	fp, r0, lr, lsl #18
    3f7c:	8c040700 	stchi	7, cr0, [r4], {-0}
    3f80:	09000000 	stmdbeq	r0, {}	; <UNPREDICTABLE>
    3f84:	0000014b 	andeq	r0, r0, fp, asr #2
    3f88:	38060401 	stmdacc	r6, {r0, sl}
    3f8c:	2c00009b 	stccs	0, cr0, [r0], {155}	; 0x9b
    3f90:	01000000 	mrseq	r0, (UNDEF: 0)
    3f94:	00010e9c 	muleq	r1, ip, lr
    3f98:	9b4c0a00 	blls	13067a0 <__bss_end__+0x12fbc08>
    3f9c:	00e80000 	rsceq	r0, r8, r0
    3fa0:	010b0000 	mrseq	r0, (UNDEF: 11)
    3fa4:	5c030550 	cfstr32pl	mvfx0, [r3], {80}	; 0x50
    3fa8:	000000a7 	andeq	r0, r0, r7, lsr #1
    3fac:	009b500c 	addseq	r5, fp, ip
    3fb0:	00010e00 	andeq	r0, r1, r0, lsl #28
    3fb4:	9b580d00 	blls	16073bc <__bss_end__+0x15fc824>
    3fb8:	011a0000 	tsteq	sl, r0
    3fbc:	01040000 	mrseq	r0, (UNDEF: 4)
    3fc0:	010b0000 	mrseq	r0, (UNDEF: 11)
    3fc4:	003a0150 	eorseq	r0, sl, r0, asr r1
    3fc8:	009b5c0c 	addseq	r5, fp, ip, lsl #24
    3fcc:	00012600 	andeq	r2, r1, r0, lsl #12
    3fd0:	c60e0000 	strgt	r0, [lr], -r0
    3fd4:	c6000008 	strgt	r0, [r0], -r8
    3fd8:	02000008 	andeq	r0, r0, #8, 0
    3fdc:	090e064d 	stmdbeq	lr, {r0, r2, r3, r6, r9, sl}
    3fe0:	09000000 	stmdbeq	r0, {}	; <UNPREDICTABLE>
    3fe4:	02000000 	andeq	r0, r0, #0, 0
    3fe8:	a00e0658 	andge	r0, lr, r8, asr r6
    3fec:	a0000008 	andge	r0, r0, r8
    3ff0:	02000008 	andeq	r0, r0, #8, 0
    3ff4:	b100066b 	tstlt	r0, fp, ror #12
    3ff8:	04000002 	streq	r0, [r0], #-2
    3ffc:	000d9300 	andeq	r9, sp, r0, lsl #6
    4000:	36010400 	strcc	r0, [r1], -r0, lsl #8
    4004:	0c000006 	stceq	0, cr0, [r0], {6}
    4008:	000008fc 	strdeq	r0, [r0], -ip
    400c:	00000710 	andeq	r0, r0, r0, lsl r7
    4010:	00009b64 	andeq	r9, r0, r4, ror #22
    4014:	00000128 	andeq	r0, r0, r8, lsr #2
    4018:	00001b2e 	andeq	r1, r0, lr, lsr #22
    401c:	69050402 	stmdbvs	r5, {r1, sl}
    4020:	0300746e 	movweq	r7, #1134	; 0x46e
    4024:	01a00704 	lsleq	r0, r4, #14
    4028:	01030000 	mrseq	r0, (UNDEF: 3)
    402c:	00017506 	andeq	r7, r1, r6, lsl #10
    4030:	05020300 	streq	r0, [r2, #-768]	; 0xfffffd00
    4034:	0000002e 	andeq	r0, r0, lr, lsr #32
    4038:	ff050403 			; <UNDEFINED> instruction: 0xff050403
    403c:	03000000 	movweq	r0, #0
    4040:	00fa0508 	rscseq	r0, sl, r8, lsl #10
    4044:	01030000 	mrseq	r0, (UNDEF: 3)
    4048:	00017308 	andeq	r7, r1, r8, lsl #6
    404c:	07020300 	streq	r0, [r2, -r0, lsl #6]
    4050:	000001ef 	andeq	r0, r0, pc, ror #3
    4054:	9b070403 	blls	1c5068 <__bss_end__+0x1ba4d0>
    4058:	03000001 	movweq	r0, #1
    405c:	01960708 	orrseq	r0, r6, r8, lsl #14
    4060:	25040000 	strcs	r0, [r4, #-0]
    4064:	7a000000 	bvc	406c <__code_start__-0x3f94>
    4068:	05000000 	streq	r0, [r0, #-0]
    406c:	00000025 	andeq	r0, r0, r5, lsr #32
    4070:	005a0600 	subseq	r0, sl, r0, lsl #12
    4074:	1c020000 	stcne	0, cr0, [r2], {-0}
    4078:	0000860e 	andeq	r8, r0, lr, lsl #12
    407c:	6b040700 	blvs	105c84 <__bss_end__+0xfb0ec>
    4080:	04000000 	streq	r0, [r0], #-0
    4084:	00000025 	andeq	r0, r0, r5, lsr #32
    4088:	0000009b 	muleq	r0, fp, r0
    408c:	00009b05 	andeq	r9, r0, r5, lsl #22
    4090:	04070000 	streq	r0, [r7], #-0
    4094:	000000a8 	andeq	r0, r0, r8, lsr #1
    4098:	7c080103 	stfvcs	f0, [r8], {3}
    409c:	08000001 	stmdaeq	r0, {r0}
    40a0:	000000a1 	andeq	r0, r0, r1, lsr #1
    40a4:	00078906 	andeq	r8, r7, r6, lsl #18
    40a8:	0e210200 	cdpeq	2, 2, cr0, cr1, cr0, {0}
    40ac:	000000b9 	strheq	r0, [r0], -r9
    40b0:	008c0407 	addeq	r0, ip, r7, lsl #8
    40b4:	d4090000 	strle	r0, [r9], #-0
    40b8:	01000008 	tsteq	r0, r8
    40bc:	9b640611 	blls	1905908 <__bss_end__+0x18fad70>
    40c0:	01280000 			; <UNDEFINED> instruction: 0x01280000
    40c4:	9c010000 	stcls	0, cr0, [r1], {-0}
    40c8:	00000226 	andeq	r0, r0, r6, lsr #4
    40cc:	0007cf06 	andeq	ip, r7, r6, lsl #30
    40d0:	10120100 	andsne	r0, r2, r0, lsl #2
    40d4:	00000025 	andeq	r0, r0, r5, lsr #32
    40d8:	00080106 	andeq	r0, r8, r6, lsl #2
    40dc:	1f120100 	svcne	0x00120100
    40e0:	00000025 	andeq	r0, r0, r5, lsr #32
    40e4:	0001e70a 	andeq	lr, r1, sl, lsl #14
    40e8:	07130100 	ldreq	r0, [r3, -r0, lsl #2]
    40ec:	7373620b 	cmnvc	r3, #-1342177280	; 0xb0000000
    40f0:	0a170100 	beq	5c44f8 <__bss_end__+0x5b9960>
    40f4:	00000226 	andeq	r0, r0, r6, lsr #4
    40f8:	00002992 	muleq	r0, r2, r9
    40fc:	0000297a 	andeq	r2, r0, sl, ror r9
    4100:	0008dc0c 	andeq	sp, r8, ip, lsl #24
    4104:	0a180100 	beq	60450c <__bss_end__+0x5f9974>
    4108:	00000226 	andeq	r0, r0, r6, lsr #4
    410c:	00091c0d 	andeq	r1, r9, sp, lsl #24
    4110:	0e250100 	sufeqs	f0, f5, f0
    4114:	0000002c 	andeq	r0, r0, ip, lsr #32
    4118:	00002a2c 	andeq	r2, r0, ip, lsr #20
    411c:	00002a2a 	andeq	r2, r0, sl, lsr #20
    4120:	009c3c0e 	addseq	r3, ip, lr, lsl #24
    4124:	00000800 	andeq	r0, r0, r0, lsl #16
    4128:	00014a00 	andeq	r4, r1, r0, lsl #20
    412c:	6e690b00 	vmulvs.f64	d16, d9, d0
    4130:	05210100 	streq	r0, [r1, #-256]!	; 0xffffff00
    4134:	0000002c 	andeq	r0, r0, ip, lsr #32
    4138:	00002a41 	andeq	r2, r0, r1, asr #20
    413c:	00002a3f 	andeq	r2, r0, pc, lsr sl
    4140:	022c0f00 	eoreq	r0, ip, #0, 30
    4144:	9c440000 	marls	acc0, r0, r4
    4148:	44020000 	strmi	r0, [r2], #-0
    414c:	0c00009c 	stceq	0, cr0, [r0], {156}	; 0x9c
    4150:	01000000 	mrseq	r0, (UNDEF: 0)
    4154:	01990523 	orrseq	r0, r9, r3, lsr #10
    4158:	4f100000 	svcmi	0x00100000
    415c:	57000002 	strpl	r0, [r0, -r2]
    4160:	5500002a 	strpl	r0, [r0, #-42]	; 0xffffffd6
    4164:	1000002a 	andne	r0, r0, sl, lsr #32
    4168:	0000025b 	andeq	r0, r0, fp, asr r2
    416c:	00002a6d 	andeq	r2, r0, sp, ror #20
    4170:	00002a6b 	andeq	r2, r0, fp, ror #20
    4174:	00026711 	andeq	r6, r2, r1, lsl r7
    4178:	009c4400 	addseq	r4, ip, r0, lsl #8
    417c:	00000400 	andeq	r0, r0, r0, lsl #8
    4180:	02681000 	rsbeq	r1, r8, #0, 0
    4184:	2a820000 	bcs	fe08418c <__bss_end__+0xfe0795f4>
    4188:	2a800000 	bcs	fe004190 <__bss_end__+0xfdff95f8>
    418c:	00000000 	andeq	r0, r0, r0
    4190:	00022c12 	andeq	r2, r2, r2, lsl ip
    4194:	009c5400 	addseq	r5, ip, r0, lsl #8
    4198:	02c80100 	sbceq	r0, r8, #0
    419c:	25010000 	strcs	r0, [r1, #-0]
    41a0:	0001ea15 	andeq	lr, r1, r5, lsl sl
    41a4:	02c81300 	sbceq	r1, r8, #0, 6
    41a8:	4f100000 	svcmi	0x00100000
    41ac:	99000002 	stmdbls	r0, {r1}
    41b0:	9500002a 	strls	r0, [r0, #-42]	; 0xffffffd6
    41b4:	1000002a 	andne	r0, r0, sl, lsr #32
    41b8:	0000025b 	andeq	r0, r0, fp, asr r2
    41bc:	00002aba 			; <UNDEFINED> instruction: 0x00002aba
    41c0:	00002ab8 			; <UNDEFINED> instruction: 0x00002ab8
    41c4:	00026711 	andeq	r6, r2, r1, lsl r7
    41c8:	009c5400 	addseq	r5, ip, r0, lsl #8
    41cc:	00000400 	andeq	r0, r0, r0, lsl #8
    41d0:	02681000 	rsbeq	r1, r8, #0, 0
    41d4:	2acf0000 	bcs	ff3c41dc <__bss_end__+0xff3b9644>
    41d8:	2acd0000 	bcs	ff3441e0 <__bss_end__+0xff339648>
    41dc:	00000000 	andeq	r0, r0, r0
    41e0:	9b6c1400 	blls	1b091e8 <__bss_end__+0x1afe650>
    41e4:	02760000 	rsbseq	r0, r6, #0, 0
    41e8:	3c140000 	ldccc	0, cr0, [r4], {-0}
    41ec:	8300009c 	movwhi	r0, #156	; 0x9c
    41f0:	14000002 	strne	r0, [r0], #-2
    41f4:	00009c54 	andeq	r9, r0, r4, asr ip
    41f8:	0000028f 	andeq	r0, r0, pc, lsl #5
    41fc:	009c7015 	addseq	r7, ip, r5, lsl r0
    4200:	00029c00 	andeq	r9, r2, r0, lsl #24
    4204:	00021c00 	andeq	r1, r2, r0, lsl #24
    4208:	50011600 	andpl	r1, r1, r0, lsl #12
    420c:	a7680305 	strbge	r0, [r8, -r5, lsl #6]!
    4210:	14000000 	strne	r0, [r0], #-0
    4214:	00009c74 	andeq	r9, r0, r4, ror ip
    4218:	000002a8 	andeq	r0, r0, r8, lsr #5
    421c:	25040700 	strcs	r0, [r4, #-1792]	; 0xfffff900
    4220:	17000000 	strne	r0, [r0, -r0]
    4224:	00000916 	andeq	r0, r0, r6, lsl r9
    4228:	2c110401 	cfldrscs	mvf0, [r1], {1}
    422c:	01000000 	mrseq	r0, (UNDEF: 0)
    4230:	00000276 	andeq	r0, r0, r6, ror r2
    4234:	00092118 	andeq	r2, r9, r8, lsl r1
    4238:	15050100 	strne	r0, [r5, #-256]	; 0xffffff00
    423c:	0000002c 	andeq	r0, r0, ip, lsr #32
    4240:	ab900305 	blge	fe404e5c <__bss_end__+0xfe3fa2c4>
    4244:	1c0c0000 	stcne	0, cr0, [ip], {-0}
    4248:	01000009 	tsteq	r0, r9
    424c:	002c0e07 	eoreq	r0, ip, r7, lsl #28
    4250:	63190000 	tstvs	r9, #0, 0
    4254:	01007275 	tsteq	r0, r5, ror r2
    4258:	002c0e09 	eoreq	r0, ip, r9, lsl #28
    425c:	0c1a0000 	ldceq	0, cr0, [sl], {-0}
    4260:	00000911 	andeq	r0, r0, r1, lsl r9
    4264:	2c140901 			; <UNDEFINED> instruction: 0x2c140901
    4268:	00000000 	andeq	r0, r0, r0
    426c:	08ee1b00 	stmiaeq	lr!, {r8, r9, fp, ip}^
    4270:	08ee0000 	stmiaeq	lr!, {}^	; <UNPREDICTABLE>
    4274:	36020000 	strcc	r0, [r2], -r0
    4278:	e41c0601 	ldr	r0, [ip], #-1537	; 0xfffff9ff
    427c:	e4000008 	str	r0, [r0], #-8
    4280:	02000008 	andeq	r0, r0, #8, 0
    4284:	e71b063b 			; <UNDEFINED> instruction: 0xe71b063b
    4288:	e7000001 	str	r0, [r0, -r1]
    428c:	02000001 	andeq	r0, r0, #1, 0
    4290:	1c06010a 	stfnes	f0, [r6], {10}
    4294:	0000074b 	andeq	r0, r0, fp, asr #14
    4298:	0000074b 	andeq	r0, r0, fp, asr #14
    429c:	1c062802 	stcne	8, cr2, [r6], {2}
    42a0:	0000014b 	andeq	r0, r0, fp, asr #2
    42a4:	0000014b 	andeq	r0, r0, fp, asr #2
    42a8:	00066e02 	andeq	r6, r6, r2, lsl #28
    42ac:	000000ce 	andeq	r0, r0, lr, asr #1
    42b0:	0f310004 	svceq	0x00310004
    42b4:	01040000 	mrseq	r0, (UNDEF: 4)
    42b8:	00000636 	andeq	r0, r0, r6, lsr r6
    42bc:	0009260c 	andeq	r2, r9, ip, lsl #12
    42c0:	00071000 	andeq	r1, r7, r0
    42c4:	009c8c00 	addseq	r8, ip, r0, lsl #24
    42c8:	00000400 	andeq	r0, r0, r0, lsl #8
    42cc:	001ca800 	andseq	sl, ip, r0, lsl #16
    42d0:	05040200 	streq	r0, [r4, #-512]	; 0xfffffe00
    42d4:	00746e69 	rsbseq	r6, r4, r9, ror #28
    42d8:	a0070403 	andge	r0, r7, r3, lsl #8
    42dc:	03000001 	movweq	r0, #1
    42e0:	01750601 	cmneq	r5, r1, lsl #12
    42e4:	02030000 	andeq	r0, r3, #0, 0
    42e8:	00002e05 	andeq	r2, r0, r5, lsl #28
    42ec:	05040300 	streq	r0, [r4, #-768]	; 0xfffffd00
    42f0:	000000ff 	strdeq	r0, [r0], -pc	; <UNPREDICTABLE>
    42f4:	fa050803 	blx	146308 <__bss_end__+0x13b770>
    42f8:	03000000 	movweq	r0, #0
    42fc:	01730801 	cmneq	r3, r1, lsl #16
    4300:	02030000 	andeq	r0, r3, #0, 0
    4304:	0001ef07 	andeq	lr, r1, r7, lsl #30
    4308:	07040300 	streq	r0, [r4, -r0, lsl #6]
    430c:	0000019b 	muleq	r0, fp, r1
    4310:	96070803 	strls	r0, [r7], -r3, lsl #16
    4314:	04000001 	streq	r0, [r0], #-1
    4318:	00000025 	andeq	r0, r0, r5, lsr #32
    431c:	0000007a 	andeq	r0, r0, sl, ror r0
    4320:	00002505 	andeq	r2, r0, r5, lsl #10
    4324:	5a060000 	bpl	18432c <__bss_end__+0x179794>
    4328:	02000000 	andeq	r0, r0, #0, 0
    432c:	00860e1c 	addeq	r0, r6, ip, lsl lr
    4330:	04070000 	streq	r0, [r7], #-0
    4334:	0000006b 	andeq	r0, r0, fp, rrx
    4338:	00002504 	andeq	r2, r0, r4, lsl #10
    433c:	00009b00 	andeq	r9, r0, r0, lsl #22
    4340:	009b0500 	addseq	r0, fp, r0, lsl #10
    4344:	07000000 	streq	r0, [r0, -r0]
    4348:	0000a804 	andeq	sl, r0, r4, lsl #16
    434c:	08010300 	stmdaeq	r1, {r8, r9}
    4350:	0000017c 	andeq	r0, r0, ip, ror r1
    4354:	0000a108 	andeq	sl, r0, r8, lsl #2
    4358:	07890600 	streq	r0, [r9, r0, lsl #12]
    435c:	21020000 	mrscs	r0, (UNDEF: 2)
    4360:	0000b90e 	andeq	fp, r0, lr, lsl #18
    4364:	8c040700 	stchi	7, cr0, [r4], {-0}
    4368:	09000000 	stmdbeq	r0, {}	; <UNPREDICTABLE>
    436c:	000008ee 	andeq	r0, r0, lr, ror #17
    4370:	8c060401 	cfstrshi	mvf0, [r6], {1}
    4374:	0400009c 	streq	r0, [r0], #-156	; 0xffffff64
    4378:	01000000 	mrseq	r0, (UNDEF: 0)
    437c:	027d009c 	rsbseq	r0, sp, #156, 0	; 0x9c
    4380:	00040000 	andeq	r0, r4, r0
    4384:	00000faa 	andeq	r0, r0, sl, lsr #31
    4388:	06360104 	ldrteq	r0, [r6], -r4, lsl #2
    438c:	680c0000 	stmdavs	ip, {}	; <UNPREDICTABLE>
    4390:	10000009 	andne	r0, r0, r9
    4394:	f8000007 			; <UNDEFINED> instruction: 0xf8000007
    4398:	00000002 	andeq	r0, r0, r2
    439c:	29000000 	stmdbcs	r0, {}	; <UNPREDICTABLE>
    43a0:	0200001d 	andeq	r0, r0, #29, 0
    43a4:	6e690504 	cdpvs	5, 6, cr0, cr9, cr4, {0}
    43a8:	25030074 	strcs	r0, [r3, #-116]	; 0xffffff8c
    43ac:	04000000 	streq	r0, [r0], #-0
    43b0:	01a00704 	lsleq	r0, r4, #14
    43b4:	01040000 	mrseq	r0, (UNDEF: 4)
    43b8:	00017506 	andeq	r7, r1, r6, lsl #10
    43bc:	05020400 	streq	r0, [r2, #-1024]	; 0xfffffc00
    43c0:	0000002e 	andeq	r0, r0, lr, lsr #32
    43c4:	ff050404 			; <UNDEFINED> instruction: 0xff050404
    43c8:	04000000 	streq	r0, [r0], #-0
    43cc:	00fa0508 	rscseq	r0, sl, r8, lsl #10
    43d0:	01040000 	mrseq	r0, (UNDEF: 4)
    43d4:	00017308 	andeq	r7, r1, r8, lsl #6
    43d8:	07020400 	streq	r0, [r2, -r0, lsl #8]
    43dc:	000001ef 	andeq	r0, r0, pc, ror #3
    43e0:	9b070404 	blls	1c53f8 <__bss_end__+0x1ba860>
    43e4:	04000001 	streq	r0, [r0], #-1
    43e8:	01960708 	orrseq	r0, r6, r8, lsl #14
    43ec:	25050000 	strcs	r0, [r5, #-0]
    43f0:	7f000000 	svcvc	0x00000000
    43f4:	06000000 	streq	r0, [r0], -r0
    43f8:	00000025 	andeq	r0, r0, r5, lsr #32
    43fc:	005a0700 	subseq	r0, sl, r0, lsl #14
    4400:	1c020000 	stcne	0, cr0, [r2], {-0}
    4404:	00008b0e 	andeq	r8, r0, lr, lsl #22
    4408:	70040800 	andvc	r0, r4, r0, lsl #16
    440c:	05000000 	streq	r0, [r0, #-0]
    4410:	00000025 	andeq	r0, r0, r5, lsr #32
    4414:	000000a0 	andeq	r0, r0, r0, lsr #1
    4418:	0000a006 	andeq	sl, r0, r6
    441c:	04080000 	streq	r0, [r8], #-0
    4420:	000000ad 	andeq	r0, r0, sp, lsr #1
    4424:	7c080104 	stfvcs	f0, [r8], {4}
    4428:	03000001 	movweq	r0, #1
    442c:	000000a6 	andeq	r0, r0, r6, lsr #1
    4430:	00078907 	andeq	r8, r7, r7, lsl #18
    4434:	0e210200 	cdpeq	2, 2, cr0, cr1, cr0, {0}
    4438:	000000be 	strheq	r0, [r0], -lr
    443c:	00910408 	addseq	r0, r1, r8, lsl #8
    4440:	8c090000 	stchi	0, cr0, [r9], {-0}
    4444:	01000009 	tsteq	r0, r9
    4448:	0031110d 	eorseq	r1, r1, sp, lsl #2
    444c:	a00a0000 	andge	r0, sl, r0
    4450:	01000008 	tsteq	r0, r8
    4454:	9cd4061f 	ldclls	6, cr0, [r4], {31}
    4458:	00600000 	rsbeq	r0, r0, r0
    445c:	9c010000 	stcls	0, cr0, [r1], {-0}
    4460:	000001d5 	ldrdeq	r0, [r0], -r5
    4464:	0009b00b 	andeq	fp, r9, fp
    4468:	0f2c0100 	svceq	0x002c0100
    446c:	0000002c 	andeq	r0, r0, ip, lsr #32
    4470:	2010001c 	andscs	r0, r0, ip, lsl r0
    4474:	0009510b 	andeq	r5, r9, fp, lsl #2
    4478:	0f2d0100 	svceq	0x002d0100
    447c:	0000002c 	andeq	r0, r0, ip, lsr #32
    4480:	20100024 	andscs	r0, r0, r4, lsr #32
    4484:	00097d0b 	andeq	r7, r9, fp, lsl #26
    4488:	0f2e0100 	svceq	0x002e0100
    448c:	0000002c 	andeq	r0, r0, ip, lsr #32
    4490:	5a000000 	bpl	4498 <__code_start__-0x3b68>
    4494:	0009970c 	andeq	r9, r9, ip, lsl #14
    4498:	0f2f0100 	svceq	0x002f0100
    449c:	0000002c 	andeq	r0, r0, ip, lsr #32
    44a0:	01ef0d20 	mvneq	r0, r0, lsr #26
    44a4:	9cd40000 	ldclls	0, cr0, [r4], {0}
    44a8:	e0020000 	and	r0, r2, r0
    44ac:	01000002 	tsteq	r0, r2
    44b0:	014c0820 	cmpeq	ip, r0, lsr #16
    44b4:	e00e0000 	and	r0, lr, r0
    44b8:	0f000002 	svceq	0x00000002
    44bc:	00000200 	andeq	r0, r0, r0, lsl #4
    44c0:	00002ae6 	andeq	r2, r0, r6, ror #21
    44c4:	00002ae2 	andeq	r2, r0, r2, ror #21
    44c8:	d5100000 	ldrle	r0, [r0, #-0]
    44cc:	e8000001 	stmda	r0, {r0}
    44d0:	0100009c 	swpeq	r0, ip, [r0]	; <UNPREDICTABLE>
    44d4:	00009ce8 	andeq	r9, r0, r8, ror #25
    44d8:	00000010 	andeq	r0, r0, r0, lsl r0
    44dc:	73092101 	movwvc	r2, #37121	; 0x9101
    44e0:	0f000001 	svceq	0x00000001
    44e4:	000001e2 	andeq	r0, r0, r2, ror #3
    44e8:	00002b0d 	andeq	r2, r0, sp, lsl #22
    44ec:	00002b05 	andeq	r2, r0, r5, lsl #22
    44f0:	9cfc1100 	ldflse	f1, [ip]
    44f4:	024f0000 	subeq	r0, pc, #0, 0
    44f8:	00110000 	andseq	r0, r1, r0
    44fc:	5c00009d 	stcpl	0, cr0, [r0], {157}	; 0x9d
    4500:	12000002 	andne	r0, r0, #2, 0
    4504:	00009d08 	andeq	r9, r0, r8, lsl #26
    4508:	00000268 	andeq	r0, r0, r8, ror #4
    450c:	00000198 	muleq	r0, r8, r1
    4510:	01500113 	cmpeq	r0, r3, lsl r1
    4514:	1412003a 	ldrne	r0, [r2], #-58	; 0xffffffc6
    4518:	7400009d 	strvc	r0, [r0], #-157	; 0xffffff63
    451c:	b8000002 	stmdalt	r0, {r1}
    4520:	13000001 	movwne	r0, #1
    4524:	0c055001 	stceq	0, cr5, [r5], {1}
    4528:	20100024 	andscs	r0, r0, r4, lsr #32
    452c:	05510113 	ldrbeq	r0, [r1, #-275]	; 0xfffffeed
    4530:	0000010c 	andeq	r0, r0, ip, lsl #2
    4534:	2014005a 	andscs	r0, r4, sl, asr r0
    4538:	7400009d 	strvc	r0, [r0], #-157	; 0xffffff63
    453c:	13000002 	movwne	r0, #2
    4540:	0c055001 	stceq	0, cr5, [r5], {1}
    4544:	2010001c 	andscs	r0, r0, ip, lsl r0
    4548:	05510113 	ldrbeq	r0, [r1, #-275]	; 0xfffffeed
    454c:	0000200c 	andeq	r2, r0, ip
    4550:	1500005a 	strne	r0, [r0, #-90]	; 0xffffffa6
    4554:	00000959 	andeq	r0, r0, r9, asr r9
    4558:	01061701 	tsteq	r6, r1, lsl #14
    455c:	000001ef 	andeq	r0, r0, pc, ror #3
    4560:	0009b809 	andeq	fp, r9, r9, lsl #16
    4564:	0e180100 	mufeqe	f0, f0, f0
    4568:	00000031 	andeq	r0, r0, r1, lsr r0
    456c:	09891600 	stmibeq	r9, {r9, sl, ip}
    4570:	0e010000 	cdpeq	0, 0, cr0, cr1, cr0, {0}
    4574:	00002505 	andeq	r2, r0, r5, lsl #10
    4578:	020d0100 	andeq	r0, sp, #0
    457c:	b8090000 	stmdalt	r9, {}	; <UNPREDICTABLE>
    4580:	01000009 	tsteq	r0, r9
    4584:	00310e0f 	eorseq	r0, r1, pc, lsl #28
    4588:	17000000 	strne	r0, [r0, -r0]
    458c:	000001ef 	andeq	r0, r0, pc, ror #3
    4590:	00009ca8 	andeq	r9, r0, r8, lsr #25
    4594:	00000018 	andeq	r0, r0, r8, lsl r0
    4598:	022e9c01 	eoreq	r9, lr, #256	; 0x100
    459c:	000f0000 	andeq	r0, pc, r0
    45a0:	4a000002 	bmi	45b0 <__code_start__-0x3a50>
    45a4:	4600002b 	strmi	r0, [r0], -fp, lsr #32
    45a8:	0000002b 	andeq	r0, r0, fp, lsr #32
    45ac:	0001d517 	andeq	sp, r1, r7, lsl r5
    45b0:	009cc000 	addseq	ip, ip, r0
    45b4:	00001400 	andeq	r1, r0, r0, lsl #8
    45b8:	4f9c0100 	svcmi	0x009c0100
    45bc:	0f000002 	svceq	0x00000002
    45c0:	000001e2 	andeq	r0, r0, r2, ror #3
    45c4:	00002b71 	andeq	r2, r0, r1, ror fp
    45c8:	00002b69 	andeq	r2, r0, r9, ror #22
    45cc:	09421800 	stmdbeq	r2, {fp, ip}^
    45d0:	09420000 	stmdbeq	r2, {}^	; <UNPREDICTABLE>
    45d4:	3b020000 	blcc	845dc <__bss_end__+0x79a44>
    45d8:	c6190601 	ldrgt	r0, [r9], -r1, lsl #12
    45dc:	c6000008 	strgt	r0, [r0], -r8
    45e0:	02000008 	andeq	r0, r0, #8, 0
    45e4:	0919064d 	ldmdbeq	r9, {r0, r2, r3, r6, r9, sl}
    45e8:	09000000 	stmdbeq	r0, {}	; <UNPREDICTABLE>
    45ec:	02000000 	andeq	r0, r0, #0, 0
    45f0:	d6190658 			; <UNDEFINED> instruction: 0xd6190658
    45f4:	d6000005 	strle	r0, [r0], -r5
    45f8:	02000005 	andeq	r0, r0, #5, 0
    45fc:	3f0006b2 	svccc	0x000006b2
    4600:	04000005 	streq	r0, [r0], #-5
    4604:	00112d00 	andseq	r2, r1, r0, lsl #26
    4608:	36010400 	strcc	r0, [r1], -r0, lsl #8
    460c:	0c000006 	stceq	0, cr0, [r0], {6}
    4610:	000009c7 	andeq	r0, r0, r7, asr #19
    4614:	00000710 	andeq	r0, r0, r0, lsl r7
    4618:	00009d34 	andeq	r9, r0, r4, lsr sp
    461c:	0000011c 	andeq	r0, r0, ip, lsl r1
    4620:	00001e41 	andeq	r1, r0, r1, asr #28
    4624:	69050402 	stmdbvs	r5, {r1, sl}
    4628:	0300746e 	movweq	r7, #1134	; 0x46e
    462c:	01a00704 	lsleq	r0, r4, #14
    4630:	01030000 	mrseq	r0, (UNDEF: 3)
    4634:	00017506 	andeq	r7, r1, r6, lsl #10
    4638:	05020300 	streq	r0, [r2, #-768]	; 0xfffffd00
    463c:	0000002e 	andeq	r0, r0, lr, lsr #32
    4640:	ff050403 			; <UNDEFINED> instruction: 0xff050403
    4644:	03000000 	movweq	r0, #0
    4648:	00fa0508 	rscseq	r0, sl, r8, lsl #10
    464c:	01030000 	mrseq	r0, (UNDEF: 3)
    4650:	00017308 	andeq	r7, r1, r8, lsl #6
    4654:	07020300 	streq	r0, [r2, -r0, lsl #6]
    4658:	000001ef 	andeq	r0, r0, pc, ror #3
    465c:	9b070403 	blls	1c5670 <__bss_end__+0x1baad8>
    4660:	03000001 	movweq	r0, #1
    4664:	01960708 	orrseq	r0, r6, r8, lsl #14
    4668:	25040000 	strcs	r0, [r4, #-0]
    466c:	7a000000 	bvc	4674 <__code_start__-0x398c>
    4670:	05000000 	streq	r0, [r0, #-0]
    4674:	00000025 	andeq	r0, r0, r5, lsr #32
    4678:	005a0600 	subseq	r0, sl, r0, lsl #12
    467c:	1c020000 	stcne	0, cr0, [r2], {-0}
    4680:	0000860e 	andeq	r8, r0, lr, lsl #12
    4684:	6b040700 	blvs	10628c <__bss_end__+0xfb6f4>
    4688:	04000000 	streq	r0, [r0], #-0
    468c:	00000025 	andeq	r0, r0, r5, lsr #32
    4690:	0000009b 	muleq	r0, fp, r0
    4694:	00009b05 	andeq	r9, r0, r5, lsl #22
    4698:	04070000 	streq	r0, [r7], #-0
    469c:	000000a8 	andeq	r0, r0, r8, lsr #1
    46a0:	7c080103 	stfvcs	f0, [r8], {3}
    46a4:	08000001 	stmdaeq	r0, {r0}
    46a8:	000000a1 	andeq	r0, r0, r1, lsr #1
    46ac:	00078906 	andeq	r8, r7, r6, lsl #18
    46b0:	0e210200 	cdpeq	2, 2, cr0, cr1, cr0, {0}
    46b4:	000000b9 	strheq	r0, [r0], -r9
    46b8:	008c0407 	addeq	r0, ip, r7, lsl #8
    46bc:	bd090000 	stclt	0, cr0, [r9, #-0]
    46c0:	01000009 	tsteq	r0, r9
    46c4:	9dfc061e 	ldclls	6, cr0, [ip, #120]!	; 0x78
    46c8:	00540000 	subseq	r0, r4, r0
    46cc:	9c010000 	stcls	0, cr0, [r1], {-0}
    46d0:	0000020b 	andeq	r0, r0, fp, lsl #4
    46d4:	6365730a 	cmnvs	r5, #671088640	; 0x28000000
    46d8:	191e0100 	ldmdbne	lr, {r8}
    46dc:	0000002c 	andeq	r0, r0, ip, lsr #32
    46e0:	00002bae 	andeq	r2, r0, lr, lsr #23
    46e4:	00002baa 	andeq	r2, r0, sl, lsr #23
    46e8:	00020b0b 	andeq	r0, r2, fp, lsl #22
    46ec:	009dfc00 	addseq	pc, sp, r0, lsl #24
    46f0:	03c00200 	biceq	r0, r0, #0, 4
    46f4:	1f010000 	svcne	0x00010000
    46f8:	02180c05 	andseq	r0, r8, #1280	; 0x500
    46fc:	2bd30000 	blcs	ff4c4704 <__bss_end__+0xff4b9b6c>
    4700:	2bcf0000 	blcs	ff3c4708 <__bss_end__+0xff3b9b70>
    4704:	240d0000 	strcs	r0, [sp], #-0
    4708:	10000002 	andne	r0, r0, r2
    470c:	0000009e 	muleq	r0, lr, r0
    4710:	00009e10 	andeq	r9, r0, r0, lsl lr
    4714:	00000040 	andeq	r0, r0, r0, asr #32
    4718:	0c051c01 	stceq	12, cr1, [r5], {1}
    471c:	00000231 	andeq	r0, r0, r1, lsr r2
    4720:	00002c00 	andeq	r2, r0, r0, lsl #24
    4724:	00002bfe 	strdeq	r2, [r0], -lr
    4728:	00023c0e 	andeq	r3, r2, lr, lsl #24
    472c:	002c1500 	eoreq	r1, ip, r0, lsl #10
    4730:	002c1300 	eoreq	r1, ip, r0, lsl #6
    4734:	02550f00 	subseq	r0, r5, #0, 30
    4738:	9e100000 	cdpls	0, 1, cr0, cr0, cr0, {0}
    473c:	10020000 	andne	r0, r2, r0
    4740:	1400009e 	strne	r0, [r0], #-158	; 0xffffff62
    4744:	01000000 	mrseq	r0, (UNDEF: 0)
    4748:	019c1313 	orrseq	r1, ip, r3, lsl r3
    474c:	660e0000 	strvs	r0, [lr], -r0
    4750:	2c000002 	stccs	0, cr0, [r0], {2}
    4754:	2800002c 	stmdacs	r0, {r2, r3, r5}
    4758:	0f00002c 	svceq	0x0000002c
    475c:	00000271 	andeq	r0, r0, r1, ror r2
    4760:	00009e14 	andeq	r9, r0, r4, lsl lr
    4764:	009e1401 	addseq	r1, lr, r1, lsl #8
    4768:	00000c00 	andeq	r0, r0, r0, lsl #24
    476c:	120d0100 	andne	r0, sp, #0
    4770:	00000189 	andeq	r0, r0, r9, lsl #3
    4774:	009e1c10 	addseq	r1, lr, r0, lsl ip
    4778:	00052a00 	andeq	r2, r5, r0, lsl #20
    477c:	50011100 	andpl	r1, r1, r0, lsl #2
    4780:	30040c05 	andcc	r0, r4, r5, lsl #24
    4784:	00002000 	andeq	r2, r0, r0
    4788:	009e1412 	addseq	r1, lr, r2, lsl r4
    478c:	00053600 	andeq	r3, r5, r0, lsl #12
    4790:	9e241200 	cdpls	2, 2, cr1, cr4, cr0, {0}
    4794:	05360000 	ldreq	r0, [r6, #-0]!
    4798:	13000000 	movwne	r0, #0
    479c:	00000247 	andeq	r0, r0, r7, asr #4
    47a0:	000003d8 	ldrdeq	r0, [r0], -r8
    47a4:	00024814 	andeq	r4, r2, r4, lsl r8
    47a8:	02550b00 	subseq	r0, r5, #0, 22
    47ac:	9e280000 	cdpls	0, 2, cr0, cr8, cr0, {0}
    47b0:	f0020000 			; <UNDEFINED> instruction: 0xf0020000
    47b4:	01000003 	tsteq	r0, r3
    47b8:	f0151715 			; <UNDEFINED> instruction: 0xf0151715
    47bc:	0e000003 	cdpeq	0, 0, cr0, cr0, cr3, {0}
    47c0:	00000266 	andeq	r0, r0, r6, ror #4
    47c4:	00002c4c 	andeq	r2, r0, ip, asr #24
    47c8:	00002c4a 	andeq	r2, r0, sl, asr #24
    47cc:	00027116 	andeq	r7, r2, r6, lsl r1
    47d0:	009e2c00 	addseq	r2, lr, r0, lsl #24
    47d4:	04100100 	ldreq	r0, [r0], #-256	; 0xffffff00
    47d8:	0d010000 	stceq	0, cr0, [r1, #-0]
    47dc:	0001f312 	andeq	pc, r1, r2, lsl r3	; <UNPREDICTABLE>
    47e0:	9e341000 	cdpls	0, 3, cr1, cr4, cr0, {0}
    47e4:	052a0000 	streq	r0, [sl, #-0]!
    47e8:	01110000 	tsteq	r1, r0
    47ec:	00770250 	rsbseq	r0, r7, r0, asr r2
    47f0:	2c120000 	ldccs	0, cr0, [r2], {-0}
    47f4:	3600009e 			; <UNDEFINED> instruction: 0x3600009e
    47f8:	12000005 	andne	r0, r0, #5, 0
    47fc:	00009e40 	andeq	r9, r0, r0, asr #28
    4800:	00000536 	andeq	r0, r0, r6, lsr r5
    4804:	00000000 	andeq	r0, r0, r0
    4808:	09170000 	ldmdbeq	r7, {}	; <UNPREDICTABLE>
    480c:	01000000 	mrseq	r0, (UNDEF: 0)
    4810:	2401061b 	strcs	r0, [r1], #-1563	; 0xfffff9e5
    4814:	18000002 	stmdane	r0, {r1}
    4818:	0100736d 	tsteq	r0, sp, ror #6
    481c:	002c181b 	eoreq	r1, ip, fp, lsl r8
    4820:	17000000 	strne	r0, [r0, -r0]
    4824:	000009fd 	strdeq	r0, [r0], -sp
    4828:	01061201 	tsteq	r6, r1, lsl #4
    482c:	00000255 	andeq	r0, r0, r5, asr r2
    4830:	00737518 	rsbseq	r7, r3, r8, lsl r5
    4834:	2c181201 	lfmcs	f1, 4, [r8], {1}
    4838:	19000000 	stmdbne	r0, {}	; <UNPREDICTABLE>
    483c:	01006272 	tsteq	r0, r2, ror r2
    4840:	002c0e13 	eoreq	r0, ip, r3, lsl lr
    4844:	191a0000 	ldmdbne	sl, {}	; <UNPREDICTABLE>
    4848:	01006172 	tsteq	r0, r2, ror r1
    484c:	002c1215 	eoreq	r1, ip, r5, lsl r2
    4850:	00000000 	andeq	r0, r0, r0
    4854:	0009db1b 	andeq	sp, r9, fp, lsl fp
    4858:	0a090100 	beq	244c60 <__bss_end__+0x23a0c8>
    485c:	0000002c 	andeq	r0, r0, ip, lsr #32
    4860:	00027101 	andeq	r7, r2, r1, lsl #2
    4864:	00751900 	rsbseq	r1, r5, r0, lsl #18
    4868:	2c0e0d01 	stccs	13, cr0, [lr], {1}
    486c:	00000000 	andeq	r0, r0, r0
    4870:	0009ea1c 	andeq	lr, r9, ip, lsl sl
    4874:	0a040100 	beq	104c7c <__bss_end__+0xfa0e4>
    4878:	0000002c 	andeq	r0, r0, ip, lsr #32
    487c:	02711d01 	rsbseq	r1, r1, #64	; 0x40
    4880:	9d340000 	ldcls	0, cr0, [r4, #-0]
    4884:	000c0000 	andeq	r0, ip, r0
    4888:	9c010000 	stcls	0, cr0, [r1], {-0}
    488c:	000002a5 	andeq	r0, r0, r5, lsr #5
    4890:	009d3c1e 	addseq	r3, sp, lr, lsl ip
    4894:	00052a00 	andeq	r2, r5, r0, lsl #20
    4898:	50011100 	andpl	r1, r1, r0, lsl #2
    489c:	30040c05 	andcc	r0, r4, r5, lsl #24
    48a0:	00002000 	andeq	r2, r0, r0
    48a4:	0002551d 	andeq	r5, r2, sp, lsl r5
    48a8:	009d4000 	addseq	r4, sp, r0
    48ac:	00002400 	andeq	r2, r0, r0, lsl #8
    48b0:	059c0100 	ldreq	r0, [ip, #256]	; 0x100
    48b4:	0e000003 	cdpeq	0, 0, cr0, cr0, cr3, {0}
    48b8:	00000266 	andeq	r0, r0, r6, ror #4
    48bc:	00002c63 	andeq	r2, r0, r3, ror #24
    48c0:	00002c5f 	andeq	r2, r0, pc, asr ip
    48c4:	0002710f 	andeq	r7, r2, pc, lsl #2
    48c8:	009d4800 	addseq	r4, sp, r0, lsl #16
    48cc:	9d480100 	stflse	f0, [r8, #-0]
    48d0:	000c0000 	andeq	r0, ip, r0
    48d4:	0d010000 	stceq	0, cr0, [r1, #-0]
    48d8:	0002f212 	andeq	pc, r2, r2, lsl r2	; <UNPREDICTABLE>
    48dc:	9d501000 	ldclls	0, cr1, [r0, #-0]
    48e0:	052a0000 	streq	r0, [sl, #-0]!
    48e4:	01110000 	tsteq	r1, r0
    48e8:	040c0550 	streq	r0, [ip], #-1360	; 0xfffffab0
    48ec:	00200030 	eoreq	r0, r0, r0, lsr r0
    48f0:	9d481200 	sfmls	f1, 2, [r8, #-0]
    48f4:	05360000 	ldreq	r0, [r6, #-0]!
    48f8:	58120000 	ldmdapl	r2, {}	; <UNPREDICTABLE>
    48fc:	3600009d 			; <UNDEFINED> instruction: 0x3600009d
    4900:	00000005 	andeq	r0, r0, r5
    4904:	0002241d 	andeq	r2, r2, sp, lsl r4
    4908:	009d6400 	addseq	r6, sp, r0, lsl #8
    490c:	00004800 	andeq	r4, r0, r0, lsl #16
    4910:	079c0100 	ldreq	r0, [ip, r0, lsl #2]
    4914:	0c000004 	stceq	0, cr0, [r0], {4}
    4918:	00000231 	andeq	r0, r0, r1, lsr r2
    491c:	00002c85 	andeq	r2, r0, r5, lsl #25
    4920:	00002c81 	andeq	r2, r0, r1, lsl #25
    4924:	00023c0e 	andeq	r3, r2, lr, lsl #24
    4928:	002ca500 	eoreq	sl, ip, r0, lsl #10
    492c:	002ca300 	eoreq	sl, ip, r0, lsl #6
    4930:	02551600 	subseq	r1, r5, #0, 12
    4934:	9d640000 	stclls	0, cr0, [r4, #-0]
    4938:	08020000 	stmdaeq	r2, {}	; <UNPREDICTABLE>
    493c:	01000003 	tsteq	r0, r3
    4940:	039a1313 	orrseq	r1, sl, #1275068416	; 0x4c000000
    4944:	08150000 	ldmdaeq	r5, {}	; <UNPREDICTABLE>
    4948:	0e000003 	cdpeq	0, 0, cr0, cr0, cr3, {0}
    494c:	00000266 	andeq	r0, r0, r6, ror #4
    4950:	00002cbc 			; <UNDEFINED> instruction: 0x00002cbc
    4954:	00002cb8 			; <UNDEFINED> instruction: 0x00002cb8
    4958:	0002710f 	andeq	r7, r2, pc, lsl #2
    495c:	009d7000 	addseq	r7, sp, r0
    4960:	9d700100 	ldflse	f0, [r0, #-0]
    4964:	000c0000 	andeq	r0, ip, r0
    4968:	0d010000 	stceq	0, cr0, [r1, #-0]
    496c:	00038612 	andeq	r8, r3, r2, lsl r6
    4970:	9d781000 	ldclls	0, cr1, [r8, #-0]
    4974:	052a0000 	streq	r0, [sl, #-0]!
    4978:	01110000 	tsteq	r1, r0
    497c:	040c0550 	streq	r0, [ip], #-1360	; 0xfffffab0
    4980:	00200030 	eoreq	r0, r0, r0, lsr r0
    4984:	9d701200 	lfmls	f1, 2, [r0, #-0]
    4988:	05360000 	ldreq	r0, [r6, #-0]!
    498c:	80120000 	andshi	r0, r2, r0
    4990:	3600009d 			; <UNDEFINED> instruction: 0x3600009d
    4994:	00000005 	andeq	r0, r0, r5
    4998:	02471300 	subeq	r1, r7, #0, 6
    499c:	03200000 	nopeq	{0}	; <UNPREDICTABLE>
    49a0:	48140000 	ldmdami	r4, {}	; <UNPREDICTABLE>
    49a4:	0b000002 	bleq	49b4 <__code_start__-0x364c>
    49a8:	00000255 	andeq	r0, r0, r5, asr r2
    49ac:	00009d84 	andeq	r9, r0, r4, lsl #27
    49b0:	00033802 	andeq	r3, r3, r2, lsl #16
    49b4:	17150100 	ldrne	r0, [r5, -r0, lsl #2]
    49b8:	00033815 	andeq	r3, r3, r5, lsl r8
    49bc:	02660e00 	rsbeq	r0, r6, #0, 28
    49c0:	2cdc0000 	ldclcs	0, cr0, [ip], {0}
    49c4:	2cda0000 	ldclcs	0, cr0, [sl], {0}
    49c8:	71160000 	tstvc	r6, r0
    49cc:	88000002 	stmdahi	r0, {r1}
    49d0:	0100009d 	swpeq	r0, sp, [r0]	; <UNPREDICTABLE>
    49d4:	00000358 	andeq	r0, r0, r8, asr r3
    49d8:	f1120d01 			; <UNDEFINED> instruction: 0xf1120d01
    49dc:	10000003 	andne	r0, r0, r3
    49e0:	00009d90 	muleq	r0, r0, sp
    49e4:	0000052a 	andeq	r0, r0, sl, lsr #10
    49e8:	02500111 	subseq	r0, r0, #1073741828	; 0x40000004
    49ec:	00000077 	andeq	r0, r0, r7, ror r0
    49f0:	009d8812 	addseq	r8, sp, r2, lsl r8
    49f4:	00053600 	andeq	r3, r5, r0, lsl #12
    49f8:	9d9c1200 	lfmls	f1, 4, [ip]
    49fc:	05360000 	ldreq	r0, [r6, #-0]!
    4a00:	00000000 	andeq	r0, r0, r0
    4a04:	0b1d0000 	bleq	744a0c <__bss_end__+0x739e74>
    4a08:	ac000002 	stcge	0, cr0, [r0], {2}
    4a0c:	5000009d 	mulpl	r0, sp, r0
    4a10:	01000000 	mrseq	r0, (UNDEF: 0)
    4a14:	00052a9c 	muleq	r5, ip, sl
    4a18:	02180c00 	andseq	r0, r8, #0, 24
    4a1c:	2cf30000 	ldclcs	0, cr0, [r3]
    4a20:	2cef0000 	stclcs	0, cr0, [pc]	; 4a28 <__code_start__-0x35d8>
    4a24:	240d0000 	strcs	r0, [sp], #-0
    4a28:	bc000002 	stclt	0, cr0, [r0], {2}
    4a2c:	0000009d 	muleq	r0, sp, r0
    4a30:	00009dbc 			; <UNDEFINED> instruction: 0x00009dbc
    4a34:	00000040 	andeq	r0, r0, r0, asr #32
    4a38:	0c051c01 	stceq	12, cr1, [r5], {1}
    4a3c:	00000231 	andeq	r0, r0, r1, lsr r2
    4a40:	00002d16 	andeq	r2, r0, r6, lsl sp
    4a44:	00002d14 	andeq	r2, r0, r4, lsl sp
    4a48:	00023c0e 	andeq	r3, r2, lr, lsl #24
    4a4c:	002d2b00 	eoreq	r2, sp, r0, lsl #22
    4a50:	002d2900 	eoreq	r2, sp, r0, lsl #18
    4a54:	02550f00 	subseq	r0, r5, #0, 30
    4a58:	9dbc0000 	ldcls	0, cr0, [ip]
    4a5c:	bc020000 	stclt	0, cr0, [r2], {-0}
    4a60:	1400009d 	strne	r0, [r0], #-157	; 0xffffff63
    4a64:	01000000 	mrseq	r0, (UNDEF: 0)
    4a68:	04bc1313 	ldrteq	r1, [ip], #787	; 0x313
    4a6c:	660e0000 	strvs	r0, [lr], -r0
    4a70:	42000002 	andmi	r0, r0, #2, 0
    4a74:	3e00002d 	cdpcc	0, 0, cr0, cr0, cr13, {1}
    4a78:	0f00002d 	svceq	0x0000002d
    4a7c:	00000271 	andeq	r0, r0, r1, ror r2
    4a80:	00009dc0 	andeq	r9, r0, r0, asr #27
    4a84:	009dc001 	addseq	ip, sp, r1
    4a88:	00000c00 	andeq	r0, r0, r0, lsl #24
    4a8c:	120d0100 	andne	r0, sp, #0
    4a90:	000004a9 	andeq	r0, r0, r9, lsr #9
    4a94:	009dc810 	addseq	ip, sp, r0, lsl r8
    4a98:	00052a00 	andeq	r2, r5, r0, lsl #20
    4a9c:	50011100 	andpl	r1, r1, r0, lsl #2
    4aa0:	30040c05 	andcc	r0, r4, r5, lsl #24
    4aa4:	00002000 	andeq	r2, r0, r0
    4aa8:	009dc012 	addseq	ip, sp, r2, lsl r0
    4aac:	00053600 	andeq	r3, r5, r0, lsl #12
    4ab0:	9dd01200 	lfmls	f1, 2, [r0]
    4ab4:	05360000 	ldreq	r0, [r6, #-0]!
    4ab8:	13000000 	movwne	r0, #0
    4abc:	00000247 	andeq	r0, r0, r7, asr #4
    4ac0:	00000370 	andeq	r0, r0, r0, ror r3
    4ac4:	00024814 	andeq	r4, r2, r4, lsl r8
    4ac8:	02550b00 	subseq	r0, r5, #0, 22
    4acc:	9dd40000 	ldclls	0, cr0, [r4]
    4ad0:	88020000 	stmdahi	r2, {}	; <UNPREDICTABLE>
    4ad4:	01000003 	tsteq	r0, r3
    4ad8:	88151715 	ldmdahi	r5, {r0, r2, r4, r8, r9, sl, ip}
    4adc:	0e000003 	cdpeq	0, 0, cr0, cr0, cr3, {0}
    4ae0:	00000266 	andeq	r0, r0, r6, ror #4
    4ae4:	00002d62 	andeq	r2, r0, r2, ror #26
    4ae8:	00002d60 	andeq	r2, r0, r0, ror #26
    4aec:	00027116 	andeq	r7, r2, r6, lsl r1
    4af0:	009dd800 	addseq	sp, sp, r0, lsl #16
    4af4:	03a80100 			; <UNDEFINED> instruction: 0x03a80100
    4af8:	0d010000 	stceq	0, cr0, [r1, #-0]
    4afc:	00051312 	andeq	r1, r5, r2, lsl r3
    4b00:	9de01000 	stclls	0, cr1, [r0]
    4b04:	052a0000 	streq	r0, [sl, #-0]!
    4b08:	01110000 	tsteq	r1, r0
    4b0c:	00770250 	rsbseq	r0, r7, r0, asr r2
    4b10:	d8120000 	ldmdale	r2, {}	; <UNPREDICTABLE>
    4b14:	3600009d 			; <UNDEFINED> instruction: 0x3600009d
    4b18:	12000005 	andne	r0, r0, #5, 0
    4b1c:	00009dec 	andeq	r9, r0, ip, ror #27
    4b20:	00000536 	andeq	r0, r0, r6, lsr r5
    4b24:	00000000 	andeq	r0, r0, r0
    4b28:	05e61f00 	strbeq	r1, [r6, #3840]!	; 0xf00
    4b2c:	05e60000 	strbeq	r0, [r6, #0]!
    4b30:	c7020000 	strgt	r0, [r2, -r0]
    4b34:	04c31f0a 	strbeq	r1, [r3], #3850	; 0xf0a
    4b38:	04c30000 	strbeq	r0, [r3], #0
    4b3c:	a1020000 	mrsge	r0, (UNDEF: 2)
    4b40:	05cd0006 	strbeq	r0, [sp, #6]
    4b44:	00040000 	andeq	r0, r4, r0
    4b48:	000012fc 	strdeq	r1, [r0], -ip
    4b4c:	0aa40104 	beq	fe904f64 <__bss_end__+0xfe8fa3cc>
    4b50:	2e0c0000 	cdpcs	0, 0, cr0, cr12, cr0, {0}
    4b54:	5400000a 	strpl	r0, [r0], #-10
    4b58:	5000000a 	andpl	r0, r0, sl
    4b5c:	f000009e 			; <UNDEFINED> instruction: 0xf000009e
    4b60:	3f000001 	svccc	0x00000001
    4b64:	02000020 	andeq	r0, r0, #32, 0
    4b68:	6e690504 	cdpvs	5, 6, cr0, cr9, cr4, {0}
    4b6c:	04030074 	streq	r0, [r3], #-116	; 0xffffff8c
    4b70:	0001a007 	andeq	sl, r1, r7
    4b74:	002c0400 	eoreq	r0, ip, r0, lsl #8
    4b78:	01030000 	mrseq	r0, (UNDEF: 3)
    4b7c:	00017506 	andeq	r7, r1, r6, lsl #10
    4b80:	05020300 	streq	r0, [r2, #-768]	; 0xfffffd00
    4b84:	0000002e 	andeq	r0, r0, lr, lsr #32
    4b88:	ff050403 			; <UNDEFINED> instruction: 0xff050403
    4b8c:	03000000 	movweq	r0, #0
    4b90:	00fa0508 	rscseq	r0, sl, r8, lsl #10
    4b94:	01030000 	mrseq	r0, (UNDEF: 3)
    4b98:	00017308 	andeq	r7, r1, r8, lsl #6
    4b9c:	07020300 	streq	r0, [r2, -r0, lsl #6]
    4ba0:	000001ef 	andeq	r0, r0, pc, ror #3
    4ba4:	0001ad05 	andeq	sl, r1, r5, lsl #26
    4ba8:	19340500 	ldmdbne	r4!, {r8, sl}
    4bac:	0000006e 	andeq	r0, r0, lr, rrx
    4bb0:	9b070403 	blls	1c5bc4 <__bss_end__+0x1bb02c>
    4bb4:	03000001 	movweq	r0, #1
    4bb8:	01960708 	orrseq	r0, r6, r8, lsl #14
    4bbc:	01030000 	mrseq	r0, (UNDEF: 3)
    4bc0:	00017c08 	andeq	r7, r1, r8, lsl #24
    4bc4:	01070600 	tsteq	r7, r0, lsl #12
    4bc8:	00000054 	andeq	r0, r0, r4, asr r0
    4bcc:	c20e0c04 	andgt	r0, lr, #4, 24	; 0x400
    4bd0:	07000000 	streq	r0, [r0, -r0]
    4bd4:	0000047a 	andeq	r0, r0, sl, ror r4
    4bd8:	03ae0700 			; <UNDEFINED> instruction: 0x03ae0700
    4bdc:	07010000 	streq	r0, [r1, -r0]
    4be0:	000003c7 	andeq	r0, r0, r7, asr #7
    4be4:	03d60704 	bicseq	r0, r6, #4, 14	; 0x100000
    4be8:	07050000 	streq	r0, [r5, -r0]
    4bec:	000003e5 	andeq	r0, r0, r5, ror #7
    4bf0:	03f40706 	mvnseq	r0, #1572864	; 0x180000
    4bf4:	07070000 	streq	r0, [r7, -r0]
    4bf8:	00000403 	andeq	r0, r0, r3, lsl #8
    4bfc:	04120703 	ldreq	r0, [r2], #-1795	; 0xfffff8fd
    4c00:	00020000 	andeq	r0, r2, r0
    4c04:	000a2208 	andeq	r2, sl, r8, lsl #4
    4c08:	06022c00 	streq	r2, [r2], -r0, lsl #24
    4c0c:	00015e08 	andeq	r5, r1, r8, lsl #28
    4c10:	6f690900 	svcvs	0x00690900
    4c14:	09090200 	stmdbeq	r9, {r9}
    4c18:	00000033 	andeq	r0, r0, r3, lsr r0
    4c1c:	65690900 	strbvs	r0, [r9, #-2304]!	; 0xfffff700
    4c20:	0a020072 	beq	84df0 <__bss_end__+0x7a258>
    4c24:	00003309 	andeq	r3, r0, r9, lsl #6
    4c28:	69090400 	stmdbvs	r9, {sl}
    4c2c:	02007269 	andeq	r7, r0, #-1879048186	; 0x90000006
    4c30:	00330911 	eorseq	r0, r3, r1, lsl r9
    4c34:	09080000 	stmdbeq	r8, {}	; <UNPREDICTABLE>
    4c38:	0072636c 	rsbseq	r6, r2, ip, ror #6
    4c3c:	33091302 	movwcc	r1, #37634	; 0x9302
    4c40:	0c000000 	stceq	0, cr0, [r0], {-0}
    4c44:	72636d09 	rsbvc	r6, r3, #576	; 0x240
    4c48:	09140200 	ldmdbeq	r4, {r9}
    4c4c:	00000033 	andeq	r0, r0, r3, lsr r0
    4c50:	736c0910 	cmnvc	ip, #16, 18	; 0x40000
    4c54:	15020072 	strne	r0, [r2, #-114]	; 0xffffff8e
    4c58:	00003309 	andeq	r3, r0, r9, lsl #6
    4c5c:	6d091400 	cfstrsvs	mvf1, [r9, #-0]
    4c60:	02007273 	andeq	r7, r0, #805306375	; 0x30000007
    4c64:	00330916 	eorseq	r0, r3, r6, lsl r9
    4c68:	0a180000 	beq	604c70 <__bss_end__+0x5fa0d8>
    4c6c:	00000b5f 	andeq	r0, r0, pc, asr fp
    4c70:	33091702 	movwcc	r1, #38658	; 0x9702
    4c74:	1c000000 	stcne	0, cr0, [r0], {-0}
    4c78:	000b370a 	andeq	r3, fp, sl, lsl #14
    4c7c:	091b0200 	ldmdbeq	fp, {r9}
    4c80:	00000033 	andeq	r0, r0, r3, lsr r0
    4c84:	0a0f0a20 	beq	3c750c <__bss_end__+0x3bc974>
    4c88:	1d020000 	stcne	0, cr0, [r2, #-0]
    4c8c:	00003309 	andeq	r3, r0, r9, lsl #6
    4c90:	890a2400 	stmdbhi	sl, {sl, sp}
    4c94:	0200000a 	andeq	r0, r0, #10, 0
    4c98:	0033091e 	eorseq	r0, r3, lr, lsl r9
    4c9c:	00280000 	eoreq	r0, r8, r0
    4ca0:	000a8e0b 	andeq	r8, sl, fp, lsl #28
    4ca4:	09080100 	stmdbeq	r8, {r8}
    4ca8:	00000174 	andeq	r0, r0, r4, ror r1
    4cac:	20215004 	eorcs	r5, r1, r4
    4cb0:	0033040c 	eorseq	r0, r3, ip, lsl #8
    4cb4:	6e0d0000 	cdpvs	0, 0, cr0, cr13, cr0, {0}
    4cb8:	0b000001 	bleq	4cc4 <__code_start__-0x333c>
    4cbc:	00000b67 	andeq	r0, r0, r7, ror #22
    4cc0:	8f232901 	svchi	0x00232901
    4cc4:	40000001 	andmi	r0, r0, r1
    4cc8:	0c202150 	stfeqs	f2, [r0], #-320	; 0xfffffec0
    4ccc:	0000c204 	andeq	ip, r0, r4, lsl #4
    4cd0:	01890d00 	orreq	r0, r9, r0, lsl #26
    4cd4:	c60e0000 	strgt	r0, [lr], -r0
    4cd8:	01000008 	tsteq	r0, r8
    4cdc:	a00806cc 	andge	r0, r8, ip, asr #13
    4ce0:	00140000 	andseq	r0, r4, r0
    4ce4:	9c010000 	stcls	0, cr0, [r1], {-0}
    4ce8:	000001b4 			; <UNDEFINED> instruction: 0x000001b4
    4cec:	00a0100f 	adceq	r1, r0, pc
    4cf0:	0001b400 	andeq	fp, r1, r0, lsl #8
    4cf4:	43100000 	tstmi	r0, #0, 0
    4cf8:	0100000a 	tsteq	r0, sl
    4cfc:	002505b6 	strhteq	r0, [r5], -r6
    4d00:	9fe80000 	svcls	0x00e80000
    4d04:	00200000 	eoreq	r0, r0, r0
    4d08:	9c010000 	stcls	0, cr0, [r1], {-0}
    4d0c:	000001eb 	andeq	r0, r0, fp, ror #3
    4d10:	009ff00f 	addseq	pc, pc, pc
    4d14:	0005a000 	andeq	sl, r5, r0
    4d18:	9ff81100 	svcls	0x00f81100
    4d1c:	05ac0000 	streq	r0, [ip, #0]!
    4d20:	01120000 	tsteq	r2, r0
    4d24:	640c0550 	strvs	r0, [ip], #-1360	; 0xfffffab0
    4d28:	00202150 	eoreq	r2, r0, r0, asr r1
    4d2c:	0b491000 	bleq	1248d34 <__bss_end__+0x123e19c>
    4d30:	b3010000 	movwlt	r0, #4096	; 0x1000
    4d34:	00002505 	andeq	r2, r0, r5, lsl #10
    4d38:	009fd800 	addseq	sp, pc, r0, lsl #16
    4d3c:	00001000 	andeq	r1, r0, r0
    4d40:	189c0100 	ldmne	ip, {r8}
    4d44:	0f000002 	svceq	0x00000002
    4d48:	00009fe0 	andeq	r9, r0, r0, ror #31
    4d4c:	000005a0 	andeq	r0, r0, r0, lsr #11
    4d50:	009fe40f 	addseq	lr, pc, pc, lsl #8
    4d54:	00030900 	andeq	r0, r3, r0, lsl #18
    4d58:	750e0000 	strvc	r0, [lr, #-0]
    4d5c:	0100000b 	tsteq	r0, fp
    4d60:	9fa806ab 	svcls	0x00a806ab
    4d64:	00300000 	eorseq	r0, r0, r0
    4d68:	9c010000 	stcls	0, cr0, [r1], {-0}
    4d6c:	0000027c 	andeq	r0, r0, ip, ror r2
    4d70:	01006313 	tsteq	r0, r3, lsl r3
    4d74:	002c19ab 	eoreq	r1, ip, fp, lsr #19
    4d78:	2d790000 	ldclcs	0, cr0, [r9, #-0]
    4d7c:	2d750000 	ldclcs	0, cr0, [r5, #-0]
    4d80:	b40f0000 	strlt	r0, [pc], #-0	; 4d88 <__code_start__-0x3278>
    4d84:	a000009f 	mulge	r0, pc, r0	; <UNPREDICTABLE>
    4d88:	0f000005 	svceq	0x00000005
    4d8c:	00009fb8 			; <UNDEFINED> instruction: 0x00009fb8
    4d90:	000002db 	ldrdeq	r0, [r0], -fp
    4d94:	009fcc14 	addseq	ip, pc, r4, lsl ip	; <UNPREDICTABLE>
    4d98:	0005b800 	andeq	fp, r5, r0, lsl #16
    4d9c:	00027200 	andeq	r7, r2, r0, lsl #4
    4da0:	50011200 	andpl	r1, r1, r0, lsl #4
    4da4:	50400c05 	subpl	r0, r0, r5, lsl #24
    4da8:	01122021 	tsteq	r2, r1, lsr #32
    4dac:	00740551 	rsbseq	r0, r4, r1, asr r5
    4db0:	001aff08 	andseq	pc, sl, r8, lsl #30
    4db4:	009fd00f 	addseq	sp, pc, pc
    4db8:	0005a000 	andeq	sl, r5, r0
    4dbc:	9a100000 	bls	404dc4 <__bss_end__+0x3fa22c>
    4dc0:	0100000a 	tsteq	r0, sl
    4dc4:	002505a3 	eoreq	r0, r5, r3, lsr #11
    4dc8:	9f780000 	svcls	0x00780000
    4dcc:	00300000 	eorseq	r0, r0, r0
    4dd0:	9c010000 	stcls	0, cr0, [r1], {-0}
    4dd4:	000002db 	ldrdeq	r0, [r0], -fp
    4dd8:	01006315 	tsteq	r0, r5, lsl r3
    4ddc:	002509a7 	eoreq	r0, r5, r7, lsr #19
    4de0:	2d990000 	ldccs	0, cr0, [r9]
    4de4:	2d970000 	ldccs	0, cr0, [r7]
    4de8:	800f0000 	andhi	r0, pc, r0
    4dec:	a000009f 	mulge	r0, pc, r0	; <UNPREDICTABLE>
    4df0:	0f000005 	svceq	0x00000005
    4df4:	00009f84 	andeq	r9, r0, r4, lsl #31
    4df8:	00000309 	andeq	r0, r0, r9, lsl #6
    4dfc:	009f9414 	addseq	r9, pc, r4, lsl r4	; <UNPREDICTABLE>
    4e00:	0005ac00 	andeq	sl, r5, r0, lsl #24
    4e04:	0002d100 	andeq	sp, r2, r0, lsl #2
    4e08:	50011200 	andpl	r1, r1, r0, lsl #4
    4e0c:	50400c05 	subpl	r0, r0, r5, lsl #24
    4e10:	0f002021 	svceq	0x00002021
    4e14:	00009f9c 	muleq	r0, ip, pc	; <UNPREDICTABLE>
    4e18:	000005a0 	andeq	r0, r0, r0, lsr #11
    4e1c:	0a351000 	beq	d48e24 <__bss_end__+0xd3e28c>
    4e20:	94010000 	strls	r0, [r1], #-0
    4e24:	00002505 	andeq	r2, r0, r5, lsl #10
    4e28:	009f5800 	addseq	r5, pc, r0, lsl #16
    4e2c:	00002000 	andeq	r2, r0, r0
    4e30:	099c0100 	ldmibeq	ip, {r8}
    4e34:	11000003 	tstne	r0, r3
    4e38:	00009f64 	andeq	r9, r0, r4, ror #30
    4e3c:	000005ac 	andeq	r0, r0, ip, lsr #11
    4e40:	05500112 	ldrbeq	r0, [r0, #-274]	; 0xfffffeee
    4e44:	2150640c 	cmpcs	r0, ip, lsl #8
    4e48:	10000020 	andne	r0, r0, r0, lsr #32
    4e4c:	00000a14 	andeq	r0, r0, r4, lsl sl
    4e50:	25058b01 	strcs	r8, [r5, #-2817]	; 0xfffff4ff
    4e54:	40000000 	andmi	r0, r0, r0
    4e58:	1800009f 	stmdane	r0, {r0, r1, r2, r3, r4, r7}
    4e5c:	01000000 	mrseq	r0, (UNDEF: 0)
    4e60:	0003379c 	muleq	r3, ip, r7
    4e64:	9f4c1100 	svcls	0x004c1100
    4e68:	05ac0000 	streq	r0, [ip, #0]!
    4e6c:	01120000 	tsteq	r2, r0
    4e70:	640c0550 	strvs	r0, [ip], #-1360	; 0xfffffab0
    4e74:	00202150 	eoreq	r2, r0, r0, asr r1
    4e78:	08e40e00 	stmiaeq	r4!, {r9, sl, fp}^
    4e7c:	45010000 	strmi	r0, [r1, #-0]
    4e80:	009e9006 	addseq	r9, lr, r6
    4e84:	0000b000 	andeq	fp, r0, r0
    4e88:	849c0100 	ldrhi	r0, [ip], #256	; 0x100
    4e8c:	16000004 	strne	r0, [r0], -r4
    4e90:	00000a06 	andeq	r0, r0, r6, lsl #20
    4e94:	620e7e01 	andvs	r7, lr, #1, 28
    4e98:	0e000000 	cdpeq	0, 0, cr0, cr0, cr0, {0}
    4e9c:	9ea01401 	cdpls	4, 10, cr1, cr0, cr1, {0}
    4ea0:	05c40000 	strbeq	r0, [r4]
    4ea4:	03730000 	cmneq	r3, #0, 0
    4ea8:	01120000 	tsteq	r2, r0
    4eac:	123e0150 	eorsne	r0, lr, #20
    4eb0:	32015101 	andcc	r5, r1, #1073741824	; 0x40000000
    4eb4:	9eac1400 	cdpls	4, 10, cr1, cr12, cr0, {0}
    4eb8:	05c40000 	strbeq	r0, [r4]
    4ebc:	038b0000 	orreq	r0, fp, #0, 0
    4ec0:	01120000 	tsteq	r2, r0
    4ec4:	123f0150 	eorsne	r0, pc, #20
    4ec8:	32015101 	andcc	r5, r1, #1073741824	; 0x40000000
    4ecc:	9eb00f00 	cdpls	15, 11, cr0, cr0, cr0, {0}
    4ed0:	05a00000 	streq	r0, [r0, #0]!
    4ed4:	bc140000 	ldclt	0, cr0, [r4], {-0}
    4ed8:	3d00009e 	stccc	0, cr0, [r0, #-632]	; 0xfffffd88
    4edc:	b0000005 	andlt	r0, r0, r5
    4ee0:	12000003 	andne	r0, r0, #3, 0
    4ee4:	0c055001 	stceq	0, cr5, [r5], {1}
    4ee8:	20215004 	eorcs	r5, r1, r4
    4eec:	01510112 	cmpeq	r1, r2, lsl r1
    4ef0:	c00f0031 	andgt	r0, pc, r1, lsr r0	; <UNPREDICTABLE>
    4ef4:	a000009e 	mulge	r0, lr, r0
    4ef8:	14000005 	strne	r0, [r0], #-5
    4efc:	00009ed0 	ldrdeq	r9, [r0], -r0
    4f00:	000005b8 			; <UNDEFINED> instruction: 0x000005b8
    4f04:	000003d2 	ldrdeq	r0, [r0], -r2
    4f08:	02500112 	subseq	r0, r0, #-2147483644	; 0x80000004
    4f0c:	01120074 	tsteq	r2, r4, ror r0
    4f10:	00300151 	eorseq	r0, r0, r1, asr r1
    4f14:	009edc14 	addseq	sp, lr, r4, lsl ip
    4f18:	0005b800 	andeq	fp, r5, r0, lsl #16
    4f1c:	0003ee00 	andeq	lr, r3, r0, lsl #28
    4f20:	50011200 	andpl	r1, r1, r0, lsl #4
    4f24:	50440c05 	subpl	r0, r4, r5, lsl #24
    4f28:	01122021 	tsteq	r2, r1, lsr #32
    4f2c:	00300151 	eorseq	r0, r0, r1, asr r1
    4f30:	009ee814 	addseq	lr, lr, r4, lsl r8
    4f34:	0005b800 	andeq	fp, r5, r0, lsl #16
    4f38:	00040a00 	andeq	r0, r4, r0, lsl #20
    4f3c:	50011200 	andpl	r1, r1, r0, lsl #4
    4f40:	504c0c05 	subpl	r0, ip, r5, lsl #24
    4f44:	01122021 	tsteq	r2, r1, lsr #32
    4f48:	00330151 	eorseq	r0, r3, r1, asr r1
    4f4c:	009ef414 	addseq	pc, lr, r4, lsl r4	; <UNPREDICTABLE>
    4f50:	0005b800 	andeq	fp, r5, r0, lsl #16
    4f54:	00042600 	andeq	r2, r4, r0, lsl #12
    4f58:	50011200 	andpl	r1, r1, r0, lsl #4
    4f5c:	50500c05 	subspl	r0, r0, r5, lsl #24
    4f60:	01122021 	tsteq	r2, r1, lsr #32
    4f64:	00300151 	eorseq	r0, r0, r1, asr r1
    4f68:	009f0014 	addseq	r0, pc, r4, lsl r0	; <UNPREDICTABLE>
    4f6c:	0005b800 	andeq	fp, r5, r0, lsl #16
    4f70:	00044300 	andeq	r4, r4, r0, lsl #6
    4f74:	50011200 	andpl	r1, r1, r0, lsl #4
    4f78:	50480c05 	subpl	r0, r8, r5, lsl #24
    4f7c:	01122021 	tsteq	r2, r1, lsr #32
    4f80:	c7080251 	smlsdgt	r8, r1, r2, r0
    4f84:	9f0c1400 	svcls	0x000c1400
    4f88:	05b80000 	ldreq	r0, [r8, #0]!
    4f8c:	04610000 	strbteq	r0, [r1], #-0
    4f90:	01120000 	tsteq	r2, r0
    4f94:	680c0550 	stmdavs	ip, {r4, r6, r8, sl}
    4f98:	12202150 	eorne	r2, r0, #20
    4f9c:	0a035101 	beq	d93a8 <__bss_end__+0xce810>
    4fa0:	1400010e 	strne	r0, [r0], #-270	; 0xfffffef2
    4fa4:	00009f18 	andeq	r9, r0, r8, lsl pc
    4fa8:	000005b8 			; <UNDEFINED> instruction: 0x000005b8
    4fac:	0000047a 	andeq	r0, r0, sl, ror r4
    4fb0:	02500112 	subseq	r0, r0, #-2147483644	; 0x80000004
    4fb4:	01120074 	tsteq	r2, r4, ror r0
    4fb8:	00330151 	eorseq	r0, r3, r1, asr r1
    4fbc:	009f1c0f 	addseq	r1, pc, pc, lsl #24
    4fc0:	0005a000 	andeq	sl, r5, r0
    4fc4:	3c0e0000 	stccc	0, cr0, [lr], {-0}
    4fc8:	0100000b 	tsteq	r0, fp
    4fcc:	a01c0635 	andsge	r0, ip, r5, lsr r6
    4fd0:	00240000 	eoreq	r0, r4, r0
    4fd4:	9c010000 	stcls	0, cr0, [r1], {-0}
    4fd8:	000004d3 	ldrdeq	r0, [r0], -r3
    4fdc:	00a0240f 	adceq	r2, r0, pc, lsl #8
    4fe0:	00019400 	andeq	r9, r1, r0, lsl #8
    4fe4:	a0280f00 	eorge	r0, r8, r0, lsl #30
    4fe8:	05a00000 	streq	r0, [r0, #0]!
    4fec:	34140000 	ldrcc	r0, [r4], #-0
    4ff0:	d30000a0 	movwle	r0, #160	; 0xa0
    4ff4:	c9000004 	stmdbgt	r0, {r2}
    4ff8:	12000004 	andne	r0, r0, #4, 0
    4ffc:	0c055001 	stceq	0, cr5, [r5], {1}
    5000:	20215004 	eorcs	r5, r1, r4
    5004:	02510112 	subseq	r0, r1, #-2147483644	; 0x80000004
    5008:	0f00fe09 	svceq	0x0000fe09
    500c:	0000a038 	andeq	sl, r0, r8, lsr r0
    5010:	000005a0 	andeq	r0, r0, r0, lsr #11
    5014:	0b6c1700 	bleq	1b0ac1c <__bss_end__+0x1b00084>
    5018:	31010000 	mrscc	r0, (UNDEF: 1)
    501c:	009e500d 	addseq	r5, lr, sp
    5020:	00002000 	andeq	r2, r0, r0
    5024:	369c0100 	ldrcc	r0, [ip], r0, lsl #2
    5028:	18000005 	stmdane	r0, {r0, r2}
    502c:	000004be 			; <UNDEFINED> instruction: 0x000004be
    5030:	36253101 	strtcc	r3, [r5], -r1, lsl #2
    5034:	b0000005 	andlt	r0, r0, r5
    5038:	ac00002d 	stcge	0, cr0, [r0], {45}	; 0x2d
    503c:	1300002d 	movwne	r0, #45	; 0x2d
    5040:	006c6176 	rsbeq	r6, ip, r6, ror r1
    5044:	2c343101 	ldfcss	f3, [r4], #-4
    5048:	d2000000 	andle	r0, r0, #0, 0
    504c:	ce00002d 	cdpgt	0, 0, cr0, cr0, cr13, {1}
    5050:	1400002d 	strne	r0, [r0], #-45	; 0xffffffd3
    5054:	00009e60 	andeq	r9, r0, r0, ror #28
    5058:	000005ac 	andeq	r0, r0, ip, lsr #11
    505c:	00000525 	andeq	r0, r0, r5, lsr #10
    5060:	02500112 	subseq	r0, r0, #-2147483644	; 0x80000004
    5064:	11000074 	tstne	r0, r4, ror r0
    5068:	00009e6c 	andeq	r9, r0, ip, ror #28
    506c:	000005b8 			; <UNDEFINED> instruction: 0x000005b8
    5070:	02500112 	subseq	r0, r0, #-2147483644	; 0x80000004
    5074:	00000074 	andeq	r0, r0, r4, ror r0
    5078:	053c040c 	ldreq	r0, [ip, #-1036]!	; 0xfffffbf4
    507c:	17190000 	ldrne	r0, [r9, -r0]
    5080:	00000b57 	andeq	r0, r0, r7, asr fp
    5084:	700d2e01 	andvc	r2, sp, r1, lsl #28
    5088:	2000009e 	mulcs	r0, lr, r0
    508c:	01000000 	mrseq	r0, (UNDEF: 0)
    5090:	0005a09c 	muleq	r5, ip, r0
    5094:	04be1800 	ldrteq	r1, [lr], #2048	; 0x800
    5098:	2e010000 	cdpcs	0, 0, cr0, cr1, cr0, {0}
    509c:	00053624 	andeq	r3, r5, r4, lsr #12
    50a0:	002df400 	eoreq	pc, sp, r0, lsl #8
    50a4:	002df000 	eoreq	pc, sp, r0
    50a8:	61761300 	cmnvs	r6, r0, lsl #6
    50ac:	2e01006c 	cdpcs	0, 0, cr0, cr1, cr12, {3}
    50b0:	00002c33 	andeq	r2, r0, r3, lsr ip
    50b4:	002e1600 	eoreq	r1, lr, r0, lsl #12
    50b8:	002e1200 	eoreq	r1, lr, r0, lsl #4
    50bc:	9e801400 	cdpls	4, 8, cr1, cr0, cr0, {0}
    50c0:	05ac0000 	streq	r0, [ip, #0]!
    50c4:	058f0000 	streq	r0, [pc]	; 50cc <__code_start__-0x2f34>
    50c8:	01120000 	tsteq	r2, r0
    50cc:	00740250 	rsbseq	r0, r4, r0, asr r2
    50d0:	9e8c1100 	rmflse	f1, f4, f0
    50d4:	05b80000 	ldreq	r0, [r8, #0]!
    50d8:	01120000 	tsteq	r2, r0
    50dc:	00740250 	rsbseq	r0, r4, r0, asr r2
    50e0:	c31a0000 	tstgt	sl, #0, 0
    50e4:	c3000004 	movwgt	r0, #4
    50e8:	03000004 	movweq	r0, #4
    50ec:	cf1a06a1 	svcgt	0x001a06a1
    50f0:	cf000004 	svcgt	0x00000004
    50f4:	03000004 	movweq	r0, #4
    50f8:	411a0bc8 	tstmi	sl, r8, asr #23
    50fc:	41000004 	tstmi	r0, r4
    5100:	03000004 	movweq	r0, #4
    5104:	111a06b3 			; <UNDEFINED> instruction: 0x111a06b3
    5108:	11000005 	tstne	r0, r5
    510c:	04000005 	streq	r0, [r0], #-5
    5110:	49000619 	stmdbmi	r0, {r0, r3, r4, r9, sl}
    5114:	04000001 	streq	r0, [r0], #-1
    5118:	00149400 	andseq	r9, r4, r0, lsl #8
    511c:	36010400 	strcc	r0, [r1], -r0, lsl #8
    5120:	0c000006 	stceq	0, cr0, [r0], {6}
    5124:	00000b9d 	muleq	r0, sp, fp
    5128:	00000710 	andeq	r0, r0, r0, lsl r7
    512c:	0000a040 	andeq	sl, r0, r0, asr #32
    5130:	0000003c 	andeq	r0, r0, ip, lsr r0
    5134:	00002248 	andeq	r2, r0, r8, asr #4
    5138:	69050402 	stmdbvs	r5, {r1, sl}
    513c:	0300746e 	movweq	r7, #1134	; 0x46e
    5140:	01a00704 	lsleq	r0, r4, #14
    5144:	01030000 	mrseq	r0, (UNDEF: 3)
    5148:	00017506 	andeq	r7, r1, r6, lsl #10
    514c:	05020300 	streq	r0, [r2, #-768]	; 0xfffffd00
    5150:	0000002e 	andeq	r0, r0, lr, lsr #32
    5154:	ff050403 			; <UNDEFINED> instruction: 0xff050403
    5158:	03000000 	movweq	r0, #0
    515c:	00fa0508 	rscseq	r0, sl, r8, lsl #10
    5160:	01030000 	mrseq	r0, (UNDEF: 3)
    5164:	00017308 	andeq	r7, r1, r8, lsl #6
    5168:	07020300 	streq	r0, [r2, -r0, lsl #6]
    516c:	000001ef 	andeq	r0, r0, pc, ror #3
    5170:	9b070403 	blls	1c6184 <__bss_end__+0x1bb5ec>
    5174:	03000001 	movweq	r0, #1
    5178:	01960708 	orrseq	r0, r6, r8, lsl #14
    517c:	25040000 	strcs	r0, [r4, #-0]
    5180:	7a000000 	bvc	5188 <__code_start__-0x2e78>
    5184:	05000000 	streq	r0, [r0, #-0]
    5188:	00000025 	andeq	r0, r0, r5, lsr #32
    518c:	005a0600 	subseq	r0, sl, r0, lsl #12
    5190:	1c020000 	stcne	0, cr0, [r2], {-0}
    5194:	0000860e 	andeq	r8, r0, lr, lsl #12
    5198:	6b040700 	blvs	106da0 <__bss_end__+0xfc208>
    519c:	04000000 	streq	r0, [r0], #-0
    51a0:	00000025 	andeq	r0, r0, r5, lsr #32
    51a4:	0000009b 	muleq	r0, fp, r0
    51a8:	00009b05 	andeq	r9, r0, r5, lsl #22
    51ac:	04070000 	streq	r0, [r7], #-0
    51b0:	000000a8 	andeq	r0, r0, r8, lsr #1
    51b4:	7c080103 	stfvcs	f0, [r8], {3}
    51b8:	08000001 	stmdaeq	r0, {r0}
    51bc:	000000a1 	andeq	r0, r0, r1, lsr #1
    51c0:	00078906 	andeq	r8, r7, r6, lsl #18
    51c4:	0e210200 	cdpeq	2, 2, cr0, cr1, cr0, {0}
    51c8:	000000b9 	strheq	r0, [r0], -r9
    51cc:	008c0407 	addeq	r0, ip, r7, lsl #8
    51d0:	7a090000 	bvc	2451d8 <__bss_end__+0x23a640>
    51d4:	01000000 	mrseq	r0, (UNDEF: 0)
    51d8:	03050706 	movweq	r0, #22278	; 0x5706
    51dc:	0000a788 	andeq	sl, r0, r8, lsl #15
    51e0:	000b900a 	andeq	r9, fp, sl
    51e4:	060b0100 	streq	r0, [fp], -r0, lsl #2
    51e8:	0000a06c 	andeq	sl, r0, ip, rrx
    51ec:	00000010 	andeq	r0, r0, r0, lsl r0
    51f0:	00f19c01 	rscseq	r9, r1, r1, lsl #24
    51f4:	660b0000 	strvs	r0, [fp], -r0
    51f8:	0b010070 	bleq	453c0 <__bss_end__+0x3a828>
    51fc:	00008619 	andeq	r8, r0, r9, lsl r6
    5200:	00500100 	subseq	r0, r0, r0, lsl #2
    5204:	000bae0c 	andeq	sl, fp, ip, lsl #28
    5208:	06080100 	streq	r0, [r8], -r0, lsl #2
    520c:	0000a054 	andeq	sl, r0, r4, asr r0
    5210:	00000018 	andeq	r0, r0, r8, lsl r0
    5214:	7f0d9c01 	svcvc	0x000d9c01
    5218:	0100000b 	tsteq	r0, fp
    521c:	00250c03 	eoreq	r0, r5, r3, lsl #24
    5220:	a0400000 	subge	r0, r0, r0
    5224:	00140000 	andseq	r0, r4, r0
    5228:	9c010000 	stcls	0, cr0, [r1], {-0}
    522c:	00000140 	andeq	r0, r0, r0, asr #2
    5230:	0100630e 	tsteq	r0, lr, lsl #6
    5234:	00252103 	eoreq	r2, r5, r3, lsl #2
    5238:	2e380000 	cdpcs	0, 3, cr0, cr8, cr0, {0}
    523c:	2e340000 	cdpcs	0, 3, cr0, cr4, cr0, {0}
    5240:	4c0f0000 	stcmi	0, cr0, [pc], {-0}
    5244:	400000a0 	andmi	r0, r0, r0, lsr #1
    5248:	10000001 	andne	r0, r0, r1
    524c:	74025001 	strvc	r5, [r2], #-1
    5250:	11000000 	mrsne	r0, (UNDEF: 0)
    5254:	00000b75 	andeq	r0, r0, r5, ror fp
    5258:	00000b75 	andeq	r0, r0, r5, ror fp
    525c:	00064202 	andeq	r4, r6, r2, lsl #4
    5260:	00000137 	andeq	r0, r0, r7, lsr r1
    5264:	15a30004 	strne	r0, [r3, #4]!
    5268:	01040000 	mrseq	r0, (UNDEF: 4)
    526c:	00000636 	andeq	r0, r0, r6, lsr r6
    5270:	000bc20c 	andeq	ip, fp, ip, lsl #4
    5274:	00071000 	andeq	r1, r7, r0
    5278:	00a07c00 	adceq	r7, r0, r0, lsl #24
    527c:	00002c00 	andeq	r2, r0, r0, lsl #24
    5280:	0022ea00 	eoreq	lr, r2, r0, lsl #20
    5284:	05040200 	streq	r0, [r4, #-512]	; 0xfffffe00
    5288:	00746e69 	rsbseq	r6, r4, r9, ror #28
    528c:	a0070403 	andge	r0, r7, r3, lsl #8
    5290:	03000001 	movweq	r0, #1
    5294:	01750601 	cmneq	r5, r1, lsl #12
    5298:	02030000 	andeq	r0, r3, #0, 0
    529c:	00002e05 	andeq	r2, r0, r5, lsl #28
    52a0:	05040300 	streq	r0, [r4, #-768]	; 0xfffffd00
    52a4:	000000ff 	strdeq	r0, [r0], -pc	; <UNPREDICTABLE>
    52a8:	fa050803 	blx	1472bc <__bss_end__+0x13c724>
    52ac:	03000000 	movweq	r0, #0
    52b0:	01730801 	cmneq	r3, r1, lsl #16
    52b4:	02030000 	andeq	r0, r3, #0, 0
    52b8:	0001ef07 	andeq	lr, r1, r7, lsl #30
    52bc:	07040300 	streq	r0, [r4, -r0, lsl #6]
    52c0:	0000019b 	muleq	r0, fp, r1
    52c4:	96070803 	strls	r0, [r7], -r3, lsl #16
    52c8:	04000001 	streq	r0, [r0], #-1
    52cc:	00000025 	andeq	r0, r0, r5, lsr #32
    52d0:	0000007a 	andeq	r0, r0, sl, ror r0
    52d4:	00002505 	andeq	r2, r0, r5, lsl #10
    52d8:	5a060000 	bpl	1852e0 <__bss_end__+0x17a748>
    52dc:	02000000 	andeq	r0, r0, #0, 0
    52e0:	00860e1c 	addeq	r0, r6, ip, lsl lr
    52e4:	04070000 	streq	r0, [r7], #-0
    52e8:	0000006b 	andeq	r0, r0, fp, rrx
    52ec:	00002504 	andeq	r2, r0, r4, lsl #10
    52f0:	00009b00 	andeq	r9, r0, r0, lsl #22
    52f4:	009b0500 	addseq	r0, fp, r0, lsl #10
    52f8:	07000000 	streq	r0, [r0, -r0]
    52fc:	0000a804 	andeq	sl, r0, r4, lsl #16
    5300:	08010300 	stmdaeq	r1, {r8, r9}
    5304:	0000017c 	andeq	r0, r0, ip, ror r1
    5308:	0000a108 	andeq	sl, r0, r8, lsl #2
    530c:	07890600 	streq	r0, [r9, r0, lsl #12]
    5310:	21020000 	mrscs	r0, (UNDEF: 2)
    5314:	0000b90e 	andeq	fp, r0, lr, lsl #18
    5318:	8c040700 	stchi	7, cr0, [r4], {-0}
    531c:	09000000 	stmdbeq	r0, {}	; <UNPREDICTABLE>
    5320:	00000835 	andeq	r0, r0, r5, lsr r8
    5324:	34070401 	strcc	r0, [r7], #-1025	; 0xfffffbff
    5328:	7c000001 	stcvc	0, cr0, [r0], {1}
    532c:	2c0000a0 	stccs	0, cr0, [r0], {160}	; 0xa0
    5330:	01000000 	mrseq	r0, (UNDEF: 0)
    5334:	0001349c 	muleq	r1, ip, r4
    5338:	0bbd0a00 	bleq	fef47b40 <__bss_end__+0xfef3cfa8>
    533c:	04010000 	streq	r0, [r1], #-0
    5340:	00013415 	andeq	r3, r1, r5, lsl r4
    5344:	0b500100 	bleq	140574c <__bss_end__+0x13fabb4>
    5348:	00637273 	rsbeq	r7, r3, r3, ror r2
    534c:	9b270401 	blls	9c6358 <__bss_end__+0x9bb7c0>
    5350:	5a000000 	bpl	5358 <__code_start__-0x2ca8>
    5354:	5600002e 	strpl	r0, [r0], -lr, lsr #32
    5358:	0c00002e 	stceq	0, cr0, [r0], {46}	; 0x2e
    535c:	01003173 	tsteq	r0, r3, ror r1
    5360:	01340b05 	teqeq	r4, r5, lsl #22
    5364:	2e890000 	cdpcs	0, 8, cr0, cr9, cr0, {0}
    5368:	2e7b0000 	cdpcs	0, 7, cr0, cr11, cr0, {0}
    536c:	730c0000 	movwvc	r0, #49152	; 0xc000
    5370:	06010032 			; <UNDEFINED> instruction: 0x06010032
    5374:	00009b11 	andeq	r9, r0, r1, lsl fp
    5378:	002ee800 	eoreq	lr, lr, r0, lsl #16
    537c:	002ee200 	eoreq	lr, lr, r0, lsl #4
    5380:	00630c00 	rsbeq	r0, r3, r0, lsl #24
    5384:	a10a0701 	tstge	sl, r1, lsl #14
    5388:	19000000 	stmdbne	r0, {}	; <UNPREDICTABLE>
    538c:	1300002f 	movwne	r0, #47	; 0x2f
    5390:	0000002f 	andeq	r0, r0, pc, lsr #32
    5394:	00a10407 	adceq	r0, r1, r7, lsl #8
    5398:	f7000000 			; <UNDEFINED> instruction: 0xf7000000
    539c:	04000000 	streq	r0, [r0], #-0
    53a0:	00165900 	andseq	r5, r6, r0, lsl #18
    53a4:	36010400 	strcc	r0, [r1], -r0, lsl #8
    53a8:	0c000006 	stceq	0, cr0, [r0], {6}
    53ac:	00000bd2 	ldrdeq	r0, [r0], -r2
    53b0:	00000710 	andeq	r0, r0, r0, lsl r7
    53b4:	0000a0a8 	andeq	sl, r0, r8, lsr #1
    53b8:	00000044 	andeq	r0, r0, r4, asr #32
    53bc:	000023d0 	ldrdeq	r2, [r0], -r0
    53c0:	69050402 	stmdbvs	r5, {r1, sl}
    53c4:	0300746e 	movweq	r7, #1134	; 0x46e
    53c8:	01a00704 	lsleq	r0, r4, #14
    53cc:	01030000 	mrseq	r0, (UNDEF: 3)
    53d0:	00017506 	andeq	r7, r1, r6, lsl #10
    53d4:	05020300 	streq	r0, [r2, #-768]	; 0xfffffd00
    53d8:	0000002e 	andeq	r0, r0, lr, lsr #32
    53dc:	ff050403 			; <UNDEFINED> instruction: 0xff050403
    53e0:	03000000 	movweq	r0, #0
    53e4:	00fa0508 	rscseq	r0, sl, r8, lsl #10
    53e8:	01030000 	mrseq	r0, (UNDEF: 3)
    53ec:	00017308 	andeq	r7, r1, r8, lsl #6
    53f0:	07020300 	streq	r0, [r2, -r0, lsl #6]
    53f4:	000001ef 	andeq	r0, r0, pc, ror #3
    53f8:	9b070403 	blls	1c640c <__bss_end__+0x1bb874>
    53fc:	03000001 	movweq	r0, #1
    5400:	01960708 	orrseq	r0, r6, r8, lsl #14
    5404:	25040000 	strcs	r0, [r4, #-0]
    5408:	7a000000 	bvc	5410 <__code_start__-0x2bf0>
    540c:	05000000 	streq	r0, [r0, #-0]
    5410:	00000025 	andeq	r0, r0, r5, lsr #32
    5414:	005a0600 	subseq	r0, sl, r0, lsl #12
    5418:	1c020000 	stcne	0, cr0, [r2], {-0}
    541c:	0000860e 	andeq	r8, r0, lr, lsl #12
    5420:	6b040700 	blvs	107028 <__bss_end__+0xfc490>
    5424:	04000000 	streq	r0, [r0], #-0
    5428:	00000025 	andeq	r0, r0, r5, lsr #32
    542c:	0000009b 	muleq	r0, fp, r0
    5430:	00009b05 	andeq	r9, r0, r5, lsl #22
    5434:	04070000 	streq	r0, [r7], #-0
    5438:	000000a8 	andeq	r0, r0, r8, lsr #1
    543c:	7c080103 	stfvcs	f0, [r8], {3}
    5440:	08000001 	stmdaeq	r0, {r0}
    5444:	000000a1 	andeq	r0, r0, r1, lsr #1
    5448:	00078906 	andeq	r8, r7, r6, lsl #18
    544c:	0e210200 	cdpeq	2, 2, cr0, cr1, cr0, {0}
    5450:	000000b9 	strheq	r0, [r0], -r9
    5454:	008c0407 	addeq	r0, ip, r7, lsl #8
    5458:	6b090000 	blvs	245460 <__bss_end__+0x23a8c8>
    545c:	01000008 	tsteq	r0, r8
    5460:	00250503 	eoreq	r0, r5, r3, lsl #10
    5464:	a0a80000 	adcge	r0, r8, r0
    5468:	00440000 	subeq	r0, r4, r0
    546c:	9c010000 	stcls	0, cr0, [r1], {-0}
    5470:	0100610a 	tsteq	r0, sl, lsl #2
    5474:	009b1803 	addseq	r1, fp, r3, lsl #16
    5478:	2f500000 	svccs	0x00500000
    547c:	2f440000 	svccs	0x00440000
    5480:	620a0000 	andvs	r0, sl, #0, 0
    5484:	27030100 	strcs	r0, [r3, -r0, lsl #2]
    5488:	0000009b 	muleq	r0, fp, r0
    548c:	00002fa4 	andeq	r2, r0, r4, lsr #31
    5490:	00002f9e 	muleq	r0, lr, pc	; <UNPREDICTABLE>
    5494:	010f0000 	mrseq	r0, CPSR
    5498:	00040000 	andeq	r0, r4, r0
    549c:	000016e8 	andeq	r1, r0, r8, ror #13
    54a0:	06360104 	ldrteq	r0, [r6], -r4, lsl #2
    54a4:	e20c0000 	and	r0, ip, #0, 0
    54a8:	1000000b 	andne	r0, r0, fp
    54ac:	ec000007 	stc	0, cr0, [r0], {7}
    54b0:	180000a0 	stmdane	r0, {r5, r7}
    54b4:	86000000 	strhi	r0, [r0], -r0
    54b8:	02000024 	andeq	r0, r0, #36, 0	; 0x24
    54bc:	6e690504 	cdpvs	5, 6, cr0, cr9, cr4, {0}
    54c0:	04030074 	streq	r0, [r3], #-116	; 0xffffff8c
    54c4:	0001a007 	andeq	sl, r1, r7
    54c8:	06010300 	streq	r0, [r1], -r0, lsl #6
    54cc:	00000175 	andeq	r0, r0, r5, ror r1
    54d0:	2e050203 	cdpcs	2, 0, cr0, cr5, cr3, {0}
    54d4:	03000000 	movweq	r0, #0
    54d8:	00ff0504 	rscseq	r0, pc, r4, lsl #10
    54dc:	08030000 	stmdaeq	r3, {}	; <UNPREDICTABLE>
    54e0:	0000fa05 	andeq	pc, r0, r5, lsl #20
    54e4:	08010300 	stmdaeq	r1, {r8, r9}
    54e8:	00000173 	andeq	r0, r0, r3, ror r1
    54ec:	ef070203 	svc	0x00070203
    54f0:	03000001 	movweq	r0, #1
    54f4:	019b0704 	orrseq	r0, fp, r4, lsl #14
    54f8:	08030000 	stmdaeq	r3, {}	; <UNPREDICTABLE>
    54fc:	00019607 	andeq	r9, r1, r7, lsl #12
    5500:	00250400 	eoreq	r0, r5, r0, lsl #8
    5504:	007a0000 	rsbseq	r0, sl, r0
    5508:	25050000 	strcs	r0, [r5, #-0]
    550c:	00000000 	andeq	r0, r0, r0
    5510:	00005a06 	andeq	r5, r0, r6, lsl #20
    5514:	0e1c0200 	cdpeq	2, 1, cr0, cr12, cr0, {0}
    5518:	00000086 	andeq	r0, r0, r6, lsl #1
    551c:	006b0407 	rsbeq	r0, fp, r7, lsl #8
    5520:	25040000 	strcs	r0, [r4, #-0]
    5524:	9b000000 	blls	552c <__code_start__-0x2ad4>
    5528:	05000000 	streq	r0, [r0, #-0]
    552c:	0000009b 	muleq	r0, fp, r0
    5530:	a8040700 	stmdage	r4, {r8, r9, sl}
    5534:	03000000 	movweq	r0, #0
    5538:	017c0801 	cmneq	ip, r1, lsl #16
    553c:	a1080000 	mrsge	r0, (UNDEF: 8)
    5540:	06000000 	streq	r0, [r0], -r0
    5544:	00000789 	andeq	r0, r0, r9, lsl #15
    5548:	b90e2102 	stmdblt	lr, {r1, r8, sp}
    554c:	07000000 	streq	r0, [r0, -r0]
    5550:	00008c04 	andeq	r8, r0, r4, lsl #24
    5554:	083c0900 	ldmdaeq	ip!, {r8, fp}
    5558:	03010000 	movweq	r0, #4096	; 0x1000
    555c:	00010c07 	andeq	r0, r1, r7, lsl #24
    5560:	00a0ec00 	adceq	lr, r0, r0, lsl #24
    5564:	00001800 	andeq	r1, r0, r0, lsl #16
    5568:	0c9c0100 	ldfeqs	f0, [ip], {0}
    556c:	0a000001 	beq	5578 <__code_start__-0x2a88>
    5570:	01003173 	tsteq	r0, r3, ror r1
    5574:	010c1503 	tsteq	ip, r3, lsl #10
    5578:	50010000 	andpl	r0, r1, r0
    557c:	0032730b 	eorseq	r7, r2, fp, lsl #6
    5580:	9b260301 	blls	98618c <__bss_end__+0x97b5f4>
    5584:	d3000000 	movwle	r0, #0
    5588:	cd00002f 	stcgt	0, cr0, [r0, #-188]	; 0xffffff44
    558c:	0c00002f 	stceq	0, cr0, [r0], {47}	; 0x2f
    5590:	04010073 	streq	r0, [r1], #-115	; 0xffffff8d
    5594:	00010c14 	andeq	r0, r1, r4, lsl ip
    5598:	00300000 	eorseq	r0, r0, r0
    559c:	002ffe00 	eoreq	pc, pc, r0, lsl #28
    55a0:	04070000 	streq	r0, [r7], #-0
    55a4:	000000a1 	andeq	r0, r0, r1, lsr #1
    55a8:	00014e00 	andeq	r4, r1, r0, lsl #28
    55ac:	9e000400 	cfcpysls	mvf0, mvf0
    55b0:	04000017 	streq	r0, [r0], #-23	; 0xffffffe9
    55b4:	00063601 	andeq	r3, r6, r1, lsl #12
    55b8:	0bf90c00 	bleq	ffe485c0 <__bss_end__+0xffe3da28>
    55bc:	07100000 	ldreq	r0, [r0, -r0]
    55c0:	a1040000 	mrsge	r0, (UNDEF: 4)
    55c4:	00300000 	eorseq	r0, r0, r0
    55c8:	25270000 	strcs	r0, [r7, #-0]!
    55cc:	04020000 	streq	r0, [r2], #-0
    55d0:	746e6905 	strbtvc	r6, [lr], #-2309	; 0xfffff6fb
    55d4:	0bf20300 	bleq	ffc861dc <__bss_end__+0xffc7b644>
    55d8:	d1030000 	mrsle	r0, (UNDEF: 3)
    55dc:	00003817 	andeq	r3, r0, r7, lsl r8
    55e0:	07040400 	streq	r0, [r4, -r0, lsl #8]
    55e4:	000001a0 	andeq	r0, r0, r0, lsr #3
    55e8:	75060104 	strvc	r0, [r6, #-260]	; 0xfffffefc
    55ec:	04000001 	streq	r0, [r0], #-1
    55f0:	002e0502 	eoreq	r0, lr, r2, lsl #10
    55f4:	04040000 	streq	r0, [r4], #-0
    55f8:	0000ff05 	andeq	pc, r0, r5, lsl #30
    55fc:	05080400 	streq	r0, [r8, #-1024]	; 0xfffffc00
    5600:	000000fa 	strdeq	r0, [r0], -sl
    5604:	73080104 	movwvc	r0, #33028	; 0x8104
    5608:	05000001 	streq	r0, [r0, #-1]
    560c:	0000005b 	andeq	r0, r0, fp, asr r0
    5610:	ef070204 	svc	0x00070204
    5614:	04000001 	streq	r0, [r0], #-1
    5618:	019b0704 	orrseq	r0, fp, r4, lsl #14
    561c:	08040000 	stmdaeq	r4, {}	; <UNPREDICTABLE>
    5620:	00019607 	andeq	r9, r1, r7, lsl #12
    5624:	00250600 	eoreq	r0, r5, r0, lsl #12
    5628:	008b0000 	addeq	r0, fp, r0
    562c:	25070000 	strcs	r0, [r7, #-0]
    5630:	00000000 	andeq	r0, r0, r0
    5634:	00005a08 	andeq	r5, r0, r8, lsl #20
    5638:	0e1c0200 	cdpeq	2, 1, cr0, cr12, cr0, {0}
    563c:	00000097 	muleq	r0, r7, r0
    5640:	007c0409 	rsbseq	r0, ip, r9, lsl #8
    5644:	25060000 	strcs	r0, [r6, #-0]
    5648:	ac000000 	stcge	0, cr0, [r0], {-0}
    564c:	07000000 	streq	r0, [r0, -r0]
    5650:	000000ac 	andeq	r0, r0, ip, lsr #1
    5654:	b9040900 	stmdblt	r4, {r8, fp}
    5658:	04000000 	streq	r0, [r0], #-0
    565c:	017c0801 	cmneq	ip, r1, lsl #16
    5660:	b2050000 	andlt	r0, r5, #0, 0
    5664:	08000000 	stmdaeq	r0, {}	; <UNPREDICTABLE>
    5668:	00000789 	andeq	r0, r0, r9, lsl #15
    566c:	ca0e2102 	bgt	38da7c <__bss_end__+0x382ee4>
    5670:	09000000 	stmdbeq	r0, {}	; <UNPREDICTABLE>
    5674:	00009d04 	andeq	r9, r0, r4, lsl #26
    5678:	08930a00 	ldmeq	r3, {r9, fp}
    567c:	04010000 	streq	r0, [r1], #-0
    5680:	00002505 	andeq	r2, r0, r5, lsl #10
    5684:	00a10400 	adceq	r0, r1, r0, lsl #8
    5688:	00003000 	andeq	r3, r0, r0
    568c:	4b9c0100 	blmi	fe705a94 <__bss_end__+0xfe6faefc>
    5690:	0b000001 	bleq	569c <__code_start__-0x2964>
    5694:	0031735f 	eorseq	r7, r1, pc, asr r3
    5698:	ac190401 	cfldrsge	mvf0, [r9], {1}
    569c:	17000000 	strne	r0, [r0, -r0]
    56a0:	13000030 	movwne	r0, #48	; 0x30
    56a4:	0b000030 	bleq	576c <__code_start__-0x2894>
    56a8:	0032735f 	eorseq	r7, r2, pc, asr r3
    56ac:	ac2a0401 	cfstrsge	mvf0, [sl], #-4
    56b0:	3c000000 	stccc	0, cr0, [r0], {-0}
    56b4:	38000030 	stmdacc	r0, {r4, r5}
    56b8:	0b000030 	bleq	5780 <__code_start__-0x2880>
    56bc:	0401006e 	streq	r0, [r1], #-110	; 0xffffff92
    56c0:	00002c36 	andeq	r2, r0, r6, lsr ip
    56c4:	00306700 	eorseq	r6, r0, r0, lsl #14
    56c8:	00305d00 	eorseq	r5, r0, r0, lsl #26
    56cc:	31730c00 	cmncc	r3, r0, lsl #24
    56d0:	1a050100 	bne	145ad8 <__bss_end__+0x13af40>
    56d4:	0000014b 	andeq	r0, r0, fp, asr #2
    56d8:	000030be 	strheq	r3, [r0], -lr
    56dc:	000030b6 	strheq	r3, [r0], -r6
    56e0:	0032730c 	eorseq	r7, r2, ip, lsl #6
    56e4:	4b2c0501 	blmi	b06af0 <__bss_end__+0xafbf58>
    56e8:	fc000001 	stc2	0, cr0, [r0], {1}
    56ec:	f6000030 			; <UNDEFINED> instruction: 0xf6000030
    56f0:	00000030 	andeq	r0, r0, r0, lsr r0
    56f4:	00620409 	rsbeq	r0, r2, r9, lsl #8
    56f8:	ce000000 	cdpgt	0, 0, cr0, cr0, cr0, {0}
    56fc:	04000000 	streq	r0, [r0], #-0
    5700:	00185200 	andseq	r5, r8, r0, lsl #4
    5704:	36010400 	strcc	r0, [r1], -r0, lsl #8
    5708:	0c000006 	stceq	0, cr0, [r0], {6}
    570c:	00000c0a 	andeq	r0, r0, sl, lsl #24
    5710:	00000710 	andeq	r0, r0, r0, lsl r7
    5714:	0000a134 	andeq	sl, r0, r4, lsr r1
    5718:	00000004 	andeq	r0, r0, r4
    571c:	00002628 	andeq	r2, r0, r8, lsr #12
    5720:	69050402 	stmdbvs	r5, {r1, sl}
    5724:	0300746e 	movweq	r7, #1134	; 0x46e
    5728:	01a00704 	lsleq	r0, r4, #14
    572c:	01030000 	mrseq	r0, (UNDEF: 3)
    5730:	00017506 	andeq	r7, r1, r6, lsl #10
    5734:	05020300 	streq	r0, [r2, #-768]	; 0xfffffd00
    5738:	0000002e 	andeq	r0, r0, lr, lsr #32
    573c:	ff050403 			; <UNDEFINED> instruction: 0xff050403
    5740:	03000000 	movweq	r0, #0
    5744:	00fa0508 	rscseq	r0, sl, r8, lsl #10
    5748:	01030000 	mrseq	r0, (UNDEF: 3)
    574c:	00017308 	andeq	r7, r1, r8, lsl #6
    5750:	07020300 	streq	r0, [r2, -r0, lsl #6]
    5754:	000001ef 	andeq	r0, r0, pc, ror #3
    5758:	9b070403 	blls	1c676c <__bss_end__+0x1bbbd4>
    575c:	03000001 	movweq	r0, #1
    5760:	01960708 	orrseq	r0, r6, r8, lsl #14
    5764:	25040000 	strcs	r0, [r4, #-0]
    5768:	7a000000 	bvc	5770 <__code_start__-0x2890>
    576c:	05000000 	streq	r0, [r0, #-0]
    5770:	00000025 	andeq	r0, r0, r5, lsr #32
    5774:	005a0600 	subseq	r0, sl, r0, lsl #12
    5778:	1c020000 	stcne	0, cr0, [r2], {-0}
    577c:	0000860e 	andeq	r8, r0, lr, lsl #12
    5780:	6b040700 	blvs	107388 <__bss_end__+0xfc7f0>
    5784:	04000000 	streq	r0, [r0], #-0
    5788:	00000025 	andeq	r0, r0, r5, lsr #32
    578c:	0000009b 	muleq	r0, fp, r0
    5790:	00009b05 	andeq	r9, r0, r5, lsl #22
    5794:	04070000 	streq	r0, [r7], #-0
    5798:	000000a8 	andeq	r0, r0, r8, lsr #1
    579c:	7c080103 	stfvcs	f0, [r8], {3}
    57a0:	08000001 	stmdaeq	r0, {r0}
    57a4:	000000a1 	andeq	r0, r0, r1, lsr #1
    57a8:	00078906 	andeq	r8, r7, r6, lsl #18
    57ac:	0e210200 	cdpeq	2, 2, cr0, cr1, cr0, {0}
    57b0:	000000b9 	strheq	r0, [r0], -r9
    57b4:	008c0407 	addeq	r0, ip, r7, lsl #8
    57b8:	42090000 	andmi	r0, r9, #0, 0
    57bc:	01000009 	tsteq	r0, r9
    57c0:	a1340603 	teqge	r4, r3, lsl #12
    57c4:	00040000 	andeq	r0, r4, r0
    57c8:	9c010000 	stcls	0, cr0, [r1], {-0}
	...

Disassembly of section .debug_abbrev:

00000000 <.debug_abbrev>:
       0:	25011101 	strcs	r1, [r1, #-257]	; 0xfffffeff
       4:	030b130e 	movweq	r1, #45838	; 0xb30e
       8:	110e1b0e 	tstne	lr, lr, lsl #22
       c:	10061201 	andne	r1, r6, r1, lsl #4
      10:	02000017 	andeq	r0, r0, #23, 0
      14:	0b0b0024 	bleq	2c00ac <__bss_end__+0x2b5514>
      18:	08030b3e 	stmdaeq	r3, {r1, r2, r3, r4, r5, r8, r9, fp}
      1c:	24030000 	strcs	r0, [r3], #-0
      20:	3e0b0b00 	vmlacc.f64	d0, d11, d0
      24:	000e030b 	andeq	r0, lr, fp, lsl #6
      28:	00160400 	andseq	r0, r6, r0, lsl #8
      2c:	0b3a0e03 	bleq	e83840 <__bss_end__+0xe78ca8>
      30:	0b390b3b 	bleq	e42d24 <__bss_end__+0xe3818c>
      34:	00001349 	andeq	r1, r0, r9, asr #6
      38:	27011505 	strcs	r1, [r1, -r5, lsl #10]
      3c:	01134919 	tsteq	r3, r9, lsl r9
      40:	06000013 			; <UNDEFINED> instruction: 0x06000013
      44:	13490005 	movtne	r0, #36869	; 0x9005
      48:	34070000 	strcc	r0, [r7], #-0
      4c:	3a0e0300 	bcc	380c54 <__bss_end__+0x3760bc>
      50:	390b3b0b 	stmdbcc	fp, {r0, r1, r3, r8, r9, fp, ip, sp}
      54:	3f13490b 	svccc	0x0013490b
      58:	00193c19 	andseq	r3, r9, r9, lsl ip
      5c:	000f0800 	andeq	r0, pc, r0, lsl #16
      60:	13490b0b 	movtne	r0, #39691	; 0x9b0b
      64:	26090000 	strcs	r0, [r9], -r0
      68:	00134900 	andseq	r4, r3, r0, lsl #18
      6c:	01130a00 	tsteq	r3, r0, lsl #20
      70:	0b3a0b0b 	bleq	e82ca4 <__bss_end__+0xe7810c>
      74:	0b390b3b 	bleq	e42d68 <__bss_end__+0xe381d0>
      78:	00001301 	andeq	r1, r0, r1, lsl #6
      7c:	03000d0b 	movweq	r0, #3339	; 0xd0b
      80:	3b0b3a08 	blcc	2ce8a8 <__bss_end__+0x2c3d10>
      84:	490b390b 	stmdbmi	fp, {r0, r1, r3, r8, fp, ip, sp}
      88:	000b3813 	andeq	r3, fp, r3, lsl r8
      8c:	000d0c00 	andeq	r0, sp, r0, lsl #24
      90:	0b3a0e03 	bleq	e838a4 <__bss_end__+0xe78d0c>
      94:	0b390b3b 	bleq	e42d88 <__bss_end__+0xe381f0>
      98:	0b381349 	bleq	e04dc4 <__bss_end__+0xdfa22c>
      9c:	040d0000 	streq	r0, [sp], #-0
      a0:	0b0b3e01 	bleq	2cf8ac <__bss_end__+0x2c4d14>
      a4:	3a13490b 	bcc	4d24d8 <__bss_end__+0x4c7940>
      a8:	390b3b0b 	stmdbcc	fp, {r0, r1, r3, r8, r9, fp, ip, sp}
      ac:	0013010b 	andseq	r0, r3, fp, lsl #2
      b0:	00280e00 	eoreq	r0, r8, r0, lsl #28
      b4:	0b1c0e03 	bleq	7038c8 <__bss_end__+0x6f8d30>
      b8:	2e0f0000 	cdpcs	0, 0, cr0, cr15, cr0, {0}
      bc:	03193f01 	tsteq	r9, #1, 30
      c0:	3b0b3a0e 	blcc	2ce900 <__bss_end__+0x2c3d68>
      c4:	270b390b 	strcs	r3, [fp, -fp, lsl #18]
      c8:	12011119 	andne	r1, r1, #1073741830	; 0x40000006
      cc:	97184006 	ldrls	r4, [r8, -r6]
      d0:	13011942 	movwne	r1, #6466	; 0x1942
      d4:	34100000 	ldrcc	r0, [r0], #-0
      d8:	3a0e0300 	bcc	380ce0 <__bss_end__+0x376148>
      dc:	390b3b0b 	stmdbcc	fp, {r0, r1, r3, r8, r9, fp, ip, sp}
      e0:	1c13490b 			; <UNDEFINED> instruction: 0x1c13490b
      e4:	1100000b 	tstne	r0, fp
      e8:	08030034 	stmdaeq	r3, {r2, r4, r5}
      ec:	0b3b0b3a 	bleq	ec2ddc <__bss_end__+0xeb8244>
      f0:	13490b39 	movtne	r0, #39737	; 0x9b39
      f4:	42b71702 	adcsmi	r1, r7, #524288	; 0x80000
      f8:	12000017 	andne	r0, r0, #23, 0
      fc:	0e030034 	mcreq	0, 0, r0, cr3, cr4, {1}
     100:	19341349 	ldmdbne	r4!, {r0, r3, r6, r8, r9, ip}
     104:	00001802 	andeq	r1, r0, r2, lsl #16
     108:	03003413 	movweq	r3, #1043	; 0x413
     10c:	3b0b3a08 	blcc	2ce934 <__bss_end__+0x2c3d9c>
     110:	490b390b 	stmdbmi	fp, {r0, r1, r3, r8, fp, ip, sp}
     114:	00180213 	andseq	r0, r8, r3, lsl r2
     118:	010b1400 	tsteq	fp, r0, lsl #8
     11c:	06120111 			; <UNDEFINED> instruction: 0x06120111
     120:	00001301 	andeq	r1, r0, r1, lsl #6
     124:	11010b15 	tstne	r1, r5, lsl fp
     128:	00061201 	andeq	r1, r6, r1, lsl #4
     12c:	00341600 	eorseq	r1, r4, r0, lsl #12
     130:	0b3a0e03 	bleq	e83944 <__bss_end__+0xe78dac>
     134:	0b390b3b 	bleq	e42e28 <__bss_end__+0xe38290>
     138:	18021349 	stmdane	r2, {r0, r3, r6, r8, r9, ip}
     13c:	89170000 	ldmdbhi	r7, {}	; <UNPREDICTABLE>
     140:	11010182 	smlabbne	r1, r2, r1, r0
     144:	01133101 	tsteq	r3, r1, lsl #2
     148:	18000013 	stmdane	r0, {r0, r1, r4}
     14c:	0001828a 	andeq	r8, r1, sl, lsl #5
     150:	42911802 	addsmi	r1, r1, #131072	; 0x20000
     154:	19000018 	stmdbne	r0, {r3, r4}
     158:	01018289 	smlabbeq	r1, r9, r2, r8
     15c:	13310111 	teqne	r1, #1073741828	; 0x40000004
     160:	891a0000 	ldmdbhi	sl, {}	; <UNPREDICTABLE>
     164:	11000182 	smlabbne	r0, r2, r1, r0
     168:	00133101 	andseq	r3, r3, r1, lsl #2
     16c:	01011b00 	tsteq	r1, r0, lsl #22
     170:	13011349 	movwne	r1, #4937	; 0x1349
     174:	211c0000 	tstcs	ip, r0
     178:	2f134900 	svccs	0x00134900
     17c:	1d00000b 	stcne	0, cr0, [r0, #-44]	; 0xffffffd4
     180:	0e030005 	cdpeq	0, 0, cr0, cr3, cr5, {0}
     184:	0b3b0b3a 	bleq	ec2e74 <__bss_end__+0xeb82dc>
     188:	13490b39 	movtne	r0, #39737	; 0x9b39
     18c:	42b71702 	adcsmi	r1, r7, #524288	; 0x80000
     190:	1e000017 	mcrne	0, 0, r0, cr0, cr7, {0}
     194:	193f012e 	ldmdbne	pc!, {r1, r2, r3, r5, r8}	; <UNPREDICTABLE>
     198:	0b3a0e03 	bleq	e839ac <__bss_end__+0xe78e14>
     19c:	0b390b3b 	bleq	e42e90 <__bss_end__+0xe382f8>
     1a0:	13491927 	movtne	r1, #39207	; 0x9927
     1a4:	06120111 			; <UNDEFINED> instruction: 0x06120111
     1a8:	42971840 	addsmi	r1, r7, #64, 16	; 0x400000
     1ac:	00130119 	andseq	r0, r3, r9, lsl r1
     1b0:	00051f00 	andeq	r1, r5, r0, lsl #30
     1b4:	0b3a0803 	bleq	e821c8 <__bss_end__+0xe77630>
     1b8:	0b390b3b 	bleq	e42eac <__bss_end__+0xe38314>
     1bc:	17021349 	strne	r1, [r2, -r9, asr #6]
     1c0:	001742b7 			; <UNDEFINED> instruction: 0x001742b7
     1c4:	00052000 	andeq	r2, r5, r0
     1c8:	0b3a0803 	bleq	e821dc <__bss_end__+0xe77644>
     1cc:	0b390b3b 	bleq	e42ec0 <__bss_end__+0xe38328>
     1d0:	18021349 	stmdane	r2, {r0, r3, r6, r8, r9, ip}
     1d4:	1d210000 	stcne	0, cr0, [r1, #-0]
     1d8:	52133101 	andspl	r3, r3, #1073741824	; 0x40000000
     1dc:	0b42b801 	bleq	10ae1e8 <__bss_end__+0x10a3650>
     1e0:	06120111 			; <UNDEFINED> instruction: 0x06120111
     1e4:	0b590b58 	bleq	1642f4c <__bss_end__+0x16383b4>
     1e8:	13010b57 	movwne	r0, #6999	; 0x1b57
     1ec:	05220000 	streq	r0, [r2, #-0]!
     1f0:	02133100 	andseq	r3, r3, #0
     1f4:	1742b717 	smlaldne	fp, r2, r7, r7
     1f8:	34230000 	strtcc	r0, [r3], #-0
     1fc:	3a0e0300 	bcc	380e04 <__bss_end__+0x37626c>
     200:	390b3b0b 	stmdbcc	fp, {r0, r1, r3, r8, r9, fp, ip, sp}
     204:	0213490b 	andseq	r4, r3, #180224	; 0x2c000
     208:	1742b717 	smlaldne	fp, r2, r7, r7
     20c:	2e240000 	cdpcs	0, 2, cr0, cr4, cr0, {0}
     210:	3a0e0301 	bcc	380e1c <__bss_end__+0x376284>
     214:	390b3b0b 	stmdbcc	fp, {r0, r1, r3, r8, r9, fp, ip, sp}
     218:	1119270b 	tstne	r9, fp, lsl #14
     21c:	40061201 	andmi	r1, r6, r1, lsl #4
     220:	19429718 	stmdbne	r2, {r3, r4, r8, r9, sl, ip, pc}^
     224:	00001301 	andeq	r1, r0, r1, lsl #6
     228:	03003425 	movweq	r3, #1061	; 0x425
     22c:	3b0b3a08 	blcc	2cea54 <__bss_end__+0x2c3ebc>
     230:	490b390b 	stmdbmi	fp, {r0, r1, r3, r8, fp, ip, sp}
     234:	000b1c13 	andeq	r1, fp, r3, lsl ip
     238:	011d2600 	tsteq	sp, r0, lsl #12
     23c:	01521331 	cmpeq	r2, r1, lsr r3
     240:	550b42b8 	strpl	r4, [fp, #-696]	; 0xfffffd48
     244:	590b5817 	stmdbpl	fp, {r0, r1, r2, r4, fp, ip, lr}
     248:	010b570b 	tsteq	fp, fp, lsl #14
     24c:	27000013 	smladcs	r0, r3, r0, r0
     250:	1755010b 	ldrbne	r0, [r5, -fp, lsl #2]
     254:	34280000 	strtcc	r0, [r8], #-0
     258:	02133100 	andseq	r3, r3, #0
     25c:	1742b717 	smlaldne	fp, r2, r7, r7
     260:	2e290000 	cdpcs	0, 2, cr0, cr9, cr0, {0}
     264:	3a0e0301 	bcc	380e70 <__bss_end__+0x3762d8>
     268:	390b3b0b 	stmdbcc	fp, {r0, r1, r3, r8, r9, fp, ip, sp}
     26c:	4919270b 	ldmdbmi	r9, {r0, r1, r3, r8, r9, sl, sp}
     270:	010b2013 	tsteq	fp, r3, lsl r0
     274:	2a000013 	bcs	2c8 <__code_start__-0x7d38>
     278:	08030005 	stmdaeq	r3, {r0, r2}
     27c:	0b3b0b3a 	bleq	ec2f6c <__bss_end__+0xeb83d4>
     280:	13490b39 	movtne	r0, #39737	; 0x9b39
     284:	052b0000 	streq	r0, [fp, #-0]!
     288:	3a0e0300 	bcc	380e90 <__bss_end__+0x3762f8>
     28c:	390b3b0b 	stmdbcc	fp, {r0, r1, r3, r8, r9, fp, ip, sp}
     290:	0013490b 	andseq	r4, r3, fp, lsl #18
     294:	00342c00 	eorseq	r2, r4, r0, lsl #24
     298:	0b3a0e03 	bleq	e83aac <__bss_end__+0xe78f14>
     29c:	0b390b3b 	bleq	e42f90 <__bss_end__+0xe383f8>
     2a0:	00001349 	andeq	r1, r0, r9, asr #6
     2a4:	03012e2d 	movweq	r2, #7725	; 0x1e2d
     2a8:	3b0b3a0e 	blcc	2ceae8 <__bss_end__+0x2c3f50>
     2ac:	270b390b 	strcs	r3, [fp, -fp, lsl #18]
     2b0:	11134919 	tstne	r3, r9, lsl r9
     2b4:	40061201 	andmi	r1, r6, r1, lsl #4
     2b8:	19429718 	stmdbne	r2, {r3, r4, r8, r9, sl, ip, pc}^
     2bc:	00001301 	andeq	r1, r0, r1, lsl #6
     2c0:	3f002e2e 	svccc	0x00002e2e
     2c4:	6e193c19 	mrcvs	12, 0, r3, cr9, cr9, {0}
     2c8:	3a0e030e 	bcc	380f08 <__bss_end__+0x376370>
     2cc:	390b3b0b 	stmdbcc	fp, {r0, r1, r3, r8, r9, fp, ip, sp}
     2d0:	0000000b 	andeq	r0, r0, fp
     2d4:	25011101 	strcs	r1, [r1, #-257]	; 0xfffffeff
     2d8:	030b130e 	movweq	r1, #45838	; 0xb30e
     2dc:	110e1b0e 	tstne	lr, lr, lsl #22
     2e0:	10061201 	andne	r1, r6, r1, lsl #4
     2e4:	02000017 	andeq	r0, r0, #23, 0
     2e8:	0b0b0024 	bleq	2c0380 <__bss_end__+0x2b57e8>
     2ec:	08030b3e 	stmdaeq	r3, {r1, r2, r3, r4, r5, r8, r9, fp}
     2f0:	24030000 	strcs	r0, [r3], #-0
     2f4:	3e0b0b00 	vmlacc.f64	d0, d11, d0
     2f8:	000e030b 	andeq	r0, lr, fp, lsl #6
     2fc:	00260400 	eoreq	r0, r6, r0, lsl #8
     300:	00001349 	andeq	r1, r0, r9, asr #6
     304:	03001605 	movweq	r1, #1541	; 0x605
     308:	3b0b3a0e 	blcc	2ceb48 <__bss_end__+0x2c3fb0>
     30c:	490b390b 	stmdbmi	fp, {r0, r1, r3, r8, fp, ip, sp}
     310:	06000013 			; <UNDEFINED> instruction: 0x06000013
     314:	19270115 	stmdbne	r7!, {r0, r2, r4, r8}
     318:	13011349 	movwne	r1, #4937	; 0x1349
     31c:	05070000 	streq	r0, [r7, #-0]
     320:	00134900 	andseq	r4, r3, r0, lsl #18
     324:	00340800 	eorseq	r0, r4, r0, lsl #16
     328:	0b3a0e03 	bleq	e83b3c <__bss_end__+0xe78fa4>
     32c:	0b390b3b 	bleq	e43020 <__bss_end__+0xe38488>
     330:	193f1349 	ldmdbne	pc!, {r0, r3, r6, r8, r9, ip}	; <UNPREDICTABLE>
     334:	0000193c 	andeq	r1, r0, ip, lsr r9
     338:	0b000f09 	bleq	3f64 <__code_start__-0x409c>
     33c:	0013490b 	andseq	r4, r3, fp, lsl #18
     340:	01040a00 	tsteq	r4, r0, lsl #20
     344:	0b0b0b3e 	bleq	2c3044 <__bss_end__+0x2b84ac>
     348:	0b3a1349 	bleq	e85074 <__bss_end__+0xe7a4dc>
     34c:	0b390b3b 	bleq	e43040 <__bss_end__+0xe384a8>
     350:	00001301 	andeq	r1, r0, r1, lsl #6
     354:	0300280b 	movweq	r2, #2059	; 0x80b
     358:	000b1c0e 	andeq	r1, fp, lr, lsl #24
     35c:	01130c00 	tsteq	r3, r0, lsl #24
     360:	0b3a0b0b 	bleq	e82f94 <__bss_end__+0xe783fc>
     364:	0b390b3b 	bleq	e43058 <__bss_end__+0xe384c0>
     368:	00001301 	andeq	r1, r0, r1, lsl #6
     36c:	03000d0d 	movweq	r0, #3341	; 0xd0d
     370:	3b0b3a0e 	blcc	2cebb0 <__bss_end__+0x2c4018>
     374:	490b390b 	stmdbmi	fp, {r0, r1, r3, r8, fp, ip, sp}
     378:	0d0b0b13 	vstreq	d0, [fp, #-76]	; 0xffffffb4
     37c:	380b0c0b 	stmdacc	fp, {r0, r1, r3, sl, fp}
     380:	0e00000b 	cdpeq	0, 0, cr0, cr0, cr11, {0}
     384:	0803000d 	stmdaeq	r3, {r0, r2, r3}
     388:	0b3b0b3a 	bleq	ec3078 <__bss_end__+0xeb84e0>
     38c:	13490b39 	movtne	r0, #39737	; 0x9b39
     390:	0b0d0b0b 	bleq	342fc4 <__bss_end__+0x33842c>
     394:	0b380b0c 	bleq	e02fcc <__bss_end__+0xdf8434>
     398:	350f0000 	strcc	r0, [pc, #-0]	; 3a0 <__code_start__-0x7c60>
     39c:	00134900 	andseq	r4, r3, r0, lsl #18
     3a0:	01131000 	tsteq	r3, r0
     3a4:	0b0b0e03 	bleq	2c3bb8 <__bss_end__+0x2b9020>
     3a8:	0b3b0b3a 	bleq	ec3098 <__bss_end__+0xeb8500>
     3ac:	13010b39 	movwne	r0, #6969	; 0x1b39
     3b0:	0d110000 	ldceq	0, cr0, [r1, #-0]
     3b4:	3a0e0300 	bcc	380fbc <__bss_end__+0x376424>
     3b8:	390b3b0b 	stmdbcc	fp, {r0, r1, r3, r8, r9, fp, ip, sp}
     3bc:	3813490b 	ldmdacc	r3, {r0, r1, r3, r8, fp, lr}
     3c0:	1200000b 	andne	r0, r0, #11, 0
     3c4:	08030034 	stmdaeq	r3, {r2, r4, r5}
     3c8:	0b3b0b3a 	bleq	ec30b8 <__bss_end__+0xeb8520>
     3cc:	13490b39 	movtne	r0, #39737	; 0x9b39
     3d0:	34130000 	ldrcc	r0, [r3], #-0
     3d4:	3a0e0300 	bcc	380fdc <__bss_end__+0x376444>
     3d8:	39053b0b 	stmdbcc	r5, {r0, r1, r3, r8, r9, fp, ip, sp}
     3dc:	0213490b 	andseq	r4, r3, #180224	; 0x2c000
     3e0:	14000018 	strne	r0, [r0], #-24	; 0xffffffe8
     3e4:	0e03012e 	adfeqsp	f0, f3, #0.5
     3e8:	053b0b3a 	ldreq	r0, [fp, #-2874]!	; 0xfffff4c6
     3ec:	19270b39 	stmdbne	r7!, {r0, r3, r4, r5, r8, r9, fp}
     3f0:	06120111 			; <UNDEFINED> instruction: 0x06120111
     3f4:	42971840 	addsmi	r1, r7, #64, 16	; 0x400000
     3f8:	00130119 	andseq	r0, r3, r9, lsl r1
     3fc:	00341500 	eorseq	r1, r4, r0, lsl #10
     400:	13490e03 	movtne	r0, #40451	; 0x9e03
     404:	18021934 	stmdane	r2, {r2, r4, r5, r8, fp, ip}
     408:	0b160000 	bleq	580410 <__bss_end__+0x575878>
     40c:	12011101 	andne	r1, r1, #1073741824	; 0x40000000
     410:	00130106 	andseq	r0, r3, r6, lsl #2
     414:	01171700 	tsteq	r7, r0, lsl #14
     418:	0b0b0803 	bleq	2c242c <__bss_end__+0x2b7894>
     41c:	053b0b3a 	ldreq	r0, [fp, #-2874]!	; 0xfffff4c6
     420:	13010b39 	movwne	r0, #6969	; 0x1b39
     424:	0d180000 	ldceq	0, cr0, [r8, #-0]
     428:	3a080300 	bcc	201030 <__bss_end__+0x1f6498>
     42c:	39053b0b 	stmdbcc	r5, {r0, r1, r3, r8, r9, fp, ip, sp}
     430:	0013490b 	andseq	r4, r3, fp, lsl #18
     434:	00341900 	eorseq	r1, r4, r0, lsl #18
     438:	0b3a0803 	bleq	e8244c <__bss_end__+0xe778b4>
     43c:	0b39053b 	bleq	e41930 <__bss_end__+0xe36d98>
     440:	00001349 	andeq	r1, r0, r9, asr #6
     444:	0300341a 	movweq	r3, #1050	; 0x41a
     448:	3b0b3a08 	blcc	2cec70 <__bss_end__+0x2c40d8>
     44c:	490b3905 	stmdbmi	fp, {r0, r2, r8, fp, ip, sp}
     450:	000b1c13 	andeq	r1, fp, r3, lsl ip
     454:	00341b00 	eorseq	r1, r4, r0, lsl #22
     458:	0b3a0e03 	bleq	e83c6c <__bss_end__+0xe790d4>
     45c:	0b39053b 	bleq	e41950 <__bss_end__+0xe36db8>
     460:	0b1c1349 	bleq	70518c <__bss_end__+0x6fa5f4>
     464:	341c0000 	ldrcc	r0, [ip], #-0
     468:	3a080300 	bcc	201070 <__bss_end__+0x1f64d8>
     46c:	39053b0b 	stmdbcc	r5, {r0, r1, r3, r8, r9, fp, ip, sp}
     470:	0213490b 	andseq	r4, r3, #180224	; 0x2c000
     474:	1d000018 	stcne	0, cr0, [r0, #-96]	; 0xffffffa0
     478:	08030034 	stmdaeq	r3, {r2, r4, r5}
     47c:	053b0b3a 	ldreq	r0, [fp, #-2874]!	; 0xfffff4c6
     480:	13490b39 	movtne	r0, #39737	; 0x9b39
     484:	42b71702 	adcsmi	r1, r7, #524288	; 0x80000
     488:	1e000017 	mcrne	0, 0, r0, cr0, cr7, {0}
     48c:	08030034 	stmdaeq	r3, {r2, r4, r5}
     490:	053b0b3a 	ldreq	r0, [fp, #-2874]!	; 0xfffff4c6
     494:	13490b39 	movtne	r0, #39737	; 0x9b39
     498:	0000051c 	andeq	r0, r0, ip, lsl r5
     49c:	11010b1f 	tstne	r1, pc, lsl fp
     4a0:	00061201 	andeq	r1, r6, r1, lsl #4
     4a4:	00342000 	eorseq	r2, r4, r0
     4a8:	0b3a0e03 	bleq	e83cbc <__bss_end__+0xe79124>
     4ac:	0b39053b 	bleq	e419a0 <__bss_end__+0xe36e08>
     4b0:	00001349 	andeq	r1, r0, r9, asr #6
     4b4:	49010121 	stmdbmi	r1, {r0, r5, r8}
     4b8:	00130113 	andseq	r0, r3, r3, lsl r1
     4bc:	00212200 	eoreq	r2, r1, r0, lsl #4
     4c0:	0b2f1349 	bleq	bc51ec <__bss_end__+0xbba654>
     4c4:	2e230000 	cdpcs	0, 2, cr0, cr3, cr0, {0}
     4c8:	03193f01 	tsteq	r9, #1, 30
     4cc:	3b0b3a0e 	blcc	2ced0c <__bss_end__+0x2c4174>
     4d0:	270b3905 	strcs	r3, [fp, -r5, lsl #18]
     4d4:	12011119 	andne	r1, r1, #1073741830	; 0x40000006
     4d8:	97184006 	ldrls	r4, [r8, -r6]
     4dc:	13011942 	movwne	r1, #6466	; 0x1942
     4e0:	89240000 	stmdbhi	r4!, {}	; <UNPREDICTABLE>
     4e4:	11000182 	smlabbne	r0, r2, r1, r0
     4e8:	00133101 	andseq	r3, r3, r1, lsl #2
     4ec:	82892500 	addhi	r2, r9, #0, 10
     4f0:	01110101 	tsteq	r1, r1, lsl #2
     4f4:	13011331 	movwne	r1, #4913	; 0x1331
     4f8:	8a260000 	bhi	980500 <__bss_end__+0x975968>
     4fc:	02000182 	andeq	r0, r0, #-2147483616	; 0x80000020
     500:	18429118 	stmdane	r2, {r3, r4, r8, ip, pc}^
     504:	2e270000 	cdpcs	0, 2, cr0, cr7, cr0, {0}
     508:	03193f00 	tsteq	r9, #0, 30
     50c:	3b0b3a0e 	blcc	2ced4c <__bss_end__+0x2c41b4>
     510:	270b3905 	strcs	r3, [fp, -r5, lsl #18]
     514:	11134919 	tstne	r3, r9, lsl r9
     518:	40061201 	andmi	r1, r6, r1, lsl #4
     51c:	19429718 	stmdbne	r2, {r3, r4, r8, r9, sl, ip, pc}^
     520:	2e280000 	cdpcs	0, 2, cr0, cr8, cr0, {0}
     524:	03193f01 	tsteq	r9, #1, 30
     528:	3b0b3a0e 	blcc	2ced68 <__bss_end__+0x2c41d0>
     52c:	270b3905 	strcs	r3, [fp, -r5, lsl #18]
     530:	11134919 	tstne	r3, r9, lsl r9
     534:	40061201 	andmi	r1, r6, r1, lsl #4
     538:	19429718 	stmdbne	r2, {r3, r4, r8, r9, sl, ip, pc}^
     53c:	00001301 	andeq	r1, r0, r1, lsl #6
     540:	03000529 	movweq	r0, #1321	; 0x529
     544:	3b0b3a08 	blcc	2ced6c <__bss_end__+0x2c41d4>
     548:	490b3905 	stmdbmi	fp, {r0, r2, r8, fp, ip, sp}
     54c:	b7170213 			; <UNDEFINED> instruction: 0xb7170213
     550:	00001742 	andeq	r1, r0, r2, asr #14
     554:	55010b2a 	strpl	r0, [r1, #-2858]	; 0xfffff4d6
     558:	00130117 	andseq	r0, r3, r7, lsl r1
     55c:	00342b00 	eorseq	r2, r4, r0, lsl #22
     560:	0b3a0e03 	bleq	e83d74 <__bss_end__+0xe791dc>
     564:	0b39053b 	bleq	e41a58 <__bss_end__+0xe36ec0>
     568:	17021349 	strne	r1, [r2, -r9, asr #6]
     56c:	001742b7 			; <UNDEFINED> instruction: 0x001742b7
     570:	82892c00 	addhi	r2, r9, #0, 24
     574:	01110101 	tsteq	r1, r1, lsl #2
     578:	00001331 	andeq	r1, r0, r1, lsr r3
     57c:	0300052d 	movweq	r0, #1325	; 0x52d
     580:	3b0b3a0e 	blcc	2cedc0 <__bss_end__+0x2c4228>
     584:	490b3905 	stmdbmi	fp, {r0, r2, r8, fp, ip, sp}
     588:	b7170213 			; <UNDEFINED> instruction: 0xb7170213
     58c:	00001742 	andeq	r1, r0, r2, asr #14
     590:	03012e2e 	movweq	r2, #7726	; 0x1e2e
     594:	3b0b3a0e 	blcc	2cedd4 <__bss_end__+0x2c423c>
     598:	270b390b 	strcs	r3, [fp, -fp, lsl #18]
     59c:	12011119 	andne	r1, r1, #1073741830	; 0x40000006
     5a0:	97184006 	ldrls	r4, [r8, -r6]
     5a4:	13011942 	movwne	r1, #6466	; 0x1942
     5a8:	052f0000 	streq	r0, [pc, #-0]!	; 5b0 <__code_start__-0x7a50>
     5ac:	3a0e0300 	bcc	3811b4 <__bss_end__+0x37661c>
     5b0:	390b3b0b 	stmdbcc	fp, {r0, r1, r3, r8, r9, fp, ip, sp}
     5b4:	0213490b 	andseq	r4, r3, #180224	; 0x2c000
     5b8:	1742b717 	smlaldne	fp, r2, r7, r7
     5bc:	17300000 	ldrne	r0, [r0, -r0]!
     5c0:	0b080301 	bleq	2011cc <__bss_end__+0x1f6634>
     5c4:	3b0b3a0b 	blcc	2cedf8 <__bss_end__+0x2c4260>
     5c8:	010b390b 	tsteq	fp, fp, lsl #18
     5cc:	31000013 	tstcc	r0, r3, lsl r0
     5d0:	0803000d 	stmdaeq	r3, {r0, r2, r3}
     5d4:	0b3b0b3a 	bleq	ec32c4 <__bss_end__+0xeb872c>
     5d8:	13490b39 	movtne	r0, #39737	; 0x9b39
     5dc:	2e320000 	cdpcs	0, 3, cr0, cr2, cr0, {0}
     5e0:	3a0e0301 	bcc	3811ec <__bss_end__+0x376654>
     5e4:	390b3b0b 	stmdbcc	fp, {r0, r1, r3, r8, r9, fp, ip, sp}
     5e8:	4919270b 	ldmdbmi	r9, {r0, r1, r3, r8, r9, sl, sp}
     5ec:	12011113 	andne	r1, r1, #-1073741820	; 0xc0000004
     5f0:	97184006 	ldrls	r4, [r8, -r6]
     5f4:	13011942 	movwne	r1, #6466	; 0x1942
     5f8:	05330000 	ldreq	r0, [r3, #-0]!
     5fc:	3a080300 	bcc	201204 <__bss_end__+0x1f666c>
     600:	390b3b0b 	stmdbcc	fp, {r0, r1, r3, r8, r9, fp, ip, sp}
     604:	0213490b 	andseq	r4, r3, #180224	; 0x2c000
     608:	1742b717 	smlaldne	fp, r2, r7, r7
     60c:	2e340000 	cdpcs	0, 3, cr0, cr4, cr0, {0}
     610:	3c193f00 	ldccc	15, cr3, [r9], {-0}
     614:	030e6e19 	movweq	r6, #60953	; 0xee19
     618:	3b0b3a0e 	blcc	2cee58 <__bss_end__+0x2c42c0>
     61c:	000b390b 	andeq	r3, fp, fp, lsl #18
     620:	11010000 	mrsne	r0, (UNDEF: 1)
     624:	130e2501 	movwne	r2, #58625	; 0xe501
     628:	1b0e030b 	blne	38125c <__bss_end__+0x3766c4>
     62c:	1201110e 	andne	r1, r1, #-2147483645	; 0x80000003
     630:	00171006 	andseq	r1, r7, r6
     634:	00240200 	eoreq	r0, r4, r0, lsl #4
     638:	0b3e0b0b 	bleq	f8326c <__bss_end__+0xf786d4>
     63c:	00000e03 	andeq	r0, r0, r3, lsl #28
     640:	0b002403 	bleq	9654 <va_printk+0x148>
     644:	030b3e0b 	movweq	r3, #48651	; 0xbe0b
     648:	04000008 	streq	r0, [r0], #-8
     64c:	13490026 	movtne	r0, #36902	; 0x9026
     650:	16050000 	strne	r0, [r5], -r0
     654:	3a0e0300 	bcc	38125c <__bss_end__+0x3766c4>
     658:	390b3b0b 	stmdbcc	fp, {r0, r1, r3, r8, r9, fp, ip, sp}
     65c:	0013490b 	andseq	r4, r3, fp, lsl #18
     660:	01150600 	tsteq	r5, r0, lsl #12
     664:	13491927 	movtne	r1, #39207	; 0x9927
     668:	00001301 	andeq	r1, r0, r1, lsl #6
     66c:	49000507 	stmdbmi	r0, {r0, r1, r2, r8, sl}
     670:	08000013 	stmdaeq	r0, {r0, r1, r4}
     674:	0e030034 	mcreq	0, 0, r0, cr3, cr4, {1}
     678:	0b3b0b3a 	bleq	ec3368 <__bss_end__+0xeb87d0>
     67c:	13490b39 	movtne	r0, #39737	; 0x9b39
     680:	193c193f 	ldmdbne	ip!, {r0, r1, r2, r3, r4, r5, r8, fp, ip}
     684:	0f090000 	svceq	0x00090000
     688:	490b0b00 	stmdbmi	fp, {r8, r9, fp}
     68c:	0a000013 	beq	6e0 <__code_start__-0x7920>
     690:	0b3e0104 	bleq	f80aa8 <__bss_end__+0xf75f10>
     694:	13490b0b 	movtne	r0, #39691	; 0x9b0b
     698:	0b3b0b3a 	bleq	ec3388 <__bss_end__+0xeb87f0>
     69c:	13010b39 	movwne	r0, #6969	; 0x1b39
     6a0:	280b0000 	stmdacs	fp, {}	; <UNPREDICTABLE>
     6a4:	1c0e0300 	stcne	3, cr0, [lr], {-0}
     6a8:	0c00000b 	stceq	0, cr0, [r0], {11}
     6ac:	0e030034 	mcreq	0, 0, r0, cr3, cr4, {1}
     6b0:	0b3b0b3a 	bleq	ec33a0 <__bss_end__+0xeb8808>
     6b4:	13490b39 	movtne	r0, #39737	; 0x9b39
     6b8:	0000061c 	andeq	r0, r0, ip, lsl r6
     6bc:	3f012e0d 	svccc	0x00012e0d
     6c0:	3a0e0319 	bcc	38132c <__bss_end__+0x376794>
     6c4:	390b3b0b 	stmdbcc	fp, {r0, r1, r3, r8, r9, fp, ip, sp}
     6c8:	4919270b 	ldmdbmi	r9, {r0, r1, r3, r8, r9, sl, sp}
     6cc:	12011113 	andne	r1, r1, #-1073741820	; 0xc0000004
     6d0:	97184006 	ldrls	r4, [r8, -r6]
     6d4:	13011942 	movwne	r1, #6466	; 0x1942
     6d8:	050e0000 	streq	r0, [lr, #-0]
     6dc:	3a080300 	bcc	2012e4 <__bss_end__+0x1f674c>
     6e0:	390b3b0b 	stmdbcc	fp, {r0, r1, r3, r8, r9, fp, ip, sp}
     6e4:	0213490b 	andseq	r4, r3, #180224	; 0x2c000
     6e8:	1742b717 	smlaldne	fp, r2, r7, r7
     6ec:	340f0000 	strcc	r0, [pc], #-0	; 6f4 <__code_start__-0x790c>
     6f0:	3a0e0300 	bcc	3812f8 <__bss_end__+0x376760>
     6f4:	390b3b0b 	stmdbcc	fp, {r0, r1, r3, r8, r9, fp, ip, sp}
     6f8:	0213490b 	andseq	r4, r3, #180224	; 0x2c000
     6fc:	1742b717 	smlaldne	fp, r2, r7, r7
     700:	34100000 	ldrcc	r0, [r0], #-0
     704:	3a080300 	bcc	20130c <__bss_end__+0x1f6774>
     708:	390b3b0b 	stmdbcc	fp, {r0, r1, r3, r8, r9, fp, ip, sp}
     70c:	0213490b 	andseq	r4, r3, #180224	; 0x2c000
     710:	1742b717 	smlaldne	fp, r2, r7, r7
     714:	89110000 	ldmdbhi	r1, {}	; <UNPREDICTABLE>
     718:	11010182 	smlabbne	r1, r2, r1, r0
     71c:	00133101 	andseq	r3, r3, r1, lsl #2
     720:	828a1200 	addhi	r1, sl, #0, 4
     724:	18020001 	stmdane	r2, {r0}
     728:	00184291 	mulseq	r8, r1, r2
     72c:	012e1300 			; <UNDEFINED> instruction: 0x012e1300
     730:	0e03193f 			; <UNDEFINED> instruction: 0x0e03193f
     734:	0b3b0b3a 	bleq	ec3424 <__bss_end__+0xeb888c>
     738:	19270b39 	stmdbne	r7!, {r0, r3, r4, r5, r8, r9, fp}
     73c:	06120111 			; <UNDEFINED> instruction: 0x06120111
     740:	42971840 	addsmi	r1, r7, #64, 16	; 0x400000
     744:	00130119 	andseq	r0, r3, r9, lsl r1
     748:	011d1400 	tsteq	sp, r0, lsl #8
     74c:	01521331 	cmpeq	r2, r1, lsr r3
     750:	550b42b8 	strpl	r4, [fp, #-696]	; 0xfffffd48
     754:	590b5817 	stmdbpl	fp, {r0, r1, r2, r4, fp, ip, lr}
     758:	010b570b 	tsteq	fp, fp, lsl #14
     75c:	15000013 	strne	r0, [r0, #-19]	; 0xffffffed
     760:	13310005 	teqne	r1, #5, 0
     764:	42b71702 	adcsmi	r1, r7, #524288	; 0x80000
     768:	16000017 			; <UNDEFINED> instruction: 0x16000017
     76c:	01018289 	smlabbeq	r1, r9, r2, r8
     770:	42950111 	addsmi	r0, r5, #1073741828	; 0x40000004
     774:	00133119 	andseq	r3, r3, r9, lsl r1
     778:	011d1700 	tsteq	sp, r0, lsl #14
     77c:	01521331 	cmpeq	r2, r1, lsr r3
     780:	110b42b8 			; <UNDEFINED> instruction: 0x110b42b8
     784:	58061201 	stmdapl	r6, {r0, r9, ip}
     788:	570b590b 	strpl	r5, [fp, -fp, lsl #18]
     78c:	1800000b 	stmdane	r0, {r0, r1, r3}
     790:	1331011d 	teqne	r1, #1073741831	; 0x40000007
     794:	42b80152 	adcsmi	r0, r8, #-2147483628	; 0x80000014
     798:	5817550b 	ldmdapl	r7, {r0, r1, r3, r8, sl, ip, lr}
     79c:	570b590b 	strpl	r5, [fp, -fp, lsl #18]
     7a0:	1900000b 	stmdbne	r0, {r0, r1, r3}
     7a4:	13310005 	teqne	r1, #5, 0
     7a8:	00000b1c 	andeq	r0, r0, ip, lsl fp
     7ac:	55010b1a 	strpl	r0, [r1, #-2842]	; 0xfffff4e6
     7b0:	1b000017 	blne	814 <__code_start__-0x77ec>
     7b4:	13310034 	teqne	r1, #52, 0	; 0x34
     7b8:	341c0000 	ldrcc	r0, [ip], #-0
     7bc:	02133100 	andseq	r3, r3, #0
     7c0:	1742b717 	smlaldne	fp, r2, r7, r7
     7c4:	891d0000 	ldmdbhi	sp, {}	; <UNPREDICTABLE>
     7c8:	11010182 	smlabbne	r1, r2, r1, r0
     7cc:	01133101 	tsteq	r3, r1, lsl #2
     7d0:	1e000013 	mcrne	0, 0, r0, cr0, cr3, {0}
     7d4:	193f012e 	ldmdbne	pc!, {r1, r2, r3, r5, r8}	; <UNPREDICTABLE>
     7d8:	0b3a0e03 	bleq	e83fec <__bss_end__+0xe79454>
     7dc:	0b390b3b 	bleq	e434d0 <__bss_end__+0xe38938>
     7e0:	0b201927 	bleq	806c84 <__bss_end__+0x7fc0ec>
     7e4:	00001301 	andeq	r1, r0, r1, lsl #6
     7e8:	0300051f 	movweq	r0, #1311	; 0x51f
     7ec:	3b0b3a08 	blcc	2cf014 <__bss_end__+0x2c447c>
     7f0:	490b390b 	stmdbmi	fp, {r0, r1, r3, r8, fp, ip, sp}
     7f4:	20000013 	andcs	r0, r0, r3, lsl r0
     7f8:	0e030005 	cdpeq	0, 0, cr0, cr3, cr5, {0}
     7fc:	0b3b0b3a 	bleq	ec34ec <__bss_end__+0xeb8954>
     800:	13490b39 	movtne	r0, #39737	; 0x9b39
     804:	34210000 	strtcc	r0, [r1], #-0
     808:	3a080300 	bcc	201410 <__bss_end__+0x1f6878>
     80c:	390b3b0b 	stmdbcc	fp, {r0, r1, r3, r8, r9, fp, ip, sp}
     810:	0013490b 	andseq	r4, r3, fp, lsl #18
     814:	012e2200 			; <UNDEFINED> instruction: 0x012e2200
     818:	0b3a0e03 	bleq	e8402c <__bss_end__+0xe79494>
     81c:	0b390b3b 	bleq	e43510 <__bss_end__+0xe38978>
     820:	13491927 	movtne	r1, #39207	; 0x9927
     824:	13010b20 	movwne	r0, #6944	; 0x1b20
     828:	2e230000 	cdpcs	0, 2, cr0, cr3, cr0, {0}
     82c:	11133101 	tstne	r3, r1, lsl #2
     830:	40061201 	andmi	r1, r6, r1, lsl #4
     834:	19429718 	stmdbne	r2, {r3, r4, r8, r9, sl, ip, pc}^
     838:	00001301 	andeq	r1, r0, r1, lsl #6
     83c:	3f002e24 	svccc	0x00002e24
     840:	6e193c19 	mrcvs	12, 0, r3, cr9, cr9, {0}
     844:	3a0e030e 	bcc	381484 <__bss_end__+0x3768ec>
     848:	390b3b0b 	stmdbcc	fp, {r0, r1, r3, r8, r9, fp, ip, sp}
     84c:	0000000b 	andeq	r0, r0, fp
     850:	25011101 	strcs	r1, [r1, #-257]	; 0xfffffeff
     854:	030b130e 	movweq	r1, #45838	; 0xb30e
     858:	110e1b0e 	tstne	lr, lr, lsl #22
     85c:	10061201 	andne	r1, r6, r1, lsl #4
     860:	02000017 	andeq	r0, r0, #23, 0
     864:	0e030016 	mcreq	0, 0, r0, cr3, cr6, {0}
     868:	0b3b0b3a 	bleq	ec3558 <__bss_end__+0xeb89c0>
     86c:	13490b39 	movtne	r0, #39737	; 0x9b39
     870:	13030000 	movwne	r0, #12288	; 0x3000
     874:	0b0e0301 	bleq	381480 <__bss_end__+0x3768e8>
     878:	3b0b3a0b 	blcc	2cf0ac <__bss_end__+0x2c4514>
     87c:	0013010b 	andseq	r0, r3, fp, lsl #2
     880:	000d0400 	andeq	r0, sp, r0, lsl #8
     884:	13490e03 	movtne	r0, #40451	; 0x9e03
     888:	19340b38 	ldmdbne	r4!, {r3, r4, r5, r8, r9, fp}
     88c:	0f050000 	svceq	0x00050000
     890:	000b0b00 	andeq	r0, fp, r0, lsl #22
     894:	00240600 	eoreq	r0, r4, r0, lsl #12
     898:	0b3e0b0b 	bleq	f834cc <__bss_end__+0xf78934>
     89c:	00000803 	andeq	r0, r0, r3, lsl #16
     8a0:	0b002407 	bleq	98c4 <va_printk+0x3b8>
     8a4:	030b3e0b 	movweq	r3, #48651	; 0xbe0b
     8a8:	0800000e 	stmdaeq	r0, {r1, r2, r3}
     8ac:	19270115 	stmdbne	r7!, {r0, r2, r4, r8}
     8b0:	13011349 	movwne	r1, #4937	; 0x1349
     8b4:	05090000 	streq	r0, [r9, #-0]
     8b8:	00134900 	andseq	r4, r3, r0, lsl #18
     8bc:	00340a00 	eorseq	r0, r4, r0, lsl #20
     8c0:	0b3a0e03 	bleq	e840d4 <__bss_end__+0xe7953c>
     8c4:	0b390b3b 	bleq	e435b8 <__bss_end__+0xe38a20>
     8c8:	193f1349 	ldmdbne	pc!, {r0, r3, r6, r8, r9, ip}	; <UNPREDICTABLE>
     8cc:	0000193c 	andeq	r1, r0, ip, lsr r9
     8d0:	0b000f0b 	bleq	4504 <__code_start__-0x3afc>
     8d4:	0013490b 	andseq	r4, r3, fp, lsl #18
     8d8:	00260c00 	eoreq	r0, r6, r0, lsl #24
     8dc:	00001349 	andeq	r1, r0, r9, asr #6
     8e0:	3f012e0d 	svccc	0x00012e0d
     8e4:	3a0e0319 	bcc	381550 <__bss_end__+0x3769b8>
     8e8:	390b3b0b 	stmdbcc	fp, {r0, r1, r3, r8, r9, fp, ip, sp}
     8ec:	4919270b 	ldmdbmi	r9, {r0, r1, r3, r8, r9, sl, sp}
     8f0:	12011113 	andne	r1, r1, #-1073741820	; 0xc0000004
     8f4:	97184006 	ldrls	r4, [r8, -r6]
     8f8:	13011942 	movwne	r1, #6466	; 0x1942
     8fc:	050e0000 	streq	r0, [lr, #-0]
     900:	3a080300 	bcc	201508 <__bss_end__+0x1f6970>
     904:	390b3b0b 	stmdbcc	fp, {r0, r1, r3, r8, r9, fp, ip, sp}
     908:	0213490b 	andseq	r4, r3, #180224	; 0x2c000
     90c:	0f000018 	svceq	0x00000018
     910:	00000018 	andeq	r0, r0, r8, lsl r0
     914:	03003410 	movweq	r3, #1040	; 0x410
     918:	3b0b3a08 	blcc	2cf140 <__bss_end__+0x2c45a8>
     91c:	490b390b 	stmdbmi	fp, {r0, r1, r3, r8, fp, ip, sp}
     920:	00180213 	andseq	r0, r8, r3, lsl r2
     924:	00341100 	eorseq	r1, r4, r0, lsl #2
     928:	0b3a0e03 	bleq	e8413c <__bss_end__+0xe795a4>
     92c:	0b390b3b 	bleq	e43620 <__bss_end__+0xe38a88>
     930:	18021349 	stmdane	r2, {r0, r3, r6, r8, r9, ip}
     934:	34120000 	ldrcc	r0, [r2], #-0
     938:	3a080300 	bcc	201540 <__bss_end__+0x1f69a8>
     93c:	390b3b0b 	stmdbcc	fp, {r0, r1, r3, r8, r9, fp, ip, sp}
     940:	0213490b 	andseq	r4, r3, #180224	; 0x2c000
     944:	1742b717 	smlaldne	fp, r2, r7, r7
     948:	89130000 	ldmdbhi	r3, {}	; <UNPREDICTABLE>
     94c:	11010182 	smlabbne	r1, r2, r1, r0
     950:	01133101 	tsteq	r3, r1, lsl #2
     954:	14000013 	strne	r0, [r0], #-19	; 0xffffffed
     958:	0001828a 	andeq	r8, r1, sl, lsl #5
     95c:	42911802 	addsmi	r1, r1, #131072	; 0x20000
     960:	15000018 	strne	r0, [r0, #-24]	; 0xffffffe8
     964:	01018289 	smlabbeq	r1, r9, r2, r8
     968:	00000111 	andeq	r0, r0, r1, lsl r1
     96c:	49010116 	stmdbmi	r1, {r1, r2, r4, r8}
     970:	00130113 	andseq	r0, r3, r3, lsl r1
     974:	00211700 	eoreq	r1, r1, r0, lsl #14
     978:	052f1349 	streq	r1, [pc, #-841]!	; 637 <__code_start__-0x79c9>
     97c:	2e180000 	cdpcs	0, 1, cr0, cr8, cr0, {0}
     980:	3c193f00 	ldccc	15, cr3, [r9], {-0}
     984:	030e6e19 	movweq	r6, #60953	; 0xee19
     988:	3b0b3a0e 	blcc	2cf1c8 <__bss_end__+0x2c4630>
     98c:	000b390b 	andeq	r3, fp, fp, lsl #18
     990:	11010000 	mrsne	r0, (UNDEF: 1)
     994:	130e2501 	movwne	r2, #58625	; 0xe501
     998:	1b0e030b 	blne	3815cc <__bss_end__+0x376a34>
     99c:	1201110e 	andne	r1, r1, #-2147483645	; 0x80000003
     9a0:	00171006 	andseq	r1, r7, r6
     9a4:	00240200 	eoreq	r0, r4, r0, lsl #4
     9a8:	0b3e0b0b 	bleq	f835dc <__bss_end__+0xf78a44>
     9ac:	00000803 	andeq	r0, r0, r3, lsl #16
     9b0:	0b002403 	bleq	99c4 <va_printk+0x4b8>
     9b4:	030b3e0b 	movweq	r3, #48651	; 0xbe0b
     9b8:	0400000e 	streq	r0, [r0], #-14
     9bc:	19270115 	stmdbne	r7!, {r0, r2, r4, r8}
     9c0:	13011349 	movwne	r1, #4937	; 0x1349
     9c4:	05050000 	streq	r0, [r5, #-0]
     9c8:	00134900 	andseq	r4, r3, r0, lsl #18
     9cc:	00340600 	eorseq	r0, r4, r0, lsl #12
     9d0:	0b3a0e03 	bleq	e841e4 <__bss_end__+0xe7964c>
     9d4:	0b390b3b 	bleq	e436c8 <__bss_end__+0xe38b30>
     9d8:	193f1349 	ldmdbne	pc!, {r0, r3, r6, r8, r9, ip}	; <UNPREDICTABLE>
     9dc:	0000193c 	andeq	r1, r0, ip, lsr r9
     9e0:	0b000f07 	bleq	4604 <__code_start__-0x39fc>
     9e4:	0013490b 	andseq	r4, r3, fp, lsl #18
     9e8:	00260800 	eoreq	r0, r6, r0, lsl #16
     9ec:	00001349 	andeq	r1, r0, r9, asr #6
     9f0:	47003409 	strmi	r3, [r0, -r9, lsl #8]
     9f4:	3b0b3a13 	blcc	2cf248 <__bss_end__+0x2c46b0>
     9f8:	020b390b 	andeq	r3, fp, #180224	; 0x2c000
     9fc:	0a000018 	beq	a64 <__code_start__-0x759c>
     a00:	193f012e 	ldmdbne	pc!, {r1, r2, r3, r5, r8}	; <UNPREDICTABLE>
     a04:	0b3a0e03 	bleq	e84218 <__bss_end__+0xe79680>
     a08:	0b390b3b 	bleq	e436fc <__bss_end__+0xe38b64>
     a0c:	13491927 	movtne	r1, #39207	; 0x9927
     a10:	06120111 			; <UNDEFINED> instruction: 0x06120111
     a14:	42961840 	addsmi	r1, r6, #64, 16	; 0x400000
     a18:	0b000019 	bleq	a84 <__code_start__-0x757c>
     a1c:	08030005 	stmdaeq	r3, {r0, r2}
     a20:	0b3b0b3a 	bleq	ec3710 <__bss_end__+0xeb8b78>
     a24:	13490b39 	movtne	r0, #39737	; 0x9b39
     a28:	42b71702 	adcsmi	r1, r7, #524288	; 0x80000
     a2c:	00000017 	andeq	r0, r0, r7, lsl r0
     a30:	25011101 	strcs	r1, [r1, #-257]	; 0xfffffeff
     a34:	030b130e 	movweq	r1, #45838	; 0xb30e
     a38:	110e1b0e 	tstne	lr, lr, lsl #22
     a3c:	10061201 	andne	r1, r6, r1, lsl #4
     a40:	02000017 	andeq	r0, r0, #23, 0
     a44:	0b0b0024 	bleq	2c0adc <__bss_end__+0x2b5f44>
     a48:	0e030b3e 	vmoveq.16	d3[0], r0
     a4c:	24030000 	strcs	r0, [r3], #-0
     a50:	3e0b0b00 	vmlacc.f64	d0, d11, d0
     a54:	0008030b 	andeq	r0, r8, fp, lsl #6
     a58:	00160400 	andseq	r0, r6, r0, lsl #8
     a5c:	0b3a0e03 	bleq	e84270 <__bss_end__+0xe796d8>
     a60:	0b390b3b 	bleq	e43754 <__bss_end__+0xe38bbc>
     a64:	00001349 	andeq	r1, r0, r9, asr #6
     a68:	27011505 	strcs	r1, [r1, -r5, lsl #10]
     a6c:	01134919 	tsteq	r3, r9, lsl r9
     a70:	06000013 			; <UNDEFINED> instruction: 0x06000013
     a74:	13490005 	movtne	r0, #36869	; 0x9005
     a78:	34070000 	strcc	r0, [r7], #-0
     a7c:	3a0e0300 	bcc	381684 <__bss_end__+0x376aec>
     a80:	390b3b0b 	stmdbcc	fp, {r0, r1, r3, r8, r9, fp, ip, sp}
     a84:	3f13490b 	svccc	0x0013490b
     a88:	00193c19 	andseq	r3, r9, r9, lsl ip
     a8c:	000f0800 	andeq	r0, pc, r0, lsl #16
     a90:	13490b0b 	movtne	r0, #39691	; 0x9b0b
     a94:	26090000 	strcs	r0, [r9], -r0
     a98:	00134900 	andseq	r4, r3, r0, lsl #18
     a9c:	01130a00 	tsteq	r3, r0, lsl #20
     aa0:	0b0b0e03 	bleq	2c42b4 <__bss_end__+0x2b971c>
     aa4:	0b3b0b3a 	bleq	ec3794 <__bss_end__+0xeb8bfc>
     aa8:	00001301 	andeq	r1, r0, r1, lsl #6
     aac:	03000d0b 	movweq	r0, #3339	; 0xd0b
     ab0:	3813490e 	ldmdacc	r3, {r1, r2, r3, r8, fp, lr}
     ab4:	0019340b 	andseq	r3, r9, fp, lsl #8
     ab8:	000f0c00 	andeq	r0, pc, r0, lsl #24
     abc:	00000b0b 	andeq	r0, r0, fp, lsl #22
     ac0:	3f012e0d 	svccc	0x00012e0d
     ac4:	3a0e0319 	bcc	381730 <__bss_end__+0x376b98>
     ac8:	390b3b0b 	stmdbcc	fp, {r0, r1, r3, r8, r9, fp, ip, sp}
     acc:	4919270b 	ldmdbmi	r9, {r0, r1, r3, r8, r9, sl, sp}
     ad0:	12011113 	andne	r1, r1, #-1073741820	; 0xc0000004
     ad4:	97184006 	ldrls	r4, [r8, -r6]
     ad8:	13011942 	movwne	r1, #6466	; 0x1942
     adc:	050e0000 	streq	r0, [lr, #-0]
     ae0:	3a080300 	bcc	2016e8 <__bss_end__+0x1f6b50>
     ae4:	390b3b0b 	stmdbcc	fp, {r0, r1, r3, r8, r9, fp, ip, sp}
     ae8:	0213490b 	andseq	r4, r3, #180224	; 0x2c000
     aec:	1742b717 	smlaldne	fp, r2, r7, r7
     af0:	050f0000 	streq	r0, [pc, #-0]	; af8 <__code_start__-0x7508>
     af4:	3a0e0300 	bcc	3816fc <__bss_end__+0x376b64>
     af8:	390b3b0b 	stmdbcc	fp, {r0, r1, r3, r8, r9, fp, ip, sp}
     afc:	0213490b 	andseq	r4, r3, #180224	; 0x2c000
     b00:	1742b717 	smlaldne	fp, r2, r7, r7
     b04:	34100000 	ldrcc	r0, [r0], #-0
     b08:	3a080300 	bcc	201710 <__bss_end__+0x1f6b78>
     b0c:	390b3b0b 	stmdbcc	fp, {r0, r1, r3, r8, r9, fp, ip, sp}
     b10:	0213490b 	andseq	r4, r3, #180224	; 0x2c000
     b14:	1742b717 	smlaldne	fp, r2, r7, r7
     b18:	34110000 	ldrcc	r0, [r1], #-0
     b1c:	3a0e0300 	bcc	381724 <__bss_end__+0x376b8c>
     b20:	390b3b0b 	stmdbcc	fp, {r0, r1, r3, r8, r9, fp, ip, sp}
     b24:	0213490b 	andseq	r4, r3, #180224	; 0x2c000
     b28:	1742b717 	smlaldne	fp, r2, r7, r7
     b2c:	34120000 	ldrcc	r0, [r2], #-0
     b30:	490e0300 	stmdbmi	lr, {r8, r9}
     b34:	02193413 	andseq	r3, r9, #318767104	; 0x13000000
     b38:	13000018 	movwne	r0, #24
     b3c:	1755010b 	ldrbne	r0, [r5, -fp, lsl #2]
     b40:	34140000 	ldrcc	r0, [r4], #-0
     b44:	3a080300 	bcc	20174c <__bss_end__+0x1f6bb4>
     b48:	390b3b0b 	stmdbcc	fp, {r0, r1, r3, r8, r9, fp, ip, sp}
     b4c:	0213490b 	andseq	r4, r3, #180224	; 0x2c000
     b50:	15000018 	strne	r0, [r0, #-24]	; 0xffffffe8
     b54:	0e030034 	mcreq	0, 0, r0, cr3, cr4, {1}
     b58:	0b3b0b3a 	bleq	ec3848 <__bss_end__+0xeb8cb0>
     b5c:	13490b39 	movtne	r0, #39737	; 0x9b39
     b60:	00001802 	andeq	r1, r0, r2, lsl #16
     b64:	55010b16 	strpl	r0, [r1, #-2838]	; 0xfffff4ea
     b68:	00130117 	andseq	r0, r3, r7, lsl r1
     b6c:	82891700 	addhi	r1, r9, #0, 14
     b70:	01110101 	tsteq	r1, r1, lsl #2
     b74:	13011331 	movwne	r1, #4913	; 0x1331
     b78:	8a180000 	bhi	600b80 <__bss_end__+0x5f5fe8>
     b7c:	02000182 	andeq	r0, r0, #-2147483616	; 0x80000020
     b80:	18429118 	stmdane	r2, {r3, r4, r8, ip, pc}^
     b84:	89190000 	ldmdbhi	r9, {}	; <UNPREDICTABLE>
     b88:	11000182 	smlabbne	r0, r2, r1, r0
     b8c:	00133101 	andseq	r3, r3, r1, lsl #2
     b90:	011d1a00 	tsteq	sp, r0, lsl #20
     b94:	01521331 	cmpeq	r2, r1, lsr r3
     b98:	550542b8 	strpl	r4, [r5, #-696]	; 0xfffffd48
     b9c:	590b5817 	stmdbpl	fp, {r0, r1, r2, r4, fp, ip, lr}
     ba0:	010b570b 	tsteq	fp, fp, lsl #14
     ba4:	1b000013 	blne	bf8 <__code_start__-0x7408>
     ba8:	13310005 	teqne	r1, #5, 0
     bac:	42b71702 	adcsmi	r1, r7, #524288	; 0x80000
     bb0:	1c000017 	stcne	0, cr0, [r0], {23}
     bb4:	13310005 	teqne	r1, #5, 0
     bb8:	341d0000 	ldrcc	r0, [sp], #-0
     bbc:	02133100 	andseq	r3, r3, #0
     bc0:	1e000018 	mcrne	0, 0, r0, cr0, cr8, {0}
     bc4:	13310034 	teqne	r1, #52, 0	; 0x34
     bc8:	42b71702 	adcsmi	r1, r7, #524288	; 0x80000
     bcc:	1f000017 	svcne	0x00000017
     bd0:	13310034 	teqne	r1, #52, 0	; 0x34
     bd4:	1d200000 	stcne	0, cr0, [r0, #-0]
     bd8:	52133101 	andspl	r3, r3, #1073741824	; 0x40000000
     bdc:	0542b801 	strbeq	fp, [r2, #-2049]	; 0xfffff7ff
     be0:	0b581755 	bleq	160693c <__bss_end__+0x15fbda4>
     be4:	0b570b59 	bleq	15c3950 <__bss_end__+0x15b8db8>
     be8:	89210000 	stmdbhi	r1!, {}	; <UNPREDICTABLE>
     bec:	11010182 	smlabbne	r1, r2, r1, r0
     bf0:	00130101 	andseq	r0, r3, r1, lsl #2
     bf4:	01012200 	mrseq	r2, R9_usr
     bf8:	13011349 	movwne	r1, #4937	; 0x1349
     bfc:	21230000 			; <UNDEFINED> instruction: 0x21230000
     c00:	2f134900 	svccs	0x00134900
     c04:	2400000b 	strcs	r0, [r0], #-11
     c08:	0e03012e 	adfeqsp	f0, f3, #0.5
     c0c:	0b3b0b3a 	bleq	ec38fc <__bss_end__+0xeb8d64>
     c10:	19270b39 	stmdbne	r7!, {r0, r3, r4, r5, r8, r9, fp}
     c14:	0b201349 	bleq	805940 <__bss_end__+0x7fada8>
     c18:	00001301 	andeq	r1, r0, r1, lsl #6
     c1c:	03000525 	movweq	r0, #1317	; 0x525
     c20:	3b0b3a0e 	blcc	2cf460 <__bss_end__+0x2c48c8>
     c24:	490b390b 	stmdbmi	fp, {r0, r1, r3, r8, fp, ip, sp}
     c28:	26000013 			; <UNDEFINED> instruction: 0x26000013
     c2c:	08030005 	stmdaeq	r3, {r0, r2}
     c30:	0b3b0b3a 	bleq	ec3920 <__bss_end__+0xeb8d88>
     c34:	13490b39 	movtne	r0, #39737	; 0x9b39
     c38:	34270000 	strtcc	r0, [r7], #-0
     c3c:	3a080300 	bcc	201844 <__bss_end__+0x1f6cac>
     c40:	390b3b0b 	stmdbcc	fp, {r0, r1, r3, r8, r9, fp, ip, sp}
     c44:	0013490b 	andseq	r4, r3, fp, lsl #18
     c48:	010b2800 	tsteq	fp, r0, lsl #16
     c4c:	34290000 	strtcc	r0, [r9], #-0
     c50:	3a0e0300 	bcc	381858 <__bss_end__+0x376cc0>
     c54:	390b3b0b 	stmdbcc	fp, {r0, r1, r3, r8, r9, fp, ip, sp}
     c58:	0013490b 	andseq	r4, r3, fp, lsl #18
     c5c:	012e2a00 			; <UNDEFINED> instruction: 0x012e2a00
     c60:	0b3a0803 	bleq	e82c74 <__bss_end__+0xe780dc>
     c64:	0b390b3b 	bleq	e43958 <__bss_end__+0xe38dc0>
     c68:	13491927 	movtne	r1, #39207	; 0x9927
     c6c:	13010b20 	movwne	r0, #6944	; 0x1b20
     c70:	2e2b0000 	cdpcs	0, 2, cr0, cr11, cr0, {0}
     c74:	03193f01 	tsteq	r9, #1, 30
     c78:	3b0b3a0e 	blcc	2cf4b8 <__bss_end__+0x2c4920>
     c7c:	270b390b 	strcs	r3, [fp, -fp, lsl #18]
     c80:	12011119 	andne	r1, r1, #1073741830	; 0x40000006
     c84:	97184006 	ldrls	r4, [r8, -r6]
     c88:	13011942 	movwne	r1, #6466	; 0x1942
     c8c:	2e2c0000 	cdpcs	0, 2, cr0, cr12, cr0, {0}
     c90:	11133101 	tstne	r3, r1, lsl #2
     c94:	40061201 	andmi	r1, r6, r1, lsl #4
     c98:	19429718 	stmdbne	r2, {r3, r4, r8, r9, sl, ip, pc}^
     c9c:	00001301 	andeq	r1, r0, r1, lsl #6
     ca0:	3100052d 	tstcc	r0, sp, lsr #10
     ca4:	00180213 	andseq	r0, r8, r3, lsl r2
     ca8:	00052e00 	andeq	r2, r5, r0, lsl #28
     cac:	0b1c1331 	bleq	705978 <__bss_end__+0x6fade0>
     cb0:	0b2f0000 	bleq	bc0cb8 <__bss_end__+0xbb6120>
     cb4:	11133101 	tstne	r3, r1, lsl #2
     cb8:	01061201 	tsteq	r6, r1, lsl #4
     cbc:	30000013 	andcc	r0, r0, r3, lsl r0
     cc0:	193f002e 	ldmdbne	pc!, {r1, r2, r3, r5}	; <UNPREDICTABLE>
     cc4:	0e6e193c 			; <UNDEFINED> instruction: 0x0e6e193c
     cc8:	0b3a0e03 	bleq	e844dc <__bss_end__+0xe79944>
     ccc:	0b390b3b 	bleq	e439c0 <__bss_end__+0xe38e28>
     cd0:	01000000 	mrseq	r0, (UNDEF: 0)
     cd4:	0e250111 	mcreq	1, 1, r0, cr5, cr1, {0}
     cd8:	0e030b13 	vmoveq.32	d3[0], r0
     cdc:	01110e1b 	tsteq	r1, fp, lsl lr
     ce0:	17100612 			; <UNDEFINED> instruction: 0x17100612
     ce4:	24020000 	strcs	r0, [r2], #-0
     ce8:	3e0b0b00 	vmlacc.f64	d0, d11, d0
     cec:	0008030b 	andeq	r0, r8, fp, lsl #6
     cf0:	00240300 	eoreq	r0, r4, r0, lsl #6
     cf4:	0b3e0b0b 	bleq	f83928 <__bss_end__+0xf78d90>
     cf8:	00000e03 	andeq	r0, r0, r3, lsl #28
     cfc:	27011504 	strcs	r1, [r1, -r4, lsl #10]
     d00:	01134919 	tsteq	r3, r9, lsl r9
     d04:	05000013 	streq	r0, [r0, #-19]	; 0xffffffed
     d08:	13490005 	movtne	r0, #36869	; 0x9005
     d0c:	34060000 	strcc	r0, [r6], #-0
     d10:	3a0e0300 	bcc	381918 <__bss_end__+0x376d80>
     d14:	390b3b0b 	stmdbcc	fp, {r0, r1, r3, r8, r9, fp, ip, sp}
     d18:	3f13490b 	svccc	0x0013490b
     d1c:	00193c19 	andseq	r3, r9, r9, lsl ip
     d20:	000f0700 	andeq	r0, pc, r0, lsl #14
     d24:	13490b0b 	movtne	r0, #39691	; 0x9b0b
     d28:	26080000 	strcs	r0, [r8], -r0
     d2c:	00134900 	andseq	r4, r3, r0, lsl #18
     d30:	012e0900 			; <UNDEFINED> instruction: 0x012e0900
     d34:	0e03193f 			; <UNDEFINED> instruction: 0x0e03193f
     d38:	0b3b0b3a 	bleq	ec3a28 <__bss_end__+0xeb8e90>
     d3c:	19270b39 	stmdbne	r7!, {r0, r3, r4, r5, r8, r9, fp}
     d40:	11190187 	tstne	r9, r7, lsl #3
     d44:	40061201 	andmi	r1, r6, r1, lsl #4
     d48:	19429718 	stmdbne	r2, {r3, r4, r8, r9, sl, ip, pc}^
     d4c:	00001301 	andeq	r1, r0, r1, lsl #6
     d50:	0182890a 	orreq	r8, r2, sl, lsl #18
     d54:	01011101 	tsteq	r1, r1, lsl #2
     d58:	0b000013 	bleq	dac <__code_start__-0x7254>
     d5c:	0001828a 	andeq	r8, r1, sl, lsl #5
     d60:	42911802 	addsmi	r1, r1, #131072	; 0x20000
     d64:	0c000018 	stceq	0, cr0, [r0], {24}
     d68:	00018289 	andeq	r8, r1, r9, lsl #5
     d6c:	13310111 	teqne	r1, #1073741828	; 0x40000004
     d70:	890d0000 	stmdbhi	sp, {}	; <UNPREDICTABLE>
     d74:	11010182 	smlabbne	r1, r2, r1, r0
     d78:	01133101 	tsteq	r3, r1, lsl #2
     d7c:	0e000013 	mcreq	0, 0, r0, cr0, cr3, {0}
     d80:	193f002e 	ldmdbne	pc!, {r1, r2, r3, r5}	; <UNPREDICTABLE>
     d84:	0e6e193c 			; <UNDEFINED> instruction: 0x0e6e193c
     d88:	0b3a0e03 	bleq	e8459c <__bss_end__+0xe79a04>
     d8c:	0b390b3b 	bleq	e43a80 <__bss_end__+0xe38ee8>
     d90:	01000000 	mrseq	r0, (UNDEF: 0)
     d94:	0e250111 	mcreq	1, 1, r0, cr5, cr1, {0}
     d98:	0e030b13 	vmoveq.32	d3[0], r0
     d9c:	01110e1b 	tsteq	r1, fp, lsl lr
     da0:	17100612 			; <UNDEFINED> instruction: 0x17100612
     da4:	24020000 	strcs	r0, [r2], #-0
     da8:	3e0b0b00 	vmlacc.f64	d0, d11, d0
     dac:	0008030b 	andeq	r0, r8, fp, lsl #6
     db0:	00240300 	eoreq	r0, r4, r0, lsl #6
     db4:	0b3e0b0b 	bleq	f839e8 <__bss_end__+0xf78e50>
     db8:	00000e03 	andeq	r0, r0, r3, lsl #28
     dbc:	27011504 	strcs	r1, [r1, -r4, lsl #10]
     dc0:	01134919 	tsteq	r3, r9, lsl r9
     dc4:	05000013 	streq	r0, [r0, #-19]	; 0xffffffed
     dc8:	13490005 	movtne	r0, #36869	; 0x9005
     dcc:	34060000 	strcc	r0, [r6], #-0
     dd0:	3a0e0300 	bcc	3819d8 <__bss_end__+0x376e40>
     dd4:	390b3b0b 	stmdbcc	fp, {r0, r1, r3, r8, r9, fp, ip, sp}
     dd8:	3f13490b 	svccc	0x0013490b
     ddc:	00193c19 	andseq	r3, r9, r9, lsl ip
     de0:	000f0700 	andeq	r0, pc, r0, lsl #14
     de4:	13490b0b 	movtne	r0, #39691	; 0x9b0b
     de8:	26080000 	strcs	r0, [r8], -r0
     dec:	00134900 	andseq	r4, r3, r0, lsl #18
     df0:	012e0900 			; <UNDEFINED> instruction: 0x012e0900
     df4:	0e03193f 			; <UNDEFINED> instruction: 0x0e03193f
     df8:	0b3b0b3a 	bleq	ec3ae8 <__bss_end__+0xeb8f50>
     dfc:	01110b39 	tsteq	r1, r9, lsr fp
     e00:	18400612 	stmdane	r0, {r1, r4, r9, sl}^
     e04:	01194297 			; <UNDEFINED> instruction: 0x01194297
     e08:	0a000013 	beq	e5c <__code_start__-0x71a4>
     e0c:	193f002e 	ldmdbne	pc!, {r1, r2, r3, r5}	; <UNPREDICTABLE>
     e10:	0b3a0e03 	bleq	e84624 <__bss_end__+0xe79a8c>
     e14:	0b390b3b 	bleq	e43b08 <__bss_end__+0xe38f70>
     e18:	193c1927 	ldmdbne	ip!, {r0, r1, r2, r5, r8, fp, ip}
     e1c:	340b0000 	strcc	r0, [fp], #-0
     e20:	3a080300 	bcc	201a28 <__bss_end__+0x1f6e90>
     e24:	390b3b0b 	stmdbcc	fp, {r0, r1, r3, r8, r9, fp, ip, sp}
     e28:	0213490b 	andseq	r4, r3, #180224	; 0x2c000
     e2c:	1742b717 	smlaldne	fp, r2, r7, r7
     e30:	340c0000 	strcc	r0, [ip], #-0
     e34:	3a0e0300 	bcc	381a3c <__bss_end__+0x376ea4>
     e38:	390b3b0b 	stmdbcc	fp, {r0, r1, r3, r8, r9, fp, ip, sp}
     e3c:	0013490b 	andseq	r4, r3, fp, lsl #18
     e40:	00340d00 	eorseq	r0, r4, r0, lsl #26
     e44:	0b3a0e03 	bleq	e84658 <__bss_end__+0xe79ac0>
     e48:	0b390b3b 	bleq	e43b3c <__bss_end__+0xe38fa4>
     e4c:	17021349 	strne	r1, [r2, -r9, asr #6]
     e50:	001742b7 			; <UNDEFINED> instruction: 0x001742b7
     e54:	010b0e00 	tsteq	fp, r0, lsl #28
     e58:	06120111 			; <UNDEFINED> instruction: 0x06120111
     e5c:	00001301 	andeq	r1, r0, r1, lsl #6
     e60:	31011d0f 	tstcc	r1, pc, lsl #26
     e64:	b8015213 	stmdalt	r1, {r0, r1, r4, r9, ip, lr}
     e68:	01110b42 	tsteq	r1, r2, asr #22
     e6c:	0b580612 	bleq	16026bc <__bss_end__+0x15f7b24>
     e70:	0b570b59 	bleq	15c3bdc <__bss_end__+0x15b9044>
     e74:	00001301 	andeq	r1, r0, r1, lsl #6
     e78:	31003410 	tstcc	r0, r0, lsl r4
     e7c:	b7170213 			; <UNDEFINED> instruction: 0xb7170213
     e80:	00001742 	andeq	r1, r0, r2, asr #14
     e84:	31010b11 	tstcc	r1, r1, lsl fp
     e88:	12011113 	andne	r1, r1, #-1073741820	; 0xc0000004
     e8c:	12000006 	andne	r0, r0, #6, 0
     e90:	1331011d 	teqne	r1, #1073741831	; 0x40000007
     e94:	42b80152 	adcsmi	r0, r8, #-2147483628	; 0x80000014
     e98:	5817550b 	ldmdapl	r7, {r0, r1, r3, r8, sl, ip, lr}
     e9c:	570b590b 	strpl	r5, [fp, -fp, lsl #18]
     ea0:	0013010b 	andseq	r0, r3, fp, lsl #2
     ea4:	010b1300 	mrseq	r1, (UNDEF: 59)
     ea8:	00001755 	andeq	r1, r0, r5, asr r7
     eac:	01828914 	orreq	r8, r2, r4, lsl r9
     eb0:	31011100 	mrscc	r1, (UNDEF: 17)
     eb4:	15000013 	strne	r0, [r0, #-19]	; 0xffffffed
     eb8:	01018289 	smlabbeq	r1, r9, r2, r8
     ebc:	13310111 	teqne	r1, #1073741828	; 0x40000004
     ec0:	00001301 	andeq	r1, r0, r1, lsl #6
     ec4:	01828a16 	orreq	r8, r2, r6, lsl sl
     ec8:	91180200 	tstls	r8, r0, lsl #4
     ecc:	00001842 	andeq	r1, r0, r2, asr #16
     ed0:	03012e17 	movweq	r2, #7703	; 0x1e17
     ed4:	3b0b3a0e 	blcc	2cf714 <__bss_end__+0x2c4b7c>
     ed8:	270b390b 	strcs	r3, [fp, -fp, lsl #18]
     edc:	20134919 	andscs	r4, r3, r9, lsl r9
     ee0:	0013010b 	andseq	r0, r3, fp, lsl #2
     ee4:	00341800 	eorseq	r1, r4, r0, lsl #16
     ee8:	0b3a0e03 	bleq	e846fc <__bss_end__+0xe79b64>
     eec:	0b390b3b 	bleq	e43be0 <__bss_end__+0xe39048>
     ef0:	18021349 	stmdane	r2, {r0, r3, r6, r8, r9, ip}
     ef4:	34190000 	ldrcc	r0, [r9], #-0
     ef8:	3a080300 	bcc	201b00 <__bss_end__+0x1f6f68>
     efc:	390b3b0b 	stmdbcc	fp, {r0, r1, r3, r8, r9, fp, ip, sp}
     f00:	0013490b 	andseq	r4, r3, fp, lsl #18
     f04:	010b1a00 	tsteq	fp, r0, lsl #20
     f08:	2e1b0000 	cdpcs	0, 1, cr0, cr11, cr0, {0}
     f0c:	3c193f00 	ldccc	15, cr3, [r9], {-0}
     f10:	030e6e19 	movweq	r6, #60953	; 0xee19
     f14:	3b0b3a0e 	blcc	2cf754 <__bss_end__+0x2c4bbc>
     f18:	000b3905 	andeq	r3, fp, r5, lsl #18
     f1c:	002e1c00 	eoreq	r1, lr, r0, lsl #24
     f20:	193c193f 	ldmdbne	ip!, {r0, r1, r2, r3, r4, r5, r8, fp, ip}
     f24:	0e030e6e 	cdpeq	14, 0, cr0, cr3, cr14, {3}
     f28:	0b3b0b3a 	bleq	ec3c18 <__bss_end__+0xeb9080>
     f2c:	00000b39 	andeq	r0, r0, r9, lsr fp
     f30:	01110100 	tsteq	r1, r0, lsl #2
     f34:	0b130e25 	bleq	4c47d0 <__bss_end__+0x4b9c38>
     f38:	0e1b0e03 	cdpeq	14, 1, cr0, cr11, cr3, {0}
     f3c:	06120111 			; <UNDEFINED> instruction: 0x06120111
     f40:	00001710 	andeq	r1, r0, r0, lsl r7
     f44:	0b002402 	bleq	9f54 <uart_can_getc+0x14>
     f48:	030b3e0b 	movweq	r3, #48651	; 0xbe0b
     f4c:	03000008 	movweq	r0, #8
     f50:	0b0b0024 	bleq	2c0fe8 <__bss_end__+0x2b6450>
     f54:	0e030b3e 	vmoveq.16	d3[0], r0
     f58:	15040000 	strne	r0, [r4, #-0]
     f5c:	49192701 	ldmdbmi	r9, {r0, r8, r9, sl, sp}
     f60:	00130113 	andseq	r0, r3, r3, lsl r1
     f64:	00050500 	andeq	r0, r5, r0, lsl #10
     f68:	00001349 	andeq	r1, r0, r9, asr #6
     f6c:	03003406 	movweq	r3, #1030	; 0x406
     f70:	3b0b3a0e 	blcc	2cf7b0 <__bss_end__+0x2c4c18>
     f74:	490b390b 	stmdbmi	fp, {r0, r1, r3, r8, fp, ip, sp}
     f78:	3c193f13 	ldccc	15, cr3, [r9], {19}
     f7c:	07000019 	smladeq	r0, r9, r0, r0
     f80:	0b0b000f 	bleq	2c0fc4 <__bss_end__+0x2b642c>
     f84:	00001349 	andeq	r1, r0, r9, asr #6
     f88:	49002608 	stmdbmi	r0, {r3, r9, sl, sp}
     f8c:	09000013 	stmdbeq	r0, {r0, r1, r4}
     f90:	193f002e 	ldmdbne	pc!, {r1, r2, r3, r5}	; <UNPREDICTABLE>
     f94:	0b3a0e03 	bleq	e847a8 <__bss_end__+0xe79c10>
     f98:	0b390b3b 	bleq	e43c8c <__bss_end__+0xe390f4>
     f9c:	01111927 	tsteq	r1, r7, lsr #18
     fa0:	18400612 	stmdane	r0, {r1, r4, r9, sl}^
     fa4:	00194297 	mulseq	r9, r7, r2
     fa8:	11010000 	mrsne	r0, (UNDEF: 1)
     fac:	130e2501 	movwne	r2, #58625	; 0xe501
     fb0:	1b0e030b 	blne	381be4 <__bss_end__+0x37704c>
     fb4:	1117550e 	tstne	r7, lr, lsl #10
     fb8:	00171001 	andseq	r1, r7, r1
     fbc:	00240200 	eoreq	r0, r4, r0, lsl #4
     fc0:	0b3e0b0b 	bleq	f83bf4 <__bss_end__+0xf7905c>
     fc4:	00000803 	andeq	r0, r0, r3, lsl #16
     fc8:	49002603 	stmdbmi	r0, {r0, r1, r9, sl, sp}
     fcc:	04000013 	streq	r0, [r0], #-19	; 0xffffffed
     fd0:	0b0b0024 	bleq	2c1068 <__bss_end__+0x2b64d0>
     fd4:	0e030b3e 	vmoveq.16	d3[0], r0
     fd8:	15050000 	strne	r0, [r5, #-0]
     fdc:	49192701 	ldmdbmi	r9, {r0, r8, r9, sl, sp}
     fe0:	00130113 	andseq	r0, r3, r3, lsl r1
     fe4:	00050600 	andeq	r0, r5, r0, lsl #12
     fe8:	00001349 	andeq	r1, r0, r9, asr #6
     fec:	03003407 	movweq	r3, #1031	; 0x407
     ff0:	3b0b3a0e 	blcc	2cf830 <__bss_end__+0x2c4c98>
     ff4:	490b390b 	stmdbmi	fp, {r0, r1, r3, r8, fp, ip, sp}
     ff8:	3c193f13 	ldccc	15, cr3, [r9], {19}
     ffc:	08000019 	stmdaeq	r0, {r0, r3, r4}
    1000:	0b0b000f 	bleq	2c1044 <__bss_end__+0x2b64ac>
    1004:	00001349 	andeq	r1, r0, r9, asr #6
    1008:	03003409 	movweq	r3, #1033	; 0x409
    100c:	3b0b3a0e 	blcc	2cf84c <__bss_end__+0x2c4cb4>
    1010:	490b390b 	stmdbmi	fp, {r0, r1, r3, r8, fp, ip, sp}
    1014:	0a000013 	beq	1068 <__code_start__-0x6f98>
    1018:	193f012e 	ldmdbne	pc!, {r1, r2, r3, r5, r8}	; <UNPREDICTABLE>
    101c:	0b3a0e03 	bleq	e84830 <__bss_end__+0xe79c98>
    1020:	0b390b3b 	bleq	e43d14 <__bss_end__+0xe3917c>
    1024:	01871927 	orreq	r1, r7, r7, lsr #18
    1028:	12011119 	andne	r1, r1, #1073741830	; 0x40000006
    102c:	97184006 	ldrls	r4, [r8, -r6]
    1030:	13011942 	movwne	r1, #6466	; 0x1942
    1034:	340b0000 	strcc	r0, [fp], #-0
    1038:	3a0e0300 	bcc	381c40 <__bss_end__+0x3770a8>
    103c:	390b3b0b 	stmdbcc	fp, {r0, r1, r3, r8, r9, fp, ip, sp}
    1040:	1c13490b 			; <UNDEFINED> instruction: 0x1c13490b
    1044:	0c000006 	stceq	0, cr0, [r0], {6}
    1048:	0e030034 	mcreq	0, 0, r0, cr3, cr4, {1}
    104c:	0b3b0b3a 	bleq	ec3d3c <__bss_end__+0xeb91a4>
    1050:	13490b39 	movtne	r0, #39737	; 0x9b39
    1054:	00000b1c 	andeq	r0, r0, ip, lsl fp
    1058:	31011d0d 	tstcc	r1, sp, lsl #26
    105c:	b8015213 	stmdalt	r1, {r0, r1, r4, r9, ip, lr}
    1060:	17550b42 	ldrbne	r0, [r5, -r2, asr #22]
    1064:	0b590b58 	bleq	1643dcc <__bss_end__+0x1639234>
    1068:	13010b57 	movwne	r0, #6999	; 0x1b57
    106c:	0b0e0000 	bleq	381074 <__bss_end__+0x3764dc>
    1070:	00175501 	andseq	r5, r7, r1, lsl #10
    1074:	00340f00 	eorseq	r0, r4, r0, lsl #30
    1078:	17021331 	smladxne	r2, r1, r3, r1
    107c:	001742b7 			; <UNDEFINED> instruction: 0x001742b7
    1080:	011d1000 	tsteq	sp, r0
    1084:	01521331 	cmpeq	r2, r1, lsr r3
    1088:	110b42b8 			; <UNDEFINED> instruction: 0x110b42b8
    108c:	58061201 	stmdapl	r6, {r0, r9, ip}
    1090:	570b590b 	strpl	r5, [fp, -fp, lsl #18]
    1094:	0013010b 	andseq	r0, r3, fp, lsl #2
    1098:	82891100 	addhi	r1, r9, #0
    109c:	01110001 	tsteq	r1, r1
    10a0:	00001331 	andeq	r1, r0, r1, lsr r3
    10a4:	01828912 	orreq	r8, r2, r2, lsl r9
    10a8:	31011101 	tstcc	r1, r1, lsl #2
    10ac:	00130113 	andseq	r0, r3, r3, lsl r1
    10b0:	828a1300 	addhi	r1, sl, #0, 6
    10b4:	18020001 	stmdane	r2, {r0}
    10b8:	00184291 	mulseq	r8, r1, r2
    10bc:	82891400 	addhi	r1, r9, #0, 8
    10c0:	01110101 	tsteq	r1, r1, lsl #2
    10c4:	00001331 	andeq	r1, r0, r1, lsr r3
    10c8:	3f012e15 	svccc	0x00012e15
    10cc:	3a0e0319 	bcc	381d38 <__bss_end__+0x3771a0>
    10d0:	390b3b0b 	stmdbcc	fp, {r0, r1, r3, r8, r9, fp, ip, sp}
    10d4:	2019270b 	andscs	r2, r9, fp, lsl #14
    10d8:	0013010b 	andseq	r0, r3, fp, lsl #2
    10dc:	012e1600 			; <UNDEFINED> instruction: 0x012e1600
    10e0:	0e03193f 			; <UNDEFINED> instruction: 0x0e03193f
    10e4:	0b3b0b3a 	bleq	ec3dd4 <__bss_end__+0xeb923c>
    10e8:	19270b39 	stmdbne	r7!, {r0, r3, r4, r5, r8, r9, fp}
    10ec:	0b201349 	bleq	805e18 <__bss_end__+0x7fb280>
    10f0:	00001301 	andeq	r1, r0, r1, lsl #6
    10f4:	31012e17 	tstcc	r1, r7, lsl lr
    10f8:	12011113 	andne	r1, r1, #-1073741820	; 0xc0000004
    10fc:	97184006 	ldrls	r4, [r8, -r6]
    1100:	13011942 	movwne	r1, #6466	; 0x1942
    1104:	2e180000 	cdpcs	0, 1, cr0, cr8, cr0, {0}
    1108:	3c193f00 	ldccc	15, cr3, [r9], {-0}
    110c:	030e6e19 	movweq	r6, #60953	; 0xee19
    1110:	3b0b3a0e 	blcc	2cf950 <__bss_end__+0x2c4db8>
    1114:	000b3905 	andeq	r3, fp, r5, lsl #18
    1118:	002e1900 	eoreq	r1, lr, r0, lsl #18
    111c:	193c193f 	ldmdbne	ip!, {r0, r1, r2, r3, r4, r5, r8, fp, ip}
    1120:	0e030e6e 	cdpeq	14, 0, cr0, cr3, cr14, {3}
    1124:	0b3b0b3a 	bleq	ec3e14 <__bss_end__+0xeb927c>
    1128:	00000b39 	andeq	r0, r0, r9, lsr fp
    112c:	01110100 	tsteq	r1, r0, lsl #2
    1130:	0b130e25 	bleq	4c49cc <__bss_end__+0x4b9e34>
    1134:	0e1b0e03 	cdpeq	14, 1, cr0, cr11, cr3, {0}
    1138:	06120111 			; <UNDEFINED> instruction: 0x06120111
    113c:	00001710 	andeq	r1, r0, r0, lsl r7
    1140:	0b002402 	bleq	a150 <__code_end__+0x18>
    1144:	030b3e0b 	movweq	r3, #48651	; 0xbe0b
    1148:	03000008 	movweq	r0, #8
    114c:	0b0b0024 	bleq	2c11e4 <__bss_end__+0x2b664c>
    1150:	0e030b3e 	vmoveq.16	d3[0], r0
    1154:	15040000 	strne	r0, [r4, #-0]
    1158:	49192701 	ldmdbmi	r9, {r0, r8, r9, sl, sp}
    115c:	00130113 	andseq	r0, r3, r3, lsl r1
    1160:	00050500 	andeq	r0, r5, r0, lsl #10
    1164:	00001349 	andeq	r1, r0, r9, asr #6
    1168:	03003406 	movweq	r3, #1030	; 0x406
    116c:	3b0b3a0e 	blcc	2cf9ac <__bss_end__+0x2c4e14>
    1170:	490b390b 	stmdbmi	fp, {r0, r1, r3, r8, fp, ip, sp}
    1174:	3c193f13 	ldccc	15, cr3, [r9], {19}
    1178:	07000019 	smladeq	r0, r9, r0, r0
    117c:	0b0b000f 	bleq	2c11c0 <__bss_end__+0x2b6628>
    1180:	00001349 	andeq	r1, r0, r9, asr #6
    1184:	49002608 	stmdbmi	r0, {r3, r9, sl, sp}
    1188:	09000013 	stmdbeq	r0, {r0, r1, r4}
    118c:	193f012e 	ldmdbne	pc!, {r1, r2, r3, r5, r8}	; <UNPREDICTABLE>
    1190:	0b3a0e03 	bleq	e849a4 <__bss_end__+0xe79e0c>
    1194:	0b390b3b 	bleq	e43e88 <__bss_end__+0xe392f0>
    1198:	01111927 	tsteq	r1, r7, lsr #18
    119c:	18400612 	stmdane	r0, {r1, r4, r9, sl}^
    11a0:	01194297 			; <UNDEFINED> instruction: 0x01194297
    11a4:	0a000013 	beq	11f8 <__code_start__-0x6e08>
    11a8:	08030005 	stmdaeq	r3, {r0, r2}
    11ac:	0b3b0b3a 	bleq	ec3e9c <__bss_end__+0xeb9304>
    11b0:	13490b39 	movtne	r0, #39737	; 0x9b39
    11b4:	42b71702 	adcsmi	r1, r7, #524288	; 0x80000
    11b8:	0b000017 	bleq	121c <__code_start__-0x6de4>
    11bc:	1331011d 	teqne	r1, #1073741831	; 0x40000007
    11c0:	42b80152 	adcsmi	r0, r8, #-2147483628	; 0x80000014
    11c4:	5817550b 	ldmdapl	r7, {r0, r1, r3, r8, sl, ip, lr}
    11c8:	570b590b 	strpl	r5, [fp, -fp, lsl #18]
    11cc:	0c00000b 	stceq	0, cr0, [r0], {11}
    11d0:	13310005 	teqne	r1, #5, 0
    11d4:	42b71702 	adcsmi	r1, r7, #524288	; 0x80000
    11d8:	0d000017 	stceq	0, cr0, [r0, #-92]	; 0xffffffa4
    11dc:	1331011d 	teqne	r1, #1073741831	; 0x40000007
    11e0:	42b80152 	adcsmi	r0, r8, #-2147483628	; 0x80000014
    11e4:	1201110b 	andne	r1, r1, #-1073741822	; 0xc0000002
    11e8:	590b5806 	stmdbpl	fp, {r1, r2, fp, ip, lr}
    11ec:	000b570b 	andeq	r5, fp, fp, lsl #14
    11f0:	00340e00 	eorseq	r0, r4, r0, lsl #28
    11f4:	17021331 	smladxne	r2, r1, r3, r1
    11f8:	001742b7 			; <UNDEFINED> instruction: 0x001742b7
    11fc:	011d0f00 	tsteq	sp, r0, lsl #30
    1200:	01521331 	cmpeq	r2, r1, lsr r3
    1204:	110b42b8 			; <UNDEFINED> instruction: 0x110b42b8
    1208:	58061201 	stmdapl	r6, {r0, r9, ip}
    120c:	570b590b 	strpl	r5, [fp, -fp, lsl #18]
    1210:	0013010b 	andseq	r0, r3, fp, lsl #2
    1214:	82891000 	addhi	r1, r9, #0, 0
    1218:	01110101 	tsteq	r1, r1, lsl #2
    121c:	00001331 	andeq	r1, r0, r1, lsr r3
    1220:	01828a11 	orreq	r8, r2, r1, lsl sl
    1224:	91180200 	tstls	r8, r0, lsl #4
    1228:	00001842 	andeq	r1, r0, r2, asr #16
    122c:	01828912 	orreq	r8, r2, r2, lsl r9
    1230:	31011100 	mrscc	r1, (UNDEF: 17)
    1234:	13000013 	movwne	r0, #19
    1238:	1331010b 	teqne	r1, #-1073741822	; 0xc0000002
    123c:	00001755 	andeq	r1, r0, r5, asr r7
    1240:	31003414 	tstcc	r0, r4, lsl r4
    1244:	15000013 	strne	r0, [r0, #-19]	; 0xffffffed
    1248:	1755010b 	ldrbne	r0, [r5, -fp, lsl #2]
    124c:	1d160000 	ldcne	0, cr0, [r6, #-0]
    1250:	52133101 	andspl	r3, r3, #1073741824	; 0x40000000
    1254:	0b42b801 	bleq	10af260 <__bss_end__+0x10a46c8>
    1258:	0b581755 	bleq	1606fb4 <__bss_end__+0x15fc41c>
    125c:	0b570b59 	bleq	15c3fc8 <__bss_end__+0x15b9430>
    1260:	00001301 	andeq	r1, r0, r1, lsl #6
    1264:	3f012e17 	svccc	0x00012e17
    1268:	3a0e0319 	bcc	381ed4 <__bss_end__+0x37733c>
    126c:	390b3b0b 	stmdbcc	fp, {r0, r1, r3, r8, r9, fp, ip, sp}
    1270:	2019270b 	andscs	r2, r9, fp, lsl #14
    1274:	0013010b 	andseq	r0, r3, fp, lsl #2
    1278:	00051800 	andeq	r1, r5, r0, lsl #16
    127c:	0b3a0803 	bleq	e83290 <__bss_end__+0xe786f8>
    1280:	0b390b3b 	bleq	e43f74 <__bss_end__+0xe393dc>
    1284:	00001349 	andeq	r1, r0, r9, asr #6
    1288:	03003419 	movweq	r3, #1049	; 0x419
    128c:	3b0b3a08 	blcc	2cfab4 <__bss_end__+0x2c4f1c>
    1290:	490b390b 	stmdbmi	fp, {r0, r1, r3, r8, fp, ip, sp}
    1294:	1a000013 	bne	12e8 <__code_start__-0x6d18>
    1298:	0000010b 	andeq	r0, r0, fp, lsl #2
    129c:	3f012e1b 	svccc	0x00012e1b
    12a0:	3a0e0319 	bcc	381f0c <__bss_end__+0x377374>
    12a4:	390b3b0b 	stmdbcc	fp, {r0, r1, r3, r8, r9, fp, ip, sp}
    12a8:	4919270b 	ldmdbmi	r9, {r0, r1, r3, r8, r9, sl, sp}
    12ac:	010b2013 	tsteq	fp, r3, lsl r0
    12b0:	1c000013 	stcne	0, cr0, [r0], {19}
    12b4:	193f002e 	ldmdbne	pc!, {r1, r2, r3, r5}	; <UNPREDICTABLE>
    12b8:	0b3a0e03 	bleq	e84acc <__bss_end__+0xe79f34>
    12bc:	0b390b3b 	bleq	e43fb0 <__bss_end__+0xe39418>
    12c0:	13491927 	movtne	r1, #39207	; 0x9927
    12c4:	00000b20 	andeq	r0, r0, r0, lsr #22
    12c8:	31012e1d 	tstcc	r1, sp, lsl lr
    12cc:	12011113 	andne	r1, r1, #-1073741820	; 0xc0000004
    12d0:	97184006 	ldrls	r4, [r8, -r6]
    12d4:	13011942 	movwne	r1, #6466	; 0x1942
    12d8:	891e0000 	ldmdbhi	lr, {}	; <UNPREDICTABLE>
    12dc:	11010182 	smlabbne	r1, r2, r1, r0
    12e0:	19429501 	stmdbne	r2, {r0, r8, sl, ip, pc}^
    12e4:	00001331 	andeq	r1, r0, r1, lsr r3
    12e8:	3f002e1f 	svccc	0x00002e1f
    12ec:	6e193c19 	mrcvs	12, 0, r3, cr9, cr9, {0}
    12f0:	3a0e030e 	bcc	381f30 <__bss_end__+0x377398>
    12f4:	390b3b0b 	stmdbcc	fp, {r0, r1, r3, r8, r9, fp, ip, sp}
    12f8:	0000000b 	andeq	r0, r0, fp
    12fc:	25011101 	strcs	r1, [r1, #-257]	; 0xfffffeff
    1300:	030b130e 	movweq	r1, #45838	; 0xb30e
    1304:	110e1b0e 	tstne	lr, lr, lsl #22
    1308:	10061201 	andne	r1, r6, r1, lsl #4
    130c:	02000017 	andeq	r0, r0, #23, 0
    1310:	0b0b0024 	bleq	2c13a8 <__bss_end__+0x2b6810>
    1314:	08030b3e 	stmdaeq	r3, {r1, r2, r3, r4, r5, r8, r9, fp}
    1318:	24030000 	strcs	r0, [r3], #-0
    131c:	3e0b0b00 	vmlacc.f64	d0, d11, d0
    1320:	000e030b 	andeq	r0, lr, fp, lsl #6
    1324:	00350400 	eorseq	r0, r5, r0, lsl #8
    1328:	00001349 	andeq	r1, r0, r9, asr #6
    132c:	03001605 	movweq	r1, #1541	; 0x605
    1330:	3b0b3a0e 	blcc	2cfb70 <__bss_end__+0x2c4fd8>
    1334:	490b390b 	stmdbmi	fp, {r0, r1, r3, r8, fp, ip, sp}
    1338:	06000013 			; <UNDEFINED> instruction: 0x06000013
    133c:	0b3e0104 	bleq	f81754 <__bss_end__+0xf76bbc>
    1340:	13490b0b 	movtne	r0, #39691	; 0x9b0b
    1344:	0b3b0b3a 	bleq	ec4034 <__bss_end__+0xeb949c>
    1348:	13010b39 	movwne	r0, #6969	; 0x1b39
    134c:	28070000 	stmdacs	r7, {}	; <UNPREDICTABLE>
    1350:	1c0e0300 	stcne	3, cr0, [lr], {-0}
    1354:	0800000b 	stmdaeq	r0, {r0, r1, r3}
    1358:	0e030113 	mcreq	1, 0, r0, cr3, cr3, {0}
    135c:	0b3a0b0b 	bleq	e83f90 <__bss_end__+0xe793f8>
    1360:	0b390b3b 	bleq	e44054 <__bss_end__+0xe394bc>
    1364:	00001301 	andeq	r1, r0, r1, lsl #6
    1368:	03000d09 	movweq	r0, #3337	; 0xd09
    136c:	3b0b3a08 	blcc	2cfb94 <__bss_end__+0x2c4ffc>
    1370:	490b390b 	stmdbmi	fp, {r0, r1, r3, r8, fp, ip, sp}
    1374:	000b3813 	andeq	r3, fp, r3, lsl r8
    1378:	000d0a00 	andeq	r0, sp, r0, lsl #20
    137c:	0b3a0e03 	bleq	e84b90 <__bss_end__+0xe79ff8>
    1380:	0b390b3b 	bleq	e44074 <__bss_end__+0xe394dc>
    1384:	0b381349 	bleq	e060b0 <__bss_end__+0xdfb518>
    1388:	340b0000 	strcc	r0, [fp], #-0
    138c:	3a0e0300 	bcc	381f94 <__bss_end__+0x3773fc>
    1390:	390b3b0b 	stmdbcc	fp, {r0, r1, r3, r8, r9, fp, ip, sp}
    1394:	1c13490b 			; <UNDEFINED> instruction: 0x1c13490b
    1398:	0c000006 	stceq	0, cr0, [r0], {6}
    139c:	0b0b000f 	bleq	2c13e0 <__bss_end__+0x2b6848>
    13a0:	00001349 	andeq	r1, r0, r9, asr #6
    13a4:	4900260d 	stmdbmi	r0, {r0, r2, r3, r9, sl, sp}
    13a8:	0e000013 	mcreq	0, 0, r0, cr0, cr3, {0}
    13ac:	193f012e 	ldmdbne	pc!, {r1, r2, r3, r5, r8}	; <UNPREDICTABLE>
    13b0:	0b3a0e03 	bleq	e84bc4 <__bss_end__+0xe7a02c>
    13b4:	0b390b3b 	bleq	e440a8 <__bss_end__+0xe39510>
    13b8:	01111927 	tsteq	r1, r7, lsr #18
    13bc:	18400612 	stmdane	r0, {r1, r4, r9, sl}^
    13c0:	01194297 			; <UNDEFINED> instruction: 0x01194297
    13c4:	0f000013 	svceq	0x00000013
    13c8:	00018289 	andeq	r8, r1, r9, lsl #5
    13cc:	13310111 	teqne	r1, #1073741828	; 0x40000004
    13d0:	2e100000 	cdpcs	0, 1, cr0, cr0, cr0, {0}
    13d4:	03193f01 	tsteq	r9, #1, 30
    13d8:	3b0b3a0e 	blcc	2cfc18 <__bss_end__+0x2c5080>
    13dc:	270b390b 	strcs	r3, [fp, -fp, lsl #18]
    13e0:	11134919 	tstne	r3, r9, lsl r9
    13e4:	40061201 	andmi	r1, r6, r1, lsl #4
    13e8:	19429718 	stmdbne	r2, {r3, r4, r8, r9, sl, ip, pc}^
    13ec:	00001301 	andeq	r1, r0, r1, lsl #6
    13f0:	01828911 	orreq	r8, r2, r1, lsl r9
    13f4:	31011101 	tstcc	r1, r1, lsl #2
    13f8:	12000013 	andne	r0, r0, #19, 0
    13fc:	0001828a 	andeq	r8, r1, sl, lsl #5
    1400:	42911802 	addsmi	r1, r1, #131072	; 0x20000
    1404:	13000018 	movwne	r0, #24
    1408:	08030005 	stmdaeq	r3, {r0, r2}
    140c:	0b3b0b3a 	bleq	ec40fc <__bss_end__+0xeb9564>
    1410:	13490b39 	movtne	r0, #39737	; 0x9b39
    1414:	42b71702 	adcsmi	r1, r7, #524288	; 0x80000
    1418:	14000017 	strne	r0, [r0], #-23	; 0xffffffe9
    141c:	01018289 	smlabbeq	r1, r9, r2, r8
    1420:	13310111 	teqne	r1, #1073741828	; 0x40000004
    1424:	00001301 	andeq	r1, r0, r1, lsl #6
    1428:	03003415 	movweq	r3, #1045	; 0x415
    142c:	3b0b3a08 	blcc	2cfc54 <__bss_end__+0x2c50bc>
    1430:	490b390b 	stmdbmi	fp, {r0, r1, r3, r8, fp, ip, sp}
    1434:	b7170213 			; <UNDEFINED> instruction: 0xb7170213
    1438:	00001742 	andeq	r1, r0, r2, asr #14
    143c:	03003416 	movweq	r3, #1046	; 0x416
    1440:	3b0b3a0e 	blcc	2cfc80 <__bss_end__+0x2c50e8>
    1444:	490b390b 	stmdbmi	fp, {r0, r1, r3, r8, fp, ip, sp}
    1448:	00051c13 	andeq	r1, r5, r3, lsl ip
    144c:	012e1700 			; <UNDEFINED> instruction: 0x012e1700
    1450:	0b3a0e03 	bleq	e84c64 <__bss_end__+0xe7a0cc>
    1454:	0b390b3b 	bleq	e44148 <__bss_end__+0xe395b0>
    1458:	01111927 	tsteq	r1, r7, lsr #18
    145c:	18400612 	stmdane	r0, {r1, r4, r9, sl}^
    1460:	01194297 			; <UNDEFINED> instruction: 0x01194297
    1464:	18000013 	stmdane	r0, {r0, r1, r4}
    1468:	0e030005 	cdpeq	0, 0, cr0, cr3, cr5, {0}
    146c:	0b3b0b3a 	bleq	ec415c <__bss_end__+0xeb95c4>
    1470:	13490b39 	movtne	r0, #39737	; 0x9b39
    1474:	42b71702 	adcsmi	r1, r7, #524288	; 0x80000
    1478:	19000017 	stmdbne	r0, {r0, r1, r2, r4}
    147c:	00000035 	andeq	r0, r0, r5, lsr r0
    1480:	3f002e1a 	svccc	0x00002e1a
    1484:	6e193c19 	mrcvs	12, 0, r3, cr9, cr9, {0}
    1488:	3a0e030e 	bcc	3820c8 <__bss_end__+0x377530>
    148c:	390b3b0b 	stmdbcc	fp, {r0, r1, r3, r8, r9, fp, ip, sp}
    1490:	0000000b 	andeq	r0, r0, fp
    1494:	25011101 	strcs	r1, [r1, #-257]	; 0xfffffeff
    1498:	030b130e 	movweq	r1, #45838	; 0xb30e
    149c:	110e1b0e 	tstne	lr, lr, lsl #22
    14a0:	10061201 	andne	r1, r6, r1, lsl #4
    14a4:	02000017 	andeq	r0, r0, #23, 0
    14a8:	0b0b0024 	bleq	2c1540 <__bss_end__+0x2b69a8>
    14ac:	08030b3e 	stmdaeq	r3, {r1, r2, r3, r4, r5, r8, r9, fp}
    14b0:	24030000 	strcs	r0, [r3], #-0
    14b4:	3e0b0b00 	vmlacc.f64	d0, d11, d0
    14b8:	000e030b 	andeq	r0, lr, fp, lsl #6
    14bc:	01150400 	tsteq	r5, r0, lsl #8
    14c0:	13491927 	movtne	r1, #39207	; 0x9927
    14c4:	00001301 	andeq	r1, r0, r1, lsl #6
    14c8:	49000505 	stmdbmi	r0, {r0, r2, r8, sl}
    14cc:	06000013 			; <UNDEFINED> instruction: 0x06000013
    14d0:	0e030034 	mcreq	0, 0, r0, cr3, cr4, {1}
    14d4:	0b3b0b3a 	bleq	ec41c4 <__bss_end__+0xeb962c>
    14d8:	13490b39 	movtne	r0, #39737	; 0x9b39
    14dc:	193c193f 	ldmdbne	ip!, {r0, r1, r2, r3, r4, r5, r8, fp, ip}
    14e0:	0f070000 	svceq	0x00070000
    14e4:	490b0b00 	stmdbmi	fp, {r8, r9, fp}
    14e8:	08000013 	stmdaeq	r0, {r0, r1, r4}
    14ec:	13490026 	movtne	r0, #36902	; 0x9026
    14f0:	34090000 	strcc	r0, [r9], #-0
    14f4:	3a134700 	bcc	4d30fc <__bss_end__+0x4c8564>
    14f8:	390b3b0b 	stmdbcc	fp, {r0, r1, r3, r8, r9, fp, ip, sp}
    14fc:	0018020b 	andseq	r0, r8, fp, lsl #4
    1500:	012e0a00 			; <UNDEFINED> instruction: 0x012e0a00
    1504:	0e03193f 			; <UNDEFINED> instruction: 0x0e03193f
    1508:	0b3b0b3a 	bleq	ec41f8 <__bss_end__+0xeb9660>
    150c:	19270b39 	stmdbne	r7!, {r0, r3, r4, r5, r8, r9, fp}
    1510:	06120111 			; <UNDEFINED> instruction: 0x06120111
    1514:	42971840 	addsmi	r1, r7, #64, 16	; 0x400000
    1518:	00130119 	andseq	r0, r3, r9, lsl r1
    151c:	00050b00 	andeq	r0, r5, r0, lsl #22
    1520:	0b3a0803 	bleq	e83534 <__bss_end__+0xe7899c>
    1524:	0b390b3b 	bleq	e44218 <__bss_end__+0xe39680>
    1528:	18021349 	stmdane	r2, {r0, r3, r6, r8, r9, ip}
    152c:	2e0c0000 	cdpcs	0, 0, cr0, cr12, cr0, {0}
    1530:	03193f00 	tsteq	r9, #0, 30
    1534:	3b0b3a0e 	blcc	2cfd74 <__bss_end__+0x2c51dc>
    1538:	270b390b 	strcs	r3, [fp, -fp, lsl #18]
    153c:	12011119 	andne	r1, r1, #1073741830	; 0x40000006
    1540:	97184006 	ldrls	r4, [r8, -r6]
    1544:	00001942 	andeq	r1, r0, r2, asr #18
    1548:	03012e0d 	movweq	r2, #7693	; 0x1e0d
    154c:	3b0b3a0e 	blcc	2cfd8c <__bss_end__+0x2c51f4>
    1550:	270b390b 	strcs	r3, [fp, -fp, lsl #18]
    1554:	11134919 	tstne	r3, r9, lsl r9
    1558:	40061201 	andmi	r1, r6, r1, lsl #4
    155c:	19429718 	stmdbne	r2, {r3, r4, r8, r9, sl, ip, pc}^
    1560:	00001301 	andeq	r1, r0, r1, lsl #6
    1564:	0300050e 	movweq	r0, #1294	; 0x50e
    1568:	3b0b3a08 	blcc	2cfd90 <__bss_end__+0x2c51f8>
    156c:	490b390b 	stmdbmi	fp, {r0, r1, r3, r8, fp, ip, sp}
    1570:	b7170213 			; <UNDEFINED> instruction: 0xb7170213
    1574:	00001742 	andeq	r1, r0, r2, asr #14
    1578:	0182890f 	orreq	r8, r2, pc, lsl #18
    157c:	31011101 	tstcc	r1, r1, lsl #2
    1580:	10000013 	andne	r0, r0, r3, lsl r0
    1584:	0001828a 	andeq	r8, r1, sl, lsl #5
    1588:	42911802 	addsmi	r1, r1, #131072	; 0x20000
    158c:	11000018 	tstne	r0, r8, lsl r0
    1590:	193f002e 	ldmdbne	pc!, {r1, r2, r3, r5}	; <UNPREDICTABLE>
    1594:	0e6e193c 			; <UNDEFINED> instruction: 0x0e6e193c
    1598:	0b3a0e03 	bleq	e84dac <__bss_end__+0xe7a214>
    159c:	0b390b3b 	bleq	e44290 <__bss_end__+0xe396f8>
    15a0:	01000000 	mrseq	r0, (UNDEF: 0)
    15a4:	0e250111 	mcreq	1, 1, r0, cr5, cr1, {0}
    15a8:	0e030b13 	vmoveq.32	d3[0], r0
    15ac:	01110e1b 	tsteq	r1, fp, lsl lr
    15b0:	17100612 			; <UNDEFINED> instruction: 0x17100612
    15b4:	24020000 	strcs	r0, [r2], #-0
    15b8:	3e0b0b00 	vmlacc.f64	d0, d11, d0
    15bc:	0008030b 	andeq	r0, r8, fp, lsl #6
    15c0:	00240300 	eoreq	r0, r4, r0, lsl #6
    15c4:	0b3e0b0b 	bleq	f841f8 <__bss_end__+0xf79660>
    15c8:	00000e03 	andeq	r0, r0, r3, lsl #28
    15cc:	27011504 	strcs	r1, [r1, -r4, lsl #10]
    15d0:	01134919 	tsteq	r3, r9, lsl r9
    15d4:	05000013 	streq	r0, [r0, #-19]	; 0xffffffed
    15d8:	13490005 	movtne	r0, #36869	; 0x9005
    15dc:	34060000 	strcc	r0, [r6], #-0
    15e0:	3a0e0300 	bcc	3821e8 <__bss_end__+0x377650>
    15e4:	390b3b0b 	stmdbcc	fp, {r0, r1, r3, r8, r9, fp, ip, sp}
    15e8:	3f13490b 	svccc	0x0013490b
    15ec:	00193c19 	andseq	r3, r9, r9, lsl ip
    15f0:	000f0700 	andeq	r0, pc, r0, lsl #14
    15f4:	13490b0b 	movtne	r0, #39691	; 0x9b0b
    15f8:	26080000 	strcs	r0, [r8], -r0
    15fc:	00134900 	andseq	r4, r3, r0, lsl #18
    1600:	012e0900 			; <UNDEFINED> instruction: 0x012e0900
    1604:	0e03193f 			; <UNDEFINED> instruction: 0x0e03193f
    1608:	0b3b0b3a 	bleq	ec42f8 <__bss_end__+0xeb9760>
    160c:	19270b39 	stmdbne	r7!, {r0, r3, r4, r5, r8, r9, fp}
    1610:	01111349 	tsteq	r1, r9, asr #6
    1614:	18400612 	stmdane	r0, {r1, r4, r9, sl}^
    1618:	01194297 			; <UNDEFINED> instruction: 0x01194297
    161c:	0a000013 	beq	1670 <__code_start__-0x6990>
    1620:	0e030005 	cdpeq	0, 0, cr0, cr3, cr5, {0}
    1624:	0b3b0b3a 	bleq	ec4314 <__bss_end__+0xeb977c>
    1628:	13490b39 	movtne	r0, #39737	; 0x9b39
    162c:	00001802 	andeq	r1, r0, r2, lsl #16
    1630:	0300050b 	movweq	r0, #1291	; 0x50b
    1634:	3b0b3a08 	blcc	2cfe5c <__bss_end__+0x2c52c4>
    1638:	490b390b 	stmdbmi	fp, {r0, r1, r3, r8, fp, ip, sp}
    163c:	b7170213 			; <UNDEFINED> instruction: 0xb7170213
    1640:	00001742 	andeq	r1, r0, r2, asr #14
    1644:	0300340c 	movweq	r3, #1036	; 0x40c
    1648:	3b0b3a08 	blcc	2cfe70 <__bss_end__+0x2c52d8>
    164c:	490b390b 	stmdbmi	fp, {r0, r1, r3, r8, fp, ip, sp}
    1650:	b7170213 			; <UNDEFINED> instruction: 0xb7170213
    1654:	00001742 	andeq	r1, r0, r2, asr #14
    1658:	01110100 	tsteq	r1, r0, lsl #2
    165c:	0b130e25 	bleq	4c4ef8 <__bss_end__+0x4ba360>
    1660:	0e1b0e03 	cdpeq	14, 1, cr0, cr11, cr3, {0}
    1664:	06120111 			; <UNDEFINED> instruction: 0x06120111
    1668:	00001710 	andeq	r1, r0, r0, lsl r7
    166c:	0b002402 	bleq	a67c <__FUNCTION__.4149+0x90>
    1670:	030b3e0b 	movweq	r3, #48651	; 0xbe0b
    1674:	03000008 	movweq	r0, #8
    1678:	0b0b0024 	bleq	2c1710 <__bss_end__+0x2b6b78>
    167c:	0e030b3e 	vmoveq.16	d3[0], r0
    1680:	15040000 	strne	r0, [r4, #-0]
    1684:	49192701 	ldmdbmi	r9, {r0, r8, r9, sl, sp}
    1688:	00130113 	andseq	r0, r3, r3, lsl r1
    168c:	00050500 	andeq	r0, r5, r0, lsl #10
    1690:	00001349 	andeq	r1, r0, r9, asr #6
    1694:	03003406 	movweq	r3, #1030	; 0x406
    1698:	3b0b3a0e 	blcc	2cfed8 <__bss_end__+0x2c5340>
    169c:	490b390b 	stmdbmi	fp, {r0, r1, r3, r8, fp, ip, sp}
    16a0:	3c193f13 	ldccc	15, cr3, [r9], {19}
    16a4:	07000019 	smladeq	r0, r9, r0, r0
    16a8:	0b0b000f 	bleq	2c16ec <__bss_end__+0x2b6b54>
    16ac:	00001349 	andeq	r1, r0, r9, asr #6
    16b0:	49002608 	stmdbmi	r0, {r3, r9, sl, sp}
    16b4:	09000013 	stmdbeq	r0, {r0, r1, r4}
    16b8:	193f012e 	ldmdbne	pc!, {r1, r2, r3, r5, r8}	; <UNPREDICTABLE>
    16bc:	0b3a0e03 	bleq	e84ed0 <__bss_end__+0xe7a338>
    16c0:	0b390b3b 	bleq	e443b4 <__bss_end__+0xe3981c>
    16c4:	13491927 	movtne	r1, #39207	; 0x9927
    16c8:	06120111 			; <UNDEFINED> instruction: 0x06120111
    16cc:	42971840 	addsmi	r1, r7, #64, 16	; 0x400000
    16d0:	0a000019 	beq	173c <__code_start__-0x68c4>
    16d4:	08030005 	stmdaeq	r3, {r0, r2}
    16d8:	0b3b0b3a 	bleq	ec43c8 <__bss_end__+0xeb9830>
    16dc:	13490b39 	movtne	r0, #39737	; 0x9b39
    16e0:	42b71702 	adcsmi	r1, r7, #524288	; 0x80000
    16e4:	00000017 	andeq	r0, r0, r7, lsl r0
    16e8:	25011101 	strcs	r1, [r1, #-257]	; 0xfffffeff
    16ec:	030b130e 	movweq	r1, #45838	; 0xb30e
    16f0:	110e1b0e 	tstne	lr, lr, lsl #22
    16f4:	10061201 	andne	r1, r6, r1, lsl #4
    16f8:	02000017 	andeq	r0, r0, #23, 0
    16fc:	0b0b0024 	bleq	2c1794 <__bss_end__+0x2b6bfc>
    1700:	08030b3e 	stmdaeq	r3, {r1, r2, r3, r4, r5, r8, r9, fp}
    1704:	24030000 	strcs	r0, [r3], #-0
    1708:	3e0b0b00 	vmlacc.f64	d0, d11, d0
    170c:	000e030b 	andeq	r0, lr, fp, lsl #6
    1710:	01150400 	tsteq	r5, r0, lsl #8
    1714:	13491927 	movtne	r1, #39207	; 0x9927
    1718:	00001301 	andeq	r1, r0, r1, lsl #6
    171c:	49000505 	stmdbmi	r0, {r0, r2, r8, sl}
    1720:	06000013 			; <UNDEFINED> instruction: 0x06000013
    1724:	0e030034 	mcreq	0, 0, r0, cr3, cr4, {1}
    1728:	0b3b0b3a 	bleq	ec4418 <__bss_end__+0xeb9880>
    172c:	13490b39 	movtne	r0, #39737	; 0x9b39
    1730:	193c193f 	ldmdbne	ip!, {r0, r1, r2, r3, r4, r5, r8, fp, ip}
    1734:	0f070000 	svceq	0x00070000
    1738:	490b0b00 	stmdbmi	fp, {r8, r9, fp}
    173c:	08000013 	stmdaeq	r0, {r0, r1, r4}
    1740:	13490026 	movtne	r0, #36902	; 0x9026
    1744:	2e090000 	cdpcs	0, 0, cr0, cr9, cr0, {0}
    1748:	03193f01 	tsteq	r9, #1, 30
    174c:	3b0b3a0e 	blcc	2cff8c <__bss_end__+0x2c53f4>
    1750:	270b390b 	strcs	r3, [fp, -fp, lsl #18]
    1754:	11134919 	tstne	r3, r9, lsl r9
    1758:	40061201 	andmi	r1, r6, r1, lsl #4
    175c:	19429718 	stmdbne	r2, {r3, r4, r8, r9, sl, ip, pc}^
    1760:	00001301 	andeq	r1, r0, r1, lsl #6
    1764:	0300050a 	movweq	r0, #1290	; 0x50a
    1768:	3b0b3a08 	blcc	2cff90 <__bss_end__+0x2c53f8>
    176c:	490b390b 	stmdbmi	fp, {r0, r1, r3, r8, fp, ip, sp}
    1770:	00180213 	andseq	r0, r8, r3, lsl r2
    1774:	00050b00 	andeq	r0, r5, r0, lsl #22
    1778:	0b3a0803 	bleq	e8378c <__bss_end__+0xe78bf4>
    177c:	0b390b3b 	bleq	e44470 <__bss_end__+0xe398d8>
    1780:	17021349 	strne	r1, [r2, -r9, asr #6]
    1784:	001742b7 			; <UNDEFINED> instruction: 0x001742b7
    1788:	00340c00 	eorseq	r0, r4, r0, lsl #24
    178c:	0b3a0803 	bleq	e837a0 <__bss_end__+0xe78c08>
    1790:	0b390b3b 	bleq	e44484 <__bss_end__+0xe398ec>
    1794:	17021349 	strne	r1, [r2, -r9, asr #6]
    1798:	001742b7 			; <UNDEFINED> instruction: 0x001742b7
    179c:	11010000 	mrsne	r0, (UNDEF: 1)
    17a0:	130e2501 	movwne	r2, #58625	; 0xe501
    17a4:	1b0e030b 	blne	3823d8 <__bss_end__+0x377840>
    17a8:	1201110e 	andne	r1, r1, #-2147483645	; 0x80000003
    17ac:	00171006 	andseq	r1, r7, r6
    17b0:	00240200 	eoreq	r0, r4, r0, lsl #4
    17b4:	0b3e0b0b 	bleq	f843e8 <__bss_end__+0xf79850>
    17b8:	00000803 	andeq	r0, r0, r3, lsl #16
    17bc:	03001603 	movweq	r1, #1539	; 0x603
    17c0:	3b0b3a0e 	blcc	2d0000 <__bss_end__+0x2c5468>
    17c4:	490b390b 	stmdbmi	fp, {r0, r1, r3, r8, fp, ip, sp}
    17c8:	04000013 	streq	r0, [r0], #-19	; 0xffffffed
    17cc:	0b0b0024 	bleq	2c1864 <__bss_end__+0x2b6ccc>
    17d0:	0e030b3e 	vmoveq.16	d3[0], r0
    17d4:	26050000 	strcs	r0, [r5], -r0
    17d8:	00134900 	andseq	r4, r3, r0, lsl #18
    17dc:	01150600 	tsteq	r5, r0, lsl #12
    17e0:	13491927 	movtne	r1, #39207	; 0x9927
    17e4:	00001301 	andeq	r1, r0, r1, lsl #6
    17e8:	49000507 	stmdbmi	r0, {r0, r1, r2, r8, sl}
    17ec:	08000013 	stmdaeq	r0, {r0, r1, r4}
    17f0:	0e030034 	mcreq	0, 0, r0, cr3, cr4, {1}
    17f4:	0b3b0b3a 	bleq	ec44e4 <__bss_end__+0xeb994c>
    17f8:	13490b39 	movtne	r0, #39737	; 0x9b39
    17fc:	193c193f 	ldmdbne	ip!, {r0, r1, r2, r3, r4, r5, r8, fp, ip}
    1800:	0f090000 	svceq	0x00090000
    1804:	490b0b00 	stmdbmi	fp, {r8, r9, fp}
    1808:	0a000013 	beq	185c <__code_start__-0x67a4>
    180c:	193f012e 	ldmdbne	pc!, {r1, r2, r3, r5, r8}	; <UNPREDICTABLE>
    1810:	0b3a0e03 	bleq	e85024 <__bss_end__+0xe7a48c>
    1814:	0b390b3b 	bleq	e44508 <__bss_end__+0xe39970>
    1818:	13491927 	movtne	r1, #39207	; 0x9927
    181c:	06120111 			; <UNDEFINED> instruction: 0x06120111
    1820:	42971840 	addsmi	r1, r7, #64, 16	; 0x400000
    1824:	00130119 	andseq	r0, r3, r9, lsl r1
    1828:	00050b00 	andeq	r0, r5, r0, lsl #22
    182c:	0b3a0803 	bleq	e83840 <__bss_end__+0xe78ca8>
    1830:	0b390b3b 	bleq	e44524 <__bss_end__+0xe3998c>
    1834:	17021349 	strne	r1, [r2, -r9, asr #6]
    1838:	001742b7 			; <UNDEFINED> instruction: 0x001742b7
    183c:	00340c00 	eorseq	r0, r4, r0, lsl #24
    1840:	0b3a0803 	bleq	e83854 <__bss_end__+0xe78cbc>
    1844:	0b390b3b 	bleq	e44538 <__bss_end__+0xe399a0>
    1848:	17021349 	strne	r1, [r2, -r9, asr #6]
    184c:	001742b7 			; <UNDEFINED> instruction: 0x001742b7
    1850:	11010000 	mrsne	r0, (UNDEF: 1)
    1854:	130e2501 	movwne	r2, #58625	; 0xe501
    1858:	1b0e030b 	blne	38248c <__bss_end__+0x3778f4>
    185c:	1201110e 	andne	r1, r1, #-2147483645	; 0x80000003
    1860:	00171006 	andseq	r1, r7, r6
    1864:	00240200 	eoreq	r0, r4, r0, lsl #4
    1868:	0b3e0b0b 	bleq	f8449c <__bss_end__+0xf79904>
    186c:	00000803 	andeq	r0, r0, r3, lsl #16
    1870:	0b002403 	bleq	a884 <buf.3948+0xf4>
    1874:	030b3e0b 	movweq	r3, #48651	; 0xbe0b
    1878:	0400000e 	streq	r0, [r0], #-14
    187c:	19270115 	stmdbne	r7!, {r0, r2, r4, r8}
    1880:	13011349 	movwne	r1, #4937	; 0x1349
    1884:	05050000 	streq	r0, [r5, #-0]
    1888:	00134900 	andseq	r4, r3, r0, lsl #18
    188c:	00340600 	eorseq	r0, r4, r0, lsl #12
    1890:	0b3a0e03 	bleq	e850a4 <__bss_end__+0xe7a50c>
    1894:	0b390b3b 	bleq	e44588 <__bss_end__+0xe399f0>
    1898:	193f1349 	ldmdbne	pc!, {r0, r3, r6, r8, r9, ip}	; <UNPREDICTABLE>
    189c:	0000193c 	andeq	r1, r0, ip, lsr r9
    18a0:	0b000f07 	bleq	54c4 <__code_start__-0x2b3c>
    18a4:	0013490b 	andseq	r4, r3, fp, lsl #18
    18a8:	00260800 	eoreq	r0, r6, r0, lsl #16
    18ac:	00001349 	andeq	r1, r0, r9, asr #6
    18b0:	3f002e09 	svccc	0x00002e09
    18b4:	3a0e0319 	bcc	382520 <__bss_end__+0x377988>
    18b8:	390b3b0b 	stmdbcc	fp, {r0, r1, r3, r8, r9, fp, ip, sp}
    18bc:	1119270b 	tstne	r9, fp, lsl #14
    18c0:	40061201 	andmi	r1, r6, r1, lsl #4
    18c4:	19429718 	stmdbne	r2, {r3, r4, r8, r9, sl, ip, pc}^
    18c8:	Address 0x00000000000018c8 is out of bounds.


Disassembly of section .debug_loc:

00000000 <.debug_loc>:
       0:	00000000 	andeq	r0, r0, r0
       4:	000004d8 	ldrdeq	r0, [r0], -r8
       8:	000004f0 	strdeq	r0, [r0], -r0	; <UNPREDICTABLE>
       c:	d4500001 	ldrble	r0, [r0], #-1
      10:	00000005 	andeq	r0, r0, r5
      14:	01000006 	tsteq	r0, r6
      18:	00005000 	andeq	r5, r0, r0
      1c:	00000000 	andeq	r0, r0, r0
      20:	00010000 	andeq	r0, r1, r0
      24:	04fc0000 	ldrbteq	r0, [ip], #0
      28:	05d40000 	ldrbeq	r0, [r4]
      2c:	00030000 	andeq	r0, r3, r0
      30:	089ff508 	ldmeq	pc, {r3, r8, sl, ip, sp, lr, pc}	; <UNPREDICTABLE>
      34:	54000006 	strpl	r0, [r0], #-6
      38:	03000006 	movweq	r0, #6
      3c:	9ff50800 	svcls	0x00f50800
	...
      4c:	0000056c 	andeq	r0, r0, ip, ror #10
      50:	000005d4 	ldrdeq	r0, [r0], -r4
      54:	28560001 	ldmdacs	r6, {r0}^
      58:	30000006 	andcc	r0, r0, r6
      5c:	01000006 	tsteq	r0, r6
      60:	00005600 	andeq	r5, r0, r0, lsl #12
	...
      6c:	04900000 	ldreq	r0, [r0], #0
      70:	049f0000 	ldreq	r0, [pc], #0	; 78 <__code_start__-0x7f88>
      74:	00010000 	andeq	r0, r1, r0
      78:	00049f50 	andeq	r9, r4, r0, asr pc
      7c:	0004ac00 	andeq	sl, r4, r0, lsl #24
      80:	f3000400 	vshl.u8	d0, d0, d0
      84:	009f5001 	addseq	r5, pc, r1
	...
      90:	30000000 	andcc	r0, r0, r0
      94:	4c000004 	stcmi	0, cr0, [r0], {4}
      98:	01000004 	tsteq	r0, r4
      9c:	044c5100 	strbeq	r5, [ip], #-256	; 0xffffff00
      a0:	04900000 	ldreq	r0, [r0], #0
      a4:	00040000 	andeq	r0, r4, r0
      a8:	9f5101f3 	svcls	0x005101f3
	...
      b4:	04480000 	strbeq	r0, [r8], #-0
      b8:	04880000 	streq	r0, [r8], #0
      bc:	00010000 	andeq	r0, r1, r0
      c0:	00000057 	andeq	r0, r0, r7, asr r0
	...
      cc:	58000000 	stmdapl	r0, {}	; <UNPREDICTABLE>
      d0:	60000004 	andvs	r0, r0, r4
      d4:	01000004 	tsteq	r0, r4
      d8:	04605000 	strbteq	r5, [r0], #-0
      dc:	04880000 	streq	r0, [r8], #0
      e0:	00010000 	andeq	r0, r1, r0
      e4:	00048856 	andeq	r8, r4, r6, asr r8
      e8:	00049000 	andeq	r9, r4, r0
      ec:	70000200 	andvc	r0, r0, r0, lsl #4
	...
      fc:	68000000 	stmdavs	r0, {}	; <UNPREDICTABLE>
     100:	70000004 	andvc	r0, r0, r4
     104:	01000004 	tsteq	r0, r4
     108:	04705000 	ldrbteq	r5, [r0], #-0
     10c:	04880000 	streq	r0, [r8], #0
     110:	00010000 	andeq	r0, r1, r0
     114:	00048855 	andeq	r8, r4, r5, asr r8
     118:	00049000 	andeq	r9, r4, r0
     11c:	70000200 	andvc	r0, r0, r0, lsl #4
     120:	00000004 	andeq	r0, r0, r4
	...
     12c:	74000000 	strvc	r0, [r0], #-0
     130:	84000004 	strhi	r0, [r0], #-4
     134:	01000004 	tsteq	r0, r4
     138:	04845000 	streq	r5, [r4], #0
     13c:	04880000 	streq	r0, [r8], #0
     140:	00020000 	andeq	r0, r2, r0
     144:	04880874 	streq	r0, [r8], #2164	; 0x874
     148:	04900000 	ldreq	r0, [r0], #0
     14c:	00020000 	andeq	r0, r2, r0
     150:	00000870 	andeq	r0, r0, r0, ror r8
     154:	00000000 	andeq	r0, r0, r0
     158:	00010000 	andeq	r0, r1, r0
     15c:	00000474 	andeq	r0, r0, r4, ror r4
     160:	00000480 	andeq	r0, r0, r0, lsl #9
     164:	00500001 	subseq	r0, r0, r1
     168:	00000000 	andeq	r0, r0, r0
     16c:	01000000 	mrseq	r0, (UNDEF: 0)
     170:	00047400 	andeq	r7, r4, r0, lsl #8
     174:	00048000 	andeq	r8, r4, r0
     178:	55000100 	strpl	r0, [r0, #-256]	; 0xffffff00
	...
     184:	04740001 	ldrbteq	r0, [r4], #-1
     188:	04800000 	streq	r0, [r0], #0
     18c:	00010000 	andeq	r0, r1, r0
     190:	00000056 	andeq	r0, r0, r6, asr r0
     194:	00000000 	andeq	r0, r0, r0
     198:	01010000 	mrseq	r0, (UNDEF: 1)
     19c:	7c000000 	stcvc	0, cr0, [r0], {-0}
     1a0:	8c000003 	stchi	0, cr0, [r0], {3}
     1a4:	01000003 	tsteq	r0, r3
     1a8:	038c5100 	orreq	r5, ip, #0
     1ac:	03ac0000 			; <UNDEFINED> instruction: 0x03ac0000
     1b0:	00010000 	andeq	r0, r1, r0
     1b4:	0003ac54 	andeq	sl, r3, r4, asr ip
     1b8:	00043000 	andeq	r3, r4, r0
     1bc:	f3000400 	vshl.u8	d0, d0, d0
     1c0:	009f5101 	addseq	r5, pc, r1, lsl #2
     1c4:	00000000 	andeq	r0, r0, r0
     1c8:	01000000 	mrseq	r0, (UNDEF: 0)
     1cc:	00038801 	andeq	r8, r3, r1, lsl #16
     1d0:	00038c00 	andeq	r8, r3, r0, lsl #24
     1d4:	71000200 	mrsvc	r0, R8_usr
     1d8:	00000008 	andeq	r0, r0, r8
     1dc:	00000000 	andeq	r0, r0, r0
     1e0:	8c000000 	stchi	0, cr0, [r0], {-0}
     1e4:	30000003 	andcc	r0, r0, r3
     1e8:	01000004 	tsteq	r0, r4
     1ec:	00005600 	andeq	r5, r0, r0, lsl #12
     1f0:	00000000 	andeq	r0, r0, r0
     1f4:	00010000 	andeq	r0, r1, r0
     1f8:	00000000 	andeq	r0, r0, r0
     1fc:	0000039c 	muleq	r0, ip, r3
     200:	000003c8 	andeq	r0, r0, r8, asr #7
     204:	9f300002 	svcls	0x00300002
     208:	000003c8 	andeq	r0, r0, r8, asr #7
     20c:	000003d0 	ldrdeq	r0, [r0], -r0	; <UNPREDICTABLE>
     210:	d0500001 	subsle	r0, r0, r1
     214:	30000003 	andcc	r0, r0, r3
     218:	01000004 	tsteq	r0, r4
     21c:	00005700 	andeq	r5, r0, r0, lsl #14
     220:	00000000 	andeq	r0, r0, r0
     224:	00010000 	andeq	r0, r1, r0
     228:	00000000 	andeq	r0, r0, r0
     22c:	0000039c 	muleq	r0, ip, r3
     230:	000003f4 	strdeq	r0, [r0], -r4
     234:	9f300002 	svcls	0x00300002
     238:	000003f4 	strdeq	r0, [r0], -r4
     23c:	000003fc 	strdeq	r0, [r0], -ip
     240:	fc500001 	mrrc2	0, 0, r0, r0, cr1	; <UNPREDICTABLE>
     244:	30000003 	andcc	r0, r0, r3
     248:	01000004 	tsteq	r0, r4
     24c:	00005400 	andeq	r5, r0, r0, lsl #8
     250:	00000000 	andeq	r0, r0, r0
     254:	00010000 	andeq	r0, r1, r0
     258:	00000000 	andeq	r0, r0, r0
     25c:	0000039c 	muleq	r0, ip, r3
     260:	0000041c 	andeq	r0, r0, ip, lsl r4
     264:	9f300002 	svcls	0x00300002
     268:	0000041c 	andeq	r0, r0, ip, lsl r4
     26c:	0000042c 	andeq	r0, r0, ip, lsr #8
     270:	2c500001 	mrrccs	0, 0, r0, r0, cr1	; <UNPREDICTABLE>
     274:	30000004 	andcc	r0, r0, r4
     278:	02000004 	andeq	r0, r0, #4, 0
     27c:	00087000 	andeq	r7, r8, r0
     280:	00000000 	andeq	r0, r0, r0
     284:	01000000 	mrseq	r0, (UNDEF: 0)
     288:	00041c00 	andeq	r1, r4, r0, lsl #24
     28c:	00042800 	andeq	r2, r4, r0, lsl #16
     290:	50000100 	andpl	r0, r0, r0, lsl #2
	...
     29c:	041c0001 	ldreq	r0, [ip], #-1
     2a0:	04280000 	strteq	r0, [r8], #-0
     2a4:	00010000 	andeq	r0, r1, r0
     2a8:	00000054 	andeq	r0, r0, r4, asr r0
     2ac:	00000000 	andeq	r0, r0, r0
     2b0:	1c000100 	stfnes	f0, [r0], {-0}
     2b4:	28000004 	stmdacs	r0, {r2}
     2b8:	01000004 	tsteq	r0, r4
     2bc:	00005700 	andeq	r5, r0, r0, lsl #14
	...
     2d4:	01580000 	cmpeq	r8, r0
     2d8:	016c0000 	cmneq	ip, r0
     2dc:	00010000 	andeq	r0, r1, r0
     2e0:	00016c50 	andeq	r6, r1, r0, asr ip
     2e4:	00018400 	andeq	r8, r1, r0, lsl #8
     2e8:	54000100 	strpl	r0, [r0], #-256	; 0xffffff00
     2ec:	00000184 	andeq	r0, r0, r4, lsl #3
     2f0:	00000188 	andeq	r0, r0, r8, lsl #3
     2f4:	01f30004 	mvnseq	r0, r4
     2f8:	01889f50 	orreq	r9, r8, r0, asr pc
     2fc:	01a70000 			; <UNDEFINED> instruction: 0x01a70000
     300:	00010000 	andeq	r0, r1, r0
     304:	0001a751 	andeq	sl, r1, r1, asr r7
     308:	0001b000 	andeq	fp, r1, r0
     30c:	f3001200 	vhsub.u8	d1, d0, d0
     310:	24355001 	ldrtcs	r5, [r5], #-1
     314:	1c5001f3 	ldfnee	f0, [r0], {243}	; 0xf3
     318:	01f32432 	mvnseq	r2, r2, lsr r4
     31c:	24332250 	ldrtcs	r2, [r3], #-592	; 0xfffffdb0
     320:	0001b09f 	muleq	r1, pc, r0	; <UNPREDICTABLE>
     324:	0001d000 	andeq	sp, r1, r0
     328:	51000100 	mrspl	r0, (UNDEF: 16)
     32c:	000001d0 	ldrdeq	r0, [r0], -r0	; <UNPREDICTABLE>
     330:	000001d7 	ldrdeq	r0, [r0], -r7
     334:	007d0002 	rsbseq	r0, sp, r2
     338:	000001d7 	ldrdeq	r0, [r0], -r7
     33c:	000001ec 	andeq	r0, r0, ip, ror #3
     340:	01f30012 	mvnseq	r0, r2, lsl r0
     344:	f3243550 	vqrshl.u32	<illegal reg q1.5>, q0, q2
     348:	321c5001 	andscc	r5, ip, #1, 0
     34c:	5001f324 	andpl	pc, r1, r4, lsr #6
     350:	9f243322 	svcls	0x00243322
	...
     360:	00000158 	andeq	r0, r0, r8, asr r1
     364:	0000016f 	andeq	r0, r0, pc, ror #2
     368:	6f510001 	svcvs	0x00510001
     36c:	ec000001 	stc	0, cr0, [r0], {1}
     370:	04000001 	streq	r0, [r0], #-1
     374:	5101f300 	mrspl	pc, SP_irq	; <UNPREDICTABLE>
     378:	0000009f 	muleq	r0, pc, r0	; <UNPREDICTABLE>
	...
     384:	00015800 	andeq	r5, r1, r0, lsl #16
     388:	00016f00 	andeq	r6, r1, r0, lsl #30
     38c:	52000100 	andpl	r0, r0, #0
     390:	0000016f 	andeq	r0, r0, pc, ror #2
     394:	000001ec 	andeq	r0, r0, ip, ror #3
     398:	01f30004 	mvnseq	r0, r4
     39c:	00009f52 	andeq	r9, r0, r2, asr pc
	...
     3a8:	01580000 	cmpeq	r8, r0
     3ac:	016f0000 	cmneq	pc, r0
     3b0:	00010000 	andeq	r0, r1, r0
     3b4:	00016f53 	andeq	r6, r1, r3, asr pc
     3b8:	0001ec00 	andeq	lr, r1, r0, lsl #24
     3bc:	55000100 	strpl	r0, [r0, #-256]	; 0xffffff00
	...
     3d0:	0000017c 	andeq	r0, r0, ip, ror r1
     3d4:	00000180 	andeq	r0, r0, r0, lsl #3
     3d8:	80500001 	subshi	r0, r0, r1
     3dc:	a7000001 	strge	r0, [r0, -r1]
     3e0:	01000001 	tsteq	r0, r1
     3e4:	01b05200 	lslseq	r5, r0, #4
     3e8:	01cc0000 	biceq	r0, ip, r0
     3ec:	00010000 	andeq	r0, r1, r0
     3f0:	0001cc52 	andeq	ip, r1, r2, asr ip
     3f4:	0001d700 	andeq	sp, r1, r0, lsl #14
     3f8:	91000200 	mrsls	r0, R8_usr
     3fc:	0000005c 	andeq	r0, r0, ip, asr r0
     400:	00000000 	andeq	r0, r0, r0
     404:	00010200 	andeq	r0, r1, r0, lsl #4
     408:	00018800 	andeq	r8, r1, r0, lsl #16
     40c:	00019000 	andeq	r9, r1, r0
     410:	35000200 	strcc	r0, [r0, #-512]	; 0xfffffe00
     414:	0001b09f 	muleq	r1, pc, r0	; <UNPREDICTABLE>
     418:	0001b800 	andeq	fp, r1, r0, lsl #16
     41c:	35000200 	strcc	r0, [r0, #-512]	; 0xfffffe00
     420:	0000009f 	muleq	r0, pc, r0	; <UNPREDICTABLE>
     424:	00000000 	andeq	r0, r0, r0
     428:	00010200 	andeq	r0, r1, r0, lsl #4
     42c:	00018800 	andeq	r8, r1, r0, lsl #16
     430:	00019000 	andeq	r9, r1, r0
     434:	52000100 	andpl	r0, r0, #0
     438:	000001b0 			; <UNDEFINED> instruction: 0x000001b0
     43c:	000001b8 			; <UNDEFINED> instruction: 0x000001b8
     440:	00520001 	subseq	r0, r2, r1
     444:	00000000 	andeq	r0, r0, r0
     448:	02000000 	andeq	r0, r0, #0, 0
     44c:	88000001 	stmdahi	r0, {r0}
     450:	90000001 	andls	r0, r0, r1
     454:	01000001 	tsteq	r0, r1
     458:	01b05100 	lslseq	r5, r0, #2
     45c:	01b80000 			; <UNDEFINED> instruction: 0x01b80000
     460:	00010000 	andeq	r0, r1, r0
     464:	00000051 	andeq	r0, r0, r1, asr r0
     468:	00000000 	andeq	r0, r0, r0
     46c:	00000400 	andeq	r0, r0, r0, lsl #8
     470:	88000001 	stmdahi	r0, {r0}
     474:	8c000001 	stchi	0, cr0, [r0], {1}
     478:	08000001 	stmdaeq	r0, {r0}
     47c:	33007400 	movwcc	r7, #1024	; 0x400
     480:	1c007224 	sfmne	f7, 4, [r0], {36}	; 0x24
     484:	00018c9f 	muleq	r1, pc, ip	; <UNPREDICTABLE>
     488:	00019000 	andeq	r9, r1, r0
     48c:	54000100 	strpl	r0, [r0], #-256	; 0xffffff00
     490:	000001b0 			; <UNDEFINED> instruction: 0x000001b0
     494:	000001b8 			; <UNDEFINED> instruction: 0x000001b8
     498:	00540001 	subseq	r0, r4, r1
	...
     4a4:	2c000000 	stccs	0, cr0, [r0], {-0}
     4a8:	38000001 	stmdacc	r0, {r0}
     4ac:	01000001 	tsteq	r0, r1
     4b0:	01385000 	teqeq	r8, r0
     4b4:	01580000 	cmpeq	r8, r0
     4b8:	00010000 	andeq	r0, r1, r0
     4bc:	00000054 	andeq	r0, r0, r4, asr r0
	...
     4c8:	00012c00 	andeq	r2, r1, r0, lsl #24
     4cc:	00013b00 	andeq	r3, r1, r0, lsl #22
     4d0:	51000100 	mrspl	r0, (UNDEF: 16)
     4d4:	0000013b 	andeq	r0, r0, fp, lsr r1
     4d8:	00000158 	andeq	r0, r0, r8, asr r1
     4dc:	01f30004 	mvnseq	r0, r4
     4e0:	00009f51 	andeq	r9, r0, r1, asr pc
	...
     4f4:	000c0000 	andeq	r0, ip, r0
     4f8:	00240000 	eoreq	r0, r4, r0
     4fc:	00010000 	andeq	r0, r1, r0
     500:	00002450 	andeq	r2, r0, r0, asr r4
     504:	00004000 	andeq	r4, r0, r0
     508:	f3000400 	vshl.u8	d0, d0, d0
     50c:	409f5001 	addsmi	r5, pc, r1
     510:	48000000 	stmdami	r0, {}	; <UNPREDICTABLE>
     514:	01000000 	mrseq	r0, (UNDEF: 0)
     518:	00485000 	subeq	r5, r8, r0
     51c:	00640000 	rsbeq	r0, r4, r0
     520:	00040000 	andeq	r0, r4, r0
     524:	9f5001f3 	svcls	0x005001f3
     528:	00000064 	andeq	r0, r0, r4, rrx
     52c:	00000080 	andeq	r0, r0, r0, lsl #1
     530:	80500001 	subshi	r0, r0, r1
     534:	98000000 	stmdals	r0, {}	; <UNPREDICTABLE>
     538:	04000000 	streq	r0, [r0], #-0
     53c:	5001f300 	andpl	pc, r1, r0, lsl #6
     540:	0000009f 	muleq	r0, pc, r0	; <UNPREDICTABLE>
	...
     54c:	0c000000 	stceq	0, cr0, [r0], {-0}
     550:	7c000000 	stcvc	0, cr0, [r0], {-0}
     554:	01000000 	mrseq	r0, (UNDEF: 0)
     558:	007c5100 	rsbseq	r5, ip, r0, lsl #2
     55c:	00830000 	addeq	r0, r3, r0
     560:	00020000 	andeq	r0, r2, r0
     564:	0083007d 	addeq	r0, r3, sp, ror r0
     568:	00980000 	addseq	r0, r8, r0
     56c:	00040000 	andeq	r0, r4, r0
     570:	9f5101f3 	svcls	0x005101f3
	...
     594:	00980000 	addseq	r0, r8, r0
     598:	00b80000 	adcseq	r0, r8, r0
     59c:	00010000 	andeq	r0, r1, r0
     5a0:	0000b850 	andeq	fp, r0, r0, asr r8
     5a4:	0000bc00 	andeq	fp, r0, r0, lsl #24
     5a8:	f3000400 	vshl.u8	d0, d0, d0
     5ac:	bc9f5001 	ldclt	0, cr5, [pc], {1}
     5b0:	d0000000 	andle	r0, r0, r0
     5b4:	01000000 	mrseq	r0, (UNDEF: 0)
     5b8:	00d05000 	sbcseq	r5, r0, r0
     5bc:	00d40000 	sbcseq	r0, r4, r0
     5c0:	00040000 	andeq	r0, r4, r0
     5c4:	9f5001f3 	svcls	0x005001f3
     5c8:	000000d4 	ldrdeq	r0, [r0], -r4
     5cc:	000000f0 	strdeq	r0, [r0], -r0	; <UNPREDICTABLE>
     5d0:	f0500001 			; <UNDEFINED> instruction: 0xf0500001
     5d4:	f3000000 	vhadd.u8	d0, d0, d0
     5d8:	02000000 	andeq	r0, r0, #0, 0
     5dc:	f3007d00 	vpadd.f32	d7, d0, d0
     5e0:	f8000000 			; <UNDEFINED> instruction: 0xf8000000
     5e4:	04000000 	streq	r0, [r0], #-0
     5e8:	5001f300 	andpl	pc, r1, r0, lsl #6
     5ec:	0000f89f 	muleq	r0, pc, r8	; <UNPREDICTABLE>
     5f0:	0000fc00 	andeq	pc, r0, r0, lsl #24
     5f4:	50000100 	andpl	r0, r0, r0, lsl #2
     5f8:	000000fc 	strdeq	r0, [r0], -ip
     5fc:	00000100 	andeq	r0, r0, r0, lsl #2
     600:	01f30004 	mvnseq	r0, r4
     604:	01009f50 	tsteq	r0, r0, asr pc
     608:	01040000 	mrseq	r0, (UNDEF: 4)
     60c:	00010000 	andeq	r0, r1, r0
     610:	00010450 	andeq	r0, r1, r0, asr r4
     614:	00010800 	andeq	r0, r1, r0, lsl #16
     618:	f3000400 	vshl.u8	d0, d0, d0
     61c:	089f5001 	ldmeq	pc, {r0, ip, lr}	; <UNPREDICTABLE>
     620:	0c000001 	stceq	0, cr0, [r0], {1}
     624:	01000001 	tsteq	r0, r1
     628:	010c5000 	mrseq	r5, (UNDEF: 12)
     62c:	012c0000 			; <UNDEFINED> instruction: 0x012c0000
     630:	00040000 	andeq	r0, r4, r0
     634:	9f5001f3 	svcls	0x005001f3
	...
     644:	00000374 	andeq	r0, r0, r4, ror r3
     648:	00000378 	andeq	r0, r0, r8, ror r3
     64c:	78500001 	ldmdavc	r0, {r0}^
     650:	7c000003 	stcvc	0, cr0, [r0], {3}
     654:	04000003 	streq	r0, [r0], #-3
     658:	5001f300 	andpl	pc, r1, r0, lsl #6
     65c:	0000009f 	muleq	r0, pc, r0	; <UNPREDICTABLE>
	...
     66c:	bc000000 	stclt	0, cr0, [r0], {-0}
     670:	10000002 	andne	r0, r0, r2
     674:	01000003 	tsteq	r0, r3
     678:	03105100 	tsteq	r0, #0
     67c:	031c0000 	tsteq	ip, #0, 0
     680:	00040000 	andeq	r0, r4, r0
     684:	9f5101f3 	svcls	0x005101f3
     688:	0000031c 	andeq	r0, r0, ip, lsl r3
     68c:	00000328 	andeq	r0, r0, r8, lsr #6
     690:	28510001 	ldmdacs	r1, {r0}^
     694:	60000003 	andvs	r0, r0, r3
     698:	04000003 	streq	r0, [r0], #-3
     69c:	5101f300 	mrspl	pc, SP_irq	; <UNPREDICTABLE>
     6a0:	0003609f 	muleq	r3, pc, r0	; <UNPREDICTABLE>
     6a4:	00037400 	andeq	r7, r3, r0, lsl #8
     6a8:	51000100 	mrspl	r0, (UNDEF: 16)
	...
     6bc:	02bc0000 	adcseq	r0, ip, #0, 0
     6c0:	030c0000 	movweq	r0, #49152	; 0xc000
     6c4:	00010000 	andeq	r0, r1, r0
     6c8:	00030c52 	andeq	r0, r3, r2, asr ip
     6cc:	00031c00 	andeq	r1, r3, r0, lsl #24
     6d0:	54000100 	strpl	r0, [r0], #-256	; 0xffffff00
     6d4:	0000031c 	andeq	r0, r0, ip, lsl r3
     6d8:	00000324 	andeq	r0, r0, r4, lsr #6
     6dc:	24520001 	ldrbcs	r0, [r2], #-1
     6e0:	60000003 	andvs	r0, r0, r3
     6e4:	01000003 	tsteq	r0, r3
     6e8:	03605400 	cmneq	r0, #0, 8
     6ec:	03740000 	cmneq	r4, #0, 0
     6f0:	00010000 	andeq	r0, r1, r0
     6f4:	00000052 	andeq	r0, r0, r2, asr r0
     6f8:	00000000 	andeq	r0, r0, r0
     6fc:	01010100 	mrseq	r0, (UNDEF: 17)
     700:	01010000 	mrseq	r0, (UNDEF: 1)
     704:	00000000 	andeq	r0, r0, r0
     708:	d0000000 	andle	r0, r0, r0
     70c:	ec000002 	stc	0, cr0, [r0], {2}
     710:	02000002 	andeq	r0, r0, #2, 0
     714:	ec9f3000 	ldc	0, cr3, [pc], {0}
     718:	f4000002 	vst4.8	{d0-d3}, [r0], r2
     71c:	04000002 	streq	r0, [r0], #-2
     720:	03e80a00 	mvneq	r0, #0, 20
     724:	0002f49f 	muleq	r2, pc, r4	; <UNPREDICTABLE>
     728:	0002f400 	andeq	pc, r2, r0, lsl #8
     72c:	30000200 	andcc	r0, r0, r0, lsl #4
     730:	0002f49f 	muleq	r2, pc, r4	; <UNPREDICTABLE>
     734:	0002fc00 	andeq	pc, r2, r0, lsl #24
     738:	0a000400 	beq	1740 <__code_start__-0x68c0>
     73c:	fc9f07d0 	ldc2	7, cr0, [pc], {208}	; 0xd0
     740:	20000002 	andcs	r0, r0, r2
     744:	02000003 	andeq	r0, r0, #3, 0
     748:	209f3000 	addscs	r3, pc, r0
     74c:	60000003 	andvs	r0, r0, r3
     750:	01000003 	tsteq	r0, r3
     754:	03605700 	cmneq	r0, #0, 14
     758:	03740000 	cmneq	r4, #0, 0
     75c:	00020000 	andeq	r0, r2, r0
     760:	00009f30 	andeq	r9, r0, r0, lsr pc
	...
     770:	00040000 	andeq	r0, r4, r0
     774:	00010000 	andeq	r0, r1, r0
     778:	00000450 	andeq	r0, r0, r0, asr r4
     77c:	00000c00 	andeq	r0, r0, r0, lsl #24
     780:	f3000400 	vshl.u8	d0, d0, d0
     784:	009f5001 	addseq	r5, pc, r1
	...
     790:	80000000 	andhi	r0, r0, r0
     794:	a3000002 	movwge	r0, #2
     798:	01000002 	tsteq	r0, r2
     79c:	02a35000 	adceq	r5, r3, #0, 0
     7a0:	02bc0000 	adcseq	r0, ip, #0, 0
     7a4:	00040000 	andeq	r0, r4, r0
     7a8:	9f5001f3 	svcls	0x005001f3
	...
     7b8:	00000280 	andeq	r0, r0, r0, lsl #5
     7bc:	000002a0 	andeq	r0, r0, r0, lsr #5
     7c0:	a0510001 	subsge	r0, r1, r1
     7c4:	a3000002 	movwge	r0, #2
     7c8:	02000002 	andeq	r0, r0, #2, 0
     7cc:	00007100 	andeq	r7, r0, r0, lsl #2
	...
     7d8:	80000000 	andhi	r0, r0, r0
     7dc:	9c000002 	stcls	0, cr0, [r0], {2}
     7e0:	01000002 	tsteq	r0, r2
     7e4:	029c5200 	addseq	r5, ip, #0, 4
     7e8:	02bc0000 	adcseq	r0, ip, #0, 0
     7ec:	00010000 	andeq	r0, r1, r0
     7f0:	00000055 	andeq	r0, r0, r5, asr r0
	...
     7fc:	00028000 	andeq	r8, r2, r0
     800:	0002a300 	andeq	sl, r2, r0, lsl #6
     804:	53000100 	movwpl	r0, #256	; 0x100
     808:	000002a3 	andeq	r0, r0, r3, lsr #5
     80c:	000002bc 			; <UNDEFINED> instruction: 0x000002bc
     810:	00560001 	subseq	r0, r6, r1
	...
     81c:	5c000000 	stcpl	0, cr0, [r0], {-0}
     820:	77000002 	strvc	r0, [r0, -r2]
     824:	01000002 	tsteq	r0, r2
     828:	02775000 	rsbseq	r5, r7, #0, 0
     82c:	02800000 	addeq	r0, r0, #0, 0
     830:	00040000 	andeq	r0, r4, r0
     834:	9f5001f3 	svcls	0x005001f3
	...
     844:	025c0000 	subseq	r0, ip, #0, 0
     848:	02740000 	rsbseq	r0, r4, #0, 0
     84c:	00010000 	andeq	r0, r1, r0
     850:	00027451 	andeq	r7, r2, r1, asr r4
     854:	00027700 	andeq	r7, r2, r0, lsl #14
     858:	71000200 	mrsvc	r0, R8_usr
     85c:	00027700 	andeq	r7, r2, r0, lsl #14
     860:	00028000 	andeq	r8, r2, r0
     864:	f3000400 	vshl.u8	d0, d0, d0
     868:	009f5101 	addseq	r5, pc, r1, lsl #2
	...
     878:	00025c00 	andeq	r5, r2, r0, lsl #24
     87c:	00027000 	andeq	r7, r2, r0
     880:	52000100 	andpl	r0, r0, #0
     884:	00000270 	andeq	r0, r0, r0, ror r2
     888:	00000277 	andeq	r0, r0, r7, ror r2
     88c:	6d910002 	ldcvs	0, cr0, [r1, #8]
     890:	00000277 	andeq	r0, r0, r7, ror r2
     894:	00000280 	andeq	r0, r0, r0, lsl #5
     898:	01f30004 	mvnseq	r0, r4
     89c:	00009f52 	andeq	r9, r0, r2, asr pc
	...
     8a8:	02240000 	eoreq	r0, r4, #0, 0
     8ac:	023f0000 	eorseq	r0, pc, #0, 0
     8b0:	00010000 	andeq	r0, r1, r0
     8b4:	00023f50 	andeq	r3, r2, r0, asr pc
     8b8:	00025c00 	andeq	r5, r2, r0, lsl #24
     8bc:	f3000400 	vshl.u8	d0, d0, d0
     8c0:	009f5001 	addseq	r5, pc, r1
	...
     8cc:	24000000 	strcs	r0, [r0], #-0
     8d0:	3c000002 	stccc	0, cr0, [r0], {2}
     8d4:	01000002 	tsteq	r0, r2
     8d8:	023c5100 	eorseq	r5, ip, #0
     8dc:	023f0000 	eorseq	r0, pc, #0, 0
     8e0:	00020000 	andeq	r0, r2, r0
     8e4:	00000071 	andeq	r0, r0, r1, ror r0
	...
     8f4:	000001ec 	andeq	r0, r0, ip, ror #3
     8f8:	00000214 	andeq	r0, r0, r4, lsl r2
     8fc:	14500001 	ldrbne	r0, [r0], #-1
     900:	17000002 	strne	r0, [r0, -r2]
     904:	01000002 	tsteq	r0, r2
     908:	02175100 	andseq	r5, r7, #0
     90c:	02240000 	eoreq	r0, r4, #0, 0
     910:	00040000 	andeq	r0, r4, r0
     914:	9f5001f3 	svcls	0x005001f3
	...
     920:	003b3b32 	eorseq	r3, fp, r2, lsr fp
     924:	00000020 	andeq	r0, r0, r0, lsr #32
     928:	00000020 	andeq	r0, r0, r0, lsr #32
     92c:	9f400002 	svcls	0x00400002
     930:	00000020 	andeq	r0, r0, r0, lsr #32
     934:	00000024 	andeq	r0, r0, r4, lsr #32
     938:	30080003 	andcc	r0, r8, r3
     93c:	0000009f 	muleq	r0, pc, r0	; <UNPREDICTABLE>
	...
     948:	00064c00 	andeq	r4, r6, r0, lsl #24
     94c:	00065c00 	andeq	r5, r6, r0, lsl #24
     950:	50000100 	andpl	r0, r0, r0, lsl #2
     954:	0000065c 	andeq	r0, r0, ip, asr r6
     958:	00000804 	andeq	r0, r0, r4, lsl #16
     95c:	01f30004 	mvnseq	r0, r4
     960:	00009f50 	andeq	r9, r0, r0, asr pc
	...
     96c:	064c0000 	strbeq	r0, [ip], -r0
     970:	065c0000 	ldrbeq	r0, [ip], -r0
     974:	00010000 	andeq	r0, r1, r0
     978:	00065c51 	andeq	r5, r6, r1, asr ip
     97c:	00080400 	andeq	r0, r8, r0, lsl #8
     980:	f3000400 	vshl.u8	d0, d0, d0
     984:	009f5101 	addseq	r5, pc, r1, lsl #2
     988:	00000000 	andeq	r0, r0, r0
     98c:	02000000 	andeq	r0, r0, #0, 0
     990:	58000000 	stmdapl	r0, {}	; <UNPREDICTABLE>
     994:	5c000006 	stcpl	0, cr0, [r0], {6}
     998:	02000006 	andeq	r0, r0, #6, 0
     99c:	5c9f3000 	ldcpl	0, cr3, [pc], {0}
     9a0:	04000006 	streq	r0, [r0], #-6
     9a4:	01000008 	tsteq	r0, r8
     9a8:	00005400 	andeq	r5, r0, r0, lsl #8
	...
     9b8:	0000033c 	andeq	r0, r0, ip, lsr r3
     9bc:	00000353 	andeq	r0, r0, r3, asr r3
     9c0:	53500001 	cmppl	r0, #1, 0
     9c4:	ac000003 	stcge	0, cr0, [r0], {3}
     9c8:	01000004 	tsteq	r0, r4
     9cc:	04ac5600 	strteq	r5, [ip], #1536	; 0x600
     9d0:	04d80000 	ldrbeq	r0, [r8], #0
     9d4:	00040000 	andeq	r0, r4, r0
     9d8:	9f5001f3 	svcls	0x005001f3
	...
     9ec:	033c0000 	teqeq	ip, #0, 0
     9f0:	03530000 	cmpeq	r3, #0, 0
     9f4:	00010000 	andeq	r0, r1, r0
     9f8:	00035351 	andeq	r5, r3, r1, asr r3
     9fc:	0003e400 	andeq	lr, r3, r0, lsl #8
     a00:	55000100 	strpl	r0, [r0, #-256]	; 0xffffff00
     a04:	000003e4 	andeq	r0, r0, r4, ror #7
     a08:	0000044c 	andeq	r0, r0, ip, asr #8
     a0c:	01f30004 	mvnseq	r0, r4
     a10:	044c9f51 	strbeq	r9, [ip], #-3921	; 0xfffff0af
     a14:	048c0000 	streq	r0, [ip], #0
     a18:	00010000 	andeq	r0, r1, r0
     a1c:	00048c55 	andeq	r8, r4, r5, asr ip
     a20:	0004d800 	andeq	sp, r4, r0, lsl #16
     a24:	f3000400 	vshl.u8	d0, d0, d0
     a28:	009f5101 	addseq	r5, pc, r1, lsl #2
	...
     a38:	00033c00 	andeq	r3, r3, r0, lsl #24
     a3c:	00035300 	andeq	r5, r3, r0, lsl #6
     a40:	52000100 	andpl	r0, r0, #0
     a44:	00000353 	andeq	r0, r0, r3, asr r3
     a48:	000004ac 	andeq	r0, r0, ip, lsr #9
     a4c:	ac540001 	mrrcge	0, 0, r0, r4, cr1
     a50:	d8000004 	stmdale	r0, {r2}
     a54:	04000004 	streq	r0, [r0], #-4
     a58:	5201f300 	andpl	pc, r1, #0, 6
     a5c:	0000009f 	muleq	r0, pc, r0	; <UNPREDICTABLE>
     a60:	00000000 	andeq	r0, r0, r0
     a64:	f4000000 	vst4.8	{d0-d3}, [r0], r0
     a68:	f8000003 			; <UNDEFINED> instruction: 0xf8000003
     a6c:	01000003 	tsteq	r0, r3
     a70:	00005300 	andeq	r5, r0, r0, lsl #6
	...
     a7c:	05900000 	ldreq	r0, [r0]
     a80:	05a70000 	streq	r0, [r7, #0]!
     a84:	00010000 	andeq	r0, r1, r0
     a88:	0005a750 	andeq	sl, r5, r0, asr r7
     a8c:	00064c00 	andeq	r4, r6, r0, lsl #24
     a90:	f3000400 	vshl.u8	d0, d0, d0
     a94:	009f5001 	addseq	r5, pc, r1
	...
     aa0:	90000000 	andls	r0, r0, r0
     aa4:	a4000005 	strge	r0, [r0], #-5
     aa8:	01000005 	tsteq	r0, r5
     aac:	05a45100 	streq	r5, [r4, #256]!	; 0x100
     ab0:	064c0000 	strbeq	r0, [ip], -r0
     ab4:	00010000 	andeq	r0, r1, r0
     ab8:	00000055 	andeq	r0, r0, r5, asr r0
	...
     ac4:	00059000 	andeq	r9, r5, r0
     ac8:	0005a000 	andeq	sl, r5, r0
     acc:	52000100 	andpl	r0, r0, #0
     ad0:	000005a0 	andeq	r0, r0, r0, lsr #11
     ad4:	0000064c 	andeq	r0, r0, ip, asr #12
     ad8:	00540001 	subseq	r0, r4, r1
     adc:	00000000 	andeq	r0, r0, r0
     ae0:	02000000 	andeq	r0, r0, #0, 0
     ae4:	00000000 	andeq	r0, r0, r0
     ae8:	a8000000 	stmdage	r0, {}	; <UNPREDICTABLE>
     aec:	b0000005 	andlt	r0, r0, r5
     af0:	02000005 	andeq	r0, r0, #5, 0
     af4:	b09f3000 	addslt	r3, pc, r0
     af8:	b8000005 	stmdalt	r0, {r0, r2}
     afc:	01000005 	tsteq	r0, r5
     b00:	05c85200 	strbeq	r5, [r8, #512]	; 0x200
     b04:	06180000 	ldreq	r0, [r8], -r0
     b08:	00010000 	andeq	r0, r1, r0
     b0c:	00062852 	andeq	r2, r6, r2, asr r8
     b10:	00062b00 	andeq	r2, r6, r0, lsl #22
     b14:	52000100 	andpl	r0, r0, #0
	...
     b24:	000004d8 	ldrdeq	r0, [r0], -r8
     b28:	000004ef 	andeq	r0, r0, pc, ror #9
     b2c:	ef500001 	svc	0x00500001
     b30:	90000004 	andls	r0, r0, r4
     b34:	04000005 	streq	r0, [r0], #-5
     b38:	5001f300 	andpl	pc, r1, r0, lsl #6
     b3c:	0000009f 	muleq	r0, pc, r0	; <UNPREDICTABLE>
	...
     b48:	0004d800 	andeq	sp, r4, r0, lsl #16
     b4c:	0004ec00 	andeq	lr, r4, r0, lsl #24
     b50:	51000100 	mrspl	r0, (UNDEF: 16)
     b54:	000004ec 	andeq	r0, r0, ip, ror #9
     b58:	00000590 	muleq	r0, r0, r5
     b5c:	00550001 	subseq	r0, r5, r1
	...
     b68:	d8000000 	stmdale	r0, {}	; <UNPREDICTABLE>
     b6c:	e8000004 	stmda	r0, {r2}
     b70:	01000004 	tsteq	r0, r4
     b74:	04e85200 	strbteq	r5, [r8], #512	; 0x200
     b78:	05900000 	ldreq	r0, [r0]
     b7c:	00010000 	andeq	r0, r1, r0
     b80:	00000054 	andeq	r0, r0, r4, asr r0
     b84:	00000000 	andeq	r0, r0, r0
     b88:	00000200 	andeq	r0, r0, r0, lsl #4
     b8c:	00000000 	andeq	r0, r0, r0
     b90:	0004f000 	andeq	pc, r4, r0
     b94:	0004f800 	andeq	pc, r4, r0, lsl #16
     b98:	30000200 	andcc	r0, r0, r0, lsl #4
     b9c:	0004f89f 	muleq	r4, pc, r8	; <UNPREDICTABLE>
     ba0:	00050000 	andeq	r0, r5, r0
     ba4:	52000100 	andpl	r0, r0, #0
     ba8:	00000510 	andeq	r0, r0, r0, lsl r5
     bac:	00000560 	andeq	r0, r0, r0, ror #10
     bb0:	70520001 	subsvc	r0, r2, r1
     bb4:	73000005 	movwvc	r0, #5
     bb8:	01000005 	tsteq	r0, r5
     bbc:	00005200 	andeq	r5, r0, r0, lsl #4
	...
     bcc:	00000168 	andeq	r0, r0, r8, ror #2
     bd0:	0000017f 	andeq	r0, r0, pc, ror r1
     bd4:	7f500001 	svcvc	0x00500001
     bd8:	08000001 	stmdaeq	r0, {r0}
     bdc:	01000003 	tsteq	r0, r3
     be0:	03085600 	movweq	r5, #34304	; 0x8600
     be4:	033c0000 	teqeq	ip, #0, 0
     be8:	00040000 	andeq	r0, r4, r0
     bec:	9f5001f3 	svcls	0x005001f3
	...
     c00:	01680000 	cmneq	r8, r0
     c04:	017f0000 	cmneq	pc, r0
     c08:	00010000 	andeq	r0, r1, r0
     c0c:	00017f51 	andeq	r7, r1, r1, asr pc
     c10:	00022000 	andeq	r2, r2, r0
     c14:	55000100 	strpl	r0, [r0, #-256]	; 0xffffff00
     c18:	00000220 	andeq	r0, r0, r0, lsr #4
     c1c:	00000288 	andeq	r0, r0, r8, lsl #5
     c20:	01f30004 	mvnseq	r0, r4
     c24:	02889f51 	addeq	r9, r8, #324	; 0x144
     c28:	02e80000 	rsceq	r0, r8, #0, 0
     c2c:	00010000 	andeq	r0, r1, r0
     c30:	0002e855 	andeq	lr, r2, r5, asr r8
     c34:	00033c00 	andeq	r3, r3, r0, lsl #24
     c38:	f3000400 	vshl.u8	d0, d0, d0
     c3c:	009f5101 	addseq	r5, pc, r1, lsl #2
	...
     c4c:	00016800 	andeq	r6, r1, r0, lsl #16
     c50:	00017f00 	andeq	r7, r1, r0, lsl #30
     c54:	52000100 	andpl	r0, r0, #0
     c58:	0000017f 	andeq	r0, r0, pc, ror r1
     c5c:	00000308 	andeq	r0, r0, r8, lsl #6
     c60:	08540001 	ldmdaeq	r4, {r0}^
     c64:	3c000003 	stccc	0, cr0, [r0], {3}
     c68:	04000003 	streq	r0, [r0], #-3
     c6c:	5201f300 	andpl	pc, r1, #0, 6
     c70:	0000009f 	muleq	r0, pc, r0	; <UNPREDICTABLE>
     c74:	00000000 	andeq	r0, r0, r0
     c78:	30000000 	andcc	r0, r0, r0
     c7c:	34000002 	strcc	r0, [r0], #-2
     c80:	01000002 	tsteq	r0, r2
     c84:	00005300 	andeq	r5, r0, r0, lsl #6
	...
     c90:	01200000 			; <UNDEFINED> instruction: 0x01200000
     c94:	01270000 			; <UNDEFINED> instruction: 0x01270000
     c98:	00010000 	andeq	r0, r1, r0
     c9c:	00012750 	andeq	r2, r1, r0, asr r7
     ca0:	00013000 	andeq	r3, r1, r0
     ca4:	f3000400 	vshl.u8	d0, d0, d0
     ca8:	009f5001 	addseq	r5, pc, r1
	...
     cb4:	00001000 	andeq	r1, r0, r0
     cb8:	00001400 	andeq	r1, r0, r0, lsl #8
     cbc:	50000100 	andpl	r0, r0, r0, lsl #2
	...
     ccc:	00000158 	andeq	r0, r0, r8, asr r1
     cd0:	0000015f 	andeq	r0, r0, pc, asr r1
     cd4:	5f500001 	svcpl	0x00500001
     cd8:	68000001 	stmdavs	r0, {r0}
     cdc:	04000001 	streq	r0, [r0], #-1
     ce0:	5001f300 	andpl	pc, r1, r0, lsl #6
     ce4:	0000009f 	muleq	r0, pc, r0	; <UNPREDICTABLE>
	...
     cf0:	00000001 	andeq	r0, r0, r1
     cf4:	00000400 	andeq	r0, r0, r0, lsl #8
     cf8:	50000100 	andpl	r0, r0, r0, lsl #2
     cfc:	0000000c 	andeq	r0, r0, ip
     d00:	0000000c 	andeq	r0, r0, ip
     d04:	00500001 	subseq	r0, r0, r1
	...
     d14:	00017000 	andeq	r7, r1, r0
     d18:	00017c00 	andeq	r7, r1, r0, lsl #24
     d1c:	50000100 	andpl	r0, r0, r0, lsl #2
     d20:	0000017c 	andeq	r0, r0, ip, ror r1
     d24:	00000188 	andeq	r0, r0, r8, lsl #3
     d28:	88540001 	ldmdahi	r4, {r0}^
     d2c:	98000001 	stmdals	r0, {r0}
     d30:	04000001 	streq	r0, [r0], #-1
     d34:	5001f300 	andpl	pc, r1, r0, lsl #6
     d38:	0000009f 	muleq	r0, pc, r0	; <UNPREDICTABLE>
	...
     d48:	78000000 	stmdavc	r0, {}	; <UNPREDICTABLE>
     d4c:	7c000001 	stcvc	0, cr0, [r0], {1}
     d50:	0b000001 	bleq	d5c <__code_start__-0x72a4>
     d54:	35007000 	strcc	r7, [r0, #-0]
     d58:	80b42325 	adcshi	r2, r4, r5, lsr #6
     d5c:	9f028180 	svcls	0x00028180
     d60:	0000017c 	andeq	r0, r0, ip, ror r1
     d64:	00000180 	andeq	r0, r0, r0, lsl #3
     d68:	0074000b 	rsbseq	r0, r4, fp
     d6c:	b4232535 	strtlt	r2, [r3], #-1333	; 0xfffffacb
     d70:	02818080 	addeq	r8, r1, #128, 0	; 0x80
     d74:	0001809f 	muleq	r1, pc, r0	; <UNPREDICTABLE>
     d78:	00018300 	andeq	r8, r1, r0, lsl #6
     d7c:	50000100 	andpl	r0, r0, r0, lsl #2
     d80:	00000183 	andeq	r0, r0, r3, lsl #3
     d84:	00000188 	andeq	r0, r0, r8, lsl #3
     d88:	0074000b 	rsbseq	r0, r4, fp
     d8c:	b4232535 	strtlt	r2, [r3], #-1333	; 0xfffffacb
     d90:	02818080 	addeq	r8, r1, #128, 0	; 0x80
     d94:	0001889f 	muleq	r1, pc, r8	; <UNPREDICTABLE>
     d98:	00019800 	andeq	r9, r1, r0, lsl #16
     d9c:	f3000c00 			; <UNDEFINED> instruction: 0xf3000c00
     da0:	25355001 	ldrcs	r5, [r5, #-1]!
     da4:	8080b423 	addhi	fp, r0, r3, lsr #8
     da8:	009f0281 	addseq	r0, pc, r1, lsl #5
     dac:	00000000 	andeq	r0, r0, r0
     db0:	01000000 	mrseq	r0, (UNDEF: 0)
     db4:	00000000 	andeq	r0, r0, r0
     db8:	00017800 	andeq	r7, r1, r0, lsl #16
     dbc:	00017c00 	andeq	r7, r1, r0, lsl #24
     dc0:	70000500 	andvc	r0, r0, r0, lsl #10
     dc4:	9f1a4f00 	svcls	0x001a4f00
     dc8:	0000017c 	andeq	r0, r0, ip, ror r1
     dcc:	00000188 	andeq	r0, r0, r8, lsl #3
     dd0:	00740005 	rsbseq	r0, r4, r5
     dd4:	889f1a4f 	ldmhi	pc, {r0, r1, r2, r3, r6, r9, fp, ip}	; <UNPREDICTABLE>
     dd8:	98000001 	stmdals	r0, {r0}
     ddc:	01000001 	tsteq	r0, r1
     de0:	00005400 	andeq	r5, r0, r0, lsl #8
	...
     df4:	01400000 	mrseq	r0, (UNDEF: 64)
     df8:	01540000 	cmpeq	r4, r0
     dfc:	00010000 	andeq	r0, r1, r0
     e00:	00015450 	andeq	r5, r1, r0, asr r4
     e04:	00015800 	andeq	r5, r1, r0, lsl #16
     e08:	51000100 	mrspl	r0, (UNDEF: 16)
     e0c:	00000158 	andeq	r0, r0, r8, asr r1
     e10:	0000015c 	andeq	r0, r0, ip, asr r1
     e14:	01f30004 	mvnseq	r0, r4
     e18:	015c9f50 	cmpeq	ip, r0, asr pc
     e1c:	01600000 	cmneq	r0, r0
     e20:	00010000 	andeq	r0, r1, r0
     e24:	00016050 	andeq	r6, r1, r0, asr r0
     e28:	00016400 	andeq	r6, r1, r0, lsl #8
     e2c:	51000100 	mrspl	r0, (UNDEF: 16)
     e30:	00000164 	andeq	r0, r0, r4, ror #2
     e34:	00000170 	andeq	r0, r0, r0, ror r1
     e38:	01f30004 	mvnseq	r0, r4
     e3c:	00009f50 	andeq	r9, r0, r0, asr pc
	...
     e48:	01400000 	mrseq	r0, (UNDEF: 64)
     e4c:	014c0000 	mrseq	r0, (UNDEF: 76)
     e50:	00010000 	andeq	r0, r1, r0
     e54:	00014c51 	andeq	r4, r1, r1, asr ip
     e58:	00017000 	andeq	r7, r1, r0
     e5c:	f3000400 	vshl.u8	d0, d0, d0
     e60:	009f5101 	addseq	r5, pc, r1, lsl #2
     e64:	00000000 	andeq	r0, r0, r0
     e68:	01000000 	mrseq	r0, (UNDEF: 0)
     e6c:	00000000 	andeq	r0, r0, r0
     e70:	00015000 	andeq	r5, r1, r0
     e74:	00015400 	andeq	r5, r1, r0, lsl #8
     e78:	50000100 	andpl	r0, r0, r0, lsl #2
     e7c:	00000154 	andeq	r0, r0, r4, asr r1
     e80:	00000158 	andeq	r0, r0, r8, asr r1
     e84:	58510001 	ldmdapl	r1, {r0}^
     e88:	5c000001 	stcpl	0, cr0, [r0], {1}
     e8c:	04000001 	streq	r0, [r0], #-1
     e90:	5001f300 	andpl	pc, r1, r0, lsl #6
     e94:	0000009f 	muleq	r0, pc, r0	; <UNPREDICTABLE>
     e98:	00000000 	andeq	r0, r0, r0
     e9c:	00000200 	andeq	r0, r0, r0, lsl #4
     ea0:	5c000000 	stcpl	0, cr0, [r0], {-0}
     ea4:	60000001 	andvs	r0, r0, r1
     ea8:	01000001 	tsteq	r0, r1
     eac:	01605000 	cmneq	r0, r0
     eb0:	01640000 	cmneq	r4, r0
     eb4:	00010000 	andeq	r0, r1, r0
     eb8:	00016451 	andeq	r6, r1, r1, asr r4
     ebc:	00017000 	andeq	r7, r1, r0
     ec0:	f3000400 	vshl.u8	d0, d0, d0
     ec4:	009f5001 	addseq	r5, pc, r1
	...
     ed4:	0000e800 	andeq	lr, r0, r0, lsl #16
     ed8:	00010800 	andeq	r0, r1, r0, lsl #16
     edc:	50000100 	andpl	r0, r0, r0, lsl #2
     ee0:	00000108 	andeq	r0, r0, r8, lsl #2
     ee4:	00000128 	andeq	r0, r0, r8, lsr #2
     ee8:	28540001 	ldmdacs	r4, {r0}^
     eec:	40000001 	andmi	r0, r0, r1
     ef0:	04000001 	streq	r0, [r0], #-1
     ef4:	5001f300 	andpl	pc, r1, r0, lsl #6
     ef8:	0000009f 	muleq	r0, pc, r0	; <UNPREDICTABLE>
     efc:	00000000 	andeq	r0, r0, r0
     f00:	00000200 	andeq	r0, r0, r0, lsl #4
     f04:	e8000000 	stmda	r0, {}	; <UNPREDICTABLE>
     f08:	08000000 	stmdaeq	r0, {}	; <UNPREDICTABLE>
     f0c:	01000001 	tsteq	r0, r1
     f10:	01085000 	mrseq	r5, (UNDEF: 8)
     f14:	01280000 			; <UNDEFINED> instruction: 0x01280000
     f18:	00010000 	andeq	r0, r1, r0
     f1c:	00012854 	andeq	r2, r1, r4, asr r8
     f20:	00014000 	andeq	r4, r1, r0
     f24:	f3000400 	vshl.u8	d0, d0, d0
     f28:	009f5001 	addseq	r5, pc, r1
	...
     f38:	0000f000 	andeq	pc, r0, r0
     f3c:	00010800 	andeq	r0, r1, r0, lsl #16
     f40:	50000100 	andpl	r0, r0, r0, lsl #2
     f44:	00000108 	andeq	r0, r0, r8, lsl #2
     f48:	00000128 	andeq	r0, r0, r8, lsr #2
     f4c:	28540001 	ldmdacs	r4, {r0}^
     f50:	40000001 	andmi	r0, r0, r1
     f54:	04000001 	streq	r0, [r0], #-1
     f58:	5001f300 	andpl	pc, r1, r0, lsl #6
     f5c:	0000009f 	muleq	r0, pc, r0	; <UNPREDICTABLE>
     f60:	00000000 	andeq	r0, r0, r0
     f64:	00000300 	andeq	r0, r0, r0, lsl #6
     f68:	f0000000 			; <UNDEFINED> instruction: 0xf0000000
     f6c:	08000000 	stmdaeq	r0, {}	; <UNPREDICTABLE>
     f70:	07000001 	streq	r0, [r0, -r1]
     f74:	3a007000 	bcc	1cf7c <__bss_end__+0x123e4>
     f78:	9f1e331d 	svcls	0x001e331d
     f7c:	00000108 	andeq	r0, r0, r8, lsl #2
     f80:	00000128 	andeq	r0, r0, r8, lsr #2
     f84:	00740007 	rsbseq	r0, r4, r7
     f88:	1e331d3a 	mrcne	13, 1, r1, cr3, cr10, {1}
     f8c:	0001289f 	muleq	r1, pc, r8	; <UNPREDICTABLE>
     f90:	00014000 	andeq	r4, r1, r0
     f94:	f3000800 	vsub.i8	d0, d0, d0
     f98:	1d3a5001 	ldcne	0, cr5, [sl, #-4]!
     f9c:	009f1e33 	addseq	r1, pc, r3, lsr lr	; <UNPREDICTABLE>
	...
     fac:	00011000 	andeq	r1, r1, r0
     fb0:	00013800 	andeq	r3, r1, r0, lsl #16
     fb4:	56000100 	strpl	r0, [r0], -r0, lsl #2
     fb8:	00000138 	andeq	r0, r0, r8, lsr r1
     fbc:	0000013b 	andeq	r0, r0, fp, lsr r1
     fc0:	3b500001 	blcc	1400fcc <__bss_end__+0x13f6434>
     fc4:	40000001 	andmi	r0, r0, r1
     fc8:	26000001 	strcs	r0, [r0], -r1
     fcc:	5001f300 	andpl	pc, r1, r0, lsl #6
     fd0:	25f72cf7 	ldrbcs	r2, [r7, #3319]!	; 0xcf7
     fd4:	cd0825f4 	cfstr32gt	mvfx2, [r8, #-976]	; 0xfffffc30
     fd8:	00cccccc 	sbceq	ip, ip, ip, asr #25
     fdc:	1e000000 	cdpne	0, 0, cr0, cr0, cr0, {0}
     fe0:	25f72008 	ldrbcs	r2, [r7, #8]!
     fe4:	f72cf725 			; <UNDEFINED> instruction: 0xf72cf725
     fe8:	23253300 			; <UNDEFINED> instruction: 0x23253300
     fec:	40a08080 	adcmi	r8, r0, r0, lsl #1
     ff0:	009f2432 	addseq	r2, pc, r2, lsr r4	; <UNPREDICTABLE>
	...
     ffc:	00000101 	andeq	r0, r0, r1, lsl #2
    1000:	20000000 	andcs	r0, r0, r0
    1004:	20000001 	andcs	r0, r0, r1
    1008:	01000001 	tsteq	r0, r1
    100c:	01205000 			; <UNDEFINED> instruction: 0x01205000
    1010:	01280000 			; <UNDEFINED> instruction: 0x01280000
    1014:	000d0000 	andeq	r0, sp, r0
    1018:	3a007437 	bcc	1e0fc <__bss_end__+0x13564>
    101c:	241e331d 	ldrcs	r3, [lr], #-797	; 0xfffffce3
    1020:	1a007020 	bne	1d0a8 <__bss_end__+0x12510>
    1024:	0001289f 	muleq	r1, pc, r8	; <UNPREDICTABLE>
    1028:	00013000 	andeq	r3, r1, r0
    102c:	37000e00 	strcc	r0, [r0, -r0, lsl #28]
    1030:	3a5001f3 	bcc	1401804 <__bss_end__+0x13f6c6c>
    1034:	241e331d 	ldrcs	r3, [lr], #-797	; 0xfffffce3
    1038:	1a007020 	bne	1d0c0 <__bss_end__+0x12528>
    103c:	0001309f 	muleq	r1, pc, r0	; <UNPREDICTABLE>
    1040:	00013b00 	andeq	r3, r1, r0, lsl #22
    1044:	37000e00 	strcc	r0, [r0, -r0, lsl #28]
    1048:	3a5001f3 	bcc	140181c <__bss_end__+0x13f6c84>
    104c:	241e331d 	ldrcs	r3, [lr], #-797	; 0xfffffce3
    1050:	1a007320 	bne	1dcd8 <__bss_end__+0x13140>
    1054:	0000009f 	muleq	r0, pc, r0	; <UNPREDICTABLE>
	...
    1060:	00006000 	andeq	r6, r0, r0
    1064:	00009000 	andeq	r9, r0, r0
    1068:	50000100 	andpl	r0, r0, r0, lsl #2
    106c:	00000090 	muleq	r0, r0, r0
    1070:	000000b8 	strheq	r0, [r0], -r8
    1074:	01f30004 	mvnseq	r0, r4
    1078:	00009f50 	andeq	r9, r0, r0, asr pc
    107c:	00000000 	andeq	r0, r0, r0
    1080:	00020000 	andeq	r0, r2, r0
    1084:	00600000 	rsbeq	r0, r0, r0
    1088:	00900000 	addseq	r0, r0, r0
    108c:	00010000 	andeq	r0, r1, r0
    1090:	00009050 	andeq	r9, r0, r0, asr r0
    1094:	0000b800 	andeq	fp, r0, r0, lsl #16
    1098:	f3000400 	vshl.u8	d0, d0, d0
    109c:	009f5001 	addseq	r5, pc, r1
	...
    10a8:	68000000 	stmdavs	r0, {}	; <UNPREDICTABLE>
    10ac:	90000000 	andls	r0, r0, r0
    10b0:	01000000 	mrseq	r0, (UNDEF: 0)
    10b4:	00905000 	addseq	r5, r0, r0
    10b8:	00b80000 	adcseq	r0, r8, r0
    10bc:	00040000 	andeq	r0, r4, r0
    10c0:	9f5001f3 	svcls	0x005001f3
	...
    10d0:	000000a0 	andeq	r0, r0, r0, lsr #1
    10d4:	000000b0 	strheq	r0, [r0], -r0	; <UNPREDICTABLE>
    10d8:	b0540001 	subslt	r0, r4, r1
    10dc:	b8000000 	stmdalt	r0, {}	; <UNPREDICTABLE>
    10e0:	29000000 	stmdbcs	r0, {}	; <UNPREDICTABLE>
    10e4:	5001f300 	andpl	pc, r1, r0, lsl #6
    10e8:	f75001f3 			; <UNDEFINED> instruction: 0xf75001f3
    10ec:	f425f72c 	vld1.8	{d15}, [r5 :128], ip
    10f0:	cccd0825 	stclgt	8, cr0, [sp], {37}	; 0x25
    10f4:	0000cccc 	andeq	ip, r0, ip, asr #25
    10f8:	081e0000 	ldmdaeq	lr, {}	; <UNPREDICTABLE>
    10fc:	2525f720 	strcs	pc, [r5, #-1824]!	; 0xfffff8e0
    1100:	00f72cf7 	ldrshteq	r2, [r7], #199	; 0xc7
    1104:	1e352533 	mrcne	5, 1, r2, cr5, cr3, {1}
    1108:	331c2431 	tstcc	ip, #822083584	; 0x31000000
    110c:	00009f1e 	andeq	r9, r0, lr, lsl pc
    1110:	00000000 	andeq	r0, r0, r0
    1114:	00010000 	andeq	r0, r1, r0
    1118:	00000000 	andeq	r0, r0, r0
    111c:	000000a0 	andeq	r0, r0, r0, lsr #1
    1120:	000000b0 	strheq	r0, [r0], -r0	; <UNPREDICTABLE>
    1124:	b0550001 	subslt	r0, r5, r1
    1128:	b3000000 	movwlt	r0, #0
    112c:	01000000 	mrseq	r0, (UNDEF: 0)
    1130:	00b35000 	adcseq	r5, r3, r0
    1134:	00b80000 	adcseq	r0, r8, r0
    1138:	00260000 	eoreq	r0, r6, r0
    113c:	f75001f3 			; <UNDEFINED> instruction: 0xf75001f3
    1140:	f425f72c 	vld1.8	{d15}, [r5 :128], ip
    1144:	cccd0825 	stclgt	8, cr0, [sp], {37}	; 0x25
    1148:	0000cccc 	andeq	ip, r0, ip, asr #25
    114c:	081e0000 	ldmdaeq	lr, {}	; <UNPREDICTABLE>
    1150:	2525f720 	strcs	pc, [r5, #-1824]!	; 0xfffff8e0
    1154:	00f72cf7 	ldrshteq	r2, [r7], #199	; 0xc7
    1158:	80232533 	eorhi	r2, r3, r3, lsr r5
    115c:	3240a080 	subcc	sl, r0, #128, 0	; 0x80
    1160:	00009f24 	andeq	r9, r0, r4, lsr #30
    1164:	00000000 	andeq	r0, r0, r0
    1168:	00020000 	andeq	r0, r2, r0
    116c:	00010100 	andeq	r0, r1, r0, lsl #2
    1170:	00a00000 	adceq	r0, r0, r0
    1174:	00a40000 	adceq	r0, r4, r0
    1178:	00010000 	andeq	r0, r1, r0
    117c:	0000a450 	andeq	sl, r0, r0, asr r4
    1180:	0000a400 	andeq	sl, r0, r0, lsl #8
    1184:	53000100 	movwpl	r0, #256	; 0x100
    1188:	000000a4 	andeq	r0, r0, r4, lsr #1
    118c:	000000a8 	andeq	r0, r0, r8, lsr #1
    1190:	74310008 	ldrtvc	r0, [r1], #-8
    1194:	00732400 	rsbseq	r2, r3, r0, lsl #8
    1198:	00a89f21 	adceq	r9, r8, r1, lsr #30
    119c:	00b30000 	adcseq	r0, r3, r0
    11a0:	00010000 	andeq	r0, r1, r0
    11a4:	00000051 	andeq	r0, r0, r1, asr r0
	...
    11b4:	00003c00 	andeq	r3, r0, r0, lsl #24
    11b8:	50000100 	andpl	r0, r0, r0, lsl #2
    11bc:	0000003c 	andeq	r0, r0, ip, lsr r0
    11c0:	00000060 	andeq	r0, r0, r0, rrx
    11c4:	01f30004 	mvnseq	r0, r4
    11c8:	00009f50 	andeq	r9, r0, r0, asr pc
	...
    11d8:	003f0000 	eorseq	r0, pc, r0
    11dc:	00010000 	andeq	r0, r1, r0
    11e0:	00003f51 	andeq	r3, r0, r1, asr pc
    11e4:	00006000 	andeq	r6, r0, r0
    11e8:	f3000400 	vshl.u8	d0, d0, d0
    11ec:	009f5101 	addseq	r5, pc, r1, lsl #2
	...
    11f8:	08000000 	stmdaeq	r0, {}	; <UNPREDICTABLE>
    11fc:	3f000000 	svccc	0x00000000
    1200:	01000000 	mrseq	r0, (UNDEF: 0)
    1204:	003f5100 	eorseq	r5, pc, r0, lsl #2
    1208:	00600000 	rsbeq	r0, r0, r0
    120c:	00040000 	andeq	r0, r4, r0
    1210:	9f5101f3 	svcls	0x005101f3
	...
    1220:	00000008 	andeq	r0, r0, r8
    1224:	0000003c 	andeq	r0, r0, ip, lsr r0
    1228:	3c500001 	mrrccc	0, 0, r0, r0, cr1	; <UNPREDICTABLE>
    122c:	60000000 	andvs	r0, r0, r0
    1230:	04000000 	streq	r0, [r0], #-0
    1234:	5001f300 	andpl	pc, r1, r0, lsl #6
    1238:	0000009f 	muleq	r0, pc, r0	; <UNPREDICTABLE>
	...
    1244:	00004800 	andeq	r4, r0, r0, lsl #16
    1248:	00005800 	andeq	r5, r0, r0, lsl #16
    124c:	54000100 	strpl	r0, [r0], #-256	; 0xffffff00
    1250:	00000058 	andeq	r0, r0, r8, asr r0
    1254:	00000060 	andeq	r0, r0, r0, rrx
    1258:	01f30029 	mvnseq	r0, r9, lsr #32
    125c:	5001f350 	andpl	pc, r1, r0, asr r3	; <UNPREDICTABLE>
    1260:	25f72cf7 	ldrbcs	r2, [r7, #3319]!	; 0xcf7
    1264:	cd0825f4 	cfstr32gt	mvfx2, [r8, #-976]	; 0xfffffc30
    1268:	00cccccc 	sbceq	ip, ip, ip, asr #25
    126c:	1e000000 	cdpne	0, 0, cr0, cr0, cr0, {0}
    1270:	25f72008 	ldrbcs	r2, [r7, #8]!
    1274:	f72cf725 			; <UNDEFINED> instruction: 0xf72cf725
    1278:	35253300 	strcc	r3, [r5, #-768]!	; 0xfffffd00
    127c:	1c24311e 	stfnes	f3, [r4], #-120	; 0xffffff88
    1280:	009f1e33 	addseq	r1, pc, r3, lsr lr	; <UNPREDICTABLE>
    1284:	00000000 	andeq	r0, r0, r0
    1288:	01000000 	mrseq	r0, (UNDEF: 0)
    128c:	00000000 	andeq	r0, r0, r0
    1290:	00004800 	andeq	r4, r0, r0, lsl #16
    1294:	00005800 	andeq	r5, r0, r0, lsl #16
    1298:	56000100 	strpl	r0, [r0], -r0, lsl #2
    129c:	00000058 	andeq	r0, r0, r8, asr r0
    12a0:	0000005b 	andeq	r0, r0, fp, asr r0
    12a4:	5b500001 	blpl	14012b0 <__bss_end__+0x13f6718>
    12a8:	60000000 	andvs	r0, r0, r0
    12ac:	26000000 	strcs	r0, [r0], -r0
    12b0:	5001f300 	andpl	pc, r1, r0, lsl #6
    12b4:	25f72cf7 	ldrbcs	r2, [r7, #3319]!	; 0xcf7
    12b8:	cd0825f4 	cfstr32gt	mvfx2, [r8, #-976]	; 0xfffffc30
    12bc:	00cccccc 	sbceq	ip, ip, ip, asr #25
    12c0:	1e000000 	cdpne	0, 0, cr0, cr0, cr0, {0}
    12c4:	25f72008 	ldrbcs	r2, [r7, #8]!
    12c8:	f72cf725 			; <UNDEFINED> instruction: 0xf72cf725
    12cc:	23253300 			; <UNDEFINED> instruction: 0x23253300
    12d0:	40a08080 	adcmi	r8, r0, r0, lsl #1
    12d4:	009f2432 	addseq	r2, pc, r2, lsr r4	; <UNPREDICTABLE>
    12d8:	00000000 	andeq	r0, r0, r0
    12dc:	02000000 	andeq	r0, r0, #0, 0
    12e0:	01010000 	mrseq	r0, (UNDEF: 1)
    12e4:	48000000 	stmdami	r0, {}	; <UNPREDICTABLE>
    12e8:	4c000000 	stcmi	0, cr0, [r0], {-0}
    12ec:	01000000 	mrseq	r0, (UNDEF: 0)
    12f0:	004c5000 	subeq	r5, ip, r0
    12f4:	004c0000 	subeq	r0, ip, r0
    12f8:	00010000 	andeq	r0, r1, r0
    12fc:	00004c51 	andeq	r4, r0, r1, asr ip
    1300:	00005000 	andeq	r5, r0, r0
    1304:	75000c00 	strvc	r0, [r0, #-3072]	; 0xfffff400
    1308:	1aff0800 	bne	fffc3310 <__bss_end__+0xfffb8778>
    130c:	71240074 			; <UNDEFINED> instruction: 0x71240074
    1310:	509f2100 	addspl	r2, pc, r0, lsl #2
    1314:	54000000 	strpl	r0, [r0], #-0
    1318:	12000000 	andne	r0, r0, #0, 0
    131c:	00743700 	rsbseq	r3, r4, r0, lsl #14
    1320:	00702024 	rsbseq	r2, r0, r4, lsr #32
    1324:	0800751a 	stmdaeq	r0, {r1, r3, r4, r8, sl, ip, sp, lr}
    1328:	00741aff 	ldrshteq	r1, [r4], #-175	; 0xffffff51
    132c:	009f2124 	addseq	r2, pc, r4, lsr #2
	...
    133c:	0000b800 	andeq	fp, r0, r0, lsl #16
    1340:	0000c400 	andeq	ip, r0, r0, lsl #8
    1344:	50000100 	andpl	r0, r0, r0, lsl #2
    1348:	000000c4 	andeq	r0, r0, r4, asr #1
    134c:	000000cb 	andeq	r0, r0, fp, asr #1
    1350:	cb530001 	blgt	14c135c <__bss_end__+0x14b67c4>
    1354:	d0000000 	andle	r0, r0, r0
    1358:	04000000 	streq	r0, [r0], #-0
    135c:	5001f300 	andpl	pc, r1, r0, lsl #6
    1360:	0000009f 	muleq	r0, pc, r0	; <UNPREDICTABLE>
	...
    136c:	d0000000 	andle	r0, r0, r0
    1370:	dc000000 	stcle	0, cr0, [r0], {-0}
    1374:	01000000 	mrseq	r0, (UNDEF: 0)
    1378:	00dc5000 	sbcseq	r5, ip, r0
    137c:	00e30000 	rsceq	r0, r3, r0
    1380:	00010000 	andeq	r0, r1, r0
    1384:	0000e353 	andeq	lr, r0, r3, asr r3
    1388:	0000e800 	andeq	lr, r0, r0, lsl #16
    138c:	f3000400 	vshl.u8	d0, d0, d0
    1390:	009f5001 	addseq	r5, pc, r1
	...
    13a0:	00002c00 	andeq	r2, r0, r0, lsl #24
    13a4:	00003400 	andeq	r3, r0, r0, lsl #8
    13a8:	50000100 	andpl	r0, r0, r0, lsl #2
    13ac:	00000034 	andeq	r0, r0, r4, lsr r0
    13b0:	00000048 	andeq	r0, r0, r8, asr #32
    13b4:	48540001 	ldmdami	r4, {r0}^
    13b8:	58000000 	stmdapl	r0, {}	; <UNPREDICTABLE>
    13bc:	01000000 	mrseq	r0, (UNDEF: 0)
    13c0:	00005000 	andeq	r5, r0, r0
	...
    13cc:	00010100 	andeq	r0, r1, r0, lsl #2
    13d0:	00000000 	andeq	r0, r0, r0
    13d4:	000c0000 	andeq	r0, ip, r0
    13d8:	00010000 	andeq	r0, r1, r0
    13dc:	00000c50 	andeq	r0, r0, r0, asr ip
    13e0:	00002000 	andeq	r2, r0, r0
    13e4:	54000100 	strpl	r0, [r0], #-256	; 0xffffff00
    13e8:	00000020 	andeq	r0, r0, r0, lsr #32
    13ec:	00000024 	andeq	r0, r0, r4, lsr #32
    13f0:	01740003 	cmneq	r4, r3
    13f4:	0000249f 	muleq	r0, pc, r4	; <UNPREDICTABLE>
    13f8:	00003800 	andeq	r3, r0, r0, lsl #16
    13fc:	54000100 	strpl	r0, [r0], #-256	; 0xffffff00
	...
    1410:	03880000 	orreq	r0, r8, #0, 0
    1414:	03940000 	orrseq	r0, r4, #0, 0
    1418:	00010000 	andeq	r0, r1, r0
    141c:	00039450 	andeq	r9, r3, r0, asr r4
    1420:	0003d000 	andeq	sp, r3, r0
    1424:	5b000100 	blpl	182c <__code_start__-0x67d4>
    1428:	000003d0 	ldrdeq	r0, [r0], -r0	; <UNPREDICTABLE>
    142c:	00000920 	andeq	r0, r0, r0, lsr #18
    1430:	01f30004 	mvnseq	r0, r4
    1434:	09209f50 	stmdbeq	r0!, {r4, r6, r8, r9, sl, fp, ip, pc}
    1438:	09280000 	stmdbeq	r8!, {}	; <UNPREDICTABLE>
    143c:	00010000 	andeq	r0, r1, r0
    1440:	0009285b 	andeq	r2, r9, fp, asr r8
    1444:	0009b400 	andeq	fp, r9, r0, lsl #8
    1448:	f3000400 	vshl.u8	d0, d0, d0
    144c:	009f5001 	addseq	r5, pc, r1
	...
    145c:	88000000 	stmdahi	r0, {}	; <UNPREDICTABLE>
    1460:	d0000003 	andle	r0, r0, r3
    1464:	01000003 	tsteq	r0, r3
    1468:	03d05100 	bicseq	r5, r0, #0
    146c:	09200000 	stmdbeq	r0!, {}	; <UNPREDICTABLE>
    1470:	00040000 	andeq	r0, r4, r0
    1474:	9f5101f3 	svcls	0x005101f3
    1478:	00000920 	andeq	r0, r0, r0, lsr #18
    147c:	00000928 	andeq	r0, r0, r8, lsr #18
    1480:	28510001 	ldmdacs	r1, {r0}^
    1484:	b4000009 	strlt	r0, [r0], #-9
    1488:	04000009 	streq	r0, [r0], #-9
    148c:	5101f300 	mrspl	pc, SP_irq	; <UNPREDICTABLE>
    1490:	0000009f 	muleq	r0, pc, r0	; <UNPREDICTABLE>
	...
    14a0:	01000001 	tsteq	r0, r1
	...
    14b0:	00038800 	andeq	r8, r3, r0, lsl #16
    14b4:	0003d000 	andeq	sp, r3, r0
    14b8:	52000100 	andpl	r0, r0, #0
    14bc:	000003d0 	ldrdeq	r0, [r0], -r0	; <UNPREDICTABLE>
    14c0:	00000400 	andeq	r0, r0, r0, lsl #8
    14c4:	14560001 	ldrbne	r0, [r6], #-1
    14c8:	24000004 	strcs	r0, [r0], #-4
    14cc:	01000004 	tsteq	r0, r4
    14d0:	04245600 	strteq	r5, [r4], #-1536	; 0xfffffa00
    14d4:	04280000 	strteq	r0, [r8], #-0
    14d8:	00030000 	andeq	r0, r3, r0
    14dc:	a89f7f76 	ldmge	pc, {r1, r2, r4, r5, r6, r8, r9, sl, fp, ip, sp, lr}	; <UNPREDICTABLE>
    14e0:	ac000004 	stcge	0, cr0, [r0], {4}
    14e4:	01000004 	tsteq	r0, r4
    14e8:	04e05600 	strbteq	r5, [r0], #1536	; 0x600
    14ec:	05040000 	streq	r0, [r4, #-0]
    14f0:	00010000 	andeq	r0, r1, r0
    14f4:	00057c56 	andeq	r7, r5, r6, asr ip
    14f8:	00058800 	andeq	r8, r5, r0, lsl #16
    14fc:	53000100 	movwpl	r0, #256	; 0x100
    1500:	00000588 	andeq	r0, r0, r8, lsl #11
    1504:	000005d0 	ldrdeq	r0, [r0], -r0	; <UNPREDICTABLE>
    1508:	cc910003 	ldcgt	0, cr0, [r1], {3}
    150c:	0008007d 	andeq	r0, r8, sp, ror r0
    1510:	00080f00 	andeq	r0, r8, r0, lsl #30
    1514:	53000100 	movwpl	r0, #256	; 0x100
    1518:	0000080f 	andeq	r0, r0, pc, lsl #16
    151c:	00000888 	andeq	r0, r0, r8, lsl #17
    1520:	cc910003 	ldcgt	0, cr0, [r1], {3}
    1524:	0009207d 	andeq	r2, r9, sp, ror r0
    1528:	00092800 	andeq	r2, r9, r0, lsl #16
    152c:	52000100 	andpl	r0, r0, #0
    1530:	00000948 	andeq	r0, r0, r8, asr #18
    1534:	00000964 	andeq	r0, r0, r4, ror #18
    1538:	cc910003 	ldcgt	0, cr0, [r1], {3}
    153c:	0000007d 	andeq	r0, r0, sp, ror r0
	...
    1550:	00000101 	andeq	r0, r0, r1, lsl #2
    1554:	00000101 	andeq	r0, r0, r1, lsl #2
    1558:	02020000 	andeq	r0, r2, #0, 0
    155c:	02020000 	andeq	r0, r2, #0, 0
    1560:	01010000 	mrseq	r0, (UNDEF: 1)
    1564:	02020000 	andeq	r0, r2, #0, 0
    1568:	01010000 	mrseq	r0, (UNDEF: 1)
	...
    1574:	00038800 	andeq	r8, r3, r0, lsl #16
    1578:	0003ac00 	andeq	sl, r3, r0, lsl #24
    157c:	53000100 	movwpl	r0, #256	; 0x100
    1580:	000003ac 	andeq	r0, r0, ip, lsr #7
    1584:	000003c0 	andeq	r0, r0, r0, asr #7
    1588:	93530003 	cmpls	r3, #3, 0
    158c:	0003d004 	andeq	sp, r3, r4
    1590:	0003e800 	andeq	lr, r3, r0, lsl #16
    1594:	58000300 	stmdapl	r0, {r8, r9}
    1598:	03e80493 	mvneq	r0, #-1828716544	; 0x93000000
    159c:	04ac0000 	strteq	r0, [ip], #0
    15a0:	00030000 	andeq	r0, r3, r0
    15a4:	ac049358 	stcge	3, cr9, [r4], {88}	; 0x58
    15a8:	b0000004 	andlt	r0, r0, r4
    15ac:	01000004 	tsteq	r0, r4
    15b0:	04c05300 	strbeq	r5, [r0], #768	; 0x300
    15b4:	04c00000 	strbeq	r0, [r0], #0
    15b8:	00030000 	andeq	r0, r3, r0
    15bc:	c0049358 	andgt	r9, r4, r8, asr r3
    15c0:	cc000004 	stcgt	0, cr0, [r0], {4}
    15c4:	05000004 	streq	r0, [r0, #-4]
    15c8:	9f047800 	svcls	0x00047800
    15cc:	04cc0493 	strbeq	r0, [ip], #1171	; 0x493
    15d0:	04e00000 	strbteq	r0, [r0], #0
    15d4:	00030000 	andeq	r0, r3, r0
    15d8:	e0049358 	and	r9, r4, r8, asr r3
    15dc:	38000004 	stmdacc	r0, {r2}
    15e0:	03000005 	movweq	r0, #5
    15e4:	04935800 	ldreq	r5, [r3], #2048	; 0x800
    15e8:	00000538 	andeq	r0, r0, r8, lsr r5
    15ec:	0000053c 	andeq	r0, r0, ip, lsr r5
    15f0:	79780005 	ldmdbvc	r8!, {r0, r2}^
    15f4:	d004939f 	mulle	r4, pc, r3	; <UNPREDICTABLE>
    15f8:	d0000005 	andle	r0, r0, r5
    15fc:	03000005 	movweq	r0, #5
    1600:	04935800 	ldreq	r5, [r3], #2048	; 0x800
    1604:	000005d0 	ldrdeq	r0, [r0], -r0	; <UNPREDICTABLE>
    1608:	000005d4 	ldrdeq	r0, [r0], -r4
    160c:	04780005 	ldrbteq	r0, [r8], #-5
    1610:	f404939f 	vst2.32	{d9-d12}, [r4 :64]
    1614:	f4000005 	vst4.8	{d0-d3}, [r0], r5
    1618:	03000005 	movweq	r0, #5
    161c:	04935800 	ldreq	r5, [r3], #2048	; 0x800
    1620:	000005f4 	strdeq	r0, [r0], -r4
    1624:	000005fc 	strdeq	r0, [r0], -ip
    1628:	04780005 	ldrbteq	r0, [r8], #-5
    162c:	fc04939f 	stc2	3, cr9, [r4], {159}	; 0x9f
    1630:	fc000005 	stc2	0, cr0, [r0], {5}
    1634:	03000005 	movweq	r0, #5
    1638:	04935800 	ldreq	r5, [r3], #2048	; 0x800
    163c:	000005fc 	strdeq	r0, [r0], -ip
    1640:	00000600 	andeq	r0, r0, r0, lsl #12
    1644:	04780005 	ldrbteq	r0, [r8], #-5
    1648:	0004939f 	muleq	r4, pc, r3	; <UNPREDICTABLE>
    164c:	00000006 	andeq	r0, r0, r6
    1650:	03000007 	movweq	r0, #7
    1654:	04935800 	ldreq	r5, [r3], #2048	; 0x800
    1658:	00000700 	andeq	r0, r0, r0, lsl #14
    165c:	0000070c 	andeq	r0, r0, ip, lsl #14
    1660:	04780005 	ldrbteq	r0, [r8], #-5
    1664:	0c04939f 	stceq	3, cr9, [r4], {159}	; 0x9f
    1668:	f8000007 			; <UNDEFINED> instruction: 0xf8000007
    166c:	03000007 	movweq	r0, #7
    1670:	04935800 	ldreq	r5, [r3], #2048	; 0x800
    1674:	000007f8 	strdeq	r0, [r0], -r8
    1678:	000007fc 	strdeq	r0, [r0], -ip
    167c:	04780005 	ldrbteq	r0, [r8], #-5
    1680:	fc04939f 	stc2	3, cr9, [r4], {159}	; 0x9f
    1684:	00000007 	andeq	r0, r0, r7
    1688:	03000008 	movweq	r0, #8
    168c:	04935800 	ldreq	r5, [r3], #2048	; 0x800
    1690:	00000888 	andeq	r0, r0, r8, lsl #17
    1694:	00000920 	andeq	r0, r0, r0, lsr #18
    1698:	93580003 	cmpls	r8, #3, 0
    169c:	00092004 	andeq	r2, r9, r4
    16a0:	00092800 	andeq	r2, r9, r0, lsl #16
    16a4:	53000300 	movwpl	r0, #768	; 0x300
    16a8:	09640493 	stmdbeq	r4!, {r0, r1, r4, r7, sl}^
    16ac:	09b40000 	ldmibeq	r4!, {}	; <UNPREDICTABLE>
    16b0:	00030000 	andeq	r0, r3, r0
    16b4:	00049358 	andeq	r9, r4, r8, asr r3
    16b8:	00000000 	andeq	r0, r0, r0
    16bc:	01000000 	mrseq	r0, (UNDEF: 0)
	...
    16c8:	00000202 	andeq	r0, r0, r2, lsl #4
    16cc:	01010100 	mrseq	r0, (UNDEF: 17)
    16d0:	00000000 	andeq	r0, r0, r0
    16d4:	0003ac00 	andeq	sl, r3, r0, lsl #24
    16d8:	0003d000 	andeq	sp, r3, r0
    16dc:	5b000100 	blpl	1ae4 <__code_start__-0x651c>
    16e0:	000003d0 	ldrdeq	r0, [r0], -r0	; <UNPREDICTABLE>
    16e4:	000003d4 	ldrdeq	r0, [r0], -r4
    16e8:	d4540001 	ldrble	r0, [r4], #-1
    16ec:	d8000003 	stmdale	r0, {r0, r1}
    16f0:	03000003 	movweq	r0, #3
    16f4:	9f7f7400 	svcls	0x007f7400
    16f8:	000003d8 	ldrdeq	r0, [r0], -r8
    16fc:	000003fc 	strdeq	r0, [r0], -ip
    1700:	a8540001 	ldmdage	r4, {r0}^
    1704:	ac000004 	stcge	0, cr0, [r0], {4}
    1708:	01000004 	tsteq	r0, r4
    170c:	04ac5400 	strteq	r5, [ip], #1024	; 0x400
    1710:	04b40000 	ldrteq	r0, [r4], #0
    1714:	00030000 	andeq	r0, r3, r0
    1718:	b49f0174 	ldrlt	r0, [pc], #372	; 1720 <__code_start__-0x68e0>
    171c:	c0000004 	andgt	r0, r0, r4
    1720:	01000004 	tsteq	r0, r4
    1724:	04e45400 	strbteq	r5, [r4], #1024	; 0x400
    1728:	04f40000 	ldrbteq	r0, [r4], #0
    172c:	00010000 	andeq	r0, r1, r0
    1730:	0004f454 	andeq	pc, r4, r4, asr r4	; <UNPREDICTABLE>
    1734:	0004f800 	andeq	pc, r4, r0, lsl #16
    1738:	74000300 	strvc	r0, [r0], #-768	; 0xfffffd00
    173c:	04f89f01 	ldrbteq	r9, [r8], #3841	; 0xf01
    1740:	05040000 	streq	r0, [r4, #-0]
    1744:	00010000 	andeq	r0, r1, r0
    1748:	00092054 	andeq	r2, r9, r4, asr r0
    174c:	00092800 	andeq	r2, r9, r0, lsl #16
    1750:	5b000100 	blpl	1b58 <__code_start__-0x64a8>
	...
    175c:	03ac0001 			; <UNDEFINED> instruction: 0x03ac0001
    1760:	09b40000 	ldmibeq	r4!, {}	; <UNPREDICTABLE>
    1764:	00010000 	andeq	r0, r1, r0
    1768:	00000057 	andeq	r0, r0, r7, asr r0
    176c:	00000000 	andeq	r0, r0, r0
    1770:	00000200 	andeq	r0, r0, r0, lsl #4
    1774:	7c000000 	stcvc	0, cr0, [r0], {-0}
    1778:	d0000005 	andle	r0, r0, r5
    177c:	01000005 	tsteq	r0, r5
    1780:	08005b00 	stmdaeq	r0, {r8, r9, fp, ip, lr}
    1784:	08880000 	stmeq	r8, {}	; <UNPREDICTABLE>
    1788:	00010000 	andeq	r0, r1, r0
    178c:	0009485b 	andeq	r4, r9, fp, asr r8
    1790:	00096400 	andeq	r6, r9, r0, lsl #8
    1794:	5b000100 	blpl	1b9c <__code_start__-0x6464>
	...
    17a0:	00000003 	andeq	r0, r0, r3
    17a4:	057c0000 	ldrbeq	r0, [ip, #-0]!
    17a8:	05d00000 	ldrbeq	r0, [r0]
    17ac:	00010000 	andeq	r0, r1, r0
    17b0:	00080059 	andeq	r0, r8, r9, asr r0
    17b4:	00088800 	andeq	r8, r8, r0, lsl #16
    17b8:	59000100 	stmdbpl	r0, {r8}
    17bc:	00000948 	andeq	r0, r0, r8, asr #18
    17c0:	00000964 	andeq	r0, r0, r4, ror #18
    17c4:	00590001 	subseq	r0, r9, r1
    17c8:	00000000 	andeq	r0, r0, r0
    17cc:	04000000 	streq	r0, [r0], #-0
    17d0:	00000000 	andeq	r0, r0, r0
    17d4:	ac000000 	stcge	0, cr0, [r0], {-0}
    17d8:	d0000003 	andle	r0, r0, r3
    17dc:	01000003 	tsteq	r0, r3
    17e0:	03d05200 	bicseq	r5, r0, #0, 4
    17e4:	09200000 	stmdbeq	r0!, {}	; <UNPREDICTABLE>
    17e8:	00040000 	andeq	r0, r4, r0
    17ec:	9f5201f3 	svcls	0x005201f3
    17f0:	00000920 	andeq	r0, r0, r0, lsr #18
    17f4:	00000928 	andeq	r0, r0, r8, lsr #18
    17f8:	28520001 	ldmdacs	r2, {r0}^
    17fc:	b4000009 	strlt	r0, [r0], #-9
    1800:	04000009 	streq	r0, [r0], #-9
    1804:	5201f300 	andpl	pc, r1, #0, 6
    1808:	0000009f 	muleq	r0, pc, r0	; <UNPREDICTABLE>
    180c:	00000000 	andeq	r0, r0, r0
    1810:	01010000 	mrseq	r0, (UNDEF: 1)
    1814:	00000000 	andeq	r0, r0, r0
    1818:	00000100 	andeq	r0, r0, r0, lsl #2
    181c:	0004e000 	andeq	lr, r4, r0
    1820:	0004e000 	andeq	lr, r4, r0
    1824:	50000100 	andpl	r0, r0, r0, lsl #2
    1828:	000004e0 	andeq	r0, r0, r0, ror #9
    182c:	000004e8 	andeq	r0, r0, r8, ror #9
    1830:	b8550001 	ldmdalt	r5, {r0}^
    1834:	d0000005 	andle	r0, r0, r5
    1838:	01000005 	tsteq	r0, r5
    183c:	05f05500 	ldrbeq	r5, [r0, #1280]!	; 0x500
    1840:	05f40000 	ldrbeq	r0, [r4, #0]!
    1844:	00010000 	andeq	r0, r1, r0
    1848:	0007f450 	andeq	pc, r7, r0, asr r4	; <UNPREDICTABLE>
    184c:	0007f800 	andeq	pc, r7, r0, lsl #16
    1850:	55000100 	strpl	r0, [r0, #-256]	; 0xffffff00
    1854:	00000850 	andeq	r0, r0, r0, asr r8
    1858:	00000888 	andeq	r0, r0, r8, lsl #17
    185c:	00550001 	subseq	r0, r5, r1
    1860:	00000000 	andeq	r0, r0, r0
    1864:	02000000 	andeq	r0, r0, #0, 0
    1868:	00000000 	andeq	r0, r0, r0
    186c:	14000000 	strne	r0, [r0], #-0
    1870:	18000004 	stmdane	r0, {r2}
    1874:	02000004 	andeq	r0, r0, #4, 0
    1878:	189f3000 	ldmne	pc, {ip, sp}	; <UNPREDICTABLE>
    187c:	1c000004 	stcne	0, cr0, [r0], {4}
    1880:	01000004 	tsteq	r0, r4
    1884:	04285500 	strteq	r5, [r8], #-1280	; 0xfffffb00
    1888:	043c0000 	ldrteq	r0, [ip], #-0
    188c:	00010000 	andeq	r0, r1, r0
    1890:	00092855 	andeq	r2, r9, r5, asr r8
    1894:	00093000 	andeq	r3, r9, r0
    1898:	55000100 	strpl	r0, [r0, #-256]	; 0xffffff00
	...
    18a4:	00000001 	andeq	r0, r0, r1
	...
    18b0:	00000504 	andeq	r0, r0, r4, lsl #10
    18b4:	00000584 	andeq	r0, r0, r4, lsl #11
    18b8:	84560001 	ldrbhi	r0, [r6], #-1
    18bc:	88000005 	stmdahi	r0, {r0, r2}
    18c0:	03000005 	movweq	r0, #5
    18c4:	9f7e7300 	svcls	0x007e7300
    18c8:	00000588 	andeq	r0, r0, r8, lsl #11
    18cc:	000005d0 	ldrdeq	r0, [r0], -r0	; <UNPREDICTABLE>
    18d0:	cc910007 	ldcgt	0, cr0, [r1], {7}
    18d4:	1c32067d 	ldcne	6, cr0, [r2], #-500	; 0xfffffe0c
    18d8:	0008009f 	muleq	r8, pc, r0	; <UNPREDICTABLE>
    18dc:	00081c00 	andeq	r1, r8, r0, lsl #24
    18e0:	56000100 	strpl	r0, [r0], -r0, lsl #2
    18e4:	0000081c 	andeq	r0, r0, ip, lsl r8
    18e8:	00000888 	andeq	r0, r0, r8, lsl #17
    18ec:	cc910007 	ldcgt	0, cr0, [r1], {7}
    18f0:	1c32067d 	ldcne	6, cr0, [r2], #-500	; 0xfffffe0c
    18f4:	0009489f 	muleq	r9, pc, r8	; <UNPREDICTABLE>
    18f8:	0009b400 	andeq	fp, r9, r0, lsl #8
    18fc:	56000100 	strpl	r0, [r0], -r0, lsl #2
	...
    1908:	04020604 	streq	r0, [r2], #-1540	; 0xfffff9fc
    190c:	00000414 	andeq	r0, r0, r4, lsl r4
    1910:	00000414 	andeq	r0, r0, r4, lsl r4
    1914:	00720006 	rsbseq	r0, r2, r6
    1918:	9f1aff08 	svcls	0x001aff08
    191c:	00000428 	andeq	r0, r0, r8, lsr #8
    1920:	00000428 	andeq	r0, r0, r8, lsr #8
    1924:	00720006 	rsbseq	r0, r2, r6
    1928:	9f1aff08 	svcls	0x001aff08
	...
    1934:	00000002 	andeq	r0, r0, r2
    1938:	05fc0000 	ldrbeq	r0, [ip, #0]!
    193c:	07000000 	streq	r0, [r0, -r0]
    1940:	00030000 	andeq	r0, r3, r0
    1944:	a89f8008 	ldmge	pc, {r3, pc}	; <UNPREDICTABLE>
    1948:	bc000008 	stclt	0, cr0, [r0], {8}
    194c:	03000008 	movweq	r0, #8
    1950:	9f800800 	svcls	0x00800800
    1954:	00000910 	andeq	r0, r0, r0, lsl r9
    1958:	00000920 	andeq	r0, r0, r0, lsr #18
    195c:	80080003 	andhi	r0, r8, r3
    1960:	0000009f 	muleq	r0, pc, r0	; <UNPREDICTABLE>
    1964:	00000000 	andeq	r0, r0, r0
    1968:	00000100 	andeq	r0, r0, r0, lsl #2
    196c:	fc000000 	stc2	0, cr0, [r0], {-0}
    1970:	00000005 	andeq	r0, r0, r5
    1974:	02000007 	andeq	r0, r0, #7, 0
    1978:	a89f3000 	ldmge	pc, {ip, sp}	; <UNPREDICTABLE>
    197c:	bc000008 	stclt	0, cr0, [r0], {8}
    1980:	02000008 	andeq	r0, r0, #8, 0
    1984:	109f3000 	addsne	r3, pc, r0
    1988:	20000009 	andcs	r0, r0, r9
    198c:	02000009 	andeq	r0, r0, #9, 0
    1990:	009f3000 	addseq	r3, pc, r0
    1994:	00000000 	andeq	r0, r0, r0
    1998:	01000000 	mrseq	r0, (UNDEF: 0)
    199c:	00000000 	andeq	r0, r0, r0
    19a0:	0005fc00 	andeq	pc, r5, r0, lsl #24
    19a4:	0006e000 	andeq	lr, r6, r0
    19a8:	55000100 	strpl	r0, [r0, #-256]	; 0xffffff00
    19ac:	000008a8 	andeq	r0, r0, r8, lsr #17
    19b0:	000008bc 			; <UNDEFINED> instruction: 0x000008bc
    19b4:	10550001 	subsne	r0, r5, r1
    19b8:	20000009 	andcs	r0, r0, r9
    19bc:	01000009 	tsteq	r0, r9
    19c0:	00005500 	andeq	r5, r0, r0, lsl #10
    19c4:	00000000 	andeq	r0, r0, r0
    19c8:	00010000 	andeq	r0, r1, r0
    19cc:	00000000 	andeq	r0, r0, r0
    19d0:	05fc0000 	ldrbeq	r0, [ip, #0]!
    19d4:	06e00000 	strbteq	r0, [r0], r0
    19d8:	00040000 	andeq	r0, r4, r0
    19dc:	9f7dd091 	svcls	0x007dd091
    19e0:	000006e0 	andeq	r0, r0, r0, ror #13
    19e4:	00000700 	andeq	r0, r0, r0, lsl #14
    19e8:	a8550001 	ldmdage	r5, {r0}^
    19ec:	bc000008 	stclt	0, cr0, [r0], {8}
    19f0:	04000008 	streq	r0, [r0], #-8
    19f4:	7dd09100 	ldfvcp	f1, [r0]
    19f8:	0009109f 	muleq	r9, pc, r0	; <UNPREDICTABLE>
    19fc:	00092000 	andeq	r2, r9, r0
    1a00:	91000400 	tstls	r0, r0, lsl #8
    1a04:	009f7dd0 			; <UNDEFINED> instruction: 0x009f7dd0
    1a08:	00000000 	andeq	r0, r0, r0
    1a0c:	01000000 	mrseq	r0, (UNDEF: 0)
    1a10:	00000000 	andeq	r0, r0, r0
    1a14:	0005fc00 	andeq	pc, r5, r0, lsl #24
    1a18:	00070000 	andeq	r0, r7, r0
    1a1c:	38000200 	stmdacc	r0, {r9}
    1a20:	0008a89f 	muleq	r8, pc, r8	; <UNPREDICTABLE>
    1a24:	0008bc00 	andeq	fp, r8, r0, lsl #24
    1a28:	38000200 	stmdacc	r0, {r9}
    1a2c:	0009109f 	muleq	r9, pc, r0	; <UNPREDICTABLE>
    1a30:	00092000 	andeq	r2, r9, r0
    1a34:	38000200 	stmdacc	r0, {r9}
    1a38:	0000009f 	muleq	r0, pc, r0	; <UNPREDICTABLE>
    1a3c:	00000000 	andeq	r0, r0, r0
    1a40:	07070400 	streq	r0, [r7, -r0, lsl #8]
	...
    1a4c:	fc000000 	stc2	0, cr0, [r0], {-0}
    1a50:	fc000005 	stc2	0, cr0, [r0], {5}
    1a54:	04000005 	streq	r0, [r0], #-5
    1a58:	7ed09100 	atnvcs	f1, f0
    1a5c:	0005fc9f 	muleq	r5, pc, ip	; <UNPREDICTABLE>
    1a60:	00067800 	andeq	r7, r6, r0, lsl #16
    1a64:	91000400 	tstls	r0, r0, lsl #8
    1a68:	789f7ed1 	ldmvc	pc, {r0, r4, r6, r7, r9, sl, fp, ip, sp, lr}	; <UNPREDICTABLE>
    1a6c:	d4000006 	strle	r0, [r0], #-6
    1a70:	01000006 	tsteq	r0, r6
    1a74:	06d45c00 	ldrbeq	r5, [r4], r0, lsl #24
    1a78:	07000000 	streq	r0, [r0, -r0]
    1a7c:	00040000 	andeq	r0, r4, r0
    1a80:	9f7ed191 	svcls	0x007ed191
    1a84:	000008a8 	andeq	r0, r0, r8, lsr #17
    1a88:	000008bc 			; <UNDEFINED> instruction: 0x000008bc
    1a8c:	d1910004 	orrsle	r0, r1, r4
    1a90:	09109f7e 	ldmdbeq	r0, {r1, r2, r3, r4, r5, r6, r8, r9, sl, fp, ip, pc}
    1a94:	09140000 	ldmdbeq	r4, {}	; <UNPREDICTABLE>
    1a98:	00040000 	andeq	r0, r4, r0
    1a9c:	9f7ed191 	svcls	0x007ed191
    1aa0:	00000914 	andeq	r0, r0, r4, lsl r9
    1aa4:	00000920 	andeq	r0, r0, r0, lsr #18
    1aa8:	005c0001 	subseq	r0, ip, r1
    1aac:	00000000 	andeq	r0, r0, r0
    1ab0:	04000000 	streq	r0, [r0], #-0
    1ab4:	00010001 	andeq	r0, r1, r1
    1ab8:	00060800 	andeq	r0, r6, r0, lsl #16
    1abc:	0006d000 	andeq	sp, r6, r0
    1ac0:	55000100 	strpl	r0, [r0, #-256]	; 0xffffff00
    1ac4:	000008a8 	andeq	r0, r0, r8, lsr #17
    1ac8:	000008b8 			; <UNDEFINED> instruction: 0x000008b8
    1acc:	10550001 	subsne	r0, r5, r1
    1ad0:	20000009 	andcs	r0, r0, r9
    1ad4:	01000009 	tsteq	r0, r9
    1ad8:	00005500 	andeq	r5, r0, r0, lsl #10
    1adc:	00000000 	andeq	r0, r0, r0
    1ae0:	00040000 	andeq	r0, r4, r0
    1ae4:	01000000 	mrseq	r0, (UNDEF: 0)
    1ae8:	01000000 	mrseq	r0, (UNDEF: 0)
    1aec:	06080000 	streq	r0, [r8], -r0
    1af0:	06b00000 	ldrteq	r0, [r0], r0
    1af4:	00040000 	andeq	r0, r4, r0
    1af8:	9f7ed091 	svcls	0x007ed091
    1afc:	000006b0 			; <UNDEFINED> instruction: 0x000006b0
    1b00:	000006c8 	andeq	r0, r0, r8, asr #13
    1b04:	c8500001 	ldmdagt	r0, {r0}^
    1b08:	d0000006 	andle	r0, r0, r6
    1b0c:	04000006 	streq	r0, [r0], #-6
    1b10:	7ed09100 	atnvcs	f1, f0
    1b14:	0008a89f 	muleq	r8, pc, r8	; <UNPREDICTABLE>
    1b18:	0008b000 	andeq	fp, r8, r0
    1b1c:	91000400 	tstls	r0, r0, lsl #8
    1b20:	b09f7ed0 			; <UNDEFINED> instruction: 0xb09f7ed0
    1b24:	b8000008 	stmdalt	r0, {r3}
    1b28:	01000008 	tsteq	r0, r8
    1b2c:	09105300 	ldmdbeq	r0, {r8, r9, ip, lr}
    1b30:	09200000 	stmdbeq	r0!, {}	; <UNPREDICTABLE>
    1b34:	00040000 	andeq	r0, r4, r0
    1b38:	9f7ed091 	svcls	0x007ed091
	...
    1b44:	01000004 	tsteq	r0, r4
    1b48:	03010101 	movweq	r0, #4353	; 0x1101
    1b4c:	01000203 	tsteq	r0, r3, lsl #4
    1b50:	00000000 	andeq	r0, r0, r0
    1b54:	00000608 	andeq	r0, r0, r8, lsl #12
    1b58:	00000624 	andeq	r0, r0, r4, lsr #12
    1b5c:	d1910004 	orrsle	r0, r1, r4
    1b60:	06849f7e 			; <UNDEFINED> instruction: 0x06849f7e
    1b64:	06840000 	streq	r0, [r4], r0
    1b68:	00010000 	andeq	r0, r1, r0
    1b6c:	00068450 	andeq	r8, r6, r0, asr r4
    1b70:	00069800 	andeq	r9, r6, r0, lsl #16
    1b74:	70000300 	andvc	r0, r0, r0, lsl #6
    1b78:	06989f01 	ldreq	r9, [r8], r1, lsl #30
    1b7c:	06a40000 	strteq	r0, [r4], r0
    1b80:	00030000 	andeq	r0, r3, r0
    1b84:	a49f0270 	ldrge	r0, [pc], #624	; 1b8c <__code_start__-0x6474>
    1b88:	a8000006 	stmdage	r0, {r1, r2}
    1b8c:	03000006 	movweq	r0, #6
    1b90:	9f037000 	svcls	0x00037000
    1b94:	000008a8 	andeq	r0, r0, r8, lsr #17
    1b98:	000008b8 			; <UNDEFINED> instruction: 0x000008b8
    1b9c:	d1910004 	orrsle	r0, r1, r4
    1ba0:	09109f7e 	ldmdbeq	r0, {r1, r2, r3, r4, r5, r6, r8, r9, sl, fp, ip, pc}
    1ba4:	09140000 	ldmdbeq	r4, {}	; <UNPREDICTABLE>
    1ba8:	00040000 	andeq	r0, r4, r0
    1bac:	9f7ed191 	svcls	0x007ed191
    1bb0:	00000914 	andeq	r0, r0, r4, lsl r9
    1bb4:	00000920 	andeq	r0, r0, r0, lsr #18
    1bb8:	005c0001 	subseq	r0, ip, r1
    1bbc:	00000000 	andeq	r0, r0, r0
    1bc0:	06000000 	streq	r0, [r0], -r0
    1bc4:	01010000 	mrseq	r0, (UNDEF: 1)
    1bc8:	01010101 	tsteq	r1, r1, lsl #2
    1bcc:	00010002 	andeq	r0, r1, r2
    1bd0:	00060800 	andeq	r0, r6, r0, lsl #16
    1bd4:	00062400 	andeq	r2, r6, r0, lsl #8
    1bd8:	31000200 	mrscc	r0, R8_usr
    1bdc:	0006849f 	muleq	r6, pc, r4	; <UNPREDICTABLE>
    1be0:	00069400 	andeq	r9, r6, r0, lsl #8
    1be4:	52000100 	andpl	r0, r0, #0
    1be8:	00000694 	muleq	r0, r4, r6
    1bec:	000006a4 	andeq	r0, r0, r4, lsr #13
    1bf0:	a4590001 	ldrbge	r0, [r9], #-1
    1bf4:	a8000006 	stmdage	r0, {r1, r2}
    1bf8:	01000006 	tsteq	r0, r6
    1bfc:	06a85200 	strteq	r5, [r8], r0, lsl #4
    1c00:	06a80000 	strteq	r0, [r8], r0
    1c04:	00030000 	andeq	r0, r3, r0
    1c08:	a89f0172 	ldmge	pc, {r1, r4, r5, r6, r8}	; <UNPREDICTABLE>
    1c0c:	b8000008 	stmdalt	r0, {r3}
    1c10:	02000008 	andeq	r0, r0, #8, 0
    1c14:	109f3100 	addsne	r3, pc, r0, lsl #2
    1c18:	20000009 	andcs	r0, r0, r9
    1c1c:	02000009 	andeq	r0, r0, #9, 0
    1c20:	009f3100 	addseq	r3, pc, r0, lsl #2
    1c24:	00000000 	andeq	r0, r0, r0
    1c28:	01000000 	mrseq	r0, (UNDEF: 0)
    1c2c:	01000606 	tsteq	r0, r6, lsl #12
    1c30:	0006d000 	andeq	sp, r6, r0
    1c34:	0006d000 	andeq	sp, r6, r0
    1c38:	91000400 	tstls	r0, r0, lsl #8
    1c3c:	d09f7ed0 			; <UNDEFINED> instruction: 0xd09f7ed0
    1c40:	00000006 	andeq	r0, r0, r6
    1c44:	01000007 	tsteq	r0, r7
    1c48:	08b85000 	ldmeq	r8!, {ip, lr}
    1c4c:	08bc0000 	ldmeq	ip!, {}	; <UNPREDICTABLE>
    1c50:	00010000 	andeq	r0, r1, r0
    1c54:	00000053 	andeq	r0, r0, r3, asr r0
    1c58:	00000000 	andeq	r0, r0, r0
    1c5c:	00080100 	andeq	r0, r8, r0, lsl #2
    1c60:	01010000 	mrseq	r0, (UNDEF: 1)
    1c64:	d0070100 	andle	r0, r7, r0, lsl #2
    1c68:	d0000006 	andle	r0, r0, r6
    1c6c:	06000006 	streq	r0, [r0], -r6
    1c70:	71007c00 	tstvc	r0, r0, lsl #24
    1c74:	e49f2200 	ldr	r2, [pc], #512	; 1c7c <__code_start__-0x6384>
    1c78:	e8000006 	stmda	r0, {r1, r2}
    1c7c:	03000006 	movweq	r0, #6
    1c80:	9f7f7300 	svcls	0x007f7300
    1c84:	000006e8 	andeq	r0, r0, r8, ror #13
    1c88:	000006f0 	strdeq	r0, [r0], -r0	; <UNPREDICTABLE>
    1c8c:	f0530001 			; <UNDEFINED> instruction: 0xf0530001
    1c90:	f8000006 			; <UNDEFINED> instruction: 0xf8000006
    1c94:	03000006 	movweq	r0, #6
    1c98:	9f7f7300 	svcls	0x007f7300
    1c9c:	000008b8 			; <UNDEFINED> instruction: 0x000008b8
    1ca0:	000008b8 			; <UNDEFINED> instruction: 0x000008b8
    1ca4:	d1910004 	orrsle	r0, r1, r4
    1ca8:	00009f7e 	andeq	r9, r0, lr, ror pc
    1cac:	00000000 	andeq	r0, r0, r0
    1cb0:	00010000 	andeq	r0, r1, r0
    1cb4:	06d00001 	ldrbeq	r0, [r0], r1
    1cb8:	07000000 	streq	r0, [r0, -r0]
    1cbc:	00030000 	andeq	r0, r3, r0
    1cc0:	b89f8008 	ldmlt	pc, {r3, pc}	; <UNPREDICTABLE>
    1cc4:	bc000008 	stclt	0, cr0, [r0], {8}
    1cc8:	03000008 	movweq	r0, #8
    1ccc:	9f800800 	svcls	0x00800800
	...
    1cd8:	00000001 	andeq	r0, r0, r1
    1cdc:	00010100 	andeq	r0, r1, r0, lsl #2
    1ce0:	01020000 	mrseq	r0, (UNDEF: 2)
    1ce4:	06d00001 	ldrbeq	r0, [r0], r1
    1ce8:	06e00000 	strbteq	r0, [r0], r0
    1cec:	00040000 	andeq	r0, r4, r0
    1cf0:	9f7dd091 	svcls	0x007dd091
    1cf4:	000006e0 	andeq	r0, r0, r0, ror #13
    1cf8:	000006e4 	andeq	r0, r0, r4, ror #13
    1cfc:	e4550001 	ldrb	r0, [r5], #-1
    1d00:	e4000006 	str	r0, [r0], #-6
    1d04:	03000006 	movweq	r0, #6
    1d08:	9f017200 	svcls	0x00017200
    1d0c:	000006e4 	andeq	r0, r0, r4, ror #13
    1d10:	000006f0 	strdeq	r0, [r0], -r0	; <UNPREDICTABLE>
    1d14:	02720003 	rsbseq	r0, r2, #3, 0
    1d18:	0006f09f 	muleq	r6, pc, r0	; <UNPREDICTABLE>
    1d1c:	00070000 	andeq	r0, r7, r0
    1d20:	72000300 	andvc	r0, r0, #0, 6
    1d24:	07ec9f01 	strbeq	r9, [ip, r1, lsl #30]!
    1d28:	07f40000 	ldrbeq	r0, [r4, r0]!
    1d2c:	00030000 	andeq	r0, r3, r0
    1d30:	b89f0173 	ldmlt	pc, {r0, r1, r4, r5, r6, r8}	; <UNPREDICTABLE>
    1d34:	bc000008 	stclt	0, cr0, [r0], {8}
    1d38:	04000008 	streq	r0, [r0], #-8
    1d3c:	7dd09100 	ldfvcp	f1, [r0]
    1d40:	0000009f 	muleq	r0, pc, r0	; <UNPREDICTABLE>
    1d44:	00000000 	andeq	r0, r0, r0
    1d48:	b8000400 	stmdalt	r0, {sl}
    1d4c:	bc000008 	stclt	0, cr0, [r0], {8}
    1d50:	02000008 	andeq	r0, r0, #8, 0
    1d54:	009f3200 	addseq	r3, pc, r0, lsl #4
    1d58:	00000000 	andeq	r0, r0, r0
    1d5c:	07000000 	streq	r0, [r0, -r0]
    1d60:	06000000 	streq	r0, [r0], -r0
    1d64:	0006d000 	andeq	sp, r6, r0
    1d68:	0006e000 	andeq	lr, r6, r0
    1d6c:	91000400 	tstls	r0, r0, lsl #8
    1d70:	e09f7dd0 			; <UNDEFINED> instruction: 0xe09f7dd0
    1d74:	00000006 	andeq	r0, r0, r6
    1d78:	01000007 	tsteq	r0, r7
    1d7c:	08b85500 	ldmeq	r8!, {r8, sl, ip, lr}
    1d80:	08bc0000 	ldmeq	ip!, {}	; <UNPREDICTABLE>
    1d84:	00040000 	andeq	r0, r4, r0
    1d88:	9f7dd091 	svcls	0x007dd091
	...
    1d94:	00000001 	andeq	r0, r0, r1
    1d98:	0000070c 	andeq	r0, r0, ip, lsl #14
    1d9c:	000007ec 	andeq	r0, r0, ip, ror #15
    1da0:	80080003 	andhi	r0, r8, r3
    1da4:	0008949f 	muleq	r8, pc, r4	; <UNPREDICTABLE>
    1da8:	0008a800 	andeq	sl, r8, r0, lsl #16
    1dac:	08000300 	stmdaeq	r0, {r8, r9}
    1db0:	00009f80 	andeq	r9, r0, r0, lsl #31
	...
    1dbc:	070c0000 	streq	r0, [ip, -r0]
    1dc0:	07ec0000 	strbeq	r0, [ip, r0]!
    1dc4:	00020000 	andeq	r0, r2, r0
    1dc8:	08949f30 	ldmeq	r4, {r4, r5, r8, r9, sl, fp, ip, pc}
    1dcc:	08a80000 	stmiaeq	r8!, {}	; <UNPREDICTABLE>
    1dd0:	00020000 	andeq	r0, r2, r0
    1dd4:	00009f30 	andeq	r9, r0, r0, lsr pc
	...
    1de0:	070c0000 	streq	r0, [ip, -r0]
    1de4:	07d00000 	ldrbeq	r0, [r0, r0]
    1de8:	00010000 	andeq	r0, r1, r0
    1dec:	00089455 	andeq	r9, r8, r5, asr r4
    1df0:	0008a800 	andeq	sl, r8, r0, lsl #16
    1df4:	55000100 	strpl	r0, [r0, #-256]	; 0xffffff00
	...
    1e04:	070c0000 	streq	r0, [ip, -r0]
    1e08:	07d00000 	ldrbeq	r0, [r0, r0]
    1e0c:	00040000 	andeq	r0, r4, r0
    1e10:	9f7dd091 	svcls	0x007dd091
    1e14:	000007d0 	ldrdeq	r0, [r0], -r0	; <UNPREDICTABLE>
    1e18:	000007ec 	andeq	r0, r0, ip, ror #15
    1e1c:	94550001 	ldrbls	r0, [r5], #-1
    1e20:	a8000008 	stmdage	r0, {r3}
    1e24:	04000008 	streq	r0, [r0], #-8
    1e28:	7dd09100 	ldfvcp	f1, [r0]
    1e2c:	0000009f 	muleq	r0, pc, r0	; <UNPREDICTABLE>
	...
    1e38:	00070c00 	andeq	r0, r7, r0, lsl #24
    1e3c:	0007ec00 	andeq	lr, r7, r0, lsl #24
    1e40:	32000200 	andcc	r0, r0, #0, 4
    1e44:	0008949f 	muleq	r8, pc, r4	; <UNPREDICTABLE>
    1e48:	0008a800 	andeq	sl, r8, r0, lsl #16
    1e4c:	32000200 	andcc	r0, r0, #0, 4
    1e50:	0000009f 	muleq	r0, pc, r0	; <UNPREDICTABLE>
    1e54:	00000000 	andeq	r0, r0, r0
    1e58:	05050300 	streq	r0, [r5, #-768]	; 0xfffffd00
    1e5c:	00000000 	andeq	r0, r0, r0
    1e60:	0c000000 	stceq	0, cr0, [r0], {-0}
    1e64:	0c000007 	stceq	0, cr0, [r0], {7}
    1e68:	01000007 	tsteq	r0, r7
    1e6c:	070c5100 	streq	r5, [ip, -r0, lsl #2]
    1e70:	071c0000 	ldreq	r0, [ip, -r0]
    1e74:	00010000 	andeq	r0, r1, r0
    1e78:	00071c53 	andeq	r1, r7, r3, asr ip
    1e7c:	00072400 	andeq	r2, r7, r0, lsl #8
    1e80:	72000300 	andvc	r0, r0, #0, 6
    1e84:	07249f01 	streq	r9, [r4, -r1, lsl #30]!
    1e88:	07cc0000 	strbeq	r0, [ip, r0]
    1e8c:	00010000 	andeq	r0, r1, r0
    1e90:	00089453 	andeq	r9, r8, r3, asr r4
    1e94:	0008a800 	andeq	sl, r8, r0, lsl #16
    1e98:	53000100 	movwpl	r0, #256	; 0x100
	...
    1ea4:	00010005 	andeq	r0, r1, r5
    1ea8:	0000070c 	andeq	r0, r0, ip, lsl #14
    1eac:	00000720 	andeq	r0, r0, r0, lsr #14
    1eb0:	24500001 	ldrbcs	r0, [r0], #-1
    1eb4:	2c000007 	stccs	0, cr0, [r0], {7}
    1eb8:	01000007 	tsteq	r0, r7
    1ebc:	00005000 	andeq	r5, r0, r0
    1ec0:	00000000 	andeq	r0, r0, r0
    1ec4:	01030000 	mrseq	r0, (UNDEF: 3)
    1ec8:	07280100 	streq	r0, [r8, -r0, lsl #2]!
    1ecc:	07b00000 	ldreq	r0, [r0, r0]!
    1ed0:	00010000 	andeq	r0, r1, r0
    1ed4:	00089455 	andeq	r9, r8, r5, asr r4
    1ed8:	0008a000 	andeq	sl, r8, r0
    1edc:	55000100 	strpl	r0, [r0, #-256]	; 0xffffff00
	...
    1ee8:	01000103 	tsteq	r0, r3, lsl #2
    1eec:	00000728 	andeq	r0, r0, r8, lsr #14
    1ef0:	000007b0 			; <UNDEFINED> instruction: 0x000007b0
    1ef4:	94510001 	ldrbls	r0, [r1], #-1
    1ef8:	a0000008 	andge	r0, r0, r8
    1efc:	01000008 	tsteq	r0, r8
    1f00:	00005100 	andeq	r5, r0, r0, lsl #2
    1f04:	00000000 	andeq	r0, r0, r0
    1f08:	00030000 	andeq	r0, r3, r0
    1f0c:	01010100 	mrseq	r0, (UNDEF: 17)
    1f10:	02030301 	andeq	r0, r3, #67108864	; 0x4000000
    1f14:	07280100 	streq	r0, [r8, -r0, lsl #2]!
    1f18:	07500000 	ldrbeq	r0, [r0, -r0]
    1f1c:	00010000 	andeq	r0, r1, r0
    1f20:	00077453 	andeq	r7, r7, r3, asr r4
    1f24:	00077400 	andeq	r7, r7, r0, lsl #8
    1f28:	5e000100 	adfpls	f0, f0, f0
    1f2c:	00000774 	andeq	r0, r0, r4, ror r7
    1f30:	00000788 	andeq	r0, r0, r8, lsl #15
    1f34:	017e0003 	cmneq	lr, r3
    1f38:	0007889f 	muleq	r7, pc, r8	; <UNPREDICTABLE>
    1f3c:	00079400 	andeq	r9, r7, r0, lsl #8
    1f40:	7e000300 	cdpvc	3, 0, cr0, cr0, cr0, {0}
    1f44:	07949f02 	ldreq	r9, [r4, r2, lsl #30]
    1f48:	07980000 	ldreq	r0, [r8, r0]
    1f4c:	00030000 	andeq	r0, r3, r0
    1f50:	949f037e 	ldrls	r0, [pc], #894	; 1f58 <__code_start__-0x60a8>
    1f54:	a0000008 	andge	r0, r0, r8
    1f58:	01000008 	tsteq	r0, r8
    1f5c:	00005300 	andeq	r5, r0, r0, lsl #6
	...
    1f68:	01010100 	mrseq	r0, (UNDEF: 17)
    1f6c:	02010101 	andeq	r0, r1, #1073741824	; 0x40000000
    1f70:	072c0100 	streq	r0, [ip, -r0, lsl #2]!
    1f74:	07500000 	ldrbeq	r0, [r0, -r0]
    1f78:	00010000 	andeq	r0, r1, r0
    1f7c:	00077450 	andeq	r7, r7, r0, asr r4
    1f80:	00078400 	andeq	r8, r7, r0, lsl #8
    1f84:	50000100 	andpl	r0, r0, r0, lsl #2
    1f88:	00000784 	andeq	r0, r0, r4, lsl #15
    1f8c:	00000794 	muleq	r0, r4, r7
    1f90:	945b0001 	ldrbls	r0, [fp], #-1
    1f94:	98000007 	stmdals	r0, {r0, r1, r2}
    1f98:	01000007 	tsteq	r0, r7
    1f9c:	07985000 	ldreq	r5, [r8, r0]
    1fa0:	07980000 	ldreq	r0, [r8, r0]
    1fa4:	00030000 	andeq	r0, r3, r0
    1fa8:	949f0170 	ldrls	r0, [pc], #368	; 1fb0 <__code_start__-0x6050>
    1fac:	a0000008 	andge	r0, r0, r8
    1fb0:	01000008 	tsteq	r0, r8
    1fb4:	00005000 	andeq	r5, r0, r0
    1fb8:	00000000 	andeq	r0, r0, r0
    1fbc:	00010000 	andeq	r0, r1, r0
    1fc0:	07b00001 	ldreq	r0, [r0, r1]!
    1fc4:	07ec0000 	strbeq	r0, [ip, r0]!
    1fc8:	00010000 	andeq	r0, r1, r0
    1fcc:	0008a051 	andeq	sl, r8, r1, asr r0
    1fd0:	0008a800 	andeq	sl, r8, r0, lsl #16
    1fd4:	51000100 	mrspl	r0, (UNDEF: 16)
	...
    1fe0:	00000001 	andeq	r0, r0, r1
    1fe4:	00010100 	andeq	r0, r1, r0, lsl #2
    1fe8:	07b00001 	ldreq	r0, [r0, r1]!
    1fec:	07b40000 	ldreq	r0, [r4, r0]!
    1ff0:	00060000 	andeq	r0, r6, r0
    1ff4:	007c0073 	rsbseq	r0, ip, r3, ror r0
    1ff8:	07d49f22 	ldrbeq	r9, [r4, r2, lsr #30]
    1ffc:	07d80000 	ldrbeq	r0, [r8, r0]
    2000:	00030000 	andeq	r0, r3, r0
    2004:	d89f7f73 	ldmle	pc, {r0, r1, r4, r5, r6, r8, r9, sl, fp, ip, sp, lr}	; <UNPREDICTABLE>
    2008:	e0000007 	and	r0, r0, r7
    200c:	01000007 	tsteq	r0, r7
    2010:	07e05300 	strbeq	r5, [r0, r0, lsl #6]!
    2014:	07e80000 	strbeq	r0, [r8, r0]!
    2018:	00030000 	andeq	r0, r3, r0
    201c:	a09f7f73 	addsge	r7, pc, r3, ror pc	; <UNPREDICTABLE>
    2020:	a8000008 	stmdage	r0, {r3}
    2024:	01000008 	tsteq	r0, r8
    2028:	00005300 	andeq	r5, r0, r0, lsl #6
    202c:	00000000 	andeq	r0, r0, r0
    2030:	00010000 	andeq	r0, r1, r0
    2034:	07b00001 	ldreq	r0, [r0, r1]!
    2038:	07ec0000 	strbeq	r0, [ip, r0]!
    203c:	00030000 	andeq	r0, r3, r0
    2040:	a09f8008 	addsge	r8, pc, r8
    2044:	a8000008 	stmdage	r0, {r3}
    2048:	03000008 	movweq	r0, #8
    204c:	9f800800 	svcls	0x00800800
	...
    2058:	00000001 	andeq	r0, r0, r1
    205c:	00010100 	andeq	r0, r1, r0, lsl #2
    2060:	00010000 	andeq	r0, r1, r0
    2064:	000007b0 			; <UNDEFINED> instruction: 0x000007b0
    2068:	000007d0 	ldrdeq	r0, [r0], -r0	; <UNPREDICTABLE>
    206c:	d0910004 	addsle	r0, r1, r4
    2070:	07d09f7d 			; <UNDEFINED> instruction: 0x07d09f7d
    2074:	07d40000 	ldrbeq	r0, [r4, r0]
    2078:	00010000 	andeq	r0, r1, r0
    207c:	0007d455 	andeq	sp, r7, r5, asr r4
    2080:	0007d400 	andeq	sp, r7, r0, lsl #8
    2084:	7c000300 	stcvc	3, cr0, [r0], {-0}
    2088:	07d49f01 	ldrbeq	r9, [r4, r1, lsl #30]
    208c:	07e00000 	strbeq	r0, [r0, r0]!
    2090:	00030000 	andeq	r0, r3, r0
    2094:	e09f027c 	adds	r0, pc, ip, ror r2	; <UNPREDICTABLE>
    2098:	ec000007 	stc	0, cr0, [r0], {7}
    209c:	03000007 	movweq	r0, #7
    20a0:	9f017c00 	svcls	0x00017c00
    20a4:	000008a0 	andeq	r0, r0, r0, lsr #17
    20a8:	000008a8 	andeq	r0, r0, r8, lsr #17
    20ac:	d0910004 	addsle	r0, r1, r4
    20b0:	00009f7d 	andeq	r9, r0, sp, ror pc
    20b4:	00000000 	andeq	r0, r0, r0
    20b8:	00040000 	andeq	r0, r4, r0
    20bc:	07b00004 	ldreq	r0, [r0, r4]!
    20c0:	07b40000 	ldreq	r0, [r4, r0]!
    20c4:	00030000 	andeq	r0, r3, r0
    20c8:	a09f0170 	addsge	r0, pc, r0, ror r1	; <UNPREDICTABLE>
    20cc:	a8000008 	stmdage	r0, {r3}
    20d0:	03000008 	movweq	r0, #8
    20d4:	9f017000 	svcls	0x00017000
	...
    20e0:	00000001 	andeq	r0, r0, r1
    20e4:	000007bc 			; <UNDEFINED> instruction: 0x000007bc
    20e8:	000007d0 	ldrdeq	r0, [r0], -r0	; <UNPREDICTABLE>
    20ec:	d0910004 	addsle	r0, r1, r4
    20f0:	07d09f7d 			; <UNDEFINED> instruction: 0x07d09f7d
    20f4:	07ec0000 	strbeq	r0, [ip, r0]!
    20f8:	00010000 	andeq	r0, r1, r0
    20fc:	00000055 	andeq	r0, r0, r5, asr r0
	...
    2108:	00032800 	andeq	r2, r3, r0, lsl #16
    210c:	00036400 	andeq	r6, r3, r0, lsl #8
    2110:	50000100 	andpl	r0, r0, r0, lsl #2
    2114:	00000364 	andeq	r0, r0, r4, ror #6
    2118:	00000388 	andeq	r0, r0, r8, lsl #7
    211c:	01f30004 	mvnseq	r0, r4
    2120:	00009f50 	andeq	r9, r0, r0, asr pc
	...
    212c:	03280000 			; <UNDEFINED> instruction: 0x03280000
    2130:	035c0000 	cmpeq	ip, #0, 0
    2134:	00010000 	andeq	r0, r1, r0
    2138:	00035c51 	andeq	r5, r3, r1, asr ip
    213c:	00038800 	andeq	r8, r3, r0, lsl #16
    2140:	f3000400 	vshl.u8	d0, d0, d0
    2144:	009f5101 	addseq	r5, pc, r1, lsl #2
	...
    2168:	14000000 	strne	r0, [r0], #-0
    216c:	01000000 	mrseq	r0, (UNDEF: 0)
    2170:	00145000 	andseq	r5, r4, r0
    2174:	00200000 	eoreq	r0, r0, r0
    2178:	00010000 	andeq	r0, r1, r0
    217c:	0000205c 	andeq	r2, r0, ip, asr r0
    2180:	00006800 	andeq	r6, r0, r0, lsl #16
    2184:	71000300 	mrsvc	r0, LR_irq
    2188:	00689f02 	rsbeq	r9, r8, r2, lsl #30
    218c:	006c0000 	rsbeq	r0, ip, r0
    2190:	00030000 	andeq	r0, r3, r0
    2194:	6c9f0273 	lfmvs	f0, 4, [pc], {115}	; 0x73
    2198:	94000000 	strls	r0, [r0], #-0
    219c:	04000001 	streq	r0, [r0], #-1
    21a0:	5001f300 	andpl	pc, r1, r0, lsl #6
    21a4:	0001949f 	muleq	r1, pc, r4	; <UNPREDICTABLE>
    21a8:	00019800 	andeq	r9, r1, r0, lsl #16
    21ac:	73000300 	movwvc	r0, #768	; 0x300
    21b0:	01989f02 	orrseq	r9, r8, r2, lsl #30
    21b4:	01c00000 	biceq	r0, r0, r0
    21b8:	00040000 	andeq	r0, r4, r0
    21bc:	9f5001f3 	svcls	0x005001f3
    21c0:	000001c0 	andeq	r0, r0, r0, asr #3
    21c4:	000001c8 	andeq	r0, r0, r8, asr #3
    21c8:	c85c0001 	ldmdagt	ip, {r0}^
    21cc:	14000001 	strne	r0, [r0], #-1
    21d0:	03000002 	movweq	r0, #2
    21d4:	9f027300 	svcls	0x00027300
    21d8:	00000214 	andeq	r0, r0, r4, lsl r2
    21dc:	000002ec 	andeq	r0, r0, ip, ror #5
    21e0:	01f30004 	mvnseq	r0, r4
    21e4:	02ec9f50 	rsceq	r9, ip, #80, 30	; 0x140
    21e8:	02f40000 	rscseq	r0, r4, #0, 0
    21ec:	00030000 	andeq	r0, r3, r0
    21f0:	f49f0273 			; <UNDEFINED> instruction: 0xf49f0273
    21f4:	28000002 	stmdacs	r0, {r1}
    21f8:	04000003 	streq	r0, [r0], #-3
    21fc:	5001f300 	andpl	pc, r1, r0, lsl #6
    2200:	0000009f 	muleq	r0, pc, r0	; <UNPREDICTABLE>
	...
    2214:	00001c00 	andeq	r1, r0, r0, lsl #24
    2218:	51000100 	mrspl	r0, (UNDEF: 16)
    221c:	0000001c 	andeq	r0, r0, ip, lsl r0
    2220:	000002e0 	andeq	r0, r0, r0, ror #5
    2224:	e0500001 	subs	r0, r0, r1
    2228:	ec000002 	stc	0, cr0, [r0], {2}
    222c:	04000002 	streq	r0, [r0], #-2
    2230:	5101f300 	mrspl	pc, SP_irq	; <UNPREDICTABLE>
    2234:	0002ec9f 	muleq	r2, pc, ip	; <UNPREDICTABLE>
    2238:	00032800 	andeq	r2, r3, r0, lsl #16
    223c:	50000100 	andpl	r0, r0, r0, lsl #2
	...
    224c:	00000100 	andeq	r0, r0, r0, lsl #2
    2250:	00000000 	andeq	r0, r0, r0
    2254:	00020200 	andeq	r0, r2, r0, lsl #4
	...
    226c:	00000070 	andeq	r0, r0, r0, ror r0
    2270:	70520001 	subsvc	r0, r2, r1
    2274:	78000000 	stmdavc	r0, {}	; <UNPREDICTABLE>
    2278:	01000000 	mrseq	r0, (UNDEF: 0)
    227c:	00785c00 	rsbseq	r5, r8, r0, lsl #24
    2280:	00a40000 	adceq	r0, r4, r0
    2284:	00040000 	andeq	r0, r4, r0
    2288:	9f5201f3 	svcls	0x005201f3
    228c:	00000194 	muleq	r0, r4, r1
    2290:	0000019c 	muleq	r0, ip, r1
    2294:	9c520001 	mrrcls	0, 0, r0, r2, cr1
    2298:	a4000001 	strge	r0, [r0], #-1
    229c:	01000001 	tsteq	r0, r1
    22a0:	01a45c00 			; <UNDEFINED> instruction: 0x01a45c00
    22a4:	01c00000 	biceq	r0, r0, r0
    22a8:	00040000 	andeq	r0, r4, r0
    22ac:	9f5201f3 	svcls	0x005201f3
    22b0:	000001c0 	andeq	r0, r0, r0, asr #3
    22b4:	00000220 	andeq	r0, r0, r0, lsr #4
    22b8:	20520001 	subscs	r0, r2, r1
    22bc:	28000002 	stmdacs	r0, {r1}
    22c0:	04000002 	streq	r0, [r0], #-2
    22c4:	1f007200 	svcne	0x00007200
    22c8:	0002289f 	muleq	r2, pc, r8	; <UNPREDICTABLE>
    22cc:	00027400 	andeq	r7, r2, r0, lsl #8
    22d0:	f3000500 	vrshl.u8	d0, d0, d0
    22d4:	9f1f5201 	svcls	0x001f5201
    22d8:	00000274 	andeq	r0, r0, r4, ror r2
    22dc:	00000288 	andeq	r0, r0, r8, lsl #5
    22e0:	88520001 	ldmdahi	r2, {r0}^
    22e4:	a0000002 	andge	r0, r0, r2
    22e8:	01000002 	tsteq	r0, r2
    22ec:	02cc5c00 	sbceq	r5, ip, #0, 24
    22f0:	02d00000 	sbcseq	r0, r0, #0, 0
    22f4:	00010000 	andeq	r0, r1, r0
    22f8:	0002d052 	andeq	sp, r2, r2, asr r0
    22fc:	0002e700 	andeq	lr, r2, r0, lsl #14
    2300:	5c000100 	stfpls	f0, [r0], {-0}
    2304:	000002e7 	andeq	r0, r0, r7, ror #5
    2308:	000002ec 	andeq	r0, r0, ip, ror #5
    230c:	01f30004 	mvnseq	r0, r4
    2310:	02ec9f52 	rsceq	r9, ip, #328	; 0x148
    2314:	03000000 	movweq	r0, #0
    2318:	00010000 	andeq	r0, r1, r0
    231c:	00030052 	andeq	r0, r3, r2, asr r0
    2320:	00032800 	andeq	r2, r3, r0, lsl #16
    2324:	5c000100 	stfpls	f0, [r0], {-0}
	...
    2340:	00680000 	rsbeq	r0, r8, r0
    2344:	00010000 	andeq	r0, r1, r0
    2348:	00006853 	andeq	r6, r0, r3, asr r8
    234c:	00006c00 	andeq	r6, r0, r0, lsl #24
    2350:	08000300 	stmdaeq	r0, {r8, r9}
    2354:	01949f7f 	orrseq	r9, r4, pc, ror pc
    2358:	01980000 	orrseq	r0, r8, r0
    235c:	00030000 	andeq	r0, r3, r0
    2360:	c09f7f08 	addsgt	r7, pc, r8, lsl #30
    2364:	14000001 	strne	r0, [r0], #-1
    2368:	03000002 	movweq	r0, #2
    236c:	9f7f0800 	svcls	0x007f0800
    2370:	00000274 	andeq	r0, r0, r4, ror r2
    2374:	00000290 	muleq	r0, r0, r2
    2378:	90530001 	subsls	r0, r3, r1
    237c:	a0000002 	andge	r0, r0, r2
    2380:	04000002 	streq	r0, [r0], #-2
    2384:	5301f300 	movwpl	pc, #4864	; 0x1300	; <UNPREDICTABLE>
    2388:	0002ec9f 	muleq	r2, pc, ip	; <UNPREDICTABLE>
    238c:	00032800 	andeq	r2, r3, r0, lsl #16
    2390:	08000300 	stmdaeq	r0, {r8, r9}
    2394:	00009f7f 	andeq	r9, r0, pc, ror pc
    2398:	00000000 	andeq	r0, r0, r0
    239c:	00010000 	andeq	r0, r1, r0
    23a0:	02000000 	andeq	r0, r0, #0, 0
    23a4:	01000002 	tsteq	r0, r2
    23a8:	00000001 	andeq	r0, r0, r1
    23ac:	00000000 	andeq	r0, r0, r0
    23b0:	00020200 	andeq	r0, r2, r0, lsl #4
    23b4:	00010000 	andeq	r0, r1, r0
    23b8:	00000000 	andeq	r0, r0, r0
    23bc:	01000000 	mrseq	r0, (UNDEF: 0)
    23c0:	00000001 	andeq	r0, r0, r1
    23c4:	00020200 	andeq	r0, r2, r0, lsl #4
    23c8:	00000000 	andeq	r0, r0, r0
    23cc:	00010100 	andeq	r0, r1, r0, lsl #2
    23d0:	00180000 	andseq	r0, r8, r0
    23d4:	00700000 	rsbseq	r0, r0, r0
    23d8:	00040000 	andeq	r0, r4, r0
    23dc:	9f7fa091 	svcls	0x007fa091
    23e0:	00000070 	andeq	r0, r0, r0, ror r0
    23e4:	00000078 	andeq	r0, r0, r8, ror r0
    23e8:	78520001 	ldmdavc	r2, {r0}^
    23ec:	78000000 	stmdavc	r0, {}	; <UNPREDICTABLE>
    23f0:	01000000 	mrseq	r0, (UNDEF: 0)
    23f4:	00785400 	rsbseq	r5, r8, r0, lsl #8
    23f8:	00880000 	addeq	r0, r8, r0
    23fc:	00030000 	andeq	r0, r3, r0
    2400:	889f0174 	ldmhi	pc, {r2, r4, r5, r6, r8}	; <UNPREDICTABLE>
    2404:	90000000 	andls	r0, r0, r0
    2408:	01000000 	mrseq	r0, (UNDEF: 0)
    240c:	00905400 	addseq	r5, r0, r0, lsl #8
    2410:	00a00000 	adceq	r0, r0, r0
    2414:	00030000 	andeq	r0, r3, r0
    2418:	a09f0274 	addsge	r0, pc, r4, ror r2	; <UNPREDICTABLE>
    241c:	b0000000 	andlt	r0, r0, r0
    2420:	01000000 	mrseq	r0, (UNDEF: 0)
    2424:	01945e00 	orrseq	r5, r4, r0, lsl #28
    2428:	019c0000 	orrseq	r0, ip, r0
    242c:	00040000 	andeq	r0, r4, r0
    2430:	9f7fa091 	svcls	0x007fa091
    2434:	0000019c 	muleq	r0, ip, r1
    2438:	000001a4 	andeq	r0, r0, r4, lsr #3
    243c:	a4520001 	ldrbge	r0, [r2], #-1
    2440:	a4000001 	strge	r0, [r0], #-1
    2444:	01000001 	tsteq	r0, r1
    2448:	01a45e00 			; <UNDEFINED> instruction: 0x01a45e00
    244c:	01b40000 			; <UNDEFINED> instruction: 0x01b40000
    2450:	00030000 	andeq	r0, r3, r0
    2454:	b49f017e 	ldrlt	r0, [pc], #382	; 245c <__code_start__-0x5ba4>
    2458:	c0000001 	andgt	r0, r0, r1
    245c:	01000001 	tsteq	r0, r1
    2460:	01c05e00 	biceq	r5, r0, r0, lsl #28
    2464:	02280000 	eoreq	r0, r8, #0, 0
    2468:	00040000 	andeq	r0, r4, r0
    246c:	9f7fa091 	svcls	0x007fa091
    2470:	00000228 	andeq	r0, r0, r8, lsr #4
    2474:	00000234 	andeq	r0, r0, r4, lsr r2
    2478:	34520001 	ldrbcc	r0, [r2], #-1
    247c:	58000002 	stmdapl	r0, {r1}
    2480:	01000002 	tsteq	r0, r2
    2484:	02585e00 	subseq	r5, r8, #0, 28
    2488:	025c0000 	subseq	r0, ip, #0, 0
    248c:	00030000 	andeq	r0, r3, r0
    2490:	5c9f017e 	ldfpls	f0, [pc], {126}	; 0x7e
    2494:	64000002 	strvs	r0, [r0], #-2
    2498:	01000002 	tsteq	r0, r2
    249c:	02645e00 	rsbeq	r5, r4, #0, 28
    24a0:	02700000 	rsbseq	r0, r0, #0, 0
    24a4:	00030000 	andeq	r0, r3, r0
    24a8:	709f0271 	addsvc	r0, pc, r1, ror r2	; <UNPREDICTABLE>
    24ac:	74000002 	strvc	r0, [r0], #-2
    24b0:	01000002 	tsteq	r0, r2
    24b4:	02745e00 	rsbseq	r5, r4, #0, 28
    24b8:	02740000 	rsbseq	r0, r4, #0, 0
    24bc:	00040000 	andeq	r0, r4, r0
    24c0:	9f7fa091 	svcls	0x007fa091
    24c4:	00000274 	andeq	r0, r0, r4, ror r2
    24c8:	000002a0 	andeq	r0, r0, r0, lsr #5
    24cc:	a1910004 	orrsge	r0, r1, r4
    24d0:	02c09f7f 	sbceq	r9, r0, #508	; 0x1fc
    24d4:	02c80000 	sbceq	r0, r8, #0, 0
    24d8:	00010000 	andeq	r0, r1, r0
    24dc:	0002c85e 	andeq	ip, r2, lr, asr r8
    24e0:	0002cc00 	andeq	ip, r2, r0, lsl #24
    24e4:	56000100 	strpl	r0, [r0], -r0, lsl #2
    24e8:	000002cc 	andeq	r0, r0, ip, asr #5
    24ec:	000002ec 	andeq	r0, r0, ip, ror #5
    24f0:	a0910004 	addsge	r0, r1, r4
    24f4:	02ec9f7f 	rsceq	r9, ip, #508	; 0x1fc
    24f8:	02fc0000 	rscseq	r0, ip, #0, 0
    24fc:	00040000 	andeq	r0, r4, r0
    2500:	9f7fa191 	svcls	0x007fa191
    2504:	000002fc 	strdeq	r0, [r0], -ip
    2508:	00000328 	andeq	r0, r0, r8, lsr #6
    250c:	005e0001 	subseq	r0, lr, r1
	...
    2524:	01010000 	mrseq	r0, (UNDEF: 1)
	...
    2538:	00002000 	andeq	r2, r0, r0
    253c:	00007000 	andeq	r7, r0, r0
    2540:	52000100 	andpl	r0, r0, #0
    2544:	00000070 	andeq	r0, r0, r0, ror r0
    2548:	00000094 	muleq	r0, r4, r0
    254c:	945c0001 	ldrbls	r0, [ip], #-1
    2550:	9c000001 	stcls	0, cr0, [r0], {1}
    2554:	01000001 	tsteq	r0, r1
    2558:	019c5200 	orrseq	r5, ip, r0, lsl #4
    255c:	01c00000 	biceq	r0, r0, r0
    2560:	00010000 	andeq	r0, r1, r0
    2564:	0001c85c 	andeq	ip, r1, ip, asr r8
    2568:	00021000 	andeq	r1, r2, r0
    256c:	5c000100 	stfpls	f0, [r0], {-0}
    2570:	00000210 	andeq	r0, r0, r0, lsl r2
    2574:	00000224 	andeq	r0, r0, r4, lsr #4
    2578:	24520001 	ldrbcs	r0, [r2], #-1
    257c:	48000002 	stmdami	r0, {r1}
    2580:	01000002 	tsteq	r0, r2
    2584:	02485c00 	subeq	r5, r8, #0, 24
    2588:	025c0000 	subseq	r0, ip, #0, 0
    258c:	00010000 	andeq	r0, r1, r0
    2590:	00025c55 	andeq	r5, r2, r5, asr ip
    2594:	00026800 	andeq	r6, r2, r0, lsl #16
    2598:	5c000100 	stfpls	f0, [r0], {-0}
    259c:	00000268 	andeq	r0, r0, r8, ror #4
    25a0:	00000274 	andeq	r0, r0, r4, ror r2
    25a4:	00750019 	rsbseq	r0, r5, r9, lsl r0
    25a8:	25f72cf7 	ldrbcs	r2, [r7, #3319]!	; 0xcf7
    25ac:	2cf70076 	ldclcs	0, cr0, [r7], #472	; 0x1d8
    25b0:	081e25f7 	ldmdaeq	lr, {r0, r1, r2, r4, r5, r6, r7, r8, sl, sp}
    25b4:	2525f720 	strcs	pc, [r5, #-1824]!	; 0xfffff8e0
    25b8:	00f72cf7 	ldrshteq	r2, [r7], #199	; 0xc7
    25bc:	749f2533 	ldrvc	r2, [pc], #1331	; 25c4 <__code_start__-0x5a3c>
    25c0:	88000002 	stmdahi	r0, {r1}
    25c4:	01000002 	tsteq	r0, r2
    25c8:	02885200 	addeq	r5, r8, #0, 4
    25cc:	02a00000 	adceq	r0, r0, #0, 0
    25d0:	00010000 	andeq	r0, r1, r0
    25d4:	0002cc5c 	andeq	ip, r2, ip, asr ip
    25d8:	0002d000 	andeq	sp, r2, r0
    25dc:	52000100 	andpl	r0, r0, #0
    25e0:	000002d0 	ldrdeq	r0, [r0], -r0	; <UNPREDICTABLE>
    25e4:	000002e7 	andeq	r0, r0, r7, ror #5
    25e8:	e75c0001 	ldrb	r0, [ip, -r1]
    25ec:	ec000002 	stc	0, cr0, [r0], {2}
    25f0:	04000002 	streq	r0, [r0], #-2
    25f4:	5201f300 	andpl	pc, r1, #0, 6
    25f8:	0002ec9f 	muleq	r2, pc, ip	; <UNPREDICTABLE>
    25fc:	00030000 	andeq	r0, r3, r0
    2600:	52000100 	andpl	r0, r0, #0
    2604:	00000300 	andeq	r0, r0, r0, lsl #6
    2608:	00000328 	andeq	r0, r0, r8, lsr #6
    260c:	005c0001 	subseq	r0, ip, r1
    2610:	00000000 	andeq	r0, r0, r0
    2614:	04000000 	streq	r0, [r0], #-0
    2618:	00000400 	andeq	r0, r0, r0, lsl #8
    261c:	04000001 	streq	r0, [r0], #-1
    2620:	0000a400 	andeq	sl, r0, r0, lsl #8
    2624:	0000b000 	andeq	fp, r0, r0
    2628:	53000100 	movwpl	r0, #256	; 0x100
    262c:	0000027c 	andeq	r0, r0, ip, ror r2
    2630:	00000290 	muleq	r0, r0, r2
    2634:	90530001 	subsls	r0, r3, r1
    2638:	9c000002 	stcls	0, cr0, [r0], {2}
    263c:	04000002 	streq	r0, [r0], #-2
    2640:	5301f300 	movwpl	pc, #4864	; 0x1300	; <UNPREDICTABLE>
    2644:	0002c09f 	muleq	r2, pc, r0	; <UNPREDICTABLE>
    2648:	0002cc00 	andeq	ip, r2, r0, lsl #24
    264c:	53000100 	movwpl	r0, #256	; 0x100
    2650:	000002f0 	strdeq	r0, [r0], -r0	; <UNPREDICTABLE>
    2654:	00000328 	andeq	r0, r0, r8, lsr #6
    2658:	7f080003 	svcvc	0x00080003
    265c:	0000009f 	muleq	r0, pc, r0	; <UNPREDICTABLE>
    2660:	00000000 	andeq	r0, r0, r0
    2664:	00000400 	andeq	r0, r0, r0, lsl #8
    2668:	00000401 	andeq	r0, r0, r1, lsl #8
    266c:	00000001 	andeq	r0, r0, r1
    2670:	00000400 	andeq	r0, r0, r0, lsl #8
    2674:	0000a400 	andeq	sl, r0, r0, lsl #8
    2678:	0000b000 	andeq	fp, r0, r0
    267c:	52000100 	andpl	r0, r0, #0
    2680:	000000b0 	strheq	r0, [r0], -r0	; <UNPREDICTABLE>
    2684:	0000015c 	andeq	r0, r0, ip, asr r1
    2688:	a0910004 	addsge	r0, r1, r4
    268c:	027c9f7f 	rsbseq	r9, ip, #508	; 0x1fc
    2690:	02940000 	addseq	r0, r4, #0, 0
    2694:	00040000 	andeq	r0, r4, r0
    2698:	9f7fa091 	svcls	0x007fa091
    269c:	00000294 	muleq	r0, r4, r2
    26a0:	0000029c 	muleq	r0, ip, r2
    26a4:	b45e0001 	ldrblt	r0, [lr], #-1
    26a8:	c0000002 	andgt	r0, r0, r2
    26ac:	04000002 	streq	r0, [r0], #-2
    26b0:	7fa09100 	svcvc	0x00a09100
    26b4:	0002c09f 	muleq	r2, pc, r0	; <UNPREDICTABLE>
    26b8:	0002cc00 	andeq	ip, r2, r0, lsl #24
    26bc:	52000100 	andpl	r0, r0, #0
    26c0:	000002f0 	strdeq	r0, [r0], -r0	; <UNPREDICTABLE>
    26c4:	00000300 	andeq	r0, r0, r0, lsl #6
    26c8:	a0910004 	addsge	r0, r1, r4
    26cc:	03009f7f 	movweq	r9, #3967	; 0xf7f
    26d0:	03280000 			; <UNDEFINED> instruction: 0x03280000
    26d4:	00010000 	andeq	r0, r1, r0
    26d8:	00000052 	andeq	r0, r0, r2, asr r0
    26dc:	00000000 	andeq	r0, r0, r0
    26e0:	00000400 	andeq	r0, r0, r0, lsl #8
    26e4:	01010101 	tsteq	r1, r1, lsl #2
    26e8:	04020303 	streq	r0, [r2], #-771	; 0xfffffcfd
    26ec:	00000001 	andeq	r0, r0, r1
    26f0:	00000400 	andeq	r0, r0, r0, lsl #8
    26f4:	0000a400 	andeq	sl, r0, r0, lsl #8
    26f8:	0000b000 	andeq	fp, r0, r0
    26fc:	5e000100 	adfpls	f0, f0, f0
    2700:	0000010c 	andeq	r0, r0, ip, lsl #2
    2704:	0000010c 	andeq	r0, r0, ip, lsl #2
    2708:	0c550001 	mrrceq	0, 0, r0, r5, cr1
    270c:	20000001 	andcs	r0, r0, r1
    2710:	03000001 	movweq	r0, #1
    2714:	9f017500 	svcls	0x00017500
    2718:	00000120 	andeq	r0, r0, r0, lsr #2
    271c:	0000012c 	andeq	r0, r0, ip, lsr #2
    2720:	02750003 	rsbseq	r0, r5, #3, 0
    2724:	00012c9f 	muleq	r1, pc, ip	; <UNPREDICTABLE>
    2728:	00013000 	andeq	r3, r1, r0
    272c:	75000300 	strvc	r0, [r0, #-768]	; 0xfffffd00
    2730:	027c9f03 	rsbseq	r9, ip, #3, 30
    2734:	029c0000 	addseq	r0, ip, #0, 0
    2738:	00040000 	andeq	r0, r4, r0
    273c:	9f7fa191 	svcls	0x007fa191
    2740:	000002c0 	andeq	r0, r0, r0, asr #5
    2744:	000002c8 	andeq	r0, r0, r8, asr #5
    2748:	c85e0001 	ldmdagt	lr, {r0}^
    274c:	cc000002 	stcgt	0, cr0, [r0], {2}
    2750:	01000002 	tsteq	r0, r2
    2754:	02f05600 	rscseq	r5, r0, #0, 12
    2758:	02fc0000 	rscseq	r0, ip, #0, 0
    275c:	00040000 	andeq	r0, r4, r0
    2760:	9f7fa191 	svcls	0x007fa191
    2764:	000002fc 	strdeq	r0, [r0], -ip
    2768:	00000328 	andeq	r0, r0, r8, lsr #6
    276c:	005e0001 	subseq	r0, lr, r1
	...
    2778:	01010000 	mrseq	r0, (UNDEF: 1)
    277c:	01010101 	tsteq	r1, r1, lsl #2
    2780:	00010602 	andeq	r0, r1, r2, lsl #12
    2784:	a8000600 	stmdage	r0, {r9, sl}
    2788:	b0000000 	andlt	r0, r0, r0
    278c:	01000000 	mrseq	r0, (UNDEF: 0)
    2790:	010c5100 	mrseq	r5, (UNDEF: 28)
    2794:	011c0000 	tsteq	ip, r0
    2798:	00010000 	andeq	r0, r1, r0
    279c:	00011c5c 	andeq	r1, r1, ip, asr ip
    27a0:	00012c00 	andeq	r2, r1, r0, lsl #24
    27a4:	58000100 	stmdapl	r0, {r8}
    27a8:	0000012c 	andeq	r0, r0, ip, lsr #2
    27ac:	00000130 	andeq	r0, r0, r0, lsr r1
    27b0:	305c0001 	subscc	r0, ip, r1
    27b4:	30000001 	andcc	r0, r0, r1
    27b8:	03000001 	movweq	r0, #1
    27bc:	9f017c00 	svcls	0x00017c00
    27c0:	0000027c 	andeq	r0, r0, ip, ror r2
    27c4:	0000029c 	muleq	r0, ip, r2
    27c8:	9f310002 	svcls	0x00310002
    27cc:	000002c0 	andeq	r0, r0, r0, asr #5
    27d0:	000002cc 	andeq	r0, r0, ip, asr #5
    27d4:	f0510001 			; <UNDEFINED> instruction: 0xf0510001
    27d8:	28000002 	stmdacs	r0, {r1}
    27dc:	02000003 	andeq	r0, r0, #3, 0
    27e0:	009f3100 	addseq	r3, pc, r0, lsl #2
    27e4:	00000000 	andeq	r0, r0, r0
    27e8:	01000000 	mrseq	r0, (UNDEF: 0)
    27ec:	01010606 	tsteq	r1, r6, lsl #12
    27f0:	5c010000 	stcpl	0, cr0, [r1], {-0}
    27f4:	5c000001 	stcpl	0, cr0, [r0], {1}
    27f8:	04000001 	streq	r0, [r0], #-1
    27fc:	7fa09100 	svcvc	0x00a09100
    2800:	00015c9f 	muleq	r1, pc, ip	; <UNPREDICTABLE>
    2804:	00018c00 	andeq	r8, r1, r0, lsl #24
    2808:	52000100 	andpl	r0, r0, #0
    280c:	0000029c 	muleq	r0, ip, r2
    2810:	000002a0 	andeq	r0, r0, r0, lsr #5
    2814:	a05e0001 	subsge	r0, lr, r1
    2818:	ac000002 	stcge	0, cr0, [r0], {2}
    281c:	01000002 	tsteq	r0, r2
    2820:	00005200 	andeq	r5, r0, r0, lsl #4
	...
    282c:	00010100 	andeq	r0, r1, r0, lsl #2
    2830:	016c0701 	cmneq	ip, r1, lsl #14
    2834:	01700000 	cmneq	r0, r0
    2838:	00030000 	andeq	r0, r3, r0
    283c:	709f7f73 	addsvc	r7, pc, r3, ror pc	; <UNPREDICTABLE>
    2840:	78000001 	stmdavc	r0, {r0}
    2844:	01000001 	tsteq	r0, r1
    2848:	01785300 	cmneq	r8, r0, lsl #6
    284c:	01840000 	orreq	r0, r4, r0
    2850:	00030000 	andeq	r0, r3, r0
    2854:	9c9f7f73 	ldcls	15, cr7, [pc], {115}	; 0x73
    2858:	9c000002 	stcls	0, cr0, [r0], {2}
    285c:	04000002 	streq	r0, [r0], #-2
    2860:	7fa19100 	svcvc	0x00a19100
    2864:	0000009f 	muleq	r0, pc, r0	; <UNPREDICTABLE>
    2868:	00000000 	andeq	r0, r0, r0
    286c:	01010100 	mrseq	r0, (UNDEF: 17)
    2870:	00015c01 	andeq	r5, r1, r1, lsl #24
    2874:	00018c00 	andeq	r8, r1, r0, lsl #24
    2878:	08000300 	stmdaeq	r0, {r8, r9}
    287c:	029c9f80 	addseq	r9, ip, #128, 30	; 0x200
    2880:	02ac0000 	adceq	r0, ip, #0, 0
    2884:	00030000 	andeq	r0, r3, r0
    2888:	009f8008 	addseq	r8, pc, r8
    288c:	00000000 	andeq	r0, r0, r0
    2890:	01000000 	mrseq	r0, (UNDEF: 0)
    2894:	01010000 	mrseq	r0, (UNDEF: 1)
    2898:	01010000 	mrseq	r0, (UNDEF: 1)
    289c:	01010101 	tsteq	r1, r1, lsl #2
    28a0:	00015c01 	andeq	r5, r1, r1, lsl #24
    28a4:	00016c00 	andeq	r6, r1, r0, lsl #24
    28a8:	50000100 	andpl	r0, r0, r0, lsl #2
    28ac:	0000016c 	andeq	r0, r0, ip, ror #2
    28b0:	0000016c 	andeq	r0, r0, ip, ror #2
    28b4:	017c0003 	cmneq	ip, r3
    28b8:	00016c9f 	muleq	r1, pc, ip	; <UNPREDICTABLE>
    28bc:	00017800 	andeq	r7, r1, r0, lsl #16
    28c0:	7c000300 	stcvc	3, cr0, [r0], {-0}
    28c4:	01789f02 	cmneq	r8, r2, lsl #30
    28c8:	01880000 	orreq	r0, r8, r0
    28cc:	00030000 	andeq	r0, r3, r0
    28d0:	889f017c 	ldmhi	pc, {r2, r3, r4, r5, r6, r8}	; <UNPREDICTABLE>
    28d4:	8c000001 	stchi	0, cr0, [r0], {1}
    28d8:	03000001 	movweq	r0, #1
    28dc:	9f017e00 	svcls	0x00017e00
    28e0:	0000029c 	muleq	r0, ip, r2
    28e4:	000002a4 	andeq	r0, r0, r4, lsr #5
    28e8:	a4500001 	ldrbge	r0, [r0], #-1
    28ec:	ac000002 	stcge	0, cr0, [r0], {2}
    28f0:	03000002 	movweq	r0, #2
    28f4:	9f017e00 	svcls	0x00017e00
	...
    2900:	00040004 	andeq	r0, r4, r4
    2904:	015c0100 	cmpeq	ip, r0, lsl #2
    2908:	01600000 	cmneq	r0, r0
    290c:	00030000 	andeq	r0, r3, r0
    2910:	9c9f0171 	ldflss	f0, [pc], {113}	; 0x71
    2914:	a0000002 	andge	r0, r0, r2
    2918:	02000002 	andeq	r0, r0, #2, 0
    291c:	a09f3200 	addsge	r3, pc, r0, lsl #4
    2920:	ac000002 	stcge	0, cr0, [r0], {2}
    2924:	03000002 	movweq	r0, #2
    2928:	9f017100 	svcls	0x00017100
	...
    2934:	00060007 	andeq	r0, r6, r7
    2938:	0000015c 	andeq	r0, r0, ip, asr r1
    293c:	00000194 	muleq	r0, r4, r1
    2940:	9c500001 	mrrcls	0, 0, r0, r0, cr1	; <UNPREDICTABLE>
    2944:	b4000002 	strlt	r0, [r0], #-2
    2948:	01000002 	tsteq	r0, r2
    294c:	00005000 	andeq	r5, r0, r0
    2950:	00000000 	andeq	r0, r0, r0
    2954:	01010000 	mrseq	r0, (UNDEF: 1)
    2958:	02140001 	andseq	r0, r4, #1, 0
    295c:	02200000 	eoreq	r0, r0, #0, 0
    2960:	00020000 	andeq	r0, r2, r0
    2964:	02209f30 	eoreq	r9, r0, #48, 30	; 0xc0
    2968:	02340000 	eorseq	r0, r4, #0, 0
    296c:	00020000 	andeq	r0, r2, r0
    2970:	00009f31 	andeq	r9, r0, r1, lsr pc
    2974:	00000000 	andeq	r0, r0, r0
    2978:	01000000 	mrseq	r0, (UNDEF: 0)
    297c:	01000001 	tsteq	r0, r1
    2980:	01000001 	tsteq	r0, r1
    2984:	01000001 	tsteq	r0, r1
    2988:	01000001 	tsteq	r0, r1
    298c:	02000001 	andeq	r0, r0, #1, 0
    2990:	00800102 	addeq	r0, r0, r2, lsl #2
    2994:	00800000 	addeq	r0, r0, r0
    2998:	00010000 	andeq	r0, r1, r0
    299c:	00008053 	andeq	r8, r0, r3, asr r0
    29a0:	00008c00 	andeq	r8, r0, r0, lsl #24
    29a4:	73000300 	movwvc	r0, #768	; 0x300
    29a8:	008c9f04 	addeq	r9, ip, r4, lsl #30
    29ac:	00940000 	addseq	r0, r4, r0
    29b0:	00010000 	andeq	r0, r1, r0
    29b4:	00009451 	andeq	r9, r0, r1, asr r4
    29b8:	00009800 	andeq	r9, r0, r0, lsl #16
    29bc:	73000300 	movwvc	r0, #768	; 0x300
    29c0:	00989f08 	addseq	r9, r8, r8, lsl #30
    29c4:	00a40000 	adceq	r0, r4, r0
    29c8:	00010000 	andeq	r0, r1, r0
    29cc:	0000a451 	andeq	sl, r0, r1, asr r4
    29d0:	0000a800 	andeq	sl, r0, r0, lsl #16
    29d4:	73000300 	movwvc	r0, #768	; 0x300
    29d8:	00a89f0c 	adceq	r9, r8, ip, lsl #30
    29dc:	00b40000 	adcseq	r0, r4, r0
    29e0:	00010000 	andeq	r0, r1, r0
    29e4:	0000b451 	andeq	fp, r0, r1, asr r4
    29e8:	0000b800 	andeq	fp, r0, r0, lsl #16
    29ec:	73000300 	movwvc	r0, #768	; 0x300
    29f0:	00b89f10 	adcseq	r9, r8, r0, lsl pc
    29f4:	00c40000 	sbceq	r0, r4, r0
    29f8:	00010000 	andeq	r0, r1, r0
    29fc:	0000c451 	andeq	ip, r0, r1, asr r4
    2a00:	0000c800 	andeq	ip, r0, r0, lsl #16
    2a04:	73000300 	movwvc	r0, #768	; 0x300
    2a08:	00c89f14 	sbceq	r9, r8, r4, lsl pc
    2a0c:	00d00000 	sbcseq	r0, r0, r0
    2a10:	00010000 	andeq	r0, r1, r0
    2a14:	0000d051 	andeq	sp, r0, r1, asr r0
    2a18:	0000d400 	andeq	sp, r0, r0, lsl #8
    2a1c:	71000300 	mrsvc	r0, LR_irq
    2a20:	00009f04 	andeq	r9, r0, r4, lsl #30
    2a24:	00000000 	andeq	r0, r0, r0
    2a28:	00010000 	andeq	r0, r1, r0
    2a2c:	00000108 	andeq	r0, r0, r8, lsl #2
    2a30:	0000010b 	andeq	r0, r0, fp, lsl #2
    2a34:	00510001 	subseq	r0, r1, r1
    2a38:	00000000 	andeq	r0, r0, r0
    2a3c:	02000000 	andeq	r0, r0, #0, 0
    2a40:	0000d800 	andeq	sp, r0, r0, lsl #16
    2a44:	00011000 	andeq	r1, r1, r0
    2a48:	31000200 	mrscc	r0, R8_usr
    2a4c:	0000009f 	muleq	r0, pc, r0	; <UNPREDICTABLE>
    2a50:	00000000 	andeq	r0, r0, r0
    2a54:	e0030500 	and	r0, r3, r0, lsl #10
    2a58:	e4000000 	str	r0, [r0], #-0
    2a5c:	02000000 	andeq	r0, r0, #0, 0
    2a60:	009f3000 	addseq	r3, pc, r0
    2a64:	00000000 	andeq	r0, r0, r0
    2a68:	01000000 	mrseq	r0, (UNDEF: 0)
    2a6c:	0000e400 	andeq	lr, r0, r0, lsl #8
    2a70:	0000ef00 	andeq	lr, r0, r0, lsl #30
    2a74:	53000100 	movwpl	r0, #256	; 0x100
	...
    2a80:	00e40100 	rsceq	r0, r4, r0, lsl #2
    2a84:	00ec0000 	rsceq	r0, ip, r0
    2a88:	00010000 	andeq	r0, r1, r0
    2a8c:	00000053 	andeq	r0, r0, r3, asr r0
    2a90:	00000000 	andeq	r0, r0, r0
    2a94:	00000400 	andeq	r0, r0, r0, lsl #8
    2a98:	0000f001 	andeq	pc, r0, r1
    2a9c:	00010400 	andeq	r0, r1, r0, lsl #8
    2aa0:	30000200 	andcc	r0, r0, r0, lsl #4
    2aa4:	0001049f 	muleq	r1, pc, r4	; <UNPREDICTABLE>
    2aa8:	00010800 	andeq	r0, r1, r0, lsl #16
    2aac:	51000100 	mrspl	r0, (UNDEF: 16)
	...
    2ab8:	00f40001 	rscseq	r0, r4, r1
    2abc:	010b0000 	mrseq	r0, (UNDEF: 11)
    2ac0:	00010000 	andeq	r0, r1, r0
    2ac4:	00000053 	andeq	r0, r0, r3, asr r0
    2ac8:	00000000 	andeq	r0, r0, r0
    2acc:	f4010000 	vst4.8	{d0-d3}, [r1], r0
    2ad0:	08000000 	stmdaeq	r0, {}	; <UNPREDICTABLE>
    2ad4:	01000001 	tsteq	r0, r1
    2ad8:	00005300 	andeq	r5, r0, r0, lsl #6
    2adc:	00000000 	andeq	r0, r0, r0
    2ae0:	00040000 	andeq	r0, r4, r0
    2ae4:	9cd40100 	ldflse	f0, [r4], {0}
    2ae8:	9cdc0000 	ldclls	0, cr0, [ip], {0}
    2aec:	00020000 	andeq	r0, r2, r0
    2af0:	9cdc9f30 	ldclls	15, cr9, [ip], {48}	; 0x30
    2af4:	9cdc0000 	ldclls	0, cr0, [ip], {0}
    2af8:	00010000 	andeq	r0, r1, r0
    2afc:	00000053 	andeq	r0, r0, r3, asr r0
    2b00:	00000000 	andeq	r0, r0, r0
    2b04:	00000300 	andeq	r0, r0, r0, lsl #6
    2b08:	00000000 	andeq	r0, r0, r0
    2b0c:	009ce800 	addseq	lr, ip, r0, lsl #16
    2b10:	009cec00 	addseq	lr, ip, r0, lsl #24
    2b14:	30000200 	andcc	r0, r0, r0, lsl #4
    2b18:	009cec9f 	umullseq	lr, ip, pc, ip	; <UNPREDICTABLE>
    2b1c:	009cf000 	addseq	pc, ip, r0
    2b20:	53000100 	movwpl	r0, #256	; 0x100
    2b24:	00009cf0 	strdeq	r9, [r0], -r0
    2b28:	00009cf4 	strdeq	r9, [r0], -r4
    2b2c:	00730005 	rsbseq	r0, r3, r5
    2b30:	f49f2140 			; <UNDEFINED> instruction: 0xf49f2140
    2b34:	f800009c 			; <UNDEFINED> instruction: 0xf800009c
    2b38:	0100009c 	swpeq	r0, ip, [r0]	; <UNPREDICTABLE>
    2b3c:	00005300 	andeq	r5, r0, r0, lsl #6
    2b40:	00000000 	andeq	r0, r0, r0
    2b44:	00020000 	andeq	r0, r2, r0
    2b48:	9ca80000 	stcls	0, cr0, [r8]
    2b4c:	9cac0000 	stcls	0, cr0, [ip]
    2b50:	00020000 	andeq	r0, r2, r0
    2b54:	9cac9f30 	stcls	15, cr9, [ip], #192	; 0xc0
    2b58:	9cb00000 	ldcls	0, cr0, [r0]
    2b5c:	00010000 	andeq	r0, r1, r0
    2b60:	00000050 	andeq	r0, r0, r0, asr r0
    2b64:	00000000 	andeq	r0, r0, r0
    2b68:	00000200 	andeq	r0, r0, r0, lsl #4
    2b6c:	00000000 	andeq	r0, r0, r0
    2b70:	009cc000 	addseq	ip, ip, r0
    2b74:	009cc400 	addseq	ip, ip, r0, lsl #8
    2b78:	30000200 	andcc	r0, r0, r0, lsl #4
    2b7c:	009cc49f 	umullseq	ip, ip, pc, r4	; <UNPREDICTABLE>
    2b80:	009cc800 	addseq	ip, ip, r0, lsl #16
    2b84:	53000100 	movwpl	r0, #256	; 0x100
    2b88:	00009cc8 	andeq	r9, r0, r8, asr #25
    2b8c:	00009ccc 	andeq	r9, r0, ip, asr #25
    2b90:	00730005 	rsbseq	r0, r3, r5
    2b94:	cc9f2140 	ldfgts	f2, [pc], {64}	; 0x40
    2b98:	d400009c 	strle	r0, [r0], #-156	; 0xffffff64
    2b9c:	0100009c 	swpeq	r0, ip, [r0]	; <UNPREDICTABLE>
    2ba0:	00005300 	andeq	r5, r0, r0, lsl #6
	...
    2bac:	00c80000 	sbceq	r0, r8, r0
    2bb0:	00d80000 	sbcseq	r0, r8, r0
    2bb4:	00010000 	andeq	r0, r1, r0
    2bb8:	0000d850 	andeq	sp, r0, r0, asr r8
    2bbc:	00011c00 	andeq	r1, r1, r0, lsl #24
    2bc0:	f3000400 	vshl.u8	d0, d0, d0
    2bc4:	009f5001 	addseq	r5, pc, r1
    2bc8:	00000000 	andeq	r0, r0, r0
    2bcc:	02000000 	andeq	r0, r0, #0, 0
    2bd0:	c8000000 	stmdagt	r0, {}	; <UNPREDICTABLE>
    2bd4:	d8000000 	stmdale	r0, {}	; <UNPREDICTABLE>
    2bd8:	07000000 	streq	r0, [r0, -r0]
    2bdc:	0a007000 	beq	1ebe4 <__bss_end__+0x1404c>
    2be0:	9f1e03e8 	svcls	0x001e03e8
    2be4:	000000d8 	ldrdeq	r0, [r0], -r8
    2be8:	0000011c 	andeq	r0, r0, ip, lsl r1
    2bec:	01f30008 	mvnseq	r0, r8
    2bf0:	03e80a50 	mvneq	r0, #80, 20	; 0x50000
    2bf4:	00009f1e 	andeq	r9, r0, lr, lsl pc
	...
    2c00:	000000dc 	ldrdeq	r0, [r0], -ip
    2c04:	0000011c 	andeq	r0, r0, ip, lsl r1
    2c08:	00540001 	subseq	r0, r4, r1
    2c0c:	00000000 	andeq	r0, r0, r0
    2c10:	01000000 	mrseq	r0, (UNDEF: 0)
    2c14:	0000f000 	andeq	pc, r0, r0
    2c18:	00011c00 	andeq	r1, r1, r0, lsl #24
    2c1c:	56000100 	strpl	r0, [r0], -r0, lsl #2
	...
    2c2c:	000000ec 	andeq	r0, r0, ip, ror #1
    2c30:	000000ef 	andeq	r0, r0, pc, ror #1
    2c34:	ef500001 	svc	0x00500001
    2c38:	1c000000 	stcne	0, cr0, [r0], {-0}
    2c3c:	01000001 	tsteq	r0, r1
    2c40:	00005600 	andeq	r5, r0, r0, lsl #12
	...
    2c4c:	00000104 	andeq	r0, r0, r4, lsl #2
    2c50:	0000010b 	andeq	r0, r0, fp, lsl #2
    2c54:	00500001 	subseq	r0, r0, r1
	...
    2c60:	20000000 	andcs	r0, r0, r0
    2c64:	23000000 	movwcs	r0, #0
    2c68:	01000000 	mrseq	r0, (UNDEF: 0)
    2c6c:	00235000 	eoreq	r5, r3, r0
    2c70:	00300000 	eorseq	r0, r0, r0
    2c74:	00010000 	andeq	r0, r1, r0
    2c78:	00000054 	andeq	r0, r0, r4, asr r0
	...
    2c84:	00003000 	andeq	r3, r0, r0
    2c88:	00003b00 	andeq	r3, r0, r0, lsl #22
    2c8c:	50000100 	andpl	r0, r0, r0, lsl #2
    2c90:	0000003b 	andeq	r0, r0, fp, lsr r0
    2c94:	00000078 	andeq	r0, r0, r8, ror r0
    2c98:	00560001 	subseq	r0, r6, r1
    2c9c:	00000000 	andeq	r0, r0, r0
    2ca0:	01000000 	mrseq	r0, (UNDEF: 0)
    2ca4:	00004c00 	andeq	r4, r0, r0, lsl #24
    2ca8:	00007800 	andeq	r7, r0, r0, lsl #16
    2cac:	55000100 	strpl	r0, [r0, #-256]	; 0xffffff00
	...
    2cbc:	00000048 	andeq	r0, r0, r8, asr #32
    2cc0:	0000004b 	andeq	r0, r0, fp, asr #32
    2cc4:	4b500001 	blmi	1402cd0 <__bss_end__+0x13f8138>
    2cc8:	78000000 	stmdavc	r0, {}	; <UNPREDICTABLE>
    2ccc:	01000000 	mrseq	r0, (UNDEF: 0)
    2cd0:	00005500 	andeq	r5, r0, r0, lsl #10
	...
    2cdc:	00000060 	andeq	r0, r0, r0, rrx
    2ce0:	00000067 	andeq	r0, r0, r7, rrx
    2ce4:	00500001 	subseq	r0, r0, r1
	...
    2cf0:	78000000 	stmdavc	r0, {}	; <UNPREDICTABLE>
    2cf4:	84000000 	strhi	r0, [r0], #-0
    2cf8:	01000000 	mrseq	r0, (UNDEF: 0)
    2cfc:	00845000 	addeq	r5, r4, r0
    2d00:	00c80000 	sbceq	r0, r8, r0
    2d04:	00040000 	andeq	r0, r4, r0
    2d08:	9f5001f3 	svcls	0x005001f3
	...
    2d14:	00880000 	addeq	r0, r8, r0
    2d18:	00c80000 	sbceq	r0, r8, r0
    2d1c:	00010000 	andeq	r0, r1, r0
    2d20:	00000054 	andeq	r0, r0, r4, asr r0
    2d24:	00000000 	andeq	r0, r0, r0
    2d28:	9c000100 	stflss	f0, [r0], {-0}
    2d2c:	c8000000 	stmdagt	r0, {}	; <UNPREDICTABLE>
    2d30:	01000000 	mrseq	r0, (UNDEF: 0)
    2d34:	00005600 	andeq	r5, r0, r0, lsl #12
	...
    2d40:	00980000 	addseq	r0, r8, r0
    2d44:	009b0000 	addseq	r0, fp, r0
    2d48:	00010000 	andeq	r0, r1, r0
    2d4c:	00009b50 	andeq	r9, r0, r0, asr fp
    2d50:	0000c800 	andeq	ip, r0, r0, lsl #16
    2d54:	56000100 	strpl	r0, [r0], -r0, lsl #2
	...
    2d60:	00b00000 	adcseq	r0, r0, r0
    2d64:	00b70000 	adcseq	r0, r7, r0
    2d68:	00010000 	andeq	r0, r1, r0
    2d6c:	00000050 	andeq	r0, r0, r0, asr r0
	...
    2d78:	00015800 	andeq	r5, r1, r0, lsl #16
    2d7c:	00016300 	andeq	r6, r1, r0, lsl #6
    2d80:	50000100 	andpl	r0, r0, r0, lsl #2
    2d84:	00000163 	andeq	r0, r0, r3, ror #2
    2d88:	00000188 	andeq	r0, r0, r8, lsl #3
    2d8c:	00540001 	subseq	r0, r4, r1
	...
    2d98:	00014800 	andeq	r4, r1, r0, lsl #16
    2d9c:	00015800 	andeq	r5, r1, r0, lsl #16
    2da0:	54000100 	strpl	r0, [r0], #-256	; 0xffffff00
	...
    2db4:	0000000f 	andeq	r0, r0, pc
    2db8:	0f500001 	svceq	0x00500001
    2dbc:	20000000 	andcs	r0, r0, r0
    2dc0:	01000000 	mrseq	r0, (UNDEF: 0)
    2dc4:	00005400 	andeq	r5, r0, r0, lsl #8
	...
    2dd4:	000f0000 	andeq	r0, pc, r0
    2dd8:	00010000 	andeq	r0, r1, r0
    2ddc:	00000f51 	andeq	r0, r0, r1, asr pc
    2de0:	00002000 	andeq	r2, r0, r0
    2de4:	55000100 	strpl	r0, [r0, #-256]	; 0xffffff00
	...
    2df4:	00000020 	andeq	r0, r0, r0, lsr #32
    2df8:	0000002f 	andeq	r0, r0, pc, lsr #32
    2dfc:	2f500001 	svccs	0x00500001
    2e00:	40000000 	andmi	r0, r0, r0
    2e04:	01000000 	mrseq	r0, (UNDEF: 0)
    2e08:	00005400 	andeq	r5, r0, r0, lsl #8
	...
    2e14:	00200000 	eoreq	r0, r0, r0
    2e18:	002f0000 	eoreq	r0, pc, r0
    2e1c:	00010000 	andeq	r0, r1, r0
    2e20:	00002f51 	andeq	r2, r0, r1, asr pc
    2e24:	00004000 	andeq	r4, r0, r0
    2e28:	55000100 	strpl	r0, [r0, #-256]	; 0xffffff00
	...
    2e3c:	0000000b 	andeq	r0, r0, fp
    2e40:	0b500001 	bleq	1402e4c <__bss_end__+0x13f82b4>
    2e44:	14000000 	strne	r0, [r0], #-0
    2e48:	01000000 	mrseq	r0, (UNDEF: 0)
    2e4c:	00005400 	andeq	r5, r0, r0, lsl #8
	...
    2e5c:	00180000 	andseq	r0, r8, r0
    2e60:	00010000 	andeq	r0, r1, r0
    2e64:	00001851 	andeq	r1, r0, r1, asr r8
    2e68:	00002c00 	andeq	r2, r0, r0, lsl #24
    2e6c:	f3000400 	vshl.u8	d0, d0, d0
    2e70:	009f5101 	addseq	r5, pc, r1, lsl #2
    2e74:	00000000 	andeq	r0, r0, r0
    2e78:	02000000 	andeq	r0, r0, #0, 0
	...
    2e84:	00000101 	andeq	r0, r0, r1, lsl #2
    2e88:	00000000 	andeq	r0, r0, r0
    2e8c:	00000400 	andeq	r0, r0, r0, lsl #8
    2e90:	50000100 	andpl	r0, r0, r0, lsl #2
    2e94:	00000004 	andeq	r0, r0, r4
    2e98:	00000008 	andeq	r0, r0, r8
    2e9c:	08520001 	ldmdaeq	r2, {r0}^
    2ea0:	0c000000 	stceq	0, cr0, [r0], {-0}
    2ea4:	03000000 	movweq	r0, #0
    2ea8:	9f017200 	svcls	0x00017200
    2eac:	0000000c 	andeq	r0, r0, ip
    2eb0:	00000018 	andeq	r0, r0, r8, lsl r0
    2eb4:	18520001 	ldmdane	r2, {r0}^
    2eb8:	1c000000 	stcne	0, cr0, [r0], {-0}
    2ebc:	01000000 	mrseq	r0, (UNDEF: 0)
    2ec0:	001c5300 	andseq	r5, ip, r0, lsl #6
    2ec4:	00240000 	eoreq	r0, r4, r0
    2ec8:	00030000 	andeq	r0, r3, r0
    2ecc:	249f0173 	ldrcs	r0, [pc], #371	; 2ed4 <__code_start__-0x512c>
    2ed0:	2c000000 	stccs	0, cr0, [r0], {-0}
    2ed4:	01000000 	mrseq	r0, (UNDEF: 0)
    2ed8:	00005300 	andeq	r5, r0, r0, lsl #6
    2edc:	00000000 	andeq	r0, r0, r0
    2ee0:	02030000 	andeq	r0, r3, #0, 0
    2ee4:	00000002 	andeq	r0, r0, r2
    2ee8:	00000000 	andeq	r0, r0, r0
    2eec:	00000018 	andeq	r0, r0, r8, lsl r0
    2ef0:	18510001 	ldmdane	r1, {r0}^
    2ef4:	1c000000 	stcne	0, cr0, [r0], {-0}
    2ef8:	03000000 	movweq	r0, #0
    2efc:	9f017100 	svcls	0x00017100
    2f00:	0000001c 	andeq	r0, r0, ip, lsl r0
    2f04:	0000002c 	andeq	r0, r0, ip, lsr #32
    2f08:	00510001 	subseq	r0, r1, r1
	...
    2f18:	00000800 	andeq	r0, r0, r0, lsl #16
    2f1c:	00000c00 	andeq	r0, r0, r0, lsl #24
    2f20:	72000200 	andvc	r0, r0, #0, 4
    2f24:	00000c00 	andeq	r0, r0, r0, lsl #24
    2f28:	00001800 	andeq	r1, r0, r0, lsl #16
    2f2c:	73000200 	movwvc	r0, #512	; 0x200
    2f30:	00001c00 	andeq	r1, r0, r0, lsl #24
    2f34:	00002c00 	andeq	r2, r0, r0, lsl #24
    2f38:	52000100 	andpl	r0, r0, #0
	...
    2f54:	00000014 	andeq	r0, r0, r4, lsl r0
    2f58:	14500001 	ldrbne	r0, [r0], #-1
    2f5c:	18000000 	stmdane	r0, {}	; <UNPREDICTABLE>
    2f60:	03000000 	movweq	r0, #0
    2f64:	9f017000 	svcls	0x00017000
    2f68:	00000018 	andeq	r0, r0, r8, lsl r0
    2f6c:	00000020 	andeq	r0, r0, r0, lsr #32
    2f70:	24500001 	ldrbcs	r0, [r0], #-1
    2f74:	28000000 	stmdacs	r0, {}	; <UNPREDICTABLE>
    2f78:	01000000 	mrseq	r0, (UNDEF: 0)
    2f7c:	00285000 	eoreq	r5, r8, r0
    2f80:	00300000 	eorseq	r0, r0, r0
    2f84:	00030000 	andeq	r0, r3, r0
    2f88:	389f0170 	ldmcc	pc, {r4, r5, r6, r8}	; <UNPREDICTABLE>
    2f8c:	40000000 	andmi	r0, r0, r0
    2f90:	01000000 	mrseq	r0, (UNDEF: 0)
    2f94:	00005000 	andeq	r5, r0, r0
	...
    2fa8:	00000024 	andeq	r0, r0, r4, lsr #32
    2fac:	24510001 	ldrbcs	r0, [r1], #-1
    2fb0:	28000000 	stmdacs	r0, {}	; <UNPREDICTABLE>
    2fb4:	01000000 	mrseq	r0, (UNDEF: 0)
    2fb8:	00285c00 	eoreq	r5, r8, r0, lsl #24
    2fbc:	00440000 	subeq	r0, r4, r0
    2fc0:	00010000 	andeq	r0, r1, r0
    2fc4:	00000051 	andeq	r0, r0, r1, asr r0
    2fc8:	00000000 	andeq	r0, r0, r0
    2fcc:	02020000 	andeq	r0, r2, #0, 0
    2fd0:	00000000 	andeq	r0, r0, r0
    2fd4:	04000000 	streq	r0, [r0], #-0
    2fd8:	01000000 	mrseq	r0, (UNDEF: 0)
    2fdc:	00045100 	andeq	r5, r4, r0, lsl #2
    2fe0:	00080000 	andeq	r0, r8, r0
    2fe4:	00030000 	andeq	r0, r3, r0
    2fe8:	089f0171 	ldmeq	pc, {r0, r4, r5, r6, r8}	; <UNPREDICTABLE>
    2fec:	18000000 	stmdane	r0, {}	; <UNPREDICTABLE>
    2ff0:	01000000 	mrseq	r0, (UNDEF: 0)
    2ff4:	00005100 	andeq	r5, r0, r0, lsl #2
    2ff8:	00000000 	andeq	r0, r0, r0
    2ffc:	00020000 	andeq	r0, r2, r0
    3000:	00000000 	andeq	r0, r0, r0
    3004:	00000004 	andeq	r0, r0, r4
    3008:	00500001 	subseq	r0, r0, r1
	...
    3018:	08000000 	stmdaeq	r0, {}	; <UNPREDICTABLE>
    301c:	01000000 	mrseq	r0, (UNDEF: 0)
    3020:	00085000 	andeq	r5, r8, r0
    3024:	00300000 	eorseq	r0, r0, r0
    3028:	00040000 	andeq	r0, r4, r0
    302c:	9f5001f3 	svcls	0x005001f3
	...
    3040:	00000008 	andeq	r0, r0, r8
    3044:	08510001 	ldmdaeq	r1, {r0}^
    3048:	30000000 	andcc	r0, r0, r0
    304c:	04000000 	streq	r0, [r0], #-0
    3050:	5101f300 	mrspl	pc, SP_irq	; <UNPREDICTABLE>
    3054:	0000009f 	muleq	r0, pc, r0	; <UNPREDICTABLE>
	...
    3060:	01000000 	mrseq	r0, (UNDEF: 0)
    3064:	00000202 	andeq	r0, r0, r2, lsl #4
    3068:	04000000 	streq	r0, [r0], #-0
    306c:	01000000 	mrseq	r0, (UNDEF: 0)
    3070:	00045200 	andeq	r5, r4, r0, lsl #4
    3074:	00080000 	andeq	r0, r8, r0
    3078:	00040000 	andeq	r0, r4, r0
    307c:	9f5201f3 	svcls	0x005201f3
    3080:	00000008 	andeq	r0, r0, r8
    3084:	00000018 	andeq	r0, r0, r8, lsl r0
    3088:	01f30006 	mvnseq	r0, r6
    308c:	9f1c3152 	svcls	0x001c3152
    3090:	00000018 	andeq	r0, r0, r8, lsl r0
    3094:	00000018 	andeq	r0, r0, r8, lsl r0
    3098:	01f30004 	mvnseq	r0, r4
    309c:	00189f52 	andseq	r9, r8, r2, asr pc
    30a0:	00300000 	eorseq	r0, r0, r0
    30a4:	00060000 	andeq	r0, r6, r0
    30a8:	315201f3 	ldrshcc	r0, [r2, #-19]	; 0xffffffed
    30ac:	00009f1c 	andeq	r9, r0, ip, lsl pc
    30b0:	00000000 	andeq	r0, r0, r0
    30b4:	00020000 	andeq	r0, r2, r0
    30b8:	00010000 	andeq	r0, r1, r0
    30bc:	00000000 	andeq	r0, r0, r0
    30c0:	000c0000 	andeq	r0, ip, r0
    30c4:	00010000 	andeq	r0, r1, r0
    30c8:	00000c50 	andeq	r0, r0, r0, asr ip
    30cc:	00001800 	andeq	r1, r0, r0, lsl #16
    30d0:	70000300 	andvc	r0, r0, r0, lsl #6
    30d4:	00189f7f 	andseq	r9, r8, pc, ror pc
    30d8:	00240000 	eoreq	r0, r4, r0
    30dc:	00010000 	andeq	r0, r1, r0
    30e0:	00002850 	andeq	r2, r0, r0, asr r8
    30e4:	00002c00 	andeq	r2, r0, r0, lsl #24
    30e8:	70000300 	andvc	r0, r0, r0, lsl #6
    30ec:	00009f7f 	andeq	r9, r0, pc, ror pc
    30f0:	00000000 	andeq	r0, r0, r0
    30f4:	00020000 	andeq	r0, r2, r0
	...
    3100:	0000000c 	andeq	r0, r0, ip
    3104:	0c510001 	mrrceq	0, 0, r0, r1, cr1
    3108:	10000000 	andne	r0, r0, r0
    310c:	03000000 	movweq	r0, #0
    3110:	9f017100 	svcls	0x00017100
    3114:	00000010 	andeq	r0, r0, r0, lsl r0
    3118:	00000030 	andeq	r0, r0, r0, lsr r0
    311c:	00510001 	subseq	r0, r1, r1
    3120:	00000000 	andeq	r0, r0, r0
    3124:	Address 0x0000000000003124 is out of bounds.


Disassembly of section .debug_aranges:

00000000 <.debug_aranges>:
   0:	0000001c 	andeq	r0, r0, ip, lsl r0
   4:	00000002 	andeq	r0, r0, r2
   8:	00040000 	andeq	r0, r4, r0
   c:	00000000 	andeq	r0, r0, r0
  10:	00008038 	andeq	r8, r0, r8, lsr r0
  14:	00000654 	andeq	r0, r0, r4, asr r6
	...
  20:	0000001c 	andeq	r0, r0, ip, lsl r0
  24:	0f4e0002 	svceq	0x004e0002
  28:	00040000 	andeq	r0, r4, r0
  2c:	00000000 	andeq	r0, r0, r0
  30:	0000868c 	andeq	r8, r0, ip, lsl #13
  34:	000008d0 	ldrdeq	r0, [r0], -r0	; <UNPREDICTABLE>
	...
  40:	0000001c 	andeq	r0, r0, ip, lsl r0
  44:	29320002 	ldmdbcs	r2!, {r1}
  48:	00040000 	andeq	r0, r4, r0
  4c:	00000000 	andeq	r0, r0, r0
  50:	00008f5c 	andeq	r8, r0, ip, asr pc
  54:	00000198 	muleq	r0, r8, r1
	...
  60:	0000001c 	andeq	r0, r0, ip, lsl r0
  64:	2fa90002 	svccs	0x00a90002
  68:	00040000 	andeq	r0, r4, r0
  6c:	00000000 	andeq	r0, r0, r0
  70:	000090f4 	strdeq	r9, [r0], -r4
  74:	00000058 	andeq	r0, r0, r8, asr r0
	...
  80:	0000001c 	andeq	r0, r0, ip, lsl r0
  84:	314a0002 	cmpcc	sl, r2
  88:	00040000 	andeq	r0, r4, r0
  8c:	00000000 	andeq	r0, r0, r0
  90:	0000914c 	andeq	r9, r0, ip, asr #2
  94:	00000038 	andeq	r0, r0, r8, lsr r0
	...
  a0:	0000001c 	andeq	r0, r0, ip, lsl r0
  a4:	32410002 	subcc	r0, r1, #2, 0
  a8:	00040000 	andeq	r0, r4, r0
  ac:	00000000 	andeq	r0, r0, r0
  b0:	00009184 	andeq	r9, r0, r4, lsl #3
  b4:	000009b4 			; <UNDEFINED> instruction: 0x000009b4
	...
  c0:	0000001c 	andeq	r0, r0, ip, lsl r0
  c4:	3ec40002 	cdpcc	0, 12, cr0, cr4, cr2, {0}
  c8:	00040000 	andeq	r0, r4, r0
  cc:	00000000 	andeq	r0, r0, r0
  d0:	00009b38 	andeq	r9, r0, r8, lsr fp
  d4:	0000002c 	andeq	r0, r0, ip, lsr #32
	...
  e0:	0000001c 	andeq	r0, r0, ip, lsl r0
  e4:	3ff70002 	svccc	0x00f70002
  e8:	00040000 	andeq	r0, r4, r0
  ec:	00000000 	andeq	r0, r0, r0
  f0:	00009b64 	andeq	r9, r0, r4, ror #22
  f4:	00000128 	andeq	r0, r0, r8, lsr #2
	...
 100:	0000001c 	andeq	r0, r0, ip, lsl r0
 104:	42ac0002 	adcmi	r0, ip, #2, 0
 108:	00040000 	andeq	r0, r4, r0
 10c:	00000000 	andeq	r0, r0, r0
 110:	00009c8c 	andeq	r9, r0, ip, lsl #25
 114:	00000004 	andeq	r0, r0, r4
	...
 120:	0000001c 	andeq	r0, r0, ip, lsl r0
 124:	437e0002 	cmnmi	lr, #2, 0
 128:	00040000 	andeq	r0, r4, r0
 12c:	00000000 	andeq	r0, r0, r0
 130:	00009ca8 	andeq	r9, r0, r8, lsr #25
 134:	0000008c 	andeq	r0, r0, ip, lsl #1
	...
 140:	0000001c 	andeq	r0, r0, ip, lsl r0
 144:	45ff0002 	ldrbmi	r0, [pc, #2]!	; 14e <__code_start__-0x7eb2>
 148:	00040000 	andeq	r0, r4, r0
 14c:	00000000 	andeq	r0, r0, r0
 150:	00009d34 	andeq	r9, r0, r4, lsr sp
 154:	0000011c 	andeq	r0, r0, ip, lsl r1
	...
 160:	0000001c 	andeq	r0, r0, ip, lsl r0
 164:	4b420002 	blmi	1080174 <__bss_end__+0x10755dc>
 168:	00040000 	andeq	r0, r4, r0
 16c:	00000000 	andeq	r0, r0, r0
 170:	00009e50 	andeq	r9, r0, r0, asr lr
 174:	000001f0 	strdeq	r0, [r0], -r0	; <UNPREDICTABLE>
	...
 180:	0000001c 	andeq	r0, r0, ip, lsl r0
 184:	51130002 	tstpl	r3, r2
 188:	00040000 	andeq	r0, r4, r0
 18c:	00000000 	andeq	r0, r0, r0
 190:	0000a040 	andeq	sl, r0, r0, asr #32
 194:	0000003c 	andeq	r0, r0, ip, lsr r0
	...
 1a0:	0000001c 	andeq	r0, r0, ip, lsl r0
 1a4:	52600002 	rsbpl	r0, r0, #2, 0
 1a8:	00040000 	andeq	r0, r4, r0
 1ac:	00000000 	andeq	r0, r0, r0
 1b0:	0000a07c 	andeq	sl, r0, ip, ror r0
 1b4:	0000002c 	andeq	r0, r0, ip, lsr #32
	...
 1c0:	0000001c 	andeq	r0, r0, ip, lsl r0
 1c4:	539b0002 	orrspl	r0, fp, #2, 0
 1c8:	00040000 	andeq	r0, r4, r0
 1cc:	00000000 	andeq	r0, r0, r0
 1d0:	0000a0a8 	andeq	sl, r0, r8, lsr #1
 1d4:	00000044 	andeq	r0, r0, r4, asr #32
	...
 1e0:	0000001c 	andeq	r0, r0, ip, lsl r0
 1e4:	54960002 	ldrpl	r0, [r6], #2
 1e8:	00040000 	andeq	r0, r4, r0
 1ec:	00000000 	andeq	r0, r0, r0
 1f0:	0000a0ec 	andeq	sl, r0, ip, ror #1
 1f4:	00000018 	andeq	r0, r0, r8, lsl r0
	...
 200:	0000001c 	andeq	r0, r0, ip, lsl r0
 204:	55a90002 	strpl	r0, [r9, #2]!
 208:	00040000 	andeq	r0, r4, r0
 20c:	00000000 	andeq	r0, r0, r0
 210:	0000a104 	andeq	sl, r0, r4, lsl #2
 214:	00000030 	andeq	r0, r0, r0, lsr r0
	...
 220:	0000001c 	andeq	r0, r0, ip, lsl r0
 224:	56fb0002 	ldrbtpl	r0, [fp], r2
 228:	00040000 	andeq	r0, r4, r0
 22c:	00000000 	andeq	r0, r0, r0
 230:	0000a134 	andeq	sl, r0, r4, lsr r1
 234:	00000004 	andeq	r0, r0, r4
	...

Disassembly of section .debug_ranges:

00000000 <.debug_ranges>:
   0:	00000188 	andeq	r0, r0, r8, lsl #3
   4:	00000190 	muleq	r0, r0, r1
   8:	000001b0 			; <UNDEFINED> instruction: 0x000001b0
   c:	000001b8 			; <UNDEFINED> instruction: 0x000001b8
	...
  18:	00000658 	andeq	r0, r0, r8, asr r6
  1c:	0000079c 	muleq	r0, ip, r7
  20:	0000079c 	muleq	r0, ip, r7
  24:	000007a0 	andeq	r0, r0, r0, lsr #15
  28:	000007a4 	andeq	r0, r0, r4, lsr #15
  2c:	000007b8 			; <UNDEFINED> instruction: 0x000007b8
	...
  38:	00000008 	andeq	r0, r0, r8
  3c:	0000000c 	andeq	r0, r0, ip
  40:	00000014 	andeq	r0, r0, r4, lsl r0
  44:	00000054 	andeq	r0, r0, r4, asr r0
  48:	00000058 	andeq	r0, r0, r8, asr r0
  4c:	00000060 	andeq	r0, r0, r0, rrx
	...
  58:	00000060 	andeq	r0, r0, r0, rrx
  5c:	00000068 	andeq	r0, r0, r8, rrx
  60:	0000006c 	andeq	r0, r0, ip, rrx
  64:	000000ac 	andeq	r0, r0, ip, lsr #1
  68:	000000b0 	strheq	r0, [r0], -r0	; <UNPREDICTABLE>
  6c:	000000b8 	strheq	r0, [r0], -r8
	...
  78:	00000068 	andeq	r0, r0, r8, rrx
  7c:	00000068 	andeq	r0, r0, r8, rrx
  80:	0000006c 	andeq	r0, r0, ip, rrx
  84:	000000ac 	andeq	r0, r0, ip, lsr #1
  88:	000000b0 	strheq	r0, [r0], -r0	; <UNPREDICTABLE>
  8c:	000000b8 	strheq	r0, [r0], -r8
	...
  98:	000000e8 	andeq	r0, r0, r8, ror #1
  9c:	000000f0 	strdeq	r0, [r0], -r0	; <UNPREDICTABLE>
  a0:	000000f4 	strdeq	r0, [r0], -r4
  a4:	00000134 	andeq	r0, r0, r4, lsr r1
  a8:	00000138 	andeq	r0, r0, r8, lsr r1
  ac:	00000140 	andeq	r0, r0, r0, asr #2
	...
  b8:	000000f0 	strdeq	r0, [r0], -r0	; <UNPREDICTABLE>
  bc:	000000f0 	strdeq	r0, [r0], -r0	; <UNPREDICTABLE>
  c0:	000000f4 	strdeq	r0, [r0], -r4
  c4:	00000134 	andeq	r0, r0, r4, lsr r1
  c8:	00000138 	andeq	r0, r0, r8, lsr r1
  cc:	00000140 	andeq	r0, r0, r0, asr #2
	...
  d8:	00000144 	andeq	r0, r0, r4, asr #2
  dc:	00000148 	andeq	r0, r0, r8, asr #2
  e0:	00000150 	andeq	r0, r0, r0, asr r1
  e4:	0000015c 	andeq	r0, r0, ip, asr r1
	...
  f0:	000000a4 	andeq	r0, r0, r4, lsr #1
  f4:	00000148 	andeq	r0, r0, r8, asr #2
  f8:	00000158 	andeq	r0, r0, r8, asr r1
  fc:	0000015c 	andeq	r0, r0, ip, asr r1
 100:	00000274 	andeq	r0, r0, r4, ror r2
 104:	00000278 	andeq	r0, r0, r8, ror r2
 108:	0000027c 	andeq	r0, r0, ip, ror r2
 10c:	00000280 	andeq	r0, r0, r0, lsl #5
 110:	00000288 	andeq	r0, r0, r8, lsl #5
 114:	0000029c 	muleq	r0, ip, r2
 118:	000002c0 	andeq	r0, r0, r0, asr #5
 11c:	000002cc 	andeq	r0, r0, ip, asr #5
 120:	000002f0 	strdeq	r0, [r0], -r0	; <UNPREDICTABLE>
 124:	000002f0 	strdeq	r0, [r0], -r0	; <UNPREDICTABLE>
 128:	000002f4 	strdeq	r0, [r0], -r4
 12c:	000002f8 	strdeq	r0, [r0], -r8
	...
 138:	00000148 	andeq	r0, r0, r8, asr #2
 13c:	00000158 	andeq	r0, r0, r8, asr r1
 140:	0000015c 	andeq	r0, r0, ip, asr r1
 144:	0000018c 	andeq	r0, r0, ip, lsl #3
 148:	0000029c 	muleq	r0, ip, r2
 14c:	000002ac 	andeq	r0, r0, ip, lsr #5
	...
 158:	000003c8 	andeq	r0, r0, r8, asr #7
 15c:	000003d0 	ldrdeq	r0, [r0], -r0	; <UNPREDICTABLE>
 160:	00000404 	andeq	r0, r0, r4, lsl #8
 164:	000004ac 	andeq	r0, r0, ip, lsr #9
 168:	000004c0 	andeq	r0, r0, r0, asr #9
 16c:	00000920 	andeq	r0, r0, r0, lsr #18
 170:	00000928 	andeq	r0, r0, r8, lsr #18
 174:	000009b4 			; <UNDEFINED> instruction: 0x000009b4
	...
 180:	000003c8 	andeq	r0, r0, r8, asr #7
 184:	000003d0 	ldrdeq	r0, [r0], -r0	; <UNPREDICTABLE>
 188:	00000504 	andeq	r0, r0, r4, lsl #10
 18c:	000005d0 	ldrdeq	r0, [r0], -r0	; <UNPREDICTABLE>
 190:	00000800 	andeq	r0, r0, r0, lsl #16
 194:	00000888 	andeq	r0, r0, r8, lsl #17
 198:	00000930 	andeq	r0, r0, r0, lsr r9
 19c:	000009b4 			; <UNDEFINED> instruction: 0x000009b4
	...
 1a8:	00000404 	andeq	r0, r0, r4, lsl #8
 1ac:	00000408 	andeq	r0, r0, r8, lsl #8
 1b0:	00000414 	andeq	r0, r0, r4, lsl r4
 1b4:	00000414 	andeq	r0, r0, r4, lsl r4
 1b8:	00000428 	andeq	r0, r0, r8, lsr #8
 1bc:	0000042c 	andeq	r0, r0, ip, lsr #8
	...
 1c8:	000005fc 	strdeq	r0, [r0], -ip
 1cc:	00000700 	andeq	r0, r0, r0, lsl #14
 1d0:	000007ec 	andeq	r0, r0, ip, ror #15
 1d4:	000007f4 	strdeq	r0, [r0], -r4
 1d8:	00000888 	andeq	r0, r0, r8, lsl #17
 1dc:	00000894 	muleq	r0, r4, r8
 1e0:	000008a8 	andeq	r0, r0, r8, lsr #17
 1e4:	000008bc 			; <UNDEFINED> instruction: 0x000008bc
 1e8:	00000910 	andeq	r0, r0, r0, lsl r9
 1ec:	00000920 	andeq	r0, r0, r0, lsr #18
	...
 1f8:	00000600 	andeq	r0, r0, r0, lsl #12
 1fc:	00000604 	andeq	r0, r0, r4, lsl #12
 200:	00000608 	andeq	r0, r0, r8, lsl #12
 204:	000006b4 			; <UNDEFINED> instruction: 0x000006b4
 208:	000006cc 	andeq	r0, r0, ip, asr #13
 20c:	000006d0 	ldrdeq	r0, [r0], -r0	; <UNPREDICTABLE>
 210:	000008a8 	andeq	r0, r0, r8, lsr #17
 214:	000008b8 			; <UNDEFINED> instruction: 0x000008b8
 218:	00000910 	andeq	r0, r0, r0, lsl r9
 21c:	00000920 	andeq	r0, r0, r0, lsr #18
	...
 228:	000006b4 			; <UNDEFINED> instruction: 0x000006b4
 22c:	000006cc 	andeq	r0, r0, ip, asr #13
 230:	000006d0 	ldrdeq	r0, [r0], -r0	; <UNPREDICTABLE>
 234:	00000700 	andeq	r0, r0, r0, lsl #14
 238:	000007ec 	andeq	r0, r0, ip, ror #15
 23c:	000007f4 	strdeq	r0, [r0], -r4
 240:	00000888 	andeq	r0, r0, r8, lsl #17
 244:	00000894 	muleq	r0, r4, r8
 248:	000008b8 			; <UNDEFINED> instruction: 0x000008b8
 24c:	000008bc 			; <UNDEFINED> instruction: 0x000008bc
	...
 258:	00000700 	andeq	r0, r0, r0, lsl #14
 25c:	00000708 	andeq	r0, r0, r8, lsl #14
 260:	0000070c 	andeq	r0, r0, ip, lsl #14
 264:	000007ec 	andeq	r0, r0, ip, ror #15
 268:	00000894 	muleq	r0, r4, r8
 26c:	000008a8 	andeq	r0, r0, r8, lsr #17
	...
 278:	00000728 	andeq	r0, r0, r8, lsr #14
 27c:	000007a4 	andeq	r0, r0, r4, lsr #15
 280:	000007ac 	andeq	r0, r0, ip, lsr #15
 284:	000007b0 			; <UNDEFINED> instruction: 0x000007b0
 288:	00000894 	muleq	r0, r4, r8
 28c:	00000898 	muleq	r0, r8, r8
 290:	0000089c 	muleq	r0, ip, r8
 294:	000008a0 	andeq	r0, r0, r0, lsr #17
	...
 2a0:	000007a4 	andeq	r0, r0, r4, lsr #15
 2a4:	000007ac 	andeq	r0, r0, ip, lsr #15
 2a8:	000007b0 			; <UNDEFINED> instruction: 0x000007b0
 2ac:	000007ec 	andeq	r0, r0, ip, ror #15
 2b0:	00000898 	muleq	r0, r8, r8
 2b4:	0000089c 	muleq	r0, ip, r8
 2b8:	000008a0 	andeq	r0, r0, r0, lsr #17
 2bc:	000008a8 	andeq	r0, r0, r8, lsr #17
	...
 2c8:	000000f0 	strdeq	r0, [r0], -r0	; <UNPREDICTABLE>
 2cc:	000000f8 	strdeq	r0, [r0], -r8
 2d0:	000000fc 	strdeq	r0, [r0], -ip
 2d4:	00000108 	andeq	r0, r0, r8, lsl #2
	...
 2e0:	00009cd4 	ldrdeq	r9, [r0], -r4
 2e4:	00009cd4 	ldrdeq	r9, [r0], -r4
 2e8:	00009cd8 	ldrdeq	r9, [r0], -r8
 2ec:	00009ce0 	andeq	r9, r0, r0, ror #25
	...
 2f8:	00009ca8 	andeq	r9, r0, r8, lsr #25
 2fc:	00009d34 	andeq	r9, r0, r4, lsr sp
	...
 308:	00000030 	andeq	r0, r0, r0, lsr r0
 30c:	00000030 	andeq	r0, r0, r0, lsr r0
 310:	00000038 	andeq	r0, r0, r8, lsr r0
 314:	0000004c 	andeq	r0, r0, ip, asr #32
	...
 320:	0000004c 	andeq	r0, r0, ip, asr #32
 324:	00000050 	andeq	r0, r0, r0, asr r0
 328:	00000050 	andeq	r0, r0, r0, asr r0
 32c:	00000078 	andeq	r0, r0, r8, ror r0
	...
 338:	0000004c 	andeq	r0, r0, ip, asr #32
 33c:	00000050 	andeq	r0, r0, r0, asr r0
 340:	00000050 	andeq	r0, r0, r0, asr r0
 344:	00000060 	andeq	r0, r0, r0, rrx
 348:	00000064 	andeq	r0, r0, r4, rrx
 34c:	00000068 	andeq	r0, r0, r8, rrx
	...
 358:	0000004c 	andeq	r0, r0, ip, asr #32
 35c:	00000050 	andeq	r0, r0, r0, asr r0
 360:	00000054 	andeq	r0, r0, r4, asr r0
 364:	00000060 	andeq	r0, r0, r0, rrx
	...
 370:	0000009c 	muleq	r0, ip, r0
 374:	000000a0 	andeq	r0, r0, r0, lsr #1
 378:	000000a0 	andeq	r0, r0, r0, lsr #1
 37c:	000000c8 	andeq	r0, r0, r8, asr #1
	...
 388:	0000009c 	muleq	r0, ip, r0
 38c:	000000a0 	andeq	r0, r0, r0, lsr #1
 390:	000000a0 	andeq	r0, r0, r0, lsr #1
 394:	000000b0 	strheq	r0, [r0], -r0	; <UNPREDICTABLE>
 398:	000000b4 	strheq	r0, [r0], -r4
 39c:	000000b8 	strheq	r0, [r0], -r8
	...
 3a8:	0000009c 	muleq	r0, ip, r0
 3ac:	000000a0 	andeq	r0, r0, r0, lsr #1
 3b0:	000000a4 	andeq	r0, r0, r4, lsr #1
 3b4:	000000b0 	strheq	r0, [r0], -r0	; <UNPREDICTABLE>
	...
 3c0:	000000c8 	andeq	r0, r0, r8, asr #1
 3c4:	000000c8 	andeq	r0, r0, r8, asr #1
 3c8:	000000cc 	andeq	r0, r0, ip, asr #1
 3cc:	0000011c 	andeq	r0, r0, ip, lsl r1
	...
 3d8:	000000f0 	strdeq	r0, [r0], -r0	; <UNPREDICTABLE>
 3dc:	000000f4 	strdeq	r0, [r0], -r4
 3e0:	000000f4 	strdeq	r0, [r0], -r4
 3e4:	0000011c 	andeq	r0, r0, ip, lsl r1
	...
 3f0:	000000f0 	strdeq	r0, [r0], -r0	; <UNPREDICTABLE>
 3f4:	000000f4 	strdeq	r0, [r0], -r4
 3f8:	000000f4 	strdeq	r0, [r0], -r4
 3fc:	00000104 	andeq	r0, r0, r4, lsl #2
 400:	00000108 	andeq	r0, r0, r8, lsl #2
 404:	0000010c 	andeq	r0, r0, ip, lsl #2
	...
 410:	000000f0 	strdeq	r0, [r0], -r0	; <UNPREDICTABLE>
 414:	000000f4 	strdeq	r0, [r0], -r4
 418:	000000f8 	strdeq	r0, [r0], -r8
 41c:	00000104 	andeq	r0, r0, r4, lsl #2
	...

Disassembly of section .debug_line:

00000000 <.debug_line>:
       0:	000003f3 	strdeq	r0, [r0], -r3
       4:	00c20003 	sbceq	r0, r2, r3
       8:	01020000 	mrseq	r0, (UNDEF: 2)
       c:	000d0efb 	strdeq	r0, [sp], -fp
      10:	01010101 	tsteq	r1, r1, lsl #2
      14:	01000000 	mrseq	r0, (UNDEF: 0)
      18:	2f010000 	svccs	0x00010000
      1c:	2f74706f 	svccs	0x0074706f
      20:	656d6f68 	strbvs	r6, [sp, #-3944]!	; 0xfffff098
      24:	77657262 	strbvc	r7, [r5, -r2, ror #4]!
      28:	6c65432f 	stclvs	3, cr4, [r5], #-188	; 0xffffff44
      2c:	2f72616c 	svccs	0x0072616c
      30:	2d6d7261 	sfmcs	f7, 2, [sp, #-388]!	; 0xfffffe7c
      34:	656e6f6e 	strbvs	r6, [lr, #-3950]!	; 0xfffff092
      38:	6261652d 	rsbvs	r6, r1, #188743680	; 0xb400000
      3c:	2f392d69 	svccs	0x00392d69
      40:	30322d39 	eorscc	r2, r2, r9, lsr sp
      44:	34713931 	ldrbtcc	r3, [r1], #-2353	; 0xfffff6cf
      48:	3173632d 	cmncc	r3, sp, lsr #6
      4c:	2f653730 	svccs	0x00653730
      50:	2f62696c 	svccs	0x0062696c
      54:	2f636367 	svccs	0x00636367
      58:	2d6d7261 	sfmcs	f7, 2, [sp, #-388]!	; 0xfffffe7c
      5c:	656e6f6e 	strbvs	r6, [lr, #-3950]!	; 0xfffff092
      60:	6261652d 	rsbvs	r6, r1, #188743680	; 0xb400000
      64:	2e392f69 	cdpcs	15, 3, cr2, cr9, cr9, {3}
      68:	2f312e32 	svccs	0x00312e32
      6c:	6c636e69 	stclvs	14, cr6, [r3], #-420	; 0xfffffe5c
      70:	00656475 	rsbeq	r6, r5, r5, ror r4
      74:	6573552f 	ldrbvs	r5, [r3, #-1327]!	; 0xfffffad1
      78:	6d2f7372 	stcvs	3, cr7, [pc, #-456]!	; fffffeb8 <__bss_end__+0xffff5320>
      7c:	73656c69 	cmnvc	r5, #26880	; 0x6900
      80:	756f532f 	strbvc	r5, [pc, #-815]!	; fffffd59 <__bss_end__+0xffff51c1>
      84:	2f656372 	svccs	0x00656372
      88:	34327363 	ldrtcc	r7, [r2], #-867	; 0xfffffc9d
      8c:	2f786c30 	svccs	0x00786c30
      90:	7062696c 	rsbvc	r6, r2, ip, ror #18
      94:	6e692f69 	cdpvs	15, 6, cr2, cr9, cr9, {3}
      98:	64756c63 	ldrbtvs	r6, [r5], #-3171	; 0xfffff39d
      9c:	67000065 	strvs	r0, [r0, -r5, rrx]
      a0:	2e6f7279 	mcrcs	2, 3, r7, cr15, cr9, {3}
      a4:	00000063 	andeq	r0, r0, r3, rrx
      a8:	64747300 	ldrbtvs	r7, [r4], #-768	; 0xfffffd00
      ac:	2d746e69 	ldclcs	14, cr6, [r4, #-420]!	; 0xfffffe5c
      b0:	2e636367 	cdpcs	3, 6, cr6, cr3, cr7, {3}
      b4:	00010068 	andeq	r0, r1, r8, rrx
      b8:	69707200 	ldmdbvs	r0!, {r9, ip, sp, lr}^
      bc:	0200682e 	andeq	r6, r0, #3014656	; 0x2e0000
      c0:	32690000 	rsbcc	r0, r9, #0, 0
      c4:	00682e63 	rsbeq	r2, r8, r3, ror #28
      c8:	00000000 	andeq	r0, r0, r0
      cc:	05002d05 	streq	r2, [r0, #-3333]	; 0xfffff2fb
      d0:	00803802 	addeq	r3, r0, r2, lsl #16
      d4:	00dd0300 	sbcseq	r0, sp, r0, lsl #6
      d8:	13050501 	movwne	r0, #21761	; 0x5501
      dc:	01060c05 	tsteq	r6, r5, lsl #24
      e0:	052f0105 	streq	r0, [pc, #-261]!	; ffffffe3 <__bss_end__+0xffff544b>
      e4:	2703062e 	strcs	r0, [r3, -lr, lsr #12]
      e8:	1405054a 	strne	r0, [r5], #-1354	; 0xfffffab6
      ec:	01060705 	tsteq	r6, r5, lsl #14
      f0:	4c060a05 			; <UNDEFINED> instruction: 0x4c060a05
      f4:	01060c05 	tsteq	r6, r5, lsl #24
      f8:	4b060905 	blmi	182514 <__bss_end__+0x17797c>
      fc:	01061505 	tsteq	r6, r5, lsl #10
     100:	2e1c054a 	cfmac32cs	mvfx0, mvfx12, mvfx10
     104:	05a10105 	streq	r0, [r1, #261]!	; 0x105
     108:	05290609 	streq	r0, [r9, #-1545]!	; 0xfffff9f7
     10c:	4a010615 	bmi	41968 <__bss_end__+0x36dd0>
     110:	052e1c05 	streq	r1, [lr, #-3077]!	; 0xfffff3fb
     114:	0905b72e 	stmdbeq	r5, {r1, r2, r3, r5, r8, r9, sl, ip, sp, pc}
     118:	06015106 	streq	r5, [r1], -r6, lsl #2
     11c:	2e062e82 	cdpcs	14, 0, cr2, cr6, cr2, {4}
     120:	6d032705 	stcvs	7, cr2, [r3, #-20]	; 0xffffffec
     124:	1305059e 	movwne	r0, #21918	; 0x559e
     128:	dc061705 	stcle	7, cr1, [r6], {5}
     12c:	2f060e05 	svccs	0x00060e05
     130:	14060105 	strne	r0, [r6], #-261	; 0xfffffefb
     134:	77030505 	strvc	r0, [r3, -r5, lsl #10]
     138:	27059e2e 	strcs	r9, [r5, -lr, lsr #28]
     13c:	060e052d 	streq	r0, [lr], -sp, lsr #10
     140:	9e060152 	mcrls	1, 0, r0, cr6, cr2, {2}
     144:	17052e06 	strne	r2, [r5, -r6, lsl #28]
     148:	052e2b06 	streq	r2, [lr, #-2822]!	; 0xfffff4fa
     14c:	052e2a05 	streq	r2, [lr, #-2565]!	; 0xfffff5fb
     150:	052e3317 	streq	r3, [lr, #-791]!	; 0xfffffce9
     154:	1003062d 	andne	r0, r3, sp, lsr #12
     158:	050106f2 	streq	r0, [r1, #-1778]	; 0xfffff90e
     15c:	054b0605 	strbeq	r0, [fp, #-1541]	; 0xfffff9fb
     160:	2e010613 	mcrcs	6, 0, r0, cr1, cr3, {0}
     164:	052e1105 	streq	r1, [lr, #-261]!	; 0xfffffefb
     168:	01052e26 	tsteq	r5, r6, lsr #28
     16c:	06450567 	strbeq	r0, [r5], -r7, ror #10
     170:	06660903 	strbteq	r0, [r6], -r3, lsl #18
     174:	06050501 	streq	r0, [r5], -r1, lsl #10
     178:	061e0583 	ldreq	r0, [lr], -r3, lsl #11
     17c:	0f052e01 	svceq	0x00052e01
     180:	0605052e 	streq	r0, [r5], -lr, lsr #10
     184:	06100567 	ldreq	r0, [r0], -r7, ror #10
     188:	052e2e01 	streq	r2, [lr, #-3585]!	; 0xfffff1ff
     18c:	132f0605 			; <UNDEFINED> instruction: 0x132f0605
     190:	75031305 	strvc	r1, [r3, #-773]	; 0xfffffcfb
     194:	13050501 	movwne	r0, #21761	; 0x5501
     198:	06070513 			; <UNDEFINED> instruction: 0x06070513
     19c:	05052e01 	streq	r2, [r5, #-3585]	; 0xfffff1ff
     1a0:	01063006 	tsteq	r6, r6
     1a4:	05190705 	ldreq	r0, [r9, #-1797]	; 0xfffff8fb
     1a8:	144b0609 	strbne	r0, [fp], #-1545	; 0xfffff9f7
     1ac:	83060105 	movwhi	r0, #24837	; 0x6105
     1b0:	03060905 	movweq	r0, #26885	; 0x6905
     1b4:	0e054a74 			; <UNDEFINED> instruction: 0x0e054a74
     1b8:	2e2e0106 	sufcse	f0, f6, f6
     1bc:	03060905 	movweq	r0, #26885	; 0x6905
     1c0:	06010109 	streq	r0, [r1], -r9, lsl #2
     1c4:	4a062e9e 	bmi	18bc44 <__bss_end__+0x1810ac>
     1c8:	fb033005 	blx	cc1e6 <__bss_end__+0xc164e>
     1cc:	01069e7e 	tsteq	r6, lr, ror lr
     1d0:	83060505 	movwhi	r0, #25861	; 0x6505
     1d4:	0105ba06 	tsteq	r5, r6, lsl #20
     1d8:	062b052f 	strteq	r0, [fp], -pc, lsr #10
     1dc:	0501066b 	streq	r0, [r1, #-1643]	; 0xfffff995
     1e0:	06830605 	streq	r0, [r3], r5, lsl #12
     1e4:	1330064a 	teqne	r0, #77594624	; 0x4a00000
     1e8:	06010583 	streq	r0, [r1], -r3, lsl #11
     1ec:	06330513 			; <UNDEFINED> instruction: 0x06330513
     1f0:	05010669 	streq	r0, [r1, #-1641]	; 0xfffff997
     1f4:	134b0605 	movtne	r0, #46597	; 0xb605
     1f8:	01060d05 	tsteq	r6, r5, lsl #26
     1fc:	2f060505 	svccs	0x00060505
     200:	01060d05 	tsteq	r6, r5, lsl #26
     204:	2f060505 	svccs	0x00060505
     208:	052e2e06 	streq	r2, [lr, #-3590]!	; 0xfffff1fa
     20c:	46053001 	strmi	r3, [r5], -r1
     210:	01064e06 	tsteq	r6, r6, lsl #28
     214:	bb060905 	bllt	182630 <__bss_end__+0x177a98>
     218:	062e2e06 	strteq	r2, [lr], -r6, lsl #28
     21c:	0610052f 	ldreq	r0, [r0], -pc, lsr #10
     220:	83010501 	movwhi	r0, #5377	; 0x1501
     224:	063b054a 	ldrteq	r0, [fp], -sl, asr #10
     228:	f4020500 	vst3.8	{d0,d2,d4}, [r2], r0
     22c:	03000082 	movweq	r0, #130	; 0x82
     230:	0106012b 	tsteq	r6, fp, lsr #2
     234:	9f060505 	svcls	0x00060505
     238:	d9180513 	ldmdble	r8, {r0, r1, r4, r8, sl}
     23c:	05012405 	streq	r2, [r1, #-1029]	; 0xfffffbfb
     240:	0501061c 	streq	r0, [r1, #-1564]	; 0xfffff9e4
     244:	18052e05 	stmdane	r5, {r0, r2, r9, sl, fp, sp}
     248:	24052f06 	strcs	r2, [r5], #-3846	; 0xfffff0fa
     24c:	061c0501 	ldreq	r0, [ip], -r1, lsl #10
     250:	2e050501 	cfsh32cs	mvfx0, mvfx5, #1
     254:	2f060e05 	svccs	0x00060e05
     258:	2e820601 	cdpcs	6, 8, cr0, cr2, cr1, {0}
     25c:	052e062e 	streq	r0, [lr, #-1582]!	; 0xfffff9d2
     260:	052c061c 	streq	r0, [ip, #-1564]!	; 0xfffff9e4
     264:	0530060e 	ldreq	r0, [r0, #-1550]!	; 0xfffff9f2
     268:	2e061805 	cdpcs	8, 0, cr1, cr6, cr5, {0}
     26c:	2f062e2e 	svccs	0x00062e2e
     270:	060c059f 			; <UNDEFINED> instruction: 0x060c059f
     274:	83010501 	movwhi	r0, #5377	; 0x1501
     278:	74031b05 	strvc	r1, [r3], #-2821	; 0xfffff4fb
     27c:	06240566 	strteq	r0, [r4], -r6, ror #10
     280:	059e0f03 	ldreq	r0, [lr, #3843]	; 0xf03
     284:	01051305 	tsteq	r5, r5, lsl #6
     288:	052e1306 	streq	r1, [lr, #-774]!	; 0xfffffcfa
     28c:	2d030624 	stccs	6, cr0, [r3, #-144]	; 0xffffff70
     290:	0501062e 	streq	r0, [r1, #-1582]	; 0xfffff9d2
     294:	13690605 	cmnne	r9, #5242880	; 0x500000
     298:	01060d05 	tsteq	r6, r5, lsl #26
     29c:	30060505 	andcc	r0, r6, r5, lsl #10
     2a0:	02000905 	andeq	r0, r0, #81920	; 0x14000
     2a4:	05130104 	ldreq	r0, [r3, #-260]	; 0xfffffefc
     2a8:	0402000a 	streq	r0, [r2], #-10
     2ac:	0c051101 	stfeqs	f1, [r5], {1}
     2b0:	01040200 	mrseq	r0, R12_usr
     2b4:	0a050106 	beq	1406d4 <__bss_end__+0x135b3c>
     2b8:	01040200 	mrseq	r0, R12_usr
     2bc:	0605054a 	streq	r0, [r5], -sl, asr #10
     2c0:	0905134d 	stmdbeq	r5, {r0, r2, r3, r6, r8, r9, ip}
     2c4:	05820106 	streq	r0, [r2, #262]	; 0x106
     2c8:	05d70605 	ldrbeq	r0, [r7, #1541]	; 0x605
     2cc:	4a010609 	bmi	41af8 <__bss_end__+0x36f60>
     2d0:	08060505 	stmdaeq	r6, {r0, r2, r8, sl}
     2d4:	06090521 	streq	r0, [r9], -r1, lsr #10
     2d8:	05054a01 	streq	r4, [r5, #-2561]	; 0xfffff5ff
     2dc:	0105f406 	tsteq	r5, r6, lsl #8	; <UNPREDICTABLE>
     2e0:	017ee503 	cmneq	lr, r3, lsl #10
     2e4:	05130505 	ldreq	r0, [r3, #-1285]	; 0xfffffafb
     2e8:	6601060c 	strvs	r0, [r1], -ip, lsl #12
     2ec:	9b030105 	blls	c0708 <__bss_end__+0xb5b70>
     2f0:	052e0101 	streq	r0, [lr, #-257]!	; 0xfffffeff
     2f4:	06310630 			; <UNDEFINED> instruction: 0x06310630
     2f8:	05058201 	streq	r8, [r5, #-513]	; 0xfffffdff
     2fc:	10052f06 	andne	r2, r5, r6, lsl #30
     300:	05050106 	streq	r0, [r5, #-262]	; 0xfffffefa
     304:	0d052f06 	stceq	15, cr2, [r5, #-24]	; 0xffffffe8
     308:	052e0106 	streq	r0, [lr, #-262]!	; 0xfffffefa
     30c:	05670605 	strbeq	r0, [r7, #-1541]!	; 0xfffff9fb
     310:	4a01060d 	bmi	41b4c <__bss_end__+0x36fb4>
     314:	4b060505 	blmi	181730 <__bss_end__+0x176b98>
     318:	01060d05 	tsteq	r6, r5, lsl #26
     31c:	0605054a 	streq	r0, [r5], -sl, asr #10
     320:	0301052f 	movweq	r0, #5423	; 0x152f
     324:	05017edc 	streq	r7, [r1, #-3804]	; 0xfffff124
     328:	0c051305 	stceq	3, cr1, [r5], {5}
     32c:	05660106 	strbeq	r0, [r6, #-262]!	; 0xfffffefa
     330:	01a40301 			; <UNDEFINED> instruction: 0x01a40301
     334:	052e2e01 	streq	r2, [lr, #-3585]!	; 0xfffff1ff
     338:	064d0622 	strbeq	r0, [sp], -r2, lsr #12
     33c:	06050501 	streq	r0, [r5], -r1, lsl #10
     340:	01056833 	tsteq	r5, r3, lsr r8
     344:	14054b06 	strne	r4, [r5], #-2822	; 0xfffff4fa
     348:	05053306 	streq	r3, [r5, #-774]	; 0xfffffcfa
     34c:	4d2f4b4c 	vstmdbmi	pc!, {d4-<overflow reg d41>}
     350:	11051a14 	tstne	r5, r4, lsl sl
     354:	05050106 	streq	r0, [r5, #-262]	; 0xfffffefa
     358:	13068306 	movwne	r8, #25350	; 0x6306
     35c:	05490705 	strbeq	r0, [r9, #-1797]	; 0xfffff8fb
     360:	18690609 	stmdane	r9!, {r0, r3, r9, sl}^
     364:	05052e06 	streq	r2, [r5, #-3590]	; 0xfffff1fa
     368:	134d3106 	movtne	r3, #53510	; 0xd106
     36c:	a19f9f9f 	ldrexge	r9, [pc]	; <UNPREDICTABLE>
     370:	01061005 	tsteq	r6, r5
     374:	83060505 	movwhi	r0, #25861	; 0x6505
     378:	060d0501 	streq	r0, [sp], -r1, lsl #10
     37c:	00140567 	andseq	r0, r4, r7, ror #10
     380:	06010402 	streq	r0, [r1], -r2, lsl #8
     384:	0005052e 	andeq	r0, r5, lr, lsr #10
     388:	06010402 	streq	r0, [r1], -r2, lsl #8
     38c:	00090501 	andeq	r0, r9, r1, lsl #10
     390:	06030402 	streq	r0, [r3], -r2, lsl #8
     394:	001d054b 	andseq	r0, sp, fp, asr #10
     398:	06030402 	streq	r0, [r3], -r2, lsl #8
     39c:	00090501 	andeq	r0, r9, r1, lsl #10
     3a0:	06030402 	streq	r0, [r3], -r2, lsl #8
     3a4:	04020083 	streq	r0, [r2], #-131	; 0xffffff7d
     3a8:	02006703 	andeq	r6, r0, #786432	; 0xc0000
     3ac:	00670304 	rsbeq	r0, r7, r4, lsl #6
     3b0:	08030402 	stmdaeq	r3, {r1, sl}
     3b4:	001d053d 	andseq	r0, sp, sp, lsr r5
     3b8:	45030402 	strmi	r0, [r3, #-1026]	; 0xfffffbfe
     3bc:	02001e05 	andeq	r1, r0, #80	; 0x50
     3c0:	01060304 	tsteq	r6, r4, lsl #6
     3c4:	03040200 	movweq	r0, #16896	; 0x4200
     3c8:	0402002e 	streq	r0, [r2], #-46	; 0xffffffd2
     3cc:	09052e03 	stmdbeq	r5, {r0, r1, r9, sl, fp, sp}
     3d0:	016b0306 	cmneq	fp, r6, lsl #6
     3d4:	58080601 	stmdapl	r8, {r0, r9, sl}
     3d8:	05052e06 	streq	r2, [r5, #-3590]	; 0xfffff1fa
     3dc:	01040200 	mrseq	r0, R12_usr
     3e0:	002e1403 	eoreq	r1, lr, r3, lsl #8
     3e4:	01010402 	tsteq	r1, r2, lsl #8
     3e8:	01040200 	mrseq	r0, R12_usr
     3ec:	060105d6 			; <UNDEFINED> instruction: 0x060105d6
     3f0:	12024a36 	andne	r4, r2, #221184	; 0x36000
     3f4:	55010100 	strpl	r0, [r1, #-256]	; 0xffffff00
     3f8:	03000009 	movweq	r0, #9
     3fc:	00009200 	andeq	r9, r0, r0, lsl #4
     400:	fb010200 	blx	40c0a <__bss_end__+0x36072>
     404:	01000d0e 	tsteq	r0, lr, lsl #26
     408:	00010101 	andeq	r0, r1, r1, lsl #2
     40c:	00010000 	andeq	r0, r1, r0
     410:	752f0100 	strvc	r0, [pc, #-256]!	; 318 <__code_start__-0x7ce8>
     414:	6c2f7273 	sfmvs	f7, 4, [pc], #-460	; 250 <__code_start__-0x7db0>
     418:	672f6269 	strvs	r6, [pc, -r9, ror #4]!
     41c:	612f6363 			; <UNDEFINED> instruction: 0x612f6363
     420:	6e2d6d72 	mcrvs	13, 1, r6, cr13, cr2, {3}
     424:	2d656e6f 	stclcs	14, cr6, [r5, #-444]!	; 0xfffffe44
     428:	69626165 	stmdbvs	r2!, {r0, r2, r5, r6, r8, sp, lr}^
     42c:	322e392f 	eorcc	r3, lr, #770048	; 0xbc000
     430:	692f312e 	stmdbvs	pc!, {r1, r2, r3, r5, r8, ip, sp}	; <UNPREDICTABLE>
     434:	756c636e 	strbvc	r6, [ip, #-878]!	; 0xfffffc92
     438:	2f006564 	svccs	0x00006564
     43c:	656d6f68 	strbvs	r6, [sp, #-3944]!	; 0xfffff098
     440:	676e652f 	strbvs	r6, [lr, -pc, lsr #10]!
     444:	2f72656c 	svccs	0x0072656c
     448:	73616c63 	cmnvc	r1, #25344	; 0x6300
     44c:	73632f73 	cmnvc	r3, #460	; 0x1cc
     450:	2d6e3934 			; <UNDEFINED> instruction: 0x2d6e3934
     454:	75613132 	strbvc	r3, [r1, #-306]!	; 0xfffffece
     458:	6c2f2f74 	stcvs	15, cr2, [pc], #-464	; 290 <__code_start__-0x7d70>
     45c:	69706269 	ldmdbvs	r0!, {r0, r3, r5, r6, r9, sp, lr}^
     460:	636e692f 	cmnvs	lr, #770048	; 0xbc000
     464:	6564756c 	strbvs	r7, [r4, #-1388]!	; 0xfffffa94
     468:	32690000 	rsbcc	r0, r9, #0, 0
     46c:	00632e63 	rsbeq	r2, r3, r3, ror #28
     470:	73000000 	movwvc	r0, #0
     474:	6e696474 	mcrvs	4, 3, r6, cr9, cr4, {3}
     478:	00682e74 	rsbeq	r2, r8, r4, ror lr
     47c:	72000001 	andvc	r0, r0, #1, 0
     480:	682e6970 	stmdavs	lr!, {r4, r5, r6, r8, fp, sp, lr}
     484:	00000200 	andeq	r0, r0, r0, lsl #4
     488:	6f697067 	svcvs	0x00697067
     48c:	0200682e 	andeq	r6, r0, #3014656	; 0x2e0000
     490:	05000000 	streq	r0, [r0, #-0]
     494:	02050029 	andeq	r0, r5, #41, 0	; 0x29
     498:	0000868c 	andeq	r8, r0, ip, lsl #13
     49c:	0100f603 	tsteq	r0, r3, lsl #12	; <UNPREDICTABLE>
     4a0:	13130205 	tstne	r3, #1342177280	; 0x50000000
     4a4:	060e0513 			; <UNDEFINED> instruction: 0x060e0513
     4a8:	02052e01 	andeq	r2, r5, #1, 28
     4ac:	0e052f06 	cdpeq	15, 0, cr2, cr5, cr6, {0}
     4b0:	02050106 	andeq	r0, r5, #-2147483647	; 0x80000001
     4b4:	01052f06 	tsteq	r5, r6, lsl #30
     4b8:	29051306 	stmdbcs	r5, {r1, r2, r8, r9, ip}
     4bc:	2e370306 	cdpcs	3, 3, cr0, cr7, cr6, {0}
     4c0:	13130205 	tstne	r3, #1342177280	; 0x50000000
     4c4:	13060105 	movwne	r0, #24837	; 0x6105
     4c8:	0620052e 	strteq	r0, [r0], -lr, lsr #10
     4cc:	4a01fa03 	bmi	7ece0 <__bss_end__+0x74148>
     4d0:	012f0505 			; <UNDEFINED> instruction: 0x012f0505
     4d4:	05013105 	streq	r3, [r1, #-261]	; 0xfffffefb
     4d8:	05011305 	streq	r1, [r1, #-773]	; 0xfffffcfb
     4dc:	05050130 	streq	r0, [r5, #-304]	; 0xfffffed0
     4e0:	2e050113 	mcrcs	1, 0, r0, cr5, cr3, {0}
     4e4:	13050501 	movwne	r0, #21761	; 0x5501
     4e8:	01320501 	teqeq	r2, r1, lsl #10
     4ec:	01130505 	tsteq	r3, r5, lsl #10
     4f0:	05012f05 	streq	r2, [r1, #-3845]	; 0xfffff0fb
     4f4:	05011305 	streq	r1, [r1, #-773]	; 0xfffffcfb
     4f8:	05050134 	streq	r0, [r5, #-308]	; 0xfffffecc
     4fc:	36050113 			; <UNDEFINED> instruction: 0x36050113
     500:	13050501 	movwne	r0, #21761	; 0x5501
     504:	01400501 	cmpeq	r0, r1, lsl #10
     508:	01140505 	tsteq	r4, r5, lsl #10
     50c:	05012705 	streq	r2, [r1, #-1797]	; 0xfffff8fb
     510:	01011302 	tsteq	r1, r2, lsl #6
     514:	01010101 	tsteq	r1, r1, lsl #2
     518:	01010101 	tsteq	r1, r1, lsl #2
     51c:	01010101 	tsteq	r1, r1, lsl #2
     520:	01010101 	tsteq	r1, r1, lsl #2
     524:	01011301 	tsteq	r1, r1, lsl #6
     528:	01010101 	tsteq	r1, r1, lsl #2
     52c:	01010101 	tsteq	r1, r1, lsl #2
     530:	01010101 	tsteq	r1, r1, lsl #2
     534:	01010101 	tsteq	r1, r1, lsl #2
     538:	01011301 	tsteq	r1, r1, lsl #6
     53c:	01010101 	tsteq	r1, r1, lsl #2
     540:	01010101 	tsteq	r1, r1, lsl #2
     544:	01010101 	tsteq	r1, r1, lsl #2
     548:	01010101 	tsteq	r1, r1, lsl #2
     54c:	01011301 	tsteq	r1, r1, lsl #6
     550:	01010101 	tsteq	r1, r1, lsl #2
     554:	01010101 	tsteq	r1, r1, lsl #2
     558:	01010101 	tsteq	r1, r1, lsl #2
     55c:	01010101 	tsteq	r1, r1, lsl #2
     560:	01011301 	tsteq	r1, r1, lsl #6
     564:	01010101 	tsteq	r1, r1, lsl #2
     568:	01010101 	tsteq	r1, r1, lsl #2
     56c:	01010101 	tsteq	r1, r1, lsl #2
     570:	01010101 	tsteq	r1, r1, lsl #2
     574:	01011301 	tsteq	r1, r1, lsl #6
     578:	01010101 	tsteq	r1, r1, lsl #2
     57c:	01010101 	tsteq	r1, r1, lsl #2
     580:	01010101 	tsteq	r1, r1, lsl #2
     584:	01010101 	tsteq	r1, r1, lsl #2
     588:	01011301 	tsteq	r1, r1, lsl #6
     58c:	01010101 	tsteq	r1, r1, lsl #2
     590:	01010101 	tsteq	r1, r1, lsl #2
     594:	01010101 	tsteq	r1, r1, lsl #2
     598:	01010101 	tsteq	r1, r1, lsl #2
     59c:	14050501 	strne	r0, [r5], #-1281	; 0xfffffaff
     5a0:	01270501 			; <UNDEFINED> instruction: 0x01270501
     5a4:	01130205 	tsteq	r3, r5, lsl #4
     5a8:	01010101 	tsteq	r1, r1, lsl #2
     5ac:	01010101 	tsteq	r1, r1, lsl #2
     5b0:	01010101 	tsteq	r1, r1, lsl #2
     5b4:	01010101 	tsteq	r1, r1, lsl #2
     5b8:	01130101 	tsteq	r3, r1, lsl #2
     5bc:	01010101 	tsteq	r1, r1, lsl #2
     5c0:	01010101 	tsteq	r1, r1, lsl #2
     5c4:	01010101 	tsteq	r1, r1, lsl #2
     5c8:	01010101 	tsteq	r1, r1, lsl #2
     5cc:	01130101 	tsteq	r3, r1, lsl #2
     5d0:	01010101 	tsteq	r1, r1, lsl #2
     5d4:	01010101 	tsteq	r1, r1, lsl #2
     5d8:	01010101 	tsteq	r1, r1, lsl #2
     5dc:	01010101 	tsteq	r1, r1, lsl #2
     5e0:	01130101 	tsteq	r3, r1, lsl #2
     5e4:	01010101 	tsteq	r1, r1, lsl #2
     5e8:	01010101 	tsteq	r1, r1, lsl #2
     5ec:	01010101 	tsteq	r1, r1, lsl #2
     5f0:	01010101 	tsteq	r1, r1, lsl #2
     5f4:	01130101 	tsteq	r3, r1, lsl #2
     5f8:	01010101 	tsteq	r1, r1, lsl #2
     5fc:	01010101 	tsteq	r1, r1, lsl #2
     600:	01010101 	tsteq	r1, r1, lsl #2
     604:	01010101 	tsteq	r1, r1, lsl #2
     608:	01130101 	tsteq	r3, r1, lsl #2
     60c:	01010101 	tsteq	r1, r1, lsl #2
     610:	01010101 	tsteq	r1, r1, lsl #2
     614:	01010101 	tsteq	r1, r1, lsl #2
     618:	01010101 	tsteq	r1, r1, lsl #2
     61c:	01130101 	tsteq	r3, r1, lsl #2
     620:	01010101 	tsteq	r1, r1, lsl #2
     624:	01010101 	tsteq	r1, r1, lsl #2
     628:	01010101 	tsteq	r1, r1, lsl #2
     62c:	01010101 	tsteq	r1, r1, lsl #2
     630:	01130101 	tsteq	r3, r1, lsl #2
     634:	01010101 	tsteq	r1, r1, lsl #2
     638:	01010101 	tsteq	r1, r1, lsl #2
     63c:	01010101 	tsteq	r1, r1, lsl #2
     640:	01010101 	tsteq	r1, r1, lsl #2
     644:	01130101 	tsteq	r3, r1, lsl #2
     648:	01010101 	tsteq	r1, r1, lsl #2
     64c:	01010101 	tsteq	r1, r1, lsl #2
     650:	01010101 	tsteq	r1, r1, lsl #2
     654:	01010101 	tsteq	r1, r1, lsl #2
     658:	01130101 	tsteq	r3, r1, lsl #2
     65c:	01050101 	tsteq	r5, r1, lsl #2
     660:	1c051306 	stcne	3, cr1, [r5], {6}
     664:	7ec70306 	cdpvc	3, 12, cr0, cr7, cr6, {0}
     668:	4c02052e 	cfstr32mi	mvfx0, [r2], {46}	; 0x2e
     66c:	04020001 	streq	r0, [r2], #-1
     670:	02000104 	andeq	r0, r0, #1
     674:	00010404 	andeq	r0, r1, r4, lsl #8
     678:	82050402 	andhi	r0, r5, #33554432	; 0x2000000
     67c:	02040200 	andeq	r0, r4, #0, 4
     680:	04020082 	streq	r0, [r2], #-130	; 0xffffff7e
     684:	02000102 	andeq	r0, r0, #-2147483648	; 0x80000000
     688:	00820304 	addeq	r0, r2, r4, lsl #6
     68c:	01030402 	tsteq	r3, r2, lsl #8
     690:	03040200 	movweq	r0, #16896	; 0x4200
     694:	0402009e 	streq	r0, [r2], #-158	; 0xffffff62
     698:	02002e01 	andeq	r2, r0, #1, 28
     69c:	00010104 	andeq	r0, r1, r4, lsl #2
     6a0:	9e010402 	cdpls	4, 0, cr0, cr1, cr2, {0}
     6a4:	06040200 	streq	r0, [r4], -r0, lsl #4
     6a8:	0402002e 	streq	r0, [r2], #-46	; 0xffffffd2
     6ac:	02001506 	andeq	r1, r0, #25165824	; 0x1800000
     6b0:	00010604 	andeq	r0, r1, r4, lsl #12
     6b4:	82020402 	andhi	r0, r2, #33554432	; 0x2000000
     6b8:	02040200 	andeq	r0, r4, #0, 4
     6bc:	04020001 	streq	r0, [r2], #-1
     6c0:	02001402 	andeq	r1, r0, #33554432	; 0x2000000
     6c4:	00010204 	andeq	r0, r1, r4, lsl #4
     6c8:	82020402 	andhi	r0, r2, #33554432	; 0x2000000
     6cc:	02040200 	andeq	r0, r4, #0, 4
     6d0:	04020001 	streq	r0, [r2], #-1
     6d4:	01051402 	tsteq	r5, r2, lsl #8
     6d8:	02040200 	andeq	r0, r4, #0, 4
     6dc:	02052f06 	andeq	r2, r5, #6, 30
     6e0:	01040200 	mrseq	r0, R12_usr
     6e4:	02004506 	andeq	r4, r0, #25165824	; 0x1800000
     6e8:	00010104 	andeq	r0, r1, r4, lsl #2
     6ec:	d6010402 	strle	r0, [r1], -r2, lsl #8
     6f0:	01040200 	mrseq	r0, R12_usr
     6f4:	04020030 	streq	r0, [r2], #-48	; 0xffffffd0
     6f8:	02000101 	andeq	r0, r0, #1073741824	; 0x40000000
     6fc:	05d60104 	ldrbeq	r0, [r6, #260]	; 0x104
     700:	7f9b0332 	svcvc	0x009b0332
     704:	01065808 	tsteq	r6, r8, lsl #16
     708:	2f060205 	svccs	0x00060205
     70c:	01011105 	tsteq	r1, r5, lsl #2
     710:	01010101 	tsteq	r1, r1, lsl #2
     714:	09052e01 	stmdbeq	r5, {r0, r9, sl, fp, sp}
     718:	01050106 	tsteq	r5, r6, lsl #2
     71c:	0620052f 	strteq	r0, [r0], -pc, lsr #10
     720:	052e2d03 	streq	r2, [lr, #-3331]!	; 0xfffff2fd
     724:	11052f02 	tstne	r5, r2, lsl #30
     728:	03050106 	movweq	r0, #20742	; 0x5106
     72c:	13166706 	tstne	r6, #1572864	; 0x180000
     730:	01130205 	tsteq	r3, r5, lsl #4
     734:	01010101 	tsteq	r1, r1, lsl #2
     738:	05010101 	streq	r0, [r1, #-257]	; 0xfffffeff
     73c:	05830601 	streq	r0, [r3, #1537]	; 0x601
     740:	8e030632 	mcrhi	6, 0, r0, cr3, cr2, {1}
     744:	01064a7f 	tsteq	r6, pc, ror sl
     748:	2f060205 	svccs	0x00060205
     74c:	01011105 	tsteq	r1, r5, lsl #2
     750:	01010101 	tsteq	r1, r1, lsl #2
     754:	09052e01 	stmdbeq	r5, {r0, r9, sl, fp, sp}
     758:	01050106 	tsteq	r5, r6, lsl #2
     75c:	0644052f 	strbeq	r0, [r4], -pc, lsr #10
     760:	2e00f303 	cdpcs	3, 0, cr15, cr0, cr3, {0}
     764:	05050106 	streq	r0, [r5, #-262]	; 0xfffffefa
     768:	02059f06 	andeq	r9, r5, #6, 30
     76c:	02000131 	andeq	r0, r0, #1073741836	; 0x4000000c
     770:	00010404 	andeq	r0, r1, r4, lsl #8
     774:	01040402 	tsteq	r4, r2, lsl #8
     778:	05040200 	streq	r0, [r4, #-512]	; 0xfffffe00
     77c:	04020082 	streq	r0, [r2], #-130	; 0xffffff7e
     780:	02008202 	andeq	r8, r0, #536870912	; 0x20000000
     784:	00010204 	andeq	r0, r1, r4, lsl #4
     788:	82030402 	andhi	r0, r3, #33554432	; 0x2000000
     78c:	03040200 	movweq	r0, #16896	; 0x4200
     790:	04020001 	streq	r0, [r2], #-1
     794:	02009e03 	andeq	r9, r0, #3, 28	; 0x30
     798:	002e0104 	eoreq	r0, lr, r4, lsl #2
     79c:	01010402 	tsteq	r1, r2, lsl #8
     7a0:	01040200 	mrseq	r0, R12_usr
     7a4:	0402009e 	streq	r0, [r2], #-158	; 0xffffff62
     7a8:	02002e06 	andeq	r2, r0, #96	; 0x60
     7ac:	00150604 	andseq	r0, r5, r4, lsl #12
     7b0:	01060402 	tsteq	r6, r2, lsl #8
     7b4:	02040200 	andeq	r0, r4, #0, 4
     7b8:	04020082 	streq	r0, [r2], #-130	; 0xffffff7e
     7bc:	02000102 	andeq	r0, r0, #-2147483648	; 0x80000000
     7c0:	00140204 	andseq	r0, r4, r4, lsl #4
     7c4:	31020402 	tstcc	r2, r2, lsl #8
     7c8:	02040200 	andeq	r0, r4, #0, 4
     7cc:	04020001 	streq	r0, [r2], #-1
     7d0:	02004a02 	andeq	r4, r0, #8192	; 0x2000
     7d4:	00010204 	andeq	r0, r1, r4, lsl #4
     7d8:	13020402 	movwne	r0, #9218	; 0x2402
     7dc:	02040200 	andeq	r0, r4, #0, 4
     7e0:	04020069 	streq	r0, [r2], #-105	; 0xffffff97
     7e4:	02000102 	andeq	r0, r0, #-2147483648	; 0x80000000
     7e8:	004a0204 	subeq	r0, sl, r4, lsl #4
     7ec:	01020402 	tsteq	r2, r2, lsl #8
     7f0:	02040200 	andeq	r0, r4, #0, 4
     7f4:	04020013 	streq	r0, [r2], #-19	; 0xffffffed
     7f8:	11056802 	tstne	r5, r2, lsl #16
     7fc:	02040200 	andeq	r0, r4, #0, 4
     800:	02000106 	andeq	r0, r0, #-2147483647	; 0x80000001
     804:	052e0204 	streq	r0, [lr, #-516]!	; 0xfffffdfc
     808:	04020003 	streq	r0, [r2], #-3
     80c:	004b0602 	subeq	r0, fp, r2, lsl #12
     810:	13020402 	movwne	r0, #9218	; 0x2402
     814:	02000805 	andeq	r0, r0, #327680	; 0x50000
     818:	01060204 	tsteq	r6, r4, lsl #4
     81c:	02000305 	andeq	r0, r0, #335544320	; 0x14000000
     820:	2f060204 	svccs	0x00060204
     824:	02000a05 	andeq	r0, r0, #20480	; 0x5000
     828:	01060204 	tsteq	r6, r4, lsl #4
     82c:	02040200 	andeq	r0, r4, #0, 4
     830:	0002052e 	andeq	r0, r2, lr, lsr #10
     834:	06020402 	streq	r0, [r2], -r2, lsl #8
     838:	0402002f 	streq	r0, [r2], #-47	; 0xffffffd1
     83c:	02000102 	andeq	r0, r0, #-2147483648	; 0x80000000
     840:	00010204 	andeq	r0, r1, r4, lsl #4
     844:	01020402 	tsteq	r2, r2, lsl #8
     848:	02040200 	andeq	r0, r4, #0, 4
     84c:	04020001 	streq	r0, [r2], #-1
     850:	02000102 	andeq	r0, r0, #-2147483648	; 0x80000000
     854:	00010204 	andeq	r0, r1, r4, lsl #4
     858:	01020402 	tsteq	r2, r2, lsl #8
     85c:	02040200 	andeq	r0, r4, #0, 4
     860:	04020001 	streq	r0, [r2], #-1
     864:	02006e02 	andeq	r6, r0, #2, 28
     868:	00010204 	andeq	r0, r1, r4, lsl #4
     86c:	01040402 	tsteq	r4, r2, lsl #8
     870:	04040200 	streq	r0, [r4], #-512	; 0xfffffe00
     874:	04020001 	streq	r0, [r2], #-1
     878:	02008205 	andeq	r8, r0, #1342177280	; 0x50000000
     87c:	00820204 	addeq	r0, r2, r4, lsl #4
     880:	01020402 	tsteq	r2, r2, lsl #8
     884:	03040200 	movweq	r0, #16896	; 0x4200
     888:	04020082 	streq	r0, [r2], #-130	; 0xffffff7e
     88c:	02000103 	andeq	r0, r0, #-1073741824	; 0xc0000000
     890:	009e0304 	addseq	r0, lr, r4, lsl #6
     894:	03010402 	movweq	r0, #5122	; 0x1402
     898:	02002e68 	andeq	r2, r0, #104, 28	; 0x680
     89c:	00010104 	andeq	r0, r1, r4, lsl #2
     8a0:	d6010402 	strle	r0, [r1], -r2, lsl #8
     8a4:	01040200 	mrseq	r0, R12_usr
     8a8:	04020033 	streq	r0, [r2], #-51	; 0xffffffcd
     8ac:	02000101 	andeq	r0, r0, #1073741824	; 0x40000000
     8b0:	00d60104 	sbcseq	r0, r6, r4, lsl #2
     8b4:	32010402 	andcc	r0, r1, #33554432	; 0x2000000
     8b8:	01040200 	mrseq	r0, R12_usr
     8bc:	04020001 	streq	r0, [r2], #-1
     8c0:	0200d601 	andeq	sp, r0, #1048576	; 0x100000
     8c4:	0f030104 	svceq	0x00030104
     8c8:	0402002e 	streq	r0, [r2], #-46	; 0xffffffd2
     8cc:	02000101 	andeq	r0, r0, #1073741824	; 0x40000000
     8d0:	059e0104 	ldreq	r0, [lr, #260]	; 0x104
     8d4:	4a2f0601 	bmi	bc20e0 <__bss_end__+0xbb7548>
     8d8:	00064905 	andeq	r4, r6, r5, lsl #18
     8dc:	89c80205 	stmibhi	r8, {r0, r2, r9}^
     8e0:	31030000 	mrscc	r0, (UNDEF: 3)
     8e4:	05010601 	streq	r0, [r1, #-1537]	; 0xfffff9ff
     8e8:	059f0605 	ldreq	r0, [pc, #1541]	; ef5 <__code_start__-0x710b>
     8ec:	00013102 	andeq	r3, r1, r2, lsl #2
     8f0:	01040402 	tsteq	r4, r2, lsl #8
     8f4:	04040200 	streq	r0, [r4], #-512	; 0xfffffe00
     8f8:	04020001 	streq	r0, [r2], #-1
     8fc:	02008205 	andeq	r8, r0, #1342177280	; 0x50000000
     900:	00820204 	addeq	r0, r2, r4, lsl #4
     904:	01020402 	tsteq	r2, r2, lsl #8
     908:	03040200 	movweq	r0, #16896	; 0x4200
     90c:	04020082 	streq	r0, [r2], #-130	; 0xffffff7e
     910:	02000103 	andeq	r0, r0, #-1073741824	; 0xc0000000
     914:	009e0304 	addseq	r0, lr, r4, lsl #6
     918:	2e010402 	cdpcs	4, 0, cr0, cr1, cr2, {0}
     91c:	01040200 	mrseq	r0, R12_usr
     920:	04020001 	streq	r0, [r2], #-1
     924:	02009e01 	andeq	r9, r0, #1, 28
     928:	002e0604 	eoreq	r0, lr, r4, lsl #12
     92c:	17060402 	strne	r0, [r6, -r2, lsl #8]
     930:	06040200 	streq	r0, [r4], -r0, lsl #4
     934:	04020031 	streq	r0, [r2], #-49	; 0xffffffcf
     938:	02000106 	andeq	r0, r0, #-2147483647	; 0x80000001
     93c:	004a0204 	subeq	r0, sl, r4, lsl #4
     940:	01020402 	tsteq	r2, r2, lsl #8
     944:	02040200 	andeq	r0, r4, #0, 4
     948:	04020013 	streq	r0, [r2], #-19	; 0xffffffed
     94c:	02006902 	andeq	r6, r0, #32768	; 0x8000
     950:	00010204 	andeq	r0, r1, r4, lsl #4
     954:	4a020402 	bmi	81964 <__bss_end__+0x76dcc>
     958:	02040200 	andeq	r0, r4, #0, 4
     95c:	04020001 	streq	r0, [r2], #-1
     960:	02001302 	andeq	r1, r0, #134217728	; 0x8000000
     964:	05680204 	strbeq	r0, [r8, #-516]!	; 0xfffffdfc
     968:	04020011 	streq	r0, [r2], #-17	; 0xffffffef
     96c:	00010602 	andeq	r0, r1, r2, lsl #12
     970:	2e020402 	cdpcs	4, 0, cr0, cr2, cr2, {0}
     974:	02000305 	andeq	r0, r0, #335544320	; 0x14000000
     978:	4b060204 	blmi	181190 <__bss_end__+0x1765f8>
     97c:	02040200 	andeq	r0, r4, #0, 4
     980:	00080513 	andeq	r0, r8, r3, lsl r5
     984:	06020402 	streq	r0, [r2], -r2, lsl #8
     988:	00030501 	andeq	r0, r3, r1, lsl #10
     98c:	06020402 	streq	r0, [r2], -r2, lsl #8
     990:	000a052f 	andeq	r0, sl, pc, lsr #10
     994:	06020402 	streq	r0, [r2], -r2, lsl #8
     998:	04020001 	streq	r0, [r2], #-1
     99c:	02052e02 	andeq	r2, r5, #2, 28
     9a0:	02040200 	andeq	r0, r4, #0, 4
     9a4:	02002f06 	andeq	r2, r0, #6, 30
     9a8:	00010204 	andeq	r0, r1, r4, lsl #4
     9ac:	01020402 	tsteq	r2, r2, lsl #8
     9b0:	02040200 	andeq	r0, r4, #0, 4
     9b4:	04020001 	streq	r0, [r2], #-1
     9b8:	02000102 	andeq	r0, r0, #-2147483648	; 0x80000000
     9bc:	00010204 	andeq	r0, r1, r4, lsl #4
     9c0:	01020402 	tsteq	r2, r2, lsl #8
     9c4:	02040200 	andeq	r0, r4, #0, 4
     9c8:	04020001 	streq	r0, [r2], #-1
     9cc:	02000102 	andeq	r0, r0, #-2147483648	; 0x80000000
     9d0:	00690204 	rsbeq	r0, r9, r4, lsl #4
     9d4:	01020402 	tsteq	r2, r2, lsl #8
     9d8:	04040200 	streq	r0, [r4], #-512	; 0xfffffe00
     9dc:	04020001 	streq	r0, [r2], #-1
     9e0:	02000104 	andeq	r0, r0, #1
     9e4:	00820504 	addeq	r0, r2, r4, lsl #10
     9e8:	82020402 	andhi	r0, r2, #33554432	; 0x2000000
     9ec:	02040200 	andeq	r0, r4, #0, 4
     9f0:	04020001 	streq	r0, [r2], #-1
     9f4:	02008203 	andeq	r8, r0, #805306368	; 0x30000000
     9f8:	00010304 	andeq	r0, r1, r4, lsl #6
     9fc:	9e030402 	cdpls	4, 0, cr0, cr3, cr2, {0}
     a00:	01040200 	mrseq	r0, R12_usr
     a04:	002e7203 	eoreq	r7, lr, r3, lsl #4
     a08:	01010402 	tsteq	r1, r2, lsl #8
     a0c:	01040200 	mrseq	r0, R12_usr
     a10:	040200d6 	streq	r0, [r2], #-214	; 0xffffff2a
     a14:	02003201 	andeq	r3, r0, #268435456	; 0x10000000
     a18:	00010104 	andeq	r0, r1, r4, lsl #2
     a1c:	d6010402 	strle	r0, [r1], -r2, lsl #8
     a20:	01040200 	mrseq	r0, R12_usr
     a24:	002e0a03 	eoreq	r0, lr, r3, lsl #20
     a28:	01010402 	tsteq	r1, r2, lsl #8
     a2c:	01040200 	mrseq	r0, R12_usr
     a30:	0601059e 			; <UNDEFINED> instruction: 0x0601059e
     a34:	3f054a2f 	svccc	0x00054a2f
     a38:	02050006 	andeq	r0, r5, #6, 0
     a3c:	00008b64 	andeq	r8, r0, r4, ror #22
     a40:	06014403 	streq	r4, [r1], -r3, lsl #8
     a44:	06020501 	streq	r0, [r2], -r1, lsl #10
     a48:	2e2e0667 	cfmadda32cs	mvax3, mvax0, mvfx14, mvfx7
     a4c:	06053006 	streq	r3, [r5], -r6
     a50:	060f0501 	streq	r0, [pc], -r1, lsl #10
     a54:	2e020501 	cfsh32cs	mvfx0, mvfx2, #1
     a58:	02000305 	andeq	r0, r0, #335544320	; 0x14000000
     a5c:	30060104 	andcc	r0, r6, r4, lsl #2
     a60:	01040200 	mrseq	r0, R12_usr
     a64:	04020001 	streq	r0, [r2], #-1
     a68:	004a0601 	subeq	r0, sl, r1, lsl #12
     a6c:	06010402 	streq	r0, [r1], -r2, lsl #8
     a70:	04020066 	streq	r0, [r2], #-102	; 0xffffff9a
     a74:	02002e06 	andeq	r2, r0, #96	; 0x60
     a78:	05150604 	ldreq	r0, [r5, #-1540]	; 0xfffff9fc
     a7c:	04020013 	streq	r0, [r2], #-19	; 0xffffffed
     a80:	05010606 	streq	r0, [r1, #-1542]	; 0xfffff9fa
     a84:	0402000d 	streq	r0, [r2], #-13
     a88:	22052e06 	andcs	r2, r5, #96	; 0x60
     a8c:	06040200 	streq	r0, [r4], -r0, lsl #4
     a90:	23054506 	movwcs	r4, #21766	; 0x5506
     a94:	06040200 	streq	r0, [r4], -r0, lsl #4
     a98:	16050106 	strne	r0, [r5], -r6, lsl #2
     a9c:	02040200 	andeq	r0, r4, #0, 4
     aa0:	02052e06 	andeq	r2, r5, #96	; 0x60
     aa4:	02040200 	andeq	r0, r4, #0, 4
     aa8:	03050106 	movweq	r0, #20742	; 0x5106
     aac:	04040200 	streq	r0, [r4], #-512	; 0xfffffe00
     ab0:	02004c06 	andeq	r4, r0, #1536	; 0x600
     ab4:	00010404 	andeq	r0, r1, r4, lsl #8
     ab8:	82050402 	andhi	r0, r5, #33554432	; 0x2000000
     abc:	02040200 	andeq	r0, r4, #0, 4
     ac0:	04020082 	streq	r0, [r2], #-130	; 0xffffff7e
     ac4:	02000102 	andeq	r0, r0, #-2147483648	; 0x80000000
     ac8:	00820304 	addeq	r0, r2, r4, lsl #6
     acc:	01030402 	tsteq	r3, r2, lsl #8
     ad0:	03040200 	movweq	r0, #16896	; 0x4200
     ad4:	02004a06 	andeq	r4, r0, #24576	; 0x6000
     ad8:	66060304 	strvs	r0, [r6], -r4, lsl #6
     adc:	03040200 	movweq	r0, #16896	; 0x4200
     ae0:	02052e06 	andeq	r2, r5, #96	; 0x60
     ae4:	052f1806 	streq	r1, [pc, #-2054]!	; 2e6 <__code_start__-0x7d1a>
     ae8:	05130601 	ldreq	r0, [r3, #-1537]	; 0xfffff9ff
     aec:	06da063e 			; <UNDEFINED> instruction: 0x06da063e
     af0:	06020501 	streq	r0, [r2], -r1, lsl #10
     af4:	2e2e0667 	cfmadda32cs	mvax3, mvax0, mvfx14, mvfx7
     af8:	06053106 	streq	r3, [r5], -r6, lsl #2
     afc:	060f0501 	streq	r0, [pc], -r1, lsl #10
     b00:	2e020501 	cfsh32cs	mvfx0, mvfx2, #1
     b04:	02000305 	andeq	r0, r0, #335544320	; 0x14000000
     b08:	30060104 	andcc	r0, r6, r4, lsl #2
     b0c:	01040200 	mrseq	r0, R12_usr
     b10:	04020001 	streq	r0, [r2], #-1
     b14:	004a0601 	subeq	r0, sl, r1, lsl #12
     b18:	06010402 	streq	r0, [r1], -r2, lsl #8
     b1c:	04020066 	streq	r0, [r2], #-102	; 0xffffff9a
     b20:	02002e06 	andeq	r2, r0, #96	; 0x60
     b24:	05150604 	ldreq	r0, [r5, #-1540]	; 0xfffff9fc
     b28:	04020010 	streq	r0, [r2], #-16
     b2c:	05010606 	streq	r0, [r1, #-1542]	; 0xfffff9fa
     b30:	0402000b 	streq	r0, [r2], #-11
     b34:	22054a06 	andcs	r4, r5, #24576	; 0x6000
     b38:	06040200 	streq	r0, [r4], -r0, lsl #4
     b3c:	23052906 	movwcs	r2, #22790	; 0x5906
     b40:	06040200 	streq	r0, [r4], -r0, lsl #4
     b44:	16050106 	strne	r0, [r5], -r6, lsl #2
     b48:	02040200 	andeq	r0, r4, #0, 4
     b4c:	02052e06 	andeq	r2, r5, #96	; 0x60
     b50:	02040200 	andeq	r0, r4, #0, 4
     b54:	03050106 	movweq	r0, #20742	; 0x5106
     b58:	04040200 	streq	r0, [r4], #-512	; 0xfffffe00
     b5c:	02004c06 	andeq	r4, r0, #1536	; 0x600
     b60:	00010404 	andeq	r0, r1, r4, lsl #8
     b64:	82050402 	andhi	r0, r5, #33554432	; 0x2000000
     b68:	02040200 	andeq	r0, r4, #0, 4
     b6c:	04020082 	streq	r0, [r2], #-130	; 0xffffff7e
     b70:	02000102 	andeq	r0, r0, #-2147483648	; 0x80000000
     b74:	00820304 	addeq	r0, r2, r4, lsl #6
     b78:	01030402 	tsteq	r3, r2, lsl #8
     b7c:	03040200 	movweq	r0, #16896	; 0x4200
     b80:	02004a06 	andeq	r4, r0, #24576	; 0x6000
     b84:	66060304 	strvs	r0, [r6], -r4, lsl #6
     b88:	03040200 	movweq	r0, #16896	; 0x4200
     b8c:	02052e06 	andeq	r2, r5, #96	; 0x60
     b90:	052f1806 	streq	r1, [pc, #-2054]!	; 392 <__code_start__-0x7c6e>
     b94:	05130601 	ldreq	r0, [r3, #-1537]	; 0xfffff9ff
     b98:	20030633 	andcs	r0, r3, r3, lsr r6
     b9c:	050106f2 	streq	r0, [r1, #-1778]	; 0xfffff90e
     ba0:	05670605 	strbeq	r0, [r7, #-1541]!	; 0xfffff9fb
     ba4:	12050109 	andne	r0, r5, #1073741826	; 0x40000002
     ba8:	1d050106 	stfnes	f0, [r5, #-24]	; 0xffffffe8
     bac:	01040200 	mrseq	r0, R12_usr
     bb0:	05052e06 	streq	r2, [r5, #-3590]	; 0xfffff1fa
     bb4:	01040200 	mrseq	r0, R12_usr
     bb8:	09050106 	stmdbeq	r5, {r1, r2, r8}
     bbc:	03054c06 	movweq	r4, #23558	; 0x5c06
     bc0:	02000184 	andeq	r0, r0, #33	; 0x21
     bc4:	00010404 	andeq	r0, r1, r4, lsl #8
     bc8:	01040402 	tsteq	r4, r2, lsl #8
     bcc:	05040200 	streq	r0, [r4, #-512]	; 0xfffffe00
     bd0:	04020082 	streq	r0, [r2], #-130	; 0xffffff7e
     bd4:	02008202 	andeq	r8, r0, #536870912	; 0x20000000
     bd8:	00010204 	andeq	r0, r1, r4, lsl #4
     bdc:	82030402 	andhi	r0, r3, #33554432	; 0x2000000
     be0:	03040200 	movweq	r0, #16896	; 0x4200
     be4:	04020001 	streq	r0, [r2], #-1
     be8:	02009e03 	andeq	r9, r0, #3, 28	; 0x30
     bec:	002e0104 	eoreq	r0, lr, r4, lsl #2
     bf0:	01010402 	tsteq	r1, r2, lsl #8
     bf4:	01040200 	mrseq	r0, R12_usr
     bf8:	0402009e 	streq	r0, [r2], #-158	; 0xffffff62
     bfc:	09052e06 	stmdbeq	r5, {r1, r2, r9, sl, fp, sp}
     c00:	06040200 	streq	r0, [r4], -r0, lsl #4
     c04:	00130513 	andseq	r0, r3, r3, lsl r5
     c08:	06060402 	streq	r0, [r6], -r2, lsl #8
     c0c:	00030501 	andeq	r0, r3, r1, lsl #10
     c10:	06060402 	streq	r0, [r6], -r2, lsl #8
     c14:	0402004b 	streq	r0, [r2], #-75	; 0xffffffb5
     c18:	02000106 	andeq	r0, r0, #-2147483647	; 0x80000001
     c1c:	00010404 	andeq	r0, r1, r4, lsl #8
     c20:	01040402 	tsteq	r4, r2, lsl #8
     c24:	05040200 	streq	r0, [r4, #-512]	; 0xfffffe00
     c28:	04020082 	streq	r0, [r2], #-130	; 0xffffff7e
     c2c:	02008202 	andeq	r8, r0, #536870912	; 0x20000000
     c30:	00010204 	andeq	r0, r1, r4, lsl #4
     c34:	82030402 	andhi	r0, r3, #33554432	; 0x2000000
     c38:	03040200 	movweq	r0, #16896	; 0x4200
     c3c:	04020001 	streq	r0, [r2], #-1
     c40:	02009e03 	andeq	r9, r0, #3, 28	; 0x30
     c44:	002e0104 	eoreq	r0, lr, r4, lsl #2
     c48:	01010402 	tsteq	r1, r2, lsl #8
     c4c:	01040200 	mrseq	r0, R12_usr
     c50:	0402009e 	streq	r0, [r2], #-158	; 0xffffff62
     c54:	09052e06 	stmdbeq	r5, {r1, r2, r9, sl, fp, sp}
     c58:	06040200 	streq	r0, [r4], -r0, lsl #4
     c5c:	00130513 	andseq	r0, r3, r3, lsl r5
     c60:	06060402 	streq	r0, [r6], -r2, lsl #8
     c64:	06090501 	streq	r0, [r9], -r1, lsl #10
     c68:	130a054c 	movwne	r0, #42316	; 0xa54c
     c6c:	01061805 	tsteq	r6, r5, lsl #16
     c70:	054a0c05 	strbeq	r0, [sl, #-3077]	; 0xfffff3fb
     c74:	054f0607 	strbeq	r0, [pc, #-1543]	; 675 <__code_start__-0x798b>
     c78:	05010615 	streq	r0, [r1, #-1557]	; 0xfffff9eb
     c7c:	0d054a09 	vstreq	s8, [r5, #-36]	; 0xffffffdc
     c80:	1b054e06 	blne	1544a0 <__bss_end__+0x149908>
     c84:	0f050106 	svceq	0x00050106
     c88:	0608054a 	streq	r0, [r8], -sl, asr #10
     c8c:	059e014b 	ldreq	r0, [lr, #331]	; 0x14b
     c90:	2e770311 	mrccs	3, 3, r0, cr7, cr1, {0}
     c94:	05052f67 	streq	r2, [r5, #-3943]	; 0xfffff099
     c98:	05010a03 	streq	r0, [r1, #-2563]	; 0xfffff5fd
     c9c:	76030618 			; <UNDEFINED> instruction: 0x76030618
     ca0:	03010501 	movweq	r0, #5377	; 0x1501
     ca4:	08052e0b 	stmdaeq	r5, {r0, r1, r3, r9, sl, fp, sp}
     ca8:	2e780306 	cdpcs	3, 7, cr0, cr8, cr6, {0}
     cac:	05671105 	strbeq	r1, [r7, #-261]!	; 0xfffffefb
     cb0:	016f032a 	cmneq	pc, sl, lsr #6
     cb4:	01062e05 	tsteq	r6, r5, lsl #28
     cb8:	05052e2e 	streq	r2, [r5, #-3630]	; 0xfffff1d2
     cbc:	01170306 	tsteq	r7, r6, lsl #6
     cc0:	1e059e01 	cdpne	14, 0, cr9, cr5, cr1, {0}
     cc4:	0205b208 	andeq	fp, r5, #8, 4	; 0x80000000
     cc8:	06010513 			; <UNDEFINED> instruction: 0x06010513
     ccc:	06150513 			; <UNDEFINED> instruction: 0x06150513
     cd0:	05820b03 	streq	r0, [r2, #2819]	; 0xb03
     cd4:	05314b02 	ldreq	r4, [r1, #-2818]!	; 0xfffff4fe
     cd8:	13133203 	tstne	r3, #805306368	; 0x30000000
     cdc:	69020567 	stmdbvs	r2, {r0, r1, r2, r5, r6, r8, sl}
     ce0:	05320305 	ldreq	r0, [r2, #-773]!	; 0xfffffcfb
     ce4:	01010112 	tsteq	r1, r2, lsl r1
     ce8:	01010101 	tsteq	r1, r1, lsl #2
     cec:	13030501 	movwne	r0, #13569	; 0x3501
     cf0:	01012e13 	tsteq	r1, r3, lsl lr
     cf4:	01010101 	tsteq	r1, r1, lsl #2
     cf8:	69020501 	stmdbvs	r2, {r0, r8, sl}
     cfc:	05300305 	ldreq	r0, [r0, #-773]!	; 0xfffffcfb
     d00:	012f3102 			; <UNDEFINED> instruction: 0x012f3102
     d04:	02040200 	andeq	r0, r4, #0, 4
     d08:	04020066 	streq	r0, [r2], #-102	; 0xffffff9a
     d0c:	02000102 	andeq	r0, r0, #-2147483648	; 0x80000000
     d10:	05140204 	ldreq	r0, [r4, #-516]	; 0xfffffdfc
     d14:	04020010 	streq	r0, [r2], #-16
     d18:	05010602 	streq	r0, [r1, #-1538]	; 0xfffff9fe
     d1c:	04020001 	streq	r0, [r2], #-1
     d20:	02056702 	andeq	r6, r5, #524288	; 0x80000
     d24:	01040200 	mrseq	r0, R12_usr
     d28:	02004706 	andeq	r4, r0, #1572864	; 0x180000
     d2c:	00010104 	andeq	r0, r1, r4, lsl #2
     d30:	d6010402 	strle	r0, [r1], -r2, lsl #8
     d34:	59031a05 	stmdbpl	r3, {r0, r2, r9, fp, ip}
     d38:	2f0205f2 	svccs	0x000205f2
     d3c:	01060505 	tsteq	r6, r5, lsl #10
     d40:	052e0405 	streq	r0, [lr, #-1029]!	; 0xfffffbfb
     d44:	054c0602 	strbeq	r0, [ip, #-1538]	; 0xfffff9fe
     d48:	022f0601 	eoreq	r0, pc, #1048576	; 0x100000
     d4c:	01010002 	tsteq	r1, r2
     d50:	00000289 	andeq	r0, r0, r9, lsl #5
     d54:	00c90003 	sbceq	r0, r9, r3
     d58:	01020000 	mrseq	r0, (UNDEF: 2)
     d5c:	000d0efb 	strdeq	r0, [sp], -fp
     d60:	01010101 	tsteq	r1, r1, lsl #2
     d64:	01000000 	mrseq	r0, (UNDEF: 0)
     d68:	2e010000 	cdpcs	0, 0, cr0, cr1, cr0, {0}
     d6c:	6372732f 	cmnvs	r2, #-1140850688	; 0xbc000000
     d70:	73552f00 	cmpvc	r5, #0, 30
     d74:	2f737265 	svccs	0x00737265
     d78:	656c696d 	strbvs	r6, [ip, #-2413]!	; 0xfffff693
     d7c:	6f532f73 	svcvs	0x00532f73
     d80:	65637275 	strbvs	r7, [r3, #-629]!	; 0xfffffd8b
     d84:	3273632f 	rsbscc	r6, r3, #-1140850688	; 0xbc000000
     d88:	786c3034 	stmdavc	ip!, {r2, r4, r5, ip, sp}^
     d8c:	62696c2f 	rsbvs	r6, r9, #12032	; 0x2f00
     d90:	692f6970 	stmdbvs	pc!, {r4, r5, r6, r8, fp, sp, lr}	; <UNPREDICTABLE>
     d94:	756c636e 	strbvc	r6, [ip, #-878]!	; 0xfffffc92
     d98:	2f006564 	svccs	0x00006564
     d9c:	2f74706f 	svccs	0x0074706f
     da0:	656d6f68 	strbvs	r6, [sp, #-3944]!	; 0xfffff098
     da4:	77657262 	strbvc	r7, [r5, -r2, ror #4]!
     da8:	6c65432f 	stclvs	3, cr4, [r5], #-188	; 0xffffff44
     dac:	2f72616c 	svccs	0x0072616c
     db0:	2d6d7261 	sfmcs	f7, 2, [sp, #-388]!	; 0xfffffe7c
     db4:	656e6f6e 	strbvs	r6, [lr, #-3950]!	; 0xfffff092
     db8:	6261652d 	rsbvs	r6, r1, #188743680	; 0xb400000
     dbc:	2f392d69 	svccs	0x00392d69
     dc0:	30322d39 	eorscc	r2, r2, r9, lsr sp
     dc4:	34713931 	ldrbtcc	r3, [r1], #-2353	; 0xfffff6cf
     dc8:	3173632d 	cmncc	r3, sp, lsr #6
     dcc:	2f653730 	svccs	0x00653730
     dd0:	2f62696c 	svccs	0x0062696c
     dd4:	2f636367 	svccs	0x00636367
     dd8:	2d6d7261 	sfmcs	f7, 2, [sp, #-388]!	; 0xfffffe7c
     ddc:	656e6f6e 	strbvs	r6, [lr, #-3950]!	; 0xfffff092
     de0:	6261652d 	rsbvs	r6, r1, #188743680	; 0xb400000
     de4:	2e392f69 	cdpcs	15, 3, cr2, cr9, cr9, {3}
     de8:	2f312e32 	svccs	0x00312e32
     dec:	6c636e69 	stclvs	14, cr6, [r3], #-420	; 0xfffffe5c
     df0:	00656475 	rsbeq	r6, r5, r5, ror r4
     df4:	69706700 	ldmdbvs	r0!, {r8, r9, sl, sp, lr}^
     df8:	00632e6f 	rsbeq	r2, r3, pc, ror #28
     dfc:	72000001 	andvc	r0, r0, #1, 0
     e00:	682e6970 	stmdavs	lr!, {r4, r5, r6, r8, fp, sp, lr}
     e04:	00000200 	andeq	r0, r0, r0, lsl #4
     e08:	69647473 	stmdbvs	r4!, {r0, r1, r4, r5, r6, sl, ip, sp, lr}^
     e0c:	672d746e 	strvs	r7, [sp, -lr, ror #8]!
     e10:	682e6363 	stmdavs	lr!, {r0, r1, r5, r6, r8, r9, sp, lr}
     e14:	00000300 	andeq	r0, r0, r0, lsl #6
     e18:	6f697067 	svcvs	0x00697067
     e1c:	0200682e 	andeq	r6, r0, #3014656	; 0x2e0000
     e20:	05000000 	streq	r0, [r0, #-0]
     e24:	02050038 	andeq	r0, r5, #56, 0	; 0x38
     e28:	00008f5c 	andeq	r8, r0, ip, asr pc
     e2c:	05012703 	streq	r2, [r1, #-1795]	; 0xfffff8fd
     e30:	07051305 	streq	r1, [r5, -r5, lsl #6]
     e34:	06050106 	streq	r0, [r5], -r6, lsl #2
     e38:	05054906 	streq	r4, [r5, #-2310]	; 0xfffff6fa
     e3c:	06070515 			; <UNDEFINED> instruction: 0x06070515
     e40:	2b380501 	blcs	e0224c <__bss_end__+0xdf76b4>
     e44:	054d0705 	strbeq	r0, [sp, #-1797]	; 0xfffff8fb
     e48:	05300605 	ldreq	r0, [r0, #-1541]!	; 0xfffff9fb
     e4c:	05010618 	streq	r0, [r1, #-1560]	; 0xfffff9e8
     e50:	0e05671c 	mcreq	7, 0, r6, cr5, cr12, {0}
     e54:	2d18054a 	cfldr32cs	mvfx0, [r8, #-296]	; 0xfffffed8
     e58:	2e4d1205 	cdpcs	2, 4, cr1, cr13, cr5, {0}
     e5c:	2a0e052f 	bcs	382320 <__bss_end__+0x377788>
     e60:	2f060505 	svccs	0x00060505
     e64:	07051314 	smladeq	r5, r4, r3, r1
     e68:	05050106 	streq	r0, [r5, #-262]	; 0xfffffefa
     e6c:	06132f06 	ldreq	r2, [r3], -r6, lsl #30
     e70:	01052e2e 	tsteq	r5, lr, lsr #28
     e74:	2d050513 	cfstr32cs	mvfx0, [r5, #-76]	; 0xffffffb4
     e78:	0624052e 	strteq	r0, [r4], -lr, lsr #10
     e7c:	bc020500 	cfstr32lt	mvfx0, [r2], {-0}
     e80:	1500008f 	strne	r0, [r0, #-143]	; 0xffffff71
     e84:	05130505 	ldreq	r0, [r3, #-1285]	; 0xfffffafb
     e88:	01710306 	cmneq	r1, r6, lsl #6
     e8c:	05130505 	ldreq	r0, [r3, #-1285]	; 0xfffffafb
     e90:	05010607 	streq	r0, [r1, #-1543]	; 0xfffff9f9
     e94:	05490606 	strbeq	r0, [r9, #-1542]	; 0xfffff9fa
     e98:	05141505 	ldreq	r1, [r4, #-1285]	; 0xfffffafb
     e9c:	09030624 	stmdbeq	r3, {r2, r5, r9, sl}
     ea0:	03180501 	tsteq	r8, #4194304	; 0x400000
     ea4:	1c052e77 	stcne	14, cr2, [r5], {119}	; 0x77
     ea8:	4a0e0567 	bmi	38244c <__bss_end__+0x3778b4>
     eac:	052d1805 	streq	r1, [sp, #-2053]!	; 0xfffff7fb
     eb0:	2f2e4d12 	svccs	0x002e4d12
     eb4:	052f0f05 	streq	r0, [pc, #-3845]!	; ffffffb7 <__bss_end__+0xffff541f>
     eb8:	0505290e 	streq	r2, [r5, #-2318]	; 0xfffff6f2
     ebc:	13142f06 	tstne	r4, #6, 30
     ec0:	01060705 	tsteq	r6, r5, lsl #14
     ec4:	2f060505 	svccs	0x00060505
     ec8:	052e0613 	streq	r0, [lr, #-1555]!	; 0xfffff9ed
     ecc:	05053301 	streq	r3, [r5, #-769]	; 0xfffffcff
     ed0:	27052e29 	strcs	r2, [r5, -r9, lsr #28]
     ed4:	02050006 	andeq	r0, r5, #6, 0
     ed8:	00009014 	andeq	r9, r0, r4, lsl r0
     edc:	1305051a 	movwne	r0, #21786	; 0x551a
     ee0:	11062705 	tstne	r6, r5, lsl #14
     ee4:	052f1805 	streq	r1, [pc, #-2053]!	; 6e7 <__code_start__-0x7919>
     ee8:	4a2e2e05 	bmi	b8c704 <__bss_end__+0xb81b6c>
     eec:	00062805 	andeq	r2, r6, r5, lsl #16
     ef0:	902c0205 	eorls	r0, ip, r5, lsl #4
     ef4:	05160000 	ldreq	r0, [r6, #-0]
     ef8:	28051305 	stmdacs	r5, {r0, r2, r8, r9, ip}
     efc:	18051106 	stmdane	r5, {r1, r2, r8, ip}
     f00:	2e05052f 	cfsh32cs	mvfx0, mvfx5, #31
     f04:	23054a2e 	movwcs	r4, #23086	; 0x5a2e
     f08:	02050006 	andeq	r0, r5, #6, 0
     f0c:	00009044 	andeq	r9, r0, r4, asr #32
     f10:	13050516 	movwne	r0, #21782	; 0x5516
     f14:	62030605 	andvs	r0, r3, #5242880	; 0x500000
     f18:	13050501 	movwne	r0, #21761	; 0x5501
     f1c:	01060705 	tsteq	r6, r5, lsl #14
     f20:	49060605 	stmdbmi	r6, {r0, r2, r9, sl}
     f24:	14150505 	ldrne	r0, [r5], #-1285	; 0xfffffafb
     f28:	06230513 			; <UNDEFINED> instruction: 0x06230513
     f2c:	05011703 	streq	r1, [r1, #-1795]	; 0xfffff8fd
     f30:	2e690322 	cdpcs	3, 6, cr0, cr9, cr2, {1}
     f34:	2e821c05 	cdpcs	12, 8, cr1, cr2, cr5, {0}
     f38:	052e0e05 	streq	r0, [lr, #-3589]!	; 0xfffff1fb
     f3c:	05300605 	ldreq	r0, [r0, #-1541]!	; 0xfffff9fb
     f40:	4b010612 	blmi	42790 <__bss_end__+0x37bf8>
     f44:	0605052d 	streq	r0, [r5], -sp, lsr #10
     f48:	0513132f 	ldreq	r1, [r3, #-815]	; 0xfffffcd1
     f4c:	7a030618 	bvc	c27b4 <__bss_end__+0xb7c1c>
     f50:	4a0e0501 	bmi	38235c <__bss_end__+0x3777c4>
     f54:	2e340505 	cdpcs	5, 3, cr0, cr4, cr5, {0}
     f58:	14030105 	strne	r0, [r3], #-261	; 0xfffffefb
     f5c:	0305052e 	movweq	r0, #21806	; 0x552e
     f60:	052e2e6c 	streq	r2, [lr, #-3692]!	; 0xfffff194
     f64:	0500062b 	streq	r0, [r0, #-1579]	; 0xfffff9d5
     f68:	00909c02 	addseq	r9, r0, r2, lsl #24
     f6c:	01170300 	tsteq	r7, r0, lsl #6
     f70:	05130505 	ldreq	r0, [r3, #-1285]	; 0xfffffafb
     f74:	05010607 	streq	r0, [r1, #-1543]	; 0xfffff9f9
     f78:	2e710318 	mrccs	3, 3, r0, cr1, cr8, {0}
     f7c:	0e032b05 	vmlaeq.f64	d2, d3, d5
     f80:	2f07052e 	svccs	0x0007052e
     f84:	2f060905 	svccs	0x00060905
     f88:	6f030d05 	svcvs	0x00030d05
     f8c:	13050501 	movwne	r0, #21761	; 0x5501
     f90:	2e2e2e06 	cdpcs	14, 2, cr2, cr14, cr6, {0}
     f94:	03060905 	movweq	r0, #26885	; 0x6905
     f98:	0d050112 	stfeqs	f0, [r5, #-72]	; 0xffffffb8
     f9c:	05017203 	streq	r7, [r1, #-515]	; 0xfffffdfd
     fa0:	2e061305 	cdpcs	3, 0, cr1, cr6, cr5, {0}
     fa4:	061d052e 	ldreq	r0, [sp], -lr, lsr #10
     fa8:	05661003 	strbeq	r1, [r6, #-3]!
     fac:	1d051305 	stcne	3, cr1, [r5, #-20]	; 0xffffffec
     fb0:	052e1106 	streq	r1, [lr, #-262]!	; 0xfffffefa
     fb4:	13300605 	teqne	r0, #5242880	; 0x500000
     fb8:	10060e05 	andne	r0, r6, r5, lsl #28
     fbc:	2e301705 	cdpcs	7, 3, cr1, cr0, cr5, {0}
     fc0:	30050204 	andcc	r0, r5, r4, lsl #4
     fc4:	00e20306 	rsceq	r0, r2, r6, lsl #6
     fc8:	0501042e 	streq	r0, [r1, #-1070]	; 0xfffffbd2
     fcc:	9d03060e 	stcls	6, cr0, [r3, #-56]	; 0xffffffc8
     fd0:	2305017f 	movwcs	r0, #20863	; 0x517f
     fd4:	2f01052f 	svccs	0x0001052f
     fd8:	01000602 	tsteq	r0, r2, lsl #12
     fdc:	00012001 	andeq	r2, r1, r1
     fe0:	db000300 	blle	1be8 <__code_start__-0x6418>
     fe4:	02000000 	andeq	r0, r0, #0, 0
     fe8:	0d0efb01 	vstreq	d15, [lr, #-4]
     fec:	01010100 	mrseq	r0, (UNDEF: 17)
     ff0:	00000001 	andeq	r0, r0, r1
     ff4:	01000001 	tsteq	r0, r1
     ff8:	696c2f2e 	stmdbvs	ip!, {r1, r2, r3, r5, r8, r9, sl, fp, sp}^
     ffc:	2f006362 	svccs	0x00006362
    1000:	2f74706f 	svccs	0x0074706f
    1004:	656d6f68 	strbvs	r6, [sp, #-3944]!	; 0xfffff098
    1008:	77657262 	strbvc	r7, [r5, -r2, ror #4]!
    100c:	6c65432f 	stclvs	3, cr4, [r5], #-188	; 0xffffff44
    1010:	2f72616c 	svccs	0x0072616c
    1014:	2d6d7261 	sfmcs	f7, 2, [sp, #-388]!	; 0xfffffe7c
    1018:	656e6f6e 	strbvs	r6, [lr, #-3950]!	; 0xfffff092
    101c:	6261652d 	rsbvs	r6, r1, #188743680	; 0xb400000
    1020:	2f392d69 	svccs	0x00392d69
    1024:	30322d39 	eorscc	r2, r2, r9, lsr sp
    1028:	34713931 	ldrbtcc	r3, [r1], #-2353	; 0xfffff6cf
    102c:	3173632d 	cmncc	r3, sp, lsr #6
    1030:	2f653730 	svccs	0x00653730
    1034:	2f62696c 	svccs	0x0062696c
    1038:	2f636367 	svccs	0x00636367
    103c:	2d6d7261 	sfmcs	f7, 2, [sp, #-388]!	; 0xfffffe7c
    1040:	656e6f6e 	strbvs	r6, [lr, #-3950]!	; 0xfffff092
    1044:	6261652d 	rsbvs	r6, r1, #188743680	; 0xb400000
    1048:	2e392f69 	cdpcs	15, 3, cr2, cr9, cr9, {3}
    104c:	2f312e32 	svccs	0x00312e32
    1050:	6c636e69 	stclvs	14, cr6, [r3], #-420	; 0xfffffe5c
    1054:	00656475 	rsbeq	r6, r5, r5, ror r4
    1058:	6573552f 	ldrbvs	r5, [r3, #-1327]!	; 0xfffffad1
    105c:	6d2f7372 	stcvs	3, cr7, [pc, #-456]!	; e9c <__code_start__-0x7164>
    1060:	73656c69 	cmnvc	r5, #26880	; 0x6900
    1064:	756f532f 	strbvc	r5, [pc, #-815]!	; d3d <__code_start__-0x72c3>
    1068:	2f656372 	svccs	0x00656372
    106c:	34327363 	ldrtcc	r7, [r2], #-867	; 0xfffffc9d
    1070:	2f786c30 	svccs	0x00786c30
    1074:	7062696c 	rsbvc	r6, r2, ip, ror #18
    1078:	6e692f69 	cdpvs	15, 6, cr2, cr9, cr9, {3}
    107c:	64756c63 	ldrbtvs	r6, [r5], #-3171	; 0xfffff39d
    1080:	70000065 	andvc	r0, r0, r5, rrx
    1084:	746e6972 	strbtvc	r6, [lr], #-2418	; 0xfffff68e
    1088:	00632e6b 	rsbeq	r2, r3, fp, ror #28
    108c:	73000001 	movwvc	r0, #1
    1090:	72616474 	rsbvc	r6, r1, #116, 8	; 0x74000000
    1094:	00682e67 	rsbeq	r2, r8, r7, ror #28
    1098:	72000002 	andvc	r0, r0, #2, 0
    109c:	682e6970 	stmdavs	lr!, {r4, r5, r6, r8, fp, sp, lr}
    10a0:	00000300 	andeq	r0, r0, r0, lsl #6
    10a4:	6975623c 	ldmdbvs	r5!, {r2, r3, r4, r5, r9, sp, lr}^
    10a8:	692d746c 	pushvs	{r2, r3, r5, r6, sl, ip, sp, lr}
    10ac:	00003e6e 	andeq	r3, r0, lr, ror #28
    10b0:	61760000 	cmnvs	r6, r0
    10b4:	6972702d 	ldmdbvs	r2!, {r0, r2, r3, r5, ip, sp, lr}^
    10b8:	2e6b746e 	cdpcs	4, 6, cr7, cr11, cr14, {3}
    10bc:	00010068 	andeq	r0, r1, r8, rrx
    10c0:	22050000 	andcs	r0, r5, #0, 0
    10c4:	f4020500 	vst3.8	{d0,d2,d4}, [r2], r0
    10c8:	17000090 			; <UNDEFINED> instruction: 0x17000090
    10cc:	13140505 	tstne	r4, #20971520	; 0x1400000
    10d0:	06220514 			; <UNDEFINED> instruction: 0x06220514
    10d4:	5012050d 	andspl	r0, r2, sp, lsl #10
    10d8:	7a032205 	bvc	c98f4 <__bss_end__+0xbed5c>
    10dc:	3305052e 	movwcc	r0, #21806	; 0x552e
    10e0:	052f1205 	streq	r1, [pc, #-517]!	; ee3 <__code_start__-0x711d>
    10e4:	09056505 	stmdbeq	r5, {r0, r2, r8, sl, sp, lr}
    10e8:	12052f06 	andne	r2, r5, #6, 30
    10ec:	05050106 	streq	r0, [r5, #-262]	; 0xfffffefa
    10f0:	06164b06 	ldreq	r4, [r6], -r6, lsl #22
    10f4:	0550064a 	ldrbeq	r0, [r0, #-1610]	; 0xfffff9b6
    10f8:	66130601 	ldrvs	r0, [r3], -r1, lsl #12
    10fc:	01000802 	tsteq	r0, r2, lsl #16
    1100:	0000a001 	andeq	sl, r0, r1
    1104:	57000300 	strpl	r0, [r0, -r0, lsl #6]
    1108:	02000000 	andeq	r0, r0, #0, 0
    110c:	0d0efb01 	vstreq	d15, [lr, #-4]
    1110:	01010100 	mrseq	r0, (UNDEF: 17)
    1114:	00000001 	andeq	r0, r0, r1
    1118:	01000001 	tsteq	r0, r1
    111c:	696c2f2e 	stmdbvs	ip!, {r1, r2, r3, r5, r8, r9, sl, fp, sp}^
    1120:	2f006362 	svccs	0x00006362
    1124:	72657355 	rsbvc	r7, r5, #1409286145	; 0x54000001
    1128:	696d2f73 	stmdbvs	sp!, {r0, r1, r4, r5, r6, r8, r9, sl, fp, sp}^
    112c:	2f73656c 	svccs	0x0073656c
    1130:	72756f53 	rsbsvc	r6, r5, #332	; 0x14c
    1134:	632f6563 			; <UNDEFINED> instruction: 0x632f6563
    1138:	30343273 	eorscc	r3, r4, r3, ror r2
    113c:	6c2f786c 	stcvs	8, cr7, [pc], #-432	; f94 <__code_start__-0x706c>
    1140:	69706269 	ldmdbvs	r0!, {r0, r3, r5, r6, r9, sp, lr}^
    1144:	636e692f 	cmnvs	lr, #770048	; 0xbc000
    1148:	6564756c 	strbvs	r7, [r4, #-1388]!	; 0xfffffa94
    114c:	75700000 	ldrbvc	r0, [r0, #-0]!
    1150:	632e6b74 			; <UNDEFINED> instruction: 0x632e6b74
    1154:	00000100 	andeq	r0, r0, r0, lsl #2
    1158:	2e697072 	mcrcs	0, 3, r7, cr9, cr2, {3}
    115c:	00020068 	andeq	r0, r2, r8, rrx
    1160:	22050000 	andcs	r0, r5, #0, 0
    1164:	4c020500 	cfstr32mi	mvfx0, [r2], {-0}
    1168:	15000091 	strne	r0, [r0, #-145]	; 0xffffff6f
    116c:	05130505 	ldreq	r0, [r3, #-1285]	; 0xfffffafb
    1170:	2e110622 	cfmsub32cs	mvax1, mvfx0, mvfx1, mvfx2
    1174:	2f060b05 	svccs	0x00060b05
    1178:	2e060505 	cfsh32cs	mvfx0, mvfx6, #5
    117c:	02000905 	andeq	r0, r0, #81920	; 0x14000
    1180:	67060204 	strvs	r0, [r6, -r4, lsl #4]
    1184:	02000f05 	andeq	r0, r0, #5, 30
    1188:	05490204 	strbeq	r0, [r9, #-516]	; 0xfffffdfc
    118c:	0402000b 	streq	r0, [r2], #-11
    1190:	05050102 	streq	r0, [r5, #-258]	; 0xfffffefe
    1194:	02040200 	andeq	r0, r4, #0, 4
    1198:	4e062e06 	cdpmi	14, 0, cr2, cr6, cr6, {0}
    119c:	13060105 	movwne	r0, #24837	; 0x6105
    11a0:	01000602 	tsteq	r0, r2, lsl #12
    11a4:	0008fa01 	andeq	pc, r8, r1, lsl #20
    11a8:	f1000300 			; <UNDEFINED> instruction: 0xf1000300
    11ac:	02000000 	andeq	r0, r0, #0, 0
    11b0:	0d0efb01 	vstreq	d15, [lr, #-4]
    11b4:	01010100 	mrseq	r0, (UNDEF: 17)
    11b8:	00000001 	andeq	r0, r0, r1
    11bc:	01000001 	tsteq	r0, r1
    11c0:	696c2f2e 	stmdbvs	ip!, {r1, r2, r3, r5, r8, r9, sl, fp, sp}^
    11c4:	2f006362 	svccs	0x00006362
    11c8:	2f74706f 	svccs	0x0074706f
    11cc:	656d6f68 	strbvs	r6, [sp, #-3944]!	; 0xfffff098
    11d0:	77657262 	strbvc	r7, [r5, -r2, ror #4]!
    11d4:	6c65432f 	stclvs	3, cr4, [r5], #-188	; 0xffffff44
    11d8:	2f72616c 	svccs	0x0072616c
    11dc:	2d6d7261 	sfmcs	f7, 2, [sp, #-388]!	; 0xfffffe7c
    11e0:	656e6f6e 	strbvs	r6, [lr, #-3950]!	; 0xfffff092
    11e4:	6261652d 	rsbvs	r6, r1, #188743680	; 0xb400000
    11e8:	2f392d69 	svccs	0x00392d69
    11ec:	30322d39 	eorscc	r2, r2, r9, lsr sp
    11f0:	34713931 	ldrbtcc	r3, [r1], #-2353	; 0xfffff6cf
    11f4:	3173632d 	cmncc	r3, sp, lsr #6
    11f8:	2f653730 	svccs	0x00653730
    11fc:	2f62696c 	svccs	0x0062696c
    1200:	2f636367 	svccs	0x00636367
    1204:	2d6d7261 	sfmcs	f7, 2, [sp, #-388]!	; 0xfffffe7c
    1208:	656e6f6e 	strbvs	r6, [lr, #-3950]!	; 0xfffff092
    120c:	6261652d 	rsbvs	r6, r1, #188743680	; 0xb400000
    1210:	2e392f69 	cdpcs	15, 3, cr2, cr9, cr9, {3}
    1214:	2f312e32 	svccs	0x00312e32
    1218:	6c636e69 	stclvs	14, cr6, [r3], #-420	; 0xfffffe5c
    121c:	00656475 	rsbeq	r6, r5, r5, ror r4
    1220:	6573552f 	ldrbvs	r5, [r3, #-1327]!	; 0xfffffad1
    1224:	6d2f7372 	stcvs	3, cr7, [pc, #-456]!	; 1064 <__code_start__-0x6f9c>
    1228:	73656c69 	cmnvc	r5, #26880	; 0x6900
    122c:	756f532f 	strbvc	r5, [pc, #-815]!	; f05 <__code_start__-0x70fb>
    1230:	2f656372 	svccs	0x00656372
    1234:	34327363 	ldrtcc	r7, [r2], #-867	; 0xfffffc9d
    1238:	2f786c30 	svccs	0x00786c30
    123c:	7062696c 	rsbvc	r6, r2, ip, ror #18
    1240:	6e692f69 	cdpvs	15, 6, cr2, cr9, cr9, {3}
    1244:	64756c63 	ldrbtvs	r6, [r5], #-3171	; 0xfffff39d
    1248:	76000065 	strvc	r0, [r0], -r5, rrx
    124c:	72702d61 	rsbsvc	r2, r0, #6208	; 0x1840
    1250:	6b746e69 	blvs	1d1cbfc <__bss_end__+0x1d12064>
    1254:	0100632e 	tsteq	r0, lr, lsr #6
    1258:	74730000 	ldrbtvc	r0, [r3], #-0
    125c:	746e6964 	strbtvc	r6, [lr], #-2404	; 0xfffff69c
    1260:	6363672d 	cmnvs	r3, #11796480	; 0xb40000
    1264:	0200682e 	andeq	r6, r0, #3014656	; 0x2e0000
    1268:	70720000 	rsbsvc	r0, r2, r0
    126c:	00682e69 	rsbeq	r2, r8, r9, ror #28
    1270:	72000003 	andvc	r0, r0, #3, 0
    1274:	692d6970 	pushvs	{r4, r5, r6, r8, fp, sp, lr}
    1278:	7265746e 	rsbvc	r7, r5, #1845493760	; 0x6e000000
    127c:	2e6c616e 	powcsez	f6, f4, #0.5
    1280:	00030068 	andeq	r0, r3, r8, rrx
    1284:	64747300 	ldrbtvs	r7, [r4], #-768	; 0xfffffd00
    1288:	2e677261 	cdpcs	2, 6, cr7, cr7, cr1, {3}
    128c:	00020068 	andeq	r0, r2, r8, rrx
    1290:	75623c00 	strbvc	r3, [r2, #-3072]!	; 0xfffff400
    1294:	2d746c69 	ldclcs	12, cr6, [r4, #-420]!	; 0xfffffe5c
    1298:	003e6e69 	eorseq	r6, lr, r9, ror #28
    129c:	00000000 	andeq	r0, r0, r0
    12a0:	05000105 	streq	r0, [r0, #-261]	; 0xfffffefb
    12a4:	00918402 	addseq	r8, r1, r2, lsl #8
    12a8:	00c80300 	sbceq	r0, r8, r0, lsl #6
    12ac:	14020501 	strne	r0, [r2], #-1281	; 0xfffffaff
    12b0:	10060105 	andne	r0, r6, r5, lsl #2
    12b4:	05300405 	ldreq	r0, [r0, #-1029]!	; 0xfffffbfb
    12b8:	054a2c01 	strbeq	r2, [sl, #-3073]	; 0xfffff3ff
    12bc:	02053004 	andeq	r3, r5, #4, 0
    12c0:	05133106 	ldreq	r3, [r3, #-262]	; 0xfffffefa
    12c4:	052e060b 	streq	r0, [lr, #-1547]!	; 0xfffff9f5
    12c8:	05300602 	ldreq	r0, [r0, #-1538]!	; 0xfffff9fe
    12cc:	24020609 	strcs	r0, [r2], #-1545	; 0xfffff9f7
    12d0:	052e2e0d 	streq	r2, [lr, #-3597]!	; 0xfffff1f3
    12d4:	1703060d 	strne	r0, [r3, -sp, lsl #12]
    12d8:	1311054a 	tstne	r1, #310378496	; 0x12800000
    12dc:	01062d05 	tsteq	r6, r5, lsl #26
    12e0:	052e1605 	streq	r1, [lr, #-1541]!	; 0xfffff9fb
    12e4:	16052f0d 	strne	r2, [r5], -sp, lsl #30
    12e8:	0614052d 	ldreq	r0, [r4], -sp, lsr #10
    12ec:	0617052f 	ldreq	r0, [r7], -pc, lsr #10
    12f0:	2e0d0501 	cfsh32cs	mvfx0, mvfx13, #1
    12f4:	12052f06 	andne	r2, r5, #6, 30
    12f8:	2f2e0106 	svccs	0x002e0106
    12fc:	060d052d 	streq	r0, [sp], -sp, lsr #10
    1300:	0612052f 	ldreq	r0, [r2], -pc, lsr #10
    1304:	06190501 	ldreq	r0, [r9], -r1, lsl #10
    1308:	0304052f 	movweq	r0, #17711	; 0x452f
    130c:	05010111 	streq	r0, [r1, #-273]	; 0xfffffeef
    1310:	0e051502 	cfsh32eq	mvfx1, mvfx5, #2
    1314:	017fb203 	cmneq	pc, r3, lsl #4
    1318:	05130205 	ldreq	r0, [r3, #-517]	; 0xfffffdfb
    131c:	05010606 	streq	r0, [r1, #-1542]	; 0xfffff9fa
    1320:	05300602 	ldreq	r0, [r0, #-1538]!	; 0xfffff9fe
    1324:	02050108 	andeq	r0, r5, #2
    1328:	054a0106 	strbeq	r0, [sl, #-262]	; 0xfffffefa
    132c:	05910808 	ldreq	r0, [r1, #2056]	; 0x808
    1330:	054a0603 	strbeq	r0, [sl, #-1539]	; 0xfffff9fd
    1334:	05010608 	streq	r0, [r1, #-1544]	; 0xfffff9f8
    1338:	052d0615 	streq	r0, [sp, #-1557]!	; 0xfffff9eb
    133c:	03050108 	movweq	r0, #20744	; 0x5108
    1340:	060805d7 			; <UNDEFINED> instruction: 0x060805d7
    1344:	2d180501 	cfldr32cs	mvfx0, [r8, #-4]
    1348:	052e0205 	streq	r0, [lr, #-517]!	; 0xfffffdfb
    134c:	15052f08 	strne	r2, [r5, #-3848]	; 0xfffff0f8
    1350:	08052d06 	stmdaeq	r5, {r1, r2, r8, sl, fp, sp}
    1354:	06020501 	streq	r0, [r2], -r1, lsl #10
    1358:	06030501 	streq	r0, [r3], -r1, lsl #10
    135c:	0618052f 	ldreq	r0, [r8], -pc, lsr #10
    1360:	2e020511 	mcrcs	5, 0, r0, cr2, cr1, {0}
    1364:	052f0805 	streq	r0, [pc, #-2053]!	; b67 <__code_start__-0x7499>
    1368:	052d0615 	streq	r0, [sp, #-1557]!	; 0xfffff9eb
    136c:	03050108 	movweq	r0, #20744	; 0x5108
    1370:	06080513 			; <UNDEFINED> instruction: 0x06080513
    1374:	06150501 	ldreq	r0, [r5], -r1, lsl #10
    1378:	0108052d 	tsteq	r8, sp, lsr #10
    137c:	02050106 	andeq	r0, r5, #-2147483647	; 0x80000001
    1380:	0505a006 	streq	sl, [r5, #-6]
    1384:	04050106 	streq	r0, [r5], #-262	; 0xfffffefa
    1388:	2f110536 	svccs	0x00110536
    138c:	052e0905 	streq	r0, [lr, #-2309]!	; 0xfffff6fb
    1390:	05053302 	streq	r3, [r5, #-770]	; 0xfffffcfe
    1394:	052e7203 	streq	r7, [lr, #-515]!	; 0xfffffdfd
    1398:	062f0602 	strteq	r0, [pc], -r2, lsl #12
    139c:	060e0501 	streq	r0, [lr], -r1, lsl #10
    13a0:	14020516 	strne	r0, [r2], #-1302	; 0xfffffaea
    13a4:	13030513 	movwne	r0, #13587	; 0x3513
    13a8:	15140205 	ldrne	r0, [r4, #-517]	; 0xfffffdfb
    13ac:	05010b05 	streq	r0, [r1, #-2821]	; 0xfffff4fb
    13b0:	2e010602 	cfmadd32cs	mvax0, mvfx0, mvfx1, mvfx2
    13b4:	67060305 	strvs	r0, [r6, -r5, lsl #6]
    13b8:	01060a05 	tsteq	r6, r5, lsl #20
    13bc:	052d0205 	streq	r0, [sp, #-517]!	; 0xfffffdfb
    13c0:	17052f0a 	strne	r2, [r5, -sl, lsl #30]
    13c4:	0b052d06 	bleq	14c7e4 <__bss_end__+0x141c4c>
    13c8:	06020501 	streq	r0, [r2], -r1, lsl #10
    13cc:	4c090501 	cfstr32mi	mvfx0, [r9], {1}
    13d0:	0602052e 	streq	r0, [r2], -lr, lsr #10
    13d4:	0609052e 	streq	r0, [r9], -lr, lsr #10
    13d8:	06020501 	streq	r0, [r2], -r1, lsl #10
    13dc:	05010630 	streq	r0, [r1, #-1584]	; 0xfffff9d0
    13e0:	01380301 	teqeq	r8, r1, lsl #6
    13e4:	4f030905 	svcmi	0x00030905
    13e8:	052e2e4a 	streq	r2, [lr, #-3658]!	; 0xfffff1b6
    13ec:	27030619 	smladcs	r3, r9, r6, r0
    13f0:	131a054a 	tstne	sl, #310378496	; 0x12800000
    13f4:	01062805 	tsteq	r6, r5, lsl #16
    13f8:	052e1f05 	streq	r1, [lr, #-3845]!	; 0xfffff0fb
    13fc:	1f052f04 	svcne	0x00052f04
    1400:	060b052d 	streq	r0, [fp], -sp, lsr #10
    1404:	060e052f 	streq	r0, [lr], -pc, lsr #10
    1408:	2e040501 	cfsh32cs	mvfx0, mvfx4, #1
    140c:	03060205 	movweq	r0, #25093	; 0x6205
    1410:	05134a59 	ldreq	r4, [r3, #-2649]	; 0xfffff5a7
    1414:	052e060b 	streq	r0, [lr, #-1547]!	; 0xfffff9f5
    1418:	05300602 	ldreq	r0, [r0, #-1538]!	; 0xfffff9fe
    141c:	24020609 	strcs	r0, [r2], #-1545	; 0xfffff9f7
    1420:	0604050d 	streq	r0, [r4], -sp, lsl #10
    1424:	06051336 			; <UNDEFINED> instruction: 0x06051336
    1428:	05050106 	streq	r0, [r5, #-262]	; 0xfffffefa
    142c:	13136706 	tstne	r3, #1572864	; 0x180000
    1430:	11060905 	tstne	r6, r5, lsl #18
    1434:	052b0d05 	streq	r0, [fp, #-3333]!	; 0xfffff2fb
    1438:	0d05300b 	stceq	0, cr3, [r5, #-44]	; 0xffffffd4
    143c:	351b052c 	ldrcc	r0, [fp, #-1324]	; 0xfffffad4
    1440:	2d060405 	cfstrscs	mvf0, [r6, #-20]	; 0xffffffec
    1444:	05130505 	ldreq	r0, [r3, #-1285]	; 0xfffffafb
    1448:	052e061b 	streq	r0, [lr, #-1563]!	; 0xfffff9e5
    144c:	0405820a 	streq	r8, [r5], #-522	; 0xfffffdf6
    1450:	2e0e052f 	cfsh32cs	mvfx0, mvfx14, #31
    1454:	05490a05 	strbeq	r0, [r9, #-2565]	; 0xfffff5fb
    1458:	052f060b 	streq	r0, [pc, #-1547]!	; e55 <__code_start__-0x71ab>
    145c:	06010604 	streq	r0, [r1], -r4, lsl #12
    1460:	0606052f 	streq	r0, [r6], -pc, lsr #10
    1464:	06050501 	streq	r0, [r5], -r1, lsl #10
    1468:	060a052f 	streq	r0, [sl], -pc, lsr #10
    146c:	07052e01 	streq	r2, [r5, -r1, lsl #28]
    1470:	052e2e2e 	streq	r2, [lr, #-3630]!	; 0xfffff1d2
    1474:	0d030604 	stceq	6, cr0, [r3, #-16]
    1478:	06020501 	streq	r0, [r2], -r1, lsl #10
    147c:	05014603 	streq	r4, [r1, #-1539]	; 0xfffff9fd
    1480:	2e3a0309 	cdpcs	3, 3, cr0, cr10, cr9, {0}
    1484:	2f060405 	svccs	0x00060405
    1488:	01010d03 	tsteq	r1, r3, lsl #26
    148c:	05150205 	ldreq	r0, [r5, #-517]	; 0xfffffdfb
    1490:	7fb2030e 	svcvc	0x00b2030e
    1494:	13020501 	movwne	r0, #9473	; 0x2501
    1498:	01080514 	tsteq	r8, r4, lsl r5
    149c:	10060605 	andne	r0, r6, r5, lsl #12
    14a0:	052e3c03 	streq	r3, [lr, #-3075]!	; 0xfffff3fd
    14a4:	4a460302 	bmi	11820b4 <__bss_end__+0x117751c>
    14a8:	05053006 	streq	r3, [r5, #-6]
    14ac:	2e2e0106 	sufcse	f0, f6, f6
    14b0:	4b060205 	blmi	181ccc <__bss_end__+0x177134>
    14b4:	0e050106 	adfeqs	f0, f5, f6
    14b8:	02051606 	andeq	r1, r5, #6291456	; 0x600000
    14bc:	15151314 	ldrne	r1, [r5, #-788]	; 0xfffffcec
    14c0:	05010b05 	streq	r0, [r1, #-2821]	; 0xfffff4fb
    14c4:	062e0602 	strteq	r0, [lr], -r2, lsl #12
    14c8:	06090530 			; <UNDEFINED> instruction: 0x06090530
    14cc:	06020501 	streq	r0, [r2], -r1, lsl #10
    14d0:	0501064c 	streq	r0, [r1, #-1612]	; 0xfffff9b4
    14d4:	01380301 	teqeq	r8, r1, lsl #6
    14d8:	6e030605 	cfmadd32vs	mvax0, mvfx0, mvfx3, mvfx5
    14dc:	0302054a 	movweq	r0, #9546	; 0x254a
    14e0:	2e4a6646 	cdpcs	6, 4, cr6, cr10, cr6, {2}
    14e4:	03060405 	movweq	r0, #25605	; 0x6405
    14e8:	010100c8 	smlabteq	r1, r8, r0, r0
    14ec:	2e060101 	adfcss	f0, f6, f1
    14f0:	034a0682 	movteq	r0, #42626	; 0xa682
    14f4:	09052e72 	stmdbeq	r5, {r1, r4, r5, r6, r9, sl, fp, sp}
    14f8:	04050106 	streq	r0, [r5], #-262	; 0xfffffefa
    14fc:	0d032f06 	stceq	15, cr2, [r3, #-24]	; 0xffffffe8
    1500:	02050101 	andeq	r0, r5, #1073741824	; 0x40000000
    1504:	030e0515 	movweq	r0, #58645	; 0xe515
    1508:	05017fb2 	streq	r7, [r1, #-4018]	; 0xfffff04e
    150c:	05141302 	ldreq	r1, [r4, #-770]	; 0xfffffcfe
    1510:	09050108 	stmdbeq	r5, {r3, r8}
    1514:	011b0306 	tsteq	fp, r6, lsl #6
    1518:	63030605 	movwvs	r0, #13829	; 0x3605
    151c:	2e3c032e 	cdpcs	3, 3, cr0, cr12, cr14, {1}
    1520:	48052e2e 	stmdami	r5, {r1, r2, r3, r5, r9, sl, fp, sp}
    1524:	7fb40306 	svcvc	0x00b40306
    1528:	05053c08 	streq	r3, [r5, #-3080]	; 0xfffff3f8
    152c:	2e060113 	mcrcs	1, 0, r0, cr6, cr3, {0}
    1530:	02040200 	andeq	r0, r4, #0, 4
    1534:	02002e06 	andeq	r2, r0, #96	; 0x60
    1538:	00010204 	andeq	r0, r1, r4, lsl #4
    153c:	13020402 	movwne	r0, #9218	; 0x2402
    1540:	02001105 	andeq	r1, r0, #1073741825	; 0x40000001
    1544:	01060204 	tsteq	r6, r4, lsl #4
    1548:	02000705 	andeq	r0, r0, #1310720	; 0x140000
    154c:	052f0204 	streq	r0, [pc, #-516]!	; 1350 <__code_start__-0x6cb0>
    1550:	04020011 	streq	r0, [r2], #-17	; 0xffffffef
    1554:	05052d02 	streq	r2, [r5, #-3330]	; 0xfffff2fe
    1558:	02040200 	andeq	r0, r4, #0, 4
    155c:	09052f06 	stmdbeq	r5, {r1, r2, r8, r9, sl, fp, sp}
    1560:	02040200 	andeq	r0, r4, #0, 4
    1564:	000e0513 	andeq	r0, lr, r3, lsl r5
    1568:	06020402 	streq	r0, [r2], -r2, lsl #8
    156c:	00050501 	andeq	r0, r5, r1, lsl #10
    1570:	06010402 	streq	r0, [r1], -r2, lsl #8
    1574:	04020063 	streq	r0, [r2], #-99	; 0xffffff9d
    1578:	48050101 	stmdami	r5, {r0, r8}
    157c:	01040200 	mrseq	r0, R12_usr
    1580:	05051106 	streq	r1, [r5, #-262]	; 0xfffffefa
    1584:	01040200 	mrseq	r0, R12_usr
    1588:	0048052f 	subeq	r0, r8, pc, lsr #10
    158c:	2d010402 	cfstrscs	mvf0, [r1, #-8]
    1590:	02000505 	andeq	r0, r0, #20971520	; 0x1400000
    1594:	002f0104 	eoreq	r0, pc, r4, lsl #2
    1598:	4a010402 	bmi	425a8 <__bss_end__+0x37a10>
    159c:	01040200 	mrseq	r0, R12_usr
    15a0:	0402004a 	streq	r0, [r2], #-74	; 0xffffffb6
    15a4:	054a0601 	strbeq	r0, [sl, #-1537]	; 0xfffff9ff
    15a8:	00e10340 	rsceq	r0, r1, r0, asr #6
    15ac:	050106d6 	streq	r0, [r1, #-1750]	; 0xfffff92a
    15b0:	052e4e09 	streq	r4, [lr, #-3593]!	; 0xfffff1f7
    15b4:	1e053008 	cdpne	0, 0, cr3, cr5, cr8, {0}
    15b8:	2e120529 	cfmul64cs	mvdx0, mvdx2, mvdx9
    15bc:	05330d05 	ldreq	r0, [r3, #-3333]!	; 0xfffff2fb
    15c0:	05450602 	strbeq	r0, [r5, #-1538]	; 0xfffff9fe
    15c4:	02051305 	andeq	r1, r5, #335544320	; 0x14000000
    15c8:	13050514 	movwne	r0, #21780	; 0x5514
    15cc:	05130205 	ldreq	r0, [r3, #-517]	; 0xfffffdfb
    15d0:	40050108 	andmi	r0, r5, r8, lsl #2
    15d4:	017a0306 	cmneq	sl, r6, lsl #6
    15d8:	340d052e 	strcc	r0, [sp], #-1326	; 0xfffffad2
    15dc:	03110566 	tsteq	r1, #427819008	; 0x19800000
    15e0:	054a4a20 	strbeq	r4, [sl, #-2592]	; 0xfffff5e0
    15e4:	62030604 	andvs	r0, r3, #4, 12	; 0x400000
    15e8:	06090501 	streq	r0, [r9], -r1, lsl #10
    15ec:	2e0f0501 	cfsh32cs	mvfx0, mvfx15, #1
    15f0:	2c060805 	stccs	8, cr0, [r6], {5}
    15f4:	2e060d05 	cdpcs	13, 0, cr0, cr6, cr5, {0}
    15f8:	67060305 	strvs	r0, [r6, -r5, lsl #6]
    15fc:	01060505 	tsteq	r6, r5, lsl #10
    1600:	4d060805 	stcmi	8, cr0, [r6, #-20]	; 0xffffffec
    1604:	01060e05 	tsteq	r6, r5, lsl #28
    1608:	052e0a05 	streq	r0, [lr, #-2565]!	; 0xfffff5fb
    160c:	04052f09 	streq	r2, [r5], #-3849	; 0xfffff0f7
    1610:	07052f06 	streq	r2, [r5, -r6, lsl #30]
    1614:	0a050106 	beq	141a34 <__bss_end__+0x136e9c>
    1618:	0604052c 	streq	r0, [r4], -ip, lsr #10
    161c:	062d0532 			; <UNDEFINED> instruction: 0x062d0532
    1620:	017f9803 	cmneq	pc, r3, lsl #16
    1624:	ed030905 	vstr.16	s0, [r3, #-10]
    1628:	0d052e00 	stceq	14, cr2, [r5, #-0]
    162c:	2b07052c 	blcs	1c2ae4 <__bss_end__+0x1b7f4c>
    1630:	30060405 	andcc	r0, r6, r5, lsl #8
    1634:	09051413 	stmdbeq	r5, {r0, r1, r4, sl, ip}
    1638:	030c0501 	movweq	r0, #50433	; 0xc501
    163c:	05017f93 	streq	r7, [r1, #-3987]	; 0xfffff06d
    1640:	0106011d 	tsteq	r6, sp, lsl r1
    1644:	ed030905 	vstr.16	s0, [r3, #-10]
    1648:	05050100 	streq	r0, [r5, #-256]	; 0xffffff00
    164c:	12052f06 	andne	r2, r5, #6, 30
    1650:	2d2e0106 	stfcss	f0, [lr, #-24]!	; 0xffffffe8
    1654:	052f0b05 	streq	r0, [pc, #-2821]!	; b57 <__code_start__-0x74a9>
    1658:	052f0605 	streq	r0, [pc, #-1541]!	; 105b <__code_start__-0x6fa5>
    165c:	0c051009 	stceq	0, cr1, [r5], {9}
    1660:	017f9303 	cmneq	pc, r3, lsl #6
    1664:	05011d05 	streq	r1, [r1, #-3333]	; 0xfffff2fb
    1668:	0501062d 	streq	r0, [r1, #-1581]	; 0xfffff9d3
    166c:	00ed0309 	rsceq	r0, sp, r9, lsl #6
    1670:	0604052e 	streq	r0, [r4], -lr, lsr #10
    1674:	0200014e 	andeq	r0, r0, #-2147483629	; 0x80000013
    1678:	004a0204 	subeq	r0, sl, r4, lsl #4
    167c:	01020402 	tsteq	r2, r2, lsl #8
    1680:	02040200 	andeq	r0, r4, #0, 4
    1684:	04020015 	streq	r0, [r2], #-21	; 0xffffffeb
    1688:	36020602 	strcc	r0, [r2], -r2, lsl #12
    168c:	04020012 	streq	r0, [r2], #-18	; 0xffffffee
    1690:	02052e02 	andeq	r2, r5, #2, 28
    1694:	00d10306 	sbcseq	r0, r1, r6, lsl #6
    1698:	06070501 	streq	r0, [r7], -r1, lsl #10
    169c:	02052e01 	andeq	r2, r5, #1, 28
    16a0:	0b052f06 	bleq	14d2c0 <__bss_end__+0x142728>
    16a4:	01050106 	tsteq	r5, r6, lsl #2
    16a8:	0605052f 	streq	r0, [r5], -pc, lsr #10
    16ac:	054a6503 	strbeq	r6, [sl, #-1283]	; 0xfffffafd
    16b0:	66010609 	strvs	r0, [r1], -r9, lsl #12
    16b4:	9f060505 	svcls	0x00060505
    16b8:	11030405 	tstne	r3, r5, lsl #8
    16bc:	06070501 	streq	r0, [r7], -r1, lsl #10
    16c0:	06040501 	streq	r0, [r4], -r1, lsl #10
    16c4:	010a0531 	tsteq	sl, r1, lsr r5
    16c8:	02001305 	andeq	r1, r0, #335544320	; 0x14000000
    16cc:	2e060104 	adfcss	f0, f6, f4
    16d0:	02001005 	andeq	r1, r0, #5, 0
    16d4:	052e0104 	streq	r0, [lr, #-260]!	; 0xfffffefc
    16d8:	054b0605 	strbeq	r0, [fp, #-1541]	; 0xfffff9fb
    16dc:	0601060a 	streq	r0, [r1], -sl, lsl #12
    16e0:	0604052d 	streq	r0, [r4], -sp, lsr #10
    16e4:	06110501 	ldreq	r0, [r1], -r1, lsl #10
    16e8:	667fb603 	ldrbtvs	fp, [pc], -r3, lsl #12
    16ec:	02000113 	andeq	r0, r0, #-1073741820	; 0xc0000004
    16f0:	ba060204 	blt	181f08 <__bss_end__+0x177370>
    16f4:	1401ba06 	strne	fp, [r1], #-2566	; 0xfffff5fa
    16f8:	13061a05 	movwne	r1, #27141	; 0x6a05
    16fc:	11052e2e 	tstne	r5, lr, lsr #28
    1700:	1405674e 	strne	r6, [r5], #-1870	; 0xfffff8b2
    1704:	82130568 	andshi	r0, r3, #104, 10	; 0x1a000000
    1708:	78031505 	stmdavc	r3, {r0, r2, r8, sl, ip}
    170c:	0611054a 	ldreq	r0, [r1], -sl, asr #10
    1710:	1413134b 	ldrne	r1, [r3], #-843	; 0xfffffcb5
    1714:	13051413 	movwne	r1, #21523	; 0x5413
    1718:	09050106 	stmdbeq	r5, {r1, r2, r8}
    171c:	0d052f06 	stceq	15, cr2, [r5, #-24]	; 0xffffffe8
    1720:	2e2e0106 	sufcse	f0, f6, f6
    1724:	05bb0905 	ldreq	r0, [fp, #2309]!	; 0x905
    1728:	09059d0d 	stmdbeq	r5, {r0, r2, r3, r8, sl, fp, ip, pc}
    172c:	15052f06 	strne	r2, [r5, #-3846]	; 0xfffff0fa
    1730:	7503062f 	strvc	r0, [r3, #-1583]	; 0xfffff9d1
    1734:	2e0b034a 	cdpcs	3, 0, cr0, cr11, cr10, {2}
    1738:	0605054a 	streq	r0, [r5], -sl, asr #10
    173c:	05012303 	streq	r2, [r1, #-771]	; 0xfffffcfd
    1740:	2e010609 	cfmadd32cs	mvax0, mvfx0, mvfx1, mvfx9
    1744:	d7060505 	strle	r0, [r6, -r5, lsl #10]
    1748:	032e6e03 			; <UNDEFINED> instruction: 0x032e6e03
    174c:	0905010e 	stmdbeq	r5, {r1, r2, r3, r8}
    1750:	05050106 	streq	r0, [r5, #-262]	; 0xfffffefa
    1754:	4a100306 	bmi	402374 <__bss_end__+0x3f77dc>
    1758:	ed030105 	stfs	f0, [r3, #-20]	; 0xffffffec
    175c:	0205017e 	andeq	r0, r5, #-2147483617	; 0x8000001f
    1760:	14131514 	ldrne	r1, [r3], #-1300	; 0xfffffaec
    1764:	1a030405 	bne	c2780 <__bss_end__+0xb7be8>
    1768:	06090501 	streq	r0, [r9], -r1, lsl #10
    176c:	03020501 	movweq	r0, #9473	; 0x2501
    1770:	09052e46 	stmdbeq	r5, {r1, r2, r6, r9, sl, fp, sp}
    1774:	052e3a03 	streq	r3, [lr, #-2563]!	; 0xfffff5fd
    1778:	032f0604 			; <UNDEFINED> instruction: 0x032f0604
    177c:	0501010d 	streq	r0, [r1, #-269]	; 0xfffffef3
    1780:	0e051502 	cfsh32eq	mvfx1, mvfx5, #2
    1784:	017fb203 	cmneq	pc, r3, lsl #4
    1788:	14130205 	ldrne	r0, [r3], #-517	; 0xfffffdfb
    178c:	05010805 	streq	r0, [r1, #-2053]	; 0xfffff7fb
    1790:	05010602 	streq	r0, [r1, #-1538]	; 0xfffff9fe
    1794:	03059f08 	movweq	r9, #24328	; 0x5f08
    1798:	01064a06 	tsteq	r6, r6, lsl #20
    179c:	052e0805 	streq	r0, [lr, #-2053]!	; 0xfffff7fb
    17a0:	052d0615 	streq	r0, [sp, #-1557]!	; 0xfffff9eb
    17a4:	03050108 	movweq	r0, #20744	; 0x5108
    17a8:	0501062f 	streq	r0, [r1, #-1583]	; 0xfffff9d1
    17ac:	15052e08 	strne	r2, [r5, #-3592]	; 0xfffff1f8
    17b0:	08052d06 	stmdaeq	r5, {r1, r2, r8, sl, fp, sp}
    17b4:	2f030501 	svccs	0x00030501
    17b8:	08050106 	stmdaeq	r5, {r1, r2, r8}
    17bc:	0615052e 	ldreq	r0, [r5], -lr, lsr #10
    17c0:	0108052d 	tsteq	r8, sp, lsr #10
    17c4:	062f0305 	strteq	r0, [pc], -r5, lsl #6
    17c8:	2e080501 	cfsh32cs	mvfx0, mvfx8, #1
    17cc:	2d061505 	cfstr32cs	mvfx1, [r6, #-20]	; 0xffffffec
    17d0:	05010805 	streq	r0, [r1, #-2053]	; 0xfffff7fb
    17d4:	01062f03 	tsteq	r6, r3, lsl #30
    17d8:	052e0805 	streq	r0, [lr, #-2053]!	; 0xfffff7fb
    17dc:	052d0615 	streq	r0, [sp, #-1557]!	; 0xfffff9eb
    17e0:	03050108 	movweq	r0, #20744	; 0x5108
    17e4:	0501062f 	streq	r0, [r1, #-1583]	; 0xfffff9d1
    17e8:	15052e08 	strne	r2, [r5, #-3592]	; 0xfffff1f8
    17ec:	08052d06 	stmdaeq	r5, {r1, r2, r8, sl, fp, sp}
    17f0:	13030501 	movwne	r0, #13569	; 0x3501
    17f4:	01060805 	tsteq	r6, r5, lsl #16
    17f8:	2d061505 	cfstr32cs	mvfx1, [r6, #-20]	; 0xffffffec
    17fc:	06010805 	streq	r0, [r1], -r5, lsl #16
    1800:	06030566 	streq	r0, [r3], -r6, ror #10
    1804:	06080567 	streq	r0, [r8], -r7, ror #10
    1808:	2d180501 	cfldr32cs	mvfx0, [r8, #-4]
    180c:	052e0205 	streq	r0, [lr, #-517]!	; 0xfffffdfb
    1810:	15052f08 	strne	r2, [r5, #-3848]	; 0xfffff0f8
    1814:	08052d06 	stmdaeq	r5, {r1, r2, r8, sl, fp, sp}
    1818:	06020501 	streq	r0, [r2], -r1, lsl #10
    181c:	06030501 	streq	r0, [r3], -r1, lsl #10
    1820:	0618052f 	ldreq	r0, [r8], -pc, lsr #10
    1824:	2e020511 	mcrcs	5, 0, r0, cr2, cr1, {0}
    1828:	052f0805 	streq	r0, [pc, #-2053]!	; 102b <__code_start__-0x6fd5>
    182c:	052d0615 	streq	r0, [sp, #-1557]!	; 0xfffff9eb
    1830:	03050108 	movweq	r0, #20744	; 0x5108
    1834:	06080513 			; <UNDEFINED> instruction: 0x06080513
    1838:	06150501 	ldreq	r0, [r5], -r1, lsl #10
    183c:	0108052d 	tsteq	r8, sp, lsr #10
    1840:	14060505 	strne	r0, [r6], #-1285	; 0xfffffafb
    1844:	0602054a 	streq	r0, [r2], -sl, asr #10
    1848:	060e052e 	streq	r0, [lr], -lr, lsr #10
    184c:	2f040519 	svccs	0x00040519
    1850:	052f1105 	streq	r1, [pc, #-261]!	; 1753 <__code_start__-0x68ad>
    1854:	02054a09 	andeq	r4, r5, #36864	; 0x9000
    1858:	03050533 	movweq	r0, #21811	; 0x5533
    185c:	02052e72 	andeq	r2, r5, #1824	; 0x720
    1860:	01062f06 	tsteq	r6, r6, lsl #30
    1864:	16060e05 	strne	r0, [r6], -r5, lsl #28
    1868:	13140205 	tstne	r4, #1342177280	; 0x50000000
    186c:	05130305 	ldreq	r0, [r3, #-773]	; 0xfffffcfb
    1870:	05151402 	ldreq	r1, [r5, #-1026]	; 0xfffffbfe
    1874:	0205010b 	andeq	r0, r5, #-1073741822	; 0xc0000002
    1878:	662e0106 	strtvs	r0, [lr], -r6, lsl #2
    187c:	2f060305 	svccs	0x00060305
    1880:	01060a05 	tsteq	r6, r5, lsl #20
    1884:	052d0205 	streq	r0, [sp, #-517]!	; 0xfffffdfb
    1888:	17052f0a 	strne	r2, [r5, -sl, lsl #30]
    188c:	0b052d06 	bleq	14ccac <__bss_end__+0x142114>
    1890:	06020501 	streq	r0, [r2], -r1, lsl #10
    1894:	054a4a01 	strbeq	r4, [sl, #-2561]	; 0xfffff5ff
    1898:	95030605 	strls	r0, [r3, #-1541]	; 0xfffff9fb
    189c:	11050101 	tstne	r5, r1, lsl #2
    18a0:	7ef80306 	cdpvc	3, 15, cr0, cr8, cr6, {0}
    18a4:	031b0501 	tsteq	fp, #4194304	; 0x400000
    18a8:	054a0188 	strbeq	r0, [sl, #-392]	; 0xfffffe78
    18ac:	f3030601 	vmax.u8	d0, d3, d1
    18b0:	02052e7e 	andeq	r2, r5, #2016	; 0x7e0
    18b4:	14131514 	ldrne	r1, [r3], #-1300	; 0xfffffaec
    18b8:	22031905 	andcs	r1, r3, #81920	; 0x14000
    18bc:	131a0501 	tstne	sl, #4194304	; 0x400000
    18c0:	01062805 	tsteq	r6, r5, lsl #16
    18c4:	052e1f05 	streq	r1, [lr, #-3845]!	; 0xfffff0fb
    18c8:	0e052f04 	cdpeq	15, 0, cr2, cr5, cr4, {0}
    18cc:	2d1f054a 	cfldr32cs	mvfx0, [pc, #-296]	; 17ac <__code_start__-0x6854>
    18d0:	2f060b05 	svccs	0x00060b05
    18d4:	01060405 	tsteq	r6, r5, lsl #8
    18d8:	05013206 	streq	r3, [r1, #-518]	; 0xfffffdfa
    18dc:	0e051502 	cfsh32eq	mvfx1, mvfx5, #2
    18e0:	017fb203 	cmneq	pc, r3, lsl #4
    18e4:	05130205 	ldreq	r0, [r3, #-517]	; 0xfffffdfb
    18e8:	05010606 	streq	r0, [r1, #-1542]	; 0xfffff9fa
    18ec:	05300602 	ldreq	r0, [r0, #-1538]!	; 0xfffff9fe
    18f0:	02050108 	andeq	r0, r5, #2
    18f4:	03050106 	movweq	r0, #20742	; 0x5106
    18f8:	05210806 	streq	r0, [r1, #-2054]!	; 0xfffff7fa
    18fc:	05010608 	streq	r0, [r1, #-1544]	; 0xfffff9f8
    1900:	05490615 	strbeq	r0, [r9, #-1557]	; 0xfffff9eb
    1904:	03050108 	movweq	r0, #20744	; 0x5108
    1908:	060805d7 			; <UNDEFINED> instruction: 0x060805d7
    190c:	2d180501 	cfldr32cs	mvfx0, [r8, #-4]
    1910:	052e0205 	streq	r0, [lr, #-517]!	; 0xfffffdfb
    1914:	15052f08 	strne	r2, [r5, #-3848]	; 0xfffff0f8
    1918:	08052d06 	stmdaeq	r5, {r1, r2, r8, sl, fp, sp}
    191c:	06020501 	streq	r0, [r2], -r1, lsl #10
    1920:	06030501 	streq	r0, [r3], -r1, lsl #10
    1924:	0618052f 	ldreq	r0, [r8], -pc, lsr #10
    1928:	2e020511 	mcrcs	5, 0, r0, cr2, cr1, {0}
    192c:	052f0805 	streq	r0, [pc, #-2053]!	; 112f <__code_start__-0x6ed1>
    1930:	052d0615 	streq	r0, [sp, #-1557]!	; 0xfffff9eb
    1934:	03050108 	movweq	r0, #20744	; 0x5108
    1938:	06080513 			; <UNDEFINED> instruction: 0x06080513
    193c:	06150501 	ldreq	r0, [r5], -r1, lsl #10
    1940:	0108052d 	tsteq	r8, sp, lsr #10
    1944:	14060505 	strne	r0, [r6], #-1285	; 0xfffffafb
    1948:	66060205 	strvs	r0, [r6], -r5, lsl #4
    194c:	1a060405 	bne	182968 <__bss_end__+0x177dd0>
    1950:	78030505 	stmdavc	r3, {r0, r2, r8, sl}
    1954:	0602054a 	streq	r0, [r2], -sl, asr #10
    1958:	0501062f 	streq	r0, [r1, #-1583]	; 0xfffff9d1
    195c:	0516060e 	ldreq	r0, [r6, #-1550]	; 0xfffff9f2
    1960:	05131402 	ldreq	r1, [r3, #-1026]	; 0xfffffbfe
    1964:	05010604 	streq	r0, [r1, #-1540]	; 0xfffff9fc
    1968:	052f0603 	streq	r0, [pc, #-1539]!	; 136d <__code_start__-0x6c93>
    196c:	05010611 	streq	r0, [r1, #-1553]	; 0xfffff9ef
    1970:	02052e09 	andeq	r2, r5, #144	; 0x90
    1974:	05153006 	ldreq	r3, [r5, #-6]
    1978:	0205010b 	andeq	r0, r5, #-1073741822	; 0xc0000002
    197c:	4a4a0106 	bmi	1281d9c <__bss_end__+0x1277204>
    1980:	0603052e 	streq	r0, [r3], -lr, lsr #10
    1984:	060a052f 	streq	r0, [sl], -pc, lsr #10
    1988:	2d020501 	cfstr32cs	mvfx0, [r2, #-4]
    198c:	052f0a05 	streq	r0, [pc, #-2565]!	; f8f <__code_start__-0x7071>
    1990:	052d0617 	streq	r0, [sp, #-1559]!	; 0xfffff9e9
    1994:	0205010b 	andeq	r0, r5, #-1073741822	; 0xc0000002
    1998:	2e4a0106 	dvfcse	f0, f2, f6
    199c:	09051406 	stmdbeq	r5, {r1, r2, sl, ip}
    19a0:	02050106 	andeq	r0, r5, #-2147483647	; 0x80000001
    19a4:	01064c06 	tsteq	r6, r6, lsl #24
    19a8:	03060505 	movweq	r0, #25861	; 0x6505
    19ac:	2a010198 	bcs	42014 <__bss_end__+0x3747c>
    19b0:	01060705 	tsteq	r6, r5, lsl #14
    19b4:	2f060505 	svccs	0x00060505
    19b8:	53031805 	movwpl	r1, #14341	; 0x3805
    19bc:	061b052e 	ldreq	r0, [fp], -lr, lsr #10
    19c0:	821a0501 	andshi	r0, sl, #4194304	; 0x400000
    19c4:	4b060905 	blmi	183de0 <__bss_end__+0x179248>
    19c8:	01060d05 	tsteq	r6, r5, lsl #26
    19cc:	d709052e 	strle	r0, [r9, -lr, lsr #10]
    19d0:	059d0d05 	ldreq	r0, [sp, #3333]	; 0xd05
    19d4:	052f0609 	streq	r0, [pc, #-1545]!	; 13d3 <__code_start__-0x6c2d>
    19d8:	18053015 	stmdane	r5, {r0, r2, r4, ip, sp}
    19dc:	17050106 	strne	r0, [r5, -r6, lsl #2]
    19e0:	2f190566 	svccs	0x00190566
    19e4:	05491705 	strbeq	r1, [r9, #-1797]	; 0xfffff8fb
    19e8:	052f0619 	streq	r0, [pc, #-1561]!	; 13d7 <__code_start__-0x6c29>
    19ec:	6f030615 	svcvs	0x00030615
    19f0:	0619052e 	ldreq	r0, [r9], -lr, lsr #10
    19f4:	054a1303 	strbeq	r1, [sl, #-771]	; 0xfffffcfd
    19f8:	6d030615 	stcvs	6, cr0, [r3, #-84]	; 0xffffffac
    19fc:	02054a2e 	andeq	r4, r5, #188416	; 0x2e000
    1a00:	017fa003 	cmneq	pc, r3
    1a04:	72030666 	andvc	r0, r3, #106954752	; 0x6600000
    1a08:	06050501 	streq	r0, [r5], -r1, lsl #10
    1a0c:	36040501 	strcc	r0, [r4], -r1, lsl #10
    1a10:	78030505 	stmdavc	r3, {r0, r2, r8, sl}
    1a14:	0602052e 	streq	r0, [r2], -lr, lsr #10
    1a18:	0501062f 	streq	r0, [r1, #-1583]	; 0xfffff9d1
    1a1c:	0516060e 	ldreq	r0, [r6, #-1550]	; 0xfffff9f2
    1a20:	05131402 	ldreq	r1, [r3, #-1026]	; 0xfffffbfe
    1a24:	4a010604 	bmi	4323c <__bss_end__+0x386a4>
    1a28:	03060205 	movweq	r0, #25093	; 0x6205
    1a2c:	05050178 	streq	r0, [r5, #-376]	; 0xfffffe88
    1a30:	054a0106 	strbeq	r0, [sl, #-262]	; 0xfffffefa
    1a34:	064b0602 	strbeq	r0, [fp], -r2, lsl #12
    1a38:	060e0501 	streq	r0, [lr], -r1, lsl #10
    1a3c:	14020516 	strne	r0, [r2], #-1302	; 0xfffffaea
    1a40:	05151513 	ldreq	r1, [r5, #-1299]	; 0xfffffaed
    1a44:	2e06010b 	adfcss	f0, f6, #3.0
    1a48:	03061105 	movweq	r1, #24837	; 0x6105
    1a4c:	0501019e 	streq	r0, [r1, #-414]	; 0xfffffe62
    1a50:	05010622 	streq	r0, [r1, #-1570]	; 0xfffff9de
    1a54:	22052f05 	andcs	r2, r5, #5, 30
    1a58:	0605052d 	streq	r0, [r5], -sp, lsr #10
    1a5c:	4b11052f 	blmi	442f20 <__bss_end__+0x438388>
    1a60:	01830505 	orreq	r0, r3, r5, lsl #10
    1a64:	2e5c039e 	mrccs	3, 2, r0, cr12, cr14, {4}
    1a68:	02059e01 	andeq	r9, r5, #1, 28
    1a6c:	7ef30306 	cdpvc	3, 15, cr0, cr3, cr6, {0}
    1a70:	06052e2e 	streq	r2, [r5], -lr, lsr #28
    1a74:	0d054a2c 	vstreq	s8, [r5, #-176]	; 0xffffff50
    1a78:	0100d803 	tsteq	r0, r3, lsl #16
    1a7c:	02000405 	andeq	r0, r0, #83886080	; 0x5000000
    1a80:	03060104 	movweq	r0, #24836	; 0x6104
    1a84:	02004a11 	andeq	r4, r0, #69632	; 0x11000
    1a88:	05010104 	streq	r0, [r1, #-260]	; 0xfffffefc
    1a8c:	06510611 			; <UNDEFINED> instruction: 0x06510611
    1a90:	0315059e 	tsteq	r5, #662700032	; 0x27800000
    1a94:	ba012e17 	blt	4d2f8 <__bss_end__+0x42760>
    1a98:	69031105 	stmdbvs	r3, {r0, r2, r8, ip}
    1a9c:	2802012e 	stmdacs	r2, {r1, r2, r3, r5, r8}
    1aa0:	87010100 	strhi	r0, [r1, -r0, lsl #2]
    1aa4:	03000000 	movweq	r0, #0
    1aa8:	00006400 	andeq	r6, r0, r0, lsl #8
    1aac:	fb010200 	blx	422b6 <__bss_end__+0x3771e>
    1ab0:	01000d0e 	tsteq	r0, lr, lsl #26
    1ab4:	00010101 	andeq	r0, r1, r1, lsl #2
    1ab8:	00010000 	andeq	r0, r1, r0
    1abc:	2f2e0100 	svccs	0x002e0100
    1ac0:	66617473 			; <UNDEFINED> instruction: 0x66617473
    1ac4:	72732d66 	rsbsvc	r2, r3, #6528	; 0x1980
    1ac8:	552f0063 	strpl	r0, [pc, #-99]!	; 1a6d <__code_start__-0x6593>
    1acc:	73726573 	cmnvc	r2, #482344960	; 0x1cc00000
    1ad0:	6c696d2f 	stclvs	13, cr6, [r9], #-188	; 0xffffff44
    1ad4:	532f7365 			; <UNDEFINED> instruction: 0x532f7365
    1ad8:	6372756f 	cmnvs	r2, #465567744	; 0x1bc00000
    1adc:	73632f65 	cmnvc	r3, #404	; 0x194
    1ae0:	6c303432 	cfldrsvs	mvf3, [r0], #-200	; 0xffffff38
    1ae4:	696c2f78 	stmdbvs	ip!, {r3, r4, r5, r6, r8, r9, sl, fp, sp}^
    1ae8:	2f697062 	svccs	0x00697062
    1aec:	6c636e69 	stclvs	14, cr6, [r3], #-420	; 0xfffffe5c
    1af0:	00656475 	rsbeq	r6, r5, r5, ror r4
    1af4:	656c6300 	strbvs	r6, [ip, #-768]!	; 0xfffffd00
    1af8:	722d6e61 	eorvc	r6, sp, #1552	; 0x610
    1afc:	6f6f6265 	svcvs	0x006f6265
    1b00:	00632e74 	rsbeq	r2, r3, r4, ror lr
    1b04:	72000001 	andvc	r0, r0, #1, 0
    1b08:	682e6970 	stmdavs	lr!, {r4, r5, r6, r8, fp, sp, lr}
    1b0c:	00000200 	andeq	r0, r0, r0, lsl #4
    1b10:	00190500 	andseq	r0, r9, r0, lsl #10
    1b14:	9b380205 	blls	e02330 <__bss_end__+0xdf7798>
    1b18:	05150000 	ldreq	r0, [r5, #-0]
    1b1c:	19051305 	stmdbne	r5, {r0, r2, r8, r9, ip}
    1b20:	05052d06 	streq	r2, [r5, #-3334]	; 0xfffff2fa
    1b24:	2f67062f 	svccs	0x0067062f
    1b28:	0006024b 	andeq	r0, r6, fp, asr #4
    1b2c:	01760101 	cmneq	r6, r1, lsl #2
    1b30:	00030000 	andeq	r0, r3, r0
    1b34:	0000005e 	andeq	r0, r0, lr, asr r0
    1b38:	0efb0102 	cdpeq	1, 15, cr0, cr11, cr2, {0}
    1b3c:	0101000d 	tsteq	r1, sp
    1b40:	00000101 	andeq	r0, r0, r1, lsl #2
    1b44:	00000100 	andeq	r0, r0, r0, lsl #2
    1b48:	732f2e01 			; <UNDEFINED> instruction: 0x732f2e01
    1b4c:	66666174 			; <UNDEFINED> instruction: 0x66666174
    1b50:	6372732d 	cmnvs	r2, #-1275068416	; 0xb4000000
    1b54:	73552f00 	cmpvc	r5, #0, 30
    1b58:	2f737265 	svccs	0x00737265
    1b5c:	656c696d 	strbvs	r6, [ip, #-2413]!	; 0xfffff693
    1b60:	6f532f73 	svcvs	0x00532f73
    1b64:	65637275 	strbvs	r7, [r3, #-629]!	; 0xfffffd8b
    1b68:	3273632f 	rsbscc	r6, r3, #-1140850688	; 0xbc000000
    1b6c:	786c3034 	stmdavc	ip!, {r2, r4, r5, ip, sp}^
    1b70:	62696c2f 	rsbvs	r6, r9, #12032	; 0x2f00
    1b74:	692f6970 	stmdbvs	pc!, {r4, r5, r6, r8, fp, sp, lr}	; <UNPREDICTABLE>
    1b78:	756c636e 	strbvc	r6, [ip, #-878]!	; 0xfffffc92
    1b7c:	00006564 	andeq	r6, r0, r4, ror #10
    1b80:	61747363 	cmnvs	r4, r3, ror #6
    1b84:	632e7472 			; <UNDEFINED> instruction: 0x632e7472
    1b88:	00000100 	andeq	r0, r0, r0, lsl #2
    1b8c:	2e697072 	mcrcs	0, 3, r7, cr9, cr2, {3}
    1b90:	00020068 	andeq	r0, r2, r8, rrx
    1b94:	10050000 	andne	r0, r5, r0
    1b98:	64020500 	strvs	r0, [r2], #-1280	; 0xfffffb00
    1b9c:	0300009b 	movweq	r0, #155	; 0x9b
    1ba0:	05050110 	streq	r0, [r5, #-272]	; 0xfffffef0
    1ba4:	13020513 	movwne	r0, #9491	; 0x2513
    1ba8:	05140505 	ldreq	r0, [r4, #-1285]	; 0xfffffafb
    1bac:	050e0610 	streq	r0, [lr, #-1552]	; 0xfffff9f0
    1bb0:	30063205 	andcc	r3, r6, r5, lsl #4
    1bb4:	0a051413 	beq	146c08 <__bss_end__+0x13c070>
    1bb8:	08090501 	stmdaeq	r9, {r0, r8, sl}
    1bbc:	06100591 			; <UNDEFINED> instruction: 0x06100591
    1bc0:	9a0a0501 	bls	282fcc <__bss_end__+0x278434>
    1bc4:	056a1005 	strbeq	r1, [sl, #-5]!
    1bc8:	052d060a 	streq	r0, [sp, #-1546]!	; 0xfffff9f6
    1bcc:	10052f09 	andne	r2, r5, r9, lsl #30
    1bd0:	0a050106 	beq	141ff0 <__bss_end__+0x137458>
    1bd4:	09052d06 	stmdbeq	r5, {r1, r2, r8, sl, fp, sp}
    1bd8:	061005bb 			; <UNDEFINED> instruction: 0x061005bb
    1bdc:	060a0501 	streq	r0, [sl], -r1, lsl #10
    1be0:	4b090565 	blmi	24317c <__bss_end__+0x2385e4>
    1be4:	01060d05 	tsteq	r6, r5, lsl #26
    1be8:	052d0a05 	streq	r0, [sp, #-2565]!	; 0xfffff5fb
    1bec:	0a052f10 	beq	14d834 <__bss_end__+0x142c9c>
    1bf0:	09052d06 	stmdbeq	r5, {r1, r2, r8, sl, fp, sp}
    1bf4:	060d052f 	streq	r0, [sp], -pc, lsr #10
    1bf8:	2d0a0501 	cfstr32cs	mvfx0, [sl, #-4]
    1bfc:	052f1005 	streq	r1, [pc, #-5]!	; 1bff <__code_start__-0x6401>
    1c00:	052d060a 	streq	r0, [sp, #-1546]!	; 0xfffff9f6
    1c04:	0d052f09 	stceq	15, cr2, [r5, #-36]	; 0xffffffdc
    1c08:	0a050106 	beq	142028 <__bss_end__+0x137490>
    1c0c:	2f10052d 	svccs	0x0010052d
    1c10:	2d060a05 	vstrcs	s0, [r6, #-20]	; 0xffffffec
    1c14:	052f0905 	streq	r0, [pc, #-2309]!	; 1317 <__code_start__-0x6ce9>
    1c18:	0501060d 	streq	r0, [r1, #-1549]	; 0xfffff9f3
    1c1c:	10052d0a 	andne	r2, r5, sl, lsl #26
    1c20:	060a052f 	streq	r0, [sl], -pc, lsr #10
    1c24:	1309052d 	movwne	r0, #38189	; 0x952d
    1c28:	01061005 	tsteq	r6, r5
    1c2c:	2d060a05 	vstrcs	s0, [r6, #-20]	; 0xffffffec
    1c30:	32150505 	andscc	r0, r5, #20971520	; 0x1400000
    1c34:	144a0101 	strbne	r0, [sl], #-257	; 0xfffffeff
    1c38:	61031105 	tstvs	r3, r5, lsl #2
    1c3c:	13050501 	movwne	r0, #21761	; 0x5501
    1c40:	14051414 	strne	r1, [r5], #-1044	; 0xfffffbec
    1c44:	062e0101 	strteq	r0, [lr], -r1, lsl #2
    1c48:	06050501 	streq	r0, [r5], -r1, lsl #10
    1c4c:	0a051513 	beq	1470a0 <__bss_end__+0x13c508>
    1c50:	05050106 	streq	r0, [r5, #-262]	; 0xfffffefa
    1c54:	01064b06 	tsteq	r6, r6, lsl #22
    1c58:	01160306 	tsteq	r6, r6, lsl #6
    1c5c:	0311052f 	tsteq	r1, #197132288	; 0xbc00000
    1c60:	0505015f 	streq	r0, [r5, #-351]	; 0xfffffea1
    1c64:	05141413 	ldreq	r1, [r4, #-1043]	; 0xfffffbed
    1c68:	2e010114 	mcrcs	1, 0, r0, cr1, cr4, {0}
    1c6c:	05050106 	streq	r0, [r5, #-262]	; 0xfffffefa
    1c70:	08051306 	stmdaeq	r5, {r1, r2, r8, r9, ip}
    1c74:	05050106 	streq	r0, [r5, #-262]	; 0xfffffefa
    1c78:	052e1c03 	streq	r1, [lr, #-3075]!	; 0xfffff3fd
    1c7c:	2e640307 	cdpcs	3, 6, cr0, cr4, cr7, {0}
    1c80:	2f060905 	svccs	0x00060905
    1c84:	01060e05 	tsteq	r6, r5, lsl #28
    1c88:	30060505 	andcc	r0, r6, r5, lsl #10
    1c8c:	01060a05 	tsteq	r6, r5, lsl #20
    1c90:	2f060505 	svccs	0x00060505
    1c94:	03060106 	movweq	r0, #24838	; 0x6106
    1c98:	02050118 	andeq	r0, r5, #6
    1c9c:	060a0530 			; <UNDEFINED> instruction: 0x060a0530
    1ca0:	022e6f03 	eoreq	r6, lr, #3, 30
    1ca4:	0101000c 	tsteq	r1, ip
    1ca8:	0000007d 	andeq	r0, r0, sp, ror r0
    1cac:	00650003 	rsbeq	r0, r5, r3
    1cb0:	01020000 	mrseq	r0, (UNDEF: 2)
    1cb4:	000d0efb 	strdeq	r0, [sp], -fp
    1cb8:	01010101 	tsteq	r1, r1, lsl #2
    1cbc:	01000000 	mrseq	r0, (UNDEF: 0)
    1cc0:	2e010000 	cdpcs	0, 0, cr0, cr1, cr0, {0}
    1cc4:	6174732f 	cmnvs	r4, pc, lsr #6
    1cc8:	732d6666 			; <UNDEFINED> instruction: 0x732d6666
    1ccc:	2f006372 	svccs	0x00006372
    1cd0:	72657355 	rsbvc	r7, r5, #1409286145	; 0x54000001
    1cd4:	696d2f73 	stmdbvs	sp!, {r0, r1, r4, r5, r6, r8, r9, sl, fp, sp}^
    1cd8:	2f73656c 	svccs	0x0073656c
    1cdc:	72756f53 	rsbsvc	r6, r5, #332	; 0x14c
    1ce0:	632f6563 			; <UNDEFINED> instruction: 0x632f6563
    1ce4:	30343273 	eorscc	r3, r4, r3, ror r2
    1ce8:	6c2f786c 	stcvs	8, cr7, [pc], #-432	; 1b40 <__code_start__-0x64c0>
    1cec:	69706269 	ldmdbvs	r0!, {r0, r3, r5, r6, r9, sp, lr}^
    1cf0:	636e692f 	cmnvs	lr, #770048	; 0xbc000
    1cf4:	6564756c 	strbvs	r7, [r4, #-1388]!	; 0xfffffa94
    1cf8:	75630000 	strbvc	r0, [r3, #-0]!
    1cfc:	6d6f7473 	cfstrdvs	mvd7, [pc, #-460]!	; 1b38 <__code_start__-0x64c8>
    1d00:	616f6c2d 	cmnvs	pc, sp, lsr #24
    1d04:	2e726564 	cdpcs	5, 7, cr6, cr2, cr4, {3}
    1d08:	00010063 	andeq	r0, r1, r3, rrx
    1d0c:	69707200 	ldmdbvs	r0!, {r9, ip, sp, lr}^
    1d10:	0200682e 	andeq	r6, r0, #3014656	; 0x2e0000
    1d14:	05000000 	streq	r0, [r0, #-0]
    1d18:	0205001a 	andeq	r0, r5, #26, 0
    1d1c:	00009c8c 	andeq	r9, r0, ip, lsl #25
    1d20:	14010515 	strne	r0, [r1], #-1301	; 0xfffffaeb
    1d24:	01000202 	tsteq	r0, r2, lsl #4
    1d28:	00011401 	andeq	r1, r1, r1, lsl #8
    1d2c:	5e000300 	cdppl	3, 0, cr0, cr0, cr0, {0}
    1d30:	02000000 	andeq	r0, r0, #0, 0
    1d34:	0d0efb01 	vstreq	d15, [lr, #-4]
    1d38:	01010100 	mrseq	r0, (UNDEF: 17)
    1d3c:	00000001 	andeq	r0, r0, r1
    1d40:	01000001 	tsteq	r0, r1
    1d44:	74732f2e 	ldrbtvc	r2, [r3], #-3886	; 0xfffff0d2
    1d48:	2d666661 	stclcs	6, cr6, [r6, #-388]!	; 0xfffffe7c
    1d4c:	00637273 	rsbeq	r7, r3, r3, ror r2
    1d50:	6573552f 	ldrbvs	r5, [r3, #-1327]!	; 0xfffffad1
    1d54:	6d2f7372 	stcvs	3, cr7, [pc, #-456]!	; 1b94 <__code_start__-0x646c>
    1d58:	73656c69 	cmnvc	r5, #26880	; 0x6900
    1d5c:	756f532f 	strbvc	r5, [pc, #-815]!	; 1a35 <__code_start__-0x65cb>
    1d60:	2f656372 	svccs	0x00656372
    1d64:	34327363 	ldrtcc	r7, [r2], #-867	; 0xfffffc9d
    1d68:	2f786c30 	svccs	0x00786c30
    1d6c:	7062696c 	rsbvc	r6, r2, ip, ror #18
    1d70:	6e692f69 	cdpvs	15, 6, cr2, cr9, cr9, {3}
    1d74:	64756c63 	ldrbtvs	r6, [r5], #-3171	; 0xfffff39d
    1d78:	72000065 	andvc	r0, r0, #101, 0	; 0x65
    1d7c:	6f6f6265 	svcvs	0x006f6265
    1d80:	00632e74 	rsbeq	r2, r3, r4, ror lr
    1d84:	72000001 	andvc	r0, r0, #1, 0
    1d88:	682e6970 	stmdavs	lr!, {r4, r5, r6, r8, fp, sp, lr}
    1d8c:	00000200 	andeq	r0, r0, r0, lsl #4
    1d90:	00190500 	andseq	r0, r9, r0, lsl #10
    1d94:	9ca80205 	sfmls	f0, 4, [r8], #20
    1d98:	0d030000 	stceq	0, cr0, [r3, #-0]
    1d9c:	13050501 	movwne	r0, #21761	; 0x5501
    1da0:	13053113 	movwne	r3, #20755	; 0x5113
    1da4:	01050106 	tsteq	r5, r6, lsl #2
    1da8:	061b052f 	ldreq	r0, [fp], -pc, lsr #10
    1dac:	13050585 	movwne	r0, #21893	; 0x5585
    1db0:	2f090514 	svccs	0x00090514
    1db4:	01061605 	tsteq	r6, r5, lsl #12
    1db8:	2f060505 	svccs	0x00060505
    1dbc:	11060e05 	tstne	r6, r5, lsl #28
    1dc0:	052f0505 	streq	r0, [pc, #-1285]!	; 18c3 <__code_start__-0x673d>
    1dc4:	17052f01 	strne	r2, [r5, -r1, lsl #30]
    1dc8:	05053006 	streq	r3, [r5, #-6]
    1dcc:	016e0313 	cmneq	lr, r3, lsl r3
    1dd0:	17051313 	smladne	r5, r3, r3, r1
    1dd4:	010f0306 	tsteq	pc, r6, lsl #6
    1dd8:	71030505 	tstvc	r3, r5, lsl #10
    1ddc:	0531062e 	ldreq	r0, [r1, #-1582]!	; 0xfffff9d2
    1de0:	05010613 	streq	r0, [r1, #-1555]	; 0xfffff9ed
    1de4:	2e0d0307 	cdpcs	3, 0, cr0, cr13, cr7, {0}
    1de8:	4b060905 	blmi	184204 <__bss_end__+0x17966c>
    1dec:	76030605 	strvc	r0, [r3], -r5, lsl #12
    1df0:	13050501 	movwne	r0, #21761	; 0x5501
    1df4:	2f090514 	svccs	0x00090514
    1df8:	01061605 	tsteq	r6, r5, lsl #12
    1dfc:	2f060505 	svccs	0x00060505
    1e00:	11060e05 	tstne	r6, r5, lsl #28
    1e04:	2e2f0505 	cfsh64cs	mvdx0, mvdx15, #5
    1e08:	010a0306 	tsteq	sl, r6, lsl #6
    1e0c:	134d2f30 	movtne	r2, #57136	; 0xdf30
    1e10:	67151313 			; <UNDEFINED> instruction: 0x67151313
    1e14:	01040200 	mrseq	r0, R12_usr
    1e18:	000d0567 	andeq	r0, sp, r7, ror #10
    1e1c:	01010402 	tsteq	r1, r2, lsl #8
    1e20:	02000a05 	andeq	r0, r0, #20480	; 0x5000
    1e24:	05010104 	streq	r0, [r1, #-260]	; 0xfffffefc
    1e28:	04020005 	streq	r0, [r2], #-5
    1e2c:	0d050101 	stfeqs	f0, [r5, #-4]
    1e30:	01040200 	mrseq	r0, R12_usr
    1e34:	000a0501 	andeq	r0, sl, r1, lsl #10
    1e38:	01010402 	tsteq	r1, r2, lsl #8
    1e3c:	01000a02 	tsteq	r0, r2, lsl #20
    1e40:	0001fa01 	andeq	pc, r1, r1, lsl #20
    1e44:	5d000300 	stcpl	3, cr0, [r0, #-0]
    1e48:	02000000 	andeq	r0, r0, #0, 0
    1e4c:	0d0efb01 	vstreq	d15, [lr, #-4]
    1e50:	01010100 	mrseq	r0, (UNDEF: 17)
    1e54:	00000001 	andeq	r0, r0, r1
    1e58:	01000001 	tsteq	r0, r1
    1e5c:	74732f2e 	ldrbtvc	r2, [r3], #-3886	; 0xfffff0d2
    1e60:	2d666661 	stclcs	6, cr6, [r6, #-388]!	; 0xfffffe7c
    1e64:	00637273 	rsbeq	r7, r3, r3, ror r2
    1e68:	6573552f 	ldrbvs	r5, [r3, #-1327]!	; 0xfffffad1
    1e6c:	6d2f7372 	stcvs	3, cr7, [pc, #-456]!	; 1cac <__code_start__-0x6354>
    1e70:	73656c69 	cmnvc	r5, #26880	; 0x6900
    1e74:	756f532f 	strbvc	r5, [pc, #-815]!	; 1b4d <__code_start__-0x64b3>
    1e78:	2f656372 	svccs	0x00656372
    1e7c:	34327363 	ldrtcc	r7, [r2], #-867	; 0xfffffc9d
    1e80:	2f786c30 	svccs	0x00786c30
    1e84:	7062696c 	rsbvc	r6, r2, ip, ror #18
    1e88:	6e692f69 	cdpvs	15, 6, cr2, cr9, cr9, {3}
    1e8c:	64756c63 	ldrbtvs	r6, [r5], #-3171	; 0xfffff39d
    1e90:	74000065 	strvc	r0, [r0], #-101	; 0xffffff9b
    1e94:	72656d69 	rsbvc	r6, r5, #6720	; 0x1a40
    1e98:	0100632e 	tsteq	r0, lr, lsr #6
    1e9c:	70720000 	rsbsvc	r0, r2, r0
    1ea0:	00682e69 	rsbeq	r2, r8, r9, ror #28
    1ea4:	00000002 	andeq	r0, r0, r2
    1ea8:	05002305 	streq	r2, [r0, #-773]	; 0xfffffcfb
    1eac:	009d3402 	addseq	r3, sp, r2, lsl #8
    1eb0:	05051500 	streq	r1, [r5, #-1280]	; 0xfffffb00
    1eb4:	060c0513 			; <UNDEFINED> instruction: 0x060c0513
    1eb8:	061f0501 	ldreq	r0, [pc], -r1, lsl #10
    1ebc:	1505056a 	strne	r0, [r5, #-1386]	; 0xfffffa96
    1ec0:	0f061f05 	svceq	0x00061f05
    1ec4:	06310505 	ldrteq	r0, [r1], -r5, lsl #10
    1ec8:	030a052f 	movweq	r0, #42287	; 0xa52f
    1ecc:	05050177 	streq	r0, [r5, #-375]	; 0xfffffe89
    1ed0:	060c0513 			; <UNDEFINED> instruction: 0x060c0513
    1ed4:	05056601 	streq	r6, [r5, #-1537]	; 0xfffff9ff
    1ed8:	01090306 	tsteq	r9, r6, lsl #6
    1edc:	0601052f 	streq	r0, [r1], -pc, lsr #10
    1ee0:	061c0513 			; <UNDEFINED> instruction: 0x061c0513
    1ee4:	13050568 	movwne	r0, #21864	; 0x5568
    1ee8:	76030a05 	strvc	r0, [r3], -r5, lsl #20
    1eec:	15050501 	strne	r0, [r5, #-1281]	; 0xfffffaff
    1ef0:	18061c05 	stmdane	r6, {r0, r2, sl, fp, ip}
    1ef4:	0305052e 	movweq	r0, #21806	; 0x552e
    1ef8:	2f062e7a 	svccs	0x00062e7a
    1efc:	77030a05 	strvc	r0, [r3, -r5, lsl #20]
    1f00:	13050501 	movwne	r0, #21761	; 0x5501
    1f04:	01060c05 	tsteq	r6, r5, lsl #24
    1f08:	06050566 	streq	r0, [r5], -r6, ror #10
    1f0c:	2f010903 	svccs	0x00010903
    1f10:	0c050106 	stfeqs	f0, [r5], {6}
    1f14:	05017603 	streq	r7, [r1, #-1539]	; 0xfffff9fd
    1f18:	0f030605 	svceq	0x00030605
    1f1c:	1309052e 	movwne	r0, #38190	; 0x952e
    1f20:	74030a05 	strvc	r0, [r3], #-2565	; 0xfffff5fb
    1f24:	15050501 	strne	r0, [r5, #-1281]	; 0xfffffaff
    1f28:	030a052f 	movweq	r0, #42287	; 0xa52f
    1f2c:	05050177 	streq	r0, [r5, #-375]	; 0xfffffe89
    1f30:	060c0513 			; <UNDEFINED> instruction: 0x060c0513
    1f34:	05056601 	streq	r6, [r5, #-1537]	; 0xfffff9ff
    1f38:	01090306 	tsteq	r9, r6, lsl #6
    1f3c:	1a061105 	bne	186358 <__bss_end__+0x17b7c0>
    1f40:	78030505 	stmdavc	r3, {r0, r2, r8, sl}
    1f44:	052f062e 	streq	r0, [pc, #-1582]!	; 191e <__code_start__-0x66e2>
    1f48:	0c051909 			; <UNDEFINED> instruction: 0x0c051909
    1f4c:	1c050106 	stfnes	f0, [r5], {6}
    1f50:	05058706 	streq	r8, [r5, #-1798]	; 0xfffff8fa
    1f54:	061c0513 			; <UNDEFINED> instruction: 0x061c0513
    1f58:	2f050511 	svccs	0x00050511
    1f5c:	0606054a 	streq	r0, [r6], -sl, asr #10
    1f60:	052e7603 	streq	r7, [lr, #-1539]!	; 0xfffff9fd
    1f64:	0a051305 	beq	146b80 <__bss_end__+0x13bfe8>
    1f68:	05017603 	streq	r7, [r1, #-1539]	; 0xfffff9fd
    1f6c:	052f1505 	streq	r1, [pc, #-1285]!	; 1a6f <__code_start__-0x6591>
    1f70:	0177030a 	cmneq	r7, sl, lsl #6
    1f74:	05130505 	ldreq	r0, [r3, #-1285]	; 0xfffffafb
    1f78:	6601060c 	strvs	r0, [r1], -ip, lsl #12
    1f7c:	03060505 	movweq	r0, #25861	; 0x6505
    1f80:	062f0109 	strteq	r0, [pc], -r9, lsl #2
    1f84:	030c0501 	movweq	r0, #50433	; 0xc501
    1f88:	05050176 	streq	r0, [r5, #-374]	; 0xfffffe8a
    1f8c:	2e0f0306 	cdpcs	3, 0, cr0, cr15, cr6, {0}
    1f90:	05130905 	ldreq	r0, [r3, #-2309]	; 0xfffff6fb
    1f94:	0174030a 	cmneq	r4, sl, lsl #6
    1f98:	2f150505 	svccs	0x00150505
    1f9c:	77030a05 	strvc	r0, [r3, -r5, lsl #20]
    1fa0:	13050501 	movwne	r0, #21761	; 0x5501
    1fa4:	01060c05 	tsteq	r6, r5, lsl #24
    1fa8:	06050566 	streq	r0, [r5], -r6, ror #10
    1fac:	05010903 	streq	r0, [r1, #-2307]	; 0xfffff6fd
    1fb0:	051a0611 	ldreq	r0, [sl, #-1553]	; 0xfffff9ef
    1fb4:	2e780305 	cdpcs	3, 7, cr0, cr8, cr5, {0}
    1fb8:	09052f06 	stmdbeq	r5, {r1, r2, r8, r9, sl, fp, sp}
    1fbc:	060c0519 			; <UNDEFINED> instruction: 0x060c0519
    1fc0:	061e0501 	ldreq	r0, [lr], -r1, lsl #10
    1fc4:	1305058a 	movwne	r0, #21898	; 0x558a
    1fc8:	050e0605 	streq	r0, [lr, #-1541]	; 0xfffff9fb
    1fcc:	1e051305 	cdpne	3, 0, cr1, cr5, cr5, {0}
    1fd0:	05051406 	streq	r1, [r5, #-1030]	; 0xfffffbfa
    1fd4:	0605662c 	streq	r6, [r5], -ip, lsr #12
    1fd8:	2e760306 	cdpcs	3, 7, cr0, cr6, cr6, {0}
    1fdc:	05130505 	ldreq	r0, [r3, #-1285]	; 0xfffffafb
    1fe0:	0176030a 	cmneq	r6, sl, lsl #6
    1fe4:	2f150505 	svccs	0x00150505
    1fe8:	77030a05 	strvc	r0, [r3, -r5, lsl #20]
    1fec:	13050501 	movwne	r0, #21761	; 0x5501
    1ff0:	01060c05 	tsteq	r6, r5, lsl #24
    1ff4:	06050566 	streq	r0, [r5], -r6, ror #10
    1ff8:	2f010903 	svccs	0x00010903
    1ffc:	0c050106 	stfeqs	f0, [r5], {6}
    2000:	05017603 	streq	r7, [r1, #-1539]	; 0xfffff9fd
    2004:	0f030605 	svceq	0x00030605
    2008:	1309052e 	movwne	r0, #38190	; 0x952e
    200c:	74030a05 	strvc	r0, [r3], #-2565	; 0xfffff5fb
    2010:	15050501 	strne	r0, [r5, #-1281]	; 0xfffffaff
    2014:	030a052f 	movweq	r0, #42287	; 0xa52f
    2018:	05050177 	streq	r0, [r5, #-375]	; 0xfffffe89
    201c:	060c0513 			; <UNDEFINED> instruction: 0x060c0513
    2020:	05056601 	streq	r6, [r5, #-1537]	; 0xfffff9ff
    2024:	01090306 	tsteq	r9, r6, lsl #6
    2028:	1a061105 	bne	186444 <__bss_end__+0x17b8ac>
    202c:	78030505 	stmdavc	r3, {r0, r2, r8, sl}
    2030:	052f062e 	streq	r0, [pc, #-1582]!	; 1a0a <__code_start__-0x65f6>
    2034:	0c051909 			; <UNDEFINED> instruction: 0x0c051909
    2038:	08020106 	stmdaeq	r2, {r1, r2, r8}
    203c:	05010100 	streq	r0, [r1, #-256]	; 0xffffff00
    2040:	03000002 	movweq	r0, #2
    2044:	0000c900 	andeq	ip, r0, r0, lsl #18
    2048:	fb010200 	blx	42852 <__bss_end__+0x37cba>
    204c:	01000d0e 	tsteq	r0, lr, lsl #26
    2050:	00010101 	andeq	r0, r1, r1, lsl #2
    2054:	00010000 	andeq	r0, r1, r0
    2058:	682f0100 	stmdavs	pc!, {r8}	; <UNPREDICTABLE>
    205c:	2f656d6f 	svccs	0x00656d6f
    2060:	6c676e65 	stclvs	14, cr6, [r7], #-404	; 0xfffffe6c
    2064:	632f7265 			; <UNDEFINED> instruction: 0x632f7265
    2068:	7373616c 	cmnvc	r3, #27
    206c:	3273632f 	rsbscc	r6, r3, #-1140850688	; 0xbc000000
    2070:	786c3034 	stmdavc	ip!, {r2, r4, r5, ip, sp}^
    2074:	7332322d 	teqvc	r2, #-805306366	; 0xd0000002
    2078:	2f2f7270 	svccs	0x002f7270
    207c:	7062696c 	rsbvc	r6, r2, ip, ror #18
    2080:	6e692f69 	cdpvs	15, 6, cr2, cr9, cr9, {3}
    2084:	64756c63 	ldrbtvs	r6, [r5], #-3171	; 0xfffff39d
    2088:	752f0065 	strvc	r0, [pc, #-101]!	; 202b <__code_start__-0x5fd5>
    208c:	732f7273 			; <UNDEFINED> instruction: 0x732f7273
    2090:	65726168 	ldrbvs	r6, [r2, #-360]!	; 0xfffffe98
    2094:	6363672f 	cmnvs	r3, #12320768	; 0xbc0000
    2098:	6d72612d 	ldfvse	f6, [r2, #-180]!	; 0xffffff4c
    209c:	6e6f6e2d 	cdpvs	14, 6, cr6, cr15, cr13, {1}
    20a0:	61652d65 	cmnvs	r5, r5, ror #26
    20a4:	312d6962 			; <UNDEFINED> instruction: 0x312d6962
    20a8:	2d332e30 	ldccs	14, cr2, [r3, #-192]!	; 0xffffff40
    20ac:	31323032 	teqcc	r2, r2, lsr r0
    20b0:	2f30312e 	svccs	0x0030312e
    20b4:	2f62696c 	svccs	0x0062696c
    20b8:	2f636367 	svccs	0x00636367
    20bc:	2d6d7261 	sfmcs	f7, 2, [sp, #-388]!	; 0xfffffe7c
    20c0:	656e6f6e 	strbvs	r6, [lr, #-3950]!	; 0xfffff092
    20c4:	6261652d 	rsbvs	r6, r1, #188743680	; 0xb400000
    20c8:	30312f69 	eorscc	r2, r1, r9, ror #30
    20cc:	312e332e 			; <UNDEFINED> instruction: 0x312e332e
    20d0:	636e692f 	cmnvs	lr, #770048	; 0xbc000
    20d4:	6564756c 	strbvs	r7, [r4, #-1388]!	; 0xfffffa94
    20d8:	61750000 	cmnvs	r5, r0
    20dc:	632e7472 			; <UNDEFINED> instruction: 0x632e7472
    20e0:	00000000 	andeq	r0, r0, r0
    20e4:	74726175 	ldrbtvc	r6, [r2], #-373	; 0xfffffe8b
    20e8:	0100682e 	tsteq	r0, lr, lsr #16
    20ec:	70720000 	rsbsvc	r0, r2, r0
    20f0:	00682e69 	rsbeq	r2, r8, r9, ror #28
    20f4:	67000001 	strvs	r0, [r0, -r1]
    20f8:	2e6f6970 			; <UNDEFINED> instruction: 0x2e6f6970
    20fc:	00010068 	andeq	r0, r1, r8, rrx
    2100:	64747300 	ldrbtvs	r7, [r4], #-768	; 0xfffffd00
    2104:	2d746e69 	ldclcs	14, cr6, [r4, #-420]!	; 0xfffffe5c
    2108:	2e636367 	cdpcs	3, 6, cr6, cr3, cr7, {3}
    210c:	00020068 	andeq	r0, r2, r8, rrx
    2110:	39050000 	stmdbcc	r5, {}	; <UNPREDICTABLE>
    2114:	50020500 	andpl	r0, r2, r0, lsl #10
    2118:	0300009e 	movweq	r0, #158	; 0x9e
    211c:	01060130 	tsteq	r6, r0, lsr r1
    2120:	67060505 	strvs	r0, [r6, -r5, lsl #10]
    2124:	01061105 	tsteq	r6, r5, lsl #2
    2128:	052e0505 	streq	r0, [lr, #-1285]!	; 0xfffffafb
    212c:	38056701 	stmdacc	r5, {r0, r8, r9, sl, sp, lr}
    2130:	01062906 	tsteq	r6, r6, lsl #18
    2134:	67060505 	strvs	r0, [r6, -r5, lsl #10]
    2138:	01061105 	tsteq	r6, r5, lsl #2
    213c:	052e0505 	streq	r0, [lr, #-1285]!	; 0xfffffafb
    2140:	16056701 	strne	r6, [r5], -r1, lsl #14
    2144:	2e150306 	cdpcs	3, 1, cr0, cr5, cr6, {0}
    2148:	67350505 	ldrvs	r0, [r5, -r5, lsl #10]!
    214c:	03683568 	cmneq	r8, #104, 10	; 0x1a000000
    2150:	6b852e0c 	blvs	fe14d988 <__bss_end__+0xfe142df0>
    2154:	0c036969 			; <UNDEFINED> instruction: 0x0c036969
    2158:	676b1366 	strbvs	r1, [fp, -r6, ror #6]!
    215c:	2f060105 	svccs	0x00060105
    2160:	08061905 	stmdaeq	r6, {r0, r2, r8, fp, ip}
    2164:	34050525 	strcc	r0, [r5], #-1317	; 0xfffffadb
    2168:	01060d05 	tsteq	r6, r5, lsl #26
    216c:	054c0105 	strbeq	r0, [ip, #-261]	; 0xfffffefb
    2170:	05670619 	strbeq	r0, [r7, #-1561]!	; 0xfffff9e7
    2174:	0d053605 	stceq	6, cr3, [r5, #-20]	; 0xffffffec
    2178:	28050106 	stmdacs	r5, {r1, r2, r8}
    217c:	3001054a 	andcc	r0, r1, sl, asr #10
    2180:	87061505 	strhi	r1, [r6, -r5, lsl #10]
    2184:	2f2f0505 	svccs	0x002f0505
    2188:	02000905 	andeq	r0, r0, #81920	; 0x14000
    218c:	05130104 	ldreq	r0, [r3, #-260]	; 0xfffffefc
    2190:	0402000a 	streq	r0, [r2], #-10
    2194:	0c051101 	stfeqs	f1, [r5], {1}
    2198:	01040200 	mrseq	r0, R12_usr
    219c:	0a050106 	beq	1425bc <__bss_end__+0x137a24>
    21a0:	01040200 	mrseq	r0, R12_usr
    21a4:	0605052e 	streq	r0, [r5], -lr, lsr #10
    21a8:	060e054c 	streq	r0, [lr], -ip, asr #10
    21ac:	4a090501 	bmi	2435b8 <__bss_end__+0x238a20>
    21b0:	2f060505 	svccs	0x00060505
    21b4:	0601052f 	streq	r0, [r1], -pc, lsr #10
    21b8:	061c0513 			; <UNDEFINED> instruction: 0x061c0513
    21bc:	05010667 	streq	r0, [r1, #-1639]	; 0xfffff999
    21c0:	2f4b0605 	svccs	0x004b0605
    21c4:	02000905 	andeq	r0, r0, #81920	; 0x14000
    21c8:	05130104 	ldreq	r0, [r3, #-260]	; 0xfffffefc
    21cc:	0402000a 	streq	r0, [r2], #-10
    21d0:	0c051101 	stfeqs	f1, [r5], {1}
    21d4:	01040200 	mrseq	r0, R12_usr
    21d8:	0a050106 	beq	1425f8 <__bss_end__+0x137a60>
    21dc:	01040200 	mrseq	r0, R12_usr
    21e0:	0605052e 	streq	r0, [r5], -lr, lsr #10
    21e4:	0105674c 	tsteq	r5, ip, asr #14
    21e8:	19052f06 	stmdbne	r5, {r1, r2, r8, r9, sl, fp, sp}
    21ec:	1b054c06 	blne	15520c <__bss_end__+0x14a674>
    21f0:	2e2a052e 	cfsh64cs	mvdx0, mvdx10, #30
    21f4:	01063105 	tsteq	r6, r5, lsl #2
    21f8:	052e4205 	streq	r4, [lr, #-517]!	; 0xfffffdfb
    21fc:	0531061c 	ldreq	r0, [r1, #-1564]!	; 0xfffff9e4
    2200:	09032f05 	stmdbeq	r3, {r0, r2, r8, r9, sl, fp, sp}
    2204:	060e052e 	streq	r0, [lr], -lr, lsr #10
    2208:	4a210501 	bmi	843614 <__bss_end__+0x838a7c>
    220c:	0a030105 	beq	c2628 <__bss_end__+0xb7a90>
    2210:	061a052e 	ldreq	r0, [sl], -lr, lsr #10
    2214:	00090568 	andeq	r0, r9, r8, ror #10
    2218:	30010402 	andcc	r0, r1, r2, lsl #8
    221c:	02000a05 	andeq	r0, r0, #20480	; 0x5000
    2220:	05110104 	ldreq	r0, [r1, #-260]	; 0xfffffefc
    2224:	0402000c 	streq	r0, [r2], #-12
    2228:	05010601 	streq	r0, [r1, #-1537]	; 0xfffff9ff
    222c:	0402000a 	streq	r0, [r2], #-10
    2230:	19052e01 	stmdbne	r5, {r0, r9, sl, fp, sp}
    2234:	7ee80306 	cdpvc	3, 14, cr0, cr8, cr6, {0}
    2238:	2f050566 	svccs	0x00050566
    223c:	05672f2f 	strbeq	r2, [r7, #-3887]!	; 0xfffff0d1
    2240:	022f0601 	eoreq	r0, pc, #1048576	; 0x100000
    2244:	01010004 	tsteq	r1, r4
    2248:	0000009e 	muleq	r0, lr, r0
    224c:	005a0003 	subseq	r0, sl, r3
    2250:	01020000 	mrseq	r0, (UNDEF: 2)
    2254:	000d0efb 	strdeq	r0, [sp], -fp
    2258:	01010101 	tsteq	r1, r1, lsl #2
    225c:	01000000 	mrseq	r0, (UNDEF: 0)
    2260:	2e010000 	cdpcs	0, 0, cr0, cr1, cr0, {0}
    2264:	62696c2f 	rsbvs	r6, r9, #12032	; 0x2f00
    2268:	552f0063 	strpl	r0, [pc, #-99]!	; 220d <__code_start__-0x5df3>
    226c:	73726573 	cmnvc	r2, #482344960	; 0x1cc00000
    2270:	6c696d2f 	stclvs	13, cr6, [r9], #-188	; 0xffffff44
    2274:	532f7365 			; <UNDEFINED> instruction: 0x532f7365
    2278:	6372756f 	cmnvs	r2, #465567744	; 0x1bc00000
    227c:	73632f65 	cmnvc	r3, #404	; 0x194
    2280:	6c303432 	cfldrsvs	mvf3, [r0], #-200	; 0xffffff38
    2284:	696c2f78 	stmdbvs	ip!, {r3, r4, r5, r6, r8, r9, sl, fp, sp}^
    2288:	2f697062 	svccs	0x00697062
    228c:	6c636e69 	stclvs	14, cr6, [r3], #-420	; 0xfffffe5c
    2290:	00656475 	rsbeq	r6, r5, r5, ror r4
    2294:	74757000 	ldrbtvc	r7, [r5], #-0
    2298:	72616863 	rsbvc	r6, r1, #6488064	; 0x630000
    229c:	0100632e 	tsteq	r0, lr, lsr #6
    22a0:	70720000 	rsbsvc	r0, r2, r0
    22a4:	00682e69 	rsbeq	r2, r8, r9, ror #28
    22a8:	00000002 	andeq	r0, r0, r2
    22ac:	05002405 	streq	r2, [r0, #-1029]	; 0xfffffbfb
    22b0:	00a04002 	adceq	r4, r0, r2
    22b4:	26051400 	strcs	r1, [r5], -r0, lsl #8
    22b8:	06240501 	strteq	r0, [r4], -r1, lsl #10
    22bc:	26052e01 	strcs	r2, [r5], -r1, lsl #28
    22c0:	0634052e 	ldrteq	r0, [r4], -lr, lsr #10
    22c4:	0601052e 	streq	r0, [r1], -lr, lsr #10
    22c8:	061b0501 	ldreq	r0, [fp], -r1, lsl #10
    22cc:	1305054f 	movwne	r0, #21839	; 0x554f
    22d0:	01061105 	tsteq	r6, r5, lsl #2
    22d4:	05670105 	strbeq	r0, [r7, #-261]!	; 0xfffffefb
    22d8:	05670623 	strbeq	r0, [r7, #-1571]!	; 0xfffff9dd
    22dc:	11051305 	tstne	r5, r5, lsl #6
    22e0:	01050106 	tsteq	r5, r6, lsl #2
    22e4:	0004024b 	andeq	r0, r4, fp, asr #4
    22e8:	00e20101 	rsceq	r0, r2, r1, lsl #2
    22ec:	00030000 	andeq	r0, r3, r0
    22f0:	00000059 	andeq	r0, r0, r9, asr r0
    22f4:	0efb0102 	cdpeq	1, 15, cr0, cr11, cr2, {0}
    22f8:	0101000d 	tsteq	r1, sp
    22fc:	00000101 	andeq	r0, r0, r1, lsl #2
    2300:	00000100 	andeq	r0, r0, r0, lsl #2
    2304:	6c2f2e01 	stcvs	14, cr2, [pc], #-4	; 2308 <__code_start__-0x5cf8>
    2308:	00636269 	rsbeq	r6, r3, r9, ror #4
    230c:	6573552f 	ldrbvs	r5, [r3, #-1327]!	; 0xfffffad1
    2310:	6d2f7372 	stcvs	3, cr7, [pc, #-456]!	; 2150 <__code_start__-0x5eb0>
    2314:	73656c69 	cmnvc	r5, #26880	; 0x6900
    2318:	756f532f 	strbvc	r5, [pc, #-815]!	; 1ff1 <__code_start__-0x600f>
    231c:	2f656372 	svccs	0x00656372
    2320:	34327363 	ldrtcc	r7, [r2], #-867	; 0xfffffc9d
    2324:	2f786c30 	svccs	0x00786c30
    2328:	7062696c 	rsbvc	r6, r2, ip, ror #18
    232c:	6e692f69 	cdpvs	15, 6, cr2, cr9, cr9, {3}
    2330:	64756c63 	ldrbtvs	r6, [r5], #-3171	; 0xfffff39d
    2334:	73000065 	movwvc	r0, #101	; 0x65
    2338:	61637274 	smcvs	14116	; 0x3724
    233c:	00632e74 	rsbeq	r2, r3, r4, ror lr
    2340:	72000001 	andvc	r0, r0, #1, 0
    2344:	682e6970 	stmdavs	lr!, {r4, r5, r6, r8, fp, sp, lr}
    2348:	00000200 	andeq	r0, r0, r0, lsl #4
    234c:	002c0500 	eoreq	r0, ip, r0, lsl #10
    2350:	a07c0205 	rsbsge	r0, ip, r5, lsl #4
    2354:	05150000 	ldreq	r0, [r5, #-0]
    2358:	05131305 	ldreq	r1, [r3, #-773]	; 0xfffffcfb
    235c:	0511060b 	ldreq	r0, [r1, #-1547]	; 0xfffff9f5
    2360:	04020005 	streq	r0, [r2], #-5
    2364:	00300601 	eorseq	r0, r0, r1, lsl #12
    2368:	15010402 	strne	r0, [r1, #-1026]	; 0xfffffbfe
    236c:	02000905 	andeq	r0, r0, #81920	; 0x14000
    2370:	05130104 	ldreq	r0, [r3, #-260]	; 0xfffffefc
    2374:	0402000b 	streq	r0, [r2], #-11
    2378:	05052f01 	streq	r2, [r5, #-3841]	; 0xfffff0ff
    237c:	01040200 	mrseq	r0, R12_usr
    2380:	02000106 	andeq	r0, r0, #-2147483647	; 0x80000001
    2384:	062e0104 	strteq	r0, [lr], -r4, lsl #2
    2388:	0608054e 	streq	r0, [r8], -lr, asr #10
    238c:	00050501 	andeq	r0, r5, r1, lsl #10
    2390:	06010402 	streq	r0, [r1], -r2, lsl #8
    2394:	0009052f 	andeq	r0, r9, pc, lsr #10
    2398:	13010402 	movwne	r0, #5122	; 0x1402
    239c:	02000b05 	andeq	r0, r0, #5120	; 0x1400
    23a0:	01060104 	tsteq	r6, r4, lsl #2
    23a4:	02000905 	andeq	r0, r0, #81920	; 0x14000
    23a8:	2f060104 	svccs	0x00060104
    23ac:	02000505 	andeq	r0, r0, #20971520	; 0x1400000
    23b0:	13060104 	movwne	r0, #24836	; 0x6104
    23b4:	02000f05 	andeq	r0, r0, #5, 30
    23b8:	052d0104 	streq	r0, [sp, #-260]!	; 0xfffffefc
    23bc:	0402000d 	streq	r0, [r2], #-13
    23c0:	052f0601 	streq	r0, [pc, #-1537]!	; 1dc7 <__code_start__-0x6239>
    23c4:	04020005 	streq	r0, [r2], #-5
    23c8:	02010601 	andeq	r0, r1, #1048576	; 0x100000
    23cc:	01010004 	tsteq	r1, r4
    23d0:	000000b2 	strheq	r0, [r0], -r2
    23d4:	00590003 	subseq	r0, r9, r3
    23d8:	01020000 	mrseq	r0, (UNDEF: 2)
    23dc:	000d0efb 	strdeq	r0, [sp], -fp
    23e0:	01010101 	tsteq	r1, r1, lsl #2
    23e4:	01000000 	mrseq	r0, (UNDEF: 0)
    23e8:	2e010000 	cdpcs	0, 0, cr0, cr1, cr0, {0}
    23ec:	62696c2f 	rsbvs	r6, r9, #12032	; 0x2f00
    23f0:	552f0063 	strpl	r0, [pc, #-99]!	; 2395 <__code_start__-0x5c6b>
    23f4:	73726573 	cmnvc	r2, #482344960	; 0x1cc00000
    23f8:	6c696d2f 	stclvs	13, cr6, [r9], #-188	; 0xffffff44
    23fc:	532f7365 			; <UNDEFINED> instruction: 0x532f7365
    2400:	6372756f 	cmnvs	r2, #465567744	; 0x1bc00000
    2404:	73632f65 	cmnvc	r3, #404	; 0x194
    2408:	6c303432 	cfldrsvs	mvf3, [r0], #-200	; 0xffffff38
    240c:	696c2f78 	stmdbvs	ip!, {r3, r4, r5, r6, r8, r9, sl, fp, sp}^
    2410:	2f697062 	svccs	0x00697062
    2414:	6c636e69 	stclvs	14, cr6, [r3], #-420	; 0xfffffe5c
    2418:	00656475 	rsbeq	r6, r5, r5, ror r4
    241c:	72747300 	rsbsvc	r7, r4, #0, 6
    2420:	2e706d63 	cdpcs	13, 7, cr6, cr0, cr3, {3}
    2424:	00010063 	andeq	r0, r1, r3, rrx
    2428:	69707200 	ldmdbvs	r0!, {r9, ip, sp, lr}^
    242c:	0200682e 	andeq	r6, r0, #3014656	; 0x2e0000
    2430:	05000000 	streq	r0, [r0, #-0]
    2434:	0205002a 	andeq	r0, r5, #42, 0	; 0x2a
    2438:	0000a0a8 	andeq	sl, r0, r8, lsr #1
    243c:	13090514 	movwne	r0, #38164	; 0x9514
    2440:	01061005 	tsteq	r6, r5
    2444:	2e060f05 	cdpcs	15, 0, cr0, cr6, cr5, {0}
    2448:	82061005 	andhi	r1, r6, #5, 0
    244c:	052e0f05 	streq	r0, [lr, #-3845]!	; 0xfffff0fb
    2450:	04020011 	streq	r0, [r2], #-17	; 0xffffffef
    2454:	054b0601 	strbeq	r0, [fp, #-1537]	; 0xfffff9ff
    2458:	0402001c 	streq	r0, [r2], #-28	; 0xffffffe4
    245c:	052d0601 	streq	r0, [sp, #-1537]!	; 0xfffff9ff
    2460:	0402000f 	streq	r0, [r2], #-15
    2464:	052e0601 	streq	r0, [lr, #-1537]!	; 0xfffff9ff
    2468:	04020013 	streq	r0, [r2], #-19	; 0xffffffed
    246c:	05010601 	streq	r0, [r1, #-1537]	; 0xfffff9ff
    2470:	054c0609 	strbeq	r0, [ip, #-1545]	; 0xfffff9f7
    2474:	4a130601 	bmi	4c3c80 <__bss_end__+0x4b90e8>
    2478:	2d060905 	vstrcs.16	s0, [r6, #-10]	; <UNPREDICTABLE>
    247c:	13060105 	movwne	r0, #24837	; 0x6105
    2480:	0002022e 	andeq	r0, r2, lr, lsr #4
    2484:	009d0101 	addseq	r0, sp, r1, lsl #2
    2488:	00030000 	andeq	r0, r3, r0
    248c:	00000059 	andeq	r0, r0, r9, asr r0
    2490:	0efb0102 	cdpeq	1, 15, cr0, cr11, cr2, {0}
    2494:	0101000d 	tsteq	r1, sp
    2498:	00000101 	andeq	r0, r0, r1, lsl #2
    249c:	00000100 	andeq	r0, r0, r0, lsl #2
    24a0:	6c2f2e01 	stcvs	14, cr2, [pc], #-4	; 24a4 <__code_start__-0x5b5c>
    24a4:	00636269 	rsbeq	r6, r3, r9, ror #4
    24a8:	6573552f 	ldrbvs	r5, [r3, #-1327]!	; 0xfffffad1
    24ac:	6d2f7372 	stcvs	3, cr7, [pc, #-456]!	; 22ec <__code_start__-0x5d14>
    24b0:	73656c69 	cmnvc	r5, #26880	; 0x6900
    24b4:	756f532f 	strbvc	r5, [pc, #-815]!	; 218d <__code_start__-0x5e73>
    24b8:	2f656372 	svccs	0x00656372
    24bc:	34327363 	ldrtcc	r7, [r2], #-867	; 0xfffffc9d
    24c0:	2f786c30 	svccs	0x00786c30
    24c4:	7062696c 	rsbvc	r6, r2, ip, ror #18
    24c8:	6e692f69 	cdpvs	15, 6, cr2, cr9, cr9, {3}
    24cc:	64756c63 	ldrbtvs	r6, [r5], #-3171	; 0xfffff39d
    24d0:	73000065 	movwvc	r0, #101	; 0x65
    24d4:	70637274 	rsbvc	r7, r3, r4, ror r2
    24d8:	00632e79 	rsbeq	r2, r3, r9, ror lr
    24dc:	72000001 	andvc	r0, r0, #1, 0
    24e0:	682e6970 	stmdavs	lr!, {r4, r5, r6, r8, fp, sp, lr}
    24e4:	00000200 	andeq	r0, r0, r0, lsl #4
    24e8:	002a0500 	eoreq	r0, sl, r0, lsl #10
    24ec:	a0ec0205 	rscge	r0, ip, r5, lsl #4
    24f0:	05140000 	ldreq	r0, [r4, #-0]
    24f4:	05131305 	ldreq	r1, [r3, #-773]	; 0xfffffcfb
    24f8:	04020022 	streq	r0, [r2], #-34	; 0xffffffde
    24fc:	0b052e01 	bleq	14dd08 <__bss_end__+0x143170>
    2500:	01040200 	mrseq	r0, R12_usr
    2504:	00150501 	andseq	r0, r5, r1, lsl #10
    2508:	06010402 	streq	r0, [r1], -r2, lsl #8
    250c:	000b0501 	andeq	r0, fp, r1, lsl #10
    2510:	2e010402 	cdpcs	4, 0, cr0, cr1, cr2, {0}
    2514:	02001305 	andeq	r1, r0, #335544320	; 0x14000000
    2518:	052e0104 	streq	r0, [lr, #-260]!	; 0xfffffefc
    251c:	0402000b 	streq	r0, [r2], #-11
    2520:	04022e01 	streq	r2, [r2], #-3585	; 0xfffff1ff
    2524:	fd010100 	stc2	1, cr0, [r1, #-0]
    2528:	03000000 	movweq	r0, #0
    252c:	0000bf00 	andeq	fp, r0, r0, lsl #30
    2530:	fb010200 	blx	42d3a <__bss_end__+0x381a2>
    2534:	01000d0e 	tsteq	r0, lr, lsl #26
    2538:	00010101 	andeq	r0, r1, r1, lsl #2
    253c:	00010000 	andeq	r0, r1, r0
    2540:	2f2e0100 	svccs	0x002e0100
    2544:	6362696c 	cmnvs	r2, #108, 18	; 0x1b0000
    2548:	73552f00 	cmpvc	r5, #0, 30
    254c:	2f737265 	svccs	0x00737265
    2550:	656c696d 	strbvs	r6, [ip, #-2413]!	; 0xfffff693
    2554:	6f532f73 	svcvs	0x00532f73
    2558:	65637275 	strbvs	r7, [r3, #-629]!	; 0xfffffd8b
    255c:	3273632f 	rsbscc	r6, r3, #-1140850688	; 0xbc000000
    2560:	786c3034 	stmdavc	ip!, {r2, r4, r5, ip, sp}^
    2564:	62696c2f 	rsbvs	r6, r9, #12032	; 0x2f00
    2568:	692f6970 	stmdbvs	pc!, {r4, r5, r6, r8, fp, sp, lr}	; <UNPREDICTABLE>
    256c:	756c636e 	strbvc	r6, [ip, #-878]!	; 0xfffffc92
    2570:	2f006564 	svccs	0x00006564
    2574:	2f74706f 	svccs	0x0074706f
    2578:	656d6f68 	strbvs	r6, [sp, #-3944]!	; 0xfffff098
    257c:	77657262 	strbvc	r7, [r5, -r2, ror #4]!
    2580:	6c65432f 	stclvs	3, cr4, [r5], #-188	; 0xffffff44
    2584:	2f72616c 	svccs	0x0072616c
    2588:	2d6d7261 	sfmcs	f7, 2, [sp, #-388]!	; 0xfffffe7c
    258c:	656e6f6e 	strbvs	r6, [lr, #-3950]!	; 0xfffff092
    2590:	6261652d 	rsbvs	r6, r1, #188743680	; 0xb400000
    2594:	2f392d69 	svccs	0x00392d69
    2598:	30322d39 	eorscc	r2, r2, r9, lsr sp
    259c:	34713931 	ldrbtcc	r3, [r1], #-2353	; 0xfffff6cf
    25a0:	3173632d 	cmncc	r3, sp, lsr #6
    25a4:	2f653730 	svccs	0x00653730
    25a8:	2f62696c 	svccs	0x0062696c
    25ac:	2f636367 	svccs	0x00636367
    25b0:	2d6d7261 	sfmcs	f7, 2, [sp, #-388]!	; 0xfffffe7c
    25b4:	656e6f6e 	strbvs	r6, [lr, #-3950]!	; 0xfffff092
    25b8:	6261652d 	rsbvs	r6, r1, #188743680	; 0xb400000
    25bc:	2e392f69 	cdpcs	15, 3, cr2, cr9, cr9, {3}
    25c0:	2f312e32 	svccs	0x00312e32
    25c4:	6c636e69 	stclvs	14, cr6, [r3], #-420	; 0xfffffe5c
    25c8:	00656475 	rsbeq	r6, r5, r5, ror r4
    25cc:	72747300 	rsbsvc	r7, r4, #0, 6
    25d0:	706d636e 	rsbvc	r6, sp, lr, ror #6
    25d4:	0100632e 	tsteq	r0, lr, lsr #6
    25d8:	70720000 	rsbsvc	r0, r2, r0
    25dc:	00682e69 	rsbeq	r2, r8, r9, ror #28
    25e0:	73000002 	movwvc	r0, #2
    25e4:	65646474 	strbvs	r6, [r4, #-1140]!	; 0xfffffb8c
    25e8:	00682e66 	rsbeq	r2, r8, r6, ror #28
    25ec:	00000003 	andeq	r0, r0, r3
    25f0:	05003905 	streq	r3, [r0, #-2309]	; 0xfffff6fb
    25f4:	00a10402 	adceq	r0, r1, r2, lsl #8
    25f8:	05051500 	streq	r1, [r5, #-1280]	; 0xfffffb00
    25fc:	0a051313 	beq	147250 <__bss_end__+0x13c6b8>
    2600:	0c052e06 	stceq	14, cr2, [r5], {6}
    2604:	2e13052f 	cfmul64cs	mvdx0, mvdx3, mvdx15
    2608:	052e0b05 	streq	r0, [lr, #-2821]!	; 0xfffff4fb
    260c:	054a0609 	strbeq	r0, [sl, #-1545]	; 0xfffff9f7
    2610:	0106110a 	tsteq	r6, sl, lsl #2
    2614:	054e0c05 	strbeq	r0, [lr, #-3077]	; 0xfffff3fb
    2618:	0d052f01 	stceq	15, cr2, [r5, #-4]
    261c:	1b052b06 	blne	14d23c <__bss_end__+0x1426a4>
    2620:	022e0106 	eoreq	r0, lr, #-2147483647	; 0x80000001
    2624:	01010002 	tsteq	r1, r2
    2628:	0000008a 	andeq	r0, r0, sl, lsl #1
    262c:	006e0003 	rsbeq	r0, lr, r3
    2630:	01020000 	mrseq	r0, (UNDEF: 2)
    2634:	000d0efb 	strdeq	r0, [sp], -fp
    2638:	01010101 	tsteq	r1, r1, lsl #2
    263c:	01000000 	mrseq	r0, (UNDEF: 0)
    2640:	2e010000 	cdpcs	0, 0, cr0, cr1, cr0, {0}
    2644:	6174732f 	cmnvs	r4, pc, lsr #6
    2648:	732d6666 			; <UNDEFINED> instruction: 0x732d6666
    264c:	2f006372 	svccs	0x00006372
    2650:	72657355 	rsbvc	r7, r5, #1409286145	; 0x54000001
    2654:	696d2f73 	stmdbvs	sp!, {r0, r1, r4, r5, r6, r8, r9, sl, fp, sp}^
    2658:	2f73656c 	svccs	0x0073656c
    265c:	72756f53 	rsbsvc	r6, r5, #332	; 0x14c
    2660:	632f6563 			; <UNDEFINED> instruction: 0x632f6563
    2664:	30343273 	eorscc	r3, r4, r3, ror r2
    2668:	6c2f786c 	stcvs	8, cr7, [pc], #-432	; 24c0 <__code_start__-0x5b40>
    266c:	69706269 	ldmdbvs	r0!, {r0, r3, r5, r6, r9, sp, lr}^
    2670:	636e692f 	cmnvs	lr, #770048	; 0xbc000
    2674:	6564756c 	strbvs	r7, [r4, #-1388]!	; 0xfffffa94
    2678:	65640000 	strbvs	r0, [r4, #-0]!
    267c:	6c756166 	ldfvse	f6, [r5], #-408	; 0xfffffe68
    2680:	65722d74 	ldrbvs	r2, [r2, #-3444]!	; 0xfffff28c
    2684:	746f6f62 	strbtvc	r6, [pc], #-3938	; 268c <__code_start__-0x5974>
    2688:	6c61632d 	stclvs	3, cr6, [r1], #-180	; 0xffffff4c
    268c:	74756f6c 	ldrbtvc	r6, [r5], #-3948	; 0xfffff094
    2690:	0100632e 	tsteq	r0, lr, lsr #6
    2694:	70720000 	rsbsvc	r0, r2, r0
    2698:	00682e69 	rsbeq	r2, r8, r9, ror #28
    269c:	00000002 	andeq	r0, r0, r2
    26a0:	05001b05 	streq	r1, [r0, #-2821]	; 0xfffff4fb
    26a4:	00a13402 	adceq	r3, r1, r2, lsl #8
    26a8:	1c051400 	cfstrsne	mvf1, [r5], {-0}
    26ac:	06010501 	streq	r0, [r1], -r1, lsl #10
    26b0:	00020201 	andeq	r0, r2, r1, lsl #4
    26b4:	Address 0x00000000000026b4 is out of bounds.


Disassembly of section .debug_str:

00000000 <.debug_str>:
   0:	5f633269 	svcpl	0x00633269
   4:	74696e69 	strbtvc	r6, [r9], #-3689	; 0xfffff197
   8:	6c656400 	cfstrdvs	mvd6, [r5], #-0
   c:	6d5f7961 	vldrvs.16	s15, [pc, #-194]	; ffffff52 <__bss_end__+0xffff53ba>	; <UNPREDICTABLE>
  10:	646d0073 	strbtvs	r0, [sp], #-115	; 0xffffff8d
  14:	735f7370 	cmpvc	pc, #112, 6	; 0xc0000001
  18:	656c6163 	strbvs	r6, [ip, #-355]!	; 0xfffffe9d
  1c:	6765645f 			; <UNDEFINED> instruction: 0x6765645f
  20:	79670032 	stmdbvc	r7!, {r1, r4, r5}^
  24:	325f6f72 	subscc	r6, pc, #456	; 0x1c8
  28:	70643035 	rsbvc	r3, r4, r5, lsr r0
  2c:	68730073 	ldmdavs	r3!, {r0, r1, r4, r5, r6}^
  30:	2074726f 	rsbscs	r7, r4, pc, ror #4
  34:	00746e69 	rsbseq	r6, r4, r9, ror #28
  38:	4f525947 	svcmi	0x00525947
  3c:	554f595f 	strbpl	r5, [pc, #-2399]	; fffff6e5 <__bss_end__+0xffff4b4d>
  40:	00485f54 	subeq	r5, r8, r4, asr pc
  44:	5f633269 	svcpl	0x00633269
  48:	74697277 	strbtvc	r7, [r9], #-631	; 0xfffffd89
  4c:	59470065 	stmdbpl	r7, {r0, r2, r5, r6}^
  50:	595f4f52 	ldmdbpl	pc, {r1, r4, r6, r8, r9, sl, fp, lr}^	; <UNPREDICTABLE>
  54:	5f54554f 	svcpl	0x0054554f
  58:	7072004c 	rsbsvc	r0, r2, ip, asr #32
  5c:	75705f69 	ldrbvc	r5, [r0, #-3945]!	; 0xfffff097
  60:	61686374 	smcvs	34356	; 0x8634
  64:	646d0072 	strbtvs	r0, [sp], #-114	; 0xffffff8e
  68:	735f7370 	cmpvc	pc, #112, 6	; 0xc0000001
  6c:	656c6163 	strbvs	r6, [ip, #-355]!	; 0xfffffe9d
  70:	6765645f 			; <UNDEFINED> instruction: 0x6765645f
  74:	756d6900 	strbvc	r6, [sp, #-2304]!	; 0xfffff700
  78:	5f64725f 	svcpl	0x0064725f
  7c:	6162006e 	cmnvs	r2, lr, rrx
  80:	725f6573 	subsvc	r6, pc, #482344960	; 0x1cc00000
  84:	47006765 	strmi	r6, [r0, -r5, ror #14]
  88:	5f4f5259 	svcpl	0x004f5259
  8c:	54554f58 	ldrbpl	r4, [r5], #-3928	; 0xfffff0a8
  90:	7500485f 	strvc	r4, [r0, #-2143]	; 0xfffff7a1
  94:	38746e69 	ldmdacc	r4!, {r0, r3, r5, r6, r9, sl, fp, sp, lr}^
  98:	4700745f 	smlsdmi	r0, pc, r4, r7	; <UNPREDICTABLE>
  9c:	5f4f5259 	svcpl	0x004f5259
  a0:	54554f58 	ldrbpl	r4, [r5], #-3928	; 0xfffff0a8
  a4:	57004c5f 	smlsdpl	r0, pc, ip, r4	; <UNPREDICTABLE>
  a8:	415f4f48 	cmpmi	pc, r8, asr #30
  ac:	5f495f4d 	svcpl	0x00495f4d
  b0:	314c4156 	cmpcc	ip, r6, asr r1
  b4:	4f485700 	svcmi	0x00485700
  b8:	5f4d415f 	svcpl	0x004d415f
  bc:	41565f49 	cmpmi	r6, r9, asr #30
  c0:	5700324c 	strpl	r3, [r0, -ip, asr #4]
  c4:	415f4f48 	cmpmi	pc, r8, asr #30
  c8:	5f495f4d 	svcpl	0x00495f4d
  cc:	334c4156 	movtcc	r4, #49494	; 0xc156
  d0:	72796700 	rsbsvc	r6, r9, #0, 14
  d4:	30355f6f 	eorscc	r5, r5, pc, ror #30
  d8:	73706430 	cmnvc	r0, #48, 8	; 0x30000000
  dc:	756d6900 	strbvc	r6, [sp, #-2304]!	; 0xfffff700
  e0:	0064725f 	rsbeq	r7, r4, pc, asr r2
  e4:	65766168 	ldrbvs	r6, [r6, #-360]!	; 0xfffffe98
  e8:	74697700 	strbtvc	r7, [r9], #-1792	; 0xfffff900
  ec:	006e6968 	rsbeq	r6, lr, r8, ror #18
  f0:	5f756d69 	svcpl	0x00756d69
  f4:	5f7a7978 	svcpl	0x007a7978
  f8:	6f6c0074 	svcvs	0x006c0074
  fc:	6c20676e 	stcvs	7, cr6, [r0], #-440	; 0xfffffe48
 100:	20676e6f 	rsbcs	r6, r7, pc, ror #28
 104:	00746e69 	rsbseq	r6, r4, r9, ror #28
 108:	5f4f4857 	svcpl	0x004f4857
 10c:	495f4d41 	ldmdbmi	pc, {r0, r6, r8, sl, fp, lr}^	; <UNPREDICTABLE>
 110:	4745525f 	smlsldmi	r5, r5, pc, r2	; <UNPREDICTABLE>
 114:	72796700 	rsbsvc	r6, r9, #0, 14
 118:	30315f6f 	eorscc	r5, r1, pc, ror #30
 11c:	70643030 	rsbvc	r3, r4, r0, lsr r0
 120:	5f5f0073 	svcpl	0x005f0073
 124:	434e5546 	movtmi	r5, #58694	; 0xe546
 128:	4e4f4954 			; <UNDEFINED> instruction: 0x4e4f4954
 12c:	67005f5f 	smlsdvs	r0, pc, pc, r5	; <UNPREDICTABLE>
 130:	2e6f7279 	mcrcs	2, 3, r7, cr15, cr9, {3}
 134:	70640063 	rsbvc	r0, r4, r3, rrx
 138:	6f745f73 	svcvs	0x00745f73
 13c:	6163735f 	cmnvs	r3, pc, asr r3
 140:	6700656c 	strvs	r6, [r0, -ip, ror #10]
 144:	5f6f7279 	svcpl	0x006f7279
 148:	63006472 	movwvs	r6, #1138	; 0x472
 14c:	6e61656c 	cdpvs	5, 6, cr6, cr1, cr12, {3}
 150:	6265725f 	rsbvs	r7, r5, #-268435451	; 0xf0000005
 154:	00746f6f 	rsbseq	r6, r4, pc, ror #30
 158:	6f727967 	svcvs	0x00727967
 15c:	7370645f 	cmnvc	r0, #1593835520	; 0x5f000000
 160:	75706d00 	ldrbvc	r6, [r0, #-3328]!	; 0xfffff300
 164:	30303536 	eorscc	r3, r0, r6, lsr r5
 168:	7279675f 	rsbsvc	r6, r9, #24903680	; 0x17c0000
 16c:	6e695f6f 	cdpvs	15, 6, cr5, cr9, cr15, {3}
 170:	75007469 	strvc	r7, [r0, #-1129]	; 0xfffffb97
 174:	6769736e 	strbvs	r7, [r9, -lr, ror #6]!
 178:	2064656e 	rsbcs	r6, r4, lr, ror #10
 17c:	72616863 	rsbvc	r6, r1, #6488064	; 0x630000
 180:	5f676d00 	svcpl	0x00676d00
 184:	00776172 	rsbseq	r6, r7, r2, ror r1
 188:	3675706d 	ldrbtcc	r7, [r5], -sp, rrx
 18c:	5f303035 	svcpl	0x00303035
 190:	65736572 	ldrbvs	r6, [r3, #-1394]!	; 0xfffffa8e
 194:	6f6c0074 	svcvs	0x006c0074
 198:	6c20676e 	stcvs	7, cr6, [r0], #-440	; 0xfffffe48
 19c:	20676e6f 	rsbcs	r6, r7, pc, ror #28
 1a0:	69736e75 	ldmdbvs	r3!, {r0, r2, r4, r5, r6, r9, sl, fp, sp, lr}^
 1a4:	64656e67 	strbtvs	r6, [r5], #-3687	; 0xfffff199
 1a8:	746e6920 	strbtvc	r6, [lr], #-2336	; 0xfffff6e0
 1ac:	6e697500 	cdpvs	5, 6, cr7, cr9, cr0, {0}
 1b0:	5f323374 	svcpl	0x00323374
 1b4:	79780074 	ldmdbvc	r8!, {r2, r4, r5, r6}^
 1b8:	72705f7a 	rsbsvc	r5, r0, #488	; 0x1e8
 1bc:	00746e69 	rsbseq	r6, r4, r9, ror #28
 1c0:	6f727967 	svcvs	0x00727967
 1c4:	6e6f635f 	mcrvs	3, 3, r6, cr15, cr15, {2}
 1c8:	5f676966 	svcpl	0x00676966
 1cc:	00676572 	rsbeq	r6, r7, r2, ror r5
 1d0:	6f727967 	svcvs	0x00727967
 1d4:	6400745f 	strvs	r7, [r0], #-1119	; 0xfffffba1
 1d8:	615f7665 	cmpvs	pc, r5, ror #12
 1dc:	00726464 	rsbseq	r6, r2, r4, ror #8
 1e0:	5f7a7978 	svcpl	0x007a7978
 1e4:	6e006b6d 	vmlsvs.f64	d6, d0, d29
 1e8:	616d746f 	cmnvs	sp, pc, ror #8
 1ec:	73006e69 	movwvc	r6, #3689	; 0xe69
 1f0:	74726f68 	ldrbtvc	r6, [r2], #-3944	; 0xfffff098
 1f4:	736e7520 	cmnvc	lr, #32, 10	; 0x8000000
 1f8:	656e6769 	strbvs	r6, [lr, #-1897]!	; 0xfffff897
 1fc:	6e692064 	cdpvs	0, 6, cr2, cr9, cr4, {3}
 200:	79670074 	stmdbvc	r7!, {r2, r4, r5, r6}^
 204:	685f6f72 	ldmdavs	pc, {r1, r4, r5, r6, r8, r9, sl, fp, sp, lr}^	; <UNPREDICTABLE>
 208:	645f7361 	ldrbvs	r7, [pc], #-865	; 210 <__code_start__-0x7df0>
 20c:	00617461 	rsbeq	r7, r1, r1, ror #8
 210:	6f727967 	svcvs	0x00727967
 214:	6163735f 	cmnvs	r3, pc, asr r3
 218:	4700656c 	strmi	r6, [r0, -ip, ror #10]
 21c:	4320554e 			; <UNDEFINED> instruction: 0x4320554e
 220:	39203939 	stmdbcc	r0!, {r0, r3, r4, r5, r8, fp, ip, sp}
 224:	312e322e 			; <UNDEFINED> instruction: 0x312e322e
 228:	31303220 	teqcc	r0, r0, lsr #4
 22c:	32303139 	eorscc	r3, r0, #1073741838	; 0x4000000e
 230:	72282035 	eorvc	r2, r8, #53, 0	; 0x35
 234:	61656c65 	cmnvs	r5, r5, ror #24
 238:	20296573 	eorcs	r6, r9, r3, ror r5
 23c:	4d52415b 	ldfmie	f4, [r2, #-364]	; 0xfffffe94
 240:	6d72612f 	ldfvse	f6, [r2, #-188]!	; 0xffffff44
 244:	622d392d 	eorvs	r3, sp, #737280	; 0xb4000
 248:	636e6172 	cmnvs	lr, #-2147483620	; 0x8000001c
 24c:	65722068 	ldrbvs	r2, [r2, #-104]!	; 0xffffff98
 250:	69736976 	ldmdbvs	r3!, {r1, r2, r4, r5, r6, r8, fp, sp, lr}^
 254:	32206e6f 	eorcc	r6, r0, #1776	; 0x6f0
 258:	39353737 	ldmdbcc	r5!, {r0, r1, r2, r4, r5, r8, r9, sl, ip, sp}
 25c:	2d205d39 	stccs	13, cr5, [r0, #-228]!	; 0xffffff1c
 260:	7570636d 	ldrbvc	r6, [r0, #-877]!	; 0xfffffc93
 264:	6d72613d 	ldfvse	f6, [r2, #-244]!	; 0xffffff0c
 268:	36373131 			; <UNDEFINED> instruction: 0x36373131
 26c:	2d667a6a 	vstmdbcs	r6!, {s15-s120}
 270:	6d2d2073 	stcvs	0, cr2, [sp, #-460]!	; 0xfffffe34
 274:	656e7574 	strbvs	r7, [lr, #-1396]!	; 0xfffffa8c
 278:	6d72613d 	ldfvse	f6, [r2, #-244]!	; 0xffffff0c
 27c:	36373131 			; <UNDEFINED> instruction: 0x36373131
 280:	2d667a6a 	vstmdbcs	r6!, {s15-s120}
 284:	6d2d2073 	stcvs	0, cr2, [sp, #-460]!	; 0xfffffe34
 288:	616f6c66 	cmnvs	pc, r6, ror #24
 28c:	62612d74 	rsbvs	r2, r1, #116, 26	; 0x1d00
 290:	6f733d69 	svcvs	0x00733d69
 294:	2d207466 	cfstrscs	mvf7, [r0, #-408]!	; 0xfffffe68
 298:	6d72616d 	ldfvse	f6, [r2, #-436]!	; 0xfffffe4c
 29c:	616d2d20 	cmnvs	sp, r0, lsr #26
 2a0:	3d686372 	stclcc	3, cr6, [r8, #-456]!	; 0xfffffe38
 2a4:	766d7261 	strbtvc	r7, [sp], -r1, ror #4
 2a8:	207a6b36 	rsbscs	r6, sl, r6, lsr fp
 2ac:	6467672d 	strbtvs	r6, [r7], #-1837	; 0xfffff8d3
 2b0:	4f2d2062 	svcmi	0x002d2062
 2b4:	732d2067 			; <UNDEFINED> instruction: 0x732d2067
 2b8:	673d6474 			; <UNDEFINED> instruction: 0x673d6474
 2bc:	3939756e 	ldmdbcc	r9!, {r1, r2, r3, r5, r6, r8, sl, ip, sp, lr}
 2c0:	66662d20 	strbtvs	r2, [r6], -r0, lsr #26
 2c4:	73656572 	cmnvc	r5, #478150656	; 0x1c800000
 2c8:	646e6174 	strbtvs	r6, [lr], #-372	; 0xfffffe8c
 2cc:	00676e69 	rsbeq	r6, r7, r9, ror #28
 2d0:	4f525947 	svcmi	0x00525947
 2d4:	554f5a5f 	strbpl	r5, [pc, #-2655]	; fffff87d <__bss_end__+0xffff4ce5>
 2d8:	00485f54 	subeq	r5, r8, r4, asr pc
 2dc:	4f525947 	svcmi	0x00525947
 2e0:	554f5a5f 	strbpl	r5, [pc, #-2655]	; fffff889 <__bss_end__+0xffff4cf1>
 2e4:	004c5f54 	subeq	r5, ip, r4, asr pc
 2e8:	6573552f 	ldrbvs	r5, [r3, #-1327]!	; 0xfffffad1
 2ec:	6d2f7372 	stcvs	3, cr7, [pc, #-456]!	; 12c <__code_start__-0x7ed4>
 2f0:	73656c69 	cmnvc	r5, #26880	; 0x6900
 2f4:	756f532f 	strbvc	r5, [pc, #-815]!	; ffffffcd <__bss_end__+0xffff5435>
 2f8:	2f656372 	svccs	0x00656372
 2fc:	34327363 	ldrtcc	r7, [r2], #-867	; 0xfffffc9d
 300:	2f786c30 	svccs	0x00786c30
 304:	7362616c 	cmnvc	r2, #27
 308:	2d30312f 	ldfcss	f3, [r0, #-188]!	; 0xffffff44
 30c:	2d633269 	sfmcs	f3, 2, [r3, #-420]!	; 0xfffffe5c
 310:	65636361 	strbvs	r6, [r3, #-865]!	; 0xfffffc9f
 314:	6f632f6c 	svcvs	0x00632f6c
 318:	65006564 	strvs	r6, [r0, #-1380]	; 0xfffffa9c
 31c:	63657078 	cmnvs	r5, #120, 0	; 0x78
 320:	5f646574 	svcpl	0x00646574
 324:	59470069 	stmdbpl	r7, {r0, r3, r5, r6}^
 328:	435f4f52 	cmpmi	pc, #328	; 0x148
 32c:	49464e4f 	stmdbmi	r6, {r0, r1, r2, r3, r6, r9, sl, fp, lr}^
 330:	65740047 	ldrbvs	r0, [r4, #-71]!	; 0xffffffb9
 334:	645f7473 	ldrbvs	r7, [pc], #-1139	; 33c <__code_start__-0x7cc4>
 338:	78007370 	stmdavc	r0, {r4, r5, r6, r8, r9, ip, sp, lr}
 33c:	725f7a79 	subsvc	r7, pc, #495616	; 0x79000
 340:	69007761 	stmdbvs	r0, {r0, r5, r6, r8, r9, sl, ip, sp, lr}
 344:	775f756d 	ldrbvc	r7, [pc, -sp, ror #10]
 348:	79670072 	stmdbvc	r7!, {r1, r4, r5, r6}^
 34c:	325f6f72 	subscc	r6, pc, #456	; 0x1c8
 350:	64303030 	ldrtvs	r3, [r0], #-48	; 0xffffffd0
 354:	64007370 	strvs	r7, [r0], #-880	; 0xfffffc90
 358:	735f7370 	cmpvc	pc, #112, 6	; 0xc0000001
 35c:	656c6163 	strbvs	r6, [ip, #-355]!	; 0xfffffe9d
 360:	63326900 	teqvs	r2, #0, 18
 364:	6165725f 	cmnvs	r5, pc, asr r2
 368:	5f5f0064 	svcpl	0x005f0064
 36c:	73756e75 	cmnvc	r5, #1872	; 0x750
 370:	00336465 	eorseq	r6, r3, r5, ror #8
 374:	5f746573 	svcpl	0x00746573
 378:	006c6c61 	rsbeq	r6, ip, r1, ror #24
 37c:	74696e69 	strbtvc	r6, [r9], #-3689	; 0xfffff197
 380:	696c6169 	stmdbvs	ip!, {r0, r3, r5, r6, r8, sp, lr}^
 384:	5f64657a 	svcpl	0x0064657a
 388:	32690070 	rsbcc	r0, r9, #112, 0	; 0x70
 38c:	00632e63 	rsbeq	r2, r3, r3, ror #28
 390:	636f6c63 	cmnvs	pc, #25344	; 0x6300
 394:	74735f6b 	ldrbtvc	r5, [r3], #-3947	; 0xfffff095
 398:	63746572 	cmnvs	r4, #478150656	; 0x1c800000
 39c:	69745f68 	ldmdbvs	r4!, {r3, r5, r6, r8, r9, sl, fp, ip, lr}^
 3a0:	756f656d 	strbvc	r6, [pc, #-1389]!	; fffffe3b <__bss_end__+0xffff52a3>
 3a4:	6c630074 	stclvs	0, cr0, [r3], #-464	; 0xfffffe30
 3a8:	5f726165 	svcpl	0x00726165
 3ac:	50470063 	subpl	r0, r7, r3, rrx
 3b0:	465f4f49 	ldrbmi	r4, [pc], -r9, asr #30
 3b4:	5f434e55 	svcpl	0x00434e55
 3b8:	5054554f 	subspl	r5, r4, pc, asr #10
 3bc:	63005455 	movwvs	r5, #1109	; 0x455
 3c0:	7261656c 	rsbvc	r6, r1, #108, 10	; 0x1b000000
 3c4:	4700735f 	smlsdmi	r0, pc, r3, r7	; <UNPREDICTABLE>
 3c8:	5f4f4950 	svcpl	0x004f4950
 3cc:	434e5546 	movtmi	r5, #58694	; 0xe546
 3d0:	544c415f 	strbpl	r4, [ip], #-351	; 0xfffffea1
 3d4:	50470030 	subpl	r0, r7, r0, lsr r0
 3d8:	465f4f49 	ldrbmi	r4, [pc], -r9, asr #30
 3dc:	5f434e55 	svcpl	0x00434e55
 3e0:	31544c41 	cmpcc	r4, r1, asr #24
 3e4:	49504700 	ldmdbmi	r0, {r8, r9, sl, lr}^
 3e8:	55465f4f 	strbpl	r5, [r6, #-3919]	; 0xfffff0b1
 3ec:	415f434e 	cmpmi	pc, lr, asr #6
 3f0:	0032544c 	eorseq	r5, r2, ip, asr #8
 3f4:	4f495047 	svcmi	0x00495047
 3f8:	4e55465f 	mrcmi	6, 2, r4, cr5, cr15, {2}
 3fc:	4c415f43 	mcrrmi	15, 4, r5, r1, cr3
 400:	47003354 	smlsdmi	r0, r4, r3, r3
 404:	5f4f4950 	svcpl	0x004f4950
 408:	434e5546 	movtmi	r5, #58694	; 0xe546
 40c:	544c415f 	strbpl	r4, [ip], #-351	; 0xfffffea1
 410:	50470034 	subpl	r0, r7, r4, lsr r0
 414:	465f4f49 	ldrbmi	r4, [pc], -r9, asr #30
 418:	5f434e55 	svcpl	0x00434e55
 41c:	35544c41 	ldrbcc	r4, [r4, #-3137]	; 0xfffff3bf
 420:	725f7300 	subsvc	r7, pc, #0, 6
 424:	73696765 	cmnvc	r9, #26476544	; 0x1940000
 428:	00726574 	rsbseq	r6, r2, r4, ror r5
 42c:	72656678 	rsbvc	r6, r5, #120, 12	; 0x7800000
 430:	6174735f 	cmnvs	r4, pc, asr r3
 434:	685f7472 	ldmdavs	pc, {r1, r4, r5, r6, sl, ip, sp, lr}^	; <UNPREDICTABLE>
 438:	006b6361 	rsbeq	r6, fp, r1, ror #6
 43c:	6e656c64 	cdpvs	12, 6, cr6, cr5, cr4, {3}
 440:	74757000 	ldrbtvc	r7, [r5], #-0
 444:	63003233 	movwvs	r3, #563	; 0x233
 448:	6765725f 			; <UNDEFINED> instruction: 0x6765725f
 44c:	65747369 	ldrbvs	r7, [r4, #-873]!	; 0xfffffc97
 450:	68730072 	ldmdavs	r3!, {r1, r4, r5, r6}^
 454:	00746669 	rsbseq	r6, r4, r9, ror #12
 458:	63656863 	cmnvs	r5, #6488064	; 0x630000
 45c:	616c5f6b 	cmnvs	ip, fp, ror #30
 460:	74756f79 	ldrbtvc	r6, [r5], #-3961	; 0xfffff087
 464:	6f6c6300 	svcvs	0x006c6300
 468:	645f6b63 	ldrbvs	r6, [pc], #-2915	; 470 <__code_start__-0x7b90>
 46c:	63007669 	movwvs	r7, #1641	; 0x669
 470:	7261656c 	rsbvc	r6, r1, #108, 10	; 0x1b000000
 474:	6e6f6400 	cdpvs	4, 6, cr6, cr15, cr0, {0}
 478:	50470065 	subpl	r0, r7, r5, rrx
 47c:	465f4f49 	ldrbmi	r4, [pc], -r9, asr #30
 480:	5f434e55 	svcpl	0x00434e55
 484:	55504e49 	ldrbpl	r4, [r0, #-3657]	; 0xfffff1b7
 488:	6e690054 	mcrvs	0, 3, r0, cr9, cr4, {2}
 48c:	78006474 	stmdavc	r0, {r2, r4, r5, r6, sl, sp, lr}
 490:	5f726566 	svcpl	0x00726566
 494:	72617473 	rsbvc	r7, r1, #1929379840	; 0x73000000
 498:	6e690074 	mcrvs	0, 3, r0, cr9, cr4, {3}
 49c:	69007274 	stmdbvs	r0, {r2, r4, r5, r6, r9, ip, sp, lr}
 4a0:	0074746e 	rsbseq	r7, r4, lr, ror #8
 4a4:	6f666966 	svcvs	0x00666966
 4a8:	6e6f6300 	cdpvs	3, 6, cr6, cr15, cr0, {0}
 4ac:	6c6f7274 	sfmvs	f7, 2, [pc], #-464	; 2e4 <__code_start__-0x7d1c>
 4b0:	63326900 	teqvs	r2, #0, 18
 4b4:	7369645f 	cmnvc	r9, #1593835520	; 0x5f000000
 4b8:	65766f63 	ldrbvs	r6, [r6, #-3939]!	; 0xfffff09d
 4bc:	64615f72 	strbtvs	r5, [r1], #-3954	; 0xfffff08e
 4c0:	64007264 	strvs	r7, [r0], #-612	; 0xfffffd9c
 4c4:	625f7665 	subsvs	r7, pc, #105906176	; 0x6500000
 4c8:	69727261 	ldmdbvs	r2!, {r0, r5, r6, r9, ip, sp, lr}^
 4cc:	67007265 	strvs	r7, [r0, -r5, ror #4]
 4d0:	32337465 	eorscc	r7, r3, #1694498816	; 0x65000000
 4d4:	49505200 	ldmdbmi	r0, {r9, ip, lr}^
 4d8:	6332695f 	teqvs	r2, #1556480	; 0x17c000
 4dc:	63326900 	teqvs	r2, #0, 18
 4e0:	6e006e65 	cdpvs	14, 0, cr6, cr0, cr5, {3}
 4e4:	65747962 	ldrbvs	r7, [r4, #-2402]!	; 0xfffff69e
 4e8:	65720073 	ldrbvs	r0, [r2, #-115]!	; 0xffffff8d
 4ec:	735f6461 	cmpvc	pc, #1627389952	; 0x61000000
 4f0:	63326900 	teqvs	r2, #0, 18
 4f4:	5f73695f 	svcpl	0x0073695f
 4f8:	74696e69 	strbtvc	r6, [r9], #-3689	; 0xfffff197
 4fc:	696c6169 	stmdbvs	ip!, {r0, r3, r5, r6, r8, sp, lr}^
 500:	0064657a 	rsbeq	r6, r4, sl, ror r5
 504:	64616572 	strbtvs	r6, [r1], #-1394	; 0xfffffa8e
 508:	6300705f 	movwvs	r7, #95	; 0x5f
 50c:	6b746b6c 	blvs	1d1b2c4 <__bss_end__+0x1d1072c>
 510:	69706700 	ldmdbvs	r0!, {r8, r9, sl, sp, lr}^
 514:	65735f6f 	ldrbvs	r5, [r3, #-3951]!	; 0xfffff091
 518:	75665f74 	strbvc	r5, [r6, #-3956]!	; 0xfffff08c
 51c:	6974636e 	ldmdbvs	r4!, {r1, r2, r3, r5, r6, r8, r9, sp, lr}^
 520:	78006e6f 	stmdavc	r0, {r0, r1, r2, r3, r5, r6, r9, sl, fp, sp, lr}
 524:	5f726566 	svcpl	0x00726566
 528:	00646e65 	rsbeq	r6, r4, r5, ror #28
 52c:	64616572 	strbtvs	r6, [r1], #-1394	; 0xfffffa8e
 530:	6900635f 	stmdbvs	r0, {r0, r1, r2, r3, r4, r6, r8, r9, sp, lr}
 534:	695f6332 	ldmdbvs	pc, {r1, r4, r5, r8, r9, sp, lr}^	; <UNPREDICTABLE>
 538:	5f74696e 	svcpl	0x0074696e
 53c:	65636e6f 	strbvs	r6, [r3, #-3695]!	; 0xfffff191
 540:	755f5f00 	ldrbvc	r5, [pc, #-3840]	; fffff648 <__bss_end__+0xffff4ab0>
 544:	6573756e 	ldrbvs	r7, [r3, #-1390]!	; 0xfffffa92
 548:	5f003064 	svcpl	0x00003064
 54c:	756e755f 	strbvc	r7, [lr, #-1375]!	; 0xfffffaa1
 550:	31646573 	smccc	18003	; 0x4653
 554:	755f5f00 	ldrbvc	r5, [pc, #-3840]	; fffff65c <__bss_end__+0xffff4ac4>
 558:	6573756e 	ldrbvs	r7, [r3, #-1390]!	; 0xfffffa92
 55c:	2f003264 	svccs	0x00003264
 560:	656d6f68 	strbvs	r6, [sp, #-3944]!	; 0xfffff098
 564:	676e652f 	strbvs	r6, [lr, -pc, lsr #10]!
 568:	2f72656c 	svccs	0x0072656c
 56c:	73616c63 	cmnvc	r1, #25344	; 0x6300
 570:	73632f73 	cmnvc	r3, #460	; 0x1cc
 574:	2d6e3934 			; <UNDEFINED> instruction: 0x2d6e3934
 578:	75613132 	strbvc	r3, [r1, #-306]!	; 0xfffffece
 57c:	616c2f74 	smcvs	49908	; 0xc2f4
 580:	382f7362 	stmdacc	pc!, {r1, r5, r6, r8, r9, ip, sp, lr}	; <UNPREDICTABLE>
 584:	6332692d 	teqvs	r2, #737280	; 0xb4000
 588:	6363612d 	cmnvs	r3, #1073741835	; 0x4000000b
 58c:	632f6c65 			; <UNDEFINED> instruction: 0x632f6c65
 590:	0065646f 	rsbeq	r6, r5, pc, ror #8
 594:	65736572 	ldrbvs	r6, [r3, #-1394]!	; 0xfffffa8e
 598:	74735f74 	ldrbtvc	r5, [r3], #-3956	; 0xfffff08c
 59c:	73757461 	cmnvc	r5, #1627389952	; 0x61000000
 5a0:	6f6c6300 	svcvs	0x006c6300
 5a4:	645f6b63 	ldrbvs	r6, [pc], #-2915	; 5ac <__code_start__-0x7a54>
 5a8:	79616c65 	stmdbvc	r1!, {r0, r2, r5, r6, sl, fp, sp, lr}^
 5ac:	69706700 	ldmdbvs	r0!, {r8, r9, sl, sp, lr}^
 5b0:	6c635f6f 	stclvs	15, cr5, [r3], #-444	; 0xfffffe44
 5b4:	67003072 	smlsdxvs	r0, r2, r0, r3
 5b8:	5f6f6970 	svcpl	0x006f6970
 5bc:	30746573 	rsbscc	r6, r4, r3, ror r5
 5c0:	69706700 	ldmdbvs	r0!, {r8, r9, sl, sp, lr}^
 5c4:	72775f6f 	rsbsvc	r5, r7, #444	; 0x1bc
 5c8:	00657469 	rsbeq	r7, r5, r9, ror #8
 5cc:	5f564544 	svcpl	0x00564544
 5d0:	334c4156 	movtcc	r4, #49494	; 0xc156
 5d4:	55500032 	ldrbpl	r0, [r0, #-50]	; 0xffffffce
 5d8:	00323354 	eorseq	r3, r2, r4, asr r3
 5dc:	6f697067 	svcvs	0x00697067
 5e0:	6165725f 	cmnvs	r5, pc, asr r2
 5e4:	45470064 	strbmi	r0, [r7, #-100]	; 0xffffff9c
 5e8:	00323354 	eorseq	r3, r2, r4, asr r3
 5ec:	72732f2e 	rsbsvc	r2, r3, #184	; 0xb8
 5f0:	70672f63 	rsbvc	r2, r7, r3, ror #30
 5f4:	632e6f69 			; <UNDEFINED> instruction: 0x632e6f69
 5f8:	69706700 	ldmdbvs	r0!, {r8, r9, sl, sp, lr}^
 5fc:	65735f6f 	ldrbvs	r5, [r3, #-3951]!	; 0xfffff091
 600:	6e695f74 	mcrvs	15, 3, r5, cr9, cr4, {3}
 604:	00747570 	rsbseq	r7, r4, r0, ror r5
 608:	6f697067 	svcvs	0x00697067
 60c:	7465735f 	strbtvc	r7, [r5], #-863	; 0xfffffca1
 610:	66666f5f 	uqsaxvs	r6, r6, pc	; <UNPREDICTABLE>
 614:	69706700 	ldmdbvs	r0!, {r8, r9, sl, sp, lr}^
 618:	65735f6f 	ldrbvs	r5, [r3, #-3951]!	; 0xfffff091
 61c:	756f5f74 	strbvc	r5, [pc, #-3956]!	; fffff6b0 <__bss_end__+0xffff4b18>
 620:	74757074 	ldrbtvc	r7, [r5], #-116	; 0xffffff8c
 624:	6e756600 	cdpvs	6, 7, cr6, cr5, cr0, {0}
 628:	70670063 	rsbvc	r0, r7, r3, rrx
 62c:	665f6f69 	ldrbvs	r6, [pc], -r9, ror #30
 630:	5f636e75 	svcpl	0x00636e75
 634:	4e470074 	mcrmi	0, 2, r0, cr7, cr4, {3}
 638:	39432055 	stmdbcc	r3, {r0, r2, r4, r6, sp}^
 63c:	2e392039 	mrccs	0, 1, r2, cr9, cr9, {1}
 640:	20312e32 	eorscs	r2, r1, r2, lsr lr
 644:	39313032 	ldmdbcc	r1!, {r1, r4, r5, ip, sp}
 648:	35323031 	ldrcc	r3, [r2, #-49]!	; 0xffffffcf
 64c:	65722820 	ldrbvs	r2, [r2, #-2080]!	; 0xfffff7e0
 650:	7361656c 	cmnvc	r1, #108, 10	; 0x1b000000
 654:	5b202965 	blpl	80abf0 <__bss_end__+0x800058>
 658:	2f4d5241 	svccs	0x004d5241
 65c:	2d6d7261 	sfmcs	f7, 2, [sp, #-388]!	; 0xfffffe7c
 660:	72622d39 	rsbvc	r2, r2, #3648	; 0xe40
 664:	68636e61 	stmdavs	r3!, {r0, r5, r6, r9, sl, fp, sp, lr}^
 668:	76657220 	strbtvc	r7, [r5], -r0, lsr #4
 66c:	6f697369 	svcvs	0x00697369
 670:	3732206e 	ldrcc	r2, [r2, -lr, rrx]!
 674:	39393537 	ldmdbcc	r9!, {r0, r1, r2, r4, r5, r8, sl, ip, sp}
 678:	6d2d205d 	stcvs	0, cr2, [sp, #-372]!	; 0xfffffe8c
 67c:	3d757063 	ldclcc	0, cr7, [r5, #-396]!	; 0xfffffe74
 680:	316d7261 	cmncc	sp, r1, ror #4
 684:	6a363731 	bvs	d8e350 <__bss_end__+0xd837b8>
 688:	732d667a 			; <UNDEFINED> instruction: 0x732d667a
 68c:	746d2d20 	strbtvc	r2, [sp], #-3360	; 0xfffff2e0
 690:	3d656e75 	stclcc	14, cr6, [r5, #-468]!	; 0xfffffe2c
 694:	316d7261 	cmncc	sp, r1, ror #4
 698:	6a363731 	bvs	d8e364 <__bss_end__+0xd837cc>
 69c:	732d667a 			; <UNDEFINED> instruction: 0x732d667a
 6a0:	666d2d20 	strbtvs	r2, [sp], -r0, lsr #26
 6a4:	74616f6c 	strbtvc	r6, [r1], #-3948	; 0xfffff094
 6a8:	6962612d 	stmdbvs	r2!, {r0, r2, r3, r5, r8, sp, lr}^
 6ac:	666f733d 			; <UNDEFINED> instruction: 0x666f733d
 6b0:	6d2d2074 	stcvs	0, cr2, [sp, #-464]!	; 0xfffffe30
 6b4:	206d7261 	rsbcs	r7, sp, r1, ror #4
 6b8:	72616d2d 	rsbvc	r6, r1, #2880	; 0xb40
 6bc:	613d6863 	teqvs	sp, r3, ror #16
 6c0:	36766d72 			; <UNDEFINED> instruction: 0x36766d72
 6c4:	2d207a6b 	vstmdbcs	r0!, {s14-s120}
 6c8:	62646767 	rsbvs	r6, r4, #27000832	; 0x19c0000
 6cc:	67672d20 	strbvs	r2, [r7, -r0, lsr #26]!
 6d0:	2d206264 	sfmcs	f6, 4, [r0, #-400]!	; 0xfffffe70
 6d4:	7361664f 	cmnvc	r1, #82837504	; 0x4f00000
 6d8:	4f2d2074 	svcmi	0x002d2074
 6dc:	74736166 	ldrbtvc	r6, [r3], #-358	; 0xfffffe9a
 6e0:	74732d20 	ldrbtvc	r2, [r3], #-3360	; 0xfffff2e0
 6e4:	6e673d64 	cdpvs	13, 6, cr3, cr7, cr4, {3}
 6e8:	20393975 	eorscs	r3, r9, r5, ror r9
 6ec:	6474732d 	ldrbtvs	r7, [r4], #-813	; 0xfffffcd3
 6f0:	756e673d 	strbvc	r6, [lr, #-1853]!	; 0xfffff8c3
 6f4:	2d203939 			; <UNDEFINED> instruction: 0x2d203939
 6f8:	65726666 	ldrbvs	r6, [r2, #-1638]!	; 0xfffff99a
 6fc:	61747365 	cmnvs	r4, r5, ror #6
 700:	6e69646e 	cdpvs	4, 6, cr6, cr9, cr14, {3}
 704:	70670067 	rsbvc	r0, r7, r7, rrx
 708:	6c5f6f69 	mrrcvs	15, 6, r6, pc, cr9	; <UNPREDICTABLE>
 70c:	00307665 	eorseq	r7, r0, r5, ror #12
 710:	6573552f 	ldrbvs	r5, [r3, #-1327]!	; 0xfffffad1
 714:	6d2f7372 	stcvs	3, cr7, [pc, #-456]!	; 554 <__code_start__-0x7aac>
 718:	73656c69 	cmnvc	r5, #26880	; 0x6900
 71c:	756f532f 	strbvc	r5, [pc, #-815]!	; 3f5 <__code_start__-0x7c0b>
 720:	2f656372 	svccs	0x00656372
 724:	34327363 	ldrtcc	r7, [r2], #-867	; 0xfffffc9d
 728:	2f786c30 	svccs	0x00786c30
 72c:	7062696c 	rsbvc	r6, r2, ip, ror #18
 730:	61620069 	cmnvs	r2, r9, rrx
 734:	67006b6e 	strvs	r6, [r0, -lr, ror #22]
 738:	5f6f6970 	svcpl	0x006f6970
 73c:	5f746573 	svcpl	0x00746573
 740:	61006e6f 	tstvs	r0, pc, ror #28
 744:	00736772 	rsbseq	r6, r3, r2, ror r7
 748:	705f6176 	subsvc	r6, pc, r6, ror r1	; <UNPREDICTABLE>
 74c:	746e6972 	strbtvc	r6, [lr], #-2418	; 0xfffff68e
 750:	5f5f006b 	svcpl	0x005f006b
 754:	63756e67 	cmnvs	r5, #1648	; 0x670
 758:	5f61765f 	svcpl	0x0061765f
 75c:	7473696c 	ldrbtvc	r6, [r3], #-2412	; 0xfffff694
 760:	615f5f00 	cmpvs	pc, r0, lsl #30
 764:	2f2e0070 	svccs	0x002e0070
 768:	6362696c 	cmnvs	r2, #108, 18	; 0x1b0000
 76c:	6972702f 	ldmdbvs	r2!, {r0, r1, r2, r3, r5, ip, sp, lr}^
 770:	2e6b746e 	cdpcs	4, 6, cr7, cr11, cr14, {3}
 774:	5f5f0063 	svcpl	0x005f0063
 778:	6c5f6176 	ldfvse	f6, [pc], {118}	; 0x76
 77c:	00747369 	rsbseq	r7, r4, r9, ror #6
 780:	65746e69 	ldrbvs	r6, [r4, #-3689]!	; 0xfffff197
 784:	6c616e72 	stclvs	14, cr6, [r1], #-456	; 0xfffffe38
 788:	7475705f 	ldrbtvc	r7, [r5], #-95	; 0xffffffa1
 78c:	2f2e006b 	svccs	0x002e006b
 790:	6362696c 	cmnvs	r2, #108, 18	; 0x1b0000
 794:	7475702f 	ldrbtvc	r7, [r5], #-47	; 0xffffffd1
 798:	00632e6b 	rsbeq	r2, r3, fp, ror #28
 79c:	69647369 	stmdbvs	r4!, {r0, r3, r5, r6, r8, r9, ip, sp, lr}^
 7a0:	00746967 	rsbseq	r6, r4, r7, ror #18
 7a4:	746e6975 	strbtvc	r6, [lr], #-2421	; 0xfffff68b
 7a8:	745f3436 	ldrbvc	r3, [pc], #-1078	; 7b0 <__code_start__-0x7850>
 7ac:	6c2f2e00 	stcvs	14, cr2, [pc], #-0	; 7b4 <__code_start__-0x784c>
 7b0:	2f636269 	svccs	0x00636269
 7b4:	702d6176 	eorvc	r6, sp, r6, ror r1
 7b8:	746e6972 	strbtvc	r6, [lr], #-2418	; 0xfffff68e
 7bc:	00632e6b 	rsbeq	r2, r3, fp, ror #28
 7c0:	6f635f5f 	svcvs	0x00635f5f
 7c4:	735f6564 	cmpvc	pc, #100, 10	; 0x19000000
 7c8:	74726174 	ldrbtvc	r6, [r2], #-372	; 0xfffffe8c
 7cc:	5f005f5f 	svcpl	0x00005f5f
 7d0:	7373625f 	cmnvc	r3, #-268435451	; 0xf0000005
 7d4:	6174735f 	cmnvs	r4, pc, asr r3
 7d8:	5f5f7472 	svcpl	0x005f7472
 7dc:	64697700 	strbtvs	r7, [r9], #-1792	; 0xfffff900
 7e0:	5f006874 	svcpl	0x00006874
 7e4:	7461645f 	strbtvc	r6, [r1], #-1119	; 0xfffffba1
 7e8:	6e655f61 	cdpvs	15, 6, cr5, cr5, cr1, {3}
 7ec:	005f5f64 	subseq	r5, pc, r4, ror #30
 7f0:	6e676973 			; <UNDEFINED> instruction: 0x6e676973
 7f4:	705f6465 	subsvc	r6, pc, r5, ror #8
 7f8:	74757000 	ldrbtvc	r7, [r5], #-0
 7fc:	70665f63 	rsbvc	r5, r6, r3, ror #30
 800:	625f5f00 	subsvs	r5, pc, #0, 30
 804:	655f7373 	ldrbvs	r7, [pc, #-883]	; 499 <__code_start__-0x7b67>
 808:	5f5f646e 	svcpl	0x005f646e
 80c:	685f5f00 	ldmdavs	pc, {r8, r9, sl, fp, ip, lr}^	; <UNPREDICTABLE>
 810:	5f706165 	svcpl	0x00706165
 814:	72617473 	rsbvc	r7, r1, #1929379840	; 0x73000000
 818:	005f5f74 	subseq	r5, pc, r4, ror pc	; <UNPREDICTABLE>
 81c:	5f697072 	svcpl	0x00697072
 820:	5f746573 	svcpl	0x00746573
 824:	7074756f 	rsbsvc	r7, r4, pc, ror #10
 828:	66007475 			; <UNDEFINED> instruction: 0x66007475
 82c:	735f746d 	cmpvc	pc, #1828716544	; 0x6d000000
 830:	74726174 	ldrbtvc	r6, [r2], #-372	; 0xfffffe8c
 834:	72747300 	rsbsvc	r7, r4, #0, 6
 838:	00746163 	rsbseq	r6, r4, r3, ror #2
 83c:	63727473 	cmnvs	r2, #1929379840	; 0x73000000
 840:	6e007970 			; <UNDEFINED> instruction: 0x6e007970
 844:	705f6765 	subsvc	r6, pc, r5, ror #14
 848:	635f5f00 	cmpvs	pc, #0, 30
 84c:	5f65646f 	svcpl	0x0065646f
 850:	5f646e65 	svcpl	0x00646e65
 854:	6d65005f 	stclvs	0, cr0, [r5, #-380]!	; 0xfffffe84
 858:	70007469 	andvc	r7, r0, r9, ror #8
 85c:	5f737475 	svcpl	0x00737475
 860:	72007066 	andvc	r7, r0, #102, 0	; 0x66
 864:	72657665 	rsbvc	r7, r5, #105906176	; 0x6500000
 868:	73006573 	movwvc	r6, #1395	; 0x573
 86c:	6d637274 	sfmvs	f7, 2, [r3, #-464]!	; 0xfffffe30
 870:	5f5f0070 	svcpl	0x005f0070
 874:	61746164 	cmnvs	r4, r4, ror #2
 878:	6174735f 	cmnvs	r4, pc, asr r3
 87c:	5f5f7472 	svcpl	0x005f7472
 880:	705f5f00 	subsvc	r5, pc, r0, lsl #30
 884:	5f676f72 	svcpl	0x00676f72
 888:	5f646e65 	svcpl	0x00646e65
 88c:	756e005f 	strbvc	r0, [lr, #-95]!	; 0xffffffa1
 890:	7300316d 	movwvc	r3, #365	; 0x16d
 894:	636e7274 	cmnvs	lr, #116, 4	; 0x40000007
 898:	6200706d 	andvs	r7, r0, #109, 0	; 0x6d
 89c:	00657361 	rsbeq	r7, r5, r1, ror #6
 8a0:	5f697072 	svcpl	0x00697072
 8a4:	6f626572 	svcvs	0x00626572
 8a8:	2e00746f 	cdpcs	4, 0, cr7, cr0, cr15, {3}
 8ac:	6174732f 	cmnvs	r4, pc, lsr #6
 8b0:	732d6666 			; <UNDEFINED> instruction: 0x732d6666
 8b4:	632f6372 			; <UNDEFINED> instruction: 0x632f6372
 8b8:	6e61656c 	cdpvs	5, 6, cr6, cr1, cr12, {3}
 8bc:	6265722d 	rsbvs	r7, r5, #-805306366	; 0xd0000002
 8c0:	2e746f6f 	cdpcs	15, 7, cr6, cr4, cr15, {3}
 8c4:	61750063 	cmnvs	r5, r3, rrx
 8c8:	665f7472 			; <UNDEFINED> instruction: 0x665f7472
 8cc:	6873756c 	ldmdavs	r3!, {r2, r3, r5, r6, r8, sl, ip, sp, lr}^
 8d0:	0078745f 	rsbseq	r7, r8, pc, asr r4
 8d4:	7473635f 	ldrbtvc	r6, [r3], #-863	; 0xfffffca1
 8d8:	00747261 	rsbseq	r7, r4, r1, ror #4
 8dc:	5f737362 	svcpl	0x00737362
 8e0:	00646e65 	rsbeq	r6, r4, r5, ror #28
 8e4:	74726175 	ldrbtvc	r6, [r2], #-373	; 0xfffffe8b
 8e8:	696e695f 	stmdbvs	lr!, {r0, r1, r2, r3, r4, r6, r8, fp, sp, lr}^
 8ec:	75630074 	strbvc	r0, [r3, #-116]!	; 0xffffff8c
 8f0:	6d6f7473 	cfstrdvs	mvd7, [pc, #-460]!	; 72c <__code_start__-0x78d4>
 8f4:	616f6c5f 	cmnvs	pc, pc, asr ip	; <UNPREDICTABLE>
 8f8:	00726564 	rsbseq	r6, r2, r4, ror #10
 8fc:	74732f2e 	ldrbtvc	r2, [r3], #-3886	; 0xfffff0d2
 900:	2d666661 	stclcs	6, cr6, [r6, #-388]!	; 0xfffffe7c
 904:	2f637273 	svccs	0x00637273
 908:	61747363 	cmnvs	r4, r3, ror #6
 90c:	632e7472 			; <UNDEFINED> instruction: 0x632e7472
 910:	756f5f00 	strbvc	r5, [pc, #-3840]!	; fffffa18 <__bss_end__+0xffff4e80>
 914:	79630074 	stmdbvc	r3!, {r2, r4, r5, r6}^
 918:	5f656c63 	svcpl	0x00656c63
 91c:	66666964 	strbtvs	r6, [r6], -r4, ror #18
 920:	73616c00 	cmnvc	r1, #0, 24
 924:	2f2e0074 	svccs	0x002e0074
 928:	66617473 			; <UNDEFINED> instruction: 0x66617473
 92c:	72732d66 	rsbsvc	r2, r3, #6528	; 0x1980
 930:	75632f63 	strbvc	r2, [r3, #-3939]!	; 0xfffff09d
 934:	6d6f7473 	cfstrdvs	mvd7, [pc, #-460]!	; 770 <__code_start__-0x7890>
 938:	616f6c2d 	cmnvs	pc, sp, lsr #24
 93c:	2e726564 	cdpcs	5, 7, cr6, cr2, cr4, {3}
 940:	65720063 	ldrbvs	r0, [r2, #-99]!	; 0xffffff9d
 944:	746f6f62 	strbtvc	r6, [pc], #-3938	; 94c <__code_start__-0x76b4>
 948:	6c61635f 	stclvs	3, cr6, [r1], #-380	; 0xfffffe84
 94c:	74756f6c 	ldrbtvc	r6, [r5], #-3948	; 0xfffff094
 950:	5f4d5000 	svcpl	0x004d5000
 954:	474f4457 	smlsldmi	r4, pc, r7, r4	; <UNPREDICTABLE>
 958:	74657300 	strbtvc	r7, [r5], #-768	; 0xfffffd00
 95c:	6573755f 	ldrbvs	r7, [r3, #-1375]!	; 0xfffffaa1
 960:	656c5f72 	strbvs	r5, [ip, #-3954]!	; 0xfffff08e
 964:	006c6576 	rsbeq	r6, ip, r6, ror r5
 968:	74732f2e 	ldrbtvc	r2, [r3], #-3886	; 0xfffff0d2
 96c:	2d666661 	stclcs	6, cr6, [r6, #-388]!	; 0xfffffe7c
 970:	2f637273 	svccs	0x00637273
 974:	6f626572 	svcvs	0x00626572
 978:	632e746f 			; <UNDEFINED> instruction: 0x632e746f
 97c:	5f4d5000 	svcpl	0x004d5000
 980:	53534150 	cmppl	r3, #20
 984:	44524f57 	ldrbmi	r4, [r2], #-3927	; 0xfffff0a9
 988:	5f746100 	svcpl	0x00746100
 98c:	72657375 	rsbvc	r7, r5, #-738197503	; 0xd4000001
 990:	76656c5f 			; <UNDEFINED> instruction: 0x76656c5f
 994:	50006c65 	andpl	r6, r0, r5, ror #24
 998:	53525f4d 	cmppl	r2, #308	; 0x134
 99c:	575f4354 			; <UNDEFINED> instruction: 0x575f4354
 9a0:	47464352 	smlsldmi	r4, r6, r2, r3
 9a4:	4c55465f 	mrrcmi	6, 5, r4, r5, cr15
 9a8:	45525f4c 	ldrbmi	r5, [r2, #-3916]	; 0xfffff0b4
 9ac:	00544553 	subseq	r4, r4, r3, asr r5
 9b0:	525f4d50 	subspl	r4, pc, #80, 26	; 0x1400
 9b4:	00435453 	subeq	r5, r3, r3, asr r4
 9b8:	72737063 	rsbsvc	r7, r3, #99, 0	; 0x63
 9bc:	6c656400 	cfstrdvs	mvd6, [r5], #-0
 9c0:	735f7961 	cmpvc	pc, #1589248	; 0x184000
 9c4:	2e006365 	cdpcs	3, 0, cr6, cr0, cr5, {3}
 9c8:	6174732f 	cmnvs	r4, pc, lsr #6
 9cc:	732d6666 			; <UNDEFINED> instruction: 0x732d6666
 9d0:	742f6372 	strtvc	r6, [pc], #-882	; 9d8 <__code_start__-0x7628>
 9d4:	72656d69 	rsbvc	r6, r5, #6720	; 0x1a40
 9d8:	7400632e 	strvc	r6, [r0], #-814	; 0xfffffcd2
 9dc:	72656d69 	rsbvc	r6, r5, #6720	; 0x1a40
 9e0:	7465675f 	strbtvc	r6, [r5], #-1887	; 0xfffff8a1
 9e4:	6573755f 	ldrbvs	r7, [r3, #-1375]!	; 0xfffffaa1
 9e8:	69740063 	ldmdbvs	r4!, {r0, r1, r5, r6}^
 9ec:	5f72656d 	svcpl	0x0072656d
 9f0:	5f746567 	svcpl	0x00746567
 9f4:	63657375 	cmnvs	r5, #-738197503	; 0xd4000001
 9f8:	7761725f 			; <UNDEFINED> instruction: 0x7761725f
 9fc:	6c656400 	cfstrdvs	mvd6, [r5], #-0
 a00:	755f7961 	ldrbvc	r7, [pc, #-2401]	; a7 <__code_start__-0x7f59>
 a04:	61620073 	smcvs	8195	; 0x2003
 a08:	765f6475 			; <UNDEFINED> instruction: 0x765f6475
 a0c:	73006c61 	movwvc	r6, #3169	; 0xc61
 a10:	00746174 	rsbseq	r6, r4, r4, ror r1
 a14:	74726175 	ldrbtvc	r6, [r2], #-373	; 0xfffffe8b
 a18:	6e61635f 	mcrvs	3, 3, r6, cr1, cr15, {2}
 a1c:	7465675f 	strbtvc	r6, [r5], #-1887	; 0xfffff8a1
 a20:	75610063 	strbvc	r0, [r1, #-99]!	; 0xffffff9d
 a24:	65705f78 	ldrbvs	r5, [r0, #-3960]!	; 0xfffff088
 a28:	68706972 	ldmdavs	r0!, {r1, r4, r5, r6, r8, fp, sp, lr}^
 a2c:	61750073 	cmnvs	r5, r3, ror r0
 a30:	632e7472 			; <UNDEFINED> instruction: 0x632e7472
 a34:	72617500 	rsbvc	r7, r1, #0, 10
 a38:	61635f74 	smcvs	13812	; 0x35f4
 a3c:	75705f6e 	ldrbvc	r5, [r0, #-3950]!	; 0xfffff092
 a40:	75006374 	strvc	r6, [r0, #-884]	; 0xfffffc8c
 a44:	5f747261 	svcpl	0x00747261
 a48:	695f7874 	ldmdbvs	pc, {r2, r4, r5, r6, fp, ip, sp, lr}^	; <UNPREDICTABLE>
 a4c:	6d655f73 	stclvs	15, cr5, [r5, #-460]!	; 0xfffffe34
 a50:	00797470 	rsbseq	r7, r9, r0, ror r4
 a54:	6d6f682f 	stclvs	8, cr6, [pc, #-188]!	; 9a0 <__code_start__-0x7660>
 a58:	6e652f65 	cdpvs	15, 6, cr2, cr5, cr5, {3}
 a5c:	72656c67 	rsbvc	r6, r5, #26368	; 0x6700
 a60:	616c632f 	cmnvs	ip, pc, lsr #6
 a64:	632f7373 			; <UNDEFINED> instruction: 0x632f7373
 a68:	30343273 	eorscc	r3, r4, r3, ror r2
 a6c:	322d786c 	eorcc	r7, sp, #108, 16	; 0x6c0000
 a70:	72707332 	rsbsvc	r7, r0, #-939524096	; 0xc8000000
 a74:	62696c2f 	rsbvs	r6, r9, #12032	; 0x2f00
 a78:	732f6970 			; <UNDEFINED> instruction: 0x732f6970
 a7c:	66666174 			; <UNDEFINED> instruction: 0x66666174
 a80:	6972702d 	ldmdbvs	r2!, {r0, r2, r3, r5, ip, sp, lr}^
 a84:	65746176 	ldrbvs	r6, [r4, #-374]!	; 0xfffffe8a
 a88:	75616200 	strbvc	r6, [r1, #-512]!	; 0xfffffe00
 a8c:	75610064 	strbvc	r0, [r1, #-100]!	; 0xffffff9c
 a90:	6e655f78 	mcrvs	15, 3, r5, cr5, cr8, {3}
 a94:	656c6261 	strbvs	r6, [ip, #-609]!	; 0xfffffd9f
 a98:	61750073 	cmnvs	r5, r3, ror r0
 a9c:	675f7472 			; <UNDEFINED> instruction: 0x675f7472
 aa0:	00637465 	rsbeq	r7, r3, r5, ror #8
 aa4:	20554e47 	subscs	r4, r5, r7, asr #28
 aa8:	20393943 	eorscs	r3, r9, r3, asr #18
 aac:	332e3031 			; <UNDEFINED> instruction: 0x332e3031
 ab0:	3220312e 	eorcc	r3, r0, #-2147483637	; 0x8000000b
 ab4:	30313230 	eorscc	r3, r1, r0, lsr r2
 ab8:	20343238 	eorscs	r3, r4, r8, lsr r2
 abc:	6c657228 	sfmvs	f7, 2, [r5], #-160	; 0xffffff60
 ac0:	65736165 	ldrbvs	r6, [r3, #-357]!	; 0xfffffe9b
 ac4:	6d2d2029 	stcvs	0, cr2, [sp, #-164]!	; 0xffffff5c
 ac8:	3d757063 	ldclcc	0, cr7, [r5, #-396]!	; 0xfffffe74
 acc:	316d7261 	cmncc	sp, r1, ror #4
 ad0:	6a363731 	bvs	d8e79c <__bss_end__+0xd83c04>
 ad4:	732d667a 			; <UNDEFINED> instruction: 0x732d667a
 ad8:	746d2d20 	strbtvc	r2, [sp], #-3360	; 0xfffff2e0
 adc:	3d656e75 	stclcc	14, cr6, [r5, #-468]!	; 0xfffffe2c
 ae0:	316d7261 	cmncc	sp, r1, ror #4
 ae4:	6a363731 	bvs	d8e7b0 <__bss_end__+0xd83c18>
 ae8:	732d667a 			; <UNDEFINED> instruction: 0x732d667a
 aec:	666d2d20 	strbtvs	r2, [sp], -r0, lsr #26
 af0:	74616f6c 	strbtvc	r6, [r1], #-3948	; 0xfffff094
 af4:	6962612d 	stmdbvs	r2!, {r0, r2, r3, r5, r8, sp, lr}^
 af8:	666f733d 			; <UNDEFINED> instruction: 0x666f733d
 afc:	6d2d2074 	stcvs	0, cr2, [sp, #-464]!	; 0xfffffe30
 b00:	206d7261 	rsbcs	r7, sp, r1, ror #4
 b04:	72616d2d 	rsbvc	r6, r1, #2880	; 0xb40
 b08:	613d6863 	teqvs	sp, r3, ror #16
 b0c:	36766d72 			; <UNDEFINED> instruction: 0x36766d72
 b10:	2d207a6b 	vstmdbcs	r0!, {s14-s120}
 b14:	62646767 	rsbvs	r6, r4, #27000832	; 0x19c0000
 b18:	674f2d20 	strbvs	r2, [pc, -r0, lsr #26]
 b1c:	74732d20 	ldrbtvc	r2, [r3], #-3360	; 0xfffff2e0
 b20:	6e673d64 	cdpvs	13, 6, cr3, cr7, cr4, {3}
 b24:	20393975 	eorscs	r3, r9, r5, ror r9
 b28:	7266662d 	rsbvc	r6, r6, #47185920	; 0x2d00000
 b2c:	74736565 	ldrbtvc	r6, [r3], #-1381	; 0xfffffa9b
 b30:	69646e61 	stmdbvs	r4!, {r0, r5, r6, r9, sl, fp, sp, lr}^
 b34:	6300676e 	movwvs	r6, #1902	; 0x76e
 b38:	006c746e 	rsbeq	r7, ip, lr, ror #8
 b3c:	74726175 	ldrbtvc	r6, [r2], #-373	; 0xfffffe8b
 b40:	7369645f 	cmnvc	r9, #1593835520	; 0x5f000000
 b44:	656c6261 	strbvs	r6, [ip, #-609]!	; 0xfffffd9f
 b48:	72617500 	rsbvc	r7, r1, #0, 10
 b4c:	61685f74 	smcvs	34292	; 0x85f4
 b50:	61645f73 	smcvs	17907	; 0x45f3
 b54:	6f006174 	svcvs	0x00006174
 b58:	6e695f72 	mcrvs	15, 3, r5, cr9, cr2, {3}
 b5c:	73003233 	movwvc	r3, #563	; 0x233
 b60:	74617263 	strbtvc	r7, [r1], #-611	; 0xfffffd9d
 b64:	75006863 	strvc	r6, [r0, #-2147]	; 0xfffff79d
 b68:	00747261 	rsbseq	r7, r4, r1, ror #4
 b6c:	5f646e61 	svcpl	0x00646e61
 b70:	32336e69 	eorscc	r6, r3, #1680	; 0x690
 b74:	72617500 	rsbvc	r7, r1, #0, 10
 b78:	75705f74 	ldrbvc	r5, [r0, #-3956]!	; 0xfffff08c
 b7c:	69006374 	stmdbvs	r0, {r2, r4, r5, r6, r8, r9, sp, lr}
 b80:	7265746e 	rsbvc	r7, r5, #1845493760	; 0x6e000000
 b84:	5f6c616e 	svcpl	0x006c616e
 b88:	63747570 	cmnvs	r4, #112, 10	; 0x1c000000
 b8c:	00726168 	rsbseq	r6, r2, r8, ror #2
 b90:	5f697072 	svcpl	0x00697072
 b94:	5f746573 	svcpl	0x00746573
 b98:	63747570 	cmnvs	r4, #112, 10	; 0x1c000000
 b9c:	6c2f2e00 	stcvs	14, cr2, [pc], #-0	; ba4 <__code_start__-0x745c>
 ba0:	2f636269 	svccs	0x00636269
 ba4:	63747570 	cmnvs	r4, #112, 10	; 0x1c000000
 ba8:	2e726168 	rpwcssz	f6, f2, #0.0
 bac:	70720063 	rsbsvc	r0, r2, r3, rrx
 bb0:	65725f69 	ldrbvs	r5, [r2, #-3945]!	; 0xfffff097
 bb4:	5f746573 	svcpl	0x00746573
 bb8:	63747570 	cmnvs	r4, #112, 10	; 0x1c000000
 bbc:	73656400 	cmnvc	r5, #0, 8
 bc0:	2f2e0074 	svccs	0x002e0074
 bc4:	6362696c 	cmnvs	r2, #108, 18	; 0x1b0000
 bc8:	7274732f 	rsbsvc	r7, r4, #-1140850688	; 0xbc000000
 bcc:	2e746163 	rpwcssz	f6, f4, f3
 bd0:	2f2e0063 	svccs	0x002e0063
 bd4:	6362696c 	cmnvs	r2, #108, 18	; 0x1b0000
 bd8:	7274732f 	rsbsvc	r7, r4, #-1140850688	; 0xbc000000
 bdc:	2e706d63 	cdpcs	13, 7, cr6, cr0, cr3, {3}
 be0:	2f2e0063 	svccs	0x002e0063
 be4:	6362696c 	cmnvs	r2, #108, 18	; 0x1b0000
 be8:	7274732f 	rsbsvc	r7, r4, #-1140850688	; 0xbc000000
 bec:	2e797063 	cdpcs	0, 7, cr7, cr9, cr3, {3}
 bf0:	69730063 	ldmdbvs	r3!, {r0, r1, r5, r6}^
 bf4:	745f657a 	ldrbvc	r6, [pc], #-1402	; bfc <__code_start__-0x7404>
 bf8:	6c2f2e00 	stcvs	14, cr2, [pc], #-0	; c00 <__code_start__-0x7400>
 bfc:	2f636269 	svccs	0x00636269
 c00:	6e727473 	mrcvs	4, 3, r7, cr2, cr3, {3}
 c04:	2e706d63 	cdpcs	13, 7, cr6, cr0, cr3, {3}
 c08:	2f2e0063 	svccs	0x002e0063
 c0c:	66617473 			; <UNDEFINED> instruction: 0x66617473
 c10:	72732d66 	rsbsvc	r2, r3, #6528	; 0x1980
 c14:	65642f63 	strbvs	r2, [r4, #-3939]!	; 0xfffff09d
 c18:	6c756166 	ldfvse	f6, [r5], #-408	; 0xfffffe68
 c1c:	65722d74 	ldrbvs	r2, [r2, #-3444]!	; 0xfffff28c
 c20:	746f6f62 	strbtvc	r6, [pc], #-3938	; c28 <__code_start__-0x73d8>
 c24:	6c61632d 	stclvs	3, cr6, [r1], #-180	; 0xffffff4c
 c28:	74756f6c 	ldrbtvc	r6, [r5], #-3948	; 0xfffff094
 c2c:	Address 0x0000000000000c2c is out of bounds.


Disassembly of section .debug_frame:

00000000 <.debug_frame>:
   0:	0000000c 	andeq	r0, r0, ip
   4:	ffffffff 			; <UNDEFINED> instruction: 0xffffffff
   8:	7c020001 	stcvc	0, cr0, [r2], {1}
   c:	000d0c0e 	andeq	r0, sp, lr, lsl #24
  10:	0000000c 	andeq	r0, r0, ip
  14:	00000000 	andeq	r0, r0, r0
  18:	00008038 	andeq	r8, r0, r8, lsr r0
  1c:	0000000c 	andeq	r0, r0, ip
  20:	00000014 	andeq	r0, r0, r4, lsl r0
  24:	00000000 	andeq	r0, r0, r0
  28:	00008044 	andeq	r8, r0, r4, asr #32
  2c:	0000008c 	andeq	r0, r0, ip, lsl #1
  30:	8e040e6e 	cdphi	14, 0, cr0, cr4, cr14, {3}
  34:	100e4201 	andne	r4, lr, r1, lsl #4
  38:	00000018 	andeq	r0, r0, r8, lsl r0
  3c:	00000000 	andeq	r0, r0, r0
  40:	000080d0 	ldrdeq	r8, [r0], -r0
  44:	00000094 	muleq	r0, r4, r0
  48:	8e040e60 	cdphi	14, 0, cr0, cr4, cr0, {3}
  4c:	100e4201 	andne	r4, lr, r1, lsl #4
  50:	ce000e4e 	cdpgt	14, 0, cr0, cr0, cr14, {2}
  54:	00000014 	andeq	r0, r0, r4, lsl r0
  58:	00000000 	andeq	r0, r0, r0
  5c:	00008164 	andeq	r8, r0, r4, ror #2
  60:	0000002c 	andeq	r0, r0, ip, lsr #32
  64:	84080e42 	strhi	r0, [r8], #-3650	; 0xfffff1be
  68:	00018e02 	andeq	r8, r1, r2, lsl #28
  6c:	00000020 	andeq	r0, r0, r0, lsr #32
  70:	00000000 	andeq	r0, r0, r0
  74:	00008190 	muleq	r0, r0, r1
  78:	00000094 	muleq	r0, r4, r0
  7c:	840c0e42 	strhi	r0, [ip], #-3650	; 0xfffff1be
  80:	8e028503 	cfsh32hi	mvfx8, mvfx2, #3
  84:	200e4201 	andcs	r4, lr, r1, lsl #4
  88:	0c0e0a66 			; <UNDEFINED> instruction: 0x0c0e0a66
  8c:	00000b42 	andeq	r0, r0, r2, asr #22
  90:	00000018 	andeq	r0, r0, r8, lsl r0
  94:	00000000 	andeq	r0, r0, r0
  98:	00008224 	andeq	r8, r0, r4, lsr #4
  9c:	00000038 	andeq	r0, r0, r8, lsr r0
  a0:	8e040e42 	cdphi	14, 0, cr0, cr4, cr2, {2}
  a4:	200e4201 	andcs	r4, lr, r1, lsl #4
  a8:	00040e54 	andeq	r0, r4, r4, asr lr
  ac:	0000001c 	andeq	r0, r0, ip, lsl r0
  b0:	00000000 	andeq	r0, r0, r0
  b4:	0000825c 	andeq	r8, r0, ip, asr r2
  b8:	00000038 	andeq	r0, r0, r8, lsr r0
  bc:	84080e42 	strhi	r0, [r8], #-3650	; 0xfffff1be
  c0:	42018e02 	andmi	r8, r1, #2, 28
  c4:	0e56180e 	cdpeq	8, 5, cr1, cr6, cr14, {0}
  c8:	00000008 	andeq	r0, r0, r8
  cc:	00000018 	andeq	r0, r0, r8, lsl r0
  d0:	00000000 	andeq	r0, r0, r0
  d4:	00008294 	muleq	r0, r4, r2
  d8:	00000024 	andeq	r0, r0, r4, lsr #32
  dc:	8e040e42 	cdphi	14, 0, cr0, cr4, cr2, {2}
  e0:	100e4201 	andne	r4, lr, r1, lsl #4
  e4:	00040e4c 	andeq	r0, r4, ip, asr #28
  e8:	00000020 	andeq	r0, r0, r0, lsr #32
  ec:	00000000 	andeq	r0, r0, r0
  f0:	000082b8 			; <UNDEFINED> instruction: 0x000082b8
  f4:	0000003c 	andeq	r0, r0, ip, lsr r0
  f8:	84100e42 	ldrhi	r0, [r0], #-3650	; 0xfffff1be
  fc:	86038504 	strhi	r8, [r3], -r4, lsl #10
 100:	42018e02 	andmi	r8, r1, #2, 28
 104:	0e58180e 	cdpeq	8, 5, cr1, cr8, cr14, {0}
 108:	00000010 	andeq	r0, r0, r0, lsl r0
 10c:	00000024 	andeq	r0, r0, r4, lsr #32
 110:	00000000 	andeq	r0, r0, r0
 114:	000082f4 	strdeq	r8, [r0], -r4
 118:	000000b8 	strheq	r0, [r0], -r8
 11c:	84140e42 	ldrhi	r0, [r4], #-3650	; 0xfffff1be
 120:	86048505 	strhi	r8, [r4], -r5, lsl #10
 124:	8e028703 	cdphi	7, 0, cr8, cr2, cr3, {0}
 128:	200e4201 	andcs	r4, lr, r1, lsl #4
 12c:	0e0a4c02 	cdpeq	12, 0, cr4, cr10, cr2, {0}
 130:	000b4214 	andeq	r4, fp, r4, lsl r2
 134:	0000000c 	andeq	r0, r0, ip
 138:	00000000 	andeq	r0, r0, r0
 13c:	000083ac 	andeq	r8, r0, ip, lsr #7
 140:	00000008 	andeq	r0, r0, r8
 144:	0000001c 	andeq	r0, r0, ip, lsl r0
 148:	00000000 	andeq	r0, r0, r0
 14c:	000083b4 			; <UNDEFINED> instruction: 0x000083b4
 150:	000000b4 	strheq	r0, [r0], -r4
 154:	84180e42 	ldrhi	r0, [r8], #-3650	; 0xfffff1be
 158:	86058506 	strhi	r8, [r5], -r6, lsl #10
 15c:	88038704 	stmdahi	r3, {r2, r8, r9, sl, pc}
 160:	00018e02 	andeq	r8, r1, r2, lsl #28
 164:	0000002c 	andeq	r0, r0, ip, lsr #32
 168:	00000000 	andeq	r0, r0, r0
 16c:	00008468 	andeq	r8, r0, r8, ror #8
 170:	00000060 	andeq	r0, r0, r0, rrx
 174:	42080e42 	andmi	r0, r8, #1056	; 0x420
 178:	0884200e 	stmeq	r4, {r1, r2, r3, sp}
 17c:	06860785 	streq	r0, [r6], r5, lsl #15
 180:	04880587 	streq	r0, [r8], #1415	; 0x587
 184:	ce68038e 	cdpgt	3, 6, cr0, cr8, cr14, {4}
 188:	c5c6c7c8 	strbgt	ip, [r6, #1992]	; 0x7c8
 18c:	42080ec4 	andmi	r0, r8, #196, 28	; 0xc40
 190:	0000000e 	andeq	r0, r0, lr
 194:	00000014 	andeq	r0, r0, r4, lsl r0
 198:	00000000 	andeq	r0, r0, r0
 19c:	000084c8 	andeq	r8, r0, r8, asr #9
 1a0:	0000001c 	andeq	r0, r0, ip, lsl r0
 1a4:	84080e42 	strhi	r0, [r8], #-3650	; 0xfffff1be
 1a8:	00018e02 	andeq	r8, r1, r2, lsl #28
 1ac:	00000020 	andeq	r0, r0, r0, lsr #32
 1b0:	00000000 	andeq	r0, r0, r0
 1b4:	000084e4 	andeq	r8, r0, r4, ror #9
 1b8:	000001a8 	andeq	r0, r0, r8, lsr #3
 1bc:	84100e42 	ldrhi	r0, [r0], #-3650	; 0xfffff1be
 1c0:	86038504 	strhi	r8, [r3], -r4, lsl #10
 1c4:	42018e02 	andmi	r8, r1, #2, 28
 1c8:	bc02480e 	stclt	8, cr4, [r2], {14}
 1cc:	0000100e 	andeq	r1, r0, lr
 1d0:	0000000c 	andeq	r0, r0, ip
 1d4:	ffffffff 			; <UNDEFINED> instruction: 0xffffffff
 1d8:	7c020001 	stcvc	0, cr0, [r2], {1}
 1dc:	000d0c0e 	andeq	r0, sp, lr, lsl #24
 1e0:	0000000c 	andeq	r0, r0, ip
 1e4:	000001d0 	ldrdeq	r0, [r0], -r0	; <UNPREDICTABLE>
 1e8:	0000868c 	andeq	r8, r0, ip, lsl #13
 1ec:	00000010 	andeq	r0, r0, r0, lsl r0
 1f0:	0000000c 	andeq	r0, r0, ip
 1f4:	000001d0 	ldrdeq	r0, [r0], -r0	; <UNPREDICTABLE>
 1f8:	0000869c 	muleq	r0, ip, r6
 1fc:	0000000c 	andeq	r0, r0, ip
 200:	00000014 	andeq	r0, r0, r4, lsl r0
 204:	000001d0 	ldrdeq	r0, [r0], -r0	; <UNPREDICTABLE>
 208:	000086a8 	andeq	r8, r0, r8, lsr #13
 20c:	00000008 	andeq	r0, r0, r8
 210:	8e040e42 	cdphi	14, 0, cr0, cr4, cr2, {2}
 214:	00000001 	andeq	r0, r0, r1
 218:	0000001c 	andeq	r0, r0, ip, lsl r0
 21c:	000001d0 	ldrdeq	r0, [r0], -r0	; <UNPREDICTABLE>
 220:	000086b0 			; <UNDEFINED> instruction: 0x000086b0
 224:	000000fc 	strdeq	r0, [r0], -ip
 228:	8e040e42 	cdphi	14, 0, cr0, cr4, cr2, {2}
 22c:	100e4201 	andne	r4, lr, r1, lsl #4
 230:	0e0a4402 	cdpeq	4, 0, cr4, cr10, cr2, {0}
 234:	000b4204 	andeq	r4, fp, r4, lsl #4
 238:	00000014 	andeq	r0, r0, r4, lsl r0
 23c:	000001d0 	ldrdeq	r0, [r0], -r0	; <UNPREDICTABLE>
 240:	000087ac 	andeq	r8, r0, ip, lsr #15
 244:	00000010 	andeq	r0, r0, r0, lsl r0
 248:	84080e42 	strhi	r0, [r8], #-3650	; 0xfffff1be
 24c:	00018e02 	andeq	r8, r1, r2, lsl #28
 250:	00000014 	andeq	r0, r0, r4, lsl r0
 254:	000001d0 	ldrdeq	r0, [r0], -r0	; <UNPREDICTABLE>
 258:	000087bc 			; <UNDEFINED> instruction: 0x000087bc
 25c:	00000028 	andeq	r0, r0, r8, lsr #32
 260:	84080e42 	strhi	r0, [r8], #-3650	; 0xfffff1be
 264:	00018e02 	andeq	r8, r1, r2, lsl #28
 268:	00000014 	andeq	r0, r0, r4, lsl r0
 26c:	000001d0 	ldrdeq	r0, [r0], -r0	; <UNPREDICTABLE>
 270:	000087e4 	andeq	r8, r0, r4, ror #15
 274:	00000010 	andeq	r0, r0, r0, lsl r0
 278:	84080e42 	strhi	r0, [r8], #-3650	; 0xfffff1be
 27c:	00018e02 	andeq	r8, r1, r2, lsl #28
 280:	00000020 	andeq	r0, r0, r0, lsr #32
 284:	000001d0 	ldrdeq	r0, [r0], -r0	; <UNPREDICTABLE>
 288:	000087f4 	strdeq	r8, [r0], -r4
 28c:	000001d4 	ldrdeq	r0, [r0], -r4
 290:	84100e42 	ldrhi	r0, [r0], #-3650	; 0xfffff1be
 294:	86038504 	strhi	r8, [r3], -r4, lsl #10
 298:	42018e02 	andmi	r8, r1, #2, 28
 29c:	ca02180e 	bgt	862dc <__bss_end__+0x7b744>
 2a0:	0000100e 	andeq	r1, r0, lr
 2a4:	00000020 	andeq	r0, r0, r0, lsr #32
 2a8:	000001d0 	ldrdeq	r0, [r0], -r0	; <UNPREDICTABLE>
 2ac:	000089c8 	andeq	r8, r0, r8, asr #19
 2b0:	0000019c 	muleq	r0, ip, r1
 2b4:	84100e42 	ldrhi	r0, [r0], #-3650	; 0xfffff1be
 2b8:	86038504 	strhi	r8, [r3], -r4, lsl #10
 2bc:	42018e02 	andmi	r8, r1, #2, 28
 2c0:	b202180e 	andlt	r1, r2, #917504	; 0xe0000
 2c4:	0000100e 	andeq	r1, r0, lr
 2c8:	00000018 	andeq	r0, r0, r8, lsl r0
 2cc:	000001d0 	ldrdeq	r0, [r0], -r0	; <UNPREDICTABLE>
 2d0:	00008b64 	andeq	r8, r0, r4, ror #22
 2d4:	000000b8 	strheq	r0, [r0], -r8
 2d8:	84100e42 	ldrhi	r0, [r0], #-3650	; 0xfffff1be
 2dc:	86038504 	strhi	r8, [r3], -r4, lsl #10
 2e0:	00018e02 	andeq	r8, r1, r2, lsl #28
 2e4:	00000018 	andeq	r0, r0, r8, lsl r0
 2e8:	000001d0 	ldrdeq	r0, [r0], -r0	; <UNPREDICTABLE>
 2ec:	00008c1c 	andeq	r8, r0, ip, lsl ip
 2f0:	000000bc 	strheq	r0, [r0], -ip
 2f4:	84100e42 	ldrhi	r0, [r0], #-3650	; 0xfffff1be
 2f8:	86038504 	strhi	r8, [r3], -r4, lsl #10
 2fc:	00018e02 	andeq	r8, r1, r2, lsl #28
 300:	00000018 	andeq	r0, r0, r8, lsl r0
 304:	000001d0 	ldrdeq	r0, [r0], -r0	; <UNPREDICTABLE>
 308:	00008cd8 	ldrdeq	r8, [r0], -r8	; <UNPREDICTABLE>
 30c:	000001b8 			; <UNDEFINED> instruction: 0x000001b8
 310:	84100e42 	ldrhi	r0, [r0], #-3650	; 0xfffff1be
 314:	86038504 	strhi	r8, [r3], -r4, lsl #10
 318:	00018e02 	andeq	r8, r1, r2, lsl #28
 31c:	0000000c 	andeq	r0, r0, ip
 320:	000001d0 	ldrdeq	r0, [r0], -r0	; <UNPREDICTABLE>
 324:	00008e90 	muleq	r0, r0, lr
 328:	00000010 	andeq	r0, r0, r0, lsl r0
 32c:	0000001c 	andeq	r0, r0, ip, lsl r0
 330:	000001d0 	ldrdeq	r0, [r0], -r0	; <UNPREDICTABLE>
 334:	00008ea0 	andeq	r8, r0, r0, lsr #29
 338:	000000a4 	andeq	r0, r0, r4, lsr #1
 33c:	84080e42 	strhi	r0, [r8], #-3650	; 0xfffff1be
 340:	42018e02 	andmi	r8, r1, #2, 28
 344:	0a6e100e 	beq	1b84384 <__bss_end__+0x1b797ec>
 348:	0b42080e 	bleq	1082388 <__bss_end__+0x10777f0>
 34c:	00000014 	andeq	r0, r0, r4, lsl r0
 350:	000001d0 	ldrdeq	r0, [r0], -r0	; <UNPREDICTABLE>
 354:	00008f44 	andeq	r8, r0, r4, asr #30
 358:	00000018 	andeq	r0, r0, r8, lsl r0
 35c:	84080e42 	strhi	r0, [r8], #-3650	; 0xfffff1be
 360:	00018e02 	andeq	r8, r1, r2, lsl #28
 364:	0000000c 	andeq	r0, r0, ip
 368:	ffffffff 			; <UNDEFINED> instruction: 0xffffffff
 36c:	7c020001 	stcvc	0, cr0, [r2], {1}
 370:	000d0c0e 	andeq	r0, sp, lr, lsl #24
 374:	00000020 	andeq	r0, r0, r0, lsr #32
 378:	00000364 	andeq	r0, r0, r4, ror #6
 37c:	00008f5c 	andeq	r8, r0, ip, asr pc
 380:	00000060 	andeq	r0, r0, r0, rrx
 384:	84100e48 	ldrhi	r0, [r0], #-3656	; 0xfffff1b8
 388:	86038504 	strhi	r8, [r3], -r4, lsl #10
 38c:	64018e02 	strvs	r8, [r1], #-3586	; 0xfffff1fe
 390:	c4c5c6ce 	strbgt	ip, [r5], #1742	; 0x6ce
 394:	0000000e 	andeq	r0, r0, lr
 398:	00000020 	andeq	r0, r0, r0, lsr #32
 39c:	00000364 	andeq	r0, r0, r4, ror #6
 3a0:	00008fbc 			; <UNDEFINED> instruction: 0x00008fbc
 3a4:	00000058 	andeq	r0, r0, r8, asr r0
 3a8:	84100e46 	ldrhi	r0, [r0], #-3654	; 0xfffff1ba
 3ac:	86038504 	strhi	r8, [r3], -r4, lsl #10
 3b0:	62018e02 	andvs	r8, r1, #2, 28
 3b4:	c4c5c6ce 	strbgt	ip, [r5], #1742	; 0x6ce
 3b8:	0000000e 	andeq	r0, r0, lr
 3bc:	0000000c 	andeq	r0, r0, ip
 3c0:	00000364 	andeq	r0, r0, r4, ror #6
 3c4:	00009014 	andeq	r9, r0, r4, lsl r0
 3c8:	00000018 	andeq	r0, r0, r8, lsl r0
 3cc:	0000000c 	andeq	r0, r0, ip
 3d0:	00000364 	andeq	r0, r0, r4, ror #6
 3d4:	0000902c 	andeq	r9, r0, ip, lsr #32
 3d8:	00000018 	andeq	r0, r0, r8, lsl r0
 3dc:	00000020 	andeq	r0, r0, r0, lsr #32
 3e0:	00000364 	andeq	r0, r0, r4, ror #6
 3e4:	00009044 	andeq	r9, r0, r4, asr #32
 3e8:	00000058 	andeq	r0, r0, r8, asr r0
 3ec:	84100e46 	ldrhi	r0, [r0], #-3654	; 0xfffff1ba
 3f0:	86038504 	strhi	r8, [r3], -r4, lsl #10
 3f4:	62018e02 	andvs	r8, r1, #2, 28
 3f8:	c4c5c6ce 	strbgt	ip, [r5], #1742	; 0x6ce
 3fc:	0000000e 	andeq	r0, r0, lr
 400:	0000000c 	andeq	r0, r0, ip
 404:	00000364 	andeq	r0, r0, r4, ror #6
 408:	0000909c 	muleq	r0, ip, r0
 40c:	00000030 	andeq	r0, r0, r0, lsr r0
 410:	00000014 	andeq	r0, r0, r4, lsl r0
 414:	00000364 	andeq	r0, r0, r4, ror #6
 418:	000090cc 	andeq	r9, r0, ip, asr #1
 41c:	00000028 	andeq	r0, r0, r8, lsr #32
 420:	84080e42 	strhi	r0, [r8], #-3650	; 0xfffff1be
 424:	00018e02 	andeq	r8, r1, r2, lsl #28
 428:	0000000c 	andeq	r0, r0, ip
 42c:	ffffffff 			; <UNDEFINED> instruction: 0xffffffff
 430:	7c020001 	stcvc	0, cr0, [r2], {1}
 434:	000d0c0e 	andeq	r0, sp, lr, lsl #24
 438:	00000034 	andeq	r0, r0, r4, lsr r0
 43c:	00000428 	andeq	r0, r0, r8, lsr #8
 440:	000090f4 	strdeq	r9, [r0], -r4
 444:	00000058 	andeq	r0, r0, r8, asr r0
 448:	80100e42 	andshi	r0, r0, r2, asr #28
 44c:	82038104 	andhi	r8, r3, #1
 450:	42018302 	andmi	r8, r1, #134217728	; 0x8000000
 454:	07841c0e 	streq	r1, [r4, lr, lsl #24]
 458:	058e0685 	streq	r0, [lr, #1669]	; 0x685
 45c:	5a280e44 	bpl	a03d74 <__bss_end__+0x9f91dc>
 460:	ce421c0e 	cdpgt	12, 4, cr1, cr2, cr14, {0}
 464:	100ec4c5 	andne	ip, lr, r5, asr #9
 468:	c1c2c342 	bicgt	ip, r2, r2, asr #6
 46c:	00000ec0 	andeq	r0, r0, r0, asr #29
 470:	0000000c 	andeq	r0, r0, ip
 474:	ffffffff 			; <UNDEFINED> instruction: 0xffffffff
 478:	7c020001 	stcvc	0, cr0, [r2], {1}
 47c:	000d0c0e 	andeq	r0, sp, lr, lsl #24
 480:	00000018 	andeq	r0, r0, r8, lsl r0
 484:	00000470 	andeq	r0, r0, r0, ror r4
 488:	0000914c 	andeq	r9, r0, ip, asr #2
 48c:	00000038 	andeq	r0, r0, r8, lsr r0
 490:	84100e42 	ldrhi	r0, [r0], #-3650	; 0xfffff1be
 494:	86038504 	strhi	r8, [r3], -r4, lsl #10
 498:	00018e02 	andeq	r8, r1, r2, lsl #28
 49c:	0000000c 	andeq	r0, r0, ip
 4a0:	ffffffff 			; <UNDEFINED> instruction: 0xffffffff
 4a4:	7c020001 	stcvc	0, cr0, [r2], {1}
 4a8:	000d0c0e 	andeq	r0, sp, lr, lsl #24
 4ac:	0000002c 	andeq	r0, r0, ip, lsr #32
 4b0:	0000049c 	muleq	r0, ip, r4
 4b4:	00009184 	andeq	r9, r0, r4, lsl #3
 4b8:	00000328 	andeq	r0, r0, r8, lsr #6
 4bc:	84180e42 	ldrhi	r0, [r8], #-3650	; 0xfffff1be
 4c0:	86058506 	strhi	r8, [r5], -r6, lsl #10
 4c4:	88038704 	stmdahi	r3, {r2, r8, r9, sl, pc}
 4c8:	46018e02 	strmi	r8, [r1], -r2, lsl #28
 4cc:	c002600e 	andgt	r6, r2, lr
 4d0:	42180e0a 	andsmi	r0, r8, #160	; 0xa0
 4d4:	0a8e020b 	beq	fe380d08 <__bss_end__+0xfe376170>
 4d8:	0b42180e 	bleq	1086518 <__bss_end__+0x107b980>
 4dc:	00000014 	andeq	r0, r0, r4, lsl r0
 4e0:	0000049c 	muleq	r0, ip, r4
 4e4:	000094ac 	andeq	r9, r0, ip, lsr #9
 4e8:	00000060 	andeq	r0, r0, r0, rrx
 4ec:	8e040e52 	mcrhi	14, 0, r0, cr4, cr2, {2}
 4f0:	100e4401 	andne	r4, lr, r1, lsl #8
 4f4:	0000002c 	andeq	r0, r0, ip, lsr #32
 4f8:	0000049c 	muleq	r0, ip, r4
 4fc:	0000950c 	andeq	r9, r0, ip, lsl #10
 500:	0000062c 	andeq	r0, r0, ip, lsr #12
 504:	84240e42 	strthi	r0, [r4], #-3650	; 0xfffff1be
 508:	86088509 	strhi	r8, [r8], -r9, lsl #10
 50c:	88068707 	stmdahi	r6, {r0, r1, r2, r8, r9, sl, pc}
 510:	8a048905 	bhi	12292c <__bss_end__+0x117d94>
 514:	8e028b03 	vmlahi.f64	d8, d2, d3
 518:	c00e5201 	andgt	r5, lr, r1, lsl #4
 51c:	0a860202 	beq	fe180d2c <__bss_end__+0xfe176194>
 520:	0b42240e 	bleq	1089560 <__bss_end__+0x107e9c8>
 524:	0000000c 	andeq	r0, r0, ip
 528:	ffffffff 			; <UNDEFINED> instruction: 0xffffffff
 52c:	7c020001 	stcvc	0, cr0, [r2], {1}
 530:	000d0c0e 	andeq	r0, sp, lr, lsl #24
 534:	00000014 	andeq	r0, r0, r4, lsl r0
 538:	00000524 	andeq	r0, r0, r4, lsr #10
 53c:	00009b38 	andeq	r9, r0, r8, lsr fp
 540:	0000002c 	andeq	r0, r0, ip, lsr #32
 544:	84080e44 	strhi	r0, [r8], #-3652	; 0xfffff1bc
 548:	00018e02 	andeq	r8, r1, r2, lsl #28
 54c:	0000000c 	andeq	r0, r0, ip
 550:	ffffffff 			; <UNDEFINED> instruction: 0xffffffff
 554:	7c020001 	stcvc	0, cr0, [r2], {1}
 558:	000d0c0e 	andeq	r0, sp, lr, lsl #24
 55c:	00000018 	andeq	r0, r0, r8, lsl r0
 560:	0000054c 	andeq	r0, r0, ip, asr #10
 564:	00009b64 	andeq	r9, r0, r4, ror #22
 568:	00000128 	andeq	r0, r0, r8, lsr #2
 56c:	84100e42 	ldrhi	r0, [r0], #-3650	; 0xfffff1be
 570:	86038504 	strhi	r8, [r3], -r4, lsl #10
 574:	00018e02 	andeq	r8, r1, r2, lsl #28
 578:	0000000c 	andeq	r0, r0, ip
 57c:	ffffffff 			; <UNDEFINED> instruction: 0xffffffff
 580:	7c020001 	stcvc	0, cr0, [r2], {1}
 584:	000d0c0e 	andeq	r0, sp, lr, lsl #24
 588:	0000000c 	andeq	r0, r0, ip
 58c:	00000578 	andeq	r0, r0, r8, ror r5
 590:	00009c8c 	andeq	r9, r0, ip, lsl #25
 594:	00000004 	andeq	r0, r0, r4
 598:	0000000c 	andeq	r0, r0, ip
 59c:	ffffffff 			; <UNDEFINED> instruction: 0xffffffff
 5a0:	7c020001 	stcvc	0, cr0, [r2], {1}
 5a4:	000d0c0e 	andeq	r0, sp, lr, lsl #24
 5a8:	0000000c 	andeq	r0, r0, ip
 5ac:	00000598 	muleq	r0, r8, r5
 5b0:	00009ca8 	andeq	r9, r0, r8, lsr #25
 5b4:	00000018 	andeq	r0, r0, r8, lsl r0
 5b8:	0000000c 	andeq	r0, r0, ip
 5bc:	00000598 	muleq	r0, r8, r5
 5c0:	00009cc0 	andeq	r9, r0, r0, asr #25
 5c4:	00000014 	andeq	r0, r0, r4, lsl r0
 5c8:	00000014 	andeq	r0, r0, r4, lsl r0
 5cc:	00000598 	muleq	r0, r8, r5
 5d0:	00009cd4 	ldrdeq	r9, [r0], -r4
 5d4:	00000060 	andeq	r0, r0, r0, rrx
 5d8:	84080e42 	strhi	r0, [r8], #-3650	; 0xfffff1be
 5dc:	00018e02 	andeq	r8, r1, r2, lsl #28
 5e0:	0000000c 	andeq	r0, r0, ip
 5e4:	ffffffff 			; <UNDEFINED> instruction: 0xffffffff
 5e8:	7c020001 	stcvc	0, cr0, [r2], {1}
 5ec:	000d0c0e 	andeq	r0, sp, lr, lsl #24
 5f0:	0000000c 	andeq	r0, r0, ip
 5f4:	000005e0 	andeq	r0, r0, r0, ror #11
 5f8:	00009d34 	andeq	r9, r0, r4, lsr sp
 5fc:	0000000c 	andeq	r0, r0, ip
 600:	00000014 	andeq	r0, r0, r4, lsl r0
 604:	000005e0 	andeq	r0, r0, r0, ror #11
 608:	00009d40 	andeq	r9, r0, r0, asr #26
 60c:	00000024 	andeq	r0, r0, r4, lsr #32
 610:	84080e42 	strhi	r0, [r8], #-3650	; 0xfffff1be
 614:	00018e02 	andeq	r8, r1, r2, lsl #28
 618:	0000001c 	andeq	r0, r0, ip, lsl r0
 61c:	000005e0 	andeq	r0, r0, r0, ror #11
 620:	00009d64 	andeq	r9, r0, r4, ror #26
 624:	00000048 	andeq	r0, r0, r8, asr #32
 628:	84180e42 	ldrhi	r0, [r8], #-3650	; 0xfffff1be
 62c:	86058506 	strhi	r8, [r5], -r6, lsl #10
 630:	88038704 	stmdahi	r3, {r2, r8, r9, sl, pc}
 634:	00018e02 	andeq	r8, r1, r2, lsl #28
 638:	0000001c 	andeq	r0, r0, ip, lsl r0
 63c:	000005e0 	andeq	r0, r0, r0, ror #11
 640:	00009dac 	andeq	r9, r0, ip, lsr #27
 644:	00000050 	andeq	r0, r0, r0, asr r0
 648:	84180e42 	ldrhi	r0, [r8], #-3650	; 0xfffff1be
 64c:	86058506 	strhi	r8, [r5], -r6, lsl #10
 650:	88038704 	stmdahi	r3, {r2, r8, r9, sl, pc}
 654:	00018e02 	andeq	r8, r1, r2, lsl #28
 658:	0000001c 	andeq	r0, r0, ip, lsl r0
 65c:	000005e0 	andeq	r0, r0, r0, ror #11
 660:	00009dfc 	strdeq	r9, [r0], -ip
 664:	00000054 	andeq	r0, r0, r4, asr r0
 668:	84180e42 	ldrhi	r0, [r8], #-3650	; 0xfffff1be
 66c:	86058506 	strhi	r8, [r5], -r6, lsl #10
 670:	88038704 	stmdahi	r3, {r2, r8, r9, sl, pc}
 674:	00018e02 	andeq	r8, r1, r2, lsl #28
 678:	0000000c 	andeq	r0, r0, ip
 67c:	ffffffff 			; <UNDEFINED> instruction: 0xffffffff
 680:	7c020001 	stcvc	0, cr0, [r2], {1}
 684:	000d0c0e 	andeq	r0, sp, lr, lsl #24
 688:	00000018 	andeq	r0, r0, r8, lsl r0
 68c:	00000678 	andeq	r0, r0, r8, ror r6
 690:	00009e50 	andeq	r9, r0, r0, asr lr
 694:	00000020 	andeq	r0, r0, r0, lsr #32
 698:	84100e42 	ldrhi	r0, [r0], #-3650	; 0xfffff1be
 69c:	86038504 	strhi	r8, [r3], -r4, lsl #10
 6a0:	00018e02 	andeq	r8, r1, r2, lsl #28
 6a4:	00000018 	andeq	r0, r0, r8, lsl r0
 6a8:	00000678 	andeq	r0, r0, r8, ror r6
 6ac:	00009e70 	andeq	r9, r0, r0, ror lr
 6b0:	00000020 	andeq	r0, r0, r0, lsr #32
 6b4:	84100e42 	ldrhi	r0, [r0], #-3650	; 0xfffff1be
 6b8:	86038504 	strhi	r8, [r3], -r4, lsl #10
 6bc:	00018e02 	andeq	r8, r1, r2, lsl #28
 6c0:	00000014 	andeq	r0, r0, r4, lsl r0
 6c4:	00000678 	andeq	r0, r0, r8, ror r6
 6c8:	00009e90 	muleq	r0, r0, lr
 6cc:	000000b0 	strheq	r0, [r0], -r0	; <UNPREDICTABLE>
 6d0:	84080e42 	strhi	r0, [r8], #-3650	; 0xfffff1be
 6d4:	00018e02 	andeq	r8, r1, r2, lsl #28
 6d8:	00000014 	andeq	r0, r0, r4, lsl r0
 6dc:	00000678 	andeq	r0, r0, r8, ror r6
 6e0:	00009f40 	andeq	r9, r0, r0, asr #30
 6e4:	00000018 	andeq	r0, r0, r8, lsl r0
 6e8:	84080e42 	strhi	r0, [r8], #-3650	; 0xfffff1be
 6ec:	00018e02 	andeq	r8, r1, r2, lsl #28
 6f0:	00000014 	andeq	r0, r0, r4, lsl r0
 6f4:	00000678 	andeq	r0, r0, r8, ror r6
 6f8:	00009f58 	andeq	r9, r0, r8, asr pc
 6fc:	00000020 	andeq	r0, r0, r0, lsr #32
 700:	84080e42 	strhi	r0, [r8], #-3650	; 0xfffff1be
 704:	00018e02 	andeq	r8, r1, r2, lsl #28
 708:	00000014 	andeq	r0, r0, r4, lsl r0
 70c:	00000678 	andeq	r0, r0, r8, ror r6
 710:	00009f78 	andeq	r9, r0, r8, ror pc
 714:	00000030 	andeq	r0, r0, r0, lsr r0
 718:	84080e42 	strhi	r0, [r8], #-3650	; 0xfffff1be
 71c:	00018e02 	andeq	r8, r1, r2, lsl #28
 720:	00000014 	andeq	r0, r0, r4, lsl r0
 724:	00000678 	andeq	r0, r0, r8, ror r6
 728:	00009fa8 	andeq	r9, r0, r8, lsr #31
 72c:	00000030 	andeq	r0, r0, r0, lsr r0
 730:	84080e42 	strhi	r0, [r8], #-3650	; 0xfffff1be
 734:	00018e02 	andeq	r8, r1, r2, lsl #28
 738:	00000014 	andeq	r0, r0, r4, lsl r0
 73c:	00000678 	andeq	r0, r0, r8, ror r6
 740:	00009fd8 	ldrdeq	r9, [r0], -r8
 744:	00000010 	andeq	r0, r0, r0, lsl r0
 748:	84080e42 	strhi	r0, [r8], #-3650	; 0xfffff1be
 74c:	00018e02 	andeq	r8, r1, r2, lsl #28
 750:	00000014 	andeq	r0, r0, r4, lsl r0
 754:	00000678 	andeq	r0, r0, r8, ror r6
 758:	00009fe8 	andeq	r9, r0, r8, ror #31
 75c:	00000020 	andeq	r0, r0, r0, lsr #32
 760:	84080e42 	strhi	r0, [r8], #-3650	; 0xfffff1be
 764:	00018e02 	andeq	r8, r1, r2, lsl #28
 768:	00000014 	andeq	r0, r0, r4, lsl r0
 76c:	00000678 	andeq	r0, r0, r8, ror r6
 770:	0000a008 	andeq	sl, r0, r8
 774:	00000014 	andeq	r0, r0, r4, lsl r0
 778:	84080e42 	strhi	r0, [r8], #-3650	; 0xfffff1be
 77c:	00018e02 	andeq	r8, r1, r2, lsl #28
 780:	00000014 	andeq	r0, r0, r4, lsl r0
 784:	00000678 	andeq	r0, r0, r8, ror r6
 788:	0000a01c 	andeq	sl, r0, ip, lsl r0
 78c:	00000024 	andeq	r0, r0, r4, lsr #32
 790:	84080e42 	strhi	r0, [r8], #-3650	; 0xfffff1be
 794:	00018e02 	andeq	r8, r1, r2, lsl #28
 798:	0000000c 	andeq	r0, r0, ip
 79c:	ffffffff 			; <UNDEFINED> instruction: 0xffffffff
 7a0:	7c020001 	stcvc	0, cr0, [r2], {1}
 7a4:	000d0c0e 	andeq	r0, sp, lr, lsl #24
 7a8:	00000014 	andeq	r0, r0, r4, lsl r0
 7ac:	00000798 	muleq	r0, r8, r7
 7b0:	0000a040 	andeq	sl, r0, r0, asr #32
 7b4:	00000014 	andeq	r0, r0, r4, lsl r0
 7b8:	84080e42 	strhi	r0, [r8], #-3650	; 0xfffff1be
 7bc:	00018e02 	andeq	r8, r1, r2, lsl #28
 7c0:	0000000c 	andeq	r0, r0, ip
 7c4:	00000798 	muleq	r0, r8, r7
 7c8:	0000a054 	andeq	sl, r0, r4, asr r0
 7cc:	00000018 	andeq	r0, r0, r8, lsl r0
 7d0:	0000000c 	andeq	r0, r0, ip
 7d4:	00000798 	muleq	r0, r8, r7
 7d8:	0000a06c 	andeq	sl, r0, ip, rrx
 7dc:	00000010 	andeq	r0, r0, r0, lsl r0
 7e0:	0000000c 	andeq	r0, r0, ip
 7e4:	ffffffff 			; <UNDEFINED> instruction: 0xffffffff
 7e8:	7c020001 	stcvc	0, cr0, [r2], {1}
 7ec:	000d0c0e 	andeq	r0, sp, lr, lsl #24
 7f0:	0000000c 	andeq	r0, r0, ip
 7f4:	000007e0 	andeq	r0, r0, r0, ror #15
 7f8:	0000a07c 	andeq	sl, r0, ip, ror r0
 7fc:	0000002c 	andeq	r0, r0, ip, lsr #32
 800:	0000000c 	andeq	r0, r0, ip
 804:	ffffffff 			; <UNDEFINED> instruction: 0xffffffff
 808:	7c020001 	stcvc	0, cr0, [r2], {1}
 80c:	000d0c0e 	andeq	r0, sp, lr, lsl #24
 810:	0000000c 	andeq	r0, r0, ip
 814:	00000800 	andeq	r0, r0, r0, lsl #16
 818:	0000a0a8 	andeq	sl, r0, r8, lsr #1
 81c:	00000044 	andeq	r0, r0, r4, asr #32
 820:	0000000c 	andeq	r0, r0, ip
 824:	ffffffff 			; <UNDEFINED> instruction: 0xffffffff
 828:	7c020001 	stcvc	0, cr0, [r2], {1}
 82c:	000d0c0e 	andeq	r0, sp, lr, lsl #24
 830:	0000000c 	andeq	r0, r0, ip
 834:	00000820 	andeq	r0, r0, r0, lsr #16
 838:	0000a0ec 	andeq	sl, r0, ip, ror #1
 83c:	00000018 	andeq	r0, r0, r8, lsl r0
 840:	0000000c 	andeq	r0, r0, ip
 844:	ffffffff 			; <UNDEFINED> instruction: 0xffffffff
 848:	7c020001 	stcvc	0, cr0, [r2], {1}
 84c:	000d0c0e 	andeq	r0, sp, lr, lsl #24
 850:	0000000c 	andeq	r0, r0, ip
 854:	00000840 	andeq	r0, r0, r0, asr #16
 858:	0000a104 	andeq	sl, r0, r4, lsl #2
 85c:	00000030 	andeq	r0, r0, r0, lsr r0
 860:	0000000c 	andeq	r0, r0, ip
 864:	ffffffff 			; <UNDEFINED> instruction: 0xffffffff
 868:	7c020001 	stcvc	0, cr0, [r2], {1}
 86c:	000d0c0e 	andeq	r0, sp, lr, lsl #24
 870:	0000000c 	andeq	r0, r0, ip
 874:	00000860 	andeq	r0, r0, r0, ror #16
 878:	0000a134 	andeq	sl, r0, r4, lsr r1
 87c:	00000004 	andeq	r0, r0, r4
