
gyro.elf:     file format elf32-littlearm


Disassembly of section .text:

00008000 <__code_start__>:
    8000:	e3a00013 	mov	r0, #19, 0
    8004:	e3800080 	orr	r0, r0, #128, 0	; 0x80
    8008:	e129f000 	msr	CPSR_fc, r0
    800c:	e3a01000 	mov	r1, #0, 0
    8010:	ee071f95 	mcr	15, 0, r1, cr7, cr5, {4}
    8014:	e3a0d302 	mov	sp, #134217728	; 0x8000000
    8018:	e3a0b000 	mov	fp, #0, 0
    801c:	eb0006d5 	bl	9b78 <_cstart>
    8020:	eb000730 	bl	9ce8 <rpi_reboot>

00008024 <PUT32>:
    8024:	e5801000 	str	r1, [r0]
    8028:	e12fff1e 	bx	lr

0000802c <GET32>:
    802c:	e5900000 	ldr	r0, [r0]
    8030:	e12fff1e 	bx	lr

00008034 <BRANCHTO>:
    8034:	e12fff10 	bx	r0

00008038 <mg_raw>:
    8038:	e1800401 	orr	r0, r0, r1, lsl #8
    803c:	e6bf0070 	sxth	r0, r0
    8040:	e12fff1e 	bx	lr

00008044 <mdps_scale_deg2>:
    8044:	e35100fa 	cmp	r1, #250, 0	; 0xfa
    8048:	0a00000a 	beq	8078 <mdps_scale_deg2+0x34>
    804c:	e3510f7d 	cmp	r1, #500	; 0x1f4
    8050:	1a000011 	bne	809c <mdps_scale_deg2+0x58>
    8054:	e0603280 	rsb	r3, r0, r0, lsl #5
    8058:	e0800103 	add	r0, r0, r3, lsl #2
    805c:	e1a00100 	lsl	r0, r0, #2
    8060:	e59f3058 	ldr	r3, [pc, #88]	; 80c0 <mdps_scale_deg2+0x7c>
    8064:	e0c32093 	smull	r2, r3, r3, r0
    8068:	e0833000 	add	r3, r3, r0
    806c:	e1a00fc0 	asr	r0, r0, #31
    8070:	e0600743 	rsb	r0, r0, r3, asr #14
    8074:	e12fff1e 	bx	lr
    8078:	e0603280 	rsb	r3, r0, r0, lsl #5
    807c:	e0800103 	add	r0, r0, r3, lsl #2
    8080:	e1a03080 	lsl	r3, r0, #1
    8084:	e59f0034 	ldr	r0, [pc, #52]	; 80c0 <mdps_scale_deg2+0x7c>
    8088:	e0c02390 	smull	r2, r0, r0, r3
    808c:	e0802003 	add	r2, r0, r3
    8090:	e1a00fc3 	asr	r0, r3, #31
    8094:	e0600742 	rsb	r0, r0, r2, asr #14
    8098:	e12fff1e 	bx	lr
    809c:	e52de004 	push	{lr}		; (str lr, [sp, #-4]!)
    80a0:	e24dd00c 	sub	sp, sp, #12, 0
    80a4:	e58d1000 	str	r1, [sp]
    80a8:	e3a0308e 	mov	r3, #142, 0	; 0x8e
    80ac:	e59f2010 	ldr	r2, [pc, #16]	; 80c4 <mdps_scale_deg2+0x80>
    80b0:	e59f1010 	ldr	r1, [pc, #16]	; 80c8 <mdps_scale_deg2+0x84>
    80b4:	e59f0010 	ldr	r0, [pc, #16]	; 80cc <mdps_scale_deg2+0x88>
    80b8:	eb000412 	bl	9108 <printk>
    80bc:	eb0006a2 	bl	9b4c <clean_reboot>
    80c0:	80010003 	andhi	r0, r1, r3
    80c4:	0000a308 	andeq	sl, r0, r8, lsl #6
    80c8:	0000a150 	andeq	sl, r0, r0, asr r1
    80cc:	0000a158 	andeq	sl, r0, r8, asr r1

000080d0 <dps_to_scale>:
    80d0:	e3500f7d 	cmp	r0, #500	; 0x1f4
    80d4:	0a000015 	beq	8130 <dps_to_scale+0x60>
    80d8:	9a000005 	bls	80f4 <dps_to_scale+0x24>
    80dc:	e3500ffa 	cmp	r0, #1000	; 0x3e8
    80e0:	0a000016 	beq	8140 <dps_to_scale+0x70>
    80e4:	e3500e7d 	cmp	r0, #2000	; 0x7d0
    80e8:	1a000007 	bne	810c <dps_to_scale+0x3c>
    80ec:	e59f0054 	ldr	r0, [pc, #84]	; 8148 <dps_to_scale+0x78>
    80f0:	e12fff1e 	bx	lr
    80f4:	e35000f5 	cmp	r0, #245, 0	; 0xf5
    80f8:	0a00000e 	beq	8138 <dps_to_scale+0x68>
    80fc:	e35000fa 	cmp	r0, #250, 0	; 0xfa
    8100:	1a000001 	bne	810c <dps_to_scale+0x3c>
    8104:	e59f0040 	ldr	r0, [pc, #64]	; 814c <dps_to_scale+0x7c>
    8108:	e12fff1e 	bx	lr
    810c:	e52de004 	push	{lr}		; (str lr, [sp, #-4]!)
    8110:	e24dd00c 	sub	sp, sp, #12, 0
    8114:	e58d0000 	str	r0, [sp]
    8118:	e3a03083 	mov	r3, #131, 0	; 0x83
    811c:	e59f202c 	ldr	r2, [pc, #44]	; 8150 <dps_to_scale+0x80>
    8120:	e59f102c 	ldr	r1, [pc, #44]	; 8154 <dps_to_scale+0x84>
    8124:	e59f002c 	ldr	r0, [pc, #44]	; 8158 <dps_to_scale+0x88>
    8128:	eb0003f6 	bl	9108 <printk>
    812c:	eb000686 	bl	9b4c <clean_reboot>
    8130:	e59f0024 	ldr	r0, [pc, #36]	; 815c <dps_to_scale+0x8c>
    8134:	e12fff1e 	bx	lr
    8138:	e59f000c 	ldr	r0, [pc, #12]	; 814c <dps_to_scale+0x7c>
    813c:	e12fff1e 	bx	lr
    8140:	e59f0018 	ldr	r0, [pc, #24]	; 8160 <dps_to_scale+0x90>
    8144:	e12fff1e 	bx	lr
    8148:	00011170 	andeq	r1, r1, r0, ror r1
    814c:	0000222e 	andeq	r2, r0, lr, lsr #4
    8150:	0000a318 	andeq	sl, r0, r8, lsl r3
    8154:	0000a150 	andeq	sl, r0, r0, asr r1
    8158:	0000a174 	andeq	sl, r0, r4, ror r1
    815c:	0000445c 	andeq	r4, r0, ip, asr r4
    8160:	000088b8 			; <UNDEFINED> instruction: 0x000088b8

00008164 <mdps_scale_deg>:
    8164:	e92d4010 	push	{r4, lr}
    8168:	e1a04000 	mov	r4, r0
    816c:	e1a00001 	mov	r0, r1
    8170:	ebffffd6 	bl	80d0 <dps_to_scale>
    8174:	e0000094 	mul	r0, r4, r0
    8178:	e59f300c 	ldr	r3, [pc, #12]	; 818c <mdps_scale_deg+0x28>
    817c:	e0c32093 	smull	r2, r3, r3, r0
    8180:	e1a00fc0 	asr	r0, r0, #31
    8184:	e0600343 	rsb	r0, r0, r3, asr #6
    8188:	e8bd8010 	pop	{r4, pc}
    818c:	10624dd3 	ldrdne	r4, [r2], #-211	; 0xffffff2d	; <UNPREDICTABLE>

00008190 <test_dps>:
    8190:	e92d4030 	push	{r4, r5, lr}
    8194:	e24dd014 	sub	sp, sp, #20, 0
    8198:	e1a04000 	mov	r4, r0
    819c:	e1a05003 	mov	r5, r3
    81a0:	e1a00002 	mov	r0, r2
    81a4:	ebffffa3 	bl	8038 <mg_raw>
    81a8:	e1a01005 	mov	r1, r5
    81ac:	ebffffec 	bl	8164 <mdps_scale_deg>
    81b0:	e1a02000 	mov	r2, r0
    81b4:	e0640284 	rsb	r0, r4, r4, lsl #5
    81b8:	e0844100 	add	r4, r4, r0, lsl #2
    81bc:	e1a01184 	lsl	r1, r4, #3
    81c0:	e0724184 	rsbs	r4, r2, r4, lsl #3
    81c4:	4a000007 	bmi	81e8 <test_dps+0x58>
    81c8:	e3540005 	cmp	r4, #5, 0
    81cc:	ca000007 	bgt	81f0 <test_dps+0x60>
    81d0:	e58d5000 	str	r5, [sp]
    81d4:	e3a03005 	mov	r3, #5, 0
    81d8:	e59f0034 	ldr	r0, [pc, #52]	; 8214 <test_dps+0x84>
    81dc:	eb0003c9 	bl	9108 <printk>
    81e0:	e28dd014 	add	sp, sp, #20, 0
    81e4:	e8bd8030 	pop	{r4, r5, pc}
    81e8:	e0424001 	sub	r4, r2, r1
    81ec:	eafffff5 	b	81c8 <test_dps+0x38>
    81f0:	e58d5008 	str	r5, [sp, #8]
    81f4:	e58d2004 	str	r2, [sp, #4]
    81f8:	e58d1000 	str	r1, [sp]
    81fc:	e3a030a1 	mov	r3, #161, 0	; 0xa1
    8200:	e59f2010 	ldr	r2, [pc, #16]	; 8218 <test_dps+0x88>
    8204:	e59f1010 	ldr	r1, [pc, #16]	; 821c <test_dps+0x8c>
    8208:	e59f0010 	ldr	r0, [pc, #16]	; 8220 <test_dps+0x90>
    820c:	eb0003bd 	bl	9108 <printk>
    8210:	eb00064d 	bl	9b4c <clean_reboot>
    8214:	0000a1cc 	andeq	sl, r0, ip, asr #3
    8218:	0000a328 	andeq	sl, r0, r8, lsr #6
    821c:	0000a150 	andeq	sl, r0, r0, asr r1
    8220:	0000a198 	muleq	r0, r8, r1

00008224 <xyz_print>:
    8224:	e52de004 	push	{lr}		; (str lr, [sp, #-4]!)
    8228:	e24dd01c 	sub	sp, sp, #28, 0
    822c:	e28dc018 	add	ip, sp, #24, 0
    8230:	e90c000e 	stmdb	ip, {r1, r2, r3}
    8234:	e59d3014 	ldr	r3, [sp, #20]
    8238:	e58d3000 	str	r3, [sp]
    823c:	e59d3010 	ldr	r3, [sp, #16]
    8240:	e59d200c 	ldr	r2, [sp, #12]
    8244:	e1a01000 	mov	r1, r0
    8248:	e59f0008 	ldr	r0, [pc, #8]	; 8258 <xyz_print+0x34>
    824c:	eb0003ad 	bl	9108 <printk>
    8250:	e28dd01c 	add	sp, sp, #28, 0
    8254:	e49df004 	pop	{pc}		; (ldr pc, [sp], #4)
    8258:	0000a1fc 	strdeq	sl, [r0], -ip

0000825c <imu_rd>:
    825c:	e92d4010 	push	{r4, lr}
    8260:	e24dd010 	sub	sp, sp, #16, 0
    8264:	e1a04000 	mov	r4, r0
    8268:	e5cd1007 	strb	r1, [sp, #7]
    826c:	e3a02001 	mov	r2, #1, 0
    8270:	e28d1007 	add	r1, sp, #7, 0
    8274:	eb00023f 	bl	8b78 <i2c_write>
    8278:	e3a02001 	mov	r2, #1, 0
    827c:	e28d100f 	add	r1, sp, #15, 0
    8280:	e1a00004 	mov	r0, r4
    8284:	eb000269 	bl	8c30 <i2c_read>
    8288:	e5dd000f 	ldrb	r0, [sp, #15]
    828c:	e28dd010 	add	sp, sp, #16, 0
    8290:	e8bd8010 	pop	{r4, pc}

00008294 <imu_wr>:
    8294:	e52de004 	push	{lr}		; (str lr, [sp, #-4]!)
    8298:	e24dd00c 	sub	sp, sp, #12, 0
    829c:	e5cd1004 	strb	r1, [sp, #4]
    82a0:	e5cd2005 	strb	r2, [sp, #5]
    82a4:	e3a02002 	mov	r2, #2, 0
    82a8:	e28d1004 	add	r1, sp, #4, 0
    82ac:	eb000231 	bl	8b78 <i2c_write>
    82b0:	e28dd00c 	add	sp, sp, #12, 0
    82b4:	e49df004 	pop	{pc}		; (ldr pc, [sp], #4)

000082b8 <imu_rd_n>:
    82b8:	e92d4070 	push	{r4, r5, r6, lr}
    82bc:	e24dd008 	sub	sp, sp, #8, 0
    82c0:	e1a04000 	mov	r4, r0
    82c4:	e1a05002 	mov	r5, r2
    82c8:	e1a06003 	mov	r6, r3
    82cc:	e5cd1007 	strb	r1, [sp, #7]
    82d0:	e3a02001 	mov	r2, #1, 0
    82d4:	e28d1007 	add	r1, sp, #7, 0
    82d8:	eb000226 	bl	8b78 <i2c_write>
    82dc:	e1a02006 	mov	r2, r6
    82e0:	e1a01005 	mov	r1, r5
    82e4:	e1a00004 	mov	r0, r4
    82e8:	eb000250 	bl	8c30 <i2c_read>
    82ec:	e28dd008 	add	sp, sp, #8, 0
    82f0:	e8bd8070 	pop	{r4, r5, r6, pc}

000082f4 <mpu6500_gyro_init>:
    82f4:	e92d40f0 	push	{r4, r5, r6, r7, lr}
    82f8:	e24dd00c 	sub	sp, sp, #12, 0
    82fc:	e1a05000 	mov	r5, r0
    8300:	e1a06001 	mov	r6, r1
    8304:	e1a04002 	mov	r4, r2
    8308:	e3520003 	cmp	r2, #3, 0
    830c:	979ff102 	ldrls	pc, [pc, r2, lsl #2]
    8310:	ea000007 	b	8334 <mpu6500_gyro_init+0x40>
    8314:	00008354 	andeq	r8, r0, r4, asr r3
    8318:	00008398 	muleq	r0, r8, r3
    831c:	00008324 	andeq	r8, r0, r4, lsr #6
    8320:	0000832c 	andeq	r8, r0, ip, lsr #6
    8324:	e3a07ffa 	mov	r7, #1000	; 0x3e8
    8328:	ea00000a 	b	8358 <mpu6500_gyro_init+0x64>
    832c:	e3a07e7d 	mov	r7, #2000	; 0x7d0
    8330:	ea000008 	b	8358 <mpu6500_gyro_init+0x64>
    8334:	e3a03000 	mov	r3, #0, 0
    8338:	e58d3000 	str	r3, [sp]
    833c:	e3a0306b 	mov	r3, #107, 0	; 0x6b
    8340:	e59f2058 	ldr	r2, [pc, #88]	; 83a0 <mpu6500_gyro_init+0xac>
    8344:	e59f1058 	ldr	r1, [pc, #88]	; 83a4 <mpu6500_gyro_init+0xb0>
    8348:	e59f0058 	ldr	r0, [pc, #88]	; 83a8 <mpu6500_gyro_init+0xb4>
    834c:	eb00036d 	bl	9108 <printk>
    8350:	eb0005fd 	bl	9b4c <clean_reboot>
    8354:	e3a070fa 	mov	r7, #250, 0	; 0xfa
    8358:	e3a02004 	mov	r2, #4, 0
    835c:	e3a0101a 	mov	r1, #26, 0
    8360:	e1a00006 	mov	r0, r6
    8364:	ebffffca 	bl	8294 <imu_wr>
    8368:	e1a02184 	lsl	r2, r4, #3
    836c:	e20220f8 	and	r2, r2, #248, 0	; 0xf8
    8370:	e3a0101b 	mov	r1, #27, 0
    8374:	e1a00006 	mov	r0, r6
    8378:	ebffffc5 	bl	8294 <imu_wr>
    837c:	e5c56000 	strb	r6, [r5]
    8380:	e3a03014 	mov	r3, #20, 0
    8384:	e5853004 	str	r3, [r5, #4]
    8388:	e5857008 	str	r7, [r5, #8]
    838c:	e1a00005 	mov	r0, r5
    8390:	e28dd00c 	add	sp, sp, #12, 0
    8394:	e8bd80f0 	pop	{r4, r5, r6, r7, pc}
    8398:	e3a07f7d 	mov	r7, #500	; 0x1f4
    839c:	eaffffed 	b	8358 <mpu6500_gyro_init+0x64>
    83a0:	0000a334 	andeq	sl, r0, r4, lsr r3
    83a4:	0000a150 	andeq	sl, r0, r0, asr r1
    83a8:	0000a214 	andeq	sl, r0, r4, lsl r2

000083ac <gyro_has_data>:
    83ac:	e3a00001 	mov	r0, #1, 0
    83b0:	e12fff1e 	bx	lr

000083b4 <gyro_rd>:
    83b4:	e92d41f0 	push	{r4, r5, r6, r7, r8, lr}
    83b8:	e1a05000 	mov	r5, r0
    83bc:	e1a04001 	mov	r4, r1
    83c0:	e5d16000 	ldrb	r6, [r1]
    83c4:	e1a00004 	mov	r0, r4
    83c8:	ebfffff7 	bl	83ac <gyro_has_data>
    83cc:	e3500000 	cmp	r0, #0, 0
    83d0:	0afffffb 	beq	83c4 <gyro_rd+0x10>
    83d4:	e3a01043 	mov	r1, #67, 0	; 0x43
    83d8:	e1a00006 	mov	r0, r6
    83dc:	ebffff9e 	bl	825c <imu_rd>
    83e0:	e1a04000 	mov	r4, r0
    83e4:	e3a01044 	mov	r1, #68, 0	; 0x44
    83e8:	e1a00006 	mov	r0, r6
    83ec:	ebffff9a 	bl	825c <imu_rd>
    83f0:	e1a01000 	mov	r1, r0
    83f4:	e1a00004 	mov	r0, r4
    83f8:	ebffff0e 	bl	8038 <mg_raw>
    83fc:	e1a07000 	mov	r7, r0
    8400:	e3a01045 	mov	r1, #69, 0	; 0x45
    8404:	e1a00006 	mov	r0, r6
    8408:	ebffff93 	bl	825c <imu_rd>
    840c:	e1a04000 	mov	r4, r0
    8410:	e3a01046 	mov	r1, #70, 0	; 0x46
    8414:	e1a00006 	mov	r0, r6
    8418:	ebffff8f 	bl	825c <imu_rd>
    841c:	e1a01000 	mov	r1, r0
    8420:	e1a00004 	mov	r0, r4
    8424:	ebffff03 	bl	8038 <mg_raw>
    8428:	e1a04000 	mov	r4, r0
    842c:	e3a01047 	mov	r1, #71, 0	; 0x47
    8430:	e1a00006 	mov	r0, r6
    8434:	ebffff88 	bl	825c <imu_rd>
    8438:	e1a08000 	mov	r8, r0
    843c:	e3a01048 	mov	r1, #72, 0	; 0x48
    8440:	e1a00006 	mov	r0, r6
    8444:	ebffff84 	bl	825c <imu_rd>
    8448:	e1a01000 	mov	r1, r0
    844c:	e1a00008 	mov	r0, r8
    8450:	ebfffef8 	bl	8038 <mg_raw>
    8454:	e5857000 	str	r7, [r5]
    8458:	e5854004 	str	r4, [r5, #4]
    845c:	e5850008 	str	r0, [r5, #8]
    8460:	e1a00005 	mov	r0, r5
    8464:	e8bd81f0 	pop	{r4, r5, r6, r7, r8, pc}

00008468 <gyro_scale>:
    8468:	e24dd008 	sub	sp, sp, #8, 0
    846c:	e92d41f0 	push	{r4, r5, r6, r7, r8, lr}
    8470:	e1a04000 	mov	r4, r0
    8474:	e28d0014 	add	r0, sp, #20, 0
    8478:	e980000c 	stmib	r0, {r2, r3}
    847c:	e5917008 	ldr	r7, [r1, #8]
    8480:	e1a01007 	mov	r1, r7
    8484:	e59d0018 	ldr	r0, [sp, #24]
    8488:	ebfffeed 	bl	8044 <mdps_scale_deg2>
    848c:	e1a06000 	mov	r6, r0
    8490:	e1a01007 	mov	r1, r7
    8494:	e59d001c 	ldr	r0, [sp, #28]
    8498:	ebfffee9 	bl	8044 <mdps_scale_deg2>
    849c:	e1a05000 	mov	r5, r0
    84a0:	e1a01007 	mov	r1, r7
    84a4:	e59d0020 	ldr	r0, [sp, #32]
    84a8:	ebfffee5 	bl	8044 <mdps_scale_deg2>
    84ac:	e5846000 	str	r6, [r4]
    84b0:	e5845004 	str	r5, [r4, #4]
    84b4:	e5840008 	str	r0, [r4, #8]
    84b8:	e1a00004 	mov	r0, r4
    84bc:	e8bd41f0 	pop	{r4, r5, r6, r7, r8, lr}
    84c0:	e28dd008 	add	sp, sp, #8, 0
    84c4:	e12fff1e 	bx	lr

000084c8 <mpu6500_reset>:
    84c8:	e92d4010 	push	{r4, lr}
    84cc:	e1a04000 	mov	r4, r0
    84d0:	e3a02080 	mov	r2, #128, 0	; 0x80
    84d4:	e3a0106b 	mov	r1, #107, 0	; 0x6b
    84d8:	ebffff6d 	bl	8294 <imu_wr>
    84dc:	e3a00064 	mov	r0, #100, 0	; 0x64
    84e0:	eb000636 	bl	9dc0 <delay_ms>
    84e4:	e3a02000 	mov	r2, #0, 0
    84e8:	e3a0106b 	mov	r1, #107, 0	; 0x6b
    84ec:	e1a00004 	mov	r0, r4
    84f0:	ebffff67 	bl	8294 <imu_wr>
    84f4:	e8bd8010 	pop	{r4, pc}

000084f8 <notmain>:
    84f8:	e92d4070 	push	{r4, r5, r6, lr}
    84fc:	e24dd038 	sub	sp, sp, #56, 0	; 0x38
    8500:	e3a00064 	mov	r0, #100, 0	; 0x64
    8504:	eb00062d 	bl	9dc0 <delay_ms>
    8508:	eb000269 	bl	8eb4 <i2c_init>
    850c:	e3a00064 	mov	r0, #100, 0	; 0x64
    8510:	eb00062a 	bl	9dc0 <delay_ms>
    8514:	e3a01075 	mov	r1, #117, 0	; 0x75
    8518:	e3a00068 	mov	r0, #104, 0	; 0x68
    851c:	ebffff4e 	bl	825c <imu_rd>
    8520:	e1a01000 	mov	r1, r0
    8524:	e2403070 	sub	r3, r0, #112, 0	; 0x70
    8528:	e6ef3073 	uxtb	r3, r3
    852c:	e3500068 	cmp	r0, #104, 0	; 0x68
    8530:	13530001 	cmpne	r3, #1, 0
    8534:	8a000039 	bhi	8620 <notmain+0x128>
    8538:	e59f013c 	ldr	r0, [pc, #316]	; 867c <notmain+0x184>
    853c:	eb0002f1 	bl	9108 <printk>
    8540:	e3a00068 	mov	r0, #104, 0	; 0x68
    8544:	ebffffdf 	bl	84c8 <mpu6500_reset>
    8548:	e3a030f5 	mov	r3, #245, 0	; 0xf5
    854c:	e3a02000 	mov	r2, #0, 0
    8550:	e1a01002 	mov	r1, r2
    8554:	e1a00002 	mov	r0, r2
    8558:	ebffff0c 	bl	8190 <test_dps>
    855c:	e3a030f5 	mov	r3, #245, 0	; 0xf5
    8560:	e3a020a4 	mov	r2, #164, 0	; 0xa4
    8564:	e3a0102c 	mov	r1, #44, 0	; 0x2c
    8568:	e3a00064 	mov	r0, #100, 0	; 0x64
    856c:	ebffff07 	bl	8190 <test_dps>
    8570:	e3a030f5 	mov	r3, #245, 0	; 0xf5
    8574:	e3a02049 	mov	r2, #73, 0	; 0x49
    8578:	e3a01059 	mov	r1, #89, 0	; 0x59
    857c:	e3a000c8 	mov	r0, #200, 0	; 0xc8
    8580:	ebffff02 	bl	8190 <test_dps>
    8584:	e3a030f5 	mov	r3, #245, 0	; 0xf5
    8588:	e3a0205c 	mov	r2, #92, 0	; 0x5c
    858c:	e3a010d3 	mov	r1, #211, 0	; 0xd3
    8590:	e3e00063 	mvn	r0, #99, 0	; 0x63
    8594:	ebfffefd 	bl	8190 <test_dps>
    8598:	e3a02000 	mov	r2, #0, 0
    859c:	e3a01068 	mov	r1, #104, 0	; 0x68
    85a0:	e28d0020 	add	r0, sp, #32, 0
    85a4:	ebffff52 	bl	82f4 <mpu6500_gyro_init>
    85a8:	e59d3028 	ldr	r3, [sp, #40]	; 0x28
    85ac:	e35300fa 	cmp	r3, #250, 0	; 0xfa
    85b0:	1a000027 	bne	8654 <notmain+0x15c>
    85b4:	e3a06000 	mov	r6, #0, 0
    85b8:	e3560063 	cmp	r6, #99, 0	; 0x63
    85bc:	ca00002c 	bgt	8674 <notmain+0x17c>
    85c0:	e28d4014 	add	r4, sp, #20, 0
    85c4:	e28d1020 	add	r1, sp, #32, 0
    85c8:	e1a00004 	mov	r0, r4
    85cc:	ebffff78 	bl	83b4 <gyro_rd>
    85d0:	e1a01006 	mov	r1, r6
    85d4:	e59f00a4 	ldr	r0, [pc, #164]	; 8680 <notmain+0x188>
    85d8:	eb0002ca 	bl	9108 <printk>
    85dc:	e894000e 	ldm	r4, {r1, r2, r3}
    85e0:	e59f009c 	ldr	r0, [pc, #156]	; 8684 <notmain+0x18c>
    85e4:	ebffff0e 	bl	8224 <xyz_print>
    85e8:	e28d502c 	add	r5, sp, #44, 0	; 0x2c
    85ec:	e59d301c 	ldr	r3, [sp, #28]
    85f0:	e58d3000 	str	r3, [sp]
    85f4:	e894000c 	ldm	r4, {r2, r3}
    85f8:	e28d1020 	add	r1, sp, #32, 0
    85fc:	e1a00005 	mov	r0, r5
    8600:	ebffff98 	bl	8468 <gyro_scale>
    8604:	e895000e 	ldm	r5, {r1, r2, r3}
    8608:	e59f0078 	ldr	r0, [pc, #120]	; 8688 <notmain+0x190>
    860c:	ebffff04 	bl	8224 <xyz_print>
    8610:	e3a00ffa 	mov	r0, #1000	; 0x3e8
    8614:	eb0005e9 	bl	9dc0 <delay_ms>
    8618:	e2866001 	add	r6, r6, #1, 0
    861c:	eaffffe5 	b	85b8 <notmain+0xc0>
    8620:	e58d000c 	str	r0, [sp, #12]
    8624:	e3a03068 	mov	r3, #104, 0	; 0x68
    8628:	e58d3008 	str	r3, [sp, #8]
    862c:	e3a03071 	mov	r3, #113, 0	; 0x71
    8630:	e58d3004 	str	r3, [sp, #4]
    8634:	e3a03070 	mov	r3, #112, 0	; 0x70
    8638:	e58d3000 	str	r3, [sp]
    863c:	e3a030e3 	mov	r3, #227, 0	; 0xe3
    8640:	e59f2044 	ldr	r2, [pc, #68]	; 868c <notmain+0x194>
    8644:	e59f1044 	ldr	r1, [pc, #68]	; 8690 <notmain+0x198>
    8648:	e59f0044 	ldr	r0, [pc, #68]	; 8694 <notmain+0x19c>
    864c:	eb0002ad 	bl	9108 <printk>
    8650:	eb00053d 	bl	9b4c <clean_reboot>
    8654:	e59f303c 	ldr	r3, [pc, #60]	; 8698 <notmain+0x1a0>
    8658:	e58d3000 	str	r3, [sp]
    865c:	e3a030f7 	mov	r3, #247, 0	; 0xf7
    8660:	e59f2024 	ldr	r2, [pc, #36]	; 868c <notmain+0x194>
    8664:	e59f1024 	ldr	r1, [pc, #36]	; 8690 <notmain+0x198>
    8668:	e59f002c 	ldr	r0, [pc, #44]	; 869c <notmain+0x1a4>
    866c:	eb0002a5 	bl	9108 <printk>
    8670:	eb000535 	bl	9b4c <clean_reboot>
    8674:	e28dd038 	add	sp, sp, #56, 0	; 0x38
    8678:	e8bd8070 	pop	{r4, r5, r6, pc}
    867c:	0000a280 	andeq	sl, r0, r0, lsl #5
    8680:	0000a2d8 	ldrdeq	sl, [r0], -r8
    8684:	0000a2ec 	andeq	sl, r0, ip, ror #5
    8688:	0000a2f4 	strdeq	sl, [r0], -r4
    868c:	0000a348 	andeq	sl, r0, r8, asr #6
    8690:	0000a150 	andeq	sl, r0, r0, asr r1
    8694:	0000a238 	andeq	sl, r0, r8, lsr r2
    8698:	0000a2cc 	andeq	sl, r0, ip, asr #5
    869c:	0000a2b8 			; <UNDEFINED> instruction: 0x0000a2b8

000086a0 <clear_c>:
    86a0:	e3c00b1e 	bic	r0, r0, #30720	; 0x7800
    86a4:	e3c0004e 	bic	r0, r0, #78, 0	; 0x4e
    86a8:	e6ff0070 	uxth	r0, r0
    86ac:	e12fff1e 	bx	lr

000086b0 <clear_s>:
    86b0:	e1a00b00 	lsl	r0, r0, #22
    86b4:	e1a00b20 	lsr	r0, r0, #22
    86b8:	e12fff1e 	bx	lr

000086bc <check_layout>:
    86bc:	e52de004 	push	{lr}		; (str lr, [sp, #-4]!)
    86c0:	e49df004 	pop	{pc}		; (ldr pc, [sp], #4)

000086c4 <xfer_end>:
    86c4:	e52de004 	push	{lr}		; (str lr, [sp, #-4]!)
    86c8:	e24dd00c 	sub	sp, sp, #12, 0
    86cc:	e59f30c4 	ldr	r3, [pc, #196]	; 8798 <xfer_end+0xd4>
    86d0:	e5933004 	ldr	r3, [r3, #4]
    86d4:	e3130002 	tst	r3, #2, 0
    86d8:	1a000013 	bne	872c <xfer_end+0x68>
    86dc:	e59f30b4 	ldr	r3, [pc, #180]	; 8798 <xfer_end+0xd4>
    86e0:	e5933004 	ldr	r3, [r3, #4]
    86e4:	e3130c01 	tst	r3, #256	; 0x100
    86e8:	1a000009 	bne	8714 <xfer_end+0x50>
    86ec:	e59f30a4 	ldr	r3, [pc, #164]	; 8798 <xfer_end+0xd4>
    86f0:	e5933004 	ldr	r3, [r3, #4]
    86f4:	e3130c02 	tst	r3, #512	; 0x200
    86f8:	0afffff3 	beq	86cc <xfer_end+0x8>
    86fc:	e3a03f46 	mov	r3, #280	; 0x118
    8700:	e59f2094 	ldr	r2, [pc, #148]	; 879c <xfer_end+0xd8>
    8704:	e59f1094 	ldr	r1, [pc, #148]	; 87a0 <xfer_end+0xdc>
    8708:	e59f0094 	ldr	r0, [pc, #148]	; 87a4 <xfer_end+0xe0>
    870c:	eb00027d 	bl	9108 <printk>
    8710:	eb00050d 	bl	9b4c <clean_reboot>
    8714:	e3a03f46 	mov	r3, #280	; 0x118
    8718:	e59f207c 	ldr	r2, [pc, #124]	; 879c <xfer_end+0xd8>
    871c:	e59f107c 	ldr	r1, [pc, #124]	; 87a0 <xfer_end+0xdc>
    8720:	e59f0080 	ldr	r0, [pc, #128]	; 87a8 <xfer_end+0xe4>
    8724:	eb000277 	bl	9108 <printk>
    8728:	eb000507 	bl	9b4c <clean_reboot>
    872c:	e59f3064 	ldr	r3, [pc, #100]	; 8798 <xfer_end+0xd4>
    8730:	e5933004 	ldr	r3, [r3, #4]
    8734:	e3130001 	tst	r3, #1, 0
    8738:	1a000006 	bne	8758 <xfer_end+0x94>
    873c:	e59f3054 	ldr	r3, [pc, #84]	; 8798 <xfer_end+0xd4>
    8740:	e5933004 	ldr	r3, [r3, #4]
    8744:	e3130c01 	tst	r3, #256	; 0x100
    8748:	1a00000a 	bne	8778 <xfer_end+0xb4>
    874c:	eb000554 	bl	9ca4 <dev_barrier>
    8750:	e28dd00c 	add	sp, sp, #12, 0
    8754:	e49df004 	pop	{pc}		; (ldr pc, [sp], #4)
    8758:	e59f304c 	ldr	r3, [pc, #76]	; 87ac <xfer_end+0xe8>
    875c:	e58d3000 	str	r3, [sp]
    8760:	e59f3048 	ldr	r3, [pc, #72]	; 87b0 <xfer_end+0xec>
    8764:	e59f2030 	ldr	r2, [pc, #48]	; 879c <xfer_end+0xd8>
    8768:	e59f1030 	ldr	r1, [pc, #48]	; 87a0 <xfer_end+0xdc>
    876c:	e59f0040 	ldr	r0, [pc, #64]	; 87b4 <xfer_end+0xf0>
    8770:	eb000264 	bl	9108 <printk>
    8774:	eb0004f4 	bl	9b4c <clean_reboot>
    8778:	e59f3038 	ldr	r3, [pc, #56]	; 87b8 <xfer_end+0xf4>
    877c:	e58d3000 	str	r3, [sp]
    8780:	e59f3034 	ldr	r3, [pc, #52]	; 87bc <xfer_end+0xf8>
    8784:	e59f2010 	ldr	r2, [pc, #16]	; 879c <xfer_end+0xd8>
    8788:	e59f1010 	ldr	r1, [pc, #16]	; 87a0 <xfer_end+0xdc>
    878c:	e59f0020 	ldr	r0, [pc, #32]	; 87b4 <xfer_end+0xf0>
    8790:	eb00025c 	bl	9108 <printk>
    8794:	eb0004ec 	bl	9b4c <clean_reboot>
    8798:	20804000 	addcs	r4, r0, r0
    879c:	0000a5b0 			; <UNDEFINED> instruction: 0x0000a5b0
    87a0:	0000a350 	andeq	sl, r0, r0, asr r3
    87a4:	0000a46c 	andeq	sl, r0, ip, ror #8
    87a8:	0000a448 	andeq	sl, r0, r8, asr #8
    87ac:	0000a49c 	muleq	r0, ip, r4
    87b0:	0000011b 	andeq	r0, r0, fp, lsl r1
    87b4:	0000a2b8 			; <UNDEFINED> instruction: 0x0000a2b8
    87b8:	0000a4b0 			; <UNDEFINED> instruction: 0x0000a4b0
    87bc:	0000011d 	andeq	r0, r0, sp, lsl r1

000087c0 <read_s>:
    87c0:	e92d4010 	push	{r4, lr}
    87c4:	ebfffe18 	bl	802c <GET32>
    87c8:	ebffffb8 	bl	86b0 <clear_s>
    87cc:	e8bd8010 	pop	{r4, pc}

000087d0 <reset_status>:
    87d0:	e92d4010 	push	{r4, lr}
    87d4:	e59f4018 	ldr	r4, [pc, #24]	; 87f4 <reset_status+0x24>
    87d8:	e1a00004 	mov	r0, r4
    87dc:	ebfffff7 	bl	87c0 <read_s>
    87e0:	e3801c03 	orr	r1, r0, #768	; 0x300
    87e4:	e3811002 	orr	r1, r1, #2, 0
    87e8:	e1a00004 	mov	r0, r4
    87ec:	ebfffe0c 	bl	8024 <PUT32>
    87f0:	e8bd8010 	pop	{r4, pc}
    87f4:	20804004 	addcs	r4, r0, r4

000087f8 <read_c>:
    87f8:	e92d4010 	push	{r4, lr}
    87fc:	ebfffe0a 	bl	802c <GET32>
    8800:	ebffffa6 	bl	86a0 <clear_c>
    8804:	e8bd8010 	pop	{r4, pc}

00008808 <xfer_start>:
    8808:	e92d4070 	push	{r4, r5, r6, lr}
    880c:	e24dd008 	sub	sp, sp, #8, 0
    8810:	e1a06000 	mov	r6, r0
    8814:	e1a05001 	mov	r5, r1
    8818:	e1a04002 	mov	r4, r2
    881c:	eb000520 	bl	9ca4 <dev_barrier>
    8820:	e59f3180 	ldr	r3, [pc, #384]	; 89a8 <xfer_start+0x1a0>
    8824:	e5933004 	ldr	r3, [r3, #4]
    8828:	e3130001 	tst	r3, #1, 0
    882c:	0a000013 	beq	8880 <xfer_start+0x78>
    8830:	e59f3170 	ldr	r3, [pc, #368]	; 89a8 <xfer_start+0x1a0>
    8834:	e5933004 	ldr	r3, [r3, #4]
    8838:	e3130c01 	tst	r3, #256	; 0x100
    883c:	1a000009 	bne	8868 <xfer_start+0x60>
    8840:	e59f3160 	ldr	r3, [pc, #352]	; 89a8 <xfer_start+0x1a0>
    8844:	e5933004 	ldr	r3, [r3, #4]
    8848:	e3130c02 	tst	r3, #512	; 0x200
    884c:	0afffff3 	beq	8820 <xfer_start+0x18>
    8850:	e3a030f7 	mov	r3, #247, 0	; 0xf7
    8854:	e59f2150 	ldr	r2, [pc, #336]	; 89ac <xfer_start+0x1a4>
    8858:	e59f1150 	ldr	r1, [pc, #336]	; 89b0 <xfer_start+0x1a8>
    885c:	e59f0150 	ldr	r0, [pc, #336]	; 89b4 <xfer_start+0x1ac>
    8860:	eb000228 	bl	9108 <printk>
    8864:	eb0004b8 	bl	9b4c <clean_reboot>
    8868:	e3a030f7 	mov	r3, #247, 0	; 0xf7
    886c:	e59f2138 	ldr	r2, [pc, #312]	; 89ac <xfer_start+0x1a4>
    8870:	e59f1138 	ldr	r1, [pc, #312]	; 89b0 <xfer_start+0x1a8>
    8874:	e59f013c 	ldr	r0, [pc, #316]	; 89b8 <xfer_start+0x1b0>
    8878:	eb000222 	bl	9108 <printk>
    887c:	eb0004b2 	bl	9b4c <clean_reboot>
    8880:	e59f3120 	ldr	r3, [pc, #288]	; 89a8 <xfer_start+0x1a0>
    8884:	e5933004 	ldr	r3, [r3, #4]
    8888:	e3130040 	tst	r3, #64, 0	; 0x40
    888c:	0a000025 	beq	8928 <xfer_start+0x120>
    8890:	ebffffce 	bl	87d0 <reset_status>
    8894:	e1b033a6 	lsrs	r3, r6, #7
    8898:	1a00002a 	bne	8948 <xfer_start+0x140>
    889c:	e1a01006 	mov	r1, r6
    88a0:	e59f0114 	ldr	r0, [pc, #276]	; 89bc <xfer_start+0x1b4>
    88a4:	ebfffdde 	bl	8024 <PUT32>
    88a8:	e1b03825 	lsrs	r3, r5, #16
    88ac:	1a00002d 	bne	8968 <xfer_start+0x160>
    88b0:	e1a01005 	mov	r1, r5
    88b4:	e59f0104 	ldr	r0, [pc, #260]	; 89c0 <xfer_start+0x1b8>
    88b8:	ebfffdd9 	bl	8024 <PUT32>
    88bc:	e59f50e4 	ldr	r5, [pc, #228]	; 89a8 <xfer_start+0x1a0>
    88c0:	e1a00005 	mov	r0, r5
    88c4:	ebffffcb 	bl	87f8 <read_c>
    88c8:	e38030b0 	orr	r3, r0, #176, 0	; 0xb0
    88cc:	e2041001 	and	r1, r4, #1, 0
    88d0:	e3c33001 	bic	r3, r3, #1, 0
    88d4:	e1811003 	orr	r1, r1, r3
    88d8:	e1a00005 	mov	r0, r5
    88dc:	ebfffdd0 	bl	8024 <PUT32>
    88e0:	e59f30c0 	ldr	r3, [pc, #192]	; 89a8 <xfer_start+0x1a0>
    88e4:	e5933004 	ldr	r3, [r3, #4]
    88e8:	e3130001 	tst	r3, #1, 0
    88ec:	1a00002b 	bne	89a0 <xfer_start+0x198>
    88f0:	e59f30b0 	ldr	r3, [pc, #176]	; 89a8 <xfer_start+0x1a0>
    88f4:	e5933004 	ldr	r3, [r3, #4]
    88f8:	e3130c01 	tst	r3, #256	; 0x100
    88fc:	1a000021 	bne	8988 <xfer_start+0x180>
    8900:	e59f30a0 	ldr	r3, [pc, #160]	; 89a8 <xfer_start+0x1a0>
    8904:	e5933004 	ldr	r3, [r3, #4]
    8908:	e3130c02 	tst	r3, #512	; 0x200
    890c:	0afffff3 	beq	88e0 <xfer_start+0xd8>
    8910:	e59f30ac 	ldr	r3, [pc, #172]	; 89c4 <xfer_start+0x1bc>
    8914:	e59f2090 	ldr	r2, [pc, #144]	; 89ac <xfer_start+0x1a4>
    8918:	e59f1090 	ldr	r1, [pc, #144]	; 89b0 <xfer_start+0x1a8>
    891c:	e59f0090 	ldr	r0, [pc, #144]	; 89b4 <xfer_start+0x1ac>
    8920:	eb0001f8 	bl	9108 <printk>
    8924:	eb000488 	bl	9b4c <clean_reboot>
    8928:	e59f3098 	ldr	r3, [pc, #152]	; 89c8 <xfer_start+0x1c0>
    892c:	e58d3000 	str	r3, [sp]
    8930:	e3a030fa 	mov	r3, #250, 0	; 0xfa
    8934:	e59f2070 	ldr	r2, [pc, #112]	; 89ac <xfer_start+0x1a4>
    8938:	e59f1070 	ldr	r1, [pc, #112]	; 89b0 <xfer_start+0x1a8>
    893c:	e59f0088 	ldr	r0, [pc, #136]	; 89cc <xfer_start+0x1c4>
    8940:	eb0001f0 	bl	9108 <printk>
    8944:	eb000480 	bl	9b4c <clean_reboot>
    8948:	e59f3080 	ldr	r3, [pc, #128]	; 89d0 <xfer_start+0x1c8>
    894c:	e58d3000 	str	r3, [sp]
    8950:	e3a030ff 	mov	r3, #255, 0	; 0xff
    8954:	e59f2050 	ldr	r2, [pc, #80]	; 89ac <xfer_start+0x1a4>
    8958:	e59f1050 	ldr	r1, [pc, #80]	; 89b0 <xfer_start+0x1a8>
    895c:	e59f0068 	ldr	r0, [pc, #104]	; 89cc <xfer_start+0x1c4>
    8960:	eb0001e8 	bl	9108 <printk>
    8964:	eb000478 	bl	9b4c <clean_reboot>
    8968:	e59f3064 	ldr	r3, [pc, #100]	; 89d4 <xfer_start+0x1cc>
    896c:	e58d3000 	str	r3, [sp]
    8970:	e59f3060 	ldr	r3, [pc, #96]	; 89d8 <xfer_start+0x1d0>
    8974:	e59f2030 	ldr	r2, [pc, #48]	; 89ac <xfer_start+0x1a4>
    8978:	e59f1030 	ldr	r1, [pc, #48]	; 89b0 <xfer_start+0x1a8>
    897c:	e59f0048 	ldr	r0, [pc, #72]	; 89cc <xfer_start+0x1c4>
    8980:	eb0001e0 	bl	9108 <printk>
    8984:	eb000470 	bl	9b4c <clean_reboot>
    8988:	e59f3034 	ldr	r3, [pc, #52]	; 89c4 <xfer_start+0x1bc>
    898c:	e59f2018 	ldr	r2, [pc, #24]	; 89ac <xfer_start+0x1a4>
    8990:	e59f1018 	ldr	r1, [pc, #24]	; 89b0 <xfer_start+0x1a8>
    8994:	e59f001c 	ldr	r0, [pc, #28]	; 89b8 <xfer_start+0x1b0>
    8998:	eb0001da 	bl	9108 <printk>
    899c:	eb00046a 	bl	9b4c <clean_reboot>
    89a0:	e28dd008 	add	sp, sp, #8, 0
    89a4:	e8bd8070 	pop	{r4, r5, r6, pc}
    89a8:	20804000 	addcs	r4, r0, r0
    89ac:	0000a5bc 			; <UNDEFINED> instruction: 0x0000a5bc
    89b0:	0000a350 	andeq	sl, r0, r0, asr r3
    89b4:	0000a46c 	andeq	sl, r0, ip, ror #8
    89b8:	0000a448 	andeq	sl, r0, r8, asr #8
    89bc:	2080400c 	addcs	r4, r0, ip
    89c0:	20804008 	addcs	r4, r0, r8
    89c4:	00000112 	andeq	r0, r0, r2, lsl r1
    89c8:	0000a4c4 	andeq	sl, r0, r4, asr #9
    89cc:	0000a2b8 			; <UNDEFINED> instruction: 0x0000a2b8
    89d0:	0000a4dc 	ldrdeq	sl, [r0], -ip
    89d4:	0000a4f0 	strdeq	sl, [r0], -r0
    89d8:	00000103 	andeq	r0, r0, r3, lsl #2

000089dc <xfer_start_hack>:
    89dc:	e92d4070 	push	{r4, r5, r6, lr}
    89e0:	e24dd008 	sub	sp, sp, #8, 0
    89e4:	e1a06000 	mov	r6, r0
    89e8:	e1a05001 	mov	r5, r1
    89ec:	e1a04002 	mov	r4, r2
    89f0:	eb0004ab 	bl	9ca4 <dev_barrier>
    89f4:	e59f3150 	ldr	r3, [pc, #336]	; 8b4c <xfer_start_hack+0x170>
    89f8:	e5933004 	ldr	r3, [r3, #4]
    89fc:	e3130001 	tst	r3, #1, 0
    8a00:	0a000013 	beq	8a54 <xfer_start_hack+0x78>
    8a04:	e59f3140 	ldr	r3, [pc, #320]	; 8b4c <xfer_start_hack+0x170>
    8a08:	e5933004 	ldr	r3, [r3, #4]
    8a0c:	e3130c01 	tst	r3, #256	; 0x100
    8a10:	1a000009 	bne	8a3c <xfer_start_hack+0x60>
    8a14:	e59f3130 	ldr	r3, [pc, #304]	; 8b4c <xfer_start_hack+0x170>
    8a18:	e5933004 	ldr	r3, [r3, #4]
    8a1c:	e3130c02 	tst	r3, #512	; 0x200
    8a20:	0afffff3 	beq	89f4 <xfer_start_hack+0x18>
    8a24:	e3a03f52 	mov	r3, #328	; 0x148
    8a28:	e59f2120 	ldr	r2, [pc, #288]	; 8b50 <xfer_start_hack+0x174>
    8a2c:	e59f1120 	ldr	r1, [pc, #288]	; 8b54 <xfer_start_hack+0x178>
    8a30:	e59f0120 	ldr	r0, [pc, #288]	; 8b58 <xfer_start_hack+0x17c>
    8a34:	eb0001b3 	bl	9108 <printk>
    8a38:	eb000443 	bl	9b4c <clean_reboot>
    8a3c:	e3a03f52 	mov	r3, #328	; 0x148
    8a40:	e59f2108 	ldr	r2, [pc, #264]	; 8b50 <xfer_start_hack+0x174>
    8a44:	e59f1108 	ldr	r1, [pc, #264]	; 8b54 <xfer_start_hack+0x178>
    8a48:	e59f010c 	ldr	r0, [pc, #268]	; 8b5c <xfer_start_hack+0x180>
    8a4c:	eb0001ad 	bl	9108 <printk>
    8a50:	eb00043d 	bl	9b4c <clean_reboot>
    8a54:	ebffff5d 	bl	87d0 <reset_status>
    8a58:	e1b033a6 	lsrs	r3, r6, #7
    8a5c:	1a000022 	bne	8aec <xfer_start_hack+0x110>
    8a60:	e1a01006 	mov	r1, r6
    8a64:	e59f00f4 	ldr	r0, [pc, #244]	; 8b60 <xfer_start_hack+0x184>
    8a68:	ebfffd6d 	bl	8024 <PUT32>
    8a6c:	e1b03825 	lsrs	r3, r5, #16
    8a70:	1a000025 	bne	8b0c <xfer_start_hack+0x130>
    8a74:	e1a01005 	mov	r1, r5
    8a78:	e59f00e4 	ldr	r0, [pc, #228]	; 8b64 <xfer_start_hack+0x188>
    8a7c:	ebfffd68 	bl	8024 <PUT32>
    8a80:	e59f50c4 	ldr	r5, [pc, #196]	; 8b4c <xfer_start_hack+0x170>
    8a84:	e1a00005 	mov	r0, r5
    8a88:	ebffff5a 	bl	87f8 <read_c>
    8a8c:	e38030b0 	orr	r3, r0, #176, 0	; 0xb0
    8a90:	e2041001 	and	r1, r4, #1, 0
    8a94:	e3c33001 	bic	r3, r3, #1, 0
    8a98:	e1811003 	orr	r1, r1, r3
    8a9c:	e1a00005 	mov	r0, r5
    8aa0:	ebfffd5f 	bl	8024 <PUT32>
    8aa4:	e59f30a0 	ldr	r3, [pc, #160]	; 8b4c <xfer_start_hack+0x170>
    8aa8:	e5933004 	ldr	r3, [r3, #4]
    8aac:	e3130001 	tst	r3, #1, 0
    8ab0:	1a000023 	bne	8b44 <xfer_start_hack+0x168>
    8ab4:	e59f3090 	ldr	r3, [pc, #144]	; 8b4c <xfer_start_hack+0x170>
    8ab8:	e5933004 	ldr	r3, [r3, #4]
    8abc:	e3130c01 	tst	r3, #256	; 0x100
    8ac0:	1a000019 	bne	8b2c <xfer_start_hack+0x150>
    8ac4:	e59f3080 	ldr	r3, [pc, #128]	; 8b4c <xfer_start_hack+0x170>
    8ac8:	e5933004 	ldr	r3, [r3, #4]
    8acc:	e3130c02 	tst	r3, #512	; 0x200
    8ad0:	0afffff3 	beq	8aa4 <xfer_start_hack+0xc8>
    8ad4:	e59f308c 	ldr	r3, [pc, #140]	; 8b68 <xfer_start_hack+0x18c>
    8ad8:	e59f2070 	ldr	r2, [pc, #112]	; 8b50 <xfer_start_hack+0x174>
    8adc:	e59f1070 	ldr	r1, [pc, #112]	; 8b54 <xfer_start_hack+0x178>
    8ae0:	e59f0070 	ldr	r0, [pc, #112]	; 8b58 <xfer_start_hack+0x17c>
    8ae4:	eb000187 	bl	9108 <printk>
    8ae8:	eb000417 	bl	9b4c <clean_reboot>
    8aec:	e59f3078 	ldr	r3, [pc, #120]	; 8b6c <xfer_start_hack+0x190>
    8af0:	e58d3000 	str	r3, [sp]
    8af4:	e3a03e15 	mov	r3, #336	; 0x150
    8af8:	e59f2050 	ldr	r2, [pc, #80]	; 8b50 <xfer_start_hack+0x174>
    8afc:	e59f1050 	ldr	r1, [pc, #80]	; 8b54 <xfer_start_hack+0x178>
    8b00:	e59f0068 	ldr	r0, [pc, #104]	; 8b70 <xfer_start_hack+0x194>
    8b04:	eb00017f 	bl	9108 <printk>
    8b08:	eb00040f 	bl	9b4c <clean_reboot>
    8b0c:	e59f3060 	ldr	r3, [pc, #96]	; 8b74 <xfer_start_hack+0x198>
    8b10:	e58d3000 	str	r3, [sp]
    8b14:	e3a03f55 	mov	r3, #340	; 0x154
    8b18:	e59f2030 	ldr	r2, [pc, #48]	; 8b50 <xfer_start_hack+0x174>
    8b1c:	e59f1030 	ldr	r1, [pc, #48]	; 8b54 <xfer_start_hack+0x178>
    8b20:	e59f0048 	ldr	r0, [pc, #72]	; 8b70 <xfer_start_hack+0x194>
    8b24:	eb000177 	bl	9108 <printk>
    8b28:	eb000407 	bl	9b4c <clean_reboot>
    8b2c:	e59f3034 	ldr	r3, [pc, #52]	; 8b68 <xfer_start_hack+0x18c>
    8b30:	e59f2018 	ldr	r2, [pc, #24]	; 8b50 <xfer_start_hack+0x174>
    8b34:	e59f1018 	ldr	r1, [pc, #24]	; 8b54 <xfer_start_hack+0x178>
    8b38:	e59f001c 	ldr	r0, [pc, #28]	; 8b5c <xfer_start_hack+0x180>
    8b3c:	eb000171 	bl	9108 <printk>
    8b40:	eb000401 	bl	9b4c <clean_reboot>
    8b44:	e28dd008 	add	sp, sp, #8, 0
    8b48:	e8bd8070 	pop	{r4, r5, r6, pc}
    8b4c:	20804000 	addcs	r4, r0, r0
    8b50:	0000a5c8 	andeq	sl, r0, r8, asr #11
    8b54:	0000a350 	andeq	sl, r0, r0, asr r3
    8b58:	0000a46c 	andeq	sl, r0, ip, ror #8
    8b5c:	0000a448 	andeq	sl, r0, r8, asr #8
    8b60:	2080400c 	addcs	r4, r0, ip
    8b64:	20804008 	addcs	r4, r0, r8
    8b68:	0000015e 	andeq	r0, r0, lr, asr r1
    8b6c:	0000a4dc 	ldrdeq	sl, [r0], -ip
    8b70:	0000a2b8 			; <UNDEFINED> instruction: 0x0000a2b8
    8b74:	0000a4f0 	strdeq	sl, [r0], -r0

00008b78 <i2c_write>:
    8b78:	e92d4070 	push	{r4, r5, r6, lr}
    8b7c:	e1a05001 	mov	r5, r1
    8b80:	e1a04002 	mov	r4, r2
    8b84:	e3a02000 	mov	r2, #0, 0
    8b88:	e1a01004 	mov	r1, r4
    8b8c:	ebffff1d 	bl	8808 <xfer_start>
    8b90:	e3a02000 	mov	r2, #0, 0
    8b94:	ea000009 	b	8bc0 <i2c_write+0x48>
    8b98:	e3a03f4a 	mov	r3, #296	; 0x128
    8b9c:	e59f2078 	ldr	r2, [pc, #120]	; 8c1c <i2c_write+0xa4>
    8ba0:	e59f1078 	ldr	r1, [pc, #120]	; 8c20 <i2c_write+0xa8>
    8ba4:	e59f0078 	ldr	r0, [pc, #120]	; 8c24 <i2c_write+0xac>
    8ba8:	eb000156 	bl	9108 <printk>
    8bac:	eb0003e6 	bl	9b4c <clean_reboot>
    8bb0:	e7d51002 	ldrb	r1, [r5, r2]
    8bb4:	e59f306c 	ldr	r3, [pc, #108]	; 8c28 <i2c_write+0xb0>
    8bb8:	e5831010 	str	r1, [r3, #16]
    8bbc:	e2822001 	add	r2, r2, #1, 0
    8bc0:	e1520004 	cmp	r2, r4
    8bc4:	2a000011 	bcs	8c10 <i2c_write+0x98>
    8bc8:	e59f3058 	ldr	r3, [pc, #88]	; 8c28 <i2c_write+0xb0>
    8bcc:	e5933004 	ldr	r3, [r3, #4]
    8bd0:	e3130010 	tst	r3, #16, 0
    8bd4:	1afffff5 	bne	8bb0 <i2c_write+0x38>
    8bd8:	e59f3048 	ldr	r3, [pc, #72]	; 8c28 <i2c_write+0xb0>
    8bdc:	e5933004 	ldr	r3, [r3, #4]
    8be0:	e3130c01 	tst	r3, #256	; 0x100
    8be4:	1affffeb 	bne	8b98 <i2c_write+0x20>
    8be8:	e59f3038 	ldr	r3, [pc, #56]	; 8c28 <i2c_write+0xb0>
    8bec:	e5933004 	ldr	r3, [r3, #4]
    8bf0:	e3130c02 	tst	r3, #512	; 0x200
    8bf4:	0afffff3 	beq	8bc8 <i2c_write+0x50>
    8bf8:	e3a03f4a 	mov	r3, #296	; 0x128
    8bfc:	e59f2018 	ldr	r2, [pc, #24]	; 8c1c <i2c_write+0xa4>
    8c00:	e59f1018 	ldr	r1, [pc, #24]	; 8c20 <i2c_write+0xa8>
    8c04:	e59f0020 	ldr	r0, [pc, #32]	; 8c2c <i2c_write+0xb4>
    8c08:	eb00013e 	bl	9108 <printk>
    8c0c:	eb0003ce 	bl	9b4c <clean_reboot>
    8c10:	ebfffeab 	bl	86c4 <xfer_end>
    8c14:	e3a00001 	mov	r0, #1, 0
    8c18:	e8bd8070 	pop	{r4, r5, r6, pc}
    8c1c:	0000a5d8 	ldrdeq	sl, [r0], -r8
    8c20:	0000a350 	andeq	sl, r0, r0, asr r3
    8c24:	0000a448 	andeq	sl, r0, r8, asr #8
    8c28:	20804000 	addcs	r4, r0, r0
    8c2c:	0000a46c 	andeq	sl, r0, ip, ror #8

00008c30 <i2c_read>:
    8c30:	e92d4070 	push	{r4, r5, r6, lr}
    8c34:	e1a05001 	mov	r5, r1
    8c38:	e1a04002 	mov	r4, r2
    8c3c:	e3a02001 	mov	r2, #1, 0
    8c40:	e1a01004 	mov	r1, r4
    8c44:	ebfffeef 	bl	8808 <xfer_start>
    8c48:	e3a02000 	mov	r2, #0, 0
    8c4c:	ea000009 	b	8c78 <i2c_read+0x48>
    8c50:	e59f307c 	ldr	r3, [pc, #124]	; 8cd4 <i2c_read+0xa4>
    8c54:	e59f207c 	ldr	r2, [pc, #124]	; 8cd8 <i2c_read+0xa8>
    8c58:	e59f107c 	ldr	r1, [pc, #124]	; 8cdc <i2c_read+0xac>
    8c5c:	e59f007c 	ldr	r0, [pc, #124]	; 8ce0 <i2c_read+0xb0>
    8c60:	eb000128 	bl	9108 <printk>
    8c64:	eb0003b8 	bl	9b4c <clean_reboot>
    8c68:	e59f3074 	ldr	r3, [pc, #116]	; 8ce4 <i2c_read+0xb4>
    8c6c:	e5933010 	ldr	r3, [r3, #16]
    8c70:	e7c53002 	strb	r3, [r5, r2]
    8c74:	e2822001 	add	r2, r2, #1, 0
    8c78:	e1520004 	cmp	r2, r4
    8c7c:	2a000011 	bcs	8cc8 <i2c_read+0x98>
    8c80:	e59f305c 	ldr	r3, [pc, #92]	; 8ce4 <i2c_read+0xb4>
    8c84:	e5933004 	ldr	r3, [r3, #4]
    8c88:	e3130020 	tst	r3, #32, 0
    8c8c:	1afffff5 	bne	8c68 <i2c_read+0x38>
    8c90:	e59f304c 	ldr	r3, [pc, #76]	; 8ce4 <i2c_read+0xb4>
    8c94:	e5933004 	ldr	r3, [r3, #4]
    8c98:	e3130c01 	tst	r3, #256	; 0x100
    8c9c:	1affffeb 	bne	8c50 <i2c_read+0x20>
    8ca0:	e59f303c 	ldr	r3, [pc, #60]	; 8ce4 <i2c_read+0xb4>
    8ca4:	e5933004 	ldr	r3, [r3, #4]
    8ca8:	e3130c02 	tst	r3, #512	; 0x200
    8cac:	0afffff3 	beq	8c80 <i2c_read+0x50>
    8cb0:	e59f301c 	ldr	r3, [pc, #28]	; 8cd4 <i2c_read+0xa4>
    8cb4:	e59f201c 	ldr	r2, [pc, #28]	; 8cd8 <i2c_read+0xa8>
    8cb8:	e59f101c 	ldr	r1, [pc, #28]	; 8cdc <i2c_read+0xac>
    8cbc:	e59f0024 	ldr	r0, [pc, #36]	; 8ce8 <i2c_read+0xb8>
    8cc0:	eb000110 	bl	9108 <printk>
    8cc4:	eb0003a0 	bl	9b4c <clean_reboot>
    8cc8:	ebfffe7d 	bl	86c4 <xfer_end>
    8ccc:	e3a00001 	mov	r0, #1, 0
    8cd0:	e8bd8070 	pop	{r4, r5, r6, pc}
    8cd4:	0000013a 	andeq	r0, r0, sl, lsr r1
    8cd8:	0000a5e4 	andeq	sl, r0, r4, ror #11
    8cdc:	0000a350 	andeq	sl, r0, r0, asr r3
    8ce0:	0000a448 	andeq	sl, r0, r8, asr #8
    8ce4:	20804000 	addcs	r4, r0, r0
    8ce8:	0000a46c 	andeq	sl, r0, ip, ror #8

00008cec <i2c_discover_addr>:
    8cec:	e92d4070 	push	{r4, r5, r6, lr}
    8cf0:	e1a05000 	mov	r5, r0
    8cf4:	e1a06001 	mov	r6, r1
    8cf8:	e3a04000 	mov	r4, #0, 0
    8cfc:	e35400ff 	cmp	r4, #255, 0	; 0xff
    8d00:	8a000054 	bhi	8e58 <i2c_discover_addr+0x16c>
    8d04:	e3a02001 	mov	r2, #1, 0
    8d08:	e1a01002 	mov	r1, r2
    8d0c:	e1a00004 	mov	r0, r4
    8d10:	ebffff31 	bl	89dc <xfer_start_hack>
    8d14:	e59f3154 	ldr	r3, [pc, #340]	; 8e70 <i2c_discover_addr+0x184>
    8d18:	e5933004 	ldr	r3, [r3, #4]
    8d1c:	e3130010 	tst	r3, #16, 0
    8d20:	1a000013 	bne	8d74 <i2c_discover_addr+0x88>
    8d24:	e59f3144 	ldr	r3, [pc, #324]	; 8e70 <i2c_discover_addr+0x184>
    8d28:	e5933004 	ldr	r3, [r3, #4]
    8d2c:	e3130c01 	tst	r3, #256	; 0x100
    8d30:	1a000009 	bne	8d5c <i2c_discover_addr+0x70>
    8d34:	e59f3134 	ldr	r3, [pc, #308]	; 8e70 <i2c_discover_addr+0x184>
    8d38:	e5933004 	ldr	r3, [r3, #4]
    8d3c:	e3130c02 	tst	r3, #512	; 0x200
    8d40:	0afffff3 	beq	8d14 <i2c_discover_addr+0x28>
    8d44:	e59f3128 	ldr	r3, [pc, #296]	; 8e74 <i2c_discover_addr+0x188>
    8d48:	e59f2128 	ldr	r2, [pc, #296]	; 8e78 <i2c_discover_addr+0x18c>
    8d4c:	e59f1128 	ldr	r1, [pc, #296]	; 8e7c <i2c_discover_addr+0x190>
    8d50:	e59f0128 	ldr	r0, [pc, #296]	; 8e80 <i2c_discover_addr+0x194>
    8d54:	eb0000eb 	bl	9108 <printk>
    8d58:	eb00037b 	bl	9b4c <clean_reboot>
    8d5c:	e59f3110 	ldr	r3, [pc, #272]	; 8e74 <i2c_discover_addr+0x188>
    8d60:	e59f2110 	ldr	r2, [pc, #272]	; 8e78 <i2c_discover_addr+0x18c>
    8d64:	e59f1110 	ldr	r1, [pc, #272]	; 8e7c <i2c_discover_addr+0x190>
    8d68:	e59f0114 	ldr	r0, [pc, #276]	; 8e84 <i2c_discover_addr+0x198>
    8d6c:	eb0000e5 	bl	9108 <printk>
    8d70:	eb000375 	bl	9b4c <clean_reboot>
    8d74:	e59f30f4 	ldr	r3, [pc, #244]	; 8e70 <i2c_discover_addr+0x184>
    8d78:	e5835010 	str	r5, [r3, #16]
    8d7c:	e59f30ec 	ldr	r3, [pc, #236]	; 8e70 <i2c_discover_addr+0x184>
    8d80:	e5933004 	ldr	r3, [r3, #4]
    8d84:	e3130010 	tst	r3, #16, 0
    8d88:	1a000013 	bne	8ddc <i2c_discover_addr+0xf0>
    8d8c:	e59f30dc 	ldr	r3, [pc, #220]	; 8e70 <i2c_discover_addr+0x184>
    8d90:	e5933004 	ldr	r3, [r3, #4]
    8d94:	e3130c01 	tst	r3, #256	; 0x100
    8d98:	1a000009 	bne	8dc4 <i2c_discover_addr+0xd8>
    8d9c:	e59f30cc 	ldr	r3, [pc, #204]	; 8e70 <i2c_discover_addr+0x184>
    8da0:	e5933004 	ldr	r3, [r3, #4]
    8da4:	e3130c02 	tst	r3, #512	; 0x200
    8da8:	0afffff3 	beq	8d7c <i2c_discover_addr+0x90>
    8dac:	e59f30d4 	ldr	r3, [pc, #212]	; 8e88 <i2c_discover_addr+0x19c>
    8db0:	e59f20c0 	ldr	r2, [pc, #192]	; 8e78 <i2c_discover_addr+0x18c>
    8db4:	e59f10c0 	ldr	r1, [pc, #192]	; 8e7c <i2c_discover_addr+0x190>
    8db8:	e59f00c0 	ldr	r0, [pc, #192]	; 8e80 <i2c_discover_addr+0x194>
    8dbc:	eb0000d1 	bl	9108 <printk>
    8dc0:	eb000361 	bl	9b4c <clean_reboot>
    8dc4:	e59f30bc 	ldr	r3, [pc, #188]	; 8e88 <i2c_discover_addr+0x19c>
    8dc8:	e59f20a8 	ldr	r2, [pc, #168]	; 8e78 <i2c_discover_addr+0x18c>
    8dcc:	e59f10a8 	ldr	r1, [pc, #168]	; 8e7c <i2c_discover_addr+0x190>
    8dd0:	e59f00ac 	ldr	r0, [pc, #172]	; 8e84 <i2c_discover_addr+0x198>
    8dd4:	eb0000cb 	bl	9108 <printk>
    8dd8:	eb00035b 	bl	9b4c <clean_reboot>
    8ddc:	e59f308c 	ldr	r3, [pc, #140]	; 8e70 <i2c_discover_addr+0x184>
    8de0:	e5836010 	str	r6, [r3, #16]
    8de4:	e59f3084 	ldr	r3, [pc, #132]	; 8e70 <i2c_discover_addr+0x184>
    8de8:	e5933004 	ldr	r3, [r3, #4]
    8dec:	e3130002 	tst	r3, #2, 0
    8df0:	1a00000d 	bne	8e2c <i2c_discover_addr+0x140>
    8df4:	e59f3074 	ldr	r3, [pc, #116]	; 8e70 <i2c_discover_addr+0x184>
    8df8:	e5933004 	ldr	r3, [r3, #4]
    8dfc:	e3130c01 	tst	r3, #256	; 0x100
    8e00:	1a00000f 	bne	8e44 <i2c_discover_addr+0x158>
    8e04:	e59f3064 	ldr	r3, [pc, #100]	; 8e70 <i2c_discover_addr+0x184>
    8e08:	e5933004 	ldr	r3, [r3, #4]
    8e0c:	e3130c02 	tst	r3, #512	; 0x200
    8e10:	0afffff3 	beq	8de4 <i2c_discover_addr+0xf8>
    8e14:	e59f3070 	ldr	r3, [pc, #112]	; 8e8c <i2c_discover_addr+0x1a0>
    8e18:	e59f2058 	ldr	r2, [pc, #88]	; 8e78 <i2c_discover_addr+0x18c>
    8e1c:	e59f1058 	ldr	r1, [pc, #88]	; 8e7c <i2c_discover_addr+0x190>
    8e20:	e59f0068 	ldr	r0, [pc, #104]	; 8e90 <i2c_discover_addr+0x1a4>
    8e24:	eb0000b7 	bl	9108 <printk>
    8e28:	eb000347 	bl	9b4c <clean_reboot>
    8e2c:	e1a01004 	mov	r1, r4
    8e30:	e59f005c 	ldr	r0, [pc, #92]	; 8e94 <i2c_discover_addr+0x1a8>
    8e34:	eb0000b3 	bl	9108 <printk>
    8e38:	ebfffe21 	bl	86c4 <xfer_end>
    8e3c:	e6ef0074 	uxtb	r0, r4
    8e40:	e8bd8070 	pop	{r4, r5, r6, pc}
    8e44:	e1a01004 	mov	r1, r4
    8e48:	e59f0048 	ldr	r0, [pc, #72]	; 8e98 <i2c_discover_addr+0x1ac>
    8e4c:	eb0000ad 	bl	9108 <printk>
    8e50:	e2844001 	add	r4, r4, #1, 0
    8e54:	eaffffa8 	b	8cfc <i2c_discover_addr+0x10>
    8e58:	e59f303c 	ldr	r3, [pc, #60]	; 8e9c <i2c_discover_addr+0x1b0>
    8e5c:	e59f2014 	ldr	r2, [pc, #20]	; 8e78 <i2c_discover_addr+0x18c>
    8e60:	e59f1014 	ldr	r1, [pc, #20]	; 8e7c <i2c_discover_addr+0x190>
    8e64:	e59f0034 	ldr	r0, [pc, #52]	; 8ea0 <i2c_discover_addr+0x1b4>
    8e68:	eb0000a6 	bl	9108 <printk>
    8e6c:	eb000336 	bl	9b4c <clean_reboot>
    8e70:	20804000 	addcs	r4, r0, r0
    8e74:	00000167 	andeq	r0, r0, r7, ror #2
    8e78:	0000a5f0 	strdeq	sl, [r0], -r0
    8e7c:	0000a350 	andeq	sl, r0, r0, asr r3
    8e80:	0000a46c 	andeq	sl, r0, ip, ror #8
    8e84:	0000a448 	andeq	sl, r0, r8, asr #8
    8e88:	00000169 	andeq	r0, r0, r9, ror #2
    8e8c:	00000177 	andeq	r0, r0, r7, ror r1
    8e90:	0000a550 	andeq	sl, r0, r0, asr r5
    8e94:	0000a508 	andeq	sl, r0, r8, lsl #10
    8e98:	0000a534 	andeq	sl, r0, r4, lsr r5
    8e9c:	0000017a 	andeq	r0, r0, sl, ror r1
    8ea0:	0000a580 	andeq	sl, r0, r0, lsl #11

00008ea4 <i2c_is_initialized>:
    8ea4:	e59f3004 	ldr	r3, [pc, #4]	; 8eb0 <i2c_is_initialized+0xc>
    8ea8:	e5930000 	ldr	r0, [r3]
    8eac:	e12fff1e 	bx	lr
    8eb0:	0000a7a4 	andeq	sl, r0, r4, lsr #15

00008eb4 <i2c_init>:
    8eb4:	e92d4010 	push	{r4, lr}
    8eb8:	e24dd008 	sub	sp, sp, #8, 0
    8ebc:	ebfffdfe 	bl	86bc <check_layout>
    8ec0:	eb000377 	bl	9ca4 <dev_barrier>
    8ec4:	e3a01004 	mov	r1, #4, 0
    8ec8:	e3a00002 	mov	r0, #2, 0
    8ecc:	eb000027 	bl	8f70 <gpio_set_function>
    8ed0:	e3a01004 	mov	r1, #4, 0
    8ed4:	e3a00003 	mov	r0, #3, 0
    8ed8:	eb000024 	bl	8f70 <gpio_set_function>
    8edc:	eb000370 	bl	9ca4 <dev_barrier>
    8ee0:	e59f4054 	ldr	r4, [pc, #84]	; 8f3c <i2c_init+0x88>
    8ee4:	e3a01902 	mov	r1, #32768	; 0x8000
    8ee8:	e1a00004 	mov	r0, r4
    8eec:	ebfffc4c 	bl	8024 <PUT32>
    8ef0:	eb00036b 	bl	9ca4 <dev_barrier>
    8ef4:	ebfffe35 	bl	87d0 <reset_status>
    8ef8:	eb000369 	bl	9ca4 <dev_barrier>
    8efc:	e5943004 	ldr	r3, [r4, #4]
    8f00:	e3130001 	tst	r3, #1, 0
    8f04:	1a000004 	bne	8f1c <i2c_init+0x68>
    8f08:	e59f3030 	ldr	r3, [pc, #48]	; 8f40 <i2c_init+0x8c>
    8f0c:	e3a02001 	mov	r2, #1, 0
    8f10:	e5832000 	str	r2, [r3]
    8f14:	e28dd008 	add	sp, sp, #8, 0
    8f18:	e8bd8010 	pop	{r4, pc}
    8f1c:	e59f3020 	ldr	r3, [pc, #32]	; 8f44 <i2c_init+0x90>
    8f20:	e58d3000 	str	r3, [sp]
    8f24:	e59f301c 	ldr	r3, [pc, #28]	; 8f48 <i2c_init+0x94>
    8f28:	e59f201c 	ldr	r2, [pc, #28]	; 8f4c <i2c_init+0x98>
    8f2c:	e59f101c 	ldr	r1, [pc, #28]	; 8f50 <i2c_init+0x9c>
    8f30:	e59f001c 	ldr	r0, [pc, #28]	; 8f54 <i2c_init+0xa0>
    8f34:	eb000073 	bl	9108 <printk>
    8f38:	eb000303 	bl	9b4c <clean_reboot>
    8f3c:	20804000 	addcs	r4, r0, r0
    8f40:	0000a7a4 	andeq	sl, r0, r4, lsr #15
    8f44:	0000a49c 	muleq	r0, ip, r4
    8f48:	000001aa 	andeq	r0, r0, sl, lsr #3
    8f4c:	0000a604 	andeq	sl, r0, r4, lsl #12
    8f50:	0000a350 	andeq	sl, r0, r0, asr r3
    8f54:	0000a2b8 			; <UNDEFINED> instruction: 0x0000a2b8

00008f58 <i2c_init_once>:
    8f58:	e92d4010 	push	{r4, lr}
    8f5c:	ebffffd0 	bl	8ea4 <i2c_is_initialized>
    8f60:	e3500000 	cmp	r0, #0, 0
    8f64:	18bd8010 	popne	{r4, pc}
    8f68:	ebffffd1 	bl	8eb4 <i2c_init>
    8f6c:	e8bd8010 	pop	{r4, pc}

00008f70 <gpio_set_function>:
    8f70:	e350001f 	cmp	r0, #31, 0
    8f74:	812fff1e 	bxhi	lr
    8f78:	e3d13007 	bics	r3, r1, #7, 0
    8f7c:	e92d4070 	push	{r4, r5, r6, lr}
    8f80:	e1a05001 	mov	r5, r1
    8f84:	18bd8070 	popne	{r4, r5, r6, pc}
    8f88:	e59f403c 	ldr	r4, [pc, #60]	; 8fcc <gpio_set_function+0x5c>
    8f8c:	e0843094 	umull	r3, r4, r4, r0
    8f90:	e1a041a4 	lsr	r4, r4, #3
    8f94:	e2843302 	add	r3, r4, #134217728	; 0x8000000
    8f98:	e2833702 	add	r3, r3, #524288	; 0x80000
    8f9c:	e1a06103 	lsl	r6, r3, #2
    8fa0:	e0844104 	add	r4, r4, r4, lsl #2
    8fa4:	e0404084 	sub	r4, r0, r4, lsl #1
    8fa8:	e1a00006 	mov	r0, r6
    8fac:	ebfffc1e 	bl	802c <GET32>
    8fb0:	e3a01007 	mov	r1, #7, 0
    8fb4:	e0844084 	add	r4, r4, r4, lsl #1
    8fb8:	e1c01411 	bic	r1, r0, r1, lsl r4
    8fbc:	e1811415 	orr	r1, r1, r5, lsl r4
    8fc0:	e1a00006 	mov	r0, r6
    8fc4:	e8bd4070 	pop	{r4, r5, r6, lr}
    8fc8:	eafffc15 	b	8024 <PUT32>
    8fcc:	cccccccd 	stclgt	12, cr12, [ip], {205}	; 0xcd

00008fd0 <gpio_set_output>:
    8fd0:	e350001f 	cmp	r0, #31, 0
    8fd4:	812fff1e 	bxhi	lr
    8fd8:	e92d4070 	push	{r4, r5, r6, lr}
    8fdc:	e59f4040 	ldr	r4, [pc, #64]	; 9024 <gpio_set_output+0x54>
    8fe0:	e0843094 	umull	r3, r4, r4, r0
    8fe4:	e1a041a4 	lsr	r4, r4, #3
    8fe8:	e2843302 	add	r3, r4, #134217728	; 0x8000000
    8fec:	e2833702 	add	r3, r3, #524288	; 0x80000
    8ff0:	e1a05103 	lsl	r5, r3, #2
    8ff4:	e0844104 	add	r4, r4, r4, lsl #2
    8ff8:	e0404084 	sub	r4, r0, r4, lsl #1
    8ffc:	e1a00005 	mov	r0, r5
    9000:	ebfffc09 	bl	802c <GET32>
    9004:	e3a03007 	mov	r3, #7, 0
    9008:	e3a01001 	mov	r1, #1, 0
    900c:	e0844084 	add	r4, r4, r4, lsl #1
    9010:	e1c03413 	bic	r3, r0, r3, lsl r4
    9014:	e1831411 	orr	r1, r3, r1, lsl r4
    9018:	e1a00005 	mov	r0, r5
    901c:	e8bd4070 	pop	{r4, r5, r6, lr}
    9020:	eafffbff 	b	8024 <PUT32>
    9024:	cccccccd 	stclgt	12, cr12, [ip], {205}	; 0xcd

00009028 <gpio_set_on>:
    9028:	e1a03000 	mov	r3, r0
    902c:	e3a01001 	mov	r1, #1, 0
    9030:	e59f0004 	ldr	r0, [pc, #4]	; 903c <gpio_set_on+0x14>
    9034:	e1a01311 	lsl	r1, r1, r3
    9038:	eafffbf9 	b	8024 <PUT32>
    903c:	2020001c 	eorcs	r0, r0, ip, lsl r0

00009040 <gpio_set_off>:
    9040:	e1a03000 	mov	r3, r0
    9044:	e3a01001 	mov	r1, #1, 0
    9048:	e59f0004 	ldr	r0, [pc, #4]	; 9054 <gpio_set_off+0x14>
    904c:	e1a01311 	lsl	r1, r1, r3
    9050:	eafffbf3 	b	8024 <PUT32>
    9054:	20200028 	eorcs	r0, r0, r8, lsr #32

00009058 <gpio_set_input>:
    9058:	e350001f 	cmp	r0, #31, 0
    905c:	812fff1e 	bxhi	lr
    9060:	e92d4070 	push	{r4, r5, r6, lr}
    9064:	e59f5040 	ldr	r5, [pc, #64]	; 90ac <gpio_set_input+0x54>
    9068:	e1a04000 	mov	r4, r0
    906c:	e0853095 	umull	r3, r5, r5, r0
    9070:	e1a051a5 	lsr	r5, r5, #3
    9074:	e2850302 	add	r0, r5, #134217728	; 0x8000000
    9078:	e2800702 	add	r0, r0, #524288	; 0x80000
    907c:	e1a06100 	lsl	r6, r0, #2
    9080:	e1a00006 	mov	r0, r6
    9084:	ebfffbe8 	bl	802c <GET32>
    9088:	e3a01007 	mov	r1, #7, 0
    908c:	e1a03000 	mov	r3, r0
    9090:	e0855105 	add	r5, r5, r5, lsl #2
    9094:	e0444085 	sub	r4, r4, r5, lsl #1
    9098:	e0844084 	add	r4, r4, r4, lsl #1
    909c:	e1a00006 	mov	r0, r6
    90a0:	e1c31411 	bic	r1, r3, r1, lsl r4
    90a4:	e8bd4070 	pop	{r4, r5, r6, lr}
    90a8:	eafffbdd 	b	8024 <PUT32>
    90ac:	cccccccd 	stclgt	12, cr12, [ip], {205}	; 0xcd

000090b0 <gpio_write>:
    90b0:	e3510000 	cmp	r1, #0, 0
    90b4:	e3a03001 	mov	r3, #1, 0
    90b8:	e1a01000 	mov	r1, r0
    90bc:	0a000002 	beq	90cc <gpio_write+0x1c>
    90c0:	e59f0010 	ldr	r0, [pc, #16]	; 90d8 <gpio_write+0x28>
    90c4:	e1a01113 	lsl	r1, r3, r1
    90c8:	eafffbd5 	b	8024 <PUT32>
    90cc:	e59f0008 	ldr	r0, [pc, #8]	; 90dc <gpio_write+0x2c>
    90d0:	e1a01113 	lsl	r1, r3, r1
    90d4:	eafffbd2 	b	8024 <PUT32>
    90d8:	2020001c 	eorcs	r0, r0, ip, lsl r0
    90dc:	20200028 	eorcs	r0, r0, r8, lsr #32

000090e0 <gpio_read>:
    90e0:	e92d4010 	push	{r4, lr}
    90e4:	e1a04000 	mov	r4, r0
    90e8:	e59f0014 	ldr	r0, [pc, #20]	; 9104 <gpio_read+0x24>
    90ec:	e08002a4 	add	r0, r0, r4, lsr #5
    90f0:	ebfffbcd 	bl	802c <GET32>
    90f4:	e204401f 	and	r4, r4, #31, 0
    90f8:	e1a00430 	lsr	r0, r0, r4
    90fc:	e2000001 	and	r0, r0, #1, 0
    9100:	e8bd8010 	pop	{r4, pc}
    9104:	20200034 	eorcs	r0, r0, r4, lsr r0

00009108 <printk>:
    9108:	e92d000f 	push	{r0, r1, r2, r3}
    910c:	e92d4030 	push	{r4, r5, lr}
    9110:	e59f5040 	ldr	r5, [pc, #64]	; 9158 <printk+0x50>
    9114:	e24dd00c 	sub	sp, sp, #12, 0
    9118:	e28d301c 	add	r3, sp, #28, 0
    911c:	e3a01b01 	mov	r1, #1024	; 0x400
    9120:	e59d2018 	ldr	r2, [sp, #24]
    9124:	e1a00005 	mov	r0, r5
    9128:	e58d3004 	str	r3, [sp, #4]
    912c:	eb0000fb 	bl	9520 <va_printk>
    9130:	e1a04000 	mov	r4, r0
    9134:	e59f3020 	ldr	r3, [pc, #32]	; 915c <printk+0x54>
    9138:	e1a00005 	mov	r0, r5
    913c:	e5933000 	ldr	r3, [r3]
    9140:	e12fff33 	blx	r3
    9144:	e1a00004 	mov	r0, r4
    9148:	e28dd00c 	add	sp, sp, #12, 0
    914c:	e8bd4030 	pop	{r4, r5, lr}
    9150:	e28dd010 	add	sp, sp, #16, 0
    9154:	e12fff1e 	bx	lr
    9158:	0000a7a8 	andeq	sl, r0, r8, lsr #15
    915c:	0000a79c 	muleq	r0, ip, r7

00009160 <internal_putk>:
    9160:	e92d4070 	push	{r4, r5, r6, lr}
    9164:	e1a04000 	mov	r4, r0
    9168:	e5d00000 	ldrb	r0, [r0]
    916c:	e3500000 	cmp	r0, #0, 0
    9170:	0a000005 	beq	918c <internal_putk+0x2c>
    9174:	e59f5018 	ldr	r5, [pc, #24]	; 9194 <internal_putk+0x34>
    9178:	e5953000 	ldr	r3, [r5]
    917c:	e12fff33 	blx	r3
    9180:	e5f40001 	ldrb	r0, [r4, #1]!
    9184:	e3500000 	cmp	r0, #0, 0
    9188:	1afffffa 	bne	9178 <internal_putk+0x18>
    918c:	e3a00001 	mov	r0, #1, 0
    9190:	e8bd8070 	pop	{r4, r5, r6, pc}
    9194:	0000a7a0 	andeq	sl, r0, r0, lsr #15

00009198 <emit.constprop.0>:
    9198:	e92d41f0 	push	{r4, r5, r6, r7, r8, lr}
    919c:	e3530080 	cmp	r3, #128, 0	; 0x80
    91a0:	e1a0c000 	mov	ip, r0
    91a4:	e24dd048 	sub	sp, sp, #72, 0	; 0x48
    91a8:	e1a00001 	mov	r0, r1
    91ac:	ca000069 	bgt	9358 <emit.constprop.0+0x1c0>
    91b0:	e24c1002 	sub	r1, ip, #2, 0
    91b4:	e1a0c002 	mov	ip, r2
    91b8:	e351000e 	cmp	r1, #14, 0
    91bc:	979ff101 	ldrls	pc, [pc, r1, lsl #2]
    91c0:	ea0000a7 	b	9464 <emit.constprop.0+0x2cc>
    91c4:	00009330 	andeq	r9, r0, r0, lsr r3
    91c8:	00009464 	andeq	r9, r0, r4, ror #8
    91cc:	00009464 	andeq	r9, r0, r4, ror #8
    91d0:	00009464 	andeq	r9, r0, r4, ror #8
    91d4:	00009464 	andeq	r9, r0, r4, ror #8
    91d8:	00009464 	andeq	r9, r0, r4, ror #8
    91dc:	0000940c 	andeq	r9, r0, ip, lsl #8
    91e0:	00009464 	andeq	r9, r0, r4, ror #8
    91e4:	000093ac 	andeq	r9, r0, ip, lsr #7
    91e8:	00009464 	andeq	r9, r0, r4, ror #8
    91ec:	00009464 	andeq	r9, r0, r4, ror #8
    91f0:	00009464 	andeq	r9, r0, r4, ror #8
    91f4:	00009464 	andeq	r9, r0, r4, ror #8
    91f8:	00009464 	andeq	r9, r0, r4, ror #8
    91fc:	00009204 	andeq	r9, r0, r4, lsl #4
    9200:	e3a0307f 	mov	r3, #127, 0	; 0x7f
    9204:	e28d2008 	add	r2, sp, #8, 0
    9208:	e1a04002 	mov	r4, r2
    920c:	e59f1288 	ldr	r1, [pc, #648]	; 949c <emit.constprop.0+0x304>
    9210:	e20ce00f 	and	lr, ip, #15, 0
    9214:	e7d1e00e 	ldrb	lr, [r1, lr]
    9218:	e35c000f 	cmp	ip, #15, 0
    921c:	e4c4e001 	strb	lr, [r4], #1
    9220:	e1a0c22c 	lsr	ip, ip, #4
    9224:	8afffff9 	bhi	9210 <emit.constprop.0+0x78>
    9228:	e3a0c078 	mov	ip, #120, 0	; 0x78
    922c:	e1a0e004 	mov	lr, r4
    9230:	e3a01030 	mov	r1, #48, 0	; 0x30
    9234:	e4cec002 	strb	ip, [lr], #2
    9238:	e5c41001 	strb	r1, [r4, #1]
    923c:	e04e1002 	sub	r1, lr, r2
    9240:	e1510003 	cmp	r1, r3
    9244:	aa000083 	bge	9458 <emit.constprop.0+0x2c0>
    9248:	e1510003 	cmp	r1, r3
    924c:	a3a0c001 	movge	ip, #1, 0
    9250:	b3a0c000 	movlt	ip, #0, 0
    9254:	e2434001 	sub	r4, r3, #1, 0
    9258:	e0444001 	sub	r4, r4, r1
    925c:	b0436001 	sublt	r6, r3, r1
    9260:	a3a06001 	movge	r6, #1, 0
    9264:	e3540002 	cmp	r4, #2, 0
    9268:	938cc001 	orrls	ip, ip, #1, 0
    926c:	e35c0000 	cmp	ip, #0, 0
    9270:	1a000075 	bne	944c <emit.constprop.0+0x2b4>
    9274:	e1a0c00e 	mov	ip, lr
    9278:	e3c65003 	bic	r5, r6, #3, 0
    927c:	e59f721c 	ldr	r7, [pc, #540]	; 94a0 <emit.constprop.0+0x308>
    9280:	e085500e 	add	r5, r5, lr
    9284:	e48c7004 	str	r7, [ip], #4
    9288:	e15c0005 	cmp	ip, r5
    928c:	1afffffc 	bne	9284 <emit.constprop.0+0xec>
    9290:	e3c6c003 	bic	ip, r6, #3, 0
    9294:	e156000c 	cmp	r6, ip
    9298:	e08e500c 	add	r5, lr, ip
    929c:	e08cc001 	add	ip, ip, r1
    92a0:	0a000008 	beq	92c8 <emit.constprop.0+0x130>
    92a4:	e3a07020 	mov	r7, #32, 0
    92a8:	e28c8001 	add	r8, ip, #1, 0
    92ac:	e1580003 	cmp	r8, r3
    92b0:	e5c57000 	strb	r7, [r5]
    92b4:	aa000003 	bge	92c8 <emit.constprop.0+0x130>
    92b8:	e28cc002 	add	ip, ip, #2, 0
    92bc:	e15c0003 	cmp	ip, r3
    92c0:	e5c57001 	strb	r7, [r5, #1]
    92c4:	b5c57002 	strblt	r7, [r5, #2]
    92c8:	e1510003 	cmp	r1, r3
    92cc:	a3a04000 	movge	r4, #0, 0
    92d0:	e08e6006 	add	r6, lr, r6
    92d4:	e0461002 	sub	r1, r6, r2
    92d8:	e08ee004 	add	lr, lr, r4
    92dc:	e3a03000 	mov	r3, #0, 0
    92e0:	e351007f 	cmp	r1, #127, 0	; 0x7f
    92e4:	c241407f 	subgt	r4, r1, #127, 0	; 0x7f
    92e8:	c0822004 	addgt	r2, r2, r4
    92ec:	e152000e 	cmp	r2, lr
    92f0:	e5c63000 	strb	r3, [r6]
    92f4:	8a00004f 	bhi	9438 <emit.constprop.0+0x2a0>
    92f8:	e28ee001 	add	lr, lr, #1, 0
    92fc:	e1a0300e 	mov	r3, lr
    9300:	e240c001 	sub	ip, r0, #1, 0
    9304:	e5734001 	ldrb	r4, [r3, #-1]!
    9308:	e1530002 	cmp	r3, r2
    930c:	e5ec4001 	strb	r4, [ip, #1]!
    9310:	1afffffb 	bne	9304 <emit.constprop.0+0x16c>
    9314:	e04ee003 	sub	lr, lr, r3
    9318:	e3a03000 	mov	r3, #0, 0
    931c:	e080e00e 	add	lr, r0, lr
    9320:	e5ce3000 	strb	r3, [lr]
    9324:	e28dd048 	add	sp, sp, #72, 0	; 0x48
    9328:	e8bd81f0 	pop	{r4, r5, r6, r7, r8, pc}
    932c:	e3a0307f 	mov	r3, #127, 0	; 0x7f
    9330:	e28d2008 	add	r2, sp, #8, 0
    9334:	e1a0e002 	mov	lr, r2
    9338:	e59f1164 	ldr	r1, [pc, #356]	; 94a4 <emit.constprop.0+0x30c>
    933c:	e20c4001 	and	r4, ip, #1, 0
    9340:	e7d14004 	ldrb	r4, [r1, r4]
    9344:	e35c0001 	cmp	ip, #1, 0
    9348:	e4ce4001 	strb	r4, [lr], #1
    934c:	e1a0c0ac 	lsr	ip, ip, #1
    9350:	8afffff9 	bhi	933c <emit.constprop.0+0x1a4>
    9354:	eaffffb8 	b	923c <emit.constprop.0+0xa4>
    9358:	e24c3002 	sub	r3, ip, #2, 0
    935c:	e1a0c002 	mov	ip, r2
    9360:	e353000e 	cmp	r3, #14, 0
    9364:	979ff103 	ldrls	pc, [pc, r3, lsl #2]
    9368:	ea00003d 	b	9464 <emit.constprop.0+0x2cc>
    936c:	0000932c 	andeq	r9, r0, ip, lsr #6
    9370:	00009464 	andeq	r9, r0, r4, ror #8
    9374:	00009464 	andeq	r9, r0, r4, ror #8
    9378:	00009464 	andeq	r9, r0, r4, ror #8
    937c:	00009464 	andeq	r9, r0, r4, ror #8
    9380:	00009464 	andeq	r9, r0, r4, ror #8
    9384:	00009484 	andeq	r9, r0, r4, lsl #9
    9388:	00009464 	andeq	r9, r0, r4, ror #8
    938c:	000093a8 	andeq	r9, r0, r8, lsr #7
    9390:	00009464 	andeq	r9, r0, r4, ror #8
    9394:	00009464 	andeq	r9, r0, r4, ror #8
    9398:	00009464 	andeq	r9, r0, r4, ror #8
    939c:	00009464 	andeq	r9, r0, r4, ror #8
    93a0:	00009464 	andeq	r9, r0, r4, ror #8
    93a4:	00009200 	andeq	r9, r0, r0, lsl #4
    93a8:	e3a0307f 	mov	r3, #127, 0	; 0x7f
    93ac:	e59d1060 	ldr	r1, [sp, #96]	; 0x60
    93b0:	e59f70f0 	ldr	r7, [pc, #240]	; 94a8 <emit.constprop.0+0x310>
    93b4:	e0118fa2 	ands	r8, r1, r2, lsr #31
    93b8:	1262c000 	rsbne	ip, r2, #0, 0
    93bc:	e28d2008 	add	r2, sp, #8, 0
    93c0:	13a08001 	movne	r8, #1, 0
    93c4:	e1a0e002 	mov	lr, r2
    93c8:	e59f60dc 	ldr	r6, [pc, #220]	; 94ac <emit.constprop.0+0x314>
    93cc:	e1a0500c 	mov	r5, ip
    93d0:	e0814c96 	umull	r4, r1, r6, ip
    93d4:	e1a011a1 	lsr	r1, r1, #3
    93d8:	e0814101 	add	r4, r1, r1, lsl #2
    93dc:	e04cc084 	sub	ip, ip, r4, lsl #1
    93e0:	e7d7400c 	ldrb	r4, [r7, ip]
    93e4:	e3550009 	cmp	r5, #9, 0
    93e8:	e1a0c001 	mov	ip, r1
    93ec:	e1a0100e 	mov	r1, lr
    93f0:	e4ce4001 	strb	r4, [lr], #1
    93f4:	8afffff4 	bhi	93cc <emit.constprop.0+0x234>
    93f8:	e3580000 	cmp	r8, #0, 0
    93fc:	13a0c02d 	movne	ip, #45, 0	; 0x2d
    9400:	15cec000 	strbne	ip, [lr]
    9404:	1281e002 	addne	lr, r1, #2, 0
    9408:	eaffff8b 	b	923c <emit.constprop.0+0xa4>
    940c:	e3530001 	cmp	r3, #1, 0
    9410:	e5cd2008 	strb	r2, [sp, #8]
    9414:	c3a01001 	movgt	r1, #1, 0
    9418:	c28de009 	addgt	lr, sp, #9, 0
    941c:	c28d2008 	addgt	r2, sp, #8, 0
    9420:	caffff88 	bgt	9248 <emit.constprop.0+0xb0>
    9424:	e3a03000 	mov	r3, #0, 0
    9428:	e28de008 	add	lr, sp, #8, 0
    942c:	e1a0200e 	mov	r2, lr
    9430:	e5cd3009 	strb	r3, [sp, #9]
    9434:	eaffffaf 	b	92f8 <emit.constprop.0+0x160>
    9438:	e1a0e000 	mov	lr, r0
    943c:	e3a03000 	mov	r3, #0, 0
    9440:	e5ce3000 	strb	r3, [lr]
    9444:	e28dd048 	add	sp, sp, #72, 0	; 0x48
    9448:	e8bd81f0 	pop	{r4, r5, r6, r7, r8, pc}
    944c:	e1a0c001 	mov	ip, r1
    9450:	e1a0500e 	mov	r5, lr
    9454:	eaffff92 	b	92a4 <emit.constprop.0+0x10c>
    9458:	e1a0600e 	mov	r6, lr
    945c:	e24ee001 	sub	lr, lr, #1, 0
    9460:	eaffff9d 	b	92dc <emit.constprop.0+0x144>
    9464:	e59f2044 	ldr	r2, [pc, #68]	; 94b0 <emit.constprop.0+0x318>
    9468:	e3a03079 	mov	r3, #121, 0	; 0x79
    946c:	e59f1040 	ldr	r1, [pc, #64]	; 94b4 <emit.constprop.0+0x31c>
    9470:	e58d2000 	str	r2, [sp]
    9474:	e59f003c 	ldr	r0, [pc, #60]	; 94b8 <emit.constprop.0+0x320>
    9478:	e59f203c 	ldr	r2, [pc, #60]	; 94bc <emit.constprop.0+0x324>
    947c:	ebffff21 	bl	9108 <printk>
    9480:	eb0001b1 	bl	9b4c <clean_reboot>
    9484:	e5cd2008 	strb	r2, [sp, #8]
    9488:	e3a0307f 	mov	r3, #127, 0	; 0x7f
    948c:	e3a01001 	mov	r1, #1, 0
    9490:	e28de009 	add	lr, sp, #9, 0
    9494:	e28d2008 	add	r2, sp, #8, 0
    9498:	eaffff6a 	b	9248 <emit.constprop.0+0xb0>
    949c:	0000a624 	andeq	sl, r0, r4, lsr #12
    94a0:	20202020 	eorcs	r2, r0, r0, lsr #32
    94a4:	0000a638 	andeq	sl, r0, r8, lsr r6
    94a8:	0000a63c 	andeq	sl, r0, ip, lsr r6
    94ac:	cccccccd 	stclgt	12, cr12, [ip], {205}	; 0xcd
    94b0:	0000a504 	andeq	sl, r0, r4, lsl #10
    94b4:	0000a610 	andeq	sl, r0, r0, lsl r6
    94b8:	0000a2b8 			; <UNDEFINED> instruction: 0x0000a2b8
    94bc:	0000a750 	andeq	sl, r0, r0, asr r7

000094c0 <rpi_set_output>:
    94c0:	e3500000 	cmp	r0, #0, 0
    94c4:	0a000005 	beq	94e0 <rpi_set_output+0x20>
    94c8:	e59f3038 	ldr	r3, [pc, #56]	; 9508 <rpi_set_output+0x48>
    94cc:	e3510000 	cmp	r1, #0, 0
    94d0:	e5830000 	str	r0, [r3]
    94d4:	159f3030 	ldrne	r3, [pc, #48]	; 950c <rpi_set_output+0x4c>
    94d8:	15831000 	strne	r1, [r3]
    94dc:	e12fff1e 	bx	lr
    94e0:	e52de004 	push	{lr}		; (str lr, [sp, #-4]!)
    94e4:	e59f2024 	ldr	r2, [pc, #36]	; 9510 <rpi_set_output+0x50>
    94e8:	e24dd00c 	sub	sp, sp, #12, 0
    94ec:	e3a03020 	mov	r3, #32, 0
    94f0:	e59f101c 	ldr	r1, [pc, #28]	; 9514 <rpi_set_output+0x54>
    94f4:	e58d2000 	str	r2, [sp]
    94f8:	e59f0018 	ldr	r0, [pc, #24]	; 9518 <rpi_set_output+0x58>
    94fc:	e59f2018 	ldr	r2, [pc, #24]	; 951c <rpi_set_output+0x5c>
    9500:	ebffff00 	bl	9108 <printk>
    9504:	eb000190 	bl	9b4c <clean_reboot>
    9508:	0000a7a0 	andeq	sl, r0, r0, lsr #15
    950c:	0000a79c 	muleq	r0, ip, r7
    9510:	0000a648 	andeq	sl, r0, r8, asr #12
    9514:	0000a610 	andeq	sl, r0, r0, lsl r6
    9518:	0000a2b8 			; <UNDEFINED> instruction: 0x0000a2b8
    951c:	0000a758 	andeq	sl, r0, r8, asr r7

00009520 <va_printk>:
    9520:	e92d4ff0 	push	{r4, r5, r6, r7, r8, r9, sl, fp, lr}
    9524:	e1a0b000 	mov	fp, r0
    9528:	e3a00000 	mov	r0, #0, 0
    952c:	e5cb0000 	strb	r0, [fp]
    9530:	e5d2c000 	ldrb	ip, [r2]
    9534:	e2417001 	sub	r7, r1, #1, 0
    9538:	e08b7007 	add	r7, fp, r7
    953c:	e15c0000 	cmp	ip, r0
    9540:	115b0007 	cmpne	fp, r7
    9544:	e24ddf47 	sub	sp, sp, #284	; 0x11c
    9548:	e58d2010 	str	r2, [sp, #16]
    954c:	2a000159 	bcs	9ab8 <va_printk+0x598>
    9550:	e1a06002 	mov	r6, r2
    9554:	e1a08003 	mov	r8, r3
    9558:	e1a0400b 	mov	r4, fp
    955c:	e59fa5a4 	ldr	sl, [pc, #1444]	; 9b08 <va_printk+0x5e8>
    9560:	e58db00c 	str	fp, [sp, #12]
    9564:	ea000005 	b	9580 <va_printk+0x60>
    9568:	e4c4c001 	strb	ip, [r4], #1
    956c:	e2866001 	add	r6, r6, #1, 0
    9570:	e5d6c000 	ldrb	ip, [r6]
    9574:	e35c0000 	cmp	ip, #0, 0
    9578:	11570004 	cmpne	r7, r4
    957c:	9a00002f 	bls	9640 <va_printk+0x120>
    9580:	e35c0025 	cmp	ip, #37, 0	; 0x25
    9584:	1afffff7 	bne	9568 <va_printk+0x48>
    9588:	e5d62001 	ldrb	r2, [r6, #1]
    958c:	e3520025 	cmp	r2, #37, 0	; 0x25
    9590:	04c4c001 	strbeq	ip, [r4], #1
    9594:	02866002 	addeq	r6, r6, #2, 0
    9598:	0afffff4 	beq	9570 <va_printk+0x50>
    959c:	e2423030 	sub	r3, r2, #48, 0	; 0x30
    95a0:	e3530009 	cmp	r3, #9, 0
    95a4:	e3a05000 	mov	r5, #0, 0
    95a8:	e2866001 	add	r6, r6, #1, 0
    95ac:	8a000008 	bhi	95d4 <va_printk+0xb4>
    95b0:	e0855105 	add	r5, r5, r5, lsl #2
    95b4:	e0825085 	add	r5, r2, r5, lsl #1
    95b8:	e5f62001 	ldrb	r2, [r6, #1]!
    95bc:	e2455030 	sub	r5, r5, #48, 0	; 0x30
    95c0:	e2423030 	sub	r3, r2, #48, 0	; 0x30
    95c4:	e3530009 	cmp	r3, #9, 0
    95c8:	9afffff8 	bls	95b0 <va_printk+0x90>
    95cc:	e355001f 	cmp	r5, #31, 0
    95d0:	8a00013a 	bhi	9ac0 <va_printk+0x5a0>
    95d4:	e2423062 	sub	r3, r2, #98, 0	; 0x62
    95d8:	e3530016 	cmp	r3, #22, 0
    95dc:	979ff103 	ldrls	pc, [pc, r3, lsl #2]
    95e0:	ea00011b 	b	9a54 <va_printk+0x534>
    95e4:	00009898 	muleq	r0, r8, r8
    95e8:	00009794 	muleq	r0, r4, r7
    95ec:	0000978c 	andeq	r9, r0, ip, lsl #15
    95f0:	00009a54 	andeq	r9, r0, r4, asr sl
    95f4:	00009a90 	muleq	r0, r0, sl
    95f8:	00009a54 	andeq	r9, r0, r4, asr sl
    95fc:	00009a54 	andeq	r9, r0, r4, asr sl
    9600:	00009a54 	andeq	r9, r0, r4, asr sl
    9604:	00009a54 	andeq	r9, r0, r4, asr sl
    9608:	00009a54 	andeq	r9, r0, r4, asr sl
    960c:	0000969c 	muleq	r0, ip, r6
    9610:	00009a54 	andeq	r9, r0, r4, asr sl
    9614:	00009a54 	andeq	r9, r0, r4, asr sl
    9618:	00009a54 	andeq	r9, r0, r4, asr sl
    961c:	00009658 	andeq	r9, r0, r8, asr r6
    9620:	00009a54 	andeq	r9, r0, r4, asr sl
    9624:	00009a54 	andeq	r9, r0, r4, asr sl
    9628:	00009990 	muleq	r0, r0, r9
    962c:	00009a54 	andeq	r9, r0, r4, asr sl
    9630:	00009768 	andeq	r9, r0, r8, ror #14
    9634:	00009a54 	andeq	r9, r0, r4, asr sl
    9638:	00009a54 	andeq	r9, r0, r4, asr sl
    963c:	00009658 	andeq	r9, r0, r8, asr r6
    9640:	e59db00c 	ldr	fp, [sp, #12]
    9644:	e3a03000 	mov	r3, #0, 0
    9648:	e4c43001 	strb	r3, [r4], #1
    964c:	e044000b 	sub	r0, r4, fp
    9650:	e28ddf47 	add	sp, sp, #284	; 0x11c
    9654:	e8bd8ff0 	pop	{r4, r5, r6, r7, r8, r9, sl, fp, pc}
    9658:	e3a01000 	mov	r1, #0, 0
    965c:	e1a03005 	mov	r3, r5
    9660:	e4982004 	ldr	r2, [r8], #4
    9664:	e3a00010 	mov	r0, #16, 0
    9668:	e58d1000 	str	r1, [sp]
    966c:	e28d1018 	add	r1, sp, #24, 0
    9670:	ebfffec8 	bl	9198 <emit.constprop.0>
    9674:	e1a05000 	mov	r5, r0
    9678:	e2866001 	add	r6, r6, #1, 0
    967c:	e2455001 	sub	r5, r5, #1, 0
    9680:	e5f53001 	ldrb	r3, [r5, #1]!
    9684:	e3530000 	cmp	r3, #0, 0
    9688:	0affffb8 	beq	9570 <va_printk+0x50>
    968c:	e4c43001 	strb	r3, [r4], #1
    9690:	e1570004 	cmp	r7, r4
    9694:	8afffff9 	bhi	9680 <va_printk+0x160>
    9698:	eaffffb4 	b	9570 <va_printk+0x50>
    969c:	e3a02003 	mov	r2, #3, 0
    96a0:	e1a00006 	mov	r0, r6
    96a4:	e59f1460 	ldr	r1, [pc, #1120]	; 9b0c <va_printk+0x5ec>
    96a8:	eb00029a 	bl	a118 <strncmp>
    96ac:	e3500000 	cmp	r0, #0, 0
    96b0:	0a000005 	beq	96cc <va_printk+0x1ac>
    96b4:	e3a02003 	mov	r2, #3, 0
    96b8:	e1a00006 	mov	r0, r6
    96bc:	e59f144c 	ldr	r1, [pc, #1100]	; 9b10 <va_printk+0x5f0>
    96c0:	eb000294 	bl	a118 <strncmp>
    96c4:	e3500000 	cmp	r0, #0, 0
    96c8:	1a00010b 	bne	9afc <va_printk+0x5dc>
    96cc:	e2888007 	add	r8, r8, #7, 0
    96d0:	e3c88007 	bic	r8, r8, #7, 0
    96d4:	e598b004 	ldr	fp, [r8, #4]
    96d8:	e4989008 	ldr	r9, [r8], #8
    96dc:	e1a0100b 	mov	r1, fp
    96e0:	e59f042c 	ldr	r0, [pc, #1068]	; 9b14 <va_printk+0x5f4>
    96e4:	ebfffe87 	bl	9108 <printk>
    96e8:	e1a01009 	mov	r1, r9
    96ec:	e59f0424 	ldr	r0, [pc, #1060]	; 9b18 <va_printk+0x5f8>
    96f0:	ebfffe84 	bl	9108 <printk>
    96f4:	e3a02003 	mov	r2, #3, 0
    96f8:	e1a00006 	mov	r0, r6
    96fc:	e59f1408 	ldr	r1, [pc, #1032]	; 9b0c <va_printk+0x5ec>
    9700:	eb000284 	bl	a118 <strncmp>
    9704:	e2503000 	subs	r3, r0, #0, 0
    9708:	e1a02003 	mov	r2, r3
    970c:	e2863002 	add	r3, r6, #2, 0
    9710:	e58d3014 	str	r3, [sp, #20]
    9714:	1a00009f 	bne	9998 <va_printk+0x478>
    9718:	e1a06002 	mov	r6, r2
    971c:	e1a03005 	mov	r3, r5
    9720:	e58d2000 	str	r2, [sp]
    9724:	e28d1018 	add	r1, sp, #24, 0
    9728:	e1a0200b 	mov	r2, fp
    972c:	e3a00010 	mov	r0, #16, 0
    9730:	ebfffe98 	bl	9198 <emit.constprop.0>
    9734:	e1a0c000 	mov	ip, r0
    9738:	e1a03005 	mov	r3, r5
    973c:	e58d6000 	str	r6, [sp]
    9740:	e28d1098 	add	r1, sp, #152, 0	; 0x98
    9744:	e1a02009 	mov	r2, r9
    9748:	e3a00010 	mov	r0, #16, 0
    974c:	e1a0500c 	mov	r5, ip
    9750:	ebfffe90 	bl	9198 <emit.constprop.0>
    9754:	e28d0018 	add	r0, sp, #24, 0
    9758:	e28d109a 	add	r1, sp, #154, 0	; 0x9a
    975c:	e59d6014 	ldr	r6, [sp, #20]
    9760:	eb00024a 	bl	a090 <strcat>
    9764:	eaffffc3 	b	9678 <va_printk+0x158>
    9768:	e3a01000 	mov	r1, #0, 0
    976c:	e1a03005 	mov	r3, r5
    9770:	e4982004 	ldr	r2, [r8], #4
    9774:	e3a0000a 	mov	r0, #10, 0
    9778:	e58d1000 	str	r1, [sp]
    977c:	e28d1018 	add	r1, sp, #24, 0
    9780:	ebfffe84 	bl	9198 <emit.constprop.0>
    9784:	e1a05000 	mov	r5, r0
    9788:	eaffffba 	b	9678 <va_printk+0x158>
    978c:	e3a01001 	mov	r1, #1, 0
    9790:	eafffff5 	b	976c <va_printk+0x24c>
    9794:	e4983004 	ldr	r3, [r8], #4
    9798:	e3550001 	cmp	r5, #1, 0
    979c:	e5cd3098 	strb	r3, [sp, #152]	; 0x98
    97a0:	9a0000a6 	bls	9a40 <va_printk+0x520>
    97a4:	e2453002 	sub	r3, r5, #2, 0
    97a8:	e3530002 	cmp	r3, #2, 0
    97ac:	e2451001 	sub	r1, r5, #1, 0
    97b0:	9a0000bc 	bls	9aa8 <va_printk+0x588>
    97b4:	e59f0360 	ldr	r0, [pc, #864]	; 9b1c <va_printk+0x5fc>
    97b8:	e1a02121 	lsr	r2, r1, #2
    97bc:	e3520001 	cmp	r2, #1, 0
    97c0:	e58d0099 	str	r0, [sp, #153]	; 0x99
    97c4:	0a00000e 	beq	9804 <va_printk+0x2e4>
    97c8:	e3520002 	cmp	r2, #2, 0
    97cc:	e58d009d 	str	r0, [sp, #157]	; 0x9d
    97d0:	0a00000b 	beq	9804 <va_printk+0x2e4>
    97d4:	e3520003 	cmp	r2, #3, 0
    97d8:	e58d00a1 	str	r0, [sp, #161]	; 0xa1
    97dc:	0a000008 	beq	9804 <va_printk+0x2e4>
    97e0:	e3520004 	cmp	r2, #4, 0
    97e4:	e58d00a5 	str	r0, [sp, #165]	; 0xa5
    97e8:	0a000005 	beq	9804 <va_printk+0x2e4>
    97ec:	e3520005 	cmp	r2, #5, 0
    97f0:	e58d00a9 	str	r0, [sp, #169]	; 0xa9
    97f4:	0a000002 	beq	9804 <va_printk+0x2e4>
    97f8:	e3520007 	cmp	r2, #7, 0
    97fc:	e58d00ad 	str	r0, [sp, #173]	; 0xad
    9800:	058d00b1 	streq	r0, [sp, #177]	; 0xb1
    9804:	e3c12003 	bic	r2, r1, #3, 0
    9808:	e1510002 	cmp	r1, r2
    980c:	e28dc099 	add	ip, sp, #153, 0	; 0x99
    9810:	e08c0002 	add	r0, ip, r2
    9814:	e2822001 	add	r2, r2, #1, 0
    9818:	0a000008 	beq	9840 <va_printk+0x320>
    981c:	e3a0e020 	mov	lr, #32, 0
    9820:	e2829001 	add	r9, r2, #1, 0
    9824:	e1550009 	cmp	r5, r9
    9828:	e5c0e000 	strb	lr, [r0]
    982c:	da000003 	ble	9840 <va_printk+0x320>
    9830:	e2822002 	add	r2, r2, #2, 0
    9834:	e1550002 	cmp	r5, r2
    9838:	e5c0e001 	strb	lr, [r0, #1]
    983c:	c5c0e002 	strbgt	lr, [r0, #2]
    9840:	e3a0e000 	mov	lr, #0, 0
    9844:	e28d0098 	add	r0, sp, #152, 0	; 0x98
    9848:	e08c2001 	add	r2, ip, r1
    984c:	e0422000 	sub	r2, r2, r0
    9850:	e352007f 	cmp	r2, #127, 0	; 0x7f
    9854:	c242207f 	subgt	r2, r2, #127, 0	; 0x7f
    9858:	e08c3003 	add	r3, ip, r3
    985c:	c0800002 	addgt	r0, r0, r2
    9860:	e1530000 	cmp	r3, r0
    9864:	e7cce001 	strb	lr, [ip, r1]
    9868:	3a00006c 	bcc	9a20 <va_printk+0x500>
    986c:	e283c001 	add	ip, r3, #1, 0
    9870:	e1a0300c 	mov	r3, ip
    9874:	e28d5018 	add	r5, sp, #24, 0
    9878:	e2452001 	sub	r2, r5, #1, 0
    987c:	e5731001 	ldrb	r1, [r3, #-1]!
    9880:	e1500003 	cmp	r0, r3
    9884:	e5e21001 	strb	r1, [r2, #1]!
    9888:	1afffffb 	bne	987c <va_printk+0x35c>
    988c:	e04c3000 	sub	r3, ip, r0
    9890:	e0853003 	add	r3, r5, r3
    9894:	ea00003a 	b	9984 <va_printk+0x464>
    9898:	e28d1098 	add	r1, sp, #152, 0	; 0x98
    989c:	e1a03001 	mov	r3, r1
    98a0:	e4980004 	ldr	r0, [r8], #4
    98a4:	e200c001 	and	ip, r0, #1, 0
    98a8:	e7dac00c 	ldrb	ip, [sl, ip]
    98ac:	e3500001 	cmp	r0, #1, 0
    98b0:	e1a02003 	mov	r2, r3
    98b4:	e1a000a0 	lsr	r0, r0, #1
    98b8:	e4c3c001 	strb	ip, [r3], #1
    98bc:	8afffff8 	bhi	98a4 <va_printk+0x384>
    98c0:	e0430001 	sub	r0, r3, r1
    98c4:	e1550000 	cmp	r5, r0
    98c8:	da000057 	ble	9a2c <va_printk+0x50c>
    98cc:	e045c000 	sub	ip, r5, r0
    98d0:	e24ce001 	sub	lr, ip, #1, 0
    98d4:	e35e0002 	cmp	lr, #2, 0
    98d8:	e1a0e003 	mov	lr, r3
    98dc:	9a00000a 	bls	990c <va_printk+0x3ec>
    98e0:	e3cc9003 	bic	r9, ip, #3, 0
    98e4:	e0899003 	add	r9, r9, r3
    98e8:	e59fb22c 	ldr	fp, [pc, #556]	; 9b1c <va_printk+0x5fc>
    98ec:	e48eb004 	str	fp, [lr], #4
    98f0:	e15e0009 	cmp	lr, r9
    98f4:	1afffffb 	bne	98e8 <va_printk+0x3c8>
    98f8:	e3cce003 	bic	lr, ip, #3, 0
    98fc:	e15e000c 	cmp	lr, ip
    9900:	e080000e 	add	r0, r0, lr
    9904:	e083e00e 	add	lr, r3, lr
    9908:	0a000008 	beq	9930 <va_printk+0x410>
    990c:	e3a09020 	mov	r9, #32, 0
    9910:	e280b001 	add	fp, r0, #1, 0
    9914:	e155000b 	cmp	r5, fp
    9918:	e5ce9000 	strb	r9, [lr]
    991c:	da000003 	ble	9930 <va_printk+0x410>
    9920:	e2800002 	add	r0, r0, #2, 0
    9924:	e1550000 	cmp	r5, r0
    9928:	e5ce9001 	strb	r9, [lr, #1]
    992c:	c5ce9002 	strbgt	r9, [lr, #2]
    9930:	e3a0e000 	mov	lr, #0, 0
    9934:	e083000c 	add	r0, r3, ip
    9938:	e0400001 	sub	r0, r0, r1
    993c:	e350007f 	cmp	r0, #127, 0	; 0x7f
    9940:	e082200c 	add	r2, r2, ip
    9944:	e7c3e00c 	strb	lr, [r3, ip]
    9948:	da000001 	ble	9954 <va_printk+0x434>
    994c:	e240007f 	sub	r0, r0, #127, 0	; 0x7f
    9950:	e0811000 	add	r1, r1, r0
    9954:	e1510002 	cmp	r1, r2
    9958:	8a000030 	bhi	9a20 <va_printk+0x500>
    995c:	e2822001 	add	r2, r2, #1, 0
    9960:	e1a03002 	mov	r3, r2
    9964:	e28d5018 	add	r5, sp, #24, 0
    9968:	e245c001 	sub	ip, r5, #1, 0
    996c:	e5730001 	ldrb	r0, [r3, #-1]!
    9970:	e1530001 	cmp	r3, r1
    9974:	e5ec0001 	strb	r0, [ip, #1]!
    9978:	1afffffb 	bne	996c <va_printk+0x44c>
    997c:	e0423003 	sub	r3, r2, r3
    9980:	e0853003 	add	r3, r5, r3
    9984:	e3a02000 	mov	r2, #0, 0
    9988:	e5c32000 	strb	r2, [r3]
    998c:	eaffff39 	b	9678 <va_printk+0x158>
    9990:	e4985004 	ldr	r5, [r8], #4
    9994:	eaffff37 	b	9678 <va_printk+0x158>
    9998:	e3a02003 	mov	r2, #3, 0
    999c:	e1a00006 	mov	r0, r6
    99a0:	e59f1168 	ldr	r1, [pc, #360]	; 9b10 <va_printk+0x5f0>
    99a4:	eb0001db 	bl	a118 <strncmp>
    99a8:	e2503000 	subs	r3, r0, #0, 0
    99ac:	1a00004b 	bne	9ae0 <va_printk+0x5c0>
    99b0:	e1a06003 	mov	r6, r3
    99b4:	e1a0200b 	mov	r2, fp
    99b8:	e58d3000 	str	r3, [sp]
    99bc:	e28d1018 	add	r1, sp, #24, 0
    99c0:	e1a03005 	mov	r3, r5
    99c4:	e3a0000a 	mov	r0, #10, 0
    99c8:	ebfffdf2 	bl	9198 <emit.constprop.0>
    99cc:	e1a0c000 	mov	ip, r0
    99d0:	e1a03005 	mov	r3, r5
    99d4:	e1a02009 	mov	r2, r9
    99d8:	e28d1098 	add	r1, sp, #152, 0	; 0x98
    99dc:	e3a0000a 	mov	r0, #10, 0
    99e0:	e58d6000 	str	r6, [sp]
    99e4:	e1a0500c 	mov	r5, ip
    99e8:	ebfffdea 	bl	9198 <emit.constprop.0>
    99ec:	e59f112c 	ldr	r1, [pc, #300]	; 9b20 <va_printk+0x600>
    99f0:	e28d0018 	add	r0, sp, #24, 0
    99f4:	eb0001b0 	bl	a0bc <strcmp>
    99f8:	e3500000 	cmp	r0, #0, 0
    99fc:	e28d1098 	add	r1, sp, #152, 0	; 0x98
    9a00:	e28d0018 	add	r0, sp, #24, 0
    9a04:	1a000002 	bne	9a14 <va_printk+0x4f4>
    9a08:	eb0001bc 	bl	a100 <strcpy>
    9a0c:	e59d6014 	ldr	r6, [sp, #20]
    9a10:	eaffff18 	b	9678 <va_printk+0x158>
    9a14:	eb00019d 	bl	a090 <strcat>
    9a18:	e59d6014 	ldr	r6, [sp, #20]
    9a1c:	eaffff15 	b	9678 <va_printk+0x158>
    9a20:	e28d5018 	add	r5, sp, #24, 0
    9a24:	e1a03005 	mov	r3, r5
    9a28:	eaffffd5 	b	9984 <va_printk+0x464>
    9a2c:	e3a0c000 	mov	ip, #0, 0
    9a30:	e350007f 	cmp	r0, #127, 0	; 0x7f
    9a34:	e5c3c000 	strb	ip, [r3]
    9a38:	caffffc3 	bgt	994c <va_printk+0x42c>
    9a3c:	eaffffc6 	b	995c <va_printk+0x43c>
    9a40:	e3a02000 	mov	r2, #0, 0
    9a44:	e28d3098 	add	r3, sp, #152, 0	; 0x98
    9a48:	e1a00003 	mov	r0, r3
    9a4c:	e5cd2099 	strb	r2, [sp, #153]	; 0x99
    9a50:	eaffff85 	b	986c <va_printk+0x34c>
    9a54:	e3a03000 	mov	r3, #0, 0
    9a58:	e1a01002 	mov	r1, r2
    9a5c:	e5c63001 	strb	r3, [r6, #1]
    9a60:	e59f00bc 	ldr	r0, [pc, #188]	; 9b24 <va_printk+0x604>
    9a64:	ebfffda7 	bl	9108 <printk>
    9a68:	e59f30b8 	ldr	r3, [pc, #184]	; 9b28 <va_printk+0x608>
    9a6c:	e59d0010 	ldr	r0, [sp, #16]
    9a70:	e5933000 	ldr	r3, [r3]
    9a74:	e12fff33 	blx	r3
    9a78:	e3a030e2 	mov	r3, #226, 0	; 0xe2
    9a7c:	e59f20a8 	ldr	r2, [pc, #168]	; 9b2c <va_printk+0x60c>
    9a80:	e59f10a8 	ldr	r1, [pc, #168]	; 9b30 <va_printk+0x610>
    9a84:	e59f00a8 	ldr	r0, [pc, #168]	; 9b34 <va_printk+0x614>
    9a88:	ebfffd9e 	bl	9108 <printk>
    9a8c:	eb00002e 	bl	9b4c <clean_reboot>
    9a90:	e3a030be 	mov	r3, #190, 0	; 0xbe
    9a94:	e59f2090 	ldr	r2, [pc, #144]	; 9b2c <va_printk+0x60c>
    9a98:	e59f1090 	ldr	r1, [pc, #144]	; 9b30 <va_printk+0x610>
    9a9c:	e59f0094 	ldr	r0, [pc, #148]	; 9b38 <va_printk+0x618>
    9aa0:	ebfffd98 	bl	9108 <printk>
    9aa4:	eb000028 	bl	9b4c <clean_reboot>
    9aa8:	e28dc099 	add	ip, sp, #153, 0	; 0x99
    9aac:	e1a0000c 	mov	r0, ip
    9ab0:	e3a02001 	mov	r2, #1, 0
    9ab4:	eaffff58 	b	981c <va_printk+0x2fc>
    9ab8:	e1a0400b 	mov	r4, fp
    9abc:	eafffee0 	b	9644 <va_printk+0x124>
    9ac0:	e3a03098 	mov	r3, #152, 0	; 0x98
    9ac4:	e59f2070 	ldr	r2, [pc, #112]	; 9b3c <va_printk+0x61c>
    9ac8:	e59f1060 	ldr	r1, [pc, #96]	; 9b30 <va_printk+0x610>
    9acc:	e58d2000 	str	r2, [sp]
    9ad0:	e59f0068 	ldr	r0, [pc, #104]	; 9b40 <va_printk+0x620>
    9ad4:	e59f2050 	ldr	r2, [pc, #80]	; 9b2c <va_printk+0x60c>
    9ad8:	ebfffd8a 	bl	9108 <printk>
    9adc:	eb00001a 	bl	9b4c <clean_reboot>
    9ae0:	e3a030b6 	mov	r3, #182, 0	; 0xb6
    9ae4:	e59f2040 	ldr	r2, [pc, #64]	; 9b2c <va_printk+0x60c>
    9ae8:	e59f1040 	ldr	r1, [pc, #64]	; 9b30 <va_printk+0x610>
    9aec:	e59f0050 	ldr	r0, [pc, #80]	; 9b44 <va_printk+0x624>
    9af0:	e58d6000 	str	r6, [sp]
    9af4:	ebfffd83 	bl	9108 <printk>
    9af8:	eb000013 	bl	9b4c <clean_reboot>
    9afc:	e3a0309f 	mov	r3, #159, 0	; 0x9f
    9b00:	e59f2040 	ldr	r2, [pc, #64]	; 9b48 <va_printk+0x628>
    9b04:	eaffffef 	b	9ac8 <va_printk+0x5a8>
    9b08:	0000a638 	andeq	sl, r0, r8, lsr r6
    9b0c:	0000a65c 	andeq	sl, r0, ip, asr r6
    9b10:	0000a670 	andeq	sl, r0, r0, ror r6
    9b14:	0000a660 	andeq	sl, r0, r0, ror #12
    9b18:	0000a668 	andeq	sl, r0, r8, ror #12
    9b1c:	20202020 	eorcs	r2, r0, r0, lsr #32
    9b20:	0000a504 	andeq	sl, r0, r4, lsl #10
    9b24:	0000a700 	andeq	sl, r0, r0, lsl #14
    9b28:	0000a79c 	muleq	r0, ip, r7
    9b2c:	0000a768 	andeq	sl, r0, r8, ror #14
    9b30:	0000a610 	andeq	sl, r0, r0, lsl r6
    9b34:	0000a730 	andeq	sl, r0, r0, lsr r7
    9b38:	0000a6d8 	ldrdeq	sl, [r0], -r8
    9b3c:	0000a650 	andeq	sl, r0, r0, asr r6
    9b40:	0000a2b8 			; <UNDEFINED> instruction: 0x0000a2b8
    9b44:	0000a6b0 			; <UNDEFINED> instruction: 0x0000a6b0
    9b48:	0000a674 	andeq	sl, r0, r4, ror r6

00009b4c <clean_reboot>:
    9b4c:	e59f301c 	ldr	r3, [pc, #28]	; 9b70 <clean_reboot+0x24>
    9b50:	e92d4010 	push	{r4, lr}
    9b54:	e5933000 	ldr	r3, [r3]
    9b58:	e59f0014 	ldr	r0, [pc, #20]	; 9b74 <clean_reboot+0x28>
    9b5c:	e12fff33 	blx	r3
    9b60:	eb00012d 	bl	a01c <uart_flush_tx>
    9b64:	e3a0000a 	mov	r0, #10, 0
    9b68:	eb000094 	bl	9dc0 <delay_ms>
    9b6c:	eb00005d 	bl	9ce8 <rpi_reboot>
    9b70:	0000a79c 	muleq	r0, ip, r7
    9b74:	0000a774 	andeq	sl, r0, r4, ror r7

00009b78 <_cstart>:
    9b78:	e92d4070 	push	{r4, r5, r6, lr}
    9b7c:	eb000047 	bl	9ca0 <custom_loader>
    9b80:	e59f2108 	ldr	r2, [pc, #264]	; 9c90 <_cstart+0x118>
    9b84:	e59fc108 	ldr	ip, [pc, #264]	; 9c94 <_cstart+0x11c>
    9b88:	e152000c 	cmp	r2, ip
    9b8c:	2a00002e 	bcs	9c4c <_cstart+0xd4>
    9b90:	e24c1001 	sub	r1, ip, #1, 0
    9b94:	e0411002 	sub	r1, r1, r2
    9b98:	e3510017 	cmp	r1, #23, 0
    9b9c:	e1a03122 	lsr	r3, r2, #2
    9ba0:	e1a01121 	lsr	r1, r1, #2
    9ba4:	e2811001 	add	r1, r1, #1, 0
    9ba8:	e2033001 	and	r3, r3, #1, 0
    9bac:	9a000035 	bls	9c88 <_cstart+0x110>
    9bb0:	e3530000 	cmp	r3, #0, 0
    9bb4:	11a00002 	movne	r0, r2
    9bb8:	13a0e000 	movne	lr, #0, 0
    9bbc:	e3a04000 	mov	r4, #0, 0
    9bc0:	e3a05000 	mov	r5, #0, 0
    9bc4:	e0411003 	sub	r1, r1, r3
    9bc8:	01a00002 	moveq	r0, r2
    9bcc:	e0823103 	add	r3, r2, r3, lsl #2
    9bd0:	e1a020a1 	lsr	r2, r1, #1
    9bd4:	1480e004 	strne	lr, [r0], #4
    9bd8:	e0832182 	add	r2, r3, r2, lsl #3
    9bdc:	e0c340f8 	strd	r4, [r3], #8
    9be0:	e1520003 	cmp	r2, r3
    9be4:	1afffffc 	bne	9bdc <_cstart+0x64>
    9be8:	e3c13001 	bic	r3, r1, #1, 0
    9bec:	e1510003 	cmp	r1, r3
    9bf0:	e0803103 	add	r3, r0, r3, lsl #2
    9bf4:	0a000014 	beq	9c4c <_cstart+0xd4>
    9bf8:	e1a01003 	mov	r1, r3
    9bfc:	e3a02000 	mov	r2, #0, 0
    9c00:	e4812004 	str	r2, [r1], #4
    9c04:	e151000c 	cmp	r1, ip
    9c08:	2a00000f 	bcs	9c4c <_cstart+0xd4>
    9c0c:	e2831008 	add	r1, r3, #8, 0
    9c10:	e151000c 	cmp	r1, ip
    9c14:	e5832004 	str	r2, [r3, #4]
    9c18:	2a00000b 	bcs	9c4c <_cstart+0xd4>
    9c1c:	e283100c 	add	r1, r3, #12, 0
    9c20:	e151000c 	cmp	r1, ip
    9c24:	e5832008 	str	r2, [r3, #8]
    9c28:	2a000007 	bcs	9c4c <_cstart+0xd4>
    9c2c:	e2831010 	add	r1, r3, #16, 0
    9c30:	e151000c 	cmp	r1, ip
    9c34:	e583200c 	str	r2, [r3, #12]
    9c38:	2a000003 	bcs	9c4c <_cstart+0xd4>
    9c3c:	e2831014 	add	r1, r3, #20, 0
    9c40:	e151000c 	cmp	r1, ip
    9c44:	e5832010 	str	r2, [r3, #16]
    9c48:	35832014 	strcc	r2, [r3, #20]
    9c4c:	eb000094 	bl	9ea4 <uart_init>
    9c50:	e3a03001 	mov	r3, #1, 0
    9c54:	ee0f3f1c 	mcr	15, 0, r3, cr15, cr12, {0}
    9c58:	ee1f3f3c 	mrc	15, 0, r3, cr15, cr12, {1}
    9c5c:	e59f4034 	ldr	r4, [pc, #52]	; 9c98 <_cstart+0x120>
    9c60:	e5843000 	str	r3, [r4]
    9c64:	ebfffa23 	bl	84f8 <notmain>
    9c68:	ee1f3f3c 	mrc	15, 0, r3, cr15, cr12, {1}
    9c6c:	e5941000 	ldr	r1, [r4]
    9c70:	e59f0024 	ldr	r0, [pc, #36]	; 9c9c <_cstart+0x124>
    9c74:	e3510000 	cmp	r1, #0, 0
    9c78:	10431001 	subne	r1, r3, r1
    9c7c:	e5843000 	str	r3, [r4]
    9c80:	ebfffd20 	bl	9108 <printk>
    9c84:	ebffffb0 	bl	9b4c <clean_reboot>
    9c88:	e1a03002 	mov	r3, r2
    9c8c:	eaffffd9 	b	9bf8 <_cstart+0x80>
    9c90:	0000a7a4 	andeq	sl, r0, r4, lsr #15
    9c94:	0000abb0 			; <UNDEFINED> instruction: 0x0000abb0
    9c98:	0000aba8 	andeq	sl, r0, r8, lsr #23
    9c9c:	0000a780 	andeq	sl, r0, r0, lsl #15

00009ca0 <custom_loader>:
    9ca0:	e12fff1e 	bx	lr

00009ca4 <dev_barrier>:
    9ca4:	ea000002 	b	9cb4 <dsb>

00009ca8 <dmb>:
    9ca8:	e3a00000 	mov	r0, #0, 0
    9cac:	ee070fba 	mcr	15, 0, r0, cr7, cr10, {5}
    9cb0:	e12fff1e 	bx	lr

00009cb4 <dsb>:
    9cb4:	ee070f9a 	mcr	15, 0, r0, cr7, cr10, {4}
    9cb8:	e12fff1e 	bx	lr

00009cbc <at_user_level>:
    9cbc:	e10f0000 	mrs	r0, CPSR
    9cc0:	e200001f 	and	r0, r0, #31, 0
    9cc4:	e2400010 	sub	r0, r0, #16, 0
    9cc8:	e16f0f10 	clz	r0, r0
    9ccc:	e1a002a0 	lsr	r0, r0, #5
    9cd0:	e12fff1e 	bx	lr

00009cd4 <set_user_level>:
    9cd4:	e10f3000 	mrs	r3, CPSR
    9cd8:	e3c3301f 	bic	r3, r3, #31, 0
    9cdc:	e3833010 	orr	r3, r3, #16, 0
    9ce0:	e129f003 	msr	CPSR_fc, r3
    9ce4:	e12fff1e 	bx	lr

00009ce8 <rpi_reboot>:
    9ce8:	e92d4010 	push	{r4, lr}
    9cec:	e10f3000 	mrs	r3, CPSR
    9cf0:	e203301f 	and	r3, r3, #31, 0
    9cf4:	e3530010 	cmp	r3, #16, 0
    9cf8:	1a000003 	bne	9d0c <rpi_reboot+0x24>
    9cfc:	e10f3000 	mrs	r3, CPSR
    9d00:	e3c3301f 	bic	r3, r3, #31, 0
    9d04:	e3833010 	orr	r3, r3, #16, 0
    9d08:	e129f003 	msr	CPSR_fc, r3
    9d0c:	eb00010d 	bl	a148 <reboot_callout>
    9d10:	eb0000c1 	bl	a01c <uart_flush_tx>
    9d14:	e3a0000a 	mov	r0, #10, 0
    9d18:	eb000028 	bl	9dc0 <delay_ms>
    9d1c:	e59f1014 	ldr	r1, [pc, #20]	; 9d38 <rpi_reboot+0x50>
    9d20:	e59f0014 	ldr	r0, [pc, #20]	; 9d3c <rpi_reboot+0x54>
    9d24:	ebfff8be 	bl	8024 <PUT32>
    9d28:	e59f1010 	ldr	r1, [pc, #16]	; 9d40 <rpi_reboot+0x58>
    9d2c:	e59f0010 	ldr	r0, [pc, #16]	; 9d44 <rpi_reboot+0x5c>
    9d30:	ebfff8bb 	bl	8024 <PUT32>
    9d34:	eafffffe 	b	9d34 <rpi_reboot+0x4c>
    9d38:	5a000001 	bpl	9d44 <rpi_reboot+0x5c>
    9d3c:	20100024 	andscs	r0, r0, r4, lsr #32
    9d40:	5a000020 	bpl	9dc8 <delay_ms+0x8>
    9d44:	2010001c 	andscs	r0, r0, ip, lsl r0

00009d48 <timer_get_usec_raw>:
    9d48:	e59f0000 	ldr	r0, [pc]	; 9d50 <timer_get_usec_raw+0x8>
    9d4c:	eafff8b6 	b	802c <GET32>
    9d50:	20003004 	andcs	r3, r0, r4

00009d54 <timer_get_usec>:
    9d54:	e92d4010 	push	{r4, lr}
    9d58:	ebffffd1 	bl	9ca4 <dev_barrier>
    9d5c:	e59f0010 	ldr	r0, [pc, #16]	; 9d74 <timer_get_usec+0x20>
    9d60:	ebfff8b1 	bl	802c <GET32>
    9d64:	e1a04000 	mov	r4, r0
    9d68:	ebffffcd 	bl	9ca4 <dev_barrier>
    9d6c:	e1a00004 	mov	r0, r4
    9d70:	e8bd8010 	pop	{r4, pc}
    9d74:	20003004 	andcs	r3, r0, r4

00009d78 <delay_us>:
    9d78:	e92d41f0 	push	{r4, r5, r6, r7, r8, lr}
    9d7c:	e1a06000 	mov	r6, r0
    9d80:	ebffffc7 	bl	9ca4 <dev_barrier>
    9d84:	e59f0030 	ldr	r0, [pc, #48]	; 9dbc <delay_us+0x44>
    9d88:	ebfff8a7 	bl	802c <GET32>
    9d8c:	e1a05000 	mov	r5, r0
    9d90:	ebffffc3 	bl	9ca4 <dev_barrier>
    9d94:	e59f7020 	ldr	r7, [pc, #32]	; 9dbc <delay_us+0x44>
    9d98:	ebffffc1 	bl	9ca4 <dev_barrier>
    9d9c:	e1a00007 	mov	r0, r7
    9da0:	ebfff8a1 	bl	802c <GET32>
    9da4:	e1a04000 	mov	r4, r0
    9da8:	e0444005 	sub	r4, r4, r5
    9dac:	ebffffbc 	bl	9ca4 <dev_barrier>
    9db0:	e1540006 	cmp	r4, r6
    9db4:	3afffff7 	bcc	9d98 <delay_us+0x20>
    9db8:	e8bd81f0 	pop	{r4, r5, r6, r7, r8, pc}
    9dbc:	20003004 	andcs	r3, r0, r4

00009dc0 <delay_ms>:
    9dc0:	e92d41f0 	push	{r4, r5, r6, r7, r8, lr}
    9dc4:	e0604280 	rsb	r4, r0, r0, lsl #5
    9dc8:	e0800104 	add	r0, r0, r4, lsl #2
    9dcc:	e1a04180 	lsl	r4, r0, #3
    9dd0:	ebffffb3 	bl	9ca4 <dev_barrier>
    9dd4:	e59f0030 	ldr	r0, [pc, #48]	; 9e0c <delay_ms+0x4c>
    9dd8:	ebfff893 	bl	802c <GET32>
    9ddc:	e1a06000 	mov	r6, r0
    9de0:	ebffffaf 	bl	9ca4 <dev_barrier>
    9de4:	e59f7020 	ldr	r7, [pc, #32]	; 9e0c <delay_ms+0x4c>
    9de8:	ebffffad 	bl	9ca4 <dev_barrier>
    9dec:	e1a00007 	mov	r0, r7
    9df0:	ebfff88d 	bl	802c <GET32>
    9df4:	e1a05000 	mov	r5, r0
    9df8:	e0455006 	sub	r5, r5, r6
    9dfc:	ebffffa8 	bl	9ca4 <dev_barrier>
    9e00:	e1540005 	cmp	r4, r5
    9e04:	8afffff7 	bhi	9de8 <delay_ms+0x28>
    9e08:	e8bd81f0 	pop	{r4, r5, r6, r7, r8, pc}
    9e0c:	20003004 	andcs	r3, r0, r4

00009e10 <delay_sec>:
    9e10:	e92d41f0 	push	{r4, r5, r6, r7, r8, lr}
    9e14:	e0604280 	rsb	r4, r0, r0, lsl #5
    9e18:	e0644304 	rsb	r4, r4, r4, lsl #6
    9e1c:	e0800184 	add	r0, r0, r4, lsl #3
    9e20:	e1a04300 	lsl	r4, r0, #6
    9e24:	ebffff9e 	bl	9ca4 <dev_barrier>
    9e28:	e59f0030 	ldr	r0, [pc, #48]	; 9e60 <delay_sec+0x50>
    9e2c:	ebfff87e 	bl	802c <GET32>
    9e30:	e1a06000 	mov	r6, r0
    9e34:	ebffff9a 	bl	9ca4 <dev_barrier>
    9e38:	e59f7020 	ldr	r7, [pc, #32]	; 9e60 <delay_sec+0x50>
    9e3c:	ebffff98 	bl	9ca4 <dev_barrier>
    9e40:	e1a00007 	mov	r0, r7
    9e44:	ebfff878 	bl	802c <GET32>
    9e48:	e1a05000 	mov	r5, r0
    9e4c:	e0455006 	sub	r5, r5, r6
    9e50:	ebffff93 	bl	9ca4 <dev_barrier>
    9e54:	e1540005 	cmp	r4, r5
    9e58:	8afffff7 	bhi	9e3c <delay_sec+0x2c>
    9e5c:	e8bd81f0 	pop	{r4, r5, r6, r7, r8, pc}
    9e60:	20003004 	andcs	r3, r0, r4

00009e64 <and_in32>:
    9e64:	e92d4070 	push	{r4, r5, r6, lr}
    9e68:	e1a04000 	mov	r4, r0
    9e6c:	e1a05001 	mov	r5, r1
    9e70:	ebfff86d 	bl	802c <GET32>
    9e74:	e0001005 	and	r1, r0, r5
    9e78:	e1a00004 	mov	r0, r4
    9e7c:	ebfff868 	bl	8024 <PUT32>
    9e80:	e8bd8070 	pop	{r4, r5, r6, pc}

00009e84 <or_in32>:
    9e84:	e92d4070 	push	{r4, r5, r6, lr}
    9e88:	e1a04000 	mov	r4, r0
    9e8c:	e1a05001 	mov	r5, r1
    9e90:	ebfff865 	bl	802c <GET32>
    9e94:	e1801005 	orr	r1, r0, r5
    9e98:	e1a00004 	mov	r0, r4
    9e9c:	ebfff860 	bl	8024 <PUT32>
    9ea0:	e8bd8070 	pop	{r4, r5, r6, pc}

00009ea4 <uart_init>:
    9ea4:	e92d4010 	push	{r4, lr}
    9ea8:	e3a01002 	mov	r1, #2, 0
    9eac:	e3a0000e 	mov	r0, #14, 0
    9eb0:	ebfffc2e 	bl	8f70 <gpio_set_function>
    9eb4:	e3a01002 	mov	r1, #2, 0
    9eb8:	e3a0000f 	mov	r0, #15, 0
    9ebc:	ebfffc2b 	bl	8f70 <gpio_set_function>
    9ec0:	ebffff77 	bl	9ca4 <dev_barrier>
    9ec4:	e3a01001 	mov	r1, #1, 0
    9ec8:	e59f0064 	ldr	r0, [pc, #100]	; 9f34 <uart_init+0x90>
    9ecc:	ebffffec 	bl	9e84 <or_in32>
    9ed0:	ebffff73 	bl	9ca4 <dev_barrier>
    9ed4:	e59f405c 	ldr	r4, [pc, #92]	; 9f38 <uart_init+0x94>
    9ed8:	e3a01000 	mov	r1, #0, 0
    9edc:	e1a00004 	mov	r0, r4
    9ee0:	ebfff84f 	bl	8024 <PUT32>
    9ee4:	e3a01000 	mov	r1, #0, 0
    9ee8:	e59f004c 	ldr	r0, [pc, #76]	; 9f3c <uart_init+0x98>
    9eec:	ebfff84c 	bl	8024 <PUT32>
    9ef0:	e3a01003 	mov	r1, #3, 0
    9ef4:	e59f0044 	ldr	r0, [pc, #68]	; 9f40 <uart_init+0x9c>
    9ef8:	ebfff849 	bl	8024 <PUT32>
    9efc:	e3a01000 	mov	r1, #0, 0
    9f00:	e59f003c 	ldr	r0, [pc, #60]	; 9f44 <uart_init+0xa0>
    9f04:	ebfff846 	bl	8024 <PUT32>
    9f08:	e3a010c7 	mov	r1, #199, 0	; 0xc7
    9f0c:	e59f0034 	ldr	r0, [pc, #52]	; 9f48 <uart_init+0xa4>
    9f10:	ebfff843 	bl	8024 <PUT32>
    9f14:	e59f1030 	ldr	r1, [pc, #48]	; 9f4c <uart_init+0xa8>
    9f18:	e59f0030 	ldr	r0, [pc, #48]	; 9f50 <uart_init+0xac>
    9f1c:	ebfff840 	bl	8024 <PUT32>
    9f20:	e3a01003 	mov	r1, #3, 0
    9f24:	e1a00004 	mov	r0, r4
    9f28:	ebfff83d 	bl	8024 <PUT32>
    9f2c:	ebffff5c 	bl	9ca4 <dev_barrier>
    9f30:	e8bd8010 	pop	{r4, pc}
    9f34:	20215004 	eorcs	r5, r1, r4
    9f38:	20215060 	eorcs	r5, r1, r0, rrx
    9f3c:	20215044 	eorcs	r5, r1, r4, asr #32
    9f40:	2021504c 	eorcs	r5, r1, ip, asr #32
    9f44:	20215050 	eorcs	r5, r1, r0, asr r0
    9f48:	20215048 	eorcs	r5, r1, r8, asr #32
    9f4c:	0000010e 	andeq	r0, r0, lr, lsl #2
    9f50:	20215068 	eorcs	r5, r1, r8, rrx

00009f54 <uart_can_getc>:
    9f54:	e92d4010 	push	{r4, lr}
    9f58:	e59f0008 	ldr	r0, [pc, #8]	; 9f68 <uart_can_getc+0x14>
    9f5c:	ebfff832 	bl	802c <GET32>
    9f60:	e2000001 	and	r0, r0, #1, 0
    9f64:	e8bd8010 	pop	{r4, pc}
    9f68:	20215064 	eorcs	r5, r1, r4, rrx

00009f6c <uart_can_putc>:
    9f6c:	e92d4010 	push	{r4, lr}
    9f70:	e59f0010 	ldr	r0, [pc, #16]	; 9f88 <uart_can_putc+0x1c>
    9f74:	ebfff82c 	bl	802c <GET32>
    9f78:	e3100002 	tst	r0, #2, 0
    9f7c:	13a00001 	movne	r0, #1, 0
    9f80:	03a00000 	moveq	r0, #0, 0
    9f84:	e8bd8010 	pop	{r4, pc}
    9f88:	20215064 	eorcs	r5, r1, r4, rrx

00009f8c <uart_getc>:
    9f8c:	e92d4010 	push	{r4, lr}
    9f90:	ebffff43 	bl	9ca4 <dev_barrier>
    9f94:	ebffffee 	bl	9f54 <uart_can_getc>
    9f98:	e3500000 	cmp	r0, #0, 0
    9f9c:	0afffffc 	beq	9f94 <uart_getc+0x8>
    9fa0:	e59f0010 	ldr	r0, [pc, #16]	; 9fb8 <uart_getc+0x2c>
    9fa4:	ebfff820 	bl	802c <GET32>
    9fa8:	e6ef4070 	uxtb	r4, r0
    9fac:	ebffff3c 	bl	9ca4 <dev_barrier>
    9fb0:	e1a00004 	mov	r0, r4
    9fb4:	e8bd8010 	pop	{r4, pc}
    9fb8:	20215040 	eorcs	r5, r1, r0, asr #32

00009fbc <uart_putc>:
    9fbc:	e92d4010 	push	{r4, lr}
    9fc0:	e1a04000 	mov	r4, r0
    9fc4:	ebffff36 	bl	9ca4 <dev_barrier>
    9fc8:	ebffffe7 	bl	9f6c <uart_can_putc>
    9fcc:	e3500000 	cmp	r0, #0, 0
    9fd0:	0afffffc 	beq	9fc8 <uart_putc+0xc>
    9fd4:	e6ef1074 	uxtb	r1, r4
    9fd8:	e59f0008 	ldr	r0, [pc, #8]	; 9fe8 <uart_putc+0x2c>
    9fdc:	ebfff810 	bl	8024 <PUT32>
    9fe0:	ebffff2f 	bl	9ca4 <dev_barrier>
    9fe4:	e8bd8010 	pop	{r4, pc}
    9fe8:	20215040 	eorcs	r5, r1, r0, asr #32

00009fec <uart_has_data>:
    9fec:	e92d4010 	push	{r4, lr}
    9ff0:	ebffff2b 	bl	9ca4 <dev_barrier>
    9ff4:	ebffffd6 	bl	9f54 <uart_can_getc>
    9ff8:	e8bd8010 	pop	{r4, pc}

00009ffc <uart_tx_is_empty>:
    9ffc:	e92d4010 	push	{r4, lr}
    a000:	ebffff27 	bl	9ca4 <dev_barrier>
    a004:	e59f000c 	ldr	r0, [pc, #12]	; a018 <uart_tx_is_empty+0x1c>
    a008:	ebfff807 	bl	802c <GET32>
    a00c:	e1a004a0 	lsr	r0, r0, #9
    a010:	e2000001 	and	r0, r0, #1, 0
    a014:	e8bd8010 	pop	{r4, pc}
    a018:	20215064 	eorcs	r5, r1, r4, rrx

0000a01c <uart_flush_tx>:
    a01c:	e92d4010 	push	{r4, lr}
    a020:	ebfffff5 	bl	9ffc <uart_tx_is_empty>
    a024:	e3500000 	cmp	r0, #0, 0
    a028:	0afffffc 	beq	a020 <uart_flush_tx+0x4>
    a02c:	e8bd8010 	pop	{r4, pc}

0000a030 <uart_disable>:
    a030:	e92d4010 	push	{r4, lr}
    a034:	ebfffff8 	bl	a01c <uart_flush_tx>
    a038:	ebffff19 	bl	9ca4 <dev_barrier>
    a03c:	e3e01001 	mvn	r1, #1, 0
    a040:	e59f0008 	ldr	r0, [pc, #8]	; a050 <uart_disable+0x20>
    a044:	ebffff86 	bl	9e64 <and_in32>
    a048:	ebffff15 	bl	9ca4 <dev_barrier>
    a04c:	e8bd8010 	pop	{r4, pc}
    a050:	20215004 	eorcs	r5, r1, r4

0000a054 <internal_putchar>:
    a054:	e92d4010 	push	{r4, lr}
    a058:	e1a04000 	mov	r4, r0
    a05c:	ebffffd6 	bl	9fbc <uart_putc>
    a060:	e1a00004 	mov	r0, r4
    a064:	e8bd8010 	pop	{r4, pc}

0000a068 <rpi_reset_putc>:
    a068:	e59f3008 	ldr	r3, [pc, #8]	; a078 <rpi_reset_putc+0x10>
    a06c:	e59f2008 	ldr	r2, [pc, #8]	; a07c <rpi_reset_putc+0x14>
    a070:	e5832000 	str	r2, [r3]
    a074:	e12fff1e 	bx	lr
    a078:	0000a7a0 	andeq	sl, r0, r0, lsr #15
    a07c:	0000a054 	andeq	sl, r0, r4, asr r0

0000a080 <rpi_set_putc>:
    a080:	e59f3004 	ldr	r3, [pc, #4]	; a08c <rpi_set_putc+0xc>
    a084:	e5830000 	str	r0, [r3]
    a088:	e12fff1e 	bx	lr
    a08c:	0000a7a0 	andeq	sl, r0, r0, lsr #15

0000a090 <strcat>:
    a090:	e1a02000 	mov	r2, r0
    a094:	e1a03002 	mov	r3, r2
    a098:	e4d2c001 	ldrb	ip, [r2], #1
    a09c:	e35c0000 	cmp	ip, #0, 0
    a0a0:	1afffffb 	bne	a094 <strcat+0x4>
    a0a4:	e2433001 	sub	r3, r3, #1, 0
    a0a8:	e4d12001 	ldrb	r2, [r1], #1
    a0ac:	e3520000 	cmp	r2, #0, 0
    a0b0:	e5e32001 	strb	r2, [r3, #1]!
    a0b4:	1afffffb 	bne	a0a8 <strcat+0x18>
    a0b8:	e12fff1e 	bx	lr

0000a0bc <strcmp>:
    a0bc:	e5d03000 	ldrb	r3, [r0]
    a0c0:	e3530000 	cmp	r3, #0, 0
    a0c4:	05d12000 	ldrbeq	r2, [r1]
    a0c8:	1a000003 	bne	a0dc <strcmp+0x20>
    a0cc:	ea000006 	b	a0ec <strcmp+0x30>
    a0d0:	e5f03001 	ldrb	r3, [r0, #1]!
    a0d4:	e3530000 	cmp	r3, #0, 0
    a0d8:	0a000005 	beq	a0f4 <strcmp+0x38>
    a0dc:	e1a0c001 	mov	ip, r1
    a0e0:	e4d12001 	ldrb	r2, [r1], #1
    a0e4:	e1520003 	cmp	r2, r3
    a0e8:	0afffff8 	beq	a0d0 <strcmp+0x14>
    a0ec:	e0430002 	sub	r0, r3, r2
    a0f0:	e12fff1e 	bx	lr
    a0f4:	e5dc2001 	ldrb	r2, [ip, #1]
    a0f8:	e0430002 	sub	r0, r3, r2
    a0fc:	e12fff1e 	bx	lr

0000a100 <strcpy>:
    a100:	e2402001 	sub	r2, r0, #1, 0
    a104:	e4d13001 	ldrb	r3, [r1], #1
    a108:	e3530000 	cmp	r3, #0, 0
    a10c:	e5e23001 	strb	r3, [r2, #1]!
    a110:	1afffffb 	bne	a104 <strcpy+0x4>
    a114:	e12fff1e 	bx	lr

0000a118 <strncmp>:
    a118:	e0802002 	add	r2, r0, r2
    a11c:	ea000003 	b	a130 <strncmp+0x18>
    a120:	e4d03001 	ldrb	r3, [r0], #1
    a124:	e4d1c001 	ldrb	ip, [r1], #1
    a128:	e153000c 	cmp	r3, ip
    a12c:	1a000003 	bne	a140 <strncmp+0x28>
    a130:	e1500002 	cmp	r0, r2
    a134:	1afffff9 	bne	a120 <strncmp+0x8>
    a138:	e3a00000 	mov	r0, #0, 0
    a13c:	e12fff1e 	bx	lr
    a140:	e043000c 	sub	r0, r3, ip
    a144:	e12fff1e 	bx	lr

0000a148 <reboot_callout>:
    a148:	e12fff1e 	bx	lr

0000a14c <__code_end__>:
    a14c:	00000000 	andeq	r0, r0, r0

Disassembly of section .rodata:

0000a150 <__FUNCTION__.4058-0x1b8>:
    a150:	6f727967 	svcvs	0x00727967
    a154:	0000632e 	andeq	r6, r0, lr, lsr #6
    a158:	494e4150 	stmdbmi	lr, {r4, r6, r8, lr}^
    a15c:	73253a43 			; <UNDEFINED> instruction: 0x73253a43
    a160:	3a73253a 	bcc	1cd3650 <__bss_end__+0x1cc8aa0>
    a164:	623a6425 	eorsvs	r6, sl, #620756992	; 0x25000000
    a168:	64206461 	strtvs	r6, [r0], #-1121	; 0xfffffb9f
    a16c:	253d7370 	ldrcs	r7, [sp, #-880]!	; 0xfffffc90
    a170:	000a0a64 	andeq	r0, sl, r4, ror #20
    a174:	494e4150 	stmdbmi	lr, {r4, r6, r8, lr}^
    a178:	73253a43 			; <UNDEFINED> instruction: 0x73253a43
    a17c:	3a73253a 	bcc	1cd366c <__bss_end__+0x1cc8abc>
    a180:	693a6425 	ldmdbvs	sl!, {r0, r2, r5, sl, sp, lr}
    a184:	6c61766e 	stclvs	6, cr7, [r1], #-440	; 0xfffffe48
    a188:	64206469 	strtvs	r6, [r0], #-1129	; 0xfffffb97
    a18c:	203a7370 	eorscs	r7, sl, r0, ror r3
    a190:	0a0a6425 	beq	2a322c <__bss_end__+0x29867c>
    a194:	00000000 	andeq	r0, r0, r0
    a198:	494e4150 	stmdbmi	lr, {r4, r6, r8, lr}^
    a19c:	73253a43 			; <UNDEFINED> instruction: 0x73253a43
    a1a0:	3a73253a 	bcc	1cd3690 <__bss_end__+0x1cc8ae0>
    a1a4:	653a6425 	ldrvs	r6, [sl, #-1061]!	; 0xfffffbdb
    a1a8:	63657078 	cmnvs	r5, #120, 0	; 0x78
    a1ac:	20646574 	rsbcs	r6, r4, r4, ror r5
    a1b0:	202c6425 	eorcs	r6, ip, r5, lsr #8
    a1b4:	20746f67 	rsbscs	r6, r4, r7, ror #30
    a1b8:	6425203d 	strtvs	r2, [r5], #-61	; 0xffffffc3
    a1bc:	6373202c 	cmnvs	r3, #44, 0	; 0x2c
    a1c0:	3d656c61 	stclcc	12, cr6, [r5, #-388]!	; 0xfffffe7c
    a1c4:	0a0a6425 	beq	2a3260 <__bss_end__+0x2986b0>
    a1c8:	00000000 	andeq	r0, r0, r0
    a1cc:	65707865 	ldrbvs	r7, [r0, #-2149]!	; 0xfffff79b
    a1d0:	64657463 	strbtvs	r7, [r5], #-1123	; 0xfffffb9d
    a1d4:	2c642520 	cfstr64cs	mvdx2, [r4], #-128	; 0xffffff80
    a1d8:	746f6720 	strbtvc	r6, [pc], #-1824	; a1e0 <__code_end__+0x94>
    a1dc:	25203d20 	strcs	r3, [r0, #-3360]!	; 0xfffff2e0
    a1e0:	28202c64 	stmdacs	r0!, {r2, r5, r6, sl, fp, sp}
    a1e4:	68746977 	ldmdavs	r4!, {r0, r1, r2, r4, r5, r6, r8, fp, sp, lr}^
    a1e8:	2b206e69 	blcs	825b94 <__bss_end__+0x81afe4>
    a1ec:	64252d2f 	strtvs	r2, [r5], #-3375	; 0xfffff2d1
    a1f0:	63732029 	cmnvs	r3, #41, 0	; 0x29
    a1f4:	3d656c61 	stclcc	12, cr6, [r5, #-388]!	; 0xfffffe7c
    a1f8:	000a6425 	andeq	r6, sl, r5, lsr #8
    a1fc:	28207325 	stmdacs	r0!, {r0, r2, r5, r8, r9, ip, sp, lr}
    a200:	64253d78 	strtvs	r3, [r5], #-3448	; 0xfffff288
    a204:	253d792c 	ldrcs	r7, [sp, #-2348]!	; 0xfffff6d4
    a208:	3d7a2c64 	ldclcc	12, cr2, [sl, #-400]!	; 0xfffffe70
    a20c:	0a296425 	beq	a632a8 <__bss_end__+0xa586f8>
    a210:	00000000 	andeq	r0, r0, r0
    a214:	494e4150 	stmdbmi	lr, {r4, r6, r8, lr}^
    a218:	73253a43 			; <UNDEFINED> instruction: 0x73253a43
    a21c:	3a73253a 	bcc	1cd370c <__bss_end__+0x1cc8b5c>
    a220:	693a6425 	ldmdbvs	sl!, {r0, r2, r5, sl, sp, lr}
    a224:	6c61766e 	stclvs	6, cr7, [r1], #-440	; 0xfffffe48
    a228:	64206469 	strtvs	r6, [r0], #-1129	; 0xfffffb97
    a22c:	203a7370 	eorscs	r7, sl, r0, ror r3
    a230:	0a0a6225 	beq	2a2acc <__bss_end__+0x297f1c>
    a234:	00000000 	andeq	r0, r0, r0
    a238:	494e4150 	stmdbmi	lr, {r4, r6, r8, lr}^
    a23c:	73253a43 			; <UNDEFINED> instruction: 0x73253a43
    a240:	3a73253a 	bcc	1cd3730 <__bss_end__+0x1cc8b80>
    a244:	493a6425 	ldmdbmi	sl!, {r0, r2, r5, sl, sp, lr}
    a248:	6974696e 	ldmdbvs	r4!, {r1, r2, r3, r5, r6, r8, fp, sp, lr}^
    a24c:	70206c61 	eorvc	r6, r0, r1, ror #24
    a250:	65626f72 	strbvs	r6, [r2, #-3954]!	; 0xfffff08e
    a254:	69616620 	stmdbvs	r1!, {r5, r9, sl, sp, lr}^
    a258:	3a64656c 	bcc	1923810 <__bss_end__+0x1918c60>
    a25c:	70786520 	rsbsvc	r6, r8, r0, lsr #10
    a260:	65746365 	ldrbvs	r6, [r4, #-869]!	; 0xfffffc9b
    a264:	62252064 	eorvs	r2, r5, #100, 0	; 0x64
    a268:	20726f20 	rsbscs	r6, r2, r0, lsr #30
    a26c:	6f206225 	svcvs	0x00206225
    a270:	62252072 	eorvs	r2, r5, #114, 0	; 0x72
    a274:	6f67202c 	svcvs	0x0067202c
    a278:	62252074 	eorvs	r2, r5, #116, 0	; 0x74
    a27c:	00000a0a 	andeq	r0, r0, sl, lsl #20
    a280:	43435553 	movtmi	r5, #13651	; 0x3553
    a284:	3a535345 	bcc	14defa0 <__bss_end__+0x14d43f0>
    a288:	75706d20 	ldrbvc	r6, [r0, #-3360]!	; 0xfffff2e0
    a28c:	3035362d 	eorscc	r3, r5, sp, lsr #12
    a290:	63612030 	cmnvs	r1, #48, 0	; 0x30
    a294:	776f6e6b 	strbvc	r6, [pc, -fp, ror #28]!
    a298:	6764656c 	strbvs	r6, [r4, -ip, ror #10]!
    a29c:	6f206465 	svcvs	0x00206465
    a2a0:	70207275 	eorvc	r7, r0, r5, ror r2
    a2a4:	3a676e69 	bcc	19e5c50 <__bss_end__+0x19db0a0>
    a2a8:	4f485720 	svcmi	0x00485720
    a2ac:	5f4d415f 	svcpl	0x004d415f
    a2b0:	62253d49 	eorvs	r3, r5, #4672	; 0x1240
    a2b4:	000a2121 	andeq	r2, sl, r1, lsr #2
    a2b8:	494e4150 	stmdbmi	lr, {r4, r6, r8, lr}^
    a2bc:	73253a43 			; <UNDEFINED> instruction: 0x73253a43
    a2c0:	3a73253a 	bcc	1cd37b0 <__bss_end__+0x1cc8c00>
    a2c4:	253a6425 	ldrcs	r6, [sl, #-1061]!	; 0xfffffbdb
    a2c8:	00000a73 	andeq	r0, r0, r3, ror sl
    a2cc:	70642e67 	rsbvc	r2, r4, r7, ror #28
    a2d0:	323d3d73 	eorscc	r3, sp, #7360	; 0x1cc0
    a2d4:	00003035 	andeq	r3, r0, r5, lsr r0
    a2d8:	64616572 	strbtvs	r6, [r1], #-1394	; 0xfffffa8e
    a2dc:	20676e69 	rsbcs	r6, r7, r9, ror #28
    a2e0:	6f727967 	svcvs	0x00727967
    a2e4:	0a642520 	beq	191376c <__bss_end__+0x1908bbc>
    a2e8:	00000000 	andeq	r0, r0, r0
    a2ec:	77617209 	strbvc	r7, [r1, -r9, lsl #4]!
    a2f0:	00000000 	andeq	r0, r0, r0
    a2f4:	61637309 	cmnvs	r3, r9, lsl #6
    a2f8:	2064656c 	rsbcs	r6, r4, ip, ror #10
    a2fc:	6c696d28 	stclvs	13, cr6, [r9], #-160	; 0xffffff60
    a300:	6420696c 	strtvs	r6, [r0], #-2412	; 0xfffff694
    a304:	00297370 	eoreq	r7, r9, r0, ror r3

0000a308 <__FUNCTION__.4058>:
    a308:	7370646d 	cmnvc	r0, #1828716544	; 0x6d000000
    a30c:	6163735f 	cmnvs	r3, pc, asr r3
    a310:	645f656c 	ldrbvs	r6, [pc], #-1388	; a318 <__FUNCTION__.4053>
    a314:	00326765 	eorseq	r6, r2, r5, ror #14

0000a318 <__FUNCTION__.4053>:
    a318:	5f737064 	svcpl	0x00737064
    a31c:	735f6f74 	cmpvc	pc, #116, 30	; 0x1d0
    a320:	656c6163 	strbvs	r6, [ip, #-355]!	; 0xfffffe9d
    a324:	00000000 	andeq	r0, r0, r0

0000a328 <__FUNCTION__.4077>:
    a328:	74736574 	ldrbtvc	r6, [r3], #-1396	; 0xfffffa8c
    a32c:	7370645f 	cmnvc	r0, #1593835520	; 0x5f000000
    a330:	00000000 	andeq	r0, r0, r0

0000a334 <__FUNCTION__.4039>:
    a334:	3675706d 	ldrbtcc	r7, [r5], -sp, rrx
    a338:	5f303035 	svcpl	0x00303035
    a33c:	6f727967 	svcvs	0x00727967
    a340:	696e695f 	stmdbvs	lr!, {r0, r1, r2, r3, r4, r6, r8, fp, sp, lr}^
    a344:	00000074 	andeq	r0, r0, r4, ror r0

0000a348 <__FUNCTION__.4110>:
    a348:	6d746f6e 	ldclvs	15, cr6, [r4, #-440]!	; 0xfffffe48
    a34c:	006e6961 	rsbeq	r6, lr, r1, ror #18
    a350:	2e633269 	cdpcs	2, 6, cr3, cr3, cr9, {3}
    a354:	00000063 	andeq	r0, r0, r3, rrx
    a358:	494e4150 	stmdbmi	lr, {r4, r6, r8, lr}^
    a35c:	73253a43 			; <UNDEFINED> instruction: 0x73253a43
    a360:	3a73253a 	bcc	1cd3850 <__bss_end__+0x1cc8ca0>
    a364:	6f3a6425 	svcvs	0x003a6425
    a368:	65736666 	ldrbvs	r6, [r3, #-1638]!	; 0xfffff99a
    a36c:	72772074 	rsbsvc	r2, r7, #116, 0	; 0x74
    a370:	3a676e6f 	bcc	19e5d34 <__bss_end__+0x19db184>
    a374:	70786520 	rsbsvc	r6, r8, r0, lsr #10
    a378:	20746365 	rsbscs	r6, r4, r5, ror #6
    a37c:	67207825 	strvs	r7, [r0, -r5, lsr #16]!
    a380:	2520746f 	strcs	r7, [r0, #-1135]!	; 0xfffffb91
    a384:	73252078 			; <UNDEFINED> instruction: 0x73252078
    a388:	666f5b20 	strbtvs	r5, [pc], -r0, lsr #22
    a38c:	64253d66 	strtvs	r3, [r5], #-3430	; 0xfffff29a
    a390:	69626e2c 	stmdbvs	r2!, {r2, r3, r5, r9, sl, fp, sp, lr}^
    a394:	253d7374 	ldrcs	r7, [sp, #-884]!	; 0xfffffc8c
    a398:	0a0a5d64 	beq	2a1930 <__bss_end__+0x296d80>
    a39c:	00000000 	andeq	r0, r0, r0
    a3a0:	64616572 	strbtvs	r6, [r1], #-1394	; 0xfffffa8e
    a3a4:	00000000 	andeq	r0, r0, r0
    a3a8:	61656c63 	cmnvs	r5, r3, ror #24
    a3ac:	00000072 	andeq	r0, r0, r2, ror r0
    a3b0:	494e4150 	stmdbmi	lr, {r4, r6, r8, lr}^
    a3b4:	73253a43 			; <UNDEFINED> instruction: 0x73253a43
    a3b8:	3a73253a 	bcc	1cd38a8 <__bss_end__+0x1cc8cf8>
    a3bc:	773a6425 	ldrvc	r6, [sl, -r5, lsr #8]!
    a3c0:	68746469 	ldmdavs	r4!, {r0, r3, r5, r6, sl, sp, lr}^
    a3c4:	6f727720 	svcvs	0x00727720
    a3c8:	203a676e 	eorscs	r6, sl, lr, ror #14
    a3cc:	65707865 	ldrbvs	r7, [r0, #-2149]!	; 0xfffff79b
    a3d0:	25207463 	strcs	r7, [r0, #-1123]!	; 0xfffffb9d
    a3d4:	6f672078 	svcvs	0x00672078
    a3d8:	78252074 	stmdavc	r5!, {r2, r4, r5, r6, sp}
    a3dc:	20732520 	rsbscs	r2, r3, r0, lsr #10
    a3e0:	66666f5b 	uqsaxvs	r6, r6, fp
    a3e4:	2c64253d 	cfstr64cs	mvdx2, [r4], #-244	; 0xffffff0c
    a3e8:	7469626e 	strbtvc	r6, [r9], #-622	; 0xfffffd92
    a3ec:	64253d73 	strtvs	r3, [r5], #-3443	; 0xfffff28d
    a3f0:	000a0a5d 	andeq	r0, sl, sp, asr sl
    a3f4:	00007473 	andeq	r7, r0, r3, ror r4
    a3f8:	64746e69 	ldrbtvs	r6, [r4], #-3689	; 0xfffff197
    a3fc:	00000000 	andeq	r0, r0, r0
    a400:	74746e69 	ldrbtvc	r6, [r4], #-3689	; 0xfffff197
    a404:	00000000 	andeq	r0, r0, r0
    a408:	72746e69 	rsbsvc	r6, r4, #1680	; 0x690
    a40c:	00000000 	andeq	r0, r0, r0
    a410:	65633269 	strbvs	r3, [r3, #-617]!	; 0xfffffd97
    a414:	0000006e 	andeq	r0, r0, lr, rrx
    a418:	00006174 	andeq	r6, r0, r4, ror r1
    a41c:	656e6f64 	strbvs	r6, [lr, #-3940]!	; 0xfffff09c
    a420:	00000000 	andeq	r0, r0, r0
    a424:	00777874 	rsbseq	r7, r7, r4, ror r8
    a428:	00727872 	rsbseq	r7, r2, r2, ror r8
    a42c:	00647874 	rsbeq	r7, r4, r4, ror r8
    a430:	00647872 	rsbeq	r7, r4, r2, ror r8
    a434:	00657874 	rsbeq	r7, r5, r4, ror r8
    a438:	00667872 	rsbeq	r7, r6, r2, ror r8
    a43c:	00727265 	rsbseq	r7, r2, r5, ror #4
    a440:	746b6c63 	strbtvc	r6, [fp], #-3171	; 0xfffff39d
    a444:	0000006b 	andeq	r0, r0, fp, rrx
    a448:	494e4150 	stmdbmi	lr, {r4, r6, r8, lr}^
    a44c:	73253a43 			; <UNDEFINED> instruction: 0x73253a43
    a450:	3a73253a 	bcc	1cd3940 <__bss_end__+0x1cc8d90>
    a454:	693a6425 	ldmdbvs	sl!, {r0, r2, r5, sl, sp, lr}
    a458:	73206332 			; <UNDEFINED> instruction: 0x73206332
    a45c:	6576616c 	ldrbvs	r6, [r6, #-364]!	; 0xfffffe94
    a460:	6b636120 	blvs	18e28e8 <__bss_end__+0x18d7d38>
    a464:	72726520 	rsbsvc	r6, r2, #32, 10	; 0x8000000
    a468:	000a726f 	andeq	r7, sl, pc, ror #4
    a46c:	494e4150 	stmdbmi	lr, {r4, r6, r8, lr}^
    a470:	73253a43 			; <UNDEFINED> instruction: 0x73253a43
    a474:	3a73253a 	bcc	1cd3964 <__bss_end__+0x1cc8db4>
    a478:	693a6425 	ldmdbvs	sl!, {r0, r2, r5, sl, sp, lr}
    a47c:	73206332 			; <UNDEFINED> instruction: 0x73206332
    a480:	6576616c 	ldrbvs	r6, [r6, #-364]!	; 0xfffffe94
    a484:	6c656820 	stclvs	8, cr6, [r5], #-128	; 0xffffff80
    a488:	696c2064 	stmdbvs	ip!, {r2, r5, r6, sp}^
    a48c:	7420656e 	strtvc	r6, [r0], #-1390	; 0xfffffa92
    a490:	6c206f6f 	stcvs	15, cr6, [r0], #-444	; 0xfffffe44
    a494:	0a676e6f 	beq	19e5e58 <__bss_end__+0x19db2a8>
    a498:	00000000 	andeq	r0, r0, r0
    a49c:	2d633269 	sfmcs	f3, 2, [r3, #-420]!	; 0xfffffe5c
    a4a0:	6174733e 	cmnvs	r4, lr, lsr r3
    a4a4:	2e737574 	mrccs	5, 3, r7, cr3, cr4, {3}
    a4a8:	3d206174 	stfccs	f6, [r0, #-464]!	; 0xfffffe30
    a4ac:	0030203d 	eorseq	r2, r0, sp, lsr r0
    a4b0:	63326921 	teqvs	r2, #540672	; 0x84000
    a4b4:	74733e2d 	ldrbtvc	r3, [r3], #-3629	; 0xfffff1d3
    a4b8:	73757461 	cmnvc	r5, #1627389952	; 0x61000000
    a4bc:	7272652e 	rsbsvc	r6, r2, #192937984	; 0xb800000
    a4c0:	00000000 	andeq	r0, r0, r0
    a4c4:	2d633269 	sfmcs	f3, 2, [r3, #-420]!	; 0xfffffe5c
    a4c8:	6174733e 	cmnvs	r4, lr, lsr r3
    a4cc:	2e737574 	mrccs	5, 3, r7, cr3, cr4, {3}
    a4d0:	20657874 	rsbcs	r7, r5, r4, ror r8
    a4d4:	31203d3d 			; <UNDEFINED> instruction: 0x31203d3d
    a4d8:	00000000 	andeq	r0, r0, r0
    a4dc:	64612828 	strbtvs	r2, [r1], #-2088	; 0xfffff7d8
    a4e0:	20297264 	eorcs	r7, r9, r4, ror #4
    a4e4:	37203e3e 			; <UNDEFINED> instruction: 0x37203e3e
    a4e8:	3d3d2029 	ldccc	0, cr2, [sp, #-164]!	; 0xffffff5c
    a4ec:	00003020 	andeq	r3, r0, r0, lsr #32
    a4f0:	626e2828 	rsbvs	r2, lr, #40, 16	; 0x280000
    a4f4:	73657479 	cmnvc	r5, #2030043136	; 0x79000000
    a4f8:	3e3e2029 	cdpcc	0, 3, cr2, cr14, cr9, {1}
    a4fc:	29363120 	ldmdbcs	r6!, {r5, r8, ip, sp}
    a500:	203d3d20 	eorscs	r3, sp, r0, lsr #26
    a504:	00000030 	andeq	r0, r0, r0, lsr r0
    a508:	72646461 	rsbvc	r6, r4, #1627389952	; 0x61000000
    a50c:	20782520 	rsbscs	r2, r8, r0, lsr #10
    a510:	6d656573 	cfstr64vs	mvdx6, [r5, #-460]!	; 0xfffffe34
    a514:	6f742073 	svcvs	0x00742073
    a518:	726f7720 	rsbvc	r7, pc, #32, 14	; 0x800000
    a51c:	67203a6b 	strvs	r3, [r0, -fp, ror #20]!
    a520:	676e696f 	strbvs	r6, [lr, -pc, ror #18]!
    a524:	206f7420 	rsbcs	r7, pc, r0, lsr #8
    a528:	72656678 	rsbvc	r6, r5, #120, 12	; 0x7800000
    a52c:	646e6520 	strbtvs	r6, [lr], #-1312	; 0xfffffae0
    a530:	0000000a 	andeq	r0, r0, sl
    a534:	20633269 	rsbcs	r3, r3, r9, ror #4
    a538:	76616c73 			; <UNDEFINED> instruction: 0x76616c73
    a53c:	63612065 	cmnvs	r1, #101, 0	; 0x65
    a540:	7265206b 	rsbvc	r2, r5, #107, 0	; 0x6b
    a544:	3a726f72 	bcc	1ca6314 <__bss_end__+0x1c9b764>
    a548:	0a782520 	beq	1e139d0 <__bss_end__+0x1e08e20>
    a54c:	00000000 	andeq	r0, r0, r0
    a550:	494e4150 	stmdbmi	lr, {r4, r6, r8, lr}^
    a554:	73253a43 			; <UNDEFINED> instruction: 0x73253a43
    a558:	3a73253a 	bcc	1cd3a48 <__bss_end__+0x1cc8e98>
    a55c:	693a6425 	ldmdbvs	sl!, {r0, r2, r5, sl, sp, lr}
    a560:	73206332 			; <UNDEFINED> instruction: 0x73206332
    a564:	6576616c 	ldrbvs	r6, [r6, #-364]!	; 0xfffffe94
    a568:	6c656820 	stclvs	8, cr6, [r5], #-128	; 0xffffff80
    a56c:	696c2064 	stmdbvs	ip!, {r2, r5, r6, sp}^
    a570:	7420656e 	strtvc	r6, [r0], #-1390	; 0xfffffa92
    a574:	6c206f6f 	stcvs	15, cr6, [r0], #-444	; 0xfffffe44
    a578:	0a676e6f 	beq	19e5f3c <__bss_end__+0x19db38c>
    a57c:	0000000a 	andeq	r0, r0, sl
    a580:	494e4150 	stmdbmi	lr, {r4, r6, r8, lr}^
    a584:	73253a43 			; <UNDEFINED> instruction: 0x73253a43
    a588:	3a73253a 	bcc	1cd3a78 <__bss_end__+0x1cc8ec8>
    a58c:	6e3a6425 	cdpvs	4, 3, cr6, cr10, cr5, {1}
    a590:	6461206f 	strbtvs	r2, [r1], #-111	; 0xffffff91
    a594:	77207264 	strvc	r7, [r0, -r4, ror #4]!
    a598:	656b726f 	strbvs	r7, [fp, #-623]!	; 0xfffffd91
    a59c:	000a0a64 	andeq	r0, sl, r4, ror #20

0000a5a0 <__FUNCTION__.4178>:
    a5a0:	63656863 	cmnvs	r5, #6488064	; 0x630000
    a5a4:	616c5f6b 	cmnvs	ip, fp, ror #30
    a5a8:	74756f79 	ldrbtvc	r6, [r5], #-3961	; 0xfffff087
    a5ac:	00000000 	andeq	r0, r0, r0

0000a5b0 <__FUNCTION__.4044>:
    a5b0:	72656678 	rsbvc	r6, r5, #120, 12	; 0x7800000
    a5b4:	646e655f 	strbtvs	r6, [lr], #-1375	; 0xfffffaa1
    a5b8:	00000000 	andeq	r0, r0, r0

0000a5bc <__FUNCTION__.4023>:
    a5bc:	72656678 	rsbvc	r6, r5, #120, 12	; 0x7800000
    a5c0:	6174735f 	cmnvs	r4, pc, asr r3
    a5c4:	00007472 	andeq	r7, r0, r2, ror r4

0000a5c8 <__FUNCTION__.4079>:
    a5c8:	72656678 	rsbvc	r6, r5, #120, 12	; 0x7800000
    a5cc:	6174735f 	cmnvs	r4, pc, asr r3
    a5d0:	685f7472 	ldmdavs	pc, {r1, r4, r5, r6, sl, ip, sp, lr}^	; <UNPREDICTABLE>
    a5d4:	006b6361 	rsbeq	r6, fp, r1, ror #6

0000a5d8 <__FUNCTION__.4054>:
    a5d8:	5f633269 	svcpl	0x00633269
    a5dc:	74697277 	strbtvc	r7, [r9], #-631	; 0xfffffd89
    a5e0:	00000065 	andeq	r0, r0, r5, rrx

0000a5e4 <__FUNCTION__.4067>:
    a5e4:	5f633269 	svcpl	0x00633269
    a5e8:	64616572 	strbtvs	r6, [r1], #-1394	; 0xfffffa8e
    a5ec:	00000000 	andeq	r0, r0, r0

0000a5f0 <__FUNCTION__.4102>:
    a5f0:	5f633269 	svcpl	0x00633269
    a5f4:	63736964 	cmnvs	r3, #100, 18	; 0x190000
    a5f8:	7265766f 	rsbvc	r7, r5, #116391936	; 0x6f00000
    a5fc:	6464615f 	strbtvs	r6, [r4], #-351	; 0xfffffea1
    a600:	00000072 	andeq	r0, r0, r2, ror r0

0000a604 <__FUNCTION__.4149>:
    a604:	5f633269 	svcpl	0x00633269
    a608:	74696e69 	strbtvc	r6, [r9], #-3689	; 0xfffff197
    a60c:	00000000 	andeq	r0, r0, r0
    a610:	696c2f2e 	stmdbvs	ip!, {r1, r2, r3, r5, r8, r9, sl, fp, sp}^
    a614:	762f6362 	strtvc	r6, [pc], -r2, ror #6
    a618:	72702d61 	rsbsvc	r2, r0, #6208	; 0x1840
    a61c:	6b746e69 	blvs	1d25fc8 <__bss_end__+0x1d1b418>
    a620:	0000632e 	andeq	r6, r0, lr, lsr #6
    a624:	33323130 	teqcc	r2, #12
    a628:	37363534 			; <UNDEFINED> instruction: 0x37363534
    a62c:	62613938 	rsbvs	r3, r1, #56, 18	; 0xe0000
    a630:	66656463 	strbtvs	r6, [r5], -r3, ror #8
    a634:	00000000 	andeq	r0, r0, r0
    a638:	00003130 	andeq	r3, r0, r0, lsr r1
    a63c:	33323130 	teqcc	r2, #12
    a640:	37363534 			; <UNDEFINED> instruction: 0x37363534
    a644:	00003938 	andeq	r3, r0, r8, lsr r9
    a648:	63747570 	cmnvs	r4, #112, 10	; 0x1c000000
    a64c:	0070665f 	rsbseq	r6, r0, pc, asr r6
    a650:	74646977 	strbtvc	r6, [r4], #-2423	; 0xfffff689
    a654:	203c2068 	eorscs	r2, ip, r8, rrx
    a658:	00003233 	andeq	r3, r0, r3, lsr r2
    a65c:	00786c6c 	rsbseq	r6, r8, ip, ror #24
    a660:	253d3078 	ldrcs	r3, [sp, #-120]!	; 0xffffff88
    a664:	00000a78 	andeq	r0, r0, r8, ror sl
    a668:	253d3178 	ldrcs	r3, [sp, #-376]!	; 0xfffffe88
    a66c:	00000a78 	andeq	r0, r0, r8, ror sl
    a670:	00646c6c 	rsbeq	r6, r4, ip, ror #24
    a674:	6e727473 	mrcvs	4, 3, r7, cr2, cr3, {3}
    a678:	28706d63 	ldmdacs	r0!, {r0, r1, r5, r6, r8, sl, fp, sp, lr}^
    a67c:	202c7974 	eorcs	r7, ip, r4, ror r9
    a680:	786c6c22 	stmdavc	ip!, {r1, r5, sl, fp, sp, lr}^
    a684:	33202c22 			; <UNDEFINED> instruction: 0x33202c22
    a688:	3d3d2029 	ldccc	0, cr2, [sp, #-164]!	; 0xffffff5c
    a68c:	7c203020 	stcvc	0, cr3, [r0], #-128	; 0xffffff80
    a690:	7473207c 	ldrbtvc	r2, [r3], #-124	; 0xffffff84
    a694:	6d636e72 	stclvs	14, cr6, [r3, #-456]!	; 0xfffffe38
    a698:	79742870 	ldmdbvc	r4!, {r4, r5, r6, fp, sp}^
    a69c:	6c22202c 	stcvs	0, cr2, [r2], #-176	; 0xffffff50
    a6a0:	2c22646c 	cfstrscs	mvf6, [r2], #-432	; 0xfffffe50
    a6a4:	20293320 	eorcs	r3, r9, r0, lsr #6
    a6a8:	30203d3d 	eorcc	r3, r0, sp, lsr sp
    a6ac:	00000000 	andeq	r0, r0, r0
    a6b0:	494e4150 	stmdbmi	lr, {r4, r6, r8, lr}^
    a6b4:	73253a43 			; <UNDEFINED> instruction: 0x73253a43
    a6b8:	3a73253a 	bcc	1cd3ba8 <__bss_end__+0x1cc8ff8>
    a6bc:	693a6425 	ldmdbvs	sl!, {r0, r2, r5, sl, sp, lr}
    a6c0:	736f706d 	cmnvc	pc, #109, 0	; 0x6d
    a6c4:	6c626973 			; <UNDEFINED> instruction: 0x6c626973
    a6c8:	66203a65 	strtvs	r3, [r0], -r5, ror #20
    a6cc:	3c3d746d 	cfldrscc	mvf7, [sp], #-436	; 0xfffffe4c
    a6d0:	0a3e7325 	beq	fa736c <__bss_end__+0xf9c7bc>
    a6d4:	0000000a 	andeq	r0, r0, sl
    a6d8:	494e4150 	stmdbmi	lr, {r4, r6, r8, lr}^
    a6dc:	73253a43 			; <UNDEFINED> instruction: 0x73253a43
    a6e0:	3a73253a 	bcc	1cd3bd0 <__bss_end__+0x1cc9020>
    a6e4:	663a6425 	ldrtvs	r6, [sl], -r5, lsr #8
    a6e8:	74616f6c 	strbtvc	r6, [r1], #-3948	; 0xfffff094
    a6ec:	746f6e20 	strbtvc	r6, [pc], #-3616	; a6f4 <__FUNCTION__.4149+0xf0>
    a6f0:	616e6520 	cmnvs	lr, r0, lsr #10
    a6f4:	64656c62 	strbtvs	r6, [r5], #-3170	; 0xfffff39e
    a6f8:	0a212121 	beq	852b84 <__bss_end__+0x847fd4>
    a6fc:	00000000 	andeq	r0, r0, r0
    a700:	6e697270 	mcrvs	2, 3, r7, cr9, cr0, {3}
    a704:	203a6b74 	eorscs	r6, sl, r4, ror fp
    a708:	20746f6e 	rsbscs	r6, r4, lr, ror #30
    a70c:	646e6168 	strbtvs	r6, [lr], #-360	; 0xfffffe98
    a710:	676e696c 	strbvs	r6, [lr, -ip, ror #18]!
    a714:	65707320 	ldrbvs	r7, [r0, #-800]!	; 0xfffffce0
    a718:	69666963 	stmdbvs	r6!, {r0, r1, r5, r6, r8, fp, sp, lr}^
    a71c:	27207265 	strcs	r7, [r0, -r5, ror #4]!
    a720:	20276325 	eorcs	r6, r7, r5, lsr #6
    a724:	63736128 	cmnvs	r3, #10
    a728:	253d6969 	ldrcs	r6, [sp, #-2409]!	; 0xfffff697
    a72c:	000a2964 	andeq	r2, sl, r4, ror #18
    a730:	494e4150 	stmdbmi	lr, {r4, r6, r8, lr}^
    a734:	73253a43 			; <UNDEFINED> instruction: 0x73253a43
    a738:	3a73253a 	bcc	1cd3c28 <__bss_end__+0x1cc9078>
    a73c:	703a6425 	eorsvc	r6, sl, r5, lsr #8
    a740:	746e6972 	strbtvc	r6, [lr], #-2418	; 0xfffff68e
    a744:	7265206b 	rsbvc	r2, r5, #107, 0	; 0x6b
    a748:	0a726f72 	beq	1ca6518 <__bss_end__+0x1c9b968>
    a74c:	0000000a 	andeq	r0, r0, sl

0000a750 <__FUNCTION__.4008>:
    a750:	74696d65 	strbtvc	r6, [r9], #-3429	; 0xfffff29b
    a754:	00000000 	andeq	r0, r0, r0

0000a758 <__FUNCTION__.3956>:
    a758:	5f697072 	svcpl	0x00697072
    a75c:	5f746573 	svcpl	0x00746573
    a760:	7074756f 	rsbsvc	r7, r4, pc, ror #10
    a764:	00007475 	andeq	r7, r0, r5, ror r4

0000a768 <__FUNCTION__.4034>:
    a768:	705f6176 	subsvc	r6, pc, r6, ror r1	; <UNPREDICTABLE>
    a76c:	746e6972 	strbtvc	r6, [lr], #-2418	; 0xfffff68e
    a770:	0000006b 	andeq	r0, r0, fp, rrx
    a774:	454e4f44 	strbmi	r4, [lr, #-3908]	; 0xfffff0bc
    a778:	0a212121 	beq	852c04 <__bss_end__+0x848054>
    a77c:	00000000 	andeq	r0, r0, r0
    a780:	6e75525b 	mrcvs	2, 3, r5, cr5, cr11, {2}
    a784:	676e696e 	strbvs	r6, [lr, -lr, ror #18]!
    a788:	6f6f7420 	svcvs	0x006f7420
    a78c:	6425206b 	strtvs	r2, [r5], #-107	; 0xffffff95
    a790:	63796320 	cmnvs	r9, #32, 6	; 0x80000000
    a794:	5d73656c 	cfldr64pl	mvdx6, [r3, #-432]!	; 0xfffffe50
    a798:	Address 0x000000000000a798 is out of bounds.


Disassembly of section .data:

0000a79c <putk>:
    a79c:	00009160 	andeq	r9, r0, r0, ror #2

0000a7a0 <rpi_putchar>:
    a7a0:	0000a054 	andeq	sl, r0, r4, asr r0

Disassembly of section .bss:

0000a7a4 <__bss_start__>:
    a7a4:	00000000 	andeq	r0, r0, r0

0000a7a8 <buf.3948>:
	...

0000aba8 <last.3941>:
	...

Disassembly of section .ARM.attributes:

00000000 <.ARM.attributes>:
   0:	00002a41 	andeq	r2, r0, r1, asr #20
   4:	61656100 	cmnvs	r5, r0, lsl #2
   8:	01006962 	tsteq	r0, r2, ror #18
   c:	00000020 	andeq	r0, r0, r0, lsr #32
  10:	4b5a3605 	blmi	168d82c <__bss_end__+0x1682c7c>
  14:	08070600 	stmdaeq	r7, {r9, sl}
  18:	12010901 	andne	r0, r1, #16384	; 0x4000
  1c:	15011404 	strne	r1, [r1, #-1028]	; 0xfffffbfc
  20:	18031701 	stmdane	r3, {r0, r8, r9, sl, ip}
  24:	22011a01 	andcs	r1, r1, #4096	; 0x1000
  28:	Address 0x0000000000000028 is out of bounds.


Disassembly of section .comment:

00000000 <.comment>:
   0:	3a434347 	bcc	10d0d24 <__bss_end__+0x10c6174>
   4:	4e472820 	cdpmi	8, 4, cr2, cr7, cr0, {1}
   8:	6f542055 	svcvs	0x00542055
   c:	20736c6f 	rsbscs	r6, r3, pc, ror #24
  10:	20726f66 	rsbscs	r6, r2, r6, ror #30
  14:	206d7241 	rsbcs	r7, sp, r1, asr #4
  18:	65626d45 	strbvs	r6, [r2, #-3397]!	; 0xfffff2bb
  1c:	64656464 	strbtvs	r6, [r5], #-1124	; 0xfffffb9c
  20:	6f725020 	svcvs	0x00725020
  24:	73736563 	cmnvc	r3, #415236096	; 0x18c00000
  28:	2073726f 	rsbscs	r7, r3, pc, ror #4
  2c:	30322d39 	eorscc	r2, r2, r9, lsr sp
  30:	712d3931 			; <UNDEFINED> instruction: 0x712d3931
  34:	616d2d34 	cmnvs	sp, r4, lsr sp
  38:	29726f6a 	ldmdbcs	r2!, {r1, r3, r5, r6, r8, r9, sl, fp, sp, lr}^
  3c:	322e3920 	eorcc	r3, lr, #32, 18	; 0x80000
  40:	3220312e 	eorcc	r3, r0, #-2147483637	; 0x8000000b
  44:	31393130 	teqcc	r9, r0, lsr r1
  48:	20353230 	eorscs	r3, r5, r0, lsr r2
  4c:	6c657228 	sfmvs	f7, 2, [r5], #-160	; 0xffffff60
  50:	65736165 	ldrbvs	r6, [r3, #-357]!	; 0xfffffe9b
  54:	415b2029 	cmpmi	fp, r9, lsr #32
  58:	612f4d52 			; <UNDEFINED> instruction: 0x612f4d52
  5c:	392d6d72 	pushcc	{r1, r4, r5, r6, r8, sl, fp, sp, lr}
  60:	6172622d 	cmnvs	r2, sp, lsr #4
  64:	2068636e 	rsbcs	r6, r8, lr, ror #6
  68:	69766572 	ldmdbvs	r6!, {r1, r4, r5, r6, r8, sl, sp, lr}^
  6c:	6e6f6973 			; <UNDEFINED> instruction: 0x6e6f6973
  70:	37373220 	ldrcc	r3, [r7, -r0, lsr #4]!
  74:	5d393935 			; <UNDEFINED> instruction: 0x5d393935
  78:	43434700 	movtmi	r4, #14080	; 0x3700
  7c:	3128203a 			; <UNDEFINED> instruction: 0x3128203a
  80:	2d393a35 	vldmdbcs	r9!, {s6-s58}
  84:	39313032 	ldmdbcc	r1!, {r1, r4, r5, ip, sp}
  88:	2d34712d 	ldfcss	f7, [r4, #-180]!	; 0xffffff4c
  8c:	75627530 	strbvc	r7, [r2, #-1328]!	; 0xfffffad0
  90:	3175746e 	cmncc	r5, lr, ror #8
  94:	2e392029 	cdpcs	0, 3, cr2, cr9, cr9, {1}
  98:	20312e32 	eorscs	r2, r1, r2, lsr lr
  9c:	39313032 	ldmdbcc	r1!, {r1, r4, r5, ip, sp}
  a0:	35323031 	ldrcc	r3, [r2, #-49]!	; 0xffffffcf
  a4:	65722820 	ldrbvs	r2, [r2, #-2080]!	; 0xfffff7e0
  a8:	7361656c 	cmnvc	r1, #108, 10	; 0x1b000000
  ac:	5b202965 	blpl	80a648 <__bss_end__+0x7ffa98>
  b0:	2f4d5241 	svccs	0x004d5241
  b4:	2d6d7261 	sfmcs	f7, 2, [sp, #-388]!	; 0xfffffe7c
  b8:	72622d39 	rsbvc	r2, r2, #3648	; 0xe40
  bc:	68636e61 	stmdavs	r3!, {r0, r5, r6, r9, sl, fp, sp, lr}^
  c0:	76657220 	strbtvc	r7, [r5], -r0, lsr #4
  c4:	6f697369 	svcvs	0x00697369
  c8:	3732206e 	ldrcc	r2, [r2, -lr, rrx]!
  cc:	39393537 	ldmdbcc	r9!, {r0, r1, r2, r4, r5, r8, sl, ip, sp}
  d0:	4347005d 	movtmi	r0, #28765	; 0x705d
  d4:	28203a43 	stmdacs	r0!, {r0, r1, r6, r9, fp, ip, sp}
  d8:	20554e47 	subscs	r4, r5, r7, asr #28
  dc:	206d7241 	rsbcs	r7, sp, r1, asr #4
  e0:	65626d45 	strbvs	r6, [r2, #-3397]!	; 0xfffff2bb
  e4:	64656464 	strbtvs	r6, [r5], #-1124	; 0xfffffb9c
  e8:	6f6f5420 	svcvs	0x006f5420
  ec:	6168636c 	cmnvs	r8, ip, ror #6
  f0:	31206e69 			; <UNDEFINED> instruction: 0x31206e69
  f4:	2d332e30 	ldccs	14, cr2, [r3, #-192]!	; 0xffffff40
  f8:	31323032 	teqcc	r2, r2, lsr r0
  fc:	2930312e 	ldmdbcs	r0!, {r1, r2, r3, r5, r8, ip, sp}
 100:	2e303120 	rsfcssp	f3, f0, f0
 104:	20312e33 	eorscs	r2, r1, r3, lsr lr
 108:	31323032 	teqcc	r2, r2, lsr r0
 10c:	34323830 	ldrtcc	r3, [r2], #-2096	; 0xfffff7d0
 110:	65722820 	ldrbvs	r2, [r2, #-2080]!	; 0xfffff7e0
 114:	7361656c 	cmnvc	r1, #108, 10	; 0x1b000000
 118:	Address 0x0000000000000118 is out of bounds.


Disassembly of section .debug_info:

00000000 <.debug_info>:
       0:	00000f70 	andeq	r0, r0, r0, ror pc
       4:	00000004 	andeq	r0, r0, r4
       8:	01040000 	mrseq	r0, (UNDEF: 4)
       c:	0000021b 	andeq	r0, r0, fp, lsl r2
      10:	00012f0c 	andeq	r2, r1, ip, lsl #30
      14:	0002e800 	andeq	lr, r2, r0, lsl #16
      18:	00803800 	addeq	r3, r0, r0, lsl #16
      1c:	00066800 	andeq	r6, r6, r0, lsl #16
      20:	00000000 	andeq	r0, r0, r0
      24:	05040200 	streq	r0, [r4, #-512]	; 0xfffffe00
      28:	00746e69 	rsbseq	r6, r4, r9, ror #28
      2c:	a0070403 	andge	r0, r7, r3, lsl #8
      30:	03000001 	movweq	r0, #1
      34:	01750601 	cmneq	r5, r1, lsl #12
      38:	02030000 	andeq	r0, r3, #0, 0
      3c:	00002e05 	andeq	r2, r0, r5, lsl #28
      40:	05040300 	streq	r0, [r4, #-768]	; 0xfffffd00
      44:	000000ff 	strdeq	r0, [r0], -pc	; <UNPREDICTABLE>
      48:	fa050803 	blx	14205c <__bss_end__+0x1374ac>
      4c:	04000000 	streq	r0, [r0], #-0
      50:	00000093 	muleq	r0, r3, r0
      54:	5b182e02 	blpl	60b864 <__bss_end__+0x600cb4>
      58:	03000000 	movweq	r0, #0
      5c:	01730801 	cmneq	r3, r1, lsl #16
      60:	02030000 	andeq	r0, r3, #0, 0
      64:	0001ef07 	andeq	lr, r1, r7, lsl #30
      68:	01ad0400 			; <UNDEFINED> instruction: 0x01ad0400
      6c:	34020000 	strcc	r0, [r2], #-0
      70:	00007519 	andeq	r7, r0, r9, lsl r5
      74:	07040300 	streq	r0, [r4, -r0, lsl #6]
      78:	0000019b 	muleq	r0, fp, r1
      7c:	96070803 	strls	r0, [r7], -r3, lsl #16
      80:	05000001 	streq	r0, [r0, #-1]
      84:	00000025 	andeq	r0, r0, r5, lsr #32
      88:	00000092 	muleq	r0, r2, r0
      8c:	00002506 	andeq	r2, r0, r6, lsl #10
      90:	5a070000 	bpl	1c0098 <__bss_end__+0x1b54e8>
      94:	03000000 	movweq	r0, #0
      98:	009e0e1c 	addseq	r0, lr, ip, lsl lr
      9c:	04080000 	streq	r0, [r8], #-0
      a0:	00000083 	andeq	r0, r0, r3, lsl #1
      a4:	00002505 	andeq	r2, r0, r5, lsl #10
      a8:	0000b300 	andeq	fp, r0, r0, lsl #6
      ac:	00b30600 	adcseq	r0, r3, r0, lsl #12
      b0:	08000000 	stmdaeq	r0, {}	; <UNPREDICTABLE>
      b4:	0000c004 	andeq	ip, r0, r4
      b8:	08010300 	stmdaeq	r1, {r8, r9}
      bc:	0000017c 	andeq	r0, r0, ip, ror r1
      c0:	0000b909 	andeq	fp, r0, r9, lsl #18
      c4:	07890700 	streq	r0, [r9, r0, lsl #14]
      c8:	21030000 	mrscs	r0, (UNDEF: 3)
      cc:	0000d10e 	andeq	sp, r0, lr, lsl #2
      d0:	a4040800 	strge	r0, [r4], #-2048	; 0xfffff800
      d4:	0a000000 	beq	dc <__code_start__-0x7f24>
      d8:	0916010c 	ldmdbeq	r6, {r2, r3, r8}
      dc:	00000102 	andeq	r0, r0, r2, lsl #2
      e0:	0100780b 	tsteq	r0, fp, lsl #16
      e4:	00251616 	eoreq	r1, r5, r6, lsl r6
      e8:	0b000000 	bleq	f0 <__code_start__-0x7f10>
      ec:	16010079 			; <UNDEFINED> instruction: 0x16010079
      f0:	00002518 	andeq	r2, r0, r8, lsl r5
      f4:	7a0b0400 	bvc	2c10fc <__bss_end__+0x2b654c>
      f8:	1a160100 	bne	580500 <__bss_end__+0x575950>
      fc:	00000025 	andeq	r0, r0, r5, lsr #32
     100:	f0040008 			; <UNDEFINED> instruction: 0xf0040008
     104:	01000000 	mrseq	r0, (UNDEF: 0)
     108:	00d71f16 	sbcseq	r1, r7, r6, lsl pc
     10c:	0c0a0000 	stceq	0, cr0, [sl], {-0}
     110:	3e093e01 	cdpcc	14, 0, cr3, cr9, cr1, {0}
     114:	0c000001 	stceq	0, cr0, [r0], {1}
     118:	000004be 			; <UNDEFINED> instruction: 0x000004be
     11c:	4f0d3f01 	svcmi	0x000d3f01
     120:	00000000 	andeq	r0, r0, r0
     124:	007a680b 	rsbseq	r6, sl, fp, lsl #16
     128:	2c0e4001 	stccs	0, cr4, [lr], {1}
     12c:	04000000 	streq	r0, [r0], #-0
     130:	7370640b 	cmnvc	r0, #184549376	; 0xb000000
     134:	0e430100 	dvfeqs	f0, f3, f0
     138:	0000002c 	andeq	r0, r0, ip, lsr #32
     13c:	d0040008 	andle	r0, r4, r8
     140:	01000001 	tsteq	r0, r1
     144:	010e0344 	tsteq	lr, r4, asr #6
     148:	3e090000 	cdpcc	0, 0, cr0, cr9, cr0, {0}
     14c:	0d000001 	stceq	0, cr0, [r0, #-4]
     150:	005b0107 	subseq	r0, fp, r7, lsl #2
     154:	46010000 	strmi	r0, [r1], -r0
     158:	0001ac06 	andeq	sl, r1, r6, lsl #24
     15c:	032b0e00 			; <UNDEFINED> instruction: 0x032b0e00
     160:	0e1c0000 	cdpeq	0, 1, cr0, cr12, cr0, {0}
     164:	00000326 	andeq	r0, r0, r6, lsr #6
     168:	01c00e1d 	biceq	r0, r0, sp, lsl lr
     16c:	0e1a0000 	cdpeq	0, 1, cr0, cr10, cr0, {0}
     170:	00000022 	andeq	r0, r0, r2, lsr #32
     174:	00d10e00 	sbcseq	r0, r1, r0, lsl #28
     178:	0e010000 	cdpeq	0, 0, cr0, cr1, cr0, {0}
     17c:	00000115 	andeq	r0, r0, r5, lsl r1
     180:	034a0e02 	movteq	r0, #44546	; 0xae02
     184:	0e030000 	cdpeq	0, 0, cr0, cr3, cr0, {0}
     188:	00000087 	andeq	r0, r0, r7, lsl #1
     18c:	009b0e43 	addseq	r0, fp, r3, asr #28
     190:	0e440000 	cdpeq	0, 4, cr0, cr4, cr0, {0}
     194:	00000038 	andeq	r0, r0, r8, lsr r0
     198:	004e0e45 	subeq	r0, lr, r5, asr #28
     19c:	0e460000 	cdpeq	0, 4, cr0, cr6, cr0, {0}
     1a0:	000002d0 	ldrdeq	r0, [r0], -r0	; <UNPREDICTABLE>
     1a4:	02dc0e47 	sbcseq	r0, ip, #1136	; 0x470
     1a8:	00480000 	subeq	r0, r8, r0
     1ac:	0001e70f 	andeq	lr, r1, pc, lsl #14
     1b0:	06ce0100 	strbeq	r0, [lr], r0, lsl #2
     1b4:	000084f8 	strdeq	r8, [r0], -r8	; <UNPREDICTABLE>
     1b8:	000001a8 	andeq	r0, r0, r8, lsr #3
     1bc:	04bb9c01 	ldrteq	r9, [fp], #3073	; 0xc01
     1c0:	d7100000 	ldrle	r0, [r0, -r0]
     1c4:	01000001 	tsteq	r0, r1
     1c8:	004f0dd5 	ldrdeq	r0, [pc], #-213	; <UNPREDICTABLE>
     1cc:	0d680000 	stcleq	0, cr0, [r8, #-0]
     1d0:	005b0107 	subseq	r0, fp, r7, lsl #2
     1d4:	d7010000 	strle	r0, [r1, -r0]
     1d8:	0001f60a 	andeq	pc, r1, sl, lsl #12
     1dc:	01080e00 	tsteq	r8, r0, lsl #28
     1e0:	0e750000 	cdpeq	0, 7, cr0, cr5, cr0, {0}
     1e4:	000000a7 	andeq	r0, r0, r7, lsr #1
     1e8:	00b50e70 	adcseq	r0, r5, r0, ror lr
     1ec:	0e710000 	cdpeq	0, 7, cr0, cr1, cr0, {0}
     1f0:	000000c3 	andeq	r0, r0, r3, asr #1
     1f4:	76110068 	ldrvc	r0, [r1], -r8, rrx
     1f8:	0ddf0100 	ldfeqe	f0, [pc]	; 200 <__code_start__-0x7e00>
     1fc:	0000004f 	andeq	r0, r0, pc, asr #32
     200:	00000004 	andeq	r0, r0, r4
     204:	00000000 	andeq	r0, r0, r0
     208:	00012212 	andeq	r2, r1, r2, lsl r2
     20c:	0004cb00 	andeq	ip, r4, r0, lsl #22
     210:	48030500 	stmdami	r3, {r8, sl}
     214:	110000a3 	smlatbne	r0, r3, r0, r0
     218:	00737064 	rsbseq	r7, r3, r4, rrx
     21c:	2509ef01 	strcs	lr, [r9, #-3841]	; 0xfffff0ff
     220:	26000000 	strcs	r0, [r0], -r0
     224:	22000000 	andcs	r0, r0, #0, 0
     228:	13000000 	movwne	r0, #0
     22c:	f6010067 			; <UNDEFINED> instruction: 0xf6010067
     230:	00013e0c 	andeq	r3, r1, ip, lsl #28
     234:	58910200 	ldmpl	r1, {r9}
     238:	0085b414 	addeq	fp, r5, r4, lsl r4
     23c:	00006c00 	andeq	r6, r0, r0, lsl #24
     240:	00030100 	andeq	r0, r3, r0, lsl #2
     244:	00691100 	rsbeq	r1, r9, r0, lsl #2
     248:	250df801 	strcs	pc, [sp, #-2049]	; 0xfffff7ff
     24c:	4c000000 	stcmi	0, cr0, [r0], {-0}
     250:	48000000 	stmdami	r0, {}	; <UNPREDICTABLE>
     254:	15000000 	strne	r0, [r0, #-0]
     258:	000085c0 	andeq	r8, r0, r0, asr #11
     25c:	00000058 	andeq	r0, r0, r8, asr r0
     260:	00033b16 	andeq	r3, r3, r6, lsl fp
     264:	13f90100 	mvnsne	r0, #0
     268:	00000102 	andeq	r0, r0, r2, lsl #2
     26c:	174c9102 	strbne	r9, [ip, -r2, lsl #2]
     270:	000085d0 	ldrdeq	r8, [r0], -r0
     274:	00000664 	andeq	r0, r0, r4, ror #12
     278:	00000289 	andeq	r0, r0, r9, lsl #5
     27c:	02500118 	subseq	r0, r0, #6
     280:	01180074 	tsteq	r8, r4, ror r0
     284:	50910251 	addspl	r0, r1, r1, asr r2
     288:	85dc1700 	ldrbhi	r1, [ip, #1792]	; 0x700
     28c:	0f2b0000 	svceq	0x002b0000
     290:	02a60000 	adceq	r0, r6, #0, 0
     294:	01180000 	tsteq	r8, r0
     298:	d8030550 	stmdale	r3, {r4, r6, r8, sl}
     29c:	180000a2 	stmdane	r0, {r1, r5, r7}
     2a0:	76025101 	strvc	r5, [r2], -r1, lsl #2
     2a4:	e8170000 	ldmda	r7, {}	; <UNPREDICTABLE>
     2a8:	91000085 	smlabbls	r0, r5, r0, r0
     2ac:	bd00000e 	stclt	0, cr0, [r0, #-56]	; 0xffffffc8
     2b0:	18000002 	stmdane	r0, {r1}
     2b4:	03055001 	movweq	r5, #20481	; 0x5001
     2b8:	0000a2ec 	andeq	sl, r0, ip, ror #5
     2bc:	86041700 	strhi	r1, [r4], -r0, lsl #14
     2c0:	054a0000 	strbeq	r0, [sl, #-0]
     2c4:	02d70000 	sbcseq	r0, r7, #0, 0
     2c8:	01180000 	tsteq	r8, r0
     2cc:	00750250 	rsbseq	r0, r5, r0, asr r2
     2d0:	02510118 	subseq	r0, r1, #6
     2d4:	17005091 			; <UNDEFINED> instruction: 0x17005091
     2d8:	00008610 	andeq	r8, r0, r0, lsl r6
     2dc:	00000e91 	muleq	r0, r1, lr
     2e0:	000002ee 	andeq	r0, r0, lr, ror #5
     2e4:	05500118 	ldrbeq	r0, [r0, #-280]	; 0xfffffee8
     2e8:	00a2f403 	adceq	pc, r2, r3, lsl #8
     2ec:	18190000 	ldmdane	r9, {}	; <UNPREDICTABLE>
     2f0:	37000086 	strcc	r0, [r0, -r6, lsl #1]
     2f4:	1800000f 	stmdane	r0, {r0, r1, r2, r3}
     2f8:	0a035001 	beq	d4304 <__bss_end__+0xc9754>
     2fc:	000003e8 	andeq	r0, r0, r8, ror #7
     300:	85081700 	strhi	r1, [r8, #-1792]	; 0xfffff900
     304:	0f370000 	svceq	0x00370000
     308:	03150000 	tsteq	r5, #0, 0
     30c:	01180000 	tsteq	r8, r0
     310:	64080250 	strvs	r0, [r8], #-592	; 0xfffffdb0
     314:	850c1a00 	strhi	r1, [ip, #-2560]	; 0xfffff600
     318:	0f430000 	svceq	0x00430000
     31c:	14170000 	ldrne	r0, [r7], #-0
     320:	37000085 	strcc	r0, [r0, -r5, lsl #1]
     324:	3200000f 	andcc	r0, r0, #15, 0
     328:	18000003 	stmdane	r0, {r0, r1}
     32c:	08025001 	stmdaeq	r2, {r0, ip, lr}
     330:	20170064 	andscs	r0, r7, r4, rrx
     334:	07000085 	streq	r0, [r0, -r5, lsl #1]
     338:	4c00000e 	stcmi	0, cr0, [r0], {14}
     33c:	18000003 	stmdane	r0, {r0, r1}
     340:	08025001 	stmdaeq	r2, {r0, ip, lr}
     344:	51011868 	tstpl	r1, r8, ror #16
     348:	00750802 	rsbseq	r0, r5, r2, lsl #16
     34c:	00854017 	addeq	r4, r5, r7, lsl r0
     350:	000f2b00 	andeq	r2, pc, r0, lsl #22
     354:	00036300 	andeq	r6, r3, r0, lsl #6
     358:	50011800 	andpl	r1, r1, r0, lsl #16
     35c:	a2800305 	addge	r0, r0, #335544320	; 0x14000000
     360:	17000000 	strne	r0, [r0, -r0]
     364:	00008548 	andeq	r8, r0, r8, asr #10
     368:	000004d0 	ldrdeq	r0, [r0], -r0	; <UNPREDICTABLE>
     36c:	00000377 	andeq	r0, r0, r7, ror r3
     370:	02500118 	subseq	r0, r0, #6
     374:	17006808 	strne	r6, [r0, -r8, lsl #16]
     378:	0000855c 	andeq	r8, r0, ip, asr r5
     37c:	0000081e 	andeq	r0, r0, lr, lsl r8
     380:	0000039a 	muleq	r0, sl, r3
     384:	01500118 	cmpeq	r0, r8, lsl r1
     388:	51011830 	tstpl	r1, r0, lsr r8
     38c:	01183001 	tsteq	r8, r1
     390:	18300152 	ldmdane	r0!, {r1, r4, r6, r8}
     394:	08025301 	stmdaeq	r2, {r0, r8, r9, ip, lr}
     398:	701700f5 	ldrshvc	r0, [r7], -r5
     39c:	1e000085 	cdpne	0, 0, cr0, cr0, cr5, {4}
     3a0:	c0000008 	andgt	r0, r0, r8
     3a4:	18000003 	stmdane	r0, {r0, r1}
     3a8:	08025001 	stmdaeq	r2, {r0, ip, lr}
     3ac:	51011864 	tstpl	r1, r4, ror #16
     3b0:	182c0802 	stmdane	ip!, {r1, fp}
     3b4:	09025201 	stmdbeq	r2, {r0, r9, ip, lr}
     3b8:	530118a4 	movwpl	r1, #6308	; 0x18a4
     3bc:	00f50802 	rscseq	r0, r5, r2, lsl #16
     3c0:	00858417 	addeq	r8, r5, r7, lsl r4
     3c4:	00081e00 	andeq	r1, r8, r0, lsl #28
     3c8:	0003e600 	andeq	lr, r3, r0, lsl #12
     3cc:	50011800 	andpl	r1, r1, r0, lsl #16
     3d0:	18c80802 	stmiane	r8, {r1, fp}^
     3d4:	08025101 	stmdaeq	r2, {r0, r8, ip, lr}
     3d8:	52011859 	andpl	r1, r1, #5832704	; 0x590000
     3dc:	18490802 	stmdane	r9, {r1, fp}^
     3e0:	08025301 	stmdaeq	r2, {r0, r8, r9, ip, lr}
     3e4:	981700f5 	ldmdals	r7, {r0, r2, r4, r5, r6, r7}
     3e8:	1e000085 	cdpne	0, 0, cr0, cr0, cr5, {4}
     3ec:	0c000008 	stceq	0, cr0, [r0], {8}
     3f0:	18000004 	stmdane	r0, {r2}
     3f4:	09025001 	stmdbeq	r2, {r0, ip, lr}
     3f8:	5101189c 			; <UNDEFINED> instruction: 0x5101189c
     3fc:	18d30902 	ldmne	r3, {r1, r8, fp}^
     400:	08025201 	stmdaeq	r2, {r0, r9, ip, lr}
     404:	5301185c 	movwpl	r1, #6236	; 0x185c
     408:	00f50802 	rscseq	r0, r5, r2, lsl #16
     40c:	0085a817 	addeq	sl, r5, r7, lsl r8
     410:	000ba800 	andeq	sl, fp, r0, lsl #16
     414:	00042b00 	andeq	r2, r4, r0, lsl #22
     418:	50011800 	andpl	r1, r1, r0, lsl #16
     41c:	18509102 	ldmdane	r0, {r1, r8, ip, pc}^
     420:	08025101 	stmdaeq	r2, {r0, r8, ip, lr}
     424:	52011868 	andpl	r1, r1, #104, 16	; 0x680000
     428:	17003001 	strne	r3, [r0, -r1]
     42c:	00008650 	andeq	r8, r0, r0, asr r6
     430:	00000f2b 	andeq	r0, r0, fp, lsr #30
     434:	0000046f 	andeq	r0, r0, pc, ror #8
     438:	05500118 	ldrbeq	r0, [r0, #-280]	; 0xfffffee8
     43c:	00a23803 	adceq	r3, r2, r3, lsl #16
     440:	51011800 	tstpl	r1, r0, lsl #16
     444:	a1500305 	cmpge	r0, r5, lsl #6
     448:	01180000 	tsteq	r8, r0
     44c:	48030552 	stmdami	r3, {r1, r4, r6, r8, sl}
     450:	180000a3 	stmdane	r0, {r0, r1, r5, r7}
     454:	08025301 	stmdaeq	r2, {r0, r8, r9, ip, lr}
     458:	7d0218e3 	stcvc	8, cr1, [r2, #-908]	; 0xfffffc74
     45c:	70080200 	andvc	r0, r8, r0, lsl #4
     460:	047d0218 	ldrbteq	r0, [sp], #-536	; 0xfffffde8
     464:	18710802 	ldmdane	r1!, {r1, fp}^
     468:	02087d02 	andeq	r7, r8, #128	; 0x80
     46c:	1a006808 	bne	1a494 <__bss_end__+0xf8e4>
     470:	00008654 	andeq	r8, r0, r4, asr r6
     474:	00000f4f 	andeq	r0, r0, pc, asr #30
     478:	00867017 	addeq	r7, r6, r7, lsl r0
     47c:	000f2b00 	andeq	r2, pc, r0, lsl #22
     480:	0004b100 	andeq	fp, r4, r0, lsl #2
     484:	50011800 	andpl	r1, r1, r0, lsl #16
     488:	a2b80305 	adcsge	r0, r8, #335544320	; 0x14000000
     48c:	01180000 	tsteq	r8, r0
     490:	50030551 	andpl	r0, r3, r1, asr r5
     494:	180000a1 	stmdane	r0, {r0, r5, r7}
     498:	03055201 	movweq	r5, #20993	; 0x5201
     49c:	0000a348 	andeq	sl, r0, r8, asr #6
     4a0:	02530118 	subseq	r0, r3, #6
     4a4:	0218f708 	andseq	pc, r8, #8, 14	; 0x200000
     4a8:	0305007d 	movweq	r0, #20605	; 0x507d
     4ac:	0000a2cc 	andeq	sl, r0, ip, asr #5
     4b0:	86741a00 	ldrbthi	r1, [r4], -r0, lsl #20
     4b4:	0f4f0000 	svceq	0x004f0000
     4b8:	1b000000 	blne	4c0 <__code_start__-0x7b40>
     4bc:	000000c0 	andeq	r0, r0, r0, asr #1
     4c0:	000004cb 	andeq	r0, r0, fp, asr #9
     4c4:	00002c1c 	andeq	r2, r0, ip, lsl ip
     4c8:	09000700 	stmdbeq	r0, {r8, r9, sl}
     4cc:	000004bb 			; <UNDEFINED> instruction: 0x000004bb
     4d0:	0001880f 	andeq	r8, r1, pc, lsl #16
     4d4:	06c10100 	strbeq	r0, [r1], r0, lsl #2
     4d8:	000084c8 	andeq	r8, r0, r8, asr #9
     4dc:	00000030 	andeq	r0, r0, r0, lsr r0
     4e0:	054a9c01 	strbeq	r9, [sl, #-3073]	; 0xfffff3ff
     4e4:	be1d0000 	cdplt	0, 1, cr0, cr13, cr0, {0}
     4e8:	01000004 	tsteq	r0, r4
     4ec:	004f1cc1 	subeq	r1, pc, r1, asr #25
     4f0:	006e0000 	rsbeq	r0, lr, r0
     4f4:	006a0000 	rsbeq	r0, sl, r0
     4f8:	dc170000 	ldcle	0, cr0, [r7], {-0}
     4fc:	82000084 	andhi	r0, r0, #132, 0	; 0x84
     500:	1a00000d 	bne	53c <__code_start__-0x7ac4>
     504:	18000005 	stmdane	r0, {r0, r2}
     508:	74025001 	strvc	r5, [r2], #-1
     50c:	51011800 	tstpl	r1, r0, lsl #16
     510:	186b0802 	stmdane	fp!, {r1, fp}^
     514:	09025201 	stmdbeq	r2, {r0, r9, ip, lr}
     518:	e4170080 	ldr	r0, [r7], #-128	; 0xffffff80
     51c:	37000084 	strcc	r0, [r0, -r4, lsl #1]
     520:	2e00000f 	cdpcs	0, 0, cr0, cr0, cr15, {0}
     524:	18000005 	stmdane	r0, {r0, r2}
     528:	08025001 	stmdaeq	r2, {r0, ip, lr}
     52c:	f4190064 			; <UNDEFINED> instruction: 0xf4190064
     530:	82000084 	andhi	r0, r0, #132, 0	; 0x84
     534:	1800000d 	stmdane	r0, {r0, r2, r3}
     538:	74025001 	strvc	r5, [r2], #-1
     53c:	51011800 	tstpl	r1, r0, lsl #16
     540:	186b0802 	stmdane	fp!, {r1, fp}^
     544:	30015201 	andcc	r5, r1, r1, lsl #4
     548:	101e0000 	andsne	r0, lr, r0
     54c:	01000002 	tsteq	r0, r2
     550:	01020bb8 			; <UNDEFINED> instruction: 0x01020bb8
     554:	84680000 	strbthi	r0, [r8], #-0
     558:	00600000 	rsbeq	r0, r0, r0
     55c:	9c010000 	stcls	0, cr0, [r1], {-0}
     560:	0000065e 	andeq	r0, r0, lr, asr r6
     564:	0100681f 	tsteq	r0, pc, lsl r8
     568:	065e1eb8 			; <UNDEFINED> instruction: 0x065e1eb8
     56c:	00930000 	addseq	r0, r3, r0
     570:	008f0000 	addeq	r0, pc, r0
     574:	78200000 	stmdavc	r0!, {}	; <UNPREDICTABLE>
     578:	01007a79 	tsteq	r0, r9, ror sl
     57c:	01022bb8 			; <UNDEFINED> instruction: 0x01022bb8
     580:	91020000 	mrsls	r0, (UNDEF: 2)
     584:	70641178 	rsbvc	r1, r4, r8, ror r1
     588:	b9010073 	stmdblt	r1, {r0, r1, r4, r5, r6}
     58c:	00002509 	andeq	r2, r0, r9, lsl #10
     590:	0000b600 	andeq	fp, r0, r0, lsl #12
     594:	0000b400 	andeq	fp, r0, r0, lsl #8
     598:	00781100 	rsbseq	r1, r8, r0, lsl #2
     59c:	2509ba01 	strcs	fp, [r9, #-2561]	; 0xfffff5ff
     5a0:	cf000000 	svcgt	0x00000000
     5a4:	c9000000 	stmdbgt	r0, {}	; <UNPREDICTABLE>
     5a8:	11000000 	mrsne	r0, (UNDEF: 0)
     5ac:	bb010079 	bllt	40798 <__bss_end__+0x35be8>
     5b0:	00002509 	andeq	r2, r0, r9, lsl #10
     5b4:	0000ff00 	andeq	pc, r0, r0, lsl #30
     5b8:	0000f900 	andeq	pc, r0, r0, lsl #18
     5bc:	007a1100 	rsbseq	r1, sl, r0, lsl #2
     5c0:	2509bc01 	strcs	fp, [r9, #-3073]	; 0xfffff3ff
     5c4:	2f000000 	svccs	0x00000000
     5c8:	29000001 	stmdbcs	r0, {r0}
     5cc:	21000001 	tstcs	r0, r1
     5d0:	00000efb 	strdeq	r0, [r0], -fp
     5d4:	000084ac 	andeq	r8, r0, ip, lsr #9
     5d8:	0084ac01 	addeq	sl, r4, r1, lsl #24
     5dc:	00000c00 	andeq	r0, r0, r0, lsl #24
     5e0:	0cbd0100 	ldfeqs	f0, [sp]
     5e4:	00000610 	andeq	r0, r0, r0, lsl r6
     5e8:	000f2022 	andeq	r2, pc, r2, lsr #32
     5ec:	00015c00 	andeq	r5, r1, r0, lsl #24
     5f0:	00015a00 	andeq	r5, r1, r0, lsl #20
     5f4:	0f162200 	svceq	0x00162200
     5f8:	01710000 	cmneq	r1, r0
     5fc:	016f0000 	cmneq	pc, r0
     600:	0c220000 	stceq	0, cr0, [r2], #-0
     604:	8600000f 	strhi	r0, [r0], -pc
     608:	84000001 	strhi	r0, [r0], #-1
     60c:	00000001 	andeq	r0, r0, r1
     610:	00848c17 	addeq	r8, r4, r7, lsl ip
     614:	000a4100 	andeq	r4, sl, r0, lsl #2
     618:	00062b00 	andeq	r2, r6, r0, lsl #22
     61c:	50011800 	andpl	r1, r1, r0, lsl #16
     620:	06609103 	strbteq	r9, [r0], -r3, lsl #2
     624:	02510118 	subseq	r0, r1, #6
     628:	17000077 	smlsdxne	r0, r7, r0, r0
     62c:	0000849c 	muleq	r0, ip, r4
     630:	00000a41 	andeq	r0, r0, r1, asr #20
     634:	00000646 	andeq	r0, r0, r6, asr #12
     638:	03500118 	cmpeq	r0, #6
     63c:	18066491 	stmdane	r6, {r0, r4, r7, sl, sp, lr}
     640:	77025101 	strvc	r5, [r2, -r1, lsl #2]
     644:	ac190000 	ldcge	0, cr0, [r9], {-0}
     648:	41000084 	smlabbmi	r0, r4, r0, r0
     64c:	1800000a 	stmdane	r0, {r1, r3}
     650:	91035001 	tstls	r3, r1
     654:	01180668 	tsteq	r8, r8, ror #12
     658:	00770251 	rsbseq	r0, r7, r1, asr r2
     65c:	04080000 	streq	r0, [r8], #-0
     660:	0000013e 	andeq	r0, r0, lr, lsr r1
     664:	0001431e 	andeq	r4, r1, lr, lsl r3
     668:	0ba60100 	bleq	fe980a70 <__bss_end__+0xfe975ec0>
     66c:	00000102 	andeq	r0, r0, r2, lsl #2
     670:	000083b4 			; <UNDEFINED> instruction: 0x000083b4
     674:	000000b4 	strheq	r0, [r0], -r4
     678:	08189c01 	ldmdaeq	r8, {r0, sl, fp, ip, pc}
     67c:	681f0000 	ldmdavs	pc, {}	; <UNPREDICTABLE>
     680:	21a60100 			; <UNDEFINED> instruction: 0x21a60100
     684:	00000818 	andeq	r0, r0, r8, lsl r8
     688:	0000019f 	muleq	r0, pc, r1	; <UNPREDICTABLE>
     68c:	00000199 	muleq	r0, r9, r1
     690:	00035723 	andeq	r5, r3, r3, lsr #14
     694:	0ea90100 	fdveqe	f0, f1, f0
     698:	0000002c 	andeq	r0, r0, ip, lsr #32
     69c:	000001cd 	andeq	r0, r0, sp, asr #3
     6a0:	000001cb 	andeq	r0, r0, fp, asr #3
     6a4:	0004be23 	andeq	fp, r4, r3, lsr #28
     6a8:	0daa0100 	stfeqs	f0, [sl]
     6ac:	0000004f 	andeq	r0, r0, pc, asr #32
     6b0:	000001e3 	andeq	r0, r0, r3, ror #3
     6b4:	000001e1 	andeq	r0, r0, r1, ror #3
     6b8:	01007811 	tsteq	r0, r1, lsl r8
     6bc:	002509af 	eoreq	r0, r5, pc, lsr #19
     6c0:	01fc0000 	mvnseq	r0, r0
     6c4:	01f60000 	mvnseq	r0, r0
     6c8:	79110000 	ldmdbvc	r1, {}	; <UNPREDICTABLE>
     6cc:	10af0100 	adcne	r0, pc, r0, lsl #2
     6d0:	00000025 	andeq	r0, r0, r5, lsr #32
     6d4:	0000022c 	andeq	r0, r0, ip, lsr #4
     6d8:	00000226 	andeq	r0, r0, r6, lsr #4
     6dc:	01007a11 	tsteq	r0, r1, lsl sl
     6e0:	002517af 	eoreq	r1, r5, pc, lsr #15
     6e4:	025c0000 	subseq	r0, ip, #0, 0
     6e8:	02560000 	subseq	r0, r6, #0, 0
     6ec:	fb210000 	blx	8406f6 <__bss_end__+0x835b46>
     6f0:	5400000e 	strpl	r0, [r0], #-14
     6f4:	01000084 	smlabbeq	r0, r4, r0, r0
     6f8:	00008454 	andeq	r8, r0, r4, asr r4
     6fc:	0000000c 	andeq	r0, r0, ip
     700:	2f0cb401 	svccs	0x000cb401
     704:	22000007 	andcs	r0, r0, #7, 0
     708:	00000f20 	andeq	r0, r0, r0, lsr #30
     70c:	00000289 	andeq	r0, r0, r9, lsl #5
     710:	00000287 	andeq	r0, r0, r7, lsl #5
     714:	000f1622 	andeq	r1, pc, r2, lsr #12
     718:	00029e00 	andeq	r9, r2, r0, lsl #28
     71c:	00029c00 	andeq	r9, r2, r0, lsl #24
     720:	0f0c2200 	svceq	0x000c2200
     724:	02b30000 	adcseq	r0, r3, #0, 0
     728:	02b10000 	adcseq	r0, r1, #0, 0
     72c:	17000000 	strne	r0, [r0, -r0]
     730:	000083cc 	andeq	r8, r0, ip, asr #7
     734:	00000b7b 	andeq	r0, r0, fp, ror fp
     738:	00000743 	andeq	r0, r0, r3, asr #14
     73c:	02500118 	subseq	r0, r0, #6
     740:	17000074 	smlsdxne	r0, r4, r0, r0
     744:	000083e0 	andeq	r8, r0, r0, ror #7
     748:	00000e07 	andeq	r0, r0, r7, lsl #28
     74c:	0000075d 	andeq	r0, r0, sp, asr r7
     750:	02500118 	subseq	r0, r0, #6
     754:	01180076 	tsteq	r8, r6, ror r0
     758:	43080251 	movwmi	r0, #33361	; 0x8251
     75c:	83f01700 	mvnshi	r1, #0, 14
     760:	0e070000 	cdpeq	0, 0, cr0, cr7, cr0, {0}
     764:	07770000 	ldrbeq	r0, [r7, -r0]!
     768:	01180000 	tsteq	r8, r0
     76c:	00760250 	rsbseq	r0, r6, r0, asr r2
     770:	02510118 	subseq	r0, r1, #6
     774:	17004408 	strne	r4, [r0, -r8, lsl #8]
     778:	000083fc 	strdeq	r8, [r0], -ip
     77c:	00000c9f 	muleq	r0, pc, ip	; <UNPREDICTABLE>
     780:	0000078b 	andeq	r0, r0, fp, lsl #15
     784:	02500118 	subseq	r0, r0, #6
     788:	17000074 	smlsdxne	r0, r4, r0, r0
     78c:	0000840c 	andeq	r8, r0, ip, lsl #8
     790:	00000e07 	andeq	r0, r0, r7, lsl #28
     794:	000007a5 	andeq	r0, r0, r5, lsr #15
     798:	02500118 	subseq	r0, r0, #6
     79c:	01180076 	tsteq	r8, r6, ror r0
     7a0:	45080251 	strmi	r0, [r8, #-593]	; 0xfffffdaf
     7a4:	841c1700 	ldrhi	r1, [ip], #-1792	; 0xfffff900
     7a8:	0e070000 	cdpeq	0, 0, cr0, cr7, cr0, {0}
     7ac:	07bf0000 	ldreq	r0, [pc, r0]!
     7b0:	01180000 	tsteq	r8, r0
     7b4:	00760250 	rsbseq	r0, r6, r0, asr r2
     7b8:	02510118 	subseq	r0, r1, #6
     7bc:	17004608 	strne	r4, [r0, -r8, lsl #12]
     7c0:	00008428 	andeq	r8, r0, r8, lsr #8
     7c4:	00000c9f 	muleq	r0, pc, ip	; <UNPREDICTABLE>
     7c8:	000007d3 	ldrdeq	r0, [r0], -r3
     7cc:	02500118 	subseq	r0, r0, #6
     7d0:	17000074 	smlsdxne	r0, r4, r0, r0
     7d4:	00008438 	andeq	r8, r0, r8, lsr r4
     7d8:	00000e07 	andeq	r0, r0, r7, lsl #28
     7dc:	000007ed 	andeq	r0, r0, sp, ror #15
     7e0:	02500118 	subseq	r0, r0, #6
     7e4:	01180076 	tsteq	r8, r6, ror r0
     7e8:	47080251 	smlsdmi	r8, r1, r2, r0
     7ec:	84481700 	strbhi	r1, [r8], #-1792	; 0xfffff900
     7f0:	0e070000 	cdpeq	0, 0, cr0, cr7, cr0, {0}
     7f4:	08070000 	stmdaeq	r7, {}	; <UNPREDICTABLE>
     7f8:	01180000 	tsteq	r8, r0
     7fc:	00760250 	rsbseq	r0, r6, r0, asr r2
     800:	02510118 	subseq	r0, r1, #6
     804:	19004808 	stmdbne	r0, {r3, fp, lr}
     808:	00008454 	andeq	r8, r0, r4, asr r4
     80c:	00000c9f 	muleq	r0, pc, ip	; <UNPREDICTABLE>
     810:	02500118 	subseq	r0, r0, #6
     814:	00000078 	andeq	r0, r0, r8, ror r0
     818:	014a0408 	cmpeq	sl, r8, lsl #8
     81c:	32240000 	eorcc	r0, r4, #0, 0
     820:	01000003 	tsteq	r0, r3
     824:	81900d9c 			; <UNDEFINED> instruction: 0x81900d9c
     828:	00940000 	addseq	r0, r4, r0
     82c:	9c010000 	stcls	0, cr0, [r1], {-0}
     830:	00000996 	muleq	r0, r6, r9
     834:	00031b1d 	andeq	r1, r3, sp, lsl fp
     838:	1a9c0100 	bne	fe700c40 <__bss_end__+0xfe6f6090>
     83c:	00000025 	andeq	r0, r0, r5, lsr #32
     840:	000002d6 	ldrdeq	r0, [r0], -r6
     844:	000002c6 	andeq	r0, r0, r6, asr #5
     848:	0100681f 	tsteq	r0, pc, lsl r8
     84c:	004f2e9c 	umaaleq	r2, pc, ip, lr	; <UNPREDICTABLE>
     850:	03600000 	cmneq	r0, #0, 0
     854:	035c0000 	cmpeq	ip, #0, 0
     858:	6c1f0000 	ldcvs	0, cr0, [pc], {-0}
     85c:	399c0100 	ldmibcc	ip, {r8}
     860:	0000004f 	andeq	r0, r0, pc, asr #32
     864:	00000385 	andeq	r0, r0, r5, lsl #7
     868:	00000381 	andeq	r0, r0, r1, lsl #7
     86c:	7370641f 	cmnvc	r0, #520093696	; 0x1f000000
     870:	409c0100 	addsmi	r0, ip, r0, lsl #2
     874:	00000025 	andeq	r0, r0, r5, lsr #32
     878:	000003aa 	andeq	r0, r0, sl, lsr #7
     87c:	000003a6 	andeq	r0, r0, r6, lsr #7
     880:	695f7311 	ldmdbvs	pc, {r0, r4, r8, r9, ip, sp, lr}^	; <UNPREDICTABLE>
     884:	099d0100 	ldmibeq	sp, {r8}
     888:	00000025 	andeq	r0, r0, r5, lsr #32
     88c:	000003d0 	ldrdeq	r0, [r0], -r0	; <UNPREDICTABLE>
     890:	000003c8 	andeq	r0, r0, r8, asr #7
     894:	6c6f7425 	cfstrdvs	mvd7, [pc], #-148	; 808 <__code_start__-0x77f8>
     898:	099f0100 	ldmibeq	pc, {r8}	; <UNPREDICTABLE>
     89c:	00000025 	andeq	r0, r0, r5, lsr #32
     8a0:	01221205 			; <UNDEFINED> instruction: 0x01221205
     8a4:	09a60000 	stmibeq	r6!, {}	; <UNPREDICTABLE>
     8a8:	03050000 	movweq	r0, #20480	; 0x5000
     8ac:	0000a328 	andeq	sl, r0, r8, lsr #6
     8b0:	0009ab26 	andeq	sl, r9, r6, lsr #22
     8b4:	0081c000 	addeq	ip, r1, r0
     8b8:	00000200 	andeq	r0, r0, r0, lsl #4
     8bc:	a0010000 	andge	r0, r1, r0
     8c0:	00090009 	andeq	r0, r9, r9
     8c4:	09d42200 	ldmibeq	r4, {r9, sp}^
     8c8:	04090000 	streq	r0, [r9], #-0
     8cc:	04050000 	streq	r0, [r5], #-0
     8d0:	c8220000 	stmdagt	r2!, {}	; <UNPREDICTABLE>
     8d4:	2d000009 	stccs	0, cr0, [r0, #-36]	; 0xffffffdc
     8d8:	29000004 	stmdbcs	r0, {r2}
     8dc:	22000004 	andcs	r0, r0, #4, 0
     8e0:	000009bc 			; <UNDEFINED> instruction: 0x000009bc
     8e4:	0000044f 	andeq	r0, r0, pc, asr #8
     8e8:	0000044b 	andeq	r0, r0, fp, asr #8
     8ec:	00000027 	andeq	r0, r0, r7, lsr #32
     8f0:	09e02800 	stmibeq	r0!, {fp, sp}^
     8f4:	04730000 	ldrbteq	r0, [r3], #-0
     8f8:	046d0000 	strbteq	r0, [sp], #-0
     8fc:	00000000 	andeq	r0, r0, r0
     900:	0081a81a 	addeq	sl, r1, sl, lsl r8
     904:	000c9f00 	andeq	r9, ip, r0, lsl #30
     908:	81b01700 	lslshi	r1, r0, #14
     90c:	09ed0000 	stmibeq	sp!, {}^	; <UNPREDICTABLE>
     910:	091d0000 	ldmdbeq	sp, {}	; <UNPREDICTABLE>
     914:	01180000 	tsteq	r8, r0
     918:	00750251 	rsbseq	r0, r5, r1, asr r2
     91c:	81e01700 	mvnhi	r1, r0, lsl #14
     920:	0f2b0000 	svceq	0x002b0000
     924:	09400000 	stmdbeq	r0, {}^	; <UNPREDICTABLE>
     928:	01180000 	tsteq	r8, r0
     92c:	cc030550 	cfstr32gt	mvfx0, [r3], {80}	; 0x50
     930:	180000a1 	stmdane	r0, {r0, r5, r7}
     934:	35015301 	strcc	r5, [r1, #-769]	; 0xfffffcff
     938:	007d0218 	rsbseq	r0, sp, r8, lsl r2
     93c:	00007502 	andeq	r7, r0, r2, lsl #10
     940:	00821017 	addeq	r1, r2, r7, lsl r0
     944:	000f2b00 	andeq	r2, pc, r0, lsl #22
     948:	00098c00 	andeq	r8, r9, r0, lsl #24
     94c:	50011800 	andpl	r1, r1, r0, lsl #16
     950:	a1980305 	orrsge	r0, r8, r5, lsl #6
     954:	01180000 	tsteq	r8, r0
     958:	50030551 	andpl	r0, r3, r1, asr r5
     95c:	180000a1 	stmdane	r0, {r0, r5, r7}
     960:	03055201 	movweq	r5, #20993	; 0x5201
     964:	0000a328 	andeq	sl, r0, r8, lsr #6
     968:	02530118 	subseq	r0, r3, #6
     96c:	0218a108 	andseq	sl, r8, #2
     970:	f311007d 	vqadd.u16	q0, <illegal reg q0.5>, <illegal reg q14.5>
     974:	24355001 	ldrtcs	r5, [r5], #-1
     978:	1c5001f3 	ldfnee	f0, [r0], {243}	; 0xf3
     97c:	01f32432 	mvnseq	r2, r2, lsr r4
     980:	24332250 	ldrtcs	r2, [r3], #-592	; 0xfffffdb0
     984:	087d0218 	ldmdaeq	sp!, {r3, r4, r9}^
     988:	00007502 	andeq	r7, r0, r2, lsl #10
     98c:	0082141a 	addeq	r1, r2, sl, lsl r4
     990:	000f4f00 	andeq	r4, pc, r0, lsl #30
     994:	c01b0000 	andsgt	r0, fp, r0
     998:	a6000000 	strge	r0, [r0], -r0
     99c:	1c000009 	stcne	0, cr0, [r0], {9}
     9a0:	0000002c 	andeq	r0, r0, ip, lsr #32
     9a4:	96090008 	strls	r0, [r9], -r8
     9a8:	29000009 	stmdbcs	r0, {r0, r3}
     9ac:	000000e9 	andeq	r0, r0, r9, ror #1
     9b0:	25139501 	ldrcs	r9, [r3, #-1281]	; 0xfffffaff
     9b4:	03000000 	movweq	r0, #0
     9b8:	000009ed 	andeq	r0, r0, sp, ror #19
     9bc:	7078652a 	rsbsvc	r6, r8, sl, lsr #10
     9c0:	1e950100 	fmlnes	f0, f5, f0
     9c4:	00000025 	andeq	r0, r0, r5, lsr #32
     9c8:	0000e42b 	andeq	lr, r0, fp, lsr #8
     9cc:	27950100 	ldrcs	r0, [r5, r0, lsl #2]
     9d0:	00000025 	andeq	r0, r0, r5, lsr #32
     9d4:	6c6f742a 	cfstrdvs	mvd7, [pc], #-168	; 934 <__code_start__-0x76cc>
     9d8:	31950100 	orrscc	r0, r5, r0, lsl #2
     9dc:	00000025 	andeq	r0, r0, r5, lsr #32
     9e0:	00091c2c 	andeq	r1, r9, ip, lsr #24
     9e4:	09960100 	ldmibeq	r6, {r8}
     9e8:	00000025 	andeq	r0, r0, r5, lsr #32
     9ec:	00662d00 	rsbeq	r2, r6, r0, lsl #26
     9f0:	91010000 	mrsls	r0, (UNDEF: 1)
     9f4:	0000250c 	andeq	r2, r0, ip, lsl #10
     9f8:	00816400 	addeq	r6, r1, r0, lsl #8
     9fc:	00002c00 	andeq	r2, r0, r0, lsl #24
     a00:	419c0100 	orrsmi	r0, ip, r0, lsl #2
     a04:	1f00000a 	svcne	0x0000000a
     a08:	00676564 	rsbeq	r6, r7, r4, ror #10
     a0c:	251f9101 	ldrcs	r9, [pc, #-257]	; 913 <__code_start__-0x76ed>
     a10:	a7000000 	strge	r0, [r0, -r0]
     a14:	a3000004 	movwge	r0, #4
     a18:	1f000004 	svcne	0x00000004
     a1c:	00737064 	rsbseq	r7, r3, r4, rrx
     a20:	25289101 	strcs	r9, [r8, #-257]!	; 0xfffffeff
     a24:	c9000000 	stmdbgt	r0, {}	; <UNPREDICTABLE>
     a28:	c5000004 	strgt	r0, [r0, #-4]
     a2c:	19000004 	stmdbne	r0, {r2}
     a30:	00008174 	andeq	r8, r0, r4, ror r1
     a34:	00000ae8 	andeq	r0, r0, r8, ror #21
     a38:	03500118 	cmpeq	r0, #6
     a3c:	005101f3 	ldrsheq	r0, [r1], #-19	; 0xffffffed
     a40:	00122d00 	andseq	r2, r2, r0, lsl #26
     a44:	87010000 	strhi	r0, [r1, -r0]
     a48:	0000250c 	andeq	r2, r0, ip, lsl #10
     a4c:	00804400 	addeq	r4, r0, r0, lsl #8
     a50:	00008c00 	andeq	r8, r0, r0, lsl #24
     a54:	d39c0100 	orrsle	r0, ip, #0
     a58:	1f00000a 	svcne	0x0000000a
     a5c:	00676564 	rsbeq	r6, r7, r4, ror #10
     a60:	25208701 	strcs	r8, [r0, #-1793]!	; 0xfffff8ff
     a64:	f6000000 			; <UNDEFINED> instruction: 0xf6000000
     a68:	ea000004 	b	a80 <__code_start__-0x7580>
     a6c:	1f000004 	svcne	0x00000004
     a70:	00737064 	rsbseq	r7, r3, r4, rrx
     a74:	25298701 	strcs	r8, [r9, #-1793]!	; 0xfffff8ff
     a78:	4f000000 	svcmi	0x00000000
     a7c:	49000005 	stmdbmi	r0, {r0, r2}
     a80:	12000005 	andne	r0, r0, #5, 0
     a84:	00000122 	andeq	r0, r0, r2, lsr #2
     a88:	00000ae3 	andeq	r0, r0, r3, ror #21
     a8c:	a3080305 	movwge	r0, #33541	; 0x8305
     a90:	bc170000 	ldclt	0, cr0, [r7], {-0}
     a94:	2b000080 	blcs	c9c <__code_start__-0x7364>
     a98:	c900000f 	stmdbgt	r0, {r0, r1, r2, r3}
     a9c:	1800000a 	stmdane	r0, {r1, r3}
     aa0:	03055001 	movweq	r5, #20481	; 0x5001
     aa4:	0000a158 	andeq	sl, r0, r8, asr r1
     aa8:	05510118 	ldrbeq	r0, [r1, #-280]	; 0xfffffee8
     aac:	00a15003 	adceq	r5, r1, r3
     ab0:	52011800 	andpl	r1, r1, #0, 16
     ab4:	a3080305 	movwge	r0, #33541	; 0x8305
     ab8:	01180000 	tsteq	r8, r0
     abc:	8e080253 	mcrhi	2, 0, r0, cr8, cr3, {2}
     ac0:	007d0218 	rsbseq	r0, sp, r8, lsl r2
     ac4:	5101f303 	tstpl	r1, r3, lsl #6	; <UNPREDICTABLE>
     ac8:	80c01a00 	sbchi	r1, r0, r0, lsl #20
     acc:	0f4f0000 	svceq	0x004f0000
     ad0:	1b000000 	blne	ad8 <__code_start__-0x7528>
     ad4:	000000c0 	andeq	r0, r0, r0, asr #1
     ad8:	00000ae3 	andeq	r0, r0, r3, ror #21
     adc:	00002c1c 	andeq	r2, r0, ip, lsl ip
     ae0:	09000f00 	stmdbeq	r0, {r8, r9, sl, fp}
     ae4:	00000ad3 	ldrdeq	r0, [r0], -r3
     ae8:	0001362d 	andeq	r3, r1, sp, lsr #12
     aec:	0c7b0100 	ldfeqe	f0, [fp], #-0
     af0:	00000025 	andeq	r0, r0, r5, lsr #32
     af4:	000080d0 	ldrdeq	r8, [r0], -r0
     af8:	00000094 	muleq	r0, r4, r0
     afc:	0b669c01 	bleq	19a7b08 <__bss_end__+0x199cf58>
     b00:	641f0000 	ldrvs	r0, [pc], #-0	; b08 <__code_start__-0x74f8>
     b04:	01007370 	tsteq	r0, r0, ror r3
     b08:	002c227b 	eoreq	r2, ip, fp, ror r2
     b0c:	05960000 	ldreq	r0, [r6]
     b10:	057c0000 	ldrbeq	r0, [ip, #-0]!
     b14:	22120000 	andscs	r0, r2, #0, 0
     b18:	76000001 	strvc	r0, [r0], -r1
     b1c:	0500000b 	streq	r0, [r0, #-11]
     b20:	00a31803 	adceq	r1, r3, r3, lsl #16
     b24:	812c1700 			; <UNDEFINED> instruction: 0x812c1700
     b28:	0f2b0000 	svceq	0x002b0000
     b2c:	0b5c0000 	bleq	1700b34 <__bss_end__+0x16f5f84>
     b30:	01180000 	tsteq	r8, r0
     b34:	74030550 	strvc	r0, [r3], #-1360	; 0xfffffab0
     b38:	180000a1 	stmdane	r0, {r0, r5, r7}
     b3c:	03055101 	movweq	r5, #20737	; 0x5101
     b40:	0000a150 	andeq	sl, r0, r0, asr r1
     b44:	05520118 	ldrbeq	r0, [r2, #-280]	; 0xfffffee8
     b48:	00a31803 	adceq	r1, r3, r3, lsl #16
     b4c:	53011800 	movwpl	r1, #6144	; 0x1800
     b50:	18830802 	stmne	r3, {r1, fp}
     b54:	03007d02 	movweq	r7, #3330	; 0xd02
     b58:	005001f3 	ldrsheq	r0, [r0], #-19	; 0xffffffed
     b5c:	0081301a 	addeq	r3, r1, sl, lsl r0
     b60:	000f4f00 	andeq	r4, pc, r0, lsl #30
     b64:	c01b0000 	andsgt	r0, fp, r0
     b68:	76000000 	strvc	r0, [r0], -r0
     b6c:	1c00000b 	stcne	0, cr0, [r0], {11}
     b70:	0000002c 	andeq	r0, r0, ip, lsr #32
     b74:	6609000c 	strvs	r0, [r9], -ip
     b78:	1e00000b 	cdpne	0, 0, cr0, cr0, cr11, {0}
     b7c:	00000202 	andeq	r0, r0, r2, lsl #4
     b80:	25057701 	strcs	r7, [r5, #-1793]	; 0xfffff8ff
     b84:	ac000000 	stcge	0, cr0, [r0], {-0}
     b88:	08000083 	stmdaeq	r0, {r0, r1, r7}
     b8c:	01000000 	mrseq	r0, (UNDEF: 0)
     b90:	000ba89c 	muleq	fp, ip, r8
     b94:	00681f00 	rsbeq	r1, r8, r0, lsl #30
     b98:	18217701 	stmdane	r1!, {r0, r8, r9, sl, ip, sp, lr}
     b9c:	44000008 	strmi	r0, [r0], #-8
     ba0:	40000006 	andmi	r0, r0, r6
     ba4:	00000006 	andeq	r0, r0, r6
     ba8:	0001611e 	andeq	r6, r1, lr, lsl r1
     bac:	08640100 	stmdaeq	r4!, {r8}^
     bb0:	0000013e 	andeq	r0, r0, lr, lsr r1
     bb4:	000082f4 	strdeq	r8, [r0], -r4
     bb8:	000000b8 	strheq	r0, [r0], -r8
     bbc:	0c8a9c01 	stceq	12, cr9, [sl], {1}
     bc0:	be1d0000 	cdplt	0, 1, cr0, cr13, cr0, {0}
     bc4:	01000004 	tsteq	r0, r4
     bc8:	004f2264 	subeq	r2, pc, r4, ror #4
     bcc:	066f0000 	strbteq	r0, [pc], -r0
     bd0:	06650000 	strbteq	r0, [r5], -r0
     bd4:	581d0000 	ldmdapl	sp, {}	; <UNPREDICTABLE>
     bd8:	01000001 	tsteq	r0, r1
     bdc:	002c3164 	eoreq	r3, ip, r4, ror #2
     be0:	06be0000 	ldrteq	r0, [lr], r0
     be4:	06b40000 	ldrteq	r0, [r4], r0
     be8:	64110000 	ldrvs	r0, [r1], #-0
     bec:	01007370 	tsteq	r0, r0, ror r3
     bf0:	002c0e65 	eoreq	r0, ip, r5, ror #28
     bf4:	070b0000 	streq	r0, [fp, -r0]
     bf8:	06fd0000 	ldrbteq	r0, [sp], r0
     bfc:	22120000 	andscs	r0, r2, #0, 0
     c00:	9a000001 	bls	c0c <__code_start__-0x73f4>
     c04:	0500000c 	streq	r0, [r0, #-12]
     c08:	00a33403 	adceq	r3, r3, r3, lsl #8
     c0c:	83501700 	cmphi	r0, #0, 14
     c10:	0f2b0000 	svceq	0x002b0000
     c14:	0c420000 	mareq	acc0, r0, r2
     c18:	01180000 	tsteq	r8, r0
     c1c:	14030550 	strne	r0, [r3], #-1360	; 0xfffffab0
     c20:	180000a2 	stmdane	r0, {r1, r5, r7}
     c24:	03055101 	movweq	r5, #20737	; 0x5101
     c28:	0000a150 	andeq	sl, r0, r0, asr r1
     c2c:	05520118 	ldrbeq	r0, [r2, #-280]	; 0xfffffee8
     c30:	00a33403 	adceq	r3, r3, r3, lsl #8
     c34:	53011800 	movwpl	r1, #6144	; 0x1800
     c38:	186b0802 	stmdane	fp!, {r1, fp}^
     c3c:	01007d02 	tsteq	r0, r2, lsl #26
     c40:	541a0030 	ldrpl	r0, [sl], #-48	; 0xffffffd0
     c44:	4f000083 	svcmi	0x00000083
     c48:	1700000f 	strne	r0, [r0, -pc]
     c4c:	00008368 	andeq	r8, r0, r8, ror #6
     c50:	00000d82 	andeq	r0, r0, r2, lsl #27
     c54:	00000c69 	andeq	r0, r0, r9, ror #24
     c58:	02500118 	subseq	r0, r0, #6
     c5c:	01180076 	tsteq	r8, r6, ror r0
     c60:	184a0151 	stmdane	sl, {r0, r4, r6, r8}^
     c64:	34015201 	strcc	r5, [r1], #-513	; 0xfffffdff
     c68:	837c1900 	cmnhi	ip, #0, 18
     c6c:	0d820000 	stceq	0, cr0, [r2]
     c70:	01180000 	tsteq	r8, r0
     c74:	00760250 	rsbseq	r0, r6, r0, asr r2
     c78:	01510118 	cmpeq	r1, r8, lsl r1
     c7c:	5201184b 	andpl	r1, r1, #4915200	; 0x4b0000
     c80:	33007407 	movwcc	r7, #1031	; 0x407
     c84:	1af80824 	bne	ffe02d1c <__bss_end__+0xffdf816c>
     c88:	c01b0000 	andsgt	r0, fp, r0
     c8c:	9a000000 	bls	c94 <__code_start__-0x736c>
     c90:	1c00000c 	stcne	0, cr0, [r0], {12}
     c94:	0000002c 	andeq	r0, r0, ip, lsr #32
     c98:	8a090011 	bhi	240ce4 <__bss_end__+0x236134>
     c9c:	2d00000c 	stccs	0, cr0, [r0, #-48]	; 0xffffffd0
     ca0:	00000181 	andeq	r0, r0, r1, lsl #3
     ca4:	3a0e5e01 	bcc	3984b0 <__bss_end__+0x38d900>
     ca8:	38000000 	stmdacc	r0, {}	; <UNPREDICTABLE>
     cac:	0c000080 	stceq	0, cr0, [r0], {128}	; 0x80
     cb0:	01000000 	mrseq	r0, (UNDEF: 0)
     cb4:	000cda9c 	muleq	ip, ip, sl
     cb8:	6f6c1f00 	svcvs	0x006c1f00
     cbc:	1d5e0100 	ldfnee	f0, [lr, #-0]
     cc0:	0000004f 	andeq	r0, r0, pc, asr #32
     cc4:	0000076e 	andeq	r0, r0, lr, ror #14
     cc8:	0000076a 	andeq	r0, r0, sl, ror #14
     ccc:	00696820 	rsbeq	r6, r9, r0, lsr #16
     cd0:	4f295e01 	svcmi	0x00295e01
     cd4:	01000000 	mrseq	r0, (UNDEF: 0)
     cd8:	751e0051 	ldrvc	r0, [lr, #-81]	; 0xffffffaf
     cdc:	01000000 	mrseq	r0, (UNDEF: 0)
     ce0:	00250536 	eoreq	r0, r5, r6, lsr r5
     ce4:	82b80000 	adcshi	r0, r8, #0, 0
     ce8:	003c0000 	eorseq	r0, ip, r0
     cec:	9c010000 	stcls	0, cr0, [r1], {-0}
     cf0:	00000d7c 	andeq	r0, r0, ip, ror sp
     cf4:	0004be1d 	andeq	fp, r4, sp, lsl lr
     cf8:	16360100 	ldrtne	r0, [r6], -r0, lsl #2
     cfc:	0000004f 	andeq	r0, r0, pc, asr #32
     d00:	00000793 	muleq	r0, r3, r7
     d04:	0000078f 	andeq	r0, r0, pc, lsl #15
     d08:	00007e1d 	andeq	r7, r0, sp, lsl lr
     d0c:	24360100 	ldrtcs	r0, [r6], #-256	; 0xffffff00
     d10:	0000004f 	andeq	r0, r0, pc, asr #32
     d14:	000007b8 			; <UNDEFINED> instruction: 0x000007b8
     d18:	000007b4 			; <UNDEFINED> instruction: 0x000007b4
     d1c:	0100761f 	tsteq	r0, pc, lsl r6
     d20:	0d7c3736 	ldcleq	7, cr3, [ip, #-216]!	; 0xffffff28
     d24:	07db0000 	ldrbeq	r0, [fp, r0]
     d28:	07d70000 	ldrbeq	r0, [r7, r0]
     d2c:	6e1f0000 	cdpvs	0, 1, cr0, cr15, cr0, {0}
     d30:	43360100 	teqmi	r6, #0
     d34:	00000069 	andeq	r0, r0, r9, rrx
     d38:	000007fd 	strdeq	r0, [r0], -sp
     d3c:	000007f9 	strdeq	r0, [r0], -r9
     d40:	0082dc17 	addeq	sp, r2, r7, lsl ip
     d44:	000f5b00 	andeq	r5, pc, r0, lsl #22
     d48:	000d5f00 	andeq	r5, sp, r0, lsl #30
     d4c:	50011800 	andpl	r1, r1, r0, lsl #16
     d50:	18007402 	stmdane	r0, {r1, sl, ip, sp, lr}
     d54:	91025101 	tstls	r2, r1, lsl #2
     d58:	52011867 	andpl	r1, r1, #6750208	; 0x670000
     d5c:	19003101 	stmdbne	r0, {r0, r8, ip, sp}
     d60:	000082ec 	andeq	r8, r0, ip, ror #5
     d64:	00000f67 	andeq	r0, r0, r7, ror #30
     d68:	02500118 	subseq	r0, r0, #6
     d6c:	01180074 	tsteq	r8, r4, ror r0
     d70:	00750251 	rsbseq	r0, r5, r1, asr r2
     d74:	02520118 	subseq	r0, r2, #6
     d78:	00000076 	andeq	r0, r0, r6, ror r0
     d7c:	004f0408 	subeq	r0, pc, r8, lsl #8
     d80:	430f0000 	movwmi	r0, #61440	; 0xf000
     d84:	01000003 	tsteq	r0, r3
     d88:	8294062c 	addshi	r0, r4, #44, 12	; 0x2c00000
     d8c:	00240000 	eoreq	r0, r4, r0
     d90:	9c010000 	stcls	0, cr0, [r1], {-0}
     d94:	00000df7 	strdeq	r0, [r0], -r7
     d98:	0004be1d 	andeq	fp, r4, sp, lsl lr
     d9c:	152c0100 	strne	r0, [ip, #-256]!	; 0xffffff00
     da0:	0000004f 	andeq	r0, r0, pc, asr #32
     da4:	0000081f 	andeq	r0, r0, pc, lsl r8
     da8:	0000081b 	andeq	r0, r0, fp, lsl r8
     dac:	6765721f 			; <UNDEFINED> instruction: 0x6765721f
     db0:	232c0100 			; <UNDEFINED> instruction: 0x232c0100
     db4:	0000004f 	andeq	r0, r0, pc, asr #32
     db8:	00000846 	andeq	r0, r0, r6, asr #16
     dbc:	00000840 	andeq	r0, r0, r0, asr #16
     dc0:	0100761f 	tsteq	r0, pc, lsl r6
     dc4:	004f302c 	subeq	r3, pc, ip, lsr #32
     dc8:	08790000 	ldmdaeq	r9!, {}^	; <UNPREDICTABLE>
     dcc:	08730000 	ldmdaeq	r3!, {}^	; <UNPREDICTABLE>
     dd0:	0b160000 	bleq	580dd8 <__bss_end__+0x576228>
     dd4:	01000002 	tsteq	r0, r2
     dd8:	0df70d2d 	ldcleq	13, cr0, [r7, #180]!	; 0xb4
     ddc:	91020000 	mrsls	r0, (UNDEF: 2)
     de0:	82b01974 	adcshi	r1, r0, #116, 18	; 0x1d0000
     de4:	0f5b0000 	svceq	0x005b0000
     de8:	01180000 	tsteq	r8, r0
     dec:	6c910251 	lfmvs	f0, 4, [r1], {81}	; 0x51
     df0:	01520118 	cmpeq	r2, r8, lsl r1
     df4:	1b000032 	blne	ec4 <__code_start__-0x713c>
     df8:	0000004f 	andeq	r0, r0, pc, asr #32
     dfc:	00000e07 	andeq	r0, r0, r7, lsl #28
     e00:	00002c1c 	andeq	r2, r0, ip, lsl ip
     e04:	1e000100 	adfnes	f0, f0, f0
     e08:	000000dd 	ldrdeq	r0, [r0], -sp
     e0c:	4f092301 	svcmi	0x00092301
     e10:	5c000000 	stcpl	0, cr0, [r0], {-0}
     e14:	38000082 	stmdacc	r0, {r1, r7}
     e18:	01000000 	mrseq	r0, (UNDEF: 0)
     e1c:	000e919c 	muleq	lr, ip, r1
     e20:	04be1d00 	ldrteq	r1, [lr], #3328	; 0xd00
     e24:	23010000 	movwcs	r0, #4096	; 0x1000
     e28:	00004f18 	andeq	r4, r0, r8, lsl pc
     e2c:	0008aa00 	andeq	sl, r8, r0, lsl #20
     e30:	0008a600 	andeq	sl, r8, r0, lsl #12
     e34:	65721f00 	ldrbvs	r1, [r2, #-3840]!	; 0xfffff100
     e38:	23010067 	movwcs	r0, #4199	; 0x1067
     e3c:	00004f26 	andeq	r4, r0, r6, lsr #30
     e40:	0008cf00 	andeq	ip, r8, r0, lsl #30
     e44:	0008cb00 	andeq	ip, r8, r0, lsl #22
     e48:	00761300 	rsbseq	r1, r6, r0, lsl #6
     e4c:	4f0d2601 	svcmi	0x000d2601
     e50:	02000000 	andeq	r0, r0, #0, 0
     e54:	78177791 	ldmdavc	r7, {r0, r4, r7, r8, r9, sl, ip, sp, lr}
     e58:	5b000082 	blpl	1068 <__code_start__-0x6f98>
     e5c:	7500000f 	strvc	r0, [r0, #-15]
     e60:	1800000e 	stmdane	r0, {r1, r2, r3}
     e64:	74025001 	strvc	r5, [r2], #-1
     e68:	51011800 	tstpl	r1, r0, lsl #16
     e6c:	18679102 	stmdane	r7!, {r1, r8, ip, pc}^
     e70:	31015201 	tstcc	r1, r1, lsl #4
     e74:	82881900 	addhi	r1, r8, #0, 18
     e78:	0f670000 	svceq	0x00670000
     e7c:	01180000 	tsteq	r8, r0
     e80:	00740250 	rsbseq	r0, r4, r0, asr r2
     e84:	02510118 	subseq	r0, r1, #6
     e88:	01186f91 			; <UNDEFINED> instruction: 0x01186f91
     e8c:	00310152 	eorseq	r0, r1, r2, asr r1
     e90:	01b60f00 			; <UNDEFINED> instruction: 0x01b60f00
     e94:	1c010000 	stcne	0, cr0, [r1], {-0}
     e98:	00822406 	addeq	r2, r2, r6, lsl #8
     e9c:	00003800 	andeq	r3, r0, r0, lsl #16
     ea0:	fb9c0100 	blx	fe7012aa <__bss_end__+0xfe6f66fa>
     ea4:	1f00000e 	svcne	0x0000000e
     ea8:	0067736d 	rsbeq	r7, r7, sp, ror #6
     eac:	b31c1c01 	tstlt	ip, #256	; 0x100
     eb0:	f4000000 	vst4.8	{d0-d3}, [r0], r0
     eb4:	ee000008 	cdp	0, 0, cr0, cr0, cr8, {0}
     eb8:	20000008 	andcs	r0, r0, r8
     ebc:	007a7978 	rsbseq	r7, sl, r8, ror r9
     ec0:	022b1c01 	eoreq	r1, fp, #256	; 0x100
     ec4:	02000001 	andeq	r0, r0, #1, 0
     ec8:	50196c91 	mulspl	r9, r1, ip
     ecc:	2b000082 	blcs	10dc <__code_start__-0x6f24>
     ed0:	1800000f 	stmdane	r0, {r0, r1, r2, r3}
     ed4:	03055001 	movweq	r5, #20481	; 0x5001
     ed8:	0000a1fc 	strdeq	sl, [r0], -ip
     edc:	03510118 	cmpeq	r1, #6
     ee0:	185001f3 	ldmdane	r0, {r0, r1, r4, r5, r6, r7, r8}^
     ee4:	91035201 	tstls	r3, r1, lsl #4
     ee8:	01180664 	tsteq	r8, r4, ror #12
     eec:	68910353 	ldmvs	r1, {r0, r1, r4, r6, r8, r9}
     ef0:	7d021806 	stcvc	8, cr1, [r2, #-24]	; 0xffffffe8
     ef4:	6c910300 	ldcvs	3, cr0, [r1], {0}
     ef8:	29000006 	stmdbcs	r0, {r1, r2}
     efc:	000001e0 	andeq	r0, r0, r0, ror #3
     f00:	02011901 	andeq	r1, r1, #16384	; 0x4000
     f04:	03000001 	movweq	r0, #1
     f08:	00000f2b 	andeq	r0, r0, fp, lsr #30
     f0c:	0100782a 	tsteq	r0, sl, lsr #16
     f10:	00250c19 	eoreq	r0, r5, r9, lsl ip
     f14:	792a0000 	stmdbvc	sl!, {}	; <UNPREDICTABLE>
     f18:	13190100 	tstne	r9, #0
     f1c:	00000025 	andeq	r0, r0, r5, lsr #32
     f20:	01007a2a 	tsteq	r0, sl, lsr #20
     f24:	00251a19 	eoreq	r1, r5, r9, lsl sl
     f28:	2e000000 	cdpcs	0, 0, cr0, cr0, cr0, {0}
     f2c:	0000074b 	andeq	r0, r0, fp, asr #14
     f30:	0000074b 	andeq	r0, r0, fp, asr #14
     f34:	2e062803 	cdpcs	8, 0, cr2, cr6, cr3, {0}
     f38:	00000009 	andeq	r0, r0, r9
     f3c:	00000009 	andeq	r0, r0, r9
     f40:	2e065803 	cdpcs	8, 0, cr5, cr6, cr3, {0}
	...
     f4c:	2e060604 	cfmadd32cs	mvax0, mvfx0, mvfx6, mvfx4
     f50:	0000014b 	andeq	r0, r0, fp, asr #2
     f54:	0000014b 	andeq	r0, r0, fp, asr #2
     f58:	2e066e03 	cdpcs	14, 0, cr6, cr6, cr3, {0}
     f5c:	00000044 	andeq	r0, r0, r4, asr #32
     f60:	00000044 	andeq	r0, r0, r4, asr #32
     f64:	2e050c04 	cdpcs	12, 0, cr0, cr5, cr4, {0}
     f68:	00000361 	andeq	r0, r0, r1, ror #6
     f6c:	00000361 	andeq	r0, r0, r1, ror #6
     f70:	00050e04 	andeq	r0, r5, r4, lsl #28
     f74:	000019e0 	andeq	r1, r0, r0, ror #19
     f78:	02d40004 	sbcseq	r0, r4, #4, 0
     f7c:	01040000 	mrseq	r0, (UNDEF: 4)
     f80:	0000021b 	andeq	r0, r0, fp, lsl r2
     f84:	00038a0c 	andeq	r8, r3, ip, lsl #20
     f88:	00055f00 	andeq	r5, r5, r0, lsl #30
     f8c:	0086a000 	addeq	sl, r6, r0
     f90:	0008d000 	andeq	sp, r8, r0
     f94:	0003f800 	andeq	pc, r3, r0, lsl #16
     f98:	05040200 	streq	r0, [r4, #-512]	; 0xfffffe00
     f9c:	00746e69 	rsbseq	r6, r4, r9, ror #28
     fa0:	a0070403 	andge	r0, r7, r3, lsl #8
     fa4:	04000001 	streq	r0, [r0], #-1
     fa8:	0000002c 	andeq	r0, r0, ip, lsr #32
     fac:	75060103 	strvc	r0, [r6, #-259]	; 0xfffffefd
     fb0:	03000001 	movweq	r0, #1
     fb4:	002e0502 	eoreq	r0, lr, r2, lsl #10
     fb8:	04030000 	streq	r0, [r3], #-0
     fbc:	0000ff05 	andeq	pc, r0, r5, lsl #30
     fc0:	05080300 	streq	r0, [r8, #-768]	; 0xfffffd00
     fc4:	000000fa 	strdeq	r0, [r0], -sl
     fc8:	00009305 	andeq	r9, r0, r5, lsl #6
     fcc:	182e0200 	stmdane	lr!, {r9}
     fd0:	00000060 	andeq	r0, r0, r0, rrx
     fd4:	73080103 	movwvc	r0, #33027	; 0x8103
     fd8:	03000001 	movweq	r0, #1
     fdc:	01ef0702 	mvneq	r0, r2, lsl #14
     fe0:	ad050000 	stcge	0, cr0, [r5, #-0]
     fe4:	02000001 	andeq	r0, r0, #1, 0
     fe8:	007a1934 	rsbseq	r1, sl, r4, lsr r9
     fec:	04030000 	streq	r0, [r3], #-0
     ff0:	00019b07 	andeq	r9, r1, r7, lsl #22
     ff4:	07080300 	streq	r0, [r8, -r0, lsl #6]
     ff8:	00000196 	muleq	r0, r6, r1
     ffc:	00002506 	andeq	r2, r0, r6, lsl #10
    1000:	00009700 	andeq	r9, r0, r0, lsl #14
    1004:	00250700 	eoreq	r0, r5, r0, lsl #14
    1008:	08000000 	stmdaeq	r0, {}	; <UNPREDICTABLE>
    100c:	0000005a 	andeq	r0, r0, sl, asr r0
    1010:	a30e1c03 	movwge	r1, #60419	; 0xec03
    1014:	09000000 	stmdbeq	r0, {}	; <UNPREDICTABLE>
    1018:	00008804 	andeq	r8, r0, r4, lsl #16
    101c:	00250600 	eoreq	r0, r5, r0, lsl #12
    1020:	00b80000 	adcseq	r0, r8, r0
    1024:	b8070000 	stmdalt	r7, {}	; <UNPREDICTABLE>
    1028:	00000000 	andeq	r0, r0, r0
    102c:	00c50409 	sbceq	r0, r5, r9, lsl #8
    1030:	01030000 	mrseq	r0, (UNDEF: 3)
    1034:	00017c08 	andeq	r7, r1, r8, lsl #24
    1038:	00be0400 	adcseq	r0, lr, r0, lsl #8
    103c:	89080000 	stmdbhi	r8, {}	; <UNPREDICTABLE>
    1040:	03000007 	movweq	r0, #7
    1044:	00d60e21 	sbcseq	r0, r6, r1, lsr #28
    1048:	04090000 	streq	r0, [r9], #-0
    104c:	000000a9 	andeq	r0, r0, r9, lsr #1
    1050:	6001070a 	andvs	r0, r1, sl, lsl #14
    1054:	04000000 	streq	r0, [r0], #-0
    1058:	011b0e0c 	tsteq	fp, ip, lsl #28
    105c:	7a0b0000 	bvc	2c1064 <__bss_end__+0x2b64b4>
    1060:	00000004 	andeq	r0, r0, r4
    1064:	0003ae0b 	andeq	sl, r3, fp, lsl #28
    1068:	c70b0100 	strgt	r0, [fp, -r0, lsl #2]
    106c:	04000003 	streq	r0, [r0], #-3
    1070:	0003d60b 	andeq	sp, r3, fp, lsl #12
    1074:	e50b0500 	str	r0, [fp, #-1280]	; 0xfffffb00
    1078:	06000003 	streq	r0, [r0], -r3
    107c:	0003f40b 	andeq	pc, r3, fp, lsl #8
    1080:	030b0700 	movweq	r0, #46848	; 0xb700
    1084:	03000004 	movweq	r0, #4
    1088:	0004120b 	andeq	r1, r4, fp, lsl #4
    108c:	0c000200 	sfmeq	f0, 4, [r0], {-0}
    1090:	09590104 	ldmdbeq	r9, {r2, r8}^
    1094:	000001d4 	ldrdeq	r0, [r0], -r4
    1098:	0003650d 	andeq	r6, r3, sp, lsl #10
    109c:	0b5a0100 	bleq	16814a4 <__bss_end__+0x16768f4>
    10a0:	0000006e 	andeq	r0, r0, lr, rrx
    10a4:	001f0104 	andseq	r0, pc, r4, lsl #2
    10a8:	0005410d 	andeq	r4, r5, sp, lsl #2
    10ac:	035c0100 	cmpeq	ip, #0
    10b0:	0000006e 	andeq	r0, r0, lr, rrx
    10b4:	001c0304 	andseq	r0, ip, r4, lsl #6
    10b8:	00046f0d 	andeq	r6, r4, sp, lsl #30
    10bc:	035d0100 	cmpeq	sp, #0
    10c0:	0000006e 	andeq	r0, r0, lr, rrx
    10c4:	001a0204 	andseq	r0, sl, r4, lsl #4
    10c8:	00054b0d 	andeq	r4, r5, sp, lsl #22
    10cc:	03630100 	cmneq	r3, #0
    10d0:	0000006e 	andeq	r0, r0, lr, rrx
    10d4:	00190104 	andseq	r0, r9, r4, lsl #2
    10d8:	0074730e 	rsbseq	r7, r4, lr, lsl #6
    10dc:	6e036401 	cdpvs	4, 0, cr6, cr3, cr1, {0}
    10e0:	04000000 	streq	r0, [r0], #-0
    10e4:	0d001801 	stceq	8, cr1, [r0, #-4]
    10e8:	0000048a 	andeq	r0, r0, sl, lsl #9
    10ec:	6e036801 	cdpvs	8, 0, cr6, cr3, cr1, {0}
    10f0:	04000000 	streq	r0, [r0], #-0
    10f4:	0d001701 	stceq	7, cr1, [r0, #-4]
    10f8:	0000049f 	muleq	r0, pc, r4	; <UNPREDICTABLE>
    10fc:	6e036b01 	vmlavs.f64	d6, d3, d1
    1100:	04000000 	streq	r0, [r0], #-0
    1104:	0d001601 	stceq	6, cr1, [r0, #-4]
    1108:	0000049a 	muleq	r0, sl, r4
    110c:	6e036e01 	cdpvs	14, 0, cr6, cr3, cr1, {0}
    1110:	04000000 	streq	r0, [r0], #-0
    1114:	0d001501 	cfstr32eq	mvfx1, [r0, #-4]
    1118:	00000555 	andeq	r0, r0, r5, asr r5
    111c:	6e037101 	adfvss	f7, f3, f1
    1120:	04000000 	streq	r0, [r0], #-0
    1124:	0d001104 	stfeqs	f1, [r0, #-16]
    1128:	000004dd 	ldrdeq	r0, [r0], -sp
    112c:	6e037201 	cdpvs	2, 0, cr7, cr3, cr1, {0}
    1130:	04000000 	streq	r0, [r0], #-0
    1134:	0d001001 	stceq	0, cr1, [r0, #-4]
    1138:	0000036a 	andeq	r0, r0, sl, ror #6
    113c:	6e037501 	cfsh32vs	mvfx7, mvfx3, #1
    1140:	04000000 	streq	r0, [r0], #-0
    1144:	00000010 	andeq	r0, r0, r0, lsl r0
    1148:	00044705 	andeq	r4, r4, r5, lsl #14
    114c:	03760100 	cmneq	r6, #0
    1150:	0000011b 	andeq	r0, r0, fp, lsl r1
    1154:	0001d40f 	andeq	sp, r1, pc, lsl #8
    1158:	01040c00 	tsteq	r4, r0, lsl #24
    115c:	029e0984 	addseq	r0, lr, #132, 18	; 0x210000
    1160:	740e0000 	strvc	r0, [lr], #-0
    1164:	85010061 	strhi	r0, [r1, #-97]	; 0xffffff9f
    1168:	00002c0b 	andeq	r2, r0, fp, lsl #24
    116c:	1f010400 	svcne	0x00010400
    1170:	04750d00 	ldrbteq	r0, [r5], #-3328	; 0xfffff300
    1174:	88010000 	stmdahi	r1, {}	; <UNPREDICTABLE>
    1178:	00002c03 	andeq	r2, r0, r3, lsl #24
    117c:	1e010400 	cfcpysne	mvf0, mvf1
    1180:	78740e00 	ldmdavc	r4!, {r9, sl, fp}^
    1184:	8c010077 	stchi	0, cr0, [r1], {119}	; 0x77
    1188:	00002c03 	andeq	r2, r0, r3, lsl #24
    118c:	1d010400 	cfstrsne	mvf0, [r1, #-0]
    1190:	78720e00 	ldmdavc	r2!, {r9, sl, fp}^
    1194:	92010072 	andls	r0, r1, #114, 0	; 0x72
    1198:	00002c03 	andeq	r2, r0, r3, lsl #24
    119c:	1c010400 	cfstrsne	mvf0, [r1], {-0}
    11a0:	78740e00 	ldmdavc	r4!, {r9, sl, fp}^
    11a4:	98010064 	stmdals	r1, {r2, r5, r6}
    11a8:	00002c03 	andeq	r2, r0, r3, lsl #24
    11ac:	1b010400 	blne	421b4 <__bss_end__+0x37604>
    11b0:	78720e00 	ldmdavc	r2!, {r9, sl, fp}^
    11b4:	9b010064 	blls	4134c <__bss_end__+0x3679c>
    11b8:	00002c03 	andeq	r2, r0, r3, lsl #24
    11bc:	1a010400 	bne	421c4 <__bss_end__+0x37614>
    11c0:	78740e00 	ldmdavc	r4!, {r9, sl, fp}^
    11c4:	9f010065 	svcls	0x00010065
    11c8:	00002c03 	andeq	r2, r0, r3, lsl #24
    11cc:	19010400 	stmdbne	r1, {sl}
    11d0:	78720e00 	ldmdavc	r2!, {r9, sl, fp}^
    11d4:	a4010066 	strge	r0, [r1], #-102	; 0xffffff9a
    11d8:	00002c03 	andeq	r2, r0, r3, lsl #24
    11dc:	18010400 	stmdane	r1, {sl}
    11e0:	72650e00 	rsbvc	r0, r5, #0, 28
    11e4:	a7010072 	smlsdxge	r1, r2, r0, r0
    11e8:	00002c03 	andeq	r2, r0, r3, lsl #24
    11ec:	17010400 	strne	r0, [r1, -r0, lsl #8]
    11f0:	050b0d00 	streq	r0, [fp, #-3328]	; 0xfffff300
    11f4:	ab010000 	blge	411fc <__bss_end__+0x3664c>
    11f8:	00002c03 	andeq	r2, r0, r3, lsl #24
    11fc:	16010400 	strne	r0, [r1], -r0, lsl #8
    1200:	05410d00 	strbeq	r0, [r1, #-3328]	; 0xfffff300
    1204:	b0010000 	andlt	r0, r1, r0
    1208:	00002c03 	andeq	r2, r0, r3, lsl #24
    120c:	00160400 	andseq	r0, r6, r0, lsl #8
    1210:	21050000 	mrscs	r0, (UNDEF: 5)
    1214:	01000004 	tsteq	r0, r4
    1218:	01e503b1 	strheq	r0, [r5, #49]!	; 0x31
    121c:	9e0f0000 	cdpls	0, 0, cr0, cr15, cr0, {0}
    1220:	10000002 	andne	r0, r0, r2
    1224:	000004d5 	ldrdeq	r0, [r0], -r5
    1228:	10bc0120 	adcsne	r0, ip, r0, lsr #2
    122c:	00000325 	andeq	r0, r0, r5, lsr #6
    1230:	0004a911 	andeq	sl, r4, r1, lsl r9
    1234:	0dbd0100 	ldfeqs	f0, [sp]
    1238:	000001d4 	ldrdeq	r0, [r0], -r4
    123c:	059a1100 	ldreq	r1, [sl, #256]	; 0x100
    1240:	be010000 	cdplt	0, 0, cr0, cr1, cr0, {0}
    1244:	00029e0d 	andeq	r9, r2, sp, lsl #28
    1248:	3c110400 	cfldrscc	mvf0, [r1], {-0}
    124c:	01000004 	tsteq	r0, r4
    1250:	006e0bc1 	rsbeq	r0, lr, r1, asr #23
    1254:	11080000 	mrsne	r0, (UNDEF: 8)
    1258:	000001d7 	ldrdeq	r0, [r0], -r7
    125c:	6e0cca01 	vmlavs.f32	s24, s24, s2
    1260:	0c000000 	stceq	0, cr0, [r0], {-0}
    1264:	0004a411 	andeq	sl, r4, r1, lsl r4
    1268:	0bcc0100 	bleq	ff301670 <__bss_end__+0xff2f6ac0>
    126c:	0000006e 	andeq	r0, r0, lr, rrx
    1270:	04651110 	strbteq	r1, [r5], #-272	; 0xfffffef0
    1274:	ce010000 	cdpgt	0, 0, cr0, cr1, cr0, {0}
    1278:	00006e0b 	andeq	r6, r0, fp, lsl #28
    127c:	a1111400 	tstge	r1, r0, lsl #8
    1280:	01000005 	tsteq	r0, r5
    1284:	006e0bd0 	ldrdeq	r0, [lr], #-176	; 0xffffff50	; <UNPREDICTABLE>
    1288:	11180000 	tstne	r8, r0
    128c:	00000390 	muleq	r0, r0, r3
    1290:	6e0bd201 	cdpvs	2, 0, cr13, cr11, cr1, {0}
    1294:	1c000000 	stcne	0, cr0, [r0], {-0}
    1298:	04d50500 	ldrbeq	r0, [r5], #1280	; 0x500
    129c:	d3010000 	movwle	r0, #4096	; 0x1000
    12a0:	0002af03 	andeq	sl, r2, r3, lsl #30
    12a4:	03250f00 			; <UNDEFINED> instruction: 0x03250f00
    12a8:	69120000 	ldmdbvs	r2, {}	; <UNPREDICTABLE>
    12ac:	01006332 	tsteq	r0, r2, lsr r3
    12b0:	03421ad7 	movteq	r1, #10967	; 0x2ad7
    12b4:	04090000 	streq	r0, [r9], #-0
    12b8:	00000331 	andeq	r0, r0, r1, lsr r3
    12bc:	00037c13 	andeq	r7, r3, r3, lsl ip
    12c0:	017e0100 	cmneq	lr, r0, lsl #2
    12c4:	0000250c 	andeq	r2, r0, ip, lsl #10
    12c8:	a4030500 	strge	r0, [r3], #-1280	; 0xfffffb00
    12cc:	140000a7 	strne	r0, [r0], #-167	; 0xffffff59
    12d0:	00000458 	andeq	r0, r0, r8, asr r4
    12d4:	0d01b101 	stfeqd	f3, [r1, #-4]
    12d8:	000086bc 			; <UNDEFINED> instruction: 0x000086bc
    12dc:	00000008 	andeq	r0, r0, r8
    12e0:	0a629c01 	beq	18a82ec <__bss_end__+0x189d73c>
    12e4:	22150000 	andscs	r0, r5, #0, 0
    12e8:	72000001 	andvc	r0, r0, #1, 0
    12ec:	0500000a 	streq	r0, [r0, #-10]
    12f0:	00a5a003 	adceq	sl, r5, r3
    12f4:	86c01600 	strbhi	r1, [r0], r0, lsl #12
    12f8:	00000000 	andeq	r0, r0, r0
    12fc:	03e80000 	mvneq	r0, #0, 0
    1300:	5f170000 	svcpl	0x00170000
    1304:	01040075 	tsteq	r4, r5, ror r0
    1308:	b20201bc 	andlt	r0, r2, #47	; 0x2f
    130c:	18000003 	stmdane	r0, {r0, r1}
    1310:	bc010073 	stclt	0, cr0, [r1], {115}	; 0x73
    1314:	01d40201 	bicseq	r0, r4, r1, lsl #4
    1318:	75180000 	ldrvc	r0, [r8, #-0]
    131c:	01bc0100 			; <UNDEFINED> instruction: 0x01bc0100
    1320:	00002c02 	andeq	r2, r0, r2, lsl #24
    1324:	78190000 	ldmdavc	r9, {}	; <UNPREDICTABLE>
    1328:	01bc0100 			; <UNDEFINED> instruction: 0x01bc0100
    132c:	00038e02 	andeq	r8, r3, r2, lsl #28
    1330:	78651a00 	stmdavc	r5!, {r9, fp, ip}^
    1334:	bc010070 	stclt	0, cr0, [r1], {112}	; 0x70
    1338:	002c0201 	eoreq	r0, ip, r1, lsl #4
    133c:	1b010000 	blne	41344 <__bss_end__+0x36794>
    1340:	00000452 	andeq	r0, r0, r2, asr r4
    1344:	0201bc01 	andeq	fp, r1, #256	; 0x100
    1348:	0000002c 	andeq	r0, r0, ip, lsr #32
    134c:	03741b1f 	cmneq	r4, #31744	; 0x7c00
    1350:	bc010000 	stclt	0, cr0, [r1], {-0}
    1354:	002c0201 	eoreq	r0, ip, r1, lsl #4
    1358:	00010000 	andeq	r0, r1, r0
    135c:	0086c016 	addeq	ip, r6, r6, lsl r0
    1360:	00000000 	andeq	r0, r0, r0
    1364:	00045800 	andeq	r5, r4, r0, lsl #16
    1368:	755f1700 	ldrbvc	r1, [pc, #-1792]	; c70 <__code_start__-0x7390>
    136c:	bd010400 	cfstrslt	mvf0, [r1, #-0]
    1370:	04190201 	ldreq	r0, [r9], #-513	; 0xfffffdff
    1374:	73180000 	tstvc	r8, #0, 0
    1378:	01bd0100 			; <UNDEFINED> instruction: 0x01bd0100
    137c:	0001d402 	andeq	sp, r1, r2, lsl #8
    1380:	00751800 	rsbseq	r1, r5, r0, lsl #16
    1384:	0201bd01 	andeq	fp, r1, #64	; 0x40
    1388:	0000002c 	andeq	r0, r0, ip, lsr #32
    138c:	00781c00 	rsbseq	r1, r8, r0, lsl #24
    1390:	0201bd01 	andeq	fp, r1, #64	; 0x40
    1394:	000003f5 	strdeq	r0, [r0], -r5
    1398:	651d5301 	ldrvs	r5, [sp, #-769]	; 0xfffffcff
    139c:	01007078 	tsteq	r0, r8, ror r0
    13a0:	2c0201bd 	stfcss	f0, [r2], {189}	; 0xbd
    13a4:	24000000 	strcs	r0, [r0], #-0
    13a8:	20000009 	andcs	r0, r0, r9
    13ac:	1b000009 	blne	13d8 <__code_start__-0x6c28>
    13b0:	00000452 	andeq	r0, r0, r2, asr r4
    13b4:	0201bd01 	andeq	fp, r1, #64	; 0x40
    13b8:	0000002c 	andeq	r0, r0, ip, lsr #32
    13bc:	03741b1e 	cmneq	r4, #30720	; 0x7800
    13c0:	bd010000 	stclt	0, cr0, [r1, #-0]
    13c4:	002c0201 	eoreq	r0, ip, r1, lsl #4
    13c8:	00030000 	andeq	r0, r3, r0
    13cc:	0086c016 	addeq	ip, r6, r6, lsl r0
    13d0:	00000000 	andeq	r0, r0, r0
    13d4:	0004bf00 	andeq	fp, r4, r0, lsl #30
    13d8:	755f1700 	ldrbvc	r1, [pc, #-1792]	; ce0 <__code_start__-0x7320>
    13dc:	be010400 	cfcpyslt	mvf0, mvf1
    13e0:	04890201 	streq	r0, [r9], #513	; 0x201
    13e4:	73180000 	tstvc	r8, #0, 0
    13e8:	01be0100 			; <UNDEFINED> instruction: 0x01be0100
    13ec:	0001d402 	andeq	sp, r1, r2, lsl #8
    13f0:	00751800 	rsbseq	r1, r5, r0, lsl #16
    13f4:	0201be01 	andeq	fp, r1, #1, 28
    13f8:	0000002c 	andeq	r0, r0, ip, lsr #32
    13fc:	00781900 	rsbseq	r1, r8, r0, lsl #18
    1400:	0201be01 	andeq	fp, r1, #1, 28
    1404:	00000465 	andeq	r0, r0, r5, ror #8
    1408:	7078651a 	rsbsvc	r6, r8, sl, lsl r5
    140c:	01be0100 			; <UNDEFINED> instruction: 0x01be0100
    1410:	00002c02 	andeq	r2, r0, r2, lsl #24
    1414:	521b8000 	andspl	r8, fp, #0, 0
    1418:	01000004 	tsteq	r0, r4
    141c:	2c0201be 	stfcss	f0, [r2], {190}	; 0xbe
    1420:	1f000000 	svcne	0x00000000
    1424:	0003741b 	andeq	r7, r3, fp, lsl r4
    1428:	01be0100 			; <UNDEFINED> instruction: 0x01be0100
    142c:	00002c02 	andeq	r2, r0, r2, lsl #24
    1430:	16000100 	strne	r0, [r0], -r0, lsl #2
    1434:	000086c0 	andeq	r8, r0, r0, asr #13
    1438:	00000000 	andeq	r0, r0, r0
    143c:	00000527 	andeq	r0, r0, r7, lsr #10
    1440:	00755f17 	rsbseq	r5, r5, r7, lsl pc
    1444:	01bf0104 			; <UNDEFINED> instruction: 0x01bf0104
    1448:	0004f002 	andeq	pc, r4, r2
    144c:	00731800 	rsbseq	r1, r3, r0, lsl #16
    1450:	0201bf01 	andeq	fp, r1, #1, 30
    1454:	000001d4 	ldrdeq	r0, [r0], -r4
    1458:	01007518 	tsteq	r0, r8, lsl r5
    145c:	2c0201bf 	stfcss	f0, [r2], {191}	; 0xbf
    1460:	00000000 	andeq	r0, r0, r0
    1464:	01007819 	tsteq	r0, r9, lsl r8
    1468:	cc0201bf 	stfgts	f0, [r2], {191}	; 0xbf
    146c:	1e000004 	cdpne	0, 0, cr0, cr0, cr4, {0}
    1470:	00707865 	rsbseq	r7, r0, r5, ror #16
    1474:	0201bf01 	andeq	fp, r1, #1, 30
    1478:	0000002c 	andeq	r0, r0, ip, lsr #32
    147c:	521b0100 	andspl	r0, fp, #0
    1480:	01000004 	tsteq	r0, r4
    1484:	2c0201bf 	stfcss	f0, [r2], {191}	; 0xbf
    1488:	1f000000 	svcne	0x00000000
    148c:	0003741b 	andeq	r7, r3, fp, lsl r4
    1490:	01bf0100 			; <UNDEFINED> instruction: 0x01bf0100
    1494:	00002c02 	andeq	r2, r0, r2, lsl #24
    1498:	16000100 	strne	r0, [r0], -r0, lsl #2
    149c:	000086c0 	andeq	r8, r0, r0, asr #13
    14a0:	00000000 	andeq	r0, r0, r0
    14a4:	0000058f 	andeq	r0, r0, pc, lsl #11
    14a8:	00755f17 	rsbseq	r5, r5, r7, lsl pc
    14ac:	01c00104 	biceq	r0, r0, r4, lsl #2
    14b0:	00055802 	andeq	r5, r5, r2, lsl #16
    14b4:	00731800 	rsbseq	r1, r3, r0, lsl #16
    14b8:	0201c001 	andeq	ip, r1, #1, 0
    14bc:	000001d4 	ldrdeq	r0, [r0], -r4
    14c0:	01007518 	tsteq	r0, r8, lsl r5
    14c4:	2c0201c0 	stfcss	f0, [r2], {192}	; 0xc0
    14c8:	00000000 	andeq	r0, r0, r0
    14cc:	01007819 	tsteq	r0, r9, lsl r8
    14d0:	340201c0 	strcc	r0, [r2], #-448	; 0xfffffe40
    14d4:	1e000005 	cdpne	0, 0, cr0, cr0, cr5, {0}
    14d8:	00707865 	rsbseq	r7, r0, r5, ror #16
    14dc:	0201c001 	andeq	ip, r1, #1, 0
    14e0:	0000002c 	andeq	r0, r0, ip, lsr #32
    14e4:	521b0200 	andspl	r0, fp, #0, 4
    14e8:	01000004 	tsteq	r0, r4
    14ec:	2c0201c0 	stfcss	f0, [r2], {192}	; 0xc0
    14f0:	1f000000 	svcne	0x00000000
    14f4:	0003741b 	andeq	r7, r3, fp, lsl r4
    14f8:	01c00100 	biceq	r0, r0, r0, lsl #2
    14fc:	00002c02 	andeq	r2, r0, r2, lsl #24
    1500:	16000100 	strne	r0, [r0], -r0, lsl #2
    1504:	000086c0 	andeq	r8, r0, r0, asr #13
    1508:	00000000 	andeq	r0, r0, r0
    150c:	000005f7 	strdeq	r0, [r0], -r7
    1510:	00755f17 	rsbseq	r5, r5, r7, lsl pc
    1514:	01c10104 	biceq	r0, r1, r4, lsl #2
    1518:	0005c002 	andeq	ip, r5, r2
    151c:	00731800 	rsbseq	r1, r3, r0, lsl #16
    1520:	0201c101 	andeq	ip, r1, #1073741824	; 0x40000000
    1524:	000001d4 	ldrdeq	r0, [r0], -r4
    1528:	01007518 	tsteq	r0, r8, lsl r5
    152c:	2c0201c1 	stfcss	f0, [r2], {193}	; 0xc1
    1530:	00000000 	andeq	r0, r0, r0
    1534:	01007819 	tsteq	r0, r9, lsl r8
    1538:	9c0201c1 	stflss	f0, [r2], {193}	; 0xc1
    153c:	1e000005 	cdpne	0, 0, cr0, cr0, cr5, {0}
    1540:	00707865 	rsbseq	r7, r0, r5, ror #16
    1544:	0201c101 	andeq	ip, r1, #1073741824	; 0x40000000
    1548:	0000002c 	andeq	r0, r0, ip, lsr #32
    154c:	521b0400 	andspl	r0, fp, #0, 8
    1550:	01000004 	tsteq	r0, r4
    1554:	2c0201c1 	stfcss	f0, [r2], {193}	; 0xc1
    1558:	1f000000 	svcne	0x00000000
    155c:	0003741b 	andeq	r7, r3, fp, lsl r4
    1560:	01c10100 	biceq	r0, r1, r0, lsl #2
    1564:	00002c02 	andeq	r2, r0, r2, lsl #24
    1568:	16000100 	strne	r0, [r0], -r0, lsl #2
    156c:	000086c0 	andeq	r8, r0, r0, asr #13
    1570:	00000000 	andeq	r0, r0, r0
    1574:	0000065f 	andeq	r0, r0, pc, asr r6
    1578:	00755f17 	rsbseq	r5, r5, r7, lsl pc
    157c:	01c20104 	biceq	r0, r2, r4, lsl #2
    1580:	00062802 	andeq	r2, r6, r2, lsl #16
    1584:	00731800 	rsbseq	r1, r3, r0, lsl #16
    1588:	0201c201 	andeq	ip, r1, #268435456	; 0x10000000
    158c:	000001d4 	ldrdeq	r0, [r0], -r4
    1590:	01007518 	tsteq	r0, r8, lsl r5
    1594:	2c0201c2 	stfcss	f0, [r2], {194}	; 0xc2
    1598:	00000000 	andeq	r0, r0, r0
    159c:	01007819 	tsteq	r0, r9, lsl r8
    15a0:	040201c2 	streq	r0, [r2], #-450	; 0xfffffe3e
    15a4:	1e000006 	cdpne	0, 0, cr0, cr0, cr6, {0}
    15a8:	00707865 	rsbseq	r7, r0, r5, ror #16
    15ac:	0201c201 	andeq	ip, r1, #268435456	; 0x10000000
    15b0:	0000002c 	andeq	r0, r0, ip, lsr #32
    15b4:	521b8000 	andspl	r8, fp, #0, 0
    15b8:	01000004 	tsteq	r0, r4
    15bc:	2c0201c2 	stfcss	f0, [r2], {194}	; 0xc2
    15c0:	1f000000 	svcne	0x00000000
    15c4:	0003741b 	andeq	r7, r3, fp, lsl r4
    15c8:	01c20100 	biceq	r0, r2, r0, lsl #2
    15cc:	00002c02 	andeq	r2, r0, r2, lsl #24
    15d0:	16000100 	strne	r0, [r0], -r0, lsl #2
    15d4:	000086c0 	andeq	r8, r0, r0, asr #13
    15d8:	00000000 	andeq	r0, r0, r0
    15dc:	000006c6 	andeq	r0, r0, r6, asr #13
    15e0:	00755f17 	rsbseq	r5, r5, r7, lsl pc
    15e4:	01c50104 	biceq	r0, r5, r4, lsl #2
    15e8:	00069002 	andeq	r9, r6, r2
    15ec:	00731800 	rsbseq	r1, r3, r0, lsl #16
    15f0:	0201c501 	andeq	ip, r1, #4194304	; 0x400000
    15f4:	0000029e 	muleq	r0, lr, r2
    15f8:	01007518 	tsteq	r0, r8, lsl r5
    15fc:	2c0201c5 	stfcss	f0, [r2], {197}	; 0xc5
    1600:	00000000 	andeq	r0, r0, r0
    1604:	01007819 	tsteq	r0, r9, lsl r8
    1608:	6c0201c5 	stfvss	f0, [r2], {197}	; 0xc5
    160c:	1a000006 	bne	162c <__code_start__-0x69d4>
    1610:	00707865 	rsbseq	r7, r0, r5, ror #16
    1614:	0201c501 	andeq	ip, r1, #4194304	; 0x400000
    1618:	0000002c 	andeq	r0, r0, ip, lsr #32
    161c:	04521b01 	ldrbeq	r1, [r2], #-2817	; 0xfffff4ff
    1620:	c5010000 	strgt	r0, [r1, #-0]
    1624:	002c0201 	eoreq	r0, ip, r1, lsl #4
    1628:	1b1f0000 	blne	7c1630 <__bss_end__+0x7b6a80>
    162c:	00000374 	andeq	r0, r0, r4, ror r3
    1630:	0201c501 	andeq	ip, r1, #4194304	; 0x400000
    1634:	0000002c 	andeq	r0, r0, ip, lsr #32
    1638:	c0160001 	andsgt	r0, r6, r1
    163c:	00000086 	andeq	r0, r0, r6, lsl #1
    1640:	2d000000 	stccs	0, cr0, [r0, #-0]
    1644:	17000007 	strne	r0, [r0, -r7]
    1648:	0400755f 	streq	r7, [r0], #-1375	; 0xfffffaa1
    164c:	0201c601 	andeq	ip, r1, #1048576	; 0x100000
    1650:	000006f7 	strdeq	r0, [r0], -r7
    1654:	01007318 	tsteq	r0, r8, lsl r3
    1658:	9e0201c6 	adflsdm	f0, f2, f6
    165c:	18000002 	stmdane	r0, {r1}
    1660:	c6010075 			; <UNDEFINED> instruction: 0xc6010075
    1664:	002c0201 	eoreq	r0, ip, r1, lsl #4
    1668:	19000000 	stmdbne	r0, {}	; <UNPREDICTABLE>
    166c:	c6010078 			; <UNDEFINED> instruction: 0xc6010078
    1670:	06d30201 	ldrbeq	r0, [r3], r1, lsl #4
    1674:	651a0000 	ldrvs	r0, [sl, #-0]
    1678:	01007078 	tsteq	r0, r8, ror r0
    167c:	2c0201c6 	stfcss	f0, [r2], {198}	; 0xc6
    1680:	02000000 	andeq	r0, r0, #0, 0
    1684:	0004521b 	andeq	r5, r4, fp, lsl r2
    1688:	01c60100 	biceq	r0, r6, r0, lsl #2
    168c:	00002c02 	andeq	r2, r0, r2, lsl #24
    1690:	741b1f00 	ldrvc	r1, [fp], #-3840	; 0xfffff100
    1694:	01000003 	tsteq	r0, r3
    1698:	2c0201c6 	stfcss	f0, [r2], {198}	; 0xc6
    169c:	01000000 	mrseq	r0, (UNDEF: 0)
    16a0:	86c01600 	strbhi	r1, [r0], r0, lsl #12
    16a4:	00000000 	andeq	r0, r0, r0
    16a8:	07940000 	ldreq	r0, [r4, r0]
    16ac:	5f170000 	svcpl	0x00170000
    16b0:	01040075 	tsteq	r4, r5, ror r0
    16b4:	5e0201c7 	adfpldm	f0, f2, f7
    16b8:	18000007 	stmdane	r0, {r0, r1, r2}
    16bc:	c7010073 	smlsdxgt	r1, r3, r0, r0
    16c0:	029e0201 	addseq	r0, lr, #268435456	; 0x10000000
    16c4:	75180000 	ldrvc	r0, [r8, #-0]
    16c8:	01c70100 	biceq	r0, r7, r0, lsl #2
    16cc:	00002c02 	andeq	r2, r0, r2, lsl #24
    16d0:	78190000 	ldmdavc	r9, {}	; <UNPREDICTABLE>
    16d4:	01c70100 	biceq	r0, r7, r0, lsl #2
    16d8:	00073a02 	andeq	r3, r7, r2, lsl #20
    16dc:	78651a00 	stmdavc	r5!, {r9, fp, ip}^
    16e0:	c7010070 	smlsdxgt	r1, r0, r0, r0
    16e4:	002c0201 	eoreq	r0, ip, r1, lsl #4
    16e8:	1b040000 	blne	1016f0 <__bss_end__+0xf6b40>
    16ec:	00000452 	andeq	r0, r0, r2, asr r4
    16f0:	0201c701 	andeq	ip, r1, #262144	; 0x40000
    16f4:	0000002c 	andeq	r0, r0, ip, lsr #32
    16f8:	03741b1f 	cmneq	r4, #31744	; 0x7c00
    16fc:	c7010000 	strgt	r0, [r1, -r0]
    1700:	002c0201 	eoreq	r0, ip, r1, lsl #4
    1704:	00010000 	andeq	r0, r1, r0
    1708:	0086c016 	addeq	ip, r6, r6, lsl r0
    170c:	00000000 	andeq	r0, r0, r0
    1710:	0007fb00 	andeq	pc, r7, r0, lsl #22
    1714:	755f1700 	ldrbvc	r1, [pc, #-1792]	; 101c <__code_start__-0x6fe4>
    1718:	c8010400 	stmdagt	r1, {sl}
    171c:	07c50201 	strbeq	r0, [r5, r1, lsl #4]
    1720:	73180000 	tstvc	r8, #0, 0
    1724:	01c80100 	biceq	r0, r8, r0, lsl #2
    1728:	00029e02 	andeq	r9, r2, r2, lsl #28
    172c:	00751800 	rsbseq	r1, r5, r0, lsl #16
    1730:	0201c801 	andeq	ip, r1, #65536	; 0x10000
    1734:	0000002c 	andeq	r0, r0, ip, lsr #32
    1738:	00781900 	rsbseq	r1, r8, r0, lsl #18
    173c:	0201c801 	andeq	ip, r1, #65536	; 0x10000
    1740:	000007a1 	andeq	r0, r0, r1, lsr #15
    1744:	7078651a 	rsbsvc	r6, r8, sl, lsl r5
    1748:	01c80100 	biceq	r0, r8, r0, lsl #2
    174c:	00002c02 	andeq	r2, r0, r2, lsl #24
    1750:	521b0800 	andspl	r0, fp, #0, 16
    1754:	01000004 	tsteq	r0, r4
    1758:	2c0201c8 	stfcss	f0, [r2], {200}	; 0xc8
    175c:	1f000000 	svcne	0x00000000
    1760:	0003741b 	andeq	r7, r3, fp, lsl r4
    1764:	01c80100 	biceq	r0, r8, r0, lsl #2
    1768:	00002c02 	andeq	r2, r0, r2, lsl #24
    176c:	16000100 	strne	r0, [r0], -r0, lsl #2
    1770:	000086c0 	andeq	r8, r0, r0, asr #13
    1774:	00000000 	andeq	r0, r0, r0
    1778:	00000862 	andeq	r0, r0, r2, ror #16
    177c:	00755f17 	rsbseq	r5, r5, r7, lsl pc
    1780:	01c90104 	biceq	r0, r9, r4, lsl #2
    1784:	00082c02 	andeq	r2, r8, r2, lsl #24
    1788:	00731800 	rsbseq	r1, r3, r0, lsl #16
    178c:	0201c901 	andeq	ip, r1, #16384	; 0x4000
    1790:	0000029e 	muleq	r0, lr, r2
    1794:	01007518 	tsteq	r0, r8, lsl r5
    1798:	2c0201c9 	stfcss	f0, [r2], {201}	; 0xc9
    179c:	00000000 	andeq	r0, r0, r0
    17a0:	01007819 	tsteq	r0, r9, lsl r8
    17a4:	080201c9 	stmdaeq	r2, {r0, r3, r6, r7, r8}
    17a8:	1a000008 	bne	17d0 <__code_start__-0x6830>
    17ac:	00707865 	rsbseq	r7, r0, r5, ror #16
    17b0:	0201c901 	andeq	ip, r1, #16384	; 0x4000
    17b4:	0000002c 	andeq	r0, r0, ip, lsr #32
    17b8:	04521b10 	ldrbeq	r1, [r2], #-2832	; 0xfffff4f0
    17bc:	c9010000 	stmdbgt	r1, {}	; <UNPREDICTABLE>
    17c0:	002c0201 	eoreq	r0, ip, r1, lsl #4
    17c4:	1b1f0000 	blne	7c17cc <__bss_end__+0x7b6c1c>
    17c8:	00000374 	andeq	r0, r0, r4, ror r3
    17cc:	0201c901 	andeq	ip, r1, #16384	; 0x4000
    17d0:	0000002c 	andeq	r0, r0, ip, lsr #32
    17d4:	c0160001 	andsgt	r0, r6, r1
    17d8:	00000086 	andeq	r0, r0, r6, lsl #1
    17dc:	c9000000 	stmdbgt	r0, {}	; <UNPREDICTABLE>
    17e0:	17000008 	strne	r0, [r0, -r8]
    17e4:	0400755f 	streq	r7, [r0], #-1375	; 0xfffffaa1
    17e8:	0201ca01 	andeq	ip, r1, #4096	; 0x1000
    17ec:	00000893 	muleq	r0, r3, r8
    17f0:	01007318 	tsteq	r0, r8, lsl r3
    17f4:	9e0201ca 	adflsdm	f0, f2, #2.0
    17f8:	18000002 	stmdane	r0, {r1}
    17fc:	ca010075 	bgt	419d8 <__bss_end__+0x36e28>
    1800:	002c0201 	eoreq	r0, ip, r1, lsl #4
    1804:	19000000 	stmdbne	r0, {}	; <UNPREDICTABLE>
    1808:	ca010078 	bgt	419f0 <__bss_end__+0x36e40>
    180c:	086f0201 	stmdaeq	pc!, {r0, r9}^	; <UNPREDICTABLE>
    1810:	651a0000 	ldrvs	r0, [sl, #-0]
    1814:	01007078 	tsteq	r0, r8, ror r0
    1818:	2c0201ca 	stfcss	f0, [r2], {202}	; 0xca
    181c:	20000000 	andcs	r0, r0, r0
    1820:	0004521b 	andeq	r5, r4, fp, lsl r2
    1824:	01ca0100 	biceq	r0, sl, r0, lsl #2
    1828:	00002c02 	andeq	r2, r0, r2, lsl #24
    182c:	741b1f00 	ldrvc	r1, [fp], #-3840	; 0xfffff100
    1830:	01000003 	tsteq	r0, r3
    1834:	2c0201ca 	stfcss	f0, [r2], {202}	; 0xca
    1838:	01000000 	mrseq	r0, (UNDEF: 0)
    183c:	86c01600 	strbhi	r1, [r0], r0, lsl #12
    1840:	00000000 	andeq	r0, r0, r0
    1844:	09300000 	ldmdbeq	r0!, {}	; <UNPREDICTABLE>
    1848:	5f170000 	svcpl	0x00170000
    184c:	01040075 	tsteq	r4, r5, ror r0
    1850:	fa0201cb 	blx	81f84 <__bss_end__+0x773d4>
    1854:	18000008 	stmdane	r0, {r3}
    1858:	cb010073 	blgt	41a2c <__bss_end__+0x36e7c>
    185c:	029e0201 	addseq	r0, lr, #268435456	; 0x10000000
    1860:	75180000 	ldrvc	r0, [r8, #-0]
    1864:	01cb0100 	biceq	r0, fp, r0, lsl #2
    1868:	00002c02 	andeq	r2, r0, r2, lsl #24
    186c:	78190000 	ldmdavc	r9, {}	; <UNPREDICTABLE>
    1870:	01cb0100 	biceq	r0, fp, r0, lsl #2
    1874:	0008d602 	andeq	sp, r8, r2, lsl #12
    1878:	78651a00 	stmdavc	r5!, {r9, fp, ip}^
    187c:	cb010070 	blgt	41a44 <__bss_end__+0x36e94>
    1880:	002c0201 	eoreq	r0, ip, r1, lsl #4
    1884:	1b400000 	blne	100188c <__bss_end__+0xff6cdc>
    1888:	00000452 	andeq	r0, r0, r2, asr r4
    188c:	0201cb01 	andeq	ip, r1, #1024	; 0x400
    1890:	0000002c 	andeq	r0, r0, ip, lsr #32
    1894:	03741b1f 	cmneq	r4, #31744	; 0x7c00
    1898:	cb010000 	blgt	418a0 <__bss_end__+0x36cf0>
    189c:	002c0201 	eoreq	r0, ip, r1, lsl #4
    18a0:	00010000 	andeq	r0, r1, r0
    18a4:	0086c016 	addeq	ip, r6, r6, lsl r0
    18a8:	00000000 	andeq	r0, r0, r0
    18ac:	00099700 	andeq	r9, r9, r0, lsl #14
    18b0:	755f1700 	ldrbvc	r1, [pc, #-1792]	; 11b8 <__code_start__-0x6e48>
    18b4:	cc010400 	cfstrsgt	mvf0, [r1], {-0}
    18b8:	09610201 	stmdbeq	r1!, {r0, r9}^
    18bc:	73180000 	tstvc	r8, #0, 0
    18c0:	01cc0100 	biceq	r0, ip, r0, lsl #2
    18c4:	00029e02 	andeq	r9, r2, r2, lsl #28
    18c8:	00751800 	rsbseq	r1, r5, r0, lsl #16
    18cc:	0201cc01 	andeq	ip, r1, #256	; 0x100
    18d0:	0000002c 	andeq	r0, r0, ip, lsr #32
    18d4:	00781900 	rsbseq	r1, r8, r0, lsl #18
    18d8:	0201cc01 	andeq	ip, r1, #256	; 0x100
    18dc:	0000093d 	andeq	r0, r0, sp, lsr r9
    18e0:	7078651a 	rsbsvc	r6, r8, sl, lsl r5
    18e4:	01cc0100 	biceq	r0, ip, r0, lsl #2
    18e8:	00002c02 	andeq	r2, r0, r2, lsl #24
    18ec:	521b8000 	andspl	r8, fp, #0, 0
    18f0:	01000004 	tsteq	r0, r4
    18f4:	2c0201cc 	stfcss	f0, [r2], {204}	; 0xcc
    18f8:	1f000000 	svcne	0x00000000
    18fc:	0003741b 	andeq	r7, r3, fp, lsl r4
    1900:	01cc0100 	biceq	r0, ip, r0, lsl #2
    1904:	00002c02 	andeq	r2, r0, r2, lsl #24
    1908:	16000100 	strne	r0, [r0], -r0, lsl #2
    190c:	000086c0 	andeq	r8, r0, r0, asr #13
    1910:	00000000 	andeq	r0, r0, r0
    1914:	000009ff 	strdeq	r0, [r0], -pc	; <UNPREDICTABLE>
    1918:	00755f17 	rsbseq	r5, r5, r7, lsl pc
    191c:	01cd0104 	biceq	r0, sp, r4, lsl #2
    1920:	0009c802 	andeq	ip, r9, r2, lsl #16
    1924:	00731800 	rsbseq	r1, r3, r0, lsl #16
    1928:	0201cd01 	andeq	ip, r1, #64	; 0x40
    192c:	0000029e 	muleq	r0, lr, r2
    1930:	01007518 	tsteq	r0, r8, lsl r5
    1934:	2c0201cd 	stfcss	f0, [r2], {205}	; 0xcd
    1938:	00000000 	andeq	r0, r0, r0
    193c:	01007819 	tsteq	r0, r9, lsl r8
    1940:	a40201cd 	strge	r0, [r2], #-461	; 0xfffffe33
    1944:	1e000009 	cdpne	0, 0, cr0, cr0, cr9, {0}
    1948:	00707865 	rsbseq	r7, r0, r5, ror #16
    194c:	0201cd01 	andeq	ip, r1, #64	; 0x40
    1950:	0000002c 	andeq	r0, r0, ip, lsr #32
    1954:	521b0100 	andspl	r0, fp, #0
    1958:	01000004 	tsteq	r0, r4
    195c:	2c0201cd 	stfcss	f0, [r2], {205}	; 0xcd
    1960:	1f000000 	svcne	0x00000000
    1964:	0003741b 	andeq	r7, r3, fp, lsl r4
    1968:	01cd0100 	biceq	r0, sp, r0, lsl #2
    196c:	00002c02 	andeq	r2, r0, r2, lsl #24
    1970:	1f000100 	svcne	0x00000100
    1974:	000086c0 	andeq	r8, r0, r0, asr #13
    1978:	00000000 	andeq	r0, r0, r0
    197c:	00755f17 	rsbseq	r5, r5, r7, lsl pc
    1980:	01ce0104 	biceq	r0, lr, r4, lsl #2
    1984:	000a2c02 	andeq	r2, sl, r2, lsl #24
    1988:	00731800 	rsbseq	r1, r3, r0, lsl #16
    198c:	0201ce01 	andeq	ip, r1, #1, 28
    1990:	0000029e 	muleq	r0, lr, r2
    1994:	01007518 	tsteq	r0, r8, lsl r5
    1998:	2c0201ce 	stfcss	f0, [r2], {206}	; 0xce
    199c:	00000000 	andeq	r0, r0, r0
    19a0:	01007819 	tsteq	r0, r9, lsl r8
    19a4:	080201ce 	stmdaeq	r2, {r1, r2, r3, r6, r7, r8}
    19a8:	1e00000a 	cdpne	0, 0, cr0, cr0, cr10, {0}
    19ac:	00707865 	rsbseq	r7, r0, r5, ror #16
    19b0:	0201ce01 	andeq	ip, r1, #1, 28
    19b4:	0000002c 	andeq	r0, r0, ip, lsr #32
    19b8:	52200200 	eorpl	r0, r0, #0, 4
    19bc:	01000004 	tsteq	r0, r4
    19c0:	2c0201ce 	stfcss	f0, [r2], {206}	; 0xce
    19c4:	20000000 	andcs	r0, r0, r0
    19c8:	00000374 	andeq	r0, r0, r4, ror r3
    19cc:	0201ce01 	andeq	ip, r1, #1, 28
    19d0:	0000002c 	andeq	r0, r0, ip, lsr #32
    19d4:	c5210000 	strgt	r0, [r1, #-0]!
    19d8:	72000000 	andvc	r0, r0, #0, 0
    19dc:	2200000a 	andcs	r0, r0, #10, 0
    19e0:	0000002c 	andeq	r0, r0, ip, lsr #32
    19e4:	6204000c 	andvs	r0, r4, #12, 0
    19e8:	2300000a 	movwcs	r0, #10
    19ec:	00000000 	andeq	r0, r0, r0
    19f0:	06018d01 	streq	r8, [r1], -r1, lsl #26
    19f4:	00008eb4 			; <UNDEFINED> instruction: 0x00008eb4
    19f8:	000000a4 	andeq	r0, r0, r4, lsr #1
    19fc:	0c059c01 	stceq	12, cr9, [r5], {1}
    1a00:	531a0000 	tstpl	sl, #0, 0
    1a04:	01004144 	tsteq	r0, r4, asr #2
    1a08:	33120195 	tstcc	r2, #1073741861	; 0x40000025
    1a0c:	02000000 	andeq	r0, r0, #0, 0
    1a10:	4c43531a 	mcrrmi	3, 1, r5, r3, cr10
    1a14:	01960100 	orrseq	r0, r6, r0, lsl #2
    1a18:	00003312 	andeq	r3, r0, r2, lsl r3
    1a1c:	63190300 	tstvs	r9, #0, 6
    1a20:	019f0100 	orrseq	r0, pc, r0, lsl #2
    1a24:	0001d40e 	andeq	sp, r1, lr, lsl #8
    1a28:	01221500 			; <UNDEFINED> instruction: 0x01221500
    1a2c:	0c150000 	ldceq	0, cr0, [r5], {-0}
    1a30:	03050000 	movweq	r0, #20480	; 0x5000
    1a34:	0000a604 	andeq	sl, r0, r4, lsl #12
    1a38:	008ee016 	addeq	lr, lr, r6, lsl r0
    1a3c:	00000000 	andeq	r0, r0, r0
    1a40:	000b0100 	andeq	r0, fp, r0, lsl #2
    1a44:	755f1700 	ldrbvc	r1, [pc, #-1792]	; 134c <__code_start__-0x6cb4>
    1a48:	9f010400 	svcls	0x00010400
    1a4c:	0af51201 	beq	ffd46258 <__bss_end__+0xffd3b6a8>
    1a50:	76180000 	ldrvc	r0, [r8], -r0
    1a54:	019f0100 	orrseq	r0, pc, r0, lsl #2
    1a58:	0001d412 	andeq	sp, r1, r2, lsl r4
    1a5c:	00751800 	rsbseq	r1, r5, r0, lsl #16
    1a60:	12019f01 	andne	r9, r1, #1, 30
    1a64:	0000002c 	andeq	r0, r0, ip, lsr #32
    1a68:	00751900 	rsbseq	r1, r5, r0, lsl #18
    1a6c:	12019f01 	andne	r9, r1, #1, 30
    1a70:	00000ad1 	ldrdeq	r0, [r0], -r1
    1a74:	8ee41600 	cdphi	6, 14, cr1, cr4, cr0, {0}
    1a78:	00000000 	andeq	r0, r0, r0
    1a7c:	0b400000 	bleq	1001a84 <__bss_end__+0xff6ed4>
    1a80:	5f170000 	svcpl	0x00170000
    1a84:	01040075 	tsteq	r4, r5, ror r0
    1a88:	340301a1 	strcc	r0, [r3], #-417	; 0xfffffe5f
    1a8c:	1800000b 	stmdane	r0, {r0, r1, r3}
    1a90:	01007676 	tsteq	r0, r6, ror r6
    1a94:	d40301a1 	strle	r0, [r3], #-417	; 0xfffffe5f
    1a98:	18000001 	stmdane	r0, {r0}
    1a9c:	01007575 	tsteq	r0, r5, ror r5
    1aa0:	6e0301a1 	adfvsdp	f0, f3, f1
    1aa4:	00000000 	andeq	r0, r0, r0
    1aa8:	01007519 	tsteq	r0, r9, lsl r5
    1aac:	0e0301a1 	adfeqdp	f0, f3, f1
    1ab0:	0000000b 	andeq	r0, r0, fp
    1ab4:	008ec024 	addeq	ip, lr, r4, lsr #32
    1ab8:	00035b00 	andeq	r5, r3, r0, lsl #22
    1abc:	8ec42400 	cdphi	4, 12, cr2, cr4, cr0, {0}
    1ac0:	199b0000 	ldmibne	fp, {}	; <UNPREDICTABLE>
    1ac4:	d0250000 	eorle	r0, r5, r0
    1ac8:	a700008e 	strge	r0, [r0, -lr, lsl #1]
    1acc:	6a000019 	bvs	1b38 <__code_start__-0x64c8>
    1ad0:	2600000b 	strcs	r0, [r0], -fp
    1ad4:	32015001 	andcc	r5, r1, #1, 0
    1ad8:	01510126 	cmpeq	r1, r6, lsr #2
    1adc:	dc250034 	stcle	0, cr0, [r5], #-208	; 0xffffff30
    1ae0:	a700008e 	strge	r0, [r0, -lr, lsl #1]
    1ae4:	82000019 	andhi	r0, r0, #25, 0
    1ae8:	2600000b 	strcs	r0, [r0], -fp
    1aec:	33015001 	movwcc	r5, #4097	; 0x1001
    1af0:	01510126 	cmpeq	r1, r6, lsr #2
    1af4:	e0240034 	eor	r0, r4, r4, lsr r0
    1af8:	9b00008e 	blls	1d38 <__code_start__-0x62c8>
    1afc:	25000019 	strcs	r0, [r0, #-25]	; 0xffffffe7
    1b00:	00008ef0 	strdeq	r8, [r0], -r0
    1b04:	000019b3 			; <UNDEFINED> instruction: 0x000019b3
    1b08:	00000ba6 	andeq	r0, r0, r6, lsr #23
    1b0c:	02500126 	subseq	r0, r0, #-2147483639	; 0x80000009
    1b10:	01260074 			; <UNDEFINED> instruction: 0x01260074
    1b14:	000a0351 	andeq	r0, sl, r1, asr r3
    1b18:	f4240080 	vld4.32	{d0-d3}, [r4], r0
    1b1c:	9b00008e 	blls	1d5c <__code_start__-0x62a4>
    1b20:	24000019 	strcs	r0, [r0], #-25	; 0xffffffe7
    1b24:	00008ef8 	strdeq	r8, [r0], -r8	; <UNPREDICTABLE>
    1b28:	000017b5 			; <UNDEFINED> instruction: 0x000017b5
    1b2c:	008efc24 	addeq	pc, lr, r4, lsr #24
    1b30:	00199b00 	andseq	r9, r9, r0, lsl #22
    1b34:	8f382500 	svchi	0x00382500
    1b38:	19bf0000 	ldmibne	pc!, {}	; <UNPREDICTABLE>
    1b3c:	0bfb0000 	bleq	ffec1b44 <__bss_end__+0xffeb6f94>
    1b40:	01260000 			; <UNDEFINED> instruction: 0x01260000
    1b44:	b8030550 	stmdalt	r3, {r4, r6, r8, sl}
    1b48:	260000a2 	strcs	r0, [r0], -r2, lsr #1
    1b4c:	03055101 	movweq	r5, #20737	; 0x5101
    1b50:	0000a350 	andeq	sl, r0, r0, asr r3
    1b54:	05520126 	ldrbeq	r0, [r2, #-294]	; 0xfffffeda
    1b58:	00a60403 	adceq	r0, r6, r3, lsl #8
    1b5c:	53012600 	movwpl	r2, #5632	; 0x1600
    1b60:	01aa0a03 			; <UNDEFINED> instruction: 0x01aa0a03
    1b64:	007d0226 	rsbseq	r0, sp, r6, lsr #4
    1b68:	a49c0305 	ldrge	r0, [ip], #773	; 0x305
    1b6c:	24000000 	strcs	r0, [r0], #-0
    1b70:	00008f3c 	andeq	r8, r0, ip, lsr pc
    1b74:	000019cb 	andeq	r1, r0, fp, asr #19
    1b78:	00c52100 	sbceq	r2, r5, r0, lsl #2
    1b7c:	0c150000 	ldceq	0, cr0, [r5], {-0}
    1b80:	2c220000 	stccs	0, cr0, [r2], #-0
    1b84:	08000000 	stmdaeq	r0, {}	; <UNPREDICTABLE>
    1b88:	0c050400 	cfstrseq	mvf0, [r5], {-0}
    1b8c:	33230000 			; <UNDEFINED> instruction: 0x33230000
    1b90:	01000005 	tsteq	r0, r5
    1b94:	58060183 	stmdapl	r6, {r0, r1, r7, r8}
    1b98:	1800008f 	stmdane	r0, {r0, r1, r2, r3, r7}
    1b9c:	01000000 	mrseq	r0, (UNDEF: 0)
    1ba0:	000c449c 	muleq	ip, ip, r4
    1ba4:	8f602400 	svchi	0x00602400
    1ba8:	0c440000 	mareq	acc0, r0, r4
    1bac:	6c240000 	stcvs	0, cr0, [r4], #-0
    1bb0:	7700008f 	strvc	r0, [r0, -pc, lsl #1]
    1bb4:	0000000a 	andeq	r0, r0, sl
    1bb8:	0004f127 	andeq	pc, r4, r7, lsr #2
    1bbc:	01800100 	orreq	r0, r0, r0, lsl #2
    1bc0:	00002505 	andeq	r2, r0, r5, lsl #10
    1bc4:	008ea400 	addeq	sl, lr, r0, lsl #8
    1bc8:	00001000 	andeq	r1, r0, r0
    1bcc:	289c0100 	ldmcs	ip, {r8}
    1bd0:	000004b1 			; <UNDEFINED> instruction: 0x000004b1
    1bd4:	09016201 	stmdbeq	r1, {r0, r9, sp, lr}
    1bd8:	00000054 	andeq	r0, r0, r4, asr r0
    1bdc:	00008cec 	andeq	r8, r0, ip, ror #25
    1be0:	000001b8 			; <UNDEFINED> instruction: 0x000001b8
    1be4:	0e809c01 	cdpeq	12, 8, cr9, cr0, cr1, {0}
    1be8:	72290000 	eorvc	r0, r9, #0, 0
    1bec:	01006765 	tsteq	r0, r5, ror #14
    1bf0:	54230162 	strtpl	r0, [r3], #-354	; 0xfffffe9e
    1bf4:	49000000 	stmdbmi	r0, {}	; <UNPREDICTABLE>
    1bf8:	45000009 	strmi	r0, [r0, #-9]
    1bfc:	29000009 	stmdbcs	r0, {r0, r3}
    1c00:	62010076 	andvs	r0, r1, #118, 0	; 0x76
    1c04:	00543001 	subseq	r3, r4, r1
    1c08:	096e0000 	stmdbeq	lr!, {}^	; <UNPREDICTABLE>
    1c0c:	096a0000 	stmdbeq	sl!, {}^	; <UNPREDICTABLE>
    1c10:	22150000 	andscs	r0, r5, #0, 0
    1c14:	90000001 	andls	r0, r0, r1
    1c18:	0500000e 	streq	r0, [r0, #-14]
    1c1c:	00a5f003 	adceq	pc, r5, r3
    1c20:	00182a00 	andseq	r2, r8, r0, lsl #20
    1c24:	0e460000 	cdpeq	0, 4, cr0, cr6, cr0, {0}
    1c28:	be2b0000 	cdplt	0, 2, cr0, cr11, cr0, {0}
    1c2c:	01000004 	tsteq	r0, r4
    1c30:	2c120163 	ldfcss	f0, [r2], {99}	; 0x63
    1c34:	93000000 	movwls	r0, #0
    1c38:	8f000009 	svchi	0x00000009
    1c3c:	25000009 	strcs	r0, [r0, #-9]
    1c40:	00008d14 	andeq	r8, r0, r4, lsl sp
    1c44:	00000e95 	muleq	r0, r5, lr
    1c48:	00000ce9 	andeq	r0, r0, r9, ror #25
    1c4c:	02500126 	subseq	r0, r0, #-2147483639	; 0x80000009
    1c50:	01260074 			; <UNDEFINED> instruction: 0x01260074
    1c54:	26310151 			; <UNDEFINED> instruction: 0x26310151
    1c58:	31015201 	tstcc	r1, r1, lsl #4
    1c5c:	8d582500 	cfldr64hi	mvdx2, [r8, #-0]
    1c60:	19bf0000 	ldmibne	pc!, {}	; <UNPREDICTABLE>
    1c64:	0d190000 	ldceq	0, cr0, [r9, #-0]
    1c68:	01260000 			; <UNDEFINED> instruction: 0x01260000
    1c6c:	6c030550 	cfstr32vs	mvfx0, [r3], {80}	; 0x50
    1c70:	260000a4 	strcs	r0, [r0], -r4, lsr #1
    1c74:	03055101 	movweq	r5, #20737	; 0x5101
    1c78:	0000a350 	andeq	sl, r0, r0, asr r3
    1c7c:	05520126 	ldrbeq	r0, [r2, #-294]	; 0xfffffeda
    1c80:	00a5f003 	adceq	pc, r5, r3
    1c84:	53012600 	movwpl	r2, #5632	; 0x1600
    1c88:	01670a03 	cmneq	r7, r3, lsl #20
    1c8c:	8d5c2400 	cfldrdhi	mvd2, [ip, #-0]
    1c90:	19cb0000 	stmibne	fp, {}^	; <UNPREDICTABLE>
    1c94:	70250000 	eorvc	r0, r5, r0
    1c98:	bf00008d 	svclt	0x0000008d
    1c9c:	52000019 	andpl	r0, r0, #25, 0
    1ca0:	2600000d 	strcs	r0, [r0], -sp
    1ca4:	03055001 	movweq	r5, #20481	; 0x5001
    1ca8:	0000a448 	andeq	sl, r0, r8, asr #8
    1cac:	05510126 	ldrbeq	r0, [r1, #-294]	; 0xfffffeda
    1cb0:	00a35003 	adceq	r5, r3, r3
    1cb4:	52012600 	andpl	r2, r1, #0, 12
    1cb8:	a5f00305 	ldrbge	r0, [r0, #773]!	; 0x305
    1cbc:	01260000 			; <UNDEFINED> instruction: 0x01260000
    1cc0:	670a0353 	smlsdvs	sl, r3, r3, r0
    1cc4:	74240001 	strtvc	r0, [r4], #-1
    1cc8:	cb00008d 	blgt	1f04 <__code_start__-0x60fc>
    1ccc:	25000019 	strcs	r0, [r0, #-25]	; 0xffffffe7
    1cd0:	00008dc0 	andeq	r8, r0, r0, asr #27
    1cd4:	000019bf 			; <UNDEFINED> instruction: 0x000019bf
    1cd8:	00000d8b 	andeq	r0, r0, fp, lsl #27
    1cdc:	05500126 	ldrbeq	r0, [r0, #-294]	; 0xfffffeda
    1ce0:	00a46c03 	adceq	r6, r4, r3, lsl #24
    1ce4:	51012600 	tstpl	r1, r0, lsl #12
    1ce8:	a3500305 	cmpge	r0, #335544320	; 0x14000000
    1cec:	01260000 			; <UNDEFINED> instruction: 0x01260000
    1cf0:	f0030552 			; <UNDEFINED> instruction: 0xf0030552
    1cf4:	260000a5 	strcs	r0, [r0], -r5, lsr #1
    1cf8:	0a035301 	beq	d6904 <__bss_end__+0xcbd54>
    1cfc:	24000169 	strcs	r0, [r0], #-361	; 0xfffffe97
    1d00:	00008dc4 	andeq	r8, r0, r4, asr #27
    1d04:	000019cb 	andeq	r1, r0, fp, asr #19
    1d08:	008dd825 	addeq	sp, sp, r5, lsr #16
    1d0c:	0019bf00 	andseq	fp, r9, r0, lsl #30
    1d10:	000dc400 	andeq	ip, sp, r0, lsl #8
    1d14:	50012600 	andpl	r2, r1, r0, lsl #12
    1d18:	a4480305 	strbge	r0, [r8], #-773	; 0xfffffcfb
    1d1c:	01260000 			; <UNDEFINED> instruction: 0x01260000
    1d20:	50030551 	andpl	r0, r3, r1, asr r5
    1d24:	260000a3 	strcs	r0, [r0], -r3, lsr #1
    1d28:	03055201 	movweq	r5, #20993	; 0x5201
    1d2c:	0000a5f0 	strdeq	sl, [r0], -r0
    1d30:	03530126 	cmpeq	r3, #-2147483639	; 0x80000009
    1d34:	0001690a 	andeq	r6, r1, sl, lsl #18
    1d38:	008ddc24 	addeq	sp, sp, r4, lsr #24
    1d3c:	0019cb00 	andseq	ip, r9, r0, lsl #22
    1d40:	8e282500 	cfsh64hi	mvdx2, mvdx8, #0
    1d44:	19bf0000 	ldmibne	pc!, {}	; <UNPREDICTABLE>
    1d48:	0dfd0000 	ldcleq	0, cr0, [sp]
    1d4c:	01260000 			; <UNDEFINED> instruction: 0x01260000
    1d50:	50030550 	andpl	r0, r3, r0, asr r5
    1d54:	260000a5 	strcs	r0, [r0], -r5, lsr #1
    1d58:	03055101 	movweq	r5, #20737	; 0x5101
    1d5c:	0000a350 	andeq	sl, r0, r0, asr r3
    1d60:	05520126 	ldrbeq	r0, [r2, #-294]	; 0xfffffeda
    1d64:	00a5f003 	adceq	pc, r5, r3
    1d68:	53012600 	movwpl	r2, #5632	; 0x1600
    1d6c:	01770a03 	cmneq	r7, r3, lsl #20
    1d70:	8e2c2400 	cdphi	4, 2, cr2, cr12, cr0, {0}
    1d74:	19cb0000 	stmibne	fp, {}^	; <UNPREDICTABLE>
    1d78:	38250000 	stmdacc	r5!, {}	; <UNPREDICTABLE>
    1d7c:	bf00008e 	svclt	0x0000008e
    1d80:	23000019 	movwcs	r0, #25
    1d84:	2600000e 	strcs	r0, [r0], -lr
    1d88:	03055001 	movweq	r5, #20481	; 0x5001
    1d8c:	0000a508 	andeq	sl, r0, r8, lsl #10
    1d90:	02510126 	subseq	r0, r1, #-2147483639	; 0x80000009
    1d94:	24000074 	strcs	r0, [r0], #-116	; 0xffffff8c
    1d98:	00008e3c 	andeq	r8, r0, ip, lsr lr
    1d9c:	000013a7 	andeq	r1, r0, r7, lsr #7
    1da0:	008e502c 	addeq	r5, lr, ip, lsr #32
    1da4:	0019bf00 	andseq	fp, r9, r0, lsl #30
    1da8:	50012600 	andpl	r2, r1, r0, lsl #12
    1dac:	a5340305 	ldrge	r0, [r4, #-773]!	; 0xfffffcfb
    1db0:	01260000 			; <UNDEFINED> instruction: 0x01260000
    1db4:	00740251 	rsbseq	r0, r4, r1, asr r2
    1db8:	6c250000 	stcvs	0, cr0, [r5], #-0
    1dbc:	bf00008e 	svclt	0x0000008e
    1dc0:	76000019 			; <UNDEFINED> instruction: 0x76000019
    1dc4:	2600000e 	strcs	r0, [r0], -lr
    1dc8:	03055001 	movweq	r5, #20481	; 0x5001
    1dcc:	0000a580 	andeq	sl, r0, r0, lsl #11
    1dd0:	05510126 	ldrbeq	r0, [r1, #-294]	; 0xfffffeda
    1dd4:	00a35003 	adceq	r5, r3, r3
    1dd8:	52012600 	andpl	r2, r1, #0, 12
    1ddc:	a5f00305 	ldrbge	r0, [r0, #773]!	; 0x305
    1de0:	01260000 			; <UNDEFINED> instruction: 0x01260000
    1de4:	7a0a0353 	bvc	282b38 <__bss_end__+0x277f88>
    1de8:	70240001 	eorvc	r0, r4, r1
    1dec:	cb00008e 	blgt	202c <__code_start__-0x5fd4>
    1df0:	00000019 	andeq	r0, r0, r9, lsl r0
    1df4:	0000c521 	andeq	ip, r0, r1, lsr #10
    1df8:	000e9000 	andeq	r9, lr, r0
    1dfc:	002c2200 	eoreq	r2, ip, r0, lsl #4
    1e00:	00110000 	andseq	r0, r1, r0
    1e04:	000e8004 	andeq	r8, lr, r4
    1e08:	042c1400 	strteq	r1, [ip], #-1024	; 0xfffffc00
    1e0c:	44010000 	strmi	r0, [r1], #-0
    1e10:	89dc0d01 	ldmibhi	ip, {r0, r8, sl, fp}^
    1e14:	019c0000 	orrseq	r0, ip, r0
    1e18:	9c010000 	stcls	0, cr0, [r1], {-0}
    1e1c:	0000112b 	andeq	r1, r0, fp, lsr #2
    1e20:	0004be2d 	andeq	fp, r4, sp, lsr #28
    1e24:	01440100 	mrseq	r0, (UNDEF: 84)
    1e28:	00002c26 	andeq	r2, r0, r6, lsr #24
    1e2c:	0009b800 	andeq	fp, r9, r0, lsl #16
    1e30:	0009b200 	andeq	fp, r9, r0, lsl #4
    1e34:	04e32d00 	strbteq	r2, [r3], #3328	; 0xd00
    1e38:	44010000 	strmi	r0, [r1], #-0
    1e3c:	002c3501 	eoreq	r3, ip, r1, lsl #10
    1e40:	09ee0000 	stmibeq	lr!, {}^	; <UNPREDICTABLE>
    1e44:	09e40000 	stmibeq	r4!, {}^	; <UNPREDICTABLE>
    1e48:	042d0000 	strteq	r0, [sp], #-0
    1e4c:	01000005 	tsteq	r0, r5
    1e50:	25410144 	strbcs	r0, [r1, #-324]	; 0xfffffebc
    1e54:	39000000 	stmdbcc	r0, {}	; <UNPREDICTABLE>
    1e58:	3300000a 	movwcc	r0, #10
    1e5c:	1500000a 	strne	r0, [r0, #-10]
    1e60:	00000122 	andeq	r0, r0, r2, lsr #2
    1e64:	0000113b 	andeq	r1, r0, fp, lsr r1
    1e68:	a5c80305 	strbge	r0, [r8, #773]	; 0x305
    1e6c:	631d0000 	tstvs	sp, #0, 0
    1e70:	01570100 	cmpeq	r7, r0, lsl #2
    1e74:	0001d40d 	andeq	sp, r1, sp, lsl #8
    1e78:	000a6700 	andeq	r6, sl, r0, lsl #14
    1e7c:	000a6500 	andeq	r6, sl, r0, lsl #10
    1e80:	8a981600 	bhi	fe607688 <__bss_end__+0xfe5fcad8>
    1e84:	00000000 	andeq	r0, r0, r0
    1e88:	0f4c0000 	svceq	0x004c0000
    1e8c:	5f170000 	svcpl	0x00170000
    1e90:	01040075 	tsteq	r4, r5, ror r0
    1e94:	4002015b 	andmi	r0, r2, fp, asr r1
    1e98:	1800000f 	stmdane	r0, {r0, r1, r2, r3}
    1e9c:	01007676 	tsteq	r0, r6, ror r6
    1ea0:	d402015b 	strle	r0, [r2], #-347	; 0xfffffea5
    1ea4:	18000001 	stmdane	r0, {r0}
    1ea8:	01007575 	tsteq	r0, r5, ror r5
    1eac:	6e02015b 	mcrvs	1, 0, r0, cr2, cr11, {2}
    1eb0:	00000000 	andeq	r0, r0, r0
    1eb4:	01007519 	tsteq	r0, r9, lsl r5
    1eb8:	1a02015b 	bne	8242c <__bss_end__+0x7787c>
    1ebc:	0000000f 	andeq	r0, r0, pc
    1ec0:	0089f424 	addeq	pc, r9, r4, lsr #8
    1ec4:	00199b00 	andseq	r9, r9, r0, lsl #22
    1ec8:	8a382500 	bhi	e0b2d0 <__bss_end__+0xe00720>
    1ecc:	19bf0000 	ldmibne	pc!, {}	; <UNPREDICTABLE>
    1ed0:	0f850000 	svceq	0x00850000
    1ed4:	01260000 			; <UNDEFINED> instruction: 0x01260000
    1ed8:	6c030550 	cfstr32vs	mvfx0, [r3], {80}	; 0x50
    1edc:	260000a4 	strcs	r0, [r0], -r4, lsr #1
    1ee0:	03055101 	movweq	r5, #20737	; 0x5101
    1ee4:	0000a350 	andeq	sl, r0, r0, asr r3
    1ee8:	05520126 	ldrbeq	r0, [r2, #-294]	; 0xfffffeda
    1eec:	00a5c803 	adceq	ip, r5, r3, lsl #16
    1ef0:	53012600 	movwpl	r2, #5632	; 0x1600
    1ef4:	01480a03 	cmpeq	r8, r3, lsl #20
    1ef8:	8a3c2400 	bhi	f0af00 <__bss_end__+0xf00350>
    1efc:	19cb0000 	stmibne	fp, {}^	; <UNPREDICTABLE>
    1f00:	50250000 	eorpl	r0, r5, r0
    1f04:	bf00008a 	svclt	0x0000008a
    1f08:	be000019 	mcrlt	0, 0, r0, cr0, cr9, {0}
    1f0c:	2600000f 	strcs	r0, [r0], -pc
    1f10:	03055001 	movweq	r5, #20481	; 0x5001
    1f14:	0000a448 	andeq	sl, r0, r8, asr #8
    1f18:	05510126 	ldrbeq	r0, [r1, #-294]	; 0xfffffeda
    1f1c:	00a35003 	adceq	r5, r3, r3
    1f20:	52012600 	andpl	r2, r1, #0, 12
    1f24:	a5c80305 	strbge	r0, [r8, #773]	; 0x305
    1f28:	01260000 			; <UNDEFINED> instruction: 0x01260000
    1f2c:	480a0353 	stmdami	sl, {r0, r1, r4, r6, r8, r9}
    1f30:	54240001 	strtpl	r0, [r4], #-1
    1f34:	cb00008a 	blgt	2164 <__code_start__-0x5e9c>
    1f38:	24000019 	strcs	r0, [r0], #-25	; 0xffffffe7
    1f3c:	00008a58 	andeq	r8, r0, r8, asr sl
    1f40:	000017b5 			; <UNDEFINED> instruction: 0x000017b5
    1f44:	008a6c25 	addeq	r6, sl, r5, lsr #24
    1f48:	0019b300 	andseq	fp, r9, r0, lsl #6
    1f4c:	000fed00 	andeq	lr, pc, r0, lsl #26
    1f50:	50012600 	andpl	r2, r1, r0, lsl #12
    1f54:	400c0c05 	andmi	r0, ip, r5, lsl #24
    1f58:	01262080 	smlawbeq	r6, r0, r0, r2
    1f5c:	00760251 	rsbseq	r0, r6, r1, asr r2
    1f60:	8a802500 	bhi	fe00b368 <__bss_end__+0xfe0007b8>
    1f64:	19b30000 	ldmibne	r3!, {}	; <UNPREDICTABLE>
    1f68:	100a0000 	andne	r0, sl, r0
    1f6c:	01260000 			; <UNDEFINED> instruction: 0x01260000
    1f70:	080c0550 	stmdaeq	ip, {r4, r6, r8, sl}
    1f74:	26208040 	strtcs	r8, [r0], -r0, asr #32
    1f78:	75025101 	strvc	r5, [r2, #-257]	; 0xfffffeff
    1f7c:	8c250000 	stchi	0, cr0, [r5], #-0
    1f80:	e800008a 	stmda	r0, {r1, r3, r7}
    1f84:	1e000018 	mcrne	0, 0, r0, cr0, cr8, {0}
    1f88:	26000010 			; <UNDEFINED> instruction: 0x26000010
    1f8c:	75025001 	strvc	r5, [r2, #-1]
    1f90:	a4250000 	strtge	r0, [r5], #-0
    1f94:	b300008a 	movwlt	r0, #138	; 0x8a
    1f98:	32000019 	andcc	r0, r0, #25, 0
    1f9c:	26000010 			; <UNDEFINED> instruction: 0x26000010
    1fa0:	75025001 	strvc	r5, [r2, #-1]
    1fa4:	e8250000 	stmda	r5!, {}	; <UNPREDICTABLE>
    1fa8:	bf00008a 	svclt	0x0000008a
    1fac:	62000019 	andvs	r0, r0, #25, 0
    1fb0:	26000010 			; <UNDEFINED> instruction: 0x26000010
    1fb4:	03055001 	movweq	r5, #20481	; 0x5001
    1fb8:	0000a46c 	andeq	sl, r0, ip, ror #8
    1fbc:	05510126 	ldrbeq	r0, [r1, #-294]	; 0xfffffeda
    1fc0:	00a35003 	adceq	r5, r3, r3
    1fc4:	52012600 	andpl	r2, r1, #0, 12
    1fc8:	a5c80305 	strbge	r0, [r8, #773]	; 0x305
    1fcc:	01260000 			; <UNDEFINED> instruction: 0x01260000
    1fd0:	5e0a0353 	mcrpl	3, 0, r0, cr10, cr3, {2}
    1fd4:	ec240001 	stc	0, cr0, [r4], #-4
    1fd8:	cb00008a 	blgt	2208 <__code_start__-0x5df8>
    1fdc:	25000019 	strcs	r0, [r0, #-25]	; 0xffffffe7
    1fe0:	00008b08 	andeq	r8, r0, r8, lsl #22
    1fe4:	000019bf 			; <UNDEFINED> instruction: 0x000019bf
    1fe8:	000010a5 	andeq	r1, r0, r5, lsr #1
    1fec:	05500126 	ldrbeq	r0, [r0, #-294]	; 0xfffffeda
    1ff0:	00a2b803 	adceq	fp, r2, r3, lsl #16
    1ff4:	51012600 	tstpl	r1, r0, lsl #12
    1ff8:	a3500305 	cmpge	r0, #335544320	; 0x14000000
    1ffc:	01260000 			; <UNDEFINED> instruction: 0x01260000
    2000:	c8030552 	stmdagt	r3, {r1, r4, r6, r8, sl}
    2004:	260000a5 	strcs	r0, [r0], -r5, lsr #1
    2008:	0a035301 	beq	d6c14 <__bss_end__+0xcc064>
    200c:	02260150 	eoreq	r0, r6, #20
    2010:	0305007d 	movweq	r0, #20605	; 0x507d
    2014:	0000a4dc 	ldrdeq	sl, [r0], -ip
    2018:	8b0c2400 	blhi	30b020 <__bss_end__+0x300470>
    201c:	19cb0000 	stmibne	fp, {}^	; <UNPREDICTABLE>
    2020:	28250000 	stmdacs	r5!, {}	; <UNPREDICTABLE>
    2024:	bf00008b 	svclt	0x0000008b
    2028:	e8000019 	stmda	r0, {r0, r3, r4}
    202c:	26000010 			; <UNDEFINED> instruction: 0x26000010
    2030:	03055001 	movweq	r5, #20481	; 0x5001
    2034:	0000a2b8 			; <UNDEFINED> instruction: 0x0000a2b8
    2038:	05510126 	ldrbeq	r0, [r1, #-294]	; 0xfffffeda
    203c:	00a35003 	adceq	r5, r3, r3
    2040:	52012600 	andpl	r2, r1, #0, 12
    2044:	a5c80305 	strbge	r0, [r8, #773]	; 0x305
    2048:	01260000 			; <UNDEFINED> instruction: 0x01260000
    204c:	540a0353 	strpl	r0, [sl], #-851	; 0xfffffcad
    2050:	7d022601 	stcvc	6, cr2, [r2, #-4]
    2054:	f0030500 			; <UNDEFINED> instruction: 0xf0030500
    2058:	000000a4 	andeq	r0, r0, r4, lsr #1
    205c:	008b2c24 	addeq	r2, fp, r4, lsr #24
    2060:	0019cb00 	andseq	ip, r9, r0, lsl #22
    2064:	8b402500 	blhi	100b46c <__bss_end__+0x10008bc>
    2068:	19bf0000 	ldmibne	pc!, {}	; <UNPREDICTABLE>
    206c:	11210000 			; <UNDEFINED> instruction: 0x11210000
    2070:	01260000 			; <UNDEFINED> instruction: 0x01260000
    2074:	48030550 	stmdami	r3, {r4, r6, r8, sl}
    2078:	260000a4 	strcs	r0, [r0], -r4, lsr #1
    207c:	03055101 	movweq	r5, #20737	; 0x5101
    2080:	0000a350 	andeq	sl, r0, r0, asr r3
    2084:	05520126 	ldrbeq	r0, [r2, #-294]	; 0xfffffeda
    2088:	00a5c803 	adceq	ip, r5, r3, lsl #16
    208c:	53012600 	movwpl	r2, #5632	; 0x1600
    2090:	015e0a03 	cmpeq	lr, r3, lsl #20
    2094:	8b442400 	blhi	110b09c <__bss_end__+0x11004ec>
    2098:	19cb0000 	stmibne	fp, {}^	; <UNPREDICTABLE>
    209c:	21000000 	mrscs	r0, (UNDEF: 0)
    20a0:	000000c5 	andeq	r0, r0, r5, asr #1
    20a4:	0000113b 	andeq	r1, r0, fp, lsr r1
    20a8:	00002c22 	andeq	r2, r0, r2, lsr #24
    20ac:	04000f00 	streq	r0, [r0], #-3840	; 0xfffff100
    20b0:	0000112b 	andeq	r1, r0, fp, lsr #2
    20b4:	00036128 	andeq	r6, r3, r8, lsr #2
    20b8:	01340100 	teqeq	r4, r0, lsl #2
    20bc:	00002505 	andeq	r2, r0, r5, lsl #10
    20c0:	008c3000 	addeq	r3, ip, r0
    20c4:	0000bc00 	andeq	fp, r0, r0, lsl #24
    20c8:	669c0100 	ldrvs	r0, [ip], r0, lsl #2
    20cc:	2d000012 	stccs	0, cr0, [r0, #-72]	; 0xffffffb8
    20d0:	000004be 			; <UNDEFINED> instruction: 0x000004be
    20d4:	17013401 	strne	r3, [r1, -r1, lsl #8]
    20d8:	0000002c 	andeq	r0, r0, ip, lsr #32
    20dc:	00000a7e 	andeq	r0, r0, lr, ror sl
    20e0:	00000a7a 	andeq	r0, r0, sl, ror sl
    20e4:	00020b2d 	andeq	r0, r2, sp, lsr #22
    20e8:	01340100 	teqeq	r4, r0, lsl #2
    20ec:	00126625 	andseq	r6, r2, r5, lsr #12
    20f0:	000aa300 	andeq	sl, sl, r0, lsl #6
    20f4:	000a9f00 	andeq	r9, sl, r0, lsl #30
    20f8:	04e32d00 	strbteq	r2, [r3], #3328	; 0xd00
    20fc:	34010000 	strcc	r0, [r1], #-0
    2100:	002c3601 	eoreq	r3, ip, r1, lsl #12
    2104:	0ac50000 	beq	ff14210c <__bss_end__+0xff13755c>
    2108:	0ac10000 	beq	ff042110 <__bss_end__+0xff037560>
    210c:	22150000 	andscs	r0, r5, #0, 0
    2110:	15000001 	strne	r0, [r0, #-1]
    2114:	0500000c 	streq	r0, [r0, #-12]
    2118:	00a5e403 	adceq	lr, r5, r3, lsl #8
    211c:	8c481600 	mcrrhi	6, 0, r1, r8, cr0
    2120:	00800000 	addeq	r0, r0, r0
    2124:	123c0000 	eorsne	r0, ip, #0, 0
    2128:	691d0000 	ldmdbvs	sp, {}	; <UNPREDICTABLE>
    212c:	01380100 	teqeq	r8, r0, lsl #2
    2130:	00002c0f 	andeq	r2, r0, pc, lsl #24
    2134:	000aeb00 	andeq	lr, sl, r0, lsl #22
    2138:	000ae300 	andeq	lr, sl, r0, lsl #6
    213c:	8c642500 	cfstr64hi	mvdx2, [r4], #-0
    2140:	19bf0000 	ldmibne	pc!, {}	; <UNPREDICTABLE>
    2144:	11f90000 	mvnsne	r0, r0
    2148:	01260000 			; <UNDEFINED> instruction: 0x01260000
    214c:	48030550 	stmdami	r3, {r4, r6, r8, sl}
    2150:	260000a4 	strcs	r0, [r0], -r4, lsr #1
    2154:	03055101 	movweq	r5, #20737	; 0x5101
    2158:	0000a350 	andeq	sl, r0, r0, asr r3
    215c:	05520126 	ldrbeq	r0, [r2, #-294]	; 0xfffffeda
    2160:	00a5e403 	adceq	lr, r5, r3, lsl #8
    2164:	53012600 	movwpl	r2, #5632	; 0x1600
    2168:	013a0a03 	teqeq	sl, r3, lsl #20
    216c:	8c682400 	cfstrdhi	mvd2, [r8], #-0
    2170:	19cb0000 	stmibne	fp, {}^	; <UNPREDICTABLE>
    2174:	c4250000 	strtgt	r0, [r5], #-0
    2178:	bf00008c 	svclt	0x0000008c
    217c:	32000019 	andcc	r0, r0, #25, 0
    2180:	26000012 			; <UNDEFINED> instruction: 0x26000012
    2184:	03055001 	movweq	r5, #20481	; 0x5001
    2188:	0000a46c 	andeq	sl, r0, ip, ror #8
    218c:	05510126 	ldrbeq	r0, [r1, #-294]	; 0xfffffeda
    2190:	00a35003 	adceq	r5, r3, r3
    2194:	52012600 	andpl	r2, r1, #0, 12
    2198:	a5e40305 	strbge	r0, [r4, #773]!	; 0x305
    219c:	01260000 			; <UNDEFINED> instruction: 0x01260000
    21a0:	3a0a0353 	bcc	282ef4 <__bss_end__+0x278344>
    21a4:	c8240001 	stmdagt	r4!, {r0}
    21a8:	cb00008c 	blgt	23e0 <__code_start__-0x5c20>
    21ac:	00000019 	andeq	r0, r0, r9, lsl r0
    21b0:	008c4825 	addeq	r4, ip, r5, lsr #16
    21b4:	0014cf00 	andseq	ip, r4, r0, lsl #30
    21b8:	00125c00 	andseq	r5, r2, r0, lsl #24
    21bc:	50012600 	andpl	r2, r1, r0, lsl #12
    21c0:	5001f303 	andpl	pc, r1, r3, lsl #6
    21c4:	02510126 	subseq	r0, r1, #-2147483639	; 0x80000009
    21c8:	01260074 			; <UNDEFINED> instruction: 0x01260074
    21cc:	00310152 	eorseq	r0, r1, r2, asr r1
    21d0:	008ccc24 	addeq	ip, ip, r4, lsr #24
    21d4:	0013a700 	andseq	sl, r3, r0, lsl #14
    21d8:	04090000 	streq	r0, [r9], #-0
    21dc:	00000054 	andeq	r0, r0, r4, asr r0
    21e0:	00004428 	andeq	r4, r0, r8, lsr #8
    21e4:	01230100 			; <UNDEFINED> instruction: 0x01230100
    21e8:	00002505 	andeq	r2, r0, r5, lsl #10
    21ec:	008b7800 	addeq	r7, fp, r0, lsl #16
    21f0:	0000b800 	andeq	fp, r0, r0, lsl #16
    21f4:	929c0100 	addsls	r0, ip, #0
    21f8:	2d000013 	stccs	0, cr0, [r0, #-76]	; 0xffffffb4
    21fc:	000004be 			; <UNDEFINED> instruction: 0x000004be
    2200:	18012301 	stmdane	r1, {r0, r8, r9, sp}
    2204:	0000002c 	andeq	r0, r0, ip, lsr #32
    2208:	00000b24 	andeq	r0, r0, r4, lsr #22
    220c:	00000b20 	andeq	r0, r0, r0, lsr #22
    2210:	00020b2d 	andeq	r0, r2, sp, lsr #22
    2214:	01230100 			; <UNDEFINED> instruction: 0x01230100
    2218:	00126626 	andseq	r6, r2, r6, lsr #12
    221c:	000b4900 	andeq	r4, fp, r0, lsl #18
    2220:	000b4500 	andeq	r4, fp, r0, lsl #10
    2224:	04e32d00 	strbteq	r2, [r3], #3328	; 0xd00
    2228:	23010000 	movwcs	r0, #4096	; 0x1000
    222c:	002c3701 	eoreq	r3, ip, r1, lsl #14
    2230:	0b6b0000 	bleq	1ac2238 <__bss_end__+0x1ab7688>
    2234:	0b670000 	bleq	19c223c <__bss_end__+0x19b768c>
    2238:	22150000 	andscs	r0, r5, #0, 0
    223c:	a2000001 	andge	r0, r0, #1, 0
    2240:	05000013 	streq	r0, [r0, #-19]	; 0xffffffed
    2244:	00a5d803 	adceq	sp, r5, r3, lsl #16
    2248:	8b901600 	blhi	fe407a50 <__bss_end__+0xfe3fcea0>
    224c:	00800000 	addeq	r0, r0, r0
    2250:	13680000 	cmnne	r8, #0, 0
    2254:	691d0000 	ldmdbvs	sp, {}	; <UNPREDICTABLE>
    2258:	01260100 			; <UNDEFINED> instruction: 0x01260100
    225c:	00002c0f 	andeq	r2, r0, pc, lsl #24
    2260:	000b9100 	andeq	r9, fp, r0, lsl #2
    2264:	000b8900 	andeq	r8, fp, r0, lsl #18
    2268:	8bac2500 	blhi	feb0b670 <__bss_end__+0xfeb00ac0>
    226c:	19bf0000 	ldmibne	pc!, {}	; <UNPREDICTABLE>
    2270:	13250000 			; <UNDEFINED> instruction: 0x13250000
    2274:	01260000 			; <UNDEFINED> instruction: 0x01260000
    2278:	48030550 	stmdami	r3, {r4, r6, r8, sl}
    227c:	260000a4 	strcs	r0, [r0], -r4, lsr #1
    2280:	03055101 	movweq	r5, #20737	; 0x5101
    2284:	0000a350 	andeq	sl, r0, r0, asr r3
    2288:	05520126 	ldrbeq	r0, [r2, #-294]	; 0xfffffeda
    228c:	00a5d803 	adceq	sp, r5, r3, lsl #16
    2290:	53012600 	movwpl	r2, #5632	; 0x1600
    2294:	01280a03 			; <UNDEFINED> instruction: 0x01280a03
    2298:	8bb02400 	blhi	fec0b2a0 <__bss_end__+0xfec006f0>
    229c:	19cb0000 	stmibne	fp, {}^	; <UNPREDICTABLE>
    22a0:	0c250000 	stceq	0, cr0, [r5], #-0
    22a4:	bf00008c 	svclt	0x0000008c
    22a8:	5e000019 	mcrpl	0, 0, r0, cr0, cr9, {0}
    22ac:	26000013 			; <UNDEFINED> instruction: 0x26000013
    22b0:	03055001 	movweq	r5, #20481	; 0x5001
    22b4:	0000a46c 	andeq	sl, r0, ip, ror #8
    22b8:	05510126 	ldrbeq	r0, [r1, #-294]	; 0xfffffeda
    22bc:	00a35003 	adceq	r5, r3, r3
    22c0:	52012600 	andpl	r2, r1, #0, 12
    22c4:	a5d80305 	ldrbge	r0, [r8, #773]	; 0x305
    22c8:	01260000 			; <UNDEFINED> instruction: 0x01260000
    22cc:	280a0353 	stmdacs	sl, {r0, r1, r4, r6, r8, r9}
    22d0:	10240001 	eorne	r0, r4, r1
    22d4:	cb00008c 	blgt	250c <__code_start__-0x5af4>
    22d8:	00000019 	andeq	r0, r0, r9, lsl r0
    22dc:	008b9025 	addeq	r9, fp, r5, lsr #32
    22e0:	0014cf00 	andseq	ip, r4, r0, lsl #30
    22e4:	00138800 	andseq	r8, r3, r0, lsl #16
    22e8:	50012600 	andpl	r2, r1, r0, lsl #12
    22ec:	5001f303 	andpl	pc, r1, r3, lsl #6
    22f0:	02510126 	subseq	r0, r1, #-2147483639	; 0x80000009
    22f4:	01260074 			; <UNDEFINED> instruction: 0x01260074
    22f8:	00300152 	eorseq	r0, r0, r2, asr r1
    22fc:	008c1424 	addeq	r1, ip, r4, lsr #8
    2300:	0013a700 	andseq	sl, r3, r0, lsl #14
    2304:	c5210000 	strgt	r0, [r1, #-0]!
    2308:	a2000000 	andge	r0, r0, #0, 0
    230c:	22000013 	andcs	r0, r0, #19, 0
    2310:	0000002c 	andeq	r0, r0, ip, lsr #32
    2314:	92040009 	andls	r0, r4, #9, 0
    2318:	14000013 	strne	r0, [r0], #-19	; 0xffffffed
    231c:	00000523 	andeq	r0, r0, r3, lsr #10
    2320:	0d011601 	stceq	6, cr1, [r1, #-4]
    2324:	000086c4 	andeq	r8, r0, r4, asr #13
    2328:	000000fc 	strdeq	r0, [r0], -ip
    232c:	14cf9c01 	strbne	r9, [pc], #3073	; 2334 <__code_start__-0x5ccc>
    2330:	22150000 	andscs	r0, r5, #0, 0
    2334:	15000001 	strne	r0, [r0, #-1]
    2338:	0500000c 	streq	r0, [r0, #-12]
    233c:	00a5b003 	adceq	fp, r5, r3
    2340:	87102500 	ldrhi	r2, [r0, -r0, lsl #10]
    2344:	19bf0000 	ldmibne	pc!, {}	; <UNPREDICTABLE>
    2348:	13fd0000 	mvnsne	r0, #0, 0
    234c:	01260000 			; <UNDEFINED> instruction: 0x01260000
    2350:	6c030550 	cfstr32vs	mvfx0, [r3], {80}	; 0x50
    2354:	260000a4 	strcs	r0, [r0], -r4, lsr #1
    2358:	03055101 	movweq	r5, #20737	; 0x5101
    235c:	0000a350 	andeq	sl, r0, r0, asr r3
    2360:	05520126 	ldrbeq	r0, [r2, #-294]	; 0xfffffeda
    2364:	00a5b003 	adceq	fp, r5, r3
    2368:	53012600 	movwpl	r2, #5632	; 0x1600
    236c:	01180a03 	tsteq	r8, r3, lsl #20
    2370:	87142400 	ldrhi	r2, [r4, -r0, lsl #8]
    2374:	19cb0000 	stmibne	fp, {}^	; <UNPREDICTABLE>
    2378:	28250000 	stmdacs	r5!, {}	; <UNPREDICTABLE>
    237c:	bf000087 	svclt	0x00000087
    2380:	36000019 			; <UNDEFINED> instruction: 0x36000019
    2384:	26000014 			; <UNDEFINED> instruction: 0x26000014
    2388:	03055001 	movweq	r5, #20481	; 0x5001
    238c:	0000a448 	andeq	sl, r0, r8, asr #8
    2390:	05510126 	ldrbeq	r0, [r1, #-294]	; 0xfffffeda
    2394:	00a35003 	adceq	r5, r3, r3
    2398:	52012600 	andpl	r2, r1, #0, 12
    239c:	a5b00305 	ldrge	r0, [r0, #773]!	; 0x305
    23a0:	01260000 			; <UNDEFINED> instruction: 0x01260000
    23a4:	180a0353 	stmdane	sl, {r0, r1, r4, r6, r8, r9}
    23a8:	2c240001 	stccs	0, cr0, [r4], #-4
    23ac:	cb000087 	blgt	25d0 <__code_start__-0x5a30>
    23b0:	24000019 	strcs	r0, [r0], #-25	; 0xffffffe7
    23b4:	00008750 	andeq	r8, r0, r0, asr r7
    23b8:	0000199b 	muleq	r0, fp, r9
    23bc:	00877425 	addeq	r7, r7, r5, lsr #8
    23c0:	0019bf00 	andseq	fp, r9, r0, lsl #30
    23c4:	00148200 	andseq	r8, r4, r0, lsl #4
    23c8:	50012600 	andpl	r2, r1, r0, lsl #12
    23cc:	a2b80305 	adcsge	r0, r8, #335544320	; 0x14000000
    23d0:	01260000 			; <UNDEFINED> instruction: 0x01260000
    23d4:	50030551 	andpl	r0, r3, r1, asr r5
    23d8:	260000a3 	strcs	r0, [r0], -r3, lsr #1
    23dc:	03055201 	movweq	r5, #20993	; 0x5201
    23e0:	0000a5b0 			; <UNDEFINED> instruction: 0x0000a5b0
    23e4:	03530126 	cmpeq	r3, #-2147483639	; 0x80000009
    23e8:	26011b0a 	strcs	r1, [r1], -sl, lsl #22
    23ec:	05007d02 	streq	r7, [r0, #-3330]	; 0xfffff2fe
    23f0:	00a49c03 	adceq	r9, r4, r3, lsl #24
    23f4:	78240000 	stmdavc	r4!, {}	; <UNPREDICTABLE>
    23f8:	cb000087 	blgt	261c <__code_start__-0x59e4>
    23fc:	25000019 	strcs	r0, [r0, #-25]	; 0xffffffe7
    2400:	00008794 	muleq	r0, r4, r7
    2404:	000019bf 			; <UNDEFINED> instruction: 0x000019bf
    2408:	000014c5 	andeq	r1, r0, r5, asr #9
    240c:	05500126 	ldrbeq	r0, [r0, #-294]	; 0xfffffeda
    2410:	00a2b803 	adceq	fp, r2, r3, lsl #16
    2414:	51012600 	tstpl	r1, r0, lsl #12
    2418:	a3500305 	cmpge	r0, #335544320	; 0x14000000
    241c:	01260000 			; <UNDEFINED> instruction: 0x01260000
    2420:	b0030552 	andlt	r0, r3, r2, asr r5
    2424:	260000a5 	strcs	r0, [r0], -r5, lsr #1
    2428:	0a035301 	beq	d7034 <__bss_end__+0xcc484>
    242c:	0226011d 	eoreq	r0, r6, #1073741831	; 0x40000007
    2430:	0305007d 	movweq	r0, #20605	; 0x507d
    2434:	0000a4b0 			; <UNDEFINED> instruction: 0x0000a4b0
    2438:	87982400 	ldrhi	r2, [r8, r0, lsl #8]
    243c:	19cb0000 	stmibne	fp, {}^	; <UNPREDICTABLE>
    2440:	2e000000 	cdpcs	0, 0, cr0, cr0, cr0, {0}
    2444:	0000048f 	andeq	r0, r0, pc, lsl #9
    2448:	080df301 	stmdaeq	sp, {r0, r8, r9, ip, sp, lr, pc}
    244c:	d4000088 	strle	r0, [r0], #-136	; 0xffffff78
    2450:	01000001 	tsteq	r0, r1
    2454:	0017a09c 	mulseq	r7, ip, r0
    2458:	04be2f00 	ldrteq	r2, [lr], #3840	; 0xf00
    245c:	f3010000 	vhadd.u8	d0, d1, d0
    2460:	00002c21 	andeq	r2, r0, r1, lsr #24
    2464:	000bcc00 	andeq	ip, fp, r0, lsl #24
    2468:	000bc600 	andeq	ip, fp, r0, lsl #12
    246c:	04e32f00 	strbteq	r2, [r3], #3840	; 0xf00
    2470:	f3010000 	vhadd.u8	d0, d1, d0
    2474:	00002c30 	andeq	r2, r0, r0, lsr ip
    2478:	000c0200 	andeq	r0, ip, r0, lsl #4
    247c:	000bf800 	andeq	pc, fp, r0, lsl #16
    2480:	05042f00 	streq	r2, [r4, #-3840]	; 0xfffff100
    2484:	f3010000 	vhadd.u8	d0, d1, d0
    2488:	0000253c 	andeq	r2, r0, ip, lsr r5
    248c:	000c4d00 	andeq	r4, ip, r0, lsl #26
    2490:	000c4700 	andeq	r4, ip, r0, lsl #14
    2494:	01221500 			; <UNDEFINED> instruction: 0x01221500
    2498:	17b00000 	ldrne	r0, [r0, r0]!
    249c:	03050000 	movweq	r0, #20480	; 0x5000
    24a0:	0000a5bc 			; <UNDEFINED> instruction: 0x0000a5bc
    24a4:	0100631d 	tsteq	r0, sp, lsl r3
    24a8:	d40d0106 	strle	r0, [sp], #-262	; 0xfffffefa
    24ac:	7b000001 	blvc	24b8 <__code_start__-0x5b48>
    24b0:	7900000c 	stmdbvc	r0, {r2, r3}
    24b4:	1600000c 	strne	r0, [r0], -ip
    24b8:	000088d4 	ldrdeq	r8, [r0], -r4
    24bc:	00000000 	andeq	r0, r0, r0
    24c0:	00001582 	andeq	r1, r0, r2, lsl #11
    24c4:	00755f17 	rsbseq	r5, r5, r7, lsl pc
    24c8:	010a0104 	tsteq	sl, r4, lsl #2
    24cc:	00157602 	andseq	r7, r5, r2, lsl #12
    24d0:	76761800 	ldrbtvc	r1, [r6], -r0, lsl #16
    24d4:	010a0100 	mrseq	r0, (UNDEF: 26)
    24d8:	0001d402 	andeq	sp, r1, r2, lsl #8
    24dc:	75751800 	ldrbvc	r1, [r5, #-2048]!	; 0xfffff800
    24e0:	010a0100 	mrseq	r0, (UNDEF: 26)
    24e4:	00006e02 	andeq	r6, r0, r2, lsl #28
    24e8:	75190000 	ldrvc	r0, [r9, #-0]
    24ec:	010a0100 	mrseq	r0, (UNDEF: 26)
    24f0:	00155002 	andseq	r5, r5, r2
    24f4:	20240000 	eorcs	r0, r4, r0
    24f8:	9b000088 	blls	2720 <__code_start__-0x58e0>
    24fc:	25000019 	strcs	r0, [r0, #-25]	; 0xffffffe7
    2500:	00008864 	andeq	r8, r0, r4, ror #16
    2504:	000019bf 			; <UNDEFINED> instruction: 0x000019bf
    2508:	000015ba 			; <UNDEFINED> instruction: 0x000015ba
    250c:	05500126 	ldrbeq	r0, [r0, #-294]	; 0xfffffeda
    2510:	00a46c03 	adceq	r6, r4, r3, lsl #24
    2514:	51012600 	tstpl	r1, r0, lsl #12
    2518:	a3500305 	cmpge	r0, #335544320	; 0x14000000
    251c:	01260000 			; <UNDEFINED> instruction: 0x01260000
    2520:	bc030552 	cfstr32lt	mvfx0, [r3], {82}	; 0x52
    2524:	260000a5 	strcs	r0, [r0], -r5, lsr #1
    2528:	08025301 	stmdaeq	r2, {r0, r8, r9, ip, lr}
    252c:	682400f7 	stmdavs	r4!, {r0, r1, r2, r4, r5, r6, r7}
    2530:	cb000088 	blgt	2758 <__code_start__-0x58a8>
    2534:	25000019 	strcs	r0, [r0, #-25]	; 0xffffffe7
    2538:	0000887c 	andeq	r8, r0, ip, ror r8
    253c:	000019bf 			; <UNDEFINED> instruction: 0x000019bf
    2540:	000015f2 	strdeq	r1, [r0], -r2
    2544:	05500126 	ldrbeq	r0, [r0, #-294]	; 0xfffffeda
    2548:	00a44803 	adceq	r4, r4, r3, lsl #16
    254c:	51012600 	tstpl	r1, r0, lsl #12
    2550:	a3500305 	cmpge	r0, #335544320	; 0x14000000
    2554:	01260000 			; <UNDEFINED> instruction: 0x01260000
    2558:	bc030552 	cfstr32lt	mvfx0, [r3], {82}	; 0x52
    255c:	260000a5 	strcs	r0, [r0], -r5, lsr #1
    2560:	08025301 	stmdaeq	r2, {r0, r8, r9, ip, lr}
    2564:	802400f7 	strdhi	r0, [r4], -r7	; <UNPREDICTABLE>
    2568:	cb000088 	blgt	2790 <__code_start__-0x5870>
    256c:	24000019 	strcs	r0, [r0], #-25	; 0xffffffe7
    2570:	00008894 	muleq	r0, r4, r8
    2574:	000017b5 			; <UNDEFINED> instruction: 0x000017b5
    2578:	0088a825 	addeq	sl, r8, r5, lsr #16
    257c:	0019b300 	andseq	fp, r9, r0, lsl #6
    2580:	00162100 	andseq	r2, r6, r0, lsl #2
    2584:	50012600 	andpl	r2, r1, r0, lsl #12
    2588:	400c0c05 	andmi	r0, ip, r5, lsl #24
    258c:	01262080 	smlawbeq	r6, r0, r0, r2
    2590:	00760251 	rsbseq	r0, r6, r1, asr r2
    2594:	88bc2500 	ldmhi	ip!, {r8, sl, sp}
    2598:	19b30000 	ldmibne	r3!, {}	; <UNPREDICTABLE>
    259c:	163e0000 	ldrtne	r0, [lr], -r0
    25a0:	01260000 			; <UNDEFINED> instruction: 0x01260000
    25a4:	080c0550 	stmdaeq	ip, {r4, r6, r8, sl}
    25a8:	26208040 	strtcs	r8, [r0], -r0, asr #32
    25ac:	75025101 	strvc	r5, [r2, #-257]	; 0xfffffeff
    25b0:	c8250000 	stmdagt	r5!, {}	; <UNPREDICTABLE>
    25b4:	e8000088 	stmda	r0, {r3, r7}
    25b8:	52000018 	andpl	r0, r0, #24, 0
    25bc:	26000016 			; <UNDEFINED> instruction: 0x26000016
    25c0:	75025001 	strvc	r5, [r2, #-1]
    25c4:	e0250000 	eor	r0, r5, r0
    25c8:	b3000088 	movwlt	r0, #136	; 0x88
    25cc:	66000019 			; <UNDEFINED> instruction: 0x66000019
    25d0:	26000016 			; <UNDEFINED> instruction: 0x26000016
    25d4:	75025001 	strvc	r5, [r2, #-1]
    25d8:	24250000 	strtcs	r0, [r5], #-0
    25dc:	bf000089 	svclt	0x00000089
    25e0:	96000019 			; <UNDEFINED> instruction: 0x96000019
    25e4:	26000016 			; <UNDEFINED> instruction: 0x26000016
    25e8:	03055001 	movweq	r5, #20481	; 0x5001
    25ec:	0000a46c 	andeq	sl, r0, ip, ror #8
    25f0:	05510126 	ldrbeq	r0, [r1, #-294]	; 0xfffffeda
    25f4:	00a35003 	adceq	r5, r3, r3
    25f8:	52012600 	andpl	r2, r1, #0, 12
    25fc:	a5bc0305 	ldrge	r0, [ip, #773]!	; 0x305
    2600:	01260000 			; <UNDEFINED> instruction: 0x01260000
    2604:	120a0353 	andne	r0, sl, #1275068417	; 0x4c000001
    2608:	28240001 	stmdacs	r4!, {r0}
    260c:	cb000089 	blgt	2838 <__code_start__-0x57c8>
    2610:	25000019 	strcs	r0, [r0, #-25]	; 0xffffffe7
    2614:	00008944 	andeq	r8, r0, r4, asr #18
    2618:	000019bf 			; <UNDEFINED> instruction: 0x000019bf
    261c:	000016d8 	ldrdeq	r1, [r0], -r8
    2620:	05500126 	ldrbeq	r0, [r0, #-294]	; 0xfffffeda
    2624:	00a2b803 	adceq	fp, r2, r3, lsl #16
    2628:	51012600 	tstpl	r1, r0, lsl #12
    262c:	a3500305 	cmpge	r0, #335544320	; 0x14000000
    2630:	01260000 			; <UNDEFINED> instruction: 0x01260000
    2634:	bc030552 	cfstr32lt	mvfx0, [r3], {82}	; 0x52
    2638:	260000a5 	strcs	r0, [r0], -r5, lsr #1
    263c:	08025301 	stmdaeq	r2, {r0, r8, r9, ip, lr}
    2640:	7d0226fa 	stcvc	6, cr2, [r2, #-1000]	; 0xfffffc18
    2644:	c4030500 	strgt	r0, [r3], #-1280	; 0xfffffb00
    2648:	000000a4 	andeq	r0, r0, r4, lsr #1
    264c:	00894824 	addeq	r4, r9, r4, lsr #16
    2650:	0019cb00 	andseq	ip, r9, r0, lsl #22
    2654:	89642500 	stmdbhi	r4!, {r8, sl, sp}^
    2658:	19bf0000 	ldmibne	pc!, {}	; <UNPREDICTABLE>
    265c:	171a0000 	ldrne	r0, [sl, -r0]
    2660:	01260000 			; <UNDEFINED> instruction: 0x01260000
    2664:	b8030550 	stmdalt	r3, {r4, r6, r8, sl}
    2668:	260000a2 	strcs	r0, [r0], -r2, lsr #1
    266c:	03055101 	movweq	r5, #20737	; 0x5101
    2670:	0000a350 	andeq	sl, r0, r0, asr r3
    2674:	05520126 	ldrbeq	r0, [r2, #-294]	; 0xfffffeda
    2678:	00a5bc03 	adceq	fp, r5, r3, lsl #24
    267c:	53012600 	movwpl	r2, #5632	; 0x1600
    2680:	26ff0802 	ldrbtcs	r0, [pc], r2, lsl #16
    2684:	05007d02 	streq	r7, [r0, #-3330]	; 0xfffff2fe
    2688:	00a4dc03 	adceq	sp, r4, r3, lsl #24
    268c:	68240000 	stmdavs	r4!, {}	; <UNPREDICTABLE>
    2690:	cb000089 	blgt	28bc <__code_start__-0x5744>
    2694:	25000019 	strcs	r0, [r0, #-25]	; 0xffffffe7
    2698:	00008984 	andeq	r8, r0, r4, lsl #19
    269c:	000019bf 			; <UNDEFINED> instruction: 0x000019bf
    26a0:	0000175d 	andeq	r1, r0, sp, asr r7
    26a4:	05500126 	ldrbeq	r0, [r0, #-294]	; 0xfffffeda
    26a8:	00a2b803 	adceq	fp, r2, r3, lsl #16
    26ac:	51012600 	tstpl	r1, r0, lsl #12
    26b0:	a3500305 	cmpge	r0, #335544320	; 0x14000000
    26b4:	01260000 			; <UNDEFINED> instruction: 0x01260000
    26b8:	bc030552 	cfstr32lt	mvfx0, [r3], {82}	; 0x52
    26bc:	260000a5 	strcs	r0, [r0], -r5, lsr #1
    26c0:	0a035301 	beq	d72cc <__bss_end__+0xcc71c>
    26c4:	02260103 	eoreq	r0, r6, #-1073741824	; 0xc0000000
    26c8:	0305007d 	movweq	r0, #20605	; 0x507d
    26cc:	0000a4f0 	strdeq	sl, [r0], -r0
    26d0:	89882400 	stmibhi	r8, {sl, sp}
    26d4:	19cb0000 	stmibne	fp, {}^	; <UNPREDICTABLE>
    26d8:	9c250000 	stcls	0, cr0, [r5], #-0
    26dc:	bf000089 	svclt	0x00000089
    26e0:	96000019 			; <UNDEFINED> instruction: 0x96000019
    26e4:	26000017 			; <UNDEFINED> instruction: 0x26000017
    26e8:	03055001 	movweq	r5, #20481	; 0x5001
    26ec:	0000a448 	andeq	sl, r0, r8, asr #8
    26f0:	05510126 	ldrbeq	r0, [r1, #-294]	; 0xfffffeda
    26f4:	00a35003 	adceq	r5, r3, r3
    26f8:	52012600 	andpl	r2, r1, #0, 12
    26fc:	a5bc0305 	ldrge	r0, [ip, #773]!	; 0x305
    2700:	01260000 			; <UNDEFINED> instruction: 0x01260000
    2704:	120a0353 	andne	r0, sl, #1275068417	; 0x4c000001
    2708:	a0240001 	eorge	r0, r4, r1
    270c:	cb000089 	blgt	2938 <__code_start__-0x56c8>
    2710:	00000019 	andeq	r0, r0, r9, lsl r0
    2714:	0000c521 	andeq	ip, r0, r1, lsr #10
    2718:	0017b000 	andseq	fp, r7, r0
    271c:	002c2200 	eoreq	r2, ip, r0, lsl #4
    2720:	000a0000 	andeq	r0, sl, r0
    2724:	0017a004 	andseq	sl, r7, r4
    2728:	05942e00 	ldreq	r2, [r4, #3584]	; 0xe00
    272c:	e7010000 	str	r0, [r1, -r0]
    2730:	0087d00d 	addeq	sp, r7, sp
    2734:	00002800 	andeq	r2, r0, r0, lsl #16
    2738:	359c0100 	ldrcc	r0, [ip, #256]	; 0x100
    273c:	12000018 	andne	r0, r0, #24, 0
    2740:	e8010073 	stmda	r1, {r0, r1, r4, r5, r6}
    2744:	00029e0d 	andeq	r9, r2, sp, lsl #28
    2748:	87e01600 	strbhi	r1, [r0, r0, lsl #12]!
    274c:	00000000 	andeq	r0, r0, r0
    2750:	18100000 	ldmdane	r0, {}	; <UNPREDICTABLE>
    2754:	5f300000 	svcpl	0x00300000
    2758:	01040075 	tsteq	r4, r5, ror r0
    275c:	180502ef 	stmdane	r5, {r0, r1, r2, r3, r5, r6, r7, r9}
    2760:	76310000 	ldrtvc	r0, [r1], -r0
    2764:	ef010076 	svc	0x00010076
    2768:	00029e02 	andeq	r9, r2, r2, lsl #28
    276c:	75753100 	ldrbvc	r3, [r5, #-256]!	; 0xffffff00
    2770:	02ef0100 	rsceq	r0, pc, #0
    2774:	0000006e 	andeq	r0, r0, lr, rrx
    2778:	00751200 	rsbseq	r1, r5, r0, lsl #4
    277c:	e202ef01 	and	lr, r2, #1, 30
    2780:	00000017 	andeq	r0, r0, r7, lsl r0
    2784:	0087e025 	addeq	lr, r7, r5, lsr #32
    2788:	00183500 	andseq	r3, r8, r0, lsl #10
    278c:	00182400 	andseq	r2, r8, r0, lsl #8
    2790:	50012600 	andpl	r2, r1, r0, lsl #12
    2794:	00007402 	andeq	r7, r0, r2, lsl #8
    2798:	0087f02c 	addeq	pc, r7, ip, lsr #32
    279c:	0019b300 	andseq	fp, r9, r0, lsl #6
    27a0:	50012600 	andpl	r2, r1, r0, lsl #12
    27a4:	00007402 	andeq	r7, r0, r2, lsl #8
    27a8:	04ea3200 	strbteq	r3, [sl], #512	; 0x200
    27ac:	b8010000 	stmdalt	r1, {}	; <UNPREDICTABLE>
    27b0:	00029e13 	andeq	r9, r2, r3, lsl lr
    27b4:	0087c000 	addeq	ip, r7, r0
    27b8:	00001000 	andeq	r1, r0, r0
    27bc:	b59c0100 	ldrlt	r0, [ip, #256]	; 0x100
    27c0:	33000018 	movwcc	r0, #24
    27c4:	b8010073 	stmdalt	r1, {r0, r1, r4, r5, r6}
    27c8:	0018b52f 	andseq	fp, r8, pc, lsr #10
    27cc:	000c9200 	andeq	r9, ip, r0, lsl #4
    27d0:	000c8e00 	andeq	r8, ip, r0, lsl #28
    27d4:	87c41600 	strbhi	r1, [r4, r0, lsl #12]
    27d8:	00040000 	andeq	r0, r4, r0
    27dc:	18ab0000 	stmiane	fp!, {}	; <UNPREDICTABLE>
    27e0:	5f300000 	svcpl	0x00300000
    27e4:	01040075 	tsteq	r4, r5, ror r0
    27e8:	188f11b9 	stmne	pc, {r0, r3, r4, r5, r7, r8, ip}	; <UNPREDICTABLE>
    27ec:	76310000 	ldrtvc	r0, [r1], -r0
    27f0:	11b90100 			; <UNDEFINED> instruction: 0x11b90100
    27f4:	000002aa 	andeq	r0, r0, sl, lsr #5
    27f8:	01007531 	tsteq	r0, r1, lsr r5
    27fc:	002c11b9 	strhteq	r1, [ip], -r9
    2800:	12000000 	andne	r0, r0, #0, 0
    2804:	b9010075 	stmdblt	r1, {r0, r2, r4, r5, r6}
    2808:	00186e11 	andseq	r6, r8, r1, lsl lr
    280c:	87c82c00 	strbhi	r2, [r8, r0, lsl #24]
    2810:	19d70000 	ldmibne	r7, {}^	; <UNPREDICTABLE>
    2814:	01260000 			; <UNDEFINED> instruction: 0x01260000
    2818:	01f30350 	mvnseq	r0, r0, asr r3
    281c:	24000050 	strcs	r0, [r0], #-80	; 0xffffffb0
    2820:	000087cc 	andeq	r8, r0, ip, asr #15
    2824:	000018bb 			; <UNDEFINED> instruction: 0x000018bb
    2828:	aa040900 	bge	104c30 <__bss_end__+0xfa080>
    282c:	32000002 	andcc	r0, r0, #2, 0
    2830:	000003bf 			; <UNDEFINED> instruction: 0x000003bf
    2834:	9e13b401 	cfmulsls	mvf11, mvf3, mvf1
    2838:	b0000002 	andlt	r0, r0, r2
    283c:	0c000086 	stceq	0, cr0, [r0], {134}	; 0x86
    2840:	01000000 	mrseq	r0, (UNDEF: 0)
    2844:	0018e89c 	mulseq	r8, ip, r8
    2848:	00733300 	rsbseq	r3, r3, r0, lsl #6
    284c:	9e26b401 	cdpls	4, 2, cr11, cr6, cr1, {0}
    2850:	b5000002 	strlt	r0, [r0, #-2]
    2854:	b300000c 	movwlt	r0, #12
    2858:	0000000c 	andeq	r0, r0, ip
    285c:	00052c32 	andeq	r2, r5, r2, lsr ip
    2860:	137e0100 	cmnne	lr, #0
    2864:	000001d4 	ldrdeq	r0, [r0], -r4
    2868:	000087f8 	strdeq	r8, [r0], -r8	; <UNPREDICTABLE>
    286c:	00000010 	andeq	r0, r0, r0, lsl r0
    2870:	19689c01 	stmdbne	r8!, {r0, sl, fp, ip, pc}^
    2874:	63330000 	teqvs	r3, #0, 0
    2878:	2f7e0100 	svccs	0x007e0100
    287c:	00001968 	andeq	r1, r0, r8, ror #18
    2880:	00000ccc 	andeq	r0, r0, ip, asr #25
    2884:	00000cc8 	andeq	r0, r0, r8, asr #25
    2888:	0087fc16 	addeq	pc, r7, r6, lsl ip	; <UNPREDICTABLE>
    288c:	00000400 	andeq	r0, r0, r0, lsl #8
    2890:	00195e00 	andseq	r5, r9, r0, lsl #28
    2894:	755f3000 	ldrbvc	r3, [pc, #-0]	; 289c <__code_start__-0x5764>
    2898:	7f010400 	svcvc	0x00010400
    289c:	00194211 	andseq	r4, r9, r1, lsl r2
    28a0:	00763100 	rsbseq	r3, r6, r0, lsl #2
    28a4:	e0117f01 	ands	r7, r1, r1, lsl #30
    28a8:	31000001 	tstcc	r0, r1
    28ac:	7f010075 	svcvc	0x00010075
    28b0:	00002c11 	andeq	r2, r0, r1, lsl ip
    28b4:	75120000 	ldrvc	r0, [r2, #-0]
    28b8:	117f0100 	cmnne	pc, r0, lsl #2
    28bc:	00001921 	andeq	r1, r0, r1, lsr #18
    28c0:	0088002c 	addeq	r0, r8, ip, lsr #32
    28c4:	0019d700 	andseq	sp, r9, r0, lsl #14
    28c8:	50012600 	andpl	r2, r1, r0, lsl #12
    28cc:	5001f303 	andpl	pc, r1, r3, lsl #6
    28d0:	04240000 	strteq	r0, [r4], #-0
    28d4:	6e000088 	cdpvs	0, 0, cr0, cr0, cr8, {4}
    28d8:	00000019 	andeq	r0, r0, r9, lsl r0
    28dc:	01e00409 	mvneq	r0, r9, lsl #8
    28e0:	a6320000 	ldrtge	r0, [r2], -r0
    28e4:	01000003 	tsteq	r0, r3
    28e8:	01d41377 	bicseq	r1, r4, r7, ror r3
    28ec:	86a00000 	strthi	r0, [r0], r0
    28f0:	00100000 	andseq	r0, r0, r0
    28f4:	9c010000 	stcls	0, cr0, [r1], {-0}
    28f8:	0000199b 	muleq	r0, fp, r9
    28fc:	01006333 	tsteq	r0, r3, lsr r3
    2900:	01d42677 	bicseq	r2, r4, r7, ror r6
    2904:	0cf10000 	ldcleq	0, cr0, [r1]
    2908:	0ced0000 	stcleq	0, cr0, [sp]
    290c:	34000000 	strcc	r0, [r0], #-0
    2910:	000004c3 	andeq	r0, r0, r3, asr #9
    2914:	000004c3 	andeq	r0, r0, r3, asr #9
    2918:	34069303 	strcc	r9, [r6], #-771	; 0xfffffcfd
    291c:	00000511 	andeq	r0, r0, r1, lsl r5
    2920:	00000511 	andeq	r0, r0, r1, lsl r5
    2924:	34061904 	strcc	r1, [r6], #-2308	; 0xfffff6fc
    2928:	00000441 	andeq	r0, r0, r1, asr #8
    292c:	00000441 	andeq	r0, r0, r1, asr #8
    2930:	3406a503 	strcc	sl, [r6], #-1283	; 0xfffffafd
    2934:	0000074b 	andeq	r0, r0, fp, asr #14
    2938:	0000074b 	andeq	r0, r0, fp, asr #14
    293c:	34062803 	strcc	r2, [r6], #-2051	; 0xfffff7fd
    2940:	0000014b 	andeq	r0, r0, fp, asr #2
    2944:	0000014b 	andeq	r0, r0, fp, asr #2
    2948:	34066703 	strcc	r6, [r6], #-1795	; 0xfffff8fd
    294c:	000004cf 	andeq	r0, r0, pc, asr #9
    2950:	000004cf 	andeq	r0, r0, pc, asr #9
    2954:	000bb103 	andeq	fp, fp, r3, lsl #2
    2958:	00000673 	andeq	r0, r0, r3, ror r6
    295c:	06220004 	strteq	r0, [r2], -r4
    2960:	01040000 	mrseq	r0, (UNDEF: 4)
    2964:	00000636 	andeq	r0, r0, r6, lsr r6
    2968:	0005ec0c 	andeq	lr, r5, ip, lsl #24
    296c:	00071000 	andeq	r1, r7, r0
    2970:	008f7000 	addeq	r7, pc, r0
    2974:	00019800 	andeq	r9, r1, r0, lsl #16
    2978:	000d5100 	andeq	r5, sp, r0, lsl #2
    297c:	07080200 	streq	r0, [r8, -r0, lsl #4]
    2980:	00000196 	muleq	r0, r6, r1
    2984:	a0070402 	andge	r0, r7, r2, lsl #8
    2988:	03000001 	movweq	r0, #1
    298c:	6e690504 	cdpvs	5, 6, cr0, cr9, cr4, {0}
    2990:	2c040074 	stccs	0, cr0, [r4], {116}	; 0x74
    2994:	02000000 	andeq	r0, r0, #0, 0
    2998:	01750601 	cmneq	r5, r1, lsl #12
    299c:	02020000 	andeq	r0, r2, #0, 0
    29a0:	00002e05 	andeq	r2, r0, r5, lsl #28
    29a4:	05040200 	streq	r0, [r4, #-512]	; 0xfffffe00
    29a8:	000000ff 	strdeq	r0, [r0], -pc	; <UNPREDICTABLE>
    29ac:	fa050802 	blx	1449bc <__bss_end__+0x139e0c>
    29b0:	02000000 	andeq	r0, r0, #0, 0
    29b4:	01730801 	cmneq	r3, r1, lsl #16
    29b8:	02020000 	andeq	r0, r2, #0, 0
    29bc:	0001ef07 	andeq	lr, r1, r7, lsl #30
    29c0:	01ad0500 			; <UNDEFINED> instruction: 0x01ad0500
    29c4:	34030000 	strcc	r0, [r3], #-0
    29c8:	00007519 	andeq	r7, r0, r9, lsl r5
    29cc:	07040200 	streq	r0, [r4, -r0, lsl #4]
    29d0:	0000019b 	muleq	r0, fp, r1
    29d4:	00003306 	andeq	r3, r0, r6, lsl #6
    29d8:	00008b00 	andeq	r8, r0, r0, lsl #22
    29dc:	00330700 	eorseq	r0, r3, r0, lsl #14
    29e0:	08000000 	stmdaeq	r0, {}	; <UNPREDICTABLE>
    29e4:	0000005a 	andeq	r0, r0, sl, asr r0
    29e8:	970e1c02 	strls	r1, [lr, -r2, lsl #24]
    29ec:	09000000 	stmdbeq	r0, {}	; <UNPREDICTABLE>
    29f0:	00007c04 	andeq	r7, r0, r4, lsl #24
    29f4:	00330600 	eorseq	r0, r3, r0, lsl #12
    29f8:	00ac0000 	adceq	r0, ip, r0
    29fc:	ac070000 	stcge	0, cr0, [r7], {-0}
    2a00:	00000000 	andeq	r0, r0, r0
    2a04:	00b90409 	adcseq	r0, r9, r9, lsl #8
    2a08:	01020000 	mrseq	r0, (UNDEF: 2)
    2a0c:	00017c08 	andeq	r7, r1, r8, lsl #24
    2a10:	00b20400 	adcseq	r0, r2, r0, lsl #8
    2a14:	89080000 	stmdbhi	r8, {}	; <UNPREDICTABLE>
    2a18:	02000007 	andeq	r0, r0, #7, 0
    2a1c:	00ca0e21 	sbceq	r0, sl, r1, lsr #28
    2a20:	04090000 	streq	r0, [r9], #-0
    2a24:	0000009d 	muleq	r0, sp, r0
    2a28:	5b01070a 	blpl	44658 <__bss_end__+0x39aa8>
    2a2c:	04000000 	streq	r0, [r0], #-0
    2a30:	010f0e0c 	tsteq	pc, ip, lsl #28
    2a34:	7a0b0000 	bvc	2c2a3c <__bss_end__+0x2b7e8c>
    2a38:	00000004 	andeq	r0, r0, r4
    2a3c:	0003ae0b 	andeq	sl, r3, fp, lsl #28
    2a40:	c70b0100 	strgt	r0, [fp, -r0, lsl #2]
    2a44:	04000003 	streq	r0, [r0], #-3
    2a48:	0003d60b 	andeq	sp, r3, fp, lsl #12
    2a4c:	e50b0500 	str	r0, [fp, #-1280]	; 0xfffffb00
    2a50:	06000003 	streq	r0, [r0], -r3
    2a54:	0003f40b 	andeq	pc, r3, fp, lsl #8
    2a58:	030b0700 	movweq	r0, #46848	; 0xb700
    2a5c:	03000004 	movweq	r0, #4
    2a60:	0004120b 	andeq	r1, r4, fp, lsl #4
    2a64:	05000200 	streq	r0, [r0, #-512]	; 0xfffffe00
    2a68:	0000062a 	andeq	r0, r0, sl, lsr #12
    2a6c:	d0031504 	andle	r1, r3, r4, lsl #10
    2a70:	0c000000 	stceq	0, cr0, [r0], {-0}
    2a74:	000005b7 			; <UNDEFINED> instruction: 0x000005b7
    2a78:	3a171d01 	bcc	5c9e84 <__bss_end__+0x5bf2d4>
    2a7c:	1c000000 	stcne	0, cr0, [r0], {-0}
    2a80:	0c202000 	stceq	0, cr2, [r0], #-0
    2a84:	000005ad 	andeq	r0, r0, sp, lsr #11
    2a88:	3a171e01 	bcc	5ca294 <__bss_end__+0x5bf6e4>
    2a8c:	28000000 	stmdacs	r0, {}	; <UNPREDICTABLE>
    2a90:	0c202000 	stceq	0, cr2, [r0], #-0
    2a94:	00000706 	andeq	r0, r0, r6, lsl #14
    2a98:	3a171f01 	bcc	5ca6a4 <__bss_end__+0x5bfaf4>
    2a9c:	34000000 	strcc	r0, [r0], #-0
    2aa0:	0d202000 	stceq	0, cr2, [r0, #-0]
    2aa4:	000005dc 	ldrdeq	r0, [r0], -ip
    2aa8:	33055101 	movwcc	r5, #20737	; 0x5101
    2aac:	e0000000 	and	r0, r0, r0
    2ab0:	28000090 	stmdacs	r0, {r4, r7}
    2ab4:	01000000 	mrseq	r0, (UNDEF: 0)
    2ab8:	0001ba9c 	muleq	r1, ip, sl
    2abc:	69700e00 	ldmdbvs	r0!, {r9, sl, fp}^
    2ac0:	5101006e 	tstpl	r1, lr, rrx
    2ac4:	00002c18 	andeq	r2, r0, r8, lsl ip
    2ac8:	000d1500 	andeq	r1, sp, r0, lsl #10
    2acc:	000d0f00 	andeq	r0, sp, r0, lsl #30
    2ad0:	07320f00 	ldreq	r0, [r2, -r0, lsl #30]!
    2ad4:	52010000 	andpl	r0, r1, #0, 0
    2ad8:	00002c0e 	andeq	r2, r0, lr, lsl #24
    2adc:	000d4b00 	andeq	r4, sp, r0, lsl #22
    2ae0:	000d4100 	andeq	r4, sp, r0, lsl #2
    2ae4:	666f1000 	strbtvs	r1, [pc], -r0
    2ae8:	53010066 	movwpl	r0, #4198	; 0x1066
    2aec:	00002c0e 	andeq	r2, r0, lr, lsl #24
    2af0:	000db900 	andeq	fp, sp, r0, lsl #18
    2af4:	000db300 	andeq	fp, sp, r0, lsl #6
    2af8:	90f41100 	rscsls	r1, r4, r0, lsl #2
    2afc:	065e0000 	ldrbeq	r0, [lr], -r0
    2b00:	01120000 	tsteq	r2, r0
    2b04:	00740a50 	rsbseq	r0, r4, r0, asr sl
    2b08:	b4232535 	strtlt	r2, [r3], #-1333	; 0xfffffacb
    2b0c:	02818080 	addeq	r8, r1, #128, 0	; 0x80
    2b10:	c1130000 	tstgt	r3, r0
    2b14:	01000005 	tsteq	r0, r5
    2b18:	90b0064a 	adcsls	r0, r0, sl, asr #12
    2b1c:	00300000 	eorseq	r0, r0, r0
    2b20:	9c010000 	stcls	0, cr0, [r1], {-0}
    2b24:	00000275 	andeq	r0, r0, r5, ror r2
    2b28:	6e69700e 	cdpvs	0, 6, cr7, cr9, cr14, {0}
    2b2c:	1a4a0100 	bne	1282f34 <__bss_end__+0x1278384>
    2b30:	0000002c 	andeq	r0, r0, ip, lsr #32
    2b34:	00000df6 	strdeq	r0, [r0], -r6
    2b38:	00000dea 	andeq	r0, r0, sl, ror #27
    2b3c:	0100760e 	tsteq	r0, lr, lsl #12
    2b40:	002c284a 	eoreq	r2, ip, sl, asr #16
    2b44:	0e4a0000 	cdpeq	0, 4, cr0, cr10, cr0, {0}
    2b48:	0e460000 	cdpeq	0, 4, cr0, cr6, cr0, {0}
    2b4c:	8d140000 	ldchi	0, cr0, [r4, #-0]
    2b50:	c0000003 	andgt	r0, r0, r3
    2b54:	01000090 	swpeq	r0, r0, [r0]	; <UNPREDICTABLE>
    2b58:	000000d8 	ldrdeq	r0, [r0], -r8
    2b5c:	35094c01 	strcc	r4, [r9, #-3073]	; 0xfffff3ff
    2b60:	15000002 	strne	r0, [r0, #-2]
    2b64:	0000039a 	muleq	r0, sl, r3
    2b68:	00000e71 	andeq	r0, r0, r1, ror lr
    2b6c:	00000e6b 	andeq	r0, r0, fp, ror #28
    2b70:	0090cc16 	addseq	ip, r0, r6, lsl ip
    2b74:	00066a00 	andeq	r6, r6, r0, lsl #20
    2b78:	50011200 	andpl	r1, r1, r0, lsl #4
    2b7c:	001c0c05 	andseq	r0, ip, r5, lsl #24
    2b80:	01122020 	tsteq	r2, r0, lsr #32
    2b84:	f3310551 	vqrshl.u64	q0, <illegal reg q0.5>, <illegal reg q0.5>
    2b88:	00245001 	eoreq	r5, r4, r1
    2b8c:	03731700 	cmneq	r3, #0, 14
    2b90:	90cc0000 	sbcls	r0, ip, r0
    2b94:	cc020000 	stcgt	0, cr0, [r2], {-0}
    2b98:	14000090 	strne	r0, [r0], #-144	; 0xffffff70
    2b9c:	01000000 	mrseq	r0, (UNDEF: 0)
    2ba0:	8015094e 	andshi	r0, r5, lr, asr #18
    2ba4:	a3000003 	movwge	r0, #3
    2ba8:	9d00000e 	stcls	0, cr0, [r0, #-56]	; 0xffffffc8
    2bac:	1600000e 	strne	r0, [r0], -lr
    2bb0:	000090d8 	ldrdeq	r9, [r0], -r8
    2bb4:	0000066a 	andeq	r0, r0, sl, ror #12
    2bb8:	05500112 	ldrbeq	r0, [r0, #-274]	; 0xfffffeee
    2bbc:	2000280c 	andcs	r2, r0, ip, lsl #16
    2bc0:	51011220 	tstpl	r1, r0, lsr #4
    2bc4:	01f33105 	mvnseq	r3, r5, lsl #2
    2bc8:	00002450 	andeq	r2, r0, r0, asr r4
    2bcc:	05f91300 	ldrbeq	r1, [r9, #768]!	; 0x300
    2bd0:	45010000 	strmi	r0, [r1, #-0]
    2bd4:	00905806 	addseq	r5, r0, r6, lsl #16
    2bd8:	00005800 	andeq	r5, r0, r0, lsl #16
    2bdc:	739c0100 	orrsvc	r0, ip, #0
    2be0:	0e000003 	cdpeq	0, 0, cr0, cr0, cr3, {0}
    2be4:	006e6970 	rsbeq	r6, lr, r0, ror r9
    2be8:	2c1e4501 	cfldr32cs	mvfx4, [lr], {1}
    2bec:	d5000000 	strle	r0, [r0, #-0]
    2bf0:	cf00000e 	svcgt	0x0000000e
    2bf4:	1800000e 	stmdane	r0, {r1, r2, r3}
    2bf8:	000004a5 	andeq	r0, r0, r5, lsr #9
    2bfc:	00009058 	andeq	r9, r0, r8, asr r0
    2c00:	00009802 	andeq	r9, r0, r2, lsl #16
    2c04:	05460100 	strbeq	r0, [r6, #-256]	; 0xffffff00
    2c08:	0004be19 	andeq	fp, r4, r9, lsl lr
    2c0c:	b2150000 	andslt	r0, r5, #0, 0
    2c10:	07000004 	streq	r0, [r0, -r4]
    2c14:	0100000f 	tsteq	r0, pc
    2c18:	1a00000f 	bne	2c5c <__code_start__-0x53a4>
    2c1c:	00000098 	muleq	r0, r8, r0
    2c20:	0004ca1b 	andeq	ip, r4, fp, lsl sl
    2c24:	04d61b00 	ldrbeq	r1, [r6], #2816	; 0xb00
    2c28:	e01b0000 	ands	r0, fp, r0
    2c2c:	18000004 	stmdane	r0, {r2}
    2c30:	000004a5 	andeq	r0, r0, r5, lsr #9
    2c34:	00009060 	andeq	r9, r0, r0, rrx
    2c38:	0000b800 	andeq	fp, r0, r0, lsl #16
    2c3c:	06280100 	strteq	r0, [r8], -r0, lsl #2
    2c40:	0004be19 	andeq	fp, r4, r9, lsl lr
    2c44:	b2150000 	andslt	r0, r5, #0, 0
    2c48:	39000004 	stmdbcc	r0, {r2}
    2c4c:	3300000f 	movwcc	r0, #15
    2c50:	1a00000f 	bne	2c94 <__code_start__-0x536c>
    2c54:	000000b8 	strheq	r0, [r0], -r8
    2c58:	0004ca1c 	andeq	ip, r4, ip, lsl sl
    2c5c:	000f6b00 	andeq	r6, pc, r0, lsl #22
    2c60:	000f6500 	andeq	r6, pc, r0, lsl #10
    2c64:	04d61c00 	ldrbeq	r1, [r6], #3072	; 0xc00
    2c68:	0fad0000 	svceq	0x00ad0000
    2c6c:	0fa70000 	svceq	0x00a70000
    2c70:	e01c0000 	ands	r0, ip, r0
    2c74:	03000004 	movweq	r0, #4
    2c78:	fb000010 	blx	2cc2 <__code_start__-0x533e>
    2c7c:	1d00000f 	stcne	0, cr0, [r0, #-60]	; 0xffffffc4
    2c80:	00009088 	andeq	r9, r0, r8, lsl #1
    2c84:	0000065e 	andeq	r0, r0, lr, asr r6
    2c88:	0000033b 	andeq	r0, r0, fp, lsr r3
    2c8c:	02500112 	subseq	r0, r0, #-2147483644	; 0x80000004
    2c90:	16000076 			; <UNDEFINED> instruction: 0x16000076
    2c94:	000090ac 	andeq	r9, r0, ip, lsr #1
    2c98:	0000066a 	andeq	r0, r0, sl, ror #12
    2c9c:	25500112 	ldrbcs	r0, [r0, #-274]	; 0xfffffeee
    2ca0:	f75001f3 			; <UNDEFINED> instruction: 0xf75001f3
    2ca4:	f425f72c 	vld1.8	{d15}, [r5 :128], ip
    2ca8:	cccd0825 	stclgt	8, cr0, [sp], {37}	; 0x25
    2cac:	0000cccc 	andeq	ip, r0, ip, asr #25
    2cb0:	081e0000 	ldmdaeq	lr, {}	; <UNPREDICTABLE>
    2cb4:	2525f720 	strcs	pc, [r5, #-1824]!	; 0xfffff8e0
    2cb8:	00f72cf7 	ldrshteq	r2, [r7], #199	; 0xc7
    2cbc:	80232533 	eorhi	r2, r3, r3, lsr r5
    2cc0:	3240a080 	subcc	sl, r0, #128, 0	; 0x80
    2cc4:	00000024 	andeq	r0, r0, r4, lsr #32
    2cc8:	1e000000 	cdpne	0, 0, cr0, cr0, cr0, {0}
    2ccc:	00000608 	andeq	r0, r0, r8, lsl #12
    2cd0:	030d4001 	movweq	r4, #53249	; 0xd001
    2cd4:	0000038d 	andeq	r0, r0, sp, lsl #7
    2cd8:	6e69701f 	mcrvs	0, 3, r7, cr9, cr15, {0}
    2cdc:	23400100 	movtcs	r0, #256	; 0x100
    2ce0:	0000002c 	andeq	r0, r0, ip, lsr #32
    2ce4:	07371e00 	ldreq	r1, [r7, -r0, lsl #28]!
    2ce8:	3b010000 	blcc	42cf0 <__bss_end__+0x38140>
    2cec:	03a7030d 			; <UNDEFINED> instruction: 0x03a7030d
    2cf0:	701f0000 	andsvc	r0, pc, r0
    2cf4:	01006e69 	tsteq	r0, r9, ror #28
    2cf8:	002c223b 	eoreq	r2, ip, fp, lsr r2
    2cfc:	13000000 	movwne	r0, #0
    2d00:	00000615 	andeq	r0, r0, r5, lsl r6
    2d04:	d0063601 	andle	r3, r6, r1, lsl #12
    2d08:	5800008f 	stmdapl	r0, {r0, r1, r2, r3, r7}
    2d0c:	01000000 	mrseq	r0, (UNDEF: 0)
    2d10:	0004a59c 	muleq	r4, ip, r5
    2d14:	69700e00 	ldmdbvs	r0!, {r9, sl, fp}^
    2d18:	3601006e 	strcc	r0, [r1], -lr, rrx
    2d1c:	00002c1f 	andeq	r2, r0, pc, lsl ip
    2d20:	00106100 	andseq	r6, r0, r0, lsl #2
    2d24:	00105d00 	andseq	r5, r0, r0, lsl #26
    2d28:	04a51800 	strteq	r1, [r5], #2048	; 0x800
    2d2c:	8fd00000 	svchi	0x00d00000
    2d30:	58020000 	stmdapl	r2, {}	; <UNPREDICTABLE>
    2d34:	01000000 	mrseq	r0, (UNDEF: 0)
    2d38:	be190537 	mrclt	5, 0, r0, cr9, cr7, {1}
    2d3c:	01000004 	tsteq	r0, r4
    2d40:	0004b215 	andeq	fp, r4, r5, lsl r2
    2d44:	00108600 	andseq	r8, r0, r0, lsl #12
    2d48:	00108200 	andseq	r8, r0, r0, lsl #4
    2d4c:	00581a00 	subseq	r1, r8, r0, lsl #20
    2d50:	ca1b0000 	bgt	6c2d58 <__bss_end__+0x6b81a8>
    2d54:	1b000004 	blne	2d6c <__code_start__-0x5294>
    2d58:	000004d6 	ldrdeq	r0, [r0], -r6
    2d5c:	0004e01b 	andeq	lr, r4, fp, lsl r0
    2d60:	04a51800 	strteq	r1, [r5], #2048	; 0x800
    2d64:	8fd80000 	svchi	0x00d80000
    2d68:	78000000 	stmdavc	r0, {}	; <UNPREDICTABLE>
    2d6c:	01000000 	mrseq	r0, (UNDEF: 0)
    2d70:	be190628 	cfmsub32lt	mvax1, mvfx0, mvfx9, mvfx8
    2d74:	01000004 	tsteq	r0, r4
    2d78:	0004b215 	andeq	fp, r4, r5, lsl r2
    2d7c:	0010ab00 	andseq	sl, r0, r0, lsl #22
    2d80:	0010a700 	andseq	sl, r0, r0, lsl #14
    2d84:	00781a00 	rsbseq	r1, r8, r0, lsl #20
    2d88:	ca1c0000 	bgt	702d90 <__bss_end__+0x6f81e0>
    2d8c:	d0000004 	andle	r0, r0, r4
    2d90:	cc000010 	stcgt	0, cr0, [r0], {16}
    2d94:	1c000010 	stcne	0, cr0, [r0], {16}
    2d98:	000004d6 	ldrdeq	r0, [r0], -r6
    2d9c:	0000111c 	andeq	r1, r0, ip, lsl r1
    2da0:	00001116 	andeq	r1, r0, r6, lsl r1
    2da4:	0004e01c 	andeq	lr, r4, ip, lsl r0
    2da8:	00117200 	andseq	r7, r1, r0, lsl #4
    2dac:	00116a00 	andseq	r6, r1, r0, lsl #20
    2db0:	90041d00 	andls	r1, r4, r0, lsl #26
    2db4:	065e0000 	ldrbeq	r0, [lr], -r0
    2db8:	046d0000 	strbteq	r0, [sp], #-0
    2dbc:	01120000 	tsteq	r2, r0
    2dc0:	00750250 	rsbseq	r0, r5, r0, asr r2
    2dc4:	90241600 	eorls	r1, r4, r0, lsl #12
    2dc8:	066a0000 	strbteq	r0, [sl], -r0
    2dcc:	01120000 	tsteq	r2, r0
    2dd0:	01f32550 	mvnseq	r2, r0, asr r5
    2dd4:	f72cf750 			; <UNDEFINED> instruction: 0xf72cf750
    2dd8:	0825f425 	stmdaeq	r5!, {r0, r2, r5, sl, ip, sp, lr, pc}
    2ddc:	cccccccd 	stclgt	12, cr12, [ip], {205}	; 0xcd
    2de0:	00000000 	andeq	r0, r0, r0
    2de4:	f720081e 			; <UNDEFINED> instruction: 0xf720081e
    2de8:	2cf72525 	cfldr64cs	mvdx2, [r7], #148	; 0x94
    2dec:	253300f7 	ldrcs	r0, [r3, #-247]!	; 0xffffff09
    2df0:	a0808023 	addge	r8, r0, r3, lsr #32
    2df4:	00243240 	eoreq	r3, r4, r0, asr #4
    2df8:	00000000 	andeq	r0, r0, r0
    2dfc:	05111e00 	ldreq	r1, [r1, #-3584]	; 0xfffff200
    2e00:	28010000 	stmdacs	r1, {}	; <UNPREDICTABLE>
    2e04:	04eb0106 	strbteq	r0, [fp], #262	; 0x106
    2e08:	701f0000 	andsvc	r0, pc, r0
    2e0c:	01006e69 	tsteq	r0, r9, ror #28
    2e10:	002c2128 	eoreq	r2, ip, r8, lsr #2
    2e14:	25200000 	strcs	r0, [r0, #-0]!
    2e18:	01000006 	tsteq	r0, r6
    2e1c:	010f3228 	tsteq	pc, r8, lsr #4
    2e20:	6f210000 	svcvs	0x00210000
    2e24:	01006666 	tsteq	r0, r6, ror #12
    2e28:	002c0e2d 	eoreq	r0, ip, sp, lsr #28
    2e2c:	67210000 	strvs	r0, [r1, -r0]!
    2e30:	0e2e0100 	sufeqe	f0, f6, f0
    2e34:	0000002c 	andeq	r0, r0, ip, lsr #32
    2e38:	01007621 	tsteq	r0, r1, lsr #12
    2e3c:	002c0e30 	eoreq	r0, ip, r0, lsr lr
    2e40:	22000000 	andcs	r0, r0, #0, 0
    2e44:	000005cc 	andeq	r0, r0, ip, asr #11
    2e48:	6918b602 	ldmdbvs	r8, {r1, r9, sl, ip, sp, pc}
    2e4c:	03000000 	movweq	r0, #0
    2e50:	00000507 	andeq	r0, r0, r7, lsl #10
    2e54:	0200781f 	andeq	r7, r0, #2031616	; 0x1f0000
    2e58:	00692bb6 	strhteq	r2, [r9], #-182	; 0xffffff4a
    2e5c:	23000000 	movwcs	r0, #0
    2e60:	000004a5 	andeq	r0, r0, r5, lsr #9
    2e64:	00008f70 	andeq	r8, r0, r0, ror pc
    2e68:	00000060 	andeq	r0, r0, r0, rrx
    2e6c:	05e49c01 	strbeq	r9, [r4, #3073]!	; 0xc01
    2e70:	b2150000 	andslt	r0, r5, #0, 0
    2e74:	b1000004 	tstlt	r0, r4
    2e78:	ad000011 	stcge	0, cr0, [r0, #-68]	; 0xffffffbc
    2e7c:	15000011 	strne	r0, [r0, #-17]	; 0xffffffef
    2e80:	000004be 			; <UNDEFINED> instruction: 0x000004be
    2e84:	000011d6 	ldrdeq	r1, [r0], -r6
    2e88:	000011d2 	ldrdeq	r1, [r0], -r2
    2e8c:	0004ca1b 	andeq	ip, r4, fp, lsl sl
    2e90:	04d61b00 	ldrbeq	r1, [r6], #2816	; 0xb00
    2e94:	e01b0000 	ands	r0, fp, r0
    2e98:	18000004 	stmdane	r0, {r2}
    2e9c:	000004a5 	andeq	r0, r0, r5, lsr #9
    2ea0:	00008f78 	andeq	r8, r0, r8, ror pc
    2ea4:	00003800 	andeq	r3, r0, r0, lsl #16
    2ea8:	06280100 	strteq	r0, [r8], -r0, lsl #2
    2eac:	0004be15 	andeq	fp, r4, r5, lsl lr
    2eb0:	0011fb00 	andseq	pc, r1, r0, lsl #22
    2eb4:	0011f700 	andseq	pc, r1, r0, lsl #14
    2eb8:	04b21500 	ldrteq	r1, [r2], #1280	; 0x500
    2ebc:	12200000 	eorne	r0, r0, #0, 0
    2ec0:	121c0000 	andsne	r0, ip, #0, 0
    2ec4:	381a0000 	ldmdacc	sl, {}	; <UNPREDICTABLE>
    2ec8:	1c000000 	stcne	0, cr0, [r0], {-0}
    2ecc:	000004ca 	andeq	r0, r0, sl, asr #9
    2ed0:	00001245 	andeq	r1, r0, r5, asr #4
    2ed4:	00001241 	andeq	r1, r0, r1, asr #4
    2ed8:	0004d61c 	andeq	sp, r4, ip, lsl r6
    2edc:	00129100 	andseq	r9, r2, r0, lsl #2
    2ee0:	00128b00 	andseq	r8, r2, r0, lsl #22
    2ee4:	04e01c00 	strbteq	r1, [r0], #3072	; 0xc00
    2ee8:	12e70000 	rscne	r0, r7, #0, 0
    2eec:	12df0000 	sbcsne	r0, pc, #0, 0
    2ef0:	b01d0000 	andslt	r0, sp, r0
    2ef4:	5e00008f 	cdppl	0, 0, cr0, cr0, cr15, {4}
    2ef8:	ae000006 	cdpge	0, 0, cr0, cr0, cr6, {0}
    2efc:	12000005 	andne	r0, r0, #5, 0
    2f00:	76025001 	strvc	r5, [r2], -r1
    2f04:	cc160000 	ldcgt	0, cr0, [r6], {-0}
    2f08:	6a00008f 	bvs	314c <__code_start__-0x4eb4>
    2f0c:	12000006 	andne	r0, r0, #6, 0
    2f10:	f3255001 	vhadd.u32	d5, d5, d1
    2f14:	2cf75001 	ldclcs	0, cr5, [r7], #4
    2f18:	25f425f7 	ldrbcs	r2, [r4, #1527]!	; 0x5f7
    2f1c:	cccccd08 	stclgt	13, cr12, [ip], {8}
    2f20:	000000cc 	andeq	r0, r0, ip, asr #1
    2f24:	20081e00 	andcs	r1, r8, r0, lsl #28
    2f28:	f72525f7 			; <UNDEFINED> instruction: 0xf72525f7
    2f2c:	3300f72c 	movwcc	pc, #1836	; 0x72c	; <UNPREDICTABLE>
    2f30:	80802325 	addhi	r2, r0, r5, lsr #6
    2f34:	243240a0 	ldrtcs	r4, [r2], #-160	; 0xffffff60
    2f38:	00000000 	andeq	r0, r0, r0
    2f3c:	00038d23 	andeq	r8, r3, r3, lsr #26
    2f40:	00902800 	addseq	r2, r0, r0, lsl #16
    2f44:	00001800 	andeq	r1, r0, r0, lsl #16
    2f48:	219c0100 	orrscs	r0, ip, r0, lsl #2
    2f4c:	15000006 	strne	r0, [r0, #-6]
    2f50:	0000039a 	muleq	r0, sl, r3
    2f54:	0000133d 	andeq	r1, r0, sp, lsr r3
    2f58:	00001337 	andeq	r1, r0, r7, lsr r3
    2f5c:	00903c16 	addseq	r3, r0, r6, lsl ip
    2f60:	00066a00 	andeq	r6, r6, r0, lsl #20
    2f64:	50011200 	andpl	r1, r1, r0, lsl #4
    2f68:	001c0c05 	andseq	r0, ip, r5, lsl #24
    2f6c:	01122020 	tsteq	r2, r0, lsr #32
    2f70:	f3310551 	vqrshl.u64	q0, <illegal reg q0.5>, <illegal reg q0.5>
    2f74:	00245001 	eoreq	r5, r4, r1
    2f78:	03732300 	cmneq	r3, #0, 6
    2f7c:	90400000 	subls	r0, r0, r0
    2f80:	00180000 	andseq	r0, r8, r0
    2f84:	9c010000 	stcls	0, cr0, [r1], {-0}
    2f88:	0000065e 	andeq	r0, r0, lr, asr r6
    2f8c:	00038015 	andeq	r8, r3, r5, lsl r0
    2f90:	00136f00 	andseq	r6, r3, r0, lsl #30
    2f94:	00136900 	andseq	r6, r3, r0, lsl #18
    2f98:	90541600 	subsls	r1, r4, r0, lsl #12
    2f9c:	066a0000 	strbteq	r0, [sl], -r0
    2fa0:	01120000 	tsteq	r2, r0
    2fa4:	280c0550 	stmdacs	ip, {r4, r6, r8, sl}
    2fa8:	12202000 	eorne	r2, r0, #0, 0
    2fac:	31055101 	tstcc	r5, r1, lsl #2
    2fb0:	245001f3 	ldrbcs	r0, [r0], #-499	; 0xfffffe0d
    2fb4:	e6240000 	strt	r0, [r4], -r0
    2fb8:	e6000005 	str	r0, [r0], -r5
    2fbc:	02000005 	andeq	r0, r0, #5, 0
    2fc0:	d6240ac7 	strtle	r0, [r4], -r7, asr #21
    2fc4:	d6000005 	strle	r0, [r0], -r5
    2fc8:	02000005 	andeq	r0, r0, #5, 0
    2fcc:	9d0006b2 	stcls	6, cr0, [r0, #-712]	; 0xfffffd38
    2fd0:	04000001 	streq	r0, [r0], #-1
    2fd4:	00085000 	andeq	r5, r8, r0
    2fd8:	36010400 	strcc	r0, [r1], -r0, lsl #8
    2fdc:	0c000006 	stceq	0, cr0, [r0], {6}
    2fe0:	00000766 	andeq	r0, r0, r6, ror #14
    2fe4:	00000710 	andeq	r0, r0, r0, lsl r7
    2fe8:	00009108 	andeq	r9, r0, r8, lsl #2
    2fec:	00000058 	andeq	r0, r0, r8, asr r0
    2ff0:	00000fde 	ldrdeq	r0, [r0], -lr
    2ff4:	00075202 	andeq	r5, r7, r2, lsl #4
    2ff8:	1b280200 	blne	a03800 <__bss_end__+0x9f8c50>
    2ffc:	00000031 	andeq	r0, r0, r1, lsr r0
    3000:	00077603 	andeq	r7, r7, r3, lsl #12
    3004:	00040400 	andeq	r0, r4, r0, lsl #8
    3008:	00000048 	andeq	r0, r0, r8, asr #32
    300c:	00076104 	andeq	r6, r7, r4, lsl #2
    3010:	00004800 	andeq	r4, r0, r0, lsl #16
    3014:	05000000 	streq	r0, [r0, #-0]
    3018:	07780204 	ldrbeq	r0, [r8, -r4, lsl #4]!
    301c:	63020000 	movwvs	r0, #8192	; 0x2000
    3020:	00002518 	andeq	r2, r0, r8, lsl r5
    3024:	05040600 	streq	r0, [r4, #-1536]	; 0xfffffa00
    3028:	00746e69 	rsbseq	r6, r4, r9, ror #28
    302c:	a0070407 	andge	r0, r7, r7, lsl #8
    3030:	07000001 	streq	r0, [r0, -r1]
    3034:	01750601 	cmneq	r5, r1, lsl #12
    3038:	02070000 	andeq	r0, r7, #0, 0
    303c:	00002e05 	andeq	r2, r0, r5, lsl #28
    3040:	05040700 	streq	r0, [r4, #-1792]	; 0xfffff900
    3044:	000000ff 	strdeq	r0, [r0], -pc	; <UNPREDICTABLE>
    3048:	fa050807 	blx	14506c <__bss_end__+0x13a4bc>
    304c:	07000000 	streq	r0, [r0, -r0]
    3050:	01730801 	cmneq	r3, r1, lsl #16
    3054:	02070000 	andeq	r0, r7, #0, 0
    3058:	0001ef07 	andeq	lr, r1, r7, lsl #30
    305c:	07040700 	streq	r0, [r4, -r0, lsl #14]
    3060:	0000019b 	muleq	r0, fp, r1
    3064:	96070807 	strls	r0, [r7], -r7, lsl #16
    3068:	08000001 	stmdaeq	r0, {r0}
    306c:	00000056 	andeq	r0, r0, r6, asr r0
    3070:	000000ab 	andeq	r0, r0, fp, lsr #1
    3074:	00005609 	andeq	r5, r0, r9, lsl #12
    3078:	5a0a0000 	bpl	283080 <__bss_end__+0x2784d0>
    307c:	03000000 	movweq	r0, #0
    3080:	00b70e1c 	adcseq	r0, r7, ip, lsl lr
    3084:	040b0000 	streq	r0, [fp], #-0
    3088:	0000009c 	muleq	r0, ip, r0
    308c:	00005608 	andeq	r5, r0, r8, lsl #12
    3090:	0000cc00 	andeq	ip, r0, r0, lsl #24
    3094:	00cc0900 	sbceq	r0, ip, r0, lsl #18
    3098:	0b000000 	bleq	30a0 <__code_start__-0x4f60>
    309c:	0000d904 	andeq	sp, r0, r4, lsl #18
    30a0:	08010700 	stmdaeq	r1, {r8, r9, sl}
    30a4:	0000017c 	andeq	r0, r0, ip, ror r1
    30a8:	0000d20c 	andeq	sp, r0, ip, lsl #4
    30ac:	07890a00 	streq	r0, [r9, r0, lsl #20]
    30b0:	21030000 	mrscs	r0, (UNDEF: 3)
    30b4:	0000ea0e 	andeq	lr, r0, lr, lsl #20
    30b8:	bd040b00 	vstrlt	d0, [r4, #-0]
    30bc:	0d000000 	stceq	0, cr0, [r0, #-0]
    30c0:	0000074b 	andeq	r0, r0, fp, asr #14
    30c4:	56050601 	strpl	r0, [r5], -r1, lsl #12
    30c8:	08000000 	stmdaeq	r0, {}	; <UNPREDICTABLE>
    30cc:	58000091 	stmdapl	r0, {r0, r4, r7}
    30d0:	01000000 	mrseq	r0, (UNDEF: 0)
    30d4:	0001839c 	muleq	r1, ip, r3
    30d8:	6d660e00 	stclvs	14, cr0, [r6, #-0]
    30dc:	06010074 			; <UNDEFINED> instruction: 0x06010074
    30e0:	0000cc18 	andeq	ip, r0, r8, lsl ip
    30e4:	70910200 	addsvc	r0, r1, r0, lsl #4
    30e8:	7562100f 	strbvc	r1, [r2, #-15]!
    30ec:	08010066 	stmdaeq	r1, {r1, r2, r5, r6}
    30f0:	00018311 	andeq	r8, r1, r1, lsl r3
    30f4:	a8030500 	stmdage	r3, {r8, sl}
    30f8:	110000a7 	smlatbne	r0, r7, r0, r0
    30fc:	00000743 	andeq	r0, r0, r3, asr #14
    3100:	4a0d0901 	bmi	34550c <__bss_end__+0x33a95c>
    3104:	02000000 	andeq	r0, r0, #0, 0
    3108:	73125c91 	tstvc	r2, #37120	; 0x9100
    310c:	0c01007a 	stceq	0, cr0, [r1], {122}	; 0x7a
    3110:	0000560d 	andeq	r5, r0, sp, lsl #12
    3114:	0013a100 	andseq	sl, r3, r0, lsl #2
    3118:	00139b00 	andseq	r9, r3, r0, lsl #22
    311c:	91301300 	teqls	r0, r0, lsl #6
    3120:	01940000 	orrseq	r0, r4, r0
    3124:	01760000 	cmneq	r6, r0
    3128:	01140000 	tsteq	r4, r0
    312c:	00750250 	rsbseq	r0, r5, r0, asr r2
    3130:	03510114 	cmpeq	r1, #5
    3134:	1404000a 	strne	r0, [r4], #-10
    3138:	91035201 	tstls	r3, r1, lsl #4
    313c:	01140648 	tsteq	r4, r8, asr #12
    3140:	4c910253 	lfmmi	f0, 4, [r1], {83}	; 0x53
    3144:	91441500 	cmpls	r4, r0, lsl #10
    3148:	01140000 	tsteq	r4, r0
    314c:	00750250 	rsbseq	r0, r5, r0, asr r2
    3150:	d2160000 	andsle	r0, r6, #0, 0
    3154:	94000000 	strls	r0, [r0], #-0
    3158:	17000001 	strne	r0, [r0, -r1]
    315c:	0000005d 	andeq	r0, r0, sp, asr r0
    3160:	180003ff 	stmdane	r0, {r0, r1, r2, r3, r4, r5, r6, r7, r8, r9}
    3164:	00000748 	andeq	r0, r0, r8, asr #14
    3168:	00000748 	andeq	r0, r0, r8, asr #14
    316c:	00050205 	andeq	r0, r5, r5, lsl #4
    3170:	000000f3 	strdeq	r0, [r0], -r3
    3174:	09920004 	ldmibeq	r2, {r2}
    3178:	01040000 	mrseq	r0, (UNDEF: 4)
    317c:	00000636 	andeq	r0, r0, r6, lsr r6
    3180:	00078e0c 	andeq	r8, r7, ip, lsl #28
    3184:	00071000 	andeq	r1, r7, r0
    3188:	00916000 	addseq	r6, r1, r0
    318c:	00003800 	andeq	r3, r0, r0, lsl #16
    3190:	00110200 	andseq	r0, r1, r0, lsl #4
    3194:	05040200 	streq	r0, [r4, #-512]	; 0xfffffe00
    3198:	00746e69 	rsbseq	r6, r4, r9, ror #28
    319c:	a0070403 	andge	r0, r7, r3, lsl #8
    31a0:	03000001 	movweq	r0, #1
    31a4:	01750601 	cmneq	r5, r1, lsl #12
    31a8:	02030000 	andeq	r0, r3, #0, 0
    31ac:	00002e05 	andeq	r2, r0, r5, lsl #28
    31b0:	05040300 	streq	r0, [r4, #-768]	; 0xfffffd00
    31b4:	000000ff 	strdeq	r0, [r0], -pc	; <UNPREDICTABLE>
    31b8:	fa050803 	blx	1451cc <__bss_end__+0x13a61c>
    31bc:	03000000 	movweq	r0, #0
    31c0:	01730801 	cmneq	r3, r1, lsl #16
    31c4:	02030000 	andeq	r0, r3, #0, 0
    31c8:	0001ef07 	andeq	lr, r1, r7, lsl #30
    31cc:	07040300 	streq	r0, [r4, -r0, lsl #6]
    31d0:	0000019b 	muleq	r0, fp, r1
    31d4:	96070803 	strls	r0, [r7], -r3, lsl #16
    31d8:	04000001 	streq	r0, [r0], #-1
    31dc:	00000025 	andeq	r0, r0, r5, lsr #32
    31e0:	0000007a 	andeq	r0, r0, sl, ror r0
    31e4:	00002505 	andeq	r2, r0, r5, lsl #10
    31e8:	5a060000 	bpl	1831f0 <__bss_end__+0x178640>
    31ec:	02000000 	andeq	r0, r0, #0, 0
    31f0:	00860e1c 	addeq	r0, r6, ip, lsl lr
    31f4:	04070000 	streq	r0, [r7], #-0
    31f8:	0000006b 	andeq	r0, r0, fp, rrx
    31fc:	00002504 	andeq	r2, r0, r4, lsl #10
    3200:	00009b00 	andeq	r9, r0, r0, lsl #22
    3204:	009b0500 	addseq	r0, fp, r0, lsl #10
    3208:	07000000 	streq	r0, [r0, -r0]
    320c:	0000a804 	andeq	sl, r0, r4, lsl #16
    3210:	08010300 	stmdaeq	r1, {r8, r9}
    3214:	0000017c 	andeq	r0, r0, ip, ror r1
    3218:	0000a108 	andeq	sl, r0, r8, lsl #2
    321c:	07890600 	streq	r0, [r9, r0, lsl #12]
    3220:	21020000 	mrscs	r0, (UNDEF: 2)
    3224:	0000b90e 	andeq	fp, r0, lr, lsl #18
    3228:	8c040700 	stchi	7, cr0, [r4], {-0}
    322c:	09000000 	stmdbeq	r0, {}	; <UNPREDICTABLE>
    3230:	000000ad 	andeq	r0, r0, sp, lsr #1
    3234:	05070c01 	streq	r0, [r7, #-3073]	; 0xfffff3ff
    3238:	00a79c03 	adceq	r9, r7, r3, lsl #24
    323c:	07800a00 	streq	r0, [r0, r0, lsl #20]
    3240:	04010000 	streq	r0, [r1], #-0
    3244:	00002505 	andeq	r2, r0, r5, lsl #10
    3248:	00916000 	addseq	r6, r1, r0
    324c:	00003800 	andeq	r3, r0, r0, lsl #16
    3250:	0b9c0100 	bleq	fe703658 <__bss_end__+0xfe6f8aa8>
    3254:	04010070 	streq	r0, [r1], #-112	; 0xffffff90
    3258:	00009b1f 	andeq	r9, r0, pc, lsl fp
    325c:	0013d200 	andseq	sp, r3, r0, lsl #4
    3260:	0013ca00 	andseq	ip, r3, r0, lsl #20
    3264:	7f000000 	svcvc	0x00000000
    3268:	0400000c 	streq	r0, [r0], #-12
    326c:	000a3000 	andeq	r3, sl, r0
    3270:	36010400 	strcc	r0, [r1], -r0, lsl #8
    3274:	0c000006 	stceq	0, cr0, [r0], {6}
    3278:	000007ad 	andeq	r0, r0, sp, lsr #15
    327c:	00000710 	andeq	r0, r0, r0, lsl r7
    3280:	00009198 	muleq	r0, r8, r1
    3284:	000009b4 			; <UNDEFINED> instruction: 0x000009b4
    3288:	000011a6 	andeq	r1, r0, r6, lsr #3
    328c:	96070802 	strls	r0, [r7], -r2, lsl #16
    3290:	02000001 	andeq	r0, r0, #1, 0
    3294:	01a00704 	lsleq	r0, r4, #14
    3298:	04030000 	streq	r0, [r3], #-0
    329c:	746e6905 	strbtvc	r6, [lr], #-2309	; 0xfffff6fb
    32a0:	06010200 	streq	r0, [r1], -r0, lsl #4
    32a4:	00000175 	andeq	r0, r0, r5, ror r1
    32a8:	2e050202 	cdpcs	2, 0, cr0, cr5, cr2, {0}
    32ac:	02000000 	andeq	r0, r0, #0, 0
    32b0:	00ff0504 	rscseq	r0, pc, r4, lsl #10
    32b4:	08020000 	stmdaeq	r2, {}	; <UNPREDICTABLE>
    32b8:	0000fa05 	andeq	pc, r0, r5, lsl #20
    32bc:	08010200 	stmdaeq	r1, {r9}
    32c0:	00000173 	andeq	r0, r0, r3, ror r1
    32c4:	ef070202 	svc	0x00070202
    32c8:	04000001 	streq	r0, [r0], #-1
    32cc:	000001ad 	andeq	r0, r0, sp, lsr #3
    32d0:	70193402 	andsvc	r3, r9, r2, lsl #8
    32d4:	02000000 	andeq	r0, r0, #0, 0
    32d8:	019b0704 	orrseq	r0, fp, r4, lsl #14
    32dc:	a4040000 	strge	r0, [r4], #-0
    32e0:	02000007 	andeq	r0, r0, #7, 0
    32e4:	00251937 	eoreq	r1, r5, r7, lsr r9
    32e8:	33050000 	movwcc	r0, #20480	; 0x5000
    32ec:	92000000 	andls	r0, r0, #0, 0
    32f0:	06000000 	streq	r0, [r0], -r0
    32f4:	00000033 	andeq	r0, r0, r3, lsr r0
    32f8:	005a0700 	subseq	r0, sl, r0, lsl #14
    32fc:	1c030000 	stcne	0, cr0, [r3], {-0}
    3300:	00009e0e 	andeq	r9, r0, lr, lsl #28
    3304:	83040800 	movwhi	r0, #18432	; 0x4800
    3308:	05000000 	streq	r0, [r0, #-0]
    330c:	00000033 	andeq	r0, r0, r3, lsr r0
    3310:	000000b3 	strheq	r0, [r0], -r3
    3314:	0000b306 	andeq	fp, r0, r6, lsl #6
    3318:	04080000 	streq	r0, [r8], #-0
    331c:	000000c0 	andeq	r0, r0, r0, asr #1
    3320:	7c080102 	stfvcs	f0, [r8], {2}
    3324:	09000001 	stmdbeq	r0, {r0}
    3328:	000000b9 	strheq	r0, [r0], -r9
    332c:	00078907 	andeq	r8, r7, r7, lsl #18
    3330:	0e210300 	cdpeq	3, 2, cr0, cr1, cr0, {0}
    3334:	000000d1 	ldrdeq	r0, [r0], -r1
    3338:	00a40408 	adceq	r0, r4, r8, lsl #8
    333c:	c0070000 	andgt	r0, r7, r0
    3340:	04000007 	streq	r0, [r0], #-7
    3344:	00b90d0b 	adcseq	r0, r9, fp, lsl #26
    3348:	49070000 	stmdbmi	r7, {}	; <UNPREDICTABLE>
    334c:	04000008 	streq	r0, [r0], #-8
    3350:	00b90d0c 	adcseq	r0, r9, ip, lsl #26
    3354:	cf070000 	svcgt	0x00070000
    3358:	04000007 	streq	r0, [r0], #-7
    335c:	00b90d0d 	adcseq	r0, r9, sp, lsl #26
    3360:	01070000 	mrseq	r0, (UNDEF: 7)
    3364:	04000008 	streq	r0, [r0], #-8
    3368:	00b90d0e 	adcseq	r0, r9, lr, lsl #26
    336c:	72070000 	andvc	r0, r7, #0, 0
    3370:	04000008 	streq	r0, [r0], #-8
    3374:	00b90d0f 	adcseq	r0, r9, pc, lsl #26
    3378:	e3070000 	movw	r0, #28672	; 0x7000
    337c:	04000007 	streq	r0, [r0], #-7
    3380:	00b90d10 	adcseq	r0, r9, r0, lsl sp
    3384:	81070000 	mrshi	r0, (UNDEF: 7)
    3388:	04000008 	streq	r0, [r0], #-8
    338c:	00b90d11 	adcseq	r0, r9, r1, lsl sp
    3390:	0d070000 	stceq	0, cr0, [r7, #-0]
    3394:	04000008 	streq	r0, [r0], #-8
    3398:	00b90d12 	adcseq	r0, r9, r2, lsl sp
    339c:	52040000 	andpl	r0, r4, #0, 0
    33a0:	05000007 	streq	r0, [r0, #-7]
    33a4:	01431b28 	cmpeq	r3, r8, lsr #22
    33a8:	760a0000 	strvc	r0, [sl], -r0
    33ac:	04000007 	streq	r0, [r0], #-7
    33b0:	015a0006 	cmpeq	sl, r6
    33b4:	610b0000 	mrsvs	r0, (UNDEF: 11)
    33b8:	5a000007 	bpl	33dc <__code_start__-0x4c24>
    33bc:	00000001 	andeq	r0, r0, r1
    33c0:	04040c00 	streq	r0, [r4], #-3072	; 0xfffff400
    33c4:	00000778 	andeq	r0, r0, r8, ror r7
    33c8:	37186305 	ldrcc	r6, [r8, -r5, lsl #6]
    33cc:	0d000001 	stceq	0, cr0, [r0, #-4]
    33d0:	00000748 	andeq	r0, r0, r8, asr #14
    33d4:	33058101 	movwcc	r8, #20737	; 0x5101
    33d8:	20000000 	andcs	r0, r0, r0
    33dc:	2c000095 	stccs	0, cr0, [r0], {149}	; 0x95
    33e0:	01000006 	tsteq	r0, r6
    33e4:	00086a9c 	muleq	r8, ip, sl
    33e8:	75620e00 	strbvc	r0, [r2, #-3584]!	; 0xfffff200
    33ec:	81010066 	tsthi	r1, r6, rrx
    33f0:	00086a15 	andeq	r6, r8, r5, lsl sl
    33f4:	00141200 	andseq	r1, r4, r0, lsl #4
    33f8:	00140800 	andseq	r0, r4, r0, lsl #16
    33fc:	006e0e00 	rsbeq	r0, lr, r0, lsl #28
    3400:	331e8101 	tstcc	lr, #1073741824	; 0x40000000
    3404:	5f000000 	svcpl	0x00000000
    3408:	57000014 	smladpl	r0, r4, r0, r0
    340c:	0e000014 	mcreq	0, 0, r0, cr0, cr4, {0}
    3410:	00746d66 	rsbseq	r6, r4, r6, ror #26
    3414:	b32d8101 			; <UNDEFINED> instruction: 0xb32d8101
    3418:	b1000000 	mrslt	r0, (UNDEF: 0)
    341c:	99000014 	stmdbls	r0, {r2, r4}
    3420:	0f000014 	svceq	0x00000014
    3424:	00000743 	andeq	r0, r0, r3, asr #14
    3428:	5c3a8101 	ldfpld	f0, [sl], #-4
    342c:	75000001 	strvc	r0, [r0, #-1]
    3430:	45000015 	strmi	r0, [r0, #-21]	; 0xffffffeb
    3434:	10000015 	andne	r0, r0, r5, lsl r0
    3438:	82010070 	andhi	r0, r1, #112, 0	; 0x70
    343c:	00086a08 	andeq	r6, r8, r8, lsl #20
    3440:	0016d500 	andseq	sp, r6, r0, lsl #10
    3444:	0016bf00 	andseq	fp, r6, r0, lsl #30
    3448:	00651000 	rsbeq	r1, r5, r0
    344c:	6a128201 	bvs	4a3c58 <__bss_end__+0x4990a8>
    3450:	5e000008 	cdppl	0, 0, cr0, cr0, cr8, {0}
    3454:	5c000017 	stcpl	0, cr0, [r0], {23}
    3458:	10000017 	andne	r0, r0, r7, lsl r0
    345c:	01003078 	tsteq	r0, r8, ror r0
    3460:	00640e83 	rsbeq	r0, r4, r3, lsl #29
    3464:	17770000 	ldrbne	r0, [r7, -r0]!
    3468:	17710000 	ldrbne	r0, [r1, -r0]!
    346c:	78100000 	ldmdavc	r0, {}	; <UNPREDICTABLE>
    3470:	83010031 	movwhi	r0, #4145	; 0x1031
    3474:	00006411 	andeq	r6, r0, r1, lsl r4
    3478:	0017a600 	andseq	sl, r7, r0, lsl #12
    347c:	0017a000 	andseq	sl, r7, r0
    3480:	082b1100 	stmdaeq	fp!, {r8, ip}
    3484:	86010000 	strhi	r0, [r1], -r0
    3488:	0000b311 	andeq	fp, r0, r1, lsl r3
    348c:	0017d700 	andseq	sp, r7, r0, lsl #14
    3490:	0017cf00 	andseq	ip, r7, r0, lsl #30
    3494:	01221200 			; <UNDEFINED> instruction: 0x01221200
    3498:	08800000 	stmeq	r0, {}	; <UNPREDICTABLE>
    349c:	03050000 	movweq	r0, #20480	; 0x5000
    34a0:	0000a768 	andeq	sl, r0, r8, ror #14
    34a4:	00015813 	andeq	r5, r1, r3, lsl r8
    34a8:	00731000 	rsbseq	r1, r3, r0
    34ac:	6a0a9101 	bvs	2a78b8 <__bss_end__+0x29cd08>
    34b0:	1d000008 	stcne	0, cr0, [r0, #-32]	; 0xffffffe0
    34b4:	11000018 	tstne	r0, r8, lsl r0
    34b8:	14000018 	strne	r0, [r0], #-24	; 0xffffffe8
    34bc:	006d756e 	rsbeq	r7, sp, lr, ror #10
    34c0:	850d9101 	strhi	r9, [sp, #-257]	; 0xfffffeff
    34c4:	03000008 	movweq	r0, #8
    34c8:	157dd891 	ldrbne	sp, [sp, #-2193]!	; 0xfffff76f
    34cc:	0000088e 	andeq	r0, r0, lr, lsl #17
    34d0:	85179101 	ldrhi	r9, [r7, #-257]	; 0xfffffeff
    34d4:	03000008 	movweq	r0, #8
    34d8:	117ed891 			; <UNDEFINED> instruction: 0x117ed891
    34dc:	000007dd 	ldrdeq	r0, [r0], -sp
    34e0:	2c0d9201 	sfmcs	f1, 1, [sp], {1}
    34e4:	6f000000 	svcvs	0x00000000
    34e8:	67000018 	smladvs	r0, r8, r0, r0
    34ec:	16000018 			; <UNDEFINED> instruction: 0x16000018
    34f0:	00000180 	andeq	r0, r0, r0, lsl #3
    34f4:	000004f1 	strdeq	r0, [r0], -r1
    34f8:	00797410 	rsbseq	r7, r9, r0, lsl r4
    34fc:	b31d9e01 	tstlt	sp, #1, 28
    3500:	b0000000 	andlt	r0, r0, r0
    3504:	a4000018 	strge	r0, [r0], #-24	; 0xffffffe8
    3508:	14000018 	strne	r0, [r0], #-24	; 0xffffffe8
    350c:	01007878 	tsteq	r0, r8, ror r8
    3510:	00771aa2 	rsbseq	r1, r7, r2, lsr #21
    3514:	59060000 	stmdbpl	r6, {}	; <UNPREDICTABLE>
    3518:	935b0493 	cmpls	fp, #-1828716544	; 0x93000000
    351c:	96ac1704 	strtls	r1, [ip], r4, lsl #14
    3520:	0c3a0000 	ldceq	0, cr0, [sl], #-0
    3524:	02d80000 	sbcseq	r0, r8, #0, 0
    3528:	01180000 	tsteq	r8, r0
    352c:	00760250 	rsbseq	r0, r6, r0, asr r2
    3530:	05510118 	ldrbeq	r0, [r1, #-280]	; 0xfffffee8
    3534:	00a65c03 	adceq	r5, r6, r3, lsl #24
    3538:	52011800 	andpl	r1, r1, #0, 16
    353c:	17003301 	strne	r3, [r0, -r1, lsl #6]
    3540:	000096c4 	andeq	r9, r0, r4, asr #13
    3544:	00000c3a 	andeq	r0, r0, sl, lsr ip
    3548:	000002fa 	strdeq	r0, [r0], -sl
    354c:	02500118 	subseq	r0, r0, #6
    3550:	01180076 	tsteq	r8, r6, ror r0
    3554:	70030551 	andvc	r0, r3, r1, asr r5
    3558:	180000a6 	stmdane	r0, {r1, r2, r5, r7}
    355c:	33015201 	movwcc	r5, #4609	; 0x1201
    3560:	96e81700 	strbtls	r1, [r8], r0, lsl #14
    3564:	0c460000 	mareq	acc0, r0, r6
    3568:	03170000 	tsteq	r7, #0, 0
    356c:	01180000 	tsteq	r8, r0
    3570:	60030550 	andvs	r0, r3, r0, asr r5
    3574:	180000a6 	stmdane	r0, {r1, r2, r5, r7}
    3578:	7b025101 	blvc	97984 <__bss_end__+0x8cdd4>
    357c:	f4170000 			; <UNDEFINED> instruction: 0xf4170000
    3580:	46000096 			; <UNDEFINED> instruction: 0x46000096
    3584:	3400000c 	strcc	r0, [r0], #-12
    3588:	18000003 	stmdane	r0, {r0, r1}
    358c:	03055001 	movweq	r5, #20481	; 0x5001
    3590:	0000a668 	andeq	sl, r0, r8, ror #12
    3594:	02510118 	subseq	r0, r1, #6
    3598:	17000079 	smlsdxne	r0, r9, r0, r0
    359c:	00009704 	andeq	r9, r0, r4, lsl #14
    35a0:	00000c3a 	andeq	r0, r0, sl, lsr ip
    35a4:	00000356 	andeq	r0, r0, r6, asr r3
    35a8:	02500118 	subseq	r0, r0, #6
    35ac:	01180076 	tsteq	r8, r6, ror r0
    35b0:	5c030551 	cfstr32pl	mvfx0, [r3], {81}	; 0x51
    35b4:	180000a6 	stmdane	r0, {r1, r2, r5, r7}
    35b8:	33015201 	movwcc	r5, #4609	; 0x1201
    35bc:	97341700 	ldrls	r1, [r4, -r0, lsl #14]!
    35c0:	0aa40000 	beq	fe9035c8 <__bss_end__+0xfe8f8a18>
    35c4:	03830000 	orreq	r0, r3, #0, 0
    35c8:	01180000 	tsteq	r8, r0
    35cc:	18400150 	stmdane	r0, {r4, r6, r8}^
    35d0:	91035101 	tstls	r3, r1, lsl #2
    35d4:	01187dd0 			; <UNDEFINED> instruction: 0x01187dd0
    35d8:	007b0252 	rsbseq	r0, fp, r2, asr r2
    35dc:	02530118 	subseq	r0, r3, #6
    35e0:	02180075 	andseq	r0, r8, #117, 0	; 0x75
    35e4:	7602007d 			; <UNDEFINED> instruction: 0x7602007d
    35e8:	54170000 	ldrpl	r0, [r7], #-0
    35ec:	a4000097 	strge	r0, [r0], #-151	; 0xffffff69
    35f0:	aa00000a 	bge	3620 <__code_start__-0x49e0>
    35f4:	18000003 	stmdane	r0, {r0, r1}
    35f8:	40015001 	andmi	r5, r1, r1
    35fc:	03510118 	cmpeq	r1, #6
    3600:	187ed091 	ldmdane	lr!, {r0, r4, r7, ip, lr, pc}^
    3604:	79025201 	stmdbvc	r2, {r0, r9, ip, lr}
    3608:	7d021800 	stcvc	8, cr1, [r2, #-0]
    360c:	00760200 	rsbseq	r0, r6, r0, lsl #4
    3610:	97641700 	strbls	r1, [r4, -r0, lsl #14]!
    3614:	0c520000 	mraeq	r0, r2, acc0
    3618:	03c60000 	biceq	r0, r6, #0, 0
    361c:	01180000 	tsteq	r8, r0
    3620:	d0910350 	addsle	r0, r1, r0, asr r3
    3624:	5101187d 	tstpl	r1, sp, ror r8
    3628:	7ed29103 	atnvcs	f1, f3
    362c:	99a81700 	stmibls	r8!, {r8, r9, sl, ip}
    3630:	0c3a0000 	ldceq	0, cr0, [sl], #-0
    3634:	03e80000 	mvneq	r0, #0, 0
    3638:	01180000 	tsteq	r8, r0
    363c:	00760250 	rsbseq	r0, r6, r0, asr r2
    3640:	05510118 	ldrbeq	r0, [r1, #-280]	; 0xfffffee8
    3644:	00a67003 	adceq	r7, r6, r3
    3648:	52011800 	andpl	r1, r1, #0, 16
    364c:	17003301 	strne	r3, [r0, -r1, lsl #6]
    3650:	000099cc 	andeq	r9, r0, ip, asr #19
    3654:	00000aa4 	andeq	r0, r0, r4, lsr #21
    3658:	00000415 	andeq	r0, r0, r5, lsl r4
    365c:	01500118 	cmpeq	r0, r8, lsl r1
    3660:	5101183a 	tstpl	r1, sl, lsr r8
    3664:	7dd09103 	ldfvcp	f1, [r0, #12]
    3668:	02520118 	subseq	r0, r2, #6
    366c:	0118007b 	tsteq	r8, fp, ror r0
    3670:	00750253 	rsbseq	r0, r5, r3, asr r2
    3674:	007d0218 	rsbseq	r0, sp, r8, lsl r2
    3678:	00007602 	andeq	r7, r0, r2, lsl #12
    367c:	0099ec17 	addseq	lr, r9, r7, lsl ip
    3680:	000aa400 	andeq	sl, sl, r0, lsl #8
    3684:	00043c00 	andeq	r3, r4, r0, lsl #24
    3688:	50011800 	andpl	r1, r1, r0, lsl #16
    368c:	01183a01 	tsteq	r8, r1, lsl #20
    3690:	d0910351 	addsle	r0, r1, r1, asr r3
    3694:	5201187e 	andpl	r1, r1, #8257536	; 0x7e0000
    3698:	18007902 	stmdane	r0, {r1, r8, fp, ip, sp, lr}
    369c:	02007d02 	andeq	r7, r0, #128	; 0x80
    36a0:	17000076 	smlsdxne	r0, r6, r0, r0
    36a4:	000099f8 	strdeq	r9, [r0], -r8
    36a8:	00000c5e 	andeq	r0, r0, lr, asr ip
    36ac:	0000045a 	andeq	r0, r0, sl, asr r4
    36b0:	03500118 	cmpeq	r0, #6
    36b4:	187dd091 	ldmdane	sp!, {r0, r4, r7, ip, lr, pc}^
    36b8:	03055101 	movweq	r5, #20737	; 0x5101
    36bc:	0000a504 	andeq	sl, r0, r4, lsl #10
    36c0:	9a0c1700 	bls	3092c8 <__bss_end__+0x2fe718>
    36c4:	0c6a0000 	stcleq	0, cr0, [sl], #-0
    36c8:	04760000 	ldrbteq	r0, [r6], #-0
    36cc:	01180000 	tsteq	r8, r0
    36d0:	d0910350 	addsle	r0, r1, r0, asr r3
    36d4:	5101187d 	tstpl	r1, sp, ror r8
    36d8:	7ed09103 	atnvcs	f1, f3
    36dc:	9a181900 	bls	609ae4 <__bss_end__+0x5fef34>
    36e0:	0c520000 	mraeq	r0, r2, acc0
    36e4:	dc170000 	ldcle	0, cr0, [r7], {-0}
    36e8:	4600009a 			; <UNDEFINED> instruction: 0x4600009a
    36ec:	a800000c 	stmdage	r0, {r2, r3}
    36f0:	18000004 	stmdane	r0, {r2}
    36f4:	03055001 	movweq	r5, #20481	; 0x5001
    36f8:	0000a2b8 			; <UNDEFINED> instruction: 0x0000a2b8
    36fc:	05510118 	ldrbeq	r0, [r1, #-280]	; 0xfffffee8
    3700:	00a61003 	adceq	r1, r6, r3
    3704:	52011800 	andpl	r1, r1, #0, 16
    3708:	a7680305 	strbge	r0, [r8, -r5, lsl #6]!
    370c:	19000000 	stmdbne	r0, {}	; <UNPREDICTABLE>
    3710:	00009ae0 	andeq	r9, r0, r0, ror #21
    3714:	00000c76 	andeq	r0, r0, r6, ror ip
    3718:	009af817 	addseq	pc, sl, r7, lsl r8	; <UNPREDICTABLE>
    371c:	000c4600 	andeq	r4, ip, r0, lsl #12
    3720:	0004e700 	andeq	lr, r4, r0, lsl #14
    3724:	50011800 	andpl	r1, r1, r0, lsl #16
    3728:	a6b00305 	ldrtge	r0, [r0], r5, lsl #6
    372c:	01180000 	tsteq	r8, r0
    3730:	10030551 	andne	r0, r3, r1, asr r5
    3734:	180000a6 	stmdane	r0, {r1, r2, r5, r7}
    3738:	03055201 	movweq	r5, #20993	; 0x5201
    373c:	0000a768 	andeq	sl, r0, r8, ror #14
    3740:	02530118 	subseq	r0, r3, #6
    3744:	0218b608 	andseq	fp, r8, #8, 12	; 0x800000
    3748:	7602007d 			; <UNDEFINED> instruction: 0x7602007d
    374c:	fc190000 	ldc2	0, cr0, [r9], {-0}
    3750:	7600009a 			; <UNDEFINED> instruction: 0x7600009a
    3754:	0000000c 	andeq	r0, r0, ip
    3758:	0009e31a 	andeq	lr, r9, sl, lsl r3
    375c:	0095ac00 	addseq	sl, r5, r0, lsl #24
    3760:	a8000400 	stmdage	r0, {sl}
    3764:	01000001 	tsteq	r0, r1
    3768:	05150a94 	ldreq	r0, [r5, #-2708]	; 0xfffff56c
    376c:	f41b0000 			; <UNDEFINED> instruction: 0xf41b0000
    3770:	0c000009 	stceq	0, cr0, [r0], {9}
    3774:	08000019 	stmdaeq	r0, {r0, r3, r4}
    3778:	00000019 	andeq	r0, r0, r9, lsl r0
    377c:	0008951a 	andeq	r9, r8, sl, lsl r5
    3780:	00979400 	addseq	r9, r7, r0, lsl #8
    3784:	c8000100 	stmdagt	r0, {r8}
    3788:	01000001 	tsteq	r0, r1
    378c:	064b09dc 			; <UNDEFINED> instruction: 0x064b09dc
    3790:	be1b0000 	cdplt	0, 1, cr0, cr11, cr0, {0}
    3794:	3a000008 	bcc	37bc <__code_start__-0x4844>
    3798:	34000019 	strcc	r0, [r0], #-25	; 0xffffffe7
    379c:	1b000019 	blne	3808 <__code_start__-0x47f8>
    37a0:	000008e0 	andeq	r0, r0, r0, ror #17
    37a4:	0000196f 	andeq	r1, r0, pc, ror #18
    37a8:	00001969 	andeq	r1, r0, r9, ror #18
    37ac:	0008d41b 	andeq	sp, r8, fp, lsl r4
    37b0:	0019a100 	andseq	sl, r9, r0, lsl #2
    37b4:	00199b00 	andseq	r9, r9, r0, lsl #22
    37b8:	08c81c00 	stmiaeq	r8, {sl, fp, ip}^
    37bc:	b21b0000 	andslt	r0, fp, #0, 0
    37c0:	d2000008 	andle	r0, r0, #8, 0
    37c4:	ca000019 	bgt	3830 <__code_start__-0x47d0>
    37c8:	1b000019 	blne	3834 <__code_start__-0x47cc>
    37cc:	000008a6 	andeq	r0, r0, r6, lsr #17
    37d0:	00001a15 	andeq	r1, r0, r5, lsl sl
    37d4:	00001a0f 	andeq	r1, r0, pc, lsl #20
    37d8:	0001c813 	andeq	ip, r1, r3, lsl r8
    37dc:	08ec1d00 	stmiaeq	ip!, {r8, sl, fp, ip}^
    37e0:	91030000 	mrsls	r0, (UNDEF: 3)
    37e4:	f81e7ed8 			; <UNDEFINED> instruction: 0xf81e7ed8
    37e8:	4f000008 	svcmi	0x00000008
    37ec:	4100001a 	tstmi	r0, sl, lsl r0
    37f0:	1f00001a 	svcne	0x0000001a
    37f4:	00000902 	andeq	r0, r0, r2, lsl #18
    37f8:	0009a31a 	andeq	sl, r9, sl, lsl r3
    37fc:	0097a000 	addseq	sl, r7, r0
    3800:	f8000400 			; <UNDEFINED> instruction: 0xf8000400
    3804:	01000001 	tsteq	r0, r1
    3808:	05e2097c 	strbeq	r0, [r2, #2428]!	; 0x97c
    380c:	ca1b0000 	bgt	6c3814 <__bss_end__+0x6b8c64>
    3810:	b9000009 	stmdblt	r0, {r0, r3}
    3814:	b300001a 	movwlt	r0, #26
    3818:	1b00001a 	blne	3888 <__code_start__-0x4778>
    381c:	000009be 			; <UNDEFINED> instruction: 0x000009be
    3820:	00001aee 	andeq	r1, r0, lr, ror #21
    3824:	00001ae2 	andeq	r1, r0, r2, ror #21
    3828:	0009b41b 	andeq	fp, r9, fp, lsl r4
    382c:	001b5400 	andseq	r5, fp, r0, lsl #8
    3830:	001b4400 	andseq	r4, fp, r0, lsl #8
    3834:	01f81300 	mvnseq	r1, r0, lsl #6
    3838:	d61e0000 	ldrle	r0, [lr], -r0
    383c:	d1000009 	tstle	r0, r9
    3840:	c300001b 	movwgt	r0, #27
    3844:	0000001b 	andeq	r0, r0, fp, lsl r0
    3848:	094f2000 	stmdbeq	pc, {sp}^	; <UNPREDICTABLE>
    384c:	98680000 	stmdals	r8!, {}^	; <UNPREDICTABLE>
    3850:	00020000 	andeq	r0, r2, r0
    3854:	00000228 	andeq	r0, r0, r8, lsr #4
    3858:	1b097c01 	blne	262864 <__bss_end__+0x257cb4>
    385c:	00000980 	andeq	r0, r0, r0, lsl #19
    3860:	00001c31 	andeq	r1, r0, r1, lsr ip
    3864:	00001c2b 	andeq	r1, r0, fp, lsr #24
    3868:	0009761b 	andeq	r7, r9, fp, lsl r6
    386c:	001c6700 	andseq	r6, ip, r0, lsl #14
    3870:	001c5d00 	andseq	r5, ip, r0, lsl #26
    3874:	096c1b00 	stmdbeq	ip!, {r8, r9, fp, ip}^
    3878:	1cb60000 	ldcne	0, cr0, [r6]
    387c:	1cb20000 	ldcne	0, cr0, [r2]
    3880:	601b0000 	andsvs	r0, fp, r0
    3884:	e6000009 	str	r0, [r0], -r9
    3888:	d800001c 	stmdale	r0, {r2, r3, r4}
    388c:	1300001c 	movwne	r0, #28
    3890:	00000228 	andeq	r0, r0, r8, lsr #4
    3894:	00098c1e 	andeq	r8, r9, lr, lsl ip
    3898:	001d4b00 	andseq	r4, sp, r0, lsl #22
    389c:	001d4900 	andseq	r4, sp, r0, lsl #18
    38a0:	09981e00 	ldmibeq	r8, {r9, sl, fp, ip}
    38a4:	1d650000 	stclne	0, cr0, [r5, #-0]
    38a8:	1d5f0000 	ldclne	0, cr0, [pc, #-0]	; 38b0 <__code_start__-0x4750>
    38ac:	00000000 	andeq	r0, r0, r0
    38b0:	951a0000 	ldrls	r0, [sl, #-0]
    38b4:	a4000008 	strge	r0, [r0], #-8
    38b8:	00000098 	muleq	r0, r8, r0
    38bc:	00025800 	andeq	r5, r2, r0, lsl #16
    38c0:	09d60100 	ldmibeq	r6, {r8}^
    38c4:	00000789 	andeq	r0, r0, r9, lsl #15
    38c8:	0008be1b 	andeq	fp, r8, fp, lsl lr
    38cc:	001d9800 	andseq	r9, sp, r0, lsl #16
    38d0:	001d9400 	andseq	r9, sp, r0, lsl #8
    38d4:	08e01b00 	stmiaeq	r0!, {r8, r9, fp, ip}^
    38d8:	1dbe0000 	ldcne	0, cr0, [lr]
    38dc:	1dba0000 	ldcne	0, cr0, [sl]
    38e0:	d41b0000 	ldrle	r0, [fp], #-0
    38e4:	e2000008 	and	r0, r0, #8, 0
    38e8:	de00001d 	mcrle	0, 0, r0, cr0, cr13, {0}
    38ec:	1c00001d 	stcne	0, cr0, [r0], {29}
    38f0:	000008c8 	andeq	r0, r0, r8, asr #17
    38f4:	0008b21b 	andeq	fp, r8, fp, lsl r2
    38f8:	001e0600 	andseq	r0, lr, r0, lsl #12
    38fc:	001e0000 	andseq	r0, lr, r0
    3900:	08a61b00 	stmiaeq	r6!, {r8, r9, fp, ip}
    3904:	1e390000 	cdpne	0, 3, cr0, cr9, cr0, {0}
    3908:	1e350000 	cdpne	0, 3, cr0, cr5, cr0, {0}
    390c:	58130000 	ldmdapl	r3, {}	; <UNPREDICTABLE>
    3910:	1d000002 	stcne	0, cr0, [r0, #-8]
    3914:	000008ec 	andeq	r0, r0, ip, ror #17
    3918:	7ed89103 	atnvce	f1, f3
    391c:	0008f81e 	andeq	pc, r8, lr, lsl r8	; <UNPREDICTABLE>
    3920:	001e6300 	andseq	r6, lr, r0, lsl #6
    3924:	001e5900 	andseq	r5, lr, r0, lsl #18
    3928:	09021e00 	stmdbeq	r2, {r9, sl, fp, ip}
    392c:	1ea80000 	cdpne	0, 10, cr0, cr8, cr0, {0}
    3930:	1ea40000 	cdpne	0, 10, cr0, cr4, cr0, {0}
    3934:	a31a0000 	tstge	sl, #0, 0
    3938:	c0000009 	andgt	r0, r0, r9
    393c:	03000098 	movweq	r0, #152	; 0x98
    3940:	00027800 	andeq	r7, r2, r0, lsl #16
    3944:	097c0100 	ldmdbeq	ip!, {r8}^
    3948:	00000720 	andeq	r0, r0, r0, lsr #14
    394c:	0009ca1b 	andeq	ip, r9, fp, lsl sl
    3950:	001eca00 	andseq	ip, lr, r0, lsl #20
    3954:	001ec600 	andseq	ip, lr, r0, lsl #12
    3958:	09be1b00 	ldmibeq	lr!, {r8, r9, fp, ip}
    395c:	1eec0000 	cdpne	0, 14, cr0, cr12, cr0, {0}
    3960:	1ee80000 	cdpne	0, 14, cr0, cr8, cr0, {0}
    3964:	b41b0000 	ldrlt	r0, [fp], #-0
    3968:	16000009 	strne	r0, [r0], -r9
    396c:	0a00001f 	beq	39f0 <__code_start__-0x4610>
    3970:	1300001f 	movwne	r0, #31
    3974:	00000278 	andeq	r0, r0, r8, ror r2
    3978:	0009d61e 	andeq	sp, r9, lr, lsl r6
    397c:	001f7200 	andseq	r7, pc, r0, lsl #4
    3980:	001f6600 	andseq	r6, pc, r0, lsl #12
    3984:	20000000 	andcs	r0, r0, r0
    3988:	0000094f 	andeq	r0, r0, pc, asr #18
    398c:	00009948 	andeq	r9, r0, r8, asr #18
    3990:	02a00002 	adceq	r0, r0, #2, 0
    3994:	7c010000 	stcvc	0, cr0, [r1], {-0}
    3998:	09801b09 	stmibeq	r0, {r0, r3, r8, r9, fp, ip}
    399c:	1fc20000 	svcne	0x00c20000
    39a0:	1fbe0000 	svcne	0x00be0000
    39a4:	761b0000 	ldrvc	r0, [fp], -r0
    39a8:	ea000009 	b	39d4 <__code_start__-0x462c>
    39ac:	e000001f 	and	r0, r0, pc, lsl r0
    39b0:	1b00001f 	blne	3a34 <__code_start__-0x45cc>
    39b4:	0000096c 	andeq	r0, r0, ip, ror #18
    39b8:	00002036 	andeq	r2, r0, r6, lsr r0
    39bc:	00002032 	andeq	r2, r0, r2, lsr r0
    39c0:	0009601b 	andeq	r6, r9, fp, lsl r0
    39c4:	00206400 	eoreq	r6, r0, r0, lsl #8
    39c8:	00205800 	eoreq	r5, r0, r0, lsl #16
    39cc:	02a01300 	adceq	r1, r0, #0, 6
    39d0:	8c1e0000 	ldchi	0, cr0, [lr], {-0}
    39d4:	be000009 	cdplt	0, 0, cr0, cr0, cr9, {0}
    39d8:	ba000020 	blt	3a60 <__code_start__-0x45a0>
    39dc:	1e000020 	cdpne	0, 0, cr0, cr0, cr0, {1}
    39e0:	00000998 	muleq	r0, r8, r9
    39e4:	000020e4 	andeq	r2, r0, r4, ror #1
    39e8:	000020e0 	andeq	r2, r0, r0, ror #1
    39ec:	00000000 	andeq	r0, r0, r0
    39f0:	00967417 	addseq	r7, r6, r7, lsl r4
    39f4:	000aa400 	andeq	sl, sl, r0, lsl #8
    39f8:	0007af00 	andeq	sl, r7, r0, lsl #30
    39fc:	50011800 	andpl	r1, r1, r0, lsl #16
    3a00:	01184001 	tsteq	r8, r1
    3a04:	d0910351 	addsle	r0, r1, r1, asr r3
    3a08:	5301187d 	movwpl	r1, #6269	; 0x187d
    3a0c:	18007502 	stmdane	r0, {r1, r8, sl, ip, sp, lr}
    3a10:	01007d02 	tsteq	r0, r2, lsl #26
    3a14:	84170030 	ldrhi	r0, [r7], #-48	; 0xffffffd0
    3a18:	a4000097 	strge	r0, [r0], #-151	; 0xffffff69
    3a1c:	cf00000a 	svcgt	0x0000000a
    3a20:	18000007 	stmdane	r0, {r0, r1, r2}
    3a24:	3a015001 	bcc	57a30 <__bss_end__+0x4ce80>
    3a28:	03510118 	cmpeq	r1, #6
    3a2c:	187dd091 	ldmdane	sp!, {r0, r4, r7, ip, lr, pc}^
    3a30:	75025301 	strvc	r5, [r2, #-769]	; 0xfffffcff
    3a34:	68170000 	ldmdavs	r7, {}	; <UNPREDICTABLE>
    3a38:	4600009a 			; <UNDEFINED> instruction: 0x4600009a
    3a3c:	e600000c 	str	r0, [r0], -ip
    3a40:	18000007 	stmdane	r0, {r0, r1, r2}
    3a44:	03055001 	movweq	r5, #20481	; 0x5001
    3a48:	0000a700 	andeq	sl, r0, r0, lsl #14
    3a4c:	9a782100 	bls	1e0be54 <__bss_end__+0x1e012a4>
    3a50:	07f80000 	ldrbeq	r0, [r8, r0]!
    3a54:	01180000 	tsteq	r8, r0
    3a58:	c8910450 	ldmgt	r1, {r4, r6, sl}
    3a5c:	1700067d 	smlsdxne	r0, sp, r6, r0
    3a60:	00009a8c 	andeq	r9, r0, ip, lsl #21
    3a64:	00000c46 	andeq	r0, r0, r6, asr #24
    3a68:	00000827 	andeq	r0, r0, r7, lsr #16
    3a6c:	05500118 	ldrbeq	r0, [r0, #-280]	; 0xfffffee8
    3a70:	00a73003 	adceq	r3, r7, r3
    3a74:	51011800 	tstpl	r1, r0, lsl #16
    3a78:	a6100305 	ldrge	r0, [r0], -r5, lsl #6
    3a7c:	01180000 	tsteq	r8, r0
    3a80:	68030552 	stmdavs	r3, {r1, r4, r6, r8, sl}
    3a84:	180000a7 	stmdane	r0, {r0, r1, r2, r5, r7}
    3a88:	08025301 	stmdaeq	r2, {r0, r8, r9, ip, lr}
    3a8c:	901900e2 	andsls	r0, r9, r2, ror #1
    3a90:	7600009a 			; <UNDEFINED> instruction: 0x7600009a
    3a94:	1700000c 	strne	r0, [r0, -ip]
    3a98:	00009aa4 	andeq	r9, r0, r4, lsr #21
    3a9c:	00000c46 	andeq	r0, r0, r6, asr #24
    3aa0:	0000085f 	andeq	r0, r0, pc, asr r8
    3aa4:	05500118 	ldrbeq	r0, [r0, #-280]	; 0xfffffee8
    3aa8:	00a6d803 	adceq	sp, r6, r3, lsl #16
    3aac:	51011800 	tstpl	r1, r0, lsl #16
    3ab0:	a6100305 	ldrge	r0, [r0], -r5, lsl #6
    3ab4:	01180000 	tsteq	r8, r0
    3ab8:	68030552 	stmdavs	r3, {r1, r4, r6, r8, sl}
    3abc:	180000a7 	stmdane	r0, {r0, r1, r2, r5, r7}
    3ac0:	08025301 	stmdaeq	r2, {r0, r8, r9, ip, lr}
    3ac4:	a81900be 	ldmdage	r9, {r1, r2, r3, r4, r5, r7}
    3ac8:	7600009a 			; <UNDEFINED> instruction: 0x7600009a
    3acc:	0000000c 	andeq	r0, r0, ip
    3ad0:	b9040800 	stmdblt	r4, {fp}
    3ad4:	22000000 	andcs	r0, r0, #0, 0
    3ad8:	000000c0 	andeq	r0, r0, r0, asr #1
    3adc:	00000880 	andeq	r0, r0, r0, lsl #17
    3ae0:	00002c23 	andeq	r2, r0, r3, lsr #24
    3ae4:	09000900 	stmdbeq	r0, {r8, fp}
    3ae8:	00000870 	andeq	r0, r0, r0, ror r8
    3aec:	0000b922 	andeq	fp, r0, r2, lsr #18
    3af0:	00089500 	andeq	r9, r8, r0, lsl #10
    3af4:	002c2300 	eoreq	r2, ip, r0, lsl #6
    3af8:	007f0000 	rsbseq	r0, pc, r0
    3afc:	00085624 	andeq	r5, r8, r4, lsr #12
    3b00:	01490100 	mrseq	r0, (UNDEF: 89)
    3b04:	0000086a 	andeq	r0, r0, sl, ror #16
    3b08:	00092a01 	andeq	r2, r9, r1, lsl #20
    3b0c:	089b2500 	ldmeq	fp, {r8, sl, sp}
    3b10:	49010000 	stmdbmi	r1, {}	; <UNPREDICTABLE>
    3b14:	00002c0f 	andeq	r2, r0, pc, lsl #24
    3b18:	73642600 	cmnvc	r4, #0, 12
    3b1c:	49010074 	stmdbmi	r1, {r2, r4, r5, r6}
    3b20:	00086a1b 	andeq	r6, r8, fp, lsl sl
    3b24:	006e2600 	rsbeq	r2, lr, r0, lsl #12
    3b28:	33244901 			; <UNDEFINED> instruction: 0x33244901
    3b2c:	26000000 	strcs	r0, [r0], -r0
    3b30:	006c6176 	rsbeq	r6, ip, r6, ror r1
    3b34:	332b4901 			; <UNDEFINED> instruction: 0x332b4901
    3b38:	25000000 	strcs	r0, [r0, #-0]
    3b3c:	000007dd 	ldrdeq	r0, [r0], -sp
    3b40:	33344901 	teqcc	r4, #16384	; 0x4000
    3b44:	25000000 	strcs	r0, [r0, #-0]
    3b48:	000007f0 	strdeq	r0, [r0], -r0	; <UNPREDICTABLE>
    3b4c:	333f4901 	teqcc	pc, #16384	; 0x4000
    3b50:	27000000 	strcs	r0, [r0, -r0]
    3b54:	00667562 	rsbeq	r7, r6, r2, ror #10
    3b58:	2a074e01 	bcs	1d7364 <__bss_end__+0x1cc7b4>
    3b5c:	27000009 	strcs	r0, [r0, -r9]
    3b60:	4e010070 	mcrmi	0, 0, r0, cr1, cr0, {3}
    3b64:	00086a11 	andeq	r6, r8, r1, lsl sl
    3b68:	00752700 	rsbseq	r2, r5, r0, lsl #14
    3b6c:	2c0b4f01 	stccs	15, cr4, [fp], {1}
    3b70:	12000000 	andne	r0, r0, #0, 0
    3b74:	00000122 	andeq	r0, r0, r2, lsr #2
    3b78:	0000094a 	andeq	r0, r0, sl, asr #18
    3b7c:	a7500305 	ldrbge	r0, [r0, -r5, lsl #6]
    3b80:	29280000 	stmdbcs	r8!, {}	; <UNPREDICTABLE>
    3b84:	00000843 	andeq	r0, r0, r3, asr #16
    3b88:	2c0d5401 	cfstrscs	mvf5, [sp], {1}
    3b8c:	00000000 	andeq	r0, r0, r0
    3b90:	00b92200 	adcseq	r2, r9, r0, lsl #4
    3b94:	093a0000 	ldmdbeq	sl!, {}	; <UNPREDICTABLE>
    3b98:	2c230000 	stccs	0, cr0, [r3], #-0
    3b9c:	3f000000 	svccc	0x00000000
    3ba0:	00c02200 	sbceq	r2, r0, r0, lsl #4
    3ba4:	094a0000 	stmdbeq	sl, {}^	; <UNPREDICTABLE>
    3ba8:	2c230000 	stccs	0, cr0, [r3], #-0
    3bac:	04000000 	streq	r0, [r0], #-0
    3bb0:	093a0900 	ldmdbeq	sl!, {r8, fp}
    3bb4:	63240000 			; <UNDEFINED> instruction: 0x63240000
    3bb8:	01000008 	tsteq	r0, r8
    3bbc:	086a0e38 	stmdaeq	sl!, {r3, r4, r5, r9, sl, fp}^
    3bc0:	a3010000 	movwge	r0, #4096	; 0x1000
    3bc4:	26000009 	strcs	r0, [r0], -r9
    3bc8:	00747364 	rsbseq	r7, r4, r4, ror #6
    3bcc:	6a1c3801 	bvs	711bd8 <__bss_end__+0x707028>
    3bd0:	26000008 	strcs	r0, [r0], -r8
    3bd4:	3801006e 	stmdacc	r1, {r1, r2, r3, r5, r6}
    3bd8:	00003325 	andeq	r3, r0, r5, lsr #6
    3bdc:	00702600 	rsbseq	r2, r0, r0, lsl #12
    3be0:	6a2e3801 	bvs	b91bec <__bss_end__+0xb8703c>
    3be4:	25000008 	strcs	r0, [r0, #-8]
    3be8:	00000494 	muleq	r0, r4, r4
    3bec:	6a373801 	bvs	dd1bf8 <__bss_end__+0xdc7048>
    3bf0:	27000008 	strcs	r0, [r0, -r8]
    3bf4:	006e656c 	rsbeq	r6, lr, ip, ror #10
    3bf8:	33063a01 	movwcc	r3, #27137	; 0x6a01
    3bfc:	27000000 	strcs	r0, [r0, -r0]
    3c00:	3e010073 	mcrcc	0, 0, r0, cr1, cr3, {3}
    3c04:	00086a08 	andeq	r6, r8, r8, lsl #20
    3c08:	702a0000 	eorvc	r0, sl, r0
    3c0c:	01006461 	tsteq	r0, r1, ror #8
    3c10:	086a0e2e 	stmdaeq	sl!, {r1, r2, r3, r5, r9, sl, fp}^
    3c14:	e3010000 	movw	r0, #4096	; 0x1000
    3c18:	26000009 	strcs	r0, [r0], -r9
    3c1c:	2e010070 	mcrcs	0, 0, r0, cr1, cr0, {3}
    3c20:	00086a18 	andeq	r6, r8, r8, lsl sl
    3c24:	089b2500 	ldmeq	fp, {r8, sl, sp}
    3c28:	2e010000 	cdpcs	0, 0, cr0, cr1, cr0, {0}
    3c2c:	00086a22 	andeq	r6, r8, r2, lsr #20
    3c30:	07dd2500 	ldrbeq	r2, [sp, r0, lsl #10]
    3c34:	2e010000 	cdpcs	0, 0, cr0, cr1, cr0, {0}
    3c38:	0000332c 	andeq	r3, r0, ip, lsr #6
    3c3c:	656c2700 	strbvs	r2, [ip, #-1792]!	; 0xfffff900
    3c40:	2f01006e 	svccs	0x0001006e
    3c44:	00003306 	andeq	r3, r0, r6, lsl #6
    3c48:	9c240000 	stcls	0, cr0, [r4], #-0
    3c4c:	01000007 	tsteq	r0, r7
    3c50:	00330c27 	eorseq	r0, r3, r7, lsr #24
    3c54:	ff010000 			; <UNDEFINED> instruction: 0xff010000
    3c58:	26000009 	strcs	r0, [r0], -r9
    3c5c:	27010063 	strcs	r0, [r1, -r3, rrx]
    3c60:	00003318 	andeq	r3, r0, r8, lsl r3
    3c64:	1c2b0000 	stcne	0, cr0, [fp], #-0
    3c68:	01000008 	tsteq	r0, r8
    3c6c:	94c0061f 	strbls	r0, [r0], #1567	; 0x61f
    3c70:	00600000 	rsbeq	r0, r0, r0
    3c74:	9c010000 	stcls	0, cr0, [r1], {-0}
    3c78:	00000a8f 	andeq	r0, r0, pc, lsl #21
    3c7c:	0007f90f 	andeq	pc, r7, pc, lsl #18
    3c80:	1b1f0100 	blne	7c4088 <__bss_end__+0x7b94d8>
    3c84:	0000009e 	muleq	r0, lr, r0
    3c88:	00002109 	andeq	r2, r0, r9, lsl #2
    3c8c:	00002105 	andeq	r2, r0, r5, lsl #2
    3c90:	00085b0f 	andeq	r5, r8, pc, lsl #22
    3c94:	301f0100 	andscc	r0, pc, r0, lsl #2
    3c98:	000000d1 	ldrdeq	r0, [r0], -r1
    3c9c:	0000212e 	andeq	r2, r0, lr, lsr #2
    3ca0:	0000212a 	andeq	r2, r0, sl, lsr #2
    3ca4:	00012212 	andeq	r2, r1, r2, lsl r2
    3ca8:	000a9f00 	andeq	r9, sl, r0, lsl #30
    3cac:	58030500 	stmdapl	r3, {r8, sl}
    3cb0:	170000a7 	strne	r0, [r0, -r7, lsr #1]
    3cb4:	00009504 	andeq	r9, r0, r4, lsl #10
    3cb8:	00000c46 	andeq	r0, r0, r6, asr #24
    3cbc:	00000a85 	andeq	r0, r0, r5, lsl #21
    3cc0:	05500118 	ldrbeq	r0, [r0, #-280]	; 0xfffffee8
    3cc4:	00a2b803 	adceq	fp, r2, r3, lsl #16
    3cc8:	51011800 	tstpl	r1, r0, lsl #16
    3ccc:	a6100305 	ldrge	r0, [r0], -r5, lsl #6
    3cd0:	01180000 	tsteq	r8, r0
    3cd4:	58030552 	stmdapl	r3, {r1, r4, r6, r8, sl}
    3cd8:	180000a7 	stmdane	r0, {r0, r1, r2, r5, r7}
    3cdc:	08025301 	stmdaeq	r2, {r0, r8, r9, ip, lr}
    3ce0:	7d021820 	stcvc	8, cr1, [r2, #-128]	; 0xffffff80
    3ce4:	48030500 	stmdami	r3, {r8, sl}
    3ce8:	000000a6 	andeq	r0, r0, r6, lsr #1
    3cec:	00950819 	addseq	r0, r5, r9, lsl r8
    3cf0:	000c7600 	andeq	r7, ip, r0, lsl #12
    3cf4:	c0220000 	eorgt	r0, r2, r0
    3cf8:	9f000000 	svcls	0x00000000
    3cfc:	2300000a 	movwcs	r0, #10
    3d00:	0000002c 	andeq	r0, r0, ip, lsr #32
    3d04:	8f09000e 	svchi	0x0009000e
    3d08:	2c00000a 	stccs	0, cr0, [r0], {10}
    3d0c:	00000895 	muleq	r0, r5, r8
    3d10:	00009198 	muleq	r0, r8, r1
    3d14:	00000328 	andeq	r0, r0, r8, lsr #6
    3d18:	0c3a9c01 	ldceq	12, cr9, [sl], #-4
    3d1c:	a61b0000 	ldrge	r0, [fp], -r0
    3d20:	67000008 	strvs	r0, [r0, -r8]
    3d24:	4f000021 	svcmi	0x00000021
    3d28:	1b000021 	blne	3db4 <__code_start__-0x424c>
    3d2c:	000008b2 			; <UNDEFINED> instruction: 0x000008b2
    3d30:	00002211 	andeq	r2, r0, r1, lsl r2
    3d34:	00002209 	andeq	r2, r0, r9, lsl #4
    3d38:	0008c81b 	andeq	ip, r8, fp, lsl r8
    3d3c:	00226800 	eoreq	r6, r2, r0, lsl #16
    3d40:	00224800 	eoreq	r4, r2, r0, lsl #16
    3d44:	08d41b00 	ldmeq	r4, {r8, r9, fp, ip}^
    3d48:	233e0000 	teqcs	lr, #0, 0
    3d4c:	23300000 	teqcs	r0, #0, 0
    3d50:	e02d0000 	eor	r0, sp, r0
    3d54:	02000008 	andeq	r0, r0, #8, 0
    3d58:	ec1d0091 	ldc	0, cr0, [sp], {145}	; 0x91
    3d5c:	03000008 	movweq	r0, #8
    3d60:	1e7fa891 	mrcne	8, 3, sl, cr15, cr1, {4}
    3d64:	000008f8 	strdeq	r0, [r0], -r8
    3d68:	000023d2 	ldrdeq	r2, [r0], -r2	; <UNPREDICTABLE>
    3d6c:	0000239e 	muleq	r0, lr, r3
    3d70:	0009021e 	andeq	r0, r9, lr, lsl r2
    3d74:	00253900 	eoreq	r3, r5, r0, lsl #18
    3d78:	00251700 	eoreq	r1, r5, r0, lsl #14
    3d7c:	08be2e00 	ldmeq	lr!, {r9, sl, fp, sp}
    3d80:	1a800000 	bne	fe003d88 <__bss_end__+0xfdff91d8>
    3d84:	000009a3 	andeq	r0, r0, r3, lsr #19
    3d88:	0000923c 	andeq	r9, r0, ip, lsr r2
    3d8c:	00f00004 	rscseq	r0, r0, r4
    3d90:	7c010000 	stcvc	0, cr0, [r1], {-0}
    3d94:	000b6d09 	andeq	r6, fp, r9, lsl #26
    3d98:	09ca1b00 	stmibeq	sl, {r8, r9, fp, ip}^
    3d9c:	26210000 	strtcs	r0, [r1], -r0
    3da0:	26170000 	ldrcs	r0, [r7], -r0
    3da4:	be1b0000 	cdplt	0, 1, cr0, cr11, cr0, {0}
    3da8:	75000009 	strvc	r0, [r0, #-9]
    3dac:	65000026 	strvs	r0, [r0, #-38]	; 0xffffffda
    3db0:	1b000026 	blne	3e50 <__code_start__-0x41b0>
    3db4:	000009b4 			; <UNDEFINED> instruction: 0x000009b4
    3db8:	000026f5 	strdeq	r2, [r0], -r5
    3dbc:	000026e1 	andeq	r2, r0, r1, ror #13
    3dc0:	0000f013 	andeq	pc, r0, r3, lsl r0	; <UNPREDICTABLE>
    3dc4:	09d61e00 	ldmibeq	r6, {r9, sl, fp, ip}^
    3dc8:	27870000 	strcs	r0, [r7, r0]
    3dcc:	27770000 	ldrbcs	r0, [r7, -r0]!
    3dd0:	00000000 	andeq	r0, r0, r0
    3dd4:	00094f1a 	andeq	r4, r9, sl, lsl pc
    3dd8:	0092f400 	addseq	pc, r2, r0, lsl #8
    3ddc:	38000200 	stmdacc	r0, {r9}
    3de0:	01000001 	tsteq	r0, r1
    3de4:	0bd8097c 	bleq	ff6063dc <__bss_end__+0xff5fb82c>
    3de8:	801b0000 	andshi	r0, fp, r0
    3dec:	f3000009 	vhadd.u8	d0, d0, d9
    3df0:	eb000027 	bl	3e94 <__code_start__-0x416c>
    3df4:	1b000027 	blne	3e98 <__code_start__-0x4168>
    3df8:	00000976 	andeq	r0, r0, r6, ror r9
    3dfc:	00002832 	andeq	r2, r0, r2, lsr r8
    3e00:	0000282a 	andeq	r2, r0, sl, lsr #16
    3e04:	00096c1b 	andeq	r6, r9, fp, lsl ip
    3e08:	00287100 	eoreq	r7, r8, r0, lsl #2
    3e0c:	00286d00 	eoreq	r6, r8, r0, lsl #26
    3e10:	09601b00 	stmdbeq	r0!, {r8, r9, fp, ip}^
    3e14:	28a10000 	stmiacs	r1!, {}	; <UNPREDICTABLE>
    3e18:	28930000 	ldmcs	r3, {}	; <UNPREDICTABLE>
    3e1c:	38130000 	ldmdacc	r3, {}	; <UNPREDICTABLE>
    3e20:	1e000001 	cdpne	0, 0, cr0, cr0, cr1, {0}
    3e24:	0000098c 	andeq	r0, r0, ip, lsl #19
    3e28:	00002906 	andeq	r2, r0, r6, lsl #18
    3e2c:	00002900 	andeq	r2, r0, r0, lsl #18
    3e30:	0009981e 	andeq	r9, r9, lr, lsl r8
    3e34:	00293800 	eoreq	r3, r9, r0, lsl #16
    3e38:	00293400 	eoreq	r3, r9, r0, lsl #8
    3e3c:	2f000000 	svccs	0x00000000
    3e40:	0000091b 	andeq	r0, r0, fp, lsl r9
    3e44:	000093ac 	andeq	r9, r0, ip, lsr #7
    3e48:	00000060 	andeq	r0, r0, r0, rrx
    3e4c:	00000bf7 	strdeq	r0, [r0], -r7
    3e50:	00091c1e 	andeq	r1, r9, lr, lsl ip
    3e54:	00295a00 	eoreq	r5, r9, r0, lsl #20
    3e58:	00295600 	eoreq	r5, r9, r0, lsl #12
    3e5c:	80170000 	andshi	r0, r7, r0
    3e60:	46000094 			; <UNDEFINED> instruction: 0x46000094
    3e64:	3000000c 	andcc	r0, r0, ip
    3e68:	1800000c 	stmdane	r0, {r2, r3}
    3e6c:	03055001 	movweq	r5, #20481	; 0x5001
    3e70:	0000a2b8 			; <UNDEFINED> instruction: 0x0000a2b8
    3e74:	05510118 	ldrbeq	r0, [r1, #-280]	; 0xfffffee8
    3e78:	00a61003 	adceq	r1, r6, r3
    3e7c:	52011800 	andpl	r1, r1, #0, 16
    3e80:	a7500305 	ldrbge	r0, [r0, -r5, lsl #6]
    3e84:	01180000 	tsteq	r8, r0
    3e88:	79080253 	stmdbvc	r8, {r0, r1, r4, r6, r9}
    3e8c:	007d0218 	rsbseq	r0, sp, r8, lsl r2
    3e90:	a5040305 	strge	r0, [r4, #-773]	; 0xfffffcfb
    3e94:	19000000 	stmdbne	r0, {}	; <UNPREDICTABLE>
    3e98:	00009484 	andeq	r9, r0, r4, lsl #9
    3e9c:	00000c76 	andeq	r0, r0, r6, ror ip
    3ea0:	08933000 	ldmeq	r3, {ip, sp}
    3ea4:	08930000 	ldmeq	r3, {}	; <UNPREDICTABLE>
    3ea8:	f0030000 			; <UNDEFINED> instruction: 0xf0030000
    3eac:	074b3005 	strbeq	r3, [fp, -r5]
    3eb0:	074b0000 	strbeq	r0, [fp, -r0]
    3eb4:	28030000 	stmdacs	r3, {}	; <UNPREDICTABLE>
    3eb8:	08353006 	ldmdaeq	r5!, {r1, r2, ip, sp}
    3ebc:	08350000 	ldmdaeq	r5!, {}	; <UNPREDICTABLE>
    3ec0:	f3030000 	vhadd.u8	d0, d3, d0
    3ec4:	086b3007 	stmdaeq	fp!, {r0, r1, r2, ip, sp}^
    3ec8:	086b0000 	stmdaeq	fp!, {}^	; <UNPREDICTABLE>
    3ecc:	ef030000 	svc	0x00030000
    3ed0:	083c3005 	ldmdaeq	ip!, {r0, r2, ip, sp}
    3ed4:	083c0000 	ldmdaeq	ip!, {}	; <UNPREDICTABLE>
    3ed8:	f2030000 	vhadd.s8	d0, d3, d0
    3edc:	014b3007 	cmpeq	fp, r7
    3ee0:	014b0000 	mrseq	r0, (UNDEF: 75)
    3ee4:	6e030000 	cdpvs	0, 0, cr0, cr3, cr0, {0}
    3ee8:	012f0006 			; <UNDEFINED> instruction: 0x012f0006
    3eec:	00040000 	andeq	r0, r4, r0
    3ef0:	00000cd3 	ldrdeq	r0, [r0], -r3
    3ef4:	06360104 	ldrteq	r0, [r6], -r4, lsl #2
    3ef8:	ab0c0000 	blge	303f00 <__bss_end__+0x2f9350>
    3efc:	10000008 	andne	r0, r0, r8
    3f00:	4c000007 	stcmi	0, cr0, [r0], {7}
    3f04:	2c00009b 	stccs	0, cr0, [r0], {155}	; 0x9b
    3f08:	a4000000 	strge	r0, [r0], #-0
    3f0c:	0200001a 	andeq	r0, r0, #26, 0
    3f10:	6e690504 	cdpvs	5, 6, cr0, cr9, cr4, {0}
    3f14:	04030074 	streq	r0, [r3], #-116	; 0xffffff8c
    3f18:	0001a007 	andeq	sl, r1, r7
    3f1c:	06010300 	streq	r0, [r1], -r0, lsl #6
    3f20:	00000175 	andeq	r0, r0, r5, ror r1
    3f24:	2e050203 	cdpcs	2, 0, cr0, cr5, cr3, {0}
    3f28:	03000000 	movweq	r0, #0
    3f2c:	00ff0504 	rscseq	r0, pc, r4, lsl #10
    3f30:	08030000 	stmdaeq	r3, {}	; <UNPREDICTABLE>
    3f34:	0000fa05 	andeq	pc, r0, r5, lsl #20
    3f38:	08010300 	stmdaeq	r1, {r8, r9}
    3f3c:	00000173 	andeq	r0, r0, r3, ror r1
    3f40:	ef070203 	svc	0x00070203
    3f44:	03000001 	movweq	r0, #1
    3f48:	019b0704 	orrseq	r0, fp, r4, lsl #14
    3f4c:	08030000 	stmdaeq	r3, {}	; <UNPREDICTABLE>
    3f50:	00019607 	andeq	r9, r1, r7, lsl #12
    3f54:	00250400 	eoreq	r0, r5, r0, lsl #8
    3f58:	007a0000 	rsbseq	r0, sl, r0
    3f5c:	25050000 	strcs	r0, [r5, #-0]
    3f60:	00000000 	andeq	r0, r0, r0
    3f64:	00005a06 	andeq	r5, r0, r6, lsl #20
    3f68:	0e1c0200 	cdpeq	2, 1, cr0, cr12, cr0, {0}
    3f6c:	00000086 	andeq	r0, r0, r6, lsl #1
    3f70:	006b0407 	rsbeq	r0, fp, r7, lsl #8
    3f74:	25040000 	strcs	r0, [r4, #-0]
    3f78:	9b000000 	blls	3f80 <__code_start__-0x4080>
    3f7c:	05000000 	streq	r0, [r0, #-0]
    3f80:	0000009b 	muleq	r0, fp, r0
    3f84:	a8040700 	stmdage	r4, {r8, r9, sl}
    3f88:	03000000 	movweq	r0, #0
    3f8c:	017c0801 	cmneq	ip, r1, lsl #16
    3f90:	a1080000 	mrsge	r0, (UNDEF: 8)
    3f94:	06000000 	streq	r0, [r0], -r0
    3f98:	00000789 	andeq	r0, r0, r9, lsl #15
    3f9c:	b90e2102 	stmdblt	lr, {r1, r8, sp}
    3fa0:	07000000 	streq	r0, [r0, -r0]
    3fa4:	00008c04 	andeq	r8, r0, r4, lsl #24
    3fa8:	014b0900 	cmpeq	fp, r0, lsl #18
    3fac:	04010000 	streq	r0, [r1], #-0
    3fb0:	009b4c06 	addseq	r4, fp, r6, lsl #24
    3fb4:	00002c00 	andeq	r2, r0, r0, lsl #24
    3fb8:	0e9c0100 	fmleqe	f0, f4, f0
    3fbc:	0a000001 	beq	3fc8 <__code_start__-0x4038>
    3fc0:	00009b60 	andeq	r9, r0, r0, ror #22
    3fc4:	000000e8 	andeq	r0, r0, r8, ror #1
    3fc8:	0550010b 	ldrbeq	r0, [r0, #-267]	; 0xfffffef5
    3fcc:	00a77403 	adceq	r7, r7, r3, lsl #8
    3fd0:	640c0000 	strvs	r0, [ip], #-0
    3fd4:	0e00009b 	mcreq	0, 0, r0, cr0, cr11, {4}
    3fd8:	0d000001 	stceq	0, cr0, [r0, #-4]
    3fdc:	00009b6c 	andeq	r9, r0, ip, ror #22
    3fe0:	0000011a 	andeq	r0, r0, sl, lsl r1
    3fe4:	00000104 	andeq	r0, r0, r4, lsl #2
    3fe8:	0150010b 	cmpeq	r0, fp, lsl #2
    3fec:	700c003a 	andvc	r0, ip, sl, lsr r0
    3ff0:	2600009b 			; <UNDEFINED> instruction: 0x2600009b
    3ff4:	00000001 	andeq	r0, r0, r1
    3ff8:	0008c60e 	andeq	ip, r8, lr, lsl #12
    3ffc:	0008c600 	andeq	ip, r8, r0, lsl #12
    4000:	064d0200 	strbeq	r0, [sp], -r0, lsl #4
    4004:	0000090e 	andeq	r0, r0, lr, lsl #18
    4008:	00000900 	andeq	r0, r0, r0, lsl #18
    400c:	06580200 	ldrbeq	r0, [r8], -r0, lsl #4
    4010:	0008a00e 	andeq	sl, r8, lr
    4014:	0008a000 	andeq	sl, r8, r0
    4018:	066b0200 	strbteq	r0, [fp], -r0, lsl #4
    401c:	0002b100 	andeq	fp, r2, r0, lsl #2
    4020:	93000400 	movwls	r0, #1024	; 0x400
    4024:	0400000d 	streq	r0, [r0], #-13
    4028:	00063601 	andeq	r3, r6, r1, lsl #12
    402c:	08fc0c00 	ldmeq	ip!, {sl, fp}^
    4030:	07100000 	ldreq	r0, [r0, -r0]
    4034:	9b780000 	blls	1e0403c <__bss_end__+0x1df948c>
    4038:	01280000 			; <UNDEFINED> instruction: 0x01280000
    403c:	1b2f0000 	blne	bc4044 <__bss_end__+0xbb9494>
    4040:	04020000 	streq	r0, [r2], #-0
    4044:	746e6905 	strbtvc	r6, [lr], #-2309	; 0xfffff6fb
    4048:	07040300 	streq	r0, [r4, -r0, lsl #6]
    404c:	000001a0 	andeq	r0, r0, r0, lsr #3
    4050:	75060103 	strvc	r0, [r6, #-259]	; 0xfffffefd
    4054:	03000001 	movweq	r0, #1
    4058:	002e0502 	eoreq	r0, lr, r2, lsl #10
    405c:	04030000 	streq	r0, [r3], #-0
    4060:	0000ff05 	andeq	pc, r0, r5, lsl #30
    4064:	05080300 	streq	r0, [r8, #-768]	; 0xfffffd00
    4068:	000000fa 	strdeq	r0, [r0], -sl
    406c:	73080103 	movwvc	r0, #33027	; 0x8103
    4070:	03000001 	movweq	r0, #1
    4074:	01ef0702 	mvneq	r0, r2, lsl #14
    4078:	04030000 	streq	r0, [r3], #-0
    407c:	00019b07 	andeq	r9, r1, r7, lsl #22
    4080:	07080300 	streq	r0, [r8, -r0, lsl #6]
    4084:	00000196 	muleq	r0, r6, r1
    4088:	00002504 	andeq	r2, r0, r4, lsl #10
    408c:	00007a00 	andeq	r7, r0, r0, lsl #20
    4090:	00250500 	eoreq	r0, r5, r0, lsl #10
    4094:	06000000 	streq	r0, [r0], -r0
    4098:	0000005a 	andeq	r0, r0, sl, asr r0
    409c:	860e1c02 	strhi	r1, [lr], -r2, lsl #24
    40a0:	07000000 	streq	r0, [r0, -r0]
    40a4:	00006b04 	andeq	r6, r0, r4, lsl #22
    40a8:	00250400 	eoreq	r0, r5, r0, lsl #8
    40ac:	009b0000 	addseq	r0, fp, r0
    40b0:	9b050000 	blls	1440b8 <__bss_end__+0x139508>
    40b4:	00000000 	andeq	r0, r0, r0
    40b8:	00a80407 	adceq	r0, r8, r7, lsl #8
    40bc:	01030000 	mrseq	r0, (UNDEF: 3)
    40c0:	00017c08 	andeq	r7, r1, r8, lsl #24
    40c4:	00a10800 	adceq	r0, r1, r0, lsl #16
    40c8:	89060000 	stmdbhi	r6, {}	; <UNPREDICTABLE>
    40cc:	02000007 	andeq	r0, r0, #7, 0
    40d0:	00b90e21 	adcseq	r0, r9, r1, lsr #28
    40d4:	04070000 	streq	r0, [r7], #-0
    40d8:	0000008c 	andeq	r0, r0, ip, lsl #1
    40dc:	0008d409 	andeq	sp, r8, r9, lsl #8
    40e0:	06110100 	ldreq	r0, [r1], -r0, lsl #2
    40e4:	00009b78 	andeq	r9, r0, r8, ror fp
    40e8:	00000128 	andeq	r0, r0, r8, lsr #2
    40ec:	02269c01 	eoreq	r9, r6, #256	; 0x100
    40f0:	cf060000 	svcgt	0x00060000
    40f4:	01000007 	tsteq	r0, r7
    40f8:	00251012 	eoreq	r1, r5, r2, lsl r0
    40fc:	01060000 	mrseq	r0, (UNDEF: 6)
    4100:	01000008 	tsteq	r0, r8
    4104:	00251f12 	eoreq	r1, r5, r2, lsl pc
    4108:	e70a0000 	str	r0, [sl, -r0]
    410c:	01000001 	tsteq	r0, r1
    4110:	620b0713 	andvs	r0, fp, #4980736	; 0x4c0000
    4114:	01007373 	tsteq	r0, r3, ror r3
    4118:	02260a17 	eoreq	r0, r6, #94208	; 0x17000
    411c:	29920000 	ldmibcs	r2, {}	; <UNPREDICTABLE>
    4120:	297a0000 	ldmdbcs	sl!, {}^	; <UNPREDICTABLE>
    4124:	dc0c0000 	stcle	0, cr0, [ip], {-0}
    4128:	01000008 	tsteq	r0, r8
    412c:	02260a18 	eoreq	r0, r6, #24, 20	; 0x18000
    4130:	1c0d0000 	stcne	0, cr0, [sp], {-0}
    4134:	01000009 	tsteq	r0, r9
    4138:	002c0e25 	eoreq	r0, ip, r5, lsr #28
    413c:	2a2c0000 	bcs	b04144 <__bss_end__+0xaf9594>
    4140:	2a2a0000 	bcs	a84148 <__bss_end__+0xa79598>
    4144:	500e0000 	andpl	r0, lr, r0
    4148:	0800009c 	stmdaeq	r0, {r2, r3, r4, r7}
    414c:	4a000000 	bmi	4154 <__code_start__-0x3eac>
    4150:	0b000001 	bleq	415c <__code_start__-0x3ea4>
    4154:	01006e69 	tsteq	r0, r9, ror #28
    4158:	002c0521 	eoreq	r0, ip, r1, lsr #10
    415c:	2a410000 	bcs	1044164 <__bss_end__+0x10395b4>
    4160:	2a3f0000 	bcs	fc4168 <__bss_end__+0xfb95b8>
    4164:	0f000000 	svceq	0x00000000
    4168:	0000022c 	andeq	r0, r0, ip, lsr #4
    416c:	00009c58 	andeq	r9, r0, r8, asr ip
    4170:	009c5802 	addseq	r5, ip, r2, lsl #16
    4174:	00000c00 	andeq	r0, r0, r0, lsl #24
    4178:	05230100 	streq	r0, [r3, #-256]!	; 0xffffff00
    417c:	00000199 	muleq	r0, r9, r1
    4180:	00024f10 	andeq	r4, r2, r0, lsl pc
    4184:	002a5700 	eoreq	r5, sl, r0, lsl #14
    4188:	002a5500 	eoreq	r5, sl, r0, lsl #10
    418c:	025b1000 	subseq	r1, fp, #0, 0
    4190:	2a6d0000 	bcs	1b44198 <__bss_end__+0x1b395e8>
    4194:	2a6b0000 	bcs	1ac419c <__bss_end__+0x1ab95ec>
    4198:	67110000 	ldrvs	r0, [r1, -r0]
    419c:	58000002 	stmdapl	r0, {r1}
    41a0:	0400009c 	streq	r0, [r0], #-156	; 0xffffff64
    41a4:	10000000 	andne	r0, r0, r0
    41a8:	00000268 	andeq	r0, r0, r8, ror #4
    41ac:	00002a82 	andeq	r2, r0, r2, lsl #21
    41b0:	00002a80 	andeq	r2, r0, r0, lsl #21
    41b4:	2c120000 	ldccs	0, cr0, [r2], {-0}
    41b8:	68000002 	stmdavs	r0, {r1}
    41bc:	0100009c 	swpeq	r0, ip, [r0]	; <UNPREDICTABLE>
    41c0:	000002c8 	andeq	r0, r0, r8, asr #5
    41c4:	ea152501 	b	54d5d0 <__bss_end__+0x542a20>
    41c8:	13000001 	movwne	r0, #1
    41cc:	000002c8 	andeq	r0, r0, r8, asr #5
    41d0:	00024f10 	andeq	r4, r2, r0, lsl pc
    41d4:	002a9900 	eoreq	r9, sl, r0, lsl #18
    41d8:	002a9500 	eoreq	r9, sl, r0, lsl #10
    41dc:	025b1000 	subseq	r1, fp, #0, 0
    41e0:	2aba0000 	bcs	fee841e8 <__bss_end__+0xfee79638>
    41e4:	2ab80000 	bcs	fee041ec <__bss_end__+0xfedf963c>
    41e8:	67110000 	ldrvs	r0, [r1, -r0]
    41ec:	68000002 	stmdavs	r0, {r1}
    41f0:	0400009c 	streq	r0, [r0], #-156	; 0xffffff64
    41f4:	10000000 	andne	r0, r0, r0
    41f8:	00000268 	andeq	r0, r0, r8, ror #4
    41fc:	00002acf 	andeq	r2, r0, pc, asr #21
    4200:	00002acd 	andeq	r2, r0, sp, asr #21
    4204:	14000000 	strne	r0, [r0], #-0
    4208:	00009b80 	andeq	r9, r0, r0, lsl #23
    420c:	00000276 	andeq	r0, r0, r6, ror r2
    4210:	009c5014 	addseq	r5, ip, r4, lsl r0
    4214:	00028300 	andeq	r8, r2, r0, lsl #6
    4218:	9c681400 	cfstrdls	mvd1, [r8], #-0
    421c:	028f0000 	addeq	r0, pc, #0, 0
    4220:	84150000 	ldrhi	r0, [r5], #-0
    4224:	9c00009c 	stcls	0, cr0, [r0], {156}	; 0x9c
    4228:	1c000002 	stcne	0, cr0, [r0], {2}
    422c:	16000002 	strne	r0, [r0], -r2
    4230:	03055001 	movweq	r5, #20481	; 0x5001
    4234:	0000a780 	andeq	sl, r0, r0, lsl #15
    4238:	9c881400 	cfstrsls	mvf1, [r8], {0}
    423c:	02a80000 	adceq	r0, r8, #0, 0
    4240:	07000000 	streq	r0, [r0, -r0]
    4244:	00002504 	andeq	r2, r0, r4, lsl #10
    4248:	09161700 	ldmdbeq	r6, {r8, r9, sl, ip}
    424c:	04010000 	streq	r0, [r1], #-0
    4250:	00002c11 	andeq	r2, r0, r1, lsl ip
    4254:	02760100 	rsbseq	r0, r6, #0
    4258:	21180000 	tstcs	r8, r0
    425c:	01000009 	tsteq	r0, r9
    4260:	002c1505 	eoreq	r1, ip, r5, lsl #10
    4264:	03050000 	movweq	r0, #20480	; 0x5000
    4268:	0000aba8 	andeq	sl, r0, r8, lsr #23
    426c:	00091c0c 	andeq	r1, r9, ip, lsl #24
    4270:	0e070100 	adfeqs	f0, f7, f0
    4274:	0000002c 	andeq	r0, r0, ip, lsr #32
    4278:	72756319 	rsbsvc	r6, r5, #1677721600	; 0x64000000
    427c:	0e090100 	adfeqe	f0, f1, f0
    4280:	0000002c 	andeq	r0, r0, ip, lsr #32
    4284:	09110c1a 	ldmdbeq	r1, {r1, r3, r4, sl, fp}
    4288:	09010000 	stmdbeq	r1, {}	; <UNPREDICTABLE>
    428c:	00002c14 	andeq	r2, r0, r4, lsl ip
    4290:	1b000000 	blne	4298 <__code_start__-0x3d68>
    4294:	000008ee 	andeq	r0, r0, lr, ror #17
    4298:	000008ee 	andeq	r0, r0, lr, ror #17
    429c:	06013602 	streq	r3, [r1], -r2, lsl #12
    42a0:	0008e41c 	andeq	lr, r8, ip, lsl r4
    42a4:	0008e400 	andeq	lr, r8, r0, lsl #8
    42a8:	063b0200 	ldrteq	r0, [fp], -r0, lsl #4
    42ac:	0001e71b 	andeq	lr, r1, fp, lsl r7
    42b0:	0001e700 	andeq	lr, r1, r0, lsl #14
    42b4:	010a0200 	mrseq	r0, R10_fiq
    42b8:	074b1c06 	strbeq	r1, [fp, -r6, lsl #24]
    42bc:	074b0000 	strbeq	r0, [fp, -r0]
    42c0:	28020000 	stmdacs	r2, {}	; <UNPREDICTABLE>
    42c4:	014b1c06 	cmpeq	fp, r6, lsl #24
    42c8:	014b0000 	mrseq	r0, (UNDEF: 75)
    42cc:	6e020000 	cdpvs	0, 0, cr0, cr2, cr0, {0}
    42d0:	00ce0006 	sbceq	r0, lr, r6
    42d4:	00040000 	andeq	r0, r4, r0
    42d8:	00000f31 	andeq	r0, r0, r1, lsr pc
    42dc:	06360104 	ldrteq	r0, [r6], -r4, lsl #2
    42e0:	260c0000 	strcs	r0, [ip], -r0
    42e4:	10000009 	andne	r0, r0, r9
    42e8:	a0000007 	andge	r0, r0, r7
    42ec:	0400009c 	streq	r0, [r0], #-156	; 0xffffff64
    42f0:	a9000000 	stmdbge	r0, {}	; <UNPREDICTABLE>
    42f4:	0200001c 	andeq	r0, r0, #28, 0
    42f8:	6e690504 	cdpvs	5, 6, cr0, cr9, cr4, {0}
    42fc:	04030074 	streq	r0, [r3], #-116	; 0xffffff8c
    4300:	0001a007 	andeq	sl, r1, r7
    4304:	06010300 	streq	r0, [r1], -r0, lsl #6
    4308:	00000175 	andeq	r0, r0, r5, ror r1
    430c:	2e050203 	cdpcs	2, 0, cr0, cr5, cr3, {0}
    4310:	03000000 	movweq	r0, #0
    4314:	00ff0504 	rscseq	r0, pc, r4, lsl #10
    4318:	08030000 	stmdaeq	r3, {}	; <UNPREDICTABLE>
    431c:	0000fa05 	andeq	pc, r0, r5, lsl #20
    4320:	08010300 	stmdaeq	r1, {r8, r9}
    4324:	00000173 	andeq	r0, r0, r3, ror r1
    4328:	ef070203 	svc	0x00070203
    432c:	03000001 	movweq	r0, #1
    4330:	019b0704 	orrseq	r0, fp, r4, lsl #14
    4334:	08030000 	stmdaeq	r3, {}	; <UNPREDICTABLE>
    4338:	00019607 	andeq	r9, r1, r7, lsl #12
    433c:	00250400 	eoreq	r0, r5, r0, lsl #8
    4340:	007a0000 	rsbseq	r0, sl, r0
    4344:	25050000 	strcs	r0, [r5, #-0]
    4348:	00000000 	andeq	r0, r0, r0
    434c:	00005a06 	andeq	r5, r0, r6, lsl #20
    4350:	0e1c0200 	cdpeq	2, 1, cr0, cr12, cr0, {0}
    4354:	00000086 	andeq	r0, r0, r6, lsl #1
    4358:	006b0407 	rsbeq	r0, fp, r7, lsl #8
    435c:	25040000 	strcs	r0, [r4, #-0]
    4360:	9b000000 	blls	4368 <__code_start__-0x3c98>
    4364:	05000000 	streq	r0, [r0, #-0]
    4368:	0000009b 	muleq	r0, fp, r0
    436c:	a8040700 	stmdage	r4, {r8, r9, sl}
    4370:	03000000 	movweq	r0, #0
    4374:	017c0801 	cmneq	ip, r1, lsl #16
    4378:	a1080000 	mrsge	r0, (UNDEF: 8)
    437c:	06000000 	streq	r0, [r0], -r0
    4380:	00000789 	andeq	r0, r0, r9, lsl #15
    4384:	b90e2102 	stmdblt	lr, {r1, r8, sp}
    4388:	07000000 	streq	r0, [r0, -r0]
    438c:	00008c04 	andeq	r8, r0, r4, lsl #24
    4390:	08ee0900 	stmiaeq	lr!, {r8, fp}^
    4394:	04010000 	streq	r0, [r1], #-0
    4398:	009ca006 	addseq	sl, ip, r6
    439c:	00000400 	andeq	r0, r0, r0, lsl #8
    43a0:	009c0100 	addseq	r0, ip, r0, lsl #2
    43a4:	0000027d 	andeq	r0, r0, sp, ror r2
    43a8:	0faa0004 	svceq	0x00aa0004
    43ac:	01040000 	mrseq	r0, (UNDEF: 4)
    43b0:	00000636 	andeq	r0, r0, r6, lsr r6
    43b4:	0009680c 	andeq	r6, r9, ip, lsl #16
    43b8:	00071000 	andeq	r1, r7, r0
    43bc:	0002f800 	andeq	pc, r2, r0, lsl #16
    43c0:	00000000 	andeq	r0, r0, r0
    43c4:	001d2a00 	andseq	r2, sp, r0, lsl #20
    43c8:	05040200 	streq	r0, [r4, #-512]	; 0xfffffe00
    43cc:	00746e69 	rsbseq	r6, r4, r9, ror #28
    43d0:	00002503 	andeq	r2, r0, r3, lsl #10
    43d4:	07040400 	streq	r0, [r4, -r0, lsl #8]
    43d8:	000001a0 	andeq	r0, r0, r0, lsr #3
    43dc:	75060104 	strvc	r0, [r6, #-260]	; 0xfffffefc
    43e0:	04000001 	streq	r0, [r0], #-1
    43e4:	002e0502 	eoreq	r0, lr, r2, lsl #10
    43e8:	04040000 	streq	r0, [r4], #-0
    43ec:	0000ff05 	andeq	pc, r0, r5, lsl #30
    43f0:	05080400 	streq	r0, [r8, #-1024]	; 0xfffffc00
    43f4:	000000fa 	strdeq	r0, [r0], -sl
    43f8:	73080104 	movwvc	r0, #33028	; 0x8104
    43fc:	04000001 	streq	r0, [r0], #-1
    4400:	01ef0702 	mvneq	r0, r2, lsl #14
    4404:	04040000 	streq	r0, [r4], #-0
    4408:	00019b07 	andeq	r9, r1, r7, lsl #22
    440c:	07080400 	streq	r0, [r8, -r0, lsl #8]
    4410:	00000196 	muleq	r0, r6, r1
    4414:	00002505 	andeq	r2, r0, r5, lsl #10
    4418:	00007f00 	andeq	r7, r0, r0, lsl #30
    441c:	00250600 	eoreq	r0, r5, r0, lsl #12
    4420:	07000000 	streq	r0, [r0, -r0]
    4424:	0000005a 	andeq	r0, r0, sl, asr r0
    4428:	8b0e1c02 	blhi	38b438 <__bss_end__+0x380888>
    442c:	08000000 	stmdaeq	r0, {}	; <UNPREDICTABLE>
    4430:	00007004 	andeq	r7, r0, r4
    4434:	00250500 	eoreq	r0, r5, r0, lsl #10
    4438:	00a00000 	adceq	r0, r0, r0
    443c:	a0060000 	andge	r0, r6, r0
    4440:	00000000 	andeq	r0, r0, r0
    4444:	00ad0408 	adceq	r0, sp, r8, lsl #8
    4448:	01040000 	mrseq	r0, (UNDEF: 4)
    444c:	00017c08 	andeq	r7, r1, r8, lsl #24
    4450:	00a60300 	adceq	r0, r6, r0, lsl #6
    4454:	89070000 	stmdbhi	r7, {}	; <UNPREDICTABLE>
    4458:	02000007 	andeq	r0, r0, #7, 0
    445c:	00be0e21 	adcseq	r0, lr, r1, lsr #28
    4460:	04080000 	streq	r0, [r8], #-0
    4464:	00000091 	muleq	r0, r1, r0
    4468:	00098c09 	andeq	r8, r9, r9, lsl #24
    446c:	110d0100 	mrsne	r0, (UNDEF: 29)
    4470:	00000031 	andeq	r0, r0, r1, lsr r0
    4474:	0008a00a 	andeq	sl, r8, sl
    4478:	061f0100 	ldreq	r0, [pc], -r0, lsl #2
    447c:	00009ce8 	andeq	r9, r0, r8, ror #25
    4480:	00000060 	andeq	r0, r0, r0, rrx
    4484:	01d59c01 	bicseq	r9, r5, r1, lsl #24
    4488:	b00b0000 	andlt	r0, fp, r0
    448c:	01000009 	tsteq	r0, r9
    4490:	002c0f2c 	eoreq	r0, ip, ip, lsr #30
    4494:	001c0000 	andseq	r0, ip, r0
    4498:	510b2010 	tstpl	fp, r0, lsl r0
    449c:	01000009 	tsteq	r0, r9
    44a0:	002c0f2d 	eoreq	r0, ip, sp, lsr #30
    44a4:	00240000 	eoreq	r0, r4, r0
    44a8:	7d0b2010 	stcvc	0, cr2, [fp, #-64]	; 0xffffffc0
    44ac:	01000009 	tsteq	r0, r9
    44b0:	002c0f2e 	eoreq	r0, ip, lr, lsr #30
    44b4:	00000000 	andeq	r0, r0, r0
    44b8:	970c5a00 	strls	r5, [ip, -r0, lsl #20]
    44bc:	01000009 	tsteq	r0, r9
    44c0:	002c0f2f 	eoreq	r0, ip, pc, lsr #30
    44c4:	0d200000 	stceq	0, cr0, [r0, #-0]
    44c8:	000001ef 	andeq	r0, r0, pc, ror #3
    44cc:	00009ce8 	andeq	r9, r0, r8, ror #25
    44d0:	0002e002 	andeq	lr, r2, r2
    44d4:	08200100 	stmdaeq	r0!, {r8}
    44d8:	0000014c 	andeq	r0, r0, ip, asr #2
    44dc:	0002e00e 	andeq	lr, r2, lr
    44e0:	02000f00 	andeq	r0, r0, #0, 30
    44e4:	2ae60000 	bcs	ff9844ec <__bss_end__+0xff97993c>
    44e8:	2ae20000 	bcs	ff8844f0 <__bss_end__+0xff879940>
    44ec:	00000000 	andeq	r0, r0, r0
    44f0:	0001d510 	andeq	sp, r1, r0, lsl r5
    44f4:	009cfc00 	addseq	pc, ip, r0, lsl #24
    44f8:	9cfc0100 	ldflse	f0, [ip]
    44fc:	00100000 	andseq	r0, r0, r0
    4500:	21010000 	mrscs	r0, (UNDEF: 1)
    4504:	00017309 	andeq	r7, r1, r9, lsl #6
    4508:	01e20f00 	mvneq	r0, r0, lsl #30
    450c:	2b0d0000 	blcs	344514 <__bss_end__+0x339964>
    4510:	2b050000 	blcs	144518 <__bss_end__+0x139968>
    4514:	11000000 	mrsne	r0, (UNDEF: 0)
    4518:	00009d10 	andeq	r9, r0, r0, lsl sp
    451c:	0000024f 	andeq	r0, r0, pc, asr #4
    4520:	009d1411 	addseq	r1, sp, r1, lsl r4
    4524:	00025c00 	andeq	r5, r2, r0, lsl #24
    4528:	9d1c1200 	lfmls	f1, 4, [ip, #-0]
    452c:	02680000 	rsbeq	r0, r8, #0, 0
    4530:	01980000 	orrseq	r0, r8, r0
    4534:	01130000 	tsteq	r3, r0
    4538:	003a0150 	eorseq	r0, sl, r0, asr r1
    453c:	009d2812 	addseq	r2, sp, r2, lsl r8
    4540:	00027400 	andeq	r7, r2, r0, lsl #8
    4544:	0001b800 	andeq	fp, r1, r0, lsl #16
    4548:	50011300 	andpl	r1, r1, r0, lsl #6
    454c:	00240c05 	eoreq	r0, r4, r5, lsl #24
    4550:	01132010 	tsteq	r3, r0, lsl r0
    4554:	010c0551 	tsteq	ip, r1, asr r5
    4558:	005a0000 	subseq	r0, sl, r0
    455c:	009d3414 	addseq	r3, sp, r4, lsl r4
    4560:	00027400 	andeq	r7, r2, r0, lsl #8
    4564:	50011300 	andpl	r1, r1, r0, lsl #6
    4568:	001c0c05 	andseq	r0, ip, r5, lsl #24
    456c:	01132010 	tsteq	r3, r0, lsl r0
    4570:	200c0551 	andcs	r0, ip, r1, asr r5
    4574:	005a0000 	subseq	r0, sl, r0
    4578:	09591500 	ldmdbeq	r9, {r8, sl, ip}^
    457c:	17010000 	strne	r0, [r1, -r0]
    4580:	01ef0106 	mvneq	r0, r6, lsl #2
    4584:	b8090000 	stmdalt	r9, {}	; <UNPREDICTABLE>
    4588:	01000009 	tsteq	r0, r9
    458c:	00310e18 	eorseq	r0, r1, r8, lsl lr
    4590:	16000000 	strne	r0, [r0], -r0
    4594:	00000989 	andeq	r0, r0, r9, lsl #19
    4598:	25050e01 	strcs	r0, [r5, #-3585]	; 0xfffff1ff
    459c:	01000000 	mrseq	r0, (UNDEF: 0)
    45a0:	0000020d 	andeq	r0, r0, sp, lsl #4
    45a4:	0009b809 	andeq	fp, r9, r9, lsl #16
    45a8:	0e0f0100 	adfeqe	f0, f7, f0
    45ac:	00000031 	andeq	r0, r0, r1, lsr r0
    45b0:	01ef1700 	mvneq	r1, r0, lsl #14
    45b4:	9cbc0000 	ldcls	0, cr0, [ip]
    45b8:	00180000 	andseq	r0, r8, r0
    45bc:	9c010000 	stcls	0, cr0, [r1], {-0}
    45c0:	0000022e 	andeq	r0, r0, lr, lsr #4
    45c4:	0002000f 	andeq	r0, r2, pc
    45c8:	002b4a00 	eoreq	r4, fp, r0, lsl #20
    45cc:	002b4600 	eoreq	r4, fp, r0, lsl #12
    45d0:	d5170000 	ldrle	r0, [r7, #-0]
    45d4:	d4000001 	strle	r0, [r0], #-1
    45d8:	1400009c 	strne	r0, [r0], #-156	; 0xffffff64
    45dc:	01000000 	mrseq	r0, (UNDEF: 0)
    45e0:	00024f9c 	muleq	r2, ip, pc	; <UNPREDICTABLE>
    45e4:	01e20f00 	mvneq	r0, r0, lsl #30
    45e8:	2b710000 	blcs	1c445f0 <__bss_end__+0x1c39a40>
    45ec:	2b690000 	blcs	1a445f4 <__bss_end__+0x1a39a44>
    45f0:	18000000 	stmdane	r0, {}	; <UNPREDICTABLE>
    45f4:	00000942 	andeq	r0, r0, r2, asr #18
    45f8:	00000942 	andeq	r0, r0, r2, asr #18
    45fc:	06013b02 	streq	r3, [r1], -r2, lsl #22
    4600:	0008c619 	andeq	ip, r8, r9, lsl r6
    4604:	0008c600 	andeq	ip, r8, r0, lsl #12
    4608:	064d0200 	strbeq	r0, [sp], -r0, lsl #4
    460c:	00000919 	andeq	r0, r0, r9, lsl r9
    4610:	00000900 	andeq	r0, r0, r0, lsl #18
    4614:	06580200 	ldrbeq	r0, [r8], -r0, lsl #4
    4618:	0005d619 	andeq	sp, r5, r9, lsl r6
    461c:	0005d600 	andeq	sp, r5, r0, lsl #12
    4620:	06b20200 	ldrteq	r0, [r2], r0, lsl #4
    4624:	00053f00 	andeq	r3, r5, r0, lsl #30
    4628:	2d000400 	cfstrscs	mvf0, [r0, #-0]
    462c:	04000011 	streq	r0, [r0], #-17	; 0xffffffef
    4630:	00063601 	andeq	r3, r6, r1, lsl #12
    4634:	09c70c00 	stmibeq	r7, {sl, fp}^
    4638:	07100000 	ldreq	r0, [r0, -r0]
    463c:	9d480000 	stclls	0, cr0, [r8, #-0]
    4640:	011c0000 	tsteq	ip, r0
    4644:	1e420000 	cdpne	0, 4, cr0, cr2, cr0, {0}
    4648:	04020000 	streq	r0, [r2], #-0
    464c:	746e6905 	strbtvc	r6, [lr], #-2309	; 0xfffff6fb
    4650:	07040300 	streq	r0, [r4, -r0, lsl #6]
    4654:	000001a0 	andeq	r0, r0, r0, lsr #3
    4658:	75060103 	strvc	r0, [r6, #-259]	; 0xfffffefd
    465c:	03000001 	movweq	r0, #1
    4660:	002e0502 	eoreq	r0, lr, r2, lsl #10
    4664:	04030000 	streq	r0, [r3], #-0
    4668:	0000ff05 	andeq	pc, r0, r5, lsl #30
    466c:	05080300 	streq	r0, [r8, #-768]	; 0xfffffd00
    4670:	000000fa 	strdeq	r0, [r0], -sl
    4674:	73080103 	movwvc	r0, #33027	; 0x8103
    4678:	03000001 	movweq	r0, #1
    467c:	01ef0702 	mvneq	r0, r2, lsl #14
    4680:	04030000 	streq	r0, [r3], #-0
    4684:	00019b07 	andeq	r9, r1, r7, lsl #22
    4688:	07080300 	streq	r0, [r8, -r0, lsl #6]
    468c:	00000196 	muleq	r0, r6, r1
    4690:	00002504 	andeq	r2, r0, r4, lsl #10
    4694:	00007a00 	andeq	r7, r0, r0, lsl #20
    4698:	00250500 	eoreq	r0, r5, r0, lsl #10
    469c:	06000000 	streq	r0, [r0], -r0
    46a0:	0000005a 	andeq	r0, r0, sl, asr r0
    46a4:	860e1c02 	strhi	r1, [lr], -r2, lsl #24
    46a8:	07000000 	streq	r0, [r0, -r0]
    46ac:	00006b04 	andeq	r6, r0, r4, lsl #22
    46b0:	00250400 	eoreq	r0, r5, r0, lsl #8
    46b4:	009b0000 	addseq	r0, fp, r0
    46b8:	9b050000 	blls	1446c0 <__bss_end__+0x139b10>
    46bc:	00000000 	andeq	r0, r0, r0
    46c0:	00a80407 	adceq	r0, r8, r7, lsl #8
    46c4:	01030000 	mrseq	r0, (UNDEF: 3)
    46c8:	00017c08 	andeq	r7, r1, r8, lsl #24
    46cc:	00a10800 	adceq	r0, r1, r0, lsl #16
    46d0:	89060000 	stmdbhi	r6, {}	; <UNPREDICTABLE>
    46d4:	02000007 	andeq	r0, r0, #7, 0
    46d8:	00b90e21 	adcseq	r0, r9, r1, lsr #28
    46dc:	04070000 	streq	r0, [r7], #-0
    46e0:	0000008c 	andeq	r0, r0, ip, lsl #1
    46e4:	0009bd09 	andeq	fp, r9, r9, lsl #26
    46e8:	061e0100 	ldreq	r0, [lr], -r0, lsl #2
    46ec:	00009e10 	andeq	r9, r0, r0, lsl lr
    46f0:	00000054 	andeq	r0, r0, r4, asr r0
    46f4:	020b9c01 	andeq	r9, fp, #256	; 0x100
    46f8:	730a0000 	movwvc	r0, #40960	; 0xa000
    46fc:	01006365 	tsteq	r0, r5, ror #6
    4700:	002c191e 	eoreq	r1, ip, lr, lsl r9
    4704:	2bae0000 	blcs	feb8470c <__bss_end__+0xfeb79b5c>
    4708:	2baa0000 	blcs	fea84710 <__bss_end__+0xfea79b60>
    470c:	0b0b0000 	bleq	2c4714 <__bss_end__+0x2b9b64>
    4710:	10000002 	andne	r0, r0, r2
    4714:	0200009e 	andeq	r0, r0, #158, 0	; 0x9e
    4718:	000003c0 	andeq	r0, r0, r0, asr #7
    471c:	0c051f01 	stceq	15, cr1, [r5], {1}
    4720:	00000218 	andeq	r0, r0, r8, lsl r2
    4724:	00002bd3 	ldrdeq	r2, [r0], -r3
    4728:	00002bcf 	andeq	r2, r0, pc, asr #23
    472c:	0002240d 	andeq	r2, r2, sp, lsl #8
    4730:	009e2400 	addseq	r2, lr, r0, lsl #8
    4734:	9e240000 	cdpls	0, 2, cr0, cr4, cr0, {0}
    4738:	00400000 	subeq	r0, r0, r0
    473c:	1c010000 	stcne	0, cr0, [r1], {-0}
    4740:	02310c05 	eorseq	r0, r1, #1280	; 0x500
    4744:	2c000000 	stccs	0, cr0, [r0], {-0}
    4748:	2bfe0000 	blcs	fff84750 <__bss_end__+0xfff79ba0>
    474c:	3c0e0000 	stccc	0, cr0, [lr], {-0}
    4750:	15000002 	strne	r0, [r0, #-2]
    4754:	1300002c 	movwne	r0, #44	; 0x2c
    4758:	0f00002c 	svceq	0x0000002c
    475c:	00000255 	andeq	r0, r0, r5, asr r2
    4760:	00009e24 	andeq	r9, r0, r4, lsr #28
    4764:	009e2402 	addseq	r2, lr, r2, lsl #8
    4768:	00001400 	andeq	r1, r0, r0, lsl #8
    476c:	13130100 	tstne	r3, #0
    4770:	0000019c 	muleq	r0, ip, r1
    4774:	0002660e 	andeq	r6, r2, lr, lsl #12
    4778:	002c2c00 	eoreq	r2, ip, r0, lsl #24
    477c:	002c2800 	eoreq	r2, ip, r0, lsl #16
    4780:	02710f00 	rsbseq	r0, r1, #0, 30
    4784:	9e280000 	cdpls	0, 2, cr0, cr8, cr0, {0}
    4788:	28010000 	stmdacs	r1, {}	; <UNPREDICTABLE>
    478c:	0c00009e 	stceq	0, cr0, [r0], {158}	; 0x9e
    4790:	01000000 	mrseq	r0, (UNDEF: 0)
    4794:	0189120d 	orreq	r1, r9, sp, lsl #4
    4798:	30100000 	andscc	r0, r0, r0
    479c:	2a00009e 	bcs	4a1c <__code_start__-0x35e4>
    47a0:	11000005 	tstne	r0, r5
    47a4:	0c055001 	stceq	0, cr5, [r5], {1}
    47a8:	20003004 	andcs	r3, r0, r4
    47ac:	28120000 	ldmdacs	r2, {}	; <UNPREDICTABLE>
    47b0:	3600009e 			; <UNDEFINED> instruction: 0x3600009e
    47b4:	12000005 	andne	r0, r0, #5, 0
    47b8:	00009e38 	andeq	r9, r0, r8, lsr lr
    47bc:	00000536 	andeq	r0, r0, r6, lsr r5
    47c0:	02471300 	subeq	r1, r7, #0, 6
    47c4:	03d80000 	bicseq	r0, r8, #0, 0
    47c8:	48140000 	ldmdami	r4, {}	; <UNPREDICTABLE>
    47cc:	0b000002 	bleq	47dc <__code_start__-0x3824>
    47d0:	00000255 	andeq	r0, r0, r5, asr r2
    47d4:	00009e3c 	andeq	r9, r0, ip, lsr lr
    47d8:	0003f002 	andeq	pc, r3, r2
    47dc:	17150100 	ldrne	r0, [r5, -r0, lsl #2]
    47e0:	0003f015 	andeq	pc, r3, r5, lsl r0	; <UNPREDICTABLE>
    47e4:	02660e00 	rsbeq	r0, r6, #0, 28
    47e8:	2c4c0000 	marcs	acc0, r0, ip
    47ec:	2c4a0000 	marcs	acc0, r0, sl
    47f0:	71160000 	tstvc	r6, r0
    47f4:	40000002 	andmi	r0, r0, r2
    47f8:	0100009e 	swpeq	r0, lr, [r0]	; <UNPREDICTABLE>
    47fc:	00000410 	andeq	r0, r0, r0, lsl r4
    4800:	f3120d01 	vpadd.f16	d0, d2, d1
    4804:	10000001 	andne	r0, r0, r1
    4808:	00009e48 	andeq	r9, r0, r8, asr #28
    480c:	0000052a 	andeq	r0, r0, sl, lsr #10
    4810:	02500111 	subseq	r0, r0, #1073741828	; 0x40000004
    4814:	00000077 	andeq	r0, r0, r7, ror r0
    4818:	009e4012 	addseq	r4, lr, r2, lsl r0
    481c:	00053600 	andeq	r3, r5, r0, lsl #12
    4820:	9e541200 	cdpls	2, 5, cr1, cr4, cr0, {0}
    4824:	05360000 	ldreq	r0, [r6, #-0]!
	...
    4830:	00000917 	andeq	r0, r0, r7, lsl r9
    4834:	061b0100 	ldreq	r0, [fp], -r0, lsl #2
    4838:	00022401 	andeq	r2, r2, r1, lsl #8
    483c:	736d1800 	cmnvc	sp, #0, 16
    4840:	181b0100 	ldmdane	fp, {r8}
    4844:	0000002c 	andeq	r0, r0, ip, lsr #32
    4848:	09fd1700 	ldmibeq	sp!, {r8, r9, sl, ip}^
    484c:	12010000 	andne	r0, r1, #0, 0
    4850:	02550106 	subseq	r0, r5, #-2147483647	; 0x80000001
    4854:	75180000 	ldrvc	r0, [r8, #-0]
    4858:	12010073 	andne	r0, r1, #115, 0	; 0x73
    485c:	00002c18 	andeq	r2, r0, r8, lsl ip
    4860:	62721900 	rsbsvs	r1, r2, #0, 18
    4864:	0e130100 	mufeqs	f0, f3, f0
    4868:	0000002c 	andeq	r0, r0, ip, lsr #32
    486c:	6172191a 	cmnvs	r2, sl, lsl r9
    4870:	12150100 	andsne	r0, r5, #0
    4874:	0000002c 	andeq	r0, r0, ip, lsr #32
    4878:	db1b0000 	blle	6c4880 <__bss_end__+0x6b9cd0>
    487c:	01000009 	tsteq	r0, r9
    4880:	002c0a09 	eoreq	r0, ip, r9, lsl #20
    4884:	71010000 	mrsvc	r0, (UNDEF: 1)
    4888:	19000002 	stmdbne	r0, {r1}
    488c:	0d010075 	stceq	0, cr0, [r1, #-468]	; 0xfffffe2c
    4890:	00002c0e 	andeq	r2, r0, lr, lsl #24
    4894:	ea1c0000 	b	70489c <__bss_end__+0x6f9cec>
    4898:	01000009 	tsteq	r0, r9
    489c:	002c0a04 	eoreq	r0, ip, r4, lsl #20
    48a0:	1d010000 	stcne	0, cr0, [r1, #-0]
    48a4:	00000271 	andeq	r0, r0, r1, ror r2
    48a8:	00009d48 	andeq	r9, r0, r8, asr #26
    48ac:	0000000c 	andeq	r0, r0, ip
    48b0:	02a59c01 	adceq	r9, r5, #256	; 0x100
    48b4:	501e0000 	andspl	r0, lr, r0
    48b8:	2a00009d 	bcs	4b34 <__code_start__-0x34cc>
    48bc:	11000005 	tstne	r0, r5
    48c0:	0c055001 	stceq	0, cr5, [r5], {1}
    48c4:	20003004 	andcs	r3, r0, r4
    48c8:	551d0000 	ldrpl	r0, [sp, #-0]
    48cc:	54000002 	strpl	r0, [r0], #-2
    48d0:	2400009d 	strcs	r0, [r0], #-157	; 0xffffff63
    48d4:	01000000 	mrseq	r0, (UNDEF: 0)
    48d8:	0003059c 	muleq	r3, ip, r5
    48dc:	02660e00 	rsbeq	r0, r6, #0, 28
    48e0:	2c630000 	stclcs	0, cr0, [r3], #-0
    48e4:	2c5f0000 	mracs	r0, pc, acc0
    48e8:	710f0000 	mrsvc	r0, CPSR
    48ec:	5c000002 	stcpl	0, cr0, [r0], {2}
    48f0:	0100009d 	swpeq	r0, sp, [r0]	; <UNPREDICTABLE>
    48f4:	00009d5c 	andeq	r9, r0, ip, asr sp
    48f8:	0000000c 	andeq	r0, r0, ip
    48fc:	f2120d01 	vadd.f16	d0, d2, d1
    4900:	10000002 	andne	r0, r0, r2
    4904:	00009d64 	andeq	r9, r0, r4, ror #26
    4908:	0000052a 	andeq	r0, r0, sl, lsr #10
    490c:	05500111 	ldrbeq	r0, [r0, #-273]	; 0xfffffeef
    4910:	0030040c 	eorseq	r0, r0, ip, lsl #8
    4914:	12000020 	andne	r0, r0, #32, 0
    4918:	00009d5c 	andeq	r9, r0, ip, asr sp
    491c:	00000536 	andeq	r0, r0, r6, lsr r5
    4920:	009d6c12 	addseq	r6, sp, r2, lsl ip
    4924:	00053600 	andeq	r3, r5, r0, lsl #12
    4928:	241d0000 	ldrcs	r0, [sp], #-0
    492c:	78000002 	stmdavc	r0, {r1}
    4930:	4800009d 	stmdami	r0, {r0, r2, r3, r4, r7}
    4934:	01000000 	mrseq	r0, (UNDEF: 0)
    4938:	0004079c 	muleq	r4, ip, r7
    493c:	02310c00 	eorseq	r0, r1, #0, 24
    4940:	2c850000 	stccs	0, cr0, [r5], {0}
    4944:	2c810000 	stccs	0, cr0, [r1], {0}
    4948:	3c0e0000 	stccc	0, cr0, [lr], {-0}
    494c:	a5000002 	strge	r0, [r0, #-2]
    4950:	a300002c 	movwge	r0, #44	; 0x2c
    4954:	1600002c 	strne	r0, [r0], -ip, lsr #32
    4958:	00000255 	andeq	r0, r0, r5, asr r2
    495c:	00009d78 	andeq	r9, r0, r8, ror sp
    4960:	00030802 	andeq	r0, r3, r2, lsl #16
    4964:	13130100 	tstne	r3, #0
    4968:	0000039a 	muleq	r0, sl, r3
    496c:	00030815 	andeq	r0, r3, r5, lsl r8
    4970:	02660e00 	rsbeq	r0, r6, #0, 28
    4974:	2cbc0000 	ldccs	0, cr0, [ip]
    4978:	2cb80000 	ldccs	0, cr0, [r8]
    497c:	710f0000 	mrsvc	r0, CPSR
    4980:	84000002 	strhi	r0, [r0], #-2
    4984:	0100009d 	swpeq	r0, sp, [r0]	; <UNPREDICTABLE>
    4988:	00009d84 	andeq	r9, r0, r4, lsl #27
    498c:	0000000c 	andeq	r0, r0, ip
    4990:	86120d01 	ldrhi	r0, [r2], -r1, lsl #26
    4994:	10000003 	andne	r0, r0, r3
    4998:	00009d8c 	andeq	r9, r0, ip, lsl #27
    499c:	0000052a 	andeq	r0, r0, sl, lsr #10
    49a0:	05500111 	ldrbeq	r0, [r0, #-273]	; 0xfffffeef
    49a4:	0030040c 	eorseq	r0, r0, ip, lsl #8
    49a8:	12000020 	andne	r0, r0, #32, 0
    49ac:	00009d84 	andeq	r9, r0, r4, lsl #27
    49b0:	00000536 	andeq	r0, r0, r6, lsr r5
    49b4:	009d9412 	addseq	r9, sp, r2, lsl r4
    49b8:	00053600 	andeq	r3, r5, r0, lsl #12
    49bc:	13000000 	movwne	r0, #0
    49c0:	00000247 	andeq	r0, r0, r7, asr #4
    49c4:	00000320 	andeq	r0, r0, r0, lsr #6
    49c8:	00024814 	andeq	r4, r2, r4, lsl r8
    49cc:	02550b00 	subseq	r0, r5, #0, 22
    49d0:	9d980000 	ldcls	0, cr0, [r8]
    49d4:	38020000 	stmdacc	r2, {}	; <UNPREDICTABLE>
    49d8:	01000003 	tsteq	r0, r3
    49dc:	38151715 	ldmdacc	r5, {r0, r2, r4, r8, r9, sl, ip}
    49e0:	0e000003 	cdpeq	0, 0, cr0, cr0, cr3, {0}
    49e4:	00000266 	andeq	r0, r0, r6, ror #4
    49e8:	00002cdc 	ldrdeq	r2, [r0], -ip
    49ec:	00002cda 	ldrdeq	r2, [r0], -sl
    49f0:	00027116 	andeq	r7, r2, r6, lsl r1
    49f4:	009d9c00 	addseq	r9, sp, r0, lsl #24
    49f8:	03580100 	cmpeq	r8, #0
    49fc:	0d010000 	stceq	0, cr0, [r1, #-0]
    4a00:	0003f112 	andeq	pc, r3, r2, lsl r1	; <UNPREDICTABLE>
    4a04:	9da41000 	stcls	0, cr1, [r4]
    4a08:	052a0000 	streq	r0, [sl, #-0]!
    4a0c:	01110000 	tsteq	r1, r0
    4a10:	00770250 	rsbseq	r0, r7, r0, asr r2
    4a14:	9c120000 	ldcls	0, cr0, [r2], {-0}
    4a18:	3600009d 			; <UNDEFINED> instruction: 0x3600009d
    4a1c:	12000005 	andne	r0, r0, #5, 0
    4a20:	00009db0 			; <UNDEFINED> instruction: 0x00009db0
    4a24:	00000536 	andeq	r0, r0, r6, lsr r5
    4a28:	00000000 	andeq	r0, r0, r0
    4a2c:	00020b1d 	andeq	r0, r2, sp, lsl fp
    4a30:	009dc000 	addseq	ip, sp, r0
    4a34:	00005000 	andeq	r5, r0, r0
    4a38:	2a9c0100 	bcs	fe704e40 <__bss_end__+0xfe6fa290>
    4a3c:	0c000005 	stceq	0, cr0, [r0], {5}
    4a40:	00000218 	andeq	r0, r0, r8, lsl r2
    4a44:	00002cf3 	strdeq	r2, [r0], -r3
    4a48:	00002cef 	andeq	r2, r0, pc, ror #25
    4a4c:	0002240d 	andeq	r2, r2, sp, lsl #8
    4a50:	009dd000 	addseq	sp, sp, r0
    4a54:	9dd00000 	ldclls	0, cr0, [r0]
    4a58:	00400000 	subeq	r0, r0, r0
    4a5c:	1c010000 	stcne	0, cr0, [r1], {-0}
    4a60:	02310c05 	eorseq	r0, r1, #1280	; 0x500
    4a64:	2d160000 	ldccs	0, cr0, [r6, #-0]
    4a68:	2d140000 	ldccs	0, cr0, [r4, #-0]
    4a6c:	3c0e0000 	stccc	0, cr0, [lr], {-0}
    4a70:	2b000002 	blcs	4a80 <__code_start__-0x3580>
    4a74:	2900002d 	stmdbcs	r0, {r0, r2, r3, r5}
    4a78:	0f00002d 	svceq	0x0000002d
    4a7c:	00000255 	andeq	r0, r0, r5, asr r2
    4a80:	00009dd0 	ldrdeq	r9, [r0], -r0
    4a84:	009dd002 	addseq	sp, sp, r2
    4a88:	00001400 	andeq	r1, r0, r0, lsl #8
    4a8c:	13130100 	tstne	r3, #0
    4a90:	000004bc 			; <UNDEFINED> instruction: 0x000004bc
    4a94:	0002660e 	andeq	r6, r2, lr, lsl #12
    4a98:	002d4200 	eoreq	r4, sp, r0, lsl #4
    4a9c:	002d3e00 	eoreq	r3, sp, r0, lsl #28
    4aa0:	02710f00 	rsbseq	r0, r1, #0, 30
    4aa4:	9dd40000 	ldclls	0, cr0, [r4]
    4aa8:	d4010000 	strle	r0, [r1], #-0
    4aac:	0c00009d 	stceq	0, cr0, [r0], {157}	; 0x9d
    4ab0:	01000000 	mrseq	r0, (UNDEF: 0)
    4ab4:	04a9120d 	strteq	r1, [r9], #525	; 0x20d
    4ab8:	dc100000 	ldcle	0, cr0, [r0], {-0}
    4abc:	2a00009d 	bcs	4d38 <__code_start__-0x32c8>
    4ac0:	11000005 	tstne	r0, r5
    4ac4:	0c055001 	stceq	0, cr5, [r5], {1}
    4ac8:	20003004 	andcs	r3, r0, r4
    4acc:	d4120000 	ldrle	r0, [r2], #-0
    4ad0:	3600009d 			; <UNDEFINED> instruction: 0x3600009d
    4ad4:	12000005 	andne	r0, r0, #5, 0
    4ad8:	00009de4 	andeq	r9, r0, r4, ror #27
    4adc:	00000536 	andeq	r0, r0, r6, lsr r5
    4ae0:	02471300 	subeq	r1, r7, #0, 6
    4ae4:	03700000 	cmneq	r0, #0, 0
    4ae8:	48140000 	ldmdami	r4, {}	; <UNPREDICTABLE>
    4aec:	0b000002 	bleq	4afc <__code_start__-0x3504>
    4af0:	00000255 	andeq	r0, r0, r5, asr r2
    4af4:	00009de8 	andeq	r9, r0, r8, ror #27
    4af8:	00038802 	andeq	r8, r3, r2, lsl #16
    4afc:	17150100 	ldrne	r0, [r5, -r0, lsl #2]
    4b00:	00038815 	andeq	r8, r3, r5, lsl r8
    4b04:	02660e00 	rsbeq	r0, r6, #0, 28
    4b08:	2d620000 	stclcs	0, cr0, [r2, #-0]
    4b0c:	2d600000 	stclcs	0, cr0, [r0, #-0]
    4b10:	71160000 	tstvc	r6, r0
    4b14:	ec000002 	stc	0, cr0, [r0], {2}
    4b18:	0100009d 	swpeq	r0, sp, [r0]	; <UNPREDICTABLE>
    4b1c:	000003a8 	andeq	r0, r0, r8, lsr #7
    4b20:	13120d01 	tstne	r2, #64	; 0x40
    4b24:	10000005 	andne	r0, r0, r5
    4b28:	00009df4 	strdeq	r9, [r0], -r4
    4b2c:	0000052a 	andeq	r0, r0, sl, lsr #10
    4b30:	02500111 	subseq	r0, r0, #1073741828	; 0x40000004
    4b34:	00000077 	andeq	r0, r0, r7, ror r0
    4b38:	009dec12 	addseq	lr, sp, r2, lsl ip
    4b3c:	00053600 	andeq	r3, r5, r0, lsl #12
    4b40:	9e001200 	cdpls	2, 0, cr1, cr0, cr0, {0}
    4b44:	05360000 	ldreq	r0, [r6, #-0]!
    4b48:	00000000 	andeq	r0, r0, r0
    4b4c:	1f000000 	svcne	0x00000000
    4b50:	000005e6 	andeq	r0, r0, r6, ror #11
    4b54:	000005e6 	andeq	r0, r0, r6, ror #11
    4b58:	1f0ac702 	svcne	0x000ac702
    4b5c:	000004c3 	andeq	r0, r0, r3, asr #9
    4b60:	000004c3 	andeq	r0, r0, r3, asr #9
    4b64:	0006a102 	andeq	sl, r6, r2, lsl #2
    4b68:	000005cd 	andeq	r0, r0, sp, asr #11
    4b6c:	12fc0004 	rscsne	r0, ip, #4, 0
    4b70:	01040000 	mrseq	r0, (UNDEF: 4)
    4b74:	00000aa4 	andeq	r0, r0, r4, lsr #21
    4b78:	000a2e0c 	andeq	r2, sl, ip, lsl #28
    4b7c:	000a5400 	andeq	r5, sl, r0, lsl #8
    4b80:	009e6400 	addseq	r6, lr, r0, lsl #8
    4b84:	0001f000 	andeq	pc, r1, r0
    4b88:	00204000 	eoreq	r4, r0, r0
    4b8c:	05040200 	streq	r0, [r4, #-512]	; 0xfffffe00
    4b90:	00746e69 	rsbseq	r6, r4, r9, ror #28
    4b94:	a0070403 	andge	r0, r7, r3, lsl #8
    4b98:	04000001 	streq	r0, [r0], #-1
    4b9c:	0000002c 	andeq	r0, r0, ip, lsr #32
    4ba0:	75060103 	strvc	r0, [r6, #-259]	; 0xfffffefd
    4ba4:	03000001 	movweq	r0, #1
    4ba8:	002e0502 	eoreq	r0, lr, r2, lsl #10
    4bac:	04030000 	streq	r0, [r3], #-0
    4bb0:	0000ff05 	andeq	pc, r0, r5, lsl #30
    4bb4:	05080300 	streq	r0, [r8, #-768]	; 0xfffffd00
    4bb8:	000000fa 	strdeq	r0, [r0], -sl
    4bbc:	73080103 	movwvc	r0, #33027	; 0x8103
    4bc0:	03000001 	movweq	r0, #1
    4bc4:	01ef0702 	mvneq	r0, r2, lsl #14
    4bc8:	ad050000 	stcge	0, cr0, [r5, #-0]
    4bcc:	05000001 	streq	r0, [r0, #-1]
    4bd0:	006e1934 	rsbeq	r1, lr, r4, lsr r9
    4bd4:	04030000 	streq	r0, [r3], #-0
    4bd8:	00019b07 	andeq	r9, r1, r7, lsl #22
    4bdc:	07080300 	streq	r0, [r8, -r0, lsl #6]
    4be0:	00000196 	muleq	r0, r6, r1
    4be4:	7c080103 	stfvcs	f0, [r8], {3}
    4be8:	06000001 	streq	r0, [r0], -r1
    4bec:	00540107 	subseq	r0, r4, r7, lsl #2
    4bf0:	0c040000 	stceq	0, cr0, [r4], {-0}
    4bf4:	0000c20e 	andeq	ip, r0, lr, lsl #4
    4bf8:	047a0700 	ldrbteq	r0, [sl], #-1792	; 0xfffff900
    4bfc:	07000000 	streq	r0, [r0, -r0]
    4c00:	000003ae 	andeq	r0, r0, lr, lsr #7
    4c04:	03c70701 	biceq	r0, r7, #262144	; 0x40000
    4c08:	07040000 	streq	r0, [r4, -r0]
    4c0c:	000003d6 	ldrdeq	r0, [r0], -r6
    4c10:	03e50705 	mvneq	r0, #1310720	; 0x140000
    4c14:	07060000 	streq	r0, [r6, -r0]
    4c18:	000003f4 	strdeq	r0, [r0], -r4
    4c1c:	04030707 	streq	r0, [r3], #-1799	; 0xfffff8f9
    4c20:	07030000 	streq	r0, [r3, -r0]
    4c24:	00000412 	andeq	r0, r0, r2, lsl r4
    4c28:	22080002 	andcs	r0, r8, #2, 0
    4c2c:	2c00000a 	stccs	0, cr0, [r0], {10}
    4c30:	5e080602 	cfmadd32pl	mvax0, mvfx0, mvfx8, mvfx2
    4c34:	09000001 	stmdbeq	r0, {r0}
    4c38:	02006f69 	andeq	r6, r0, #420	; 0x1a4
    4c3c:	00330909 	eorseq	r0, r3, r9, lsl #18
    4c40:	09000000 	stmdbeq	r0, {}	; <UNPREDICTABLE>
    4c44:	00726569 	rsbseq	r6, r2, r9, ror #10
    4c48:	33090a02 	movwcc	r0, #39426	; 0x9a02
    4c4c:	04000000 	streq	r0, [r0], #-0
    4c50:	72696909 	rsbvc	r6, r9, #147456	; 0x24000
    4c54:	09110200 	ldmdbeq	r1, {r9}
    4c58:	00000033 	andeq	r0, r0, r3, lsr r0
    4c5c:	636c0908 	cmnvs	ip, #8, 18	; 0x20000
    4c60:	13020072 	movwne	r0, #8306	; 0x2072
    4c64:	00003309 	andeq	r3, r0, r9, lsl #6
    4c68:	6d090c00 	stcvs	12, cr0, [r9, #-0]
    4c6c:	02007263 	andeq	r7, r0, #805306374	; 0x30000006
    4c70:	00330914 	eorseq	r0, r3, r4, lsl r9
    4c74:	09100000 	ldmdbeq	r0, {}	; <UNPREDICTABLE>
    4c78:	0072736c 	rsbseq	r7, r2, ip, ror #6
    4c7c:	33091502 	movwcc	r1, #38146	; 0x9502
    4c80:	14000000 	strne	r0, [r0], #-0
    4c84:	72736d09 	rsbsvc	r6, r3, #576	; 0x240
    4c88:	09160200 	ldmdbeq	r6, {r9}
    4c8c:	00000033 	andeq	r0, r0, r3, lsr r0
    4c90:	0b5f0a18 	bleq	17c74f8 <__bss_end__+0x17bc948>
    4c94:	17020000 	strne	r0, [r2, -r0]
    4c98:	00003309 	andeq	r3, r0, r9, lsl #6
    4c9c:	370a1c00 	strcc	r1, [sl, -r0, lsl #24]
    4ca0:	0200000b 	andeq	r0, r0, #11, 0
    4ca4:	0033091b 	eorseq	r0, r3, fp, lsl r9
    4ca8:	0a200000 	beq	804cb0 <__bss_end__+0x7fa100>
    4cac:	00000a0f 	andeq	r0, r0, pc, lsl #20
    4cb0:	33091d02 	movwcc	r1, #40194	; 0x9d02
    4cb4:	24000000 	strcs	r0, [r0], #-0
    4cb8:	000a890a 	andeq	r8, sl, sl, lsl #18
    4cbc:	091e0200 	ldmdbeq	lr, {r9}
    4cc0:	00000033 	andeq	r0, r0, r3, lsr r0
    4cc4:	8e0b0028 	cdphi	0, 0, cr0, cr11, cr8, {1}
    4cc8:	0100000a 	tsteq	r0, sl
    4ccc:	01740908 	cmneq	r4, r8, lsl #18
    4cd0:	50040000 	andpl	r0, r4, r0
    4cd4:	040c2021 	streq	r2, [ip], #-33	; 0xffffffdf
    4cd8:	00000033 	andeq	r0, r0, r3, lsr r0
    4cdc:	00016e0d 	andeq	r6, r1, sp, lsl #28
    4ce0:	0b670b00 	bleq	19c78e8 <__bss_end__+0x19bcd38>
    4ce4:	29010000 	stmdbcs	r1, {}	; <UNPREDICTABLE>
    4ce8:	00018f23 	andeq	r8, r1, r3, lsr #30
    4cec:	21504000 	cmpcs	r0, r0
    4cf0:	c2040c20 	andgt	r0, r4, #32, 24	; 0x2000
    4cf4:	0d000000 	stceq	0, cr0, [r0, #-0]
    4cf8:	00000189 	andeq	r0, r0, r9, lsl #3
    4cfc:	0008c60e 	andeq	ip, r8, lr, lsl #12
    4d00:	06cc0100 	strbeq	r0, [ip], r0, lsl #2
    4d04:	0000a01c 	andeq	sl, r0, ip, lsl r0
    4d08:	00000014 	andeq	r0, r0, r4, lsl r0
    4d0c:	01b49c01 			; <UNDEFINED> instruction: 0x01b49c01
    4d10:	240f0000 	strcs	r0, [pc], #-0	; 4d18 <__code_start__-0x32e8>
    4d14:	b40000a0 	strlt	r0, [r0], #-160	; 0xffffff60
    4d18:	00000001 	andeq	r0, r0, r1
    4d1c:	000a4310 	andeq	r4, sl, r0, lsl r3
    4d20:	05b60100 	ldreq	r0, [r6, #256]!	; 0x100
    4d24:	00000025 	andeq	r0, r0, r5, lsr #32
    4d28:	00009ffc 	strdeq	r9, [r0], -ip
    4d2c:	00000020 	andeq	r0, r0, r0, lsr #32
    4d30:	01eb9c01 	mvneq	r9, r1, lsl #24
    4d34:	040f0000 	streq	r0, [pc], #-0	; 4d3c <__code_start__-0x32c4>
    4d38:	a00000a0 	andge	r0, r0, r0, lsr #1
    4d3c:	11000005 	tstne	r0, r5
    4d40:	0000a00c 	andeq	sl, r0, ip
    4d44:	000005ac 	andeq	r0, r0, ip, lsr #11
    4d48:	05500112 	ldrbeq	r0, [r0, #-274]	; 0xfffffeee
    4d4c:	2150640c 	cmpcs	r0, ip, lsl #8
    4d50:	10000020 	andne	r0, r0, r0, lsr #32
    4d54:	00000b49 	andeq	r0, r0, r9, asr #22
    4d58:	2505b301 	strcs	fp, [r5, #-769]	; 0xfffffcff
    4d5c:	ec000000 	stc	0, cr0, [r0], {-0}
    4d60:	1000009f 	mulne	r0, pc, r0	; <UNPREDICTABLE>
    4d64:	01000000 	mrseq	r0, (UNDEF: 0)
    4d68:	0002189c 	muleq	r2, ip, r8
    4d6c:	9ff40f00 	svcls	0x00f40f00
    4d70:	05a00000 	streq	r0, [r0, #0]!
    4d74:	f80f0000 			; <UNDEFINED> instruction: 0xf80f0000
    4d78:	0900009f 	stmdbeq	r0, {r0, r1, r2, r3, r4, r7}
    4d7c:	00000003 	andeq	r0, r0, r3
    4d80:	000b750e 	andeq	r7, fp, lr, lsl #10
    4d84:	06ab0100 	strteq	r0, [fp], r0, lsl #2
    4d88:	00009fbc 			; <UNDEFINED> instruction: 0x00009fbc
    4d8c:	00000030 	andeq	r0, r0, r0, lsr r0
    4d90:	027c9c01 	rsbseq	r9, ip, #256	; 0x100
    4d94:	63130000 	tstvs	r3, #0, 0
    4d98:	19ab0100 	stmibne	fp!, {r8}
    4d9c:	0000002c 	andeq	r0, r0, ip, lsr #32
    4da0:	00002d79 	andeq	r2, r0, r9, ror sp
    4da4:	00002d75 	andeq	r2, r0, r5, ror sp
    4da8:	009fc80f 	addseq	ip, pc, pc, lsl #16
    4dac:	0005a000 	andeq	sl, r5, r0
    4db0:	9fcc0f00 	svcls	0x00cc0f00
    4db4:	02db0000 	sbcseq	r0, fp, #0, 0
    4db8:	e0140000 	ands	r0, r4, r0
    4dbc:	b800009f 	stmdalt	r0, {r0, r1, r2, r3, r4, r7}
    4dc0:	72000005 	andvc	r0, r0, #5, 0
    4dc4:	12000002 	andne	r0, r0, #2, 0
    4dc8:	0c055001 	stceq	0, cr5, [r5], {1}
    4dcc:	20215040 	eorcs	r5, r1, r0, asr #32
    4dd0:	05510112 	ldrbeq	r0, [r1, #-274]	; 0xfffffeee
    4dd4:	ff080074 			; <UNDEFINED> instruction: 0xff080074
    4dd8:	e40f001a 	str	r0, [pc], #-26	; 4de0 <__code_start__-0x3220>
    4ddc:	a000009f 	mulge	r0, pc, r0	; <UNPREDICTABLE>
    4de0:	00000005 	andeq	r0, r0, r5
    4de4:	000a9a10 	andeq	r9, sl, r0, lsl sl
    4de8:	05a30100 	streq	r0, [r3, #256]!	; 0x100
    4dec:	00000025 	andeq	r0, r0, r5, lsr #32
    4df0:	00009f8c 	andeq	r9, r0, ip, lsl #31
    4df4:	00000030 	andeq	r0, r0, r0, lsr r0
    4df8:	02db9c01 	sbcseq	r9, fp, #256	; 0x100
    4dfc:	63150000 	tstvs	r5, #0, 0
    4e00:	09a70100 	stmibeq	r7!, {r8}
    4e04:	00000025 	andeq	r0, r0, r5, lsr #32
    4e08:	00002d99 	muleq	r0, r9, sp
    4e0c:	00002d97 	muleq	r0, r7, sp
    4e10:	009f940f 	addseq	r9, pc, pc, lsl #8
    4e14:	0005a000 	andeq	sl, r5, r0
    4e18:	9f980f00 	svcls	0x00980f00
    4e1c:	03090000 	movweq	r0, #36864	; 0x9000
    4e20:	a8140000 	ldmdage	r4, {}	; <UNPREDICTABLE>
    4e24:	ac00009f 	stcge	0, cr0, [r0], {159}	; 0x9f
    4e28:	d1000005 	tstle	r0, r5
    4e2c:	12000002 	andne	r0, r0, #2, 0
    4e30:	0c055001 	stceq	0, cr5, [r5], {1}
    4e34:	20215040 	eorcs	r5, r1, r0, asr #32
    4e38:	9fb00f00 	svcls	0x00b00f00
    4e3c:	05a00000 	streq	r0, [r0, #0]!
    4e40:	10000000 	andne	r0, r0, r0
    4e44:	00000a35 	andeq	r0, r0, r5, lsr sl
    4e48:	25059401 	strcs	r9, [r5, #-1025]	; 0xfffffbff
    4e4c:	6c000000 	stcvs	0, cr0, [r0], {-0}
    4e50:	2000009f 	mulcs	r0, pc, r0	; <UNPREDICTABLE>
    4e54:	01000000 	mrseq	r0, (UNDEF: 0)
    4e58:	0003099c 	muleq	r3, ip, r9
    4e5c:	9f781100 	svcls	0x00781100
    4e60:	05ac0000 	streq	r0, [ip, #0]!
    4e64:	01120000 	tsteq	r2, r0
    4e68:	640c0550 	strvs	r0, [ip], #-1360	; 0xfffffab0
    4e6c:	00202150 	eoreq	r2, r0, r0, asr r1
    4e70:	0a141000 	beq	508e78 <__bss_end__+0x4fe2c8>
    4e74:	8b010000 	blhi	44e7c <__bss_end__+0x3a2cc>
    4e78:	00002505 	andeq	r2, r0, r5, lsl #10
    4e7c:	009f5400 	addseq	r5, pc, r0, lsl #8
    4e80:	00001800 	andeq	r1, r0, r0, lsl #16
    4e84:	379c0100 	ldrcc	r0, [ip, r0, lsl #2]
    4e88:	11000003 	tstne	r0, r3
    4e8c:	00009f60 	andeq	r9, r0, r0, ror #30
    4e90:	000005ac 	andeq	r0, r0, ip, lsr #11
    4e94:	05500112 	ldrbeq	r0, [r0, #-274]	; 0xfffffeee
    4e98:	2150640c 	cmpcs	r0, ip, lsl #8
    4e9c:	0e000020 	cdpeq	0, 0, cr0, cr0, cr0, {1}
    4ea0:	000008e4 	andeq	r0, r0, r4, ror #17
    4ea4:	a4064501 	strge	r4, [r6], #-1281	; 0xfffffaff
    4ea8:	b000009e 	mullt	r0, lr, r0
    4eac:	01000000 	mrseq	r0, (UNDEF: 0)
    4eb0:	0004849c 	muleq	r4, ip, r4
    4eb4:	0a061600 	beq	18a6bc <__bss_end__+0x17fb0c>
    4eb8:	7e010000 	cdpvc	0, 0, cr0, cr1, cr0, {0}
    4ebc:	0000620e 	andeq	r6, r0, lr, lsl #4
    4ec0:	14010e00 	strne	r0, [r1], #-3584	; 0xfffff200
    4ec4:	00009eb4 			; <UNDEFINED> instruction: 0x00009eb4
    4ec8:	000005c4 	andeq	r0, r0, r4, asr #11
    4ecc:	00000373 	andeq	r0, r0, r3, ror r3
    4ed0:	01500112 	cmpeq	r0, r2, lsl r1
    4ed4:	5101123e 	tstpl	r1, lr, lsr r2
    4ed8:	14003201 	strne	r3, [r0], #-513	; 0xfffffdff
    4edc:	00009ec0 	andeq	r9, r0, r0, asr #29
    4ee0:	000005c4 	andeq	r0, r0, r4, asr #11
    4ee4:	0000038b 	andeq	r0, r0, fp, lsl #7
    4ee8:	01500112 	cmpeq	r0, r2, lsl r1
    4eec:	5101123f 	tstpl	r1, pc, lsr r2
    4ef0:	0f003201 	svceq	0x00003201
    4ef4:	00009ec4 	andeq	r9, r0, r4, asr #29
    4ef8:	000005a0 	andeq	r0, r0, r0, lsr #11
    4efc:	009ed014 	addseq	sp, lr, r4, lsl r0
    4f00:	00053d00 	andeq	r3, r5, r0, lsl #26
    4f04:	0003b000 	andeq	fp, r3, r0
    4f08:	50011200 	andpl	r1, r1, r0, lsl #4
    4f0c:	50040c05 	andpl	r0, r4, r5, lsl #24
    4f10:	01122021 	tsteq	r2, r1, lsr #32
    4f14:	00310151 	eorseq	r0, r1, r1, asr r1
    4f18:	009ed40f 	addseq	sp, lr, pc, lsl #8
    4f1c:	0005a000 	andeq	sl, r5, r0
    4f20:	9ee41400 	cdpls	4, 14, cr1, cr4, cr0, {0}
    4f24:	05b80000 	ldreq	r0, [r8, #0]!
    4f28:	03d20000 	bicseq	r0, r2, #0, 0
    4f2c:	01120000 	tsteq	r2, r0
    4f30:	00740250 	rsbseq	r0, r4, r0, asr r2
    4f34:	01510112 	cmpeq	r1, r2, lsl r1
    4f38:	f0140030 			; <UNDEFINED> instruction: 0xf0140030
    4f3c:	b800009e 	stmdalt	r0, {r1, r2, r3, r4, r7}
    4f40:	ee000005 	cdp	0, 0, cr0, cr0, cr5, {0}
    4f44:	12000003 	andne	r0, r0, #3, 0
    4f48:	0c055001 	stceq	0, cr5, [r5], {1}
    4f4c:	20215044 	eorcs	r5, r1, r4, asr #32
    4f50:	01510112 	cmpeq	r1, r2, lsl r1
    4f54:	fc140030 	ldc2	0, cr0, [r4], {48}	; 0x30
    4f58:	b800009e 	stmdalt	r0, {r1, r2, r3, r4, r7}
    4f5c:	0a000005 	beq	4f78 <__code_start__-0x3088>
    4f60:	12000004 	andne	r0, r0, #4, 0
    4f64:	0c055001 	stceq	0, cr5, [r5], {1}
    4f68:	2021504c 	eorcs	r5, r1, ip, asr #32
    4f6c:	01510112 	cmpeq	r1, r2, lsl r1
    4f70:	08140033 	ldmdaeq	r4, {r0, r1, r4, r5}
    4f74:	b800009f 	stmdalt	r0, {r0, r1, r2, r3, r4, r7}
    4f78:	26000005 	strcs	r0, [r0], -r5
    4f7c:	12000004 	andne	r0, r0, #4, 0
    4f80:	0c055001 	stceq	0, cr5, [r5], {1}
    4f84:	20215050 	eorcs	r5, r1, r0, asr r0
    4f88:	01510112 	cmpeq	r1, r2, lsl r1
    4f8c:	14140030 	ldrne	r0, [r4], #-48	; 0xffffffd0
    4f90:	b800009f 	stmdalt	r0, {r0, r1, r2, r3, r4, r7}
    4f94:	43000005 	movwmi	r0, #5
    4f98:	12000004 	andne	r0, r0, #4, 0
    4f9c:	0c055001 	stceq	0, cr5, [r5], {1}
    4fa0:	20215048 	eorcs	r5, r1, r8, asr #32
    4fa4:	02510112 	subseq	r0, r1, #-2147483644	; 0x80000004
    4fa8:	1400c708 	strne	ip, [r0], #-1800	; 0xfffff8f8
    4fac:	00009f20 	andeq	r9, r0, r0, lsr #30
    4fb0:	000005b8 			; <UNDEFINED> instruction: 0x000005b8
    4fb4:	00000461 	andeq	r0, r0, r1, ror #8
    4fb8:	05500112 	ldrbeq	r0, [r0, #-274]	; 0xfffffeee
    4fbc:	2150680c 	cmpcs	r0, ip, lsl #16
    4fc0:	51011220 	tstpl	r1, r0, lsr #4
    4fc4:	010e0a03 	tsteq	lr, r3, lsl #20
    4fc8:	9f2c1400 	svcls	0x002c1400
    4fcc:	05b80000 	ldreq	r0, [r8, #0]!
    4fd0:	047a0000 	ldrbteq	r0, [sl], #-0
    4fd4:	01120000 	tsteq	r2, r0
    4fd8:	00740250 	rsbseq	r0, r4, r0, asr r2
    4fdc:	01510112 	cmpeq	r1, r2, lsl r1
    4fe0:	300f0033 	andcc	r0, pc, r3, lsr r0	; <UNPREDICTABLE>
    4fe4:	a000009f 	mulge	r0, pc, r0	; <UNPREDICTABLE>
    4fe8:	00000005 	andeq	r0, r0, r5
    4fec:	000b3c0e 	andeq	r3, fp, lr, lsl #24
    4ff0:	06350100 	ldrteq	r0, [r5], -r0, lsl #2
    4ff4:	0000a030 	andeq	sl, r0, r0, lsr r0
    4ff8:	00000024 	andeq	r0, r0, r4, lsr #32
    4ffc:	04d39c01 	ldrbeq	r9, [r3], #3073	; 0xc01
    5000:	380f0000 	stmdacc	pc, {}	; <UNPREDICTABLE>
    5004:	940000a0 	strls	r0, [r0], #-160	; 0xffffff60
    5008:	0f000001 	svceq	0x00000001
    500c:	0000a03c 	andeq	sl, r0, ip, lsr r0
    5010:	000005a0 	andeq	r0, r0, r0, lsr #11
    5014:	00a04814 	adceq	r4, r0, r4, lsl r8
    5018:	0004d300 	andeq	sp, r4, r0, lsl #6
    501c:	0004c900 	andeq	ip, r4, r0, lsl #18
    5020:	50011200 	andpl	r1, r1, r0, lsl #4
    5024:	50040c05 	andpl	r0, r4, r5, lsl #24
    5028:	01122021 	tsteq	r2, r1, lsr #32
    502c:	fe090251 	mcr2	2, 0, r0, cr9, cr1, {2}
    5030:	a04c0f00 	subge	r0, ip, r0, lsl #30
    5034:	05a00000 	streq	r0, [r0, #0]!
    5038:	17000000 	strne	r0, [r0, -r0]
    503c:	00000b6c 	andeq	r0, r0, ip, ror #22
    5040:	640d3101 	strvs	r3, [sp], #-257	; 0xfffffeff
    5044:	2000009e 	mulcs	r0, lr, r0
    5048:	01000000 	mrseq	r0, (UNDEF: 0)
    504c:	0005369c 	muleq	r5, ip, r6
    5050:	04be1800 	ldrteq	r1, [lr], #2048	; 0x800
    5054:	31010000 	mrscc	r0, (UNDEF: 1)
    5058:	00053625 	andeq	r3, r5, r5, lsr #12
    505c:	002db000 	eoreq	fp, sp, r0
    5060:	002dac00 	eoreq	sl, sp, r0, lsl #24
    5064:	61761300 	cmnvs	r6, r0, lsl #6
    5068:	3101006c 	tstcc	r1, ip, rrx
    506c:	00002c34 	andeq	r2, r0, r4, lsr ip
    5070:	002dd200 	eoreq	sp, sp, r0, lsl #4
    5074:	002dce00 	eoreq	ip, sp, r0, lsl #28
    5078:	9e741400 	cdpls	4, 7, cr1, cr4, cr0, {0}
    507c:	05ac0000 	streq	r0, [ip, #0]!
    5080:	05250000 	streq	r0, [r5, #-0]!
    5084:	01120000 	tsteq	r2, r0
    5088:	00740250 	rsbseq	r0, r4, r0, asr r2
    508c:	9e801100 	rmflss	f1, f0, f0
    5090:	05b80000 	ldreq	r0, [r8, #0]!
    5094:	01120000 	tsteq	r2, r0
    5098:	00740250 	rsbseq	r0, r4, r0, asr r2
    509c:	040c0000 	streq	r0, [ip], #-0
    50a0:	0000053c 	andeq	r0, r0, ip, lsr r5
    50a4:	0b571719 	bleq	15cad10 <__bss_end__+0x15c0160>
    50a8:	2e010000 	cdpcs	0, 0, cr0, cr1, cr0, {0}
    50ac:	009e840d 	addseq	r8, lr, sp, lsl #8
    50b0:	00002000 	andeq	r2, r0, r0
    50b4:	a09c0100 	addsge	r0, ip, r0, lsl #2
    50b8:	18000005 	stmdane	r0, {r0, r2}
    50bc:	000004be 			; <UNDEFINED> instruction: 0x000004be
    50c0:	36242e01 	strtcc	r2, [r4], -r1, lsl #28
    50c4:	f4000005 	vst4.8	{d0-d3}, [r0], r5
    50c8:	f000002d 			; <UNDEFINED> instruction: 0xf000002d
    50cc:	1300002d 	movwne	r0, #45	; 0x2d
    50d0:	006c6176 	rsbeq	r6, ip, r6, ror r1
    50d4:	2c332e01 	ldccs	14, cr2, [r3], #-4
    50d8:	16000000 	strne	r0, [r0], -r0
    50dc:	1200002e 	andne	r0, r0, #46, 0	; 0x2e
    50e0:	1400002e 	strne	r0, [r0], #-46	; 0xffffffd2
    50e4:	00009e94 	muleq	r0, r4, lr
    50e8:	000005ac 	andeq	r0, r0, ip, lsr #11
    50ec:	0000058f 	andeq	r0, r0, pc, lsl #11
    50f0:	02500112 	subseq	r0, r0, #-2147483644	; 0x80000004
    50f4:	11000074 	tstne	r0, r4, ror r0
    50f8:	00009ea0 	andeq	r9, r0, r0, lsr #29
    50fc:	000005b8 			; <UNDEFINED> instruction: 0x000005b8
    5100:	02500112 	subseq	r0, r0, #-2147483644	; 0x80000004
    5104:	00000074 	andeq	r0, r0, r4, ror r0
    5108:	0004c31a 	andeq	ip, r4, sl, lsl r3
    510c:	0004c300 	andeq	ip, r4, r0, lsl #6
    5110:	06a10300 	strteq	r0, [r1], r0, lsl #6
    5114:	0004cf1a 	andeq	ip, r4, sl, lsl pc
    5118:	0004cf00 	andeq	ip, r4, r0, lsl #30
    511c:	0bc80300 	bleq	ff205d24 <__bss_end__+0xff1fb174>
    5120:	0004411a 	andeq	r4, r4, sl, lsl r1
    5124:	00044100 	andeq	r4, r4, r0, lsl #2
    5128:	06b30300 	ldrteq	r0, [r3], r0, lsl #6
    512c:	0005111a 	andeq	r1, r5, sl, lsl r1
    5130:	00051100 	andeq	r1, r5, r0, lsl #2
    5134:	06190400 	ldreq	r0, [r9], -r0, lsl #8
    5138:	00014900 	andeq	r4, r1, r0, lsl #18
    513c:	94000400 	strls	r0, [r0], #-1024	; 0xfffffc00
    5140:	04000014 	streq	r0, [r0], #-20	; 0xffffffec
    5144:	00063601 	andeq	r3, r6, r1, lsl #12
    5148:	0b9d0c00 	bleq	fe748150 <__bss_end__+0xfe73d5a0>
    514c:	07100000 	ldreq	r0, [r0, -r0]
    5150:	a0540000 	subsge	r0, r4, r0
    5154:	003c0000 	eorseq	r0, ip, r0
    5158:	22490000 	subcs	r0, r9, #0, 0
    515c:	04020000 	streq	r0, [r2], #-0
    5160:	746e6905 	strbtvc	r6, [lr], #-2309	; 0xfffff6fb
    5164:	07040300 	streq	r0, [r4, -r0, lsl #6]
    5168:	000001a0 	andeq	r0, r0, r0, lsr #3
    516c:	75060103 	strvc	r0, [r6, #-259]	; 0xfffffefd
    5170:	03000001 	movweq	r0, #1
    5174:	002e0502 	eoreq	r0, lr, r2, lsl #10
    5178:	04030000 	streq	r0, [r3], #-0
    517c:	0000ff05 	andeq	pc, r0, r5, lsl #30
    5180:	05080300 	streq	r0, [r8, #-768]	; 0xfffffd00
    5184:	000000fa 	strdeq	r0, [r0], -sl
    5188:	73080103 	movwvc	r0, #33027	; 0x8103
    518c:	03000001 	movweq	r0, #1
    5190:	01ef0702 	mvneq	r0, r2, lsl #14
    5194:	04030000 	streq	r0, [r3], #-0
    5198:	00019b07 	andeq	r9, r1, r7, lsl #22
    519c:	07080300 	streq	r0, [r8, -r0, lsl #6]
    51a0:	00000196 	muleq	r0, r6, r1
    51a4:	00002504 	andeq	r2, r0, r4, lsl #10
    51a8:	00007a00 	andeq	r7, r0, r0, lsl #20
    51ac:	00250500 	eoreq	r0, r5, r0, lsl #10
    51b0:	06000000 	streq	r0, [r0], -r0
    51b4:	0000005a 	andeq	r0, r0, sl, asr r0
    51b8:	860e1c02 	strhi	r1, [lr], -r2, lsl #24
    51bc:	07000000 	streq	r0, [r0, -r0]
    51c0:	00006b04 	andeq	r6, r0, r4, lsl #22
    51c4:	00250400 	eoreq	r0, r5, r0, lsl #8
    51c8:	009b0000 	addseq	r0, fp, r0
    51cc:	9b050000 	blls	1451d4 <__bss_end__+0x13a624>
    51d0:	00000000 	andeq	r0, r0, r0
    51d4:	00a80407 	adceq	r0, r8, r7, lsl #8
    51d8:	01030000 	mrseq	r0, (UNDEF: 3)
    51dc:	00017c08 	andeq	r7, r1, r8, lsl #24
    51e0:	00a10800 	adceq	r0, r1, r0, lsl #16
    51e4:	89060000 	stmdbhi	r6, {}	; <UNPREDICTABLE>
    51e8:	02000007 	andeq	r0, r0, #7, 0
    51ec:	00b90e21 	adcseq	r0, r9, r1, lsr #28
    51f0:	04070000 	streq	r0, [r7], #-0
    51f4:	0000008c 	andeq	r0, r0, ip, lsl #1
    51f8:	00007a09 	andeq	r7, r0, r9, lsl #20
    51fc:	07060100 	streq	r0, [r6, -r0, lsl #2]
    5200:	a7a00305 	strge	r0, [r0, r5, lsl #6]!
    5204:	900a0000 	andls	r0, sl, r0
    5208:	0100000b 	tsteq	r0, fp
    520c:	a080060b 	addge	r0, r0, fp, lsl #12
    5210:	00100000 	andseq	r0, r0, r0
    5214:	9c010000 	stcls	0, cr0, [r1], {-0}
    5218:	000000f1 	strdeq	r0, [r0], -r1
    521c:	0070660b 	rsbseq	r6, r0, fp, lsl #12
    5220:	86190b01 	ldrhi	r0, [r9], -r1, lsl #22
    5224:	01000000 	mrseq	r0, (UNDEF: 0)
    5228:	ae0c0050 	mcrge	0, 0, r0, cr12, cr0, {2}
    522c:	0100000b 	tsteq	r0, fp
    5230:	a0680608 	rsbge	r0, r8, r8, lsl #12
    5234:	00180000 	andseq	r0, r8, r0
    5238:	9c010000 	stcls	0, cr0, [r1], {-0}
    523c:	000b7f0d 	andeq	r7, fp, sp, lsl #30
    5240:	0c030100 	stfeqs	f0, [r3], {-0}
    5244:	00000025 	andeq	r0, r0, r5, lsr #32
    5248:	0000a054 	andeq	sl, r0, r4, asr r0
    524c:	00000014 	andeq	r0, r0, r4, lsl r0
    5250:	01409c01 	cmpeq	r0, r1, lsl #24
    5254:	630e0000 	movwvs	r0, #57344	; 0xe000
    5258:	21030100 	mrscs	r0, (UNDEF: 19)
    525c:	00000025 	andeq	r0, r0, r5, lsr #32
    5260:	00002e38 	andeq	r2, r0, r8, lsr lr
    5264:	00002e34 	andeq	r2, r0, r4, lsr lr
    5268:	00a0600f 	adceq	r6, r0, pc
    526c:	00014000 	andeq	r4, r1, r0
    5270:	50011000 	andpl	r1, r1, r0
    5274:	00007402 	andeq	r7, r0, r2, lsl #8
    5278:	0b751100 	bleq	1d49680 <__bss_end__+0x1d3ead0>
    527c:	0b750000 	bleq	1d45284 <__bss_end__+0x1d3a6d4>
    5280:	42020000 	andmi	r0, r2, #0, 0
    5284:	01370006 	teqeq	r7, r6
    5288:	00040000 	andeq	r0, r4, r0
    528c:	000015a3 	andeq	r1, r0, r3, lsr #11
    5290:	06360104 	ldrteq	r0, [r6], -r4, lsl #2
    5294:	c20c0000 	andgt	r0, ip, #0, 0
    5298:	1000000b 	andne	r0, r0, fp
    529c:	90000007 	andls	r0, r0, r7
    52a0:	2c0000a0 	stccs	0, cr0, [r0], {160}	; 0xa0
    52a4:	eb000000 	bl	52ac <__code_start__-0x2d54>
    52a8:	02000022 	andeq	r0, r0, #34, 0	; 0x22
    52ac:	6e690504 	cdpvs	5, 6, cr0, cr9, cr4, {0}
    52b0:	04030074 	streq	r0, [r3], #-116	; 0xffffff8c
    52b4:	0001a007 	andeq	sl, r1, r7
    52b8:	06010300 	streq	r0, [r1], -r0, lsl #6
    52bc:	00000175 	andeq	r0, r0, r5, ror r1
    52c0:	2e050203 	cdpcs	2, 0, cr0, cr5, cr3, {0}
    52c4:	03000000 	movweq	r0, #0
    52c8:	00ff0504 	rscseq	r0, pc, r4, lsl #10
    52cc:	08030000 	stmdaeq	r3, {}	; <UNPREDICTABLE>
    52d0:	0000fa05 	andeq	pc, r0, r5, lsl #20
    52d4:	08010300 	stmdaeq	r1, {r8, r9}
    52d8:	00000173 	andeq	r0, r0, r3, ror r1
    52dc:	ef070203 	svc	0x00070203
    52e0:	03000001 	movweq	r0, #1
    52e4:	019b0704 	orrseq	r0, fp, r4, lsl #14
    52e8:	08030000 	stmdaeq	r3, {}	; <UNPREDICTABLE>
    52ec:	00019607 	andeq	r9, r1, r7, lsl #12
    52f0:	00250400 	eoreq	r0, r5, r0, lsl #8
    52f4:	007a0000 	rsbseq	r0, sl, r0
    52f8:	25050000 	strcs	r0, [r5, #-0]
    52fc:	00000000 	andeq	r0, r0, r0
    5300:	00005a06 	andeq	r5, r0, r6, lsl #20
    5304:	0e1c0200 	cdpeq	2, 1, cr0, cr12, cr0, {0}
    5308:	00000086 	andeq	r0, r0, r6, lsl #1
    530c:	006b0407 	rsbeq	r0, fp, r7, lsl #8
    5310:	25040000 	strcs	r0, [r4, #-0]
    5314:	9b000000 	blls	531c <__code_start__-0x2ce4>
    5318:	05000000 	streq	r0, [r0, #-0]
    531c:	0000009b 	muleq	r0, fp, r0
    5320:	a8040700 	stmdage	r4, {r8, r9, sl}
    5324:	03000000 	movweq	r0, #0
    5328:	017c0801 	cmneq	ip, r1, lsl #16
    532c:	a1080000 	mrsge	r0, (UNDEF: 8)
    5330:	06000000 	streq	r0, [r0], -r0
    5334:	00000789 	andeq	r0, r0, r9, lsl #15
    5338:	b90e2102 	stmdblt	lr, {r1, r8, sp}
    533c:	07000000 	streq	r0, [r0, -r0]
    5340:	00008c04 	andeq	r8, r0, r4, lsl #24
    5344:	08350900 	ldmdaeq	r5!, {r8, fp}
    5348:	04010000 	streq	r0, [r1], #-0
    534c:	00013407 	andeq	r3, r1, r7, lsl #8
    5350:	00a09000 	adceq	r9, r0, r0
    5354:	00002c00 	andeq	r2, r0, r0, lsl #24
    5358:	349c0100 	ldrcc	r0, [ip], #256	; 0x100
    535c:	0a000001 	beq	5368 <__code_start__-0x2c98>
    5360:	00000bbd 			; <UNDEFINED> instruction: 0x00000bbd
    5364:	34150401 	ldrcc	r0, [r5], #-1025	; 0xfffffbff
    5368:	01000001 	tsteq	r0, r1
    536c:	72730b50 	rsbsvc	r0, r3, #80, 22	; 0x14000
    5370:	04010063 	streq	r0, [r1], #-99	; 0xffffff9d
    5374:	00009b27 	andeq	r9, r0, r7, lsr #22
    5378:	002e5a00 	eoreq	r5, lr, r0, lsl #20
    537c:	002e5600 	eoreq	r5, lr, r0, lsl #12
    5380:	31730c00 	cmncc	r3, r0, lsl #24
    5384:	0b050100 	bleq	14578c <__bss_end__+0x13abdc>
    5388:	00000134 	andeq	r0, r0, r4, lsr r1
    538c:	00002e89 	andeq	r2, r0, r9, lsl #29
    5390:	00002e7b 	andeq	r2, r0, fp, ror lr
    5394:	0032730c 	eorseq	r7, r2, ip, lsl #6
    5398:	9b110601 	blls	446ba4 <__bss_end__+0x43bff4>
    539c:	e8000000 	stmda	r0, {}	; <UNPREDICTABLE>
    53a0:	e200002e 	and	r0, r0, #46, 0	; 0x2e
    53a4:	0c00002e 	stceq	0, cr0, [r0], {46}	; 0x2e
    53a8:	07010063 	streq	r0, [r1, -r3, rrx]
    53ac:	0000a10a 	andeq	sl, r0, sl, lsl #2
    53b0:	002f1900 	eoreq	r1, pc, r0, lsl #18
    53b4:	002f1300 	eoreq	r1, pc, r0, lsl #6
    53b8:	04070000 	streq	r0, [r7], #-0
    53bc:	000000a1 	andeq	r0, r0, r1, lsr #1
    53c0:	0000f700 	andeq	pc, r0, r0, lsl #14
    53c4:	59000400 	stmdbpl	r0, {sl}
    53c8:	04000016 	streq	r0, [r0], #-22	; 0xffffffea
    53cc:	00063601 	andeq	r3, r6, r1, lsl #12
    53d0:	0bd20c00 	bleq	ff4883d8 <__bss_end__+0xff47d828>
    53d4:	07100000 	ldreq	r0, [r0, -r0]
    53d8:	a0bc0000 	adcsge	r0, ip, r0
    53dc:	00440000 	subeq	r0, r4, r0
    53e0:	23d10000 	bicscs	r0, r1, #0, 0
    53e4:	04020000 	streq	r0, [r2], #-0
    53e8:	746e6905 	strbtvc	r6, [lr], #-2309	; 0xfffff6fb
    53ec:	07040300 	streq	r0, [r4, -r0, lsl #6]
    53f0:	000001a0 	andeq	r0, r0, r0, lsr #3
    53f4:	75060103 	strvc	r0, [r6, #-259]	; 0xfffffefd
    53f8:	03000001 	movweq	r0, #1
    53fc:	002e0502 	eoreq	r0, lr, r2, lsl #10
    5400:	04030000 	streq	r0, [r3], #-0
    5404:	0000ff05 	andeq	pc, r0, r5, lsl #30
    5408:	05080300 	streq	r0, [r8, #-768]	; 0xfffffd00
    540c:	000000fa 	strdeq	r0, [r0], -sl
    5410:	73080103 	movwvc	r0, #33027	; 0x8103
    5414:	03000001 	movweq	r0, #1
    5418:	01ef0702 	mvneq	r0, r2, lsl #14
    541c:	04030000 	streq	r0, [r3], #-0
    5420:	00019b07 	andeq	r9, r1, r7, lsl #22
    5424:	07080300 	streq	r0, [r8, -r0, lsl #6]
    5428:	00000196 	muleq	r0, r6, r1
    542c:	00002504 	andeq	r2, r0, r4, lsl #10
    5430:	00007a00 	andeq	r7, r0, r0, lsl #20
    5434:	00250500 	eoreq	r0, r5, r0, lsl #10
    5438:	06000000 	streq	r0, [r0], -r0
    543c:	0000005a 	andeq	r0, r0, sl, asr r0
    5440:	860e1c02 	strhi	r1, [lr], -r2, lsl #24
    5444:	07000000 	streq	r0, [r0, -r0]
    5448:	00006b04 	andeq	r6, r0, r4, lsl #22
    544c:	00250400 	eoreq	r0, r5, r0, lsl #8
    5450:	009b0000 	addseq	r0, fp, r0
    5454:	9b050000 	blls	14545c <__bss_end__+0x13a8ac>
    5458:	00000000 	andeq	r0, r0, r0
    545c:	00a80407 	adceq	r0, r8, r7, lsl #8
    5460:	01030000 	mrseq	r0, (UNDEF: 3)
    5464:	00017c08 	andeq	r7, r1, r8, lsl #24
    5468:	00a10800 	adceq	r0, r1, r0, lsl #16
    546c:	89060000 	stmdbhi	r6, {}	; <UNPREDICTABLE>
    5470:	02000007 	andeq	r0, r0, #7, 0
    5474:	00b90e21 	adcseq	r0, r9, r1, lsr #28
    5478:	04070000 	streq	r0, [r7], #-0
    547c:	0000008c 	andeq	r0, r0, ip, lsl #1
    5480:	00086b09 	andeq	r6, r8, r9, lsl #22
    5484:	05030100 	streq	r0, [r3, #-256]	; 0xffffff00
    5488:	00000025 	andeq	r0, r0, r5, lsr #32
    548c:	0000a0bc 	strheq	sl, [r0], -ip
    5490:	00000044 	andeq	r0, r0, r4, asr #32
    5494:	610a9c01 	tstvs	sl, r1, lsl #24
    5498:	18030100 	stmdane	r3, {r8}
    549c:	0000009b 	muleq	r0, fp, r0
    54a0:	00002f50 	andeq	r2, r0, r0, asr pc
    54a4:	00002f44 	andeq	r2, r0, r4, asr #30
    54a8:	0100620a 	tsteq	r0, sl, lsl #4
    54ac:	009b2703 	addseq	r2, fp, r3, lsl #14
    54b0:	2fa40000 	svccs	0x00a40000
    54b4:	2f9e0000 	svccs	0x009e0000
    54b8:	00000000 	andeq	r0, r0, r0
    54bc:	0000010f 	andeq	r0, r0, pc, lsl #2
    54c0:	16e80004 	strbtne	r0, [r8], r4
    54c4:	01040000 	mrseq	r0, (UNDEF: 4)
    54c8:	00000636 	andeq	r0, r0, r6, lsr r6
    54cc:	000be20c 	andeq	lr, fp, ip, lsl #4
    54d0:	00071000 	andeq	r1, r7, r0
    54d4:	00a10000 	adceq	r0, r1, r0
    54d8:	00001800 	andeq	r1, r0, r0, lsl #16
    54dc:	00248700 	eoreq	r8, r4, r0, lsl #14
    54e0:	05040200 	streq	r0, [r4, #-512]	; 0xfffffe00
    54e4:	00746e69 	rsbseq	r6, r4, r9, ror #28
    54e8:	a0070403 	andge	r0, r7, r3, lsl #8
    54ec:	03000001 	movweq	r0, #1
    54f0:	01750601 	cmneq	r5, r1, lsl #12
    54f4:	02030000 	andeq	r0, r3, #0, 0
    54f8:	00002e05 	andeq	r2, r0, r5, lsl #28
    54fc:	05040300 	streq	r0, [r4, #-768]	; 0xfffffd00
    5500:	000000ff 	strdeq	r0, [r0], -pc	; <UNPREDICTABLE>
    5504:	fa050803 	blx	147518 <__bss_end__+0x13c968>
    5508:	03000000 	movweq	r0, #0
    550c:	01730801 	cmneq	r3, r1, lsl #16
    5510:	02030000 	andeq	r0, r3, #0, 0
    5514:	0001ef07 	andeq	lr, r1, r7, lsl #30
    5518:	07040300 	streq	r0, [r4, -r0, lsl #6]
    551c:	0000019b 	muleq	r0, fp, r1
    5520:	96070803 	strls	r0, [r7], -r3, lsl #16
    5524:	04000001 	streq	r0, [r0], #-1
    5528:	00000025 	andeq	r0, r0, r5, lsr #32
    552c:	0000007a 	andeq	r0, r0, sl, ror r0
    5530:	00002505 	andeq	r2, r0, r5, lsl #10
    5534:	5a060000 	bpl	18553c <__bss_end__+0x17a98c>
    5538:	02000000 	andeq	r0, r0, #0, 0
    553c:	00860e1c 	addeq	r0, r6, ip, lsl lr
    5540:	04070000 	streq	r0, [r7], #-0
    5544:	0000006b 	andeq	r0, r0, fp, rrx
    5548:	00002504 	andeq	r2, r0, r4, lsl #10
    554c:	00009b00 	andeq	r9, r0, r0, lsl #22
    5550:	009b0500 	addseq	r0, fp, r0, lsl #10
    5554:	07000000 	streq	r0, [r0, -r0]
    5558:	0000a804 	andeq	sl, r0, r4, lsl #16
    555c:	08010300 	stmdaeq	r1, {r8, r9}
    5560:	0000017c 	andeq	r0, r0, ip, ror r1
    5564:	0000a108 	andeq	sl, r0, r8, lsl #2
    5568:	07890600 	streq	r0, [r9, r0, lsl #12]
    556c:	21020000 	mrscs	r0, (UNDEF: 2)
    5570:	0000b90e 	andeq	fp, r0, lr, lsl #18
    5574:	8c040700 	stchi	7, cr0, [r4], {-0}
    5578:	09000000 	stmdbeq	r0, {}	; <UNPREDICTABLE>
    557c:	0000083c 	andeq	r0, r0, ip, lsr r8
    5580:	0c070301 	stceq	3, cr0, [r7], {1}
    5584:	00000001 	andeq	r0, r0, r1
    5588:	180000a1 	stmdane	r0, {r0, r5, r7}
    558c:	01000000 	mrseq	r0, (UNDEF: 0)
    5590:	00010c9c 	muleq	r1, ip, ip
    5594:	31730a00 	cmncc	r3, r0, lsl #20
    5598:	15030100 	strne	r0, [r3, #-256]	; 0xffffff00
    559c:	0000010c 	andeq	r0, r0, ip, lsl #2
    55a0:	730b5001 	movwvc	r5, #45057	; 0xb001
    55a4:	03010032 	movweq	r0, #4146	; 0x1032
    55a8:	00009b26 	andeq	r9, r0, r6, lsr #22
    55ac:	002fd300 	eoreq	sp, pc, r0, lsl #6
    55b0:	002fcd00 	eoreq	ip, pc, r0, lsl #26
    55b4:	00730c00 	rsbseq	r0, r3, r0, lsl #24
    55b8:	0c140401 	cfldrseq	mvf0, [r4], {1}
    55bc:	00000001 	andeq	r0, r0, r1
    55c0:	fe000030 	mcr2	0, 0, r0, cr0, cr0, {1}
    55c4:	0000002f 	andeq	r0, r0, pc, lsr #32
    55c8:	00a10407 	adceq	r0, r1, r7, lsl #8
    55cc:	4e000000 	cdpmi	0, 0, cr0, cr0, cr0, {0}
    55d0:	04000001 	streq	r0, [r0], #-1
    55d4:	00179e00 	andseq	r9, r7, r0, lsl #28
    55d8:	36010400 	strcc	r0, [r1], -r0, lsl #8
    55dc:	0c000006 	stceq	0, cr0, [r0], {6}
    55e0:	00000bf9 	strdeq	r0, [r0], -r9
    55e4:	00000710 	andeq	r0, r0, r0, lsl r7
    55e8:	0000a118 	andeq	sl, r0, r8, lsl r1
    55ec:	00000030 	andeq	r0, r0, r0, lsr r0
    55f0:	00002528 	andeq	r2, r0, r8, lsr #10
    55f4:	69050402 	stmdbvs	r5, {r1, sl}
    55f8:	0300746e 	movweq	r7, #1134	; 0x46e
    55fc:	00000bf2 	strdeq	r0, [r0], -r2
    5600:	3817d103 	ldmdacc	r7, {r0, r1, r8, ip, lr, pc}
    5604:	04000000 	streq	r0, [r0], #-0
    5608:	01a00704 	lsleq	r0, r4, #14
    560c:	01040000 	mrseq	r0, (UNDEF: 4)
    5610:	00017506 	andeq	r7, r1, r6, lsl #10
    5614:	05020400 	streq	r0, [r2, #-1024]	; 0xfffffc00
    5618:	0000002e 	andeq	r0, r0, lr, lsr #32
    561c:	ff050404 			; <UNDEFINED> instruction: 0xff050404
    5620:	04000000 	streq	r0, [r0], #-0
    5624:	00fa0508 	rscseq	r0, sl, r8, lsl #10
    5628:	01040000 	mrseq	r0, (UNDEF: 4)
    562c:	00017308 	andeq	r7, r1, r8, lsl #6
    5630:	005b0500 	subseq	r0, fp, r0, lsl #10
    5634:	02040000 	andeq	r0, r4, #0, 0
    5638:	0001ef07 	andeq	lr, r1, r7, lsl #30
    563c:	07040400 	streq	r0, [r4, -r0, lsl #8]
    5640:	0000019b 	muleq	r0, fp, r1
    5644:	96070804 	strls	r0, [r7], -r4, lsl #16
    5648:	06000001 	streq	r0, [r0], -r1
    564c:	00000025 	andeq	r0, r0, r5, lsr #32
    5650:	0000008b 	andeq	r0, r0, fp, lsl #1
    5654:	00002507 	andeq	r2, r0, r7, lsl #10
    5658:	5a080000 	bpl	205660 <__bss_end__+0x1faab0>
    565c:	02000000 	andeq	r0, r0, #0, 0
    5660:	00970e1c 	addseq	r0, r7, ip, lsl lr
    5664:	04090000 	streq	r0, [r9], #-0
    5668:	0000007c 	andeq	r0, r0, ip, ror r0
    566c:	00002506 	andeq	r2, r0, r6, lsl #10
    5670:	0000ac00 	andeq	sl, r0, r0, lsl #24
    5674:	00ac0700 	adceq	r0, ip, r0, lsl #14
    5678:	09000000 	stmdbeq	r0, {}	; <UNPREDICTABLE>
    567c:	0000b904 	andeq	fp, r0, r4, lsl #18
    5680:	08010400 	stmdaeq	r1, {sl}
    5684:	0000017c 	andeq	r0, r0, ip, ror r1
    5688:	0000b205 	andeq	fp, r0, r5, lsl #4
    568c:	07890800 	streq	r0, [r9, r0, lsl #16]
    5690:	21020000 	mrscs	r0, (UNDEF: 2)
    5694:	0000ca0e 	andeq	ip, r0, lr, lsl #20
    5698:	9d040900 	vstrls.16	s0, [r4, #-0]	; <UNPREDICTABLE>
    569c:	0a000000 	beq	56a4 <__code_start__-0x295c>
    56a0:	00000893 	muleq	r0, r3, r8
    56a4:	25050401 	strcs	r0, [r5, #-1025]	; 0xfffffbff
    56a8:	18000000 	stmdane	r0, {}	; <UNPREDICTABLE>
    56ac:	300000a1 	andcc	r0, r0, r1, lsr #1
    56b0:	01000000 	mrseq	r0, (UNDEF: 0)
    56b4:	00014b9c 	muleq	r1, ip, fp
    56b8:	735f0b00 	cmpvc	pc, #0, 22
    56bc:	04010031 	streq	r0, [r1], #-49	; 0xffffffcf
    56c0:	0000ac19 	andeq	sl, r0, r9, lsl ip
    56c4:	00301700 	eorseq	r1, r0, r0, lsl #14
    56c8:	00301300 	eorseq	r1, r0, r0, lsl #6
    56cc:	735f0b00 	cmpvc	pc, #0, 22
    56d0:	04010032 	streq	r0, [r1], #-50	; 0xffffffce
    56d4:	0000ac2a 	andeq	sl, r0, sl, lsr #24
    56d8:	00303c00 	eorseq	r3, r0, r0, lsl #24
    56dc:	00303800 	eorseq	r3, r0, r0, lsl #16
    56e0:	006e0b00 	rsbeq	r0, lr, r0, lsl #22
    56e4:	2c360401 	cfldrscs	mvf0, [r6], #-4
    56e8:	67000000 	strvs	r0, [r0, -r0]
    56ec:	5d000030 	stcpl	0, cr0, [r0, #-192]	; 0xffffff40
    56f0:	0c000030 	stceq	0, cr0, [r0], {48}	; 0x30
    56f4:	01003173 	tsteq	r0, r3, ror r1
    56f8:	014b1a05 	cmpeq	fp, r5, lsl #20
    56fc:	30be0000 	adcscc	r0, lr, r0
    5700:	30b60000 	adcscc	r0, r6, r0
    5704:	730c0000 	movwvc	r0, #49152	; 0xc000
    5708:	05010032 	streq	r0, [r1, #-50]	; 0xffffffce
    570c:	00014b2c 	andeq	r4, r1, ip, lsr #22
    5710:	0030fc00 	eorseq	pc, r0, r0, lsl #24
    5714:	0030f600 	eorseq	pc, r0, r0, lsl #12
    5718:	04090000 	streq	r0, [r9], #-0
    571c:	00000062 	andeq	r0, r0, r2, rrx
    5720:	0000ce00 	andeq	ip, r0, r0, lsl #28
    5724:	52000400 	andpl	r0, r0, #0, 8
    5728:	04000018 	streq	r0, [r0], #-24	; 0xffffffe8
    572c:	00063601 	andeq	r3, r6, r1, lsl #12
    5730:	0c0a0c00 	stceq	12, cr0, [sl], {-0}
    5734:	07100000 	ldreq	r0, [r0, -r0]
    5738:	a1480000 	mrsge	r0, (UNDEF: 72)
    573c:	00040000 	andeq	r0, r4, r0
    5740:	26290000 	strtcs	r0, [r9], -r0
    5744:	04020000 	streq	r0, [r2], #-0
    5748:	746e6905 	strbtvc	r6, [lr], #-2309	; 0xfffff6fb
    574c:	07040300 	streq	r0, [r4, -r0, lsl #6]
    5750:	000001a0 	andeq	r0, r0, r0, lsr #3
    5754:	75060103 	strvc	r0, [r6, #-259]	; 0xfffffefd
    5758:	03000001 	movweq	r0, #1
    575c:	002e0502 	eoreq	r0, lr, r2, lsl #10
    5760:	04030000 	streq	r0, [r3], #-0
    5764:	0000ff05 	andeq	pc, r0, r5, lsl #30
    5768:	05080300 	streq	r0, [r8, #-768]	; 0xfffffd00
    576c:	000000fa 	strdeq	r0, [r0], -sl
    5770:	73080103 	movwvc	r0, #33027	; 0x8103
    5774:	03000001 	movweq	r0, #1
    5778:	01ef0702 	mvneq	r0, r2, lsl #14
    577c:	04030000 	streq	r0, [r3], #-0
    5780:	00019b07 	andeq	r9, r1, r7, lsl #22
    5784:	07080300 	streq	r0, [r8, -r0, lsl #6]
    5788:	00000196 	muleq	r0, r6, r1
    578c:	00002504 	andeq	r2, r0, r4, lsl #10
    5790:	00007a00 	andeq	r7, r0, r0, lsl #20
    5794:	00250500 	eoreq	r0, r5, r0, lsl #10
    5798:	06000000 	streq	r0, [r0], -r0
    579c:	0000005a 	andeq	r0, r0, sl, asr r0
    57a0:	860e1c02 	strhi	r1, [lr], -r2, lsl #24
    57a4:	07000000 	streq	r0, [r0, -r0]
    57a8:	00006b04 	andeq	r6, r0, r4, lsl #22
    57ac:	00250400 	eoreq	r0, r5, r0, lsl #8
    57b0:	009b0000 	addseq	r0, fp, r0
    57b4:	9b050000 	blls	1457bc <__bss_end__+0x13ac0c>
    57b8:	00000000 	andeq	r0, r0, r0
    57bc:	00a80407 	adceq	r0, r8, r7, lsl #8
    57c0:	01030000 	mrseq	r0, (UNDEF: 3)
    57c4:	00017c08 	andeq	r7, r1, r8, lsl #24
    57c8:	00a10800 	adceq	r0, r1, r0, lsl #16
    57cc:	89060000 	stmdbhi	r6, {}	; <UNPREDICTABLE>
    57d0:	02000007 	andeq	r0, r0, #7, 0
    57d4:	00b90e21 	adcseq	r0, r9, r1, lsr #28
    57d8:	04070000 	streq	r0, [r7], #-0
    57dc:	0000008c 	andeq	r0, r0, ip, lsl #1
    57e0:	00094209 	andeq	r4, r9, r9, lsl #4
    57e4:	06030100 	streq	r0, [r3], -r0, lsl #2
    57e8:	0000a148 	andeq	sl, r0, r8, asr #2
    57ec:	00000004 	andeq	r0, r0, r4
    57f0:	Address 0x00000000000057f0 is out of bounds.


Disassembly of section .debug_abbrev:

00000000 <.debug_abbrev>:
       0:	25011101 	strcs	r1, [r1, #-257]	; 0xfffffeff
       4:	030b130e 	movweq	r1, #45838	; 0xb30e
       8:	110e1b0e 	tstne	lr, lr, lsl #22
       c:	10061201 	andne	r1, r6, r1, lsl #4
      10:	02000017 	andeq	r0, r0, #23, 0
      14:	0b0b0024 	bleq	2c00ac <__bss_end__+0x2b54fc>
      18:	08030b3e 	stmdaeq	r3, {r1, r2, r3, r4, r5, r8, r9, fp}
      1c:	24030000 	strcs	r0, [r3], #-0
      20:	3e0b0b00 	vmlacc.f64	d0, d11, d0
      24:	000e030b 	andeq	r0, lr, fp, lsl #6
      28:	00160400 	andseq	r0, r6, r0, lsl #8
      2c:	0b3a0e03 	bleq	e83840 <__bss_end__+0xe78c90>
      30:	0b390b3b 	bleq	e42d24 <__bss_end__+0xe38174>
      34:	00001349 	andeq	r1, r0, r9, asr #6
      38:	27011505 	strcs	r1, [r1, -r5, lsl #10]
      3c:	01134919 	tsteq	r3, r9, lsl r9
      40:	06000013 			; <UNDEFINED> instruction: 0x06000013
      44:	13490005 	movtne	r0, #36869	; 0x9005
      48:	34070000 	strcc	r0, [r7], #-0
      4c:	3a0e0300 	bcc	380c54 <__bss_end__+0x3760a4>
      50:	390b3b0b 	stmdbcc	fp, {r0, r1, r3, r8, r9, fp, ip, sp}
      54:	3f13490b 	svccc	0x0013490b
      58:	00193c19 	andseq	r3, r9, r9, lsl ip
      5c:	000f0800 	andeq	r0, pc, r0, lsl #16
      60:	13490b0b 	movtne	r0, #39691	; 0x9b0b
      64:	26090000 	strcs	r0, [r9], -r0
      68:	00134900 	andseq	r4, r3, r0, lsl #18
      6c:	01130a00 	tsteq	r3, r0, lsl #20
      70:	0b3a0b0b 	bleq	e82ca4 <__bss_end__+0xe780f4>
      74:	0b390b3b 	bleq	e42d68 <__bss_end__+0xe381b8>
      78:	00001301 	andeq	r1, r0, r1, lsl #6
      7c:	03000d0b 	movweq	r0, #3339	; 0xd0b
      80:	3b0b3a08 	blcc	2ce8a8 <__bss_end__+0x2c3cf8>
      84:	490b390b 	stmdbmi	fp, {r0, r1, r3, r8, fp, ip, sp}
      88:	000b3813 	andeq	r3, fp, r3, lsl r8
      8c:	000d0c00 	andeq	r0, sp, r0, lsl #24
      90:	0b3a0e03 	bleq	e838a4 <__bss_end__+0xe78cf4>
      94:	0b390b3b 	bleq	e42d88 <__bss_end__+0xe381d8>
      98:	0b381349 	bleq	e04dc4 <__bss_end__+0xdfa214>
      9c:	040d0000 	streq	r0, [sp], #-0
      a0:	0b0b3e01 	bleq	2cf8ac <__bss_end__+0x2c4cfc>
      a4:	3a13490b 	bcc	4d24d8 <__bss_end__+0x4c7928>
      a8:	390b3b0b 	stmdbcc	fp, {r0, r1, r3, r8, r9, fp, ip, sp}
      ac:	0013010b 	andseq	r0, r3, fp, lsl #2
      b0:	00280e00 	eoreq	r0, r8, r0, lsl #28
      b4:	0b1c0e03 	bleq	7038c8 <__bss_end__+0x6f8d18>
      b8:	2e0f0000 	cdpcs	0, 0, cr0, cr15, cr0, {0}
      bc:	03193f01 	tsteq	r9, #1, 30
      c0:	3b0b3a0e 	blcc	2ce900 <__bss_end__+0x2c3d50>
      c4:	270b390b 	strcs	r3, [fp, -fp, lsl #18]
      c8:	12011119 	andne	r1, r1, #1073741830	; 0x40000006
      cc:	97184006 	ldrls	r4, [r8, -r6]
      d0:	13011942 	movwne	r1, #6466	; 0x1942
      d4:	34100000 	ldrcc	r0, [r0], #-0
      d8:	3a0e0300 	bcc	380ce0 <__bss_end__+0x376130>
      dc:	390b3b0b 	stmdbcc	fp, {r0, r1, r3, r8, r9, fp, ip, sp}
      e0:	1c13490b 			; <UNDEFINED> instruction: 0x1c13490b
      e4:	1100000b 	tstne	r0, fp
      e8:	08030034 	stmdaeq	r3, {r2, r4, r5}
      ec:	0b3b0b3a 	bleq	ec2ddc <__bss_end__+0xeb822c>
      f0:	13490b39 	movtne	r0, #39737	; 0x9b39
      f4:	42b71702 	adcsmi	r1, r7, #524288	; 0x80000
      f8:	12000017 	andne	r0, r0, #23, 0
      fc:	0e030034 	mcreq	0, 0, r0, cr3, cr4, {1}
     100:	19341349 	ldmdbne	r4!, {r0, r3, r6, r8, r9, ip}
     104:	00001802 	andeq	r1, r0, r2, lsl #16
     108:	03003413 	movweq	r3, #1043	; 0x413
     10c:	3b0b3a08 	blcc	2ce934 <__bss_end__+0x2c3d84>
     110:	490b390b 	stmdbmi	fp, {r0, r1, r3, r8, fp, ip, sp}
     114:	00180213 	andseq	r0, r8, r3, lsl r2
     118:	010b1400 	tsteq	fp, r0, lsl #8
     11c:	06120111 			; <UNDEFINED> instruction: 0x06120111
     120:	00001301 	andeq	r1, r0, r1, lsl #6
     124:	11010b15 	tstne	r1, r5, lsl fp
     128:	00061201 	andeq	r1, r6, r1, lsl #4
     12c:	00341600 	eorseq	r1, r4, r0, lsl #12
     130:	0b3a0e03 	bleq	e83944 <__bss_end__+0xe78d94>
     134:	0b390b3b 	bleq	e42e28 <__bss_end__+0xe38278>
     138:	18021349 	stmdane	r2, {r0, r3, r6, r8, r9, ip}
     13c:	89170000 	ldmdbhi	r7, {}	; <UNPREDICTABLE>
     140:	11010182 	smlabbne	r1, r2, r1, r0
     144:	01133101 	tsteq	r3, r1, lsl #2
     148:	18000013 	stmdane	r0, {r0, r1, r4}
     14c:	0001828a 	andeq	r8, r1, sl, lsl #5
     150:	42911802 	addsmi	r1, r1, #131072	; 0x20000
     154:	19000018 	stmdbne	r0, {r3, r4}
     158:	01018289 	smlabbeq	r1, r9, r2, r8
     15c:	13310111 	teqne	r1, #1073741828	; 0x40000004
     160:	891a0000 	ldmdbhi	sl, {}	; <UNPREDICTABLE>
     164:	11000182 	smlabbne	r0, r2, r1, r0
     168:	00133101 	andseq	r3, r3, r1, lsl #2
     16c:	01011b00 	tsteq	r1, r0, lsl #22
     170:	13011349 	movwne	r1, #4937	; 0x1349
     174:	211c0000 	tstcs	ip, r0
     178:	2f134900 	svccs	0x00134900
     17c:	1d00000b 	stcne	0, cr0, [r0, #-44]	; 0xffffffd4
     180:	0e030005 	cdpeq	0, 0, cr0, cr3, cr5, {0}
     184:	0b3b0b3a 	bleq	ec2e74 <__bss_end__+0xeb82c4>
     188:	13490b39 	movtne	r0, #39737	; 0x9b39
     18c:	42b71702 	adcsmi	r1, r7, #524288	; 0x80000
     190:	1e000017 	mcrne	0, 0, r0, cr0, cr7, {0}
     194:	193f012e 	ldmdbne	pc!, {r1, r2, r3, r5, r8}	; <UNPREDICTABLE>
     198:	0b3a0e03 	bleq	e839ac <__bss_end__+0xe78dfc>
     19c:	0b390b3b 	bleq	e42e90 <__bss_end__+0xe382e0>
     1a0:	13491927 	movtne	r1, #39207	; 0x9927
     1a4:	06120111 			; <UNDEFINED> instruction: 0x06120111
     1a8:	42971840 	addsmi	r1, r7, #64, 16	; 0x400000
     1ac:	00130119 	andseq	r0, r3, r9, lsl r1
     1b0:	00051f00 	andeq	r1, r5, r0, lsl #30
     1b4:	0b3a0803 	bleq	e821c8 <__bss_end__+0xe77618>
     1b8:	0b390b3b 	bleq	e42eac <__bss_end__+0xe382fc>
     1bc:	17021349 	strne	r1, [r2, -r9, asr #6]
     1c0:	001742b7 			; <UNDEFINED> instruction: 0x001742b7
     1c4:	00052000 	andeq	r2, r5, r0
     1c8:	0b3a0803 	bleq	e821dc <__bss_end__+0xe7762c>
     1cc:	0b390b3b 	bleq	e42ec0 <__bss_end__+0xe38310>
     1d0:	18021349 	stmdane	r2, {r0, r3, r6, r8, r9, ip}
     1d4:	1d210000 	stcne	0, cr0, [r1, #-0]
     1d8:	52133101 	andspl	r3, r3, #1073741824	; 0x40000000
     1dc:	0b42b801 	bleq	10ae1e8 <__bss_end__+0x10a3638>
     1e0:	06120111 			; <UNDEFINED> instruction: 0x06120111
     1e4:	0b590b58 	bleq	1642f4c <__bss_end__+0x163839c>
     1e8:	13010b57 	movwne	r0, #6999	; 0x1b57
     1ec:	05220000 	streq	r0, [r2, #-0]!
     1f0:	02133100 	andseq	r3, r3, #0
     1f4:	1742b717 	smlaldne	fp, r2, r7, r7
     1f8:	34230000 	strtcc	r0, [r3], #-0
     1fc:	3a0e0300 	bcc	380e04 <__bss_end__+0x376254>
     200:	390b3b0b 	stmdbcc	fp, {r0, r1, r3, r8, r9, fp, ip, sp}
     204:	0213490b 	andseq	r4, r3, #180224	; 0x2c000
     208:	1742b717 	smlaldne	fp, r2, r7, r7
     20c:	2e240000 	cdpcs	0, 2, cr0, cr4, cr0, {0}
     210:	3a0e0301 	bcc	380e1c <__bss_end__+0x37626c>
     214:	390b3b0b 	stmdbcc	fp, {r0, r1, r3, r8, r9, fp, ip, sp}
     218:	1119270b 	tstne	r9, fp, lsl #14
     21c:	40061201 	andmi	r1, r6, r1, lsl #4
     220:	19429718 	stmdbne	r2, {r3, r4, r8, r9, sl, ip, pc}^
     224:	00001301 	andeq	r1, r0, r1, lsl #6
     228:	03003425 	movweq	r3, #1061	; 0x425
     22c:	3b0b3a08 	blcc	2cea54 <__bss_end__+0x2c3ea4>
     230:	490b390b 	stmdbmi	fp, {r0, r1, r3, r8, fp, ip, sp}
     234:	000b1c13 	andeq	r1, fp, r3, lsl ip
     238:	011d2600 	tsteq	sp, r0, lsl #12
     23c:	01521331 	cmpeq	r2, r1, lsr r3
     240:	550b42b8 	strpl	r4, [fp, #-696]	; 0xfffffd48
     244:	590b5817 	stmdbpl	fp, {r0, r1, r2, r4, fp, ip, lr}
     248:	010b570b 	tsteq	fp, fp, lsl #14
     24c:	27000013 	smladcs	r0, r3, r0, r0
     250:	1755010b 	ldrbne	r0, [r5, -fp, lsl #2]
     254:	34280000 	strtcc	r0, [r8], #-0
     258:	02133100 	andseq	r3, r3, #0
     25c:	1742b717 	smlaldne	fp, r2, r7, r7
     260:	2e290000 	cdpcs	0, 2, cr0, cr9, cr0, {0}
     264:	3a0e0301 	bcc	380e70 <__bss_end__+0x3762c0>
     268:	390b3b0b 	stmdbcc	fp, {r0, r1, r3, r8, r9, fp, ip, sp}
     26c:	4919270b 	ldmdbmi	r9, {r0, r1, r3, r8, r9, sl, sp}
     270:	010b2013 	tsteq	fp, r3, lsl r0
     274:	2a000013 	bcs	2c8 <__code_start__-0x7d38>
     278:	08030005 	stmdaeq	r3, {r0, r2}
     27c:	0b3b0b3a 	bleq	ec2f6c <__bss_end__+0xeb83bc>
     280:	13490b39 	movtne	r0, #39737	; 0x9b39
     284:	052b0000 	streq	r0, [fp, #-0]!
     288:	3a0e0300 	bcc	380e90 <__bss_end__+0x3762e0>
     28c:	390b3b0b 	stmdbcc	fp, {r0, r1, r3, r8, r9, fp, ip, sp}
     290:	0013490b 	andseq	r4, r3, fp, lsl #18
     294:	00342c00 	eorseq	r2, r4, r0, lsl #24
     298:	0b3a0e03 	bleq	e83aac <__bss_end__+0xe78efc>
     29c:	0b390b3b 	bleq	e42f90 <__bss_end__+0xe383e0>
     2a0:	00001349 	andeq	r1, r0, r9, asr #6
     2a4:	03012e2d 	movweq	r2, #7725	; 0x1e2d
     2a8:	3b0b3a0e 	blcc	2ceae8 <__bss_end__+0x2c3f38>
     2ac:	270b390b 	strcs	r3, [fp, -fp, lsl #18]
     2b0:	11134919 	tstne	r3, r9, lsl r9
     2b4:	40061201 	andmi	r1, r6, r1, lsl #4
     2b8:	19429718 	stmdbne	r2, {r3, r4, r8, r9, sl, ip, pc}^
     2bc:	00001301 	andeq	r1, r0, r1, lsl #6
     2c0:	3f002e2e 	svccc	0x00002e2e
     2c4:	6e193c19 	mrcvs	12, 0, r3, cr9, cr9, {0}
     2c8:	3a0e030e 	bcc	380f08 <__bss_end__+0x376358>
     2cc:	390b3b0b 	stmdbcc	fp, {r0, r1, r3, r8, r9, fp, ip, sp}
     2d0:	0000000b 	andeq	r0, r0, fp
     2d4:	25011101 	strcs	r1, [r1, #-257]	; 0xfffffeff
     2d8:	030b130e 	movweq	r1, #45838	; 0xb30e
     2dc:	110e1b0e 	tstne	lr, lr, lsl #22
     2e0:	10061201 	andne	r1, r6, r1, lsl #4
     2e4:	02000017 	andeq	r0, r0, #23, 0
     2e8:	0b0b0024 	bleq	2c0380 <__bss_end__+0x2b57d0>
     2ec:	08030b3e 	stmdaeq	r3, {r1, r2, r3, r4, r5, r8, r9, fp}
     2f0:	24030000 	strcs	r0, [r3], #-0
     2f4:	3e0b0b00 	vmlacc.f64	d0, d11, d0
     2f8:	000e030b 	andeq	r0, lr, fp, lsl #6
     2fc:	00260400 	eoreq	r0, r6, r0, lsl #8
     300:	00001349 	andeq	r1, r0, r9, asr #6
     304:	03001605 	movweq	r1, #1541	; 0x605
     308:	3b0b3a0e 	blcc	2ceb48 <__bss_end__+0x2c3f98>
     30c:	490b390b 	stmdbmi	fp, {r0, r1, r3, r8, fp, ip, sp}
     310:	06000013 			; <UNDEFINED> instruction: 0x06000013
     314:	19270115 	stmdbne	r7!, {r0, r2, r4, r8}
     318:	13011349 	movwne	r1, #4937	; 0x1349
     31c:	05070000 	streq	r0, [r7, #-0]
     320:	00134900 	andseq	r4, r3, r0, lsl #18
     324:	00340800 	eorseq	r0, r4, r0, lsl #16
     328:	0b3a0e03 	bleq	e83b3c <__bss_end__+0xe78f8c>
     32c:	0b390b3b 	bleq	e43020 <__bss_end__+0xe38470>
     330:	193f1349 	ldmdbne	pc!, {r0, r3, r6, r8, r9, ip}	; <UNPREDICTABLE>
     334:	0000193c 	andeq	r1, r0, ip, lsr r9
     338:	0b000f09 	bleq	3f64 <__code_start__-0x409c>
     33c:	0013490b 	andseq	r4, r3, fp, lsl #18
     340:	01040a00 	tsteq	r4, r0, lsl #20
     344:	0b0b0b3e 	bleq	2c3044 <__bss_end__+0x2b8494>
     348:	0b3a1349 	bleq	e85074 <__bss_end__+0xe7a4c4>
     34c:	0b390b3b 	bleq	e43040 <__bss_end__+0xe38490>
     350:	00001301 	andeq	r1, r0, r1, lsl #6
     354:	0300280b 	movweq	r2, #2059	; 0x80b
     358:	000b1c0e 	andeq	r1, fp, lr, lsl #24
     35c:	01130c00 	tsteq	r3, r0, lsl #24
     360:	0b3a0b0b 	bleq	e82f94 <__bss_end__+0xe783e4>
     364:	0b390b3b 	bleq	e43058 <__bss_end__+0xe384a8>
     368:	00001301 	andeq	r1, r0, r1, lsl #6
     36c:	03000d0d 	movweq	r0, #3341	; 0xd0d
     370:	3b0b3a0e 	blcc	2cebb0 <__bss_end__+0x2c4000>
     374:	490b390b 	stmdbmi	fp, {r0, r1, r3, r8, fp, ip, sp}
     378:	0d0b0b13 	vstreq	d0, [fp, #-76]	; 0xffffffb4
     37c:	380b0c0b 	stmdacc	fp, {r0, r1, r3, sl, fp}
     380:	0e00000b 	cdpeq	0, 0, cr0, cr0, cr11, {0}
     384:	0803000d 	stmdaeq	r3, {r0, r2, r3}
     388:	0b3b0b3a 	bleq	ec3078 <__bss_end__+0xeb84c8>
     38c:	13490b39 	movtne	r0, #39737	; 0x9b39
     390:	0b0d0b0b 	bleq	342fc4 <__bss_end__+0x338414>
     394:	0b380b0c 	bleq	e02fcc <__bss_end__+0xdf841c>
     398:	350f0000 	strcc	r0, [pc, #-0]	; 3a0 <__code_start__-0x7c60>
     39c:	00134900 	andseq	r4, r3, r0, lsl #18
     3a0:	01131000 	tsteq	r3, r0
     3a4:	0b0b0e03 	bleq	2c3bb8 <__bss_end__+0x2b9008>
     3a8:	0b3b0b3a 	bleq	ec3098 <__bss_end__+0xeb84e8>
     3ac:	13010b39 	movwne	r0, #6969	; 0x1b39
     3b0:	0d110000 	ldceq	0, cr0, [r1, #-0]
     3b4:	3a0e0300 	bcc	380fbc <__bss_end__+0x37640c>
     3b8:	390b3b0b 	stmdbcc	fp, {r0, r1, r3, r8, r9, fp, ip, sp}
     3bc:	3813490b 	ldmdacc	r3, {r0, r1, r3, r8, fp, lr}
     3c0:	1200000b 	andne	r0, r0, #11, 0
     3c4:	08030034 	stmdaeq	r3, {r2, r4, r5}
     3c8:	0b3b0b3a 	bleq	ec30b8 <__bss_end__+0xeb8508>
     3cc:	13490b39 	movtne	r0, #39737	; 0x9b39
     3d0:	34130000 	ldrcc	r0, [r3], #-0
     3d4:	3a0e0300 	bcc	380fdc <__bss_end__+0x37642c>
     3d8:	39053b0b 	stmdbcc	r5, {r0, r1, r3, r8, r9, fp, ip, sp}
     3dc:	0213490b 	andseq	r4, r3, #180224	; 0x2c000
     3e0:	14000018 	strne	r0, [r0], #-24	; 0xffffffe8
     3e4:	0e03012e 	adfeqsp	f0, f3, #0.5
     3e8:	053b0b3a 	ldreq	r0, [fp, #-2874]!	; 0xfffff4c6
     3ec:	19270b39 	stmdbne	r7!, {r0, r3, r4, r5, r8, r9, fp}
     3f0:	06120111 			; <UNDEFINED> instruction: 0x06120111
     3f4:	42971840 	addsmi	r1, r7, #64, 16	; 0x400000
     3f8:	00130119 	andseq	r0, r3, r9, lsl r1
     3fc:	00341500 	eorseq	r1, r4, r0, lsl #10
     400:	13490e03 	movtne	r0, #40451	; 0x9e03
     404:	18021934 	stmdane	r2, {r2, r4, r5, r8, fp, ip}
     408:	0b160000 	bleq	580410 <__bss_end__+0x575860>
     40c:	12011101 	andne	r1, r1, #1073741824	; 0x40000000
     410:	00130106 	andseq	r0, r3, r6, lsl #2
     414:	01171700 	tsteq	r7, r0, lsl #14
     418:	0b0b0803 	bleq	2c242c <__bss_end__+0x2b787c>
     41c:	053b0b3a 	ldreq	r0, [fp, #-2874]!	; 0xfffff4c6
     420:	13010b39 	movwne	r0, #6969	; 0x1b39
     424:	0d180000 	ldceq	0, cr0, [r8, #-0]
     428:	3a080300 	bcc	201030 <__bss_end__+0x1f6480>
     42c:	39053b0b 	stmdbcc	r5, {r0, r1, r3, r8, r9, fp, ip, sp}
     430:	0013490b 	andseq	r4, r3, fp, lsl #18
     434:	00341900 	eorseq	r1, r4, r0, lsl #18
     438:	0b3a0803 	bleq	e8244c <__bss_end__+0xe7789c>
     43c:	0b39053b 	bleq	e41930 <__bss_end__+0xe36d80>
     440:	00001349 	andeq	r1, r0, r9, asr #6
     444:	0300341a 	movweq	r3, #1050	; 0x41a
     448:	3b0b3a08 	blcc	2cec70 <__bss_end__+0x2c40c0>
     44c:	490b3905 	stmdbmi	fp, {r0, r2, r8, fp, ip, sp}
     450:	000b1c13 	andeq	r1, fp, r3, lsl ip
     454:	00341b00 	eorseq	r1, r4, r0, lsl #22
     458:	0b3a0e03 	bleq	e83c6c <__bss_end__+0xe790bc>
     45c:	0b39053b 	bleq	e41950 <__bss_end__+0xe36da0>
     460:	0b1c1349 	bleq	70518c <__bss_end__+0x6fa5dc>
     464:	341c0000 	ldrcc	r0, [ip], #-0
     468:	3a080300 	bcc	201070 <__bss_end__+0x1f64c0>
     46c:	39053b0b 	stmdbcc	r5, {r0, r1, r3, r8, r9, fp, ip, sp}
     470:	0213490b 	andseq	r4, r3, #180224	; 0x2c000
     474:	1d000018 	stcne	0, cr0, [r0, #-96]	; 0xffffffa0
     478:	08030034 	stmdaeq	r3, {r2, r4, r5}
     47c:	053b0b3a 	ldreq	r0, [fp, #-2874]!	; 0xfffff4c6
     480:	13490b39 	movtne	r0, #39737	; 0x9b39
     484:	42b71702 	adcsmi	r1, r7, #524288	; 0x80000
     488:	1e000017 	mcrne	0, 0, r0, cr0, cr7, {0}
     48c:	08030034 	stmdaeq	r3, {r2, r4, r5}
     490:	053b0b3a 	ldreq	r0, [fp, #-2874]!	; 0xfffff4c6
     494:	13490b39 	movtne	r0, #39737	; 0x9b39
     498:	0000051c 	andeq	r0, r0, ip, lsl r5
     49c:	11010b1f 	tstne	r1, pc, lsl fp
     4a0:	00061201 	andeq	r1, r6, r1, lsl #4
     4a4:	00342000 	eorseq	r2, r4, r0
     4a8:	0b3a0e03 	bleq	e83cbc <__bss_end__+0xe7910c>
     4ac:	0b39053b 	bleq	e419a0 <__bss_end__+0xe36df0>
     4b0:	00001349 	andeq	r1, r0, r9, asr #6
     4b4:	49010121 	stmdbmi	r1, {r0, r5, r8}
     4b8:	00130113 	andseq	r0, r3, r3, lsl r1
     4bc:	00212200 	eoreq	r2, r1, r0, lsl #4
     4c0:	0b2f1349 	bleq	bc51ec <__bss_end__+0xbba63c>
     4c4:	2e230000 	cdpcs	0, 2, cr0, cr3, cr0, {0}
     4c8:	03193f01 	tsteq	r9, #1, 30
     4cc:	3b0b3a0e 	blcc	2ced0c <__bss_end__+0x2c415c>
     4d0:	270b3905 	strcs	r3, [fp, -r5, lsl #18]
     4d4:	12011119 	andne	r1, r1, #1073741830	; 0x40000006
     4d8:	97184006 	ldrls	r4, [r8, -r6]
     4dc:	13011942 	movwne	r1, #6466	; 0x1942
     4e0:	89240000 	stmdbhi	r4!, {}	; <UNPREDICTABLE>
     4e4:	11000182 	smlabbne	r0, r2, r1, r0
     4e8:	00133101 	andseq	r3, r3, r1, lsl #2
     4ec:	82892500 	addhi	r2, r9, #0, 10
     4f0:	01110101 	tsteq	r1, r1, lsl #2
     4f4:	13011331 	movwne	r1, #4913	; 0x1331
     4f8:	8a260000 	bhi	980500 <__bss_end__+0x975950>
     4fc:	02000182 	andeq	r0, r0, #-2147483616	; 0x80000020
     500:	18429118 	stmdane	r2, {r3, r4, r8, ip, pc}^
     504:	2e270000 	cdpcs	0, 2, cr0, cr7, cr0, {0}
     508:	03193f00 	tsteq	r9, #0, 30
     50c:	3b0b3a0e 	blcc	2ced4c <__bss_end__+0x2c419c>
     510:	270b3905 	strcs	r3, [fp, -r5, lsl #18]
     514:	11134919 	tstne	r3, r9, lsl r9
     518:	40061201 	andmi	r1, r6, r1, lsl #4
     51c:	19429718 	stmdbne	r2, {r3, r4, r8, r9, sl, ip, pc}^
     520:	2e280000 	cdpcs	0, 2, cr0, cr8, cr0, {0}
     524:	03193f01 	tsteq	r9, #1, 30
     528:	3b0b3a0e 	blcc	2ced68 <__bss_end__+0x2c41b8>
     52c:	270b3905 	strcs	r3, [fp, -r5, lsl #18]
     530:	11134919 	tstne	r3, r9, lsl r9
     534:	40061201 	andmi	r1, r6, r1, lsl #4
     538:	19429718 	stmdbne	r2, {r3, r4, r8, r9, sl, ip, pc}^
     53c:	00001301 	andeq	r1, r0, r1, lsl #6
     540:	03000529 	movweq	r0, #1321	; 0x529
     544:	3b0b3a08 	blcc	2ced6c <__bss_end__+0x2c41bc>
     548:	490b3905 	stmdbmi	fp, {r0, r2, r8, fp, ip, sp}
     54c:	b7170213 			; <UNDEFINED> instruction: 0xb7170213
     550:	00001742 	andeq	r1, r0, r2, asr #14
     554:	55010b2a 	strpl	r0, [r1, #-2858]	; 0xfffff4d6
     558:	00130117 	andseq	r0, r3, r7, lsl r1
     55c:	00342b00 	eorseq	r2, r4, r0, lsl #22
     560:	0b3a0e03 	bleq	e83d74 <__bss_end__+0xe791c4>
     564:	0b39053b 	bleq	e41a58 <__bss_end__+0xe36ea8>
     568:	17021349 	strne	r1, [r2, -r9, asr #6]
     56c:	001742b7 			; <UNDEFINED> instruction: 0x001742b7
     570:	82892c00 	addhi	r2, r9, #0, 24
     574:	01110101 	tsteq	r1, r1, lsl #2
     578:	00001331 	andeq	r1, r0, r1, lsr r3
     57c:	0300052d 	movweq	r0, #1325	; 0x52d
     580:	3b0b3a0e 	blcc	2cedc0 <__bss_end__+0x2c4210>
     584:	490b3905 	stmdbmi	fp, {r0, r2, r8, fp, ip, sp}
     588:	b7170213 			; <UNDEFINED> instruction: 0xb7170213
     58c:	00001742 	andeq	r1, r0, r2, asr #14
     590:	03012e2e 	movweq	r2, #7726	; 0x1e2e
     594:	3b0b3a0e 	blcc	2cedd4 <__bss_end__+0x2c4224>
     598:	270b390b 	strcs	r3, [fp, -fp, lsl #18]
     59c:	12011119 	andne	r1, r1, #1073741830	; 0x40000006
     5a0:	97184006 	ldrls	r4, [r8, -r6]
     5a4:	13011942 	movwne	r1, #6466	; 0x1942
     5a8:	052f0000 	streq	r0, [pc, #-0]!	; 5b0 <__code_start__-0x7a50>
     5ac:	3a0e0300 	bcc	3811b4 <__bss_end__+0x376604>
     5b0:	390b3b0b 	stmdbcc	fp, {r0, r1, r3, r8, r9, fp, ip, sp}
     5b4:	0213490b 	andseq	r4, r3, #180224	; 0x2c000
     5b8:	1742b717 	smlaldne	fp, r2, r7, r7
     5bc:	17300000 	ldrne	r0, [r0, -r0]!
     5c0:	0b080301 	bleq	2011cc <__bss_end__+0x1f661c>
     5c4:	3b0b3a0b 	blcc	2cedf8 <__bss_end__+0x2c4248>
     5c8:	010b390b 	tsteq	fp, fp, lsl #18
     5cc:	31000013 	tstcc	r0, r3, lsl r0
     5d0:	0803000d 	stmdaeq	r3, {r0, r2, r3}
     5d4:	0b3b0b3a 	bleq	ec32c4 <__bss_end__+0xeb8714>
     5d8:	13490b39 	movtne	r0, #39737	; 0x9b39
     5dc:	2e320000 	cdpcs	0, 3, cr0, cr2, cr0, {0}
     5e0:	3a0e0301 	bcc	3811ec <__bss_end__+0x37663c>
     5e4:	390b3b0b 	stmdbcc	fp, {r0, r1, r3, r8, r9, fp, ip, sp}
     5e8:	4919270b 	ldmdbmi	r9, {r0, r1, r3, r8, r9, sl, sp}
     5ec:	12011113 	andne	r1, r1, #-1073741820	; 0xc0000004
     5f0:	97184006 	ldrls	r4, [r8, -r6]
     5f4:	13011942 	movwne	r1, #6466	; 0x1942
     5f8:	05330000 	ldreq	r0, [r3, #-0]!
     5fc:	3a080300 	bcc	201204 <__bss_end__+0x1f6654>
     600:	390b3b0b 	stmdbcc	fp, {r0, r1, r3, r8, r9, fp, ip, sp}
     604:	0213490b 	andseq	r4, r3, #180224	; 0x2c000
     608:	1742b717 	smlaldne	fp, r2, r7, r7
     60c:	2e340000 	cdpcs	0, 3, cr0, cr4, cr0, {0}
     610:	3c193f00 	ldccc	15, cr3, [r9], {-0}
     614:	030e6e19 	movweq	r6, #60953	; 0xee19
     618:	3b0b3a0e 	blcc	2cee58 <__bss_end__+0x2c42a8>
     61c:	000b390b 	andeq	r3, fp, fp, lsl #18
     620:	11010000 	mrsne	r0, (UNDEF: 1)
     624:	130e2501 	movwne	r2, #58625	; 0xe501
     628:	1b0e030b 	blne	38125c <__bss_end__+0x3766ac>
     62c:	1201110e 	andne	r1, r1, #-2147483645	; 0x80000003
     630:	00171006 	andseq	r1, r7, r6
     634:	00240200 	eoreq	r0, r4, r0, lsl #4
     638:	0b3e0b0b 	bleq	f8326c <__bss_end__+0xf786bc>
     63c:	00000e03 	andeq	r0, r0, r3, lsl #28
     640:	0b002403 	bleq	9654 <va_printk+0x134>
     644:	030b3e0b 	movweq	r3, #48651	; 0xbe0b
     648:	04000008 	streq	r0, [r0], #-8
     64c:	13490026 	movtne	r0, #36902	; 0x9026
     650:	16050000 	strne	r0, [r5], -r0
     654:	3a0e0300 	bcc	38125c <__bss_end__+0x3766ac>
     658:	390b3b0b 	stmdbcc	fp, {r0, r1, r3, r8, r9, fp, ip, sp}
     65c:	0013490b 	andseq	r4, r3, fp, lsl #18
     660:	01150600 	tsteq	r5, r0, lsl #12
     664:	13491927 	movtne	r1, #39207	; 0x9927
     668:	00001301 	andeq	r1, r0, r1, lsl #6
     66c:	49000507 	stmdbmi	r0, {r0, r1, r2, r8, sl}
     670:	08000013 	stmdaeq	r0, {r0, r1, r4}
     674:	0e030034 	mcreq	0, 0, r0, cr3, cr4, {1}
     678:	0b3b0b3a 	bleq	ec3368 <__bss_end__+0xeb87b8>
     67c:	13490b39 	movtne	r0, #39737	; 0x9b39
     680:	193c193f 	ldmdbne	ip!, {r0, r1, r2, r3, r4, r5, r8, fp, ip}
     684:	0f090000 	svceq	0x00090000
     688:	490b0b00 	stmdbmi	fp, {r8, r9, fp}
     68c:	0a000013 	beq	6e0 <__code_start__-0x7920>
     690:	0b3e0104 	bleq	f80aa8 <__bss_end__+0xf75ef8>
     694:	13490b0b 	movtne	r0, #39691	; 0x9b0b
     698:	0b3b0b3a 	bleq	ec3388 <__bss_end__+0xeb87d8>
     69c:	13010b39 	movwne	r0, #6969	; 0x1b39
     6a0:	280b0000 	stmdacs	fp, {}	; <UNPREDICTABLE>
     6a4:	1c0e0300 	stcne	3, cr0, [lr], {-0}
     6a8:	0c00000b 	stceq	0, cr0, [r0], {11}
     6ac:	0e030034 	mcreq	0, 0, r0, cr3, cr4, {1}
     6b0:	0b3b0b3a 	bleq	ec33a0 <__bss_end__+0xeb87f0>
     6b4:	13490b39 	movtne	r0, #39737	; 0x9b39
     6b8:	0000061c 	andeq	r0, r0, ip, lsl r6
     6bc:	3f012e0d 	svccc	0x00012e0d
     6c0:	3a0e0319 	bcc	38132c <__bss_end__+0x37677c>
     6c4:	390b3b0b 	stmdbcc	fp, {r0, r1, r3, r8, r9, fp, ip, sp}
     6c8:	4919270b 	ldmdbmi	r9, {r0, r1, r3, r8, r9, sl, sp}
     6cc:	12011113 	andne	r1, r1, #-1073741820	; 0xc0000004
     6d0:	97184006 	ldrls	r4, [r8, -r6]
     6d4:	13011942 	movwne	r1, #6466	; 0x1942
     6d8:	050e0000 	streq	r0, [lr, #-0]
     6dc:	3a080300 	bcc	2012e4 <__bss_end__+0x1f6734>
     6e0:	390b3b0b 	stmdbcc	fp, {r0, r1, r3, r8, r9, fp, ip, sp}
     6e4:	0213490b 	andseq	r4, r3, #180224	; 0x2c000
     6e8:	1742b717 	smlaldne	fp, r2, r7, r7
     6ec:	340f0000 	strcc	r0, [pc], #-0	; 6f4 <__code_start__-0x790c>
     6f0:	3a0e0300 	bcc	3812f8 <__bss_end__+0x376748>
     6f4:	390b3b0b 	stmdbcc	fp, {r0, r1, r3, r8, r9, fp, ip, sp}
     6f8:	0213490b 	andseq	r4, r3, #180224	; 0x2c000
     6fc:	1742b717 	smlaldne	fp, r2, r7, r7
     700:	34100000 	ldrcc	r0, [r0], #-0
     704:	3a080300 	bcc	20130c <__bss_end__+0x1f675c>
     708:	390b3b0b 	stmdbcc	fp, {r0, r1, r3, r8, r9, fp, ip, sp}
     70c:	0213490b 	andseq	r4, r3, #180224	; 0x2c000
     710:	1742b717 	smlaldne	fp, r2, r7, r7
     714:	89110000 	ldmdbhi	r1, {}	; <UNPREDICTABLE>
     718:	11010182 	smlabbne	r1, r2, r1, r0
     71c:	00133101 	andseq	r3, r3, r1, lsl #2
     720:	828a1200 	addhi	r1, sl, #0, 4
     724:	18020001 	stmdane	r2, {r0}
     728:	00184291 	mulseq	r8, r1, r2
     72c:	012e1300 			; <UNDEFINED> instruction: 0x012e1300
     730:	0e03193f 			; <UNDEFINED> instruction: 0x0e03193f
     734:	0b3b0b3a 	bleq	ec3424 <__bss_end__+0xeb8874>
     738:	19270b39 	stmdbne	r7!, {r0, r3, r4, r5, r8, r9, fp}
     73c:	06120111 			; <UNDEFINED> instruction: 0x06120111
     740:	42971840 	addsmi	r1, r7, #64, 16	; 0x400000
     744:	00130119 	andseq	r0, r3, r9, lsl r1
     748:	011d1400 	tsteq	sp, r0, lsl #8
     74c:	01521331 	cmpeq	r2, r1, lsr r3
     750:	550b42b8 	strpl	r4, [fp, #-696]	; 0xfffffd48
     754:	590b5817 	stmdbpl	fp, {r0, r1, r2, r4, fp, ip, lr}
     758:	010b570b 	tsteq	fp, fp, lsl #14
     75c:	15000013 	strne	r0, [r0, #-19]	; 0xffffffed
     760:	13310005 	teqne	r1, #5, 0
     764:	42b71702 	adcsmi	r1, r7, #524288	; 0x80000
     768:	16000017 			; <UNDEFINED> instruction: 0x16000017
     76c:	01018289 	smlabbeq	r1, r9, r2, r8
     770:	42950111 	addsmi	r0, r5, #1073741828	; 0x40000004
     774:	00133119 	andseq	r3, r3, r9, lsl r1
     778:	011d1700 	tsteq	sp, r0, lsl #14
     77c:	01521331 	cmpeq	r2, r1, lsr r3
     780:	110b42b8 			; <UNDEFINED> instruction: 0x110b42b8
     784:	58061201 	stmdapl	r6, {r0, r9, ip}
     788:	570b590b 	strpl	r5, [fp, -fp, lsl #18]
     78c:	1800000b 	stmdane	r0, {r0, r1, r3}
     790:	1331011d 	teqne	r1, #1073741831	; 0x40000007
     794:	42b80152 	adcsmi	r0, r8, #-2147483628	; 0x80000014
     798:	5817550b 	ldmdapl	r7, {r0, r1, r3, r8, sl, ip, lr}
     79c:	570b590b 	strpl	r5, [fp, -fp, lsl #18]
     7a0:	1900000b 	stmdbne	r0, {r0, r1, r3}
     7a4:	13310005 	teqne	r1, #5, 0
     7a8:	00000b1c 	andeq	r0, r0, ip, lsl fp
     7ac:	55010b1a 	strpl	r0, [r1, #-2842]	; 0xfffff4e6
     7b0:	1b000017 	blne	814 <__code_start__-0x77ec>
     7b4:	13310034 	teqne	r1, #52, 0	; 0x34
     7b8:	341c0000 	ldrcc	r0, [ip], #-0
     7bc:	02133100 	andseq	r3, r3, #0
     7c0:	1742b717 	smlaldne	fp, r2, r7, r7
     7c4:	891d0000 	ldmdbhi	sp, {}	; <UNPREDICTABLE>
     7c8:	11010182 	smlabbne	r1, r2, r1, r0
     7cc:	01133101 	tsteq	r3, r1, lsl #2
     7d0:	1e000013 	mcrne	0, 0, r0, cr0, cr3, {0}
     7d4:	193f012e 	ldmdbne	pc!, {r1, r2, r3, r5, r8}	; <UNPREDICTABLE>
     7d8:	0b3a0e03 	bleq	e83fec <__bss_end__+0xe7943c>
     7dc:	0b390b3b 	bleq	e434d0 <__bss_end__+0xe38920>
     7e0:	0b201927 	bleq	806c84 <__bss_end__+0x7fc0d4>
     7e4:	00001301 	andeq	r1, r0, r1, lsl #6
     7e8:	0300051f 	movweq	r0, #1311	; 0x51f
     7ec:	3b0b3a08 	blcc	2cf014 <__bss_end__+0x2c4464>
     7f0:	490b390b 	stmdbmi	fp, {r0, r1, r3, r8, fp, ip, sp}
     7f4:	20000013 	andcs	r0, r0, r3, lsl r0
     7f8:	0e030005 	cdpeq	0, 0, cr0, cr3, cr5, {0}
     7fc:	0b3b0b3a 	bleq	ec34ec <__bss_end__+0xeb893c>
     800:	13490b39 	movtne	r0, #39737	; 0x9b39
     804:	34210000 	strtcc	r0, [r1], #-0
     808:	3a080300 	bcc	201410 <__bss_end__+0x1f6860>
     80c:	390b3b0b 	stmdbcc	fp, {r0, r1, r3, r8, r9, fp, ip, sp}
     810:	0013490b 	andseq	r4, r3, fp, lsl #18
     814:	012e2200 			; <UNDEFINED> instruction: 0x012e2200
     818:	0b3a0e03 	bleq	e8402c <__bss_end__+0xe7947c>
     81c:	0b390b3b 	bleq	e43510 <__bss_end__+0xe38960>
     820:	13491927 	movtne	r1, #39207	; 0x9927
     824:	13010b20 	movwne	r0, #6944	; 0x1b20
     828:	2e230000 	cdpcs	0, 2, cr0, cr3, cr0, {0}
     82c:	11133101 	tstne	r3, r1, lsl #2
     830:	40061201 	andmi	r1, r6, r1, lsl #4
     834:	19429718 	stmdbne	r2, {r3, r4, r8, r9, sl, ip, pc}^
     838:	00001301 	andeq	r1, r0, r1, lsl #6
     83c:	3f002e24 	svccc	0x00002e24
     840:	6e193c19 	mrcvs	12, 0, r3, cr9, cr9, {0}
     844:	3a0e030e 	bcc	381484 <__bss_end__+0x3768d4>
     848:	390b3b0b 	stmdbcc	fp, {r0, r1, r3, r8, r9, fp, ip, sp}
     84c:	0000000b 	andeq	r0, r0, fp
     850:	25011101 	strcs	r1, [r1, #-257]	; 0xfffffeff
     854:	030b130e 	movweq	r1, #45838	; 0xb30e
     858:	110e1b0e 	tstne	lr, lr, lsl #22
     85c:	10061201 	andne	r1, r6, r1, lsl #4
     860:	02000017 	andeq	r0, r0, #23, 0
     864:	0e030016 	mcreq	0, 0, r0, cr3, cr6, {0}
     868:	0b3b0b3a 	bleq	ec3558 <__bss_end__+0xeb89a8>
     86c:	13490b39 	movtne	r0, #39737	; 0x9b39
     870:	13030000 	movwne	r0, #12288	; 0x3000
     874:	0b0e0301 	bleq	381480 <__bss_end__+0x3768d0>
     878:	3b0b3a0b 	blcc	2cf0ac <__bss_end__+0x2c44fc>
     87c:	0013010b 	andseq	r0, r3, fp, lsl #2
     880:	000d0400 	andeq	r0, sp, r0, lsl #8
     884:	13490e03 	movtne	r0, #40451	; 0x9e03
     888:	19340b38 	ldmdbne	r4!, {r3, r4, r5, r8, r9, fp}
     88c:	0f050000 	svceq	0x00050000
     890:	000b0b00 	andeq	r0, fp, r0, lsl #22
     894:	00240600 	eoreq	r0, r4, r0, lsl #12
     898:	0b3e0b0b 	bleq	f834cc <__bss_end__+0xf7891c>
     89c:	00000803 	andeq	r0, r0, r3, lsl #16
     8a0:	0b002407 	bleq	98c4 <va_printk+0x3a4>
     8a4:	030b3e0b 	movweq	r3, #48651	; 0xbe0b
     8a8:	0800000e 	stmdaeq	r0, {r1, r2, r3}
     8ac:	19270115 	stmdbne	r7!, {r0, r2, r4, r8}
     8b0:	13011349 	movwne	r1, #4937	; 0x1349
     8b4:	05090000 	streq	r0, [r9, #-0]
     8b8:	00134900 	andseq	r4, r3, r0, lsl #18
     8bc:	00340a00 	eorseq	r0, r4, r0, lsl #20
     8c0:	0b3a0e03 	bleq	e840d4 <__bss_end__+0xe79524>
     8c4:	0b390b3b 	bleq	e435b8 <__bss_end__+0xe38a08>
     8c8:	193f1349 	ldmdbne	pc!, {r0, r3, r6, r8, r9, ip}	; <UNPREDICTABLE>
     8cc:	0000193c 	andeq	r1, r0, ip, lsr r9
     8d0:	0b000f0b 	bleq	4504 <__code_start__-0x3afc>
     8d4:	0013490b 	andseq	r4, r3, fp, lsl #18
     8d8:	00260c00 	eoreq	r0, r6, r0, lsl #24
     8dc:	00001349 	andeq	r1, r0, r9, asr #6
     8e0:	3f012e0d 	svccc	0x00012e0d
     8e4:	3a0e0319 	bcc	381550 <__bss_end__+0x3769a0>
     8e8:	390b3b0b 	stmdbcc	fp, {r0, r1, r3, r8, r9, fp, ip, sp}
     8ec:	4919270b 	ldmdbmi	r9, {r0, r1, r3, r8, r9, sl, sp}
     8f0:	12011113 	andne	r1, r1, #-1073741820	; 0xc0000004
     8f4:	97184006 	ldrls	r4, [r8, -r6]
     8f8:	13011942 	movwne	r1, #6466	; 0x1942
     8fc:	050e0000 	streq	r0, [lr, #-0]
     900:	3a080300 	bcc	201508 <__bss_end__+0x1f6958>
     904:	390b3b0b 	stmdbcc	fp, {r0, r1, r3, r8, r9, fp, ip, sp}
     908:	0213490b 	andseq	r4, r3, #180224	; 0x2c000
     90c:	0f000018 	svceq	0x00000018
     910:	00000018 	andeq	r0, r0, r8, lsl r0
     914:	03003410 	movweq	r3, #1040	; 0x410
     918:	3b0b3a08 	blcc	2cf140 <__bss_end__+0x2c4590>
     91c:	490b390b 	stmdbmi	fp, {r0, r1, r3, r8, fp, ip, sp}
     920:	00180213 	andseq	r0, r8, r3, lsl r2
     924:	00341100 	eorseq	r1, r4, r0, lsl #2
     928:	0b3a0e03 	bleq	e8413c <__bss_end__+0xe7958c>
     92c:	0b390b3b 	bleq	e43620 <__bss_end__+0xe38a70>
     930:	18021349 	stmdane	r2, {r0, r3, r6, r8, r9, ip}
     934:	34120000 	ldrcc	r0, [r2], #-0
     938:	3a080300 	bcc	201540 <__bss_end__+0x1f6990>
     93c:	390b3b0b 	stmdbcc	fp, {r0, r1, r3, r8, r9, fp, ip, sp}
     940:	0213490b 	andseq	r4, r3, #180224	; 0x2c000
     944:	1742b717 	smlaldne	fp, r2, r7, r7
     948:	89130000 	ldmdbhi	r3, {}	; <UNPREDICTABLE>
     94c:	11010182 	smlabbne	r1, r2, r1, r0
     950:	01133101 	tsteq	r3, r1, lsl #2
     954:	14000013 	strne	r0, [r0], #-19	; 0xffffffed
     958:	0001828a 	andeq	r8, r1, sl, lsl #5
     95c:	42911802 	addsmi	r1, r1, #131072	; 0x20000
     960:	15000018 	strne	r0, [r0, #-24]	; 0xffffffe8
     964:	01018289 	smlabbeq	r1, r9, r2, r8
     968:	00000111 	andeq	r0, r0, r1, lsl r1
     96c:	49010116 	stmdbmi	r1, {r1, r2, r4, r8}
     970:	00130113 	andseq	r0, r3, r3, lsl r1
     974:	00211700 	eoreq	r1, r1, r0, lsl #14
     978:	052f1349 	streq	r1, [pc, #-841]!	; 637 <__code_start__-0x79c9>
     97c:	2e180000 	cdpcs	0, 1, cr0, cr8, cr0, {0}
     980:	3c193f00 	ldccc	15, cr3, [r9], {-0}
     984:	030e6e19 	movweq	r6, #60953	; 0xee19
     988:	3b0b3a0e 	blcc	2cf1c8 <__bss_end__+0x2c4618>
     98c:	000b390b 	andeq	r3, fp, fp, lsl #18
     990:	11010000 	mrsne	r0, (UNDEF: 1)
     994:	130e2501 	movwne	r2, #58625	; 0xe501
     998:	1b0e030b 	blne	3815cc <__bss_end__+0x376a1c>
     99c:	1201110e 	andne	r1, r1, #-2147483645	; 0x80000003
     9a0:	00171006 	andseq	r1, r7, r6
     9a4:	00240200 	eoreq	r0, r4, r0, lsl #4
     9a8:	0b3e0b0b 	bleq	f835dc <__bss_end__+0xf78a2c>
     9ac:	00000803 	andeq	r0, r0, r3, lsl #16
     9b0:	0b002403 	bleq	99c4 <va_printk+0x4a4>
     9b4:	030b3e0b 	movweq	r3, #48651	; 0xbe0b
     9b8:	0400000e 	streq	r0, [r0], #-14
     9bc:	19270115 	stmdbne	r7!, {r0, r2, r4, r8}
     9c0:	13011349 	movwne	r1, #4937	; 0x1349
     9c4:	05050000 	streq	r0, [r5, #-0]
     9c8:	00134900 	andseq	r4, r3, r0, lsl #18
     9cc:	00340600 	eorseq	r0, r4, r0, lsl #12
     9d0:	0b3a0e03 	bleq	e841e4 <__bss_end__+0xe79634>
     9d4:	0b390b3b 	bleq	e436c8 <__bss_end__+0xe38b18>
     9d8:	193f1349 	ldmdbne	pc!, {r0, r3, r6, r8, r9, ip}	; <UNPREDICTABLE>
     9dc:	0000193c 	andeq	r1, r0, ip, lsr r9
     9e0:	0b000f07 	bleq	4604 <__code_start__-0x39fc>
     9e4:	0013490b 	andseq	r4, r3, fp, lsl #18
     9e8:	00260800 	eoreq	r0, r6, r0, lsl #16
     9ec:	00001349 	andeq	r1, r0, r9, asr #6
     9f0:	47003409 	strmi	r3, [r0, -r9, lsl #8]
     9f4:	3b0b3a13 	blcc	2cf248 <__bss_end__+0x2c4698>
     9f8:	020b390b 	andeq	r3, fp, #180224	; 0x2c000
     9fc:	0a000018 	beq	a64 <__code_start__-0x759c>
     a00:	193f012e 	ldmdbne	pc!, {r1, r2, r3, r5, r8}	; <UNPREDICTABLE>
     a04:	0b3a0e03 	bleq	e84218 <__bss_end__+0xe79668>
     a08:	0b390b3b 	bleq	e436fc <__bss_end__+0xe38b4c>
     a0c:	13491927 	movtne	r1, #39207	; 0x9927
     a10:	06120111 			; <UNDEFINED> instruction: 0x06120111
     a14:	42961840 	addsmi	r1, r6, #64, 16	; 0x400000
     a18:	0b000019 	bleq	a84 <__code_start__-0x757c>
     a1c:	08030005 	stmdaeq	r3, {r0, r2}
     a20:	0b3b0b3a 	bleq	ec3710 <__bss_end__+0xeb8b60>
     a24:	13490b39 	movtne	r0, #39737	; 0x9b39
     a28:	42b71702 	adcsmi	r1, r7, #524288	; 0x80000
     a2c:	00000017 	andeq	r0, r0, r7, lsl r0
     a30:	25011101 	strcs	r1, [r1, #-257]	; 0xfffffeff
     a34:	030b130e 	movweq	r1, #45838	; 0xb30e
     a38:	110e1b0e 	tstne	lr, lr, lsl #22
     a3c:	10061201 	andne	r1, r6, r1, lsl #4
     a40:	02000017 	andeq	r0, r0, #23, 0
     a44:	0b0b0024 	bleq	2c0adc <__bss_end__+0x2b5f2c>
     a48:	0e030b3e 	vmoveq.16	d3[0], r0
     a4c:	24030000 	strcs	r0, [r3], #-0
     a50:	3e0b0b00 	vmlacc.f64	d0, d11, d0
     a54:	0008030b 	andeq	r0, r8, fp, lsl #6
     a58:	00160400 	andseq	r0, r6, r0, lsl #8
     a5c:	0b3a0e03 	bleq	e84270 <__bss_end__+0xe796c0>
     a60:	0b390b3b 	bleq	e43754 <__bss_end__+0xe38ba4>
     a64:	00001349 	andeq	r1, r0, r9, asr #6
     a68:	27011505 	strcs	r1, [r1, -r5, lsl #10]
     a6c:	01134919 	tsteq	r3, r9, lsl r9
     a70:	06000013 			; <UNDEFINED> instruction: 0x06000013
     a74:	13490005 	movtne	r0, #36869	; 0x9005
     a78:	34070000 	strcc	r0, [r7], #-0
     a7c:	3a0e0300 	bcc	381684 <__bss_end__+0x376ad4>
     a80:	390b3b0b 	stmdbcc	fp, {r0, r1, r3, r8, r9, fp, ip, sp}
     a84:	3f13490b 	svccc	0x0013490b
     a88:	00193c19 	andseq	r3, r9, r9, lsl ip
     a8c:	000f0800 	andeq	r0, pc, r0, lsl #16
     a90:	13490b0b 	movtne	r0, #39691	; 0x9b0b
     a94:	26090000 	strcs	r0, [r9], -r0
     a98:	00134900 	andseq	r4, r3, r0, lsl #18
     a9c:	01130a00 	tsteq	r3, r0, lsl #20
     aa0:	0b0b0e03 	bleq	2c42b4 <__bss_end__+0x2b9704>
     aa4:	0b3b0b3a 	bleq	ec3794 <__bss_end__+0xeb8be4>
     aa8:	00001301 	andeq	r1, r0, r1, lsl #6
     aac:	03000d0b 	movweq	r0, #3339	; 0xd0b
     ab0:	3813490e 	ldmdacc	r3, {r1, r2, r3, r8, fp, lr}
     ab4:	0019340b 	andseq	r3, r9, fp, lsl #8
     ab8:	000f0c00 	andeq	r0, pc, r0, lsl #24
     abc:	00000b0b 	andeq	r0, r0, fp, lsl #22
     ac0:	3f012e0d 	svccc	0x00012e0d
     ac4:	3a0e0319 	bcc	381730 <__bss_end__+0x376b80>
     ac8:	390b3b0b 	stmdbcc	fp, {r0, r1, r3, r8, r9, fp, ip, sp}
     acc:	4919270b 	ldmdbmi	r9, {r0, r1, r3, r8, r9, sl, sp}
     ad0:	12011113 	andne	r1, r1, #-1073741820	; 0xc0000004
     ad4:	97184006 	ldrls	r4, [r8, -r6]
     ad8:	13011942 	movwne	r1, #6466	; 0x1942
     adc:	050e0000 	streq	r0, [lr, #-0]
     ae0:	3a080300 	bcc	2016e8 <__bss_end__+0x1f6b38>
     ae4:	390b3b0b 	stmdbcc	fp, {r0, r1, r3, r8, r9, fp, ip, sp}
     ae8:	0213490b 	andseq	r4, r3, #180224	; 0x2c000
     aec:	1742b717 	smlaldne	fp, r2, r7, r7
     af0:	050f0000 	streq	r0, [pc, #-0]	; af8 <__code_start__-0x7508>
     af4:	3a0e0300 	bcc	3816fc <__bss_end__+0x376b4c>
     af8:	390b3b0b 	stmdbcc	fp, {r0, r1, r3, r8, r9, fp, ip, sp}
     afc:	0213490b 	andseq	r4, r3, #180224	; 0x2c000
     b00:	1742b717 	smlaldne	fp, r2, r7, r7
     b04:	34100000 	ldrcc	r0, [r0], #-0
     b08:	3a080300 	bcc	201710 <__bss_end__+0x1f6b60>
     b0c:	390b3b0b 	stmdbcc	fp, {r0, r1, r3, r8, r9, fp, ip, sp}
     b10:	0213490b 	andseq	r4, r3, #180224	; 0x2c000
     b14:	1742b717 	smlaldne	fp, r2, r7, r7
     b18:	34110000 	ldrcc	r0, [r1], #-0
     b1c:	3a0e0300 	bcc	381724 <__bss_end__+0x376b74>
     b20:	390b3b0b 	stmdbcc	fp, {r0, r1, r3, r8, r9, fp, ip, sp}
     b24:	0213490b 	andseq	r4, r3, #180224	; 0x2c000
     b28:	1742b717 	smlaldne	fp, r2, r7, r7
     b2c:	34120000 	ldrcc	r0, [r2], #-0
     b30:	490e0300 	stmdbmi	lr, {r8, r9}
     b34:	02193413 	andseq	r3, r9, #318767104	; 0x13000000
     b38:	13000018 	movwne	r0, #24
     b3c:	1755010b 	ldrbne	r0, [r5, -fp, lsl #2]
     b40:	34140000 	ldrcc	r0, [r4], #-0
     b44:	3a080300 	bcc	20174c <__bss_end__+0x1f6b9c>
     b48:	390b3b0b 	stmdbcc	fp, {r0, r1, r3, r8, r9, fp, ip, sp}
     b4c:	0213490b 	andseq	r4, r3, #180224	; 0x2c000
     b50:	15000018 	strne	r0, [r0, #-24]	; 0xffffffe8
     b54:	0e030034 	mcreq	0, 0, r0, cr3, cr4, {1}
     b58:	0b3b0b3a 	bleq	ec3848 <__bss_end__+0xeb8c98>
     b5c:	13490b39 	movtne	r0, #39737	; 0x9b39
     b60:	00001802 	andeq	r1, r0, r2, lsl #16
     b64:	55010b16 	strpl	r0, [r1, #-2838]	; 0xfffff4ea
     b68:	00130117 	andseq	r0, r3, r7, lsl r1
     b6c:	82891700 	addhi	r1, r9, #0, 14
     b70:	01110101 	tsteq	r1, r1, lsl #2
     b74:	13011331 	movwne	r1, #4913	; 0x1331
     b78:	8a180000 	bhi	600b80 <__bss_end__+0x5f5fd0>
     b7c:	02000182 	andeq	r0, r0, #-2147483616	; 0x80000020
     b80:	18429118 	stmdane	r2, {r3, r4, r8, ip, pc}^
     b84:	89190000 	ldmdbhi	r9, {}	; <UNPREDICTABLE>
     b88:	11000182 	smlabbne	r0, r2, r1, r0
     b8c:	00133101 	andseq	r3, r3, r1, lsl #2
     b90:	011d1a00 	tsteq	sp, r0, lsl #20
     b94:	01521331 	cmpeq	r2, r1, lsr r3
     b98:	550542b8 	strpl	r4, [r5, #-696]	; 0xfffffd48
     b9c:	590b5817 	stmdbpl	fp, {r0, r1, r2, r4, fp, ip, lr}
     ba0:	010b570b 	tsteq	fp, fp, lsl #14
     ba4:	1b000013 	blne	bf8 <__code_start__-0x7408>
     ba8:	13310005 	teqne	r1, #5, 0
     bac:	42b71702 	adcsmi	r1, r7, #524288	; 0x80000
     bb0:	1c000017 	stcne	0, cr0, [r0], {23}
     bb4:	13310005 	teqne	r1, #5, 0
     bb8:	341d0000 	ldrcc	r0, [sp], #-0
     bbc:	02133100 	andseq	r3, r3, #0
     bc0:	1e000018 	mcrne	0, 0, r0, cr0, cr8, {0}
     bc4:	13310034 	teqne	r1, #52, 0	; 0x34
     bc8:	42b71702 	adcsmi	r1, r7, #524288	; 0x80000
     bcc:	1f000017 	svcne	0x00000017
     bd0:	13310034 	teqne	r1, #52, 0	; 0x34
     bd4:	1d200000 	stcne	0, cr0, [r0, #-0]
     bd8:	52133101 	andspl	r3, r3, #1073741824	; 0x40000000
     bdc:	0542b801 	strbeq	fp, [r2, #-2049]	; 0xfffff7ff
     be0:	0b581755 	bleq	160693c <__bss_end__+0x15fbd8c>
     be4:	0b570b59 	bleq	15c3950 <__bss_end__+0x15b8da0>
     be8:	89210000 	stmdbhi	r1!, {}	; <UNPREDICTABLE>
     bec:	11010182 	smlabbne	r1, r2, r1, r0
     bf0:	00130101 	andseq	r0, r3, r1, lsl #2
     bf4:	01012200 	mrseq	r2, R9_usr
     bf8:	13011349 	movwne	r1, #4937	; 0x1349
     bfc:	21230000 			; <UNDEFINED> instruction: 0x21230000
     c00:	2f134900 	svccs	0x00134900
     c04:	2400000b 	strcs	r0, [r0], #-11
     c08:	0e03012e 	adfeqsp	f0, f3, #0.5
     c0c:	0b3b0b3a 	bleq	ec38fc <__bss_end__+0xeb8d4c>
     c10:	19270b39 	stmdbne	r7!, {r0, r3, r4, r5, r8, r9, fp}
     c14:	0b201349 	bleq	805940 <__bss_end__+0x7fad90>
     c18:	00001301 	andeq	r1, r0, r1, lsl #6
     c1c:	03000525 	movweq	r0, #1317	; 0x525
     c20:	3b0b3a0e 	blcc	2cf460 <__bss_end__+0x2c48b0>
     c24:	490b390b 	stmdbmi	fp, {r0, r1, r3, r8, fp, ip, sp}
     c28:	26000013 			; <UNDEFINED> instruction: 0x26000013
     c2c:	08030005 	stmdaeq	r3, {r0, r2}
     c30:	0b3b0b3a 	bleq	ec3920 <__bss_end__+0xeb8d70>
     c34:	13490b39 	movtne	r0, #39737	; 0x9b39
     c38:	34270000 	strtcc	r0, [r7], #-0
     c3c:	3a080300 	bcc	201844 <__bss_end__+0x1f6c94>
     c40:	390b3b0b 	stmdbcc	fp, {r0, r1, r3, r8, r9, fp, ip, sp}
     c44:	0013490b 	andseq	r4, r3, fp, lsl #18
     c48:	010b2800 	tsteq	fp, r0, lsl #16
     c4c:	34290000 	strtcc	r0, [r9], #-0
     c50:	3a0e0300 	bcc	381858 <__bss_end__+0x376ca8>
     c54:	390b3b0b 	stmdbcc	fp, {r0, r1, r3, r8, r9, fp, ip, sp}
     c58:	0013490b 	andseq	r4, r3, fp, lsl #18
     c5c:	012e2a00 			; <UNDEFINED> instruction: 0x012e2a00
     c60:	0b3a0803 	bleq	e82c74 <__bss_end__+0xe780c4>
     c64:	0b390b3b 	bleq	e43958 <__bss_end__+0xe38da8>
     c68:	13491927 	movtne	r1, #39207	; 0x9927
     c6c:	13010b20 	movwne	r0, #6944	; 0x1b20
     c70:	2e2b0000 	cdpcs	0, 2, cr0, cr11, cr0, {0}
     c74:	03193f01 	tsteq	r9, #1, 30
     c78:	3b0b3a0e 	blcc	2cf4b8 <__bss_end__+0x2c4908>
     c7c:	270b390b 	strcs	r3, [fp, -fp, lsl #18]
     c80:	12011119 	andne	r1, r1, #1073741830	; 0x40000006
     c84:	97184006 	ldrls	r4, [r8, -r6]
     c88:	13011942 	movwne	r1, #6466	; 0x1942
     c8c:	2e2c0000 	cdpcs	0, 2, cr0, cr12, cr0, {0}
     c90:	11133101 	tstne	r3, r1, lsl #2
     c94:	40061201 	andmi	r1, r6, r1, lsl #4
     c98:	19429718 	stmdbne	r2, {r3, r4, r8, r9, sl, ip, pc}^
     c9c:	00001301 	andeq	r1, r0, r1, lsl #6
     ca0:	3100052d 	tstcc	r0, sp, lsr #10
     ca4:	00180213 	andseq	r0, r8, r3, lsl r2
     ca8:	00052e00 	andeq	r2, r5, r0, lsl #28
     cac:	0b1c1331 	bleq	705978 <__bss_end__+0x6fadc8>
     cb0:	0b2f0000 	bleq	bc0cb8 <__bss_end__+0xbb6108>
     cb4:	11133101 	tstne	r3, r1, lsl #2
     cb8:	01061201 	tsteq	r6, r1, lsl #4
     cbc:	30000013 	andcc	r0, r0, r3, lsl r0
     cc0:	193f002e 	ldmdbne	pc!, {r1, r2, r3, r5}	; <UNPREDICTABLE>
     cc4:	0e6e193c 			; <UNDEFINED> instruction: 0x0e6e193c
     cc8:	0b3a0e03 	bleq	e844dc <__bss_end__+0xe7992c>
     ccc:	0b390b3b 	bleq	e439c0 <__bss_end__+0xe38e10>
     cd0:	01000000 	mrseq	r0, (UNDEF: 0)
     cd4:	0e250111 	mcreq	1, 1, r0, cr5, cr1, {0}
     cd8:	0e030b13 	vmoveq.32	d3[0], r0
     cdc:	01110e1b 	tsteq	r1, fp, lsl lr
     ce0:	17100612 			; <UNDEFINED> instruction: 0x17100612
     ce4:	24020000 	strcs	r0, [r2], #-0
     ce8:	3e0b0b00 	vmlacc.f64	d0, d11, d0
     cec:	0008030b 	andeq	r0, r8, fp, lsl #6
     cf0:	00240300 	eoreq	r0, r4, r0, lsl #6
     cf4:	0b3e0b0b 	bleq	f83928 <__bss_end__+0xf78d78>
     cf8:	00000e03 	andeq	r0, r0, r3, lsl #28
     cfc:	27011504 	strcs	r1, [r1, -r4, lsl #10]
     d00:	01134919 	tsteq	r3, r9, lsl r9
     d04:	05000013 	streq	r0, [r0, #-19]	; 0xffffffed
     d08:	13490005 	movtne	r0, #36869	; 0x9005
     d0c:	34060000 	strcc	r0, [r6], #-0
     d10:	3a0e0300 	bcc	381918 <__bss_end__+0x376d68>
     d14:	390b3b0b 	stmdbcc	fp, {r0, r1, r3, r8, r9, fp, ip, sp}
     d18:	3f13490b 	svccc	0x0013490b
     d1c:	00193c19 	andseq	r3, r9, r9, lsl ip
     d20:	000f0700 	andeq	r0, pc, r0, lsl #14
     d24:	13490b0b 	movtne	r0, #39691	; 0x9b0b
     d28:	26080000 	strcs	r0, [r8], -r0
     d2c:	00134900 	andseq	r4, r3, r0, lsl #18
     d30:	012e0900 			; <UNDEFINED> instruction: 0x012e0900
     d34:	0e03193f 			; <UNDEFINED> instruction: 0x0e03193f
     d38:	0b3b0b3a 	bleq	ec3a28 <__bss_end__+0xeb8e78>
     d3c:	19270b39 	stmdbne	r7!, {r0, r3, r4, r5, r8, r9, fp}
     d40:	11190187 	tstne	r9, r7, lsl #3
     d44:	40061201 	andmi	r1, r6, r1, lsl #4
     d48:	19429718 	stmdbne	r2, {r3, r4, r8, r9, sl, ip, pc}^
     d4c:	00001301 	andeq	r1, r0, r1, lsl #6
     d50:	0182890a 	orreq	r8, r2, sl, lsl #18
     d54:	01011101 	tsteq	r1, r1, lsl #2
     d58:	0b000013 	bleq	dac <__code_start__-0x7254>
     d5c:	0001828a 	andeq	r8, r1, sl, lsl #5
     d60:	42911802 	addsmi	r1, r1, #131072	; 0x20000
     d64:	0c000018 	stceq	0, cr0, [r0], {24}
     d68:	00018289 	andeq	r8, r1, r9, lsl #5
     d6c:	13310111 	teqne	r1, #1073741828	; 0x40000004
     d70:	890d0000 	stmdbhi	sp, {}	; <UNPREDICTABLE>
     d74:	11010182 	smlabbne	r1, r2, r1, r0
     d78:	01133101 	tsteq	r3, r1, lsl #2
     d7c:	0e000013 	mcreq	0, 0, r0, cr0, cr3, {0}
     d80:	193f002e 	ldmdbne	pc!, {r1, r2, r3, r5}	; <UNPREDICTABLE>
     d84:	0e6e193c 			; <UNDEFINED> instruction: 0x0e6e193c
     d88:	0b3a0e03 	bleq	e8459c <__bss_end__+0xe799ec>
     d8c:	0b390b3b 	bleq	e43a80 <__bss_end__+0xe38ed0>
     d90:	01000000 	mrseq	r0, (UNDEF: 0)
     d94:	0e250111 	mcreq	1, 1, r0, cr5, cr1, {0}
     d98:	0e030b13 	vmoveq.32	d3[0], r0
     d9c:	01110e1b 	tsteq	r1, fp, lsl lr
     da0:	17100612 			; <UNDEFINED> instruction: 0x17100612
     da4:	24020000 	strcs	r0, [r2], #-0
     da8:	3e0b0b00 	vmlacc.f64	d0, d11, d0
     dac:	0008030b 	andeq	r0, r8, fp, lsl #6
     db0:	00240300 	eoreq	r0, r4, r0, lsl #6
     db4:	0b3e0b0b 	bleq	f839e8 <__bss_end__+0xf78e38>
     db8:	00000e03 	andeq	r0, r0, r3, lsl #28
     dbc:	27011504 	strcs	r1, [r1, -r4, lsl #10]
     dc0:	01134919 	tsteq	r3, r9, lsl r9
     dc4:	05000013 	streq	r0, [r0, #-19]	; 0xffffffed
     dc8:	13490005 	movtne	r0, #36869	; 0x9005
     dcc:	34060000 	strcc	r0, [r6], #-0
     dd0:	3a0e0300 	bcc	3819d8 <__bss_end__+0x376e28>
     dd4:	390b3b0b 	stmdbcc	fp, {r0, r1, r3, r8, r9, fp, ip, sp}
     dd8:	3f13490b 	svccc	0x0013490b
     ddc:	00193c19 	andseq	r3, r9, r9, lsl ip
     de0:	000f0700 	andeq	r0, pc, r0, lsl #14
     de4:	13490b0b 	movtne	r0, #39691	; 0x9b0b
     de8:	26080000 	strcs	r0, [r8], -r0
     dec:	00134900 	andseq	r4, r3, r0, lsl #18
     df0:	012e0900 			; <UNDEFINED> instruction: 0x012e0900
     df4:	0e03193f 			; <UNDEFINED> instruction: 0x0e03193f
     df8:	0b3b0b3a 	bleq	ec3ae8 <__bss_end__+0xeb8f38>
     dfc:	01110b39 	tsteq	r1, r9, lsr fp
     e00:	18400612 	stmdane	r0, {r1, r4, r9, sl}^
     e04:	01194297 			; <UNDEFINED> instruction: 0x01194297
     e08:	0a000013 	beq	e5c <__code_start__-0x71a4>
     e0c:	193f002e 	ldmdbne	pc!, {r1, r2, r3, r5}	; <UNPREDICTABLE>
     e10:	0b3a0e03 	bleq	e84624 <__bss_end__+0xe79a74>
     e14:	0b390b3b 	bleq	e43b08 <__bss_end__+0xe38f58>
     e18:	193c1927 	ldmdbne	ip!, {r0, r1, r2, r5, r8, fp, ip}
     e1c:	340b0000 	strcc	r0, [fp], #-0
     e20:	3a080300 	bcc	201a28 <__bss_end__+0x1f6e78>
     e24:	390b3b0b 	stmdbcc	fp, {r0, r1, r3, r8, r9, fp, ip, sp}
     e28:	0213490b 	andseq	r4, r3, #180224	; 0x2c000
     e2c:	1742b717 	smlaldne	fp, r2, r7, r7
     e30:	340c0000 	strcc	r0, [ip], #-0
     e34:	3a0e0300 	bcc	381a3c <__bss_end__+0x376e8c>
     e38:	390b3b0b 	stmdbcc	fp, {r0, r1, r3, r8, r9, fp, ip, sp}
     e3c:	0013490b 	andseq	r4, r3, fp, lsl #18
     e40:	00340d00 	eorseq	r0, r4, r0, lsl #26
     e44:	0b3a0e03 	bleq	e84658 <__bss_end__+0xe79aa8>
     e48:	0b390b3b 	bleq	e43b3c <__bss_end__+0xe38f8c>
     e4c:	17021349 	strne	r1, [r2, -r9, asr #6]
     e50:	001742b7 			; <UNDEFINED> instruction: 0x001742b7
     e54:	010b0e00 	tsteq	fp, r0, lsl #28
     e58:	06120111 			; <UNDEFINED> instruction: 0x06120111
     e5c:	00001301 	andeq	r1, r0, r1, lsl #6
     e60:	31011d0f 	tstcc	r1, pc, lsl #26
     e64:	b8015213 	stmdalt	r1, {r0, r1, r4, r9, ip, lr}
     e68:	01110b42 	tsteq	r1, r2, asr #22
     e6c:	0b580612 	bleq	16026bc <__bss_end__+0x15f7b0c>
     e70:	0b570b59 	bleq	15c3bdc <__bss_end__+0x15b902c>
     e74:	00001301 	andeq	r1, r0, r1, lsl #6
     e78:	31003410 	tstcc	r0, r0, lsl r4
     e7c:	b7170213 			; <UNDEFINED> instruction: 0xb7170213
     e80:	00001742 	andeq	r1, r0, r2, asr #14
     e84:	31010b11 	tstcc	r1, r1, lsl fp
     e88:	12011113 	andne	r1, r1, #-1073741820	; 0xc0000004
     e8c:	12000006 	andne	r0, r0, #6, 0
     e90:	1331011d 	teqne	r1, #1073741831	; 0x40000007
     e94:	42b80152 	adcsmi	r0, r8, #-2147483628	; 0x80000014
     e98:	5817550b 	ldmdapl	r7, {r0, r1, r3, r8, sl, ip, lr}
     e9c:	570b590b 	strpl	r5, [fp, -fp, lsl #18]
     ea0:	0013010b 	andseq	r0, r3, fp, lsl #2
     ea4:	010b1300 	mrseq	r1, (UNDEF: 59)
     ea8:	00001755 	andeq	r1, r0, r5, asr r7
     eac:	01828914 	orreq	r8, r2, r4, lsl r9
     eb0:	31011100 	mrscc	r1, (UNDEF: 17)
     eb4:	15000013 	strne	r0, [r0, #-19]	; 0xffffffed
     eb8:	01018289 	smlabbeq	r1, r9, r2, r8
     ebc:	13310111 	teqne	r1, #1073741828	; 0x40000004
     ec0:	00001301 	andeq	r1, r0, r1, lsl #6
     ec4:	01828a16 	orreq	r8, r2, r6, lsl sl
     ec8:	91180200 	tstls	r8, r0, lsl #4
     ecc:	00001842 	andeq	r1, r0, r2, asr #16
     ed0:	03012e17 	movweq	r2, #7703	; 0x1e17
     ed4:	3b0b3a0e 	blcc	2cf714 <__bss_end__+0x2c4b64>
     ed8:	270b390b 	strcs	r3, [fp, -fp, lsl #18]
     edc:	20134919 	andscs	r4, r3, r9, lsl r9
     ee0:	0013010b 	andseq	r0, r3, fp, lsl #2
     ee4:	00341800 	eorseq	r1, r4, r0, lsl #16
     ee8:	0b3a0e03 	bleq	e846fc <__bss_end__+0xe79b4c>
     eec:	0b390b3b 	bleq	e43be0 <__bss_end__+0xe39030>
     ef0:	18021349 	stmdane	r2, {r0, r3, r6, r8, r9, ip}
     ef4:	34190000 	ldrcc	r0, [r9], #-0
     ef8:	3a080300 	bcc	201b00 <__bss_end__+0x1f6f50>
     efc:	390b3b0b 	stmdbcc	fp, {r0, r1, r3, r8, r9, fp, ip, sp}
     f00:	0013490b 	andseq	r4, r3, fp, lsl #18
     f04:	010b1a00 	tsteq	fp, r0, lsl #20
     f08:	2e1b0000 	cdpcs	0, 1, cr0, cr11, cr0, {0}
     f0c:	3c193f00 	ldccc	15, cr3, [r9], {-0}
     f10:	030e6e19 	movweq	r6, #60953	; 0xee19
     f14:	3b0b3a0e 	blcc	2cf754 <__bss_end__+0x2c4ba4>
     f18:	000b3905 	andeq	r3, fp, r5, lsl #18
     f1c:	002e1c00 	eoreq	r1, lr, r0, lsl #24
     f20:	193c193f 	ldmdbne	ip!, {r0, r1, r2, r3, r4, r5, r8, fp, ip}
     f24:	0e030e6e 	cdpeq	14, 0, cr0, cr3, cr14, {3}
     f28:	0b3b0b3a 	bleq	ec3c18 <__bss_end__+0xeb9068>
     f2c:	00000b39 	andeq	r0, r0, r9, lsr fp
     f30:	01110100 	tsteq	r1, r0, lsl #2
     f34:	0b130e25 	bleq	4c47d0 <__bss_end__+0x4b9c20>
     f38:	0e1b0e03 	cdpeq	14, 1, cr0, cr11, cr3, {0}
     f3c:	06120111 			; <UNDEFINED> instruction: 0x06120111
     f40:	00001710 	andeq	r1, r0, r0, lsl r7
     f44:	0b002402 	bleq	9f54 <uart_can_getc>
     f48:	030b3e0b 	movweq	r3, #48651	; 0xbe0b
     f4c:	03000008 	movweq	r0, #8
     f50:	0b0b0024 	bleq	2c0fe8 <__bss_end__+0x2b6438>
     f54:	0e030b3e 	vmoveq.16	d3[0], r0
     f58:	15040000 	strne	r0, [r4, #-0]
     f5c:	49192701 	ldmdbmi	r9, {r0, r8, r9, sl, sp}
     f60:	00130113 	andseq	r0, r3, r3, lsl r1
     f64:	00050500 	andeq	r0, r5, r0, lsl #10
     f68:	00001349 	andeq	r1, r0, r9, asr #6
     f6c:	03003406 	movweq	r3, #1030	; 0x406
     f70:	3b0b3a0e 	blcc	2cf7b0 <__bss_end__+0x2c4c00>
     f74:	490b390b 	stmdbmi	fp, {r0, r1, r3, r8, fp, ip, sp}
     f78:	3c193f13 	ldccc	15, cr3, [r9], {19}
     f7c:	07000019 	smladeq	r0, r9, r0, r0
     f80:	0b0b000f 	bleq	2c0fc4 <__bss_end__+0x2b6414>
     f84:	00001349 	andeq	r1, r0, r9, asr #6
     f88:	49002608 	stmdbmi	r0, {r3, r9, sl, sp}
     f8c:	09000013 	stmdbeq	r0, {r0, r1, r4}
     f90:	193f002e 	ldmdbne	pc!, {r1, r2, r3, r5}	; <UNPREDICTABLE>
     f94:	0b3a0e03 	bleq	e847a8 <__bss_end__+0xe79bf8>
     f98:	0b390b3b 	bleq	e43c8c <__bss_end__+0xe390dc>
     f9c:	01111927 	tsteq	r1, r7, lsr #18
     fa0:	18400612 	stmdane	r0, {r1, r4, r9, sl}^
     fa4:	00194297 	mulseq	r9, r7, r2
     fa8:	11010000 	mrsne	r0, (UNDEF: 1)
     fac:	130e2501 	movwne	r2, #58625	; 0xe501
     fb0:	1b0e030b 	blne	381be4 <__bss_end__+0x377034>
     fb4:	1117550e 	tstne	r7, lr, lsl #10
     fb8:	00171001 	andseq	r1, r7, r1
     fbc:	00240200 	eoreq	r0, r4, r0, lsl #4
     fc0:	0b3e0b0b 	bleq	f83bf4 <__bss_end__+0xf79044>
     fc4:	00000803 	andeq	r0, r0, r3, lsl #16
     fc8:	49002603 	stmdbmi	r0, {r0, r1, r9, sl, sp}
     fcc:	04000013 	streq	r0, [r0], #-19	; 0xffffffed
     fd0:	0b0b0024 	bleq	2c1068 <__bss_end__+0x2b64b8>
     fd4:	0e030b3e 	vmoveq.16	d3[0], r0
     fd8:	15050000 	strne	r0, [r5, #-0]
     fdc:	49192701 	ldmdbmi	r9, {r0, r8, r9, sl, sp}
     fe0:	00130113 	andseq	r0, r3, r3, lsl r1
     fe4:	00050600 	andeq	r0, r5, r0, lsl #12
     fe8:	00001349 	andeq	r1, r0, r9, asr #6
     fec:	03003407 	movweq	r3, #1031	; 0x407
     ff0:	3b0b3a0e 	blcc	2cf830 <__bss_end__+0x2c4c80>
     ff4:	490b390b 	stmdbmi	fp, {r0, r1, r3, r8, fp, ip, sp}
     ff8:	3c193f13 	ldccc	15, cr3, [r9], {19}
     ffc:	08000019 	stmdaeq	r0, {r0, r3, r4}
    1000:	0b0b000f 	bleq	2c1044 <__bss_end__+0x2b6494>
    1004:	00001349 	andeq	r1, r0, r9, asr #6
    1008:	03003409 	movweq	r3, #1033	; 0x409
    100c:	3b0b3a0e 	blcc	2cf84c <__bss_end__+0x2c4c9c>
    1010:	490b390b 	stmdbmi	fp, {r0, r1, r3, r8, fp, ip, sp}
    1014:	0a000013 	beq	1068 <__code_start__-0x6f98>
    1018:	193f012e 	ldmdbne	pc!, {r1, r2, r3, r5, r8}	; <UNPREDICTABLE>
    101c:	0b3a0e03 	bleq	e84830 <__bss_end__+0xe79c80>
    1020:	0b390b3b 	bleq	e43d14 <__bss_end__+0xe39164>
    1024:	01871927 	orreq	r1, r7, r7, lsr #18
    1028:	12011119 	andne	r1, r1, #1073741830	; 0x40000006
    102c:	97184006 	ldrls	r4, [r8, -r6]
    1030:	13011942 	movwne	r1, #6466	; 0x1942
    1034:	340b0000 	strcc	r0, [fp], #-0
    1038:	3a0e0300 	bcc	381c40 <__bss_end__+0x377090>
    103c:	390b3b0b 	stmdbcc	fp, {r0, r1, r3, r8, r9, fp, ip, sp}
    1040:	1c13490b 			; <UNDEFINED> instruction: 0x1c13490b
    1044:	0c000006 	stceq	0, cr0, [r0], {6}
    1048:	0e030034 	mcreq	0, 0, r0, cr3, cr4, {1}
    104c:	0b3b0b3a 	bleq	ec3d3c <__bss_end__+0xeb918c>
    1050:	13490b39 	movtne	r0, #39737	; 0x9b39
    1054:	00000b1c 	andeq	r0, r0, ip, lsl fp
    1058:	31011d0d 	tstcc	r1, sp, lsl #26
    105c:	b8015213 	stmdalt	r1, {r0, r1, r4, r9, ip, lr}
    1060:	17550b42 	ldrbne	r0, [r5, -r2, asr #22]
    1064:	0b590b58 	bleq	1643dcc <__bss_end__+0x163921c>
    1068:	13010b57 	movwne	r0, #6999	; 0x1b57
    106c:	0b0e0000 	bleq	381074 <__bss_end__+0x3764c4>
    1070:	00175501 	andseq	r5, r7, r1, lsl #10
    1074:	00340f00 	eorseq	r0, r4, r0, lsl #30
    1078:	17021331 	smladxne	r2, r1, r3, r1
    107c:	001742b7 			; <UNDEFINED> instruction: 0x001742b7
    1080:	011d1000 	tsteq	sp, r0
    1084:	01521331 	cmpeq	r2, r1, lsr r3
    1088:	110b42b8 			; <UNDEFINED> instruction: 0x110b42b8
    108c:	58061201 	stmdapl	r6, {r0, r9, ip}
    1090:	570b590b 	strpl	r5, [fp, -fp, lsl #18]
    1094:	0013010b 	andseq	r0, r3, fp, lsl #2
    1098:	82891100 	addhi	r1, r9, #0
    109c:	01110001 	tsteq	r1, r1
    10a0:	00001331 	andeq	r1, r0, r1, lsr r3
    10a4:	01828912 	orreq	r8, r2, r2, lsl r9
    10a8:	31011101 	tstcc	r1, r1, lsl #2
    10ac:	00130113 	andseq	r0, r3, r3, lsl r1
    10b0:	828a1300 	addhi	r1, sl, #0, 6
    10b4:	18020001 	stmdane	r2, {r0}
    10b8:	00184291 	mulseq	r8, r1, r2
    10bc:	82891400 	addhi	r1, r9, #0, 8
    10c0:	01110101 	tsteq	r1, r1, lsl #2
    10c4:	00001331 	andeq	r1, r0, r1, lsr r3
    10c8:	3f012e15 	svccc	0x00012e15
    10cc:	3a0e0319 	bcc	381d38 <__bss_end__+0x377188>
    10d0:	390b3b0b 	stmdbcc	fp, {r0, r1, r3, r8, r9, fp, ip, sp}
    10d4:	2019270b 	andscs	r2, r9, fp, lsl #14
    10d8:	0013010b 	andseq	r0, r3, fp, lsl #2
    10dc:	012e1600 			; <UNDEFINED> instruction: 0x012e1600
    10e0:	0e03193f 			; <UNDEFINED> instruction: 0x0e03193f
    10e4:	0b3b0b3a 	bleq	ec3dd4 <__bss_end__+0xeb9224>
    10e8:	19270b39 	stmdbne	r7!, {r0, r3, r4, r5, r8, r9, fp}
    10ec:	0b201349 	bleq	805e18 <__bss_end__+0x7fb268>
    10f0:	00001301 	andeq	r1, r0, r1, lsl #6
    10f4:	31012e17 	tstcc	r1, r7, lsl lr
    10f8:	12011113 	andne	r1, r1, #-1073741820	; 0xc0000004
    10fc:	97184006 	ldrls	r4, [r8, -r6]
    1100:	13011942 	movwne	r1, #6466	; 0x1942
    1104:	2e180000 	cdpcs	0, 1, cr0, cr8, cr0, {0}
    1108:	3c193f00 	ldccc	15, cr3, [r9], {-0}
    110c:	030e6e19 	movweq	r6, #60953	; 0xee19
    1110:	3b0b3a0e 	blcc	2cf950 <__bss_end__+0x2c4da0>
    1114:	000b3905 	andeq	r3, fp, r5, lsl #18
    1118:	002e1900 	eoreq	r1, lr, r0, lsl #18
    111c:	193c193f 	ldmdbne	ip!, {r0, r1, r2, r3, r4, r5, r8, fp, ip}
    1120:	0e030e6e 	cdpeq	14, 0, cr0, cr3, cr14, {3}
    1124:	0b3b0b3a 	bleq	ec3e14 <__bss_end__+0xeb9264>
    1128:	00000b39 	andeq	r0, r0, r9, lsr fp
    112c:	01110100 	tsteq	r1, r0, lsl #2
    1130:	0b130e25 	bleq	4c49cc <__bss_end__+0x4b9e1c>
    1134:	0e1b0e03 	cdpeq	14, 1, cr0, cr11, cr3, {0}
    1138:	06120111 			; <UNDEFINED> instruction: 0x06120111
    113c:	00001710 	andeq	r1, r0, r0, lsl r7
    1140:	0b002402 	bleq	a150 <__code_end__+0x4>
    1144:	030b3e0b 	movweq	r3, #48651	; 0xbe0b
    1148:	03000008 	movweq	r0, #8
    114c:	0b0b0024 	bleq	2c11e4 <__bss_end__+0x2b6634>
    1150:	0e030b3e 	vmoveq.16	d3[0], r0
    1154:	15040000 	strne	r0, [r4, #-0]
    1158:	49192701 	ldmdbmi	r9, {r0, r8, r9, sl, sp}
    115c:	00130113 	andseq	r0, r3, r3, lsl r1
    1160:	00050500 	andeq	r0, r5, r0, lsl #10
    1164:	00001349 	andeq	r1, r0, r9, asr #6
    1168:	03003406 	movweq	r3, #1030	; 0x406
    116c:	3b0b3a0e 	blcc	2cf9ac <__bss_end__+0x2c4dfc>
    1170:	490b390b 	stmdbmi	fp, {r0, r1, r3, r8, fp, ip, sp}
    1174:	3c193f13 	ldccc	15, cr3, [r9], {19}
    1178:	07000019 	smladeq	r0, r9, r0, r0
    117c:	0b0b000f 	bleq	2c11c0 <__bss_end__+0x2b6610>
    1180:	00001349 	andeq	r1, r0, r9, asr #6
    1184:	49002608 	stmdbmi	r0, {r3, r9, sl, sp}
    1188:	09000013 	stmdbeq	r0, {r0, r1, r4}
    118c:	193f012e 	ldmdbne	pc!, {r1, r2, r3, r5, r8}	; <UNPREDICTABLE>
    1190:	0b3a0e03 	bleq	e849a4 <__bss_end__+0xe79df4>
    1194:	0b390b3b 	bleq	e43e88 <__bss_end__+0xe392d8>
    1198:	01111927 	tsteq	r1, r7, lsr #18
    119c:	18400612 	stmdane	r0, {r1, r4, r9, sl}^
    11a0:	01194297 			; <UNDEFINED> instruction: 0x01194297
    11a4:	0a000013 	beq	11f8 <__code_start__-0x6e08>
    11a8:	08030005 	stmdaeq	r3, {r0, r2}
    11ac:	0b3b0b3a 	bleq	ec3e9c <__bss_end__+0xeb92ec>
    11b0:	13490b39 	movtne	r0, #39737	; 0x9b39
    11b4:	42b71702 	adcsmi	r1, r7, #524288	; 0x80000
    11b8:	0b000017 	bleq	121c <__code_start__-0x6de4>
    11bc:	1331011d 	teqne	r1, #1073741831	; 0x40000007
    11c0:	42b80152 	adcsmi	r0, r8, #-2147483628	; 0x80000014
    11c4:	5817550b 	ldmdapl	r7, {r0, r1, r3, r8, sl, ip, lr}
    11c8:	570b590b 	strpl	r5, [fp, -fp, lsl #18]
    11cc:	0c00000b 	stceq	0, cr0, [r0], {11}
    11d0:	13310005 	teqne	r1, #5, 0
    11d4:	42b71702 	adcsmi	r1, r7, #524288	; 0x80000
    11d8:	0d000017 	stceq	0, cr0, [r0, #-92]	; 0xffffffa4
    11dc:	1331011d 	teqne	r1, #1073741831	; 0x40000007
    11e0:	42b80152 	adcsmi	r0, r8, #-2147483628	; 0x80000014
    11e4:	1201110b 	andne	r1, r1, #-1073741822	; 0xc0000002
    11e8:	590b5806 	stmdbpl	fp, {r1, r2, fp, ip, lr}
    11ec:	000b570b 	andeq	r5, fp, fp, lsl #14
    11f0:	00340e00 	eorseq	r0, r4, r0, lsl #28
    11f4:	17021331 	smladxne	r2, r1, r3, r1
    11f8:	001742b7 			; <UNDEFINED> instruction: 0x001742b7
    11fc:	011d0f00 	tsteq	sp, r0, lsl #30
    1200:	01521331 	cmpeq	r2, r1, lsr r3
    1204:	110b42b8 			; <UNDEFINED> instruction: 0x110b42b8
    1208:	58061201 	stmdapl	r6, {r0, r9, ip}
    120c:	570b590b 	strpl	r5, [fp, -fp, lsl #18]
    1210:	0013010b 	andseq	r0, r3, fp, lsl #2
    1214:	82891000 	addhi	r1, r9, #0, 0
    1218:	01110101 	tsteq	r1, r1, lsl #2
    121c:	00001331 	andeq	r1, r0, r1, lsr r3
    1220:	01828a11 	orreq	r8, r2, r1, lsl sl
    1224:	91180200 	tstls	r8, r0, lsl #4
    1228:	00001842 	andeq	r1, r0, r2, asr #16
    122c:	01828912 	orreq	r8, r2, r2, lsl r9
    1230:	31011100 	mrscc	r1, (UNDEF: 17)
    1234:	13000013 	movwne	r0, #19
    1238:	1331010b 	teqne	r1, #-1073741822	; 0xc0000002
    123c:	00001755 	andeq	r1, r0, r5, asr r7
    1240:	31003414 	tstcc	r0, r4, lsl r4
    1244:	15000013 	strne	r0, [r0, #-19]	; 0xffffffed
    1248:	1755010b 	ldrbne	r0, [r5, -fp, lsl #2]
    124c:	1d160000 	ldcne	0, cr0, [r6, #-0]
    1250:	52133101 	andspl	r3, r3, #1073741824	; 0x40000000
    1254:	0b42b801 	bleq	10af260 <__bss_end__+0x10a46b0>
    1258:	0b581755 	bleq	1606fb4 <__bss_end__+0x15fc404>
    125c:	0b570b59 	bleq	15c3fc8 <__bss_end__+0x15b9418>
    1260:	00001301 	andeq	r1, r0, r1, lsl #6
    1264:	3f012e17 	svccc	0x00012e17
    1268:	3a0e0319 	bcc	381ed4 <__bss_end__+0x377324>
    126c:	390b3b0b 	stmdbcc	fp, {r0, r1, r3, r8, r9, fp, ip, sp}
    1270:	2019270b 	andscs	r2, r9, fp, lsl #14
    1274:	0013010b 	andseq	r0, r3, fp, lsl #2
    1278:	00051800 	andeq	r1, r5, r0, lsl #16
    127c:	0b3a0803 	bleq	e83290 <__bss_end__+0xe786e0>
    1280:	0b390b3b 	bleq	e43f74 <__bss_end__+0xe393c4>
    1284:	00001349 	andeq	r1, r0, r9, asr #6
    1288:	03003419 	movweq	r3, #1049	; 0x419
    128c:	3b0b3a08 	blcc	2cfab4 <__bss_end__+0x2c4f04>
    1290:	490b390b 	stmdbmi	fp, {r0, r1, r3, r8, fp, ip, sp}
    1294:	1a000013 	bne	12e8 <__code_start__-0x6d18>
    1298:	0000010b 	andeq	r0, r0, fp, lsl #2
    129c:	3f012e1b 	svccc	0x00012e1b
    12a0:	3a0e0319 	bcc	381f0c <__bss_end__+0x37735c>
    12a4:	390b3b0b 	stmdbcc	fp, {r0, r1, r3, r8, r9, fp, ip, sp}
    12a8:	4919270b 	ldmdbmi	r9, {r0, r1, r3, r8, r9, sl, sp}
    12ac:	010b2013 	tsteq	fp, r3, lsl r0
    12b0:	1c000013 	stcne	0, cr0, [r0], {19}
    12b4:	193f002e 	ldmdbne	pc!, {r1, r2, r3, r5}	; <UNPREDICTABLE>
    12b8:	0b3a0e03 	bleq	e84acc <__bss_end__+0xe79f1c>
    12bc:	0b390b3b 	bleq	e43fb0 <__bss_end__+0xe39400>
    12c0:	13491927 	movtne	r1, #39207	; 0x9927
    12c4:	00000b20 	andeq	r0, r0, r0, lsr #22
    12c8:	31012e1d 	tstcc	r1, sp, lsl lr
    12cc:	12011113 	andne	r1, r1, #-1073741820	; 0xc0000004
    12d0:	97184006 	ldrls	r4, [r8, -r6]
    12d4:	13011942 	movwne	r1, #6466	; 0x1942
    12d8:	891e0000 	ldmdbhi	lr, {}	; <UNPREDICTABLE>
    12dc:	11010182 	smlabbne	r1, r2, r1, r0
    12e0:	19429501 	stmdbne	r2, {r0, r8, sl, ip, pc}^
    12e4:	00001331 	andeq	r1, r0, r1, lsr r3
    12e8:	3f002e1f 	svccc	0x00002e1f
    12ec:	6e193c19 	mrcvs	12, 0, r3, cr9, cr9, {0}
    12f0:	3a0e030e 	bcc	381f30 <__bss_end__+0x377380>
    12f4:	390b3b0b 	stmdbcc	fp, {r0, r1, r3, r8, r9, fp, ip, sp}
    12f8:	0000000b 	andeq	r0, r0, fp
    12fc:	25011101 	strcs	r1, [r1, #-257]	; 0xfffffeff
    1300:	030b130e 	movweq	r1, #45838	; 0xb30e
    1304:	110e1b0e 	tstne	lr, lr, lsl #22
    1308:	10061201 	andne	r1, r6, r1, lsl #4
    130c:	02000017 	andeq	r0, r0, #23, 0
    1310:	0b0b0024 	bleq	2c13a8 <__bss_end__+0x2b67f8>
    1314:	08030b3e 	stmdaeq	r3, {r1, r2, r3, r4, r5, r8, r9, fp}
    1318:	24030000 	strcs	r0, [r3], #-0
    131c:	3e0b0b00 	vmlacc.f64	d0, d11, d0
    1320:	000e030b 	andeq	r0, lr, fp, lsl #6
    1324:	00350400 	eorseq	r0, r5, r0, lsl #8
    1328:	00001349 	andeq	r1, r0, r9, asr #6
    132c:	03001605 	movweq	r1, #1541	; 0x605
    1330:	3b0b3a0e 	blcc	2cfb70 <__bss_end__+0x2c4fc0>
    1334:	490b390b 	stmdbmi	fp, {r0, r1, r3, r8, fp, ip, sp}
    1338:	06000013 			; <UNDEFINED> instruction: 0x06000013
    133c:	0b3e0104 	bleq	f81754 <__bss_end__+0xf76ba4>
    1340:	13490b0b 	movtne	r0, #39691	; 0x9b0b
    1344:	0b3b0b3a 	bleq	ec4034 <__bss_end__+0xeb9484>
    1348:	13010b39 	movwne	r0, #6969	; 0x1b39
    134c:	28070000 	stmdacs	r7, {}	; <UNPREDICTABLE>
    1350:	1c0e0300 	stcne	3, cr0, [lr], {-0}
    1354:	0800000b 	stmdaeq	r0, {r0, r1, r3}
    1358:	0e030113 	mcreq	1, 0, r0, cr3, cr3, {0}
    135c:	0b3a0b0b 	bleq	e83f90 <__bss_end__+0xe793e0>
    1360:	0b390b3b 	bleq	e44054 <__bss_end__+0xe394a4>
    1364:	00001301 	andeq	r1, r0, r1, lsl #6
    1368:	03000d09 	movweq	r0, #3337	; 0xd09
    136c:	3b0b3a08 	blcc	2cfb94 <__bss_end__+0x2c4fe4>
    1370:	490b390b 	stmdbmi	fp, {r0, r1, r3, r8, fp, ip, sp}
    1374:	000b3813 	andeq	r3, fp, r3, lsl r8
    1378:	000d0a00 	andeq	r0, sp, r0, lsl #20
    137c:	0b3a0e03 	bleq	e84b90 <__bss_end__+0xe79fe0>
    1380:	0b390b3b 	bleq	e44074 <__bss_end__+0xe394c4>
    1384:	0b381349 	bleq	e060b0 <__bss_end__+0xdfb500>
    1388:	340b0000 	strcc	r0, [fp], #-0
    138c:	3a0e0300 	bcc	381f94 <__bss_end__+0x3773e4>
    1390:	390b3b0b 	stmdbcc	fp, {r0, r1, r3, r8, r9, fp, ip, sp}
    1394:	1c13490b 			; <UNDEFINED> instruction: 0x1c13490b
    1398:	0c000006 	stceq	0, cr0, [r0], {6}
    139c:	0b0b000f 	bleq	2c13e0 <__bss_end__+0x2b6830>
    13a0:	00001349 	andeq	r1, r0, r9, asr #6
    13a4:	4900260d 	stmdbmi	r0, {r0, r2, r3, r9, sl, sp}
    13a8:	0e000013 	mcreq	0, 0, r0, cr0, cr3, {0}
    13ac:	193f012e 	ldmdbne	pc!, {r1, r2, r3, r5, r8}	; <UNPREDICTABLE>
    13b0:	0b3a0e03 	bleq	e84bc4 <__bss_end__+0xe7a014>
    13b4:	0b390b3b 	bleq	e440a8 <__bss_end__+0xe394f8>
    13b8:	01111927 	tsteq	r1, r7, lsr #18
    13bc:	18400612 	stmdane	r0, {r1, r4, r9, sl}^
    13c0:	01194297 			; <UNDEFINED> instruction: 0x01194297
    13c4:	0f000013 	svceq	0x00000013
    13c8:	00018289 	andeq	r8, r1, r9, lsl #5
    13cc:	13310111 	teqne	r1, #1073741828	; 0x40000004
    13d0:	2e100000 	cdpcs	0, 1, cr0, cr0, cr0, {0}
    13d4:	03193f01 	tsteq	r9, #1, 30
    13d8:	3b0b3a0e 	blcc	2cfc18 <__bss_end__+0x2c5068>
    13dc:	270b390b 	strcs	r3, [fp, -fp, lsl #18]
    13e0:	11134919 	tstne	r3, r9, lsl r9
    13e4:	40061201 	andmi	r1, r6, r1, lsl #4
    13e8:	19429718 	stmdbne	r2, {r3, r4, r8, r9, sl, ip, pc}^
    13ec:	00001301 	andeq	r1, r0, r1, lsl #6
    13f0:	01828911 	orreq	r8, r2, r1, lsl r9
    13f4:	31011101 	tstcc	r1, r1, lsl #2
    13f8:	12000013 	andne	r0, r0, #19, 0
    13fc:	0001828a 	andeq	r8, r1, sl, lsl #5
    1400:	42911802 	addsmi	r1, r1, #131072	; 0x20000
    1404:	13000018 	movwne	r0, #24
    1408:	08030005 	stmdaeq	r3, {r0, r2}
    140c:	0b3b0b3a 	bleq	ec40fc <__bss_end__+0xeb954c>
    1410:	13490b39 	movtne	r0, #39737	; 0x9b39
    1414:	42b71702 	adcsmi	r1, r7, #524288	; 0x80000
    1418:	14000017 	strne	r0, [r0], #-23	; 0xffffffe9
    141c:	01018289 	smlabbeq	r1, r9, r2, r8
    1420:	13310111 	teqne	r1, #1073741828	; 0x40000004
    1424:	00001301 	andeq	r1, r0, r1, lsl #6
    1428:	03003415 	movweq	r3, #1045	; 0x415
    142c:	3b0b3a08 	blcc	2cfc54 <__bss_end__+0x2c50a4>
    1430:	490b390b 	stmdbmi	fp, {r0, r1, r3, r8, fp, ip, sp}
    1434:	b7170213 			; <UNDEFINED> instruction: 0xb7170213
    1438:	00001742 	andeq	r1, r0, r2, asr #14
    143c:	03003416 	movweq	r3, #1046	; 0x416
    1440:	3b0b3a0e 	blcc	2cfc80 <__bss_end__+0x2c50d0>
    1444:	490b390b 	stmdbmi	fp, {r0, r1, r3, r8, fp, ip, sp}
    1448:	00051c13 	andeq	r1, r5, r3, lsl ip
    144c:	012e1700 			; <UNDEFINED> instruction: 0x012e1700
    1450:	0b3a0e03 	bleq	e84c64 <__bss_end__+0xe7a0b4>
    1454:	0b390b3b 	bleq	e44148 <__bss_end__+0xe39598>
    1458:	01111927 	tsteq	r1, r7, lsr #18
    145c:	18400612 	stmdane	r0, {r1, r4, r9, sl}^
    1460:	01194297 			; <UNDEFINED> instruction: 0x01194297
    1464:	18000013 	stmdane	r0, {r0, r1, r4}
    1468:	0e030005 	cdpeq	0, 0, cr0, cr3, cr5, {0}
    146c:	0b3b0b3a 	bleq	ec415c <__bss_end__+0xeb95ac>
    1470:	13490b39 	movtne	r0, #39737	; 0x9b39
    1474:	42b71702 	adcsmi	r1, r7, #524288	; 0x80000
    1478:	19000017 	stmdbne	r0, {r0, r1, r2, r4}
    147c:	00000035 	andeq	r0, r0, r5, lsr r0
    1480:	3f002e1a 	svccc	0x00002e1a
    1484:	6e193c19 	mrcvs	12, 0, r3, cr9, cr9, {0}
    1488:	3a0e030e 	bcc	3820c8 <__bss_end__+0x377518>
    148c:	390b3b0b 	stmdbcc	fp, {r0, r1, r3, r8, r9, fp, ip, sp}
    1490:	0000000b 	andeq	r0, r0, fp
    1494:	25011101 	strcs	r1, [r1, #-257]	; 0xfffffeff
    1498:	030b130e 	movweq	r1, #45838	; 0xb30e
    149c:	110e1b0e 	tstne	lr, lr, lsl #22
    14a0:	10061201 	andne	r1, r6, r1, lsl #4
    14a4:	02000017 	andeq	r0, r0, #23, 0
    14a8:	0b0b0024 	bleq	2c1540 <__bss_end__+0x2b6990>
    14ac:	08030b3e 	stmdaeq	r3, {r1, r2, r3, r4, r5, r8, r9, fp}
    14b0:	24030000 	strcs	r0, [r3], #-0
    14b4:	3e0b0b00 	vmlacc.f64	d0, d11, d0
    14b8:	000e030b 	andeq	r0, lr, fp, lsl #6
    14bc:	01150400 	tsteq	r5, r0, lsl #8
    14c0:	13491927 	movtne	r1, #39207	; 0x9927
    14c4:	00001301 	andeq	r1, r0, r1, lsl #6
    14c8:	49000505 	stmdbmi	r0, {r0, r2, r8, sl}
    14cc:	06000013 			; <UNDEFINED> instruction: 0x06000013
    14d0:	0e030034 	mcreq	0, 0, r0, cr3, cr4, {1}
    14d4:	0b3b0b3a 	bleq	ec41c4 <__bss_end__+0xeb9614>
    14d8:	13490b39 	movtne	r0, #39737	; 0x9b39
    14dc:	193c193f 	ldmdbne	ip!, {r0, r1, r2, r3, r4, r5, r8, fp, ip}
    14e0:	0f070000 	svceq	0x00070000
    14e4:	490b0b00 	stmdbmi	fp, {r8, r9, fp}
    14e8:	08000013 	stmdaeq	r0, {r0, r1, r4}
    14ec:	13490026 	movtne	r0, #36902	; 0x9026
    14f0:	34090000 	strcc	r0, [r9], #-0
    14f4:	3a134700 	bcc	4d30fc <__bss_end__+0x4c854c>
    14f8:	390b3b0b 	stmdbcc	fp, {r0, r1, r3, r8, r9, fp, ip, sp}
    14fc:	0018020b 	andseq	r0, r8, fp, lsl #4
    1500:	012e0a00 			; <UNDEFINED> instruction: 0x012e0a00
    1504:	0e03193f 			; <UNDEFINED> instruction: 0x0e03193f
    1508:	0b3b0b3a 	bleq	ec41f8 <__bss_end__+0xeb9648>
    150c:	19270b39 	stmdbne	r7!, {r0, r3, r4, r5, r8, r9, fp}
    1510:	06120111 			; <UNDEFINED> instruction: 0x06120111
    1514:	42971840 	addsmi	r1, r7, #64, 16	; 0x400000
    1518:	00130119 	andseq	r0, r3, r9, lsl r1
    151c:	00050b00 	andeq	r0, r5, r0, lsl #22
    1520:	0b3a0803 	bleq	e83534 <__bss_end__+0xe78984>
    1524:	0b390b3b 	bleq	e44218 <__bss_end__+0xe39668>
    1528:	18021349 	stmdane	r2, {r0, r3, r6, r8, r9, ip}
    152c:	2e0c0000 	cdpcs	0, 0, cr0, cr12, cr0, {0}
    1530:	03193f00 	tsteq	r9, #0, 30
    1534:	3b0b3a0e 	blcc	2cfd74 <__bss_end__+0x2c51c4>
    1538:	270b390b 	strcs	r3, [fp, -fp, lsl #18]
    153c:	12011119 	andne	r1, r1, #1073741830	; 0x40000006
    1540:	97184006 	ldrls	r4, [r8, -r6]
    1544:	00001942 	andeq	r1, r0, r2, asr #18
    1548:	03012e0d 	movweq	r2, #7693	; 0x1e0d
    154c:	3b0b3a0e 	blcc	2cfd8c <__bss_end__+0x2c51dc>
    1550:	270b390b 	strcs	r3, [fp, -fp, lsl #18]
    1554:	11134919 	tstne	r3, r9, lsl r9
    1558:	40061201 	andmi	r1, r6, r1, lsl #4
    155c:	19429718 	stmdbne	r2, {r3, r4, r8, r9, sl, ip, pc}^
    1560:	00001301 	andeq	r1, r0, r1, lsl #6
    1564:	0300050e 	movweq	r0, #1294	; 0x50e
    1568:	3b0b3a08 	blcc	2cfd90 <__bss_end__+0x2c51e0>
    156c:	490b390b 	stmdbmi	fp, {r0, r1, r3, r8, fp, ip, sp}
    1570:	b7170213 			; <UNDEFINED> instruction: 0xb7170213
    1574:	00001742 	andeq	r1, r0, r2, asr #14
    1578:	0182890f 	orreq	r8, r2, pc, lsl #18
    157c:	31011101 	tstcc	r1, r1, lsl #2
    1580:	10000013 	andne	r0, r0, r3, lsl r0
    1584:	0001828a 	andeq	r8, r1, sl, lsl #5
    1588:	42911802 	addsmi	r1, r1, #131072	; 0x20000
    158c:	11000018 	tstne	r0, r8, lsl r0
    1590:	193f002e 	ldmdbne	pc!, {r1, r2, r3, r5}	; <UNPREDICTABLE>
    1594:	0e6e193c 			; <UNDEFINED> instruction: 0x0e6e193c
    1598:	0b3a0e03 	bleq	e84dac <__bss_end__+0xe7a1fc>
    159c:	0b390b3b 	bleq	e44290 <__bss_end__+0xe396e0>
    15a0:	01000000 	mrseq	r0, (UNDEF: 0)
    15a4:	0e250111 	mcreq	1, 1, r0, cr5, cr1, {0}
    15a8:	0e030b13 	vmoveq.32	d3[0], r0
    15ac:	01110e1b 	tsteq	r1, fp, lsl lr
    15b0:	17100612 			; <UNDEFINED> instruction: 0x17100612
    15b4:	24020000 	strcs	r0, [r2], #-0
    15b8:	3e0b0b00 	vmlacc.f64	d0, d11, d0
    15bc:	0008030b 	andeq	r0, r8, fp, lsl #6
    15c0:	00240300 	eoreq	r0, r4, r0, lsl #6
    15c4:	0b3e0b0b 	bleq	f841f8 <__bss_end__+0xf79648>
    15c8:	00000e03 	andeq	r0, r0, r3, lsl #28
    15cc:	27011504 	strcs	r1, [r1, -r4, lsl #10]
    15d0:	01134919 	tsteq	r3, r9, lsl r9
    15d4:	05000013 	streq	r0, [r0, #-19]	; 0xffffffed
    15d8:	13490005 	movtne	r0, #36869	; 0x9005
    15dc:	34060000 	strcc	r0, [r6], #-0
    15e0:	3a0e0300 	bcc	3821e8 <__bss_end__+0x377638>
    15e4:	390b3b0b 	stmdbcc	fp, {r0, r1, r3, r8, r9, fp, ip, sp}
    15e8:	3f13490b 	svccc	0x0013490b
    15ec:	00193c19 	andseq	r3, r9, r9, lsl ip
    15f0:	000f0700 	andeq	r0, pc, r0, lsl #14
    15f4:	13490b0b 	movtne	r0, #39691	; 0x9b0b
    15f8:	26080000 	strcs	r0, [r8], -r0
    15fc:	00134900 	andseq	r4, r3, r0, lsl #18
    1600:	012e0900 			; <UNDEFINED> instruction: 0x012e0900
    1604:	0e03193f 			; <UNDEFINED> instruction: 0x0e03193f
    1608:	0b3b0b3a 	bleq	ec42f8 <__bss_end__+0xeb9748>
    160c:	19270b39 	stmdbne	r7!, {r0, r3, r4, r5, r8, r9, fp}
    1610:	01111349 	tsteq	r1, r9, asr #6
    1614:	18400612 	stmdane	r0, {r1, r4, r9, sl}^
    1618:	01194297 			; <UNDEFINED> instruction: 0x01194297
    161c:	0a000013 	beq	1670 <__code_start__-0x6990>
    1620:	0e030005 	cdpeq	0, 0, cr0, cr3, cr5, {0}
    1624:	0b3b0b3a 	bleq	ec4314 <__bss_end__+0xeb9764>
    1628:	13490b39 	movtne	r0, #39737	; 0x9b39
    162c:	00001802 	andeq	r1, r0, r2, lsl #16
    1630:	0300050b 	movweq	r0, #1291	; 0x50b
    1634:	3b0b3a08 	blcc	2cfe5c <__bss_end__+0x2c52ac>
    1638:	490b390b 	stmdbmi	fp, {r0, r1, r3, r8, fp, ip, sp}
    163c:	b7170213 			; <UNDEFINED> instruction: 0xb7170213
    1640:	00001742 	andeq	r1, r0, r2, asr #14
    1644:	0300340c 	movweq	r3, #1036	; 0x40c
    1648:	3b0b3a08 	blcc	2cfe70 <__bss_end__+0x2c52c0>
    164c:	490b390b 	stmdbmi	fp, {r0, r1, r3, r8, fp, ip, sp}
    1650:	b7170213 			; <UNDEFINED> instruction: 0xb7170213
    1654:	00001742 	andeq	r1, r0, r2, asr #14
    1658:	01110100 	tsteq	r1, r0, lsl #2
    165c:	0b130e25 	bleq	4c4ef8 <__bss_end__+0x4ba348>
    1660:	0e1b0e03 	cdpeq	14, 1, cr0, cr11, cr3, {0}
    1664:	06120111 			; <UNDEFINED> instruction: 0x06120111
    1668:	00001710 	andeq	r1, r0, r0, lsl r7
    166c:	0b002402 	bleq	a67c <__FUNCTION__.4149+0x78>
    1670:	030b3e0b 	movweq	r3, #48651	; 0xbe0b
    1674:	03000008 	movweq	r0, #8
    1678:	0b0b0024 	bleq	2c1710 <__bss_end__+0x2b6b60>
    167c:	0e030b3e 	vmoveq.16	d3[0], r0
    1680:	15040000 	strne	r0, [r4, #-0]
    1684:	49192701 	ldmdbmi	r9, {r0, r8, r9, sl, sp}
    1688:	00130113 	andseq	r0, r3, r3, lsl r1
    168c:	00050500 	andeq	r0, r5, r0, lsl #10
    1690:	00001349 	andeq	r1, r0, r9, asr #6
    1694:	03003406 	movweq	r3, #1030	; 0x406
    1698:	3b0b3a0e 	blcc	2cfed8 <__bss_end__+0x2c5328>
    169c:	490b390b 	stmdbmi	fp, {r0, r1, r3, r8, fp, ip, sp}
    16a0:	3c193f13 	ldccc	15, cr3, [r9], {19}
    16a4:	07000019 	smladeq	r0, r9, r0, r0
    16a8:	0b0b000f 	bleq	2c16ec <__bss_end__+0x2b6b3c>
    16ac:	00001349 	andeq	r1, r0, r9, asr #6
    16b0:	49002608 	stmdbmi	r0, {r3, r9, sl, sp}
    16b4:	09000013 	stmdbeq	r0, {r0, r1, r4}
    16b8:	193f012e 	ldmdbne	pc!, {r1, r2, r3, r5, r8}	; <UNPREDICTABLE>
    16bc:	0b3a0e03 	bleq	e84ed0 <__bss_end__+0xe7a320>
    16c0:	0b390b3b 	bleq	e443b4 <__bss_end__+0xe39804>
    16c4:	13491927 	movtne	r1, #39207	; 0x9927
    16c8:	06120111 			; <UNDEFINED> instruction: 0x06120111
    16cc:	42971840 	addsmi	r1, r7, #64, 16	; 0x400000
    16d0:	0a000019 	beq	173c <__code_start__-0x68c4>
    16d4:	08030005 	stmdaeq	r3, {r0, r2}
    16d8:	0b3b0b3a 	bleq	ec43c8 <__bss_end__+0xeb9818>
    16dc:	13490b39 	movtne	r0, #39737	; 0x9b39
    16e0:	42b71702 	adcsmi	r1, r7, #524288	; 0x80000
    16e4:	00000017 	andeq	r0, r0, r7, lsl r0
    16e8:	25011101 	strcs	r1, [r1, #-257]	; 0xfffffeff
    16ec:	030b130e 	movweq	r1, #45838	; 0xb30e
    16f0:	110e1b0e 	tstne	lr, lr, lsl #22
    16f4:	10061201 	andne	r1, r6, r1, lsl #4
    16f8:	02000017 	andeq	r0, r0, #23, 0
    16fc:	0b0b0024 	bleq	2c1794 <__bss_end__+0x2b6be4>
    1700:	08030b3e 	stmdaeq	r3, {r1, r2, r3, r4, r5, r8, r9, fp}
    1704:	24030000 	strcs	r0, [r3], #-0
    1708:	3e0b0b00 	vmlacc.f64	d0, d11, d0
    170c:	000e030b 	andeq	r0, lr, fp, lsl #6
    1710:	01150400 	tsteq	r5, r0, lsl #8
    1714:	13491927 	movtne	r1, #39207	; 0x9927
    1718:	00001301 	andeq	r1, r0, r1, lsl #6
    171c:	49000505 	stmdbmi	r0, {r0, r2, r8, sl}
    1720:	06000013 			; <UNDEFINED> instruction: 0x06000013
    1724:	0e030034 	mcreq	0, 0, r0, cr3, cr4, {1}
    1728:	0b3b0b3a 	bleq	ec4418 <__bss_end__+0xeb9868>
    172c:	13490b39 	movtne	r0, #39737	; 0x9b39
    1730:	193c193f 	ldmdbne	ip!, {r0, r1, r2, r3, r4, r5, r8, fp, ip}
    1734:	0f070000 	svceq	0x00070000
    1738:	490b0b00 	stmdbmi	fp, {r8, r9, fp}
    173c:	08000013 	stmdaeq	r0, {r0, r1, r4}
    1740:	13490026 	movtne	r0, #36902	; 0x9026
    1744:	2e090000 	cdpcs	0, 0, cr0, cr9, cr0, {0}
    1748:	03193f01 	tsteq	r9, #1, 30
    174c:	3b0b3a0e 	blcc	2cff8c <__bss_end__+0x2c53dc>
    1750:	270b390b 	strcs	r3, [fp, -fp, lsl #18]
    1754:	11134919 	tstne	r3, r9, lsl r9
    1758:	40061201 	andmi	r1, r6, r1, lsl #4
    175c:	19429718 	stmdbne	r2, {r3, r4, r8, r9, sl, ip, pc}^
    1760:	00001301 	andeq	r1, r0, r1, lsl #6
    1764:	0300050a 	movweq	r0, #1290	; 0x50a
    1768:	3b0b3a08 	blcc	2cff90 <__bss_end__+0x2c53e0>
    176c:	490b390b 	stmdbmi	fp, {r0, r1, r3, r8, fp, ip, sp}
    1770:	00180213 	andseq	r0, r8, r3, lsl r2
    1774:	00050b00 	andeq	r0, r5, r0, lsl #22
    1778:	0b3a0803 	bleq	e8378c <__bss_end__+0xe78bdc>
    177c:	0b390b3b 	bleq	e44470 <__bss_end__+0xe398c0>
    1780:	17021349 	strne	r1, [r2, -r9, asr #6]
    1784:	001742b7 			; <UNDEFINED> instruction: 0x001742b7
    1788:	00340c00 	eorseq	r0, r4, r0, lsl #24
    178c:	0b3a0803 	bleq	e837a0 <__bss_end__+0xe78bf0>
    1790:	0b390b3b 	bleq	e44484 <__bss_end__+0xe398d4>
    1794:	17021349 	strne	r1, [r2, -r9, asr #6]
    1798:	001742b7 			; <UNDEFINED> instruction: 0x001742b7
    179c:	11010000 	mrsne	r0, (UNDEF: 1)
    17a0:	130e2501 	movwne	r2, #58625	; 0xe501
    17a4:	1b0e030b 	blne	3823d8 <__bss_end__+0x377828>
    17a8:	1201110e 	andne	r1, r1, #-2147483645	; 0x80000003
    17ac:	00171006 	andseq	r1, r7, r6
    17b0:	00240200 	eoreq	r0, r4, r0, lsl #4
    17b4:	0b3e0b0b 	bleq	f843e8 <__bss_end__+0xf79838>
    17b8:	00000803 	andeq	r0, r0, r3, lsl #16
    17bc:	03001603 	movweq	r1, #1539	; 0x603
    17c0:	3b0b3a0e 	blcc	2d0000 <__bss_end__+0x2c5450>
    17c4:	490b390b 	stmdbmi	fp, {r0, r1, r3, r8, fp, ip, sp}
    17c8:	04000013 	streq	r0, [r0], #-19	; 0xffffffed
    17cc:	0b0b0024 	bleq	2c1864 <__bss_end__+0x2b6cb4>
    17d0:	0e030b3e 	vmoveq.16	d3[0], r0
    17d4:	26050000 	strcs	r0, [r5], -r0
    17d8:	00134900 	andseq	r4, r3, r0, lsl #18
    17dc:	01150600 	tsteq	r5, r0, lsl #12
    17e0:	13491927 	movtne	r1, #39207	; 0x9927
    17e4:	00001301 	andeq	r1, r0, r1, lsl #6
    17e8:	49000507 	stmdbmi	r0, {r0, r1, r2, r8, sl}
    17ec:	08000013 	stmdaeq	r0, {r0, r1, r4}
    17f0:	0e030034 	mcreq	0, 0, r0, cr3, cr4, {1}
    17f4:	0b3b0b3a 	bleq	ec44e4 <__bss_end__+0xeb9934>
    17f8:	13490b39 	movtne	r0, #39737	; 0x9b39
    17fc:	193c193f 	ldmdbne	ip!, {r0, r1, r2, r3, r4, r5, r8, fp, ip}
    1800:	0f090000 	svceq	0x00090000
    1804:	490b0b00 	stmdbmi	fp, {r8, r9, fp}
    1808:	0a000013 	beq	185c <__code_start__-0x67a4>
    180c:	193f012e 	ldmdbne	pc!, {r1, r2, r3, r5, r8}	; <UNPREDICTABLE>
    1810:	0b3a0e03 	bleq	e85024 <__bss_end__+0xe7a474>
    1814:	0b390b3b 	bleq	e44508 <__bss_end__+0xe39958>
    1818:	13491927 	movtne	r1, #39207	; 0x9927
    181c:	06120111 			; <UNDEFINED> instruction: 0x06120111
    1820:	42971840 	addsmi	r1, r7, #64, 16	; 0x400000
    1824:	00130119 	andseq	r0, r3, r9, lsl r1
    1828:	00050b00 	andeq	r0, r5, r0, lsl #22
    182c:	0b3a0803 	bleq	e83840 <__bss_end__+0xe78c90>
    1830:	0b390b3b 	bleq	e44524 <__bss_end__+0xe39974>
    1834:	17021349 	strne	r1, [r2, -r9, asr #6]
    1838:	001742b7 			; <UNDEFINED> instruction: 0x001742b7
    183c:	00340c00 	eorseq	r0, r4, r0, lsl #24
    1840:	0b3a0803 	bleq	e83854 <__bss_end__+0xe78ca4>
    1844:	0b390b3b 	bleq	e44538 <__bss_end__+0xe39988>
    1848:	17021349 	strne	r1, [r2, -r9, asr #6]
    184c:	001742b7 			; <UNDEFINED> instruction: 0x001742b7
    1850:	11010000 	mrsne	r0, (UNDEF: 1)
    1854:	130e2501 	movwne	r2, #58625	; 0xe501
    1858:	1b0e030b 	blne	38248c <__bss_end__+0x3778dc>
    185c:	1201110e 	andne	r1, r1, #-2147483645	; 0x80000003
    1860:	00171006 	andseq	r1, r7, r6
    1864:	00240200 	eoreq	r0, r4, r0, lsl #4
    1868:	0b3e0b0b 	bleq	f8449c <__bss_end__+0xf798ec>
    186c:	00000803 	andeq	r0, r0, r3, lsl #16
    1870:	0b002403 	bleq	a884 <buf.3948+0xdc>
    1874:	030b3e0b 	movweq	r3, #48651	; 0xbe0b
    1878:	0400000e 	streq	r0, [r0], #-14
    187c:	19270115 	stmdbne	r7!, {r0, r2, r4, r8}
    1880:	13011349 	movwne	r1, #4937	; 0x1349
    1884:	05050000 	streq	r0, [r5, #-0]
    1888:	00134900 	andseq	r4, r3, r0, lsl #18
    188c:	00340600 	eorseq	r0, r4, r0, lsl #12
    1890:	0b3a0e03 	bleq	e850a4 <__bss_end__+0xe7a4f4>
    1894:	0b390b3b 	bleq	e44588 <__bss_end__+0xe399d8>
    1898:	193f1349 	ldmdbne	pc!, {r0, r3, r6, r8, r9, ip}	; <UNPREDICTABLE>
    189c:	0000193c 	andeq	r1, r0, ip, lsr r9
    18a0:	0b000f07 	bleq	54c4 <__code_start__-0x2b3c>
    18a4:	0013490b 	andseq	r4, r3, fp, lsl #18
    18a8:	00260800 	eoreq	r0, r6, r0, lsl #16
    18ac:	00001349 	andeq	r1, r0, r9, asr #6
    18b0:	3f002e09 	svccc	0x00002e09
    18b4:	3a0e0319 	bcc	382520 <__bss_end__+0x377970>
    18b8:	390b3b0b 	stmdbcc	fp, {r0, r1, r3, r8, r9, fp, ip, sp}
    18bc:	1119270b 	tstne	r9, fp, lsl #14
    18c0:	40061201 	andmi	r1, r6, r1, lsl #4
    18c4:	19429718 	stmdbne	r2, {r3, r4, r8, r9, sl, ip, pc}^
    18c8:	Address 0x00000000000018c8 is out of bounds.


Disassembly of section .debug_loc:

00000000 <.debug_loc>:
       0:	00000000 	andeq	r0, r0, r0
       4:	000004ec 	andeq	r0, r0, ip, ror #9
       8:	00000504 	andeq	r0, r0, r4, lsl #10
       c:	e8500001 	ldmda	r0, {r0}^
      10:	14000005 	strne	r0, [r0], #-5
      14:	01000006 	tsteq	r0, r6
      18:	00005000 	andeq	r5, r0, r0
      1c:	00000000 	andeq	r0, r0, r0
      20:	00010000 	andeq	r0, r1, r0
      24:	05100000 	ldreq	r0, [r0, #-0]
      28:	05e80000 	strbeq	r0, [r8, #0]!
      2c:	00030000 	andeq	r0, r3, r0
      30:	1c9ff508 	cfldr32ne	mvfx15, [pc], {8}
      34:	68000006 	stmdavs	r0, {r1, r2}
      38:	03000006 	movweq	r0, #6
      3c:	9ff50800 	svcls	0x00f50800
	...
      4c:	00000580 	andeq	r0, r0, r0, lsl #11
      50:	000005e8 	andeq	r0, r0, r8, ror #11
      54:	3c560001 	mrrccc	0, 0, r0, r6, cr1
      58:	44000006 	strmi	r0, [r0], #-6
      5c:	01000006 	tsteq	r0, r6
      60:	00005600 	andeq	r5, r0, r0, lsl #12
	...
      6c:	04900000 	ldreq	r0, [r0], #0
      70:	04a30000 	strteq	r0, [r3], #0
      74:	00010000 	andeq	r0, r1, r0
      78:	0004a350 	andeq	sl, r4, r0, asr r3
      7c:	0004c000 	andeq	ip, r4, r0
      80:	f3000400 	vshl.u8	d0, d0, d0
      84:	009f5001 	addseq	r5, pc, r1
	...
      90:	30000000 	andcc	r0, r0, r0
      94:	4c000004 	stcmi	0, cr0, [r0], {4}
      98:	01000004 	tsteq	r0, r4
      9c:	044c5100 	strbeq	r5, [ip], #-256	; 0xffffff00
      a0:	04900000 	ldreq	r0, [r0], #0
      a4:	00040000 	andeq	r0, r4, r0
      a8:	9f5101f3 	svcls	0x005101f3
	...
      b4:	04480000 	strbeq	r0, [r8], #-0
      b8:	04880000 	streq	r0, [r8], #0
      bc:	00010000 	andeq	r0, r1, r0
      c0:	00000057 	andeq	r0, r0, r7, asr r0
	...
      cc:	58000000 	stmdapl	r0, {}	; <UNPREDICTABLE>
      d0:	60000004 	andvs	r0, r0, r4
      d4:	01000004 	tsteq	r0, r4
      d8:	04605000 	strbteq	r5, [r0], #-0
      dc:	04880000 	streq	r0, [r8], #0
      e0:	00010000 	andeq	r0, r1, r0
      e4:	00048856 	andeq	r8, r4, r6, asr r8
      e8:	00049000 	andeq	r9, r4, r0
      ec:	70000200 	andvc	r0, r0, r0, lsl #4
	...
      fc:	68000000 	stmdavs	r0, {}	; <UNPREDICTABLE>
     100:	70000004 	andvc	r0, r0, r4
     104:	01000004 	tsteq	r0, r4
     108:	04705000 	ldrbteq	r5, [r0], #-0
     10c:	04880000 	streq	r0, [r8], #0
     110:	00010000 	andeq	r0, r1, r0
     114:	00048855 	andeq	r8, r4, r5, asr r8
     118:	00049000 	andeq	r9, r4, r0
     11c:	70000200 	andvc	r0, r0, r0, lsl #4
     120:	00000004 	andeq	r0, r0, r4
	...
     12c:	74000000 	strvc	r0, [r0], #-0
     130:	84000004 	strhi	r0, [r0], #-4
     134:	01000004 	tsteq	r0, r4
     138:	04845000 	streq	r5, [r4], #0
     13c:	04880000 	streq	r0, [r8], #0
     140:	00020000 	andeq	r0, r2, r0
     144:	04880874 	streq	r0, [r8], #2164	; 0x874
     148:	04900000 	ldreq	r0, [r0], #0
     14c:	00020000 	andeq	r0, r2, r0
     150:	00000870 	andeq	r0, r0, r0, ror r8
     154:	00000000 	andeq	r0, r0, r0
     158:	00010000 	andeq	r0, r1, r0
     15c:	00000474 	andeq	r0, r0, r4, ror r4
     160:	00000480 	andeq	r0, r0, r0, lsl #9
     164:	00500001 	subseq	r0, r0, r1
     168:	00000000 	andeq	r0, r0, r0
     16c:	01000000 	mrseq	r0, (UNDEF: 0)
     170:	00047400 	andeq	r7, r4, r0, lsl #8
     174:	00048000 	andeq	r8, r4, r0
     178:	55000100 	strpl	r0, [r0, #-256]	; 0xffffff00
	...
     184:	04740001 	ldrbteq	r0, [r4], #-1
     188:	04800000 	streq	r0, [r0], #0
     18c:	00010000 	andeq	r0, r1, r0
     190:	00000056 	andeq	r0, r0, r6, asr r0
     194:	00000000 	andeq	r0, r0, r0
     198:	01010000 	mrseq	r0, (UNDEF: 1)
     19c:	7c000000 	stcvc	0, cr0, [r0], {-0}
     1a0:	8c000003 	stchi	0, cr0, [r0], {3}
     1a4:	01000003 	tsteq	r0, r3
     1a8:	038c5100 	orreq	r5, ip, #0
     1ac:	03ac0000 			; <UNDEFINED> instruction: 0x03ac0000
     1b0:	00010000 	andeq	r0, r1, r0
     1b4:	0003ac54 	andeq	sl, r3, r4, asr ip
     1b8:	00043000 	andeq	r3, r4, r0
     1bc:	f3000400 	vshl.u8	d0, d0, d0
     1c0:	009f5101 	addseq	r5, pc, r1, lsl #2
     1c4:	00000000 	andeq	r0, r0, r0
     1c8:	01000000 	mrseq	r0, (UNDEF: 0)
     1cc:	00038801 	andeq	r8, r3, r1, lsl #16
     1d0:	00038c00 	andeq	r8, r3, r0, lsl #24
     1d4:	71000200 	mrsvc	r0, R8_usr
     1d8:	00000008 	andeq	r0, r0, r8
     1dc:	00000000 	andeq	r0, r0, r0
     1e0:	8c000000 	stchi	0, cr0, [r0], {-0}
     1e4:	30000003 	andcc	r0, r0, r3
     1e8:	01000004 	tsteq	r0, r4
     1ec:	00005600 	andeq	r5, r0, r0, lsl #12
     1f0:	00000000 	andeq	r0, r0, r0
     1f4:	00010000 	andeq	r0, r1, r0
     1f8:	00000000 	andeq	r0, r0, r0
     1fc:	0000039c 	muleq	r0, ip, r3
     200:	000003c8 	andeq	r0, r0, r8, asr #7
     204:	9f300002 	svcls	0x00300002
     208:	000003c8 	andeq	r0, r0, r8, asr #7
     20c:	000003d0 	ldrdeq	r0, [r0], -r0	; <UNPREDICTABLE>
     210:	d0500001 	subsle	r0, r0, r1
     214:	30000003 	andcc	r0, r0, r3
     218:	01000004 	tsteq	r0, r4
     21c:	00005700 	andeq	r5, r0, r0, lsl #14
     220:	00000000 	andeq	r0, r0, r0
     224:	00010000 	andeq	r0, r1, r0
     228:	00000000 	andeq	r0, r0, r0
     22c:	0000039c 	muleq	r0, ip, r3
     230:	000003f4 	strdeq	r0, [r0], -r4
     234:	9f300002 	svcls	0x00300002
     238:	000003f4 	strdeq	r0, [r0], -r4
     23c:	000003fc 	strdeq	r0, [r0], -ip
     240:	fc500001 	mrrc2	0, 0, r0, r0, cr1	; <UNPREDICTABLE>
     244:	30000003 	andcc	r0, r0, r3
     248:	01000004 	tsteq	r0, r4
     24c:	00005400 	andeq	r5, r0, r0, lsl #8
     250:	00000000 	andeq	r0, r0, r0
     254:	00010000 	andeq	r0, r1, r0
     258:	00000000 	andeq	r0, r0, r0
     25c:	0000039c 	muleq	r0, ip, r3
     260:	0000041c 	andeq	r0, r0, ip, lsl r4
     264:	9f300002 	svcls	0x00300002
     268:	0000041c 	andeq	r0, r0, ip, lsl r4
     26c:	0000042c 	andeq	r0, r0, ip, lsr #8
     270:	2c500001 	mrrccs	0, 0, r0, r0, cr1	; <UNPREDICTABLE>
     274:	30000004 	andcc	r0, r0, r4
     278:	02000004 	andeq	r0, r0, #4, 0
     27c:	00087000 	andeq	r7, r8, r0
     280:	00000000 	andeq	r0, r0, r0
     284:	01000000 	mrseq	r0, (UNDEF: 0)
     288:	00041c00 	andeq	r1, r4, r0, lsl #24
     28c:	00042800 	andeq	r2, r4, r0, lsl #16
     290:	50000100 	andpl	r0, r0, r0, lsl #2
	...
     29c:	041c0001 	ldreq	r0, [ip], #-1
     2a0:	04280000 	strteq	r0, [r8], #-0
     2a4:	00010000 	andeq	r0, r1, r0
     2a8:	00000054 	andeq	r0, r0, r4, asr r0
     2ac:	00000000 	andeq	r0, r0, r0
     2b0:	1c000100 	stfnes	f0, [r0], {-0}
     2b4:	28000004 	stmdacs	r0, {r2}
     2b8:	01000004 	tsteq	r0, r4
     2bc:	00005700 	andeq	r5, r0, r0, lsl #14
	...
     2d4:	01580000 	cmpeq	r8, r0
     2d8:	016c0000 	cmneq	ip, r0
     2dc:	00010000 	andeq	r0, r1, r0
     2e0:	00016c50 	andeq	r6, r1, r0, asr ip
     2e4:	00018400 	andeq	r8, r1, r0, lsl #8
     2e8:	54000100 	strpl	r0, [r0], #-256	; 0xffffff00
     2ec:	00000184 	andeq	r0, r0, r4, lsl #3
     2f0:	00000188 	andeq	r0, r0, r8, lsl #3
     2f4:	01f30004 	mvnseq	r0, r4
     2f8:	01889f50 	orreq	r9, r8, r0, asr pc
     2fc:	01a70000 			; <UNDEFINED> instruction: 0x01a70000
     300:	00010000 	andeq	r0, r1, r0
     304:	0001a751 	andeq	sl, r1, r1, asr r7
     308:	0001b000 	andeq	fp, r1, r0
     30c:	f3001200 	vhsub.u8	d1, d0, d0
     310:	24355001 	ldrtcs	r5, [r5], #-1
     314:	1c5001f3 	ldfnee	f0, [r0], {243}	; 0xf3
     318:	01f32432 	mvnseq	r2, r2, lsr r4
     31c:	24332250 	ldrtcs	r2, [r3], #-592	; 0xfffffdb0
     320:	0001b09f 	muleq	r1, pc, r0	; <UNPREDICTABLE>
     324:	0001d000 	andeq	sp, r1, r0
     328:	51000100 	mrspl	r0, (UNDEF: 16)
     32c:	000001d0 	ldrdeq	r0, [r0], -r0	; <UNPREDICTABLE>
     330:	000001d7 	ldrdeq	r0, [r0], -r7
     334:	007d0002 	rsbseq	r0, sp, r2
     338:	000001d7 	ldrdeq	r0, [r0], -r7
     33c:	000001ec 	andeq	r0, r0, ip, ror #3
     340:	01f30012 	mvnseq	r0, r2, lsl r0
     344:	f3243550 	vqrshl.u32	<illegal reg q1.5>, q0, q2
     348:	321c5001 	andscc	r5, ip, #1, 0
     34c:	5001f324 	andpl	pc, r1, r4, lsr #6
     350:	9f243322 	svcls	0x00243322
	...
     360:	00000158 	andeq	r0, r0, r8, asr r1
     364:	0000016f 	andeq	r0, r0, pc, ror #2
     368:	6f510001 	svcvs	0x00510001
     36c:	ec000001 	stc	0, cr0, [r0], {1}
     370:	04000001 	streq	r0, [r0], #-1
     374:	5101f300 	mrspl	pc, SP_irq	; <UNPREDICTABLE>
     378:	0000009f 	muleq	r0, pc, r0	; <UNPREDICTABLE>
	...
     384:	00015800 	andeq	r5, r1, r0, lsl #16
     388:	00016f00 	andeq	r6, r1, r0, lsl #30
     38c:	52000100 	andpl	r0, r0, #0
     390:	0000016f 	andeq	r0, r0, pc, ror #2
     394:	000001ec 	andeq	r0, r0, ip, ror #3
     398:	01f30004 	mvnseq	r0, r4
     39c:	00009f52 	andeq	r9, r0, r2, asr pc
	...
     3a8:	01580000 	cmpeq	r8, r0
     3ac:	016f0000 	cmneq	pc, r0
     3b0:	00010000 	andeq	r0, r1, r0
     3b4:	00016f53 	andeq	r6, r1, r3, asr pc
     3b8:	0001ec00 	andeq	lr, r1, r0, lsl #24
     3bc:	55000100 	strpl	r0, [r0, #-256]	; 0xffffff00
	...
     3d0:	0000017c 	andeq	r0, r0, ip, ror r1
     3d4:	00000180 	andeq	r0, r0, r0, lsl #3
     3d8:	80500001 	subshi	r0, r0, r1
     3dc:	a7000001 	strge	r0, [r0, -r1]
     3e0:	01000001 	tsteq	r0, r1
     3e4:	01b05200 	lslseq	r5, r0, #4
     3e8:	01cc0000 	biceq	r0, ip, r0
     3ec:	00010000 	andeq	r0, r1, r0
     3f0:	0001cc52 	andeq	ip, r1, r2, asr ip
     3f4:	0001d700 	andeq	sp, r1, r0, lsl #14
     3f8:	91000200 	mrsls	r0, R8_usr
     3fc:	0000005c 	andeq	r0, r0, ip, asr r0
     400:	00000000 	andeq	r0, r0, r0
     404:	00010200 	andeq	r0, r1, r0, lsl #4
     408:	00018800 	andeq	r8, r1, r0, lsl #16
     40c:	00019000 	andeq	r9, r1, r0
     410:	35000200 	strcc	r0, [r0, #-512]	; 0xfffffe00
     414:	0001b09f 	muleq	r1, pc, r0	; <UNPREDICTABLE>
     418:	0001b800 	andeq	fp, r1, r0, lsl #16
     41c:	35000200 	strcc	r0, [r0, #-512]	; 0xfffffe00
     420:	0000009f 	muleq	r0, pc, r0	; <UNPREDICTABLE>
     424:	00000000 	andeq	r0, r0, r0
     428:	00010200 	andeq	r0, r1, r0, lsl #4
     42c:	00018800 	andeq	r8, r1, r0, lsl #16
     430:	00019000 	andeq	r9, r1, r0
     434:	52000100 	andpl	r0, r0, #0
     438:	000001b0 			; <UNDEFINED> instruction: 0x000001b0
     43c:	000001b8 			; <UNDEFINED> instruction: 0x000001b8
     440:	00520001 	subseq	r0, r2, r1
     444:	00000000 	andeq	r0, r0, r0
     448:	02000000 	andeq	r0, r0, #0, 0
     44c:	88000001 	stmdahi	r0, {r0}
     450:	90000001 	andls	r0, r0, r1
     454:	01000001 	tsteq	r0, r1
     458:	01b05100 	lslseq	r5, r0, #2
     45c:	01b80000 			; <UNDEFINED> instruction: 0x01b80000
     460:	00010000 	andeq	r0, r1, r0
     464:	00000051 	andeq	r0, r0, r1, asr r0
     468:	00000000 	andeq	r0, r0, r0
     46c:	00000400 	andeq	r0, r0, r0, lsl #8
     470:	88000001 	stmdahi	r0, {r0}
     474:	8c000001 	stchi	0, cr0, [r0], {1}
     478:	08000001 	stmdaeq	r0, {r0}
     47c:	33007400 	movwcc	r7, #1024	; 0x400
     480:	1c007224 	sfmne	f7, 4, [r0], {36}	; 0x24
     484:	00018c9f 	muleq	r1, pc, ip	; <UNPREDICTABLE>
     488:	00019000 	andeq	r9, r1, r0
     48c:	54000100 	strpl	r0, [r0], #-256	; 0xffffff00
     490:	000001b0 			; <UNDEFINED> instruction: 0x000001b0
     494:	000001b8 			; <UNDEFINED> instruction: 0x000001b8
     498:	00540001 	subseq	r0, r4, r1
	...
     4a4:	2c000000 	stccs	0, cr0, [r0], {-0}
     4a8:	38000001 	stmdacc	r0, {r0}
     4ac:	01000001 	tsteq	r0, r1
     4b0:	01385000 	teqeq	r8, r0
     4b4:	01580000 	cmpeq	r8, r0
     4b8:	00010000 	andeq	r0, r1, r0
     4bc:	00000054 	andeq	r0, r0, r4, asr r0
	...
     4c8:	00012c00 	andeq	r2, r1, r0, lsl #24
     4cc:	00013b00 	andeq	r3, r1, r0, lsl #22
     4d0:	51000100 	mrspl	r0, (UNDEF: 16)
     4d4:	0000013b 	andeq	r0, r0, fp, lsr r1
     4d8:	00000158 	andeq	r0, r0, r8, asr r1
     4dc:	01f30004 	mvnseq	r0, r4
     4e0:	00009f51 	andeq	r9, r0, r1, asr pc
	...
     4f4:	000c0000 	andeq	r0, ip, r0
     4f8:	00240000 	eoreq	r0, r4, r0
     4fc:	00010000 	andeq	r0, r1, r0
     500:	00002450 	andeq	r2, r0, r0, asr r4
     504:	00004000 	andeq	r4, r0, r0
     508:	f3000400 	vshl.u8	d0, d0, d0
     50c:	409f5001 	addsmi	r5, pc, r1
     510:	48000000 	stmdami	r0, {}	; <UNPREDICTABLE>
     514:	01000000 	mrseq	r0, (UNDEF: 0)
     518:	00485000 	subeq	r5, r8, r0
     51c:	00640000 	rsbeq	r0, r4, r0
     520:	00040000 	andeq	r0, r4, r0
     524:	9f5001f3 	svcls	0x005001f3
     528:	00000064 	andeq	r0, r0, r4, rrx
     52c:	00000080 	andeq	r0, r0, r0, lsl #1
     530:	80500001 	subshi	r0, r0, r1
     534:	98000000 	stmdals	r0, {}	; <UNPREDICTABLE>
     538:	04000000 	streq	r0, [r0], #-0
     53c:	5001f300 	andpl	pc, r1, r0, lsl #6
     540:	0000009f 	muleq	r0, pc, r0	; <UNPREDICTABLE>
	...
     54c:	0c000000 	stceq	0, cr0, [r0], {-0}
     550:	7c000000 	stcvc	0, cr0, [r0], {-0}
     554:	01000000 	mrseq	r0, (UNDEF: 0)
     558:	007c5100 	rsbseq	r5, ip, r0, lsl #2
     55c:	00830000 	addeq	r0, r3, r0
     560:	00020000 	andeq	r0, r2, r0
     564:	0083007d 	addeq	r0, r3, sp, ror r0
     568:	00980000 	addseq	r0, r8, r0
     56c:	00040000 	andeq	r0, r4, r0
     570:	9f5101f3 	svcls	0x005101f3
	...
     594:	00980000 	addseq	r0, r8, r0
     598:	00b80000 	adcseq	r0, r8, r0
     59c:	00010000 	andeq	r0, r1, r0
     5a0:	0000b850 	andeq	fp, r0, r0, asr r8
     5a4:	0000bc00 	andeq	fp, r0, r0, lsl #24
     5a8:	f3000400 	vshl.u8	d0, d0, d0
     5ac:	bc9f5001 	ldclt	0, cr5, [pc], {1}
     5b0:	d0000000 	andle	r0, r0, r0
     5b4:	01000000 	mrseq	r0, (UNDEF: 0)
     5b8:	00d05000 	sbcseq	r5, r0, r0
     5bc:	00d40000 	sbcseq	r0, r4, r0
     5c0:	00040000 	andeq	r0, r4, r0
     5c4:	9f5001f3 	svcls	0x005001f3
     5c8:	000000d4 	ldrdeq	r0, [r0], -r4
     5cc:	000000f0 	strdeq	r0, [r0], -r0	; <UNPREDICTABLE>
     5d0:	f0500001 			; <UNDEFINED> instruction: 0xf0500001
     5d4:	f3000000 	vhadd.u8	d0, d0, d0
     5d8:	02000000 	andeq	r0, r0, #0, 0
     5dc:	f3007d00 	vpadd.f32	d7, d0, d0
     5e0:	f8000000 			; <UNDEFINED> instruction: 0xf8000000
     5e4:	04000000 	streq	r0, [r0], #-0
     5e8:	5001f300 	andpl	pc, r1, r0, lsl #6
     5ec:	0000f89f 	muleq	r0, pc, r8	; <UNPREDICTABLE>
     5f0:	0000fc00 	andeq	pc, r0, r0, lsl #24
     5f4:	50000100 	andpl	r0, r0, r0, lsl #2
     5f8:	000000fc 	strdeq	r0, [r0], -ip
     5fc:	00000100 	andeq	r0, r0, r0, lsl #2
     600:	01f30004 	mvnseq	r0, r4
     604:	01009f50 	tsteq	r0, r0, asr pc
     608:	01040000 	mrseq	r0, (UNDEF: 4)
     60c:	00010000 	andeq	r0, r1, r0
     610:	00010450 	andeq	r0, r1, r0, asr r4
     614:	00010800 	andeq	r0, r1, r0, lsl #16
     618:	f3000400 	vshl.u8	d0, d0, d0
     61c:	089f5001 	ldmeq	pc, {r0, ip, lr}	; <UNPREDICTABLE>
     620:	0c000001 	stceq	0, cr0, [r0], {1}
     624:	01000001 	tsteq	r0, r1
     628:	010c5000 	mrseq	r5, (UNDEF: 12)
     62c:	012c0000 			; <UNDEFINED> instruction: 0x012c0000
     630:	00040000 	andeq	r0, r4, r0
     634:	9f5001f3 	svcls	0x005001f3
	...
     644:	00000374 	andeq	r0, r0, r4, ror r3
     648:	00000378 	andeq	r0, r0, r8, ror r3
     64c:	78500001 	ldmdavc	r0, {r0}^
     650:	7c000003 	stcvc	0, cr0, [r0], {3}
     654:	04000003 	streq	r0, [r0], #-3
     658:	5001f300 	andpl	pc, r1, r0, lsl #6
     65c:	0000009f 	muleq	r0, pc, r0	; <UNPREDICTABLE>
	...
     66c:	bc000000 	stclt	0, cr0, [r0], {-0}
     670:	10000002 	andne	r0, r0, r2
     674:	01000003 	tsteq	r0, r3
     678:	03105100 	tsteq	r0, #0
     67c:	031c0000 	tsteq	ip, #0, 0
     680:	00040000 	andeq	r0, r4, r0
     684:	9f5101f3 	svcls	0x005101f3
     688:	0000031c 	andeq	r0, r0, ip, lsl r3
     68c:	00000328 	andeq	r0, r0, r8, lsr #6
     690:	28510001 	ldmdacs	r1, {r0}^
     694:	60000003 	andvs	r0, r0, r3
     698:	04000003 	streq	r0, [r0], #-3
     69c:	5101f300 	mrspl	pc, SP_irq	; <UNPREDICTABLE>
     6a0:	0003609f 	muleq	r3, pc, r0	; <UNPREDICTABLE>
     6a4:	00037400 	andeq	r7, r3, r0, lsl #8
     6a8:	51000100 	mrspl	r0, (UNDEF: 16)
	...
     6bc:	02bc0000 	adcseq	r0, ip, #0, 0
     6c0:	030c0000 	movweq	r0, #49152	; 0xc000
     6c4:	00010000 	andeq	r0, r1, r0
     6c8:	00030c52 	andeq	r0, r3, r2, asr ip
     6cc:	00031c00 	andeq	r1, r3, r0, lsl #24
     6d0:	54000100 	strpl	r0, [r0], #-256	; 0xffffff00
     6d4:	0000031c 	andeq	r0, r0, ip, lsl r3
     6d8:	00000324 	andeq	r0, r0, r4, lsr #6
     6dc:	24520001 	ldrbcs	r0, [r2], #-1
     6e0:	60000003 	andvs	r0, r0, r3
     6e4:	01000003 	tsteq	r0, r3
     6e8:	03605400 	cmneq	r0, #0, 8
     6ec:	03740000 	cmneq	r4, #0, 0
     6f0:	00010000 	andeq	r0, r1, r0
     6f4:	00000052 	andeq	r0, r0, r2, asr r0
     6f8:	00000000 	andeq	r0, r0, r0
     6fc:	01010100 	mrseq	r0, (UNDEF: 17)
     700:	01010000 	mrseq	r0, (UNDEF: 1)
     704:	00000000 	andeq	r0, r0, r0
     708:	d0000000 	andle	r0, r0, r0
     70c:	ec000002 	stc	0, cr0, [r0], {2}
     710:	02000002 	andeq	r0, r0, #2, 0
     714:	ec9f3000 	ldc	0, cr3, [pc], {0}
     718:	f4000002 	vst4.8	{d0-d3}, [r0], r2
     71c:	04000002 	streq	r0, [r0], #-2
     720:	03e80a00 	mvneq	r0, #0, 20
     724:	0002f49f 	muleq	r2, pc, r4	; <UNPREDICTABLE>
     728:	0002f400 	andeq	pc, r2, r0, lsl #8
     72c:	30000200 	andcc	r0, r0, r0, lsl #4
     730:	0002f49f 	muleq	r2, pc, r4	; <UNPREDICTABLE>
     734:	0002fc00 	andeq	pc, r2, r0, lsl #24
     738:	0a000400 	beq	1740 <__code_start__-0x68c0>
     73c:	fc9f07d0 	ldc2	7, cr0, [pc], {208}	; 0xd0
     740:	20000002 	andcs	r0, r0, r2
     744:	02000003 	andeq	r0, r0, #3, 0
     748:	209f3000 	addscs	r3, pc, r0
     74c:	60000003 	andvs	r0, r0, r3
     750:	01000003 	tsteq	r0, r3
     754:	03605700 	cmneq	r0, #0, 14
     758:	03740000 	cmneq	r4, #0, 0
     75c:	00020000 	andeq	r0, r2, r0
     760:	00009f30 	andeq	r9, r0, r0, lsr pc
	...
     770:	00040000 	andeq	r0, r4, r0
     774:	00010000 	andeq	r0, r1, r0
     778:	00000450 	andeq	r0, r0, r0, asr r4
     77c:	00000c00 	andeq	r0, r0, r0, lsl #24
     780:	f3000400 	vshl.u8	d0, d0, d0
     784:	009f5001 	addseq	r5, pc, r1
	...
     790:	80000000 	andhi	r0, r0, r0
     794:	a3000002 	movwge	r0, #2
     798:	01000002 	tsteq	r0, r2
     79c:	02a35000 	adceq	r5, r3, #0, 0
     7a0:	02bc0000 	adcseq	r0, ip, #0, 0
     7a4:	00040000 	andeq	r0, r4, r0
     7a8:	9f5001f3 	svcls	0x005001f3
	...
     7b8:	00000280 	andeq	r0, r0, r0, lsl #5
     7bc:	000002a0 	andeq	r0, r0, r0, lsr #5
     7c0:	a0510001 	subsge	r0, r1, r1
     7c4:	a3000002 	movwge	r0, #2
     7c8:	02000002 	andeq	r0, r0, #2, 0
     7cc:	00007100 	andeq	r7, r0, r0, lsl #2
	...
     7d8:	80000000 	andhi	r0, r0, r0
     7dc:	9c000002 	stcls	0, cr0, [r0], {2}
     7e0:	01000002 	tsteq	r0, r2
     7e4:	029c5200 	addseq	r5, ip, #0, 4
     7e8:	02bc0000 	adcseq	r0, ip, #0, 0
     7ec:	00010000 	andeq	r0, r1, r0
     7f0:	00000055 	andeq	r0, r0, r5, asr r0
	...
     7fc:	00028000 	andeq	r8, r2, r0
     800:	0002a300 	andeq	sl, r2, r0, lsl #6
     804:	53000100 	movwpl	r0, #256	; 0x100
     808:	000002a3 	andeq	r0, r0, r3, lsr #5
     80c:	000002bc 			; <UNDEFINED> instruction: 0x000002bc
     810:	00560001 	subseq	r0, r6, r1
	...
     81c:	5c000000 	stcpl	0, cr0, [r0], {-0}
     820:	77000002 	strvc	r0, [r0, -r2]
     824:	01000002 	tsteq	r0, r2
     828:	02775000 	rsbseq	r5, r7, #0, 0
     82c:	02800000 	addeq	r0, r0, #0, 0
     830:	00040000 	andeq	r0, r4, r0
     834:	9f5001f3 	svcls	0x005001f3
	...
     844:	025c0000 	subseq	r0, ip, #0, 0
     848:	02740000 	rsbseq	r0, r4, #0, 0
     84c:	00010000 	andeq	r0, r1, r0
     850:	00027451 	andeq	r7, r2, r1, asr r4
     854:	00027700 	andeq	r7, r2, r0, lsl #14
     858:	71000200 	mrsvc	r0, R8_usr
     85c:	00027700 	andeq	r7, r2, r0, lsl #14
     860:	00028000 	andeq	r8, r2, r0
     864:	f3000400 	vshl.u8	d0, d0, d0
     868:	009f5101 	addseq	r5, pc, r1, lsl #2
	...
     878:	00025c00 	andeq	r5, r2, r0, lsl #24
     87c:	00027000 	andeq	r7, r2, r0
     880:	52000100 	andpl	r0, r0, #0
     884:	00000270 	andeq	r0, r0, r0, ror r2
     888:	00000277 	andeq	r0, r0, r7, ror r2
     88c:	6d910002 	ldcvs	0, cr0, [r1, #8]
     890:	00000277 	andeq	r0, r0, r7, ror r2
     894:	00000280 	andeq	r0, r0, r0, lsl #5
     898:	01f30004 	mvnseq	r0, r4
     89c:	00009f52 	andeq	r9, r0, r2, asr pc
	...
     8a8:	02240000 	eoreq	r0, r4, #0, 0
     8ac:	023f0000 	eorseq	r0, pc, #0, 0
     8b0:	00010000 	andeq	r0, r1, r0
     8b4:	00023f50 	andeq	r3, r2, r0, asr pc
     8b8:	00025c00 	andeq	r5, r2, r0, lsl #24
     8bc:	f3000400 	vshl.u8	d0, d0, d0
     8c0:	009f5001 	addseq	r5, pc, r1
	...
     8cc:	24000000 	strcs	r0, [r0], #-0
     8d0:	3c000002 	stccc	0, cr0, [r0], {2}
     8d4:	01000002 	tsteq	r0, r2
     8d8:	023c5100 	eorseq	r5, ip, #0
     8dc:	023f0000 	eorseq	r0, pc, #0, 0
     8e0:	00020000 	andeq	r0, r2, r0
     8e4:	00000071 	andeq	r0, r0, r1, ror r0
	...
     8f4:	000001ec 	andeq	r0, r0, ip, ror #3
     8f8:	00000214 	andeq	r0, r0, r4, lsl r2
     8fc:	14500001 	ldrbne	r0, [r0], #-1
     900:	17000002 	strne	r0, [r0, -r2]
     904:	01000002 	tsteq	r0, r2
     908:	02175100 	andseq	r5, r7, #0
     90c:	02240000 	eoreq	r0, r4, #0, 0
     910:	00040000 	andeq	r0, r4, r0
     914:	9f5001f3 	svcls	0x005001f3
	...
     920:	003b3b32 	eorseq	r3, fp, r2, lsr fp
     924:	00000020 	andeq	r0, r0, r0, lsr #32
     928:	00000020 	andeq	r0, r0, r0, lsr #32
     92c:	9f400002 	svcls	0x00400002
     930:	00000020 	andeq	r0, r0, r0, lsr #32
     934:	00000024 	andeq	r0, r0, r4, lsr #32
     938:	30080003 	andcc	r0, r8, r3
     93c:	0000009f 	muleq	r0, pc, r0	; <UNPREDICTABLE>
	...
     948:	00064c00 	andeq	r4, r6, r0, lsl #24
     94c:	00065c00 	andeq	r5, r6, r0, lsl #24
     950:	50000100 	andpl	r0, r0, r0, lsl #2
     954:	0000065c 	andeq	r0, r0, ip, asr r6
     958:	00000804 	andeq	r0, r0, r4, lsl #16
     95c:	01f30004 	mvnseq	r0, r4
     960:	00009f50 	andeq	r9, r0, r0, asr pc
	...
     96c:	064c0000 	strbeq	r0, [ip], -r0
     970:	065c0000 	ldrbeq	r0, [ip], -r0
     974:	00010000 	andeq	r0, r1, r0
     978:	00065c51 	andeq	r5, r6, r1, asr ip
     97c:	00080400 	andeq	r0, r8, r0, lsl #8
     980:	f3000400 	vshl.u8	d0, d0, d0
     984:	009f5101 	addseq	r5, pc, r1, lsl #2
     988:	00000000 	andeq	r0, r0, r0
     98c:	02000000 	andeq	r0, r0, #0, 0
     990:	58000000 	stmdapl	r0, {}	; <UNPREDICTABLE>
     994:	5c000006 	stcpl	0, cr0, [r0], {6}
     998:	02000006 	andeq	r0, r0, #6, 0
     99c:	5c9f3000 	ldcpl	0, cr3, [pc], {0}
     9a0:	04000006 	streq	r0, [r0], #-6
     9a4:	01000008 	tsteq	r0, r8
     9a8:	00005400 	andeq	r5, r0, r0, lsl #8
	...
     9b8:	0000033c 	andeq	r0, r0, ip, lsr r3
     9bc:	00000353 	andeq	r0, r0, r3, asr r3
     9c0:	53500001 	cmppl	r0, #1, 0
     9c4:	ac000003 	stcge	0, cr0, [r0], {3}
     9c8:	01000004 	tsteq	r0, r4
     9cc:	04ac5600 	strteq	r5, [ip], #1536	; 0x600
     9d0:	04d80000 	ldrbeq	r0, [r8], #0
     9d4:	00040000 	andeq	r0, r4, r0
     9d8:	9f5001f3 	svcls	0x005001f3
	...
     9ec:	033c0000 	teqeq	ip, #0, 0
     9f0:	03530000 	cmpeq	r3, #0, 0
     9f4:	00010000 	andeq	r0, r1, r0
     9f8:	00035351 	andeq	r5, r3, r1, asr r3
     9fc:	0003e400 	andeq	lr, r3, r0, lsl #8
     a00:	55000100 	strpl	r0, [r0, #-256]	; 0xffffff00
     a04:	000003e4 	andeq	r0, r0, r4, ror #7
     a08:	0000044c 	andeq	r0, r0, ip, asr #8
     a0c:	01f30004 	mvnseq	r0, r4
     a10:	044c9f51 	strbeq	r9, [ip], #-3921	; 0xfffff0af
     a14:	048c0000 	streq	r0, [ip], #0
     a18:	00010000 	andeq	r0, r1, r0
     a1c:	00048c55 	andeq	r8, r4, r5, asr ip
     a20:	0004d800 	andeq	sp, r4, r0, lsl #16
     a24:	f3000400 	vshl.u8	d0, d0, d0
     a28:	009f5101 	addseq	r5, pc, r1, lsl #2
	...
     a38:	00033c00 	andeq	r3, r3, r0, lsl #24
     a3c:	00035300 	andeq	r5, r3, r0, lsl #6
     a40:	52000100 	andpl	r0, r0, #0
     a44:	00000353 	andeq	r0, r0, r3, asr r3
     a48:	000004ac 	andeq	r0, r0, ip, lsr #9
     a4c:	ac540001 	mrrcge	0, 0, r0, r4, cr1
     a50:	d8000004 	stmdale	r0, {r2}
     a54:	04000004 	streq	r0, [r0], #-4
     a58:	5201f300 	andpl	pc, r1, #0, 6
     a5c:	0000009f 	muleq	r0, pc, r0	; <UNPREDICTABLE>
     a60:	00000000 	andeq	r0, r0, r0
     a64:	f4000000 	vst4.8	{d0-d3}, [r0], r0
     a68:	f8000003 			; <UNDEFINED> instruction: 0xf8000003
     a6c:	01000003 	tsteq	r0, r3
     a70:	00005300 	andeq	r5, r0, r0, lsl #6
	...
     a7c:	05900000 	ldreq	r0, [r0]
     a80:	05a70000 	streq	r0, [r7, #0]!
     a84:	00010000 	andeq	r0, r1, r0
     a88:	0005a750 	andeq	sl, r5, r0, asr r7
     a8c:	00064c00 	andeq	r4, r6, r0, lsl #24
     a90:	f3000400 	vshl.u8	d0, d0, d0
     a94:	009f5001 	addseq	r5, pc, r1
	...
     aa0:	90000000 	andls	r0, r0, r0
     aa4:	a4000005 	strge	r0, [r0], #-5
     aa8:	01000005 	tsteq	r0, r5
     aac:	05a45100 	streq	r5, [r4, #256]!	; 0x100
     ab0:	064c0000 	strbeq	r0, [ip], -r0
     ab4:	00010000 	andeq	r0, r1, r0
     ab8:	00000055 	andeq	r0, r0, r5, asr r0
	...
     ac4:	00059000 	andeq	r9, r5, r0
     ac8:	0005a000 	andeq	sl, r5, r0
     acc:	52000100 	andpl	r0, r0, #0
     ad0:	000005a0 	andeq	r0, r0, r0, lsr #11
     ad4:	0000064c 	andeq	r0, r0, ip, asr #12
     ad8:	00540001 	subseq	r0, r4, r1
     adc:	00000000 	andeq	r0, r0, r0
     ae0:	02000000 	andeq	r0, r0, #0, 0
     ae4:	00000000 	andeq	r0, r0, r0
     ae8:	a8000000 	stmdage	r0, {}	; <UNPREDICTABLE>
     aec:	b0000005 	andlt	r0, r0, r5
     af0:	02000005 	andeq	r0, r0, #5, 0
     af4:	b09f3000 	addslt	r3, pc, r0
     af8:	b8000005 	stmdalt	r0, {r0, r2}
     afc:	01000005 	tsteq	r0, r5
     b00:	05c85200 	strbeq	r5, [r8, #512]	; 0x200
     b04:	06180000 	ldreq	r0, [r8], -r0
     b08:	00010000 	andeq	r0, r1, r0
     b0c:	00062852 	andeq	r2, r6, r2, asr r8
     b10:	00062b00 	andeq	r2, r6, r0, lsl #22
     b14:	52000100 	andpl	r0, r0, #0
	...
     b24:	000004d8 	ldrdeq	r0, [r0], -r8
     b28:	000004ef 	andeq	r0, r0, pc, ror #9
     b2c:	ef500001 	svc	0x00500001
     b30:	90000004 	andls	r0, r0, r4
     b34:	04000005 	streq	r0, [r0], #-5
     b38:	5001f300 	andpl	pc, r1, r0, lsl #6
     b3c:	0000009f 	muleq	r0, pc, r0	; <UNPREDICTABLE>
	...
     b48:	0004d800 	andeq	sp, r4, r0, lsl #16
     b4c:	0004ec00 	andeq	lr, r4, r0, lsl #24
     b50:	51000100 	mrspl	r0, (UNDEF: 16)
     b54:	000004ec 	andeq	r0, r0, ip, ror #9
     b58:	00000590 	muleq	r0, r0, r5
     b5c:	00550001 	subseq	r0, r5, r1
	...
     b68:	d8000000 	stmdale	r0, {}	; <UNPREDICTABLE>
     b6c:	e8000004 	stmda	r0, {r2}
     b70:	01000004 	tsteq	r0, r4
     b74:	04e85200 	strbteq	r5, [r8], #512	; 0x200
     b78:	05900000 	ldreq	r0, [r0]
     b7c:	00010000 	andeq	r0, r1, r0
     b80:	00000054 	andeq	r0, r0, r4, asr r0
     b84:	00000000 	andeq	r0, r0, r0
     b88:	00000200 	andeq	r0, r0, r0, lsl #4
     b8c:	00000000 	andeq	r0, r0, r0
     b90:	0004f000 	andeq	pc, r4, r0
     b94:	0004f800 	andeq	pc, r4, r0, lsl #16
     b98:	30000200 	andcc	r0, r0, r0, lsl #4
     b9c:	0004f89f 	muleq	r4, pc, r8	; <UNPREDICTABLE>
     ba0:	00050000 	andeq	r0, r5, r0
     ba4:	52000100 	andpl	r0, r0, #0
     ba8:	00000510 	andeq	r0, r0, r0, lsl r5
     bac:	00000560 	andeq	r0, r0, r0, ror #10
     bb0:	70520001 	subsvc	r0, r2, r1
     bb4:	73000005 	movwvc	r0, #5
     bb8:	01000005 	tsteq	r0, r5
     bbc:	00005200 	andeq	r5, r0, r0, lsl #4
	...
     bcc:	00000168 	andeq	r0, r0, r8, ror #2
     bd0:	0000017f 	andeq	r0, r0, pc, ror r1
     bd4:	7f500001 	svcvc	0x00500001
     bd8:	08000001 	stmdaeq	r0, {r0}
     bdc:	01000003 	tsteq	r0, r3
     be0:	03085600 	movweq	r5, #34304	; 0x8600
     be4:	033c0000 	teqeq	ip, #0, 0
     be8:	00040000 	andeq	r0, r4, r0
     bec:	9f5001f3 	svcls	0x005001f3
	...
     c00:	01680000 	cmneq	r8, r0
     c04:	017f0000 	cmneq	pc, r0
     c08:	00010000 	andeq	r0, r1, r0
     c0c:	00017f51 	andeq	r7, r1, r1, asr pc
     c10:	00022000 	andeq	r2, r2, r0
     c14:	55000100 	strpl	r0, [r0, #-256]	; 0xffffff00
     c18:	00000220 	andeq	r0, r0, r0, lsr #4
     c1c:	00000288 	andeq	r0, r0, r8, lsl #5
     c20:	01f30004 	mvnseq	r0, r4
     c24:	02889f51 	addeq	r9, r8, #324	; 0x144
     c28:	02e80000 	rsceq	r0, r8, #0, 0
     c2c:	00010000 	andeq	r0, r1, r0
     c30:	0002e855 	andeq	lr, r2, r5, asr r8
     c34:	00033c00 	andeq	r3, r3, r0, lsl #24
     c38:	f3000400 	vshl.u8	d0, d0, d0
     c3c:	009f5101 	addseq	r5, pc, r1, lsl #2
	...
     c4c:	00016800 	andeq	r6, r1, r0, lsl #16
     c50:	00017f00 	andeq	r7, r1, r0, lsl #30
     c54:	52000100 	andpl	r0, r0, #0
     c58:	0000017f 	andeq	r0, r0, pc, ror r1
     c5c:	00000308 	andeq	r0, r0, r8, lsl #6
     c60:	08540001 	ldmdaeq	r4, {r0}^
     c64:	3c000003 	stccc	0, cr0, [r0], {3}
     c68:	04000003 	streq	r0, [r0], #-3
     c6c:	5201f300 	andpl	pc, r1, #0, 6
     c70:	0000009f 	muleq	r0, pc, r0	; <UNPREDICTABLE>
     c74:	00000000 	andeq	r0, r0, r0
     c78:	30000000 	andcc	r0, r0, r0
     c7c:	34000002 	strcc	r0, [r0], #-2
     c80:	01000002 	tsteq	r0, r2
     c84:	00005300 	andeq	r5, r0, r0, lsl #6
	...
     c90:	01200000 			; <UNDEFINED> instruction: 0x01200000
     c94:	01270000 			; <UNDEFINED> instruction: 0x01270000
     c98:	00010000 	andeq	r0, r1, r0
     c9c:	00012750 	andeq	r2, r1, r0, asr r7
     ca0:	00013000 	andeq	r3, r1, r0
     ca4:	f3000400 	vshl.u8	d0, d0, d0
     ca8:	009f5001 	addseq	r5, pc, r1
	...
     cb4:	00001000 	andeq	r1, r0, r0
     cb8:	00001400 	andeq	r1, r0, r0, lsl #8
     cbc:	50000100 	andpl	r0, r0, r0, lsl #2
	...
     ccc:	00000158 	andeq	r0, r0, r8, asr r1
     cd0:	0000015f 	andeq	r0, r0, pc, asr r1
     cd4:	5f500001 	svcpl	0x00500001
     cd8:	68000001 	stmdavs	r0, {r0}
     cdc:	04000001 	streq	r0, [r0], #-1
     ce0:	5001f300 	andpl	pc, r1, r0, lsl #6
     ce4:	0000009f 	muleq	r0, pc, r0	; <UNPREDICTABLE>
	...
     cf0:	00000001 	andeq	r0, r0, r1
     cf4:	00000400 	andeq	r0, r0, r0, lsl #8
     cf8:	50000100 	andpl	r0, r0, r0, lsl #2
     cfc:	0000000c 	andeq	r0, r0, ip
     d00:	0000000c 	andeq	r0, r0, ip
     d04:	00500001 	subseq	r0, r0, r1
	...
     d14:	00017000 	andeq	r7, r1, r0
     d18:	00017c00 	andeq	r7, r1, r0, lsl #24
     d1c:	50000100 	andpl	r0, r0, r0, lsl #2
     d20:	0000017c 	andeq	r0, r0, ip, ror r1
     d24:	00000188 	andeq	r0, r0, r8, lsl #3
     d28:	88540001 	ldmdahi	r4, {r0}^
     d2c:	98000001 	stmdals	r0, {r0}
     d30:	04000001 	streq	r0, [r0], #-1
     d34:	5001f300 	andpl	pc, r1, r0, lsl #6
     d38:	0000009f 	muleq	r0, pc, r0	; <UNPREDICTABLE>
	...
     d48:	78000000 	stmdavc	r0, {}	; <UNPREDICTABLE>
     d4c:	7c000001 	stcvc	0, cr0, [r0], {1}
     d50:	0b000001 	bleq	d5c <__code_start__-0x72a4>
     d54:	35007000 	strcc	r7, [r0, #-0]
     d58:	80b42325 	adcshi	r2, r4, r5, lsr #6
     d5c:	9f028180 	svcls	0x00028180
     d60:	0000017c 	andeq	r0, r0, ip, ror r1
     d64:	00000180 	andeq	r0, r0, r0, lsl #3
     d68:	0074000b 	rsbseq	r0, r4, fp
     d6c:	b4232535 	strtlt	r2, [r3], #-1333	; 0xfffffacb
     d70:	02818080 	addeq	r8, r1, #128, 0	; 0x80
     d74:	0001809f 	muleq	r1, pc, r0	; <UNPREDICTABLE>
     d78:	00018300 	andeq	r8, r1, r0, lsl #6
     d7c:	50000100 	andpl	r0, r0, r0, lsl #2
     d80:	00000183 	andeq	r0, r0, r3, lsl #3
     d84:	00000188 	andeq	r0, r0, r8, lsl #3
     d88:	0074000b 	rsbseq	r0, r4, fp
     d8c:	b4232535 	strtlt	r2, [r3], #-1333	; 0xfffffacb
     d90:	02818080 	addeq	r8, r1, #128, 0	; 0x80
     d94:	0001889f 	muleq	r1, pc, r8	; <UNPREDICTABLE>
     d98:	00019800 	andeq	r9, r1, r0, lsl #16
     d9c:	f3000c00 			; <UNDEFINED> instruction: 0xf3000c00
     da0:	25355001 	ldrcs	r5, [r5, #-1]!
     da4:	8080b423 	addhi	fp, r0, r3, lsr #8
     da8:	009f0281 	addseq	r0, pc, r1, lsl #5
     dac:	00000000 	andeq	r0, r0, r0
     db0:	01000000 	mrseq	r0, (UNDEF: 0)
     db4:	00000000 	andeq	r0, r0, r0
     db8:	00017800 	andeq	r7, r1, r0, lsl #16
     dbc:	00017c00 	andeq	r7, r1, r0, lsl #24
     dc0:	70000500 	andvc	r0, r0, r0, lsl #10
     dc4:	9f1a4f00 	svcls	0x001a4f00
     dc8:	0000017c 	andeq	r0, r0, ip, ror r1
     dcc:	00000188 	andeq	r0, r0, r8, lsl #3
     dd0:	00740005 	rsbseq	r0, r4, r5
     dd4:	889f1a4f 	ldmhi	pc, {r0, r1, r2, r3, r6, r9, fp, ip}	; <UNPREDICTABLE>
     dd8:	98000001 	stmdals	r0, {r0}
     ddc:	01000001 	tsteq	r0, r1
     de0:	00005400 	andeq	r5, r0, r0, lsl #8
	...
     df4:	01400000 	mrseq	r0, (UNDEF: 64)
     df8:	01540000 	cmpeq	r4, r0
     dfc:	00010000 	andeq	r0, r1, r0
     e00:	00015450 	andeq	r5, r1, r0, asr r4
     e04:	00015800 	andeq	r5, r1, r0, lsl #16
     e08:	51000100 	mrspl	r0, (UNDEF: 16)
     e0c:	00000158 	andeq	r0, r0, r8, asr r1
     e10:	0000015c 	andeq	r0, r0, ip, asr r1
     e14:	01f30004 	mvnseq	r0, r4
     e18:	015c9f50 	cmpeq	ip, r0, asr pc
     e1c:	01600000 	cmneq	r0, r0
     e20:	00010000 	andeq	r0, r1, r0
     e24:	00016050 	andeq	r6, r1, r0, asr r0
     e28:	00016400 	andeq	r6, r1, r0, lsl #8
     e2c:	51000100 	mrspl	r0, (UNDEF: 16)
     e30:	00000164 	andeq	r0, r0, r4, ror #2
     e34:	00000170 	andeq	r0, r0, r0, ror r1
     e38:	01f30004 	mvnseq	r0, r4
     e3c:	00009f50 	andeq	r9, r0, r0, asr pc
	...
     e48:	01400000 	mrseq	r0, (UNDEF: 64)
     e4c:	014c0000 	mrseq	r0, (UNDEF: 76)
     e50:	00010000 	andeq	r0, r1, r0
     e54:	00014c51 	andeq	r4, r1, r1, asr ip
     e58:	00017000 	andeq	r7, r1, r0
     e5c:	f3000400 	vshl.u8	d0, d0, d0
     e60:	009f5101 	addseq	r5, pc, r1, lsl #2
     e64:	00000000 	andeq	r0, r0, r0
     e68:	01000000 	mrseq	r0, (UNDEF: 0)
     e6c:	00000000 	andeq	r0, r0, r0
     e70:	00015000 	andeq	r5, r1, r0
     e74:	00015400 	andeq	r5, r1, r0, lsl #8
     e78:	50000100 	andpl	r0, r0, r0, lsl #2
     e7c:	00000154 	andeq	r0, r0, r4, asr r1
     e80:	00000158 	andeq	r0, r0, r8, asr r1
     e84:	58510001 	ldmdapl	r1, {r0}^
     e88:	5c000001 	stcpl	0, cr0, [r0], {1}
     e8c:	04000001 	streq	r0, [r0], #-1
     e90:	5001f300 	andpl	pc, r1, r0, lsl #6
     e94:	0000009f 	muleq	r0, pc, r0	; <UNPREDICTABLE>
     e98:	00000000 	andeq	r0, r0, r0
     e9c:	00000200 	andeq	r0, r0, r0, lsl #4
     ea0:	5c000000 	stcpl	0, cr0, [r0], {-0}
     ea4:	60000001 	andvs	r0, r0, r1
     ea8:	01000001 	tsteq	r0, r1
     eac:	01605000 	cmneq	r0, r0
     eb0:	01640000 	cmneq	r4, r0
     eb4:	00010000 	andeq	r0, r1, r0
     eb8:	00016451 	andeq	r6, r1, r1, asr r4
     ebc:	00017000 	andeq	r7, r1, r0
     ec0:	f3000400 	vshl.u8	d0, d0, d0
     ec4:	009f5001 	addseq	r5, pc, r1
	...
     ed4:	0000e800 	andeq	lr, r0, r0, lsl #16
     ed8:	00010800 	andeq	r0, r1, r0, lsl #16
     edc:	50000100 	andpl	r0, r0, r0, lsl #2
     ee0:	00000108 	andeq	r0, r0, r8, lsl #2
     ee4:	00000128 	andeq	r0, r0, r8, lsr #2
     ee8:	28540001 	ldmdacs	r4, {r0}^
     eec:	40000001 	andmi	r0, r0, r1
     ef0:	04000001 	streq	r0, [r0], #-1
     ef4:	5001f300 	andpl	pc, r1, r0, lsl #6
     ef8:	0000009f 	muleq	r0, pc, r0	; <UNPREDICTABLE>
     efc:	00000000 	andeq	r0, r0, r0
     f00:	00000200 	andeq	r0, r0, r0, lsl #4
     f04:	e8000000 	stmda	r0, {}	; <UNPREDICTABLE>
     f08:	08000000 	stmdaeq	r0, {}	; <UNPREDICTABLE>
     f0c:	01000001 	tsteq	r0, r1
     f10:	01085000 	mrseq	r5, (UNDEF: 8)
     f14:	01280000 			; <UNDEFINED> instruction: 0x01280000
     f18:	00010000 	andeq	r0, r1, r0
     f1c:	00012854 	andeq	r2, r1, r4, asr r8
     f20:	00014000 	andeq	r4, r1, r0
     f24:	f3000400 	vshl.u8	d0, d0, d0
     f28:	009f5001 	addseq	r5, pc, r1
	...
     f38:	0000f000 	andeq	pc, r0, r0
     f3c:	00010800 	andeq	r0, r1, r0, lsl #16
     f40:	50000100 	andpl	r0, r0, r0, lsl #2
     f44:	00000108 	andeq	r0, r0, r8, lsl #2
     f48:	00000128 	andeq	r0, r0, r8, lsr #2
     f4c:	28540001 	ldmdacs	r4, {r0}^
     f50:	40000001 	andmi	r0, r0, r1
     f54:	04000001 	streq	r0, [r0], #-1
     f58:	5001f300 	andpl	pc, r1, r0, lsl #6
     f5c:	0000009f 	muleq	r0, pc, r0	; <UNPREDICTABLE>
     f60:	00000000 	andeq	r0, r0, r0
     f64:	00000300 	andeq	r0, r0, r0, lsl #6
     f68:	f0000000 			; <UNDEFINED> instruction: 0xf0000000
     f6c:	08000000 	stmdaeq	r0, {}	; <UNPREDICTABLE>
     f70:	07000001 	streq	r0, [r0, -r1]
     f74:	3a007000 	bcc	1cf7c <__bss_end__+0x123cc>
     f78:	9f1e331d 	svcls	0x001e331d
     f7c:	00000108 	andeq	r0, r0, r8, lsl #2
     f80:	00000128 	andeq	r0, r0, r8, lsr #2
     f84:	00740007 	rsbseq	r0, r4, r7
     f88:	1e331d3a 	mrcne	13, 1, r1, cr3, cr10, {1}
     f8c:	0001289f 	muleq	r1, pc, r8	; <UNPREDICTABLE>
     f90:	00014000 	andeq	r4, r1, r0
     f94:	f3000800 	vsub.i8	d0, d0, d0
     f98:	1d3a5001 	ldcne	0, cr5, [sl, #-4]!
     f9c:	009f1e33 	addseq	r1, pc, r3, lsr lr	; <UNPREDICTABLE>
	...
     fac:	00011000 	andeq	r1, r1, r0
     fb0:	00013800 	andeq	r3, r1, r0, lsl #16
     fb4:	56000100 	strpl	r0, [r0], -r0, lsl #2
     fb8:	00000138 	andeq	r0, r0, r8, lsr r1
     fbc:	0000013b 	andeq	r0, r0, fp, lsr r1
     fc0:	3b500001 	blcc	1400fcc <__bss_end__+0x13f641c>
     fc4:	40000001 	andmi	r0, r0, r1
     fc8:	26000001 	strcs	r0, [r0], -r1
     fcc:	5001f300 	andpl	pc, r1, r0, lsl #6
     fd0:	25f72cf7 	ldrbcs	r2, [r7, #3319]!	; 0xcf7
     fd4:	cd0825f4 	cfstr32gt	mvfx2, [r8, #-976]	; 0xfffffc30
     fd8:	00cccccc 	sbceq	ip, ip, ip, asr #25
     fdc:	1e000000 	cdpne	0, 0, cr0, cr0, cr0, {0}
     fe0:	25f72008 	ldrbcs	r2, [r7, #8]!
     fe4:	f72cf725 			; <UNDEFINED> instruction: 0xf72cf725
     fe8:	23253300 			; <UNDEFINED> instruction: 0x23253300
     fec:	40a08080 	adcmi	r8, r0, r0, lsl #1
     ff0:	009f2432 	addseq	r2, pc, r2, lsr r4	; <UNPREDICTABLE>
	...
     ffc:	00000101 	andeq	r0, r0, r1, lsl #2
    1000:	20000000 	andcs	r0, r0, r0
    1004:	20000001 	andcs	r0, r0, r1
    1008:	01000001 	tsteq	r0, r1
    100c:	01205000 			; <UNDEFINED> instruction: 0x01205000
    1010:	01280000 			; <UNDEFINED> instruction: 0x01280000
    1014:	000d0000 	andeq	r0, sp, r0
    1018:	3a007437 	bcc	1e0fc <__bss_end__+0x1354c>
    101c:	241e331d 	ldrcs	r3, [lr], #-797	; 0xfffffce3
    1020:	1a007020 	bne	1d0a8 <__bss_end__+0x124f8>
    1024:	0001289f 	muleq	r1, pc, r8	; <UNPREDICTABLE>
    1028:	00013000 	andeq	r3, r1, r0
    102c:	37000e00 	strcc	r0, [r0, -r0, lsl #28]
    1030:	3a5001f3 	bcc	1401804 <__bss_end__+0x13f6c54>
    1034:	241e331d 	ldrcs	r3, [lr], #-797	; 0xfffffce3
    1038:	1a007020 	bne	1d0c0 <__bss_end__+0x12510>
    103c:	0001309f 	muleq	r1, pc, r0	; <UNPREDICTABLE>
    1040:	00013b00 	andeq	r3, r1, r0, lsl #22
    1044:	37000e00 	strcc	r0, [r0, -r0, lsl #28]
    1048:	3a5001f3 	bcc	140181c <__bss_end__+0x13f6c6c>
    104c:	241e331d 	ldrcs	r3, [lr], #-797	; 0xfffffce3
    1050:	1a007320 	bne	1dcd8 <__bss_end__+0x13128>
    1054:	0000009f 	muleq	r0, pc, r0	; <UNPREDICTABLE>
	...
    1060:	00006000 	andeq	r6, r0, r0
    1064:	00009000 	andeq	r9, r0, r0
    1068:	50000100 	andpl	r0, r0, r0, lsl #2
    106c:	00000090 	muleq	r0, r0, r0
    1070:	000000b8 	strheq	r0, [r0], -r8
    1074:	01f30004 	mvnseq	r0, r4
    1078:	00009f50 	andeq	r9, r0, r0, asr pc
    107c:	00000000 	andeq	r0, r0, r0
    1080:	00020000 	andeq	r0, r2, r0
    1084:	00600000 	rsbeq	r0, r0, r0
    1088:	00900000 	addseq	r0, r0, r0
    108c:	00010000 	andeq	r0, r1, r0
    1090:	00009050 	andeq	r9, r0, r0, asr r0
    1094:	0000b800 	andeq	fp, r0, r0, lsl #16
    1098:	f3000400 	vshl.u8	d0, d0, d0
    109c:	009f5001 	addseq	r5, pc, r1
	...
    10a8:	68000000 	stmdavs	r0, {}	; <UNPREDICTABLE>
    10ac:	90000000 	andls	r0, r0, r0
    10b0:	01000000 	mrseq	r0, (UNDEF: 0)
    10b4:	00905000 	addseq	r5, r0, r0
    10b8:	00b80000 	adcseq	r0, r8, r0
    10bc:	00040000 	andeq	r0, r4, r0
    10c0:	9f5001f3 	svcls	0x005001f3
	...
    10d0:	000000a0 	andeq	r0, r0, r0, lsr #1
    10d4:	000000b0 	strheq	r0, [r0], -r0	; <UNPREDICTABLE>
    10d8:	b0540001 	subslt	r0, r4, r1
    10dc:	b8000000 	stmdalt	r0, {}	; <UNPREDICTABLE>
    10e0:	29000000 	stmdbcs	r0, {}	; <UNPREDICTABLE>
    10e4:	5001f300 	andpl	pc, r1, r0, lsl #6
    10e8:	f75001f3 			; <UNDEFINED> instruction: 0xf75001f3
    10ec:	f425f72c 	vld1.8	{d15}, [r5 :128], ip
    10f0:	cccd0825 	stclgt	8, cr0, [sp], {37}	; 0x25
    10f4:	0000cccc 	andeq	ip, r0, ip, asr #25
    10f8:	081e0000 	ldmdaeq	lr, {}	; <UNPREDICTABLE>
    10fc:	2525f720 	strcs	pc, [r5, #-1824]!	; 0xfffff8e0
    1100:	00f72cf7 	ldrshteq	r2, [r7], #199	; 0xc7
    1104:	1e352533 	mrcne	5, 1, r2, cr5, cr3, {1}
    1108:	331c2431 	tstcc	ip, #822083584	; 0x31000000
    110c:	00009f1e 	andeq	r9, r0, lr, lsl pc
    1110:	00000000 	andeq	r0, r0, r0
    1114:	00010000 	andeq	r0, r1, r0
    1118:	00000000 	andeq	r0, r0, r0
    111c:	000000a0 	andeq	r0, r0, r0, lsr #1
    1120:	000000b0 	strheq	r0, [r0], -r0	; <UNPREDICTABLE>
    1124:	b0550001 	subslt	r0, r5, r1
    1128:	b3000000 	movwlt	r0, #0
    112c:	01000000 	mrseq	r0, (UNDEF: 0)
    1130:	00b35000 	adcseq	r5, r3, r0
    1134:	00b80000 	adcseq	r0, r8, r0
    1138:	00260000 	eoreq	r0, r6, r0
    113c:	f75001f3 			; <UNDEFINED> instruction: 0xf75001f3
    1140:	f425f72c 	vld1.8	{d15}, [r5 :128], ip
    1144:	cccd0825 	stclgt	8, cr0, [sp], {37}	; 0x25
    1148:	0000cccc 	andeq	ip, r0, ip, asr #25
    114c:	081e0000 	ldmdaeq	lr, {}	; <UNPREDICTABLE>
    1150:	2525f720 	strcs	pc, [r5, #-1824]!	; 0xfffff8e0
    1154:	00f72cf7 	ldrshteq	r2, [r7], #199	; 0xc7
    1158:	80232533 	eorhi	r2, r3, r3, lsr r5
    115c:	3240a080 	subcc	sl, r0, #128, 0	; 0x80
    1160:	00009f24 	andeq	r9, r0, r4, lsr #30
    1164:	00000000 	andeq	r0, r0, r0
    1168:	00020000 	andeq	r0, r2, r0
    116c:	00010100 	andeq	r0, r1, r0, lsl #2
    1170:	00a00000 	adceq	r0, r0, r0
    1174:	00a40000 	adceq	r0, r4, r0
    1178:	00010000 	andeq	r0, r1, r0
    117c:	0000a450 	andeq	sl, r0, r0, asr r4
    1180:	0000a400 	andeq	sl, r0, r0, lsl #8
    1184:	53000100 	movwpl	r0, #256	; 0x100
    1188:	000000a4 	andeq	r0, r0, r4, lsr #1
    118c:	000000a8 	andeq	r0, r0, r8, lsr #1
    1190:	74310008 	ldrtvc	r0, [r1], #-8
    1194:	00732400 	rsbseq	r2, r3, r0, lsl #8
    1198:	00a89f21 	adceq	r9, r8, r1, lsr #30
    119c:	00b30000 	adcseq	r0, r3, r0
    11a0:	00010000 	andeq	r0, r1, r0
    11a4:	00000051 	andeq	r0, r0, r1, asr r0
	...
    11b4:	00003c00 	andeq	r3, r0, r0, lsl #24
    11b8:	50000100 	andpl	r0, r0, r0, lsl #2
    11bc:	0000003c 	andeq	r0, r0, ip, lsr r0
    11c0:	00000060 	andeq	r0, r0, r0, rrx
    11c4:	01f30004 	mvnseq	r0, r4
    11c8:	00009f50 	andeq	r9, r0, r0, asr pc
	...
    11d8:	003f0000 	eorseq	r0, pc, r0
    11dc:	00010000 	andeq	r0, r1, r0
    11e0:	00003f51 	andeq	r3, r0, r1, asr pc
    11e4:	00006000 	andeq	r6, r0, r0
    11e8:	f3000400 	vshl.u8	d0, d0, d0
    11ec:	009f5101 	addseq	r5, pc, r1, lsl #2
	...
    11f8:	08000000 	stmdaeq	r0, {}	; <UNPREDICTABLE>
    11fc:	3f000000 	svccc	0x00000000
    1200:	01000000 	mrseq	r0, (UNDEF: 0)
    1204:	003f5100 	eorseq	r5, pc, r0, lsl #2
    1208:	00600000 	rsbeq	r0, r0, r0
    120c:	00040000 	andeq	r0, r4, r0
    1210:	9f5101f3 	svcls	0x005101f3
	...
    1220:	00000008 	andeq	r0, r0, r8
    1224:	0000003c 	andeq	r0, r0, ip, lsr r0
    1228:	3c500001 	mrrccc	0, 0, r0, r0, cr1	; <UNPREDICTABLE>
    122c:	60000000 	andvs	r0, r0, r0
    1230:	04000000 	streq	r0, [r0], #-0
    1234:	5001f300 	andpl	pc, r1, r0, lsl #6
    1238:	0000009f 	muleq	r0, pc, r0	; <UNPREDICTABLE>
	...
    1244:	00004800 	andeq	r4, r0, r0, lsl #16
    1248:	00005800 	andeq	r5, r0, r0, lsl #16
    124c:	54000100 	strpl	r0, [r0], #-256	; 0xffffff00
    1250:	00000058 	andeq	r0, r0, r8, asr r0
    1254:	00000060 	andeq	r0, r0, r0, rrx
    1258:	01f30029 	mvnseq	r0, r9, lsr #32
    125c:	5001f350 	andpl	pc, r1, r0, asr r3	; <UNPREDICTABLE>
    1260:	25f72cf7 	ldrbcs	r2, [r7, #3319]!	; 0xcf7
    1264:	cd0825f4 	cfstr32gt	mvfx2, [r8, #-976]	; 0xfffffc30
    1268:	00cccccc 	sbceq	ip, ip, ip, asr #25
    126c:	1e000000 	cdpne	0, 0, cr0, cr0, cr0, {0}
    1270:	25f72008 	ldrbcs	r2, [r7, #8]!
    1274:	f72cf725 			; <UNDEFINED> instruction: 0xf72cf725
    1278:	35253300 	strcc	r3, [r5, #-768]!	; 0xfffffd00
    127c:	1c24311e 	stfnes	f3, [r4], #-120	; 0xffffff88
    1280:	009f1e33 	addseq	r1, pc, r3, lsr lr	; <UNPREDICTABLE>
    1284:	00000000 	andeq	r0, r0, r0
    1288:	01000000 	mrseq	r0, (UNDEF: 0)
    128c:	00000000 	andeq	r0, r0, r0
    1290:	00004800 	andeq	r4, r0, r0, lsl #16
    1294:	00005800 	andeq	r5, r0, r0, lsl #16
    1298:	56000100 	strpl	r0, [r0], -r0, lsl #2
    129c:	00000058 	andeq	r0, r0, r8, asr r0
    12a0:	0000005b 	andeq	r0, r0, fp, asr r0
    12a4:	5b500001 	blpl	14012b0 <__bss_end__+0x13f6700>
    12a8:	60000000 	andvs	r0, r0, r0
    12ac:	26000000 	strcs	r0, [r0], -r0
    12b0:	5001f300 	andpl	pc, r1, r0, lsl #6
    12b4:	25f72cf7 	ldrbcs	r2, [r7, #3319]!	; 0xcf7
    12b8:	cd0825f4 	cfstr32gt	mvfx2, [r8, #-976]	; 0xfffffc30
    12bc:	00cccccc 	sbceq	ip, ip, ip, asr #25
    12c0:	1e000000 	cdpne	0, 0, cr0, cr0, cr0, {0}
    12c4:	25f72008 	ldrbcs	r2, [r7, #8]!
    12c8:	f72cf725 			; <UNDEFINED> instruction: 0xf72cf725
    12cc:	23253300 			; <UNDEFINED> instruction: 0x23253300
    12d0:	40a08080 	adcmi	r8, r0, r0, lsl #1
    12d4:	009f2432 	addseq	r2, pc, r2, lsr r4	; <UNPREDICTABLE>
    12d8:	00000000 	andeq	r0, r0, r0
    12dc:	02000000 	andeq	r0, r0, #0, 0
    12e0:	01010000 	mrseq	r0, (UNDEF: 1)
    12e4:	48000000 	stmdami	r0, {}	; <UNPREDICTABLE>
    12e8:	4c000000 	stcmi	0, cr0, [r0], {-0}
    12ec:	01000000 	mrseq	r0, (UNDEF: 0)
    12f0:	004c5000 	subeq	r5, ip, r0
    12f4:	004c0000 	subeq	r0, ip, r0
    12f8:	00010000 	andeq	r0, r1, r0
    12fc:	00004c51 	andeq	r4, r0, r1, asr ip
    1300:	00005000 	andeq	r5, r0, r0
    1304:	75000c00 	strvc	r0, [r0, #-3072]	; 0xfffff400
    1308:	1aff0800 	bne	fffc3310 <__bss_end__+0xfffb8760>
    130c:	71240074 			; <UNDEFINED> instruction: 0x71240074
    1310:	509f2100 	addspl	r2, pc, r0, lsl #2
    1314:	54000000 	strpl	r0, [r0], #-0
    1318:	12000000 	andne	r0, r0, #0, 0
    131c:	00743700 	rsbseq	r3, r4, r0, lsl #14
    1320:	00702024 	rsbseq	r2, r0, r4, lsr #32
    1324:	0800751a 	stmdaeq	r0, {r1, r3, r4, r8, sl, ip, sp, lr}
    1328:	00741aff 	ldrshteq	r1, [r4], #-175	; 0xffffff51
    132c:	009f2124 	addseq	r2, pc, r4, lsr #2
	...
    133c:	0000b800 	andeq	fp, r0, r0, lsl #16
    1340:	0000c400 	andeq	ip, r0, r0, lsl #8
    1344:	50000100 	andpl	r0, r0, r0, lsl #2
    1348:	000000c4 	andeq	r0, r0, r4, asr #1
    134c:	000000cb 	andeq	r0, r0, fp, asr #1
    1350:	cb530001 	blgt	14c135c <__bss_end__+0x14b67ac>
    1354:	d0000000 	andle	r0, r0, r0
    1358:	04000000 	streq	r0, [r0], #-0
    135c:	5001f300 	andpl	pc, r1, r0, lsl #6
    1360:	0000009f 	muleq	r0, pc, r0	; <UNPREDICTABLE>
	...
    136c:	d0000000 	andle	r0, r0, r0
    1370:	dc000000 	stcle	0, cr0, [r0], {-0}
    1374:	01000000 	mrseq	r0, (UNDEF: 0)
    1378:	00dc5000 	sbcseq	r5, ip, r0
    137c:	00e30000 	rsceq	r0, r3, r0
    1380:	00010000 	andeq	r0, r1, r0
    1384:	0000e353 	andeq	lr, r0, r3, asr r3
    1388:	0000e800 	andeq	lr, r0, r0, lsl #16
    138c:	f3000400 	vshl.u8	d0, d0, d0
    1390:	009f5001 	addseq	r5, pc, r1
	...
    13a0:	00002c00 	andeq	r2, r0, r0, lsl #24
    13a4:	00003400 	andeq	r3, r0, r0, lsl #8
    13a8:	50000100 	andpl	r0, r0, r0, lsl #2
    13ac:	00000034 	andeq	r0, r0, r4, lsr r0
    13b0:	00000048 	andeq	r0, r0, r8, asr #32
    13b4:	48540001 	ldmdami	r4, {r0}^
    13b8:	58000000 	stmdapl	r0, {}	; <UNPREDICTABLE>
    13bc:	01000000 	mrseq	r0, (UNDEF: 0)
    13c0:	00005000 	andeq	r5, r0, r0
	...
    13cc:	00010100 	andeq	r0, r1, r0, lsl #2
    13d0:	00000000 	andeq	r0, r0, r0
    13d4:	000c0000 	andeq	r0, ip, r0
    13d8:	00010000 	andeq	r0, r1, r0
    13dc:	00000c50 	andeq	r0, r0, r0, asr ip
    13e0:	00002000 	andeq	r2, r0, r0
    13e4:	54000100 	strpl	r0, [r0], #-256	; 0xffffff00
    13e8:	00000020 	andeq	r0, r0, r0, lsr #32
    13ec:	00000024 	andeq	r0, r0, r4, lsr #32
    13f0:	01740003 	cmneq	r4, r3
    13f4:	0000249f 	muleq	r0, pc, r4	; <UNPREDICTABLE>
    13f8:	00003800 	andeq	r3, r0, r0, lsl #16
    13fc:	54000100 	strpl	r0, [r0], #-256	; 0xffffff00
	...
    1410:	03880000 	orreq	r0, r8, #0, 0
    1414:	03940000 	orrseq	r0, r4, #0, 0
    1418:	00010000 	andeq	r0, r1, r0
    141c:	00039450 	andeq	r9, r3, r0, asr r4
    1420:	0003d000 	andeq	sp, r3, r0
    1424:	5b000100 	blpl	182c <__code_start__-0x67d4>
    1428:	000003d0 	ldrdeq	r0, [r0], -r0	; <UNPREDICTABLE>
    142c:	00000920 	andeq	r0, r0, r0, lsr #18
    1430:	01f30004 	mvnseq	r0, r4
    1434:	09209f50 	stmdbeq	r0!, {r4, r6, r8, r9, sl, fp, ip, pc}
    1438:	09280000 	stmdbeq	r8!, {}	; <UNPREDICTABLE>
    143c:	00010000 	andeq	r0, r1, r0
    1440:	0009285b 	andeq	r2, r9, fp, asr r8
    1444:	0009b400 	andeq	fp, r9, r0, lsl #8
    1448:	f3000400 	vshl.u8	d0, d0, d0
    144c:	009f5001 	addseq	r5, pc, r1
	...
    145c:	88000000 	stmdahi	r0, {}	; <UNPREDICTABLE>
    1460:	d0000003 	andle	r0, r0, r3
    1464:	01000003 	tsteq	r0, r3
    1468:	03d05100 	bicseq	r5, r0, #0
    146c:	09200000 	stmdbeq	r0!, {}	; <UNPREDICTABLE>
    1470:	00040000 	andeq	r0, r4, r0
    1474:	9f5101f3 	svcls	0x005101f3
    1478:	00000920 	andeq	r0, r0, r0, lsr #18
    147c:	00000928 	andeq	r0, r0, r8, lsr #18
    1480:	28510001 	ldmdacs	r1, {r0}^
    1484:	b4000009 	strlt	r0, [r0], #-9
    1488:	04000009 	streq	r0, [r0], #-9
    148c:	5101f300 	mrspl	pc, SP_irq	; <UNPREDICTABLE>
    1490:	0000009f 	muleq	r0, pc, r0	; <UNPREDICTABLE>
	...
    14a0:	01000001 	tsteq	r0, r1
	...
    14b0:	00038800 	andeq	r8, r3, r0, lsl #16
    14b4:	0003d000 	andeq	sp, r3, r0
    14b8:	52000100 	andpl	r0, r0, #0
    14bc:	000003d0 	ldrdeq	r0, [r0], -r0	; <UNPREDICTABLE>
    14c0:	00000400 	andeq	r0, r0, r0, lsl #8
    14c4:	14560001 	ldrbne	r0, [r6], #-1
    14c8:	24000004 	strcs	r0, [r0], #-4
    14cc:	01000004 	tsteq	r0, r4
    14d0:	04245600 	strteq	r5, [r4], #-1536	; 0xfffffa00
    14d4:	04280000 	strteq	r0, [r8], #-0
    14d8:	00030000 	andeq	r0, r3, r0
    14dc:	a89f7f76 	ldmge	pc, {r1, r2, r4, r5, r6, r8, r9, sl, fp, ip, sp, lr}	; <UNPREDICTABLE>
    14e0:	ac000004 	stcge	0, cr0, [r0], {4}
    14e4:	01000004 	tsteq	r0, r4
    14e8:	04e05600 	strbteq	r5, [r0], #1536	; 0x600
    14ec:	05040000 	streq	r0, [r4, #-0]
    14f0:	00010000 	andeq	r0, r1, r0
    14f4:	00057c56 	andeq	r7, r5, r6, asr ip
    14f8:	00058800 	andeq	r8, r5, r0, lsl #16
    14fc:	53000100 	movwpl	r0, #256	; 0x100
    1500:	00000588 	andeq	r0, r0, r8, lsl #11
    1504:	000005d0 	ldrdeq	r0, [r0], -r0	; <UNPREDICTABLE>
    1508:	cc910003 	ldcgt	0, cr0, [r1], {3}
    150c:	0008007d 	andeq	r0, r8, sp, ror r0
    1510:	00080f00 	andeq	r0, r8, r0, lsl #30
    1514:	53000100 	movwpl	r0, #256	; 0x100
    1518:	0000080f 	andeq	r0, r0, pc, lsl #16
    151c:	00000888 	andeq	r0, r0, r8, lsl #17
    1520:	cc910003 	ldcgt	0, cr0, [r1], {3}
    1524:	0009207d 	andeq	r2, r9, sp, ror r0
    1528:	00092800 	andeq	r2, r9, r0, lsl #16
    152c:	52000100 	andpl	r0, r0, #0
    1530:	00000948 	andeq	r0, r0, r8, asr #18
    1534:	00000964 	andeq	r0, r0, r4, ror #18
    1538:	cc910003 	ldcgt	0, cr0, [r1], {3}
    153c:	0000007d 	andeq	r0, r0, sp, ror r0
	...
    1550:	00000101 	andeq	r0, r0, r1, lsl #2
    1554:	00000101 	andeq	r0, r0, r1, lsl #2
    1558:	02020000 	andeq	r0, r2, #0, 0
    155c:	02020000 	andeq	r0, r2, #0, 0
    1560:	01010000 	mrseq	r0, (UNDEF: 1)
    1564:	02020000 	andeq	r0, r2, #0, 0
    1568:	01010000 	mrseq	r0, (UNDEF: 1)
	...
    1574:	00038800 	andeq	r8, r3, r0, lsl #16
    1578:	0003ac00 	andeq	sl, r3, r0, lsl #24
    157c:	53000100 	movwpl	r0, #256	; 0x100
    1580:	000003ac 	andeq	r0, r0, ip, lsr #7
    1584:	000003c0 	andeq	r0, r0, r0, asr #7
    1588:	93530003 	cmpls	r3, #3, 0
    158c:	0003d004 	andeq	sp, r3, r4
    1590:	0003e800 	andeq	lr, r3, r0, lsl #16
    1594:	58000300 	stmdapl	r0, {r8, r9}
    1598:	03e80493 	mvneq	r0, #-1828716544	; 0x93000000
    159c:	04ac0000 	strteq	r0, [ip], #0
    15a0:	00030000 	andeq	r0, r3, r0
    15a4:	ac049358 	stcge	3, cr9, [r4], {88}	; 0x58
    15a8:	b0000004 	andlt	r0, r0, r4
    15ac:	01000004 	tsteq	r0, r4
    15b0:	04c05300 	strbeq	r5, [r0], #768	; 0x300
    15b4:	04c00000 	strbeq	r0, [r0], #0
    15b8:	00030000 	andeq	r0, r3, r0
    15bc:	c0049358 	andgt	r9, r4, r8, asr r3
    15c0:	cc000004 	stcgt	0, cr0, [r0], {4}
    15c4:	05000004 	streq	r0, [r0, #-4]
    15c8:	9f047800 	svcls	0x00047800
    15cc:	04cc0493 	strbeq	r0, [ip], #1171	; 0x493
    15d0:	04e00000 	strbteq	r0, [r0], #0
    15d4:	00030000 	andeq	r0, r3, r0
    15d8:	e0049358 	and	r9, r4, r8, asr r3
    15dc:	38000004 	stmdacc	r0, {r2}
    15e0:	03000005 	movweq	r0, #5
    15e4:	04935800 	ldreq	r5, [r3], #2048	; 0x800
    15e8:	00000538 	andeq	r0, r0, r8, lsr r5
    15ec:	0000053c 	andeq	r0, r0, ip, lsr r5
    15f0:	79780005 	ldmdbvc	r8!, {r0, r2}^
    15f4:	d004939f 	mulle	r4, pc, r3	; <UNPREDICTABLE>
    15f8:	d0000005 	andle	r0, r0, r5
    15fc:	03000005 	movweq	r0, #5
    1600:	04935800 	ldreq	r5, [r3], #2048	; 0x800
    1604:	000005d0 	ldrdeq	r0, [r0], -r0	; <UNPREDICTABLE>
    1608:	000005d4 	ldrdeq	r0, [r0], -r4
    160c:	04780005 	ldrbteq	r0, [r8], #-5
    1610:	f404939f 	vst2.32	{d9-d12}, [r4 :64]
    1614:	f4000005 	vst4.8	{d0-d3}, [r0], r5
    1618:	03000005 	movweq	r0, #5
    161c:	04935800 	ldreq	r5, [r3], #2048	; 0x800
    1620:	000005f4 	strdeq	r0, [r0], -r4
    1624:	000005fc 	strdeq	r0, [r0], -ip
    1628:	04780005 	ldrbteq	r0, [r8], #-5
    162c:	fc04939f 	stc2	3, cr9, [r4], {159}	; 0x9f
    1630:	fc000005 	stc2	0, cr0, [r0], {5}
    1634:	03000005 	movweq	r0, #5
    1638:	04935800 	ldreq	r5, [r3], #2048	; 0x800
    163c:	000005fc 	strdeq	r0, [r0], -ip
    1640:	00000600 	andeq	r0, r0, r0, lsl #12
    1644:	04780005 	ldrbteq	r0, [r8], #-5
    1648:	0004939f 	muleq	r4, pc, r3	; <UNPREDICTABLE>
    164c:	00000006 	andeq	r0, r0, r6
    1650:	03000007 	movweq	r0, #7
    1654:	04935800 	ldreq	r5, [r3], #2048	; 0x800
    1658:	00000700 	andeq	r0, r0, r0, lsl #14
    165c:	0000070c 	andeq	r0, r0, ip, lsl #14
    1660:	04780005 	ldrbteq	r0, [r8], #-5
    1664:	0c04939f 	stceq	3, cr9, [r4], {159}	; 0x9f
    1668:	f8000007 			; <UNDEFINED> instruction: 0xf8000007
    166c:	03000007 	movweq	r0, #7
    1670:	04935800 	ldreq	r5, [r3], #2048	; 0x800
    1674:	000007f8 	strdeq	r0, [r0], -r8
    1678:	000007fc 	strdeq	r0, [r0], -ip
    167c:	04780005 	ldrbteq	r0, [r8], #-5
    1680:	fc04939f 	stc2	3, cr9, [r4], {159}	; 0x9f
    1684:	00000007 	andeq	r0, r0, r7
    1688:	03000008 	movweq	r0, #8
    168c:	04935800 	ldreq	r5, [r3], #2048	; 0x800
    1690:	00000888 	andeq	r0, r0, r8, lsl #17
    1694:	00000920 	andeq	r0, r0, r0, lsr #18
    1698:	93580003 	cmpls	r8, #3, 0
    169c:	00092004 	andeq	r2, r9, r4
    16a0:	00092800 	andeq	r2, r9, r0, lsl #16
    16a4:	53000300 	movwpl	r0, #768	; 0x300
    16a8:	09640493 	stmdbeq	r4!, {r0, r1, r4, r7, sl}^
    16ac:	09b40000 	ldmibeq	r4!, {}	; <UNPREDICTABLE>
    16b0:	00030000 	andeq	r0, r3, r0
    16b4:	00049358 	andeq	r9, r4, r8, asr r3
    16b8:	00000000 	andeq	r0, r0, r0
    16bc:	01000000 	mrseq	r0, (UNDEF: 0)
	...
    16c8:	00000202 	andeq	r0, r0, r2, lsl #4
    16cc:	01010100 	mrseq	r0, (UNDEF: 17)
    16d0:	00000000 	andeq	r0, r0, r0
    16d4:	0003ac00 	andeq	sl, r3, r0, lsl #24
    16d8:	0003d000 	andeq	sp, r3, r0
    16dc:	5b000100 	blpl	1ae4 <__code_start__-0x651c>
    16e0:	000003d0 	ldrdeq	r0, [r0], -r0	; <UNPREDICTABLE>
    16e4:	000003d4 	ldrdeq	r0, [r0], -r4
    16e8:	d4540001 	ldrble	r0, [r4], #-1
    16ec:	d8000003 	stmdale	r0, {r0, r1}
    16f0:	03000003 	movweq	r0, #3
    16f4:	9f7f7400 	svcls	0x007f7400
    16f8:	000003d8 	ldrdeq	r0, [r0], -r8
    16fc:	000003fc 	strdeq	r0, [r0], -ip
    1700:	a8540001 	ldmdage	r4, {r0}^
    1704:	ac000004 	stcge	0, cr0, [r0], {4}
    1708:	01000004 	tsteq	r0, r4
    170c:	04ac5400 	strteq	r5, [ip], #1024	; 0x400
    1710:	04b40000 	ldrteq	r0, [r4], #0
    1714:	00030000 	andeq	r0, r3, r0
    1718:	b49f0174 	ldrlt	r0, [pc], #372	; 1720 <__code_start__-0x68e0>
    171c:	c0000004 	andgt	r0, r0, r4
    1720:	01000004 	tsteq	r0, r4
    1724:	04e45400 	strbteq	r5, [r4], #1024	; 0x400
    1728:	04f40000 	ldrbteq	r0, [r4], #0
    172c:	00010000 	andeq	r0, r1, r0
    1730:	0004f454 	andeq	pc, r4, r4, asr r4	; <UNPREDICTABLE>
    1734:	0004f800 	andeq	pc, r4, r0, lsl #16
    1738:	74000300 	strvc	r0, [r0], #-768	; 0xfffffd00
    173c:	04f89f01 	ldrbteq	r9, [r8], #3841	; 0xf01
    1740:	05040000 	streq	r0, [r4, #-0]
    1744:	00010000 	andeq	r0, r1, r0
    1748:	00092054 	andeq	r2, r9, r4, asr r0
    174c:	00092800 	andeq	r2, r9, r0, lsl #16
    1750:	5b000100 	blpl	1b58 <__code_start__-0x64a8>
	...
    175c:	03ac0001 			; <UNDEFINED> instruction: 0x03ac0001
    1760:	09b40000 	ldmibeq	r4!, {}	; <UNPREDICTABLE>
    1764:	00010000 	andeq	r0, r1, r0
    1768:	00000057 	andeq	r0, r0, r7, asr r0
    176c:	00000000 	andeq	r0, r0, r0
    1770:	00000200 	andeq	r0, r0, r0, lsl #4
    1774:	7c000000 	stcvc	0, cr0, [r0], {-0}
    1778:	d0000005 	andle	r0, r0, r5
    177c:	01000005 	tsteq	r0, r5
    1780:	08005b00 	stmdaeq	r0, {r8, r9, fp, ip, lr}
    1784:	08880000 	stmeq	r8, {}	; <UNPREDICTABLE>
    1788:	00010000 	andeq	r0, r1, r0
    178c:	0009485b 	andeq	r4, r9, fp, asr r8
    1790:	00096400 	andeq	r6, r9, r0, lsl #8
    1794:	5b000100 	blpl	1b9c <__code_start__-0x6464>
	...
    17a0:	00000003 	andeq	r0, r0, r3
    17a4:	057c0000 	ldrbeq	r0, [ip, #-0]!
    17a8:	05d00000 	ldrbeq	r0, [r0]
    17ac:	00010000 	andeq	r0, r1, r0
    17b0:	00080059 	andeq	r0, r8, r9, asr r0
    17b4:	00088800 	andeq	r8, r8, r0, lsl #16
    17b8:	59000100 	stmdbpl	r0, {r8}
    17bc:	00000948 	andeq	r0, r0, r8, asr #18
    17c0:	00000964 	andeq	r0, r0, r4, ror #18
    17c4:	00590001 	subseq	r0, r9, r1
    17c8:	00000000 	andeq	r0, r0, r0
    17cc:	04000000 	streq	r0, [r0], #-0
    17d0:	00000000 	andeq	r0, r0, r0
    17d4:	ac000000 	stcge	0, cr0, [r0], {-0}
    17d8:	d0000003 	andle	r0, r0, r3
    17dc:	01000003 	tsteq	r0, r3
    17e0:	03d05200 	bicseq	r5, r0, #0, 4
    17e4:	09200000 	stmdbeq	r0!, {}	; <UNPREDICTABLE>
    17e8:	00040000 	andeq	r0, r4, r0
    17ec:	9f5201f3 	svcls	0x005201f3
    17f0:	00000920 	andeq	r0, r0, r0, lsr #18
    17f4:	00000928 	andeq	r0, r0, r8, lsr #18
    17f8:	28520001 	ldmdacs	r2, {r0}^
    17fc:	b4000009 	strlt	r0, [r0], #-9
    1800:	04000009 	streq	r0, [r0], #-9
    1804:	5201f300 	andpl	pc, r1, #0, 6
    1808:	0000009f 	muleq	r0, pc, r0	; <UNPREDICTABLE>
    180c:	00000000 	andeq	r0, r0, r0
    1810:	01010000 	mrseq	r0, (UNDEF: 1)
    1814:	00000000 	andeq	r0, r0, r0
    1818:	00000100 	andeq	r0, r0, r0, lsl #2
    181c:	0004e000 	andeq	lr, r4, r0
    1820:	0004e000 	andeq	lr, r4, r0
    1824:	50000100 	andpl	r0, r0, r0, lsl #2
    1828:	000004e0 	andeq	r0, r0, r0, ror #9
    182c:	000004e8 	andeq	r0, r0, r8, ror #9
    1830:	b8550001 	ldmdalt	r5, {r0}^
    1834:	d0000005 	andle	r0, r0, r5
    1838:	01000005 	tsteq	r0, r5
    183c:	05f05500 	ldrbeq	r5, [r0, #1280]!	; 0x500
    1840:	05f40000 	ldrbeq	r0, [r4, #0]!
    1844:	00010000 	andeq	r0, r1, r0
    1848:	0007f450 	andeq	pc, r7, r0, asr r4	; <UNPREDICTABLE>
    184c:	0007f800 	andeq	pc, r7, r0, lsl #16
    1850:	55000100 	strpl	r0, [r0, #-256]	; 0xffffff00
    1854:	00000850 	andeq	r0, r0, r0, asr r8
    1858:	00000888 	andeq	r0, r0, r8, lsl #17
    185c:	00550001 	subseq	r0, r5, r1
    1860:	00000000 	andeq	r0, r0, r0
    1864:	02000000 	andeq	r0, r0, #0, 0
    1868:	00000000 	andeq	r0, r0, r0
    186c:	14000000 	strne	r0, [r0], #-0
    1870:	18000004 	stmdane	r0, {r2}
    1874:	02000004 	andeq	r0, r0, #4, 0
    1878:	189f3000 	ldmne	pc, {ip, sp}	; <UNPREDICTABLE>
    187c:	1c000004 	stcne	0, cr0, [r0], {4}
    1880:	01000004 	tsteq	r0, r4
    1884:	04285500 	strteq	r5, [r8], #-1280	; 0xfffffb00
    1888:	043c0000 	ldrteq	r0, [ip], #-0
    188c:	00010000 	andeq	r0, r1, r0
    1890:	00092855 	andeq	r2, r9, r5, asr r8
    1894:	00093000 	andeq	r3, r9, r0
    1898:	55000100 	strpl	r0, [r0, #-256]	; 0xffffff00
	...
    18a4:	00000001 	andeq	r0, r0, r1
	...
    18b0:	00000504 	andeq	r0, r0, r4, lsl #10
    18b4:	00000584 	andeq	r0, r0, r4, lsl #11
    18b8:	84560001 	ldrbhi	r0, [r6], #-1
    18bc:	88000005 	stmdahi	r0, {r0, r2}
    18c0:	03000005 	movweq	r0, #5
    18c4:	9f7e7300 	svcls	0x007e7300
    18c8:	00000588 	andeq	r0, r0, r8, lsl #11
    18cc:	000005d0 	ldrdeq	r0, [r0], -r0	; <UNPREDICTABLE>
    18d0:	cc910007 	ldcgt	0, cr0, [r1], {7}
    18d4:	1c32067d 	ldcne	6, cr0, [r2], #-500	; 0xfffffe0c
    18d8:	0008009f 	muleq	r8, pc, r0	; <UNPREDICTABLE>
    18dc:	00081c00 	andeq	r1, r8, r0, lsl #24
    18e0:	56000100 	strpl	r0, [r0], -r0, lsl #2
    18e4:	0000081c 	andeq	r0, r0, ip, lsl r8
    18e8:	00000888 	andeq	r0, r0, r8, lsl #17
    18ec:	cc910007 	ldcgt	0, cr0, [r1], {7}
    18f0:	1c32067d 	ldcne	6, cr0, [r2], #-500	; 0xfffffe0c
    18f4:	0009489f 	muleq	r9, pc, r8	; <UNPREDICTABLE>
    18f8:	0009b400 	andeq	fp, r9, r0, lsl #8
    18fc:	56000100 	strpl	r0, [r0], -r0, lsl #2
	...
    1908:	04020604 	streq	r0, [r2], #-1540	; 0xfffff9fc
    190c:	00000414 	andeq	r0, r0, r4, lsl r4
    1910:	00000414 	andeq	r0, r0, r4, lsl r4
    1914:	00720006 	rsbseq	r0, r2, r6
    1918:	9f1aff08 	svcls	0x001aff08
    191c:	00000428 	andeq	r0, r0, r8, lsr #8
    1920:	00000428 	andeq	r0, r0, r8, lsr #8
    1924:	00720006 	rsbseq	r0, r2, r6
    1928:	9f1aff08 	svcls	0x001aff08
	...
    1934:	00000002 	andeq	r0, r0, r2
    1938:	05fc0000 	ldrbeq	r0, [ip, #0]!
    193c:	07000000 	streq	r0, [r0, -r0]
    1940:	00030000 	andeq	r0, r3, r0
    1944:	a89f8008 	ldmge	pc, {r3, pc}	; <UNPREDICTABLE>
    1948:	bc000008 	stclt	0, cr0, [r0], {8}
    194c:	03000008 	movweq	r0, #8
    1950:	9f800800 	svcls	0x00800800
    1954:	00000910 	andeq	r0, r0, r0, lsl r9
    1958:	00000920 	andeq	r0, r0, r0, lsr #18
    195c:	80080003 	andhi	r0, r8, r3
    1960:	0000009f 	muleq	r0, pc, r0	; <UNPREDICTABLE>
    1964:	00000000 	andeq	r0, r0, r0
    1968:	00000100 	andeq	r0, r0, r0, lsl #2
    196c:	fc000000 	stc2	0, cr0, [r0], {-0}
    1970:	00000005 	andeq	r0, r0, r5
    1974:	02000007 	andeq	r0, r0, #7, 0
    1978:	a89f3000 	ldmge	pc, {ip, sp}	; <UNPREDICTABLE>
    197c:	bc000008 	stclt	0, cr0, [r0], {8}
    1980:	02000008 	andeq	r0, r0, #8, 0
    1984:	109f3000 	addsne	r3, pc, r0
    1988:	20000009 	andcs	r0, r0, r9
    198c:	02000009 	andeq	r0, r0, #9, 0
    1990:	009f3000 	addseq	r3, pc, r0
    1994:	00000000 	andeq	r0, r0, r0
    1998:	01000000 	mrseq	r0, (UNDEF: 0)
    199c:	00000000 	andeq	r0, r0, r0
    19a0:	0005fc00 	andeq	pc, r5, r0, lsl #24
    19a4:	0006e000 	andeq	lr, r6, r0
    19a8:	55000100 	strpl	r0, [r0, #-256]	; 0xffffff00
    19ac:	000008a8 	andeq	r0, r0, r8, lsr #17
    19b0:	000008bc 			; <UNDEFINED> instruction: 0x000008bc
    19b4:	10550001 	subsne	r0, r5, r1
    19b8:	20000009 	andcs	r0, r0, r9
    19bc:	01000009 	tsteq	r0, r9
    19c0:	00005500 	andeq	r5, r0, r0, lsl #10
    19c4:	00000000 	andeq	r0, r0, r0
    19c8:	00010000 	andeq	r0, r1, r0
    19cc:	00000000 	andeq	r0, r0, r0
    19d0:	05fc0000 	ldrbeq	r0, [ip, #0]!
    19d4:	06e00000 	strbteq	r0, [r0], r0
    19d8:	00040000 	andeq	r0, r4, r0
    19dc:	9f7dd091 	svcls	0x007dd091
    19e0:	000006e0 	andeq	r0, r0, r0, ror #13
    19e4:	00000700 	andeq	r0, r0, r0, lsl #14
    19e8:	a8550001 	ldmdage	r5, {r0}^
    19ec:	bc000008 	stclt	0, cr0, [r0], {8}
    19f0:	04000008 	streq	r0, [r0], #-8
    19f4:	7dd09100 	ldfvcp	f1, [r0]
    19f8:	0009109f 	muleq	r9, pc, r0	; <UNPREDICTABLE>
    19fc:	00092000 	andeq	r2, r9, r0
    1a00:	91000400 	tstls	r0, r0, lsl #8
    1a04:	009f7dd0 			; <UNDEFINED> instruction: 0x009f7dd0
    1a08:	00000000 	andeq	r0, r0, r0
    1a0c:	01000000 	mrseq	r0, (UNDEF: 0)
    1a10:	00000000 	andeq	r0, r0, r0
    1a14:	0005fc00 	andeq	pc, r5, r0, lsl #24
    1a18:	00070000 	andeq	r0, r7, r0
    1a1c:	38000200 	stmdacc	r0, {r9}
    1a20:	0008a89f 	muleq	r8, pc, r8	; <UNPREDICTABLE>
    1a24:	0008bc00 	andeq	fp, r8, r0, lsl #24
    1a28:	38000200 	stmdacc	r0, {r9}
    1a2c:	0009109f 	muleq	r9, pc, r0	; <UNPREDICTABLE>
    1a30:	00092000 	andeq	r2, r9, r0
    1a34:	38000200 	stmdacc	r0, {r9}
    1a38:	0000009f 	muleq	r0, pc, r0	; <UNPREDICTABLE>
    1a3c:	00000000 	andeq	r0, r0, r0
    1a40:	07070400 	streq	r0, [r7, -r0, lsl #8]
	...
    1a4c:	fc000000 	stc2	0, cr0, [r0], {-0}
    1a50:	fc000005 	stc2	0, cr0, [r0], {5}
    1a54:	04000005 	streq	r0, [r0], #-5
    1a58:	7ed09100 	atnvcs	f1, f0
    1a5c:	0005fc9f 	muleq	r5, pc, ip	; <UNPREDICTABLE>
    1a60:	00067800 	andeq	r7, r6, r0, lsl #16
    1a64:	91000400 	tstls	r0, r0, lsl #8
    1a68:	789f7ed1 	ldmvc	pc, {r0, r4, r6, r7, r9, sl, fp, ip, sp, lr}	; <UNPREDICTABLE>
    1a6c:	d4000006 	strle	r0, [r0], #-6
    1a70:	01000006 	tsteq	r0, r6
    1a74:	06d45c00 	ldrbeq	r5, [r4], r0, lsl #24
    1a78:	07000000 	streq	r0, [r0, -r0]
    1a7c:	00040000 	andeq	r0, r4, r0
    1a80:	9f7ed191 	svcls	0x007ed191
    1a84:	000008a8 	andeq	r0, r0, r8, lsr #17
    1a88:	000008bc 			; <UNDEFINED> instruction: 0x000008bc
    1a8c:	d1910004 	orrsle	r0, r1, r4
    1a90:	09109f7e 	ldmdbeq	r0, {r1, r2, r3, r4, r5, r6, r8, r9, sl, fp, ip, pc}
    1a94:	09140000 	ldmdbeq	r4, {}	; <UNPREDICTABLE>
    1a98:	00040000 	andeq	r0, r4, r0
    1a9c:	9f7ed191 	svcls	0x007ed191
    1aa0:	00000914 	andeq	r0, r0, r4, lsl r9
    1aa4:	00000920 	andeq	r0, r0, r0, lsr #18
    1aa8:	005c0001 	subseq	r0, ip, r1
    1aac:	00000000 	andeq	r0, r0, r0
    1ab0:	04000000 	streq	r0, [r0], #-0
    1ab4:	00010001 	andeq	r0, r1, r1
    1ab8:	00060800 	andeq	r0, r6, r0, lsl #16
    1abc:	0006d000 	andeq	sp, r6, r0
    1ac0:	55000100 	strpl	r0, [r0, #-256]	; 0xffffff00
    1ac4:	000008a8 	andeq	r0, r0, r8, lsr #17
    1ac8:	000008b8 			; <UNDEFINED> instruction: 0x000008b8
    1acc:	10550001 	subsne	r0, r5, r1
    1ad0:	20000009 	andcs	r0, r0, r9
    1ad4:	01000009 	tsteq	r0, r9
    1ad8:	00005500 	andeq	r5, r0, r0, lsl #10
    1adc:	00000000 	andeq	r0, r0, r0
    1ae0:	00040000 	andeq	r0, r4, r0
    1ae4:	01000000 	mrseq	r0, (UNDEF: 0)
    1ae8:	01000000 	mrseq	r0, (UNDEF: 0)
    1aec:	06080000 	streq	r0, [r8], -r0
    1af0:	06b00000 	ldrteq	r0, [r0], r0
    1af4:	00040000 	andeq	r0, r4, r0
    1af8:	9f7ed091 	svcls	0x007ed091
    1afc:	000006b0 			; <UNDEFINED> instruction: 0x000006b0
    1b00:	000006c8 	andeq	r0, r0, r8, asr #13
    1b04:	c8500001 	ldmdagt	r0, {r0}^
    1b08:	d0000006 	andle	r0, r0, r6
    1b0c:	04000006 	streq	r0, [r0], #-6
    1b10:	7ed09100 	atnvcs	f1, f0
    1b14:	0008a89f 	muleq	r8, pc, r8	; <UNPREDICTABLE>
    1b18:	0008b000 	andeq	fp, r8, r0
    1b1c:	91000400 	tstls	r0, r0, lsl #8
    1b20:	b09f7ed0 			; <UNDEFINED> instruction: 0xb09f7ed0
    1b24:	b8000008 	stmdalt	r0, {r3}
    1b28:	01000008 	tsteq	r0, r8
    1b2c:	09105300 	ldmdbeq	r0, {r8, r9, ip, lr}
    1b30:	09200000 	stmdbeq	r0!, {}	; <UNPREDICTABLE>
    1b34:	00040000 	andeq	r0, r4, r0
    1b38:	9f7ed091 	svcls	0x007ed091
	...
    1b44:	01000004 	tsteq	r0, r4
    1b48:	03010101 	movweq	r0, #4353	; 0x1101
    1b4c:	01000203 	tsteq	r0, r3, lsl #4
    1b50:	00000000 	andeq	r0, r0, r0
    1b54:	00000608 	andeq	r0, r0, r8, lsl #12
    1b58:	00000624 	andeq	r0, r0, r4, lsr #12
    1b5c:	d1910004 	orrsle	r0, r1, r4
    1b60:	06849f7e 			; <UNDEFINED> instruction: 0x06849f7e
    1b64:	06840000 	streq	r0, [r4], r0
    1b68:	00010000 	andeq	r0, r1, r0
    1b6c:	00068450 	andeq	r8, r6, r0, asr r4
    1b70:	00069800 	andeq	r9, r6, r0, lsl #16
    1b74:	70000300 	andvc	r0, r0, r0, lsl #6
    1b78:	06989f01 	ldreq	r9, [r8], r1, lsl #30
    1b7c:	06a40000 	strteq	r0, [r4], r0
    1b80:	00030000 	andeq	r0, r3, r0
    1b84:	a49f0270 	ldrge	r0, [pc], #624	; 1b8c <__code_start__-0x6474>
    1b88:	a8000006 	stmdage	r0, {r1, r2}
    1b8c:	03000006 	movweq	r0, #6
    1b90:	9f037000 	svcls	0x00037000
    1b94:	000008a8 	andeq	r0, r0, r8, lsr #17
    1b98:	000008b8 			; <UNDEFINED> instruction: 0x000008b8
    1b9c:	d1910004 	orrsle	r0, r1, r4
    1ba0:	09109f7e 	ldmdbeq	r0, {r1, r2, r3, r4, r5, r6, r8, r9, sl, fp, ip, pc}
    1ba4:	09140000 	ldmdbeq	r4, {}	; <UNPREDICTABLE>
    1ba8:	00040000 	andeq	r0, r4, r0
    1bac:	9f7ed191 	svcls	0x007ed191
    1bb0:	00000914 	andeq	r0, r0, r4, lsl r9
    1bb4:	00000920 	andeq	r0, r0, r0, lsr #18
    1bb8:	005c0001 	subseq	r0, ip, r1
    1bbc:	00000000 	andeq	r0, r0, r0
    1bc0:	06000000 	streq	r0, [r0], -r0
    1bc4:	01010000 	mrseq	r0, (UNDEF: 1)
    1bc8:	01010101 	tsteq	r1, r1, lsl #2
    1bcc:	00010002 	andeq	r0, r1, r2
    1bd0:	00060800 	andeq	r0, r6, r0, lsl #16
    1bd4:	00062400 	andeq	r2, r6, r0, lsl #8
    1bd8:	31000200 	mrscc	r0, R8_usr
    1bdc:	0006849f 	muleq	r6, pc, r4	; <UNPREDICTABLE>
    1be0:	00069400 	andeq	r9, r6, r0, lsl #8
    1be4:	52000100 	andpl	r0, r0, #0
    1be8:	00000694 	muleq	r0, r4, r6
    1bec:	000006a4 	andeq	r0, r0, r4, lsr #13
    1bf0:	a4590001 	ldrbge	r0, [r9], #-1
    1bf4:	a8000006 	stmdage	r0, {r1, r2}
    1bf8:	01000006 	tsteq	r0, r6
    1bfc:	06a85200 	strteq	r5, [r8], r0, lsl #4
    1c00:	06a80000 	strteq	r0, [r8], r0
    1c04:	00030000 	andeq	r0, r3, r0
    1c08:	a89f0172 	ldmge	pc, {r1, r4, r5, r6, r8}	; <UNPREDICTABLE>
    1c0c:	b8000008 	stmdalt	r0, {r3}
    1c10:	02000008 	andeq	r0, r0, #8, 0
    1c14:	109f3100 	addsne	r3, pc, r0, lsl #2
    1c18:	20000009 	andcs	r0, r0, r9
    1c1c:	02000009 	andeq	r0, r0, #9, 0
    1c20:	009f3100 	addseq	r3, pc, r0, lsl #2
    1c24:	00000000 	andeq	r0, r0, r0
    1c28:	01000000 	mrseq	r0, (UNDEF: 0)
    1c2c:	01000606 	tsteq	r0, r6, lsl #12
    1c30:	0006d000 	andeq	sp, r6, r0
    1c34:	0006d000 	andeq	sp, r6, r0
    1c38:	91000400 	tstls	r0, r0, lsl #8
    1c3c:	d09f7ed0 			; <UNDEFINED> instruction: 0xd09f7ed0
    1c40:	00000006 	andeq	r0, r0, r6
    1c44:	01000007 	tsteq	r0, r7
    1c48:	08b85000 	ldmeq	r8!, {ip, lr}
    1c4c:	08bc0000 	ldmeq	ip!, {}	; <UNPREDICTABLE>
    1c50:	00010000 	andeq	r0, r1, r0
    1c54:	00000053 	andeq	r0, r0, r3, asr r0
    1c58:	00000000 	andeq	r0, r0, r0
    1c5c:	00080100 	andeq	r0, r8, r0, lsl #2
    1c60:	01010000 	mrseq	r0, (UNDEF: 1)
    1c64:	d0070100 	andle	r0, r7, r0, lsl #2
    1c68:	d0000006 	andle	r0, r0, r6
    1c6c:	06000006 	streq	r0, [r0], -r6
    1c70:	71007c00 	tstvc	r0, r0, lsl #24
    1c74:	e49f2200 	ldr	r2, [pc], #512	; 1c7c <__code_start__-0x6384>
    1c78:	e8000006 	stmda	r0, {r1, r2}
    1c7c:	03000006 	movweq	r0, #6
    1c80:	9f7f7300 	svcls	0x007f7300
    1c84:	000006e8 	andeq	r0, r0, r8, ror #13
    1c88:	000006f0 	strdeq	r0, [r0], -r0	; <UNPREDICTABLE>
    1c8c:	f0530001 			; <UNDEFINED> instruction: 0xf0530001
    1c90:	f8000006 			; <UNDEFINED> instruction: 0xf8000006
    1c94:	03000006 	movweq	r0, #6
    1c98:	9f7f7300 	svcls	0x007f7300
    1c9c:	000008b8 			; <UNDEFINED> instruction: 0x000008b8
    1ca0:	000008b8 			; <UNDEFINED> instruction: 0x000008b8
    1ca4:	d1910004 	orrsle	r0, r1, r4
    1ca8:	00009f7e 	andeq	r9, r0, lr, ror pc
    1cac:	00000000 	andeq	r0, r0, r0
    1cb0:	00010000 	andeq	r0, r1, r0
    1cb4:	06d00001 	ldrbeq	r0, [r0], r1
    1cb8:	07000000 	streq	r0, [r0, -r0]
    1cbc:	00030000 	andeq	r0, r3, r0
    1cc0:	b89f8008 	ldmlt	pc, {r3, pc}	; <UNPREDICTABLE>
    1cc4:	bc000008 	stclt	0, cr0, [r0], {8}
    1cc8:	03000008 	movweq	r0, #8
    1ccc:	9f800800 	svcls	0x00800800
	...
    1cd8:	00000001 	andeq	r0, r0, r1
    1cdc:	00010100 	andeq	r0, r1, r0, lsl #2
    1ce0:	01020000 	mrseq	r0, (UNDEF: 2)
    1ce4:	06d00001 	ldrbeq	r0, [r0], r1
    1ce8:	06e00000 	strbteq	r0, [r0], r0
    1cec:	00040000 	andeq	r0, r4, r0
    1cf0:	9f7dd091 	svcls	0x007dd091
    1cf4:	000006e0 	andeq	r0, r0, r0, ror #13
    1cf8:	000006e4 	andeq	r0, r0, r4, ror #13
    1cfc:	e4550001 	ldrb	r0, [r5], #-1
    1d00:	e4000006 	str	r0, [r0], #-6
    1d04:	03000006 	movweq	r0, #6
    1d08:	9f017200 	svcls	0x00017200
    1d0c:	000006e4 	andeq	r0, r0, r4, ror #13
    1d10:	000006f0 	strdeq	r0, [r0], -r0	; <UNPREDICTABLE>
    1d14:	02720003 	rsbseq	r0, r2, #3, 0
    1d18:	0006f09f 	muleq	r6, pc, r0	; <UNPREDICTABLE>
    1d1c:	00070000 	andeq	r0, r7, r0
    1d20:	72000300 	andvc	r0, r0, #0, 6
    1d24:	07ec9f01 	strbeq	r9, [ip, r1, lsl #30]!
    1d28:	07f40000 	ldrbeq	r0, [r4, r0]!
    1d2c:	00030000 	andeq	r0, r3, r0
    1d30:	b89f0173 	ldmlt	pc, {r0, r1, r4, r5, r6, r8}	; <UNPREDICTABLE>
    1d34:	bc000008 	stclt	0, cr0, [r0], {8}
    1d38:	04000008 	streq	r0, [r0], #-8
    1d3c:	7dd09100 	ldfvcp	f1, [r0]
    1d40:	0000009f 	muleq	r0, pc, r0	; <UNPREDICTABLE>
    1d44:	00000000 	andeq	r0, r0, r0
    1d48:	b8000400 	stmdalt	r0, {sl}
    1d4c:	bc000008 	stclt	0, cr0, [r0], {8}
    1d50:	02000008 	andeq	r0, r0, #8, 0
    1d54:	009f3200 	addseq	r3, pc, r0, lsl #4
    1d58:	00000000 	andeq	r0, r0, r0
    1d5c:	07000000 	streq	r0, [r0, -r0]
    1d60:	06000000 	streq	r0, [r0], -r0
    1d64:	0006d000 	andeq	sp, r6, r0
    1d68:	0006e000 	andeq	lr, r6, r0
    1d6c:	91000400 	tstls	r0, r0, lsl #8
    1d70:	e09f7dd0 			; <UNDEFINED> instruction: 0xe09f7dd0
    1d74:	00000006 	andeq	r0, r0, r6
    1d78:	01000007 	tsteq	r0, r7
    1d7c:	08b85500 	ldmeq	r8!, {r8, sl, ip, lr}
    1d80:	08bc0000 	ldmeq	ip!, {}	; <UNPREDICTABLE>
    1d84:	00040000 	andeq	r0, r4, r0
    1d88:	9f7dd091 	svcls	0x007dd091
	...
    1d94:	00000001 	andeq	r0, r0, r1
    1d98:	0000070c 	andeq	r0, r0, ip, lsl #14
    1d9c:	000007ec 	andeq	r0, r0, ip, ror #15
    1da0:	80080003 	andhi	r0, r8, r3
    1da4:	0008949f 	muleq	r8, pc, r4	; <UNPREDICTABLE>
    1da8:	0008a800 	andeq	sl, r8, r0, lsl #16
    1dac:	08000300 	stmdaeq	r0, {r8, r9}
    1db0:	00009f80 	andeq	r9, r0, r0, lsl #31
	...
    1dbc:	070c0000 	streq	r0, [ip, -r0]
    1dc0:	07ec0000 	strbeq	r0, [ip, r0]!
    1dc4:	00020000 	andeq	r0, r2, r0
    1dc8:	08949f30 	ldmeq	r4, {r4, r5, r8, r9, sl, fp, ip, pc}
    1dcc:	08a80000 	stmiaeq	r8!, {}	; <UNPREDICTABLE>
    1dd0:	00020000 	andeq	r0, r2, r0
    1dd4:	00009f30 	andeq	r9, r0, r0, lsr pc
	...
    1de0:	070c0000 	streq	r0, [ip, -r0]
    1de4:	07d00000 	ldrbeq	r0, [r0, r0]
    1de8:	00010000 	andeq	r0, r1, r0
    1dec:	00089455 	andeq	r9, r8, r5, asr r4
    1df0:	0008a800 	andeq	sl, r8, r0, lsl #16
    1df4:	55000100 	strpl	r0, [r0, #-256]	; 0xffffff00
	...
    1e04:	070c0000 	streq	r0, [ip, -r0]
    1e08:	07d00000 	ldrbeq	r0, [r0, r0]
    1e0c:	00040000 	andeq	r0, r4, r0
    1e10:	9f7dd091 	svcls	0x007dd091
    1e14:	000007d0 	ldrdeq	r0, [r0], -r0	; <UNPREDICTABLE>
    1e18:	000007ec 	andeq	r0, r0, ip, ror #15
    1e1c:	94550001 	ldrbls	r0, [r5], #-1
    1e20:	a8000008 	stmdage	r0, {r3}
    1e24:	04000008 	streq	r0, [r0], #-8
    1e28:	7dd09100 	ldfvcp	f1, [r0]
    1e2c:	0000009f 	muleq	r0, pc, r0	; <UNPREDICTABLE>
	...
    1e38:	00070c00 	andeq	r0, r7, r0, lsl #24
    1e3c:	0007ec00 	andeq	lr, r7, r0, lsl #24
    1e40:	32000200 	andcc	r0, r0, #0, 4
    1e44:	0008949f 	muleq	r8, pc, r4	; <UNPREDICTABLE>
    1e48:	0008a800 	andeq	sl, r8, r0, lsl #16
    1e4c:	32000200 	andcc	r0, r0, #0, 4
    1e50:	0000009f 	muleq	r0, pc, r0	; <UNPREDICTABLE>
    1e54:	00000000 	andeq	r0, r0, r0
    1e58:	05050300 	streq	r0, [r5, #-768]	; 0xfffffd00
    1e5c:	00000000 	andeq	r0, r0, r0
    1e60:	0c000000 	stceq	0, cr0, [r0], {-0}
    1e64:	0c000007 	stceq	0, cr0, [r0], {7}
    1e68:	01000007 	tsteq	r0, r7
    1e6c:	070c5100 	streq	r5, [ip, -r0, lsl #2]
    1e70:	071c0000 	ldreq	r0, [ip, -r0]
    1e74:	00010000 	andeq	r0, r1, r0
    1e78:	00071c53 	andeq	r1, r7, r3, asr ip
    1e7c:	00072400 	andeq	r2, r7, r0, lsl #8
    1e80:	72000300 	andvc	r0, r0, #0, 6
    1e84:	07249f01 	streq	r9, [r4, -r1, lsl #30]!
    1e88:	07cc0000 	strbeq	r0, [ip, r0]
    1e8c:	00010000 	andeq	r0, r1, r0
    1e90:	00089453 	andeq	r9, r8, r3, asr r4
    1e94:	0008a800 	andeq	sl, r8, r0, lsl #16
    1e98:	53000100 	movwpl	r0, #256	; 0x100
	...
    1ea4:	00010005 	andeq	r0, r1, r5
    1ea8:	0000070c 	andeq	r0, r0, ip, lsl #14
    1eac:	00000720 	andeq	r0, r0, r0, lsr #14
    1eb0:	24500001 	ldrbcs	r0, [r0], #-1
    1eb4:	2c000007 	stccs	0, cr0, [r0], {7}
    1eb8:	01000007 	tsteq	r0, r7
    1ebc:	00005000 	andeq	r5, r0, r0
    1ec0:	00000000 	andeq	r0, r0, r0
    1ec4:	01030000 	mrseq	r0, (UNDEF: 3)
    1ec8:	07280100 	streq	r0, [r8, -r0, lsl #2]!
    1ecc:	07b00000 	ldreq	r0, [r0, r0]!
    1ed0:	00010000 	andeq	r0, r1, r0
    1ed4:	00089455 	andeq	r9, r8, r5, asr r4
    1ed8:	0008a000 	andeq	sl, r8, r0
    1edc:	55000100 	strpl	r0, [r0, #-256]	; 0xffffff00
	...
    1ee8:	01000103 	tsteq	r0, r3, lsl #2
    1eec:	00000728 	andeq	r0, r0, r8, lsr #14
    1ef0:	000007b0 			; <UNDEFINED> instruction: 0x000007b0
    1ef4:	94510001 	ldrbls	r0, [r1], #-1
    1ef8:	a0000008 	andge	r0, r0, r8
    1efc:	01000008 	tsteq	r0, r8
    1f00:	00005100 	andeq	r5, r0, r0, lsl #2
    1f04:	00000000 	andeq	r0, r0, r0
    1f08:	00030000 	andeq	r0, r3, r0
    1f0c:	01010100 	mrseq	r0, (UNDEF: 17)
    1f10:	02030301 	andeq	r0, r3, #67108864	; 0x4000000
    1f14:	07280100 	streq	r0, [r8, -r0, lsl #2]!
    1f18:	07500000 	ldrbeq	r0, [r0, -r0]
    1f1c:	00010000 	andeq	r0, r1, r0
    1f20:	00077453 	andeq	r7, r7, r3, asr r4
    1f24:	00077400 	andeq	r7, r7, r0, lsl #8
    1f28:	5e000100 	adfpls	f0, f0, f0
    1f2c:	00000774 	andeq	r0, r0, r4, ror r7
    1f30:	00000788 	andeq	r0, r0, r8, lsl #15
    1f34:	017e0003 	cmneq	lr, r3
    1f38:	0007889f 	muleq	r7, pc, r8	; <UNPREDICTABLE>
    1f3c:	00079400 	andeq	r9, r7, r0, lsl #8
    1f40:	7e000300 	cdpvc	3, 0, cr0, cr0, cr0, {0}
    1f44:	07949f02 	ldreq	r9, [r4, r2, lsl #30]
    1f48:	07980000 	ldreq	r0, [r8, r0]
    1f4c:	00030000 	andeq	r0, r3, r0
    1f50:	949f037e 	ldrls	r0, [pc], #894	; 1f58 <__code_start__-0x60a8>
    1f54:	a0000008 	andge	r0, r0, r8
    1f58:	01000008 	tsteq	r0, r8
    1f5c:	00005300 	andeq	r5, r0, r0, lsl #6
	...
    1f68:	01010100 	mrseq	r0, (UNDEF: 17)
    1f6c:	02010101 	andeq	r0, r1, #1073741824	; 0x40000000
    1f70:	072c0100 	streq	r0, [ip, -r0, lsl #2]!
    1f74:	07500000 	ldrbeq	r0, [r0, -r0]
    1f78:	00010000 	andeq	r0, r1, r0
    1f7c:	00077450 	andeq	r7, r7, r0, asr r4
    1f80:	00078400 	andeq	r8, r7, r0, lsl #8
    1f84:	50000100 	andpl	r0, r0, r0, lsl #2
    1f88:	00000784 	andeq	r0, r0, r4, lsl #15
    1f8c:	00000794 	muleq	r0, r4, r7
    1f90:	945b0001 	ldrbls	r0, [fp], #-1
    1f94:	98000007 	stmdals	r0, {r0, r1, r2}
    1f98:	01000007 	tsteq	r0, r7
    1f9c:	07985000 	ldreq	r5, [r8, r0]
    1fa0:	07980000 	ldreq	r0, [r8, r0]
    1fa4:	00030000 	andeq	r0, r3, r0
    1fa8:	949f0170 	ldrls	r0, [pc], #368	; 1fb0 <__code_start__-0x6050>
    1fac:	a0000008 	andge	r0, r0, r8
    1fb0:	01000008 	tsteq	r0, r8
    1fb4:	00005000 	andeq	r5, r0, r0
    1fb8:	00000000 	andeq	r0, r0, r0
    1fbc:	00010000 	andeq	r0, r1, r0
    1fc0:	07b00001 	ldreq	r0, [r0, r1]!
    1fc4:	07ec0000 	strbeq	r0, [ip, r0]!
    1fc8:	00010000 	andeq	r0, r1, r0
    1fcc:	0008a051 	andeq	sl, r8, r1, asr r0
    1fd0:	0008a800 	andeq	sl, r8, r0, lsl #16
    1fd4:	51000100 	mrspl	r0, (UNDEF: 16)
	...
    1fe0:	00000001 	andeq	r0, r0, r1
    1fe4:	00010100 	andeq	r0, r1, r0, lsl #2
    1fe8:	07b00001 	ldreq	r0, [r0, r1]!
    1fec:	07b40000 	ldreq	r0, [r4, r0]!
    1ff0:	00060000 	andeq	r0, r6, r0
    1ff4:	007c0073 	rsbseq	r0, ip, r3, ror r0
    1ff8:	07d49f22 	ldrbeq	r9, [r4, r2, lsr #30]
    1ffc:	07d80000 	ldrbeq	r0, [r8, r0]
    2000:	00030000 	andeq	r0, r3, r0
    2004:	d89f7f73 	ldmle	pc, {r0, r1, r4, r5, r6, r8, r9, sl, fp, ip, sp, lr}	; <UNPREDICTABLE>
    2008:	e0000007 	and	r0, r0, r7
    200c:	01000007 	tsteq	r0, r7
    2010:	07e05300 	strbeq	r5, [r0, r0, lsl #6]!
    2014:	07e80000 	strbeq	r0, [r8, r0]!
    2018:	00030000 	andeq	r0, r3, r0
    201c:	a09f7f73 	addsge	r7, pc, r3, ror pc	; <UNPREDICTABLE>
    2020:	a8000008 	stmdage	r0, {r3}
    2024:	01000008 	tsteq	r0, r8
    2028:	00005300 	andeq	r5, r0, r0, lsl #6
    202c:	00000000 	andeq	r0, r0, r0
    2030:	00010000 	andeq	r0, r1, r0
    2034:	07b00001 	ldreq	r0, [r0, r1]!
    2038:	07ec0000 	strbeq	r0, [ip, r0]!
    203c:	00030000 	andeq	r0, r3, r0
    2040:	a09f8008 	addsge	r8, pc, r8
    2044:	a8000008 	stmdage	r0, {r3}
    2048:	03000008 	movweq	r0, #8
    204c:	9f800800 	svcls	0x00800800
	...
    2058:	00000001 	andeq	r0, r0, r1
    205c:	00010100 	andeq	r0, r1, r0, lsl #2
    2060:	00010000 	andeq	r0, r1, r0
    2064:	000007b0 			; <UNDEFINED> instruction: 0x000007b0
    2068:	000007d0 	ldrdeq	r0, [r0], -r0	; <UNPREDICTABLE>
    206c:	d0910004 	addsle	r0, r1, r4
    2070:	07d09f7d 			; <UNDEFINED> instruction: 0x07d09f7d
    2074:	07d40000 	ldrbeq	r0, [r4, r0]
    2078:	00010000 	andeq	r0, r1, r0
    207c:	0007d455 	andeq	sp, r7, r5, asr r4
    2080:	0007d400 	andeq	sp, r7, r0, lsl #8
    2084:	7c000300 	stcvc	3, cr0, [r0], {-0}
    2088:	07d49f01 	ldrbeq	r9, [r4, r1, lsl #30]
    208c:	07e00000 	strbeq	r0, [r0, r0]!
    2090:	00030000 	andeq	r0, r3, r0
    2094:	e09f027c 	adds	r0, pc, ip, ror r2	; <UNPREDICTABLE>
    2098:	ec000007 	stc	0, cr0, [r0], {7}
    209c:	03000007 	movweq	r0, #7
    20a0:	9f017c00 	svcls	0x00017c00
    20a4:	000008a0 	andeq	r0, r0, r0, lsr #17
    20a8:	000008a8 	andeq	r0, r0, r8, lsr #17
    20ac:	d0910004 	addsle	r0, r1, r4
    20b0:	00009f7d 	andeq	r9, r0, sp, ror pc
    20b4:	00000000 	andeq	r0, r0, r0
    20b8:	00040000 	andeq	r0, r4, r0
    20bc:	07b00004 	ldreq	r0, [r0, r4]!
    20c0:	07b40000 	ldreq	r0, [r4, r0]!
    20c4:	00030000 	andeq	r0, r3, r0
    20c8:	a09f0170 	addsge	r0, pc, r0, ror r1	; <UNPREDICTABLE>
    20cc:	a8000008 	stmdage	r0, {r3}
    20d0:	03000008 	movweq	r0, #8
    20d4:	9f017000 	svcls	0x00017000
	...
    20e0:	00000001 	andeq	r0, r0, r1
    20e4:	000007bc 			; <UNDEFINED> instruction: 0x000007bc
    20e8:	000007d0 	ldrdeq	r0, [r0], -r0	; <UNPREDICTABLE>
    20ec:	d0910004 	addsle	r0, r1, r4
    20f0:	07d09f7d 			; <UNDEFINED> instruction: 0x07d09f7d
    20f4:	07ec0000 	strbeq	r0, [ip, r0]!
    20f8:	00010000 	andeq	r0, r1, r0
    20fc:	00000055 	andeq	r0, r0, r5, asr r0
	...
    2108:	00032800 	andeq	r2, r3, r0, lsl #16
    210c:	00036400 	andeq	r6, r3, r0, lsl #8
    2110:	50000100 	andpl	r0, r0, r0, lsl #2
    2114:	00000364 	andeq	r0, r0, r4, ror #6
    2118:	00000388 	andeq	r0, r0, r8, lsl #7
    211c:	01f30004 	mvnseq	r0, r4
    2120:	00009f50 	andeq	r9, r0, r0, asr pc
	...
    212c:	03280000 			; <UNDEFINED> instruction: 0x03280000
    2130:	035c0000 	cmpeq	ip, #0, 0
    2134:	00010000 	andeq	r0, r1, r0
    2138:	00035c51 	andeq	r5, r3, r1, asr ip
    213c:	00038800 	andeq	r8, r3, r0, lsl #16
    2140:	f3000400 	vshl.u8	d0, d0, d0
    2144:	009f5101 	addseq	r5, pc, r1, lsl #2
	...
    2168:	14000000 	strne	r0, [r0], #-0
    216c:	01000000 	mrseq	r0, (UNDEF: 0)
    2170:	00145000 	andseq	r5, r4, r0
    2174:	00200000 	eoreq	r0, r0, r0
    2178:	00010000 	andeq	r0, r1, r0
    217c:	0000205c 	andeq	r2, r0, ip, asr r0
    2180:	00006800 	andeq	r6, r0, r0, lsl #16
    2184:	71000300 	mrsvc	r0, LR_irq
    2188:	00689f02 	rsbeq	r9, r8, r2, lsl #30
    218c:	006c0000 	rsbeq	r0, ip, r0
    2190:	00030000 	andeq	r0, r3, r0
    2194:	6c9f0273 	lfmvs	f0, 4, [pc], {115}	; 0x73
    2198:	94000000 	strls	r0, [r0], #-0
    219c:	04000001 	streq	r0, [r0], #-1
    21a0:	5001f300 	andpl	pc, r1, r0, lsl #6
    21a4:	0001949f 	muleq	r1, pc, r4	; <UNPREDICTABLE>
    21a8:	00019800 	andeq	r9, r1, r0, lsl #16
    21ac:	73000300 	movwvc	r0, #768	; 0x300
    21b0:	01989f02 	orrseq	r9, r8, r2, lsl #30
    21b4:	01c00000 	biceq	r0, r0, r0
    21b8:	00040000 	andeq	r0, r4, r0
    21bc:	9f5001f3 	svcls	0x005001f3
    21c0:	000001c0 	andeq	r0, r0, r0, asr #3
    21c4:	000001c8 	andeq	r0, r0, r8, asr #3
    21c8:	c85c0001 	ldmdagt	ip, {r0}^
    21cc:	14000001 	strne	r0, [r0], #-1
    21d0:	03000002 	movweq	r0, #2
    21d4:	9f027300 	svcls	0x00027300
    21d8:	00000214 	andeq	r0, r0, r4, lsl r2
    21dc:	000002ec 	andeq	r0, r0, ip, ror #5
    21e0:	01f30004 	mvnseq	r0, r4
    21e4:	02ec9f50 	rsceq	r9, ip, #80, 30	; 0x140
    21e8:	02f40000 	rscseq	r0, r4, #0, 0
    21ec:	00030000 	andeq	r0, r3, r0
    21f0:	f49f0273 			; <UNDEFINED> instruction: 0xf49f0273
    21f4:	28000002 	stmdacs	r0, {r1}
    21f8:	04000003 	streq	r0, [r0], #-3
    21fc:	5001f300 	andpl	pc, r1, r0, lsl #6
    2200:	0000009f 	muleq	r0, pc, r0	; <UNPREDICTABLE>
	...
    2214:	00001c00 	andeq	r1, r0, r0, lsl #24
    2218:	51000100 	mrspl	r0, (UNDEF: 16)
    221c:	0000001c 	andeq	r0, r0, ip, lsl r0
    2220:	000002e0 	andeq	r0, r0, r0, ror #5
    2224:	e0500001 	subs	r0, r0, r1
    2228:	ec000002 	stc	0, cr0, [r0], {2}
    222c:	04000002 	streq	r0, [r0], #-2
    2230:	5101f300 	mrspl	pc, SP_irq	; <UNPREDICTABLE>
    2234:	0002ec9f 	muleq	r2, pc, ip	; <UNPREDICTABLE>
    2238:	00032800 	andeq	r2, r3, r0, lsl #16
    223c:	50000100 	andpl	r0, r0, r0, lsl #2
	...
    224c:	00000100 	andeq	r0, r0, r0, lsl #2
    2250:	00000000 	andeq	r0, r0, r0
    2254:	00020200 	andeq	r0, r2, r0, lsl #4
	...
    226c:	00000070 	andeq	r0, r0, r0, ror r0
    2270:	70520001 	subsvc	r0, r2, r1
    2274:	78000000 	stmdavc	r0, {}	; <UNPREDICTABLE>
    2278:	01000000 	mrseq	r0, (UNDEF: 0)
    227c:	00785c00 	rsbseq	r5, r8, r0, lsl #24
    2280:	00a40000 	adceq	r0, r4, r0
    2284:	00040000 	andeq	r0, r4, r0
    2288:	9f5201f3 	svcls	0x005201f3
    228c:	00000194 	muleq	r0, r4, r1
    2290:	0000019c 	muleq	r0, ip, r1
    2294:	9c520001 	mrrcls	0, 0, r0, r2, cr1
    2298:	a4000001 	strge	r0, [r0], #-1
    229c:	01000001 	tsteq	r0, r1
    22a0:	01a45c00 			; <UNDEFINED> instruction: 0x01a45c00
    22a4:	01c00000 	biceq	r0, r0, r0
    22a8:	00040000 	andeq	r0, r4, r0
    22ac:	9f5201f3 	svcls	0x005201f3
    22b0:	000001c0 	andeq	r0, r0, r0, asr #3
    22b4:	00000220 	andeq	r0, r0, r0, lsr #4
    22b8:	20520001 	subscs	r0, r2, r1
    22bc:	28000002 	stmdacs	r0, {r1}
    22c0:	04000002 	streq	r0, [r0], #-2
    22c4:	1f007200 	svcne	0x00007200
    22c8:	0002289f 	muleq	r2, pc, r8	; <UNPREDICTABLE>
    22cc:	00027400 	andeq	r7, r2, r0, lsl #8
    22d0:	f3000500 	vrshl.u8	d0, d0, d0
    22d4:	9f1f5201 	svcls	0x001f5201
    22d8:	00000274 	andeq	r0, r0, r4, ror r2
    22dc:	00000288 	andeq	r0, r0, r8, lsl #5
    22e0:	88520001 	ldmdahi	r2, {r0}^
    22e4:	a0000002 	andge	r0, r0, r2
    22e8:	01000002 	tsteq	r0, r2
    22ec:	02cc5c00 	sbceq	r5, ip, #0, 24
    22f0:	02d00000 	sbcseq	r0, r0, #0, 0
    22f4:	00010000 	andeq	r0, r1, r0
    22f8:	0002d052 	andeq	sp, r2, r2, asr r0
    22fc:	0002e700 	andeq	lr, r2, r0, lsl #14
    2300:	5c000100 	stfpls	f0, [r0], {-0}
    2304:	000002e7 	andeq	r0, r0, r7, ror #5
    2308:	000002ec 	andeq	r0, r0, ip, ror #5
    230c:	01f30004 	mvnseq	r0, r4
    2310:	02ec9f52 	rsceq	r9, ip, #328	; 0x148
    2314:	03000000 	movweq	r0, #0
    2318:	00010000 	andeq	r0, r1, r0
    231c:	00030052 	andeq	r0, r3, r2, asr r0
    2320:	00032800 	andeq	r2, r3, r0, lsl #16
    2324:	5c000100 	stfpls	f0, [r0], {-0}
	...
    2340:	00680000 	rsbeq	r0, r8, r0
    2344:	00010000 	andeq	r0, r1, r0
    2348:	00006853 	andeq	r6, r0, r3, asr r8
    234c:	00006c00 	andeq	r6, r0, r0, lsl #24
    2350:	08000300 	stmdaeq	r0, {r8, r9}
    2354:	01949f7f 	orrseq	r9, r4, pc, ror pc
    2358:	01980000 	orrseq	r0, r8, r0
    235c:	00030000 	andeq	r0, r3, r0
    2360:	c09f7f08 	addsgt	r7, pc, r8, lsl #30
    2364:	14000001 	strne	r0, [r0], #-1
    2368:	03000002 	movweq	r0, #2
    236c:	9f7f0800 	svcls	0x007f0800
    2370:	00000274 	andeq	r0, r0, r4, ror r2
    2374:	00000290 	muleq	r0, r0, r2
    2378:	90530001 	subsls	r0, r3, r1
    237c:	a0000002 	andge	r0, r0, r2
    2380:	04000002 	streq	r0, [r0], #-2
    2384:	5301f300 	movwpl	pc, #4864	; 0x1300	; <UNPREDICTABLE>
    2388:	0002ec9f 	muleq	r2, pc, ip	; <UNPREDICTABLE>
    238c:	00032800 	andeq	r2, r3, r0, lsl #16
    2390:	08000300 	stmdaeq	r0, {r8, r9}
    2394:	00009f7f 	andeq	r9, r0, pc, ror pc
    2398:	00000000 	andeq	r0, r0, r0
    239c:	00010000 	andeq	r0, r1, r0
    23a0:	02000000 	andeq	r0, r0, #0, 0
    23a4:	01000002 	tsteq	r0, r2
    23a8:	00000001 	andeq	r0, r0, r1
    23ac:	00000000 	andeq	r0, r0, r0
    23b0:	00020200 	andeq	r0, r2, r0, lsl #4
    23b4:	00010000 	andeq	r0, r1, r0
    23b8:	00000000 	andeq	r0, r0, r0
    23bc:	01000000 	mrseq	r0, (UNDEF: 0)
    23c0:	00000001 	andeq	r0, r0, r1
    23c4:	00020200 	andeq	r0, r2, r0, lsl #4
    23c8:	00000000 	andeq	r0, r0, r0
    23cc:	00010100 	andeq	r0, r1, r0, lsl #2
    23d0:	00180000 	andseq	r0, r8, r0
    23d4:	00700000 	rsbseq	r0, r0, r0
    23d8:	00040000 	andeq	r0, r4, r0
    23dc:	9f7fa091 	svcls	0x007fa091
    23e0:	00000070 	andeq	r0, r0, r0, ror r0
    23e4:	00000078 	andeq	r0, r0, r8, ror r0
    23e8:	78520001 	ldmdavc	r2, {r0}^
    23ec:	78000000 	stmdavc	r0, {}	; <UNPREDICTABLE>
    23f0:	01000000 	mrseq	r0, (UNDEF: 0)
    23f4:	00785400 	rsbseq	r5, r8, r0, lsl #8
    23f8:	00880000 	addeq	r0, r8, r0
    23fc:	00030000 	andeq	r0, r3, r0
    2400:	889f0174 	ldmhi	pc, {r2, r4, r5, r6, r8}	; <UNPREDICTABLE>
    2404:	90000000 	andls	r0, r0, r0
    2408:	01000000 	mrseq	r0, (UNDEF: 0)
    240c:	00905400 	addseq	r5, r0, r0, lsl #8
    2410:	00a00000 	adceq	r0, r0, r0
    2414:	00030000 	andeq	r0, r3, r0
    2418:	a09f0274 	addsge	r0, pc, r4, ror r2	; <UNPREDICTABLE>
    241c:	b0000000 	andlt	r0, r0, r0
    2420:	01000000 	mrseq	r0, (UNDEF: 0)
    2424:	01945e00 	orrseq	r5, r4, r0, lsl #28
    2428:	019c0000 	orrseq	r0, ip, r0
    242c:	00040000 	andeq	r0, r4, r0
    2430:	9f7fa091 	svcls	0x007fa091
    2434:	0000019c 	muleq	r0, ip, r1
    2438:	000001a4 	andeq	r0, r0, r4, lsr #3
    243c:	a4520001 	ldrbge	r0, [r2], #-1
    2440:	a4000001 	strge	r0, [r0], #-1
    2444:	01000001 	tsteq	r0, r1
    2448:	01a45e00 			; <UNDEFINED> instruction: 0x01a45e00
    244c:	01b40000 			; <UNDEFINED> instruction: 0x01b40000
    2450:	00030000 	andeq	r0, r3, r0
    2454:	b49f017e 	ldrlt	r0, [pc], #382	; 245c <__code_start__-0x5ba4>
    2458:	c0000001 	andgt	r0, r0, r1
    245c:	01000001 	tsteq	r0, r1
    2460:	01c05e00 	biceq	r5, r0, r0, lsl #28
    2464:	02280000 	eoreq	r0, r8, #0, 0
    2468:	00040000 	andeq	r0, r4, r0
    246c:	9f7fa091 	svcls	0x007fa091
    2470:	00000228 	andeq	r0, r0, r8, lsr #4
    2474:	00000234 	andeq	r0, r0, r4, lsr r2
    2478:	34520001 	ldrbcc	r0, [r2], #-1
    247c:	58000002 	stmdapl	r0, {r1}
    2480:	01000002 	tsteq	r0, r2
    2484:	02585e00 	subseq	r5, r8, #0, 28
    2488:	025c0000 	subseq	r0, ip, #0, 0
    248c:	00030000 	andeq	r0, r3, r0
    2490:	5c9f017e 	ldfpls	f0, [pc], {126}	; 0x7e
    2494:	64000002 	strvs	r0, [r0], #-2
    2498:	01000002 	tsteq	r0, r2
    249c:	02645e00 	rsbeq	r5, r4, #0, 28
    24a0:	02700000 	rsbseq	r0, r0, #0, 0
    24a4:	00030000 	andeq	r0, r3, r0
    24a8:	709f0271 	addsvc	r0, pc, r1, ror r2	; <UNPREDICTABLE>
    24ac:	74000002 	strvc	r0, [r0], #-2
    24b0:	01000002 	tsteq	r0, r2
    24b4:	02745e00 	rsbseq	r5, r4, #0, 28
    24b8:	02740000 	rsbseq	r0, r4, #0, 0
    24bc:	00040000 	andeq	r0, r4, r0
    24c0:	9f7fa091 	svcls	0x007fa091
    24c4:	00000274 	andeq	r0, r0, r4, ror r2
    24c8:	000002a0 	andeq	r0, r0, r0, lsr #5
    24cc:	a1910004 	orrsge	r0, r1, r4
    24d0:	02c09f7f 	sbceq	r9, r0, #508	; 0x1fc
    24d4:	02c80000 	sbceq	r0, r8, #0, 0
    24d8:	00010000 	andeq	r0, r1, r0
    24dc:	0002c85e 	andeq	ip, r2, lr, asr r8
    24e0:	0002cc00 	andeq	ip, r2, r0, lsl #24
    24e4:	56000100 	strpl	r0, [r0], -r0, lsl #2
    24e8:	000002cc 	andeq	r0, r0, ip, asr #5
    24ec:	000002ec 	andeq	r0, r0, ip, ror #5
    24f0:	a0910004 	addsge	r0, r1, r4
    24f4:	02ec9f7f 	rsceq	r9, ip, #508	; 0x1fc
    24f8:	02fc0000 	rscseq	r0, ip, #0, 0
    24fc:	00040000 	andeq	r0, r4, r0
    2500:	9f7fa191 	svcls	0x007fa191
    2504:	000002fc 	strdeq	r0, [r0], -ip
    2508:	00000328 	andeq	r0, r0, r8, lsr #6
    250c:	005e0001 	subseq	r0, lr, r1
	...
    2524:	01010000 	mrseq	r0, (UNDEF: 1)
	...
    2538:	00002000 	andeq	r2, r0, r0
    253c:	00007000 	andeq	r7, r0, r0
    2540:	52000100 	andpl	r0, r0, #0
    2544:	00000070 	andeq	r0, r0, r0, ror r0
    2548:	00000094 	muleq	r0, r4, r0
    254c:	945c0001 	ldrbls	r0, [ip], #-1
    2550:	9c000001 	stcls	0, cr0, [r0], {1}
    2554:	01000001 	tsteq	r0, r1
    2558:	019c5200 	orrseq	r5, ip, r0, lsl #4
    255c:	01c00000 	biceq	r0, r0, r0
    2560:	00010000 	andeq	r0, r1, r0
    2564:	0001c85c 	andeq	ip, r1, ip, asr r8
    2568:	00021000 	andeq	r1, r2, r0
    256c:	5c000100 	stfpls	f0, [r0], {-0}
    2570:	00000210 	andeq	r0, r0, r0, lsl r2
    2574:	00000224 	andeq	r0, r0, r4, lsr #4
    2578:	24520001 	ldrbcs	r0, [r2], #-1
    257c:	48000002 	stmdami	r0, {r1}
    2580:	01000002 	tsteq	r0, r2
    2584:	02485c00 	subeq	r5, r8, #0, 24
    2588:	025c0000 	subseq	r0, ip, #0, 0
    258c:	00010000 	andeq	r0, r1, r0
    2590:	00025c55 	andeq	r5, r2, r5, asr ip
    2594:	00026800 	andeq	r6, r2, r0, lsl #16
    2598:	5c000100 	stfpls	f0, [r0], {-0}
    259c:	00000268 	andeq	r0, r0, r8, ror #4
    25a0:	00000274 	andeq	r0, r0, r4, ror r2
    25a4:	00750019 	rsbseq	r0, r5, r9, lsl r0
    25a8:	25f72cf7 	ldrbcs	r2, [r7, #3319]!	; 0xcf7
    25ac:	2cf70076 	ldclcs	0, cr0, [r7], #472	; 0x1d8
    25b0:	081e25f7 	ldmdaeq	lr, {r0, r1, r2, r4, r5, r6, r7, r8, sl, sp}
    25b4:	2525f720 	strcs	pc, [r5, #-1824]!	; 0xfffff8e0
    25b8:	00f72cf7 	ldrshteq	r2, [r7], #199	; 0xc7
    25bc:	749f2533 	ldrvc	r2, [pc], #1331	; 25c4 <__code_start__-0x5a3c>
    25c0:	88000002 	stmdahi	r0, {r1}
    25c4:	01000002 	tsteq	r0, r2
    25c8:	02885200 	addeq	r5, r8, #0, 4
    25cc:	02a00000 	adceq	r0, r0, #0, 0
    25d0:	00010000 	andeq	r0, r1, r0
    25d4:	0002cc5c 	andeq	ip, r2, ip, asr ip
    25d8:	0002d000 	andeq	sp, r2, r0
    25dc:	52000100 	andpl	r0, r0, #0
    25e0:	000002d0 	ldrdeq	r0, [r0], -r0	; <UNPREDICTABLE>
    25e4:	000002e7 	andeq	r0, r0, r7, ror #5
    25e8:	e75c0001 	ldrb	r0, [ip, -r1]
    25ec:	ec000002 	stc	0, cr0, [r0], {2}
    25f0:	04000002 	streq	r0, [r0], #-2
    25f4:	5201f300 	andpl	pc, r1, #0, 6
    25f8:	0002ec9f 	muleq	r2, pc, ip	; <UNPREDICTABLE>
    25fc:	00030000 	andeq	r0, r3, r0
    2600:	52000100 	andpl	r0, r0, #0
    2604:	00000300 	andeq	r0, r0, r0, lsl #6
    2608:	00000328 	andeq	r0, r0, r8, lsr #6
    260c:	005c0001 	subseq	r0, ip, r1
    2610:	00000000 	andeq	r0, r0, r0
    2614:	04000000 	streq	r0, [r0], #-0
    2618:	00000400 	andeq	r0, r0, r0, lsl #8
    261c:	04000001 	streq	r0, [r0], #-1
    2620:	0000a400 	andeq	sl, r0, r0, lsl #8
    2624:	0000b000 	andeq	fp, r0, r0
    2628:	53000100 	movwpl	r0, #256	; 0x100
    262c:	0000027c 	andeq	r0, r0, ip, ror r2
    2630:	00000290 	muleq	r0, r0, r2
    2634:	90530001 	subsls	r0, r3, r1
    2638:	9c000002 	stcls	0, cr0, [r0], {2}
    263c:	04000002 	streq	r0, [r0], #-2
    2640:	5301f300 	movwpl	pc, #4864	; 0x1300	; <UNPREDICTABLE>
    2644:	0002c09f 	muleq	r2, pc, r0	; <UNPREDICTABLE>
    2648:	0002cc00 	andeq	ip, r2, r0, lsl #24
    264c:	53000100 	movwpl	r0, #256	; 0x100
    2650:	000002f0 	strdeq	r0, [r0], -r0	; <UNPREDICTABLE>
    2654:	00000328 	andeq	r0, r0, r8, lsr #6
    2658:	7f080003 	svcvc	0x00080003
    265c:	0000009f 	muleq	r0, pc, r0	; <UNPREDICTABLE>
    2660:	00000000 	andeq	r0, r0, r0
    2664:	00000400 	andeq	r0, r0, r0, lsl #8
    2668:	00000401 	andeq	r0, r0, r1, lsl #8
    266c:	00000001 	andeq	r0, r0, r1
    2670:	00000400 	andeq	r0, r0, r0, lsl #8
    2674:	0000a400 	andeq	sl, r0, r0, lsl #8
    2678:	0000b000 	andeq	fp, r0, r0
    267c:	52000100 	andpl	r0, r0, #0
    2680:	000000b0 	strheq	r0, [r0], -r0	; <UNPREDICTABLE>
    2684:	0000015c 	andeq	r0, r0, ip, asr r1
    2688:	a0910004 	addsge	r0, r1, r4
    268c:	027c9f7f 	rsbseq	r9, ip, #508	; 0x1fc
    2690:	02940000 	addseq	r0, r4, #0, 0
    2694:	00040000 	andeq	r0, r4, r0
    2698:	9f7fa091 	svcls	0x007fa091
    269c:	00000294 	muleq	r0, r4, r2
    26a0:	0000029c 	muleq	r0, ip, r2
    26a4:	b45e0001 	ldrblt	r0, [lr], #-1
    26a8:	c0000002 	andgt	r0, r0, r2
    26ac:	04000002 	streq	r0, [r0], #-2
    26b0:	7fa09100 	svcvc	0x00a09100
    26b4:	0002c09f 	muleq	r2, pc, r0	; <UNPREDICTABLE>
    26b8:	0002cc00 	andeq	ip, r2, r0, lsl #24
    26bc:	52000100 	andpl	r0, r0, #0
    26c0:	000002f0 	strdeq	r0, [r0], -r0	; <UNPREDICTABLE>
    26c4:	00000300 	andeq	r0, r0, r0, lsl #6
    26c8:	a0910004 	addsge	r0, r1, r4
    26cc:	03009f7f 	movweq	r9, #3967	; 0xf7f
    26d0:	03280000 			; <UNDEFINED> instruction: 0x03280000
    26d4:	00010000 	andeq	r0, r1, r0
    26d8:	00000052 	andeq	r0, r0, r2, asr r0
    26dc:	00000000 	andeq	r0, r0, r0
    26e0:	00000400 	andeq	r0, r0, r0, lsl #8
    26e4:	01010101 	tsteq	r1, r1, lsl #2
    26e8:	04020303 	streq	r0, [r2], #-771	; 0xfffffcfd
    26ec:	00000001 	andeq	r0, r0, r1
    26f0:	00000400 	andeq	r0, r0, r0, lsl #8
    26f4:	0000a400 	andeq	sl, r0, r0, lsl #8
    26f8:	0000b000 	andeq	fp, r0, r0
    26fc:	5e000100 	adfpls	f0, f0, f0
    2700:	0000010c 	andeq	r0, r0, ip, lsl #2
    2704:	0000010c 	andeq	r0, r0, ip, lsl #2
    2708:	0c550001 	mrrceq	0, 0, r0, r5, cr1
    270c:	20000001 	andcs	r0, r0, r1
    2710:	03000001 	movweq	r0, #1
    2714:	9f017500 	svcls	0x00017500
    2718:	00000120 	andeq	r0, r0, r0, lsr #2
    271c:	0000012c 	andeq	r0, r0, ip, lsr #2
    2720:	02750003 	rsbseq	r0, r5, #3, 0
    2724:	00012c9f 	muleq	r1, pc, ip	; <UNPREDICTABLE>
    2728:	00013000 	andeq	r3, r1, r0
    272c:	75000300 	strvc	r0, [r0, #-768]	; 0xfffffd00
    2730:	027c9f03 	rsbseq	r9, ip, #3, 30
    2734:	029c0000 	addseq	r0, ip, #0, 0
    2738:	00040000 	andeq	r0, r4, r0
    273c:	9f7fa191 	svcls	0x007fa191
    2740:	000002c0 	andeq	r0, r0, r0, asr #5
    2744:	000002c8 	andeq	r0, r0, r8, asr #5
    2748:	c85e0001 	ldmdagt	lr, {r0}^
    274c:	cc000002 	stcgt	0, cr0, [r0], {2}
    2750:	01000002 	tsteq	r0, r2
    2754:	02f05600 	rscseq	r5, r0, #0, 12
    2758:	02fc0000 	rscseq	r0, ip, #0, 0
    275c:	00040000 	andeq	r0, r4, r0
    2760:	9f7fa191 	svcls	0x007fa191
    2764:	000002fc 	strdeq	r0, [r0], -ip
    2768:	00000328 	andeq	r0, r0, r8, lsr #6
    276c:	005e0001 	subseq	r0, lr, r1
	...
    2778:	01010000 	mrseq	r0, (UNDEF: 1)
    277c:	01010101 	tsteq	r1, r1, lsl #2
    2780:	00010602 	andeq	r0, r1, r2, lsl #12
    2784:	a8000600 	stmdage	r0, {r9, sl}
    2788:	b0000000 	andlt	r0, r0, r0
    278c:	01000000 	mrseq	r0, (UNDEF: 0)
    2790:	010c5100 	mrseq	r5, (UNDEF: 28)
    2794:	011c0000 	tsteq	ip, r0
    2798:	00010000 	andeq	r0, r1, r0
    279c:	00011c5c 	andeq	r1, r1, ip, asr ip
    27a0:	00012c00 	andeq	r2, r1, r0, lsl #24
    27a4:	58000100 	stmdapl	r0, {r8}
    27a8:	0000012c 	andeq	r0, r0, ip, lsr #2
    27ac:	00000130 	andeq	r0, r0, r0, lsr r1
    27b0:	305c0001 	subscc	r0, ip, r1
    27b4:	30000001 	andcc	r0, r0, r1
    27b8:	03000001 	movweq	r0, #1
    27bc:	9f017c00 	svcls	0x00017c00
    27c0:	0000027c 	andeq	r0, r0, ip, ror r2
    27c4:	0000029c 	muleq	r0, ip, r2
    27c8:	9f310002 	svcls	0x00310002
    27cc:	000002c0 	andeq	r0, r0, r0, asr #5
    27d0:	000002cc 	andeq	r0, r0, ip, asr #5
    27d4:	f0510001 			; <UNDEFINED> instruction: 0xf0510001
    27d8:	28000002 	stmdacs	r0, {r1}
    27dc:	02000003 	andeq	r0, r0, #3, 0
    27e0:	009f3100 	addseq	r3, pc, r0, lsl #2
    27e4:	00000000 	andeq	r0, r0, r0
    27e8:	01000000 	mrseq	r0, (UNDEF: 0)
    27ec:	01010606 	tsteq	r1, r6, lsl #12
    27f0:	5c010000 	stcpl	0, cr0, [r1], {-0}
    27f4:	5c000001 	stcpl	0, cr0, [r0], {1}
    27f8:	04000001 	streq	r0, [r0], #-1
    27fc:	7fa09100 	svcvc	0x00a09100
    2800:	00015c9f 	muleq	r1, pc, ip	; <UNPREDICTABLE>
    2804:	00018c00 	andeq	r8, r1, r0, lsl #24
    2808:	52000100 	andpl	r0, r0, #0
    280c:	0000029c 	muleq	r0, ip, r2
    2810:	000002a0 	andeq	r0, r0, r0, lsr #5
    2814:	a05e0001 	subsge	r0, lr, r1
    2818:	ac000002 	stcge	0, cr0, [r0], {2}
    281c:	01000002 	tsteq	r0, r2
    2820:	00005200 	andeq	r5, r0, r0, lsl #4
	...
    282c:	00010100 	andeq	r0, r1, r0, lsl #2
    2830:	016c0701 	cmneq	ip, r1, lsl #14
    2834:	01700000 	cmneq	r0, r0
    2838:	00030000 	andeq	r0, r3, r0
    283c:	709f7f73 	addsvc	r7, pc, r3, ror pc	; <UNPREDICTABLE>
    2840:	78000001 	stmdavc	r0, {r0}
    2844:	01000001 	tsteq	r0, r1
    2848:	01785300 	cmneq	r8, r0, lsl #6
    284c:	01840000 	orreq	r0, r4, r0
    2850:	00030000 	andeq	r0, r3, r0
    2854:	9c9f7f73 	ldcls	15, cr7, [pc], {115}	; 0x73
    2858:	9c000002 	stcls	0, cr0, [r0], {2}
    285c:	04000002 	streq	r0, [r0], #-2
    2860:	7fa19100 	svcvc	0x00a19100
    2864:	0000009f 	muleq	r0, pc, r0	; <UNPREDICTABLE>
    2868:	00000000 	andeq	r0, r0, r0
    286c:	01010100 	mrseq	r0, (UNDEF: 17)
    2870:	00015c01 	andeq	r5, r1, r1, lsl #24
    2874:	00018c00 	andeq	r8, r1, r0, lsl #24
    2878:	08000300 	stmdaeq	r0, {r8, r9}
    287c:	029c9f80 	addseq	r9, ip, #128, 30	; 0x200
    2880:	02ac0000 	adceq	r0, ip, #0, 0
    2884:	00030000 	andeq	r0, r3, r0
    2888:	009f8008 	addseq	r8, pc, r8
    288c:	00000000 	andeq	r0, r0, r0
    2890:	01000000 	mrseq	r0, (UNDEF: 0)
    2894:	01010000 	mrseq	r0, (UNDEF: 1)
    2898:	01010000 	mrseq	r0, (UNDEF: 1)
    289c:	01010101 	tsteq	r1, r1, lsl #2
    28a0:	00015c01 	andeq	r5, r1, r1, lsl #24
    28a4:	00016c00 	andeq	r6, r1, r0, lsl #24
    28a8:	50000100 	andpl	r0, r0, r0, lsl #2
    28ac:	0000016c 	andeq	r0, r0, ip, ror #2
    28b0:	0000016c 	andeq	r0, r0, ip, ror #2
    28b4:	017c0003 	cmneq	ip, r3
    28b8:	00016c9f 	muleq	r1, pc, ip	; <UNPREDICTABLE>
    28bc:	00017800 	andeq	r7, r1, r0, lsl #16
    28c0:	7c000300 	stcvc	3, cr0, [r0], {-0}
    28c4:	01789f02 	cmneq	r8, r2, lsl #30
    28c8:	01880000 	orreq	r0, r8, r0
    28cc:	00030000 	andeq	r0, r3, r0
    28d0:	889f017c 	ldmhi	pc, {r2, r3, r4, r5, r6, r8}	; <UNPREDICTABLE>
    28d4:	8c000001 	stchi	0, cr0, [r0], {1}
    28d8:	03000001 	movweq	r0, #1
    28dc:	9f017e00 	svcls	0x00017e00
    28e0:	0000029c 	muleq	r0, ip, r2
    28e4:	000002a4 	andeq	r0, r0, r4, lsr #5
    28e8:	a4500001 	ldrbge	r0, [r0], #-1
    28ec:	ac000002 	stcge	0, cr0, [r0], {2}
    28f0:	03000002 	movweq	r0, #2
    28f4:	9f017e00 	svcls	0x00017e00
	...
    2900:	00040004 	andeq	r0, r4, r4
    2904:	015c0100 	cmpeq	ip, r0, lsl #2
    2908:	01600000 	cmneq	r0, r0
    290c:	00030000 	andeq	r0, r3, r0
    2910:	9c9f0171 	ldflss	f0, [pc], {113}	; 0x71
    2914:	a0000002 	andge	r0, r0, r2
    2918:	02000002 	andeq	r0, r0, #2, 0
    291c:	a09f3200 	addsge	r3, pc, r0, lsl #4
    2920:	ac000002 	stcge	0, cr0, [r0], {2}
    2924:	03000002 	movweq	r0, #2
    2928:	9f017100 	svcls	0x00017100
	...
    2934:	00060007 	andeq	r0, r6, r7
    2938:	0000015c 	andeq	r0, r0, ip, asr r1
    293c:	00000194 	muleq	r0, r4, r1
    2940:	9c500001 	mrrcls	0, 0, r0, r0, cr1	; <UNPREDICTABLE>
    2944:	b4000002 	strlt	r0, [r0], #-2
    2948:	01000002 	tsteq	r0, r2
    294c:	00005000 	andeq	r5, r0, r0
    2950:	00000000 	andeq	r0, r0, r0
    2954:	01010000 	mrseq	r0, (UNDEF: 1)
    2958:	02140001 	andseq	r0, r4, #1, 0
    295c:	02200000 	eoreq	r0, r0, #0, 0
    2960:	00020000 	andeq	r0, r2, r0
    2964:	02209f30 	eoreq	r9, r0, #48, 30	; 0xc0
    2968:	02340000 	eorseq	r0, r4, #0, 0
    296c:	00020000 	andeq	r0, r2, r0
    2970:	00009f31 	andeq	r9, r0, r1, lsr pc
    2974:	00000000 	andeq	r0, r0, r0
    2978:	01000000 	mrseq	r0, (UNDEF: 0)
    297c:	01000001 	tsteq	r0, r1
    2980:	01000001 	tsteq	r0, r1
    2984:	01000001 	tsteq	r0, r1
    2988:	01000001 	tsteq	r0, r1
    298c:	02000001 	andeq	r0, r0, #1, 0
    2990:	00800102 	addeq	r0, r0, r2, lsl #2
    2994:	00800000 	addeq	r0, r0, r0
    2998:	00010000 	andeq	r0, r1, r0
    299c:	00008053 	andeq	r8, r0, r3, asr r0
    29a0:	00008c00 	andeq	r8, r0, r0, lsl #24
    29a4:	73000300 	movwvc	r0, #768	; 0x300
    29a8:	008c9f04 	addeq	r9, ip, r4, lsl #30
    29ac:	00940000 	addseq	r0, r4, r0
    29b0:	00010000 	andeq	r0, r1, r0
    29b4:	00009451 	andeq	r9, r0, r1, asr r4
    29b8:	00009800 	andeq	r9, r0, r0, lsl #16
    29bc:	73000300 	movwvc	r0, #768	; 0x300
    29c0:	00989f08 	addseq	r9, r8, r8, lsl #30
    29c4:	00a40000 	adceq	r0, r4, r0
    29c8:	00010000 	andeq	r0, r1, r0
    29cc:	0000a451 	andeq	sl, r0, r1, asr r4
    29d0:	0000a800 	andeq	sl, r0, r0, lsl #16
    29d4:	73000300 	movwvc	r0, #768	; 0x300
    29d8:	00a89f0c 	adceq	r9, r8, ip, lsl #30
    29dc:	00b40000 	adcseq	r0, r4, r0
    29e0:	00010000 	andeq	r0, r1, r0
    29e4:	0000b451 	andeq	fp, r0, r1, asr r4
    29e8:	0000b800 	andeq	fp, r0, r0, lsl #16
    29ec:	73000300 	movwvc	r0, #768	; 0x300
    29f0:	00b89f10 	adcseq	r9, r8, r0, lsl pc
    29f4:	00c40000 	sbceq	r0, r4, r0
    29f8:	00010000 	andeq	r0, r1, r0
    29fc:	0000c451 	andeq	ip, r0, r1, asr r4
    2a00:	0000c800 	andeq	ip, r0, r0, lsl #16
    2a04:	73000300 	movwvc	r0, #768	; 0x300
    2a08:	00c89f14 	sbceq	r9, r8, r4, lsl pc
    2a0c:	00d00000 	sbcseq	r0, r0, r0
    2a10:	00010000 	andeq	r0, r1, r0
    2a14:	0000d051 	andeq	sp, r0, r1, asr r0
    2a18:	0000d400 	andeq	sp, r0, r0, lsl #8
    2a1c:	71000300 	mrsvc	r0, LR_irq
    2a20:	00009f04 	andeq	r9, r0, r4, lsl #30
    2a24:	00000000 	andeq	r0, r0, r0
    2a28:	00010000 	andeq	r0, r1, r0
    2a2c:	00000108 	andeq	r0, r0, r8, lsl #2
    2a30:	0000010b 	andeq	r0, r0, fp, lsl #2
    2a34:	00510001 	subseq	r0, r1, r1
    2a38:	00000000 	andeq	r0, r0, r0
    2a3c:	02000000 	andeq	r0, r0, #0, 0
    2a40:	0000d800 	andeq	sp, r0, r0, lsl #16
    2a44:	00011000 	andeq	r1, r1, r0
    2a48:	31000200 	mrscc	r0, R8_usr
    2a4c:	0000009f 	muleq	r0, pc, r0	; <UNPREDICTABLE>
    2a50:	00000000 	andeq	r0, r0, r0
    2a54:	e0030500 	and	r0, r3, r0, lsl #10
    2a58:	e4000000 	str	r0, [r0], #-0
    2a5c:	02000000 	andeq	r0, r0, #0, 0
    2a60:	009f3000 	addseq	r3, pc, r0
    2a64:	00000000 	andeq	r0, r0, r0
    2a68:	01000000 	mrseq	r0, (UNDEF: 0)
    2a6c:	0000e400 	andeq	lr, r0, r0, lsl #8
    2a70:	0000ef00 	andeq	lr, r0, r0, lsl #30
    2a74:	53000100 	movwpl	r0, #256	; 0x100
	...
    2a80:	00e40100 	rsceq	r0, r4, r0, lsl #2
    2a84:	00ec0000 	rsceq	r0, ip, r0
    2a88:	00010000 	andeq	r0, r1, r0
    2a8c:	00000053 	andeq	r0, r0, r3, asr r0
    2a90:	00000000 	andeq	r0, r0, r0
    2a94:	00000400 	andeq	r0, r0, r0, lsl #8
    2a98:	0000f001 	andeq	pc, r0, r1
    2a9c:	00010400 	andeq	r0, r1, r0, lsl #8
    2aa0:	30000200 	andcc	r0, r0, r0, lsl #4
    2aa4:	0001049f 	muleq	r1, pc, r4	; <UNPREDICTABLE>
    2aa8:	00010800 	andeq	r0, r1, r0, lsl #16
    2aac:	51000100 	mrspl	r0, (UNDEF: 16)
	...
    2ab8:	00f40001 	rscseq	r0, r4, r1
    2abc:	010b0000 	mrseq	r0, (UNDEF: 11)
    2ac0:	00010000 	andeq	r0, r1, r0
    2ac4:	00000053 	andeq	r0, r0, r3, asr r0
    2ac8:	00000000 	andeq	r0, r0, r0
    2acc:	f4010000 	vst4.8	{d0-d3}, [r1], r0
    2ad0:	08000000 	stmdaeq	r0, {}	; <UNPREDICTABLE>
    2ad4:	01000001 	tsteq	r0, r1
    2ad8:	00005300 	andeq	r5, r0, r0, lsl #6
    2adc:	00000000 	andeq	r0, r0, r0
    2ae0:	00040000 	andeq	r0, r4, r0
    2ae4:	9ce80100 	stflse	f0, [r8]
    2ae8:	9cf00000 	ldclls	0, cr0, [r0]
    2aec:	00020000 	andeq	r0, r2, r0
    2af0:	9cf09f30 	ldclls	15, cr9, [r0], #192	; 0xc0
    2af4:	9cf00000 	ldclls	0, cr0, [r0]
    2af8:	00010000 	andeq	r0, r1, r0
    2afc:	00000053 	andeq	r0, r0, r3, asr r0
    2b00:	00000000 	andeq	r0, r0, r0
    2b04:	00000300 	andeq	r0, r0, r0, lsl #6
    2b08:	00000000 	andeq	r0, r0, r0
    2b0c:	009cfc00 	addseq	pc, ip, r0, lsl #24
    2b10:	009d0000 	addseq	r0, sp, r0
    2b14:	30000200 	andcc	r0, r0, r0, lsl #4
    2b18:	009d009f 	umullseq	r0, sp, pc, r0	; <UNPREDICTABLE>
    2b1c:	009d0400 	addseq	r0, sp, r0, lsl #8
    2b20:	53000100 	movwpl	r0, #256	; 0x100
    2b24:	00009d04 	andeq	r9, r0, r4, lsl #26
    2b28:	00009d08 	andeq	r9, r0, r8, lsl #26
    2b2c:	00730005 	rsbseq	r0, r3, r5
    2b30:	089f2140 	ldmeq	pc, {r6, r8, sp}	; <UNPREDICTABLE>
    2b34:	0c00009d 	stceq	0, cr0, [r0], {157}	; 0x9d
    2b38:	0100009d 	swpeq	r0, sp, [r0]	; <UNPREDICTABLE>
    2b3c:	00005300 	andeq	r5, r0, r0, lsl #6
    2b40:	00000000 	andeq	r0, r0, r0
    2b44:	00020000 	andeq	r0, r2, r0
    2b48:	9cbc0000 	ldcls	0, cr0, [ip]
    2b4c:	9cc00000 	stclls	0, cr0, [r0], {0}
    2b50:	00020000 	andeq	r0, r2, r0
    2b54:	9cc09f30 	stclls	15, cr9, [r0], {48}	; 0x30
    2b58:	9cc40000 	stclls	0, cr0, [r4], {0}
    2b5c:	00010000 	andeq	r0, r1, r0
    2b60:	00000050 	andeq	r0, r0, r0, asr r0
    2b64:	00000000 	andeq	r0, r0, r0
    2b68:	00000200 	andeq	r0, r0, r0, lsl #4
    2b6c:	00000000 	andeq	r0, r0, r0
    2b70:	009cd400 	addseq	sp, ip, r0, lsl #8
    2b74:	009cd800 	addseq	sp, ip, r0, lsl #16
    2b78:	30000200 	andcc	r0, r0, r0, lsl #4
    2b7c:	009cd89f 	umullseq	sp, ip, pc, r8	; <UNPREDICTABLE>
    2b80:	009cdc00 	addseq	sp, ip, r0, lsl #24
    2b84:	53000100 	movwpl	r0, #256	; 0x100
    2b88:	00009cdc 	ldrdeq	r9, [r0], -ip
    2b8c:	00009ce0 	andeq	r9, r0, r0, ror #25
    2b90:	00730005 	rsbseq	r0, r3, r5
    2b94:	e09f2140 	adds	r2, pc, r0, asr #2
    2b98:	e800009c 	stmda	r0, {r2, r3, r4, r7}
    2b9c:	0100009c 	swpeq	r0, ip, [r0]	; <UNPREDICTABLE>
    2ba0:	00005300 	andeq	r5, r0, r0, lsl #6
	...
    2bac:	00c80000 	sbceq	r0, r8, r0
    2bb0:	00d80000 	sbcseq	r0, r8, r0
    2bb4:	00010000 	andeq	r0, r1, r0
    2bb8:	0000d850 	andeq	sp, r0, r0, asr r8
    2bbc:	00011c00 	andeq	r1, r1, r0, lsl #24
    2bc0:	f3000400 	vshl.u8	d0, d0, d0
    2bc4:	009f5001 	addseq	r5, pc, r1
    2bc8:	00000000 	andeq	r0, r0, r0
    2bcc:	02000000 	andeq	r0, r0, #0, 0
    2bd0:	c8000000 	stmdagt	r0, {}	; <UNPREDICTABLE>
    2bd4:	d8000000 	stmdale	r0, {}	; <UNPREDICTABLE>
    2bd8:	07000000 	streq	r0, [r0, -r0]
    2bdc:	0a007000 	beq	1ebe4 <__bss_end__+0x14034>
    2be0:	9f1e03e8 	svcls	0x001e03e8
    2be4:	000000d8 	ldrdeq	r0, [r0], -r8
    2be8:	0000011c 	andeq	r0, r0, ip, lsl r1
    2bec:	01f30008 	mvnseq	r0, r8
    2bf0:	03e80a50 	mvneq	r0, #80, 20	; 0x50000
    2bf4:	00009f1e 	andeq	r9, r0, lr, lsl pc
	...
    2c00:	000000dc 	ldrdeq	r0, [r0], -ip
    2c04:	0000011c 	andeq	r0, r0, ip, lsl r1
    2c08:	00540001 	subseq	r0, r4, r1
    2c0c:	00000000 	andeq	r0, r0, r0
    2c10:	01000000 	mrseq	r0, (UNDEF: 0)
    2c14:	0000f000 	andeq	pc, r0, r0
    2c18:	00011c00 	andeq	r1, r1, r0, lsl #24
    2c1c:	56000100 	strpl	r0, [r0], -r0, lsl #2
	...
    2c2c:	000000ec 	andeq	r0, r0, ip, ror #1
    2c30:	000000ef 	andeq	r0, r0, pc, ror #1
    2c34:	ef500001 	svc	0x00500001
    2c38:	1c000000 	stcne	0, cr0, [r0], {-0}
    2c3c:	01000001 	tsteq	r0, r1
    2c40:	00005600 	andeq	r5, r0, r0, lsl #12
	...
    2c4c:	00000104 	andeq	r0, r0, r4, lsl #2
    2c50:	0000010b 	andeq	r0, r0, fp, lsl #2
    2c54:	00500001 	subseq	r0, r0, r1
	...
    2c60:	20000000 	andcs	r0, r0, r0
    2c64:	23000000 	movwcs	r0, #0
    2c68:	01000000 	mrseq	r0, (UNDEF: 0)
    2c6c:	00235000 	eoreq	r5, r3, r0
    2c70:	00300000 	eorseq	r0, r0, r0
    2c74:	00010000 	andeq	r0, r1, r0
    2c78:	00000054 	andeq	r0, r0, r4, asr r0
	...
    2c84:	00003000 	andeq	r3, r0, r0
    2c88:	00003b00 	andeq	r3, r0, r0, lsl #22
    2c8c:	50000100 	andpl	r0, r0, r0, lsl #2
    2c90:	0000003b 	andeq	r0, r0, fp, lsr r0
    2c94:	00000078 	andeq	r0, r0, r8, ror r0
    2c98:	00560001 	subseq	r0, r6, r1
    2c9c:	00000000 	andeq	r0, r0, r0
    2ca0:	01000000 	mrseq	r0, (UNDEF: 0)
    2ca4:	00004c00 	andeq	r4, r0, r0, lsl #24
    2ca8:	00007800 	andeq	r7, r0, r0, lsl #16
    2cac:	55000100 	strpl	r0, [r0, #-256]	; 0xffffff00
	...
    2cbc:	00000048 	andeq	r0, r0, r8, asr #32
    2cc0:	0000004b 	andeq	r0, r0, fp, asr #32
    2cc4:	4b500001 	blmi	1402cd0 <__bss_end__+0x13f8120>
    2cc8:	78000000 	stmdavc	r0, {}	; <UNPREDICTABLE>
    2ccc:	01000000 	mrseq	r0, (UNDEF: 0)
    2cd0:	00005500 	andeq	r5, r0, r0, lsl #10
	...
    2cdc:	00000060 	andeq	r0, r0, r0, rrx
    2ce0:	00000067 	andeq	r0, r0, r7, rrx
    2ce4:	00500001 	subseq	r0, r0, r1
	...
    2cf0:	78000000 	stmdavc	r0, {}	; <UNPREDICTABLE>
    2cf4:	84000000 	strhi	r0, [r0], #-0
    2cf8:	01000000 	mrseq	r0, (UNDEF: 0)
    2cfc:	00845000 	addeq	r5, r4, r0
    2d00:	00c80000 	sbceq	r0, r8, r0
    2d04:	00040000 	andeq	r0, r4, r0
    2d08:	9f5001f3 	svcls	0x005001f3
	...
    2d14:	00880000 	addeq	r0, r8, r0
    2d18:	00c80000 	sbceq	r0, r8, r0
    2d1c:	00010000 	andeq	r0, r1, r0
    2d20:	00000054 	andeq	r0, r0, r4, asr r0
    2d24:	00000000 	andeq	r0, r0, r0
    2d28:	9c000100 	stflss	f0, [r0], {-0}
    2d2c:	c8000000 	stmdagt	r0, {}	; <UNPREDICTABLE>
    2d30:	01000000 	mrseq	r0, (UNDEF: 0)
    2d34:	00005600 	andeq	r5, r0, r0, lsl #12
	...
    2d40:	00980000 	addseq	r0, r8, r0
    2d44:	009b0000 	addseq	r0, fp, r0
    2d48:	00010000 	andeq	r0, r1, r0
    2d4c:	00009b50 	andeq	r9, r0, r0, asr fp
    2d50:	0000c800 	andeq	ip, r0, r0, lsl #16
    2d54:	56000100 	strpl	r0, [r0], -r0, lsl #2
	...
    2d60:	00b00000 	adcseq	r0, r0, r0
    2d64:	00b70000 	adcseq	r0, r7, r0
    2d68:	00010000 	andeq	r0, r1, r0
    2d6c:	00000050 	andeq	r0, r0, r0, asr r0
	...
    2d78:	00015800 	andeq	r5, r1, r0, lsl #16
    2d7c:	00016300 	andeq	r6, r1, r0, lsl #6
    2d80:	50000100 	andpl	r0, r0, r0, lsl #2
    2d84:	00000163 	andeq	r0, r0, r3, ror #2
    2d88:	00000188 	andeq	r0, r0, r8, lsl #3
    2d8c:	00540001 	subseq	r0, r4, r1
	...
    2d98:	00014800 	andeq	r4, r1, r0, lsl #16
    2d9c:	00015800 	andeq	r5, r1, r0, lsl #16
    2da0:	54000100 	strpl	r0, [r0], #-256	; 0xffffff00
	...
    2db4:	0000000f 	andeq	r0, r0, pc
    2db8:	0f500001 	svceq	0x00500001
    2dbc:	20000000 	andcs	r0, r0, r0
    2dc0:	01000000 	mrseq	r0, (UNDEF: 0)
    2dc4:	00005400 	andeq	r5, r0, r0, lsl #8
	...
    2dd4:	000f0000 	andeq	r0, pc, r0
    2dd8:	00010000 	andeq	r0, r1, r0
    2ddc:	00000f51 	andeq	r0, r0, r1, asr pc
    2de0:	00002000 	andeq	r2, r0, r0
    2de4:	55000100 	strpl	r0, [r0, #-256]	; 0xffffff00
	...
    2df4:	00000020 	andeq	r0, r0, r0, lsr #32
    2df8:	0000002f 	andeq	r0, r0, pc, lsr #32
    2dfc:	2f500001 	svccs	0x00500001
    2e00:	40000000 	andmi	r0, r0, r0
    2e04:	01000000 	mrseq	r0, (UNDEF: 0)
    2e08:	00005400 	andeq	r5, r0, r0, lsl #8
	...
    2e14:	00200000 	eoreq	r0, r0, r0
    2e18:	002f0000 	eoreq	r0, pc, r0
    2e1c:	00010000 	andeq	r0, r1, r0
    2e20:	00002f51 	andeq	r2, r0, r1, asr pc
    2e24:	00004000 	andeq	r4, r0, r0
    2e28:	55000100 	strpl	r0, [r0, #-256]	; 0xffffff00
	...
    2e3c:	0000000b 	andeq	r0, r0, fp
    2e40:	0b500001 	bleq	1402e4c <__bss_end__+0x13f829c>
    2e44:	14000000 	strne	r0, [r0], #-0
    2e48:	01000000 	mrseq	r0, (UNDEF: 0)
    2e4c:	00005400 	andeq	r5, r0, r0, lsl #8
	...
    2e5c:	00180000 	andseq	r0, r8, r0
    2e60:	00010000 	andeq	r0, r1, r0
    2e64:	00001851 	andeq	r1, r0, r1, asr r8
    2e68:	00002c00 	andeq	r2, r0, r0, lsl #24
    2e6c:	f3000400 	vshl.u8	d0, d0, d0
    2e70:	009f5101 	addseq	r5, pc, r1, lsl #2
    2e74:	00000000 	andeq	r0, r0, r0
    2e78:	02000000 	andeq	r0, r0, #0, 0
	...
    2e84:	00000101 	andeq	r0, r0, r1, lsl #2
    2e88:	00000000 	andeq	r0, r0, r0
    2e8c:	00000400 	andeq	r0, r0, r0, lsl #8
    2e90:	50000100 	andpl	r0, r0, r0, lsl #2
    2e94:	00000004 	andeq	r0, r0, r4
    2e98:	00000008 	andeq	r0, r0, r8
    2e9c:	08520001 	ldmdaeq	r2, {r0}^
    2ea0:	0c000000 	stceq	0, cr0, [r0], {-0}
    2ea4:	03000000 	movweq	r0, #0
    2ea8:	9f017200 	svcls	0x00017200
    2eac:	0000000c 	andeq	r0, r0, ip
    2eb0:	00000018 	andeq	r0, r0, r8, lsl r0
    2eb4:	18520001 	ldmdane	r2, {r0}^
    2eb8:	1c000000 	stcne	0, cr0, [r0], {-0}
    2ebc:	01000000 	mrseq	r0, (UNDEF: 0)
    2ec0:	001c5300 	andseq	r5, ip, r0, lsl #6
    2ec4:	00240000 	eoreq	r0, r4, r0
    2ec8:	00030000 	andeq	r0, r3, r0
    2ecc:	249f0173 	ldrcs	r0, [pc], #371	; 2ed4 <__code_start__-0x512c>
    2ed0:	2c000000 	stccs	0, cr0, [r0], {-0}
    2ed4:	01000000 	mrseq	r0, (UNDEF: 0)
    2ed8:	00005300 	andeq	r5, r0, r0, lsl #6
    2edc:	00000000 	andeq	r0, r0, r0
    2ee0:	02030000 	andeq	r0, r3, #0, 0
    2ee4:	00000002 	andeq	r0, r0, r2
    2ee8:	00000000 	andeq	r0, r0, r0
    2eec:	00000018 	andeq	r0, r0, r8, lsl r0
    2ef0:	18510001 	ldmdane	r1, {r0}^
    2ef4:	1c000000 	stcne	0, cr0, [r0], {-0}
    2ef8:	03000000 	movweq	r0, #0
    2efc:	9f017100 	svcls	0x00017100
    2f00:	0000001c 	andeq	r0, r0, ip, lsl r0
    2f04:	0000002c 	andeq	r0, r0, ip, lsr #32
    2f08:	00510001 	subseq	r0, r1, r1
	...
    2f18:	00000800 	andeq	r0, r0, r0, lsl #16
    2f1c:	00000c00 	andeq	r0, r0, r0, lsl #24
    2f20:	72000200 	andvc	r0, r0, #0, 4
    2f24:	00000c00 	andeq	r0, r0, r0, lsl #24
    2f28:	00001800 	andeq	r1, r0, r0, lsl #16
    2f2c:	73000200 	movwvc	r0, #512	; 0x200
    2f30:	00001c00 	andeq	r1, r0, r0, lsl #24
    2f34:	00002c00 	andeq	r2, r0, r0, lsl #24
    2f38:	52000100 	andpl	r0, r0, #0
	...
    2f54:	00000014 	andeq	r0, r0, r4, lsl r0
    2f58:	14500001 	ldrbne	r0, [r0], #-1
    2f5c:	18000000 	stmdane	r0, {}	; <UNPREDICTABLE>
    2f60:	03000000 	movweq	r0, #0
    2f64:	9f017000 	svcls	0x00017000
    2f68:	00000018 	andeq	r0, r0, r8, lsl r0
    2f6c:	00000020 	andeq	r0, r0, r0, lsr #32
    2f70:	24500001 	ldrbcs	r0, [r0], #-1
    2f74:	28000000 	stmdacs	r0, {}	; <UNPREDICTABLE>
    2f78:	01000000 	mrseq	r0, (UNDEF: 0)
    2f7c:	00285000 	eoreq	r5, r8, r0
    2f80:	00300000 	eorseq	r0, r0, r0
    2f84:	00030000 	andeq	r0, r3, r0
    2f88:	389f0170 	ldmcc	pc, {r4, r5, r6, r8}	; <UNPREDICTABLE>
    2f8c:	40000000 	andmi	r0, r0, r0
    2f90:	01000000 	mrseq	r0, (UNDEF: 0)
    2f94:	00005000 	andeq	r5, r0, r0
	...
    2fa8:	00000024 	andeq	r0, r0, r4, lsr #32
    2fac:	24510001 	ldrbcs	r0, [r1], #-1
    2fb0:	28000000 	stmdacs	r0, {}	; <UNPREDICTABLE>
    2fb4:	01000000 	mrseq	r0, (UNDEF: 0)
    2fb8:	00285c00 	eoreq	r5, r8, r0, lsl #24
    2fbc:	00440000 	subeq	r0, r4, r0
    2fc0:	00010000 	andeq	r0, r1, r0
    2fc4:	00000051 	andeq	r0, r0, r1, asr r0
    2fc8:	00000000 	andeq	r0, r0, r0
    2fcc:	02020000 	andeq	r0, r2, #0, 0
    2fd0:	00000000 	andeq	r0, r0, r0
    2fd4:	04000000 	streq	r0, [r0], #-0
    2fd8:	01000000 	mrseq	r0, (UNDEF: 0)
    2fdc:	00045100 	andeq	r5, r4, r0, lsl #2
    2fe0:	00080000 	andeq	r0, r8, r0
    2fe4:	00030000 	andeq	r0, r3, r0
    2fe8:	089f0171 	ldmeq	pc, {r0, r4, r5, r6, r8}	; <UNPREDICTABLE>
    2fec:	18000000 	stmdane	r0, {}	; <UNPREDICTABLE>
    2ff0:	01000000 	mrseq	r0, (UNDEF: 0)
    2ff4:	00005100 	andeq	r5, r0, r0, lsl #2
    2ff8:	00000000 	andeq	r0, r0, r0
    2ffc:	00020000 	andeq	r0, r2, r0
    3000:	00000000 	andeq	r0, r0, r0
    3004:	00000004 	andeq	r0, r0, r4
    3008:	00500001 	subseq	r0, r0, r1
	...
    3018:	08000000 	stmdaeq	r0, {}	; <UNPREDICTABLE>
    301c:	01000000 	mrseq	r0, (UNDEF: 0)
    3020:	00085000 	andeq	r5, r8, r0
    3024:	00300000 	eorseq	r0, r0, r0
    3028:	00040000 	andeq	r0, r4, r0
    302c:	9f5001f3 	svcls	0x005001f3
	...
    3040:	00000008 	andeq	r0, r0, r8
    3044:	08510001 	ldmdaeq	r1, {r0}^
    3048:	30000000 	andcc	r0, r0, r0
    304c:	04000000 	streq	r0, [r0], #-0
    3050:	5101f300 	mrspl	pc, SP_irq	; <UNPREDICTABLE>
    3054:	0000009f 	muleq	r0, pc, r0	; <UNPREDICTABLE>
	...
    3060:	01000000 	mrseq	r0, (UNDEF: 0)
    3064:	00000202 	andeq	r0, r0, r2, lsl #4
    3068:	04000000 	streq	r0, [r0], #-0
    306c:	01000000 	mrseq	r0, (UNDEF: 0)
    3070:	00045200 	andeq	r5, r4, r0, lsl #4
    3074:	00080000 	andeq	r0, r8, r0
    3078:	00040000 	andeq	r0, r4, r0
    307c:	9f5201f3 	svcls	0x005201f3
    3080:	00000008 	andeq	r0, r0, r8
    3084:	00000018 	andeq	r0, r0, r8, lsl r0
    3088:	01f30006 	mvnseq	r0, r6
    308c:	9f1c3152 	svcls	0x001c3152
    3090:	00000018 	andeq	r0, r0, r8, lsl r0
    3094:	00000018 	andeq	r0, r0, r8, lsl r0
    3098:	01f30004 	mvnseq	r0, r4
    309c:	00189f52 	andseq	r9, r8, r2, asr pc
    30a0:	00300000 	eorseq	r0, r0, r0
    30a4:	00060000 	andeq	r0, r6, r0
    30a8:	315201f3 	ldrshcc	r0, [r2, #-19]	; 0xffffffed
    30ac:	00009f1c 	andeq	r9, r0, ip, lsl pc
    30b0:	00000000 	andeq	r0, r0, r0
    30b4:	00020000 	andeq	r0, r2, r0
    30b8:	00010000 	andeq	r0, r1, r0
    30bc:	00000000 	andeq	r0, r0, r0
    30c0:	000c0000 	andeq	r0, ip, r0
    30c4:	00010000 	andeq	r0, r1, r0
    30c8:	00000c50 	andeq	r0, r0, r0, asr ip
    30cc:	00001800 	andeq	r1, r0, r0, lsl #16
    30d0:	70000300 	andvc	r0, r0, r0, lsl #6
    30d4:	00189f7f 	andseq	r9, r8, pc, ror pc
    30d8:	00240000 	eoreq	r0, r4, r0
    30dc:	00010000 	andeq	r0, r1, r0
    30e0:	00002850 	andeq	r2, r0, r0, asr r8
    30e4:	00002c00 	andeq	r2, r0, r0, lsl #24
    30e8:	70000300 	andvc	r0, r0, r0, lsl #6
    30ec:	00009f7f 	andeq	r9, r0, pc, ror pc
    30f0:	00000000 	andeq	r0, r0, r0
    30f4:	00020000 	andeq	r0, r2, r0
	...
    3100:	0000000c 	andeq	r0, r0, ip
    3104:	0c510001 	mrrceq	0, 0, r0, r1, cr1
    3108:	10000000 	andne	r0, r0, r0
    310c:	03000000 	movweq	r0, #0
    3110:	9f017100 	svcls	0x00017100
    3114:	00000010 	andeq	r0, r0, r0, lsl r0
    3118:	00000030 	andeq	r0, r0, r0, lsr r0
    311c:	00510001 	subseq	r0, r1, r1
    3120:	00000000 	andeq	r0, r0, r0
    3124:	Address 0x0000000000003124 is out of bounds.


Disassembly of section .debug_aranges:

00000000 <.debug_aranges>:
   0:	0000001c 	andeq	r0, r0, ip, lsl r0
   4:	00000002 	andeq	r0, r0, r2
   8:	00040000 	andeq	r0, r4, r0
   c:	00000000 	andeq	r0, r0, r0
  10:	00008038 	andeq	r8, r0, r8, lsr r0
  14:	00000668 	andeq	r0, r0, r8, ror #12
	...
  20:	0000001c 	andeq	r0, r0, ip, lsl r0
  24:	0f740002 	svceq	0x00740002
  28:	00040000 	andeq	r0, r4, r0
  2c:	00000000 	andeq	r0, r0, r0
  30:	000086a0 	andeq	r8, r0, r0, lsr #13
  34:	000008d0 	ldrdeq	r0, [r0], -r0	; <UNPREDICTABLE>
	...
  40:	0000001c 	andeq	r0, r0, ip, lsl r0
  44:	29580002 	ldmdbcs	r8, {r1}^
  48:	00040000 	andeq	r0, r4, r0
  4c:	00000000 	andeq	r0, r0, r0
  50:	00008f70 	andeq	r8, r0, r0, ror pc
  54:	00000198 	muleq	r0, r8, r1
	...
  60:	0000001c 	andeq	r0, r0, ip, lsl r0
  64:	2fcf0002 	svccs	0x00cf0002
  68:	00040000 	andeq	r0, r4, r0
  6c:	00000000 	andeq	r0, r0, r0
  70:	00009108 	andeq	r9, r0, r8, lsl #2
  74:	00000058 	andeq	r0, r0, r8, asr r0
	...
  80:	0000001c 	andeq	r0, r0, ip, lsl r0
  84:	31700002 	cmncc	r0, r2
  88:	00040000 	andeq	r0, r4, r0
  8c:	00000000 	andeq	r0, r0, r0
  90:	00009160 	andeq	r9, r0, r0, ror #2
  94:	00000038 	andeq	r0, r0, r8, lsr r0
	...
  a0:	0000001c 	andeq	r0, r0, ip, lsl r0
  a4:	32670002 	rsbcc	r0, r7, #2, 0
  a8:	00040000 	andeq	r0, r4, r0
  ac:	00000000 	andeq	r0, r0, r0
  b0:	00009198 	muleq	r0, r8, r1
  b4:	000009b4 			; <UNDEFINED> instruction: 0x000009b4
	...
  c0:	0000001c 	andeq	r0, r0, ip, lsl r0
  c4:	3eea0002 	cdpcc	0, 14, cr0, cr10, cr2, {0}
  c8:	00040000 	andeq	r0, r4, r0
  cc:	00000000 	andeq	r0, r0, r0
  d0:	00009b4c 	andeq	r9, r0, ip, asr #22
  d4:	0000002c 	andeq	r0, r0, ip, lsr #32
	...
  e0:	0000001c 	andeq	r0, r0, ip, lsl r0
  e4:	401d0002 	andsmi	r0, sp, r2
  e8:	00040000 	andeq	r0, r4, r0
  ec:	00000000 	andeq	r0, r0, r0
  f0:	00009b78 	andeq	r9, r0, r8, ror fp
  f4:	00000128 	andeq	r0, r0, r8, lsr #2
	...
 100:	0000001c 	andeq	r0, r0, ip, lsl r0
 104:	42d20002 	sbcsmi	r0, r2, #2, 0
 108:	00040000 	andeq	r0, r4, r0
 10c:	00000000 	andeq	r0, r0, r0
 110:	00009ca0 	andeq	r9, r0, r0, lsr #25
 114:	00000004 	andeq	r0, r0, r4
	...
 120:	0000001c 	andeq	r0, r0, ip, lsl r0
 124:	43a40002 			; <UNDEFINED> instruction: 0x43a40002
 128:	00040000 	andeq	r0, r4, r0
 12c:	00000000 	andeq	r0, r0, r0
 130:	00009cbc 			; <UNDEFINED> instruction: 0x00009cbc
 134:	0000008c 	andeq	r0, r0, ip, lsl #1
	...
 140:	0000001c 	andeq	r0, r0, ip, lsl r0
 144:	46250002 	strtmi	r0, [r5], -r2
 148:	00040000 	andeq	r0, r4, r0
 14c:	00000000 	andeq	r0, r0, r0
 150:	00009d48 	andeq	r9, r0, r8, asr #26
 154:	0000011c 	andeq	r0, r0, ip, lsl r1
	...
 160:	0000001c 	andeq	r0, r0, ip, lsl r0
 164:	4b680002 	blmi	1a00174 <__bss_end__+0x19f55c4>
 168:	00040000 	andeq	r0, r4, r0
 16c:	00000000 	andeq	r0, r0, r0
 170:	00009e64 	andeq	r9, r0, r4, ror #28
 174:	000001f0 	strdeq	r0, [r0], -r0	; <UNPREDICTABLE>
	...
 180:	0000001c 	andeq	r0, r0, ip, lsl r0
 184:	51390002 	teqpl	r9, r2
 188:	00040000 	andeq	r0, r4, r0
 18c:	00000000 	andeq	r0, r0, r0
 190:	0000a054 	andeq	sl, r0, r4, asr r0
 194:	0000003c 	andeq	r0, r0, ip, lsr r0
	...
 1a0:	0000001c 	andeq	r0, r0, ip, lsl r0
 1a4:	52860002 	addpl	r0, r6, #2, 0
 1a8:	00040000 	andeq	r0, r4, r0
 1ac:	00000000 	andeq	r0, r0, r0
 1b0:	0000a090 	muleq	r0, r0, r0
 1b4:	0000002c 	andeq	r0, r0, ip, lsr #32
	...
 1c0:	0000001c 	andeq	r0, r0, ip, lsl r0
 1c4:	53c10002 	bicpl	r0, r1, #2, 0
 1c8:	00040000 	andeq	r0, r4, r0
 1cc:	00000000 	andeq	r0, r0, r0
 1d0:	0000a0bc 	strheq	sl, [r0], -ip
 1d4:	00000044 	andeq	r0, r0, r4, asr #32
	...
 1e0:	0000001c 	andeq	r0, r0, ip, lsl r0
 1e4:	54bc0002 	ldrtpl	r0, [ip], #2
 1e8:	00040000 	andeq	r0, r4, r0
 1ec:	00000000 	andeq	r0, r0, r0
 1f0:	0000a100 	andeq	sl, r0, r0, lsl #2
 1f4:	00000018 	andeq	r0, r0, r8, lsl r0
	...
 200:	0000001c 	andeq	r0, r0, ip, lsl r0
 204:	55cf0002 	strbpl	r0, [pc, #2]	; 20e <__code_start__-0x7df2>
 208:	00040000 	andeq	r0, r4, r0
 20c:	00000000 	andeq	r0, r0, r0
 210:	0000a118 	andeq	sl, r0, r8, lsl r1
 214:	00000030 	andeq	r0, r0, r0, lsr r0
	...
 220:	0000001c 	andeq	r0, r0, ip, lsl r0
 224:	57210002 	strpl	r0, [r1, -r2]!
 228:	00040000 	andeq	r0, r4, r0
 22c:	00000000 	andeq	r0, r0, r0
 230:	0000a148 	andeq	sl, r0, r8, asr #2
 234:	00000004 	andeq	r0, r0, r4
	...

Disassembly of section .debug_ranges:

00000000 <.debug_ranges>:
   0:	00000188 	andeq	r0, r0, r8, lsl #3
   4:	00000190 	muleq	r0, r0, r1
   8:	000001b0 			; <UNDEFINED> instruction: 0x000001b0
   c:	000001b8 			; <UNDEFINED> instruction: 0x000001b8
	...
  18:	00000658 	andeq	r0, r0, r8, asr r6
  1c:	0000079c 	muleq	r0, ip, r7
  20:	0000079c 	muleq	r0, ip, r7
  24:	000007a0 	andeq	r0, r0, r0, lsr #15
  28:	000007a4 	andeq	r0, r0, r4, lsr #15
  2c:	000007b8 			; <UNDEFINED> instruction: 0x000007b8
	...
  38:	00000008 	andeq	r0, r0, r8
  3c:	0000000c 	andeq	r0, r0, ip
  40:	00000014 	andeq	r0, r0, r4, lsl r0
  44:	00000054 	andeq	r0, r0, r4, asr r0
  48:	00000058 	andeq	r0, r0, r8, asr r0
  4c:	00000060 	andeq	r0, r0, r0, rrx
	...
  58:	00000060 	andeq	r0, r0, r0, rrx
  5c:	00000068 	andeq	r0, r0, r8, rrx
  60:	0000006c 	andeq	r0, r0, ip, rrx
  64:	000000ac 	andeq	r0, r0, ip, lsr #1
  68:	000000b0 	strheq	r0, [r0], -r0	; <UNPREDICTABLE>
  6c:	000000b8 	strheq	r0, [r0], -r8
	...
  78:	00000068 	andeq	r0, r0, r8, rrx
  7c:	00000068 	andeq	r0, r0, r8, rrx
  80:	0000006c 	andeq	r0, r0, ip, rrx
  84:	000000ac 	andeq	r0, r0, ip, lsr #1
  88:	000000b0 	strheq	r0, [r0], -r0	; <UNPREDICTABLE>
  8c:	000000b8 	strheq	r0, [r0], -r8
	...
  98:	000000e8 	andeq	r0, r0, r8, ror #1
  9c:	000000f0 	strdeq	r0, [r0], -r0	; <UNPREDICTABLE>
  a0:	000000f4 	strdeq	r0, [r0], -r4
  a4:	00000134 	andeq	r0, r0, r4, lsr r1
  a8:	00000138 	andeq	r0, r0, r8, lsr r1
  ac:	00000140 	andeq	r0, r0, r0, asr #2
	...
  b8:	000000f0 	strdeq	r0, [r0], -r0	; <UNPREDICTABLE>
  bc:	000000f0 	strdeq	r0, [r0], -r0	; <UNPREDICTABLE>
  c0:	000000f4 	strdeq	r0, [r0], -r4
  c4:	00000134 	andeq	r0, r0, r4, lsr r1
  c8:	00000138 	andeq	r0, r0, r8, lsr r1
  cc:	00000140 	andeq	r0, r0, r0, asr #2
	...
  d8:	00000144 	andeq	r0, r0, r4, asr #2
  dc:	00000148 	andeq	r0, r0, r8, asr #2
  e0:	00000150 	andeq	r0, r0, r0, asr r1
  e4:	0000015c 	andeq	r0, r0, ip, asr r1
	...
  f0:	000000a4 	andeq	r0, r0, r4, lsr #1
  f4:	00000148 	andeq	r0, r0, r8, asr #2
  f8:	00000158 	andeq	r0, r0, r8, asr r1
  fc:	0000015c 	andeq	r0, r0, ip, asr r1
 100:	00000274 	andeq	r0, r0, r4, ror r2
 104:	00000278 	andeq	r0, r0, r8, ror r2
 108:	0000027c 	andeq	r0, r0, ip, ror r2
 10c:	00000280 	andeq	r0, r0, r0, lsl #5
 110:	00000288 	andeq	r0, r0, r8, lsl #5
 114:	0000029c 	muleq	r0, ip, r2
 118:	000002c0 	andeq	r0, r0, r0, asr #5
 11c:	000002cc 	andeq	r0, r0, ip, asr #5
 120:	000002f0 	strdeq	r0, [r0], -r0	; <UNPREDICTABLE>
 124:	000002f0 	strdeq	r0, [r0], -r0	; <UNPREDICTABLE>
 128:	000002f4 	strdeq	r0, [r0], -r4
 12c:	000002f8 	strdeq	r0, [r0], -r8
	...
 138:	00000148 	andeq	r0, r0, r8, asr #2
 13c:	00000158 	andeq	r0, r0, r8, asr r1
 140:	0000015c 	andeq	r0, r0, ip, asr r1
 144:	0000018c 	andeq	r0, r0, ip, lsl #3
 148:	0000029c 	muleq	r0, ip, r2
 14c:	000002ac 	andeq	r0, r0, ip, lsr #5
	...
 158:	000003c8 	andeq	r0, r0, r8, asr #7
 15c:	000003d0 	ldrdeq	r0, [r0], -r0	; <UNPREDICTABLE>
 160:	00000404 	andeq	r0, r0, r4, lsl #8
 164:	000004ac 	andeq	r0, r0, ip, lsr #9
 168:	000004c0 	andeq	r0, r0, r0, asr #9
 16c:	00000920 	andeq	r0, r0, r0, lsr #18
 170:	00000928 	andeq	r0, r0, r8, lsr #18
 174:	000009b4 			; <UNDEFINED> instruction: 0x000009b4
	...
 180:	000003c8 	andeq	r0, r0, r8, asr #7
 184:	000003d0 	ldrdeq	r0, [r0], -r0	; <UNPREDICTABLE>
 188:	00000504 	andeq	r0, r0, r4, lsl #10
 18c:	000005d0 	ldrdeq	r0, [r0], -r0	; <UNPREDICTABLE>
 190:	00000800 	andeq	r0, r0, r0, lsl #16
 194:	00000888 	andeq	r0, r0, r8, lsl #17
 198:	00000930 	andeq	r0, r0, r0, lsr r9
 19c:	000009b4 			; <UNDEFINED> instruction: 0x000009b4
	...
 1a8:	00000404 	andeq	r0, r0, r4, lsl #8
 1ac:	00000408 	andeq	r0, r0, r8, lsl #8
 1b0:	00000414 	andeq	r0, r0, r4, lsl r4
 1b4:	00000414 	andeq	r0, r0, r4, lsl r4
 1b8:	00000428 	andeq	r0, r0, r8, lsr #8
 1bc:	0000042c 	andeq	r0, r0, ip, lsr #8
	...
 1c8:	000005fc 	strdeq	r0, [r0], -ip
 1cc:	00000700 	andeq	r0, r0, r0, lsl #14
 1d0:	000007ec 	andeq	r0, r0, ip, ror #15
 1d4:	000007f4 	strdeq	r0, [r0], -r4
 1d8:	00000888 	andeq	r0, r0, r8, lsl #17
 1dc:	00000894 	muleq	r0, r4, r8
 1e0:	000008a8 	andeq	r0, r0, r8, lsr #17
 1e4:	000008bc 			; <UNDEFINED> instruction: 0x000008bc
 1e8:	00000910 	andeq	r0, r0, r0, lsl r9
 1ec:	00000920 	andeq	r0, r0, r0, lsr #18
	...
 1f8:	00000600 	andeq	r0, r0, r0, lsl #12
 1fc:	00000604 	andeq	r0, r0, r4, lsl #12
 200:	00000608 	andeq	r0, r0, r8, lsl #12
 204:	000006b4 			; <UNDEFINED> instruction: 0x000006b4
 208:	000006cc 	andeq	r0, r0, ip, asr #13
 20c:	000006d0 	ldrdeq	r0, [r0], -r0	; <UNPREDICTABLE>
 210:	000008a8 	andeq	r0, r0, r8, lsr #17
 214:	000008b8 			; <UNDEFINED> instruction: 0x000008b8
 218:	00000910 	andeq	r0, r0, r0, lsl r9
 21c:	00000920 	andeq	r0, r0, r0, lsr #18
	...
 228:	000006b4 			; <UNDEFINED> instruction: 0x000006b4
 22c:	000006cc 	andeq	r0, r0, ip, asr #13
 230:	000006d0 	ldrdeq	r0, [r0], -r0	; <UNPREDICTABLE>
 234:	00000700 	andeq	r0, r0, r0, lsl #14
 238:	000007ec 	andeq	r0, r0, ip, ror #15
 23c:	000007f4 	strdeq	r0, [r0], -r4
 240:	00000888 	andeq	r0, r0, r8, lsl #17
 244:	00000894 	muleq	r0, r4, r8
 248:	000008b8 			; <UNDEFINED> instruction: 0x000008b8
 24c:	000008bc 			; <UNDEFINED> instruction: 0x000008bc
	...
 258:	00000700 	andeq	r0, r0, r0, lsl #14
 25c:	00000708 	andeq	r0, r0, r8, lsl #14
 260:	0000070c 	andeq	r0, r0, ip, lsl #14
 264:	000007ec 	andeq	r0, r0, ip, ror #15
 268:	00000894 	muleq	r0, r4, r8
 26c:	000008a8 	andeq	r0, r0, r8, lsr #17
	...
 278:	00000728 	andeq	r0, r0, r8, lsr #14
 27c:	000007a4 	andeq	r0, r0, r4, lsr #15
 280:	000007ac 	andeq	r0, r0, ip, lsr #15
 284:	000007b0 			; <UNDEFINED> instruction: 0x000007b0
 288:	00000894 	muleq	r0, r4, r8
 28c:	00000898 	muleq	r0, r8, r8
 290:	0000089c 	muleq	r0, ip, r8
 294:	000008a0 	andeq	r0, r0, r0, lsr #17
	...
 2a0:	000007a4 	andeq	r0, r0, r4, lsr #15
 2a4:	000007ac 	andeq	r0, r0, ip, lsr #15
 2a8:	000007b0 			; <UNDEFINED> instruction: 0x000007b0
 2ac:	000007ec 	andeq	r0, r0, ip, ror #15
 2b0:	00000898 	muleq	r0, r8, r8
 2b4:	0000089c 	muleq	r0, ip, r8
 2b8:	000008a0 	andeq	r0, r0, r0, lsr #17
 2bc:	000008a8 	andeq	r0, r0, r8, lsr #17
	...
 2c8:	000000f0 	strdeq	r0, [r0], -r0	; <UNPREDICTABLE>
 2cc:	000000f8 	strdeq	r0, [r0], -r8
 2d0:	000000fc 	strdeq	r0, [r0], -ip
 2d4:	00000108 	andeq	r0, r0, r8, lsl #2
	...
 2e0:	00009ce8 	andeq	r9, r0, r8, ror #25
 2e4:	00009ce8 	andeq	r9, r0, r8, ror #25
 2e8:	00009cec 	andeq	r9, r0, ip, ror #25
 2ec:	00009cf4 	strdeq	r9, [r0], -r4
	...
 2f8:	00009cbc 			; <UNDEFINED> instruction: 0x00009cbc
 2fc:	00009d48 	andeq	r9, r0, r8, asr #26
	...
 308:	00000030 	andeq	r0, r0, r0, lsr r0
 30c:	00000030 	andeq	r0, r0, r0, lsr r0
 310:	00000038 	andeq	r0, r0, r8, lsr r0
 314:	0000004c 	andeq	r0, r0, ip, asr #32
	...
 320:	0000004c 	andeq	r0, r0, ip, asr #32
 324:	00000050 	andeq	r0, r0, r0, asr r0
 328:	00000050 	andeq	r0, r0, r0, asr r0
 32c:	00000078 	andeq	r0, r0, r8, ror r0
	...
 338:	0000004c 	andeq	r0, r0, ip, asr #32
 33c:	00000050 	andeq	r0, r0, r0, asr r0
 340:	00000050 	andeq	r0, r0, r0, asr r0
 344:	00000060 	andeq	r0, r0, r0, rrx
 348:	00000064 	andeq	r0, r0, r4, rrx
 34c:	00000068 	andeq	r0, r0, r8, rrx
	...
 358:	0000004c 	andeq	r0, r0, ip, asr #32
 35c:	00000050 	andeq	r0, r0, r0, asr r0
 360:	00000054 	andeq	r0, r0, r4, asr r0
 364:	00000060 	andeq	r0, r0, r0, rrx
	...
 370:	0000009c 	muleq	r0, ip, r0
 374:	000000a0 	andeq	r0, r0, r0, lsr #1
 378:	000000a0 	andeq	r0, r0, r0, lsr #1
 37c:	000000c8 	andeq	r0, r0, r8, asr #1
	...
 388:	0000009c 	muleq	r0, ip, r0
 38c:	000000a0 	andeq	r0, r0, r0, lsr #1
 390:	000000a0 	andeq	r0, r0, r0, lsr #1
 394:	000000b0 	strheq	r0, [r0], -r0	; <UNPREDICTABLE>
 398:	000000b4 	strheq	r0, [r0], -r4
 39c:	000000b8 	strheq	r0, [r0], -r8
	...
 3a8:	0000009c 	muleq	r0, ip, r0
 3ac:	000000a0 	andeq	r0, r0, r0, lsr #1
 3b0:	000000a4 	andeq	r0, r0, r4, lsr #1
 3b4:	000000b0 	strheq	r0, [r0], -r0	; <UNPREDICTABLE>
	...
 3c0:	000000c8 	andeq	r0, r0, r8, asr #1
 3c4:	000000c8 	andeq	r0, r0, r8, asr #1
 3c8:	000000cc 	andeq	r0, r0, ip, asr #1
 3cc:	0000011c 	andeq	r0, r0, ip, lsl r1
	...
 3d8:	000000f0 	strdeq	r0, [r0], -r0	; <UNPREDICTABLE>
 3dc:	000000f4 	strdeq	r0, [r0], -r4
 3e0:	000000f4 	strdeq	r0, [r0], -r4
 3e4:	0000011c 	andeq	r0, r0, ip, lsl r1
	...
 3f0:	000000f0 	strdeq	r0, [r0], -r0	; <UNPREDICTABLE>
 3f4:	000000f4 	strdeq	r0, [r0], -r4
 3f8:	000000f4 	strdeq	r0, [r0], -r4
 3fc:	00000104 	andeq	r0, r0, r4, lsl #2
 400:	00000108 	andeq	r0, r0, r8, lsl #2
 404:	0000010c 	andeq	r0, r0, ip, lsl #2
	...
 410:	000000f0 	strdeq	r0, [r0], -r0	; <UNPREDICTABLE>
 414:	000000f4 	strdeq	r0, [r0], -r4
 418:	000000f8 	strdeq	r0, [r0], -r8
 41c:	00000104 	andeq	r0, r0, r4, lsl #2
	...

Disassembly of section .debug_line:

00000000 <.debug_line>:
       0:	000003f4 	strdeq	r0, [r0], -r4
       4:	00c20003 	sbceq	r0, r2, r3
       8:	01020000 	mrseq	r0, (UNDEF: 2)
       c:	000d0efb 	strdeq	r0, [sp], -fp
      10:	01010101 	tsteq	r1, r1, lsl #2
      14:	01000000 	mrseq	r0, (UNDEF: 0)
      18:	2f010000 	svccs	0x00010000
      1c:	2f74706f 	svccs	0x0074706f
      20:	656d6f68 	strbvs	r6, [sp, #-3944]!	; 0xfffff098
      24:	77657262 	strbvc	r7, [r5, -r2, ror #4]!
      28:	6c65432f 	stclvs	3, cr4, [r5], #-188	; 0xffffff44
      2c:	2f72616c 	svccs	0x0072616c
      30:	2d6d7261 	sfmcs	f7, 2, [sp, #-388]!	; 0xfffffe7c
      34:	656e6f6e 	strbvs	r6, [lr, #-3950]!	; 0xfffff092
      38:	6261652d 	rsbvs	r6, r1, #188743680	; 0xb400000
      3c:	2f392d69 	svccs	0x00392d69
      40:	30322d39 	eorscc	r2, r2, r9, lsr sp
      44:	34713931 	ldrbtcc	r3, [r1], #-2353	; 0xfffff6cf
      48:	3173632d 	cmncc	r3, sp, lsr #6
      4c:	2f653730 	svccs	0x00653730
      50:	2f62696c 	svccs	0x0062696c
      54:	2f636367 	svccs	0x00636367
      58:	2d6d7261 	sfmcs	f7, 2, [sp, #-388]!	; 0xfffffe7c
      5c:	656e6f6e 	strbvs	r6, [lr, #-3950]!	; 0xfffff092
      60:	6261652d 	rsbvs	r6, r1, #188743680	; 0xb400000
      64:	2e392f69 	cdpcs	15, 3, cr2, cr9, cr9, {3}
      68:	2f312e32 	svccs	0x00312e32
      6c:	6c636e69 	stclvs	14, cr6, [r3], #-420	; 0xfffffe5c
      70:	00656475 	rsbeq	r6, r5, r5, ror r4
      74:	6573552f 	ldrbvs	r5, [r3, #-1327]!	; 0xfffffad1
      78:	6d2f7372 	stcvs	3, cr7, [pc, #-456]!	; fffffeb8 <__bss_end__+0xffff5308>
      7c:	73656c69 	cmnvc	r5, #26880	; 0x6900
      80:	756f532f 	strbvc	r5, [pc, #-815]!	; fffffd59 <__bss_end__+0xffff51a9>
      84:	2f656372 	svccs	0x00656372
      88:	34327363 	ldrtcc	r7, [r2], #-867	; 0xfffffc9d
      8c:	2f786c30 	svccs	0x00786c30
      90:	7062696c 	rsbvc	r6, r2, ip, ror #18
      94:	6e692f69 	cdpvs	15, 6, cr2, cr9, cr9, {3}
      98:	64756c63 	ldrbtvs	r6, [r5], #-3171	; 0xfffff39d
      9c:	67000065 	strvs	r0, [r0, -r5, rrx]
      a0:	2e6f7279 	mcrcs	2, 3, r7, cr15, cr9, {3}
      a4:	00000063 	andeq	r0, r0, r3, rrx
      a8:	64747300 	ldrbtvs	r7, [r4], #-768	; 0xfffffd00
      ac:	2d746e69 	ldclcs	14, cr6, [r4, #-420]!	; 0xfffffe5c
      b0:	2e636367 	cdpcs	3, 6, cr6, cr3, cr7, {3}
      b4:	00010068 	andeq	r0, r1, r8, rrx
      b8:	69707200 	ldmdbvs	r0!, {r9, ip, sp, lr}^
      bc:	0200682e 	andeq	r6, r0, #3014656	; 0x2e0000
      c0:	32690000 	rsbcc	r0, r9, #0, 0
      c4:	00682e63 	rsbeq	r2, r8, r3, ror #28
      c8:	00000000 	andeq	r0, r0, r0
      cc:	05002d05 	streq	r2, [r0, #-3333]	; 0xfffff2fb
      d0:	00803802 	addeq	r3, r0, r2, lsl #16
      d4:	00dd0300 	sbcseq	r0, sp, r0, lsl #6
      d8:	13050501 	movwne	r0, #21761	; 0x5501
      dc:	01060c05 	tsteq	r6, r5, lsl #24
      e0:	052f0105 	streq	r0, [pc, #-261]!	; ffffffe3 <__bss_end__+0xffff5433>
      e4:	2703062e 	strcs	r0, [r3, -lr, lsr #12]
      e8:	1405054a 	strne	r0, [r5], #-1354	; 0xfffffab6
      ec:	01060705 	tsteq	r6, r5, lsl #14
      f0:	4c060a05 			; <UNDEFINED> instruction: 0x4c060a05
      f4:	01060c05 	tsteq	r6, r5, lsl #24
      f8:	4b060905 	blmi	182514 <__bss_end__+0x177964>
      fc:	01061505 	tsteq	r6, r5, lsl #10
     100:	2e1c054a 	cfmac32cs	mvfx0, mvfx12, mvfx10
     104:	05a10105 	streq	r0, [r1, #261]!	; 0x105
     108:	05290609 	streq	r0, [r9, #-1545]!	; 0xfffff9f7
     10c:	4a010615 	bmi	41968 <__bss_end__+0x36db8>
     110:	052e1c05 	streq	r1, [lr, #-3077]!	; 0xfffff3fb
     114:	0905b72e 	stmdbeq	r5, {r1, r2, r3, r5, r8, r9, sl, ip, sp, pc}
     118:	06015106 	streq	r5, [r1], -r6, lsl #2
     11c:	2e062e82 	cdpcs	14, 0, cr2, cr6, cr2, {4}
     120:	6d032705 	stcvs	7, cr2, [r3, #-20]	; 0xffffffec
     124:	1305059e 	movwne	r0, #21918	; 0x559e
     128:	dc061705 	stcle	7, cr1, [r6], {5}
     12c:	2f060e05 	svccs	0x00060e05
     130:	14060105 	strne	r0, [r6], #-261	; 0xfffffefb
     134:	77030505 	strvc	r0, [r3, -r5, lsl #10]
     138:	27059e2e 	strcs	r9, [r5, -lr, lsr #28]
     13c:	060e052d 	streq	r0, [lr], -sp, lsr #10
     140:	9e060152 	mcrls	1, 0, r0, cr6, cr2, {2}
     144:	17052e06 	strne	r2, [r5, -r6, lsl #28]
     148:	052e2b06 	streq	r2, [lr, #-2822]!	; 0xfffff4fa
     14c:	052e2a05 	streq	r2, [lr, #-2565]!	; 0xfffff5fb
     150:	052e3317 	streq	r3, [lr, #-791]!	; 0xfffffce9
     154:	1003062d 	andne	r0, r3, sp, lsr #12
     158:	050106f2 	streq	r0, [r1, #-1778]	; 0xfffff90e
     15c:	054b0605 	strbeq	r0, [fp, #-1541]	; 0xfffff9fb
     160:	2e010613 	mcrcs	6, 0, r0, cr1, cr3, {0}
     164:	052e1105 	streq	r1, [lr, #-261]!	; 0xfffffefb
     168:	01052e26 	tsteq	r5, r6, lsr #28
     16c:	06450567 	strbeq	r0, [r5], -r7, ror #10
     170:	06660903 	strbteq	r0, [r6], -r3, lsl #18
     174:	06050501 	streq	r0, [r5], -r1, lsl #10
     178:	061e0583 	ldreq	r0, [lr], -r3, lsl #11
     17c:	0f052e01 	svceq	0x00052e01
     180:	0605052e 	streq	r0, [r5], -lr, lsr #10
     184:	06100567 	ldreq	r0, [r0], -r7, ror #10
     188:	052e2e01 	streq	r2, [lr, #-3585]!	; 0xfffff1ff
     18c:	132f0605 			; <UNDEFINED> instruction: 0x132f0605
     190:	75031305 	strvc	r1, [r3, #-773]	; 0xfffffcfb
     194:	13050501 	movwne	r0, #21761	; 0x5501
     198:	06070513 			; <UNDEFINED> instruction: 0x06070513
     19c:	05052e01 	streq	r2, [r5, #-3585]	; 0xfffff1ff
     1a0:	01063006 	tsteq	r6, r6
     1a4:	05190705 	ldreq	r0, [r9, #-1797]	; 0xfffff8fb
     1a8:	144b0609 	strbne	r0, [fp], #-1545	; 0xfffff9f7
     1ac:	83060105 	movwhi	r0, #24837	; 0x6105
     1b0:	03060905 	movweq	r0, #26885	; 0x6905
     1b4:	0e054a74 			; <UNDEFINED> instruction: 0x0e054a74
     1b8:	2e2e0106 	sufcse	f0, f6, f6
     1bc:	03060905 	movweq	r0, #26885	; 0x6905
     1c0:	06010109 	streq	r0, [r1], -r9, lsl #2
     1c4:	4a062e9e 	bmi	18bc44 <__bss_end__+0x181094>
     1c8:	fb033005 	blx	cc1e6 <__bss_end__+0xc1636>
     1cc:	01069e7e 	tsteq	r6, lr, ror lr
     1d0:	83060505 	movwhi	r0, #25861	; 0x6505
     1d4:	0105ba06 	tsteq	r5, r6, lsl #20
     1d8:	062b052f 	strteq	r0, [fp], -pc, lsr #10
     1dc:	0501066b 	streq	r0, [r1, #-1643]	; 0xfffff995
     1e0:	06830605 	streq	r0, [r3], r5, lsl #12
     1e4:	1330064a 	teqne	r0, #77594624	; 0x4a00000
     1e8:	06010583 	streq	r0, [r1], -r3, lsl #11
     1ec:	06330513 			; <UNDEFINED> instruction: 0x06330513
     1f0:	05010669 	streq	r0, [r1, #-1641]	; 0xfffff997
     1f4:	134b0605 	movtne	r0, #46597	; 0xb605
     1f8:	01060d05 	tsteq	r6, r5, lsl #26
     1fc:	2f060505 	svccs	0x00060505
     200:	01060d05 	tsteq	r6, r5, lsl #26
     204:	2f060505 	svccs	0x00060505
     208:	052e2e06 	streq	r2, [lr, #-3590]!	; 0xfffff1fa
     20c:	46053001 	strmi	r3, [r5], -r1
     210:	01064e06 	tsteq	r6, r6, lsl #28
     214:	bb060905 	bllt	182630 <__bss_end__+0x177a80>
     218:	062e2e06 	strteq	r2, [lr], -r6, lsl #28
     21c:	0610052f 	ldreq	r0, [r0], -pc, lsr #10
     220:	83010501 	movwhi	r0, #5377	; 0x1501
     224:	063b054a 	ldrteq	r0, [fp], -sl, asr #10
     228:	f4020500 	vst3.8	{d0,d2,d4}, [r2], r0
     22c:	03000082 	movweq	r0, #130	; 0x82
     230:	0106012b 	tsteq	r6, fp, lsr #2
     234:	9f060505 	svcls	0x00060505
     238:	d9180513 	ldmdble	r8, {r0, r1, r4, r8, sl}
     23c:	05012405 	streq	r2, [r1, #-1029]	; 0xfffffbfb
     240:	0501061c 	streq	r0, [r1, #-1564]	; 0xfffff9e4
     244:	18052e05 	stmdane	r5, {r0, r2, r9, sl, fp, sp}
     248:	24052f06 	strcs	r2, [r5], #-3846	; 0xfffff0fa
     24c:	061c0501 	ldreq	r0, [ip], -r1, lsl #10
     250:	2e050501 	cfsh32cs	mvfx0, mvfx5, #1
     254:	2f060e05 	svccs	0x00060e05
     258:	2e820601 	cdpcs	6, 8, cr0, cr2, cr1, {0}
     25c:	052e062e 	streq	r0, [lr, #-1582]!	; 0xfffff9d2
     260:	052c061c 	streq	r0, [ip, #-1564]!	; 0xfffff9e4
     264:	0530060e 	ldreq	r0, [r0, #-1550]!	; 0xfffff9f2
     268:	2e061805 	cdpcs	8, 0, cr1, cr6, cr5, {0}
     26c:	2f062e2e 	svccs	0x00062e2e
     270:	060c059f 			; <UNDEFINED> instruction: 0x060c059f
     274:	83010501 	movwhi	r0, #5377	; 0x1501
     278:	74031b05 	strvc	r1, [r3], #-2821	; 0xfffff4fb
     27c:	06240566 	strteq	r0, [r4], -r6, ror #10
     280:	059e0f03 	ldreq	r0, [lr, #3843]	; 0xf03
     284:	01051305 	tsteq	r5, r5, lsl #6
     288:	052e1306 	streq	r1, [lr, #-774]!	; 0xfffffcfa
     28c:	2d030624 	stccs	6, cr0, [r3, #-144]	; 0xffffff70
     290:	0501062e 	streq	r0, [r1, #-1582]	; 0xfffff9d2
     294:	13690605 	cmnne	r9, #5242880	; 0x500000
     298:	01060d05 	tsteq	r6, r5, lsl #26
     29c:	30060505 	andcc	r0, r6, r5, lsl #10
     2a0:	02000905 	andeq	r0, r0, #81920	; 0x14000
     2a4:	05130104 	ldreq	r0, [r3, #-260]	; 0xfffffefc
     2a8:	0402000a 	streq	r0, [r2], #-10
     2ac:	0c051101 	stfeqs	f1, [r5], {1}
     2b0:	01040200 	mrseq	r0, R12_usr
     2b4:	0a050106 	beq	1406d4 <__bss_end__+0x135b24>
     2b8:	01040200 	mrseq	r0, R12_usr
     2bc:	0605054a 	streq	r0, [r5], -sl, asr #10
     2c0:	0905134d 	stmdbeq	r5, {r0, r2, r3, r6, r8, r9, ip}
     2c4:	05820106 	streq	r0, [r2, #262]	; 0x106
     2c8:	05d70605 	ldrbeq	r0, [r7, #1541]	; 0x605
     2cc:	4a010609 	bmi	41af8 <__bss_end__+0x36f48>
     2d0:	08060505 	stmdaeq	r6, {r0, r2, r8, sl}
     2d4:	06090521 	streq	r0, [r9], -r1, lsr #10
     2d8:	05054a01 	streq	r4, [r5, #-2561]	; 0xfffff5ff
     2dc:	0105f406 	tsteq	r5, r6, lsl #8	; <UNPREDICTABLE>
     2e0:	017ee503 	cmneq	lr, r3, lsl #10
     2e4:	05130505 	ldreq	r0, [r3, #-1285]	; 0xfffffafb
     2e8:	6601060c 	strvs	r0, [r1], -ip, lsl #12
     2ec:	9b030105 	blls	c0708 <__bss_end__+0xb5b58>
     2f0:	052e0101 	streq	r0, [lr, #-257]!	; 0xfffffeff
     2f4:	06310630 			; <UNDEFINED> instruction: 0x06310630
     2f8:	05058201 	streq	r8, [r5, #-513]	; 0xfffffdff
     2fc:	10052f06 	andne	r2, r5, r6, lsl #30
     300:	05050106 	streq	r0, [r5, #-262]	; 0xfffffefa
     304:	0d052f06 	stceq	15, cr2, [r5, #-24]	; 0xffffffe8
     308:	052e0106 	streq	r0, [lr, #-262]!	; 0xfffffefa
     30c:	05670605 	strbeq	r0, [r7, #-1541]!	; 0xfffff9fb
     310:	4a01060d 	bmi	41b4c <__bss_end__+0x36f9c>
     314:	4b060505 	blmi	181730 <__bss_end__+0x176b80>
     318:	01060d05 	tsteq	r6, r5, lsl #26
     31c:	0605054a 	streq	r0, [r5], -sl, asr #10
     320:	0301052f 	movweq	r0, #5423	; 0x152f
     324:	05017edc 	streq	r7, [r1, #-3804]	; 0xfffff124
     328:	0c051305 	stceq	3, cr1, [r5], {5}
     32c:	05660106 	strbeq	r0, [r6, #-262]!	; 0xfffffefa
     330:	01a40301 			; <UNDEFINED> instruction: 0x01a40301
     334:	052e2e01 	streq	r2, [lr, #-3585]!	; 0xfffff1ff
     338:	064d0622 	strbeq	r0, [sp], -r2, lsr #12
     33c:	06050501 	streq	r0, [r5], -r1, lsl #10
     340:	054b674f 	strbeq	r6, [fp, #-1871]	; 0xfffff8b1
     344:	05830601 	streq	r0, [r3, #1537]	; 0x601
     348:	05330614 	ldreq	r0, [r3, #-1556]!	; 0xfffff9ec
     34c:	2f4b4c05 	svccs	0x004b4c05
     350:	051a144d 	ldreq	r1, [sl, #-1101]	; 0xfffffbb3
     354:	05010611 	streq	r0, [r1, #-1553]	; 0xfffff9ef
     358:	06830605 	streq	r0, [r3], r5, lsl #12
     35c:	49070513 	stmdbmi	r7, {r0, r1, r4, r8, sl}
     360:	69060905 	stmdbvs	r6, {r0, r2, r8, fp}
     364:	052e0618 	streq	r0, [lr, #-1560]!	; 0xfffff9e8
     368:	4d310605 	ldcmi	6, cr0, [r1, #-20]!	; 0xffffffec
     36c:	9f9f9f13 	svcls	0x009f9f13
     370:	061005a1 	ldreq	r0, [r0], -r1, lsr #11
     374:	06050501 	streq	r0, [r5], -r1, lsl #10
     378:	0d050183 	stfeqs	f0, [r5, #-524]	; 0xfffffdf4
     37c:	14056706 	strne	r6, [r5], #-1798	; 0xfffff8fa
     380:	01040200 	mrseq	r0, R12_usr
     384:	05052e06 	streq	r2, [r5, #-3590]	; 0xfffff1fa
     388:	01040200 	mrseq	r0, R12_usr
     38c:	09050106 	stmdbeq	r5, {r1, r2, r8}
     390:	03040200 	movweq	r0, #16896	; 0x4200
     394:	1d054b06 	vstrne	d4, [r5, #-24]	; 0xffffffe8
     398:	03040200 	movweq	r0, #16896	; 0x4200
     39c:	09050106 	stmdbeq	r5, {r1, r2, r8}
     3a0:	03040200 	movweq	r0, #16896	; 0x4200
     3a4:	02008306 	andeq	r8, r0, #402653184	; 0x18000000
     3a8:	00670304 	rsbeq	r0, r7, r4, lsl #6
     3ac:	67030402 	strvs	r0, [r3, -r2, lsl #8]
     3b0:	03040200 	movweq	r0, #16896	; 0x4200
     3b4:	1d053d08 	stcne	13, cr3, [r5, #-32]	; 0xffffffe0
     3b8:	03040200 	movweq	r0, #16896	; 0x4200
     3bc:	001e0545 	andseq	r0, lr, r5, asr #10
     3c0:	06030402 	streq	r0, [r3], -r2, lsl #8
     3c4:	04020001 	streq	r0, [r2], #-1
     3c8:	02002e03 	andeq	r2, r0, #3, 28	; 0x30
     3cc:	052e0304 	streq	r0, [lr, #-772]!	; 0xfffffcfc
     3d0:	6b030609 	blvs	c1bfc <__bss_end__+0xb704c>
     3d4:	08060101 	stmdaeq	r6, {r0, r8}
     3d8:	052e0658 	streq	r0, [lr, #-1624]!	; 0xfffff9a8
     3dc:	04020005 	streq	r0, [r2], #-5
     3e0:	2e140301 	cdpcs	3, 1, cr0, cr4, cr1, {0}
     3e4:	01040200 	mrseq	r0, R12_usr
     3e8:	04020001 	streq	r0, [r2], #-1
     3ec:	0105d601 	tsteq	r5, r1, lsl #12
     3f0:	024a3606 	subeq	r3, sl, #6291456	; 0x600000
     3f4:	01010012 	tsteq	r1, r2, lsl r0
     3f8:	00000955 	andeq	r0, r0, r5, asr r9
     3fc:	00920003 	addseq	r0, r2, r3
     400:	01020000 	mrseq	r0, (UNDEF: 2)
     404:	000d0efb 	strdeq	r0, [sp], -fp
     408:	01010101 	tsteq	r1, r1, lsl #2
     40c:	01000000 	mrseq	r0, (UNDEF: 0)
     410:	2f010000 	svccs	0x00010000
     414:	2f727375 	svccs	0x00727375
     418:	2f62696c 	svccs	0x0062696c
     41c:	2f636367 	svccs	0x00636367
     420:	2d6d7261 	sfmcs	f7, 2, [sp, #-388]!	; 0xfffffe7c
     424:	656e6f6e 	strbvs	r6, [lr, #-3950]!	; 0xfffff092
     428:	6261652d 	rsbvs	r6, r1, #188743680	; 0xb400000
     42c:	2e392f69 	cdpcs	15, 3, cr2, cr9, cr9, {3}
     430:	2f312e32 	svccs	0x00312e32
     434:	6c636e69 	stclvs	14, cr6, [r3], #-420	; 0xfffffe5c
     438:	00656475 	rsbeq	r6, r5, r5, ror r4
     43c:	6d6f682f 	stclvs	8, cr6, [pc, #-188]!	; 388 <__code_start__-0x7c78>
     440:	6e652f65 	cdpvs	15, 6, cr2, cr5, cr5, {3}
     444:	72656c67 	rsbvc	r6, r5, #26368	; 0x6700
     448:	616c632f 	cmnvs	ip, pc, lsr #6
     44c:	632f7373 			; <UNDEFINED> instruction: 0x632f7373
     450:	6e393473 	mrcvs	4, 1, r3, cr9, cr3, {3}
     454:	6131322d 	teqvs	r1, sp, lsr #4
     458:	2f2f7475 	svccs	0x002f7475
     45c:	7062696c 	rsbvc	r6, r2, ip, ror #18
     460:	6e692f69 	cdpvs	15, 6, cr2, cr9, cr9, {3}
     464:	64756c63 	ldrbtvs	r6, [r5], #-3171	; 0xfffff39d
     468:	69000065 	stmdbvs	r0, {r0, r2, r5, r6}
     46c:	632e6332 			; <UNDEFINED> instruction: 0x632e6332
     470:	00000000 	andeq	r0, r0, r0
     474:	69647473 	stmdbvs	r4!, {r0, r1, r4, r5, r6, sl, ip, sp, lr}^
     478:	682e746e 	stmdavs	lr!, {r1, r2, r3, r5, r6, sl, ip, sp, lr}
     47c:	00000100 	andeq	r0, r0, r0, lsl #2
     480:	2e697072 	mcrcs	0, 3, r7, cr9, cr2, {3}
     484:	00020068 	andeq	r0, r2, r8, rrx
     488:	69706700 	ldmdbvs	r0!, {r8, r9, sl, sp, lr}^
     48c:	00682e6f 	rsbeq	r2, r8, pc, ror #28
     490:	00000002 	andeq	r0, r0, r2
     494:	05002905 	streq	r2, [r0, #-2309]	; 0xfffff6fb
     498:	0086a002 	addeq	sl, r6, r2
     49c:	00f60300 	rscseq	r0, r6, r0, lsl #6
     4a0:	13020501 	movwne	r0, #9473	; 0x2501
     4a4:	0e051313 	mcreq	3, 0, r1, cr5, cr3, {0}
     4a8:	052e0106 	streq	r0, [lr, #-262]!	; 0xfffffefa
     4ac:	052f0602 	streq	r0, [pc, #-1538]!	; fffffeb2 <__bss_end__+0xffff5302>
     4b0:	0501060e 	streq	r0, [r1, #-1550]	; 0xfffff9f2
     4b4:	052f0602 	streq	r0, [pc, #-1538]!	; fffffeba <__bss_end__+0xffff530a>
     4b8:	05130601 	ldreq	r0, [r3, #-1537]	; 0xfffff9ff
     4bc:	37030629 	strcc	r0, [r3, -r9, lsr #12]
     4c0:	1302052e 	movwne	r0, #9518	; 0x252e
     4c4:	06010513 			; <UNDEFINED> instruction: 0x06010513
     4c8:	20052e13 	andcs	r2, r5, r3, lsl lr
     4cc:	01fa0306 	mvnseq	r0, r6, lsl #6
     4d0:	2f05054a 	svccs	0x0005054a
     4d4:	01310501 	teqeq	r1, r1, lsl #10
     4d8:	01130505 	tsteq	r3, r5, lsl #10
     4dc:	05013005 	streq	r3, [r1, #-5]
     4e0:	05011305 	streq	r1, [r1, #-773]	; 0xfffffcfb
     4e4:	0505012e 	streq	r0, [r5, #-302]	; 0xfffffed2
     4e8:	32050113 	andcc	r0, r5, #-1073741820	; 0xc0000004
     4ec:	13050501 	movwne	r0, #21761	; 0x5501
     4f0:	012f0501 			; <UNDEFINED> instruction: 0x012f0501
     4f4:	01130505 	tsteq	r3, r5, lsl #10
     4f8:	05013405 	streq	r3, [r1, #-1029]	; 0xfffffbfb
     4fc:	05011305 	streq	r1, [r1, #-773]	; 0xfffffcfb
     500:	05050136 	streq	r0, [r5, #-310]	; 0xfffffeca
     504:	40050113 	andmi	r0, r5, r3, lsl r1
     508:	14050501 	strne	r0, [r5], #-1281	; 0xfffffaff
     50c:	01270501 			; <UNDEFINED> instruction: 0x01270501
     510:	01130205 	tsteq	r3, r5, lsl #4
     514:	01010101 	tsteq	r1, r1, lsl #2
     518:	01010101 	tsteq	r1, r1, lsl #2
     51c:	01010101 	tsteq	r1, r1, lsl #2
     520:	01010101 	tsteq	r1, r1, lsl #2
     524:	01130101 	tsteq	r3, r1, lsl #2
     528:	01010101 	tsteq	r1, r1, lsl #2
     52c:	01010101 	tsteq	r1, r1, lsl #2
     530:	01010101 	tsteq	r1, r1, lsl #2
     534:	01010101 	tsteq	r1, r1, lsl #2
     538:	01130101 	tsteq	r3, r1, lsl #2
     53c:	01010101 	tsteq	r1, r1, lsl #2
     540:	01010101 	tsteq	r1, r1, lsl #2
     544:	01010101 	tsteq	r1, r1, lsl #2
     548:	01010101 	tsteq	r1, r1, lsl #2
     54c:	01130101 	tsteq	r3, r1, lsl #2
     550:	01010101 	tsteq	r1, r1, lsl #2
     554:	01010101 	tsteq	r1, r1, lsl #2
     558:	01010101 	tsteq	r1, r1, lsl #2
     55c:	01010101 	tsteq	r1, r1, lsl #2
     560:	01130101 	tsteq	r3, r1, lsl #2
     564:	01010101 	tsteq	r1, r1, lsl #2
     568:	01010101 	tsteq	r1, r1, lsl #2
     56c:	01010101 	tsteq	r1, r1, lsl #2
     570:	01010101 	tsteq	r1, r1, lsl #2
     574:	01130101 	tsteq	r3, r1, lsl #2
     578:	01010101 	tsteq	r1, r1, lsl #2
     57c:	01010101 	tsteq	r1, r1, lsl #2
     580:	01010101 	tsteq	r1, r1, lsl #2
     584:	01010101 	tsteq	r1, r1, lsl #2
     588:	01130101 	tsteq	r3, r1, lsl #2
     58c:	01010101 	tsteq	r1, r1, lsl #2
     590:	01010101 	tsteq	r1, r1, lsl #2
     594:	01010101 	tsteq	r1, r1, lsl #2
     598:	01010101 	tsteq	r1, r1, lsl #2
     59c:	05050101 	streq	r0, [r5, #-257]	; 0xfffffeff
     5a0:	27050114 	smladcs	r5, r4, r1, r0
     5a4:	13020501 	movwne	r0, #9473	; 0x2501
     5a8:	01010101 	tsteq	r1, r1, lsl #2
     5ac:	01010101 	tsteq	r1, r1, lsl #2
     5b0:	01010101 	tsteq	r1, r1, lsl #2
     5b4:	01010101 	tsteq	r1, r1, lsl #2
     5b8:	13010101 	movwne	r0, #4353	; 0x1101
     5bc:	01010101 	tsteq	r1, r1, lsl #2
     5c0:	01010101 	tsteq	r1, r1, lsl #2
     5c4:	01010101 	tsteq	r1, r1, lsl #2
     5c8:	01010101 	tsteq	r1, r1, lsl #2
     5cc:	13010101 	movwne	r0, #4353	; 0x1101
     5d0:	01010101 	tsteq	r1, r1, lsl #2
     5d4:	01010101 	tsteq	r1, r1, lsl #2
     5d8:	01010101 	tsteq	r1, r1, lsl #2
     5dc:	01010101 	tsteq	r1, r1, lsl #2
     5e0:	13010101 	movwne	r0, #4353	; 0x1101
     5e4:	01010101 	tsteq	r1, r1, lsl #2
     5e8:	01010101 	tsteq	r1, r1, lsl #2
     5ec:	01010101 	tsteq	r1, r1, lsl #2
     5f0:	01010101 	tsteq	r1, r1, lsl #2
     5f4:	13010101 	movwne	r0, #4353	; 0x1101
     5f8:	01010101 	tsteq	r1, r1, lsl #2
     5fc:	01010101 	tsteq	r1, r1, lsl #2
     600:	01010101 	tsteq	r1, r1, lsl #2
     604:	01010101 	tsteq	r1, r1, lsl #2
     608:	13010101 	movwne	r0, #4353	; 0x1101
     60c:	01010101 	tsteq	r1, r1, lsl #2
     610:	01010101 	tsteq	r1, r1, lsl #2
     614:	01010101 	tsteq	r1, r1, lsl #2
     618:	01010101 	tsteq	r1, r1, lsl #2
     61c:	13010101 	movwne	r0, #4353	; 0x1101
     620:	01010101 	tsteq	r1, r1, lsl #2
     624:	01010101 	tsteq	r1, r1, lsl #2
     628:	01010101 	tsteq	r1, r1, lsl #2
     62c:	01010101 	tsteq	r1, r1, lsl #2
     630:	13010101 	movwne	r0, #4353	; 0x1101
     634:	01010101 	tsteq	r1, r1, lsl #2
     638:	01010101 	tsteq	r1, r1, lsl #2
     63c:	01010101 	tsteq	r1, r1, lsl #2
     640:	01010101 	tsteq	r1, r1, lsl #2
     644:	13010101 	movwne	r0, #4353	; 0x1101
     648:	01010101 	tsteq	r1, r1, lsl #2
     64c:	01010101 	tsteq	r1, r1, lsl #2
     650:	01010101 	tsteq	r1, r1, lsl #2
     654:	01010101 	tsteq	r1, r1, lsl #2
     658:	13010101 	movwne	r0, #4353	; 0x1101
     65c:	05010101 	streq	r0, [r1, #-257]	; 0xfffffeff
     660:	05130601 	ldreq	r0, [r3, #-1537]	; 0xfffff9ff
     664:	c703061c 	smladgt	r3, ip, r6, r0
     668:	02052e7e 	andeq	r2, r5, #2016	; 0x7e0
     66c:	0200014c 	andeq	r0, r0, #19
     670:	00010404 	andeq	r0, r1, r4, lsl #8
     674:	01040402 	tsteq	r4, r2, lsl #8
     678:	05040200 	streq	r0, [r4, #-512]	; 0xfffffe00
     67c:	04020082 	streq	r0, [r2], #-130	; 0xffffff7e
     680:	02008202 	andeq	r8, r0, #536870912	; 0x20000000
     684:	00010204 	andeq	r0, r1, r4, lsl #4
     688:	82030402 	andhi	r0, r3, #33554432	; 0x2000000
     68c:	03040200 	movweq	r0, #16896	; 0x4200
     690:	04020001 	streq	r0, [r2], #-1
     694:	02009e03 	andeq	r9, r0, #3, 28	; 0x30
     698:	002e0104 	eoreq	r0, lr, r4, lsl #2
     69c:	01010402 	tsteq	r1, r2, lsl #8
     6a0:	01040200 	mrseq	r0, R12_usr
     6a4:	0402009e 	streq	r0, [r2], #-158	; 0xffffff62
     6a8:	02002e06 	andeq	r2, r0, #96	; 0x60
     6ac:	00150604 	andseq	r0, r5, r4, lsl #12
     6b0:	01060402 	tsteq	r6, r2, lsl #8
     6b4:	02040200 	andeq	r0, r4, #0, 4
     6b8:	04020082 	streq	r0, [r2], #-130	; 0xffffff7e
     6bc:	02000102 	andeq	r0, r0, #-2147483648	; 0x80000000
     6c0:	00140204 	andseq	r0, r4, r4, lsl #4
     6c4:	01020402 	tsteq	r2, r2, lsl #8
     6c8:	02040200 	andeq	r0, r4, #0, 4
     6cc:	04020082 	streq	r0, [r2], #-130	; 0xffffff7e
     6d0:	02000102 	andeq	r0, r0, #-2147483648	; 0x80000000
     6d4:	05140204 	ldreq	r0, [r4, #-516]	; 0xfffffdfc
     6d8:	04020001 	streq	r0, [r2], #-1
     6dc:	052f0602 	streq	r0, [pc, #-1538]!	; e2 <__code_start__-0x7f1e>
     6e0:	04020002 	streq	r0, [r2], #-2
     6e4:	00450601 	subeq	r0, r5, r1, lsl #12
     6e8:	01010402 	tsteq	r1, r2, lsl #8
     6ec:	01040200 	mrseq	r0, R12_usr
     6f0:	040200d6 	streq	r0, [r2], #-214	; 0xffffff2a
     6f4:	02003001 	andeq	r3, r0, #1, 0
     6f8:	00010104 	andeq	r0, r1, r4, lsl #2
     6fc:	d6010402 	strle	r0, [r1], -r2, lsl #8
     700:	9b033205 	blls	ccf1c <__bss_end__+0xc236c>
     704:	0658087f 			; <UNDEFINED> instruction: 0x0658087f
     708:	06020501 	streq	r0, [r2], -r1, lsl #10
     70c:	0111052f 	tsteq	r1, pc, lsr #10
     710:	01010101 	tsteq	r1, r1, lsl #2
     714:	052e0101 	streq	r0, [lr, #-257]!	; 0xfffffeff
     718:	05010609 	streq	r0, [r1, #-1545]	; 0xfffff9f7
     71c:	20052f01 	andcs	r2, r5, r1, lsl #30
     720:	2e2d0306 	cdpcs	3, 2, cr0, cr13, cr6, {0}
     724:	052f0205 	streq	r0, [pc, #-517]!	; 527 <__code_start__-0x7ad9>
     728:	05010611 	streq	r0, [r1, #-1553]	; 0xfffff9ef
     72c:	16670603 	strbtne	r0, [r7], -r3, lsl #12
     730:	13020513 	movwne	r0, #9491	; 0x2513
     734:	01010101 	tsteq	r1, r1, lsl #2
     738:	01010101 	tsteq	r1, r1, lsl #2
     73c:	83060105 	movwhi	r0, #24837	; 0x6105
     740:	03063205 	movweq	r3, #25093	; 0x6205
     744:	064a7f8e 	strbeq	r7, [sl], -lr, lsl #31
     748:	06020501 	streq	r0, [r2], -r1, lsl #10
     74c:	0111052f 	tsteq	r1, pc, lsr #10
     750:	01010101 	tsteq	r1, r1, lsl #2
     754:	052e0101 	streq	r0, [lr, #-257]!	; 0xfffffeff
     758:	05010609 	streq	r0, [r1, #-1545]	; 0xfffff9f7
     75c:	44052f01 	strmi	r2, [r5], #-3841	; 0xfffff0ff
     760:	00f30306 	rscseq	r0, r3, r6, lsl #6
     764:	0501062e 	streq	r0, [r1, #-1582]	; 0xfffff9d2
     768:	059f0605 	ldreq	r0, [pc, #1541]	; d75 <__code_start__-0x728b>
     76c:	00013102 	andeq	r3, r1, r2, lsl #2
     770:	01040402 	tsteq	r4, r2, lsl #8
     774:	04040200 	streq	r0, [r4], #-512	; 0xfffffe00
     778:	04020001 	streq	r0, [r2], #-1
     77c:	02008205 	andeq	r8, r0, #1342177280	; 0x50000000
     780:	00820204 	addeq	r0, r2, r4, lsl #4
     784:	01020402 	tsteq	r2, r2, lsl #8
     788:	03040200 	movweq	r0, #16896	; 0x4200
     78c:	04020082 	streq	r0, [r2], #-130	; 0xffffff7e
     790:	02000103 	andeq	r0, r0, #-1073741824	; 0xc0000000
     794:	009e0304 	addseq	r0, lr, r4, lsl #6
     798:	2e010402 	cdpcs	4, 0, cr0, cr1, cr2, {0}
     79c:	01040200 	mrseq	r0, R12_usr
     7a0:	04020001 	streq	r0, [r2], #-1
     7a4:	02009e01 	andeq	r9, r0, #1, 28
     7a8:	002e0604 	eoreq	r0, lr, r4, lsl #12
     7ac:	15060402 	strne	r0, [r6, #-1026]	; 0xfffffbfe
     7b0:	06040200 	streq	r0, [r4], -r0, lsl #4
     7b4:	04020001 	streq	r0, [r2], #-1
     7b8:	02008202 	andeq	r8, r0, #536870912	; 0x20000000
     7bc:	00010204 	andeq	r0, r1, r4, lsl #4
     7c0:	14020402 	strne	r0, [r2], #-1026	; 0xfffffbfe
     7c4:	02040200 	andeq	r0, r4, #0, 4
     7c8:	04020031 	streq	r0, [r2], #-49	; 0xffffffcf
     7cc:	02000102 	andeq	r0, r0, #-2147483648	; 0x80000000
     7d0:	004a0204 	subeq	r0, sl, r4, lsl #4
     7d4:	01020402 	tsteq	r2, r2, lsl #8
     7d8:	02040200 	andeq	r0, r4, #0, 4
     7dc:	04020013 	streq	r0, [r2], #-19	; 0xffffffed
     7e0:	02006902 	andeq	r6, r0, #32768	; 0x8000
     7e4:	00010204 	andeq	r0, r1, r4, lsl #4
     7e8:	4a020402 	bmi	817f8 <__bss_end__+0x76c48>
     7ec:	02040200 	andeq	r0, r4, #0, 4
     7f0:	04020001 	streq	r0, [r2], #-1
     7f4:	02001302 	andeq	r1, r0, #134217728	; 0x8000000
     7f8:	05680204 	strbeq	r0, [r8, #-516]!	; 0xfffffdfc
     7fc:	04020011 	streq	r0, [r2], #-17	; 0xffffffef
     800:	00010602 	andeq	r0, r1, r2, lsl #12
     804:	2e020402 	cdpcs	4, 0, cr0, cr2, cr2, {0}
     808:	02000305 	andeq	r0, r0, #335544320	; 0x14000000
     80c:	4b060204 	blmi	181024 <__bss_end__+0x176474>
     810:	02040200 	andeq	r0, r4, #0, 4
     814:	00080513 	andeq	r0, r8, r3, lsl r5
     818:	06020402 	streq	r0, [r2], -r2, lsl #8
     81c:	00030501 	andeq	r0, r3, r1, lsl #10
     820:	06020402 	streq	r0, [r2], -r2, lsl #8
     824:	000a052f 	andeq	r0, sl, pc, lsr #10
     828:	06020402 	streq	r0, [r2], -r2, lsl #8
     82c:	04020001 	streq	r0, [r2], #-1
     830:	02052e02 	andeq	r2, r5, #2, 28
     834:	02040200 	andeq	r0, r4, #0, 4
     838:	02002f06 	andeq	r2, r0, #6, 30
     83c:	00010204 	andeq	r0, r1, r4, lsl #4
     840:	01020402 	tsteq	r2, r2, lsl #8
     844:	02040200 	andeq	r0, r4, #0, 4
     848:	04020001 	streq	r0, [r2], #-1
     84c:	02000102 	andeq	r0, r0, #-2147483648	; 0x80000000
     850:	00010204 	andeq	r0, r1, r4, lsl #4
     854:	01020402 	tsteq	r2, r2, lsl #8
     858:	02040200 	andeq	r0, r4, #0, 4
     85c:	04020001 	streq	r0, [r2], #-1
     860:	02000102 	andeq	r0, r0, #-2147483648	; 0x80000000
     864:	006e0204 	rsbeq	r0, lr, r4, lsl #4
     868:	01020402 	tsteq	r2, r2, lsl #8
     86c:	04040200 	streq	r0, [r4], #-512	; 0xfffffe00
     870:	04020001 	streq	r0, [r2], #-1
     874:	02000104 	andeq	r0, r0, #1
     878:	00820504 	addeq	r0, r2, r4, lsl #10
     87c:	82020402 	andhi	r0, r2, #33554432	; 0x2000000
     880:	02040200 	andeq	r0, r4, #0, 4
     884:	04020001 	streq	r0, [r2], #-1
     888:	02008203 	andeq	r8, r0, #805306368	; 0x30000000
     88c:	00010304 	andeq	r0, r1, r4, lsl #6
     890:	9e030402 	cdpls	4, 0, cr0, cr3, cr2, {0}
     894:	01040200 	mrseq	r0, R12_usr
     898:	002e6803 	eoreq	r6, lr, r3, lsl #16
     89c:	01010402 	tsteq	r1, r2, lsl #8
     8a0:	01040200 	mrseq	r0, R12_usr
     8a4:	040200d6 	streq	r0, [r2], #-214	; 0xffffff2a
     8a8:	02003301 	andeq	r3, r0, #67108864	; 0x4000000
     8ac:	00010104 	andeq	r0, r1, r4, lsl #2
     8b0:	d6010402 	strle	r0, [r1], -r2, lsl #8
     8b4:	01040200 	mrseq	r0, R12_usr
     8b8:	04020032 	streq	r0, [r2], #-50	; 0xffffffce
     8bc:	02000101 	andeq	r0, r0, #1073741824	; 0x40000000
     8c0:	00d60104 	sbcseq	r0, r6, r4, lsl #2
     8c4:	03010402 	movweq	r0, #5122	; 0x1402
     8c8:	02002e0f 	andeq	r2, r0, #240	; 0xf0
     8cc:	00010104 	andeq	r0, r1, r4, lsl #2
     8d0:	9e010402 	cdpls	4, 0, cr0, cr1, cr2, {0}
     8d4:	2f060105 	svccs	0x00060105
     8d8:	0649054a 	strbeq	r0, [r9], -sl, asr #10
     8dc:	dc020500 	cfstr32le	mvfx0, [r2], {-0}
     8e0:	03000089 	movweq	r0, #137	; 0x89
     8e4:	01060131 	tsteq	r6, r1, lsr r1
     8e8:	9f060505 	svcls	0x00060505
     8ec:	01310205 	teqeq	r1, r5, lsl #4
     8f0:	04040200 	streq	r0, [r4], #-512	; 0xfffffe00
     8f4:	04020001 	streq	r0, [r2], #-1
     8f8:	02000104 	andeq	r0, r0, #1
     8fc:	00820504 	addeq	r0, r2, r4, lsl #10
     900:	82020402 	andhi	r0, r2, #33554432	; 0x2000000
     904:	02040200 	andeq	r0, r4, #0, 4
     908:	04020001 	streq	r0, [r2], #-1
     90c:	02008203 	andeq	r8, r0, #805306368	; 0x30000000
     910:	00010304 	andeq	r0, r1, r4, lsl #6
     914:	9e030402 	cdpls	4, 0, cr0, cr3, cr2, {0}
     918:	01040200 	mrseq	r0, R12_usr
     91c:	0402002e 	streq	r0, [r2], #-46	; 0xffffffd2
     920:	02000101 	andeq	r0, r0, #1073741824	; 0x40000000
     924:	009e0104 	addseq	r0, lr, r4, lsl #2
     928:	2e060402 	cdpcs	4, 0, cr0, cr6, cr2, {0}
     92c:	06040200 	streq	r0, [r4], -r0, lsl #4
     930:	04020017 	streq	r0, [r2], #-23	; 0xffffffe9
     934:	02003106 	andeq	r3, r0, #-2147483647	; 0x80000001
     938:	00010604 	andeq	r0, r1, r4, lsl #12
     93c:	4a020402 	bmi	8194c <__bss_end__+0x76d9c>
     940:	02040200 	andeq	r0, r4, #0, 4
     944:	04020001 	streq	r0, [r2], #-1
     948:	02001302 	andeq	r1, r0, #134217728	; 0x8000000
     94c:	00690204 	rsbeq	r0, r9, r4, lsl #4
     950:	01020402 	tsteq	r2, r2, lsl #8
     954:	02040200 	andeq	r0, r4, #0, 4
     958:	0402004a 	streq	r0, [r2], #-74	; 0xffffffb6
     95c:	02000102 	andeq	r0, r0, #-2147483648	; 0x80000000
     960:	00130204 	andseq	r0, r3, r4, lsl #4
     964:	68020402 	stmdavs	r2, {r1, sl}
     968:	02001105 	andeq	r1, r0, #1073741825	; 0x40000001
     96c:	01060204 	tsteq	r6, r4, lsl #4
     970:	02040200 	andeq	r0, r4, #0, 4
     974:	0003052e 	andeq	r0, r3, lr, lsr #10
     978:	06020402 	streq	r0, [r2], -r2, lsl #8
     97c:	0402004b 	streq	r0, [r2], #-75	; 0xffffffb5
     980:	08051302 	stmdaeq	r5, {r1, r8, r9, ip}
     984:	02040200 	andeq	r0, r4, #0, 4
     988:	03050106 	movweq	r0, #20742	; 0x5106
     98c:	02040200 	andeq	r0, r4, #0, 4
     990:	0a052f06 	beq	14c5b0 <__bss_end__+0x141a00>
     994:	02040200 	andeq	r0, r4, #0, 4
     998:	02000106 	andeq	r0, r0, #-2147483647	; 0x80000001
     99c:	052e0204 	streq	r0, [lr, #-516]!	; 0xfffffdfc
     9a0:	04020002 	streq	r0, [r2], #-2
     9a4:	002f0602 	eoreq	r0, pc, r2, lsl #12
     9a8:	01020402 	tsteq	r2, r2, lsl #8
     9ac:	02040200 	andeq	r0, r4, #0, 4
     9b0:	04020001 	streq	r0, [r2], #-1
     9b4:	02000102 	andeq	r0, r0, #-2147483648	; 0x80000000
     9b8:	00010204 	andeq	r0, r1, r4, lsl #4
     9bc:	01020402 	tsteq	r2, r2, lsl #8
     9c0:	02040200 	andeq	r0, r4, #0, 4
     9c4:	04020001 	streq	r0, [r2], #-1
     9c8:	02000102 	andeq	r0, r0, #-2147483648	; 0x80000000
     9cc:	00010204 	andeq	r0, r1, r4, lsl #4
     9d0:	69020402 	stmdbvs	r2, {r1, sl}
     9d4:	02040200 	andeq	r0, r4, #0, 4
     9d8:	04020001 	streq	r0, [r2], #-1
     9dc:	02000104 	andeq	r0, r0, #1
     9e0:	00010404 	andeq	r0, r1, r4, lsl #8
     9e4:	82050402 	andhi	r0, r5, #33554432	; 0x2000000
     9e8:	02040200 	andeq	r0, r4, #0, 4
     9ec:	04020082 	streq	r0, [r2], #-130	; 0xffffff7e
     9f0:	02000102 	andeq	r0, r0, #-2147483648	; 0x80000000
     9f4:	00820304 	addeq	r0, r2, r4, lsl #6
     9f8:	01030402 	tsteq	r3, r2, lsl #8
     9fc:	03040200 	movweq	r0, #16896	; 0x4200
     a00:	0402009e 	streq	r0, [r2], #-158	; 0xffffff62
     a04:	2e720301 	cdpcs	3, 7, cr0, cr2, cr1, {0}
     a08:	01040200 	mrseq	r0, R12_usr
     a0c:	04020001 	streq	r0, [r2], #-1
     a10:	0200d601 	andeq	sp, r0, #1048576	; 0x100000
     a14:	00320104 	eorseq	r0, r2, r4, lsl #2
     a18:	01010402 	tsteq	r1, r2, lsl #8
     a1c:	01040200 	mrseq	r0, R12_usr
     a20:	040200d6 	streq	r0, [r2], #-214	; 0xffffff2a
     a24:	2e0a0301 	cdpcs	3, 0, cr0, cr10, cr1, {0}
     a28:	01040200 	mrseq	r0, R12_usr
     a2c:	04020001 	streq	r0, [r2], #-1
     a30:	01059e01 	tsteq	r5, r1, lsl #28
     a34:	054a2f06 	strbeq	r2, [sl, #-3846]	; 0xfffff0fa
     a38:	0500063f 	streq	r0, [r0, #-1599]	; 0xfffff9c1
     a3c:	008b7802 	addeq	r7, fp, r2, lsl #16
     a40:	01440300 	mrseq	r0, SPSR_abt
     a44:	02050106 	andeq	r0, r5, #-2147483647	; 0x80000001
     a48:	2e066706 	cdpcs	7, 0, cr6, cr6, cr6, {0}
     a4c:	0530062e 	ldreq	r0, [r0, #-1582]!	; 0xfffff9d2
     a50:	0f050106 	svceq	0x00050106
     a54:	02050106 	andeq	r0, r5, #-2147483647	; 0x80000001
     a58:	0003052e 	andeq	r0, r3, lr, lsr #10
     a5c:	06010402 	streq	r0, [r1], -r2, lsl #8
     a60:	04020030 	streq	r0, [r2], #-48	; 0xffffffd0
     a64:	02000101 	andeq	r0, r0, #1073741824	; 0x40000000
     a68:	4a060104 	bmi	180e80 <__bss_end__+0x1762d0>
     a6c:	01040200 	mrseq	r0, R12_usr
     a70:	02006606 	andeq	r6, r0, #6291456	; 0x600000
     a74:	002e0604 	eoreq	r0, lr, r4, lsl #12
     a78:	15060402 	strne	r0, [r6, #-1026]	; 0xfffffbfe
     a7c:	02001305 	andeq	r1, r0, #335544320	; 0x14000000
     a80:	01060604 	tsteq	r6, r4, lsl #12
     a84:	02000d05 	andeq	r0, r0, #320	; 0x140
     a88:	052e0604 	streq	r0, [lr, #-1540]!	; 0xfffff9fc
     a8c:	04020022 	streq	r0, [r2], #-34	; 0xffffffde
     a90:	05450606 	strbeq	r0, [r5, #-1542]	; 0xfffff9fa
     a94:	04020023 	streq	r0, [r2], #-35	; 0xffffffdd
     a98:	05010606 	streq	r0, [r1, #-1542]	; 0xfffff9fa
     a9c:	04020016 	streq	r0, [r2], #-22	; 0xffffffea
     aa0:	052e0602 	streq	r0, [lr, #-1538]!	; 0xfffff9fe
     aa4:	04020002 	streq	r0, [r2], #-2
     aa8:	05010602 	streq	r0, [r1, #-1538]	; 0xfffff9fe
     aac:	04020003 	streq	r0, [r2], #-3
     ab0:	004c0604 	subeq	r0, ip, r4, lsl #12
     ab4:	01040402 	tsteq	r4, r2, lsl #8
     ab8:	05040200 	streq	r0, [r4, #-512]	; 0xfffffe00
     abc:	04020082 	streq	r0, [r2], #-130	; 0xffffff7e
     ac0:	02008202 	andeq	r8, r0, #536870912	; 0x20000000
     ac4:	00010204 	andeq	r0, r1, r4, lsl #4
     ac8:	82030402 	andhi	r0, r3, #33554432	; 0x2000000
     acc:	03040200 	movweq	r0, #16896	; 0x4200
     ad0:	04020001 	streq	r0, [r2], #-1
     ad4:	004a0603 	subeq	r0, sl, r3, lsl #12
     ad8:	06030402 	streq	r0, [r3], -r2, lsl #8
     adc:	04020066 	streq	r0, [r2], #-102	; 0xffffff9a
     ae0:	052e0603 	streq	r0, [lr, #-1539]!	; 0xfffff9fd
     ae4:	2f180602 	svccs	0x00180602
     ae8:	13060105 	movwne	r0, #24837	; 0x6105
     aec:	da063e05 	ble	190308 <__bss_end__+0x185758>
     af0:	02050106 	andeq	r0, r5, #-2147483647	; 0x80000001
     af4:	2e066706 	cdpcs	7, 0, cr6, cr6, cr6, {0}
     af8:	0531062e 	ldreq	r0, [r1, #-1582]!	; 0xfffff9d2
     afc:	0f050106 	svceq	0x00050106
     b00:	02050106 	andeq	r0, r5, #-2147483647	; 0x80000001
     b04:	0003052e 	andeq	r0, r3, lr, lsr #10
     b08:	06010402 	streq	r0, [r1], -r2, lsl #8
     b0c:	04020030 	streq	r0, [r2], #-48	; 0xffffffd0
     b10:	02000101 	andeq	r0, r0, #1073741824	; 0x40000000
     b14:	4a060104 	bmi	180f2c <__bss_end__+0x17637c>
     b18:	01040200 	mrseq	r0, R12_usr
     b1c:	02006606 	andeq	r6, r0, #6291456	; 0x600000
     b20:	002e0604 	eoreq	r0, lr, r4, lsl #12
     b24:	15060402 	strne	r0, [r6, #-1026]	; 0xfffffbfe
     b28:	02001005 	andeq	r1, r0, #5, 0
     b2c:	01060604 	tsteq	r6, r4, lsl #12
     b30:	02000b05 	andeq	r0, r0, #5120	; 0x1400
     b34:	054a0604 	strbeq	r0, [sl, #-1540]	; 0xfffff9fc
     b38:	04020022 	streq	r0, [r2], #-34	; 0xffffffde
     b3c:	05290606 	streq	r0, [r9, #-1542]!	; 0xfffff9fa
     b40:	04020023 	streq	r0, [r2], #-35	; 0xffffffdd
     b44:	05010606 	streq	r0, [r1, #-1542]	; 0xfffff9fa
     b48:	04020016 	streq	r0, [r2], #-22	; 0xffffffea
     b4c:	052e0602 	streq	r0, [lr, #-1538]!	; 0xfffff9fe
     b50:	04020002 	streq	r0, [r2], #-2
     b54:	05010602 	streq	r0, [r1, #-1538]	; 0xfffff9fe
     b58:	04020003 	streq	r0, [r2], #-3
     b5c:	004c0604 	subeq	r0, ip, r4, lsl #12
     b60:	01040402 	tsteq	r4, r2, lsl #8
     b64:	05040200 	streq	r0, [r4, #-512]	; 0xfffffe00
     b68:	04020082 	streq	r0, [r2], #-130	; 0xffffff7e
     b6c:	02008202 	andeq	r8, r0, #536870912	; 0x20000000
     b70:	00010204 	andeq	r0, r1, r4, lsl #4
     b74:	82030402 	andhi	r0, r3, #33554432	; 0x2000000
     b78:	03040200 	movweq	r0, #16896	; 0x4200
     b7c:	04020001 	streq	r0, [r2], #-1
     b80:	004a0603 	subeq	r0, sl, r3, lsl #12
     b84:	06030402 	streq	r0, [r3], -r2, lsl #8
     b88:	04020066 	streq	r0, [r2], #-102	; 0xffffff9a
     b8c:	052e0603 	streq	r0, [lr, #-1539]!	; 0xfffff9fd
     b90:	2f180602 	svccs	0x00180602
     b94:	13060105 	movwne	r0, #24837	; 0x6105
     b98:	03063305 	movweq	r3, #25349	; 0x6305
     b9c:	0106f220 	tsteq	r6, r0, lsr #4	; <UNPREDICTABLE>
     ba0:	67060505 	strvs	r0, [r6, -r5, lsl #10]
     ba4:	05010905 	streq	r0, [r1, #-2309]	; 0xfffff6fb
     ba8:	05010612 	streq	r0, [r1, #-1554]	; 0xfffff9ee
     bac:	0402001d 	streq	r0, [r2], #-29	; 0xffffffe3
     bb0:	052e0601 	streq	r0, [lr, #-1537]!	; 0xfffff9ff
     bb4:	04020005 	streq	r0, [r2], #-5
     bb8:	05010601 	streq	r0, [r1, #-1537]	; 0xfffff9ff
     bbc:	054c0609 	strbeq	r0, [ip, #-1545]	; 0xfffff9f7
     bc0:	00018403 	andeq	r8, r1, r3, lsl #8
     bc4:	01040402 	tsteq	r4, r2, lsl #8
     bc8:	04040200 	streq	r0, [r4], #-512	; 0xfffffe00
     bcc:	04020001 	streq	r0, [r2], #-1
     bd0:	02008205 	andeq	r8, r0, #1342177280	; 0x50000000
     bd4:	00820204 	addeq	r0, r2, r4, lsl #4
     bd8:	01020402 	tsteq	r2, r2, lsl #8
     bdc:	03040200 	movweq	r0, #16896	; 0x4200
     be0:	04020082 	streq	r0, [r2], #-130	; 0xffffff7e
     be4:	02000103 	andeq	r0, r0, #-1073741824	; 0xc0000000
     be8:	009e0304 	addseq	r0, lr, r4, lsl #6
     bec:	2e010402 	cdpcs	4, 0, cr0, cr1, cr2, {0}
     bf0:	01040200 	mrseq	r0, R12_usr
     bf4:	04020001 	streq	r0, [r2], #-1
     bf8:	02009e01 	andeq	r9, r0, #1, 28
     bfc:	052e0604 	streq	r0, [lr, #-1540]!	; 0xfffff9fc
     c00:	04020009 	streq	r0, [r2], #-9
     c04:	13051306 	movwne	r1, #21254	; 0x5306
     c08:	06040200 	streq	r0, [r4], -r0, lsl #4
     c0c:	03050106 	movweq	r0, #20742	; 0x5106
     c10:	06040200 	streq	r0, [r4], -r0, lsl #4
     c14:	02004b06 	andeq	r4, r0, #6144	; 0x1800
     c18:	00010604 	andeq	r0, r1, r4, lsl #12
     c1c:	01040402 	tsteq	r4, r2, lsl #8
     c20:	04040200 	streq	r0, [r4], #-512	; 0xfffffe00
     c24:	04020001 	streq	r0, [r2], #-1
     c28:	02008205 	andeq	r8, r0, #1342177280	; 0x50000000
     c2c:	00820204 	addeq	r0, r2, r4, lsl #4
     c30:	01020402 	tsteq	r2, r2, lsl #8
     c34:	03040200 	movweq	r0, #16896	; 0x4200
     c38:	04020082 	streq	r0, [r2], #-130	; 0xffffff7e
     c3c:	02000103 	andeq	r0, r0, #-1073741824	; 0xc0000000
     c40:	009e0304 	addseq	r0, lr, r4, lsl #6
     c44:	2e010402 	cdpcs	4, 0, cr0, cr1, cr2, {0}
     c48:	01040200 	mrseq	r0, R12_usr
     c4c:	04020001 	streq	r0, [r2], #-1
     c50:	02009e01 	andeq	r9, r0, #1, 28
     c54:	052e0604 	streq	r0, [lr, #-1540]!	; 0xfffff9fc
     c58:	04020009 	streq	r0, [r2], #-9
     c5c:	13051306 	movwne	r1, #21254	; 0x5306
     c60:	06040200 	streq	r0, [r4], -r0, lsl #4
     c64:	09050106 	stmdbeq	r5, {r1, r2, r8}
     c68:	0a054c06 	beq	153c88 <__bss_end__+0x1490d8>
     c6c:	06180513 			; <UNDEFINED> instruction: 0x06180513
     c70:	4a0c0501 	bmi	30207c <__bss_end__+0x2f74cc>
     c74:	4f060705 	svcmi	0x00060705
     c78:	01061505 	tsteq	r6, r5, lsl #10
     c7c:	054a0905 	strbeq	r0, [sl, #-2309]	; 0xfffff6fb
     c80:	054e060d 	strbeq	r0, [lr, #-1549]	; 0xfffff9f3
     c84:	0501061b 	streq	r0, [r1, #-1563]	; 0xfffff9e5
     c88:	08054a0f 	stmdaeq	r5, {r0, r1, r2, r3, r9, fp, lr}
     c8c:	9e014b06 	vmlals.f64	d4, d1, d6
     c90:	77031105 	strvc	r1, [r3, -r5, lsl #2]
     c94:	052f672e 	streq	r6, [pc, #-1838]!	; 56e <__code_start__-0x7a92>
     c98:	010a0305 	tsteq	sl, r5, lsl #6
     c9c:	03061805 	movweq	r1, #26629	; 0x6805
     ca0:	01050176 	tsteq	r5, r6, ror r1
     ca4:	052e0b03 	streq	r0, [lr, #-2819]!	; 0xfffff4fd
     ca8:	78030608 	stmdavc	r3, {r3, r9, sl}
     cac:	6711052e 	ldrvs	r0, [r1, -lr, lsr #10]
     cb0:	6f032a05 	svcvs	0x00032a05
     cb4:	062e0501 	strteq	r0, [lr], -r1, lsl #10
     cb8:	052e2e01 	streq	r2, [lr, #-3585]!	; 0xfffff1ff
     cbc:	17030605 	strne	r0, [r3, -r5, lsl #12]
     cc0:	059e0101 	ldreq	r0, [lr, #257]	; 0x101
     cc4:	05b2081e 	ldreq	r0, [r2, #2078]!	; 0x81e
     cc8:	01051302 	tsteq	r5, r2, lsl #6
     ccc:	15051306 	strne	r1, [r5, #-774]	; 0xfffffcfa
     cd0:	820b0306 	andhi	r0, fp, #402653184	; 0x18000000
     cd4:	314b0205 	cmpcc	fp, r5, lsl #4
     cd8:	13320305 	teqne	r2, #335544320	; 0x14000000
     cdc:	02056713 	andeq	r6, r5, #4980736	; 0x4c0000
     ce0:	32030569 	andcc	r0, r3, #440401920	; 0x1a400000
     ce4:	01011205 	tsteq	r1, r5, lsl #4
     ce8:	01010101 	tsteq	r1, r1, lsl #2
     cec:	03050101 	movweq	r0, #20737	; 0x5101
     cf0:	012e1313 			; <UNDEFINED> instruction: 0x012e1313
     cf4:	01010101 	tsteq	r1, r1, lsl #2
     cf8:	02050101 	andeq	r0, r5, #1073741824	; 0x40000000
     cfc:	30030569 	andcc	r0, r3, r9, ror #10
     d00:	2f310205 	svccs	0x00310205
     d04:	04020001 	streq	r0, [r2], #-1
     d08:	02006602 	andeq	r6, r0, #2097152	; 0x200000
     d0c:	00010204 	andeq	r0, r1, r4, lsl #4
     d10:	14020402 	strne	r0, [r2], #-1026	; 0xfffffbfe
     d14:	02001005 	andeq	r1, r0, #5, 0
     d18:	01060204 	tsteq	r6, r4, lsl #4
     d1c:	02000105 	andeq	r0, r0, #1073741825	; 0x40000001
     d20:	05670204 	strbeq	r0, [r7, #-516]!	; 0xfffffdfc
     d24:	04020002 	streq	r0, [r2], #-2
     d28:	00470601 	subeq	r0, r7, r1, lsl #12
     d2c:	01010402 	tsteq	r1, r2, lsl #8
     d30:	01040200 	mrseq	r0, R12_usr
     d34:	031a05d6 	tsteq	sl, #897581056	; 0x35800000
     d38:	0205f259 	andeq	pc, r5, #-1879048187	; 0x90000005
     d3c:	0605052f 	streq	r0, [r5], -pc, lsr #10
     d40:	2e040501 	cfsh32cs	mvfx0, mvfx4, #1
     d44:	4c060205 	sfmmi	f0, 4, [r6], {5}
     d48:	2f060105 	svccs	0x00060105
     d4c:	01000202 	tsteq	r0, r2, lsl #4
     d50:	00028901 	andeq	r8, r2, r1, lsl #18
     d54:	c9000300 	stmdbgt	r0, {r8, r9}
     d58:	02000000 	andeq	r0, r0, #0, 0
     d5c:	0d0efb01 	vstreq	d15, [lr, #-4]
     d60:	01010100 	mrseq	r0, (UNDEF: 17)
     d64:	00000001 	andeq	r0, r0, r1
     d68:	01000001 	tsteq	r0, r1
     d6c:	72732f2e 	rsbsvc	r2, r3, #184	; 0xb8
     d70:	552f0063 	strpl	r0, [pc, #-99]!	; d15 <__code_start__-0x72eb>
     d74:	73726573 	cmnvc	r2, #482344960	; 0x1cc00000
     d78:	6c696d2f 	stclvs	13, cr6, [r9], #-188	; 0xffffff44
     d7c:	532f7365 			; <UNDEFINED> instruction: 0x532f7365
     d80:	6372756f 	cmnvs	r2, #465567744	; 0x1bc00000
     d84:	73632f65 	cmnvc	r3, #404	; 0x194
     d88:	6c303432 	cfldrsvs	mvf3, [r0], #-200	; 0xffffff38
     d8c:	696c2f78 	stmdbvs	ip!, {r3, r4, r5, r6, r8, r9, sl, fp, sp}^
     d90:	2f697062 	svccs	0x00697062
     d94:	6c636e69 	stclvs	14, cr6, [r3], #-420	; 0xfffffe5c
     d98:	00656475 	rsbeq	r6, r5, r5, ror r4
     d9c:	74706f2f 	ldrbtvc	r6, [r0], #-3887	; 0xfffff0d1
     da0:	6d6f682f 	stclvs	8, cr6, [pc, #-188]!	; cec <__code_start__-0x7314>
     da4:	65726265 	ldrbvs	r6, [r2, #-613]!	; 0xfffffd9b
     da8:	65432f77 	strbvs	r2, [r3, #-3959]	; 0xfffff089
     dac:	72616c6c 	rsbvc	r6, r1, #108, 24	; 0x6c00
     db0:	6d72612f 	ldfvse	f6, [r2, #-188]!	; 0xffffff44
     db4:	6e6f6e2d 	cdpvs	14, 6, cr6, cr15, cr13, {1}
     db8:	61652d65 	cmnvs	r5, r5, ror #26
     dbc:	392d6962 	pushcc	{r1, r5, r6, r8, fp, sp, lr}
     dc0:	322d392f 	eorcc	r3, sp, #770048	; 0xbc000
     dc4:	71393130 	teqvc	r9, r0, lsr r1
     dc8:	73632d34 	cmnvc	r3, #52, 26	; 0xd00
     dcc:	65373031 	ldrvs	r3, [r7, #-49]!	; 0xffffffcf
     dd0:	62696c2f 	rsbvs	r6, r9, #12032	; 0x2f00
     dd4:	6363672f 	cmnvs	r3, #12320768	; 0xbc0000
     dd8:	6d72612f 	ldfvse	f6, [r2, #-188]!	; 0xffffff44
     ddc:	6e6f6e2d 	cdpvs	14, 6, cr6, cr15, cr13, {1}
     de0:	61652d65 	cmnvs	r5, r5, ror #26
     de4:	392f6962 	stmdbcc	pc!, {r1, r5, r6, r8, fp, sp, lr}	; <UNPREDICTABLE>
     de8:	312e322e 			; <UNDEFINED> instruction: 0x312e322e
     dec:	636e692f 	cmnvs	lr, #770048	; 0xbc000
     df0:	6564756c 	strbvs	r7, [r4, #-1388]!	; 0xfffffa94
     df4:	70670000 	rsbvc	r0, r7, r0
     df8:	632e6f69 			; <UNDEFINED> instruction: 0x632e6f69
     dfc:	00000100 	andeq	r0, r0, r0, lsl #2
     e00:	2e697072 	mcrcs	0, 3, r7, cr9, cr2, {3}
     e04:	00020068 	andeq	r0, r2, r8, rrx
     e08:	64747300 	ldrbtvs	r7, [r4], #-768	; 0xfffffd00
     e0c:	2d746e69 	ldclcs	14, cr6, [r4, #-420]!	; 0xfffffe5c
     e10:	2e636367 	cdpcs	3, 6, cr6, cr3, cr7, {3}
     e14:	00030068 	andeq	r0, r3, r8, rrx
     e18:	69706700 	ldmdbvs	r0!, {r8, r9, sl, sp, lr}^
     e1c:	00682e6f 	rsbeq	r2, r8, pc, ror #28
     e20:	00000002 	andeq	r0, r0, r2
     e24:	05003805 	streq	r3, [r0, #-2053]	; 0xfffff7fb
     e28:	008f7002 	addeq	r7, pc, r2
     e2c:	01270300 			; <UNDEFINED> instruction: 0x01270300
     e30:	05130505 	ldreq	r0, [r3, #-1285]	; 0xfffffafb
     e34:	05010607 	streq	r0, [r1, #-1543]	; 0xfffff9f9
     e38:	05490606 	strbeq	r0, [r9, #-1542]	; 0xfffff9fa
     e3c:	07051505 	streq	r1, [r5, -r5, lsl #10]
     e40:	38050106 	stmdacc	r5, {r1, r2, r8}
     e44:	4d07052b 	cfstr32mi	mvfx0, [r7, #-172]	; 0xffffff54
     e48:	30060505 	andcc	r0, r6, r5, lsl #10
     e4c:	01061805 	tsteq	r6, r5, lsl #16
     e50:	05671c05 	strbeq	r1, [r7, #-3077]!	; 0xfffff3fb
     e54:	18054a0e 	stmdane	r5, {r1, r2, r3, r9, fp, lr}
     e58:	4d12052d 	cfldr32mi	mvfx0, [r2, #-180]	; 0xffffff4c
     e5c:	0e052f2e 	cdpeq	15, 0, cr2, cr5, cr14, {1}
     e60:	0605052a 	streq	r0, [r5], -sl, lsr #10
     e64:	0513142f 	ldreq	r1, [r3, #-1071]	; 0xfffffbd1
     e68:	05010607 	streq	r0, [r1, #-1543]	; 0xfffff9f9
     e6c:	132f0605 			; <UNDEFINED> instruction: 0x132f0605
     e70:	052e2e06 	streq	r2, [lr, #-3590]!	; 0xfffff1fa
     e74:	05051301 	streq	r1, [r5, #-769]	; 0xfffffcff
     e78:	24052e2d 	strcs	r2, [r5], #-3629	; 0xfffff1d3
     e7c:	02050006 	andeq	r0, r5, #6, 0
     e80:	00008fd0 	ldrdeq	r8, [r0], -r0
     e84:	13050515 	movwne	r0, #21781	; 0x5515
     e88:	71030605 	tstvc	r3, r5, lsl #12
     e8c:	13050501 	movwne	r0, #21761	; 0x5501
     e90:	01060705 	tsteq	r6, r5, lsl #14
     e94:	49060605 	stmdbmi	r6, {r0, r2, r9, sl}
     e98:	14150505 	ldrne	r0, [r5], #-1285	; 0xfffffafb
     e9c:	03062405 	movweq	r2, #25605	; 0x6405
     ea0:	18050109 	stmdane	r5, {r0, r3, r8}
     ea4:	052e7703 	streq	r7, [lr, #-1795]!	; 0xfffff8fd
     ea8:	0e05671c 	mcreq	7, 0, r6, cr5, cr12, {0}
     eac:	2d18054a 	cfldr32cs	mvfx0, [r8, #-296]	; 0xfffffed8
     eb0:	2e4d1205 	cdpcs	2, 4, cr1, cr13, cr5, {0}
     eb4:	2f0f052f 	svccs	0x000f052f
     eb8:	05290e05 	streq	r0, [r9, #-3589]!	; 0xfffff1fb
     ebc:	142f0605 	strtne	r0, [pc], #-1541	; ec4 <__code_start__-0x713c>
     ec0:	06070513 			; <UNDEFINED> instruction: 0x06070513
     ec4:	06050501 	streq	r0, [r5], -r1, lsl #10
     ec8:	2e06132f 	cdpcs	3, 0, cr1, cr6, cr15, {1}
     ecc:	05330105 	ldreq	r0, [r3, #-261]!	; 0xfffffefb
     ed0:	052e2905 	streq	r2, [lr, #-2309]!	; 0xfffff6fb
     ed4:	05000627 	streq	r0, [r0, #-1575]	; 0xfffff9d9
     ed8:	00902802 	addseq	r2, r0, r2, lsl #16
     edc:	05051a00 	streq	r1, [r5, #-2560]	; 0xfffff600
     ee0:	06270513 			; <UNDEFINED> instruction: 0x06270513
     ee4:	2f180511 	svccs	0x00180511
     ee8:	2e2e0505 	cfsh64cs	mvdx0, mvdx14, #5
     eec:	0628054a 	strteq	r0, [r8], -sl, asr #10
     ef0:	40020500 	andmi	r0, r2, r0, lsl #10
     ef4:	16000090 			; <UNDEFINED> instruction: 0x16000090
     ef8:	05130505 	ldreq	r0, [r3, #-1285]	; 0xfffffafb
     efc:	05110628 	ldreq	r0, [r1, #-1576]	; 0xfffff9d8
     f00:	05052f18 	streq	r2, [r5, #-3864]	; 0xfffff0e8
     f04:	054a2e2e 	strbeq	r2, [sl, #-3630]	; 0xfffff1d2
     f08:	05000623 	streq	r0, [r0, #-1571]	; 0xfffff9dd
     f0c:	00905802 	addseq	r5, r0, r2, lsl #16
     f10:	05051600 	streq	r1, [r5, #-1536]	; 0xfffffa00
     f14:	03060513 	movweq	r0, #25875	; 0x6513
     f18:	05050162 	streq	r0, [r5, #-354]	; 0xfffffe9e
     f1c:	06070513 			; <UNDEFINED> instruction: 0x06070513
     f20:	06060501 	streq	r0, [r6], -r1, lsl #10
     f24:	15050549 	strne	r0, [r5, #-1353]	; 0xfffffab7
     f28:	23051314 	movwcs	r1, #21268	; 0x5314
     f2c:	01170306 	tsteq	r7, r6, lsl #6
     f30:	69032205 	stmdbvs	r3, {r0, r2, r9, sp}
     f34:	821c052e 	andshi	r0, ip, #192937984	; 0xb800000
     f38:	2e0e052e 	cfsh32cs	mvfx0, mvfx14, #30
     f3c:	30060505 	andcc	r0, r6, r5, lsl #10
     f40:	01061205 	tsteq	r6, r5, lsl #4
     f44:	05052d4b 	streq	r2, [r5, #-3403]	; 0xfffff2b5
     f48:	13132f06 	tstne	r3, #6, 30
     f4c:	03061805 	movweq	r1, #26629	; 0x6805
     f50:	0e05017a 	mcreq	1, 0, r0, cr5, cr10, {3}
     f54:	3405054a 	strcc	r0, [r5], #-1354	; 0xfffffab6
     f58:	0301052e 	movweq	r0, #5422	; 0x152e
     f5c:	05052e14 	streq	r2, [r5, #-3604]	; 0xfffff1ec
     f60:	2e2e6c03 	cdpcs	12, 2, cr6, cr14, cr3, {0}
     f64:	00062b05 	andeq	r2, r6, r5, lsl #22
     f68:	90b00205 	adcsls	r0, r0, r5, lsl #4
     f6c:	17030000 	strne	r0, [r3, -r0]
     f70:	13050501 	movwne	r0, #21761	; 0x5501
     f74:	01060705 	tsteq	r6, r5, lsl #14
     f78:	71031805 	tstvc	r3, r5, lsl #16
     f7c:	032b052e 			; <UNDEFINED> instruction: 0x032b052e
     f80:	07052e0e 	streq	r2, [r5, -lr, lsl #28]
     f84:	0609052f 	streq	r0, [r9], -pc, lsr #10
     f88:	030d052f 	movweq	r0, #54575	; 0xd52f
     f8c:	0505016f 	streq	r0, [r5, #-367]	; 0xfffffe91
     f90:	2e2e0613 	mcrcs	6, 1, r0, cr14, cr3, {0}
     f94:	0609052e 	streq	r0, [r9], -lr, lsr #10
     f98:	05011203 	streq	r1, [r1, #-515]	; 0xfffffdfd
     f9c:	0172030d 	cmneq	r2, sp, lsl #6
     fa0:	06130505 	ldreq	r0, [r3], -r5, lsl #10
     fa4:	1d052e2e 	stcne	14, cr2, [r5, #-184]	; 0xffffff48
     fa8:	66100306 	ldrvs	r0, [r0], -r6, lsl #6
     fac:	05130505 	ldreq	r0, [r3, #-1285]	; 0xfffffafb
     fb0:	2e11061d 	mrccs	6, 0, r0, cr1, cr13, {0}
     fb4:	30060505 	andcc	r0, r6, r5, lsl #10
     fb8:	060e0513 			; <UNDEFINED> instruction: 0x060e0513
     fbc:	30170510 	andscc	r0, r7, r0, lsl r5
     fc0:	0502042e 	streq	r0, [r2, #-1070]	; 0xfffffbd2
     fc4:	e2030630 	and	r0, r3, #48, 12	; 0x3000000
     fc8:	01042e00 	tsteq	r4, r0, lsl #28
     fcc:	03060e05 	movweq	r0, #28165	; 0x6e05
     fd0:	05017f9d 	streq	r7, [r1, #-3997]	; 0xfffff063
     fd4:	01052f23 	tsteq	r5, r3, lsr #30
     fd8:	0006022f 	andeq	r0, r6, pc, lsr #4
     fdc:	01200101 			; <UNDEFINED> instruction: 0x01200101
     fe0:	00030000 	andeq	r0, r3, r0
     fe4:	000000db 	ldrdeq	r0, [r0], -fp
     fe8:	0efb0102 	cdpeq	1, 15, cr0, cr11, cr2, {0}
     fec:	0101000d 	tsteq	r1, sp
     ff0:	00000101 	andeq	r0, r0, r1, lsl #2
     ff4:	00000100 	andeq	r0, r0, r0, lsl #2
     ff8:	6c2f2e01 	stcvs	14, cr2, [pc], #-4	; ffc <__code_start__-0x7004>
     ffc:	00636269 	rsbeq	r6, r3, r9, ror #4
    1000:	74706f2f 	ldrbtvc	r6, [r0], #-3887	; 0xfffff0d1
    1004:	6d6f682f 	stclvs	8, cr6, [pc, #-188]!	; f50 <__code_start__-0x70b0>
    1008:	65726265 	ldrbvs	r6, [r2, #-613]!	; 0xfffffd9b
    100c:	65432f77 	strbvs	r2, [r3, #-3959]	; 0xfffff089
    1010:	72616c6c 	rsbvc	r6, r1, #108, 24	; 0x6c00
    1014:	6d72612f 	ldfvse	f6, [r2, #-188]!	; 0xffffff44
    1018:	6e6f6e2d 	cdpvs	14, 6, cr6, cr15, cr13, {1}
    101c:	61652d65 	cmnvs	r5, r5, ror #26
    1020:	392d6962 	pushcc	{r1, r5, r6, r8, fp, sp, lr}
    1024:	322d392f 	eorcc	r3, sp, #770048	; 0xbc000
    1028:	71393130 	teqvc	r9, r0, lsr r1
    102c:	73632d34 	cmnvc	r3, #52, 26	; 0xd00
    1030:	65373031 	ldrvs	r3, [r7, #-49]!	; 0xffffffcf
    1034:	62696c2f 	rsbvs	r6, r9, #12032	; 0x2f00
    1038:	6363672f 	cmnvs	r3, #12320768	; 0xbc0000
    103c:	6d72612f 	ldfvse	f6, [r2, #-188]!	; 0xffffff44
    1040:	6e6f6e2d 	cdpvs	14, 6, cr6, cr15, cr13, {1}
    1044:	61652d65 	cmnvs	r5, r5, ror #26
    1048:	392f6962 	stmdbcc	pc!, {r1, r5, r6, r8, fp, sp, lr}	; <UNPREDICTABLE>
    104c:	312e322e 			; <UNDEFINED> instruction: 0x312e322e
    1050:	636e692f 	cmnvs	lr, #770048	; 0xbc000
    1054:	6564756c 	strbvs	r7, [r4, #-1388]!	; 0xfffffa94
    1058:	73552f00 	cmpvc	r5, #0, 30
    105c:	2f737265 	svccs	0x00737265
    1060:	656c696d 	strbvs	r6, [ip, #-2413]!	; 0xfffff693
    1064:	6f532f73 	svcvs	0x00532f73
    1068:	65637275 	strbvs	r7, [r3, #-629]!	; 0xfffffd8b
    106c:	3273632f 	rsbscc	r6, r3, #-1140850688	; 0xbc000000
    1070:	786c3034 	stmdavc	ip!, {r2, r4, r5, ip, sp}^
    1074:	62696c2f 	rsbvs	r6, r9, #12032	; 0x2f00
    1078:	692f6970 	stmdbvs	pc!, {r4, r5, r6, r8, fp, sp, lr}	; <UNPREDICTABLE>
    107c:	756c636e 	strbvc	r6, [ip, #-878]!	; 0xfffffc92
    1080:	00006564 	andeq	r6, r0, r4, ror #10
    1084:	6e697270 	mcrvs	2, 3, r7, cr9, cr0, {3}
    1088:	632e6b74 			; <UNDEFINED> instruction: 0x632e6b74
    108c:	00000100 	andeq	r0, r0, r0, lsl #2
    1090:	61647473 	smcvs	18243	; 0x4743
    1094:	682e6772 	stmdavs	lr!, {r1, r4, r5, r6, r8, r9, sl, sp, lr}
    1098:	00000200 	andeq	r0, r0, r0, lsl #4
    109c:	2e697072 	mcrcs	0, 3, r7, cr9, cr2, {3}
    10a0:	00030068 	andeq	r0, r3, r8, rrx
    10a4:	75623c00 	strbvc	r3, [r2, #-3072]!	; 0xfffff400
    10a8:	2d746c69 	ldclcs	12, cr6, [r4, #-420]!	; 0xfffffe5c
    10ac:	003e6e69 	eorseq	r6, lr, r9, ror #28
    10b0:	76000000 	strvc	r0, [r0], -r0
    10b4:	72702d61 	rsbsvc	r2, r0, #6208	; 0x1840
    10b8:	6b746e69 	blvs	1d1ca64 <__bss_end__+0x1d11eb4>
    10bc:	0100682e 	tsteq	r0, lr, lsr #16
    10c0:	05000000 	streq	r0, [r0, #-0]
    10c4:	02050022 	andeq	r0, r5, #34, 0	; 0x22
    10c8:	00009108 	andeq	r9, r0, r8, lsl #2
    10cc:	14050517 	strne	r0, [r5], #-1303	; 0xfffffae9
    10d0:	22051413 	andcs	r1, r5, #318767104	; 0x13000000
    10d4:	12050d06 	andne	r0, r5, #384	; 0x180
    10d8:	03220550 			; <UNDEFINED> instruction: 0x03220550
    10dc:	05052e7a 	streq	r2, [r5, #-3706]	; 0xfffff186
    10e0:	2f120533 	svccs	0x00120533
    10e4:	05650505 	strbeq	r0, [r5, #-1285]!	; 0xfffffafb
    10e8:	052f0609 	streq	r0, [pc, #-1545]!	; ae7 <__code_start__-0x7519>
    10ec:	05010612 	streq	r0, [r1, #-1554]	; 0xfffff9ee
    10f0:	164b0605 	strbne	r0, [fp], -r5, lsl #12
    10f4:	50064a06 	andpl	r4, r6, r6, lsl #20
    10f8:	13060105 	movwne	r0, #24837	; 0x6105
    10fc:	00080266 	andeq	r0, r8, r6, ror #4
    1100:	00a00101 	adceq	r0, r0, r1, lsl #2
    1104:	00030000 	andeq	r0, r3, r0
    1108:	00000057 	andeq	r0, r0, r7, asr r0
    110c:	0efb0102 	cdpeq	1, 15, cr0, cr11, cr2, {0}
    1110:	0101000d 	tsteq	r1, sp
    1114:	00000101 	andeq	r0, r0, r1, lsl #2
    1118:	00000100 	andeq	r0, r0, r0, lsl #2
    111c:	6c2f2e01 	stcvs	14, cr2, [pc], #-4	; 1120 <__code_start__-0x6ee0>
    1120:	00636269 	rsbeq	r6, r3, r9, ror #4
    1124:	6573552f 	ldrbvs	r5, [r3, #-1327]!	; 0xfffffad1
    1128:	6d2f7372 	stcvs	3, cr7, [pc, #-456]!	; f68 <__code_start__-0x7098>
    112c:	73656c69 	cmnvc	r5, #26880	; 0x6900
    1130:	756f532f 	strbvc	r5, [pc, #-815]!	; e09 <__code_start__-0x71f7>
    1134:	2f656372 	svccs	0x00656372
    1138:	34327363 	ldrtcc	r7, [r2], #-867	; 0xfffffc9d
    113c:	2f786c30 	svccs	0x00786c30
    1140:	7062696c 	rsbvc	r6, r2, ip, ror #18
    1144:	6e692f69 	cdpvs	15, 6, cr2, cr9, cr9, {3}
    1148:	64756c63 	ldrbtvs	r6, [r5], #-3171	; 0xfffff39d
    114c:	70000065 	andvc	r0, r0, r5, rrx
    1150:	2e6b7475 	mcrcs	4, 3, r7, cr11, cr5, {3}
    1154:	00010063 	andeq	r0, r1, r3, rrx
    1158:	69707200 	ldmdbvs	r0!, {r9, ip, sp, lr}^
    115c:	0200682e 	andeq	r6, r0, #3014656	; 0x2e0000
    1160:	05000000 	streq	r0, [r0, #-0]
    1164:	02050022 	andeq	r0, r5, #34, 0	; 0x22
    1168:	00009160 	andeq	r9, r0, r0, ror #2
    116c:	13050515 	movwne	r0, #21781	; 0x5515
    1170:	11062205 	tstne	r6, r5, lsl #4
    1174:	060b052e 	streq	r0, [fp], -lr, lsr #10
    1178:	0605052f 	streq	r0, [r5], -pc, lsr #10
    117c:	0009052e 	andeq	r0, r9, lr, lsr #10
    1180:	06020402 	streq	r0, [r2], -r2, lsl #8
    1184:	000f0567 	andeq	r0, pc, r7, ror #10
    1188:	49020402 	stmdbmi	r2, {r1, sl}
    118c:	02000b05 	andeq	r0, r0, #5120	; 0x1400
    1190:	05010204 	streq	r0, [r1, #-516]	; 0xfffffdfc
    1194:	04020005 	streq	r0, [r2], #-5
    1198:	062e0602 	strteq	r0, [lr], -r2, lsl #12
    119c:	0601054e 	streq	r0, [r1], -lr, asr #10
    11a0:	00060213 	andeq	r0, r6, r3, lsl r2
    11a4:	08fa0101 	ldmeq	sl!, {r0, r8}^
    11a8:	00030000 	andeq	r0, r3, r0
    11ac:	000000f1 	strdeq	r0, [r0], -r1
    11b0:	0efb0102 	cdpeq	1, 15, cr0, cr11, cr2, {0}
    11b4:	0101000d 	tsteq	r1, sp
    11b8:	00000101 	andeq	r0, r0, r1, lsl #2
    11bc:	00000100 	andeq	r0, r0, r0, lsl #2
    11c0:	6c2f2e01 	stcvs	14, cr2, [pc], #-4	; 11c4 <__code_start__-0x6e3c>
    11c4:	00636269 	rsbeq	r6, r3, r9, ror #4
    11c8:	74706f2f 	ldrbtvc	r6, [r0], #-3887	; 0xfffff0d1
    11cc:	6d6f682f 	stclvs	8, cr6, [pc, #-188]!	; 1118 <__code_start__-0x6ee8>
    11d0:	65726265 	ldrbvs	r6, [r2, #-613]!	; 0xfffffd9b
    11d4:	65432f77 	strbvs	r2, [r3, #-3959]	; 0xfffff089
    11d8:	72616c6c 	rsbvc	r6, r1, #108, 24	; 0x6c00
    11dc:	6d72612f 	ldfvse	f6, [r2, #-188]!	; 0xffffff44
    11e0:	6e6f6e2d 	cdpvs	14, 6, cr6, cr15, cr13, {1}
    11e4:	61652d65 	cmnvs	r5, r5, ror #26
    11e8:	392d6962 	pushcc	{r1, r5, r6, r8, fp, sp, lr}
    11ec:	322d392f 	eorcc	r3, sp, #770048	; 0xbc000
    11f0:	71393130 	teqvc	r9, r0, lsr r1
    11f4:	73632d34 	cmnvc	r3, #52, 26	; 0xd00
    11f8:	65373031 	ldrvs	r3, [r7, #-49]!	; 0xffffffcf
    11fc:	62696c2f 	rsbvs	r6, r9, #12032	; 0x2f00
    1200:	6363672f 	cmnvs	r3, #12320768	; 0xbc0000
    1204:	6d72612f 	ldfvse	f6, [r2, #-188]!	; 0xffffff44
    1208:	6e6f6e2d 	cdpvs	14, 6, cr6, cr15, cr13, {1}
    120c:	61652d65 	cmnvs	r5, r5, ror #26
    1210:	392f6962 	stmdbcc	pc!, {r1, r5, r6, r8, fp, sp, lr}	; <UNPREDICTABLE>
    1214:	312e322e 			; <UNDEFINED> instruction: 0x312e322e
    1218:	636e692f 	cmnvs	lr, #770048	; 0xbc000
    121c:	6564756c 	strbvs	r7, [r4, #-1388]!	; 0xfffffa94
    1220:	73552f00 	cmpvc	r5, #0, 30
    1224:	2f737265 	svccs	0x00737265
    1228:	656c696d 	strbvs	r6, [ip, #-2413]!	; 0xfffff693
    122c:	6f532f73 	svcvs	0x00532f73
    1230:	65637275 	strbvs	r7, [r3, #-629]!	; 0xfffffd8b
    1234:	3273632f 	rsbscc	r6, r3, #-1140850688	; 0xbc000000
    1238:	786c3034 	stmdavc	ip!, {r2, r4, r5, ip, sp}^
    123c:	62696c2f 	rsbvs	r6, r9, #12032	; 0x2f00
    1240:	692f6970 	stmdbvs	pc!, {r4, r5, r6, r8, fp, sp, lr}	; <UNPREDICTABLE>
    1244:	756c636e 	strbvc	r6, [ip, #-878]!	; 0xfffffc92
    1248:	00006564 	andeq	r6, r0, r4, ror #10
    124c:	702d6176 	eorvc	r6, sp, r6, ror r1
    1250:	746e6972 	strbtvc	r6, [lr], #-2418	; 0xfffff68e
    1254:	00632e6b 	rsbeq	r2, r3, fp, ror #28
    1258:	73000001 	movwvc	r0, #1
    125c:	6e696474 	mcrvs	4, 3, r6, cr9, cr4, {3}
    1260:	63672d74 	cmnvs	r7, #116, 26	; 0x1d00
    1264:	00682e63 	rsbeq	r2, r8, r3, ror #28
    1268:	72000002 	andvc	r0, r0, #2, 0
    126c:	682e6970 	stmdavs	lr!, {r4, r5, r6, r8, fp, sp, lr}
    1270:	00000300 	andeq	r0, r0, r0, lsl #6
    1274:	2d697072 	stclcs	0, cr7, [r9, #-456]!	; 0xfffffe38
    1278:	65746e69 	ldrbvs	r6, [r4, #-3689]!	; 0xfffff197
    127c:	6c616e72 	stclvs	14, cr6, [r1], #-456	; 0xfffffe38
    1280:	0300682e 	movweq	r6, #2094	; 0x82e
    1284:	74730000 	ldrbtvc	r0, [r3], #-0
    1288:	67726164 	ldrbvs	r6, [r2, -r4, ror #2]!
    128c:	0200682e 	andeq	r6, r0, #3014656	; 0x2e0000
    1290:	623c0000 	eorsvs	r0, ip, #0, 0
    1294:	746c6975 	strbtvc	r6, [ip], #-2421	; 0xfffff68b
    1298:	3e6e692d 	vmulcc.f16	s13, s28, s27	; <UNPREDICTABLE>
    129c:	00000000 	andeq	r0, r0, r0
    12a0:	00010500 	andeq	r0, r1, r0, lsl #10
    12a4:	91980205 	orrsls	r0, r8, r5, lsl #4
    12a8:	c8030000 	stmdagt	r3, {}	; <UNPREDICTABLE>
    12ac:	02050100 	andeq	r0, r5, #0
    12b0:	06010514 			; <UNDEFINED> instruction: 0x06010514
    12b4:	30040510 	andcc	r0, r4, r0, lsl r5
    12b8:	4a2c0105 	bmi	b016d4 <__bss_end__+0xaf6b24>
    12bc:	05300405 	ldreq	r0, [r0, #-1029]!	; 0xfffffbfb
    12c0:	13310602 	teqne	r1, #2097152	; 0x200000
    12c4:	2e060b05 	vmlacs.f64	d0, d6, d5
    12c8:	30060205 	andcc	r0, r6, r5, lsl #4
    12cc:	02060905 	andeq	r0, r6, #81920	; 0x14000
    12d0:	2e2e0d24 	cdpcs	13, 2, cr0, cr14, cr4, {1}
    12d4:	03060d05 	movweq	r0, #27909	; 0x6d05
    12d8:	11054a17 	tstne	r5, r7, lsl sl
    12dc:	062d0513 			; <UNDEFINED> instruction: 0x062d0513
    12e0:	2e160501 	cfmul32cs	mvfx0, mvfx6, mvfx1
    12e4:	052f0d05 	streq	r0, [pc, #-3333]!	; 5e7 <__code_start__-0x7a19>
    12e8:	14052d16 	strne	r2, [r5], #-3350	; 0xfffff2ea
    12ec:	17052f06 	strne	r2, [r5, -r6, lsl #30]
    12f0:	0d050106 	stfeqs	f0, [r5, #-24]	; 0xffffffe8
    12f4:	052f062e 	streq	r0, [pc, #-1582]!	; cce <__code_start__-0x7332>
    12f8:	2e010612 	mcrcs	6, 0, r0, cr1, cr2, {0}
    12fc:	0d052d2f 	stceq	13, cr2, [r5, #-188]	; 0xffffff44
    1300:	12052f06 	andne	r2, r5, #6, 30
    1304:	19050106 	stmdbne	r5, {r1, r2, r8}
    1308:	04052f06 	streq	r2, [r5], #-3846	; 0xfffff0fa
    130c:	01011103 	tsteq	r1, r3, lsl #2
    1310:	05150205 	ldreq	r0, [r5, #-517]	; 0xfffffdfb
    1314:	7fb2030e 	svcvc	0x00b2030e
    1318:	13020501 	movwne	r0, #9473	; 0x2501
    131c:	01060605 	tsteq	r6, r5, lsl #12
    1320:	30060205 	andcc	r0, r6, r5, lsl #4
    1324:	05010805 	streq	r0, [r1, #-2053]	; 0xfffff7fb
    1328:	4a010602 	bmi	42b38 <__bss_end__+0x37f88>
    132c:	91080805 	tstls	r8, r5, lsl #16
    1330:	4a060305 	bmi	181f4c <__bss_end__+0x17739c>
    1334:	01060805 	tsteq	r6, r5, lsl #16
    1338:	2d061505 	cfstr32cs	mvfx1, [r6, #-20]	; 0xffffffec
    133c:	05010805 	streq	r0, [r1, #-2053]	; 0xfffff7fb
    1340:	0805d703 	stmdaeq	r5, {r0, r1, r8, r9, sl, ip, lr, pc}
    1344:	18050106 	stmdane	r5, {r1, r2, r8}
    1348:	2e02052d 	cfsh32cs	mvfx0, mvfx2, #29
    134c:	052f0805 	streq	r0, [pc, #-2053]!	; b4f <__code_start__-0x74b1>
    1350:	052d0615 	streq	r0, [sp, #-1557]!	; 0xfffff9eb
    1354:	02050108 	andeq	r0, r5, #2
    1358:	03050106 	movweq	r0, #20742	; 0x5106
    135c:	18052f06 	stmdane	r5, {r1, r2, r8, r9, sl, fp, sp}
    1360:	02051106 	andeq	r1, r5, #-2147483647	; 0x80000001
    1364:	2f08052e 	svccs	0x0008052e
    1368:	2d061505 	cfstr32cs	mvfx1, [r6, #-20]	; 0xffffffec
    136c:	05010805 	streq	r0, [r1, #-2053]	; 0xfffff7fb
    1370:	08051303 	stmdaeq	r5, {r0, r1, r8, r9, ip}
    1374:	15050106 	strne	r0, [r5, #-262]	; 0xfffffefa
    1378:	08052d06 	stmdaeq	r5, {r1, r2, r8, sl, fp, sp}
    137c:	05010601 	streq	r0, [r1, #-1537]	; 0xfffff9ff
    1380:	05a00602 	streq	r0, [r0, #1538]!	; 0x602
    1384:	05010605 	streq	r0, [r1, #-1541]	; 0xfffff9fb
    1388:	11053604 	tstne	r5, r4, lsl #12
    138c:	2e09052f 	cfsh32cs	mvfx0, mvfx9, #31
    1390:	05330205 	ldreq	r0, [r3, #-517]!	; 0xfffffdfb
    1394:	2e720305 	cdpcs	3, 7, cr0, cr2, cr5, {0}
    1398:	2f060205 	svccs	0x00060205
    139c:	0e050106 	adfeqs	f0, f5, f6
    13a0:	02051606 	andeq	r1, r5, #6291456	; 0x600000
    13a4:	03051314 	movweq	r1, #21268	; 0x5314
    13a8:	14020513 	strne	r0, [r2], #-1299	; 0xfffffaed
    13ac:	010b0515 	tsteq	fp, r5, lsl r5
    13b0:	01060205 	tsteq	r6, r5, lsl #4
    13b4:	0603052e 	streq	r0, [r3], -lr, lsr #10
    13b8:	060a0567 	streq	r0, [sl], -r7, ror #10
    13bc:	2d020501 	cfstr32cs	mvfx0, [r2, #-4]
    13c0:	052f0a05 	streq	r0, [pc, #-2565]!	; 9c3 <__code_start__-0x763d>
    13c4:	052d0617 	streq	r0, [sp, #-1559]!	; 0xfffff9e9
    13c8:	0205010b 	andeq	r0, r5, #-1073741822	; 0xc0000002
    13cc:	09050106 	stmdbeq	r5, {r1, r2, r8}
    13d0:	02052e4c 	andeq	r2, r5, #76, 28	; 0x4c0
    13d4:	09052e06 	stmdbeq	r5, {r1, r2, r9, sl, fp, sp}
    13d8:	02050106 	andeq	r0, r5, #-2147483647	; 0x80000001
    13dc:	01063006 	tsteq	r6, r6
    13e0:	38030105 	stmdacc	r3, {r0, r2, r8}
    13e4:	03090501 	movweq	r0, #38145	; 0x9501
    13e8:	2e2e4a4f 	vnmulcs.f32	s8, s28, s30
    13ec:	03061905 	movweq	r1, #26885	; 0x6905
    13f0:	1a054a27 	bne	153c94 <__bss_end__+0x1490e4>
    13f4:	06280513 			; <UNDEFINED> instruction: 0x06280513
    13f8:	2e1f0501 	cfmul32cs	mvfx0, mvfx15, mvfx1
    13fc:	052f0405 	streq	r0, [pc, #-1029]!	; fff <__code_start__-0x7001>
    1400:	0b052d1f 	bleq	14c884 <__bss_end__+0x141cd4>
    1404:	0e052f06 	cdpeq	15, 0, cr2, cr5, cr6, {0}
    1408:	04050106 	streq	r0, [r5], #-262	; 0xfffffefa
    140c:	0602052e 	streq	r0, [r2], -lr, lsr #10
    1410:	134a5903 	movtne	r5, #43267	; 0xa903
    1414:	2e060b05 	vmlacs.f64	d0, d6, d5
    1418:	30060205 	andcc	r0, r6, r5, lsl #4
    141c:	02060905 	andeq	r0, r6, #81920	; 0x14000
    1420:	04050d24 	streq	r0, [r5], #-3364	; 0xfffff2dc
    1424:	05133606 	ldreq	r3, [r3, #-1542]	; 0xfffff9fa
    1428:	05010606 	streq	r0, [r1, #-1542]	; 0xfffff9fa
    142c:	13670605 	cmnne	r7, #5242880	; 0x500000
    1430:	06090513 			; <UNDEFINED> instruction: 0x06090513
    1434:	2b0d0511 	blcs	342880 <__bss_end__+0x337cd0>
    1438:	05300b05 	ldreq	r0, [r0, #-2821]!	; 0xfffff4fb
    143c:	1b052c0d 	blne	14c478 <__bss_end__+0x1418c8>
    1440:	06040535 			; <UNDEFINED> instruction: 0x06040535
    1444:	1305052d 	movwne	r0, #21805	; 0x552d
    1448:	2e061b05 	vmlacs.f64	d1, d6, d5
    144c:	05820a05 	streq	r0, [r2, #2565]	; 0xa05
    1450:	0e052f04 	cdpeq	15, 0, cr2, cr5, cr4, {0}
    1454:	490a052e 	stmdbmi	sl, {r1, r2, r3, r5, r8, sl}
    1458:	2f060b05 	svccs	0x00060b05
    145c:	01060405 	tsteq	r6, r5, lsl #8
    1460:	06052f06 	streq	r2, [r5], -r6, lsl #30
    1464:	05050106 	streq	r0, [r5, #-262]	; 0xfffffefa
    1468:	0a052f06 	beq	14d088 <__bss_end__+0x1424d8>
    146c:	052e0106 	streq	r0, [lr, #-262]!	; 0xfffffefa
    1470:	2e2e2e07 	cdpcs	14, 2, cr2, cr14, cr7, {0}
    1474:	03060405 	movweq	r0, #25605	; 0x6405
    1478:	0205010d 	andeq	r0, r5, #1073741827	; 0x40000003
    147c:	01460306 	cmpeq	r6, r6, lsl #6
    1480:	3a030905 	bcc	c389c <__bss_end__+0xb8cec>
    1484:	0604052e 	streq	r0, [r4], -lr, lsr #10
    1488:	010d032f 	tsteq	sp, pc, lsr #6
    148c:	15020501 	strne	r0, [r2, #-1281]	; 0xfffffaff
    1490:	b2030e05 	andlt	r0, r3, #80	; 0x50
    1494:	0205017f 	andeq	r0, r5, #-1073741793	; 0xc000001f
    1498:	08051413 	stmdaeq	r5, {r0, r1, r4, sl, ip}
    149c:	06060501 	streq	r0, [r6], -r1, lsl #10
    14a0:	2e3c0310 	mrccs	3, 1, r0, cr12, cr0, {0}
    14a4:	46030205 	strmi	r0, [r3], -r5, lsl #4
    14a8:	0530064a 	ldreq	r0, [r0, #-1610]!	; 0xfffff9b6
    14ac:	2e010605 	cfmadd32cs	mvax0, mvfx0, mvfx1, mvfx5
    14b0:	0602052e 	streq	r0, [r2], -lr, lsr #10
    14b4:	0501064b 	streq	r0, [r1, #-1611]	; 0xfffff9b5
    14b8:	0516060e 	ldreq	r0, [r6, #-1550]	; 0xfffff9f2
    14bc:	15131402 	ldrne	r1, [r3, #-1026]	; 0xfffffbfe
    14c0:	010b0515 	tsteq	fp, r5, lsl r5
    14c4:	2e060205 	cdpcs	2, 0, cr0, cr6, cr5, {0}
    14c8:	09053006 	stmdbeq	r5, {r1, r2, ip, sp}
    14cc:	02050106 	andeq	r0, r5, #-2147483647	; 0x80000001
    14d0:	01064c06 	tsteq	r6, r6, lsl #24
    14d4:	38030105 	stmdacc	r3, {r0, r2, r8}
    14d8:	03060501 	movweq	r0, #25857	; 0x6501
    14dc:	02054a6e 	andeq	r4, r5, #450560	; 0x6e000
    14e0:	4a664603 	bmi	1992cf4 <__bss_end__+0x1988144>
    14e4:	0604052e 	streq	r0, [r4], -lr, lsr #10
    14e8:	0100c803 	tsteq	r0, r3, lsl #16
    14ec:	06010101 	streq	r0, [r1], -r1, lsl #2
    14f0:	4a06822e 	bmi	1a1db0 <__bss_end__+0x197200>
    14f4:	052e7203 	streq	r7, [lr, #-515]!	; 0xfffffdfd
    14f8:	05010609 	streq	r0, [r1, #-1545]	; 0xfffff9f7
    14fc:	032f0604 			; <UNDEFINED> instruction: 0x032f0604
    1500:	0501010d 	streq	r0, [r1, #-269]	; 0xfffffef3
    1504:	0e051502 	cfsh32eq	mvfx1, mvfx5, #2
    1508:	017fb203 	cmneq	pc, r3, lsl #4
    150c:	14130205 	ldrne	r0, [r3], #-517	; 0xfffffdfb
    1510:	05010805 	streq	r0, [r1, #-2053]	; 0xfffff7fb
    1514:	1b030609 	blne	c2d40 <__bss_end__+0xb8190>
    1518:	03060501 	movweq	r0, #25857	; 0x6501
    151c:	3c032e63 	stccc	14, cr2, [r3], {99}	; 0x63
    1520:	052e2e2e 	streq	r2, [lr, #-3630]!	; 0xfffff1d2
    1524:	b4030648 	strlt	r0, [r3], #-1608	; 0xfffff9b8
    1528:	053c087f 	ldreq	r0, [ip, #-2175]!	; 0xfffff781
    152c:	06011305 	streq	r1, [r1], -r5, lsl #6
    1530:	0402002e 	streq	r0, [r2], #-46	; 0xffffffd2
    1534:	002e0602 	eoreq	r0, lr, r2, lsl #12
    1538:	01020402 	tsteq	r2, r2, lsl #8
    153c:	02040200 	andeq	r0, r4, #0, 4
    1540:	00110513 	andseq	r0, r1, r3, lsl r5
    1544:	06020402 	streq	r0, [r2], -r2, lsl #8
    1548:	00070501 	andeq	r0, r7, r1, lsl #10
    154c:	2f020402 	svccs	0x00020402
    1550:	02001105 	andeq	r1, r0, #1073741825	; 0x40000001
    1554:	052d0204 	streq	r0, [sp, #-516]!	; 0xfffffdfc
    1558:	04020005 	streq	r0, [r2], #-5
    155c:	052f0602 	streq	r0, [pc, #-1538]!	; f62 <__code_start__-0x709e>
    1560:	04020009 	streq	r0, [r2], #-9
    1564:	0e051302 	cdpeq	3, 0, cr1, cr5, cr2, {0}
    1568:	02040200 	andeq	r0, r4, #0, 4
    156c:	05050106 	streq	r0, [r5, #-262]	; 0xfffffefa
    1570:	01040200 	mrseq	r0, R12_usr
    1574:	02006306 	andeq	r6, r0, #402653184	; 0x18000000
    1578:	05010104 	streq	r0, [r1, #-260]	; 0xfffffefc
    157c:	04020048 	streq	r0, [r2], #-72	; 0xffffffb8
    1580:	05110601 	ldreq	r0, [r1, #-1537]	; 0xfffff9ff
    1584:	04020005 	streq	r0, [r2], #-5
    1588:	48052f01 	stmdami	r5, {r0, r8, r9, sl, fp, sp}
    158c:	01040200 	mrseq	r0, R12_usr
    1590:	0005052d 	andeq	r0, r5, sp, lsr #10
    1594:	2f010402 	svccs	0x00010402
    1598:	01040200 	mrseq	r0, R12_usr
    159c:	0402004a 	streq	r0, [r2], #-74	; 0xffffffb6
    15a0:	02004a01 	andeq	r4, r0, #4096	; 0x1000
    15a4:	4a060104 	bmi	1819bc <__bss_end__+0x176e0c>
    15a8:	e1034005 	tst	r3, r5
    15ac:	0106d600 	tsteq	r6, r0, lsl #12
    15b0:	2e4e0905 	vmlacs.f16	s1, s28, s10	; <UNPREDICTABLE>
    15b4:	05300805 	ldreq	r0, [r0, #-2053]!	; 0xfffff7fb
    15b8:	1205291e 	andne	r2, r5, #491520	; 0x78000
    15bc:	330d052e 	movwcc	r0, #54574	; 0xd52e
    15c0:	45060205 	strmi	r0, [r6, #-517]	; 0xfffffdfb
    15c4:	05130505 	ldreq	r0, [r3, #-1285]	; 0xfffffafb
    15c8:	05051402 	streq	r1, [r5, #-1026]	; 0xfffffbfe
    15cc:	13020513 	movwne	r0, #9491	; 0x2513
    15d0:	05010805 	streq	r0, [r1, #-2053]	; 0xfffff7fb
    15d4:	7a030640 	bvc	c2edc <__bss_end__+0xb832c>
    15d8:	0d052e01 	stceq	14, cr2, [r5, #-4]
    15dc:	11056634 	tstne	r5, r4, lsr r6
    15e0:	4a4a2003 	bmi	12895f4 <__bss_end__+0x127ea44>
    15e4:	03060405 	movweq	r0, #25605	; 0x6405
    15e8:	09050162 	stmdbeq	r5, {r1, r5, r6, r8}
    15ec:	0f050106 	svceq	0x00050106
    15f0:	0608052e 	streq	r0, [r8], -lr, lsr #10
    15f4:	060d052c 	streq	r0, [sp], -ip, lsr #10
    15f8:	0603052e 	streq	r0, [r3], -lr, lsr #10
    15fc:	06050567 	streq	r0, [r5], -r7, ror #10
    1600:	06080501 	streq	r0, [r8], -r1, lsl #10
    1604:	060e054d 	streq	r0, [lr], -sp, asr #10
    1608:	2e0a0501 	cfsh32cs	mvfx0, mvfx10, #1
    160c:	052f0905 	streq	r0, [pc, #-2309]!	; d0f <__code_start__-0x72f1>
    1610:	052f0604 	streq	r0, [pc, #-1540]!	; 1014 <__code_start__-0x6fec>
    1614:	05010607 	streq	r0, [r1, #-1543]	; 0xfffff9f9
    1618:	04052c0a 	streq	r2, [r5], #-3082	; 0xfffff3f6
    161c:	2d053206 	sfmcs	f3, 4, [r5, #-24]	; 0xffffffe8
    1620:	7f980306 	svcvc	0x00980306
    1624:	03090501 	movweq	r0, #38145	; 0x9501
    1628:	052e00ed 	streq	r0, [lr, #-237]!	; 0xffffff13
    162c:	07052c0d 	streq	r2, [r5, -sp, lsl #24]
    1630:	0604052b 	streq	r0, [r4], -fp, lsr #10
    1634:	05141330 	ldreq	r1, [r4, #-816]	; 0xfffffcd0
    1638:	0c050109 	stfeqs	f0, [r5], {9}
    163c:	017f9303 	cmneq	pc, r3, lsl #6
    1640:	06011d05 	streq	r1, [r1], -r5, lsl #26
    1644:	03090501 	movweq	r0, #38145	; 0x9501
    1648:	050100ed 	streq	r0, [r1, #-237]	; 0xffffff13
    164c:	052f0605 	streq	r0, [pc, #-1541]!	; 104f <__code_start__-0x6fb1>
    1650:	2e010612 	mcrcs	6, 0, r0, cr1, cr2, {0}
    1654:	2f0b052d 	svccs	0x000b052d
    1658:	2f060505 	svccs	0x00060505
    165c:	05100905 	ldreq	r0, [r0, #-2309]	; 0xfffff6fb
    1660:	7f93030c 	svcvc	0x0093030c
    1664:	011d0501 	tsteq	sp, r1, lsl #10
    1668:	01062d05 	tsteq	r6, r5, lsl #26
    166c:	ed030905 	vstr.16	s0, [r3, #-10]
    1670:	04052e00 	streq	r2, [r5], #-3584	; 0xfffff200
    1674:	00014e06 	andeq	r4, r1, r6, lsl #28
    1678:	4a020402 	bmi	82688 <__bss_end__+0x77ad8>
    167c:	02040200 	andeq	r0, r4, #0, 4
    1680:	04020001 	streq	r0, [r2], #-1
    1684:	02001502 	andeq	r1, r0, #8388608	; 0x800000
    1688:	02060204 	andeq	r0, r6, #4, 4	; 0x40000000
    168c:	02001236 	andeq	r1, r0, #1610612739	; 0x60000003
    1690:	052e0204 	streq	r0, [lr, #-516]!	; 0xfffffdfc
    1694:	d1030602 	tstle	r3, r2, lsl #12
    1698:	07050100 	streq	r0, [r5, -r0, lsl #2]
    169c:	052e0106 	streq	r0, [lr, #-262]!	; 0xfffffefa
    16a0:	052f0602 	streq	r0, [pc, #-1538]!	; 10a6 <__code_start__-0x6f5a>
    16a4:	0501060b 	streq	r0, [r1, #-1547]	; 0xfffff9f5
    16a8:	05052f01 	streq	r2, [r5, #-3841]	; 0xfffff0ff
    16ac:	4a650306 	bmi	19422cc <__bss_end__+0x193771c>
    16b0:	01060905 	tsteq	r6, r5, lsl #18
    16b4:	06050566 	streq	r0, [r5], -r6, ror #10
    16b8:	0304059f 	movweq	r0, #17823	; 0x459f
    16bc:	07050111 	smladeq	r5, r1, r1, r0
    16c0:	04050106 	streq	r0, [r5], #-262	; 0xfffffefa
    16c4:	0a053106 	beq	14dae4 <__bss_end__+0x142f34>
    16c8:	00130501 	andseq	r0, r3, r1, lsl #10
    16cc:	06010402 	streq	r0, [r1], -r2, lsl #8
    16d0:	0010052e 	andseq	r0, r0, lr, lsr #10
    16d4:	2e010402 	cdpcs	4, 0, cr0, cr1, cr2, {0}
    16d8:	4b060505 	blmi	182af4 <__bss_end__+0x177f44>
    16dc:	01060a05 	tsteq	r6, r5, lsl #20
    16e0:	04052d06 	streq	r2, [r5], #-3334	; 0xfffff2fa
    16e4:	11050106 	tstne	r5, r6, lsl #2
    16e8:	7fb60306 	svcvc	0x00b60306
    16ec:	00011366 	andeq	r1, r1, r6, ror #6
    16f0:	06020402 	streq	r0, [r2], -r2, lsl #8
    16f4:	01ba06ba 			; <UNDEFINED> instruction: 0x01ba06ba
    16f8:	061a0514 			; <UNDEFINED> instruction: 0x061a0514
    16fc:	052e2e13 	streq	r2, [lr, #-3603]!	; 0xfffff1ed
    1700:	05674e11 	strbeq	r4, [r7, #-3601]!	; 0xfffff1ef
    1704:	13056814 	movwne	r6, #22548	; 0x5814
    1708:	03150582 	tsteq	r5, #545259520	; 0x20800000
    170c:	11054a78 	tstne	r5, r8, ror sl
    1710:	13134b06 	tstne	r3, #6144	; 0x1800
    1714:	05141314 	ldreq	r1, [r4, #-788]	; 0xfffffcec
    1718:	05010613 	streq	r0, [r1, #-1555]	; 0xfffff9ed
    171c:	052f0609 	streq	r0, [pc, #-1545]!	; 111b <__code_start__-0x6ee5>
    1720:	2e01060d 	cfmadd32cs	mvax0, mvfx0, mvfx1, mvfx13
    1724:	bb09052e 	bllt	242be4 <__bss_end__+0x238034>
    1728:	059d0d05 	ldreq	r0, [sp, #3333]	; 0xd05
    172c:	052f0609 	streq	r0, [pc, #-1545]!	; 112b <__code_start__-0x6ed5>
    1730:	03062f15 	movweq	r2, #28437	; 0x6f15
    1734:	0b034a75 	bleq	d4110 <__bss_end__+0xc9560>
    1738:	05054a2e 	streq	r4, [r5, #-2606]	; 0xfffff5d2
    173c:	01230306 			; <UNDEFINED> instruction: 0x01230306
    1740:	01060905 	tsteq	r6, r5, lsl #18
    1744:	0605052e 	streq	r0, [r5], -lr, lsr #10
    1748:	2e6e03d7 	mcrcs	3, 3, r0, cr14, cr7, {6}
    174c:	05010e03 	streq	r0, [r1, #-3587]	; 0xfffff1fd
    1750:	05010609 	streq	r0, [r1, #-1545]	; 0xfffff9f7
    1754:	10030605 	andne	r0, r3, r5, lsl #12
    1758:	0301054a 	movweq	r0, #5450	; 0x154a
    175c:	05017eed 	streq	r7, [r1, #-3821]	; 0xfffff113
    1760:	13151402 	tstne	r5, #33554432	; 0x2000000
    1764:	03040514 	movweq	r0, #17684	; 0x4514
    1768:	0905011a 	stmdbeq	r5, {r1, r3, r4, r8}
    176c:	02050106 	andeq	r0, r5, #-2147483647	; 0x80000001
    1770:	052e4603 	streq	r4, [lr, #-1539]!	; 0xfffff9fd
    1774:	2e3a0309 	cdpcs	3, 3, cr0, cr10, cr9, {0}
    1778:	2f060405 	svccs	0x00060405
    177c:	01010d03 	tsteq	r1, r3, lsl #26
    1780:	05150205 	ldreq	r0, [r5, #-517]	; 0xfffffdfb
    1784:	7fb2030e 	svcvc	0x00b2030e
    1788:	13020501 	movwne	r0, #9473	; 0x2501
    178c:	01080514 	tsteq	r8, r4, lsl r5
    1790:	01060205 	tsteq	r6, r5, lsl #4
    1794:	059f0805 	ldreq	r0, [pc, #2053]	; 1fa1 <__code_start__-0x605f>
    1798:	064a0603 	strbeq	r0, [sl], -r3, lsl #12
    179c:	2e080501 	cfsh32cs	mvfx0, mvfx8, #1
    17a0:	2d061505 	cfstr32cs	mvfx1, [r6, #-20]	; 0xffffffec
    17a4:	05010805 	streq	r0, [r1, #-2053]	; 0xfffff7fb
    17a8:	01062f03 	tsteq	r6, r3, lsl #30
    17ac:	052e0805 	streq	r0, [lr, #-2053]!	; 0xfffff7fb
    17b0:	052d0615 	streq	r0, [sp, #-1557]!	; 0xfffff9eb
    17b4:	03050108 	movweq	r0, #20744	; 0x5108
    17b8:	0501062f 	streq	r0, [r1, #-1583]	; 0xfffff9d1
    17bc:	15052e08 	strne	r2, [r5, #-3592]	; 0xfffff1f8
    17c0:	08052d06 	stmdaeq	r5, {r1, r2, r8, sl, fp, sp}
    17c4:	2f030501 	svccs	0x00030501
    17c8:	08050106 	stmdaeq	r5, {r1, r2, r8}
    17cc:	0615052e 	ldreq	r0, [r5], -lr, lsr #10
    17d0:	0108052d 	tsteq	r8, sp, lsr #10
    17d4:	062f0305 	strteq	r0, [pc], -r5, lsl #6
    17d8:	2e080501 	cfsh32cs	mvfx0, mvfx8, #1
    17dc:	2d061505 	cfstr32cs	mvfx1, [r6, #-20]	; 0xffffffec
    17e0:	05010805 	streq	r0, [r1, #-2053]	; 0xfffff7fb
    17e4:	01062f03 	tsteq	r6, r3, lsl #30
    17e8:	052e0805 	streq	r0, [lr, #-2053]!	; 0xfffff7fb
    17ec:	052d0615 	streq	r0, [sp, #-1557]!	; 0xfffff9eb
    17f0:	03050108 	movweq	r0, #20744	; 0x5108
    17f4:	06080513 			; <UNDEFINED> instruction: 0x06080513
    17f8:	06150501 	ldreq	r0, [r5], -r1, lsl #10
    17fc:	0108052d 	tsteq	r8, sp, lsr #10
    1800:	03056606 	movweq	r6, #22022	; 0x5606
    1804:	08056706 	stmdaeq	r5, {r1, r2, r8, r9, sl, sp, lr}
    1808:	18050106 	stmdane	r5, {r1, r2, r8}
    180c:	2e02052d 	cfsh32cs	mvfx0, mvfx2, #29
    1810:	052f0805 	streq	r0, [pc, #-2053]!	; 1013 <__code_start__-0x6fed>
    1814:	052d0615 	streq	r0, [sp, #-1557]!	; 0xfffff9eb
    1818:	02050108 	andeq	r0, r5, #2
    181c:	03050106 	movweq	r0, #20742	; 0x5106
    1820:	18052f06 	stmdane	r5, {r1, r2, r8, r9, sl, fp, sp}
    1824:	02051106 	andeq	r1, r5, #-2147483647	; 0x80000001
    1828:	2f08052e 	svccs	0x0008052e
    182c:	2d061505 	cfstr32cs	mvfx1, [r6, #-20]	; 0xffffffec
    1830:	05010805 	streq	r0, [r1, #-2053]	; 0xfffff7fb
    1834:	08051303 	stmdaeq	r5, {r0, r1, r8, r9, ip}
    1838:	15050106 	strne	r0, [r5, #-262]	; 0xfffffefa
    183c:	08052d06 	stmdaeq	r5, {r1, r2, r8, sl, fp, sp}
    1840:	06050501 	streq	r0, [r5], -r1, lsl #10
    1844:	02054a14 	andeq	r4, r5, #20, 20	; 0x14000
    1848:	0e052e06 	cdpeq	14, 0, cr2, cr5, cr6, {0}
    184c:	04051906 	streq	r1, [r5], #-2310	; 0xfffff6fa
    1850:	2f11052f 	svccs	0x0011052f
    1854:	054a0905 	strbeq	r0, [sl, #-2309]	; 0xfffff6fb
    1858:	05053302 	streq	r3, [r5, #-770]	; 0xfffffcfe
    185c:	052e7203 	streq	r7, [lr, #-515]!	; 0xfffffdfd
    1860:	062f0602 	strteq	r0, [pc], -r2, lsl #12
    1864:	060e0501 	streq	r0, [lr], -r1, lsl #10
    1868:	14020516 	strne	r0, [r2], #-1302	; 0xfffffaea
    186c:	13030513 	movwne	r0, #13587	; 0x3513
    1870:	15140205 	ldrne	r0, [r4, #-517]	; 0xfffffdfb
    1874:	05010b05 	streq	r0, [r1, #-2821]	; 0xfffff4fb
    1878:	2e010602 	cfmadd32cs	mvax0, mvfx0, mvfx1, mvfx2
    187c:	06030566 	streq	r0, [r3], -r6, ror #10
    1880:	060a052f 	streq	r0, [sl], -pc, lsr #10
    1884:	2d020501 	cfstr32cs	mvfx0, [r2, #-4]
    1888:	052f0a05 	streq	r0, [pc, #-2565]!	; e8b <__code_start__-0x7175>
    188c:	052d0617 	streq	r0, [sp, #-1559]!	; 0xfffff9e9
    1890:	0205010b 	andeq	r0, r5, #-1073741822	; 0xc0000002
    1894:	4a4a0106 	bmi	1281cb4 <__bss_end__+0x1277104>
    1898:	03060505 	movweq	r0, #25861	; 0x6505
    189c:	05010195 	streq	r0, [r1, #-405]	; 0xfffffe6b
    18a0:	f8030611 			; <UNDEFINED> instruction: 0xf8030611
    18a4:	1b05017e 	blne	141ea4 <__bss_end__+0x1372f4>
    18a8:	4a018803 	bmi	638bc <__bss_end__+0x58d0c>
    18ac:	03060105 	movweq	r0, #24837	; 0x6105
    18b0:	052e7ef3 	streq	r7, [lr, #-3827]!	; 0xfffff10d
    18b4:	13151402 	tstne	r5, #33554432	; 0x2000000
    18b8:	03190514 	tsteq	r9, #20, 10	; 0x5000000
    18bc:	1a050122 	bne	141d4c <__bss_end__+0x13719c>
    18c0:	06280513 			; <UNDEFINED> instruction: 0x06280513
    18c4:	2e1f0501 	cfmul32cs	mvfx0, mvfx15, mvfx1
    18c8:	052f0405 	streq	r0, [pc, #-1029]!	; 14cb <__code_start__-0x6b35>
    18cc:	1f054a0e 	svcne	0x00054a0e
    18d0:	060b052d 	streq	r0, [fp], -sp, lsr #10
    18d4:	0604052f 	streq	r0, [r4], -pc, lsr #10
    18d8:	01320601 	teqeq	r2, r1, lsl #12
    18dc:	05150205 	ldreq	r0, [r5, #-517]	; 0xfffffdfb
    18e0:	7fb2030e 	svcvc	0x00b2030e
    18e4:	13020501 	movwne	r0, #9473	; 0x2501
    18e8:	01060605 	tsteq	r6, r5, lsl #12
    18ec:	30060205 	andcc	r0, r6, r5, lsl #4
    18f0:	05010805 	streq	r0, [r1, #-2053]	; 0xfffff7fb
    18f4:	05010602 	streq	r0, [r1, #-1538]	; 0xfffff9fe
    18f8:	21080603 	tstcs	r8, r3, lsl #12
    18fc:	01060805 	tsteq	r6, r5, lsl #16
    1900:	49061505 	stmdbmi	r6, {r0, r2, r8, sl, ip}
    1904:	05010805 	streq	r0, [r1, #-2053]	; 0xfffff7fb
    1908:	0805d703 	stmdaeq	r5, {r0, r1, r8, r9, sl, ip, lr, pc}
    190c:	18050106 	stmdane	r5, {r1, r2, r8}
    1910:	2e02052d 	cfsh32cs	mvfx0, mvfx2, #29
    1914:	052f0805 	streq	r0, [pc, #-2053]!	; 1117 <__code_start__-0x6ee9>
    1918:	052d0615 	streq	r0, [sp, #-1557]!	; 0xfffff9eb
    191c:	02050108 	andeq	r0, r5, #2
    1920:	03050106 	movweq	r0, #20742	; 0x5106
    1924:	18052f06 	stmdane	r5, {r1, r2, r8, r9, sl, fp, sp}
    1928:	02051106 	andeq	r1, r5, #-2147483647	; 0x80000001
    192c:	2f08052e 	svccs	0x0008052e
    1930:	2d061505 	cfstr32cs	mvfx1, [r6, #-20]	; 0xffffffec
    1934:	05010805 	streq	r0, [r1, #-2053]	; 0xfffff7fb
    1938:	08051303 	stmdaeq	r5, {r0, r1, r8, r9, ip}
    193c:	15050106 	strne	r0, [r5, #-262]	; 0xfffffefa
    1940:	08052d06 	stmdaeq	r5, {r1, r2, r8, sl, fp, sp}
    1944:	06050501 	streq	r0, [r5], -r1, lsl #10
    1948:	06020514 			; <UNDEFINED> instruction: 0x06020514
    194c:	06040566 	streq	r0, [r4], -r6, ror #10
    1950:	0305051a 	movweq	r0, #21786	; 0x551a
    1954:	02054a78 	andeq	r4, r5, #120, 20	; 0x78000
    1958:	01062f06 	tsteq	r6, r6, lsl #30
    195c:	16060e05 	strne	r0, [r6], -r5, lsl #28
    1960:	13140205 	tstne	r4, #1342177280	; 0x50000000
    1964:	01060405 	tsteq	r6, r5, lsl #8
    1968:	2f060305 	svccs	0x00060305
    196c:	01061105 	tsteq	r6, r5, lsl #2
    1970:	052e0905 	streq	r0, [lr, #-2309]!	; 0xfffff6fb
    1974:	15300602 	ldrne	r0, [r0, #-1538]!	; 0xfffff9fe
    1978:	05010b05 	streq	r0, [r1, #-2821]	; 0xfffff4fb
    197c:	4a010602 	bmi	4318c <__bss_end__+0x385dc>
    1980:	03052e4a 	movweq	r2, #24138	; 0x5e4a
    1984:	0a052f06 	beq	14d5a4 <__bss_end__+0x1429f4>
    1988:	02050106 	andeq	r0, r5, #-2147483647	; 0x80000001
    198c:	2f0a052d 	svccs	0x000a052d
    1990:	2d061705 	stccs	7, cr1, [r6, #-20]	; 0xffffffec
    1994:	05010b05 	streq	r0, [r1, #-2821]	; 0xfffff4fb
    1998:	4a010602 	bmi	431a8 <__bss_end__+0x385f8>
    199c:	0514062e 	ldreq	r0, [r4, #-1582]	; 0xfffff9d2
    19a0:	05010609 	streq	r0, [r1, #-1545]	; 0xfffff9f7
    19a4:	064c0602 	strbeq	r0, [ip], -r2, lsl #12
    19a8:	06050501 	streq	r0, [r5], -r1, lsl #10
    19ac:	01019803 	tsteq	r1, r3, lsl #16
    19b0:	0607052a 	streq	r0, [r7], -sl, lsr #10
    19b4:	06050501 	streq	r0, [r5], -r1, lsl #10
    19b8:	0318052f 	tsteq	r8, #197132288	; 0xbc00000
    19bc:	1b052e53 	blne	14d310 <__bss_end__+0x142760>
    19c0:	1a050106 	bne	141de0 <__bss_end__+0x137230>
    19c4:	06090582 	streq	r0, [r9], -r2, lsl #11
    19c8:	060d054b 	streq	r0, [sp], -fp, asr #10
    19cc:	09052e01 	stmdbeq	r5, {r0, r9, sl, fp, sp}
    19d0:	9d0d05d7 	cfstr32ls	mvfx0, [sp, #-860]	; 0xfffffca4
    19d4:	2f060905 	svccs	0x00060905
    19d8:	05301505 	ldreq	r1, [r0, #-1285]!	; 0xfffffafb
    19dc:	05010618 	streq	r0, [r1, #-1560]	; 0xfffff9e8
    19e0:	19056617 	stmdbne	r5, {r0, r1, r2, r4, r9, sl, sp, lr}
    19e4:	4917052f 	ldmdbmi	r7, {r0, r1, r2, r3, r5, r8, sl}
    19e8:	2f061905 	svccs	0x00061905
    19ec:	03061505 	movweq	r1, #25861	; 0x6505
    19f0:	19052e6f 	stmdbne	r5, {r0, r1, r2, r3, r5, r6, r9, sl, fp, sp}
    19f4:	4a130306 	bmi	4c2614 <__bss_end__+0x4b7a64>
    19f8:	03061505 	movweq	r1, #25861	; 0x6505
    19fc:	054a2e6d 	strbeq	r2, [sl, #-3693]	; 0xfffff193
    1a00:	7fa00302 	svcvc	0x00a00302
    1a04:	03066601 	movweq	r6, #26113	; 0x6601
    1a08:	05050172 	streq	r0, [r5, #-370]	; 0xfffffe8e
    1a0c:	04050106 	streq	r0, [r5], #-262	; 0xfffffefa
    1a10:	03050536 	movweq	r0, #21814	; 0x5536
    1a14:	02052e78 	andeq	r2, r5, #120, 28	; 0x780
    1a18:	01062f06 	tsteq	r6, r6, lsl #30
    1a1c:	16060e05 	strne	r0, [r6], -r5, lsl #28
    1a20:	13140205 	tstne	r4, #1342177280	; 0x50000000
    1a24:	01060405 	tsteq	r6, r5, lsl #8
    1a28:	0602054a 	streq	r0, [r2], -sl, asr #10
    1a2c:	05017803 	streq	r7, [r1, #-2051]	; 0xfffff7fd
    1a30:	4a010605 	bmi	4324c <__bss_end__+0x3869c>
    1a34:	4b060205 	blmi	182250 <__bss_end__+0x1776a0>
    1a38:	0e050106 	adfeqs	f0, f5, f6
    1a3c:	02051606 	andeq	r1, r5, #6291456	; 0x600000
    1a40:	15151314 	ldrne	r1, [r5, #-788]	; 0xfffffcec
    1a44:	06010b05 	streq	r0, [r1], -r5, lsl #22
    1a48:	0611052e 	ldreq	r0, [r1], -lr, lsr #10
    1a4c:	01019e03 	tsteq	r1, r3, lsl #28
    1a50:	01062205 	tsteq	r6, r5, lsl #4
    1a54:	052f0505 	streq	r0, [pc, #-1285]!	; 1557 <__code_start__-0x6aa9>
    1a58:	05052d22 	streq	r2, [r5, #-3362]	; 0xfffff2de
    1a5c:	11052f06 	tstne	r5, r6, lsl #30
    1a60:	8305054b 	movwhi	r0, #21835	; 0x554b
    1a64:	5c039e01 	stcpl	14, cr9, [r3], {1}
    1a68:	059e012e 	ldreq	r0, [lr, #302]	; 0x12e
    1a6c:	f3030602 	vmax.u8	d0, d3, d2
    1a70:	052e2e7e 	streq	r2, [lr, #-3710]!	; 0xfffff182
    1a74:	054a2c06 	strbeq	r2, [sl, #-3078]	; 0xfffff3fa
    1a78:	00d8030d 	sbcseq	r0, r8, sp, lsl #6
    1a7c:	00040501 	andeq	r0, r4, r1, lsl #10
    1a80:	06010402 	streq	r0, [r1], -r2, lsl #8
    1a84:	004a1103 	subeq	r1, sl, r3, lsl #2
    1a88:	01010402 	tsteq	r1, r2, lsl #8
    1a8c:	51061105 	tstpl	r6, r5, lsl #2
    1a90:	15059e06 	strne	r9, [r5, #-3590]	; 0xfffff1fa
    1a94:	012e1703 			; <UNDEFINED> instruction: 0x012e1703
    1a98:	031105ba 	tsteq	r1, #780140544	; 0x2e800000
    1a9c:	02012e69 	andeq	r2, r1, #1680	; 0x690
    1aa0:	01010028 	tsteq	r1, r8, lsr #32
    1aa4:	00000087 	andeq	r0, r0, r7, lsl #1
    1aa8:	00640003 	rsbeq	r0, r4, r3
    1aac:	01020000 	mrseq	r0, (UNDEF: 2)
    1ab0:	000d0efb 	strdeq	r0, [sp], -fp
    1ab4:	01010101 	tsteq	r1, r1, lsl #2
    1ab8:	01000000 	mrseq	r0, (UNDEF: 0)
    1abc:	2e010000 	cdpcs	0, 0, cr0, cr1, cr0, {0}
    1ac0:	6174732f 	cmnvs	r4, pc, lsr #6
    1ac4:	732d6666 			; <UNDEFINED> instruction: 0x732d6666
    1ac8:	2f006372 	svccs	0x00006372
    1acc:	72657355 	rsbvc	r7, r5, #1409286145	; 0x54000001
    1ad0:	696d2f73 	stmdbvs	sp!, {r0, r1, r4, r5, r6, r8, r9, sl, fp, sp}^
    1ad4:	2f73656c 	svccs	0x0073656c
    1ad8:	72756f53 	rsbsvc	r6, r5, #332	; 0x14c
    1adc:	632f6563 			; <UNDEFINED> instruction: 0x632f6563
    1ae0:	30343273 	eorscc	r3, r4, r3, ror r2
    1ae4:	6c2f786c 	stcvs	8, cr7, [pc], #-432	; 193c <__code_start__-0x66c4>
    1ae8:	69706269 	ldmdbvs	r0!, {r0, r3, r5, r6, r9, sp, lr}^
    1aec:	636e692f 	cmnvs	lr, #770048	; 0xbc000
    1af0:	6564756c 	strbvs	r7, [r4, #-1388]!	; 0xfffffa94
    1af4:	6c630000 	stclvs	0, cr0, [r3], #-0
    1af8:	2d6e6165 	stfcse	f6, [lr, #-404]!	; 0xfffffe6c
    1afc:	6f626572 	svcvs	0x00626572
    1b00:	632e746f 			; <UNDEFINED> instruction: 0x632e746f
    1b04:	00000100 	andeq	r0, r0, r0, lsl #2
    1b08:	2e697072 	mcrcs	0, 3, r7, cr9, cr2, {3}
    1b0c:	00020068 	andeq	r0, r2, r8, rrx
    1b10:	19050000 	stmdbne	r5, {}	; <UNPREDICTABLE>
    1b14:	4c020500 	cfstr32mi	mvfx0, [r2], {-0}
    1b18:	1500009b 	strne	r0, [r0, #-155]	; 0xffffff65
    1b1c:	05130505 	ldreq	r0, [r3, #-1285]	; 0xfffffafb
    1b20:	052d0619 	streq	r0, [sp, #-1561]!	; 0xfffff9e7
    1b24:	67062f05 	strvs	r2, [r6, -r5, lsl #30]
    1b28:	06024b2f 	streq	r4, [r2], -pc, lsr #22
    1b2c:	76010100 	strvc	r0, [r1], -r0, lsl #2
    1b30:	03000001 	movweq	r0, #1
    1b34:	00005e00 	andeq	r5, r0, r0, lsl #28
    1b38:	fb010200 	blx	42342 <__bss_end__+0x37792>
    1b3c:	01000d0e 	tsteq	r0, lr, lsl #26
    1b40:	00010101 	andeq	r0, r1, r1, lsl #2
    1b44:	00010000 	andeq	r0, r1, r0
    1b48:	2f2e0100 	svccs	0x002e0100
    1b4c:	66617473 			; <UNDEFINED> instruction: 0x66617473
    1b50:	72732d66 	rsbsvc	r2, r3, #6528	; 0x1980
    1b54:	552f0063 	strpl	r0, [pc, #-99]!	; 1af9 <__code_start__-0x6507>
    1b58:	73726573 	cmnvc	r2, #482344960	; 0x1cc00000
    1b5c:	6c696d2f 	stclvs	13, cr6, [r9], #-188	; 0xffffff44
    1b60:	532f7365 			; <UNDEFINED> instruction: 0x532f7365
    1b64:	6372756f 	cmnvs	r2, #465567744	; 0x1bc00000
    1b68:	73632f65 	cmnvc	r3, #404	; 0x194
    1b6c:	6c303432 	cfldrsvs	mvf3, [r0], #-200	; 0xffffff38
    1b70:	696c2f78 	stmdbvs	ip!, {r3, r4, r5, r6, r8, r9, sl, fp, sp}^
    1b74:	2f697062 	svccs	0x00697062
    1b78:	6c636e69 	stclvs	14, cr6, [r3], #-420	; 0xfffffe5c
    1b7c:	00656475 	rsbeq	r6, r5, r5, ror r4
    1b80:	74736300 	ldrbtvc	r6, [r3], #-768	; 0xfffffd00
    1b84:	2e747261 	cdpcs	2, 7, cr7, cr4, cr1, {3}
    1b88:	00010063 	andeq	r0, r1, r3, rrx
    1b8c:	69707200 	ldmdbvs	r0!, {r9, ip, sp, lr}^
    1b90:	0200682e 	andeq	r6, r0, #3014656	; 0x2e0000
    1b94:	05000000 	streq	r0, [r0, #-0]
    1b98:	02050010 	andeq	r0, r5, #16, 0
    1b9c:	00009b78 	andeq	r9, r0, r8, ror fp
    1ba0:	05011003 	streq	r1, [r1, #-3]
    1ba4:	02051305 	andeq	r1, r5, #335544320	; 0x14000000
    1ba8:	14050513 	strne	r0, [r5], #-1299	; 0xfffffaed
    1bac:	0e061005 	cdpeq	0, 0, cr1, cr6, cr5, {0}
    1bb0:	06320505 	ldrteq	r0, [r2], -r5, lsl #10
    1bb4:	05141330 	ldreq	r1, [r4, #-816]	; 0xfffffcd0
    1bb8:	0905010a 	stmdbeq	r5, {r1, r3, r8}
    1bbc:	10059108 	andne	r9, r5, r8, lsl #2
    1bc0:	0a050106 	beq	141fe0 <__bss_end__+0x137430>
    1bc4:	6a10059a 	bvs	403234 <__bss_end__+0x3f8684>
    1bc8:	2d060a05 	vstrcs	s0, [r6, #-20]	; 0xffffffec
    1bcc:	052f0905 	streq	r0, [pc, #-2309]!	; 12cf <__code_start__-0x6d31>
    1bd0:	05010610 	streq	r0, [r1, #-1552]	; 0xfffff9f0
    1bd4:	052d060a 	streq	r0, [sp, #-1546]!	; 0xfffff9f6
    1bd8:	1005bb09 	andne	fp, r5, r9, lsl #22
    1bdc:	0a050106 	beq	141ffc <__bss_end__+0x13744c>
    1be0:	09056506 	stmdbeq	r5, {r1, r2, r8, sl, sp, lr}
    1be4:	060d054b 	streq	r0, [sp], -fp, asr #10
    1be8:	2d0a0501 	cfstr32cs	mvfx0, [sl, #-4]
    1bec:	052f1005 	streq	r1, [pc, #-5]!	; 1bef <__code_start__-0x6411>
    1bf0:	052d060a 	streq	r0, [sp, #-1546]!	; 0xfffff9f6
    1bf4:	0d052f09 	stceq	15, cr2, [r5, #-36]	; 0xffffffdc
    1bf8:	0a050106 	beq	142018 <__bss_end__+0x137468>
    1bfc:	2f10052d 	svccs	0x0010052d
    1c00:	2d060a05 	vstrcs	s0, [r6, #-20]	; 0xffffffec
    1c04:	052f0905 	streq	r0, [pc, #-2309]!	; 1307 <__code_start__-0x6cf9>
    1c08:	0501060d 	streq	r0, [r1, #-1549]	; 0xfffff9f3
    1c0c:	10052d0a 	andne	r2, r5, sl, lsl #26
    1c10:	060a052f 	streq	r0, [sl], -pc, lsr #10
    1c14:	2f09052d 	svccs	0x0009052d
    1c18:	01060d05 	tsteq	r6, r5, lsl #26
    1c1c:	052d0a05 	streq	r0, [sp, #-2565]!	; 0xfffff5fb
    1c20:	0a052f10 	beq	14d868 <__bss_end__+0x142cb8>
    1c24:	09052d06 	stmdbeq	r5, {r1, r2, r8, sl, fp, sp}
    1c28:	06100513 			; <UNDEFINED> instruction: 0x06100513
    1c2c:	060a0501 	streq	r0, [sl], -r1, lsl #10
    1c30:	1505052d 	strne	r0, [r5, #-1325]	; 0xfffffad3
    1c34:	4a010132 	bmi	42104 <__bss_end__+0x37554>
    1c38:	03110514 	tsteq	r1, #20, 10	; 0x5000000
    1c3c:	05050161 	streq	r0, [r5, #-353]	; 0xfffffe9f
    1c40:	05141413 	ldreq	r1, [r4, #-1043]	; 0xfffffbed
    1c44:	2e010114 	mcrcs	1, 0, r0, cr1, cr4, {0}
    1c48:	05050106 	streq	r0, [r5, #-262]	; 0xfffffefa
    1c4c:	05151306 	ldreq	r1, [r5, #-774]	; 0xfffffcfa
    1c50:	0501060a 	streq	r0, [r1, #-1546]	; 0xfffff9f6
    1c54:	064b0605 	strbeq	r0, [fp], -r5, lsl #12
    1c58:	16030601 	strne	r0, [r3], -r1, lsl #12
    1c5c:	11052f01 	tstne	r5, r1, lsl #30
    1c60:	05015f03 	streq	r5, [r1, #-3843]	; 0xfffff0fd
    1c64:	14141305 	ldrne	r1, [r4], #-773	; 0xfffffcfb
    1c68:	01011405 	tsteq	r1, r5, lsl #8
    1c6c:	0501062e 	streq	r0, [r1, #-1582]	; 0xfffff9d2
    1c70:	05130605 	ldreq	r0, [r3, #-1541]	; 0xfffff9fb
    1c74:	05010608 	streq	r0, [r1, #-1544]	; 0xfffff9f8
    1c78:	2e1c0305 	cdpcs	3, 1, cr0, cr12, cr5, {0}
    1c7c:	64030705 	strvs	r0, [r3], #-1797	; 0xfffff8fb
    1c80:	0609052e 	streq	r0, [r9], -lr, lsr #10
    1c84:	060e052f 	streq	r0, [lr], -pc, lsr #10
    1c88:	06050501 	streq	r0, [r5], -r1, lsl #10
    1c8c:	060a0530 			; <UNDEFINED> instruction: 0x060a0530
    1c90:	06050501 	streq	r0, [r5], -r1, lsl #10
    1c94:	0601062f 	streq	r0, [r1], -pc, lsr #12
    1c98:	05011803 	streq	r1, [r1, #-2051]	; 0xfffff7fd
    1c9c:	0a053002 	beq	14dcac <__bss_end__+0x1430fc>
    1ca0:	2e6f0306 	cdpcs	3, 6, cr0, cr15, cr6, {0}
    1ca4:	01000c02 	tsteq	r0, r2, lsl #24
    1ca8:	00007d01 	andeq	r7, r0, r1, lsl #26
    1cac:	65000300 	strvs	r0, [r0, #-768]	; 0xfffffd00
    1cb0:	02000000 	andeq	r0, r0, #0, 0
    1cb4:	0d0efb01 	vstreq	d15, [lr, #-4]
    1cb8:	01010100 	mrseq	r0, (UNDEF: 17)
    1cbc:	00000001 	andeq	r0, r0, r1
    1cc0:	01000001 	tsteq	r0, r1
    1cc4:	74732f2e 	ldrbtvc	r2, [r3], #-3886	; 0xfffff0d2
    1cc8:	2d666661 	stclcs	6, cr6, [r6, #-388]!	; 0xfffffe7c
    1ccc:	00637273 	rsbeq	r7, r3, r3, ror r2
    1cd0:	6573552f 	ldrbvs	r5, [r3, #-1327]!	; 0xfffffad1
    1cd4:	6d2f7372 	stcvs	3, cr7, [pc, #-456]!	; 1b14 <__code_start__-0x64ec>
    1cd8:	73656c69 	cmnvc	r5, #26880	; 0x6900
    1cdc:	756f532f 	strbvc	r5, [pc, #-815]!	; 19b5 <__code_start__-0x664b>
    1ce0:	2f656372 	svccs	0x00656372
    1ce4:	34327363 	ldrtcc	r7, [r2], #-867	; 0xfffffc9d
    1ce8:	2f786c30 	svccs	0x00786c30
    1cec:	7062696c 	rsbvc	r6, r2, ip, ror #18
    1cf0:	6e692f69 	cdpvs	15, 6, cr2, cr9, cr9, {3}
    1cf4:	64756c63 	ldrbtvs	r6, [r5], #-3171	; 0xfffff39d
    1cf8:	63000065 	movwvs	r0, #101	; 0x65
    1cfc:	6f747375 	svcvs	0x00747375
    1d00:	6f6c2d6d 	svcvs	0x006c2d6d
    1d04:	72656461 	rsbvc	r6, r5, #1627389952	; 0x61000000
    1d08:	0100632e 	tsteq	r0, lr, lsr #6
    1d0c:	70720000 	rsbsvc	r0, r2, r0
    1d10:	00682e69 	rsbeq	r2, r8, r9, ror #28
    1d14:	00000002 	andeq	r0, r0, r2
    1d18:	05001a05 	streq	r1, [r0, #-2565]	; 0xfffff5fb
    1d1c:	009ca002 	addseq	sl, ip, r2
    1d20:	01051500 	tsteq	r5, r0, lsl #10
    1d24:	00020214 	andeq	r0, r2, r4, lsl r2
    1d28:	01140101 	tsteq	r4, r1, lsl #2
    1d2c:	00030000 	andeq	r0, r3, r0
    1d30:	0000005e 	andeq	r0, r0, lr, asr r0
    1d34:	0efb0102 	cdpeq	1, 15, cr0, cr11, cr2, {0}
    1d38:	0101000d 	tsteq	r1, sp
    1d3c:	00000101 	andeq	r0, r0, r1, lsl #2
    1d40:	00000100 	andeq	r0, r0, r0, lsl #2
    1d44:	732f2e01 			; <UNDEFINED> instruction: 0x732f2e01
    1d48:	66666174 			; <UNDEFINED> instruction: 0x66666174
    1d4c:	6372732d 	cmnvs	r2, #-1275068416	; 0xb4000000
    1d50:	73552f00 	cmpvc	r5, #0, 30
    1d54:	2f737265 	svccs	0x00737265
    1d58:	656c696d 	strbvs	r6, [ip, #-2413]!	; 0xfffff693
    1d5c:	6f532f73 	svcvs	0x00532f73
    1d60:	65637275 	strbvs	r7, [r3, #-629]!	; 0xfffffd8b
    1d64:	3273632f 	rsbscc	r6, r3, #-1140850688	; 0xbc000000
    1d68:	786c3034 	stmdavc	ip!, {r2, r4, r5, ip, sp}^
    1d6c:	62696c2f 	rsbvs	r6, r9, #12032	; 0x2f00
    1d70:	692f6970 	stmdbvs	pc!, {r4, r5, r6, r8, fp, sp, lr}	; <UNPREDICTABLE>
    1d74:	756c636e 	strbvc	r6, [ip, #-878]!	; 0xfffffc92
    1d78:	00006564 	andeq	r6, r0, r4, ror #10
    1d7c:	6f626572 	svcvs	0x00626572
    1d80:	632e746f 			; <UNDEFINED> instruction: 0x632e746f
    1d84:	00000100 	andeq	r0, r0, r0, lsl #2
    1d88:	2e697072 	mcrcs	0, 3, r7, cr9, cr2, {3}
    1d8c:	00020068 	andeq	r0, r2, r8, rrx
    1d90:	19050000 	stmdbne	r5, {}	; <UNPREDICTABLE>
    1d94:	bc020500 	cfstr32lt	mvfx0, [r2], {-0}
    1d98:	0300009c 	movweq	r0, #156	; 0x9c
    1d9c:	0505010d 	streq	r0, [r5, #-269]	; 0xfffffef3
    1da0:	05311313 	ldreq	r1, [r1, #-787]!	; 0xfffffced
    1da4:	05010613 	streq	r0, [r1, #-1555]	; 0xfffff9ed
    1da8:	1b052f01 	blne	14d9b4 <__bss_end__+0x142e04>
    1dac:	05058506 	streq	r8, [r5, #-1286]	; 0xfffffafa
    1db0:	09051413 	stmdbeq	r5, {r0, r1, r4, sl, ip}
    1db4:	0616052f 	ldreq	r0, [r6], -pc, lsr #10
    1db8:	06050501 	streq	r0, [r5], -r1, lsl #10
    1dbc:	060e052f 	streq	r0, [lr], -pc, lsr #10
    1dc0:	2f050511 	svccs	0x00050511
    1dc4:	052f0105 	streq	r0, [pc, #-261]!	; 1cc7 <__code_start__-0x6339>
    1dc8:	05300617 	ldreq	r0, [r0, #-1559]!	; 0xfffff9e9
    1dcc:	6e031305 	cdpvs	3, 0, cr1, cr3, cr5, {0}
    1dd0:	05131301 	ldreq	r1, [r3, #-769]	; 0xfffffcff
    1dd4:	0f030617 	svceq	0x00030617
    1dd8:	03050501 	movweq	r0, #21761	; 0x5501
    1ddc:	31062e71 	tstcc	r6, r1, ror lr
    1de0:	01061305 	tsteq	r6, r5, lsl #6
    1de4:	0d030705 	stceq	7, cr0, [r3, #-20]	; 0xffffffec
    1de8:	0609052e 	streq	r0, [r9], -lr, lsr #10
    1dec:	0306054b 	movweq	r0, #25931	; 0x654b
    1df0:	05050176 	streq	r0, [r5, #-374]	; 0xfffffe8a
    1df4:	09051413 	stmdbeq	r5, {r0, r1, r4, sl, ip}
    1df8:	0616052f 	ldreq	r0, [r6], -pc, lsr #10
    1dfc:	06050501 	streq	r0, [r5], -r1, lsl #10
    1e00:	060e052f 	streq	r0, [lr], -pc, lsr #10
    1e04:	2f050511 	svccs	0x00050511
    1e08:	0a03062e 	beq	c36c8 <__bss_end__+0xb8b18>
    1e0c:	4d2f3001 	stcmi	0, cr3, [pc, #-4]!	; 1e10 <__code_start__-0x61f0>
    1e10:	15131313 	ldrne	r1, [r3, #-787]	; 0xfffffced
    1e14:	04020067 	streq	r0, [r2], #-103	; 0xffffff99
    1e18:	0d056701 	stceq	7, cr6, [r5, #-4]
    1e1c:	01040200 	mrseq	r0, R12_usr
    1e20:	000a0501 	andeq	r0, sl, r1, lsl #10
    1e24:	01010402 	tsteq	r1, r2, lsl #8
    1e28:	02000505 	andeq	r0, r0, #20971520	; 0x1400000
    1e2c:	05010104 	streq	r0, [r1, #-260]	; 0xfffffefc
    1e30:	0402000d 	streq	r0, [r2], #-13
    1e34:	0a050101 	beq	142240 <__bss_end__+0x137690>
    1e38:	01040200 	mrseq	r0, R12_usr
    1e3c:	000a0201 	andeq	r0, sl, r1, lsl #4
    1e40:	01fa0101 	mvnseq	r0, r1, lsl #2
    1e44:	00030000 	andeq	r0, r3, r0
    1e48:	0000005d 	andeq	r0, r0, sp, asr r0
    1e4c:	0efb0102 	cdpeq	1, 15, cr0, cr11, cr2, {0}
    1e50:	0101000d 	tsteq	r1, sp
    1e54:	00000101 	andeq	r0, r0, r1, lsl #2
    1e58:	00000100 	andeq	r0, r0, r0, lsl #2
    1e5c:	732f2e01 			; <UNDEFINED> instruction: 0x732f2e01
    1e60:	66666174 			; <UNDEFINED> instruction: 0x66666174
    1e64:	6372732d 	cmnvs	r2, #-1275068416	; 0xb4000000
    1e68:	73552f00 	cmpvc	r5, #0, 30
    1e6c:	2f737265 	svccs	0x00737265
    1e70:	656c696d 	strbvs	r6, [ip, #-2413]!	; 0xfffff693
    1e74:	6f532f73 	svcvs	0x00532f73
    1e78:	65637275 	strbvs	r7, [r3, #-629]!	; 0xfffffd8b
    1e7c:	3273632f 	rsbscc	r6, r3, #-1140850688	; 0xbc000000
    1e80:	786c3034 	stmdavc	ip!, {r2, r4, r5, ip, sp}^
    1e84:	62696c2f 	rsbvs	r6, r9, #12032	; 0x2f00
    1e88:	692f6970 	stmdbvs	pc!, {r4, r5, r6, r8, fp, sp, lr}	; <UNPREDICTABLE>
    1e8c:	756c636e 	strbvc	r6, [ip, #-878]!	; 0xfffffc92
    1e90:	00006564 	andeq	r6, r0, r4, ror #10
    1e94:	656d6974 	strbvs	r6, [sp, #-2420]!	; 0xfffff68c
    1e98:	00632e72 	rsbeq	r2, r3, r2, ror lr
    1e9c:	72000001 	andvc	r0, r0, #1, 0
    1ea0:	682e6970 	stmdavs	lr!, {r4, r5, r6, r8, fp, sp, lr}
    1ea4:	00000200 	andeq	r0, r0, r0, lsl #4
    1ea8:	00230500 	eoreq	r0, r3, r0, lsl #10
    1eac:	9d480205 	sfmls	f0, 2, [r8, #-20]	; 0xffffffec
    1eb0:	05150000 	ldreq	r0, [r5, #-0]
    1eb4:	0c051305 	stceq	3, cr1, [r5], {5}
    1eb8:	1f050106 	svcne	0x00050106
    1ebc:	05056a06 	streq	r6, [r5, #-2566]	; 0xfffff5fa
    1ec0:	061f0515 			; <UNDEFINED> instruction: 0x061f0515
    1ec4:	3105050f 	tstcc	r5, pc, lsl #10
    1ec8:	0a052f06 	beq	14dae8 <__bss_end__+0x142f38>
    1ecc:	05017703 	streq	r7, [r1, #-1795]	; 0xfffff8fd
    1ed0:	0c051305 	stceq	3, cr1, [r5], {5}
    1ed4:	05660106 	strbeq	r0, [r6, #-262]!	; 0xfffffefa
    1ed8:	09030605 	stmdbeq	r3, {r0, r2, r9, sl}
    1edc:	01052f01 	tsteq	r5, r1, lsl #30
    1ee0:	1c051306 	stcne	3, cr1, [r5], {6}
    1ee4:	05056806 	streq	r6, [r5, #-2054]	; 0xfffff7fa
    1ee8:	030a0513 	movweq	r0, #42259	; 0xa513
    1eec:	05050176 	streq	r0, [r5, #-374]	; 0xfffffe8a
    1ef0:	061c0515 			; <UNDEFINED> instruction: 0x061c0515
    1ef4:	05052e18 	streq	r2, [r5, #-3608]	; 0xfffff1e8
    1ef8:	062e7a03 	strteq	r7, [lr], -r3, lsl #20
    1efc:	030a052f 	movweq	r0, #42287	; 0xa52f
    1f00:	05050177 	streq	r0, [r5, #-375]	; 0xfffffe89
    1f04:	060c0513 			; <UNDEFINED> instruction: 0x060c0513
    1f08:	05056601 	streq	r6, [r5, #-1537]	; 0xfffff9ff
    1f0c:	01090306 	tsteq	r9, r6, lsl #6
    1f10:	0501062f 	streq	r0, [r1, #-1583]	; 0xfffff9d1
    1f14:	0176030c 	cmneq	r6, ip, lsl #6
    1f18:	03060505 	movweq	r0, #25861	; 0x6505
    1f1c:	09052e0f 	stmdbeq	r5, {r0, r1, r2, r3, r9, sl, fp, sp}
    1f20:	030a0513 	movweq	r0, #42259	; 0xa513
    1f24:	05050174 	streq	r0, [r5, #-372]	; 0xfffffe8c
    1f28:	0a052f15 	beq	14db84 <__bss_end__+0x142fd4>
    1f2c:	05017703 	streq	r7, [r1, #-1795]	; 0xfffff8fd
    1f30:	0c051305 	stceq	3, cr1, [r5], {5}
    1f34:	05660106 	strbeq	r0, [r6, #-262]!	; 0xfffffefa
    1f38:	09030605 	stmdbeq	r3, {r0, r2, r9, sl}
    1f3c:	06110501 	ldreq	r0, [r1], -r1, lsl #10
    1f40:	0305051a 	movweq	r0, #21786	; 0x551a
    1f44:	2f062e78 	svccs	0x00062e78
    1f48:	05190905 	ldreq	r0, [r9, #-2309]	; 0xfffff6fb
    1f4c:	0501060c 	streq	r0, [r1, #-1548]	; 0xfffff9f4
    1f50:	0587061c 	streq	r0, [r7, #1564]	; 0x61c
    1f54:	1c051305 	stcne	3, cr1, [r5], {5}
    1f58:	05051106 	streq	r1, [r5, #-262]	; 0xfffffefa
    1f5c:	06054a2f 	streq	r4, [r5], -pc, lsr #20
    1f60:	2e760306 	cdpcs	3, 7, cr0, cr6, cr6, {0}
    1f64:	05130505 	ldreq	r0, [r3, #-1285]	; 0xfffffafb
    1f68:	0176030a 	cmneq	r6, sl, lsl #6
    1f6c:	2f150505 	svccs	0x00150505
    1f70:	77030a05 	strvc	r0, [r3, -r5, lsl #20]
    1f74:	13050501 	movwne	r0, #21761	; 0x5501
    1f78:	01060c05 	tsteq	r6, r5, lsl #24
    1f7c:	06050566 	streq	r0, [r5], -r6, ror #10
    1f80:	2f010903 	svccs	0x00010903
    1f84:	0c050106 	stfeqs	f0, [r5], {6}
    1f88:	05017603 	streq	r7, [r1, #-1539]	; 0xfffff9fd
    1f8c:	0f030605 	svceq	0x00030605
    1f90:	1309052e 	movwne	r0, #38190	; 0x952e
    1f94:	74030a05 	strvc	r0, [r3], #-2565	; 0xfffff5fb
    1f98:	15050501 	strne	r0, [r5, #-1281]	; 0xfffffaff
    1f9c:	030a052f 	movweq	r0, #42287	; 0xa52f
    1fa0:	05050177 	streq	r0, [r5, #-375]	; 0xfffffe89
    1fa4:	060c0513 			; <UNDEFINED> instruction: 0x060c0513
    1fa8:	05056601 	streq	r6, [r5, #-1537]	; 0xfffff9ff
    1fac:	01090306 	tsteq	r9, r6, lsl #6
    1fb0:	1a061105 	bne	1863cc <__bss_end__+0x17b81c>
    1fb4:	78030505 	stmdavc	r3, {r0, r2, r8, sl}
    1fb8:	052f062e 	streq	r0, [pc, #-1582]!	; 1992 <__code_start__-0x666e>
    1fbc:	0c051909 			; <UNDEFINED> instruction: 0x0c051909
    1fc0:	1e050106 	adfnes	f0, f5, f6
    1fc4:	05058a06 	streq	r8, [r5, #-2566]	; 0xfffff5fa
    1fc8:	0e060513 	mcreq	5, 0, r0, cr6, cr3, {0}
    1fcc:	05130505 	ldreq	r0, [r3, #-1285]	; 0xfffffafb
    1fd0:	0514061e 	ldreq	r0, [r4, #-1566]	; 0xfffff9e2
    1fd4:	05662c05 	strbeq	r2, [r6, #-3077]!	; 0xfffff3fb
    1fd8:	76030606 	strvc	r0, [r3], -r6, lsl #12
    1fdc:	1305052e 	movwne	r0, #21806	; 0x552e
    1fe0:	76030a05 	strvc	r0, [r3], -r5, lsl #20
    1fe4:	15050501 	strne	r0, [r5, #-1281]	; 0xfffffaff
    1fe8:	030a052f 	movweq	r0, #42287	; 0xa52f
    1fec:	05050177 	streq	r0, [r5, #-375]	; 0xfffffe89
    1ff0:	060c0513 			; <UNDEFINED> instruction: 0x060c0513
    1ff4:	05056601 	streq	r6, [r5, #-1537]	; 0xfffff9ff
    1ff8:	01090306 	tsteq	r9, r6, lsl #6
    1ffc:	0501062f 	streq	r0, [r1, #-1583]	; 0xfffff9d1
    2000:	0176030c 	cmneq	r6, ip, lsl #6
    2004:	03060505 	movweq	r0, #25861	; 0x6505
    2008:	09052e0f 	stmdbeq	r5, {r0, r1, r2, r3, r9, sl, fp, sp}
    200c:	030a0513 	movweq	r0, #42259	; 0xa513
    2010:	05050174 	streq	r0, [r5, #-372]	; 0xfffffe8c
    2014:	0a052f15 	beq	14dc70 <__bss_end__+0x1430c0>
    2018:	05017703 	streq	r7, [r1, #-1795]	; 0xfffff8fd
    201c:	0c051305 	stceq	3, cr1, [r5], {5}
    2020:	05660106 	strbeq	r0, [r6, #-262]!	; 0xfffffefa
    2024:	09030605 	stmdbeq	r3, {r0, r2, r9, sl}
    2028:	06110501 	ldreq	r0, [r1], -r1, lsl #10
    202c:	0305051a 	movweq	r0, #21786	; 0x551a
    2030:	2f062e78 	svccs	0x00062e78
    2034:	05190905 	ldreq	r0, [r9, #-2309]	; 0xfffff6fb
    2038:	0201060c 	andeq	r0, r1, #12, 12	; 0xc00000
    203c:	01010008 	tsteq	r1, r8
    2040:	00000205 	andeq	r0, r0, r5, lsl #4
    2044:	00c90003 	sbceq	r0, r9, r3
    2048:	01020000 	mrseq	r0, (UNDEF: 2)
    204c:	000d0efb 	strdeq	r0, [sp], -fp
    2050:	01010101 	tsteq	r1, r1, lsl #2
    2054:	01000000 	mrseq	r0, (UNDEF: 0)
    2058:	2f010000 	svccs	0x00010000
    205c:	656d6f68 	strbvs	r6, [sp, #-3944]!	; 0xfffff098
    2060:	676e652f 	strbvs	r6, [lr, -pc, lsr #10]!
    2064:	2f72656c 	svccs	0x0072656c
    2068:	73616c63 	cmnvc	r1, #25344	; 0x6300
    206c:	73632f73 	cmnvc	r3, #460	; 0x1cc
    2070:	6c303432 	cfldrsvs	mvf3, [r0], #-200	; 0xffffff38
    2074:	32322d78 	eorscc	r2, r2, #120, 26	; 0x1e00
    2078:	2f727073 	svccs	0x00727073
    207c:	62696c2f 	rsbvs	r6, r9, #12032	; 0x2f00
    2080:	692f6970 	stmdbvs	pc!, {r4, r5, r6, r8, fp, sp, lr}	; <UNPREDICTABLE>
    2084:	756c636e 	strbvc	r6, [ip, #-878]!	; 0xfffffc92
    2088:	2f006564 	svccs	0x00006564
    208c:	2f727375 	svccs	0x00727375
    2090:	72616873 	rsbvc	r6, r1, #7536640	; 0x730000
    2094:	63672f65 	cmnvs	r7, #404	; 0x194
    2098:	72612d63 	rsbvc	r2, r1, #6336	; 0x18c0
    209c:	6f6e2d6d 	svcvs	0x006e2d6d
    20a0:	652d656e 	strvs	r6, [sp, #-1390]!	; 0xfffffa92
    20a4:	2d696261 	sfmcs	f6, 2, [r9, #-388]!	; 0xfffffe7c
    20a8:	332e3031 			; <UNDEFINED> instruction: 0x332e3031
    20ac:	3230322d 	eorscc	r3, r0, #-805306366	; 0xd0000002
    20b0:	30312e31 	eorscc	r2, r1, r1, lsr lr
    20b4:	62696c2f 	rsbvs	r6, r9, #12032	; 0x2f00
    20b8:	6363672f 	cmnvs	r3, #12320768	; 0xbc0000
    20bc:	6d72612f 	ldfvse	f6, [r2, #-188]!	; 0xffffff44
    20c0:	6e6f6e2d 	cdpvs	14, 6, cr6, cr15, cr13, {1}
    20c4:	61652d65 	cmnvs	r5, r5, ror #26
    20c8:	312f6962 			; <UNDEFINED> instruction: 0x312f6962
    20cc:	2e332e30 	mrccs	14, 1, r2, cr3, cr0, {1}
    20d0:	6e692f31 	mcrvs	15, 3, r2, cr9, cr1, {1}
    20d4:	64756c63 	ldrbtvs	r6, [r5], #-3171	; 0xfffff39d
    20d8:	75000065 	strvc	r0, [r0, #-101]	; 0xffffff9b
    20dc:	2e747261 	cdpcs	2, 7, cr7, cr4, cr1, {3}
    20e0:	00000063 	andeq	r0, r0, r3, rrx
    20e4:	72617500 	rsbvc	r7, r1, #0, 10
    20e8:	00682e74 	rsbeq	r2, r8, r4, ror lr
    20ec:	72000001 	andvc	r0, r0, #1, 0
    20f0:	682e6970 	stmdavs	lr!, {r4, r5, r6, r8, fp, sp, lr}
    20f4:	00000100 	andeq	r0, r0, r0, lsl #2
    20f8:	6f697067 	svcvs	0x00697067
    20fc:	0100682e 	tsteq	r0, lr, lsr #16
    2100:	74730000 	ldrbtvc	r0, [r3], #-0
    2104:	746e6964 	strbtvc	r6, [lr], #-2404	; 0xfffff69c
    2108:	6363672d 	cmnvs	r3, #11796480	; 0xb40000
    210c:	0200682e 	andeq	r6, r0, #3014656	; 0x2e0000
    2110:	05000000 	streq	r0, [r0, #-0]
    2114:	02050039 	andeq	r0, r5, #57, 0	; 0x39
    2118:	00009e64 	andeq	r9, r0, r4, ror #28
    211c:	06013003 	streq	r3, [r1], -r3
    2120:	06050501 	streq	r0, [r5], -r1, lsl #10
    2124:	06110567 	ldreq	r0, [r1], -r7, ror #10
    2128:	2e050501 	cfsh32cs	mvfx0, mvfx5, #1
    212c:	05670105 	strbeq	r0, [r7, #-261]!	; 0xfffffefb
    2130:	06290638 			; <UNDEFINED> instruction: 0x06290638
    2134:	06050501 	streq	r0, [r5], -r1, lsl #10
    2138:	06110567 	ldreq	r0, [r1], -r7, ror #10
    213c:	2e050501 	cfsh32cs	mvfx0, mvfx5, #1
    2140:	05670105 	strbeq	r0, [r7, #-261]!	; 0xfffffefb
    2144:	15030616 	strne	r0, [r3, #-1558]	; 0xfffff9ea
    2148:	3505052e 	strcc	r0, [r5, #-1326]	; 0xfffffad2
    214c:	68356867 	ldmdavs	r5!, {r0, r1, r2, r5, r6, fp, sp, lr}
    2150:	852e0c03 	strhi	r0, [lr, #-3075]!	; 0xfffff3fd
    2154:	0369696b 	cmneq	r9, #1753088	; 0x1ac000
    2158:	6b13660c 	blvs	4db990 <__bss_end__+0x4d0de0>
    215c:	06010567 	streq	r0, [r1], -r7, ror #10
    2160:	0619052f 	ldreq	r0, [r9], -pc, lsr #10
    2164:	05052508 	streq	r2, [r5, #-1288]	; 0xfffffaf8
    2168:	060d0534 			; <UNDEFINED> instruction: 0x060d0534
    216c:	4c010501 	cfstr32mi	mvfx0, [r1], {1}
    2170:	67061905 	strvs	r1, [r6, -r5, lsl #18]
    2174:	05360505 	ldreq	r0, [r6, #-1285]!	; 0xfffffafb
    2178:	0501060d 	streq	r0, [r1, #-1549]	; 0xfffff9f3
    217c:	01054a28 	tsteq	r5, r8, lsr #20
    2180:	06150530 			; <UNDEFINED> instruction: 0x06150530
    2184:	2f050587 	svccs	0x00050587
    2188:	0009052f 	andeq	r0, r9, pc, lsr #10
    218c:	13010402 	movwne	r0, #5122	; 0x1402
    2190:	02000a05 	andeq	r0, r0, #20480	; 0x5000
    2194:	05110104 	ldreq	r0, [r1, #-260]	; 0xfffffefc
    2198:	0402000c 	streq	r0, [r2], #-12
    219c:	05010601 	streq	r0, [r1, #-1537]	; 0xfffff9ff
    21a0:	0402000a 	streq	r0, [r2], #-10
    21a4:	05052e01 	streq	r2, [r5, #-3585]	; 0xfffff1ff
    21a8:	0e054c06 	cdpeq	12, 0, cr4, cr5, cr6, {0}
    21ac:	09050106 	stmdbeq	r5, {r1, r2, r8}
    21b0:	0605054a 	streq	r0, [r5], -sl, asr #10
    21b4:	01052f2f 	tsteq	r5, pc, lsr #30
    21b8:	1c051306 	stcne	3, cr1, [r5], {6}
    21bc:	01066706 	tsteq	r6, r6, lsl #14
    21c0:	4b060505 	blmi	1835dc <__bss_end__+0x178a2c>
    21c4:	0009052f 	andeq	r0, r9, pc, lsr #10
    21c8:	13010402 	movwne	r0, #5122	; 0x1402
    21cc:	02000a05 	andeq	r0, r0, #20480	; 0x5000
    21d0:	05110104 	ldreq	r0, [r1, #-260]	; 0xfffffefc
    21d4:	0402000c 	streq	r0, [r2], #-12
    21d8:	05010601 	streq	r0, [r1, #-1537]	; 0xfffff9ff
    21dc:	0402000a 	streq	r0, [r2], #-10
    21e0:	05052e01 	streq	r2, [r5, #-3585]	; 0xfffff1ff
    21e4:	05674c06 	strbeq	r4, [r7, #-3078]!	; 0xfffff3fa
    21e8:	052f0601 	streq	r0, [pc, #-1537]!	; 1bef <__code_start__-0x6411>
    21ec:	054c0619 	strbeq	r0, [ip, #-1561]	; 0xfffff9e7
    21f0:	2a052e1b 	bcs	14da64 <__bss_end__+0x142eb4>
    21f4:	0631052e 	ldrteq	r0, [r1], -lr, lsr #10
    21f8:	2e420501 	cdpcs	5, 4, cr0, cr2, cr1, {0}
    21fc:	31061c05 	tstcc	r6, r5, lsl #24
    2200:	032f0505 			; <UNDEFINED> instruction: 0x032f0505
    2204:	0e052e09 	cdpeq	14, 0, cr2, cr5, cr9, {0}
    2208:	21050106 	tstcs	r5, r6, lsl #2
    220c:	0301054a 	movweq	r0, #5450	; 0x154a
    2210:	1a052e0a 	bne	14da40 <__bss_end__+0x142e90>
    2214:	09056806 	stmdbeq	r5, {r1, r2, fp, sp, lr}
    2218:	01040200 	mrseq	r0, R12_usr
    221c:	000a0530 	andeq	r0, sl, r0, lsr r5
    2220:	11010402 	tstne	r1, r2, lsl #8
    2224:	02000c05 	andeq	r0, r0, #1280	; 0x500
    2228:	01060104 	tsteq	r6, r4, lsl #2
    222c:	02000a05 	andeq	r0, r0, #20480	; 0x5000
    2230:	052e0104 	streq	r0, [lr, #-260]!	; 0xfffffefc
    2234:	e8030619 	stmda	r3, {r0, r3, r4, r9, sl}
    2238:	0505667e 	streq	r6, [r5, #-1662]	; 0xfffff982
    223c:	672f2f2f 	strvs	r2, [pc, -pc, lsr #30]!
    2240:	2f060105 	svccs	0x00060105
    2244:	01000402 	tsteq	r0, r2, lsl #8
    2248:	00009e01 	andeq	r9, r0, r1, lsl #28
    224c:	5a000300 	bpl	2e54 <__code_start__-0x51ac>
    2250:	02000000 	andeq	r0, r0, #0, 0
    2254:	0d0efb01 	vstreq	d15, [lr, #-4]
    2258:	01010100 	mrseq	r0, (UNDEF: 17)
    225c:	00000001 	andeq	r0, r0, r1
    2260:	01000001 	tsteq	r0, r1
    2264:	696c2f2e 	stmdbvs	ip!, {r1, r2, r3, r5, r8, r9, sl, fp, sp}^
    2268:	2f006362 	svccs	0x00006362
    226c:	72657355 	rsbvc	r7, r5, #1409286145	; 0x54000001
    2270:	696d2f73 	stmdbvs	sp!, {r0, r1, r4, r5, r6, r8, r9, sl, fp, sp}^
    2274:	2f73656c 	svccs	0x0073656c
    2278:	72756f53 	rsbsvc	r6, r5, #332	; 0x14c
    227c:	632f6563 			; <UNDEFINED> instruction: 0x632f6563
    2280:	30343273 	eorscc	r3, r4, r3, ror r2
    2284:	6c2f786c 	stcvs	8, cr7, [pc], #-432	; 20dc <__code_start__-0x5f24>
    2288:	69706269 	ldmdbvs	r0!, {r0, r3, r5, r6, r9, sp, lr}^
    228c:	636e692f 	cmnvs	lr, #770048	; 0xbc000
    2290:	6564756c 	strbvs	r7, [r4, #-1388]!	; 0xfffffa94
    2294:	75700000 	ldrbvc	r0, [r0, #-0]!
    2298:	61686374 	smcvs	34356	; 0x8634
    229c:	00632e72 	rsbeq	r2, r3, r2, ror lr
    22a0:	72000001 	andvc	r0, r0, #1, 0
    22a4:	682e6970 	stmdavs	lr!, {r4, r5, r6, r8, fp, sp, lr}
    22a8:	00000200 	andeq	r0, r0, r0, lsl #4
    22ac:	00240500 	eoreq	r0, r4, r0, lsl #10
    22b0:	a0540205 	subsge	r0, r4, r5, lsl #4
    22b4:	05140000 	ldreq	r0, [r4, #-0]
    22b8:	24050126 	strcs	r0, [r5], #-294	; 0xfffffeda
    22bc:	052e0106 	streq	r0, [lr, #-262]!	; 0xfffffefa
    22c0:	34052e26 	strcc	r2, [r5], #-3622	; 0xfffff1da
    22c4:	01052e06 	tsteq	r5, r6, lsl #28
    22c8:	1b050106 	blne	1426e8 <__bss_end__+0x137b38>
    22cc:	05054f06 	streq	r4, [r5, #-3846]	; 0xfffff0fa
    22d0:	06110513 			; <UNDEFINED> instruction: 0x06110513
    22d4:	67010501 	strvs	r0, [r1, -r1, lsl #10]
    22d8:	67062305 	strvs	r2, [r6, -r5, lsl #6]
    22dc:	05130505 	ldreq	r0, [r3, #-1285]	; 0xfffffafb
    22e0:	05010611 	streq	r0, [r1, #-1553]	; 0xfffff9ef
    22e4:	04024b01 	streq	r4, [r2], #-2817	; 0xfffff4ff
    22e8:	e2010100 	and	r0, r1, #0
    22ec:	03000000 	movweq	r0, #0
    22f0:	00005900 	andeq	r5, r0, r0, lsl #18
    22f4:	fb010200 	blx	42afe <__bss_end__+0x37f4e>
    22f8:	01000d0e 	tsteq	r0, lr, lsl #26
    22fc:	00010101 	andeq	r0, r1, r1, lsl #2
    2300:	00010000 	andeq	r0, r1, r0
    2304:	2f2e0100 	svccs	0x002e0100
    2308:	6362696c 	cmnvs	r2, #108, 18	; 0x1b0000
    230c:	73552f00 	cmpvc	r5, #0, 30
    2310:	2f737265 	svccs	0x00737265
    2314:	656c696d 	strbvs	r6, [ip, #-2413]!	; 0xfffff693
    2318:	6f532f73 	svcvs	0x00532f73
    231c:	65637275 	strbvs	r7, [r3, #-629]!	; 0xfffffd8b
    2320:	3273632f 	rsbscc	r6, r3, #-1140850688	; 0xbc000000
    2324:	786c3034 	stmdavc	ip!, {r2, r4, r5, ip, sp}^
    2328:	62696c2f 	rsbvs	r6, r9, #12032	; 0x2f00
    232c:	692f6970 	stmdbvs	pc!, {r4, r5, r6, r8, fp, sp, lr}	; <UNPREDICTABLE>
    2330:	756c636e 	strbvc	r6, [ip, #-878]!	; 0xfffffc92
    2334:	00006564 	andeq	r6, r0, r4, ror #10
    2338:	63727473 	cmnvs	r2, #1929379840	; 0x73000000
    233c:	632e7461 			; <UNDEFINED> instruction: 0x632e7461
    2340:	00000100 	andeq	r0, r0, r0, lsl #2
    2344:	2e697072 	mcrcs	0, 3, r7, cr9, cr2, {3}
    2348:	00020068 	andeq	r0, r2, r8, rrx
    234c:	2c050000 	stccs	0, cr0, [r5], {-0}
    2350:	90020500 	andls	r0, r2, r0, lsl #10
    2354:	150000a0 	strne	r0, [r0, #-160]	; 0xffffff60
    2358:	13130505 	tstne	r3, #20971520	; 0x1400000
    235c:	11060b05 	tstne	r6, r5, lsl #22
    2360:	02000505 	andeq	r0, r0, #20971520	; 0x1400000
    2364:	30060104 	andcc	r0, r6, r4, lsl #2
    2368:	01040200 	mrseq	r0, R12_usr
    236c:	00090515 	andeq	r0, r9, r5, lsl r5
    2370:	13010402 	movwne	r0, #5122	; 0x1402
    2374:	02000b05 	andeq	r0, r0, #5120	; 0x1400
    2378:	052f0104 	streq	r0, [pc, #-260]!	; 227c <__code_start__-0x5d84>
    237c:	04020005 	streq	r0, [r2], #-5
    2380:	00010601 	andeq	r0, r1, r1, lsl #12
    2384:	2e010402 	cdpcs	4, 0, cr0, cr1, cr2, {0}
    2388:	08054e06 	stmdaeq	r5, {r1, r2, r9, sl, fp, lr}
    238c:	05050106 	streq	r0, [r5, #-262]	; 0xfffffefa
    2390:	01040200 	mrseq	r0, R12_usr
    2394:	09052f06 	stmdbeq	r5, {r1, r2, r8, r9, sl, fp, sp}
    2398:	01040200 	mrseq	r0, R12_usr
    239c:	000b0513 	andeq	r0, fp, r3, lsl r5
    23a0:	06010402 	streq	r0, [r1], -r2, lsl #8
    23a4:	00090501 	andeq	r0, r9, r1, lsl #10
    23a8:	06010402 	streq	r0, [r1], -r2, lsl #8
    23ac:	0005052f 	andeq	r0, r5, pc, lsr #10
    23b0:	06010402 	streq	r0, [r1], -r2, lsl #8
    23b4:	000f0513 	andeq	r0, pc, r3, lsl r5	; <UNPREDICTABLE>
    23b8:	2d010402 	cfstrscs	mvf0, [r1, #-8]
    23bc:	02000d05 	andeq	r0, r0, #320	; 0x140
    23c0:	2f060104 	svccs	0x00060104
    23c4:	02000505 	andeq	r0, r0, #20971520	; 0x1400000
    23c8:	01060104 	tsteq	r6, r4, lsl #2
    23cc:	01000402 	tsteq	r0, r2, lsl #8
    23d0:	0000b201 	andeq	fp, r0, r1, lsl #4
    23d4:	59000300 	stmdbpl	r0, {r8, r9}
    23d8:	02000000 	andeq	r0, r0, #0, 0
    23dc:	0d0efb01 	vstreq	d15, [lr, #-4]
    23e0:	01010100 	mrseq	r0, (UNDEF: 17)
    23e4:	00000001 	andeq	r0, r0, r1
    23e8:	01000001 	tsteq	r0, r1
    23ec:	696c2f2e 	stmdbvs	ip!, {r1, r2, r3, r5, r8, r9, sl, fp, sp}^
    23f0:	2f006362 	svccs	0x00006362
    23f4:	72657355 	rsbvc	r7, r5, #1409286145	; 0x54000001
    23f8:	696d2f73 	stmdbvs	sp!, {r0, r1, r4, r5, r6, r8, r9, sl, fp, sp}^
    23fc:	2f73656c 	svccs	0x0073656c
    2400:	72756f53 	rsbsvc	r6, r5, #332	; 0x14c
    2404:	632f6563 			; <UNDEFINED> instruction: 0x632f6563
    2408:	30343273 	eorscc	r3, r4, r3, ror r2
    240c:	6c2f786c 	stcvs	8, cr7, [pc], #-432	; 2264 <__code_start__-0x5d9c>
    2410:	69706269 	ldmdbvs	r0!, {r0, r3, r5, r6, r9, sp, lr}^
    2414:	636e692f 	cmnvs	lr, #770048	; 0xbc000
    2418:	6564756c 	strbvs	r7, [r4, #-1388]!	; 0xfffffa94
    241c:	74730000 	ldrbtvc	r0, [r3], #-0
    2420:	706d6372 	rsbvc	r6, sp, r2, ror r3
    2424:	0100632e 	tsteq	r0, lr, lsr #6
    2428:	70720000 	rsbsvc	r0, r2, r0
    242c:	00682e69 	rsbeq	r2, r8, r9, ror #28
    2430:	00000002 	andeq	r0, r0, r2
    2434:	05002a05 	streq	r2, [r0, #-2565]	; 0xfffff5fb
    2438:	00a0bc02 	adceq	fp, r0, r2, lsl #24
    243c:	09051400 	stmdbeq	r5, {sl, ip}
    2440:	06100513 			; <UNDEFINED> instruction: 0x06100513
    2444:	060f0501 	streq	r0, [pc], -r1, lsl #10
    2448:	0610052e 	ldreq	r0, [r0], -lr, lsr #10
    244c:	2e0f0582 	cfsh32cs	mvfx0, mvfx15, #-62
    2450:	02001105 	andeq	r1, r0, #1073741825	; 0x40000001
    2454:	4b060104 	blmi	18286c <__bss_end__+0x177cbc>
    2458:	02001c05 	andeq	r1, r0, #1280	; 0x500
    245c:	2d060104 	stfcss	f0, [r6, #-16]
    2460:	02000f05 	andeq	r0, r0, #5, 30
    2464:	2e060104 	adfcss	f0, f6, f4
    2468:	02001305 	andeq	r1, r0, #335544320	; 0x14000000
    246c:	01060104 	tsteq	r6, r4, lsl #2
    2470:	4c060905 			; <UNDEFINED> instruction: 0x4c060905
    2474:	13060105 	movwne	r0, #24837	; 0x6105
    2478:	0609054a 	streq	r0, [r9], -sl, asr #10
    247c:	0601052d 	streq	r0, [r1], -sp, lsr #10
    2480:	02022e13 	andeq	r2, r2, #304	; 0x130
    2484:	9d010100 	stflss	f0, [r1, #-0]
    2488:	03000000 	movweq	r0, #0
    248c:	00005900 	andeq	r5, r0, r0, lsl #18
    2490:	fb010200 	blx	42c9a <__bss_end__+0x380ea>
    2494:	01000d0e 	tsteq	r0, lr, lsl #26
    2498:	00010101 	andeq	r0, r1, r1, lsl #2
    249c:	00010000 	andeq	r0, r1, r0
    24a0:	2f2e0100 	svccs	0x002e0100
    24a4:	6362696c 	cmnvs	r2, #108, 18	; 0x1b0000
    24a8:	73552f00 	cmpvc	r5, #0, 30
    24ac:	2f737265 	svccs	0x00737265
    24b0:	656c696d 	strbvs	r6, [ip, #-2413]!	; 0xfffff693
    24b4:	6f532f73 	svcvs	0x00532f73
    24b8:	65637275 	strbvs	r7, [r3, #-629]!	; 0xfffffd8b
    24bc:	3273632f 	rsbscc	r6, r3, #-1140850688	; 0xbc000000
    24c0:	786c3034 	stmdavc	ip!, {r2, r4, r5, ip, sp}^
    24c4:	62696c2f 	rsbvs	r6, r9, #12032	; 0x2f00
    24c8:	692f6970 	stmdbvs	pc!, {r4, r5, r6, r8, fp, sp, lr}	; <UNPREDICTABLE>
    24cc:	756c636e 	strbvc	r6, [ip, #-878]!	; 0xfffffc92
    24d0:	00006564 	andeq	r6, r0, r4, ror #10
    24d4:	63727473 	cmnvs	r2, #1929379840	; 0x73000000
    24d8:	632e7970 			; <UNDEFINED> instruction: 0x632e7970
    24dc:	00000100 	andeq	r0, r0, r0, lsl #2
    24e0:	2e697072 	mcrcs	0, 3, r7, cr9, cr2, {3}
    24e4:	00020068 	andeq	r0, r2, r8, rrx
    24e8:	2a050000 	bcs	1424f0 <__bss_end__+0x137940>
    24ec:	00020500 	andeq	r0, r2, r0, lsl #10
    24f0:	140000a1 	strne	r0, [r0], #-161	; 0xffffff5f
    24f4:	13130505 	tstne	r3, #20971520	; 0x1400000
    24f8:	02002205 	andeq	r2, r0, #1342177280	; 0x50000000
    24fc:	052e0104 	streq	r0, [lr, #-260]!	; 0xfffffefc
    2500:	0402000b 	streq	r0, [r2], #-11
    2504:	15050101 	strne	r0, [r5, #-257]	; 0xfffffeff
    2508:	01040200 	mrseq	r0, R12_usr
    250c:	0b050106 	bleq	14292c <__bss_end__+0x137d7c>
    2510:	01040200 	mrseq	r0, R12_usr
    2514:	0013052e 	andseq	r0, r3, lr, lsr #10
    2518:	2e010402 	cdpcs	4, 0, cr0, cr1, cr2, {0}
    251c:	02000b05 	andeq	r0, r0, #5120	; 0x1400
    2520:	022e0104 	eoreq	r0, lr, #1
    2524:	01010004 	tsteq	r1, r4
    2528:	000000fd 	strdeq	r0, [r0], -sp
    252c:	00bf0003 	adcseq	r0, pc, r3
    2530:	01020000 	mrseq	r0, (UNDEF: 2)
    2534:	000d0efb 	strdeq	r0, [sp], -fp
    2538:	01010101 	tsteq	r1, r1, lsl #2
    253c:	01000000 	mrseq	r0, (UNDEF: 0)
    2540:	2e010000 	cdpcs	0, 0, cr0, cr1, cr0, {0}
    2544:	62696c2f 	rsbvs	r6, r9, #12032	; 0x2f00
    2548:	552f0063 	strpl	r0, [pc, #-99]!	; 24ed <__code_start__-0x5b13>
    254c:	73726573 	cmnvc	r2, #482344960	; 0x1cc00000
    2550:	6c696d2f 	stclvs	13, cr6, [r9], #-188	; 0xffffff44
    2554:	532f7365 			; <UNDEFINED> instruction: 0x532f7365
    2558:	6372756f 	cmnvs	r2, #465567744	; 0x1bc00000
    255c:	73632f65 	cmnvc	r3, #404	; 0x194
    2560:	6c303432 	cfldrsvs	mvf3, [r0], #-200	; 0xffffff38
    2564:	696c2f78 	stmdbvs	ip!, {r3, r4, r5, r6, r8, r9, sl, fp, sp}^
    2568:	2f697062 	svccs	0x00697062
    256c:	6c636e69 	stclvs	14, cr6, [r3], #-420	; 0xfffffe5c
    2570:	00656475 	rsbeq	r6, r5, r5, ror r4
    2574:	74706f2f 	ldrbtvc	r6, [r0], #-3887	; 0xfffff0d1
    2578:	6d6f682f 	stclvs	8, cr6, [pc, #-188]!	; 24c4 <__code_start__-0x5b3c>
    257c:	65726265 	ldrbvs	r6, [r2, #-613]!	; 0xfffffd9b
    2580:	65432f77 	strbvs	r2, [r3, #-3959]	; 0xfffff089
    2584:	72616c6c 	rsbvc	r6, r1, #108, 24	; 0x6c00
    2588:	6d72612f 	ldfvse	f6, [r2, #-188]!	; 0xffffff44
    258c:	6e6f6e2d 	cdpvs	14, 6, cr6, cr15, cr13, {1}
    2590:	61652d65 	cmnvs	r5, r5, ror #26
    2594:	392d6962 	pushcc	{r1, r5, r6, r8, fp, sp, lr}
    2598:	322d392f 	eorcc	r3, sp, #770048	; 0xbc000
    259c:	71393130 	teqvc	r9, r0, lsr r1
    25a0:	73632d34 	cmnvc	r3, #52, 26	; 0xd00
    25a4:	65373031 	ldrvs	r3, [r7, #-49]!	; 0xffffffcf
    25a8:	62696c2f 	rsbvs	r6, r9, #12032	; 0x2f00
    25ac:	6363672f 	cmnvs	r3, #12320768	; 0xbc0000
    25b0:	6d72612f 	ldfvse	f6, [r2, #-188]!	; 0xffffff44
    25b4:	6e6f6e2d 	cdpvs	14, 6, cr6, cr15, cr13, {1}
    25b8:	61652d65 	cmnvs	r5, r5, ror #26
    25bc:	392f6962 	stmdbcc	pc!, {r1, r5, r6, r8, fp, sp, lr}	; <UNPREDICTABLE>
    25c0:	312e322e 			; <UNDEFINED> instruction: 0x312e322e
    25c4:	636e692f 	cmnvs	lr, #770048	; 0xbc000
    25c8:	6564756c 	strbvs	r7, [r4, #-1388]!	; 0xfffffa94
    25cc:	74730000 	ldrbtvc	r0, [r3], #-0
    25d0:	6d636e72 	stclvs	14, cr6, [r3, #-456]!	; 0xfffffe38
    25d4:	00632e70 	rsbeq	r2, r3, r0, ror lr
    25d8:	72000001 	andvc	r0, r0, #1, 0
    25dc:	682e6970 	stmdavs	lr!, {r4, r5, r6, r8, fp, sp, lr}
    25e0:	00000200 	andeq	r0, r0, r0, lsl #4
    25e4:	64647473 	strbtvs	r7, [r4], #-1139	; 0xfffffb8d
    25e8:	682e6665 	stmdavs	lr!, {r0, r2, r5, r6, r9, sl, sp, lr}
    25ec:	00000300 	andeq	r0, r0, r0, lsl #6
    25f0:	00390500 	eorseq	r0, r9, r0, lsl #10
    25f4:	a1180205 	tstge	r8, r5, lsl #4
    25f8:	05150000 	ldreq	r0, [r5, #-0]
    25fc:	05131305 	ldreq	r1, [r3, #-773]	; 0xfffffcfb
    2600:	052e060a 	streq	r0, [lr, #-1546]!	; 0xfffff9f6
    2604:	13052f0c 	movwne	r2, #24332	; 0x5f0c
    2608:	2e0b052e 	cfsh32cs	mvfx0, mvfx11, #30
    260c:	4a060905 	bmi	184a28 <__bss_end__+0x179e78>
    2610:	06110a05 	ldreq	r0, [r1], -r5, lsl #20
    2614:	4e0c0501 	cfsh32mi	mvfx0, mvfx12, #1
    2618:	052f0105 	streq	r0, [pc, #-261]!	; 251b <__code_start__-0x5ae5>
    261c:	052b060d 	streq	r0, [fp, #-1549]!	; 0xfffff9f3
    2620:	2e01061b 	mcrcs	6, 0, r0, cr1, cr11, {0}
    2624:	01000202 	tsteq	r0, r2, lsl #4
    2628:	00008a01 	andeq	r8, r0, r1, lsl #20
    262c:	6e000300 	cdpvs	3, 0, cr0, cr0, cr0, {0}
    2630:	02000000 	andeq	r0, r0, #0, 0
    2634:	0d0efb01 	vstreq	d15, [lr, #-4]
    2638:	01010100 	mrseq	r0, (UNDEF: 17)
    263c:	00000001 	andeq	r0, r0, r1
    2640:	01000001 	tsteq	r0, r1
    2644:	74732f2e 	ldrbtvc	r2, [r3], #-3886	; 0xfffff0d2
    2648:	2d666661 	stclcs	6, cr6, [r6, #-388]!	; 0xfffffe7c
    264c:	00637273 	rsbeq	r7, r3, r3, ror r2
    2650:	6573552f 	ldrbvs	r5, [r3, #-1327]!	; 0xfffffad1
    2654:	6d2f7372 	stcvs	3, cr7, [pc, #-456]!	; 2494 <__code_start__-0x5b6c>
    2658:	73656c69 	cmnvc	r5, #26880	; 0x6900
    265c:	756f532f 	strbvc	r5, [pc, #-815]!	; 2335 <__code_start__-0x5ccb>
    2660:	2f656372 	svccs	0x00656372
    2664:	34327363 	ldrtcc	r7, [r2], #-867	; 0xfffffc9d
    2668:	2f786c30 	svccs	0x00786c30
    266c:	7062696c 	rsbvc	r6, r2, ip, ror #18
    2670:	6e692f69 	cdpvs	15, 6, cr2, cr9, cr9, {3}
    2674:	64756c63 	ldrbtvs	r6, [r5], #-3171	; 0xfffff39d
    2678:	64000065 	strvs	r0, [r0], #-101	; 0xffffff9b
    267c:	75616665 	strbvc	r6, [r1, #-1637]!	; 0xfffff99b
    2680:	722d746c 	eorvc	r7, sp, #108, 8	; 0x6c000000
    2684:	6f6f6265 	svcvs	0x006f6265
    2688:	61632d74 	smcvs	13012	; 0x32d4
    268c:	756f6c6c 	strbvc	r6, [pc, #-3180]!	; 1a28 <__code_start__-0x65d8>
    2690:	00632e74 	rsbeq	r2, r3, r4, ror lr
    2694:	72000001 	andvc	r0, r0, #1, 0
    2698:	682e6970 	stmdavs	lr!, {r4, r5, r6, r8, fp, sp, lr}
    269c:	00000200 	andeq	r0, r0, r0, lsl #4
    26a0:	001b0500 	andseq	r0, fp, r0, lsl #10
    26a4:	a1480205 	cmpge	r8, r5, lsl #4
    26a8:	05140000 	ldreq	r0, [r4, #-0]
    26ac:	0105011c 	tsteq	r5, ip, lsl r1
    26b0:	02020106 	andeq	r0, r2, #-2147483647	; 0x80000001
    26b4:	Address 0x00000000000026b4 is out of bounds.


Disassembly of section .debug_str:

00000000 <.debug_str>:
   0:	5f633269 	svcpl	0x00633269
   4:	74696e69 	strbtvc	r6, [r9], #-3689	; 0xfffff197
   8:	6c656400 	cfstrdvs	mvd6, [r5], #-0
   c:	6d5f7961 	vldrvs.16	s15, [pc, #-194]	; ffffff52 <__bss_end__+0xffff53a2>	; <UNPREDICTABLE>
  10:	646d0073 	strbtvs	r0, [sp], #-115	; 0xffffff8d
  14:	735f7370 	cmpvc	pc, #112, 6	; 0xc0000001
  18:	656c6163 	strbvs	r6, [ip, #-355]!	; 0xfffffe9d
  1c:	6765645f 			; <UNDEFINED> instruction: 0x6765645f
  20:	79670032 	stmdbvc	r7!, {r1, r4, r5}^
  24:	325f6f72 	subscc	r6, pc, #456	; 0x1c8
  28:	70643035 	rsbvc	r3, r4, r5, lsr r0
  2c:	68730073 	ldmdavs	r3!, {r0, r1, r4, r5, r6}^
  30:	2074726f 	rsbscs	r7, r4, pc, ror #4
  34:	00746e69 	rsbseq	r6, r4, r9, ror #28
  38:	4f525947 	svcmi	0x00525947
  3c:	554f595f 	strbpl	r5, [pc, #-2399]	; fffff6e5 <__bss_end__+0xffff4b35>
  40:	00485f54 	subeq	r5, r8, r4, asr pc
  44:	5f633269 	svcpl	0x00633269
  48:	74697277 	strbtvc	r7, [r9], #-631	; 0xfffffd89
  4c:	59470065 	stmdbpl	r7, {r0, r2, r5, r6}^
  50:	595f4f52 	ldmdbpl	pc, {r1, r4, r6, r8, r9, sl, fp, lr}^	; <UNPREDICTABLE>
  54:	5f54554f 	svcpl	0x0054554f
  58:	7072004c 	rsbsvc	r0, r2, ip, asr #32
  5c:	75705f69 	ldrbvc	r5, [r0, #-3945]!	; 0xfffff097
  60:	61686374 	smcvs	34356	; 0x8634
  64:	646d0072 	strbtvs	r0, [sp], #-114	; 0xffffff8e
  68:	735f7370 	cmpvc	pc, #112, 6	; 0xc0000001
  6c:	656c6163 	strbvs	r6, [ip, #-355]!	; 0xfffffe9d
  70:	6765645f 			; <UNDEFINED> instruction: 0x6765645f
  74:	756d6900 	strbvc	r6, [sp, #-2304]!	; 0xfffff700
  78:	5f64725f 	svcpl	0x0064725f
  7c:	6162006e 	cmnvs	r2, lr, rrx
  80:	725f6573 	subsvc	r6, pc, #482344960	; 0x1cc00000
  84:	47006765 	strmi	r6, [r0, -r5, ror #14]
  88:	5f4f5259 	svcpl	0x004f5259
  8c:	54554f58 	ldrbpl	r4, [r5], #-3928	; 0xfffff0a8
  90:	7500485f 	strvc	r4, [r0, #-2143]	; 0xfffff7a1
  94:	38746e69 	ldmdacc	r4!, {r0, r3, r5, r6, r9, sl, fp, sp, lr}^
  98:	4700745f 	smlsdmi	r0, pc, r4, r7	; <UNPREDICTABLE>
  9c:	5f4f5259 	svcpl	0x004f5259
  a0:	54554f58 	ldrbpl	r4, [r5], #-3928	; 0xfffff0a8
  a4:	57004c5f 	smlsdpl	r0, pc, ip, r4	; <UNPREDICTABLE>
  a8:	415f4f48 	cmpmi	pc, r8, asr #30
  ac:	5f495f4d 	svcpl	0x00495f4d
  b0:	314c4156 	cmpcc	ip, r6, asr r1
  b4:	4f485700 	svcmi	0x00485700
  b8:	5f4d415f 	svcpl	0x004d415f
  bc:	41565f49 	cmpmi	r6, r9, asr #30
  c0:	5700324c 	strpl	r3, [r0, -ip, asr #4]
  c4:	415f4f48 	cmpmi	pc, r8, asr #30
  c8:	5f495f4d 	svcpl	0x00495f4d
  cc:	334c4156 	movtcc	r4, #49494	; 0xc156
  d0:	72796700 	rsbsvc	r6, r9, #0, 14
  d4:	30355f6f 	eorscc	r5, r5, pc, ror #30
  d8:	73706430 	cmnvc	r0, #48, 8	; 0x30000000
  dc:	756d6900 	strbvc	r6, [sp, #-2304]!	; 0xfffff700
  e0:	0064725f 	rsbeq	r7, r4, pc, asr r2
  e4:	65766168 	ldrbvs	r6, [r6, #-360]!	; 0xfffffe98
  e8:	74697700 	strbtvc	r7, [r9], #-1792	; 0xfffff900
  ec:	006e6968 	rsbeq	r6, lr, r8, ror #18
  f0:	5f756d69 	svcpl	0x00756d69
  f4:	5f7a7978 	svcpl	0x007a7978
  f8:	6f6c0074 	svcvs	0x006c0074
  fc:	6c20676e 	stcvs	7, cr6, [r0], #-440	; 0xfffffe48
 100:	20676e6f 	rsbcs	r6, r7, pc, ror #28
 104:	00746e69 	rsbseq	r6, r4, r9, ror #28
 108:	5f4f4857 	svcpl	0x004f4857
 10c:	495f4d41 	ldmdbmi	pc, {r0, r6, r8, sl, fp, lr}^	; <UNPREDICTABLE>
 110:	4745525f 	smlsldmi	r5, r5, pc, r2	; <UNPREDICTABLE>
 114:	72796700 	rsbsvc	r6, r9, #0, 14
 118:	30315f6f 	eorscc	r5, r1, pc, ror #30
 11c:	70643030 	rsbvc	r3, r4, r0, lsr r0
 120:	5f5f0073 	svcpl	0x005f0073
 124:	434e5546 	movtmi	r5, #58694	; 0xe546
 128:	4e4f4954 			; <UNDEFINED> instruction: 0x4e4f4954
 12c:	67005f5f 	smlsdvs	r0, pc, pc, r5	; <UNPREDICTABLE>
 130:	2e6f7279 	mcrcs	2, 3, r7, cr15, cr9, {3}
 134:	70640063 	rsbvc	r0, r4, r3, rrx
 138:	6f745f73 	svcvs	0x00745f73
 13c:	6163735f 	cmnvs	r3, pc, asr r3
 140:	6700656c 	strvs	r6, [r0, -ip, ror #10]
 144:	5f6f7279 	svcpl	0x006f7279
 148:	63006472 	movwvs	r6, #1138	; 0x472
 14c:	6e61656c 	cdpvs	5, 6, cr6, cr1, cr12, {3}
 150:	6265725f 	rsbvs	r7, r5, #-268435451	; 0xf0000005
 154:	00746f6f 	rsbseq	r6, r4, pc, ror #30
 158:	6f727967 	svcvs	0x00727967
 15c:	7370645f 	cmnvc	r0, #1593835520	; 0x5f000000
 160:	75706d00 	ldrbvc	r6, [r0, #-3328]!	; 0xfffff300
 164:	30303536 	eorscc	r3, r0, r6, lsr r5
 168:	7279675f 	rsbsvc	r6, r9, #24903680	; 0x17c0000
 16c:	6e695f6f 	cdpvs	15, 6, cr5, cr9, cr15, {3}
 170:	75007469 	strvc	r7, [r0, #-1129]	; 0xfffffb97
 174:	6769736e 	strbvs	r7, [r9, -lr, ror #6]!
 178:	2064656e 	rsbcs	r6, r4, lr, ror #10
 17c:	72616863 	rsbvc	r6, r1, #6488064	; 0x630000
 180:	5f676d00 	svcpl	0x00676d00
 184:	00776172 	rsbseq	r6, r7, r2, ror r1
 188:	3675706d 	ldrbtcc	r7, [r5], -sp, rrx
 18c:	5f303035 	svcpl	0x00303035
 190:	65736572 	ldrbvs	r6, [r3, #-1394]!	; 0xfffffa8e
 194:	6f6c0074 	svcvs	0x006c0074
 198:	6c20676e 	stcvs	7, cr6, [r0], #-440	; 0xfffffe48
 19c:	20676e6f 	rsbcs	r6, r7, pc, ror #28
 1a0:	69736e75 	ldmdbvs	r3!, {r0, r2, r4, r5, r6, r9, sl, fp, sp, lr}^
 1a4:	64656e67 	strbtvs	r6, [r5], #-3687	; 0xfffff199
 1a8:	746e6920 	strbtvc	r6, [lr], #-2336	; 0xfffff6e0
 1ac:	6e697500 	cdpvs	5, 6, cr7, cr9, cr0, {0}
 1b0:	5f323374 	svcpl	0x00323374
 1b4:	79780074 	ldmdbvc	r8!, {r2, r4, r5, r6}^
 1b8:	72705f7a 	rsbsvc	r5, r0, #488	; 0x1e8
 1bc:	00746e69 	rsbseq	r6, r4, r9, ror #28
 1c0:	6f727967 	svcvs	0x00727967
 1c4:	6e6f635f 	mcrvs	3, 3, r6, cr15, cr15, {2}
 1c8:	5f676966 	svcpl	0x00676966
 1cc:	00676572 	rsbeq	r6, r7, r2, ror r5
 1d0:	6f727967 	svcvs	0x00727967
 1d4:	6400745f 	strvs	r7, [r0], #-1119	; 0xfffffba1
 1d8:	615f7665 	cmpvs	pc, r5, ror #12
 1dc:	00726464 	rsbseq	r6, r2, r4, ror #8
 1e0:	5f7a7978 	svcpl	0x007a7978
 1e4:	6e006b6d 	vmlsvs.f64	d6, d0, d29
 1e8:	616d746f 	cmnvs	sp, pc, ror #8
 1ec:	73006e69 	movwvc	r6, #3689	; 0xe69
 1f0:	74726f68 	ldrbtvc	r6, [r2], #-3944	; 0xfffff098
 1f4:	736e7520 	cmnvc	lr, #32, 10	; 0x8000000
 1f8:	656e6769 	strbvs	r6, [lr, #-1897]!	; 0xfffff897
 1fc:	6e692064 	cdpvs	0, 6, cr2, cr9, cr4, {3}
 200:	79670074 	stmdbvc	r7!, {r2, r4, r5, r6}^
 204:	685f6f72 	ldmdavs	pc, {r1, r4, r5, r6, r8, r9, sl, fp, sp, lr}^	; <UNPREDICTABLE>
 208:	645f7361 	ldrbvs	r7, [pc], #-865	; 210 <__code_start__-0x7df0>
 20c:	00617461 	rsbeq	r7, r1, r1, ror #8
 210:	6f727967 	svcvs	0x00727967
 214:	6163735f 	cmnvs	r3, pc, asr r3
 218:	4700656c 	strmi	r6, [r0, -ip, ror #10]
 21c:	4320554e 			; <UNDEFINED> instruction: 0x4320554e
 220:	39203939 	stmdbcc	r0!, {r0, r3, r4, r5, r8, fp, ip, sp}
 224:	312e322e 			; <UNDEFINED> instruction: 0x312e322e
 228:	31303220 	teqcc	r0, r0, lsr #4
 22c:	32303139 	eorscc	r3, r0, #1073741838	; 0x4000000e
 230:	72282035 	eorvc	r2, r8, #53, 0	; 0x35
 234:	61656c65 	cmnvs	r5, r5, ror #24
 238:	20296573 	eorcs	r6, r9, r3, ror r5
 23c:	4d52415b 	ldfmie	f4, [r2, #-364]	; 0xfffffe94
 240:	6d72612f 	ldfvse	f6, [r2, #-188]!	; 0xffffff44
 244:	622d392d 	eorvs	r3, sp, #737280	; 0xb4000
 248:	636e6172 	cmnvs	lr, #-2147483620	; 0x8000001c
 24c:	65722068 	ldrbvs	r2, [r2, #-104]!	; 0xffffff98
 250:	69736976 	ldmdbvs	r3!, {r1, r2, r4, r5, r6, r8, fp, sp, lr}^
 254:	32206e6f 	eorcc	r6, r0, #1776	; 0x6f0
 258:	39353737 	ldmdbcc	r5!, {r0, r1, r2, r4, r5, r8, r9, sl, ip, sp}
 25c:	2d205d39 	stccs	13, cr5, [r0, #-228]!	; 0xffffff1c
 260:	7570636d 	ldrbvc	r6, [r0, #-877]!	; 0xfffffc93
 264:	6d72613d 	ldfvse	f6, [r2, #-244]!	; 0xffffff0c
 268:	36373131 			; <UNDEFINED> instruction: 0x36373131
 26c:	2d667a6a 	vstmdbcs	r6!, {s15-s120}
 270:	6d2d2073 	stcvs	0, cr2, [sp, #-460]!	; 0xfffffe34
 274:	656e7574 	strbvs	r7, [lr, #-1396]!	; 0xfffffa8c
 278:	6d72613d 	ldfvse	f6, [r2, #-244]!	; 0xffffff0c
 27c:	36373131 			; <UNDEFINED> instruction: 0x36373131
 280:	2d667a6a 	vstmdbcs	r6!, {s15-s120}
 284:	6d2d2073 	stcvs	0, cr2, [sp, #-460]!	; 0xfffffe34
 288:	616f6c66 	cmnvs	pc, r6, ror #24
 28c:	62612d74 	rsbvs	r2, r1, #116, 26	; 0x1d00
 290:	6f733d69 	svcvs	0x00733d69
 294:	2d207466 	cfstrscs	mvf7, [r0, #-408]!	; 0xfffffe68
 298:	6d72616d 	ldfvse	f6, [r2, #-436]!	; 0xfffffe4c
 29c:	616d2d20 	cmnvs	sp, r0, lsr #26
 2a0:	3d686372 	stclcc	3, cr6, [r8, #-456]!	; 0xfffffe38
 2a4:	766d7261 	strbtvc	r7, [sp], -r1, ror #4
 2a8:	207a6b36 	rsbscs	r6, sl, r6, lsr fp
 2ac:	6467672d 	strbtvs	r6, [r7], #-1837	; 0xfffff8d3
 2b0:	4f2d2062 	svcmi	0x002d2062
 2b4:	732d2067 			; <UNDEFINED> instruction: 0x732d2067
 2b8:	673d6474 			; <UNDEFINED> instruction: 0x673d6474
 2bc:	3939756e 	ldmdbcc	r9!, {r1, r2, r3, r5, r6, r8, sl, ip, sp, lr}
 2c0:	66662d20 	strbtvs	r2, [r6], -r0, lsr #26
 2c4:	73656572 	cmnvc	r5, #478150656	; 0x1c800000
 2c8:	646e6174 	strbtvs	r6, [lr], #-372	; 0xfffffe8c
 2cc:	00676e69 	rsbeq	r6, r7, r9, ror #28
 2d0:	4f525947 	svcmi	0x00525947
 2d4:	554f5a5f 	strbpl	r5, [pc, #-2655]	; fffff87d <__bss_end__+0xffff4ccd>
 2d8:	00485f54 	subeq	r5, r8, r4, asr pc
 2dc:	4f525947 	svcmi	0x00525947
 2e0:	554f5a5f 	strbpl	r5, [pc, #-2655]	; fffff889 <__bss_end__+0xffff4cd9>
 2e4:	004c5f54 	subeq	r5, ip, r4, asr pc
 2e8:	6573552f 	ldrbvs	r5, [r3, #-1327]!	; 0xfffffad1
 2ec:	6d2f7372 	stcvs	3, cr7, [pc, #-456]!	; 12c <__code_start__-0x7ed4>
 2f0:	73656c69 	cmnvc	r5, #26880	; 0x6900
 2f4:	756f532f 	strbvc	r5, [pc, #-815]!	; ffffffcd <__bss_end__+0xffff541d>
 2f8:	2f656372 	svccs	0x00656372
 2fc:	34327363 	ldrtcc	r7, [r2], #-867	; 0xfffffc9d
 300:	2f786c30 	svccs	0x00786c30
 304:	7362616c 	cmnvc	r2, #27
 308:	2d30312f 	ldfcss	f3, [r0, #-188]!	; 0xffffff44
 30c:	2d633269 	sfmcs	f3, 2, [r3, #-420]!	; 0xfffffe5c
 310:	65636361 	strbvs	r6, [r3, #-865]!	; 0xfffffc9f
 314:	6f632f6c 	svcvs	0x00632f6c
 318:	65006564 	strvs	r6, [r0, #-1380]	; 0xfffffa9c
 31c:	63657078 	cmnvs	r5, #120, 0	; 0x78
 320:	5f646574 	svcpl	0x00646574
 324:	59470069 	stmdbpl	r7, {r0, r3, r5, r6}^
 328:	435f4f52 	cmpmi	pc, #328	; 0x148
 32c:	49464e4f 	stmdbmi	r6, {r0, r1, r2, r3, r6, r9, sl, fp, lr}^
 330:	65740047 	ldrbvs	r0, [r4, #-71]!	; 0xffffffb9
 334:	645f7473 	ldrbvs	r7, [pc], #-1139	; 33c <__code_start__-0x7cc4>
 338:	78007370 	stmdavc	r0, {r4, r5, r6, r8, r9, ip, sp, lr}
 33c:	725f7a79 	subsvc	r7, pc, #495616	; 0x79000
 340:	69007761 	stmdbvs	r0, {r0, r5, r6, r8, r9, sl, ip, sp, lr}
 344:	775f756d 	ldrbvc	r7, [pc, -sp, ror #10]
 348:	79670072 	stmdbvc	r7!, {r1, r4, r5, r6}^
 34c:	325f6f72 	subscc	r6, pc, #456	; 0x1c8
 350:	64303030 	ldrtvs	r3, [r0], #-48	; 0xffffffd0
 354:	64007370 	strvs	r7, [r0], #-880	; 0xfffffc90
 358:	735f7370 	cmpvc	pc, #112, 6	; 0xc0000001
 35c:	656c6163 	strbvs	r6, [ip, #-355]!	; 0xfffffe9d
 360:	63326900 	teqvs	r2, #0, 18
 364:	6165725f 	cmnvs	r5, pc, asr r2
 368:	5f5f0064 	svcpl	0x005f0064
 36c:	73756e75 	cmnvc	r5, #1872	; 0x750
 370:	00336465 	eorseq	r6, r3, r5, ror #8
 374:	5f746573 	svcpl	0x00746573
 378:	006c6c61 	rsbeq	r6, ip, r1, ror #24
 37c:	74696e69 	strbtvc	r6, [r9], #-3689	; 0xfffff197
 380:	696c6169 	stmdbvs	ip!, {r0, r3, r5, r6, r8, sp, lr}^
 384:	5f64657a 	svcpl	0x0064657a
 388:	32690070 	rsbcc	r0, r9, #112, 0	; 0x70
 38c:	00632e63 	rsbeq	r2, r3, r3, ror #28
 390:	636f6c63 	cmnvs	pc, #25344	; 0x6300
 394:	74735f6b 	ldrbtvc	r5, [r3], #-3947	; 0xfffff095
 398:	63746572 	cmnvs	r4, #478150656	; 0x1c800000
 39c:	69745f68 	ldmdbvs	r4!, {r3, r5, r6, r8, r9, sl, fp, ip, lr}^
 3a0:	756f656d 	strbvc	r6, [pc, #-1389]!	; fffffe3b <__bss_end__+0xffff528b>
 3a4:	6c630074 	stclvs	0, cr0, [r3], #-464	; 0xfffffe30
 3a8:	5f726165 	svcpl	0x00726165
 3ac:	50470063 	subpl	r0, r7, r3, rrx
 3b0:	465f4f49 	ldrbmi	r4, [pc], -r9, asr #30
 3b4:	5f434e55 	svcpl	0x00434e55
 3b8:	5054554f 	subspl	r5, r4, pc, asr #10
 3bc:	63005455 	movwvs	r5, #1109	; 0x455
 3c0:	7261656c 	rsbvc	r6, r1, #108, 10	; 0x1b000000
 3c4:	4700735f 	smlsdmi	r0, pc, r3, r7	; <UNPREDICTABLE>
 3c8:	5f4f4950 	svcpl	0x004f4950
 3cc:	434e5546 	movtmi	r5, #58694	; 0xe546
 3d0:	544c415f 	strbpl	r4, [ip], #-351	; 0xfffffea1
 3d4:	50470030 	subpl	r0, r7, r0, lsr r0
 3d8:	465f4f49 	ldrbmi	r4, [pc], -r9, asr #30
 3dc:	5f434e55 	svcpl	0x00434e55
 3e0:	31544c41 	cmpcc	r4, r1, asr #24
 3e4:	49504700 	ldmdbmi	r0, {r8, r9, sl, lr}^
 3e8:	55465f4f 	strbpl	r5, [r6, #-3919]	; 0xfffff0b1
 3ec:	415f434e 	cmpmi	pc, lr, asr #6
 3f0:	0032544c 	eorseq	r5, r2, ip, asr #8
 3f4:	4f495047 	svcmi	0x00495047
 3f8:	4e55465f 	mrcmi	6, 2, r4, cr5, cr15, {2}
 3fc:	4c415f43 	mcrrmi	15, 4, r5, r1, cr3
 400:	47003354 	smlsdmi	r0, r4, r3, r3
 404:	5f4f4950 	svcpl	0x004f4950
 408:	434e5546 	movtmi	r5, #58694	; 0xe546
 40c:	544c415f 	strbpl	r4, [ip], #-351	; 0xfffffea1
 410:	50470034 	subpl	r0, r7, r4, lsr r0
 414:	465f4f49 	ldrbmi	r4, [pc], -r9, asr #30
 418:	5f434e55 	svcpl	0x00434e55
 41c:	35544c41 	ldrbcc	r4, [r4, #-3137]	; 0xfffff3bf
 420:	725f7300 	subsvc	r7, pc, #0, 6
 424:	73696765 	cmnvc	r9, #26476544	; 0x1940000
 428:	00726574 	rsbseq	r6, r2, r4, ror r5
 42c:	72656678 	rsbvc	r6, r5, #120, 12	; 0x7800000
 430:	6174735f 	cmnvs	r4, pc, asr r3
 434:	685f7472 	ldmdavs	pc, {r1, r4, r5, r6, sl, ip, sp, lr}^	; <UNPREDICTABLE>
 438:	006b6361 	rsbeq	r6, fp, r1, ror #6
 43c:	6e656c64 	cdpvs	12, 6, cr6, cr5, cr4, {3}
 440:	74757000 	ldrbtvc	r7, [r5], #-0
 444:	63003233 	movwvs	r3, #563	; 0x233
 448:	6765725f 			; <UNDEFINED> instruction: 0x6765725f
 44c:	65747369 	ldrbvs	r7, [r4, #-873]!	; 0xfffffc97
 450:	68730072 	ldmdavs	r3!, {r1, r4, r5, r6}^
 454:	00746669 	rsbseq	r6, r4, r9, ror #12
 458:	63656863 	cmnvs	r5, #6488064	; 0x630000
 45c:	616c5f6b 	cmnvs	ip, fp, ror #30
 460:	74756f79 	ldrbtvc	r6, [r5], #-3961	; 0xfffff087
 464:	6f6c6300 	svcvs	0x006c6300
 468:	645f6b63 	ldrbvs	r6, [pc], #-2915	; 470 <__code_start__-0x7b90>
 46c:	63007669 	movwvs	r7, #1641	; 0x669
 470:	7261656c 	rsbvc	r6, r1, #108, 10	; 0x1b000000
 474:	6e6f6400 	cdpvs	4, 6, cr6, cr15, cr0, {0}
 478:	50470065 	subpl	r0, r7, r5, rrx
 47c:	465f4f49 	ldrbmi	r4, [pc], -r9, asr #30
 480:	5f434e55 	svcpl	0x00434e55
 484:	55504e49 	ldrbpl	r4, [r0, #-3657]	; 0xfffff1b7
 488:	6e690054 	mcrvs	0, 3, r0, cr9, cr4, {2}
 48c:	78006474 	stmdavc	r0, {r2, r4, r5, r6, sl, sp, lr}
 490:	5f726566 	svcpl	0x00726566
 494:	72617473 	rsbvc	r7, r1, #1929379840	; 0x73000000
 498:	6e690074 	mcrvs	0, 3, r0, cr9, cr4, {3}
 49c:	69007274 	stmdbvs	r0, {r2, r4, r5, r6, r9, ip, sp, lr}
 4a0:	0074746e 	rsbseq	r7, r4, lr, ror #8
 4a4:	6f666966 	svcvs	0x00666966
 4a8:	6e6f6300 	cdpvs	3, 6, cr6, cr15, cr0, {0}
 4ac:	6c6f7274 	sfmvs	f7, 2, [pc], #-464	; 2e4 <__code_start__-0x7d1c>
 4b0:	63326900 	teqvs	r2, #0, 18
 4b4:	7369645f 	cmnvc	r9, #1593835520	; 0x5f000000
 4b8:	65766f63 	ldrbvs	r6, [r6, #-3939]!	; 0xfffff09d
 4bc:	64615f72 	strbtvs	r5, [r1], #-3954	; 0xfffff08e
 4c0:	64007264 	strvs	r7, [r0], #-612	; 0xfffffd9c
 4c4:	625f7665 	subsvs	r7, pc, #105906176	; 0x6500000
 4c8:	69727261 	ldmdbvs	r2!, {r0, r5, r6, r9, ip, sp, lr}^
 4cc:	67007265 	strvs	r7, [r0, -r5, ror #4]
 4d0:	32337465 	eorscc	r7, r3, #1694498816	; 0x65000000
 4d4:	49505200 	ldmdbmi	r0, {r9, ip, lr}^
 4d8:	6332695f 	teqvs	r2, #1556480	; 0x17c000
 4dc:	63326900 	teqvs	r2, #0, 18
 4e0:	6e006e65 	cdpvs	14, 0, cr6, cr0, cr5, {3}
 4e4:	65747962 	ldrbvs	r7, [r4, #-2402]!	; 0xfffff69e
 4e8:	65720073 	ldrbvs	r0, [r2, #-115]!	; 0xffffff8d
 4ec:	735f6461 	cmpvc	pc, #1627389952	; 0x61000000
 4f0:	63326900 	teqvs	r2, #0, 18
 4f4:	5f73695f 	svcpl	0x0073695f
 4f8:	74696e69 	strbtvc	r6, [r9], #-3689	; 0xfffff197
 4fc:	696c6169 	stmdbvs	ip!, {r0, r3, r5, r6, r8, sp, lr}^
 500:	0064657a 	rsbeq	r6, r4, sl, ror r5
 504:	64616572 	strbtvs	r6, [r1], #-1394	; 0xfffffa8e
 508:	6300705f 	movwvs	r7, #95	; 0x5f
 50c:	6b746b6c 	blvs	1d1b2c4 <__bss_end__+0x1d10714>
 510:	69706700 	ldmdbvs	r0!, {r8, r9, sl, sp, lr}^
 514:	65735f6f 	ldrbvs	r5, [r3, #-3951]!	; 0xfffff091
 518:	75665f74 	strbvc	r5, [r6, #-3956]!	; 0xfffff08c
 51c:	6974636e 	ldmdbvs	r4!, {r1, r2, r3, r5, r6, r8, r9, sp, lr}^
 520:	78006e6f 	stmdavc	r0, {r0, r1, r2, r3, r5, r6, r9, sl, fp, sp, lr}
 524:	5f726566 	svcpl	0x00726566
 528:	00646e65 	rsbeq	r6, r4, r5, ror #28
 52c:	64616572 	strbtvs	r6, [r1], #-1394	; 0xfffffa8e
 530:	6900635f 	stmdbvs	r0, {r0, r1, r2, r3, r4, r6, r8, r9, sp, lr}
 534:	695f6332 	ldmdbvs	pc, {r1, r4, r5, r8, r9, sp, lr}^	; <UNPREDICTABLE>
 538:	5f74696e 	svcpl	0x0074696e
 53c:	65636e6f 	strbvs	r6, [r3, #-3695]!	; 0xfffff191
 540:	755f5f00 	ldrbvc	r5, [pc, #-3840]	; fffff648 <__bss_end__+0xffff4a98>
 544:	6573756e 	ldrbvs	r7, [r3, #-1390]!	; 0xfffffa92
 548:	5f003064 	svcpl	0x00003064
 54c:	756e755f 	strbvc	r7, [lr, #-1375]!	; 0xfffffaa1
 550:	31646573 	smccc	18003	; 0x4653
 554:	755f5f00 	ldrbvc	r5, [pc, #-3840]	; fffff65c <__bss_end__+0xffff4aac>
 558:	6573756e 	ldrbvs	r7, [r3, #-1390]!	; 0xfffffa92
 55c:	2f003264 	svccs	0x00003264
 560:	656d6f68 	strbvs	r6, [sp, #-3944]!	; 0xfffff098
 564:	676e652f 	strbvs	r6, [lr, -pc, lsr #10]!
 568:	2f72656c 	svccs	0x0072656c
 56c:	73616c63 	cmnvc	r1, #25344	; 0x6300
 570:	73632f73 	cmnvc	r3, #460	; 0x1cc
 574:	2d6e3934 			; <UNDEFINED> instruction: 0x2d6e3934
 578:	75613132 	strbvc	r3, [r1, #-306]!	; 0xfffffece
 57c:	616c2f74 	smcvs	49908	; 0xc2f4
 580:	382f7362 	stmdacc	pc!, {r1, r5, r6, r8, r9, ip, sp, lr}	; <UNPREDICTABLE>
 584:	6332692d 	teqvs	r2, #737280	; 0xb4000
 588:	6363612d 	cmnvs	r3, #1073741835	; 0x4000000b
 58c:	632f6c65 			; <UNDEFINED> instruction: 0x632f6c65
 590:	0065646f 	rsbeq	r6, r5, pc, ror #8
 594:	65736572 	ldrbvs	r6, [r3, #-1394]!	; 0xfffffa8e
 598:	74735f74 	ldrbtvc	r5, [r3], #-3956	; 0xfffff08c
 59c:	73757461 	cmnvc	r5, #1627389952	; 0x61000000
 5a0:	6f6c6300 	svcvs	0x006c6300
 5a4:	645f6b63 	ldrbvs	r6, [pc], #-2915	; 5ac <__code_start__-0x7a54>
 5a8:	79616c65 	stmdbvc	r1!, {r0, r2, r5, r6, sl, fp, sp, lr}^
 5ac:	69706700 	ldmdbvs	r0!, {r8, r9, sl, sp, lr}^
 5b0:	6c635f6f 	stclvs	15, cr5, [r3], #-444	; 0xfffffe44
 5b4:	67003072 	smlsdxvs	r0, r2, r0, r3
 5b8:	5f6f6970 	svcpl	0x006f6970
 5bc:	30746573 	rsbscc	r6, r4, r3, ror r5
 5c0:	69706700 	ldmdbvs	r0!, {r8, r9, sl, sp, lr}^
 5c4:	72775f6f 	rsbsvc	r5, r7, #444	; 0x1bc
 5c8:	00657469 	rsbeq	r7, r5, r9, ror #8
 5cc:	5f564544 	svcpl	0x00564544
 5d0:	334c4156 	movtcc	r4, #49494	; 0xc156
 5d4:	55500032 	ldrbpl	r0, [r0, #-50]	; 0xffffffce
 5d8:	00323354 	eorseq	r3, r2, r4, asr r3
 5dc:	6f697067 	svcvs	0x00697067
 5e0:	6165725f 	cmnvs	r5, pc, asr r2
 5e4:	45470064 	strbmi	r0, [r7, #-100]	; 0xffffff9c
 5e8:	00323354 	eorseq	r3, r2, r4, asr r3
 5ec:	72732f2e 	rsbsvc	r2, r3, #184	; 0xb8
 5f0:	70672f63 	rsbvc	r2, r7, r3, ror #30
 5f4:	632e6f69 			; <UNDEFINED> instruction: 0x632e6f69
 5f8:	69706700 	ldmdbvs	r0!, {r8, r9, sl, sp, lr}^
 5fc:	65735f6f 	ldrbvs	r5, [r3, #-3951]!	; 0xfffff091
 600:	6e695f74 	mcrvs	15, 3, r5, cr9, cr4, {3}
 604:	00747570 	rsbseq	r7, r4, r0, ror r5
 608:	6f697067 	svcvs	0x00697067
 60c:	7465735f 	strbtvc	r7, [r5], #-863	; 0xfffffca1
 610:	66666f5f 	uqsaxvs	r6, r6, pc	; <UNPREDICTABLE>
 614:	69706700 	ldmdbvs	r0!, {r8, r9, sl, sp, lr}^
 618:	65735f6f 	ldrbvs	r5, [r3, #-3951]!	; 0xfffff091
 61c:	756f5f74 	strbvc	r5, [pc, #-3956]!	; fffff6b0 <__bss_end__+0xffff4b00>
 620:	74757074 	ldrbtvc	r7, [r5], #-116	; 0xffffff8c
 624:	6e756600 	cdpvs	6, 7, cr6, cr5, cr0, {0}
 628:	70670063 	rsbvc	r0, r7, r3, rrx
 62c:	665f6f69 	ldrbvs	r6, [pc], -r9, ror #30
 630:	5f636e75 	svcpl	0x00636e75
 634:	4e470074 	mcrmi	0, 2, r0, cr7, cr4, {3}
 638:	39432055 	stmdbcc	r3, {r0, r2, r4, r6, sp}^
 63c:	2e392039 	mrccs	0, 1, r2, cr9, cr9, {1}
 640:	20312e32 	eorscs	r2, r1, r2, lsr lr
 644:	39313032 	ldmdbcc	r1!, {r1, r4, r5, ip, sp}
 648:	35323031 	ldrcc	r3, [r2, #-49]!	; 0xffffffcf
 64c:	65722820 	ldrbvs	r2, [r2, #-2080]!	; 0xfffff7e0
 650:	7361656c 	cmnvc	r1, #108, 10	; 0x1b000000
 654:	5b202965 	blpl	80abf0 <__bss_end__+0x800040>
 658:	2f4d5241 	svccs	0x004d5241
 65c:	2d6d7261 	sfmcs	f7, 2, [sp, #-388]!	; 0xfffffe7c
 660:	72622d39 	rsbvc	r2, r2, #3648	; 0xe40
 664:	68636e61 	stmdavs	r3!, {r0, r5, r6, r9, sl, fp, sp, lr}^
 668:	76657220 	strbtvc	r7, [r5], -r0, lsr #4
 66c:	6f697369 	svcvs	0x00697369
 670:	3732206e 	ldrcc	r2, [r2, -lr, rrx]!
 674:	39393537 	ldmdbcc	r9!, {r0, r1, r2, r4, r5, r8, sl, ip, sp}
 678:	6d2d205d 	stcvs	0, cr2, [sp, #-372]!	; 0xfffffe8c
 67c:	3d757063 	ldclcc	0, cr7, [r5, #-396]!	; 0xfffffe74
 680:	316d7261 	cmncc	sp, r1, ror #4
 684:	6a363731 	bvs	d8e350 <__bss_end__+0xd837a0>
 688:	732d667a 			; <UNDEFINED> instruction: 0x732d667a
 68c:	746d2d20 	strbtvc	r2, [sp], #-3360	; 0xfffff2e0
 690:	3d656e75 	stclcc	14, cr6, [r5, #-468]!	; 0xfffffe2c
 694:	316d7261 	cmncc	sp, r1, ror #4
 698:	6a363731 	bvs	d8e364 <__bss_end__+0xd837b4>
 69c:	732d667a 			; <UNDEFINED> instruction: 0x732d667a
 6a0:	666d2d20 	strbtvs	r2, [sp], -r0, lsr #26
 6a4:	74616f6c 	strbtvc	r6, [r1], #-3948	; 0xfffff094
 6a8:	6962612d 	stmdbvs	r2!, {r0, r2, r3, r5, r8, sp, lr}^
 6ac:	666f733d 			; <UNDEFINED> instruction: 0x666f733d
 6b0:	6d2d2074 	stcvs	0, cr2, [sp, #-464]!	; 0xfffffe30
 6b4:	206d7261 	rsbcs	r7, sp, r1, ror #4
 6b8:	72616d2d 	rsbvc	r6, r1, #2880	; 0xb40
 6bc:	613d6863 	teqvs	sp, r3, ror #16
 6c0:	36766d72 			; <UNDEFINED> instruction: 0x36766d72
 6c4:	2d207a6b 	vstmdbcs	r0!, {s14-s120}
 6c8:	62646767 	rsbvs	r6, r4, #27000832	; 0x19c0000
 6cc:	67672d20 	strbvs	r2, [r7, -r0, lsr #26]!
 6d0:	2d206264 	sfmcs	f6, 4, [r0, #-400]!	; 0xfffffe70
 6d4:	7361664f 	cmnvc	r1, #82837504	; 0x4f00000
 6d8:	4f2d2074 	svcmi	0x002d2074
 6dc:	74736166 	ldrbtvc	r6, [r3], #-358	; 0xfffffe9a
 6e0:	74732d20 	ldrbtvc	r2, [r3], #-3360	; 0xfffff2e0
 6e4:	6e673d64 	cdpvs	13, 6, cr3, cr7, cr4, {3}
 6e8:	20393975 	eorscs	r3, r9, r5, ror r9
 6ec:	6474732d 	ldrbtvs	r7, [r4], #-813	; 0xfffffcd3
 6f0:	756e673d 	strbvc	r6, [lr, #-1853]!	; 0xfffff8c3
 6f4:	2d203939 			; <UNDEFINED> instruction: 0x2d203939
 6f8:	65726666 	ldrbvs	r6, [r2, #-1638]!	; 0xfffff99a
 6fc:	61747365 	cmnvs	r4, r5, ror #6
 700:	6e69646e 	cdpvs	4, 6, cr6, cr9, cr14, {3}
 704:	70670067 	rsbvc	r0, r7, r7, rrx
 708:	6c5f6f69 	mrrcvs	15, 6, r6, pc, cr9	; <UNPREDICTABLE>
 70c:	00307665 	eorseq	r7, r0, r5, ror #12
 710:	6573552f 	ldrbvs	r5, [r3, #-1327]!	; 0xfffffad1
 714:	6d2f7372 	stcvs	3, cr7, [pc, #-456]!	; 554 <__code_start__-0x7aac>
 718:	73656c69 	cmnvc	r5, #26880	; 0x6900
 71c:	756f532f 	strbvc	r5, [pc, #-815]!	; 3f5 <__code_start__-0x7c0b>
 720:	2f656372 	svccs	0x00656372
 724:	34327363 	ldrtcc	r7, [r2], #-867	; 0xfffffc9d
 728:	2f786c30 	svccs	0x00786c30
 72c:	7062696c 	rsbvc	r6, r2, ip, ror #18
 730:	61620069 	cmnvs	r2, r9, rrx
 734:	67006b6e 	strvs	r6, [r0, -lr, ror #22]
 738:	5f6f6970 	svcpl	0x006f6970
 73c:	5f746573 	svcpl	0x00746573
 740:	61006e6f 	tstvs	r0, pc, ror #28
 744:	00736772 	rsbseq	r6, r3, r2, ror r7
 748:	705f6176 	subsvc	r6, pc, r6, ror r1	; <UNPREDICTABLE>
 74c:	746e6972 	strbtvc	r6, [lr], #-2418	; 0xfffff68e
 750:	5f5f006b 	svcpl	0x005f006b
 754:	63756e67 	cmnvs	r5, #1648	; 0x670
 758:	5f61765f 	svcpl	0x0061765f
 75c:	7473696c 	ldrbtvc	r6, [r3], #-2412	; 0xfffff694
 760:	615f5f00 	cmpvs	pc, r0, lsl #30
 764:	2f2e0070 	svccs	0x002e0070
 768:	6362696c 	cmnvs	r2, #108, 18	; 0x1b0000
 76c:	6972702f 	ldmdbvs	r2!, {r0, r1, r2, r3, r5, ip, sp, lr}^
 770:	2e6b746e 	cdpcs	4, 6, cr7, cr11, cr14, {3}
 774:	5f5f0063 	svcpl	0x005f0063
 778:	6c5f6176 	ldfvse	f6, [pc], {118}	; 0x76
 77c:	00747369 	rsbseq	r7, r4, r9, ror #6
 780:	65746e69 	ldrbvs	r6, [r4, #-3689]!	; 0xfffff197
 784:	6c616e72 	stclvs	14, cr6, [r1], #-456	; 0xfffffe38
 788:	7475705f 	ldrbtvc	r7, [r5], #-95	; 0xffffffa1
 78c:	2f2e006b 	svccs	0x002e006b
 790:	6362696c 	cmnvs	r2, #108, 18	; 0x1b0000
 794:	7475702f 	ldrbtvc	r7, [r5], #-47	; 0xffffffd1
 798:	00632e6b 	rsbeq	r2, r3, fp, ror #28
 79c:	69647369 	stmdbvs	r4!, {r0, r3, r5, r6, r8, r9, ip, sp, lr}^
 7a0:	00746967 	rsbseq	r6, r4, r7, ror #18
 7a4:	746e6975 	strbtvc	r6, [lr], #-2421	; 0xfffff68b
 7a8:	745f3436 	ldrbvc	r3, [pc], #-1078	; 7b0 <__code_start__-0x7850>
 7ac:	6c2f2e00 	stcvs	14, cr2, [pc], #-0	; 7b4 <__code_start__-0x784c>
 7b0:	2f636269 	svccs	0x00636269
 7b4:	702d6176 	eorvc	r6, sp, r6, ror r1
 7b8:	746e6972 	strbtvc	r6, [lr], #-2418	; 0xfffff68e
 7bc:	00632e6b 	rsbeq	r2, r3, fp, ror #28
 7c0:	6f635f5f 	svcvs	0x00635f5f
 7c4:	735f6564 	cmpvc	pc, #100, 10	; 0x19000000
 7c8:	74726174 	ldrbtvc	r6, [r2], #-372	; 0xfffffe8c
 7cc:	5f005f5f 	svcpl	0x00005f5f
 7d0:	7373625f 	cmnvc	r3, #-268435451	; 0xf0000005
 7d4:	6174735f 	cmnvs	r4, pc, asr r3
 7d8:	5f5f7472 	svcpl	0x005f7472
 7dc:	64697700 	strbtvs	r7, [r9], #-1792	; 0xfffff900
 7e0:	5f006874 	svcpl	0x00006874
 7e4:	7461645f 	strbtvc	r6, [r1], #-1119	; 0xfffffba1
 7e8:	6e655f61 	cdpvs	15, 6, cr5, cr5, cr1, {3}
 7ec:	005f5f64 	subseq	r5, pc, r4, ror #30
 7f0:	6e676973 			; <UNDEFINED> instruction: 0x6e676973
 7f4:	705f6465 	subsvc	r6, pc, r5, ror #8
 7f8:	74757000 	ldrbtvc	r7, [r5], #-0
 7fc:	70665f63 	rsbvc	r5, r6, r3, ror #30
 800:	625f5f00 	subsvs	r5, pc, #0, 30
 804:	655f7373 	ldrbvs	r7, [pc, #-883]	; 499 <__code_start__-0x7b67>
 808:	5f5f646e 	svcpl	0x005f646e
 80c:	685f5f00 	ldmdavs	pc, {r8, r9, sl, fp, ip, lr}^	; <UNPREDICTABLE>
 810:	5f706165 	svcpl	0x00706165
 814:	72617473 	rsbvc	r7, r1, #1929379840	; 0x73000000
 818:	005f5f74 	subseq	r5, pc, r4, ror pc	; <UNPREDICTABLE>
 81c:	5f697072 	svcpl	0x00697072
 820:	5f746573 	svcpl	0x00746573
 824:	7074756f 	rsbsvc	r7, r4, pc, ror #10
 828:	66007475 			; <UNDEFINED> instruction: 0x66007475
 82c:	735f746d 	cmpvc	pc, #1828716544	; 0x6d000000
 830:	74726174 	ldrbtvc	r6, [r2], #-372	; 0xfffffe8c
 834:	72747300 	rsbsvc	r7, r4, #0, 6
 838:	00746163 	rsbseq	r6, r4, r3, ror #2
 83c:	63727473 	cmnvs	r2, #1929379840	; 0x73000000
 840:	6e007970 			; <UNDEFINED> instruction: 0x6e007970
 844:	705f6765 	subsvc	r6, pc, r5, ror #14
 848:	635f5f00 	cmpvs	pc, #0, 30
 84c:	5f65646f 	svcpl	0x0065646f
 850:	5f646e65 	svcpl	0x00646e65
 854:	6d65005f 	stclvs	0, cr0, [r5, #-380]!	; 0xfffffe84
 858:	70007469 	andvc	r7, r0, r9, ror #8
 85c:	5f737475 	svcpl	0x00737475
 860:	72007066 	andvc	r7, r0, #102, 0	; 0x66
 864:	72657665 	rsbvc	r7, r5, #105906176	; 0x6500000
 868:	73006573 	movwvc	r6, #1395	; 0x573
 86c:	6d637274 	sfmvs	f7, 2, [r3, #-464]!	; 0xfffffe30
 870:	5f5f0070 	svcpl	0x005f0070
 874:	61746164 	cmnvs	r4, r4, ror #2
 878:	6174735f 	cmnvs	r4, pc, asr r3
 87c:	5f5f7472 	svcpl	0x005f7472
 880:	705f5f00 	subsvc	r5, pc, r0, lsl #30
 884:	5f676f72 	svcpl	0x00676f72
 888:	5f646e65 	svcpl	0x00646e65
 88c:	756e005f 	strbvc	r0, [lr, #-95]!	; 0xffffffa1
 890:	7300316d 	movwvc	r3, #365	; 0x16d
 894:	636e7274 	cmnvs	lr, #116, 4	; 0x40000007
 898:	6200706d 	andvs	r7, r0, #109, 0	; 0x6d
 89c:	00657361 	rsbeq	r7, r5, r1, ror #6
 8a0:	5f697072 	svcpl	0x00697072
 8a4:	6f626572 	svcvs	0x00626572
 8a8:	2e00746f 	cdpcs	4, 0, cr7, cr0, cr15, {3}
 8ac:	6174732f 	cmnvs	r4, pc, lsr #6
 8b0:	732d6666 			; <UNDEFINED> instruction: 0x732d6666
 8b4:	632f6372 			; <UNDEFINED> instruction: 0x632f6372
 8b8:	6e61656c 	cdpvs	5, 6, cr6, cr1, cr12, {3}
 8bc:	6265722d 	rsbvs	r7, r5, #-805306366	; 0xd0000002
 8c0:	2e746f6f 	cdpcs	15, 7, cr6, cr4, cr15, {3}
 8c4:	61750063 	cmnvs	r5, r3, rrx
 8c8:	665f7472 			; <UNDEFINED> instruction: 0x665f7472
 8cc:	6873756c 	ldmdavs	r3!, {r2, r3, r5, r6, r8, sl, ip, sp, lr}^
 8d0:	0078745f 	rsbseq	r7, r8, pc, asr r4
 8d4:	7473635f 	ldrbtvc	r6, [r3], #-863	; 0xfffffca1
 8d8:	00747261 	rsbseq	r7, r4, r1, ror #4
 8dc:	5f737362 	svcpl	0x00737362
 8e0:	00646e65 	rsbeq	r6, r4, r5, ror #28
 8e4:	74726175 	ldrbtvc	r6, [r2], #-373	; 0xfffffe8b
 8e8:	696e695f 	stmdbvs	lr!, {r0, r1, r2, r3, r4, r6, r8, fp, sp, lr}^
 8ec:	75630074 	strbvc	r0, [r3, #-116]!	; 0xffffff8c
 8f0:	6d6f7473 	cfstrdvs	mvd7, [pc, #-460]!	; 72c <__code_start__-0x78d4>
 8f4:	616f6c5f 	cmnvs	pc, pc, asr ip	; <UNPREDICTABLE>
 8f8:	00726564 	rsbseq	r6, r2, r4, ror #10
 8fc:	74732f2e 	ldrbtvc	r2, [r3], #-3886	; 0xfffff0d2
 900:	2d666661 	stclcs	6, cr6, [r6, #-388]!	; 0xfffffe7c
 904:	2f637273 	svccs	0x00637273
 908:	61747363 	cmnvs	r4, r3, ror #6
 90c:	632e7472 			; <UNDEFINED> instruction: 0x632e7472
 910:	756f5f00 	strbvc	r5, [pc, #-3840]!	; fffffa18 <__bss_end__+0xffff4e68>
 914:	79630074 	stmdbvc	r3!, {r2, r4, r5, r6}^
 918:	5f656c63 	svcpl	0x00656c63
 91c:	66666964 	strbtvs	r6, [r6], -r4, ror #18
 920:	73616c00 	cmnvc	r1, #0, 24
 924:	2f2e0074 	svccs	0x002e0074
 928:	66617473 			; <UNDEFINED> instruction: 0x66617473
 92c:	72732d66 	rsbsvc	r2, r3, #6528	; 0x1980
 930:	75632f63 	strbvc	r2, [r3, #-3939]!	; 0xfffff09d
 934:	6d6f7473 	cfstrdvs	mvd7, [pc, #-460]!	; 770 <__code_start__-0x7890>
 938:	616f6c2d 	cmnvs	pc, sp, lsr #24
 93c:	2e726564 	cdpcs	5, 7, cr6, cr2, cr4, {3}
 940:	65720063 	ldrbvs	r0, [r2, #-99]!	; 0xffffff9d
 944:	746f6f62 	strbtvc	r6, [pc], #-3938	; 94c <__code_start__-0x76b4>
 948:	6c61635f 	stclvs	3, cr6, [r1], #-380	; 0xfffffe84
 94c:	74756f6c 	ldrbtvc	r6, [r5], #-3948	; 0xfffff094
 950:	5f4d5000 	svcpl	0x004d5000
 954:	474f4457 	smlsldmi	r4, pc, r7, r4	; <UNPREDICTABLE>
 958:	74657300 	strbtvc	r7, [r5], #-768	; 0xfffffd00
 95c:	6573755f 	ldrbvs	r7, [r3, #-1375]!	; 0xfffffaa1
 960:	656c5f72 	strbvs	r5, [ip, #-3954]!	; 0xfffff08e
 964:	006c6576 	rsbeq	r6, ip, r6, ror r5
 968:	74732f2e 	ldrbtvc	r2, [r3], #-3886	; 0xfffff0d2
 96c:	2d666661 	stclcs	6, cr6, [r6, #-388]!	; 0xfffffe7c
 970:	2f637273 	svccs	0x00637273
 974:	6f626572 	svcvs	0x00626572
 978:	632e746f 			; <UNDEFINED> instruction: 0x632e746f
 97c:	5f4d5000 	svcpl	0x004d5000
 980:	53534150 	cmppl	r3, #20
 984:	44524f57 	ldrbmi	r4, [r2], #-3927	; 0xfffff0a9
 988:	5f746100 	svcpl	0x00746100
 98c:	72657375 	rsbvc	r7, r5, #-738197503	; 0xd4000001
 990:	76656c5f 			; <UNDEFINED> instruction: 0x76656c5f
 994:	50006c65 	andpl	r6, r0, r5, ror #24
 998:	53525f4d 	cmppl	r2, #308	; 0x134
 99c:	575f4354 			; <UNDEFINED> instruction: 0x575f4354
 9a0:	47464352 	smlsldmi	r4, r6, r2, r3
 9a4:	4c55465f 	mrrcmi	6, 5, r4, r5, cr15
 9a8:	45525f4c 	ldrbmi	r5, [r2, #-3916]	; 0xfffff0b4
 9ac:	00544553 	subseq	r4, r4, r3, asr r5
 9b0:	525f4d50 	subspl	r4, pc, #80, 26	; 0x1400
 9b4:	00435453 	subeq	r5, r3, r3, asr r4
 9b8:	72737063 	rsbsvc	r7, r3, #99, 0	; 0x63
 9bc:	6c656400 	cfstrdvs	mvd6, [r5], #-0
 9c0:	735f7961 	cmpvc	pc, #1589248	; 0x184000
 9c4:	2e006365 	cdpcs	3, 0, cr6, cr0, cr5, {3}
 9c8:	6174732f 	cmnvs	r4, pc, lsr #6
 9cc:	732d6666 			; <UNDEFINED> instruction: 0x732d6666
 9d0:	742f6372 	strtvc	r6, [pc], #-882	; 9d8 <__code_start__-0x7628>
 9d4:	72656d69 	rsbvc	r6, r5, #6720	; 0x1a40
 9d8:	7400632e 	strvc	r6, [r0], #-814	; 0xfffffcd2
 9dc:	72656d69 	rsbvc	r6, r5, #6720	; 0x1a40
 9e0:	7465675f 	strbtvc	r6, [r5], #-1887	; 0xfffff8a1
 9e4:	6573755f 	ldrbvs	r7, [r3, #-1375]!	; 0xfffffaa1
 9e8:	69740063 	ldmdbvs	r4!, {r0, r1, r5, r6}^
 9ec:	5f72656d 	svcpl	0x0072656d
 9f0:	5f746567 	svcpl	0x00746567
 9f4:	63657375 	cmnvs	r5, #-738197503	; 0xd4000001
 9f8:	7761725f 			; <UNDEFINED> instruction: 0x7761725f
 9fc:	6c656400 	cfstrdvs	mvd6, [r5], #-0
 a00:	755f7961 	ldrbvc	r7, [pc, #-2401]	; a7 <__code_start__-0x7f59>
 a04:	61620073 	smcvs	8195	; 0x2003
 a08:	765f6475 			; <UNDEFINED> instruction: 0x765f6475
 a0c:	73006c61 	movwvc	r6, #3169	; 0xc61
 a10:	00746174 	rsbseq	r6, r4, r4, ror r1
 a14:	74726175 	ldrbtvc	r6, [r2], #-373	; 0xfffffe8b
 a18:	6e61635f 	mcrvs	3, 3, r6, cr1, cr15, {2}
 a1c:	7465675f 	strbtvc	r6, [r5], #-1887	; 0xfffff8a1
 a20:	75610063 	strbvc	r0, [r1, #-99]!	; 0xffffff9d
 a24:	65705f78 	ldrbvs	r5, [r0, #-3960]!	; 0xfffff088
 a28:	68706972 	ldmdavs	r0!, {r1, r4, r5, r6, r8, fp, sp, lr}^
 a2c:	61750073 	cmnvs	r5, r3, ror r0
 a30:	632e7472 			; <UNDEFINED> instruction: 0x632e7472
 a34:	72617500 	rsbvc	r7, r1, #0, 10
 a38:	61635f74 	smcvs	13812	; 0x35f4
 a3c:	75705f6e 	ldrbvc	r5, [r0, #-3950]!	; 0xfffff092
 a40:	75006374 	strvc	r6, [r0, #-884]	; 0xfffffc8c
 a44:	5f747261 	svcpl	0x00747261
 a48:	695f7874 	ldmdbvs	pc, {r2, r4, r5, r6, fp, ip, sp, lr}^	; <UNPREDICTABLE>
 a4c:	6d655f73 	stclvs	15, cr5, [r5, #-460]!	; 0xfffffe34
 a50:	00797470 	rsbseq	r7, r9, r0, ror r4
 a54:	6d6f682f 	stclvs	8, cr6, [pc, #-188]!	; 9a0 <__code_start__-0x7660>
 a58:	6e652f65 	cdpvs	15, 6, cr2, cr5, cr5, {3}
 a5c:	72656c67 	rsbvc	r6, r5, #26368	; 0x6700
 a60:	616c632f 	cmnvs	ip, pc, lsr #6
 a64:	632f7373 			; <UNDEFINED> instruction: 0x632f7373
 a68:	30343273 	eorscc	r3, r4, r3, ror r2
 a6c:	322d786c 	eorcc	r7, sp, #108, 16	; 0x6c0000
 a70:	72707332 	rsbsvc	r7, r0, #-939524096	; 0xc8000000
 a74:	62696c2f 	rsbvs	r6, r9, #12032	; 0x2f00
 a78:	732f6970 			; <UNDEFINED> instruction: 0x732f6970
 a7c:	66666174 			; <UNDEFINED> instruction: 0x66666174
 a80:	6972702d 	ldmdbvs	r2!, {r0, r2, r3, r5, ip, sp, lr}^
 a84:	65746176 	ldrbvs	r6, [r4, #-374]!	; 0xfffffe8a
 a88:	75616200 	strbvc	r6, [r1, #-512]!	; 0xfffffe00
 a8c:	75610064 	strbvc	r0, [r1, #-100]!	; 0xffffff9c
 a90:	6e655f78 	mcrvs	15, 3, r5, cr5, cr8, {3}
 a94:	656c6261 	strbvs	r6, [ip, #-609]!	; 0xfffffd9f
 a98:	61750073 	cmnvs	r5, r3, ror r0
 a9c:	675f7472 			; <UNDEFINED> instruction: 0x675f7472
 aa0:	00637465 	rsbeq	r7, r3, r5, ror #8
 aa4:	20554e47 	subscs	r4, r5, r7, asr #28
 aa8:	20393943 	eorscs	r3, r9, r3, asr #18
 aac:	332e3031 			; <UNDEFINED> instruction: 0x332e3031
 ab0:	3220312e 	eorcc	r3, r0, #-2147483637	; 0x8000000b
 ab4:	30313230 	eorscc	r3, r1, r0, lsr r2
 ab8:	20343238 	eorscs	r3, r4, r8, lsr r2
 abc:	6c657228 	sfmvs	f7, 2, [r5], #-160	; 0xffffff60
 ac0:	65736165 	ldrbvs	r6, [r3, #-357]!	; 0xfffffe9b
 ac4:	6d2d2029 	stcvs	0, cr2, [sp, #-164]!	; 0xffffff5c
 ac8:	3d757063 	ldclcc	0, cr7, [r5, #-396]!	; 0xfffffe74
 acc:	316d7261 	cmncc	sp, r1, ror #4
 ad0:	6a363731 	bvs	d8e79c <__bss_end__+0xd83bec>
 ad4:	732d667a 			; <UNDEFINED> instruction: 0x732d667a
 ad8:	746d2d20 	strbtvc	r2, [sp], #-3360	; 0xfffff2e0
 adc:	3d656e75 	stclcc	14, cr6, [r5, #-468]!	; 0xfffffe2c
 ae0:	316d7261 	cmncc	sp, r1, ror #4
 ae4:	6a363731 	bvs	d8e7b0 <__bss_end__+0xd83c00>
 ae8:	732d667a 			; <UNDEFINED> instruction: 0x732d667a
 aec:	666d2d20 	strbtvs	r2, [sp], -r0, lsr #26
 af0:	74616f6c 	strbtvc	r6, [r1], #-3948	; 0xfffff094
 af4:	6962612d 	stmdbvs	r2!, {r0, r2, r3, r5, r8, sp, lr}^
 af8:	666f733d 			; <UNDEFINED> instruction: 0x666f733d
 afc:	6d2d2074 	stcvs	0, cr2, [sp, #-464]!	; 0xfffffe30
 b00:	206d7261 	rsbcs	r7, sp, r1, ror #4
 b04:	72616d2d 	rsbvc	r6, r1, #2880	; 0xb40
 b08:	613d6863 	teqvs	sp, r3, ror #16
 b0c:	36766d72 			; <UNDEFINED> instruction: 0x36766d72
 b10:	2d207a6b 	vstmdbcs	r0!, {s14-s120}
 b14:	62646767 	rsbvs	r6, r4, #27000832	; 0x19c0000
 b18:	674f2d20 	strbvs	r2, [pc, -r0, lsr #26]
 b1c:	74732d20 	ldrbtvc	r2, [r3], #-3360	; 0xfffff2e0
 b20:	6e673d64 	cdpvs	13, 6, cr3, cr7, cr4, {3}
 b24:	20393975 	eorscs	r3, r9, r5, ror r9
 b28:	7266662d 	rsbvc	r6, r6, #47185920	; 0x2d00000
 b2c:	74736565 	ldrbtvc	r6, [r3], #-1381	; 0xfffffa9b
 b30:	69646e61 	stmdbvs	r4!, {r0, r5, r6, r9, sl, fp, sp, lr}^
 b34:	6300676e 	movwvs	r6, #1902	; 0x76e
 b38:	006c746e 	rsbeq	r7, ip, lr, ror #8
 b3c:	74726175 	ldrbtvc	r6, [r2], #-373	; 0xfffffe8b
 b40:	7369645f 	cmnvc	r9, #1593835520	; 0x5f000000
 b44:	656c6261 	strbvs	r6, [ip, #-609]!	; 0xfffffd9f
 b48:	72617500 	rsbvc	r7, r1, #0, 10
 b4c:	61685f74 	smcvs	34292	; 0x85f4
 b50:	61645f73 	smcvs	17907	; 0x45f3
 b54:	6f006174 	svcvs	0x00006174
 b58:	6e695f72 	mcrvs	15, 3, r5, cr9, cr2, {3}
 b5c:	73003233 	movwvc	r3, #563	; 0x233
 b60:	74617263 	strbtvc	r7, [r1], #-611	; 0xfffffd9d
 b64:	75006863 	strvc	r6, [r0, #-2147]	; 0xfffff79d
 b68:	00747261 	rsbseq	r7, r4, r1, ror #4
 b6c:	5f646e61 	svcpl	0x00646e61
 b70:	32336e69 	eorscc	r6, r3, #1680	; 0x690
 b74:	72617500 	rsbvc	r7, r1, #0, 10
 b78:	75705f74 	ldrbvc	r5, [r0, #-3956]!	; 0xfffff08c
 b7c:	69006374 	stmdbvs	r0, {r2, r4, r5, r6, r8, r9, sp, lr}
 b80:	7265746e 	rsbvc	r7, r5, #1845493760	; 0x6e000000
 b84:	5f6c616e 	svcpl	0x006c616e
 b88:	63747570 	cmnvs	r4, #112, 10	; 0x1c000000
 b8c:	00726168 	rsbseq	r6, r2, r8, ror #2
 b90:	5f697072 	svcpl	0x00697072
 b94:	5f746573 	svcpl	0x00746573
 b98:	63747570 	cmnvs	r4, #112, 10	; 0x1c000000
 b9c:	6c2f2e00 	stcvs	14, cr2, [pc], #-0	; ba4 <__code_start__-0x745c>
 ba0:	2f636269 	svccs	0x00636269
 ba4:	63747570 	cmnvs	r4, #112, 10	; 0x1c000000
 ba8:	2e726168 	rpwcssz	f6, f2, #0.0
 bac:	70720063 	rsbsvc	r0, r2, r3, rrx
 bb0:	65725f69 	ldrbvs	r5, [r2, #-3945]!	; 0xfffff097
 bb4:	5f746573 	svcpl	0x00746573
 bb8:	63747570 	cmnvs	r4, #112, 10	; 0x1c000000
 bbc:	73656400 	cmnvc	r5, #0, 8
 bc0:	2f2e0074 	svccs	0x002e0074
 bc4:	6362696c 	cmnvs	r2, #108, 18	; 0x1b0000
 bc8:	7274732f 	rsbsvc	r7, r4, #-1140850688	; 0xbc000000
 bcc:	2e746163 	rpwcssz	f6, f4, f3
 bd0:	2f2e0063 	svccs	0x002e0063
 bd4:	6362696c 	cmnvs	r2, #108, 18	; 0x1b0000
 bd8:	7274732f 	rsbsvc	r7, r4, #-1140850688	; 0xbc000000
 bdc:	2e706d63 	cdpcs	13, 7, cr6, cr0, cr3, {3}
 be0:	2f2e0063 	svccs	0x002e0063
 be4:	6362696c 	cmnvs	r2, #108, 18	; 0x1b0000
 be8:	7274732f 	rsbsvc	r7, r4, #-1140850688	; 0xbc000000
 bec:	2e797063 	cdpcs	0, 7, cr7, cr9, cr3, {3}
 bf0:	69730063 	ldmdbvs	r3!, {r0, r1, r5, r6}^
 bf4:	745f657a 	ldrbvc	r6, [pc], #-1402	; bfc <__code_start__-0x7404>
 bf8:	6c2f2e00 	stcvs	14, cr2, [pc], #-0	; c00 <__code_start__-0x7400>
 bfc:	2f636269 	svccs	0x00636269
 c00:	6e727473 	mrcvs	4, 3, r7, cr2, cr3, {3}
 c04:	2e706d63 	cdpcs	13, 7, cr6, cr0, cr3, {3}
 c08:	2f2e0063 	svccs	0x002e0063
 c0c:	66617473 			; <UNDEFINED> instruction: 0x66617473
 c10:	72732d66 	rsbsvc	r2, r3, #6528	; 0x1980
 c14:	65642f63 	strbvs	r2, [r4, #-3939]!	; 0xfffff09d
 c18:	6c756166 	ldfvse	f6, [r5], #-408	; 0xfffffe68
 c1c:	65722d74 	ldrbvs	r2, [r2, #-3444]!	; 0xfffff28c
 c20:	746f6f62 	strbtvc	r6, [pc], #-3938	; c28 <__code_start__-0x73d8>
 c24:	6c61632d 	stclvs	3, cr6, [r1], #-180	; 0xffffff4c
 c28:	74756f6c 	ldrbtvc	r6, [r5], #-3948	; 0xfffff094
 c2c:	Address 0x0000000000000c2c is out of bounds.


Disassembly of section .debug_frame:

00000000 <.debug_frame>:
   0:	0000000c 	andeq	r0, r0, ip
   4:	ffffffff 			; <UNDEFINED> instruction: 0xffffffff
   8:	7c020001 	stcvc	0, cr0, [r2], {1}
   c:	000d0c0e 	andeq	r0, sp, lr, lsl #24
  10:	0000000c 	andeq	r0, r0, ip
  14:	00000000 	andeq	r0, r0, r0
  18:	00008038 	andeq	r8, r0, r8, lsr r0
  1c:	0000000c 	andeq	r0, r0, ip
  20:	00000014 	andeq	r0, r0, r4, lsl r0
  24:	00000000 	andeq	r0, r0, r0
  28:	00008044 	andeq	r8, r0, r4, asr #32
  2c:	0000008c 	andeq	r0, r0, ip, lsl #1
  30:	8e040e6e 	cdphi	14, 0, cr0, cr4, cr14, {3}
  34:	100e4201 	andne	r4, lr, r1, lsl #4
  38:	00000018 	andeq	r0, r0, r8, lsl r0
  3c:	00000000 	andeq	r0, r0, r0
  40:	000080d0 	ldrdeq	r8, [r0], -r0
  44:	00000094 	muleq	r0, r4, r0
  48:	8e040e60 	cdphi	14, 0, cr0, cr4, cr0, {3}
  4c:	100e4201 	andne	r4, lr, r1, lsl #4
  50:	ce000e4e 	cdpgt	14, 0, cr0, cr0, cr14, {2}
  54:	00000014 	andeq	r0, r0, r4, lsl r0
  58:	00000000 	andeq	r0, r0, r0
  5c:	00008164 	andeq	r8, r0, r4, ror #2
  60:	0000002c 	andeq	r0, r0, ip, lsr #32
  64:	84080e42 	strhi	r0, [r8], #-3650	; 0xfffff1be
  68:	00018e02 	andeq	r8, r1, r2, lsl #28
  6c:	00000020 	andeq	r0, r0, r0, lsr #32
  70:	00000000 	andeq	r0, r0, r0
  74:	00008190 	muleq	r0, r0, r1
  78:	00000094 	muleq	r0, r4, r0
  7c:	840c0e42 	strhi	r0, [ip], #-3650	; 0xfffff1be
  80:	8e028503 	cfsh32hi	mvfx8, mvfx2, #3
  84:	200e4201 	andcs	r4, lr, r1, lsl #4
  88:	0c0e0a66 			; <UNDEFINED> instruction: 0x0c0e0a66
  8c:	00000b42 	andeq	r0, r0, r2, asr #22
  90:	00000018 	andeq	r0, r0, r8, lsl r0
  94:	00000000 	andeq	r0, r0, r0
  98:	00008224 	andeq	r8, r0, r4, lsr #4
  9c:	00000038 	andeq	r0, r0, r8, lsr r0
  a0:	8e040e42 	cdphi	14, 0, cr0, cr4, cr2, {2}
  a4:	200e4201 	andcs	r4, lr, r1, lsl #4
  a8:	00040e54 	andeq	r0, r4, r4, asr lr
  ac:	0000001c 	andeq	r0, r0, ip, lsl r0
  b0:	00000000 	andeq	r0, r0, r0
  b4:	0000825c 	andeq	r8, r0, ip, asr r2
  b8:	00000038 	andeq	r0, r0, r8, lsr r0
  bc:	84080e42 	strhi	r0, [r8], #-3650	; 0xfffff1be
  c0:	42018e02 	andmi	r8, r1, #2, 28
  c4:	0e56180e 	cdpeq	8, 5, cr1, cr6, cr14, {0}
  c8:	00000008 	andeq	r0, r0, r8
  cc:	00000018 	andeq	r0, r0, r8, lsl r0
  d0:	00000000 	andeq	r0, r0, r0
  d4:	00008294 	muleq	r0, r4, r2
  d8:	00000024 	andeq	r0, r0, r4, lsr #32
  dc:	8e040e42 	cdphi	14, 0, cr0, cr4, cr2, {2}
  e0:	100e4201 	andne	r4, lr, r1, lsl #4
  e4:	00040e4c 	andeq	r0, r4, ip, asr #28
  e8:	00000020 	andeq	r0, r0, r0, lsr #32
  ec:	00000000 	andeq	r0, r0, r0
  f0:	000082b8 			; <UNDEFINED> instruction: 0x000082b8
  f4:	0000003c 	andeq	r0, r0, ip, lsr r0
  f8:	84100e42 	ldrhi	r0, [r0], #-3650	; 0xfffff1be
  fc:	86038504 	strhi	r8, [r3], -r4, lsl #10
 100:	42018e02 	andmi	r8, r1, #2, 28
 104:	0e58180e 	cdpeq	8, 5, cr1, cr8, cr14, {0}
 108:	00000010 	andeq	r0, r0, r0, lsl r0
 10c:	00000024 	andeq	r0, r0, r4, lsr #32
 110:	00000000 	andeq	r0, r0, r0
 114:	000082f4 	strdeq	r8, [r0], -r4
 118:	000000b8 	strheq	r0, [r0], -r8
 11c:	84140e42 	ldrhi	r0, [r4], #-3650	; 0xfffff1be
 120:	86048505 	strhi	r8, [r4], -r5, lsl #10
 124:	8e028703 	cdphi	7, 0, cr8, cr2, cr3, {0}
 128:	200e4201 	andcs	r4, lr, r1, lsl #4
 12c:	0e0a4c02 	cdpeq	12, 0, cr4, cr10, cr2, {0}
 130:	000b4214 	andeq	r4, fp, r4, lsl r2
 134:	0000000c 	andeq	r0, r0, ip
 138:	00000000 	andeq	r0, r0, r0
 13c:	000083ac 	andeq	r8, r0, ip, lsr #7
 140:	00000008 	andeq	r0, r0, r8
 144:	0000001c 	andeq	r0, r0, ip, lsl r0
 148:	00000000 	andeq	r0, r0, r0
 14c:	000083b4 			; <UNDEFINED> instruction: 0x000083b4
 150:	000000b4 	strheq	r0, [r0], -r4
 154:	84180e42 	ldrhi	r0, [r8], #-3650	; 0xfffff1be
 158:	86058506 	strhi	r8, [r5], -r6, lsl #10
 15c:	88038704 	stmdahi	r3, {r2, r8, r9, sl, pc}
 160:	00018e02 	andeq	r8, r1, r2, lsl #28
 164:	0000002c 	andeq	r0, r0, ip, lsr #32
 168:	00000000 	andeq	r0, r0, r0
 16c:	00008468 	andeq	r8, r0, r8, ror #8
 170:	00000060 	andeq	r0, r0, r0, rrx
 174:	42080e42 	andmi	r0, r8, #1056	; 0x420
 178:	0884200e 	stmeq	r4, {r1, r2, r3, sp}
 17c:	06860785 	streq	r0, [r6], r5, lsl #15
 180:	04880587 	streq	r0, [r8], #1415	; 0x587
 184:	ce68038e 	cdpgt	3, 6, cr0, cr8, cr14, {4}
 188:	c5c6c7c8 	strbgt	ip, [r6, #1992]	; 0x7c8
 18c:	42080ec4 	andmi	r0, r8, #196, 28	; 0xc40
 190:	0000000e 	andeq	r0, r0, lr
 194:	00000014 	andeq	r0, r0, r4, lsl r0
 198:	00000000 	andeq	r0, r0, r0
 19c:	000084c8 	andeq	r8, r0, r8, asr #9
 1a0:	00000030 	andeq	r0, r0, r0, lsr r0
 1a4:	84080e42 	strhi	r0, [r8], #-3650	; 0xfffff1be
 1a8:	00018e02 	andeq	r8, r1, r2, lsl #28
 1ac:	00000020 	andeq	r0, r0, r0, lsr #32
 1b0:	00000000 	andeq	r0, r0, r0
 1b4:	000084f8 	strdeq	r8, [r0], -r8	; <UNPREDICTABLE>
 1b8:	000001a8 	andeq	r0, r0, r8, lsr #3
 1bc:	84100e42 	ldrhi	r0, [r0], #-3650	; 0xfffff1be
 1c0:	86038504 	strhi	r8, [r3], -r4, lsl #10
 1c4:	42018e02 	andmi	r8, r1, #2, 28
 1c8:	bc02480e 	stclt	8, cr4, [r2], {14}
 1cc:	0000100e 	andeq	r1, r0, lr
 1d0:	0000000c 	andeq	r0, r0, ip
 1d4:	ffffffff 			; <UNDEFINED> instruction: 0xffffffff
 1d8:	7c020001 	stcvc	0, cr0, [r2], {1}
 1dc:	000d0c0e 	andeq	r0, sp, lr, lsl #24
 1e0:	0000000c 	andeq	r0, r0, ip
 1e4:	000001d0 	ldrdeq	r0, [r0], -r0	; <UNPREDICTABLE>
 1e8:	000086a0 	andeq	r8, r0, r0, lsr #13
 1ec:	00000010 	andeq	r0, r0, r0, lsl r0
 1f0:	0000000c 	andeq	r0, r0, ip
 1f4:	000001d0 	ldrdeq	r0, [r0], -r0	; <UNPREDICTABLE>
 1f8:	000086b0 			; <UNDEFINED> instruction: 0x000086b0
 1fc:	0000000c 	andeq	r0, r0, ip
 200:	00000014 	andeq	r0, r0, r4, lsl r0
 204:	000001d0 	ldrdeq	r0, [r0], -r0	; <UNPREDICTABLE>
 208:	000086bc 			; <UNDEFINED> instruction: 0x000086bc
 20c:	00000008 	andeq	r0, r0, r8
 210:	8e040e42 	cdphi	14, 0, cr0, cr4, cr2, {2}
 214:	00000001 	andeq	r0, r0, r1
 218:	0000001c 	andeq	r0, r0, ip, lsl r0
 21c:	000001d0 	ldrdeq	r0, [r0], -r0	; <UNPREDICTABLE>
 220:	000086c4 	andeq	r8, r0, r4, asr #13
 224:	000000fc 	strdeq	r0, [r0], -ip
 228:	8e040e42 	cdphi	14, 0, cr0, cr4, cr2, {2}
 22c:	100e4201 	andne	r4, lr, r1, lsl #4
 230:	0e0a4402 	cdpeq	4, 0, cr4, cr10, cr2, {0}
 234:	000b4204 	andeq	r4, fp, r4, lsl #4
 238:	00000014 	andeq	r0, r0, r4, lsl r0
 23c:	000001d0 	ldrdeq	r0, [r0], -r0	; <UNPREDICTABLE>
 240:	000087c0 	andeq	r8, r0, r0, asr #15
 244:	00000010 	andeq	r0, r0, r0, lsl r0
 248:	84080e42 	strhi	r0, [r8], #-3650	; 0xfffff1be
 24c:	00018e02 	andeq	r8, r1, r2, lsl #28
 250:	00000014 	andeq	r0, r0, r4, lsl r0
 254:	000001d0 	ldrdeq	r0, [r0], -r0	; <UNPREDICTABLE>
 258:	000087d0 	ldrdeq	r8, [r0], -r0
 25c:	00000028 	andeq	r0, r0, r8, lsr #32
 260:	84080e42 	strhi	r0, [r8], #-3650	; 0xfffff1be
 264:	00018e02 	andeq	r8, r1, r2, lsl #28
 268:	00000014 	andeq	r0, r0, r4, lsl r0
 26c:	000001d0 	ldrdeq	r0, [r0], -r0	; <UNPREDICTABLE>
 270:	000087f8 	strdeq	r8, [r0], -r8	; <UNPREDICTABLE>
 274:	00000010 	andeq	r0, r0, r0, lsl r0
 278:	84080e42 	strhi	r0, [r8], #-3650	; 0xfffff1be
 27c:	00018e02 	andeq	r8, r1, r2, lsl #28
 280:	00000020 	andeq	r0, r0, r0, lsr #32
 284:	000001d0 	ldrdeq	r0, [r0], -r0	; <UNPREDICTABLE>
 288:	00008808 	andeq	r8, r0, r8, lsl #16
 28c:	000001d4 	ldrdeq	r0, [r0], -r4
 290:	84100e42 	ldrhi	r0, [r0], #-3650	; 0xfffff1be
 294:	86038504 	strhi	r8, [r3], -r4, lsl #10
 298:	42018e02 	andmi	r8, r1, #2, 28
 29c:	ca02180e 	bgt	862dc <__bss_end__+0x7b72c>
 2a0:	0000100e 	andeq	r1, r0, lr
 2a4:	00000020 	andeq	r0, r0, r0, lsr #32
 2a8:	000001d0 	ldrdeq	r0, [r0], -r0	; <UNPREDICTABLE>
 2ac:	000089dc 	ldrdeq	r8, [r0], -ip
 2b0:	0000019c 	muleq	r0, ip, r1
 2b4:	84100e42 	ldrhi	r0, [r0], #-3650	; 0xfffff1be
 2b8:	86038504 	strhi	r8, [r3], -r4, lsl #10
 2bc:	42018e02 	andmi	r8, r1, #2, 28
 2c0:	b202180e 	andlt	r1, r2, #917504	; 0xe0000
 2c4:	0000100e 	andeq	r1, r0, lr
 2c8:	00000018 	andeq	r0, r0, r8, lsl r0
 2cc:	000001d0 	ldrdeq	r0, [r0], -r0	; <UNPREDICTABLE>
 2d0:	00008b78 	andeq	r8, r0, r8, ror fp
 2d4:	000000b8 	strheq	r0, [r0], -r8
 2d8:	84100e42 	ldrhi	r0, [r0], #-3650	; 0xfffff1be
 2dc:	86038504 	strhi	r8, [r3], -r4, lsl #10
 2e0:	00018e02 	andeq	r8, r1, r2, lsl #28
 2e4:	00000018 	andeq	r0, r0, r8, lsl r0
 2e8:	000001d0 	ldrdeq	r0, [r0], -r0	; <UNPREDICTABLE>
 2ec:	00008c30 	andeq	r8, r0, r0, lsr ip
 2f0:	000000bc 	strheq	r0, [r0], -ip
 2f4:	84100e42 	ldrhi	r0, [r0], #-3650	; 0xfffff1be
 2f8:	86038504 	strhi	r8, [r3], -r4, lsl #10
 2fc:	00018e02 	andeq	r8, r1, r2, lsl #28
 300:	00000018 	andeq	r0, r0, r8, lsl r0
 304:	000001d0 	ldrdeq	r0, [r0], -r0	; <UNPREDICTABLE>
 308:	00008cec 	andeq	r8, r0, ip, ror #25
 30c:	000001b8 			; <UNDEFINED> instruction: 0x000001b8
 310:	84100e42 	ldrhi	r0, [r0], #-3650	; 0xfffff1be
 314:	86038504 	strhi	r8, [r3], -r4, lsl #10
 318:	00018e02 	andeq	r8, r1, r2, lsl #28
 31c:	0000000c 	andeq	r0, r0, ip
 320:	000001d0 	ldrdeq	r0, [r0], -r0	; <UNPREDICTABLE>
 324:	00008ea4 	andeq	r8, r0, r4, lsr #29
 328:	00000010 	andeq	r0, r0, r0, lsl r0
 32c:	0000001c 	andeq	r0, r0, ip, lsl r0
 330:	000001d0 	ldrdeq	r0, [r0], -r0	; <UNPREDICTABLE>
 334:	00008eb4 			; <UNDEFINED> instruction: 0x00008eb4
 338:	000000a4 	andeq	r0, r0, r4, lsr #1
 33c:	84080e42 	strhi	r0, [r8], #-3650	; 0xfffff1be
 340:	42018e02 	andmi	r8, r1, #2, 28
 344:	0a6e100e 	beq	1b84384 <__bss_end__+0x1b797d4>
 348:	0b42080e 	bleq	1082388 <__bss_end__+0x10777d8>
 34c:	00000014 	andeq	r0, r0, r4, lsl r0
 350:	000001d0 	ldrdeq	r0, [r0], -r0	; <UNPREDICTABLE>
 354:	00008f58 	andeq	r8, r0, r8, asr pc
 358:	00000018 	andeq	r0, r0, r8, lsl r0
 35c:	84080e42 	strhi	r0, [r8], #-3650	; 0xfffff1be
 360:	00018e02 	andeq	r8, r1, r2, lsl #28
 364:	0000000c 	andeq	r0, r0, ip
 368:	ffffffff 			; <UNDEFINED> instruction: 0xffffffff
 36c:	7c020001 	stcvc	0, cr0, [r2], {1}
 370:	000d0c0e 	andeq	r0, sp, lr, lsl #24
 374:	00000020 	andeq	r0, r0, r0, lsr #32
 378:	00000364 	andeq	r0, r0, r4, ror #6
 37c:	00008f70 	andeq	r8, r0, r0, ror pc
 380:	00000060 	andeq	r0, r0, r0, rrx
 384:	84100e48 	ldrhi	r0, [r0], #-3656	; 0xfffff1b8
 388:	86038504 	strhi	r8, [r3], -r4, lsl #10
 38c:	64018e02 	strvs	r8, [r1], #-3586	; 0xfffff1fe
 390:	c4c5c6ce 	strbgt	ip, [r5], #1742	; 0x6ce
 394:	0000000e 	andeq	r0, r0, lr
 398:	00000020 	andeq	r0, r0, r0, lsr #32
 39c:	00000364 	andeq	r0, r0, r4, ror #6
 3a0:	00008fd0 	ldrdeq	r8, [r0], -r0
 3a4:	00000058 	andeq	r0, r0, r8, asr r0
 3a8:	84100e46 	ldrhi	r0, [r0], #-3654	; 0xfffff1ba
 3ac:	86038504 	strhi	r8, [r3], -r4, lsl #10
 3b0:	62018e02 	andvs	r8, r1, #2, 28
 3b4:	c4c5c6ce 	strbgt	ip, [r5], #1742	; 0x6ce
 3b8:	0000000e 	andeq	r0, r0, lr
 3bc:	0000000c 	andeq	r0, r0, ip
 3c0:	00000364 	andeq	r0, r0, r4, ror #6
 3c4:	00009028 	andeq	r9, r0, r8, lsr #32
 3c8:	00000018 	andeq	r0, r0, r8, lsl r0
 3cc:	0000000c 	andeq	r0, r0, ip
 3d0:	00000364 	andeq	r0, r0, r4, ror #6
 3d4:	00009040 	andeq	r9, r0, r0, asr #32
 3d8:	00000018 	andeq	r0, r0, r8, lsl r0
 3dc:	00000020 	andeq	r0, r0, r0, lsr #32
 3e0:	00000364 	andeq	r0, r0, r4, ror #6
 3e4:	00009058 	andeq	r9, r0, r8, asr r0
 3e8:	00000058 	andeq	r0, r0, r8, asr r0
 3ec:	84100e46 	ldrhi	r0, [r0], #-3654	; 0xfffff1ba
 3f0:	86038504 	strhi	r8, [r3], -r4, lsl #10
 3f4:	62018e02 	andvs	r8, r1, #2, 28
 3f8:	c4c5c6ce 	strbgt	ip, [r5], #1742	; 0x6ce
 3fc:	0000000e 	andeq	r0, r0, lr
 400:	0000000c 	andeq	r0, r0, ip
 404:	00000364 	andeq	r0, r0, r4, ror #6
 408:	000090b0 	strheq	r9, [r0], -r0
 40c:	00000030 	andeq	r0, r0, r0, lsr r0
 410:	00000014 	andeq	r0, r0, r4, lsl r0
 414:	00000364 	andeq	r0, r0, r4, ror #6
 418:	000090e0 	andeq	r9, r0, r0, ror #1
 41c:	00000028 	andeq	r0, r0, r8, lsr #32
 420:	84080e42 	strhi	r0, [r8], #-3650	; 0xfffff1be
 424:	00018e02 	andeq	r8, r1, r2, lsl #28
 428:	0000000c 	andeq	r0, r0, ip
 42c:	ffffffff 			; <UNDEFINED> instruction: 0xffffffff
 430:	7c020001 	stcvc	0, cr0, [r2], {1}
 434:	000d0c0e 	andeq	r0, sp, lr, lsl #24
 438:	00000034 	andeq	r0, r0, r4, lsr r0
 43c:	00000428 	andeq	r0, r0, r8, lsr #8
 440:	00009108 	andeq	r9, r0, r8, lsl #2
 444:	00000058 	andeq	r0, r0, r8, asr r0
 448:	80100e42 	andshi	r0, r0, r2, asr #28
 44c:	82038104 	andhi	r8, r3, #1
 450:	42018302 	andmi	r8, r1, #134217728	; 0x8000000
 454:	07841c0e 	streq	r1, [r4, lr, lsl #24]
 458:	058e0685 	streq	r0, [lr, #1669]	; 0x685
 45c:	5a280e44 	bpl	a03d74 <__bss_end__+0x9f91c4>
 460:	ce421c0e 	cdpgt	12, 4, cr1, cr2, cr14, {0}
 464:	100ec4c5 	andne	ip, lr, r5, asr #9
 468:	c1c2c342 	bicgt	ip, r2, r2, asr #6
 46c:	00000ec0 	andeq	r0, r0, r0, asr #29
 470:	0000000c 	andeq	r0, r0, ip
 474:	ffffffff 			; <UNDEFINED> instruction: 0xffffffff
 478:	7c020001 	stcvc	0, cr0, [r2], {1}
 47c:	000d0c0e 	andeq	r0, sp, lr, lsl #24
 480:	00000018 	andeq	r0, r0, r8, lsl r0
 484:	00000470 	andeq	r0, r0, r0, ror r4
 488:	00009160 	andeq	r9, r0, r0, ror #2
 48c:	00000038 	andeq	r0, r0, r8, lsr r0
 490:	84100e42 	ldrhi	r0, [r0], #-3650	; 0xfffff1be
 494:	86038504 	strhi	r8, [r3], -r4, lsl #10
 498:	00018e02 	andeq	r8, r1, r2, lsl #28
 49c:	0000000c 	andeq	r0, r0, ip
 4a0:	ffffffff 			; <UNDEFINED> instruction: 0xffffffff
 4a4:	7c020001 	stcvc	0, cr0, [r2], {1}
 4a8:	000d0c0e 	andeq	r0, sp, lr, lsl #24
 4ac:	0000002c 	andeq	r0, r0, ip, lsr #32
 4b0:	0000049c 	muleq	r0, ip, r4
 4b4:	00009198 	muleq	r0, r8, r1
 4b8:	00000328 	andeq	r0, r0, r8, lsr #6
 4bc:	84180e42 	ldrhi	r0, [r8], #-3650	; 0xfffff1be
 4c0:	86058506 	strhi	r8, [r5], -r6, lsl #10
 4c4:	88038704 	stmdahi	r3, {r2, r8, r9, sl, pc}
 4c8:	46018e02 	strmi	r8, [r1], -r2, lsl #28
 4cc:	c002600e 	andgt	r6, r2, lr
 4d0:	42180e0a 	andsmi	r0, r8, #160	; 0xa0
 4d4:	0a8e020b 	beq	fe380d08 <__bss_end__+0xfe376158>
 4d8:	0b42180e 	bleq	1086518 <__bss_end__+0x107b968>
 4dc:	00000014 	andeq	r0, r0, r4, lsl r0
 4e0:	0000049c 	muleq	r0, ip, r4
 4e4:	000094c0 	andeq	r9, r0, r0, asr #9
 4e8:	00000060 	andeq	r0, r0, r0, rrx
 4ec:	8e040e52 	mcrhi	14, 0, r0, cr4, cr2, {2}
 4f0:	100e4401 	andne	r4, lr, r1, lsl #8
 4f4:	0000002c 	andeq	r0, r0, ip, lsr #32
 4f8:	0000049c 	muleq	r0, ip, r4
 4fc:	00009520 	andeq	r9, r0, r0, lsr #10
 500:	0000062c 	andeq	r0, r0, ip, lsr #12
 504:	84240e42 	strthi	r0, [r4], #-3650	; 0xfffff1be
 508:	86088509 	strhi	r8, [r8], -r9, lsl #10
 50c:	88068707 	stmdahi	r6, {r0, r1, r2, r8, r9, sl, pc}
 510:	8a048905 	bhi	12292c <__bss_end__+0x117d7c>
 514:	8e028b03 	vmlahi.f64	d8, d2, d3
 518:	c00e5201 	andgt	r5, lr, r1, lsl #4
 51c:	0a860202 	beq	fe180d2c <__bss_end__+0xfe17617c>
 520:	0b42240e 	bleq	1089560 <__bss_end__+0x107e9b0>
 524:	0000000c 	andeq	r0, r0, ip
 528:	ffffffff 			; <UNDEFINED> instruction: 0xffffffff
 52c:	7c020001 	stcvc	0, cr0, [r2], {1}
 530:	000d0c0e 	andeq	r0, sp, lr, lsl #24
 534:	00000014 	andeq	r0, r0, r4, lsl r0
 538:	00000524 	andeq	r0, r0, r4, lsr #10
 53c:	00009b4c 	andeq	r9, r0, ip, asr #22
 540:	0000002c 	andeq	r0, r0, ip, lsr #32
 544:	84080e44 	strhi	r0, [r8], #-3652	; 0xfffff1bc
 548:	00018e02 	andeq	r8, r1, r2, lsl #28
 54c:	0000000c 	andeq	r0, r0, ip
 550:	ffffffff 			; <UNDEFINED> instruction: 0xffffffff
 554:	7c020001 	stcvc	0, cr0, [r2], {1}
 558:	000d0c0e 	andeq	r0, sp, lr, lsl #24
 55c:	00000018 	andeq	r0, r0, r8, lsl r0
 560:	0000054c 	andeq	r0, r0, ip, asr #10
 564:	00009b78 	andeq	r9, r0, r8, ror fp
 568:	00000128 	andeq	r0, r0, r8, lsr #2
 56c:	84100e42 	ldrhi	r0, [r0], #-3650	; 0xfffff1be
 570:	86038504 	strhi	r8, [r3], -r4, lsl #10
 574:	00018e02 	andeq	r8, r1, r2, lsl #28
 578:	0000000c 	andeq	r0, r0, ip
 57c:	ffffffff 			; <UNDEFINED> instruction: 0xffffffff
 580:	7c020001 	stcvc	0, cr0, [r2], {1}
 584:	000d0c0e 	andeq	r0, sp, lr, lsl #24
 588:	0000000c 	andeq	r0, r0, ip
 58c:	00000578 	andeq	r0, r0, r8, ror r5
 590:	00009ca0 	andeq	r9, r0, r0, lsr #25
 594:	00000004 	andeq	r0, r0, r4
 598:	0000000c 	andeq	r0, r0, ip
 59c:	ffffffff 			; <UNDEFINED> instruction: 0xffffffff
 5a0:	7c020001 	stcvc	0, cr0, [r2], {1}
 5a4:	000d0c0e 	andeq	r0, sp, lr, lsl #24
 5a8:	0000000c 	andeq	r0, r0, ip
 5ac:	00000598 	muleq	r0, r8, r5
 5b0:	00009cbc 			; <UNDEFINED> instruction: 0x00009cbc
 5b4:	00000018 	andeq	r0, r0, r8, lsl r0
 5b8:	0000000c 	andeq	r0, r0, ip
 5bc:	00000598 	muleq	r0, r8, r5
 5c0:	00009cd4 	ldrdeq	r9, [r0], -r4
 5c4:	00000014 	andeq	r0, r0, r4, lsl r0
 5c8:	00000014 	andeq	r0, r0, r4, lsl r0
 5cc:	00000598 	muleq	r0, r8, r5
 5d0:	00009ce8 	andeq	r9, r0, r8, ror #25
 5d4:	00000060 	andeq	r0, r0, r0, rrx
 5d8:	84080e42 	strhi	r0, [r8], #-3650	; 0xfffff1be
 5dc:	00018e02 	andeq	r8, r1, r2, lsl #28
 5e0:	0000000c 	andeq	r0, r0, ip
 5e4:	ffffffff 			; <UNDEFINED> instruction: 0xffffffff
 5e8:	7c020001 	stcvc	0, cr0, [r2], {1}
 5ec:	000d0c0e 	andeq	r0, sp, lr, lsl #24
 5f0:	0000000c 	andeq	r0, r0, ip
 5f4:	000005e0 	andeq	r0, r0, r0, ror #11
 5f8:	00009d48 	andeq	r9, r0, r8, asr #26
 5fc:	0000000c 	andeq	r0, r0, ip
 600:	00000014 	andeq	r0, r0, r4, lsl r0
 604:	000005e0 	andeq	r0, r0, r0, ror #11
 608:	00009d54 	andeq	r9, r0, r4, asr sp
 60c:	00000024 	andeq	r0, r0, r4, lsr #32
 610:	84080e42 	strhi	r0, [r8], #-3650	; 0xfffff1be
 614:	00018e02 	andeq	r8, r1, r2, lsl #28
 618:	0000001c 	andeq	r0, r0, ip, lsl r0
 61c:	000005e0 	andeq	r0, r0, r0, ror #11
 620:	00009d78 	andeq	r9, r0, r8, ror sp
 624:	00000048 	andeq	r0, r0, r8, asr #32
 628:	84180e42 	ldrhi	r0, [r8], #-3650	; 0xfffff1be
 62c:	86058506 	strhi	r8, [r5], -r6, lsl #10
 630:	88038704 	stmdahi	r3, {r2, r8, r9, sl, pc}
 634:	00018e02 	andeq	r8, r1, r2, lsl #28
 638:	0000001c 	andeq	r0, r0, ip, lsl r0
 63c:	000005e0 	andeq	r0, r0, r0, ror #11
 640:	00009dc0 	andeq	r9, r0, r0, asr #27
 644:	00000050 	andeq	r0, r0, r0, asr r0
 648:	84180e42 	ldrhi	r0, [r8], #-3650	; 0xfffff1be
 64c:	86058506 	strhi	r8, [r5], -r6, lsl #10
 650:	88038704 	stmdahi	r3, {r2, r8, r9, sl, pc}
 654:	00018e02 	andeq	r8, r1, r2, lsl #28
 658:	0000001c 	andeq	r0, r0, ip, lsl r0
 65c:	000005e0 	andeq	r0, r0, r0, ror #11
 660:	00009e10 	andeq	r9, r0, r0, lsl lr
 664:	00000054 	andeq	r0, r0, r4, asr r0
 668:	84180e42 	ldrhi	r0, [r8], #-3650	; 0xfffff1be
 66c:	86058506 	strhi	r8, [r5], -r6, lsl #10
 670:	88038704 	stmdahi	r3, {r2, r8, r9, sl, pc}
 674:	00018e02 	andeq	r8, r1, r2, lsl #28
 678:	0000000c 	andeq	r0, r0, ip
 67c:	ffffffff 			; <UNDEFINED> instruction: 0xffffffff
 680:	7c020001 	stcvc	0, cr0, [r2], {1}
 684:	000d0c0e 	andeq	r0, sp, lr, lsl #24
 688:	00000018 	andeq	r0, r0, r8, lsl r0
 68c:	00000678 	andeq	r0, r0, r8, ror r6
 690:	00009e64 	andeq	r9, r0, r4, ror #28
 694:	00000020 	andeq	r0, r0, r0, lsr #32
 698:	84100e42 	ldrhi	r0, [r0], #-3650	; 0xfffff1be
 69c:	86038504 	strhi	r8, [r3], -r4, lsl #10
 6a0:	00018e02 	andeq	r8, r1, r2, lsl #28
 6a4:	00000018 	andeq	r0, r0, r8, lsl r0
 6a8:	00000678 	andeq	r0, r0, r8, ror r6
 6ac:	00009e84 	andeq	r9, r0, r4, lsl #29
 6b0:	00000020 	andeq	r0, r0, r0, lsr #32
 6b4:	84100e42 	ldrhi	r0, [r0], #-3650	; 0xfffff1be
 6b8:	86038504 	strhi	r8, [r3], -r4, lsl #10
 6bc:	00018e02 	andeq	r8, r1, r2, lsl #28
 6c0:	00000014 	andeq	r0, r0, r4, lsl r0
 6c4:	00000678 	andeq	r0, r0, r8, ror r6
 6c8:	00009ea4 	andeq	r9, r0, r4, lsr #29
 6cc:	000000b0 	strheq	r0, [r0], -r0	; <UNPREDICTABLE>
 6d0:	84080e42 	strhi	r0, [r8], #-3650	; 0xfffff1be
 6d4:	00018e02 	andeq	r8, r1, r2, lsl #28
 6d8:	00000014 	andeq	r0, r0, r4, lsl r0
 6dc:	00000678 	andeq	r0, r0, r8, ror r6
 6e0:	00009f54 	andeq	r9, r0, r4, asr pc
 6e4:	00000018 	andeq	r0, r0, r8, lsl r0
 6e8:	84080e42 	strhi	r0, [r8], #-3650	; 0xfffff1be
 6ec:	00018e02 	andeq	r8, r1, r2, lsl #28
 6f0:	00000014 	andeq	r0, r0, r4, lsl r0
 6f4:	00000678 	andeq	r0, r0, r8, ror r6
 6f8:	00009f6c 	andeq	r9, r0, ip, ror #30
 6fc:	00000020 	andeq	r0, r0, r0, lsr #32
 700:	84080e42 	strhi	r0, [r8], #-3650	; 0xfffff1be
 704:	00018e02 	andeq	r8, r1, r2, lsl #28
 708:	00000014 	andeq	r0, r0, r4, lsl r0
 70c:	00000678 	andeq	r0, r0, r8, ror r6
 710:	00009f8c 	andeq	r9, r0, ip, lsl #31
 714:	00000030 	andeq	r0, r0, r0, lsr r0
 718:	84080e42 	strhi	r0, [r8], #-3650	; 0xfffff1be
 71c:	00018e02 	andeq	r8, r1, r2, lsl #28
 720:	00000014 	andeq	r0, r0, r4, lsl r0
 724:	00000678 	andeq	r0, r0, r8, ror r6
 728:	00009fbc 			; <UNDEFINED> instruction: 0x00009fbc
 72c:	00000030 	andeq	r0, r0, r0, lsr r0
 730:	84080e42 	strhi	r0, [r8], #-3650	; 0xfffff1be
 734:	00018e02 	andeq	r8, r1, r2, lsl #28
 738:	00000014 	andeq	r0, r0, r4, lsl r0
 73c:	00000678 	andeq	r0, r0, r8, ror r6
 740:	00009fec 	andeq	r9, r0, ip, ror #31
 744:	00000010 	andeq	r0, r0, r0, lsl r0
 748:	84080e42 	strhi	r0, [r8], #-3650	; 0xfffff1be
 74c:	00018e02 	andeq	r8, r1, r2, lsl #28
 750:	00000014 	andeq	r0, r0, r4, lsl r0
 754:	00000678 	andeq	r0, r0, r8, ror r6
 758:	00009ffc 	strdeq	r9, [r0], -ip
 75c:	00000020 	andeq	r0, r0, r0, lsr #32
 760:	84080e42 	strhi	r0, [r8], #-3650	; 0xfffff1be
 764:	00018e02 	andeq	r8, r1, r2, lsl #28
 768:	00000014 	andeq	r0, r0, r4, lsl r0
 76c:	00000678 	andeq	r0, r0, r8, ror r6
 770:	0000a01c 	andeq	sl, r0, ip, lsl r0
 774:	00000014 	andeq	r0, r0, r4, lsl r0
 778:	84080e42 	strhi	r0, [r8], #-3650	; 0xfffff1be
 77c:	00018e02 	andeq	r8, r1, r2, lsl #28
 780:	00000014 	andeq	r0, r0, r4, lsl r0
 784:	00000678 	andeq	r0, r0, r8, ror r6
 788:	0000a030 	andeq	sl, r0, r0, lsr r0
 78c:	00000024 	andeq	r0, r0, r4, lsr #32
 790:	84080e42 	strhi	r0, [r8], #-3650	; 0xfffff1be
 794:	00018e02 	andeq	r8, r1, r2, lsl #28
 798:	0000000c 	andeq	r0, r0, ip
 79c:	ffffffff 			; <UNDEFINED> instruction: 0xffffffff
 7a0:	7c020001 	stcvc	0, cr0, [r2], {1}
 7a4:	000d0c0e 	andeq	r0, sp, lr, lsl #24
 7a8:	00000014 	andeq	r0, r0, r4, lsl r0
 7ac:	00000798 	muleq	r0, r8, r7
 7b0:	0000a054 	andeq	sl, r0, r4, asr r0
 7b4:	00000014 	andeq	r0, r0, r4, lsl r0
 7b8:	84080e42 	strhi	r0, [r8], #-3650	; 0xfffff1be
 7bc:	00018e02 	andeq	r8, r1, r2, lsl #28
 7c0:	0000000c 	andeq	r0, r0, ip
 7c4:	00000798 	muleq	r0, r8, r7
 7c8:	0000a068 	andeq	sl, r0, r8, rrx
 7cc:	00000018 	andeq	r0, r0, r8, lsl r0
 7d0:	0000000c 	andeq	r0, r0, ip
 7d4:	00000798 	muleq	r0, r8, r7
 7d8:	0000a080 	andeq	sl, r0, r0, lsl #1
 7dc:	00000010 	andeq	r0, r0, r0, lsl r0
 7e0:	0000000c 	andeq	r0, r0, ip
 7e4:	ffffffff 			; <UNDEFINED> instruction: 0xffffffff
 7e8:	7c020001 	stcvc	0, cr0, [r2], {1}
 7ec:	000d0c0e 	andeq	r0, sp, lr, lsl #24
 7f0:	0000000c 	andeq	r0, r0, ip
 7f4:	000007e0 	andeq	r0, r0, r0, ror #15
 7f8:	0000a090 	muleq	r0, r0, r0
 7fc:	0000002c 	andeq	r0, r0, ip, lsr #32
 800:	0000000c 	andeq	r0, r0, ip
 804:	ffffffff 			; <UNDEFINED> instruction: 0xffffffff
 808:	7c020001 	stcvc	0, cr0, [r2], {1}
 80c:	000d0c0e 	andeq	r0, sp, lr, lsl #24
 810:	0000000c 	andeq	r0, r0, ip
 814:	00000800 	andeq	r0, r0, r0, lsl #16
 818:	0000a0bc 	strheq	sl, [r0], -ip
 81c:	00000044 	andeq	r0, r0, r4, asr #32
 820:	0000000c 	andeq	r0, r0, ip
 824:	ffffffff 			; <UNDEFINED> instruction: 0xffffffff
 828:	7c020001 	stcvc	0, cr0, [r2], {1}
 82c:	000d0c0e 	andeq	r0, sp, lr, lsl #24
 830:	0000000c 	andeq	r0, r0, ip
 834:	00000820 	andeq	r0, r0, r0, lsr #16
 838:	0000a100 	andeq	sl, r0, r0, lsl #2
 83c:	00000018 	andeq	r0, r0, r8, lsl r0
 840:	0000000c 	andeq	r0, r0, ip
 844:	ffffffff 			; <UNDEFINED> instruction: 0xffffffff
 848:	7c020001 	stcvc	0, cr0, [r2], {1}
 84c:	000d0c0e 	andeq	r0, sp, lr, lsl #24
 850:	0000000c 	andeq	r0, r0, ip
 854:	00000840 	andeq	r0, r0, r0, asr #16
 858:	0000a118 	andeq	sl, r0, r8, lsl r1
 85c:	00000030 	andeq	r0, r0, r0, lsr r0
 860:	0000000c 	andeq	r0, r0, ip
 864:	ffffffff 			; <UNDEFINED> instruction: 0xffffffff
 868:	7c020001 	stcvc	0, cr0, [r2], {1}
 86c:	000d0c0e 	andeq	r0, sp, lr, lsl #24
 870:	0000000c 	andeq	r0, r0, ip
 874:	00000860 	andeq	r0, r0, r0, ror #16
 878:	0000a148 	andeq	sl, r0, r8, asr #2
 87c:	00000004 	andeq	r0, r0, r4
