
test-gen.elf:     file format elf32-littlearm


Disassembly of section .text:

00008000 <__code_start__>:
    8000:	e3a00013 	mov	r0, #19, 0
    8004:	e3800080 	orr	r0, r0, #128, 0	; 0x80
    8008:	e129f000 	msr	CPSR_fc, r0
    800c:	e3a01000 	mov	r1, #0, 0
    8010:	ee071f95 	mcr	15, 0, r1, cr7, cr5, {4}
    8014:	e3a0d302 	mov	sp, #134217728	; 0x8000000
    8018:	e3a0b000 	mov	fp, #0, 0
    801c:	eb0003bf 	bl	8f20 <_cstart>
    8020:	eb000408 	bl	9048 <rpi_reboot>

00008024 <PUT32>:
    8024:	e5801000 	str	r1, [r0]
    8028:	e12fff1e 	bx	lr

0000802c <GET32>:
    802c:	e5900000 	ldr	r0, [r0]
    8030:	e12fff1e 	bx	lr

00008034 <BRANCHTO>:
    8034:	e12fff10 	bx	r0

00008038 <test_gen>:
    8038:	ee1f2f3c 	mrc	15, 0, r2, cr15, cr12, {1}
    803c:	e3a0c001 	mov	ip, #1, 0
    8040:	e59f312c 	ldr	r3, [pc, #300]	; 8174 <test_gen+0x13c>
    8044:	e1a0c01c 	lsl	ip, ip, r0
    8048:	e583c01c 	str	ip, [r3, #28]
    804c:	ee1f3f3c 	mrc	15, 0, r3, cr15, cr12, {1}
    8050:	e0433002 	sub	r3, r3, r2
    8054:	e1510003 	cmp	r1, r3
    8058:	8afffffb 	bhi	804c <test_gen+0x14>
    805c:	e59f0110 	ldr	r0, [pc, #272]	; 8174 <test_gen+0x13c>
    8060:	e1a03081 	lsl	r3, r1, #1
    8064:	e580c028 	str	ip, [r0, #40]	; 0x28
    8068:	ee1f0f3c 	mrc	15, 0, r0, cr15, cr12, {1}
    806c:	e0400002 	sub	r0, r0, r2
    8070:	e1530000 	cmp	r3, r0
    8074:	8afffffb 	bhi	8068 <test_gen+0x30>
    8078:	e59f00f4 	ldr	r0, [pc, #244]	; 8174 <test_gen+0x13c>
    807c:	e0813003 	add	r3, r1, r3
    8080:	e580c01c 	str	ip, [r0, #28]
    8084:	ee1f0f3c 	mrc	15, 0, r0, cr15, cr12, {1}
    8088:	e0400002 	sub	r0, r0, r2
    808c:	e1530000 	cmp	r3, r0
    8090:	8afffffb 	bhi	8084 <test_gen+0x4c>
    8094:	e59f00d8 	ldr	r0, [pc, #216]	; 8174 <test_gen+0x13c>
    8098:	e0813003 	add	r3, r1, r3
    809c:	e580c028 	str	ip, [r0, #40]	; 0x28
    80a0:	ee1f0f3c 	mrc	15, 0, r0, cr15, cr12, {1}
    80a4:	e0400002 	sub	r0, r0, r2
    80a8:	e1530000 	cmp	r3, r0
    80ac:	8afffffb 	bhi	80a0 <test_gen+0x68>
    80b0:	e59f00bc 	ldr	r0, [pc, #188]	; 8174 <test_gen+0x13c>
    80b4:	e0813003 	add	r3, r1, r3
    80b8:	e580c01c 	str	ip, [r0, #28]
    80bc:	ee1f0f3c 	mrc	15, 0, r0, cr15, cr12, {1}
    80c0:	e0400002 	sub	r0, r0, r2
    80c4:	e1530000 	cmp	r3, r0
    80c8:	8afffffb 	bhi	80bc <test_gen+0x84>
    80cc:	e59f00a0 	ldr	r0, [pc, #160]	; 8174 <test_gen+0x13c>
    80d0:	e0813003 	add	r3, r1, r3
    80d4:	e580c028 	str	ip, [r0, #40]	; 0x28
    80d8:	ee1f0f3c 	mrc	15, 0, r0, cr15, cr12, {1}
    80dc:	e0400002 	sub	r0, r0, r2
    80e0:	e1530000 	cmp	r3, r0
    80e4:	8afffffb 	bhi	80d8 <test_gen+0xa0>
    80e8:	e59f0084 	ldr	r0, [pc, #132]	; 8174 <test_gen+0x13c>
    80ec:	e0813003 	add	r3, r1, r3
    80f0:	e580c01c 	str	ip, [r0, #28]
    80f4:	ee1f0f3c 	mrc	15, 0, r0, cr15, cr12, {1}
    80f8:	e0400002 	sub	r0, r0, r2
    80fc:	e1530000 	cmp	r3, r0
    8100:	8afffffb 	bhi	80f4 <test_gen+0xbc>
    8104:	e59f0068 	ldr	r0, [pc, #104]	; 8174 <test_gen+0x13c>
    8108:	e0813003 	add	r3, r1, r3
    810c:	e580c028 	str	ip, [r0, #40]	; 0x28
    8110:	ee1f0f3c 	mrc	15, 0, r0, cr15, cr12, {1}
    8114:	e0400002 	sub	r0, r0, r2
    8118:	e1530000 	cmp	r3, r0
    811c:	8afffffb 	bhi	8110 <test_gen+0xd8>
    8120:	e59f004c 	ldr	r0, [pc, #76]	; 8174 <test_gen+0x13c>
    8124:	e0813003 	add	r3, r1, r3
    8128:	e580c01c 	str	ip, [r0, #28]
    812c:	ee1f0f3c 	mrc	15, 0, r0, cr15, cr12, {1}
    8130:	e0400002 	sub	r0, r0, r2
    8134:	e1530000 	cmp	r3, r0
    8138:	8afffffb 	bhi	812c <test_gen+0xf4>
    813c:	e59f0030 	ldr	r0, [pc, #48]	; 8174 <test_gen+0x13c>
    8140:	e0813003 	add	r3, r1, r3
    8144:	e580c028 	str	ip, [r0, #40]	; 0x28
    8148:	ee1f0f3c 	mrc	15, 0, r0, cr15, cr12, {1}
    814c:	e0400002 	sub	r0, r0, r2
    8150:	e1530000 	cmp	r3, r0
    8154:	8afffffb 	bhi	8148 <test_gen+0x110>
    8158:	ee1f3f3c 	mrc	15, 0, r3, cr15, cr12, {1}
    815c:	e0811101 	add	r1, r1, r1, lsl #2
    8160:	e0432002 	sub	r2, r3, r2
    8164:	e59f000c 	ldr	r0, [pc, #12]	; 8178 <test_gen+0x140>
    8168:	e3a03001 	mov	r3, #1, 0
    816c:	e1a01081 	lsl	r1, r1, #1
    8170:	ea0000c6 	b	8490 <printk>
    8174:	20200000 	eorcs	r0, r0, r0
    8178:	000094c8 	andeq	r9, r0, r8, asr #9

0000817c <notmain>:
    817c:	e92d41f0 	push	{r4, r5, r6, r7, r8, lr}
    8180:	eb000353 	bl	8ed4 <enable_cache>
    8184:	e3a00015 	mov	r0, #21, 0
    8188:	eb000071 	bl	8354 <gpio_set_output>
    818c:	e3a03001 	mov	r3, #1, 0
    8190:	ee0f3f1c 	mcr	15, 0, r3, cr15, cr12, {0}
    8194:	e3a05602 	mov	r5, #2097152	; 0x200000
    8198:	e1a08005 	mov	r8, r5
    819c:	e59f4118 	ldr	r4, [pc, #280]	; 82bc <notmain+0x140>
    81a0:	e59f6118 	ldr	r6, [pc, #280]	; 82c0 <notmain+0x144>
    81a4:	e59f7118 	ldr	r7, [pc, #280]	; 82c4 <notmain+0x148>
    81a8:	ee1f2f3c 	mrc	15, 0, r2, cr15, cr12, {1}
    81ac:	e584801c 	str	r8, [r4, #28]
    81b0:	ee1f3f3c 	mrc	15, 0, r3, cr15, cr12, {1}
    81b4:	e0433002 	sub	r3, r3, r2
    81b8:	e1530006 	cmp	r3, r6
    81bc:	9afffffb 	bls	81b0 <notmain+0x34>
    81c0:	e59f1100 	ldr	r1, [pc, #256]	; 82c8 <notmain+0x14c>
    81c4:	e5845028 	str	r5, [r4, #40]	; 0x28
    81c8:	ee1f3f3c 	mrc	15, 0, r3, cr15, cr12, {1}
    81cc:	e0433002 	sub	r3, r3, r2
    81d0:	e1530001 	cmp	r3, r1
    81d4:	9afffffb 	bls	81c8 <notmain+0x4c>
    81d8:	e59f10ec 	ldr	r1, [pc, #236]	; 82cc <notmain+0x150>
    81dc:	e584501c 	str	r5, [r4, #28]
    81e0:	ee1f3f3c 	mrc	15, 0, r3, cr15, cr12, {1}
    81e4:	e0433002 	sub	r3, r3, r2
    81e8:	e1530001 	cmp	r3, r1
    81ec:	9afffffb 	bls	81e0 <notmain+0x64>
    81f0:	e59f10d8 	ldr	r1, [pc, #216]	; 82d0 <notmain+0x154>
    81f4:	e5845028 	str	r5, [r4, #40]	; 0x28
    81f8:	ee1f3f3c 	mrc	15, 0, r3, cr15, cr12, {1}
    81fc:	e0433002 	sub	r3, r3, r2
    8200:	e1530001 	cmp	r3, r1
    8204:	9afffffb 	bls	81f8 <notmain+0x7c>
    8208:	e59f10c4 	ldr	r1, [pc, #196]	; 82d4 <notmain+0x158>
    820c:	e584501c 	str	r5, [r4, #28]
    8210:	ee1f3f3c 	mrc	15, 0, r3, cr15, cr12, {1}
    8214:	e0433002 	sub	r3, r3, r2
    8218:	e1530001 	cmp	r3, r1
    821c:	9afffffb 	bls	8210 <notmain+0x94>
    8220:	e59f10b0 	ldr	r1, [pc, #176]	; 82d8 <notmain+0x15c>
    8224:	e5845028 	str	r5, [r4, #40]	; 0x28
    8228:	ee1f3f3c 	mrc	15, 0, r3, cr15, cr12, {1}
    822c:	e0433002 	sub	r3, r3, r2
    8230:	e1530001 	cmp	r3, r1
    8234:	9afffffb 	bls	8228 <notmain+0xac>
    8238:	e59f109c 	ldr	r1, [pc, #156]	; 82dc <notmain+0x160>
    823c:	e584501c 	str	r5, [r4, #28]
    8240:	ee1f3f3c 	mrc	15, 0, r3, cr15, cr12, {1}
    8244:	e0433002 	sub	r3, r3, r2
    8248:	e1530001 	cmp	r3, r1
    824c:	9afffffb 	bls	8240 <notmain+0xc4>
    8250:	e59f1088 	ldr	r1, [pc, #136]	; 82e0 <notmain+0x164>
    8254:	e5845028 	str	r5, [r4, #40]	; 0x28
    8258:	ee1f3f3c 	mrc	15, 0, r3, cr15, cr12, {1}
    825c:	e0433002 	sub	r3, r3, r2
    8260:	e1530001 	cmp	r3, r1
    8264:	9afffffb 	bls	8258 <notmain+0xdc>
    8268:	e59f1074 	ldr	r1, [pc, #116]	; 82e4 <notmain+0x168>
    826c:	e584501c 	str	r5, [r4, #28]
    8270:	ee1f3f3c 	mrc	15, 0, r3, cr15, cr12, {1}
    8274:	e0433002 	sub	r3, r3, r2
    8278:	e1530001 	cmp	r3, r1
    827c:	9afffffb 	bls	8270 <notmain+0xf4>
    8280:	e59f1060 	ldr	r1, [pc, #96]	; 82e8 <notmain+0x16c>
    8284:	e5845028 	str	r5, [r4, #40]	; 0x28
    8288:	ee1f3f3c 	mrc	15, 0, r3, cr15, cr12, {1}
    828c:	e0433002 	sub	r3, r3, r2
    8290:	e1530001 	cmp	r3, r1
    8294:	9afffffb 	bls	8288 <notmain+0x10c>
    8298:	ee1f1f3c 	mrc	15, 0, r1, cr15, cr12, {1}
    829c:	e3a03001 	mov	r3, #1, 0
    82a0:	e0412002 	sub	r2, r1, r2
    82a4:	e1a00007 	mov	r0, r7
    82a8:	e59f103c 	ldr	r1, [pc, #60]	; 82ec <notmain+0x170>
    82ac:	eb000077 	bl	8490 <printk>
    82b0:	e3a00ffa 	mov	r0, #1000	; 0x3e8
    82b4:	eb000399 	bl	9120 <delay_ms>
    82b8:	eaffffba 	b	81a8 <notmain+0x2c>
    82bc:	20200000 	eorcs	r0, r0, r0
    82c0:	0000176f 	andeq	r1, r0, pc, ror #14
    82c4:	000094c8 	andeq	r9, r0, r8, asr #9
    82c8:	00002edf 	ldrdeq	r2, [r0], -pc	; <UNPREDICTABLE>
    82cc:	0000464f 	andeq	r4, r0, pc, asr #12
    82d0:	00005dbf 			; <UNDEFINED> instruction: 0x00005dbf
    82d4:	0000752f 	andeq	r7, r0, pc, lsr #10
    82d8:	00008c9f 	muleq	r0, pc, ip	; <UNPREDICTABLE>
    82dc:	0000a40f 	andeq	sl, r0, pc, lsl #8
    82e0:	0000bb7f 	andeq	fp, r0, pc, ror fp
    82e4:	0000d2ef 	andeq	sp, r0, pc, ror #5
    82e8:	0000ea5f 	andeq	lr, r0, pc, asr sl
    82ec:	0000ea60 	andeq	lr, r0, r0, ror #20

000082f0 <gpio_set_function>:
    82f0:	e350001f 	cmp	r0, #31, 0
    82f4:	812fff1e 	bxhi	lr
    82f8:	e3d13007 	bics	r3, r1, #7, 0
    82fc:	e92d4070 	push	{r4, r5, r6, lr}
    8300:	e1a05001 	mov	r5, r1
    8304:	18bd8070 	popne	{r4, r5, r6, pc}
    8308:	e59f3040 	ldr	r3, [pc, #64]	; 8350 <gpio_set_function+0x60>
    830c:	e0832093 	umull	r2, r3, r3, r0
    8310:	e1a031a3 	lsr	r3, r3, #3
    8314:	e2832302 	add	r2, r3, #134217728	; 0x8000000
    8318:	e2822702 	add	r2, r2, #524288	; 0x80000
    831c:	e1a06102 	lsl	r6, r2, #2
    8320:	e0833103 	add	r3, r3, r3, lsl #2
    8324:	e0404083 	sub	r4, r0, r3, lsl #1
    8328:	e1a00006 	mov	r0, r6
    832c:	ebffff3e 	bl	802c <GET32>
    8330:	e3a03007 	mov	r3, #7, 0
    8334:	e1a01000 	mov	r1, r0
    8338:	e0844084 	add	r4, r4, r4, lsl #1
    833c:	e1c11413 	bic	r1, r1, r3, lsl r4
    8340:	e1a00006 	mov	r0, r6
    8344:	e1811415 	orr	r1, r1, r5, lsl r4
    8348:	e8bd4070 	pop	{r4, r5, r6, lr}
    834c:	eaffff34 	b	8024 <PUT32>
    8350:	cccccccd 	stclgt	12, cr12, [ip], {205}	; 0xcd

00008354 <gpio_set_output>:
    8354:	e350001f 	cmp	r0, #31, 0
    8358:	812fff1e 	bxhi	lr
    835c:	e59f3048 	ldr	r3, [pc, #72]	; 83ac <gpio_set_output+0x58>
    8360:	e92d4070 	push	{r4, r5, r6, lr}
    8364:	e0832093 	umull	r2, r3, r3, r0
    8368:	e1a031a3 	lsr	r3, r3, #3
    836c:	e2832302 	add	r2, r3, #134217728	; 0x8000000
    8370:	e2822702 	add	r2, r2, #524288	; 0x80000
    8374:	e1a05102 	lsl	r5, r2, #2
    8378:	e0833103 	add	r3, r3, r3, lsl #2
    837c:	e0404083 	sub	r4, r0, r3, lsl #1
    8380:	e1a00005 	mov	r0, r5
    8384:	ebffff28 	bl	802c <GET32>
    8388:	e3a02007 	mov	r2, #7, 0
    838c:	e1a03000 	mov	r3, r0
    8390:	e3a01001 	mov	r1, #1, 0
    8394:	e0844084 	add	r4, r4, r4, lsl #1
    8398:	e1c33412 	bic	r3, r3, r2, lsl r4
    839c:	e1a00005 	mov	r0, r5
    83a0:	e1831411 	orr	r1, r3, r1, lsl r4
    83a4:	e8bd4070 	pop	{r4, r5, r6, lr}
    83a8:	eaffff1d 	b	8024 <PUT32>
    83ac:	cccccccd 	stclgt	12, cr12, [ip], {205}	; 0xcd

000083b0 <gpio_set_on>:
    83b0:	e1a03000 	mov	r3, r0
    83b4:	e3a01001 	mov	r1, #1, 0
    83b8:	e59f0004 	ldr	r0, [pc, #4]	; 83c4 <gpio_set_on+0x14>
    83bc:	e1a01311 	lsl	r1, r1, r3
    83c0:	eaffff17 	b	8024 <PUT32>
    83c4:	2020001c 	eorcs	r0, r0, ip, lsl r0

000083c8 <gpio_set_off>:
    83c8:	e1a03000 	mov	r3, r0
    83cc:	e3a01001 	mov	r1, #1, 0
    83d0:	e59f0004 	ldr	r0, [pc, #4]	; 83dc <gpio_set_off+0x14>
    83d4:	e1a01311 	lsl	r1, r1, r3
    83d8:	eaffff11 	b	8024 <PUT32>
    83dc:	20200028 	eorcs	r0, r0, r8, lsr #32

000083e0 <gpio_set_input>:
    83e0:	e350001f 	cmp	r0, #31, 0
    83e4:	812fff1e 	bxhi	lr
    83e8:	e92d4070 	push	{r4, r5, r6, lr}
    83ec:	e59f5040 	ldr	r5, [pc, #64]	; 8434 <gpio_set_input+0x54>
    83f0:	e1a04000 	mov	r4, r0
    83f4:	e0853095 	umull	r3, r5, r5, r0
    83f8:	e1a051a5 	lsr	r5, r5, #3
    83fc:	e2850302 	add	r0, r5, #134217728	; 0x8000000
    8400:	e2800702 	add	r0, r0, #524288	; 0x80000
    8404:	e1a06100 	lsl	r6, r0, #2
    8408:	e1a00006 	mov	r0, r6
    840c:	ebffff06 	bl	802c <GET32>
    8410:	e3a01007 	mov	r1, #7, 0
    8414:	e1a03000 	mov	r3, r0
    8418:	e0855105 	add	r5, r5, r5, lsl #2
    841c:	e0444085 	sub	r4, r4, r5, lsl #1
    8420:	e0844084 	add	r4, r4, r4, lsl #1
    8424:	e1a00006 	mov	r0, r6
    8428:	e1c31411 	bic	r1, r3, r1, lsl r4
    842c:	e8bd4070 	pop	{r4, r5, r6, lr}
    8430:	eafffefb 	b	8024 <PUT32>
    8434:	cccccccd 	stclgt	12, cr12, [ip], {205}	; 0xcd

00008438 <gpio_write>:
    8438:	e3510000 	cmp	r1, #0, 0
    843c:	e3a03001 	mov	r3, #1, 0
    8440:	e1a01000 	mov	r1, r0
    8444:	0a000002 	beq	8454 <gpio_write+0x1c>
    8448:	e59f0010 	ldr	r0, [pc, #16]	; 8460 <gpio_write+0x28>
    844c:	e1a01113 	lsl	r1, r3, r1
    8450:	eafffef3 	b	8024 <PUT32>
    8454:	e59f0008 	ldr	r0, [pc, #8]	; 8464 <gpio_write+0x2c>
    8458:	e1a01113 	lsl	r1, r3, r1
    845c:	eafffef0 	b	8024 <PUT32>
    8460:	2020001c 	eorcs	r0, r0, ip, lsl r0
    8464:	20200028 	eorcs	r0, r0, r8, lsr #32

00008468 <gpio_read>:
    8468:	e59f301c 	ldr	r3, [pc, #28]	; 848c <gpio_read+0x24>
    846c:	e92d4010 	push	{r4, lr}
    8470:	e1a04000 	mov	r4, r0
    8474:	e08302a0 	add	r0, r3, r0, lsr #5
    8478:	ebfffeeb 	bl	802c <GET32>
    847c:	e204401f 	and	r4, r4, #31, 0
    8480:	e1a00430 	lsr	r0, r0, r4
    8484:	e2000001 	and	r0, r0, #1, 0
    8488:	e8bd8010 	pop	{r4, pc}
    848c:	20200034 	eorcs	r0, r0, r4, lsr r0

00008490 <printk>:
    8490:	e92d000f 	push	{r0, r1, r2, r3}
    8494:	e92d4030 	push	{r4, r5, lr}
    8498:	e59f5040 	ldr	r5, [pc, #64]	; 84e0 <printk+0x50>
    849c:	e24dd00c 	sub	sp, sp, #12, 0
    84a0:	e28d301c 	add	r3, sp, #28, 0
    84a4:	e3a01b01 	mov	r1, #1024	; 0x400
    84a8:	e59d2018 	ldr	r2, [sp, #24]
    84ac:	e1a00005 	mov	r0, r5
    84b0:	e58d3004 	str	r3, [sp, #4]
    84b4:	eb0000fb 	bl	88a8 <va_printk>
    84b8:	e1a04000 	mov	r4, r0
    84bc:	e59f3020 	ldr	r3, [pc, #32]	; 84e4 <printk+0x54>
    84c0:	e1a00005 	mov	r0, r5
    84c4:	e5933000 	ldr	r3, [r3]
    84c8:	e12fff33 	blx	r3
    84cc:	e1a00004 	mov	r0, r4
    84d0:	e28dd00c 	add	sp, sp, #12, 0
    84d4:	e8bd4030 	pop	{r4, r5, lr}
    84d8:	e28dd010 	add	sp, sp, #16, 0
    84dc:	e12fff1e 	bx	lr
    84e0:	0000967c 	andeq	r9, r0, ip, ror r6
    84e4:	00009674 	andeq	r9, r0, r4, ror r6

000084e8 <internal_putk>:
    84e8:	e92d4070 	push	{r4, r5, r6, lr}
    84ec:	e1a04000 	mov	r4, r0
    84f0:	e5d00000 	ldrb	r0, [r0]
    84f4:	e3500000 	cmp	r0, #0, 0
    84f8:	0a000005 	beq	8514 <internal_putk+0x2c>
    84fc:	e59f5018 	ldr	r5, [pc, #24]	; 851c <internal_putk+0x34>
    8500:	e5953000 	ldr	r3, [r5]
    8504:	e12fff33 	blx	r3
    8508:	e5f40001 	ldrb	r0, [r4, #1]!
    850c:	e3500000 	cmp	r0, #0, 0
    8510:	1afffffa 	bne	8500 <internal_putk+0x18>
    8514:	e3a00001 	mov	r0, #1, 0
    8518:	e8bd8070 	pop	{r4, r5, r6, pc}
    851c:	00009678 	andeq	r9, r0, r8, ror r6

00008520 <emit.constprop.0>:
    8520:	e92d41f0 	push	{r4, r5, r6, r7, r8, lr}
    8524:	e3530080 	cmp	r3, #128, 0	; 0x80
    8528:	e1a0c000 	mov	ip, r0
    852c:	e24dd048 	sub	sp, sp, #72, 0	; 0x48
    8530:	e1a00001 	mov	r0, r1
    8534:	ca000069 	bgt	86e0 <emit.constprop.0+0x1c0>
    8538:	e24c1002 	sub	r1, ip, #2, 0
    853c:	e1a0c002 	mov	ip, r2
    8540:	e351000e 	cmp	r1, #14, 0
    8544:	979ff101 	ldrls	pc, [pc, r1, lsl #2]
    8548:	ea0000a7 	b	87ec <emit.constprop.0+0x2cc>
    854c:	000086b8 			; <UNDEFINED> instruction: 0x000086b8
    8550:	000087ec 	andeq	r8, r0, ip, ror #15
    8554:	000087ec 	andeq	r8, r0, ip, ror #15
    8558:	000087ec 	andeq	r8, r0, ip, ror #15
    855c:	000087ec 	andeq	r8, r0, ip, ror #15
    8560:	000087ec 	andeq	r8, r0, ip, ror #15
    8564:	00008794 	muleq	r0, r4, r7
    8568:	000087ec 	andeq	r8, r0, ip, ror #15
    856c:	00008734 	andeq	r8, r0, r4, lsr r7
    8570:	000087ec 	andeq	r8, r0, ip, ror #15
    8574:	000087ec 	andeq	r8, r0, ip, ror #15
    8578:	000087ec 	andeq	r8, r0, ip, ror #15
    857c:	000087ec 	andeq	r8, r0, ip, ror #15
    8580:	000087ec 	andeq	r8, r0, ip, ror #15
    8584:	0000858c 	andeq	r8, r0, ip, lsl #11
    8588:	e3a0307f 	mov	r3, #127, 0	; 0x7f
    858c:	e28d2008 	add	r2, sp, #8, 0
    8590:	e1a04002 	mov	r4, r2
    8594:	e59f1288 	ldr	r1, [pc, #648]	; 8824 <emit.constprop.0+0x304>
    8598:	e20ce00f 	and	lr, ip, #15, 0
    859c:	e7d1e00e 	ldrb	lr, [r1, lr]
    85a0:	e35c000f 	cmp	ip, #15, 0
    85a4:	e4c4e001 	strb	lr, [r4], #1
    85a8:	e1a0c22c 	lsr	ip, ip, #4
    85ac:	8afffff9 	bhi	8598 <emit.constprop.0+0x78>
    85b0:	e3a0c078 	mov	ip, #120, 0	; 0x78
    85b4:	e1a0e004 	mov	lr, r4
    85b8:	e3a01030 	mov	r1, #48, 0	; 0x30
    85bc:	e4cec002 	strb	ip, [lr], #2
    85c0:	e5c41001 	strb	r1, [r4, #1]
    85c4:	e04e1002 	sub	r1, lr, r2
    85c8:	e1510003 	cmp	r1, r3
    85cc:	aa000083 	bge	87e0 <emit.constprop.0+0x2c0>
    85d0:	e1510003 	cmp	r1, r3
    85d4:	a3a0c001 	movge	ip, #1, 0
    85d8:	b3a0c000 	movlt	ip, #0, 0
    85dc:	e2434001 	sub	r4, r3, #1, 0
    85e0:	e0444001 	sub	r4, r4, r1
    85e4:	b0436001 	sublt	r6, r3, r1
    85e8:	a3a06001 	movge	r6, #1, 0
    85ec:	e3540002 	cmp	r4, #2, 0
    85f0:	938cc001 	orrls	ip, ip, #1, 0
    85f4:	e35c0000 	cmp	ip, #0, 0
    85f8:	1a000075 	bne	87d4 <emit.constprop.0+0x2b4>
    85fc:	e1a0c00e 	mov	ip, lr
    8600:	e3c65003 	bic	r5, r6, #3, 0
    8604:	e59f721c 	ldr	r7, [pc, #540]	; 8828 <emit.constprop.0+0x308>
    8608:	e085500e 	add	r5, r5, lr
    860c:	e48c7004 	str	r7, [ip], #4
    8610:	e15c0005 	cmp	ip, r5
    8614:	1afffffc 	bne	860c <emit.constprop.0+0xec>
    8618:	e3c6c003 	bic	ip, r6, #3, 0
    861c:	e156000c 	cmp	r6, ip
    8620:	e08e500c 	add	r5, lr, ip
    8624:	e08cc001 	add	ip, ip, r1
    8628:	0a000008 	beq	8650 <emit.constprop.0+0x130>
    862c:	e3a07020 	mov	r7, #32, 0
    8630:	e28c8001 	add	r8, ip, #1, 0
    8634:	e1580003 	cmp	r8, r3
    8638:	e5c57000 	strb	r7, [r5]
    863c:	aa000003 	bge	8650 <emit.constprop.0+0x130>
    8640:	e28cc002 	add	ip, ip, #2, 0
    8644:	e15c0003 	cmp	ip, r3
    8648:	e5c57001 	strb	r7, [r5, #1]
    864c:	b5c57002 	strblt	r7, [r5, #2]
    8650:	e1510003 	cmp	r1, r3
    8654:	a3a04000 	movge	r4, #0, 0
    8658:	e08e6006 	add	r6, lr, r6
    865c:	e0461002 	sub	r1, r6, r2
    8660:	e08ee004 	add	lr, lr, r4
    8664:	e3a03000 	mov	r3, #0, 0
    8668:	e351007f 	cmp	r1, #127, 0	; 0x7f
    866c:	c241407f 	subgt	r4, r1, #127, 0	; 0x7f
    8670:	c0822004 	addgt	r2, r2, r4
    8674:	e152000e 	cmp	r2, lr
    8678:	e5c63000 	strb	r3, [r6]
    867c:	8a00004f 	bhi	87c0 <emit.constprop.0+0x2a0>
    8680:	e28ee001 	add	lr, lr, #1, 0
    8684:	e1a0300e 	mov	r3, lr
    8688:	e240c001 	sub	ip, r0, #1, 0
    868c:	e5734001 	ldrb	r4, [r3, #-1]!
    8690:	e1530002 	cmp	r3, r2
    8694:	e5ec4001 	strb	r4, [ip, #1]!
    8698:	1afffffb 	bne	868c <emit.constprop.0+0x16c>
    869c:	e04ee003 	sub	lr, lr, r3
    86a0:	e3a03000 	mov	r3, #0, 0
    86a4:	e080e00e 	add	lr, r0, lr
    86a8:	e5ce3000 	strb	r3, [lr]
    86ac:	e28dd048 	add	sp, sp, #72, 0	; 0x48
    86b0:	e8bd81f0 	pop	{r4, r5, r6, r7, r8, pc}
    86b4:	e3a0307f 	mov	r3, #127, 0	; 0x7f
    86b8:	e28d2008 	add	r2, sp, #8, 0
    86bc:	e1a0e002 	mov	lr, r2
    86c0:	e59f1164 	ldr	r1, [pc, #356]	; 882c <emit.constprop.0+0x30c>
    86c4:	e20c4001 	and	r4, ip, #1, 0
    86c8:	e7d14004 	ldrb	r4, [r1, r4]
    86cc:	e35c0001 	cmp	ip, #1, 0
    86d0:	e4ce4001 	strb	r4, [lr], #1
    86d4:	e1a0c0ac 	lsr	ip, ip, #1
    86d8:	8afffff9 	bhi	86c4 <emit.constprop.0+0x1a4>
    86dc:	eaffffb8 	b	85c4 <emit.constprop.0+0xa4>
    86e0:	e24c3002 	sub	r3, ip, #2, 0
    86e4:	e1a0c002 	mov	ip, r2
    86e8:	e353000e 	cmp	r3, #14, 0
    86ec:	979ff103 	ldrls	pc, [pc, r3, lsl #2]
    86f0:	ea00003d 	b	87ec <emit.constprop.0+0x2cc>
    86f4:	000086b4 			; <UNDEFINED> instruction: 0x000086b4
    86f8:	000087ec 	andeq	r8, r0, ip, ror #15
    86fc:	000087ec 	andeq	r8, r0, ip, ror #15
    8700:	000087ec 	andeq	r8, r0, ip, ror #15
    8704:	000087ec 	andeq	r8, r0, ip, ror #15
    8708:	000087ec 	andeq	r8, r0, ip, ror #15
    870c:	0000880c 	andeq	r8, r0, ip, lsl #16
    8710:	000087ec 	andeq	r8, r0, ip, ror #15
    8714:	00008730 	andeq	r8, r0, r0, lsr r7
    8718:	000087ec 	andeq	r8, r0, ip, ror #15
    871c:	000087ec 	andeq	r8, r0, ip, ror #15
    8720:	000087ec 	andeq	r8, r0, ip, ror #15
    8724:	000087ec 	andeq	r8, r0, ip, ror #15
    8728:	000087ec 	andeq	r8, r0, ip, ror #15
    872c:	00008588 	andeq	r8, r0, r8, lsl #11
    8730:	e3a0307f 	mov	r3, #127, 0	; 0x7f
    8734:	e59d1060 	ldr	r1, [sp, #96]	; 0x60
    8738:	e59f70f0 	ldr	r7, [pc, #240]	; 8830 <emit.constprop.0+0x310>
    873c:	e0118fa2 	ands	r8, r1, r2, lsr #31
    8740:	1262c000 	rsbne	ip, r2, #0, 0
    8744:	e28d2008 	add	r2, sp, #8, 0
    8748:	13a08001 	movne	r8, #1, 0
    874c:	e1a0e002 	mov	lr, r2
    8750:	e59f60dc 	ldr	r6, [pc, #220]	; 8834 <emit.constprop.0+0x314>
    8754:	e1a0500c 	mov	r5, ip
    8758:	e0814c96 	umull	r4, r1, r6, ip
    875c:	e1a011a1 	lsr	r1, r1, #3
    8760:	e0814101 	add	r4, r1, r1, lsl #2
    8764:	e04cc084 	sub	ip, ip, r4, lsl #1
    8768:	e7d7400c 	ldrb	r4, [r7, ip]
    876c:	e3550009 	cmp	r5, #9, 0
    8770:	e1a0c001 	mov	ip, r1
    8774:	e1a0100e 	mov	r1, lr
    8778:	e4ce4001 	strb	r4, [lr], #1
    877c:	8afffff4 	bhi	8754 <emit.constprop.0+0x234>
    8780:	e3580000 	cmp	r8, #0, 0
    8784:	13a0c02d 	movne	ip, #45, 0	; 0x2d
    8788:	15cec000 	strbne	ip, [lr]
    878c:	1281e002 	addne	lr, r1, #2, 0
    8790:	eaffff8b 	b	85c4 <emit.constprop.0+0xa4>
    8794:	e3530001 	cmp	r3, #1, 0
    8798:	e5cd2008 	strb	r2, [sp, #8]
    879c:	c3a01001 	movgt	r1, #1, 0
    87a0:	c28de009 	addgt	lr, sp, #9, 0
    87a4:	c28d2008 	addgt	r2, sp, #8, 0
    87a8:	caffff88 	bgt	85d0 <emit.constprop.0+0xb0>
    87ac:	e3a03000 	mov	r3, #0, 0
    87b0:	e28de008 	add	lr, sp, #8, 0
    87b4:	e1a0200e 	mov	r2, lr
    87b8:	e5cd3009 	strb	r3, [sp, #9]
    87bc:	eaffffaf 	b	8680 <emit.constprop.0+0x160>
    87c0:	e1a0e000 	mov	lr, r0
    87c4:	e3a03000 	mov	r3, #0, 0
    87c8:	e5ce3000 	strb	r3, [lr]
    87cc:	e28dd048 	add	sp, sp, #72, 0	; 0x48
    87d0:	e8bd81f0 	pop	{r4, r5, r6, r7, r8, pc}
    87d4:	e1a0c001 	mov	ip, r1
    87d8:	e1a0500e 	mov	r5, lr
    87dc:	eaffff92 	b	862c <emit.constprop.0+0x10c>
    87e0:	e1a0600e 	mov	r6, lr
    87e4:	e24ee001 	sub	lr, lr, #1, 0
    87e8:	eaffff9d 	b	8664 <emit.constprop.0+0x144>
    87ec:	e59f2044 	ldr	r2, [pc, #68]	; 8838 <emit.constprop.0+0x318>
    87f0:	e3a03079 	mov	r3, #121, 0	; 0x79
    87f4:	e59f1040 	ldr	r1, [pc, #64]	; 883c <emit.constprop.0+0x31c>
    87f8:	e58d2000 	str	r2, [sp]
    87fc:	e59f003c 	ldr	r0, [pc, #60]	; 8840 <emit.constprop.0+0x320>
    8800:	e59f203c 	ldr	r2, [pc, #60]	; 8844 <emit.constprop.0+0x324>
    8804:	ebffff21 	bl	8490 <printk>
    8808:	eb0001b9 	bl	8ef4 <clean_reboot>
    880c:	e5cd2008 	strb	r2, [sp, #8]
    8810:	e3a0307f 	mov	r3, #127, 0	; 0x7f
    8814:	e3a01001 	mov	r1, #1, 0
    8818:	e28de009 	add	lr, sp, #9, 0
    881c:	e28d2008 	add	r2, sp, #8, 0
    8820:	eaffff6a 	b	85d0 <emit.constprop.0+0xb0>
    8824:	00009518 	andeq	r9, r0, r8, lsl r5
    8828:	20202020 	eorcs	r2, r0, r0, lsr #32
    882c:	0000952c 	andeq	r9, r0, ip, lsr #10
    8830:	00009530 	andeq	r9, r0, r0, lsr r5
    8834:	cccccccd 	stclgt	12, cr12, [ip], {205}	; 0xcd
    8838:	00009514 	andeq	r9, r0, r4, lsl r5
    883c:	000094ec 	andeq	r9, r0, ip, ror #9
    8840:	00009500 	andeq	r9, r0, r0, lsl #10
    8844:	00009644 	andeq	r9, r0, r4, asr #12

00008848 <rpi_set_output>:
    8848:	e3500000 	cmp	r0, #0, 0
    884c:	0a000005 	beq	8868 <rpi_set_output+0x20>
    8850:	e59f3038 	ldr	r3, [pc, #56]	; 8890 <rpi_set_output+0x48>
    8854:	e3510000 	cmp	r1, #0, 0
    8858:	e5830000 	str	r0, [r3]
    885c:	159f3030 	ldrne	r3, [pc, #48]	; 8894 <rpi_set_output+0x4c>
    8860:	15831000 	strne	r1, [r3]
    8864:	e12fff1e 	bx	lr
    8868:	e52de004 	push	{lr}		; (str lr, [sp, #-4]!)
    886c:	e59f2024 	ldr	r2, [pc, #36]	; 8898 <rpi_set_output+0x50>
    8870:	e24dd00c 	sub	sp, sp, #12, 0
    8874:	e3a03020 	mov	r3, #32, 0
    8878:	e59f101c 	ldr	r1, [pc, #28]	; 889c <rpi_set_output+0x54>
    887c:	e58d2000 	str	r2, [sp]
    8880:	e59f0018 	ldr	r0, [pc, #24]	; 88a0 <rpi_set_output+0x58>
    8884:	e59f2018 	ldr	r2, [pc, #24]	; 88a4 <rpi_set_output+0x5c>
    8888:	ebffff00 	bl	8490 <printk>
    888c:	eb000198 	bl	8ef4 <clean_reboot>
    8890:	00009678 	andeq	r9, r0, r8, ror r6
    8894:	00009674 	andeq	r9, r0, r4, ror r6
    8898:	0000953c 	andeq	r9, r0, ip, lsr r5
    889c:	000094ec 	andeq	r9, r0, ip, ror #9
    88a0:	00009500 	andeq	r9, r0, r0, lsl #10
    88a4:	0000964c 	andeq	r9, r0, ip, asr #12

000088a8 <va_printk>:
    88a8:	e92d4ff0 	push	{r4, r5, r6, r7, r8, r9, sl, fp, lr}
    88ac:	e1a0b000 	mov	fp, r0
    88b0:	e3a00000 	mov	r0, #0, 0
    88b4:	e5cb0000 	strb	r0, [fp]
    88b8:	e5d2c000 	ldrb	ip, [r2]
    88bc:	e2417001 	sub	r7, r1, #1, 0
    88c0:	e08b7007 	add	r7, fp, r7
    88c4:	e15c0000 	cmp	ip, r0
    88c8:	115b0007 	cmpne	fp, r7
    88cc:	e24ddf47 	sub	sp, sp, #284	; 0x11c
    88d0:	e58d2010 	str	r2, [sp, #16]
    88d4:	2a000159 	bcs	8e40 <va_printk+0x598>
    88d8:	e1a06002 	mov	r6, r2
    88dc:	e1a08003 	mov	r8, r3
    88e0:	e1a0400b 	mov	r4, fp
    88e4:	e59fa5a4 	ldr	sl, [pc, #1444]	; 8e90 <va_printk+0x5e8>
    88e8:	e58db00c 	str	fp, [sp, #12]
    88ec:	ea000005 	b	8908 <va_printk+0x60>
    88f0:	e4c4c001 	strb	ip, [r4], #1
    88f4:	e2866001 	add	r6, r6, #1, 0
    88f8:	e5d6c000 	ldrb	ip, [r6]
    88fc:	e35c0000 	cmp	ip, #0, 0
    8900:	11570004 	cmpne	r7, r4
    8904:	9a00002f 	bls	89c8 <va_printk+0x120>
    8908:	e35c0025 	cmp	ip, #37, 0	; 0x25
    890c:	1afffff7 	bne	88f0 <va_printk+0x48>
    8910:	e5d62001 	ldrb	r2, [r6, #1]
    8914:	e3520025 	cmp	r2, #37, 0	; 0x25
    8918:	04c4c001 	strbeq	ip, [r4], #1
    891c:	02866002 	addeq	r6, r6, #2, 0
    8920:	0afffff4 	beq	88f8 <va_printk+0x50>
    8924:	e2423030 	sub	r3, r2, #48, 0	; 0x30
    8928:	e3530009 	cmp	r3, #9, 0
    892c:	e3a05000 	mov	r5, #0, 0
    8930:	e2866001 	add	r6, r6, #1, 0
    8934:	8a000008 	bhi	895c <va_printk+0xb4>
    8938:	e0855105 	add	r5, r5, r5, lsl #2
    893c:	e0825085 	add	r5, r2, r5, lsl #1
    8940:	e5f62001 	ldrb	r2, [r6, #1]!
    8944:	e2455030 	sub	r5, r5, #48, 0	; 0x30
    8948:	e2423030 	sub	r3, r2, #48, 0	; 0x30
    894c:	e3530009 	cmp	r3, #9, 0
    8950:	9afffff8 	bls	8938 <va_printk+0x90>
    8954:	e355001f 	cmp	r5, #31, 0
    8958:	8a00013a 	bhi	8e48 <va_printk+0x5a0>
    895c:	e2423062 	sub	r3, r2, #98, 0	; 0x62
    8960:	e3530016 	cmp	r3, #22, 0
    8964:	979ff103 	ldrls	pc, [pc, r3, lsl #2]
    8968:	ea00011b 	b	8ddc <va_printk+0x534>
    896c:	00008c20 	andeq	r8, r0, r0, lsr #24
    8970:	00008b1c 	andeq	r8, r0, ip, lsl fp
    8974:	00008b14 	andeq	r8, r0, r4, lsl fp
    8978:	00008ddc 	ldrdeq	r8, [r0], -ip
    897c:	00008e18 	andeq	r8, r0, r8, lsl lr
    8980:	00008ddc 	ldrdeq	r8, [r0], -ip
    8984:	00008ddc 	ldrdeq	r8, [r0], -ip
    8988:	00008ddc 	ldrdeq	r8, [r0], -ip
    898c:	00008ddc 	ldrdeq	r8, [r0], -ip
    8990:	00008ddc 	ldrdeq	r8, [r0], -ip
    8994:	00008a24 	andeq	r8, r0, r4, lsr #20
    8998:	00008ddc 	ldrdeq	r8, [r0], -ip
    899c:	00008ddc 	ldrdeq	r8, [r0], -ip
    89a0:	00008ddc 	ldrdeq	r8, [r0], -ip
    89a4:	000089e0 	andeq	r8, r0, r0, ror #19
    89a8:	00008ddc 	ldrdeq	r8, [r0], -ip
    89ac:	00008ddc 	ldrdeq	r8, [r0], -ip
    89b0:	00008d18 	andeq	r8, r0, r8, lsl sp
    89b4:	00008ddc 	ldrdeq	r8, [r0], -ip
    89b8:	00008af0 	strdeq	r8, [r0], -r0
    89bc:	00008ddc 	ldrdeq	r8, [r0], -ip
    89c0:	00008ddc 	ldrdeq	r8, [r0], -ip
    89c4:	000089e0 	andeq	r8, r0, r0, ror #19
    89c8:	e59db00c 	ldr	fp, [sp, #12]
    89cc:	e3a03000 	mov	r3, #0, 0
    89d0:	e4c43001 	strb	r3, [r4], #1
    89d4:	e044000b 	sub	r0, r4, fp
    89d8:	e28ddf47 	add	sp, sp, #284	; 0x11c
    89dc:	e8bd8ff0 	pop	{r4, r5, r6, r7, r8, r9, sl, fp, pc}
    89e0:	e3a01000 	mov	r1, #0, 0
    89e4:	e1a03005 	mov	r3, r5
    89e8:	e4982004 	ldr	r2, [r8], #4
    89ec:	e3a00010 	mov	r0, #16, 0
    89f0:	e58d1000 	str	r1, [sp]
    89f4:	e28d1018 	add	r1, sp, #24, 0
    89f8:	ebfffec8 	bl	8520 <emit.constprop.0>
    89fc:	e1a05000 	mov	r5, r0
    8a00:	e2866001 	add	r6, r6, #1, 0
    8a04:	e2455001 	sub	r5, r5, #1, 0
    8a08:	e5f53001 	ldrb	r3, [r5, #1]!
    8a0c:	e3530000 	cmp	r3, #0, 0
    8a10:	0affffb8 	beq	88f8 <va_printk+0x50>
    8a14:	e4c43001 	strb	r3, [r4], #1
    8a18:	e1570004 	cmp	r7, r4
    8a1c:	8afffff9 	bhi	8a08 <va_printk+0x160>
    8a20:	eaffffb4 	b	88f8 <va_printk+0x50>
    8a24:	e3a02003 	mov	r2, #3, 0
    8a28:	e1a00006 	mov	r0, r6
    8a2c:	e59f1460 	ldr	r1, [pc, #1120]	; 8e94 <va_printk+0x5ec>
    8a30:	eb000290 	bl	9478 <strncmp>
    8a34:	e3500000 	cmp	r0, #0, 0
    8a38:	0a000005 	beq	8a54 <va_printk+0x1ac>
    8a3c:	e3a02003 	mov	r2, #3, 0
    8a40:	e1a00006 	mov	r0, r6
    8a44:	e59f144c 	ldr	r1, [pc, #1100]	; 8e98 <va_printk+0x5f0>
    8a48:	eb00028a 	bl	9478 <strncmp>
    8a4c:	e3500000 	cmp	r0, #0, 0
    8a50:	1a00010b 	bne	8e84 <va_printk+0x5dc>
    8a54:	e2888007 	add	r8, r8, #7, 0
    8a58:	e3c88007 	bic	r8, r8, #7, 0
    8a5c:	e598b004 	ldr	fp, [r8, #4]
    8a60:	e4989008 	ldr	r9, [r8], #8
    8a64:	e1a0100b 	mov	r1, fp
    8a68:	e59f042c 	ldr	r0, [pc, #1068]	; 8e9c <va_printk+0x5f4>
    8a6c:	ebfffe87 	bl	8490 <printk>
    8a70:	e1a01009 	mov	r1, r9
    8a74:	e59f0424 	ldr	r0, [pc, #1060]	; 8ea0 <va_printk+0x5f8>
    8a78:	ebfffe84 	bl	8490 <printk>
    8a7c:	e3a02003 	mov	r2, #3, 0
    8a80:	e1a00006 	mov	r0, r6
    8a84:	e59f1408 	ldr	r1, [pc, #1032]	; 8e94 <va_printk+0x5ec>
    8a88:	eb00027a 	bl	9478 <strncmp>
    8a8c:	e2503000 	subs	r3, r0, #0, 0
    8a90:	e1a02003 	mov	r2, r3
    8a94:	e2863002 	add	r3, r6, #2, 0
    8a98:	e58d3014 	str	r3, [sp, #20]
    8a9c:	1a00009f 	bne	8d20 <va_printk+0x478>
    8aa0:	e1a06002 	mov	r6, r2
    8aa4:	e1a03005 	mov	r3, r5
    8aa8:	e58d2000 	str	r2, [sp]
    8aac:	e28d1018 	add	r1, sp, #24, 0
    8ab0:	e1a0200b 	mov	r2, fp
    8ab4:	e3a00010 	mov	r0, #16, 0
    8ab8:	ebfffe98 	bl	8520 <emit.constprop.0>
    8abc:	e1a0c000 	mov	ip, r0
    8ac0:	e1a03005 	mov	r3, r5
    8ac4:	e58d6000 	str	r6, [sp]
    8ac8:	e28d1098 	add	r1, sp, #152, 0	; 0x98
    8acc:	e1a02009 	mov	r2, r9
    8ad0:	e3a00010 	mov	r0, #16, 0
    8ad4:	e1a0500c 	mov	r5, ip
    8ad8:	ebfffe90 	bl	8520 <emit.constprop.0>
    8adc:	e28d0018 	add	r0, sp, #24, 0
    8ae0:	e28d109a 	add	r1, sp, #154, 0	; 0x9a
    8ae4:	e59d6014 	ldr	r6, [sp, #20]
    8ae8:	eb000240 	bl	93f0 <strcat>
    8aec:	eaffffc3 	b	8a00 <va_printk+0x158>
    8af0:	e3a01000 	mov	r1, #0, 0
    8af4:	e1a03005 	mov	r3, r5
    8af8:	e4982004 	ldr	r2, [r8], #4
    8afc:	e3a0000a 	mov	r0, #10, 0
    8b00:	e58d1000 	str	r1, [sp]
    8b04:	e28d1018 	add	r1, sp, #24, 0
    8b08:	ebfffe84 	bl	8520 <emit.constprop.0>
    8b0c:	e1a05000 	mov	r5, r0
    8b10:	eaffffba 	b	8a00 <va_printk+0x158>
    8b14:	e3a01001 	mov	r1, #1, 0
    8b18:	eafffff5 	b	8af4 <va_printk+0x24c>
    8b1c:	e4983004 	ldr	r3, [r8], #4
    8b20:	e3550001 	cmp	r5, #1, 0
    8b24:	e5cd3098 	strb	r3, [sp, #152]	; 0x98
    8b28:	9a0000a6 	bls	8dc8 <va_printk+0x520>
    8b2c:	e2453002 	sub	r3, r5, #2, 0
    8b30:	e3530002 	cmp	r3, #2, 0
    8b34:	e2451001 	sub	r1, r5, #1, 0
    8b38:	9a0000bc 	bls	8e30 <va_printk+0x588>
    8b3c:	e59f0360 	ldr	r0, [pc, #864]	; 8ea4 <va_printk+0x5fc>
    8b40:	e1a02121 	lsr	r2, r1, #2
    8b44:	e3520001 	cmp	r2, #1, 0
    8b48:	e58d0099 	str	r0, [sp, #153]	; 0x99
    8b4c:	0a00000e 	beq	8b8c <va_printk+0x2e4>
    8b50:	e3520002 	cmp	r2, #2, 0
    8b54:	e58d009d 	str	r0, [sp, #157]	; 0x9d
    8b58:	0a00000b 	beq	8b8c <va_printk+0x2e4>
    8b5c:	e3520003 	cmp	r2, #3, 0
    8b60:	e58d00a1 	str	r0, [sp, #161]	; 0xa1
    8b64:	0a000008 	beq	8b8c <va_printk+0x2e4>
    8b68:	e3520004 	cmp	r2, #4, 0
    8b6c:	e58d00a5 	str	r0, [sp, #165]	; 0xa5
    8b70:	0a000005 	beq	8b8c <va_printk+0x2e4>
    8b74:	e3520005 	cmp	r2, #5, 0
    8b78:	e58d00a9 	str	r0, [sp, #169]	; 0xa9
    8b7c:	0a000002 	beq	8b8c <va_printk+0x2e4>
    8b80:	e3520007 	cmp	r2, #7, 0
    8b84:	e58d00ad 	str	r0, [sp, #173]	; 0xad
    8b88:	058d00b1 	streq	r0, [sp, #177]	; 0xb1
    8b8c:	e3c12003 	bic	r2, r1, #3, 0
    8b90:	e1510002 	cmp	r1, r2
    8b94:	e28dc099 	add	ip, sp, #153, 0	; 0x99
    8b98:	e08c0002 	add	r0, ip, r2
    8b9c:	e2822001 	add	r2, r2, #1, 0
    8ba0:	0a000008 	beq	8bc8 <va_printk+0x320>
    8ba4:	e3a0e020 	mov	lr, #32, 0
    8ba8:	e2829001 	add	r9, r2, #1, 0
    8bac:	e1550009 	cmp	r5, r9
    8bb0:	e5c0e000 	strb	lr, [r0]
    8bb4:	da000003 	ble	8bc8 <va_printk+0x320>
    8bb8:	e2822002 	add	r2, r2, #2, 0
    8bbc:	e1550002 	cmp	r5, r2
    8bc0:	e5c0e001 	strb	lr, [r0, #1]
    8bc4:	c5c0e002 	strbgt	lr, [r0, #2]
    8bc8:	e3a0e000 	mov	lr, #0, 0
    8bcc:	e28d0098 	add	r0, sp, #152, 0	; 0x98
    8bd0:	e08c2001 	add	r2, ip, r1
    8bd4:	e0422000 	sub	r2, r2, r0
    8bd8:	e352007f 	cmp	r2, #127, 0	; 0x7f
    8bdc:	c242207f 	subgt	r2, r2, #127, 0	; 0x7f
    8be0:	e08c3003 	add	r3, ip, r3
    8be4:	c0800002 	addgt	r0, r0, r2
    8be8:	e1530000 	cmp	r3, r0
    8bec:	e7cce001 	strb	lr, [ip, r1]
    8bf0:	3a00006c 	bcc	8da8 <va_printk+0x500>
    8bf4:	e283c001 	add	ip, r3, #1, 0
    8bf8:	e1a0300c 	mov	r3, ip
    8bfc:	e28d5018 	add	r5, sp, #24, 0
    8c00:	e2452001 	sub	r2, r5, #1, 0
    8c04:	e5731001 	ldrb	r1, [r3, #-1]!
    8c08:	e1500003 	cmp	r0, r3
    8c0c:	e5e21001 	strb	r1, [r2, #1]!
    8c10:	1afffffb 	bne	8c04 <va_printk+0x35c>
    8c14:	e04c3000 	sub	r3, ip, r0
    8c18:	e0853003 	add	r3, r5, r3
    8c1c:	ea00003a 	b	8d0c <va_printk+0x464>
    8c20:	e28d1098 	add	r1, sp, #152, 0	; 0x98
    8c24:	e1a03001 	mov	r3, r1
    8c28:	e4980004 	ldr	r0, [r8], #4
    8c2c:	e200c001 	and	ip, r0, #1, 0
    8c30:	e7dac00c 	ldrb	ip, [sl, ip]
    8c34:	e3500001 	cmp	r0, #1, 0
    8c38:	e1a02003 	mov	r2, r3
    8c3c:	e1a000a0 	lsr	r0, r0, #1
    8c40:	e4c3c001 	strb	ip, [r3], #1
    8c44:	8afffff8 	bhi	8c2c <va_printk+0x384>
    8c48:	e0430001 	sub	r0, r3, r1
    8c4c:	e1550000 	cmp	r5, r0
    8c50:	da000057 	ble	8db4 <va_printk+0x50c>
    8c54:	e045c000 	sub	ip, r5, r0
    8c58:	e24ce001 	sub	lr, ip, #1, 0
    8c5c:	e35e0002 	cmp	lr, #2, 0
    8c60:	e1a0e003 	mov	lr, r3
    8c64:	9a00000a 	bls	8c94 <va_printk+0x3ec>
    8c68:	e3cc9003 	bic	r9, ip, #3, 0
    8c6c:	e0899003 	add	r9, r9, r3
    8c70:	e59fb22c 	ldr	fp, [pc, #556]	; 8ea4 <va_printk+0x5fc>
    8c74:	e48eb004 	str	fp, [lr], #4
    8c78:	e15e0009 	cmp	lr, r9
    8c7c:	1afffffb 	bne	8c70 <va_printk+0x3c8>
    8c80:	e3cce003 	bic	lr, ip, #3, 0
    8c84:	e15e000c 	cmp	lr, ip
    8c88:	e080000e 	add	r0, r0, lr
    8c8c:	e083e00e 	add	lr, r3, lr
    8c90:	0a000008 	beq	8cb8 <va_printk+0x410>
    8c94:	e3a09020 	mov	r9, #32, 0
    8c98:	e280b001 	add	fp, r0, #1, 0
    8c9c:	e155000b 	cmp	r5, fp
    8ca0:	e5ce9000 	strb	r9, [lr]
    8ca4:	da000003 	ble	8cb8 <va_printk+0x410>
    8ca8:	e2800002 	add	r0, r0, #2, 0
    8cac:	e1550000 	cmp	r5, r0
    8cb0:	e5ce9001 	strb	r9, [lr, #1]
    8cb4:	c5ce9002 	strbgt	r9, [lr, #2]
    8cb8:	e3a0e000 	mov	lr, #0, 0
    8cbc:	e083000c 	add	r0, r3, ip
    8cc0:	e0400001 	sub	r0, r0, r1
    8cc4:	e350007f 	cmp	r0, #127, 0	; 0x7f
    8cc8:	e082200c 	add	r2, r2, ip
    8ccc:	e7c3e00c 	strb	lr, [r3, ip]
    8cd0:	da000001 	ble	8cdc <va_printk+0x434>
    8cd4:	e240007f 	sub	r0, r0, #127, 0	; 0x7f
    8cd8:	e0811000 	add	r1, r1, r0
    8cdc:	e1510002 	cmp	r1, r2
    8ce0:	8a000030 	bhi	8da8 <va_printk+0x500>
    8ce4:	e2822001 	add	r2, r2, #1, 0
    8ce8:	e1a03002 	mov	r3, r2
    8cec:	e28d5018 	add	r5, sp, #24, 0
    8cf0:	e245c001 	sub	ip, r5, #1, 0
    8cf4:	e5730001 	ldrb	r0, [r3, #-1]!
    8cf8:	e1530001 	cmp	r3, r1
    8cfc:	e5ec0001 	strb	r0, [ip, #1]!
    8d00:	1afffffb 	bne	8cf4 <va_printk+0x44c>
    8d04:	e0423003 	sub	r3, r2, r3
    8d08:	e0853003 	add	r3, r5, r3
    8d0c:	e3a02000 	mov	r2, #0, 0
    8d10:	e5c32000 	strb	r2, [r3]
    8d14:	eaffff39 	b	8a00 <va_printk+0x158>
    8d18:	e4985004 	ldr	r5, [r8], #4
    8d1c:	eaffff37 	b	8a00 <va_printk+0x158>
    8d20:	e3a02003 	mov	r2, #3, 0
    8d24:	e1a00006 	mov	r0, r6
    8d28:	e59f1168 	ldr	r1, [pc, #360]	; 8e98 <va_printk+0x5f0>
    8d2c:	eb0001d1 	bl	9478 <strncmp>
    8d30:	e2503000 	subs	r3, r0, #0, 0
    8d34:	1a00004b 	bne	8e68 <va_printk+0x5c0>
    8d38:	e1a06003 	mov	r6, r3
    8d3c:	e1a0200b 	mov	r2, fp
    8d40:	e58d3000 	str	r3, [sp]
    8d44:	e28d1018 	add	r1, sp, #24, 0
    8d48:	e1a03005 	mov	r3, r5
    8d4c:	e3a0000a 	mov	r0, #10, 0
    8d50:	ebfffdf2 	bl	8520 <emit.constprop.0>
    8d54:	e1a0c000 	mov	ip, r0
    8d58:	e1a03005 	mov	r3, r5
    8d5c:	e1a02009 	mov	r2, r9
    8d60:	e28d1098 	add	r1, sp, #152, 0	; 0x98
    8d64:	e3a0000a 	mov	r0, #10, 0
    8d68:	e58d6000 	str	r6, [sp]
    8d6c:	e1a0500c 	mov	r5, ip
    8d70:	ebfffdea 	bl	8520 <emit.constprop.0>
    8d74:	e59f112c 	ldr	r1, [pc, #300]	; 8ea8 <va_printk+0x600>
    8d78:	e28d0018 	add	r0, sp, #24, 0
    8d7c:	eb0001a6 	bl	941c <strcmp>
    8d80:	e3500000 	cmp	r0, #0, 0
    8d84:	e28d1098 	add	r1, sp, #152, 0	; 0x98
    8d88:	e28d0018 	add	r0, sp, #24, 0
    8d8c:	1a000002 	bne	8d9c <va_printk+0x4f4>
    8d90:	eb0001b2 	bl	9460 <strcpy>
    8d94:	e59d6014 	ldr	r6, [sp, #20]
    8d98:	eaffff18 	b	8a00 <va_printk+0x158>
    8d9c:	eb000193 	bl	93f0 <strcat>
    8da0:	e59d6014 	ldr	r6, [sp, #20]
    8da4:	eaffff15 	b	8a00 <va_printk+0x158>
    8da8:	e28d5018 	add	r5, sp, #24, 0
    8dac:	e1a03005 	mov	r3, r5
    8db0:	eaffffd5 	b	8d0c <va_printk+0x464>
    8db4:	e3a0c000 	mov	ip, #0, 0
    8db8:	e350007f 	cmp	r0, #127, 0	; 0x7f
    8dbc:	e5c3c000 	strb	ip, [r3]
    8dc0:	caffffc3 	bgt	8cd4 <va_printk+0x42c>
    8dc4:	eaffffc6 	b	8ce4 <va_printk+0x43c>
    8dc8:	e3a02000 	mov	r2, #0, 0
    8dcc:	e28d3098 	add	r3, sp, #152, 0	; 0x98
    8dd0:	e1a00003 	mov	r0, r3
    8dd4:	e5cd2099 	strb	r2, [sp, #153]	; 0x99
    8dd8:	eaffff85 	b	8bf4 <va_printk+0x34c>
    8ddc:	e3a03000 	mov	r3, #0, 0
    8de0:	e1a01002 	mov	r1, r2
    8de4:	e5c63001 	strb	r3, [r6, #1]
    8de8:	e59f00bc 	ldr	r0, [pc, #188]	; 8eac <va_printk+0x604>
    8dec:	ebfffda7 	bl	8490 <printk>
    8df0:	e59f30b8 	ldr	r3, [pc, #184]	; 8eb0 <va_printk+0x608>
    8df4:	e59d0010 	ldr	r0, [sp, #16]
    8df8:	e5933000 	ldr	r3, [r3]
    8dfc:	e12fff33 	blx	r3
    8e00:	e3a030e2 	mov	r3, #226, 0	; 0xe2
    8e04:	e59f20a8 	ldr	r2, [pc, #168]	; 8eb4 <va_printk+0x60c>
    8e08:	e59f10a8 	ldr	r1, [pc, #168]	; 8eb8 <va_printk+0x610>
    8e0c:	e59f00a8 	ldr	r0, [pc, #168]	; 8ebc <va_printk+0x614>
    8e10:	ebfffd9e 	bl	8490 <printk>
    8e14:	eb000036 	bl	8ef4 <clean_reboot>
    8e18:	e3a030be 	mov	r3, #190, 0	; 0xbe
    8e1c:	e59f2090 	ldr	r2, [pc, #144]	; 8eb4 <va_printk+0x60c>
    8e20:	e59f1090 	ldr	r1, [pc, #144]	; 8eb8 <va_printk+0x610>
    8e24:	e59f0094 	ldr	r0, [pc, #148]	; 8ec0 <va_printk+0x618>
    8e28:	ebfffd98 	bl	8490 <printk>
    8e2c:	eb000030 	bl	8ef4 <clean_reboot>
    8e30:	e28dc099 	add	ip, sp, #153, 0	; 0x99
    8e34:	e1a0000c 	mov	r0, ip
    8e38:	e3a02001 	mov	r2, #1, 0
    8e3c:	eaffff58 	b	8ba4 <va_printk+0x2fc>
    8e40:	e1a0400b 	mov	r4, fp
    8e44:	eafffee0 	b	89cc <va_printk+0x124>
    8e48:	e3a03098 	mov	r3, #152, 0	; 0x98
    8e4c:	e59f2070 	ldr	r2, [pc, #112]	; 8ec4 <va_printk+0x61c>
    8e50:	e59f1060 	ldr	r1, [pc, #96]	; 8eb8 <va_printk+0x610>
    8e54:	e58d2000 	str	r2, [sp]
    8e58:	e59f0068 	ldr	r0, [pc, #104]	; 8ec8 <va_printk+0x620>
    8e5c:	e59f2050 	ldr	r2, [pc, #80]	; 8eb4 <va_printk+0x60c>
    8e60:	ebfffd8a 	bl	8490 <printk>
    8e64:	eb000022 	bl	8ef4 <clean_reboot>
    8e68:	e3a030b6 	mov	r3, #182, 0	; 0xb6
    8e6c:	e59f2040 	ldr	r2, [pc, #64]	; 8eb4 <va_printk+0x60c>
    8e70:	e59f1040 	ldr	r1, [pc, #64]	; 8eb8 <va_printk+0x610>
    8e74:	e59f0050 	ldr	r0, [pc, #80]	; 8ecc <va_printk+0x624>
    8e78:	e58d6000 	str	r6, [sp]
    8e7c:	ebfffd83 	bl	8490 <printk>
    8e80:	eb00001b 	bl	8ef4 <clean_reboot>
    8e84:	e3a0309f 	mov	r3, #159, 0	; 0x9f
    8e88:	e59f2040 	ldr	r2, [pc, #64]	; 8ed0 <va_printk+0x628>
    8e8c:	eaffffef 	b	8e50 <va_printk+0x5a8>
    8e90:	0000952c 	andeq	r9, r0, ip, lsr #10
    8e94:	00009550 	andeq	r9, r0, r0, asr r5
    8e98:	00009564 	andeq	r9, r0, r4, ror #10
    8e9c:	00009554 	andeq	r9, r0, r4, asr r5
    8ea0:	0000955c 	andeq	r9, r0, ip, asr r5
    8ea4:	20202020 	eorcs	r2, r0, r0, lsr #32
    8ea8:	00009514 	andeq	r9, r0, r4, lsl r5
    8eac:	000095f4 	strdeq	r9, [r0], -r4
    8eb0:	00009674 	andeq	r9, r0, r4, ror r6
    8eb4:	0000965c 	andeq	r9, r0, ip, asr r6
    8eb8:	000094ec 	andeq	r9, r0, ip, ror #9
    8ebc:	00009624 	andeq	r9, r0, r4, lsr #12
    8ec0:	000095cc 	andeq	r9, r0, ip, asr #11
    8ec4:	00009544 	andeq	r9, r0, r4, asr #10
    8ec8:	00009500 	andeq	r9, r0, r0, lsl #10
    8ecc:	000095a4 	andeq	r9, r0, r4, lsr #11
    8ed0:	00009568 	andeq	r9, r0, r8, ror #10

00008ed4 <enable_cache>:
    8ed4:	ee113f10 	mrc	15, 0, r3, cr1, cr0, {0}
    8ed8:	e3833b06 	orr	r3, r3, #6144	; 0x1800
    8edc:	ee013f10 	mcr	15, 0, r3, cr1, cr0, {0}
    8ee0:	e12fff1e 	bx	lr

00008ee4 <disable_cache>:
    8ee4:	ee113f10 	mrc	15, 0, r3, cr1, cr0, {0}
    8ee8:	e3c33b06 	bic	r3, r3, #6144	; 0x1800
    8eec:	ee013f10 	mcr	15, 0, r3, cr1, cr0, {0}
    8ef0:	e12fff1e 	bx	lr

00008ef4 <clean_reboot>:
    8ef4:	e59f301c 	ldr	r3, [pc, #28]	; 8f18 <clean_reboot+0x24>
    8ef8:	e92d4010 	push	{r4, lr}
    8efc:	e5933000 	ldr	r3, [r3]
    8f00:	e59f0014 	ldr	r0, [pc, #20]	; 8f1c <clean_reboot+0x28>
    8f04:	e12fff33 	blx	r3
    8f08:	eb00011b 	bl	937c <uart_flush_tx>
    8f0c:	e3a0000a 	mov	r0, #10, 0
    8f10:	eb000082 	bl	9120 <delay_ms>
    8f14:	eb00004b 	bl	9048 <rpi_reboot>
    8f18:	00009674 	andeq	r9, r0, r4, ror r6
    8f1c:	00009668 	andeq	r9, r0, r8, ror #12

00008f20 <_cstart>:
    8f20:	e92d4070 	push	{r4, r5, r6, lr}
    8f24:	eb00003b 	bl	9018 <custom_loader>
    8f28:	e59f20e0 	ldr	r2, [pc, #224]	; 9010 <_cstart+0xf0>
    8f2c:	e59fc0e0 	ldr	ip, [pc, #224]	; 9014 <_cstart+0xf4>
    8f30:	e152000c 	cmp	r2, ip
    8f34:	2a00002e 	bcs	8ff4 <_cstart+0xd4>
    8f38:	e24c1001 	sub	r1, ip, #1, 0
    8f3c:	e0411002 	sub	r1, r1, r2
    8f40:	e3510017 	cmp	r1, #23, 0
    8f44:	e1a03122 	lsr	r3, r2, #2
    8f48:	e1a01121 	lsr	r1, r1, #2
    8f4c:	e2811001 	add	r1, r1, #1, 0
    8f50:	e2033001 	and	r3, r3, #1, 0
    8f54:	9a00002b 	bls	9008 <_cstart+0xe8>
    8f58:	e3530000 	cmp	r3, #0, 0
    8f5c:	11a00002 	movne	r0, r2
    8f60:	13a0e000 	movne	lr, #0, 0
    8f64:	e3a04000 	mov	r4, #0, 0
    8f68:	e3a05000 	mov	r5, #0, 0
    8f6c:	e0411003 	sub	r1, r1, r3
    8f70:	01a00002 	moveq	r0, r2
    8f74:	e0823103 	add	r3, r2, r3, lsl #2
    8f78:	e1a020a1 	lsr	r2, r1, #1
    8f7c:	1480e004 	strne	lr, [r0], #4
    8f80:	e0832182 	add	r2, r3, r2, lsl #3
    8f84:	e0c340f8 	strd	r4, [r3], #8
    8f88:	e1520003 	cmp	r2, r3
    8f8c:	1afffffc 	bne	8f84 <_cstart+0x64>
    8f90:	e3c13001 	bic	r3, r1, #1, 0
    8f94:	e1510003 	cmp	r1, r3
    8f98:	e0803103 	add	r3, r0, r3, lsl #2
    8f9c:	0a000014 	beq	8ff4 <_cstart+0xd4>
    8fa0:	e1a01003 	mov	r1, r3
    8fa4:	e3a02000 	mov	r2, #0, 0
    8fa8:	e4812004 	str	r2, [r1], #4
    8fac:	e151000c 	cmp	r1, ip
    8fb0:	2a00000f 	bcs	8ff4 <_cstart+0xd4>
    8fb4:	e2831008 	add	r1, r3, #8, 0
    8fb8:	e151000c 	cmp	r1, ip
    8fbc:	e5832004 	str	r2, [r3, #4]
    8fc0:	2a00000b 	bcs	8ff4 <_cstart+0xd4>
    8fc4:	e283100c 	add	r1, r3, #12, 0
    8fc8:	e151000c 	cmp	r1, ip
    8fcc:	e5832008 	str	r2, [r3, #8]
    8fd0:	2a000007 	bcs	8ff4 <_cstart+0xd4>
    8fd4:	e2831010 	add	r1, r3, #16, 0
    8fd8:	e151000c 	cmp	r1, ip
    8fdc:	e583200c 	str	r2, [r3, #12]
    8fe0:	2a000003 	bcs	8ff4 <_cstart+0xd4>
    8fe4:	e2831014 	add	r1, r3, #20, 0
    8fe8:	e151000c 	cmp	r1, ip
    8fec:	e5832010 	str	r2, [r3, #16]
    8ff0:	35832014 	strcc	r2, [r3, #20]
    8ff4:	eb000082 	bl	9204 <uart_init>
    8ff8:	e3a03001 	mov	r3, #1, 0
    8ffc:	ee0f3f1c 	mcr	15, 0, r3, cr15, cr12, {0}
    9000:	ebfffc5d 	bl	817c <notmain>
    9004:	ebffffba 	bl	8ef4 <clean_reboot>
    9008:	e1a03002 	mov	r3, r2
    900c:	eaffffe3 	b	8fa0 <_cstart+0x80>
    9010:	0000967c 	andeq	r9, r0, ip, ror r6
    9014:	00009a80 	andeq	r9, r0, r0, lsl #21

00009018 <custom_loader>:
    9018:	e12fff1e 	bx	lr

0000901c <at_user_level>:
    901c:	e10f0000 	mrs	r0, CPSR
    9020:	e200001f 	and	r0, r0, #31, 0
    9024:	e2400010 	sub	r0, r0, #16, 0
    9028:	e16f0f10 	clz	r0, r0
    902c:	e1a002a0 	lsr	r0, r0, #5
    9030:	e12fff1e 	bx	lr

00009034 <set_user_level>:
    9034:	e10f3000 	mrs	r3, CPSR
    9038:	e3c3301f 	bic	r3, r3, #31, 0
    903c:	e3833010 	orr	r3, r3, #16, 0
    9040:	e129f003 	msr	CPSR_fc, r3
    9044:	e12fff1e 	bx	lr

00009048 <rpi_reboot>:
    9048:	e92d4010 	push	{r4, lr}
    904c:	e10f3000 	mrs	r3, CPSR
    9050:	e203301f 	and	r3, r3, #31, 0
    9054:	e3530010 	cmp	r3, #16, 0
    9058:	1a000003 	bne	906c <rpi_reboot+0x24>
    905c:	e10f3000 	mrs	r3, CPSR
    9060:	e3c3301f 	bic	r3, r3, #31, 0
    9064:	e3833010 	orr	r3, r3, #16, 0
    9068:	e129f003 	msr	CPSR_fc, r3
    906c:	eb00010d 	bl	94a8 <reboot_callout>
    9070:	eb0000c1 	bl	937c <uart_flush_tx>
    9074:	e3a0000a 	mov	r0, #10, 0
    9078:	eb000028 	bl	9120 <delay_ms>
    907c:	e59f1014 	ldr	r1, [pc, #20]	; 9098 <rpi_reboot+0x50>
    9080:	e59f0014 	ldr	r0, [pc, #20]	; 909c <rpi_reboot+0x54>
    9084:	ebfffbe6 	bl	8024 <PUT32>
    9088:	e59f1010 	ldr	r1, [pc, #16]	; 90a0 <rpi_reboot+0x58>
    908c:	e59f0010 	ldr	r0, [pc, #16]	; 90a4 <rpi_reboot+0x5c>
    9090:	ebfffbe3 	bl	8024 <PUT32>
    9094:	eafffffe 	b	9094 <rpi_reboot+0x4c>
    9098:	5a000001 	bpl	90a4 <rpi_reboot+0x5c>
    909c:	20100024 	andscs	r0, r0, r4, lsr #32
    90a0:	5a000020 	bpl	9128 <delay_ms+0x8>
    90a4:	2010001c 	andscs	r0, r0, ip, lsl r0

000090a8 <timer_get_usec_raw>:
    90a8:	e59f0000 	ldr	r0, [pc]	; 90b0 <timer_get_usec_raw+0x8>
    90ac:	eafffbde 	b	802c <GET32>
    90b0:	20003004 	andcs	r3, r0, r4

000090b4 <timer_get_usec>:
    90b4:	e92d4010 	push	{r4, lr}
    90b8:	eb0000fb 	bl	94ac <dev_barrier>
    90bc:	e59f0010 	ldr	r0, [pc, #16]	; 90d4 <timer_get_usec+0x20>
    90c0:	ebfffbd9 	bl	802c <GET32>
    90c4:	e1a04000 	mov	r4, r0
    90c8:	eb0000f7 	bl	94ac <dev_barrier>
    90cc:	e1a00004 	mov	r0, r4
    90d0:	e8bd8010 	pop	{r4, pc}
    90d4:	20003004 	andcs	r3, r0, r4

000090d8 <delay_us>:
    90d8:	e92d41f0 	push	{r4, r5, r6, r7, r8, lr}
    90dc:	e1a06000 	mov	r6, r0
    90e0:	eb0000f1 	bl	94ac <dev_barrier>
    90e4:	e59f0030 	ldr	r0, [pc, #48]	; 911c <delay_us+0x44>
    90e8:	ebfffbcf 	bl	802c <GET32>
    90ec:	e1a05000 	mov	r5, r0
    90f0:	eb0000ed 	bl	94ac <dev_barrier>
    90f4:	e59f7020 	ldr	r7, [pc, #32]	; 911c <delay_us+0x44>
    90f8:	eb0000eb 	bl	94ac <dev_barrier>
    90fc:	e1a00007 	mov	r0, r7
    9100:	ebfffbc9 	bl	802c <GET32>
    9104:	e1a04000 	mov	r4, r0
    9108:	e0444005 	sub	r4, r4, r5
    910c:	eb0000e6 	bl	94ac <dev_barrier>
    9110:	e1540006 	cmp	r4, r6
    9114:	3afffff7 	bcc	90f8 <delay_us+0x20>
    9118:	e8bd81f0 	pop	{r4, r5, r6, r7, r8, pc}
    911c:	20003004 	andcs	r3, r0, r4

00009120 <delay_ms>:
    9120:	e92d41f0 	push	{r4, r5, r6, r7, r8, lr}
    9124:	e0604280 	rsb	r4, r0, r0, lsl #5
    9128:	e0800104 	add	r0, r0, r4, lsl #2
    912c:	e1a04180 	lsl	r4, r0, #3
    9130:	eb0000dd 	bl	94ac <dev_barrier>
    9134:	e59f0030 	ldr	r0, [pc, #48]	; 916c <delay_ms+0x4c>
    9138:	ebfffbbb 	bl	802c <GET32>
    913c:	e1a06000 	mov	r6, r0
    9140:	eb0000d9 	bl	94ac <dev_barrier>
    9144:	e59f7020 	ldr	r7, [pc, #32]	; 916c <delay_ms+0x4c>
    9148:	eb0000d7 	bl	94ac <dev_barrier>
    914c:	e1a00007 	mov	r0, r7
    9150:	ebfffbb5 	bl	802c <GET32>
    9154:	e1a05000 	mov	r5, r0
    9158:	e0455006 	sub	r5, r5, r6
    915c:	eb0000d2 	bl	94ac <dev_barrier>
    9160:	e1540005 	cmp	r4, r5
    9164:	8afffff7 	bhi	9148 <delay_ms+0x28>
    9168:	e8bd81f0 	pop	{r4, r5, r6, r7, r8, pc}
    916c:	20003004 	andcs	r3, r0, r4

00009170 <delay_sec>:
    9170:	e92d41f0 	push	{r4, r5, r6, r7, r8, lr}
    9174:	e0604280 	rsb	r4, r0, r0, lsl #5
    9178:	e0644304 	rsb	r4, r4, r4, lsl #6
    917c:	e0800184 	add	r0, r0, r4, lsl #3
    9180:	e1a04300 	lsl	r4, r0, #6
    9184:	eb0000c8 	bl	94ac <dev_barrier>
    9188:	e59f0030 	ldr	r0, [pc, #48]	; 91c0 <delay_sec+0x50>
    918c:	ebfffba6 	bl	802c <GET32>
    9190:	e1a06000 	mov	r6, r0
    9194:	eb0000c4 	bl	94ac <dev_barrier>
    9198:	e59f7020 	ldr	r7, [pc, #32]	; 91c0 <delay_sec+0x50>
    919c:	eb0000c2 	bl	94ac <dev_barrier>
    91a0:	e1a00007 	mov	r0, r7
    91a4:	ebfffba0 	bl	802c <GET32>
    91a8:	e1a05000 	mov	r5, r0
    91ac:	e0455006 	sub	r5, r5, r6
    91b0:	eb0000bd 	bl	94ac <dev_barrier>
    91b4:	e1540005 	cmp	r4, r5
    91b8:	8afffff7 	bhi	919c <delay_sec+0x2c>
    91bc:	e8bd81f0 	pop	{r4, r5, r6, r7, r8, pc}
    91c0:	20003004 	andcs	r3, r0, r4

000091c4 <and_in32>:
    91c4:	e92d4070 	push	{r4, r5, r6, lr}
    91c8:	e1a04000 	mov	r4, r0
    91cc:	e1a05001 	mov	r5, r1
    91d0:	ebfffb95 	bl	802c <GET32>
    91d4:	e0001005 	and	r1, r0, r5
    91d8:	e1a00004 	mov	r0, r4
    91dc:	ebfffb90 	bl	8024 <PUT32>
    91e0:	e8bd8070 	pop	{r4, r5, r6, pc}

000091e4 <or_in32>:
    91e4:	e92d4070 	push	{r4, r5, r6, lr}
    91e8:	e1a04000 	mov	r4, r0
    91ec:	e1a05001 	mov	r5, r1
    91f0:	ebfffb8d 	bl	802c <GET32>
    91f4:	e1801005 	orr	r1, r0, r5
    91f8:	e1a00004 	mov	r0, r4
    91fc:	ebfffb88 	bl	8024 <PUT32>
    9200:	e8bd8070 	pop	{r4, r5, r6, pc}

00009204 <uart_init>:
    9204:	e92d4010 	push	{r4, lr}
    9208:	e3a01002 	mov	r1, #2, 0
    920c:	e3a0000e 	mov	r0, #14, 0
    9210:	ebfffc36 	bl	82f0 <gpio_set_function>
    9214:	e3a01002 	mov	r1, #2, 0
    9218:	e3a0000f 	mov	r0, #15, 0
    921c:	ebfffc33 	bl	82f0 <gpio_set_function>
    9220:	eb0000a1 	bl	94ac <dev_barrier>
    9224:	e3a01001 	mov	r1, #1, 0
    9228:	e59f0064 	ldr	r0, [pc, #100]	; 9294 <uart_init+0x90>
    922c:	ebffffec 	bl	91e4 <or_in32>
    9230:	eb00009d 	bl	94ac <dev_barrier>
    9234:	e59f405c 	ldr	r4, [pc, #92]	; 9298 <uart_init+0x94>
    9238:	e3a01000 	mov	r1, #0, 0
    923c:	e1a00004 	mov	r0, r4
    9240:	ebfffb77 	bl	8024 <PUT32>
    9244:	e3a01000 	mov	r1, #0, 0
    9248:	e59f004c 	ldr	r0, [pc, #76]	; 929c <uart_init+0x98>
    924c:	ebfffb74 	bl	8024 <PUT32>
    9250:	e3a01003 	mov	r1, #3, 0
    9254:	e59f0044 	ldr	r0, [pc, #68]	; 92a0 <uart_init+0x9c>
    9258:	ebfffb71 	bl	8024 <PUT32>
    925c:	e3a01000 	mov	r1, #0, 0
    9260:	e59f003c 	ldr	r0, [pc, #60]	; 92a4 <uart_init+0xa0>
    9264:	ebfffb6e 	bl	8024 <PUT32>
    9268:	e3a010c7 	mov	r1, #199, 0	; 0xc7
    926c:	e59f0034 	ldr	r0, [pc, #52]	; 92a8 <uart_init+0xa4>
    9270:	ebfffb6b 	bl	8024 <PUT32>
    9274:	e59f1030 	ldr	r1, [pc, #48]	; 92ac <uart_init+0xa8>
    9278:	e59f0030 	ldr	r0, [pc, #48]	; 92b0 <uart_init+0xac>
    927c:	ebfffb68 	bl	8024 <PUT32>
    9280:	e3a01003 	mov	r1, #3, 0
    9284:	e1a00004 	mov	r0, r4
    9288:	ebfffb65 	bl	8024 <PUT32>
    928c:	eb000086 	bl	94ac <dev_barrier>
    9290:	e8bd8010 	pop	{r4, pc}
    9294:	20215004 	eorcs	r5, r1, r4
    9298:	20215060 	eorcs	r5, r1, r0, rrx
    929c:	20215044 	eorcs	r5, r1, r4, asr #32
    92a0:	2021504c 	eorcs	r5, r1, ip, asr #32
    92a4:	20215050 	eorcs	r5, r1, r0, asr r0
    92a8:	20215048 	eorcs	r5, r1, r8, asr #32
    92ac:	0000010e 	andeq	r0, r0, lr, lsl #2
    92b0:	20215068 	eorcs	r5, r1, r8, rrx

000092b4 <uart_can_getc>:
    92b4:	e92d4010 	push	{r4, lr}
    92b8:	e59f0008 	ldr	r0, [pc, #8]	; 92c8 <uart_can_getc+0x14>
    92bc:	ebfffb5a 	bl	802c <GET32>
    92c0:	e2000001 	and	r0, r0, #1, 0
    92c4:	e8bd8010 	pop	{r4, pc}
    92c8:	20215064 	eorcs	r5, r1, r4, rrx

000092cc <uart_can_putc>:
    92cc:	e92d4010 	push	{r4, lr}
    92d0:	e59f0010 	ldr	r0, [pc, #16]	; 92e8 <uart_can_putc+0x1c>
    92d4:	ebfffb54 	bl	802c <GET32>
    92d8:	e3100002 	tst	r0, #2, 0
    92dc:	13a00001 	movne	r0, #1, 0
    92e0:	03a00000 	moveq	r0, #0, 0
    92e4:	e8bd8010 	pop	{r4, pc}
    92e8:	20215064 	eorcs	r5, r1, r4, rrx

000092ec <uart_getc>:
    92ec:	e92d4010 	push	{r4, lr}
    92f0:	eb00006d 	bl	94ac <dev_barrier>
    92f4:	ebffffee 	bl	92b4 <uart_can_getc>
    92f8:	e3500000 	cmp	r0, #0, 0
    92fc:	0afffffc 	beq	92f4 <uart_getc+0x8>
    9300:	e59f0010 	ldr	r0, [pc, #16]	; 9318 <uart_getc+0x2c>
    9304:	ebfffb48 	bl	802c <GET32>
    9308:	e6ef4070 	uxtb	r4, r0
    930c:	eb000066 	bl	94ac <dev_barrier>
    9310:	e1a00004 	mov	r0, r4
    9314:	e8bd8010 	pop	{r4, pc}
    9318:	20215040 	eorcs	r5, r1, r0, asr #32

0000931c <uart_putc>:
    931c:	e92d4010 	push	{r4, lr}
    9320:	e1a04000 	mov	r4, r0
    9324:	eb000060 	bl	94ac <dev_barrier>
    9328:	ebffffe7 	bl	92cc <uart_can_putc>
    932c:	e3500000 	cmp	r0, #0, 0
    9330:	0afffffc 	beq	9328 <uart_putc+0xc>
    9334:	e6ef1074 	uxtb	r1, r4
    9338:	e59f0008 	ldr	r0, [pc, #8]	; 9348 <uart_putc+0x2c>
    933c:	ebfffb38 	bl	8024 <PUT32>
    9340:	eb000059 	bl	94ac <dev_barrier>
    9344:	e8bd8010 	pop	{r4, pc}
    9348:	20215040 	eorcs	r5, r1, r0, asr #32

0000934c <uart_has_data>:
    934c:	e92d4010 	push	{r4, lr}
    9350:	eb000055 	bl	94ac <dev_barrier>
    9354:	ebffffd6 	bl	92b4 <uart_can_getc>
    9358:	e8bd8010 	pop	{r4, pc}

0000935c <uart_tx_is_empty>:
    935c:	e92d4010 	push	{r4, lr}
    9360:	eb000051 	bl	94ac <dev_barrier>
    9364:	e59f000c 	ldr	r0, [pc, #12]	; 9378 <uart_tx_is_empty+0x1c>
    9368:	ebfffb2f 	bl	802c <GET32>
    936c:	e1a004a0 	lsr	r0, r0, #9
    9370:	e2000001 	and	r0, r0, #1, 0
    9374:	e8bd8010 	pop	{r4, pc}
    9378:	20215064 	eorcs	r5, r1, r4, rrx

0000937c <uart_flush_tx>:
    937c:	e92d4010 	push	{r4, lr}
    9380:	ebfffff5 	bl	935c <uart_tx_is_empty>
    9384:	e3500000 	cmp	r0, #0, 0
    9388:	0afffffc 	beq	9380 <uart_flush_tx+0x4>
    938c:	e8bd8010 	pop	{r4, pc}

00009390 <uart_disable>:
    9390:	e92d4010 	push	{r4, lr}
    9394:	ebfffff8 	bl	937c <uart_flush_tx>
    9398:	eb000043 	bl	94ac <dev_barrier>
    939c:	e3e01001 	mvn	r1, #1, 0
    93a0:	e59f0008 	ldr	r0, [pc, #8]	; 93b0 <uart_disable+0x20>
    93a4:	ebffff86 	bl	91c4 <and_in32>
    93a8:	eb00003f 	bl	94ac <dev_barrier>
    93ac:	e8bd8010 	pop	{r4, pc}
    93b0:	20215004 	eorcs	r5, r1, r4

000093b4 <internal_putchar>:
    93b4:	e92d4010 	push	{r4, lr}
    93b8:	e1a04000 	mov	r4, r0
    93bc:	ebffffd6 	bl	931c <uart_putc>
    93c0:	e1a00004 	mov	r0, r4
    93c4:	e8bd8010 	pop	{r4, pc}

000093c8 <rpi_reset_putc>:
    93c8:	e59f3008 	ldr	r3, [pc, #8]	; 93d8 <rpi_reset_putc+0x10>
    93cc:	e59f2008 	ldr	r2, [pc, #8]	; 93dc <rpi_reset_putc+0x14>
    93d0:	e5832000 	str	r2, [r3]
    93d4:	e12fff1e 	bx	lr
    93d8:	00009678 	andeq	r9, r0, r8, ror r6
    93dc:	000093b4 			; <UNDEFINED> instruction: 0x000093b4

000093e0 <rpi_set_putc>:
    93e0:	e59f3004 	ldr	r3, [pc, #4]	; 93ec <rpi_set_putc+0xc>
    93e4:	e5830000 	str	r0, [r3]
    93e8:	e12fff1e 	bx	lr
    93ec:	00009678 	andeq	r9, r0, r8, ror r6

000093f0 <strcat>:
    93f0:	e1a02000 	mov	r2, r0
    93f4:	e1a03002 	mov	r3, r2
    93f8:	e4d2c001 	ldrb	ip, [r2], #1
    93fc:	e35c0000 	cmp	ip, #0, 0
    9400:	1afffffb 	bne	93f4 <strcat+0x4>
    9404:	e2433001 	sub	r3, r3, #1, 0
    9408:	e4d12001 	ldrb	r2, [r1], #1
    940c:	e3520000 	cmp	r2, #0, 0
    9410:	e5e32001 	strb	r2, [r3, #1]!
    9414:	1afffffb 	bne	9408 <strcat+0x18>
    9418:	e12fff1e 	bx	lr

0000941c <strcmp>:
    941c:	e5d03000 	ldrb	r3, [r0]
    9420:	e3530000 	cmp	r3, #0, 0
    9424:	05d12000 	ldrbeq	r2, [r1]
    9428:	1a000003 	bne	943c <strcmp+0x20>
    942c:	ea000006 	b	944c <strcmp+0x30>
    9430:	e5f03001 	ldrb	r3, [r0, #1]!
    9434:	e3530000 	cmp	r3, #0, 0
    9438:	0a000005 	beq	9454 <strcmp+0x38>
    943c:	e1a0c001 	mov	ip, r1
    9440:	e4d12001 	ldrb	r2, [r1], #1
    9444:	e1520003 	cmp	r2, r3
    9448:	0afffff8 	beq	9430 <strcmp+0x14>
    944c:	e0430002 	sub	r0, r3, r2
    9450:	e12fff1e 	bx	lr
    9454:	e5dc2001 	ldrb	r2, [ip, #1]
    9458:	e0430002 	sub	r0, r3, r2
    945c:	e12fff1e 	bx	lr

00009460 <strcpy>:
    9460:	e2402001 	sub	r2, r0, #1, 0
    9464:	e4d13001 	ldrb	r3, [r1], #1
    9468:	e3530000 	cmp	r3, #0, 0
    946c:	e5e23001 	strb	r3, [r2, #1]!
    9470:	1afffffb 	bne	9464 <strcpy+0x4>
    9474:	e12fff1e 	bx	lr

00009478 <strncmp>:
    9478:	e0802002 	add	r2, r0, r2
    947c:	ea000003 	b	9490 <strncmp+0x18>
    9480:	e4d03001 	ldrb	r3, [r0], #1
    9484:	e4d1c001 	ldrb	ip, [r1], #1
    9488:	e153000c 	cmp	r3, ip
    948c:	1a000003 	bne	94a0 <strncmp+0x28>
    9490:	e1500002 	cmp	r0, r2
    9494:	1afffff9 	bne	9480 <strncmp+0x8>
    9498:	e3a00000 	mov	r0, #0, 0
    949c:	e12fff1e 	bx	lr
    94a0:	e043000c 	sub	r0, r3, ip
    94a4:	e12fff1e 	bx	lr

000094a8 <reboot_callout>:
    94a8:	e12fff1e 	bx	lr

000094ac <dev_barrier>:
    94ac:	ea000002 	b	94bc <dsb>

000094b0 <dmb>:
    94b0:	e3a00000 	mov	r0, #0, 0
    94b4:	ee070fba 	mcr	15, 0, r0, cr7, cr10, {5}
    94b8:	e12fff1e 	bx	lr

000094bc <dsb>:
    94bc:	ee070f9a 	mcr	15, 0, r0, cr7, cr10, {4}
    94c0:	e12fff1e 	bx	lr

000094c4 <__code_end__>:
    94c4:	00000000 	andeq	r0, r0, r0

Disassembly of section .rodata:

000094c8 <__FUNCTION__.4000-0x17c>:
    94c8:	65707865 	ldrbvs	r7, [r0, #-2149]!	; 0xfffff79b
    94cc:	64657463 	strbtvs	r7, [r5], #-1123	; 0xfffffb9d
    94d0:	20642520 	rsbcs	r2, r4, r0, lsr #10
    94d4:	6c637963 			; <UNDEFINED> instruction: 0x6c637963
    94d8:	202c7365 	eorcs	r7, ip, r5, ror #6
    94dc:	65766168 	ldrbvs	r6, [r6, #-360]!	; 0xfffffe98
    94e0:	2c642520 	cfstr64cs	mvdx2, [r4], #-128	; 0xffffff80
    94e4:	253d7620 	ldrcs	r7, [sp, #-1568]!	; 0xfffff9e0
    94e8:	00000a64 	andeq	r0, r0, r4, ror #20
    94ec:	696c2f2e 	stmdbvs	ip!, {r1, r2, r3, r5, r8, r9, sl, fp, sp}^
    94f0:	762f6362 	strtvc	r6, [pc], -r2, ror #6
    94f4:	72702d61 	rsbsvc	r2, r0, #6208	; 0x1840
    94f8:	6b746e69 	blvs	1d24ea4 <__bss_end__+0x1d1b424>
    94fc:	0000632e 	andeq	r6, r0, lr, lsr #6
    9500:	494e4150 	stmdbmi	lr, {r4, r6, r8, lr}^
    9504:	73253a43 			; <UNDEFINED> instruction: 0x73253a43
    9508:	3a73253a 	bcc	1cd29f8 <__bss_end__+0x1cc8f78>
    950c:	253a6425 	ldrcs	r6, [sl, #-1061]!	; 0xfffffbdb
    9510:	00000a73 	andeq	r0, r0, r3, ror sl
    9514:	00000030 	andeq	r0, r0, r0, lsr r0
    9518:	33323130 	teqcc	r2, #12
    951c:	37363534 			; <UNDEFINED> instruction: 0x37363534
    9520:	62613938 	rsbvs	r3, r1, #56, 18	; 0xe0000
    9524:	66656463 	strbtvs	r6, [r5], -r3, ror #8
    9528:	00000000 	andeq	r0, r0, r0
    952c:	00003130 	andeq	r3, r0, r0, lsr r1
    9530:	33323130 	teqcc	r2, #12
    9534:	37363534 			; <UNDEFINED> instruction: 0x37363534
    9538:	00003938 	andeq	r3, r0, r8, lsr r9
    953c:	63747570 	cmnvs	r4, #112, 10	; 0x1c000000
    9540:	0070665f 	rsbseq	r6, r0, pc, asr r6
    9544:	74646977 	strbtvc	r6, [r4], #-2423	; 0xfffff689
    9548:	203c2068 	eorscs	r2, ip, r8, rrx
    954c:	00003233 	andeq	r3, r0, r3, lsr r2
    9550:	00786c6c 	rsbseq	r6, r8, ip, ror #24
    9554:	253d3078 	ldrcs	r3, [sp, #-120]!	; 0xffffff88
    9558:	00000a78 	andeq	r0, r0, r8, ror sl
    955c:	253d3178 	ldrcs	r3, [sp, #-376]!	; 0xfffffe88
    9560:	00000a78 	andeq	r0, r0, r8, ror sl
    9564:	00646c6c 	rsbeq	r6, r4, ip, ror #24
    9568:	6e727473 	mrcvs	4, 3, r7, cr2, cr3, {3}
    956c:	28706d63 	ldmdacs	r0!, {r0, r1, r5, r6, r8, sl, fp, sp, lr}^
    9570:	202c7974 	eorcs	r7, ip, r4, ror r9
    9574:	786c6c22 	stmdavc	ip!, {r1, r5, sl, fp, sp, lr}^
    9578:	33202c22 			; <UNDEFINED> instruction: 0x33202c22
    957c:	3d3d2029 	ldccc	0, cr2, [sp, #-164]!	; 0xffffff5c
    9580:	7c203020 	stcvc	0, cr3, [r0], #-128	; 0xffffff80
    9584:	7473207c 	ldrbtvc	r2, [r3], #-124	; 0xffffff84
    9588:	6d636e72 	stclvs	14, cr6, [r3, #-456]!	; 0xfffffe38
    958c:	79742870 	ldmdbvc	r4!, {r4, r5, r6, fp, sp}^
    9590:	6c22202c 	stcvs	0, cr2, [r2], #-176	; 0xffffff50
    9594:	2c22646c 	cfstrscs	mvf6, [r2], #-432	; 0xfffffe50
    9598:	20293320 	eorcs	r3, r9, r0, lsr #6
    959c:	30203d3d 	eorcc	r3, r0, sp, lsr sp
    95a0:	00000000 	andeq	r0, r0, r0
    95a4:	494e4150 	stmdbmi	lr, {r4, r6, r8, lr}^
    95a8:	73253a43 			; <UNDEFINED> instruction: 0x73253a43
    95ac:	3a73253a 	bcc	1cd2a9c <__bss_end__+0x1cc901c>
    95b0:	693a6425 	ldmdbvs	sl!, {r0, r2, r5, sl, sp, lr}
    95b4:	736f706d 	cmnvc	pc, #109, 0	; 0x6d
    95b8:	6c626973 			; <UNDEFINED> instruction: 0x6c626973
    95bc:	66203a65 	strtvs	r3, [r0], -r5, ror #20
    95c0:	3c3d746d 	cfldrscc	mvf7, [sp], #-436	; 0xfffffe4c
    95c4:	0a3e7325 	beq	fa6260 <__bss_end__+0xf9c7e0>
    95c8:	0000000a 	andeq	r0, r0, sl
    95cc:	494e4150 	stmdbmi	lr, {r4, r6, r8, lr}^
    95d0:	73253a43 			; <UNDEFINED> instruction: 0x73253a43
    95d4:	3a73253a 	bcc	1cd2ac4 <__bss_end__+0x1cc9044>
    95d8:	663a6425 	ldrtvs	r6, [sl], -r5, lsr #8
    95dc:	74616f6c 	strbtvc	r6, [r1], #-3948	; 0xfffff094
    95e0:	746f6e20 	strbtvc	r6, [pc], #-3616	; 95e8 <__code_end__+0x124>
    95e4:	616e6520 	cmnvs	lr, r0, lsr #10
    95e8:	64656c62 	strbtvs	r6, [r5], #-3170	; 0xfffff39e
    95ec:	0a212121 	beq	851a78 <__bss_end__+0x847ff8>
    95f0:	00000000 	andeq	r0, r0, r0
    95f4:	6e697270 	mcrvs	2, 3, r7, cr9, cr0, {3}
    95f8:	203a6b74 	eorscs	r6, sl, r4, ror fp
    95fc:	20746f6e 	rsbscs	r6, r4, lr, ror #30
    9600:	646e6168 	strbtvs	r6, [lr], #-360	; 0xfffffe98
    9604:	676e696c 	strbvs	r6, [lr, -ip, ror #18]!
    9608:	65707320 	ldrbvs	r7, [r0, #-800]!	; 0xfffffce0
    960c:	69666963 	stmdbvs	r6!, {r0, r1, r5, r6, r8, fp, sp, lr}^
    9610:	27207265 	strcs	r7, [r0, -r5, ror #4]!
    9614:	20276325 	eorcs	r6, r7, r5, lsr #6
    9618:	63736128 	cmnvs	r3, #10
    961c:	253d6969 	ldrcs	r6, [sp, #-2409]!	; 0xfffff697
    9620:	000a2964 	andeq	r2, sl, r4, ror #18
    9624:	494e4150 	stmdbmi	lr, {r4, r6, r8, lr}^
    9628:	73253a43 			; <UNDEFINED> instruction: 0x73253a43
    962c:	3a73253a 	bcc	1cd2b1c <__bss_end__+0x1cc909c>
    9630:	703a6425 	eorsvc	r6, sl, r5, lsr #8
    9634:	746e6972 	strbtvc	r6, [lr], #-2418	; 0xfffff68e
    9638:	7265206b 	rsbvc	r2, r5, #107, 0	; 0x6b
    963c:	0a726f72 	beq	1ca540c <__bss_end__+0x1c9b98c>
    9640:	0000000a 	andeq	r0, r0, sl

00009644 <__FUNCTION__.4000>:
    9644:	74696d65 	strbtvc	r6, [r9], #-3429	; 0xfffff29b
    9648:	00000000 	andeq	r0, r0, r0

0000964c <__FUNCTION__.3948>:
    964c:	5f697072 	svcpl	0x00697072
    9650:	5f746573 	svcpl	0x00746573
    9654:	7074756f 	rsbsvc	r7, r4, pc, ror #10
    9658:	00007475 	andeq	r7, r0, r5, ror r4

0000965c <__FUNCTION__.4026>:
    965c:	705f6176 	subsvc	r6, pc, r6, ror r1	; <UNPREDICTABLE>
    9660:	746e6972 	strbtvc	r6, [lr], #-2418	; 0xfffff68e
    9664:	0000006b 	andeq	r0, r0, fp, rrx
    9668:	454e4f44 	strbmi	r4, [lr, #-3908]	; 0xfffff0bc
    966c:	0a212121 	beq	851af8 <__bss_end__+0x848078>
	...

Disassembly of section .data:

00009674 <putk>:
    9674:	000084e8 	andeq	r8, r0, r8, ror #9

00009678 <rpi_putchar>:
    9678:	000093b4 			; <UNDEFINED> instruction: 0x000093b4

Disassembly of section .bss:

0000967c <__bss_start__>:
	...

Disassembly of section .ARM.attributes:

00000000 <.ARM.attributes>:
   0:	00002a41 	andeq	r2, r0, r1, asr #20
   4:	61656100 	cmnvs	r5, r0, lsl #2
   8:	01006962 	tsteq	r0, r2, ror #18
   c:	00000020 	andeq	r0, r0, r0, lsr #32
  10:	4b5a3605 	blmi	168d82c <__bss_end__+0x1683dac>
  14:	08070600 	stmdaeq	r7, {r9, sl}
  18:	12010901 	andne	r0, r1, #16384	; 0x4000
  1c:	15011404 	strne	r1, [r1, #-1028]	; 0xfffffbfc
  20:	18031701 	stmdane	r3, {r0, r8, r9, sl, ip}
  24:	22011a01 	andcs	r1, r1, #4096	; 0x1000
  28:	Address 0x0000000000000028 is out of bounds.


Disassembly of section .comment:

00000000 <.comment>:
   0:	3a434347 	bcc	10d0d24 <__bss_end__+0x10c72a4>
   4:	4e472820 	cdpmi	8, 4, cr2, cr7, cr0, {1}
   8:	6f542055 	svcvs	0x00542055
   c:	20736c6f 	rsbscs	r6, r3, pc, ror #24
  10:	20726f66 	rsbscs	r6, r2, r6, ror #30
  14:	206d7241 	rsbcs	r7, sp, r1, asr #4
  18:	65626d45 	strbvs	r6, [r2, #-3397]!	; 0xfffff2bb
  1c:	64656464 	strbtvs	r6, [r5], #-1124	; 0xfffffb9c
  20:	6f725020 	svcvs	0x00725020
  24:	73736563 	cmnvc	r3, #415236096	; 0x18c00000
  28:	2073726f 	rsbscs	r7, r3, pc, ror #4
  2c:	30322d39 	eorscc	r2, r2, r9, lsr sp
  30:	712d3931 			; <UNDEFINED> instruction: 0x712d3931
  34:	616d2d34 	cmnvs	sp, r4, lsr sp
  38:	29726f6a 	ldmdbcs	r2!, {r1, r3, r5, r6, r8, r9, sl, fp, sp, lr}^
  3c:	322e3920 	eorcc	r3, lr, #32, 18	; 0x80000
  40:	3220312e 	eorcc	r3, r0, #-2147483637	; 0x8000000b
  44:	31393130 	teqcc	r9, r0, lsr r1
  48:	20353230 	eorscs	r3, r5, r0, lsr r2
  4c:	6c657228 	sfmvs	f7, 2, [r5], #-160	; 0xffffff60
  50:	65736165 	ldrbvs	r6, [r3, #-357]!	; 0xfffffe9b
  54:	415b2029 	cmpmi	fp, r9, lsr #32
  58:	612f4d52 			; <UNDEFINED> instruction: 0x612f4d52
  5c:	392d6d72 	pushcc	{r1, r4, r5, r6, r8, sl, fp, sp, lr}
  60:	6172622d 	cmnvs	r2, sp, lsr #4
  64:	2068636e 	rsbcs	r6, r8, lr, ror #6
  68:	69766572 	ldmdbvs	r6!, {r1, r4, r5, r6, r8, sl, sp, lr}^
  6c:	6e6f6973 			; <UNDEFINED> instruction: 0x6e6f6973
  70:	37373220 	ldrcc	r3, [r7, -r0, lsr #4]!
  74:	5d393935 			; <UNDEFINED> instruction: 0x5d393935
  78:	43434700 	movtmi	r4, #14080	; 0x3700
  7c:	4728203a 			; <UNDEFINED> instruction: 0x4728203a
  80:	5420554e 	strtpl	r5, [r0], #-1358	; 0xfffffab2
  84:	636c6f6f 	cmnvs	ip, #444	; 0x1bc
  88:	6e696168 	powvsez	f6, f1, #0.0
  8c:	726f6620 	rsbvc	r6, pc, #32, 12	; 0x2000000
  90:	65687420 	strbvs	r7, [r8, #-1056]!	; 0xfffffbe0
  94:	6d724120 	ldfvse	f4, [r2, #-128]!	; 0xffffff80
  98:	63724120 	cmnvs	r2, #8
  9c:	65746968 	ldrbvs	r6, [r4, #-2408]!	; 0xfffff698
  a0:	72757463 	rsbsvc	r7, r5, #1660944384	; 0x63000000
  a4:	31312065 	teqcc	r1, r5, rrx
  a8:	322d322e 	eorcc	r3, sp, #-536870910	; 0xe0000002
  ac:	2e323230 	mrccs	2, 1, r3, cr2, cr0, {1}
  b0:	28203230 	stmdacs	r0!, {r4, r5, r9, ip, sp}
  b4:	2d6d7261 	sfmcs	f7, 2, [sp, #-388]!	; 0xfffffe7c
  b8:	312e3131 			; <UNDEFINED> instruction: 0x312e3131
  bc:	20292934 	eorcs	r2, r9, r4, lsr r9
  c0:	322e3131 	eorcc	r3, lr, #1073741836	; 0x4000000c
  c4:	3220312e 	eorcc	r3, r0, #-2147483637	; 0x8000000b
  c8:	30323230 	eorscc	r3, r2, r0, lsr r2
  cc:	00313131 	eorseq	r3, r1, r1, lsr r1
  d0:	3a434347 	bcc	10d0df4 <__bss_end__+0x10c7374>
  d4:	4e472820 	cdpmi	8, 4, cr2, cr7, cr0, {1}
  d8:	72412055 	subvc	r2, r1, #85, 0	; 0x55
  dc:	6d45206d 	stclvs	0, cr2, [r5, #-436]	; 0xfffffe4c
  e0:	64646562 	strbtvs	r6, [r4], #-1378	; 0xfffffa9e
  e4:	54206465 	strtpl	r6, [r0], #-1125	; 0xfffffb9b
  e8:	636c6f6f 	cmnvs	ip, #444	; 0x1bc
  ec:	6e696168 	powvsez	f6, f1, #0.0
  f0:	2e303120 	rsfcssp	f3, f0, f0
  f4:	30322d33 	eorscc	r2, r2, r3, lsr sp
  f8:	312e3132 			; <UNDEFINED> instruction: 0x312e3132
  fc:	31202930 			; <UNDEFINED> instruction: 0x31202930
 100:	2e332e30 	mrccs	14, 1, r2, cr3, cr0, {1}
 104:	30322031 	eorscc	r2, r2, r1, lsr r0
 108:	38303132 	ldmdacc	r0!, {r1, r4, r5, r8, ip, sp}
 10c:	28203432 	stmdacs	r0!, {r1, r4, r5, sl, ip, sp}
 110:	656c6572 	strbvs	r6, [ip, #-1394]!	; 0xfffffa8e
 114:	29657361 	stmdbcs	r5!, {r0, r5, r6, r8, r9, ip, sp, lr}^
	...

Disassembly of section .debug_info:

00000000 <.debug_info>:
       0:	00000577 	andeq	r0, r0, r7, ror r5
       4:	00000004 	andeq	r0, r0, r4
       8:	01040000 	mrseq	r0, (UNDEF: 4)
       c:	00000093 	muleq	r0, r3, r0
      10:	00000a0c 	andeq	r0, r0, ip, lsl #20
      14:	00018300 	andeq	r8, r1, r0, lsl #6
      18:	00803800 	addeq	r3, r0, r0, lsl #16
      1c:	0002b800 	andeq	fp, r2, r0, lsl #16
      20:	00000000 	andeq	r0, r0, r0
      24:	05040200 	streq	r0, [r4, #-512]	; 0xfffffe00
      28:	00746e69 	rsbseq	r6, r4, r9, ror #28
      2c:	39070403 	stmdbcc	r7, {r0, r1, sl}
      30:	04000000 	streq	r0, [r0], #-0
      34:	0000002c 	andeq	r0, r0, ip, lsr #32
      38:	48060103 	stmdami	r6, {r0, r1, r8}
      3c:	03000000 	movweq	r0, #0
      40:	016c0502 	cmneq	ip, r2, lsl #10
      44:	04030000 	streq	r0, [r3], #-0
      48:	00015705 	andeq	r5, r1, r5, lsl #14
      4c:	05080300 	streq	r0, [r8, #-768]	; 0xfffffd00
      50:	00000152 	andeq	r0, r0, r2, asr r1
      54:	46080103 	strmi	r0, [r8], -r3, lsl #2
      58:	03000000 	movweq	r0, #0
      5c:	005d0702 	subseq	r0, sp, r2, lsl #14
      60:	04030000 	streq	r0, [r3], #-0
      64:	00003407 	andeq	r3, r0, r7, lsl #8
      68:	07080300 	streq	r0, [r8, -r0, lsl #6]
      6c:	0000002f 	andeq	r0, r0, pc, lsr #32
      70:	00002505 	andeq	r2, r0, r5, lsl #10
      74:	00007f00 	andeq	r7, r0, r0, lsl #30
      78:	00250600 	eoreq	r0, r5, r0, lsl #12
      7c:	07000000 	streq	r0, [r0, -r0]
      80:	00000160 	andeq	r0, r0, r0, ror #2
      84:	8b0e1c03 	blhi	387098 <__bss_end__+0x37d618>
      88:	08000000 	stmdaeq	r0, {}	; <UNPREDICTABLE>
      8c:	00007004 	andeq	r7, r0, r4
      90:	00250500 	eoreq	r0, r5, r0, lsl #10
      94:	00a00000 	adceq	r0, r0, r0
      98:	a0060000 	andge	r0, r6, r0
      9c:	00000000 	andeq	r0, r0, r0
      a0:	00ad0408 	adceq	r0, sp, r8, lsl #8
      a4:	01030000 	mrseq	r0, (UNDEF: 3)
      a8:	00004f08 	andeq	r4, r0, r8, lsl #30
      ac:	00a60900 	adceq	r0, r6, r0, lsl #18
      b0:	e0070000 	and	r0, r7, r0
      b4:	03000003 	movweq	r0, #3
      b8:	00be0e21 	adcseq	r0, lr, r1, lsr #28
      bc:	04080000 	streq	r0, [r8], #-0
      c0:	00000091 	muleq	r0, r1, r0
      c4:	0001cc0a 	andeq	ip, r1, sl, lsl #24
      c8:	1b0c0100 	blne	3004d0 <__bss_end__+0x2f6a50>
      cc:	000000d0 	ldrdeq	r0, [r0], -r0	; <UNPREDICTABLE>
      d0:	00330408 	eorseq	r0, r3, r8, lsl #8
      d4:	000a0000 	andeq	r0, sl, r0
      d8:	01000000 	mrseq	r0, (UNDEF: 0)
      dc:	00d01b0d 	sbcseq	r1, r0, sp, lsl #22
      e0:	270b0000 	strcs	r0, [fp, -r0]
      e4:	01000000 	mrseq	r0, (UNDEF: 0)
      e8:	817c0628 	cmnhi	ip, r8, lsr #12
      ec:	01740000 	cmneq	r4, r0
      f0:	9c010000 	stcls	0, cr0, [r1], {-0}
      f4:	000002e2 	andeq	r0, r0, r2, ror #5
      f8:	6e69700c 	cdpvs	0, 6, cr7, cr9, cr12, {0}
      fc:	092a0100 	stmdbeq	sl!, {r8}
     100:	00000025 	andeq	r0, r0, r5, lsr #32
     104:	818c0d15 	orrhi	r0, ip, r5, lsl sp
     108:	00080000 	andeq	r0, r8, r0
     10c:	011f0000 	tsteq	pc, r0
     110:	690c0000 	stmdbvs	ip, {}	; <UNPREDICTABLE>
     114:	2c01006e 	stccs	0, cr0, [r1], {110}	; 0x6e
     118:	00002c05 	andeq	r2, r0, r5, lsl #24
     11c:	0e000100 	adfeqs	f0, f0, f0
     120:	000002e2 	andeq	r0, r0, r2, ror #5
     124:	000081a8 	andeq	r8, r0, r8, lsr #3
     128:	00010803 	andeq	r0, r1, r3, lsl #16
     12c:	09300100 	ldmdbeq	r0!, {r8}
     130:	000002b4 			; <UNDEFINED> instruction: 0x000002b4
     134:	0002ef0f 	andeq	lr, r2, pc, lsl #30
     138:	00000200 	andeq	r0, r0, r0, lsl #4
     13c:	00000000 	andeq	r0, r0, r0
     140:	02fb0f00 	rscseq	r0, fp, #0, 30
     144:	00180000 	andseq	r0, r8, r0
     148:	00160000 	andseq	r0, r6, r0
     14c:	08100000 	ldmdaeq	r0, {}	; <UNPREDICTABLE>
     150:	11000001 	tstne	r0, r1
     154:	00000307 	andeq	r0, r0, r7, lsl #6
     158:	00000044 	andeq	r0, r0, r4, asr #32
     15c:	0000002e 	andeq	r0, r0, lr, lsr #32
     160:	00031311 	andeq	r1, r3, r1, lsl r3
     164:	0000e600 	andeq	lr, r0, r0, lsl #12
     168:	0000e400 	andeq	lr, r0, r0, lsl #8
     16c:	031f1200 	tsteq	pc, #0, 4
     170:	11010000 	mrsne	r0, (UNDEF: 1)
     174:	00000329 	andeq	r0, r0, r9, lsr #6
     178:	000000fb 	strdeq	r0, [r0], -fp
     17c:	000000f9 	strdeq	r0, [r0], -r9
     180:	00033511 	andeq	r3, r3, r1, lsl r5
     184:	00011300 	andeq	r1, r1, r0, lsl #6
     188:	00011100 	andeq	r1, r1, r0, lsl #2
     18c:	03531300 	cmpeq	r3, #0, 6
     190:	01200000 			; <UNDEFINED> instruction: 0x01200000
     194:	02580000 	subseq	r0, r8, #0, 0
     198:	58110000 	ldmdapl	r1, {}	; <UNPREDICTABLE>
     19c:	32000003 	andcc	r0, r0, #3, 0
     1a0:	26000001 	strcs	r0, [r0], -r1
     1a4:	0e000001 	cdpeq	0, 0, cr0, cr0, cr1, {0}
     1a8:	00000372 	andeq	r0, r0, r2, ror r3
     1ac:	000081b0 			; <UNDEFINED> instruction: 0x000081b0
     1b0:	00013802 	andeq	r3, r1, r2, lsl #16
     1b4:	091d0100 	ldmdbeq	sp, {r8}
     1b8:	00000201 	andeq	r0, r0, r1, lsl #4
     1bc:	00038f0f 	andeq	r8, r3, pc, lsl #30
     1c0:	00018c00 	andeq	r8, r1, r0, lsl #24
     1c4:	00018200 	andeq	r8, r1, r0, lsl #4
     1c8:	03830f00 	orreq	r0, r3, #0, 30
     1cc:	01e40000 	mvneq	r0, r0
     1d0:	01da0000 	bicseq	r0, sl, r0
     1d4:	38100000 	ldmdacc	r0, {}	; <UNPREDICTABLE>
     1d8:	11000001 	tstne	r0, r1
     1dc:	00000399 	muleq	r0, r9, r3
     1e0:	0000022d 	andeq	r0, r0, sp, lsr #4
     1e4:	00000223 	andeq	r0, r0, r3, lsr #4
     1e8:	0003a314 	andeq	sl, r3, r4, lsl r3
     1ec:	00019000 	andeq	r9, r1, r0
     1f0:	03a41100 			; <UNDEFINED> instruction: 0x03a41100
     1f4:	02760000 	rsbseq	r0, r6, #0, 0
     1f8:	026c0000 	rsbeq	r0, ip, #0, 0
     1fc:	00000000 	andeq	r0, r0, r0
     200:	03721500 	cmneq	r2, #0, 10
     204:	81c80000 	bichi	r0, r8, r0
     208:	c0020000 	andgt	r0, r2, r0
     20c:	01000001 	tsteq	r0, r1
     210:	8f0f0922 	svchi	0x000f0922
     214:	bf000003 	svclt	0x00000003
     218:	b5000002 	strlt	r0, [r0, #-2]
     21c:	0f000002 	svceq	0x00000002
     220:	00000383 	andeq	r0, r0, r3, lsl #7
     224:	00000317 	andeq	r0, r0, r7, lsl r3
     228:	0000030d 	andeq	r0, r0, sp, lsl #6
     22c:	00021810 	andeq	r1, r2, r0, lsl r8
     230:	03991100 	orrseq	r1, r9, #0
     234:	03600000 	cmneq	r0, #0, 0
     238:	03560000 	cmpeq	r6, #0, 0
     23c:	a3140000 	tstge	r4, #0, 0
     240:	70000003 	andvc	r0, r0, r3
     244:	11000002 	tstne	r0, r2
     248:	000003a4 	andeq	r0, r0, r4, lsr #7
     24c:	000003a9 	andeq	r0, r0, r9, lsr #7
     250:	0000039f 	muleq	r0, pc, r3	; <UNPREDICTABLE>
     254:	00000000 	andeq	r0, r0, r0
     258:	00034116 	andeq	r4, r3, r6, lsl r1
     25c:	0081a800 	addeq	sl, r1, r0, lsl #16
     260:	00000400 	andeq	r0, r0, r0, lsl #8
     264:	00027700 	andeq	r7, r2, r0, lsl #14
     268:	03461100 	movteq	r1, #24832	; 0x6100
     26c:	03ea0000 	mvneq	r0, #0, 0
     270:	03e80000 	mvneq	r0, #0, 0
     274:	16000000 	strne	r0, [r0], -r0
     278:	00000363 	andeq	r0, r0, r3, ror #6
     27c:	00008298 	muleq	r0, r8, r2
     280:	00000004 	andeq	r0, r0, r4
     284:	00000296 	muleq	r0, r6, r2
     288:	00036411 	andeq	r6, r3, r1, lsl r4
     28c:	0003ff00 	andeq	pc, r3, r0, lsl #30
     290:	0003fd00 	andeq	pc, r3, r0, lsl #26
     294:	b0170000 	andslt	r0, r7, r0
     298:	4a000082 	bmi	4a8 <__code_start__-0x7b58>
     29c:	18000005 	stmdane	r0, {r0, r2}
     2a0:	77025001 	strvc	r5, [r2, -r1]
     2a4:	51011800 	tstpl	r1, r0, lsl #16
     2a8:	ea600a03 	b	1802abc <__bss_end__+0x17f903c>
     2ac:	01530118 	cmpeq	r3, r8, lsl r1
     2b0:	00000031 	andeq	r0, r0, r1, lsr r0
     2b4:	00818419 	addeq	r8, r1, r9, lsl r4
     2b8:	00055600 	andeq	r5, r5, r0, lsl #12
     2bc:	818c1a00 	orrhi	r1, ip, r0, lsl #20
     2c0:	05620000 	strbeq	r0, [r2, #-0]!
     2c4:	02d00000 	sbcseq	r0, r0, #0, 0
     2c8:	01180000 	tsteq	r8, r0
     2cc:	00450150 	subeq	r0, r5, r0, asr r1
     2d0:	0082b817 	addeq	fp, r2, r7, lsl r8
     2d4:	00056e00 	andeq	r6, r5, r0, lsl #28
     2d8:	50011800 	andpl	r1, r1, r0, lsl #16
     2dc:	03e80a03 	mvneq	r0, #12288	; 0x3000
     2e0:	1e1b0000 	cdpne	0, 1, cr0, cr11, cr0, {0}
     2e4:	01000000 	mrseq	r0, (UNDEF: 0)
     2e8:	72010611 	andvc	r0, r1, #17825792	; 0x1100000
     2ec:	1c000003 	stcne	0, cr0, [r0], {3}
     2f0:	006e6970 	rsbeq	r6, lr, r0, ror r9
     2f4:	2c181101 	ldfcss	f1, [r8], {1}
     2f8:	1d000000 	stcne	0, cr0, [r0, #-0]
     2fc:	000001c5 	andeq	r0, r0, r5, asr #3
     300:	2c261101 	stfcss	f1, [r6], #-4
     304:	0a000000 	beq	30c <__code_start__-0x7cf4>
     308:	0000014b 	andeq	r0, r0, fp, asr #2
     30c:	2c0e1201 	sfmcs	f1, 4, [lr], {1}
     310:	0a000000 	beq	318 <__code_start__-0x7ce8>
     314:	00000497 	muleq	r0, r7, r4
     318:	2c0e1301 	stccs	3, cr1, [lr], {1}
     31c:	1e000000 	cdpne	0, 0, cr0, cr0, cr0, {0}
     320:	15010076 	strne	r0, [r1, #-118]	; 0xffffff8a
     324:	00002c0e 	andeq	r2, r0, lr, lsl #24
     328:	00150a00 	andseq	r0, r5, r0, lsl #20
     32c:	16010000 	strne	r0, [r1], -r0
     330:	00002c0e 	andeq	r2, r0, lr, lsl #24
     334:	6e651e00 	cdpvs	14, 6, cr1, cr5, cr0, {0}
     338:	24010064 	strcs	r0, [r1], #-100	; 0xffffff9c
     33c:	00002c0e 	andeq	r2, r0, lr, lsl #24
     340:	03531f00 	cmpeq	r3, #0, 30
     344:	8e0a0000 	cdphi	0, 0, cr0, cr10, cr0, {0}
     348:	01000000 	mrseq	r0, (UNDEF: 0)
     34c:	002c1613 	eoreq	r1, ip, r3, lsl r6
     350:	1f000000 	svcne	0x00000000
     354:	00000363 	andeq	r0, r0, r3, ror #6
     358:	0100691e 	tsteq	r0, lr, lsl r9
     35c:	002c1219 	eoreq	r1, ip, r9, lsl r2
     360:	20000000 	andcs	r0, r0, r0
     364:	00008e0a 	andeq	r8, r0, sl, lsl #28
     368:	14240100 	strtne	r0, [r4], #-256	; 0xffffff00
     36c:	0000002c 	andeq	r0, r0, ip, lsr #32
     370:	80210000 	eorhi	r0, r1, r0
     374:	02000000 	andeq	r0, r0, #0, 0
     378:	002c1809 	eoreq	r1, ip, r9, lsl #16
     37c:	b2030000 	andlt	r0, r3, #0, 0
     380:	1d000003 	stcne	0, cr0, [r0, #-12]
     384:	00000497 	muleq	r0, r7, r4
     388:	2c2f0902 			; <UNDEFINED> instruction: 0x2c2f0902
     38c:	1c000000 	stcne	0, cr0, [r0], {-0}
     390:	0902006e 	stmdbeq	r2, {r1, r2, r3, r5, r6}
     394:	00002c3f 	andeq	r2, r0, pc, lsr ip
     398:	00631e00 	rsbeq	r1, r3, r0, lsl #28
     39c:	2c0e0c02 	stccs	12, cr0, [lr], {2}
     3a0:	20000000 	andcs	r0, r0, r0
     3a4:	00008e0a 	andeq	r8, r0, sl, lsl #28
     3a8:	110d0200 	mrsne	r0, SP_fiq
     3ac:	0000002c 	andeq	r0, r0, ip, lsr #32
     3b0:	e2220000 	eor	r0, r2, #0, 0
     3b4:	38000002 	stmdacc	r0, {r1}
     3b8:	44000080 	strmi	r0, [r0], #-128	; 0xffffff80
     3bc:	01000001 	tsteq	r0, r1
     3c0:	00054a9c 	muleq	r5, ip, sl
     3c4:	02ef0f00 	rsceq	r0, pc, #0, 30
     3c8:	04160000 	ldreq	r0, [r6], #-0
     3cc:	04120000 	ldreq	r0, [r2], #-0
     3d0:	fb0f0000 	blx	3c03da <__bss_end__+0x3b695a>
     3d4:	3b000002 	blcc	3e4 <__code_start__-0x7c1c>
     3d8:	37000004 	strcc	r0, [r0, -r4]
     3dc:	11000004 	tstne	r0, r4
     3e0:	00000307 	andeq	r0, r0, r7, lsl #6
     3e4:	00000484 	andeq	r0, r0, r4, lsl #9
     3e8:	0000045c 	andeq	r0, r0, ip, asr r4
     3ec:	00031311 	andeq	r1, r3, r1, lsl r3
     3f0:	0005b500 	andeq	fp, r5, r0, lsl #10
     3f4:	0005b300 	andeq	fp, r5, r0, lsl #6
     3f8:	031f1200 	tsteq	pc, #0, 4
     3fc:	11010000 	mrsne	r0, (UNDEF: 1)
     400:	00000329 	andeq	r0, r0, r9, lsr #6
     404:	000005cc 	andeq	r0, r0, ip, asr #11
     408:	000005c8 	andeq	r0, r0, r8, asr #11
     40c:	00033511 	andeq	r3, r3, r1, lsl r5
     410:	0005f100 	andeq	pc, r5, r0, lsl #2
     414:	0005ef00 	andeq	lr, r5, r0, lsl #30
     418:	03411600 	movteq	r1, #5632	; 0x1600
     41c:	80380000 	eorshi	r0, r8, r0
     420:	00040000 	andeq	r0, r4, r0
     424:	04380000 	ldrteq	r0, [r8], #-0
     428:	46110000 	ldrmi	r0, [r1], -r0
     42c:	06000003 	streq	r0, [r0], -r3
     430:	04000006 	streq	r0, [r0], #-6
     434:	00000006 	andeq	r0, r0, r6
     438:	00035313 	andeq	r5, r3, r3, lsl r3
     43c:	00000000 	andeq	r0, r0, r0
     440:	00050300 	andeq	r0, r5, r0, lsl #6
     444:	03581100 	cmpeq	r8, #0
     448:	06250000 	strteq	r0, [r5], -r0
     44c:	06190000 	ldreq	r0, [r9], -r0
     450:	720e0000 	andvc	r0, lr, #0, 0
     454:	4c000003 	stcmi	0, cr0, [r0], {3}
     458:	02000080 	andeq	r0, r0, #128, 0	; 0x80
     45c:	00000018 	andeq	r0, r0, r8, lsl r0
     460:	ac091d01 	stcge	13, cr1, [r9], {1}
     464:	0f000004 	svceq	0x00000004
     468:	0000038f 	andeq	r0, r0, pc, lsl #7
     46c:	0000067f 	andeq	r0, r0, pc, ror r6
     470:	00000675 	andeq	r0, r0, r5, ror r6
     474:	0003830f 	andeq	r8, r3, pc, lsl #6
     478:	0006c800 	andeq	ip, r6, r0, lsl #16
     47c:	0006be00 	andeq	fp, r6, r0, lsl #28
     480:	00181000 	andseq	r1, r8, r0
     484:	99110000 	ldmdbls	r1, {}	; <UNPREDICTABLE>
     488:	11000003 	tstne	r0, r3
     48c:	07000007 	streq	r0, [r0, -r7]
     490:	14000007 	strne	r0, [r0], #-7
     494:	000003a3 	andeq	r0, r0, r3, lsr #7
     498:	00000048 	andeq	r0, r0, r8, asr #32
     49c:	0003a411 	andeq	sl, r3, r1, lsl r4
     4a0:	00075a00 	andeq	r5, r7, r0, lsl #20
     4a4:	00075000 	andeq	r5, r7, r0
     4a8:	00000000 	andeq	r0, r0, r0
     4ac:	00037215 	andeq	r7, r3, r5, lsl r2
     4b0:	00806800 	addeq	r6, r0, r0, lsl #16
     4b4:	00780200 	rsbseq	r0, r8, r0, lsl #4
     4b8:	22010000 	andcs	r0, r1, #0, 0
     4bc:	038f0f09 	orreq	r0, pc, #9, 30	; 0x24
     4c0:	07a30000 	streq	r0, [r3, r0]!
     4c4:	07990000 	ldreq	r0, [r9, r0]
     4c8:	830f0000 	movwhi	r0, #61440	; 0xf000
     4cc:	f5000003 			; <UNDEFINED> instruction: 0xf5000003
     4d0:	eb000007 	bl	4f4 <__code_start__-0x7b0c>
     4d4:	10000007 	andne	r0, r0, r7
     4d8:	000000a8 	andeq	r0, r0, r8, lsr #1
     4dc:	00039911 	andeq	r9, r3, r1, lsl r9
     4e0:	00083e00 	andeq	r3, r8, r0, lsl #28
     4e4:	00083400 	andeq	r3, r8, r0, lsl #8
     4e8:	03a31400 			; <UNDEFINED> instruction: 0x03a31400
     4ec:	00d80000 	sbcseq	r0, r8, r0
     4f0:	a4110000 	ldrge	r0, [r1], #-0
     4f4:	87000003 	strhi	r0, [r0, -r3]
     4f8:	7d000008 	stcvc	0, cr0, [r0, #-32]	; 0xffffffe0
     4fc:	00000008 	andeq	r0, r0, r8
     500:	16000000 	strne	r0, [r0], -r0
     504:	00000363 	andeq	r0, r0, r3, ror #6
     508:	00008158 	andeq	r8, r0, r8, asr r1
     50c:	00000004 	andeq	r0, r0, r4
     510:	00000522 	andeq	r0, r0, r2, lsr #10
     514:	00036411 	andeq	r6, r3, r1, lsl r4
     518:	0008c800 	andeq	ip, r8, r0, lsl #16
     51c:	0008c600 	andeq	ip, r8, r0, lsl #12
     520:	74230000 	strtvc	r0, [r3], #-0
     524:	4a000081 	bmi	730 <__code_start__-0x78d0>
     528:	18000005 	stmdane	r0, {r0, r2}
     52c:	03055001 	movweq	r5, #20481	; 0x5001
     530:	000094c8 	andeq	r9, r0, r8, asr #9
     534:	0b510118 	bleq	144099c <__bss_end__+0x1436f1c>
     538:	325101f3 	subscc	r0, r1, #-1073741764	; 0xc000003c
     53c:	5101f324 	tstpl	r1, r4, lsr #6	; <UNPREDICTABLE>
     540:	18243122 	stmdane	r4!, {r1, r5, r8, ip, sp}
     544:	31015301 	tstcc	r1, r1, lsl #6
     548:	a2240000 	eorge	r0, r4, #0, 0
     54c:	a2000003 	andge	r0, r0, #3, 0
     550:	03000003 	movweq	r0, #3
     554:	76240628 	strtvc	r0, [r4], -r8, lsr #12
     558:	76000001 	strvc	r0, [r0], -r1
     55c:	03000001 	movweq	r0, #1
     560:	702406a0 	eorvc	r0, r4, r0, lsr #13
     564:	70000000 	andvc	r0, r0, r0
     568:	04000000 	streq	r0, [r0], #-0
     56c:	5424061d 	strtpl	r0, [r4], #-1565	; 0xfffff9e3
     570:	54000000 	strpl	r0, [r0], #-0
     574:	03000000 	movweq	r0, #0
     578:	19000658 	stmdbne	r0, {r3, r4, r6, r9, sl}
     57c:	05000006 	streq	r0, [r0, #-6]
     580:	e5040100 	str	r0, [r4, #-256]	; 0xffffff00
     584:	15000001 	strne	r0, [r0, #-1]
     588:	000001fc 	strdeq	r0, [r0], -ip
     58c:	0002e90c 	andeq	lr, r2, ip, lsl #18
     590:	00033c00 	andeq	r3, r3, r0, lsl #24
     594:	0082f000 	addeq	pc, r2, r0
     598:	0001a000 	andeq	sl, r1, r0
     59c:	00065100 	andeq	r5, r6, r0, lsl #2
     5a0:	07080300 	streq	r0, [r8, -r0, lsl #6]
     5a4:	0000002f 	andeq	r0, r0, pc, lsr #32
     5a8:	39070403 	stmdbcc	r7, {r0, r1, sl}
     5ac:	16000000 	strne	r0, [r0], -r0
     5b0:	6e690504 	cdpvs	5, 6, cr0, cr9, cr4, {0}
     5b4:	2d170074 	ldccs	0, cr0, [r7, #-464]	; 0xfffffe30
     5b8:	03000000 	movweq	r0, #0
     5bc:	00480601 	subeq	r0, r8, r1, lsl #12
     5c0:	02030000 	andeq	r0, r3, #0, 0
     5c4:	00016c05 	andeq	r6, r1, r5, lsl #24
     5c8:	05040300 	streq	r0, [r4, #-768]	; 0xfffffd00
     5cc:	00000157 	andeq	r0, r0, r7, asr r1
     5d0:	52050803 	andpl	r0, r5, #196608	; 0x30000
     5d4:	03000001 	movweq	r0, #1
     5d8:	00460801 	subeq	r0, r6, r1, lsl #16
     5dc:	02030000 	andeq	r0, r3, #0, 0
     5e0:	00005d07 	andeq	r5, r0, r7, lsl #26
     5e4:	03631300 	cmneq	r3, #0, 6
     5e8:	34020000 	strcc	r0, [r2], #-0
     5ec:	00007619 	andeq	r7, r0, r9, lsl r6
     5f0:	07040300 	streq	r0, [r4, -r0, lsl #6]
     5f4:	00000034 	andeq	r0, r0, r4, lsr r0
     5f8:	4f080103 	svcmi	0x00080103
     5fc:	18000000 	stmdane	r0, {}	; <UNPREDICTABLE>
     600:	005c0107 	subseq	r0, ip, r7, lsl #2
     604:	0c030000 	stceq	0, cr0, [r3], {-0}
     608:	0000c30e 	andeq	ip, r0, lr, lsl #6
     60c:	036c0600 	cmneq	ip, #0, 12
     610:	06000000 	streq	r0, [r0], -r0
     614:	000001e1 	andeq	r0, r0, r1, ror #3
     618:	029e0601 	addseq	r0, lr, #1048576	; 0x100000
     61c:	06040000 	streq	r0, [r4], -r0
     620:	000002ad 	andeq	r0, r0, sp, lsr #5
     624:	02bc0605 	adcseq	r0, ip, #5242880	; 0x500000
     628:	06060000 	streq	r0, [r6], -r0
     62c:	000002cb 	andeq	r0, r0, fp, asr #5
     630:	032d0607 			; <UNDEFINED> instruction: 0x032d0607
     634:	06030000 	streq	r0, [r3], -r0
     638:	000002da 	ldrdeq	r0, [r0], -sl
     63c:	17130002 	ldrne	r0, [r3, -r2]
     640:	03000003 	movweq	r0, #3
     644:	00840315 	addeq	r0, r4, r5, lsl r3
     648:	cc0d0000 	stcgt	0, cr0, [sp], {-0}
     64c:	1d000001 	stcne	0, cr0, [r0, #-4]
     650:	0000003b 	andeq	r0, r0, fp, lsr r0
     654:	2020001c 	eorcs	r0, r0, ip, lsl r0
     658:	0000000d 	andeq	r0, r0, sp
     65c:	003b1e00 	eorseq	r1, fp, r0, lsl #28
     660:	00280000 	eoreq	r0, r8, r0
     664:	230d2020 	movwcs	r2, #53280	; 0xd020
     668:	1f000003 	svcne	0x00000003
     66c:	0000003b 	andeq	r0, r0, fp, lsr r0
     670:	20200034 	eorcs	r0, r0, r4, lsr r0
     674:	00028819 	andeq	r8, r2, r9, lsl r8
     678:	06ad0400 	strteq	r0, [sp], r0, lsl #8
     67c:	00000110 	andeq	r0, r0, r0, lsl r1
     680:	00002d0e 	andeq	r2, r0, lr, lsl #26
     684:	002d0e00 	eoreq	r0, sp, r0, lsl #28
     688:	1a000000 	bne	690 <__code_start__-0x7970>
     68c:	00000298 	muleq	r0, r8, r2
     690:	2d0ac204 	sfmcs	f4, 1, [sl, #-16]
     694:	26000000 	strcs	r0, [r0], -r0
     698:	0e000001 	cdpeq	0, 0, cr0, cr0, cr1, {0}
     69c:	0000002d 	andeq	r0, r0, sp, lsr #32
     6a0:	028e1b00 	addeq	r1, lr, #0, 22
     6a4:	51010000 	mrspl	r0, (UNDEF: 1)
     6a8:	00003405 	andeq	r3, r0, r5, lsl #8
     6ac:	00846800 	addeq	r6, r4, r0, lsl #16
     6b0:	00002800 	andeq	r2, r0, r0, lsl #16
     6b4:	949c0100 	ldrls	r0, [ip], #256	; 0x100
     6b8:	08000001 	stmdaeq	r0, {r0}
     6bc:	006e6970 	rsbeq	r6, lr, r0, ror r9
     6c0:	002d1851 	eoreq	r1, sp, r1, asr r8
     6c4:	00120000 	andseq	r0, r2, r0
     6c8:	000c0000 	andeq	r0, ip, r0
     6cc:	5e1c0000 	cdppl	0, 1, cr0, cr12, cr0, {0}
     6d0:	01000003 	tsteq	r0, r3
     6d4:	002d0e52 	eoreq	r0, sp, r2, asr lr
     6d8:	00330000 	eorseq	r0, r3, r0
     6dc:	002b0000 	eoreq	r0, fp, r0
     6e0:	6f1d0000 	svcvs	0x001d0000
     6e4:	01006666 	tsteq	r0, r6, ror #12
     6e8:	002d0e53 	eoreq	r0, sp, r3, asr lr
     6ec:	00750000 	rsbseq	r0, r5, r0
     6f0:	006f0000 	rsbeq	r0, pc, r0
     6f4:	7c1e0000 	ldcvc	0, cr0, [lr], {-0}
     6f8:	10000084 	andne	r0, r0, r4, lsl #1
     6fc:	01000001 	tsteq	r0, r1
     700:	740a5001 	strvc	r5, [sl], #-1
     704:	23253500 			; <UNDEFINED> instruction: 0x23253500
     708:	818080b4 	strhhi	r8, [r0, r4]
     70c:	0f000002 	svceq	0x00000002
     710:	000001d6 	ldrdeq	r0, [r0], -r6
     714:	0084384a 	addeq	r3, r4, sl, asr #16
     718:	00003000 	andeq	r3, r0, r0
     71c:	4b9c0100 	blmi	fe700b24 <__bss_end__+0xfe6f70a4>
     720:	08000002 	stmdaeq	r0, {r1}
     724:	006e6970 	rsbeq	r6, lr, r0, ror r9
     728:	002d1a4a 	eoreq	r1, sp, sl, asr #20
     72c:	009f0000 	addseq	r0, pc, r0
     730:	00930000 	addseq	r0, r3, r0
     734:	76080000 	strvc	r0, [r8], -r0
     738:	2d284a00 	vstmdbcs	r8!, {s8-s7}
     73c:	d4000000 	strle	r0, [r0], #-0
     740:	d0000000 	andle	r0, r0, r0
     744:	1f000000 	svcne	0x00000000
     748:	0000035d 	andeq	r0, r0, sp, asr r3
     74c:	00008448 	andeq	r8, r0, r8, asr #8
     750:	00005001 	andeq	r5, r0, r1
     754:	094c0100 	stmdbeq	ip, {r8}^
     758:	0000020b 	andeq	r0, r0, fp, lsl #4
     75c:	00036902 	andeq	r6, r3, r2, lsl #18
     760:	0000ec00 	andeq	lr, r0, r0, lsl #24
     764:	0000e600 	andeq	lr, r0, r0, lsl #12
     768:	84540700 	ldrbhi	r0, [r4], #-1792	; 0xfffff900
     76c:	00f90000 	rscseq	r0, r9, r0
     770:	01010000 	mrseq	r0, (UNDEF: 1)
     774:	1c0c0550 	cfstr32ne	mvfx0, [ip], {80}	; 0x50
     778:	01202000 			; <UNDEFINED> instruction: 0x01202000
     77c:	31055101 	tstcc	r5, r1, lsl #2
     780:	245001a3 	ldrbcs	r0, [r0], #-419	; 0xfffffe5d
     784:	44200000 	strtmi	r0, [r0], #-0
     788:	54000003 	strpl	r0, [r0], #-3
     78c:	02000084 	andeq	r0, r0, #132, 0	; 0x84
     790:	00008454 	andeq	r8, r0, r4, asr r4
     794:	00000014 	andeq	r0, r0, r4, lsl r0
     798:	02094e01 	andeq	r4, r9, #1, 28
     79c:	00000350 	andeq	r0, r0, r0, asr r3
     7a0:	0000010b 	andeq	r0, r0, fp, lsl #2
     7a4:	00000105 	andeq	r0, r0, r5, lsl #2
     7a8:	00846007 	addeq	r6, r4, r7
     7ac:	0000f900 	andeq	pc, r0, r0, lsl #18
     7b0:	50010100 	andpl	r0, r1, r0, lsl #2
     7b4:	00280c05 	eoreq	r0, r8, r5, lsl #24
     7b8:	01012020 	tsteq	r1, r0, lsr #32
     7bc:	a3310551 	teqge	r1, #339738624	; 0x14400000
     7c0:	00245001 	eoreq	r5, r4, r1
     7c4:	f60f0000 			; <UNDEFINED> instruction: 0xf60f0000
     7c8:	45000002 	strmi	r0, [r0, #-2]
     7cc:	000083e0 	andeq	r8, r0, r0, ror #7
     7d0:	00000058 	andeq	r0, r0, r8, asr r0
     7d4:	03449c01 	movteq	r9, #19457	; 0x4c01
     7d8:	70080000 	andvc	r0, r8, r0
     7dc:	45006e69 	strmi	r6, [r0, #-3689]	; 0xfffff197
     7e0:	00002d1e 	andeq	r2, r0, lr, lsl sp
     7e4:	00012a00 	andeq	r2, r1, r0, lsl #20
     7e8:	00012400 	andeq	r2, r1, r0, lsl #8
     7ec:	046f0900 	strbteq	r0, [pc], #-2304	; 7f4 <__code_start__-0x780c>
     7f0:	83e00000 	mvnhi	r0, #0, 0
     7f4:	30020000 	andcc	r0, r2, r0
     7f8:	46000000 	strmi	r0, [r0], -r0
     7fc:	04870b05 	streq	r0, [r7], #2821	; 0xb05
     800:	02000000 	andeq	r0, r0, #0, 0
     804:	0000047b 	andeq	r0, r0, fp, ror r4
     808:	00000149 	andeq	r0, r0, r9, asr #2
     80c:	00000143 	andeq	r0, r0, r3, asr #2
     810:	0000300a 	andeq	r3, r0, sl
     814:	04930400 	ldreq	r0, [r3], #1024	; 0x400
     818:	9d040000 	stcls	0, cr0, [r4, #-0]
     81c:	04000004 	streq	r0, [r0], #-4
     820:	000004a5 	andeq	r0, r0, r5, lsr #9
     824:	00046f09 	andeq	r6, r4, r9, lsl #30
     828:	0083e800 	addeq	lr, r3, r0, lsl #16
     82c:	00400000 	subeq	r0, r0, r0
     830:	06280000 	strteq	r0, [r8], -r0
     834:	0004870b 	andeq	r8, r4, fp, lsl #14
     838:	7b020000 	blvc	80840 <__bss_end__+0x76dc0>
     83c:	68000004 	stmdavs	r0, {r2}
     840:	62000001 	andvs	r0, r0, #1, 0
     844:	0a000001 	beq	850 <__code_start__-0x77b0>
     848:	00000040 	andeq	r0, r0, r0, asr #32
     84c:	00049305 	andeq	r9, r4, r5, lsl #6
     850:	00018700 	andeq	r8, r1, r0, lsl #14
     854:	00018100 	andeq	r8, r1, r0, lsl #2
     858:	049d0500 	ldreq	r0, [sp], #1280	; 0x500
     85c:	01b60000 			; <UNDEFINED> instruction: 0x01b60000
     860:	01b00000 	movseq	r0, r0
     864:	a5050000 	strge	r0, [r5, #-0]
     868:	f9000004 			; <UNDEFINED> instruction: 0xf9000004
     86c:	f1000001 	cps	#1
     870:	10000001 	andne	r0, r0, r1
     874:	00008410 	andeq	r8, r0, r0, lsl r4
     878:	00000110 	andeq	r0, r0, r0, lsl r1
     87c:	0000030c 	andeq	r0, r0, ip, lsl #6
     880:	02500101 	subseq	r0, r0, #1073741824	; 0x40000000
     884:	07000076 	smlsdxeq	r0, r6, r0, r0
     888:	00008434 	andeq	r8, r0, r4, lsr r4
     88c:	000000f9 	strdeq	r0, [r0], -r9
     890:	25500101 	ldrbcs	r0, [r0, #-257]	; 0xfffffeff
     894:	a85001a3 	ldmdage	r0, {r0, r1, r5, r7, r8}^
     898:	a426a82d 	strtge	sl, [r6], #-2093	; 0xfffff7d3
     89c:	cccd0826 	stclgt	8, cr0, [sp], {38}	; 0x26
     8a0:	0000cccc 	andeq	ip, r0, ip, asr #25
     8a4:	081e0000 	ldmdaeq	lr, {}	; <UNPREDICTABLE>
     8a8:	2526a820 	strcs	sl, [r6, #-2080]!	; 0xfffff7e0
     8ac:	00a82da8 	adceq	r2, r8, r8, lsr #27
     8b0:	80232533 	eorhi	r2, r3, r3, lsr r5
     8b4:	3240a080 	subcc	sl, r0, #128, 0	; 0x80
     8b8:	00000024 	andeq	r0, r0, r4, lsr #32
     8bc:	11000000 	mrsne	r0, (UNDEF: 0)
     8c0:	00000305 	andeq	r0, r0, r5, lsl #6
     8c4:	5d030d40 	stcpl	13, cr0, [r3, #-256]	; 0xffffff00
     8c8:	0c000003 	stceq	0, cr0, [r0], {3}
     8cc:	006e6970 	rsbeq	r6, lr, r0, ror r9
     8d0:	2d234001 	stccs	0, cr4, [r3, #-4]!
     8d4:	00000000 	andeq	r0, r0, r0
     8d8:	00038e11 	andeq	r8, r3, r1, lsl lr
     8dc:	030d3b00 	movweq	r3, #56064	; 0xdb00
     8e0:	00000376 	andeq	r0, r0, r6, ror r3
     8e4:	6e69700c 	cdpvs	0, 6, cr7, cr9, cr12, {0}
     8e8:	223b0100 	eorscs	r0, fp, #0
     8ec:	0000002d 	andeq	r0, r0, sp, lsr #32
     8f0:	00700f00 	rsbseq	r0, r0, r0, lsl #30
     8f4:	54360000 	ldrtpl	r0, [r6], #-0
     8f8:	5c000083 	stcpl	0, cr0, [r0], {131}	; 0x83
     8fc:	01000000 	mrseq	r0, (UNDEF: 0)
     900:	00046f9c 	muleq	r4, ip, pc	; <UNPREDICTABLE>
     904:	69700800 	ldmdbvs	r0!, {fp}^
     908:	1f36006e 	svcne	0x0036006e
     90c:	0000002d 	andeq	r0, r0, sp, lsr #32
     910:	00000240 	andeq	r0, r0, r0, asr #4
     914:	0000023c 	andeq	r0, r0, ip, lsr r2
     918:	00046f09 	andeq	r6, r4, r9, lsl #30
     91c:	00835400 	addeq	r5, r3, r0, lsl #8
     920:	00160200 	andseq	r0, r6, r0, lsl #4
     924:	05370000 	ldreq	r0, [r7, #-0]!
     928:	0004870b 	andeq	r8, r4, fp, lsl #14
     92c:	7b020100 	blvc	80d34 <__bss_end__+0x772b4>
     930:	55000004 	strpl	r0, [r0, #-4]
     934:	51000002 	tstpl	r0, r2
     938:	0a000002 	beq	948 <__code_start__-0x76b8>
     93c:	00000016 	andeq	r0, r0, r6, lsl r0
     940:	00049304 	andeq	r9, r4, r4, lsl #6
     944:	049d0400 	ldreq	r0, [sp], #1024	; 0x400
     948:	a5040000 	strge	r0, [r4, #-0]
     94c:	09000004 	stmdbeq	r0, {r2}
     950:	0000046f 	andeq	r0, r0, pc, ror #8
     954:	0000835c 	andeq	r8, r0, ip, asr r3
     958:	00002300 	andeq	r2, r0, r0, lsl #6
     95c:	0b062800 	bleq	18a964 <__bss_end__+0x180ee4>
     960:	00000487 	andeq	r0, r0, r7, lsl #9
     964:	047b0201 	ldrbteq	r0, [fp], #-513	; 0xfffffdff
     968:	026a0000 	rsbeq	r0, sl, #0, 0
     96c:	02660000 	rsbeq	r0, r6, #0, 0
     970:	230a0000 	movwcs	r0, #40960	; 0xa000
     974:	05000000 	streq	r0, [r0, #-0]
     978:	00000493 	muleq	r0, r3, r4
     97c:	0000027f 	andeq	r0, r0, pc, ror r2
     980:	0000027b 	andeq	r0, r0, fp, ror r2
     984:	00049d05 	andeq	r9, r4, r5, lsl #26
     988:	0002bc00 	andeq	fp, r2, r0, lsl #24
     98c:	0002b600 	andeq	fp, r2, r0, lsl #12
     990:	04a50500 	strteq	r0, [r5], #1280	; 0x500
     994:	02ff0000 	rscseq	r0, pc, #0, 0
     998:	02f70000 	rscseq	r0, r7, #0, 0
     99c:	88100000 	ldmdahi	r0, {}	; <UNPREDICTABLE>
     9a0:	10000083 	andne	r0, r0, r3, lsl #1
     9a4:	37000001 	strcc	r0, [r0, -r1]
     9a8:	01000004 	tsteq	r0, r4
     9ac:	75025001 	strvc	r5, [r2, #-1]
     9b0:	ac070000 	stcge	0, cr0, [r7], {-0}
     9b4:	f9000083 			; <UNDEFINED> instruction: 0xf9000083
     9b8:	01000000 	mrseq	r0, (UNDEF: 0)
     9bc:	a3255001 			; <UNDEFINED> instruction: 0xa3255001
     9c0:	2da85001 	stccs	0, cr5, [r8, #4]!
     9c4:	26a426a8 	strtcs	r2, [r4], r8, lsr #13
     9c8:	cccccd08 	stclgt	13, cr12, [ip], {8}
     9cc:	000000cc 	andeq	r0, r0, ip, asr #1
     9d0:	20081e00 	andcs	r1, r8, r0, lsl #28
     9d4:	a82526a8 	stmdage	r5!, {r3, r5, r7, r9, sl, sp}
     9d8:	3300a82d 	movwcc	sl, #2093	; 0x82d
     9dc:	80802325 	addhi	r2, r0, r5, lsr #6
     9e0:	243240a0 	ldrtcs	r4, [r2], #-160	; 0xffffff60
     9e4:	00000000 	andeq	r0, r0, r0
     9e8:	7c110000 	ldcvc	0, cr0, [r1], {-0}
     9ec:	28000003 	stmdacs	r0, {r0, r1}
     9f0:	04ae0106 	strteq	r0, [lr], #262	; 0x106
     9f4:	700c0000 	andvc	r0, ip, r0
     9f8:	01006e69 	tsteq	r0, r9, ror #28
     9fc:	002d2128 	eoreq	r2, sp, r8, lsr #2
     a00:	12210000 	eorne	r0, r1, #0, 0
     a04:	01000003 	tsteq	r0, r3
     a08:	00c33228 	sbceq	r3, r3, r8, lsr #4
     a0c:	6f120000 	svcvs	0x00120000
     a10:	2d006666 	stccs	6, cr6, [r0, #-408]	; 0xfffffe68
     a14:	0000002d 	andeq	r0, r0, sp, lsr #32
     a18:	2e006712 	mcrcs	7, 0, r6, cr0, cr2, {0}
     a1c:	0000002d 	andeq	r0, r0, sp, lsr #32
     a20:	30007612 	andcc	r7, r0, r2, lsl r6
     a24:	0000002d 	andeq	r0, r0, sp, lsr #32
     a28:	01f22200 	mvnseq	r2, r0, lsl #4
     a2c:	b1040000 	mrslt	r0, (UNDEF: 4)
     a30:	00006a18 	andeq	r6, r0, r8, lsl sl
     a34:	04ca0300 	strbeq	r0, [sl], #768	; 0x300
     a38:	780c0000 	stmdavc	ip, {}	; <UNPREDICTABLE>
     a3c:	2bb10400 	blcs	fec41a44 <__bss_end__+0xfec37fc4>
     a40:	0000006a 	andeq	r0, r0, sl, rrx
     a44:	046f1400 	strbteq	r1, [pc], #-1024	; a4c <__code_start__-0x75b4>
     a48:	82f00000 	rscshi	r0, r0, #0, 0
     a4c:	00640000 	rsbeq	r0, r4, r0
     a50:	9c010000 	stcls	0, cr0, [r1], {-0}
     a54:	000005a6 	andeq	r0, r0, r6, lsr #11
     a58:	00047b02 	andeq	r7, r4, r2, lsl #22
     a5c:	00032700 	andeq	r2, r3, r0, lsl #14
     a60:	00032300 	andeq	r2, r3, r0, lsl #6
     a64:	04870200 	streq	r0, [r7], #512	; 0x200
     a68:	03390000 	teqeq	r9, #0, 0
     a6c:	03350000 	teqeq	r5, #0, 0
     a70:	93040000 	movwls	r0, #16384	; 0x4000
     a74:	04000004 	streq	r0, [r0], #-4
     a78:	0000049d 	muleq	r0, sp, r4
     a7c:	0004a504 	andeq	sl, r4, r4, lsl #10
     a80:	046f0900 	strbteq	r0, [pc], #-2304	; a88 <__code_start__-0x7578>
     a84:	82f80000 	rscshi	r0, r8, #0, 0
     a88:	0c000000 	stceq	0, cr0, [r0], {-0}
     a8c:	28000000 	stmdacs	r0, {}	; <UNPREDICTABLE>
     a90:	04870206 	streq	r0, [r7], #518	; 0x206
     a94:	034b0000 	movteq	r0, #45056	; 0xb000
     a98:	03470000 	movteq	r0, #28672	; 0x7000
     a9c:	7b020000 	blvc	80aa4 <__bss_end__+0x77024>
     aa0:	5d000004 	stcpl	0, cr0, [r0, #-16]
     aa4:	59000003 	stmdbpl	r0, {r0, r1}
     aa8:	0a000003 	beq	abc <__code_start__-0x7544>
     aac:	0000000c 	andeq	r0, r0, ip
     ab0:	00049305 	andeq	r9, r4, r5, lsl #6
     ab4:	00036f00 	andeq	r6, r3, r0, lsl #30
     ab8:	00036b00 	andeq	r6, r3, r0, lsl #22
     abc:	049d0500 	ldreq	r0, [sp], #1280	; 0x500
     ac0:	03a80000 			; <UNDEFINED> instruction: 0x03a80000
     ac4:	03a20000 			; <UNDEFINED> instruction: 0x03a20000
     ac8:	a5050000 	strge	r0, [r5, #-0]
     acc:	e3000004 	movw	r0, #4
     ad0:	dd000003 	stcle	0, cr0, [r0, #-12]
     ad4:	10000003 	andne	r0, r0, r3
     ad8:	00008330 	andeq	r8, r0, r0, lsr r3
     adc:	00000110 	andeq	r0, r0, r0, lsl r1
     ae0:	00000570 	andeq	r0, r0, r0, ror r5
     ae4:	02500101 	subseq	r0, r0, #1073741824	; 0x40000000
     ae8:	07000076 	smlsdxeq	r0, r6, r0, r0
     aec:	00008350 	andeq	r8, r0, r0, asr r3
     af0:	000000f9 	strdeq	r0, [r0], -r9
     af4:	25500101 	ldrbcs	r0, [r0, #-257]	; 0xfffffeff
     af8:	a85001a3 	ldmdage	r0, {r0, r1, r5, r7, r8}^
     afc:	a426a82d 	strtge	sl, [r6], #-2093	; 0xfffff7d3
     b00:	cccd0826 	stclgt	8, cr0, [sp], {38}	; 0x26
     b04:	0000cccc 	andeq	ip, r0, ip, asr #25
     b08:	081e0000 	ldmdaeq	lr, {}	; <UNPREDICTABLE>
     b0c:	2526a820 	strcs	sl, [r6, #-2080]!	; 0xfffff7e0
     b10:	00a82da8 	adceq	r2, r8, r8, lsr #27
     b14:	80232533 	eorhi	r2, r3, r3, lsr r5
     b18:	3240a080 	subcc	sl, r0, #128, 0	; 0x80
     b1c:	00000024 	andeq	r0, r0, r4, lsr #32
     b20:	035d1400 	cmpeq	sp, #0, 8
     b24:	83b00000 	movshi	r0, #0, 0
     b28:	00180000 	andseq	r0, r8, r0
     b2c:	9c010000 	stcls	0, cr0, [r1], {-0}
     b30:	000005e3 	andeq	r0, r0, r3, ror #11
     b34:	00036902 	andeq	r6, r3, r2, lsl #18
     b38:	00040400 	andeq	r0, r4, r0, lsl #8
     b3c:	0003fe00 	andeq	pc, r3, r0, lsl #28
     b40:	83c40700 	bichi	r0, r4, #0, 14
     b44:	00f90000 	rscseq	r0, r9, r0
     b48:	01010000 	mrseq	r0, (UNDEF: 1)
     b4c:	1c0c0550 	cfstr32ne	mvfx0, [ip], {80}	; 0x50
     b50:	01202000 			; <UNDEFINED> instruction: 0x01202000
     b54:	31055101 	tstcc	r5, r1, lsl #2
     b58:	245001a3 	ldrbcs	r0, [r0], #-419	; 0xfffffe5d
     b5c:	44230000 	strtmi	r0, [r3], #-0
     b60:	c8000003 	stmdagt	r0, {r0, r1}
     b64:	18000083 	stmdane	r0, {r0, r1, r7}
     b68:	01000000 	mrseq	r0, (UNDEF: 0)
     b6c:	0350029c 	cmpeq	r0, #156, 4	; 0xc0000009
     b70:	04230000 	strteq	r0, [r3], #-0
     b74:	041d0000 	ldreq	r0, [sp], #-0
     b78:	dc070000 	stcle	0, cr0, [r7], {-0}
     b7c:	f9000083 			; <UNDEFINED> instruction: 0xf9000083
     b80:	01000000 	mrseq	r0, (UNDEF: 0)
     b84:	0c055001 	stceq	0, cr5, [r5], {1}
     b88:	20200028 	eorcs	r0, r0, r8, lsr #32
     b8c:	05510101 	ldrbeq	r0, [r1, #-257]	; 0xfffffeff
     b90:	5001a331 	andpl	sl, r1, r1, lsr r3
     b94:	00000024 	andeq	r0, r0, r4, lsr #32
     b98:	0000019d 	muleq	r0, sp, r1
     b9c:	04110004 	ldreq	r0, [r1], #-4
     ba0:	01040000 	mrseq	r0, (UNDEF: 4)
     ba4:	00000093 	muleq	r0, r3, r0
     ba8:	0003bd0c 	andeq	fp, r3, ip, lsl #26
     bac:	00033c00 	andeq	r3, r3, r0, lsl #24
     bb0:	00849000 	addeq	r9, r4, r0
     bb4:	00005800 	andeq	r5, r0, r0, lsl #16
     bb8:	0008b100 	andeq	fp, r8, r0, lsl #2
     bbc:	03a90200 			; <UNDEFINED> instruction: 0x03a90200
     bc0:	28020000 	stmdacs	r2, {}	; <UNPREDICTABLE>
     bc4:	0000311b 	andeq	r3, r0, fp, lsl r1
     bc8:	03cd0300 	biceq	r0, sp, #0, 6
     bcc:	04040000 	streq	r0, [r4], #-0
     bd0:	00004800 	andeq	r4, r0, r0, lsl #16
     bd4:	03b80400 			; <UNDEFINED> instruction: 0x03b80400
     bd8:	00480000 	subeq	r0, r8, r0
     bdc:	00000000 	andeq	r0, r0, r0
     be0:	cf020405 	svcgt	0x00020405
     be4:	02000003 	andeq	r0, r0, #3, 0
     be8:	00251863 	eoreq	r1, r5, r3, ror #16
     bec:	04060000 	streq	r0, [r6], #-0
     bf0:	746e6905 	strbtvc	r6, [lr], #-2309	; 0xfffff6fb
     bf4:	07040700 	streq	r0, [r4, -r0, lsl #14]
     bf8:	00000039 	andeq	r0, r0, r9, lsr r0
     bfc:	48060107 	stmdami	r6, {r0, r1, r2, r8}
     c00:	07000000 	streq	r0, [r0, -r0]
     c04:	016c0502 	cmneq	ip, r2, lsl #10
     c08:	04070000 	streq	r0, [r7], #-0
     c0c:	00015705 	andeq	r5, r1, r5, lsl #14
     c10:	05080700 	streq	r0, [r8, #-1792]	; 0xfffff900
     c14:	00000152 	andeq	r0, r0, r2, asr r1
     c18:	46080107 	strmi	r0, [r8], -r7, lsl #2
     c1c:	07000000 	streq	r0, [r0, -r0]
     c20:	005d0702 	subseq	r0, sp, r2, lsl #14
     c24:	04070000 	streq	r0, [r7], #-0
     c28:	00003407 	andeq	r3, r0, r7, lsl #8
     c2c:	07080700 	streq	r0, [r8, -r0, lsl #14]
     c30:	0000002f 	andeq	r0, r0, pc, lsr #32
     c34:	00005608 	andeq	r5, r0, r8, lsl #12
     c38:	0000ab00 	andeq	sl, r0, r0, lsl #22
     c3c:	00560900 	subseq	r0, r6, r0, lsl #18
     c40:	0a000000 	beq	c48 <__code_start__-0x73b8>
     c44:	00000160 	andeq	r0, r0, r0, ror #2
     c48:	b70e1c03 	strlt	r1, [lr, -r3, lsl #24]
     c4c:	0b000000 	bleq	c54 <__code_start__-0x73ac>
     c50:	00009c04 	andeq	r9, r0, r4, lsl #24
     c54:	00560800 	subseq	r0, r6, r0, lsl #16
     c58:	00cc0000 	sbceq	r0, ip, r0
     c5c:	cc090000 	stcgt	0, cr0, [r9], {-0}
     c60:	00000000 	andeq	r0, r0, r0
     c64:	00d9040b 	sbcseq	r0, r9, fp, lsl #8
     c68:	01070000 	mrseq	r0, (UNDEF: 7)
     c6c:	00004f08 	andeq	r4, r0, r8, lsl #30
     c70:	00d20c00 	sbcseq	r0, r2, r0, lsl #24
     c74:	e00a0000 	and	r0, sl, r0
     c78:	03000003 	movweq	r0, #3
     c7c:	00ea0e21 	rsceq	r0, sl, r1, lsr #28
     c80:	040b0000 	streq	r0, [fp], #-0
     c84:	000000bd 	strheq	r0, [r0], -sp
     c88:	0003a20d 	andeq	sl, r3, sp, lsl #4
     c8c:	05060100 	streq	r0, [r6, #-256]	; 0xffffff00
     c90:	00000056 	andeq	r0, r0, r6, asr r0
     c94:	00008490 	muleq	r0, r0, r4
     c98:	00000058 	andeq	r0, r0, r8, asr r0
     c9c:	01839c01 	orreq	r9, r3, r1, lsl #24
     ca0:	660e0000 	strvs	r0, [lr], -r0
     ca4:	0100746d 	tsteq	r0, sp, ror #8
     ca8:	00cc1806 	sbceq	r1, ip, r6, lsl #16
     cac:	91020000 	mrsls	r0, (UNDEF: 2)
     cb0:	62100f70 	andsvs	r0, r0, #112, 30	; 0x1c0
     cb4:	01006675 	tsteq	r0, r5, ror r6
     cb8:	01831108 	orreq	r1, r3, r8, lsl #2
     cbc:	03050000 	movweq	r0, #20480	; 0x5000
     cc0:	0000967c 	andeq	r9, r0, ip, ror r6
     cc4:	00039a11 	andeq	r9, r3, r1, lsl sl
     cc8:	0d090100 	stfeqs	f0, [r9, #-0]
     ccc:	0000004a 	andeq	r0, r0, sl, asr #32
     cd0:	125c9102 	subsne	r9, ip, #-2147483648	; 0x80000000
     cd4:	01007a73 	tsteq	r0, r3, ror sl
     cd8:	00560d0c 	subseq	r0, r6, ip, lsl #26
     cdc:	08e10000 	stmiaeq	r1!, {}^	; <UNPREDICTABLE>
     ce0:	08db0000 	ldmeq	fp, {}^	; <UNPREDICTABLE>
     ce4:	b8130000 	ldmdalt	r3, {}	; <UNPREDICTABLE>
     ce8:	94000084 	strls	r0, [r0], #-132	; 0xffffff7c
     cec:	76000001 	strvc	r0, [r0], -r1
     cf0:	14000001 	strne	r0, [r0], #-1
     cf4:	75025001 	strvc	r5, [r2, #-1]
     cf8:	51011400 	tstpl	r1, r0, lsl #8
     cfc:	04000a03 	streq	r0, [r0], #-2563	; 0xfffff5fd
     d00:	03520114 	cmpeq	r2, #5
     d04:	14064891 	strne	r4, [r6], #-2193	; 0xfffff76f
     d08:	91025301 	tstls	r2, r1, lsl #6
     d0c:	cc15004c 	ldcgt	0, cr0, [r5], {76}	; 0x4c
     d10:	14000084 	strne	r0, [r0], #-132	; 0xffffff7c
     d14:	75025001 	strvc	r5, [r2, #-1]
     d18:	16000000 	strne	r0, [r0], -r0
     d1c:	000000d2 	ldrdeq	r0, [r0], -r2
     d20:	00000194 	muleq	r0, r4, r1
     d24:	00005d17 	andeq	r5, r0, r7, lsl sp
     d28:	0003ff00 	andeq	pc, r3, r0, lsl #30
     d2c:	00039f18 	andeq	r9, r3, r8, lsl pc
     d30:	00039f00 	andeq	r9, r3, r0, lsl #30
     d34:	05020500 	streq	r0, [r2, #-1280]	; 0xfffffb00
     d38:	0000f300 	andeq	pc, r0, r0, lsl #6
     d3c:	53000400 	movwpl	r0, #1024	; 0x400
     d40:	04000005 	streq	r0, [r0], #-5
     d44:	00009301 	andeq	r9, r0, r1, lsl #6
     d48:	03e50c00 	mvneq	r0, #0, 24
     d4c:	033c0000 	teqeq	ip, #0, 0
     d50:	84e80000 	strbthi	r0, [r8], #0
     d54:	00380000 	eorseq	r0, r8, r0
     d58:	09d50000 	ldmibeq	r5, {}^	; <UNPREDICTABLE>
     d5c:	04020000 	streq	r0, [r2], #-0
     d60:	746e6905 	strbtvc	r6, [lr], #-2309	; 0xfffff6fb
     d64:	07040300 	streq	r0, [r4, -r0, lsl #6]
     d68:	00000039 	andeq	r0, r0, r9, lsr r0
     d6c:	48060103 	stmdami	r6, {r0, r1, r8}
     d70:	03000000 	movweq	r0, #0
     d74:	016c0502 	cmneq	ip, r2, lsl #10
     d78:	04030000 	streq	r0, [r3], #-0
     d7c:	00015705 	andeq	r5, r1, r5, lsl #14
     d80:	05080300 	streq	r0, [r8, #-768]	; 0xfffffd00
     d84:	00000152 	andeq	r0, r0, r2, asr r1
     d88:	46080103 	strmi	r0, [r8], -r3, lsl #2
     d8c:	03000000 	movweq	r0, #0
     d90:	005d0702 	subseq	r0, sp, r2, lsl #14
     d94:	04030000 	streq	r0, [r3], #-0
     d98:	00003407 	andeq	r3, r0, r7, lsl #8
     d9c:	07080300 	streq	r0, [r8, -r0, lsl #6]
     da0:	0000002f 	andeq	r0, r0, pc, lsr #32
     da4:	00002504 	andeq	r2, r0, r4, lsl #10
     da8:	00007a00 	andeq	r7, r0, r0, lsl #20
     dac:	00250500 	eoreq	r0, r5, r0, lsl #10
     db0:	06000000 	streq	r0, [r0], -r0
     db4:	00000160 	andeq	r0, r0, r0, ror #2
     db8:	860e1c02 	strhi	r1, [lr], -r2, lsl #24
     dbc:	07000000 	streq	r0, [r0, -r0]
     dc0:	00006b04 	andeq	r6, r0, r4, lsl #22
     dc4:	00250400 	eoreq	r0, r5, r0, lsl #8
     dc8:	009b0000 	addseq	r0, fp, r0
     dcc:	9b050000 	blls	140dd4 <__bss_end__+0x137354>
     dd0:	00000000 	andeq	r0, r0, r0
     dd4:	00a80407 	adceq	r0, r8, r7, lsl #8
     dd8:	01030000 	mrseq	r0, (UNDEF: 3)
     ddc:	00004f08 	andeq	r4, r0, r8, lsl #30
     de0:	00a10800 	adceq	r0, r1, r0, lsl #16
     de4:	e0060000 	and	r0, r6, r0
     de8:	02000003 	andeq	r0, r0, #3, 0
     dec:	00b90e21 	adcseq	r0, r9, r1, lsr #28
     df0:	04070000 	streq	r0, [r7], #-0
     df4:	0000008c 	andeq	r0, r0, ip, lsl #1
     df8:	0000ad09 	andeq	sl, r0, r9, lsl #26
     dfc:	070c0100 	streq	r0, [ip, -r0, lsl #2]
     e00:	96740305 	ldrbtls	r0, [r4], -r5, lsl #6
     e04:	d70a0000 	strle	r0, [sl, -r0]
     e08:	01000003 	tsteq	r0, r3
     e0c:	00250504 	eoreq	r0, r5, r4, lsl #10
     e10:	84e80000 	strbthi	r0, [r8], #0
     e14:	00380000 	eorseq	r0, r8, r0
     e18:	9c010000 	stcls	0, cr0, [r1], {-0}
     e1c:	0100700b 	tsteq	r0, fp
     e20:	009b1f04 	addseq	r1, fp, r4, lsl #30
     e24:	09120000 	ldmdbeq	r2, {}	; <UNPREDICTABLE>
     e28:	090a0000 	stmdbeq	sl, {}	; <UNPREDICTABLE>
     e2c:	00000000 	andeq	r0, r0, r0
     e30:	00000c7f 	andeq	r0, r0, pc, ror ip
     e34:	05f10004 	ldrbeq	r0, [r1, #4]!
     e38:	01040000 	mrseq	r0, (UNDEF: 4)
     e3c:	00000093 	muleq	r0, r3, r0
     e40:	0004040c 	andeq	r0, r4, ip, lsl #8
     e44:	00033c00 	andeq	r3, r3, r0, lsl #24
     e48:	00852000 	addeq	r2, r5, r0
     e4c:	0009b400 	andeq	fp, r9, r0, lsl #8
     e50:	000a7900 	andeq	r7, sl, r0, lsl #18
     e54:	07080200 	streq	r0, [r8, -r0, lsl #4]
     e58:	0000002f 	andeq	r0, r0, pc, lsr #32
     e5c:	39070402 	stmdbcc	r7, {r1, sl}
     e60:	03000000 	movweq	r0, #0
     e64:	6e690504 	cdpvs	5, 6, cr0, cr9, cr4, {0}
     e68:	01020074 	tsteq	r2, r4, ror r0
     e6c:	00004806 	andeq	r4, r0, r6, lsl #16
     e70:	05020200 	streq	r0, [r2, #-512]	; 0xfffffe00
     e74:	0000016c 	andeq	r0, r0, ip, ror #2
     e78:	57050402 	strpl	r0, [r5, -r2, lsl #8]
     e7c:	02000001 	andeq	r0, r0, #1, 0
     e80:	01520508 	cmpeq	r2, r8, lsl #10
     e84:	01020000 	mrseq	r0, (UNDEF: 2)
     e88:	00004608 	andeq	r4, r0, r8, lsl #12
     e8c:	07020200 	streq	r0, [r2, -r0, lsl #4]
     e90:	0000005d 	andeq	r0, r0, sp, asr r0
     e94:	00036304 	andeq	r6, r3, r4, lsl #6
     e98:	19340200 	ldmdbne	r4!, {r9}
     e9c:	00000070 	andeq	r0, r0, r0, ror r0
     ea0:	34070402 	strcc	r0, [r7], #-1026	; 0xfffffbfe
     ea4:	04000000 	streq	r0, [r0], #-0
     ea8:	000003fb 	strdeq	r0, [r0], -fp
     eac:	25193702 	ldrcs	r3, [r9, #-1794]	; 0xfffff8fe
     eb0:	05000000 	streq	r0, [r0, #-0]
     eb4:	00000033 	andeq	r0, r0, r3, lsr r0
     eb8:	00000092 	muleq	r0, r2, r0
     ebc:	00003306 	andeq	r3, r0, r6, lsl #6
     ec0:	60070000 	andvs	r0, r7, r0
     ec4:	03000001 	movweq	r0, #1
     ec8:	009e0e1c 	addseq	r0, lr, ip, lsl lr
     ecc:	04080000 	streq	r0, [r8], #-0
     ed0:	00000083 	andeq	r0, r0, r3, lsl #1
     ed4:	00003305 	andeq	r3, r0, r5, lsl #6
     ed8:	0000b300 	andeq	fp, r0, r0, lsl #6
     edc:	00b30600 	adcseq	r0, r3, r0, lsl #12
     ee0:	08000000 	stmdaeq	r0, {}	; <UNPREDICTABLE>
     ee4:	0000c004 	andeq	ip, r0, r4
     ee8:	08010200 	stmdaeq	r1, {r9}
     eec:	0000004f 	andeq	r0, r0, pc, asr #32
     ef0:	0000b909 	andeq	fp, r0, r9, lsl #18
     ef4:	03e00700 	mvneq	r0, #0, 14
     ef8:	21030000 	mrscs	r0, (UNDEF: 3)
     efc:	0000d10e 	andeq	sp, r0, lr, lsl #2
     f00:	a4040800 	strge	r0, [r4], #-2048	; 0xfffff800
     f04:	07000000 	streq	r0, [r0, -r0]
     f08:	00000417 	andeq	r0, r0, r7, lsl r4
     f0c:	b90d0b04 	stmdblt	sp, {r2, r8, r9, fp}
     f10:	07000000 	streq	r0, [r0, -r0]
     f14:	000004b1 			; <UNDEFINED> instruction: 0x000004b1
     f18:	b90d0c04 	stmdblt	sp, {r2, sl, fp}
     f1c:	07000000 	streq	r0, [r0, -r0]
     f20:	00000426 	andeq	r0, r0, r6, lsr #8
     f24:	b90d0d04 	stmdblt	sp, {r2, r8, sl, fp}
     f28:	07000000 	streq	r0, [r0, -r0]
     f2c:	00000469 	andeq	r0, r0, r9, ror #8
     f30:	b90d0e04 	stmdblt	sp, {r2, r9, sl, fp}
     f34:	07000000 	streq	r0, [r0, -r0]
     f38:	000004da 	ldrdeq	r0, [r0], -sl
     f3c:	b90d0f04 	stmdblt	sp, {r2, r8, r9, sl, fp}
     f40:	07000000 	streq	r0, [r0, -r0]
     f44:	00000454 	andeq	r0, r0, r4, asr r4
     f48:	b90d1004 	stmdblt	sp, {r2, ip}
     f4c:	07000000 	streq	r0, [r0, -r0]
     f50:	000004e9 	andeq	r0, r0, r9, ror #9
     f54:	b90d1104 	stmdblt	sp, {r2, r8, ip}
     f58:	07000000 	streq	r0, [r0, -r0]
     f5c:	00000475 	andeq	r0, r0, r5, ror r4
     f60:	b90d1204 	stmdblt	sp, {r2, r9, ip}
     f64:	04000000 	streq	r0, [r0], #-0
     f68:	000003a9 	andeq	r0, r0, r9, lsr #7
     f6c:	431b2805 	tstmi	fp, #327680	; 0x50000
     f70:	0a000001 	beq	f7c <__code_start__-0x7084>
     f74:	000003cd 	andeq	r0, r0, sp, asr #7
     f78:	5a000604 	bpl	2790 <__code_start__-0x5870>
     f7c:	0b000001 	bleq	f88 <__code_start__-0x7078>
     f80:	000003b8 			; <UNDEFINED> instruction: 0x000003b8
     f84:	0000015a 	andeq	r0, r0, sl, asr r1
     f88:	040c0000 	streq	r0, [ip], #-0
     f8c:	0003cf04 	andeq	ip, r3, r4, lsl #30
     f90:	18630500 	stmdane	r3!, {r8, sl}^
     f94:	00000137 	andeq	r0, r0, r7, lsr r1
     f98:	00039f0d 	andeq	r9, r3, sp, lsl #30
     f9c:	05810100 	streq	r0, [r1, #256]	; 0x100
     fa0:	00000033 	andeq	r0, r0, r3, lsr r0
     fa4:	000088a8 	andeq	r8, r0, r8, lsr #17
     fa8:	0000062c 	andeq	r0, r0, ip, lsr #12
     fac:	086a9c01 	stmdaeq	sl!, {r0, sl, fp, ip, pc}^
     fb0:	620e0000 	andvs	r0, lr, #0, 0
     fb4:	01006675 	tsteq	r0, r5, ror r6
     fb8:	086a1581 	stmdaeq	sl!, {r0, r7, r8, sl, ip}^
     fbc:	09520000 	ldmdbeq	r2, {}^	; <UNPREDICTABLE>
     fc0:	09480000 	stmdbeq	r8, {}^	; <UNPREDICTABLE>
     fc4:	6e0e0000 	cdpvs	0, 0, cr0, cr14, cr0, {0}
     fc8:	1e810100 	rmfnes	f0, f1, f0
     fcc:	00000033 	andeq	r0, r0, r3, lsr r0
     fd0:	0000099f 	muleq	r0, pc, r9	; <UNPREDICTABLE>
     fd4:	00000997 	muleq	r0, r7, r9
     fd8:	746d660e 	strbtvc	r6, [sp], #-1550	; 0xfffff9f2
     fdc:	2d810100 	stfcss	f0, [r1]
     fe0:	000000b3 	strheq	r0, [r0], -r3
     fe4:	000009f1 	strdeq	r0, [r0], -r1
     fe8:	000009d9 	ldrdeq	r0, [r0], -r9
     fec:	00039a0f 	andeq	r9, r3, pc, lsl #20
     ff0:	3a810100 	bcc	fe0413f8 <__bss_end__+0xfe037978>
     ff4:	0000015c 	andeq	r0, r0, ip, asr r1
     ff8:	00000ab5 			; <UNDEFINED> instruction: 0x00000ab5
     ffc:	00000a85 	andeq	r0, r0, r5, lsl #21
    1000:	01007010 	tsteq	r0, r0, lsl r0
    1004:	086a0882 	stmdaeq	sl!, {r1, r7, fp}^
    1008:	0c130000 	ldceq	0, cr0, [r3], {-0}
    100c:	0bfd0000 	bleq	fff41014 <__bss_end__+0xfff37594>
    1010:	65100000 	ldrvs	r0, [r0, #-0]
    1014:	12820100 	addne	r0, r2, #0
    1018:	0000086a 	andeq	r0, r0, sl, ror #16
    101c:	00000c9c 	muleq	r0, ip, ip
    1020:	00000c9a 	muleq	r0, sl, ip
    1024:	00307810 	eorseq	r7, r0, r0, lsl r8
    1028:	640e8301 	strvs	r8, [lr], #-769	; 0xfffffcff
    102c:	b5000000 	strlt	r0, [r0, #-0]
    1030:	af00000c 	svcge	0x0000000c
    1034:	1000000c 	andne	r0, r0, ip
    1038:	01003178 	tsteq	r0, r8, ror r1
    103c:	00641183 	rsbeq	r1, r4, r3, lsl #3
    1040:	0ce40000 	stcleq	0, cr0, [r4]
    1044:	0cde0000 	ldcleq	0, cr0, [lr], {0}
    1048:	93110000 	tstls	r1, #0, 0
    104c:	01000004 	tsteq	r0, r4
    1050:	00b31186 	adcseq	r1, r3, r6, lsl #3
    1054:	0d150000 	ldceq	0, cr0, [r5, #-0]
    1058:	0d0d0000 	stceq	0, cr0, [sp, #-0]
    105c:	3a120000 	bcc	481064 <__bss_end__+0x4775e4>
    1060:	80000004 	andhi	r0, r0, r4
    1064:	05000008 	streq	r0, [r0, #-8]
    1068:	00965c03 	addseq	r5, r6, r3, lsl #24
    106c:	03081300 	movweq	r1, #33536	; 0x8300
    1070:	73100000 	tstvc	r0, #0, 0
    1074:	0a910100 	beq	fe44147c <__bss_end__+0xfe4379fc>
    1078:	0000086a 	andeq	r0, r0, sl, ror #16
    107c:	00000d5b 	andeq	r0, r0, fp, asr sp
    1080:	00000d4f 	andeq	r0, r0, pc, asr #26
    1084:	6d756e14 	ldclvs	14, cr6, [r5, #-80]!	; 0xffffffb0
    1088:	0d910100 	ldfeqs	f0, [r1]
    108c:	00000885 	andeq	r0, r0, r5, lsl #17
    1090:	7dd89103 	ldfvcp	f1, [r8, #12]
    1094:	0004f615 	andeq	pc, r4, r5, lsl r6	; <UNPREDICTABLE>
    1098:	17910100 	ldrne	r0, [r1, r0, lsl #2]
    109c:	00000885 	andeq	r0, r0, r5, lsl #17
    10a0:	7ed89103 	atnvce	f1, f3
    10a4:	00043411 	andeq	r3, r4, r1, lsl r4
    10a8:	0d920100 	ldfeqs	f0, [r2]
    10ac:	0000002c 	andeq	r0, r0, ip, lsr #32
    10b0:	00000dad 	andeq	r0, r0, sp, lsr #27
    10b4:	00000da5 	andeq	r0, r0, r5, lsr #27
    10b8:	00033016 	andeq	r3, r3, r6, lsl r0
    10bc:	0004f100 	andeq	pc, r4, r0, lsl #2
    10c0:	79741000 	ldmdbvc	r4!, {ip}^
    10c4:	1d9e0100 	ldfnes	f0, [lr]
    10c8:	000000b3 	strheq	r0, [r0], -r3
    10cc:	00000dee 	andeq	r0, r0, lr, ror #27
    10d0:	00000de2 	andeq	r0, r0, r2, ror #27
    10d4:	00787814 	rsbseq	r7, r8, r4, lsl r8
    10d8:	771aa201 	ldrvc	sl, [sl, -r1, lsl #4]
    10dc:	06000000 	streq	r0, [r0], -r0
    10e0:	5b049359 	blpl	125e4c <__bss_end__+0x11c3cc>
    10e4:	34170493 	ldrcc	r0, [r7], #-1171	; 0xfffffb6d
    10e8:	3a00008a 	bcc	1318 <__code_start__-0x6ce8>
    10ec:	d800000c 	stmdale	r0, {r2, r3}
    10f0:	18000002 	stmdane	r0, {r1}
    10f4:	76025001 	strvc	r5, [r2], -r1
    10f8:	51011800 	tstpl	r1, r0, lsl #16
    10fc:	95500305 	ldrbls	r0, [r0, #-773]	; 0xfffffcfb
    1100:	01180000 	tsteq	r8, r0
    1104:	00330152 	eorseq	r0, r3, r2, asr r1
    1108:	008a4c17 	addeq	r4, sl, r7, lsl ip
    110c:	000c3a00 	andeq	r3, ip, r0, lsl #20
    1110:	0002fa00 	andeq	pc, r2, r0, lsl #20
    1114:	50011800 	andpl	r1, r1, r0, lsl #16
    1118:	18007602 	stmdane	r0, {r1, r9, sl, ip, sp, lr}
    111c:	03055101 	movweq	r5, #20737	; 0x5101
    1120:	00009564 	andeq	r9, r0, r4, ror #10
    1124:	01520118 	cmpeq	r2, r8, lsl r1
    1128:	70170033 	andsvc	r0, r7, r3, lsr r0
    112c:	4600008a 	strmi	r0, [r0], -sl, lsl #1
    1130:	1700000c 	strne	r0, [r0, -ip]
    1134:	18000003 	stmdane	r0, {r0, r1}
    1138:	03055001 	movweq	r5, #20481	; 0x5001
    113c:	00009554 	andeq	r9, r0, r4, asr r5
    1140:	02510118 	subseq	r0, r1, #6
    1144:	1700007b 	smlsdxne	r0, fp, r0, r0
    1148:	00008a7c 	andeq	r8, r0, ip, ror sl
    114c:	00000c46 	andeq	r0, r0, r6, asr #24
    1150:	00000334 	andeq	r0, r0, r4, lsr r3
    1154:	05500118 	ldrbeq	r0, [r0, #-280]	; 0xfffffee8
    1158:	00955c03 	addseq	r5, r5, r3, lsl #24
    115c:	51011800 	tstpl	r1, r0, lsl #16
    1160:	00007902 	andeq	r7, r0, r2, lsl #18
    1164:	008a8c17 	addeq	r8, sl, r7, lsl ip
    1168:	000c3a00 	andeq	r3, ip, r0, lsl #20
    116c:	00035600 	andeq	r5, r3, r0, lsl #12
    1170:	50011800 	andpl	r1, r1, r0, lsl #16
    1174:	18007602 	stmdane	r0, {r1, r9, sl, ip, sp, lr}
    1178:	03055101 	movweq	r5, #20737	; 0x5101
    117c:	00009550 	andeq	r9, r0, r0, asr r5
    1180:	01520118 	cmpeq	r2, r8, lsl r1
    1184:	bc170033 	ldclt	0, cr0, [r7], {51}	; 0x33
    1188:	a400008a 	strge	r0, [r0], #-138	; 0xffffff76
    118c:	8300000a 	movwhi	r0, #10
    1190:	18000003 	stmdane	r0, {r0, r1}
    1194:	40015001 	andmi	r5, r1, r1
    1198:	03510118 	cmpeq	r1, #6
    119c:	187dd091 	ldmdane	sp!, {r0, r4, r7, ip, lr, pc}^
    11a0:	7b025201 	blvc	959ac <__bss_end__+0x8bf2c>
    11a4:	53011800 	movwpl	r1, #6144	; 0x1800
    11a8:	18007502 	stmdane	r0, {r1, r8, sl, ip, sp, lr}
    11ac:	02007d02 	andeq	r7, r0, #128	; 0x80
    11b0:	17000076 	smlsdxne	r0, r6, r0, r0
    11b4:	00008adc 	ldrdeq	r8, [r0], -ip
    11b8:	00000aa4 	andeq	r0, r0, r4, lsr #21
    11bc:	000003aa 	andeq	r0, r0, sl, lsr #7
    11c0:	01500118 	cmpeq	r0, r8, lsl r1
    11c4:	51011840 	tstpl	r1, r0, asr #16
    11c8:	7ed09103 	atnvcs	f1, f3
    11cc:	02520118 	subseq	r0, r2, #6
    11d0:	02180079 	andseq	r0, r8, #121, 0	; 0x79
    11d4:	7602007d 			; <UNDEFINED> instruction: 0x7602007d
    11d8:	ec170000 	ldc	0, cr0, [r7], {-0}
    11dc:	5200008a 	andpl	r0, r0, #138, 0	; 0x8a
    11e0:	c600000c 	strgt	r0, [r0], -ip
    11e4:	18000003 	stmdane	r0, {r0, r1}
    11e8:	91035001 	tstls	r3, r1
    11ec:	01187dd0 			; <UNDEFINED> instruction: 0x01187dd0
    11f0:	d2910351 	addsle	r0, r1, #1140850689	; 0x44000001
    11f4:	3017007e 	andscc	r0, r7, lr, ror r0
    11f8:	3a00008d 	bcc	1434 <__code_start__-0x6bcc>
    11fc:	e800000c 	stmda	r0, {r2, r3}
    1200:	18000003 	stmdane	r0, {r0, r1}
    1204:	76025001 	strvc	r5, [r2], -r1
    1208:	51011800 	tstpl	r1, r0, lsl #16
    120c:	95640305 	strbls	r0, [r4, #-773]!	; 0xfffffcfb
    1210:	01180000 	tsteq	r8, r0
    1214:	00330152 	eorseq	r0, r3, r2, asr r1
    1218:	008d5417 	addeq	r5, sp, r7, lsl r4
    121c:	000aa400 	andeq	sl, sl, r0, lsl #8
    1220:	00041500 	andeq	r1, r4, r0, lsl #10
    1224:	50011800 	andpl	r1, r1, r0, lsl #16
    1228:	01183a01 	tsteq	r8, r1, lsl #20
    122c:	d0910351 	addsle	r0, r1, r1, asr r3
    1230:	5201187d 	andpl	r1, r1, #8192000	; 0x7d0000
    1234:	18007b02 	stmdane	r0, {r1, r8, r9, fp, ip, sp, lr}
    1238:	75025301 	strvc	r5, [r2, #-769]	; 0xfffffcff
    123c:	7d021800 	stcvc	8, cr1, [r2, #-0]
    1240:	00760200 	rsbseq	r0, r6, r0, lsl #4
    1244:	8d741700 	ldclhi	7, cr1, [r4, #-0]
    1248:	0aa40000 	beq	fe901250 <__bss_end__+0xfe8f77d0>
    124c:	043c0000 	ldrteq	r0, [ip], #-0
    1250:	01180000 	tsteq	r8, r0
    1254:	183a0150 	ldmdane	sl!, {r4, r6, r8}
    1258:	91035101 	tstls	r3, r1, lsl #2
    125c:	01187ed0 			; <UNDEFINED> instruction: 0x01187ed0
    1260:	00790252 	rsbseq	r0, r9, r2, asr r2
    1264:	007d0218 	rsbseq	r0, sp, r8, lsl r2
    1268:	00007602 	andeq	r7, r0, r2, lsl #12
    126c:	008d8017 	addeq	r8, sp, r7, lsl r0
    1270:	000c5e00 	andeq	r5, ip, r0, lsl #28
    1274:	00045a00 	andeq	r5, r4, r0, lsl #20
    1278:	50011800 	andpl	r1, r1, r0, lsl #16
    127c:	7dd09103 	ldfvcp	f1, [r0, #12]
    1280:	05510118 	ldrbeq	r0, [r1, #-280]	; 0xfffffee8
    1284:	00951403 	addseq	r1, r5, r3, lsl #8
    1288:	94170000 	ldrls	r0, [r7], #-0
    128c:	6a00008d 	bvs	14c8 <__code_start__-0x6b38>
    1290:	7600000c 	strvc	r0, [r0], -ip
    1294:	18000004 	stmdane	r0, {r2}
    1298:	91035001 	tstls	r3, r1
    129c:	01187dd0 			; <UNDEFINED> instruction: 0x01187dd0
    12a0:	d0910351 	addsle	r0, r1, r1, asr r3
    12a4:	a019007e 	andsge	r0, r9, lr, ror r0
    12a8:	5200008d 	andpl	r0, r0, #141, 0	; 0x8d
    12ac:	1700000c 	strne	r0, [r0, -ip]
    12b0:	00008e64 	andeq	r8, r0, r4, ror #28
    12b4:	00000c46 	andeq	r0, r0, r6, asr #24
    12b8:	000004a8 	andeq	r0, r0, r8, lsr #9
    12bc:	05500118 	ldrbeq	r0, [r0, #-280]	; 0xfffffee8
    12c0:	00950003 	addseq	r0, r5, r3
    12c4:	51011800 	tstpl	r1, r0, lsl #16
    12c8:	94ec0305 	strbtls	r0, [ip], #773	; 0x305
    12cc:	01180000 	tsteq	r8, r0
    12d0:	5c030552 	cfstr32pl	mvfx0, [r3], {82}	; 0x52
    12d4:	00000096 	muleq	r0, r6, r0
    12d8:	008e6819 	addeq	r6, lr, r9, lsl r8
    12dc:	000c7600 	andeq	r7, ip, r0, lsl #12
    12e0:	8e801700 	cdphi	7, 8, cr1, cr0, cr0, {0}
    12e4:	0c460000 	mareq	acc0, r0, r6
    12e8:	04e70000 	strbteq	r0, [r7], #0
    12ec:	01180000 	tsteq	r8, r0
    12f0:	a4030550 	strge	r0, [r3], #-1360	; 0xfffffab0
    12f4:	18000095 	stmdane	r0, {r0, r2, r4, r7}
    12f8:	03055101 	movweq	r5, #20737	; 0x5101
    12fc:	000094ec 	andeq	r9, r0, ip, ror #9
    1300:	05520118 	ldrbeq	r0, [r2, #-280]	; 0xfffffee8
    1304:	00965c03 	addseq	r5, r6, r3, lsl #24
    1308:	53011800 	movwpl	r1, #6144	; 0x1800
    130c:	18b60802 	ldmne	r6!, {r1, fp}
    1310:	02007d02 	andeq	r7, r0, #128	; 0x80
    1314:	19000076 	stmdbne	r0, {r1, r2, r4, r5, r6}
    1318:	00008e84 	andeq	r8, r0, r4, lsl #29
    131c:	00000c76 	andeq	r0, r0, r6, ror ip
    1320:	09e31a00 	stmibeq	r3!, {r9, fp, ip}^
    1324:	89340000 	ldmdbhi	r4!, {}	; <UNPREDICTABLE>
    1328:	00040000 	andeq	r0, r4, r0
    132c:	00000358 	andeq	r0, r0, r8, asr r3
    1330:	150a9401 	strne	r9, [sl, #-1025]	; 0xfffffbff
    1334:	1b000005 	blne	1350 <__code_start__-0x6cb0>
    1338:	000009f4 	strdeq	r0, [r0], -r4
    133c:	00000e4a 	andeq	r0, r0, sl, asr #28
    1340:	00000e46 	andeq	r0, r0, r6, asr #28
    1344:	08951a00 	ldmeq	r5, {r9, fp, ip}
    1348:	8b1c0000 	blhi	701350 <__bss_end__+0x6f78d0>
    134c:	00010000 	andeq	r0, r1, r0
    1350:	00000378 	andeq	r0, r0, r8, ror r3
    1354:	4b09dc01 	blmi	278360 <__bss_end__+0x26e8e0>
    1358:	1b000006 	blne	1378 <__code_start__-0x6c88>
    135c:	000008be 			; <UNDEFINED> instruction: 0x000008be
    1360:	00000e78 	andeq	r0, r0, r8, ror lr
    1364:	00000e72 	andeq	r0, r0, r2, ror lr
    1368:	0008e01b 	andeq	lr, r8, fp, lsl r0
    136c:	000ead00 	andeq	sl, lr, r0, lsl #26
    1370:	000ea700 	andeq	sl, lr, r0, lsl #14
    1374:	08d41b00 	ldmeq	r4, {r8, r9, fp, ip}^
    1378:	0edf0000 	cdpeq	0, 13, cr0, cr15, cr0, {0}
    137c:	0ed90000 	cdpeq	0, 13, cr0, cr9, cr0, {0}
    1380:	c81c0000 	ldmdagt	ip, {}	; <UNPREDICTABLE>
    1384:	1b000008 	blne	13ac <__code_start__-0x6c54>
    1388:	000008b2 			; <UNDEFINED> instruction: 0x000008b2
    138c:	00000f10 	andeq	r0, r0, r0, lsl pc
    1390:	00000f08 	andeq	r0, r0, r8, lsl #30
    1394:	0008a61b 	andeq	sl, r8, fp, lsl r6
    1398:	000f5300 	andeq	r5, pc, r0, lsl #6
    139c:	000f4d00 	andeq	r4, pc, r0, lsl #26
    13a0:	03781300 	cmneq	r8, #0, 6
    13a4:	ec1d0000 	ldc	0, cr0, [sp], {-0}
    13a8:	03000008 	movweq	r0, #8
    13ac:	1e7ed891 	mrcne	8, 3, sp, cr14, cr1, {4}
    13b0:	000008f8 	strdeq	r0, [r0], -r8
    13b4:	00000f8d 	andeq	r0, r0, sp, lsl #31
    13b8:	00000f7f 	andeq	r0, r0, pc, ror pc
    13bc:	0009021f 	andeq	r0, r9, pc, lsl r2
    13c0:	09a31a00 	stmibeq	r3!, {r9, fp, ip}
    13c4:	8b280000 	blhi	a013cc <__bss_end__+0x9f794c>
    13c8:	00040000 	andeq	r0, r4, r0
    13cc:	000003a8 	andeq	r0, r0, r8, lsr #7
    13d0:	e2097c01 	and	r7, r9, #256	; 0x100
    13d4:	1b000005 	blne	13f0 <__code_start__-0x6c10>
    13d8:	000009ca 	andeq	r0, r0, sl, asr #19
    13dc:	00000ff7 	strdeq	r0, [r0], -r7
    13e0:	00000ff1 	strdeq	r0, [r0], -r1
    13e4:	0009be1b 	andeq	fp, r9, fp, lsl lr
    13e8:	00102c00 	andseq	r2, r0, r0, lsl #24
    13ec:	00102000 	andseq	r2, r0, r0
    13f0:	09b41b00 	ldmibeq	r4!, {r8, r9, fp, ip}
    13f4:	10920000 	addsne	r0, r2, r0
    13f8:	10820000 	addne	r0, r2, r0
    13fc:	a8130000 	ldmdage	r3, {}	; <UNPREDICTABLE>
    1400:	1e000003 	cdpne	0, 0, cr0, cr0, cr3, {0}
    1404:	000009d6 	ldrdeq	r0, [r0], -r6
    1408:	0000110f 	andeq	r1, r0, pc, lsl #2
    140c:	00001101 	andeq	r1, r0, r1, lsl #2
    1410:	4f200000 	svcmi	0x00200000
    1414:	f0000009 			; <UNDEFINED> instruction: 0xf0000009
    1418:	0200008b 	andeq	r0, r0, #139, 0	; 0x8b
    141c:	0003d800 	andeq	sp, r3, r0, lsl #16
    1420:	097c0100 	ldmdbeq	ip!, {r8}^
    1424:	0009801b 	andeq	r8, r9, fp, lsl r0
    1428:	00116f00 	andseq	r6, r1, r0, lsl #30
    142c:	00116900 	andseq	r6, r1, r0, lsl #18
    1430:	09761b00 	ldmdbeq	r6!, {r8, r9, fp, ip}^
    1434:	11a50000 			; <UNDEFINED> instruction: 0x11a50000
    1438:	119b0000 	orrsne	r0, fp, r0
    143c:	6c1b0000 	ldcvs	0, cr0, [fp], {-0}
    1440:	f4000009 	vst4.8	{d0-d3}, [r0], r9
    1444:	f0000011 			; <UNDEFINED> instruction: 0xf0000011
    1448:	1b000011 	blne	1494 <__code_start__-0x6b6c>
    144c:	00000960 	andeq	r0, r0, r0, ror #18
    1450:	00001224 	andeq	r1, r0, r4, lsr #4
    1454:	00001216 	andeq	r1, r0, r6, lsl r2
    1458:	0003d813 	andeq	sp, r3, r3, lsl r8
    145c:	098c1e00 	stmibeq	ip, {r9, sl, fp, ip}
    1460:	12890000 	addne	r0, r9, #0, 0
    1464:	12870000 	addne	r0, r7, #0, 0
    1468:	981e0000 	ldmdals	lr, {}	; <UNPREDICTABLE>
    146c:	a3000009 	movwge	r0, #9
    1470:	9d000012 	stcls	0, cr0, [r0, #-72]	; 0xffffffb8
    1474:	00000012 	andeq	r0, r0, r2, lsl r0
    1478:	1a000000 	bne	1480 <__code_start__-0x6b80>
    147c:	00000895 	muleq	r0, r5, r8
    1480:	00008c2c 	andeq	r8, r0, ip, lsr #24
    1484:	04080000 	streq	r0, [r8], #-0
    1488:	d6010000 	strle	r0, [r1], -r0
    148c:	00078909 	andeq	r8, r7, r9, lsl #18
    1490:	08be1b00 	ldmeq	lr!, {r8, r9, fp, ip}
    1494:	12d60000 	sbcsne	r0, r6, #0, 0
    1498:	12d20000 	sbcsne	r0, r2, #0, 0
    149c:	e01b0000 	ands	r0, fp, r0
    14a0:	fc000008 	stc2	0, cr0, [r0], {8}
    14a4:	f8000012 			; <UNDEFINED> instruction: 0xf8000012
    14a8:	1b000012 	blne	14f8 <__code_start__-0x6b08>
    14ac:	000008d4 	ldrdeq	r0, [r0], -r4
    14b0:	00001320 	andeq	r1, r0, r0, lsr #6
    14b4:	0000131c 	andeq	r1, r0, ip, lsl r3
    14b8:	0008c81c 	andeq	ip, r8, ip, lsl r8
    14bc:	08b21b00 	ldmeq	r2!, {r8, r9, fp, ip}
    14c0:	13440000 	movtne	r0, #16384	; 0x4000
    14c4:	133e0000 	teqne	lr, #0, 0
    14c8:	a61b0000 	ldrge	r0, [fp], -r0
    14cc:	77000008 	strvc	r0, [r0, -r8]
    14d0:	73000013 	movwvc	r0, #19
    14d4:	13000013 	movwne	r0, #19
    14d8:	00000408 	andeq	r0, r0, r8, lsl #8
    14dc:	0008ec1d 	andeq	lr, r8, sp, lsl ip
    14e0:	d8910300 	ldmle	r1, {r8, r9}
    14e4:	08f81e7e 	ldmeq	r8!, {r1, r2, r3, r4, r5, r6, r9, sl, fp, ip}^
    14e8:	13a10000 			; <UNDEFINED> instruction: 0x13a10000
    14ec:	13970000 	orrsne	r0, r7, #0, 0
    14f0:	021e0000 	andseq	r0, lr, #0, 0
    14f4:	e6000009 	str	r0, [r0], -r9
    14f8:	e2000013 	and	r0, r0, #19, 0
    14fc:	1a000013 	bne	1550 <__code_start__-0x6ab0>
    1500:	000009a3 	andeq	r0, r0, r3, lsr #19
    1504:	00008c48 	andeq	r8, r0, r8, asr #24
    1508:	04280003 	strteq	r0, [r8], #-3
    150c:	7c010000 	stcvc	0, cr0, [r1], {-0}
    1510:	00072009 	andeq	r2, r7, r9
    1514:	09ca1b00 	stmibeq	sl, {r8, r9, fp, ip}^
    1518:	14080000 	strne	r0, [r8], #-0
    151c:	14040000 	strne	r0, [r4], #-0
    1520:	be1b0000 	cdplt	0, 1, cr0, cr11, cr0, {0}
    1524:	2a000009 	bcs	1550 <__code_start__-0x6ab0>
    1528:	26000014 			; <UNDEFINED> instruction: 0x26000014
    152c:	1b000014 	blne	1584 <__code_start__-0x6a7c>
    1530:	000009b4 			; <UNDEFINED> instruction: 0x000009b4
    1534:	00001454 	andeq	r1, r0, r4, asr r4
    1538:	00001448 	andeq	r1, r0, r8, asr #8
    153c:	00042813 	andeq	r2, r4, r3, lsl r8
    1540:	09d61e00 	ldmibeq	r6, {r9, sl, fp, ip}^
    1544:	14b00000 	ldrtne	r0, [r0], #0
    1548:	14a40000 	strtne	r0, [r4], #0
    154c:	00000000 	andeq	r0, r0, r0
    1550:	00094f20 	andeq	r4, r9, r0, lsr #30
    1554:	008cd000 	addeq	sp, ip, r0
    1558:	50000200 	andpl	r0, r0, r0, lsl #4
    155c:	01000004 	tsteq	r0, r4
    1560:	801b097c 	andshi	r0, fp, ip, ror r9
    1564:	00000009 	andeq	r0, r0, r9
    1568:	fc000015 	stc2	0, cr0, [r0], {21}
    156c:	1b000014 	blne	15c4 <__code_start__-0x6a3c>
    1570:	00000976 	andeq	r0, r0, r6, ror r9
    1574:	00001528 	andeq	r1, r0, r8, lsr #10
    1578:	0000151e 	andeq	r1, r0, lr, lsl r5
    157c:	00096c1b 	andeq	r6, r9, fp, lsl ip
    1580:	00157400 	andseq	r7, r5, r0, lsl #8
    1584:	00157000 	andseq	r7, r5, r0
    1588:	09601b00 	stmdbeq	r0!, {r8, r9, fp, ip}^
    158c:	15a20000 	strne	r0, [r2, #0]!
    1590:	15960000 	ldrne	r0, [r6]
    1594:	50130000 	andspl	r0, r3, r0
    1598:	1e000004 	cdpne	0, 0, cr0, cr0, cr4, {0}
    159c:	0000098c 	andeq	r0, r0, ip, lsl #19
    15a0:	000015fc 	strdeq	r1, [r0], -ip
    15a4:	000015f8 	strdeq	r1, [r0], -r8
    15a8:	0009981e 	andeq	r9, r9, lr, lsl r8
    15ac:	00162200 	andseq	r2, r6, r0, lsl #4
    15b0:	00161e00 	andseq	r1, r6, r0, lsl #28
    15b4:	00000000 	andeq	r0, r0, r0
    15b8:	89fc1700 	ldmibhi	ip!, {r8, r9, sl, ip}^
    15bc:	0aa40000 	beq	fe9015c4 <__bss_end__+0xfe8f7b44>
    15c0:	07af0000 	streq	r0, [pc, r0]!
    15c4:	01180000 	tsteq	r8, r0
    15c8:	18400150 	stmdane	r0, {r4, r6, r8}^
    15cc:	91035101 	tstls	r3, r1, lsl #2
    15d0:	01187dd0 			; <UNDEFINED> instruction: 0x01187dd0
    15d4:	00750253 	rsbseq	r0, r5, r3, asr r2
    15d8:	007d0218 	rsbseq	r0, sp, r8, lsl r2
    15dc:	17003001 	strne	r3, [r0, -r1]
    15e0:	00008b0c 	andeq	r8, r0, ip, lsl #22
    15e4:	00000aa4 	andeq	r0, r0, r4, lsr #21
    15e8:	000007cf 	andeq	r0, r0, pc, asr #15
    15ec:	01500118 	cmpeq	r0, r8, lsl r1
    15f0:	5101183a 	tstpl	r1, sl, lsr r8
    15f4:	7dd09103 	ldfvcp	f1, [r0, #12]
    15f8:	02530118 	subseq	r0, r3, #6
    15fc:	17000075 	smlsdxne	r0, r5, r0, r0
    1600:	00008df0 	strdeq	r8, [r0], -r0
    1604:	00000c46 	andeq	r0, r0, r6, asr #24
    1608:	000007e6 	andeq	r0, r0, r6, ror #15
    160c:	05500118 	ldrbeq	r0, [r0, #-280]	; 0xfffffee8
    1610:	0095f403 	addseq	pc, r5, r3, lsl #8
    1614:	00210000 	eoreq	r0, r1, r0
    1618:	f800008e 			; <UNDEFINED> instruction: 0xf800008e
    161c:	18000007 	stmdane	r0, {r0, r1, r2}
    1620:	91045001 	tstls	r4, r1
    1624:	00067dc8 	andeq	r7, r6, r8, asr #27
    1628:	008e1417 	addeq	r1, lr, r7, lsl r4
    162c:	000c4600 	andeq	r4, ip, r0, lsl #12
    1630:	00082700 	andeq	r2, r8, r0, lsl #14
    1634:	50011800 	andpl	r1, r1, r0, lsl #16
    1638:	96240305 	strtls	r0, [r4], -r5, lsl #6
    163c:	01180000 	tsteq	r8, r0
    1640:	ec030551 	cfstr32	mvfx0, [r3], {81}	; 0x51
    1644:	18000094 	stmdane	r0, {r2, r4, r7}
    1648:	03055201 	movweq	r5, #20993	; 0x5201
    164c:	0000965c 	andeq	r9, r0, ip, asr r6
    1650:	02530118 	subseq	r0, r3, #6
    1654:	1900e208 	stmdbne	r0, {r3, r9, sp, lr, pc}
    1658:	00008e18 	andeq	r8, r0, r8, lsl lr
    165c:	00000c76 	andeq	r0, r0, r6, ror ip
    1660:	008e2c17 	addeq	r2, lr, r7, lsl ip
    1664:	000c4600 	andeq	r4, ip, r0, lsl #12
    1668:	00085f00 	andeq	r5, r8, r0, lsl #30
    166c:	50011800 	andpl	r1, r1, r0, lsl #16
    1670:	95cc0305 	strbls	r0, [ip, #773]	; 0x305
    1674:	01180000 	tsteq	r8, r0
    1678:	ec030551 	cfstr32	mvfx0, [r3], {81}	; 0x51
    167c:	18000094 	stmdane	r0, {r2, r4, r7}
    1680:	03055201 	movweq	r5, #20993	; 0x5201
    1684:	0000965c 	andeq	r9, r0, ip, asr r6
    1688:	02530118 	subseq	r0, r3, #6
    168c:	1900be08 	stmdbne	r0, {r3, r9, sl, fp, ip, sp, pc}
    1690:	00008e30 	andeq	r8, r0, r0, lsr lr
    1694:	00000c76 	andeq	r0, r0, r6, ror ip
    1698:	04080000 	streq	r0, [r8], #-0
    169c:	000000b9 	strheq	r0, [r0], -r9
    16a0:	0000c022 	andeq	ip, r0, r2, lsr #32
    16a4:	00088000 	andeq	r8, r8, r0
    16a8:	002c2300 	eoreq	r2, ip, r0, lsl #6
    16ac:	00090000 	andeq	r0, r9, r0
    16b0:	00087009 	andeq	r7, r8, r9
    16b4:	00b92200 	adcseq	r2, r9, r0, lsl #4
    16b8:	08950000 	ldmeq	r5, {}	; <UNPREDICTABLE>
    16bc:	2c230000 	stccs	0, cr0, [r3], #-0
    16c0:	7f000000 	svcvc	0x00000000
    16c4:	04be2400 	ldrteq	r2, [lr], #1024	; 0x400
    16c8:	49010000 	stmdbmi	r1, {}	; <UNPREDICTABLE>
    16cc:	00086a01 	andeq	r6, r8, r1, lsl #20
    16d0:	092a0100 	stmdbeq	sl!, {r8}
    16d4:	03250000 			; <UNDEFINED> instruction: 0x03250000
    16d8:	01000005 	tsteq	r0, r5
    16dc:	002c0f49 	eoreq	r0, ip, r9, asr #30
    16e0:	64260000 	strtvs	r0, [r6], #-0
    16e4:	01007473 	tsteq	r0, r3, ror r4
    16e8:	086a1b49 	stmdaeq	sl!, {r0, r3, r6, r8, r9, fp, ip}^
    16ec:	6e260000 	cdpvs	0, 2, cr0, cr6, cr0, {0}
    16f0:	24490100 	strbcs	r0, [r9], #-256	; 0xffffff00
    16f4:	00000033 	andeq	r0, r0, r3, lsr r0
    16f8:	6c617626 	stclvs	6, cr7, [r1], #-152	; 0xffffff68
    16fc:	2b490100 	blcs	1241b04 <__bss_end__+0x1238084>
    1700:	00000033 	andeq	r0, r0, r3, lsr r0
    1704:	00043425 	andeq	r3, r4, r5, lsr #8
    1708:	34490100 	strbcc	r0, [r9], #-256	; 0xffffff00
    170c:	00000033 	andeq	r0, r0, r3, lsr r0
    1710:	00050825 	andeq	r0, r5, r5, lsr #16
    1714:	3f490100 	svccc	0x00490100
    1718:	00000033 	andeq	r0, r0, r3, lsr r0
    171c:	66756227 	ldrbtvs	r6, [r5], -r7, lsr #4
    1720:	074e0100 	strbeq	r0, [lr, -r0, lsl #2]
    1724:	0000092a 	andeq	r0, r0, sl, lsr #18
    1728:	01007027 	tsteq	r0, r7, lsr #32
    172c:	086a114e 	stmdaeq	sl!, {r1, r2, r3, r6, r8, ip}^
    1730:	75270000 	strvc	r0, [r7, #-0]!
    1734:	0b4f0100 	bleq	13c1b3c <__bss_end__+0x13b80bc>
    1738:	0000002c 	andeq	r0, r0, ip, lsr #32
    173c:	00043a12 	andeq	r3, r4, r2, lsl sl
    1740:	00094a00 	andeq	r4, r9, r0, lsl #20
    1744:	44030500 	strmi	r0, [r3], #-1280	; 0xfffffb00
    1748:	28000096 	stmdacs	r0, {r1, r2, r4, r7}
    174c:	0004ab29 	andeq	sl, r4, r9, lsr #22
    1750:	0d540100 	ldfeqe	f0, [r4, #-0]
    1754:	0000002c 	andeq	r0, r0, ip, lsr #32
    1758:	b9220000 	stmdblt	r2!, {}	; <UNPREDICTABLE>
    175c:	3a000000 	bcc	1764 <__code_start__-0x689c>
    1760:	23000009 	movwcs	r0, #9
    1764:	0000002c 	andeq	r0, r0, ip, lsr #32
    1768:	c022003f 	eorgt	r0, r2, pc, lsr r0
    176c:	4a000000 	bmi	1774 <__code_start__-0x688c>
    1770:	23000009 	movwcs	r0, #9
    1774:	0000002c 	andeq	r0, r0, ip, lsr #32
    1778:	3a090004 	bcc	241790 <__bss_end__+0x237d10>
    177c:	24000009 	strcs	r0, [r0], #-9
    1780:	000004c3 	andeq	r0, r0, r3, asr #9
    1784:	6a0e3801 	bvs	38f790 <__bss_end__+0x385d10>
    1788:	01000008 	tsteq	r0, r8
    178c:	000009a3 	andeq	r0, r0, r3, lsr #19
    1790:	74736426 	ldrbtvc	r6, [r3], #-1062	; 0xfffffbda
    1794:	1c380100 	ldfnes	f0, [r8], #-0
    1798:	0000086a 	andeq	r0, r0, sl, ror #16
    179c:	01006e26 	tsteq	r0, r6, lsr #28
    17a0:	00332538 	eorseq	r2, r3, r8, lsr r5
    17a4:	70260000 	eorvc	r0, r6, r0
    17a8:	2e380100 	rsfcse	f0, f0, f0
    17ac:	0000086a 	andeq	r0, r0, sl, ror #16
    17b0:	00049725 	andeq	r9, r4, r5, lsr #14
    17b4:	37380100 	ldrcc	r0, [r8, -r0, lsl #2]!
    17b8:	0000086a 	andeq	r0, r0, sl, ror #16
    17bc:	6e656c27 	cdpvs	12, 6, cr6, cr5, cr7, {1}
    17c0:	063a0100 	ldrteq	r0, [sl], -r0, lsl #2
    17c4:	00000033 	andeq	r0, r0, r3, lsr r0
    17c8:	01007327 	tsteq	r0, r7, lsr #6
    17cc:	086a083e 	stmdaeq	sl!, {r1, r2, r3, r4, r5, fp}^
    17d0:	2a000000 	bcs	17d8 <__code_start__-0x6828>
    17d4:	00646170 	rsbeq	r6, r4, r0, ror r1
    17d8:	6a0e2e01 	bvs	38cfe4 <__bss_end__+0x383564>
    17dc:	01000008 	tsteq	r0, r8
    17e0:	000009e3 	andeq	r0, r0, r3, ror #19
    17e4:	01007026 	tsteq	r0, r6, lsr #32
    17e8:	086a182e 	stmdaeq	sl!, {r1, r2, r3, r5, fp, ip}^
    17ec:	03250000 			; <UNDEFINED> instruction: 0x03250000
    17f0:	01000005 	tsteq	r0, r5
    17f4:	086a222e 	stmdaeq	sl!, {r1, r2, r3, r5, r9, sp}^
    17f8:	34250000 	strtcc	r0, [r5], #-0
    17fc:	01000004 	tsteq	r0, r4
    1800:	00332c2e 	eorseq	r2, r3, lr, lsr #24
    1804:	6c270000 	stcvs	0, cr0, [r7], #-0
    1808:	01006e65 	tsteq	r0, r5, ror #28
    180c:	0033062f 	eorseq	r0, r3, pc, lsr #12
    1810:	24000000 	strcs	r0, [r0], #-0
    1814:	000003f3 	strdeq	r0, [r0], -r3
    1818:	330c2701 	movwcc	r2, #50945	; 0xc701
    181c:	01000000 	mrseq	r0, (UNDEF: 0)
    1820:	000009ff 	strdeq	r0, [r0], -pc	; <UNPREDICTABLE>
    1824:	01006326 	tsteq	r0, r6, lsr #6
    1828:	00331827 	eorseq	r1, r3, r7, lsr #16
    182c:	2b000000 	blcs	1834 <__code_start__-0x67cc>
    1830:	00000484 	andeq	r0, r0, r4, lsl #9
    1834:	48061f01 	stmdami	r6, {r0, r8, r9, sl, fp, ip}
    1838:	60000088 	andvs	r0, r0, r8, lsl #1
    183c:	01000000 	mrseq	r0, (UNDEF: 0)
    1840:	000a8f9c 	muleq	sl, ip, pc	; <UNPREDICTABLE>
    1844:	04610f00 	strbteq	r0, [r1], #-3840	; 0xfffff100
    1848:	1f010000 	svcne	0x00010000
    184c:	00009e1b 	andeq	r9, r0, fp, lsl lr
    1850:	00164700 	andseq	r4, r6, r0, lsl #14
    1854:	00164300 	andseq	r4, r6, r0, lsl #6
    1858:	04d20f00 	ldrbeq	r0, [r2], #3840	; 0xf00
    185c:	1f010000 	svcne	0x00010000
    1860:	0000d130 	andeq	sp, r0, r0, lsr r1
    1864:	00166c00 	andseq	r6, r6, r0, lsl #24
    1868:	00166800 	andseq	r6, r6, r0, lsl #16
    186c:	043a1200 	ldrteq	r1, [sl], #-512	; 0xfffffe00
    1870:	0a9f0000 	beq	fe7c1878 <__bss_end__+0xfe7b7df8>
    1874:	03050000 	movweq	r0, #20480	; 0x5000
    1878:	0000964c 	andeq	r9, r0, ip, asr #12
    187c:	00888c17 	addeq	r8, r8, r7, lsl ip
    1880:	000c4600 	andeq	r4, ip, r0, lsl #12
    1884:	000a8500 	andeq	r8, sl, r0, lsl #10
    1888:	50011800 	andpl	r1, r1, r0, lsl #16
    188c:	95000305 	strls	r0, [r0, #-773]	; 0xfffffcfb
    1890:	01180000 	tsteq	r8, r0
    1894:	ec030551 	cfstr32	mvfx0, [r3], {81}	; 0x51
    1898:	18000094 	stmdane	r0, {r2, r4, r7}
    189c:	03055201 	movweq	r5, #20993	; 0x5201
    18a0:	0000964c 	andeq	r9, r0, ip, asr #12
    18a4:	02530118 	subseq	r0, r3, #6
    18a8:	02182008 	andseq	r2, r8, #8, 0
    18ac:	0305007d 	movweq	r0, #20605	; 0x507d
    18b0:	0000953c 	andeq	r9, r0, ip, lsr r5
    18b4:	88901900 	ldmhi	r0, {r8, fp, ip}
    18b8:	0c760000 	ldcleq	0, cr0, [r6], #-0
    18bc:	22000000 	andcs	r0, r0, #0, 0
    18c0:	000000c0 	andeq	r0, r0, r0, asr #1
    18c4:	00000a9f 	muleq	r0, pc, sl	; <UNPREDICTABLE>
    18c8:	00002c23 	andeq	r2, r0, r3, lsr #24
    18cc:	09000e00 	stmdbeq	r0, {r9, sl, fp}
    18d0:	00000a8f 	andeq	r0, r0, pc, lsl #21
    18d4:	0008952c 	andeq	r9, r8, ip, lsr #10
    18d8:	00852000 	addeq	r2, r5, r0
    18dc:	00032800 	andeq	r2, r3, r0, lsl #16
    18e0:	3a9c0100 	bcc	fe701ce8 <__bss_end__+0xfe6f8268>
    18e4:	1b00000c 	blne	191c <__code_start__-0x66e4>
    18e8:	000008a6 	andeq	r0, r0, r6, lsr #17
    18ec:	000016a5 	andeq	r1, r0, r5, lsr #13
    18f0:	0000168d 	andeq	r1, r0, sp, lsl #13
    18f4:	0008b21b 	andeq	fp, r8, fp, lsl r2
    18f8:	00174f00 	andseq	r4, r7, r0, lsl #30
    18fc:	00174700 	andseq	r4, r7, r0, lsl #14
    1900:	08c81b00 	stmiaeq	r8, {r8, r9, fp, ip}^
    1904:	17a60000 	strne	r0, [r6, r0]!
    1908:	17860000 	strne	r0, [r6, r0]
    190c:	d41b0000 	ldrle	r0, [fp], #-0
    1910:	7c000008 	stcvc	0, cr0, [r0], {8}
    1914:	6e000018 	mcrvs	0, 0, r0, cr0, cr8, {0}
    1918:	2d000018 	stccs	0, cr0, [r0, #-96]	; 0xffffffa0
    191c:	000008e0 	andeq	r0, r0, r0, ror #17
    1920:	1d009102 	stfned	f1, [r0, #-8]
    1924:	000008ec 	andeq	r0, r0, ip, ror #17
    1928:	7fa89103 	svcvc	0x00a89103
    192c:	0008f81e 	andeq	pc, r8, lr, lsl r8	; <UNPREDICTABLE>
    1930:	00191000 	andseq	r1, r9, r0
    1934:	0018dc00 	andseq	sp, r8, r0, lsl #24
    1938:	09021e00 	stmdbeq	r2, {r9, sl, fp, ip}
    193c:	1a770000 	bne	1dc1944 <__bss_end__+0x1db7ec4>
    1940:	1a550000 	bne	1541948 <__bss_end__+0x1537ec8>
    1944:	be2e0000 	cdplt	0, 2, cr0, cr14, cr0, {0}
    1948:	80000008 	andhi	r0, r0, r8
    194c:	0009a31a 	andeq	sl, r9, sl, lsl r3
    1950:	0085c400 	addeq	ip, r5, r0, lsl #8
    1954:	a0000400 	andge	r0, r0, r0, lsl #8
    1958:	01000002 	tsteq	r0, r2
    195c:	0b6d097c 	bleq	1b43f54 <__bss_end__+0x1b3a4d4>
    1960:	ca1b0000 	bgt	6c1968 <__bss_end__+0x6b7ee8>
    1964:	5f000009 	svcpl	0x00000009
    1968:	5500001b 	strpl	r0, [r0, #-27]	; 0xffffffe5
    196c:	1b00001b 	blne	19e0 <__code_start__-0x6620>
    1970:	000009be 			; <UNDEFINED> instruction: 0x000009be
    1974:	00001bb3 			; <UNDEFINED> instruction: 0x00001bb3
    1978:	00001ba3 	andeq	r1, r0, r3, lsr #23
    197c:	0009b41b 	andeq	fp, r9, fp, lsl r4
    1980:	001c3300 	andseq	r3, ip, r0, lsl #6
    1984:	001c1f00 	andseq	r1, ip, r0, lsl #30
    1988:	02a01300 	adceq	r1, r0, #0, 6
    198c:	d61e0000 	ldrle	r0, [lr], -r0
    1990:	c5000009 	strgt	r0, [r0, #-9]
    1994:	b500001c 	strlt	r0, [r0, #-28]	; 0xffffffe4
    1998:	0000001c 	andeq	r0, r0, ip, lsl r0
    199c:	094f1a00 	stmdbeq	pc, {r9, fp, ip}^	; <UNPREDICTABLE>
    19a0:	867c0000 	ldrbthi	r0, [ip], -r0
    19a4:	00020000 	andeq	r0, r2, r0
    19a8:	000002e8 	andeq	r0, r0, r8, ror #5
    19ac:	d8097c01 	stmdale	r9, {r0, sl, fp, ip, sp, lr}
    19b0:	1b00000b 	blne	19e4 <__code_start__-0x661c>
    19b4:	00000980 	andeq	r0, r0, r0, lsl #19
    19b8:	00001d31 	andeq	r1, r0, r1, lsr sp
    19bc:	00001d29 	andeq	r1, r0, r9, lsr #26
    19c0:	0009761b 	andeq	r7, r9, fp, lsl r6
    19c4:	001d7000 	andseq	r7, sp, r0
    19c8:	001d6800 	andseq	r6, sp, r0, lsl #16
    19cc:	096c1b00 	stmdbeq	ip!, {r8, r9, fp, ip}^
    19d0:	1daf0000 	stcne	0, cr0, [pc]	; 19d8 <__code_start__-0x6628>
    19d4:	1dab0000 	stcne	0, cr0, [fp]
    19d8:	601b0000 	andsvs	r0, fp, r0
    19dc:	df000009 	svcle	0x00000009
    19e0:	d100001d 	tstle	r0, sp, lsl r0
    19e4:	1300001d 	movwne	r0, #29
    19e8:	000002e8 	andeq	r0, r0, r8, ror #5
    19ec:	00098c1e 	andeq	r8, r9, lr, lsl ip
    19f0:	001e4400 	andseq	r4, lr, r0, lsl #8
    19f4:	001e3e00 	andseq	r3, lr, r0, lsl #28
    19f8:	09981e00 	ldmibeq	r8, {r9, sl, fp, ip}
    19fc:	1e760000 	cdpne	0, 7, cr0, cr6, cr0, {0}
    1a00:	1e720000 	cdpne	0, 7, cr0, cr2, cr0, {0}
    1a04:	00000000 	andeq	r0, r0, r0
    1a08:	00091b2f 	andeq	r1, r9, pc, lsr #22
    1a0c:	00873400 	addeq	r3, r7, r0, lsl #8
    1a10:	00006000 	andeq	r6, r0, r0
    1a14:	000bf700 	andeq	pc, fp, r0, lsl #14
    1a18:	091c1e00 	ldmdbeq	ip, {r9, sl, fp, ip}
    1a1c:	1e980000 	cdpne	0, 9, cr0, cr8, cr0, {0}
    1a20:	1e940000 	cdpne	0, 9, cr0, cr4, cr0, {0}
    1a24:	17000000 	strne	r0, [r0, -r0]
    1a28:	00008808 	andeq	r8, r0, r8, lsl #16
    1a2c:	00000c46 	andeq	r0, r0, r6, asr #24
    1a30:	00000c30 	andeq	r0, r0, r0, lsr ip
    1a34:	05500118 	ldrbeq	r0, [r0, #-280]	; 0xfffffee8
    1a38:	00950003 	addseq	r0, r5, r3
    1a3c:	51011800 	tstpl	r1, r0, lsl #16
    1a40:	94ec0305 	strbtls	r0, [ip], #773	; 0x305
    1a44:	01180000 	tsteq	r8, r0
    1a48:	44030552 	strmi	r0, [r3], #-1362	; 0xfffffaae
    1a4c:	18000096 	stmdane	r0, {r1, r2, r4, r7}
    1a50:	08025301 	stmdaeq	r2, {r0, r8, r9, ip, lr}
    1a54:	7d021879 	stcvc	8, cr1, [r2, #-484]	; 0xfffffe1c
    1a58:	14030500 	strne	r0, [r3], #-1280	; 0xfffffb00
    1a5c:	00000095 	muleq	r0, r5, r0
    1a60:	00880c19 	addeq	r0, r8, r9, lsl ip
    1a64:	000c7600 	andeq	r7, ip, r0, lsl #12
    1a68:	fb300000 	blx	c01a72 <__bss_end__+0xbf7ff2>
    1a6c:	fb000004 	blx	1a86 <__code_start__-0x657a>
    1a70:	03000004 	movweq	r0, #4
    1a74:	a23005eb 	eorsge	r0, r0, #985661440	; 0x3ac00000
    1a78:	a2000003 	andge	r0, r0, #3, 0
    1a7c:	03000003 	movweq	r0, #3
    1a80:	9d300628 	ldcls	6, cr0, [r0, #-160]!	; 0xffffff60
    1a84:	9d000004 	stcls	0, cr0, [r0, #-16]
    1a88:	03000004 	movweq	r0, #4
    1a8c:	cb3007ee 	blgt	c03a4c <__bss_end__+0xbf9fcc>
    1a90:	cb000004 	blgt	1aa8 <__code_start__-0x6558>
    1a94:	03000004 	movweq	r0, #4
    1a98:	a43005ea 	ldrtge	r0, [r0], #-1514	; 0xfffffa16
    1a9c:	a4000004 	strge	r0, [r0], #-4
    1aa0:	03000004 	movweq	r0, #4
    1aa4:	473007ed 	ldrmi	r0, [r0, -sp, ror #15]!
    1aa8:	47000004 	strmi	r0, [r0, -r4]
    1aac:	03000004 	movweq	r0, #4
    1ab0:	0a00066e 	beq	3470 <__code_start__-0x4b90>
    1ab4:	04000001 	streq	r0, [r0], #-1
    1ab8:	00089400 	andeq	r9, r8, r0, lsl #8
    1abc:	93010400 	movwls	r0, #5120	; 0x1400
    1ac0:	0c000000 	stceq	0, cr0, [r0], {-0}
    1ac4:	0000051f 	andeq	r0, r0, pc, lsl r5
    1ac8:	0000033c 	andeq	r0, r0, ip, lsr r3
    1acc:	00000478 	andeq	r0, r0, r8, ror r4
    1ad0:	00000000 	andeq	r0, r0, r0
    1ad4:	00001377 	andeq	r1, r0, r7, ror r3
    1ad8:	69050402 	stmdbvs	r5, {r1, sl}
    1adc:	0300746e 	movweq	r7, #1134	; 0x46e
    1ae0:	00390704 	eorseq	r0, r9, r4, lsl #14
    1ae4:	01030000 	mrseq	r0, (UNDEF: 3)
    1ae8:	00004806 	andeq	r4, r0, r6, lsl #16
    1aec:	05020300 	streq	r0, [r2, #-768]	; 0xfffffd00
    1af0:	0000016c 	andeq	r0, r0, ip, ror #2
    1af4:	57050403 	strpl	r0, [r5, -r3, lsl #8]
    1af8:	03000001 	movweq	r0, #1
    1afc:	01520508 	cmpeq	r2, r8, lsl #10
    1b00:	01030000 	mrseq	r0, (UNDEF: 3)
    1b04:	00004608 	andeq	r4, r0, r8, lsl #12
    1b08:	07020300 	streq	r0, [r2, -r0, lsl #6]
    1b0c:	0000005d 	andeq	r0, r0, sp, asr r0
    1b10:	34070403 	strcc	r0, [r7], #-1027	; 0xfffffbfd
    1b14:	03000000 	movweq	r0, #0
    1b18:	002f0708 	eoreq	r0, pc, r8, lsl #14
    1b1c:	25040000 	strcs	r0, [r4, #-0]
    1b20:	7a000000 	bvc	1b28 <__code_start__-0x64d8>
    1b24:	05000000 	streq	r0, [r0, #-0]
    1b28:	00000025 	andeq	r0, r0, r5, lsr #32
    1b2c:	01600600 	cmneq	r0, r0, lsl #12
    1b30:	1c020000 	stcne	0, cr0, [r2], {-0}
    1b34:	0000860e 	andeq	r8, r0, lr, lsl #12
    1b38:	6b040700 	blvs	103740 <__bss_end__+0xf9cc0>
    1b3c:	04000000 	streq	r0, [r0], #-0
    1b40:	00000025 	andeq	r0, r0, r5, lsr #32
    1b44:	0000009b 	muleq	r0, fp, r0
    1b48:	00009b05 	andeq	r9, r0, r5, lsl #22
    1b4c:	04070000 	streq	r0, [r7], #-0
    1b50:	000000a8 	andeq	r0, r0, r8, lsr #1
    1b54:	4f080103 	svcmi	0x00080103
    1b58:	08000000 	stmdaeq	r0, {}	; <UNPREDICTABLE>
    1b5c:	000000a1 	andeq	r0, r0, r1, lsr #1
    1b60:	0003e006 	andeq	lr, r3, r6
    1b64:	0e210200 	cdpeq	2, 2, cr0, cr1, cr0, {0}
    1b68:	000000b9 	strheq	r0, [r0], -r9
    1b6c:	008c0407 	addeq	r0, ip, r7, lsl #8
    1b70:	11090000 	mrsne	r0, (UNDEF: 9)
    1b74:	01000005 	tsteq	r0, r5
    1b78:	8ee4060c 	cdphi	6, 14, cr0, cr4, cr12, {0}
    1b7c:	00100000 	andseq	r0, r0, r0
    1b80:	9c010000 	stcls	0, cr0, [r1], {-0}
    1b84:	000000e8 	andeq	r0, r0, r8, ror #1
    1b88:	0100720a 	tsteq	r0, sl, lsl #4
    1b8c:	002c0e0d 	eoreq	r0, ip, sp, lsl #28
    1b90:	1ec00000 	cdpne	0, 12, cr0, cr0, cr0, {0}
    1b94:	1eb80000 	cdpne	0, 11, cr0, cr8, cr0, {0}
    1b98:	0b000000 	bleq	1ba0 <__code_start__-0x6460>
    1b9c:	00000176 	andeq	r0, r0, r6, ror r1
    1ba0:	d4060301 	strle	r0, [r6], #-769	; 0xfffffcff
    1ba4:	1000008e 	andne	r0, r0, lr, lsl #1
    1ba8:	01000000 	mrseq	r0, (UNDEF: 0)
    1bac:	00720a9c 			; <UNDEFINED> instruction: 0x00720a9c
    1bb0:	2c0e0401 	cfstrscs	mvf0, [lr], {1}
    1bb4:	08000000 	stmdaeq	r0, {}	; <UNPREDICTABLE>
    1bb8:	0000001f 	andeq	r0, r0, pc, lsl r0
    1bbc:	0000001f 	andeq	r0, r0, pc, lsl r0
    1bc0:	00012f00 	andeq	r2, r1, r0, lsl #30
    1bc4:	3d000400 	cfstrscc	mvf0, [r0, #-0]
    1bc8:	04000009 	streq	r0, [r0], #-9
    1bcc:	00009301 	andeq	r9, r0, r1, lsl #6
    1bd0:	053e0c00 	ldreq	r0, [lr, #-3072]!	; 0xfffff400
    1bd4:	033c0000 	teqeq	ip, #0, 0
    1bd8:	8ef40000 	cdphi	0, 15, cr0, cr4, cr0, {0}
    1bdc:	002c0000 	eoreq	r0, ip, r0
    1be0:	141b0000 	ldrne	r0, [fp], #-0
    1be4:	04020000 	streq	r0, [r2], #-0
    1be8:	746e6905 	strbtvc	r6, [lr], #-2309	; 0xfffff6fb
    1bec:	07040300 	streq	r0, [r4, -r0, lsl #6]
    1bf0:	00000039 	andeq	r0, r0, r9, lsr r0
    1bf4:	48060103 	stmdami	r6, {r0, r1, r8}
    1bf8:	03000000 	movweq	r0, #0
    1bfc:	016c0502 	cmneq	ip, r2, lsl #10
    1c00:	04030000 	streq	r0, [r3], #-0
    1c04:	00015705 	andeq	r5, r1, r5, lsl #14
    1c08:	05080300 	streq	r0, [r8, #-768]	; 0xfffffd00
    1c0c:	00000152 	andeq	r0, r0, r2, asr r1
    1c10:	46080103 	strmi	r0, [r8], -r3, lsl #2
    1c14:	03000000 	movweq	r0, #0
    1c18:	005d0702 	subseq	r0, sp, r2, lsl #14
    1c1c:	04030000 	streq	r0, [r3], #-0
    1c20:	00003407 	andeq	r3, r0, r7, lsl #8
    1c24:	07080300 	streq	r0, [r8, -r0, lsl #6]
    1c28:	0000002f 	andeq	r0, r0, pc, lsr #32
    1c2c:	00002504 	andeq	r2, r0, r4, lsl #10
    1c30:	00007a00 	andeq	r7, r0, r0, lsl #20
    1c34:	00250500 	eoreq	r0, r5, r0, lsl #10
    1c38:	06000000 	streq	r0, [r0], -r0
    1c3c:	00000160 	andeq	r0, r0, r0, ror #2
    1c40:	860e1c02 	strhi	r1, [lr], -r2, lsl #24
    1c44:	07000000 	streq	r0, [r0, -r0]
    1c48:	00006b04 	andeq	r6, r0, r4, lsl #22
    1c4c:	00250400 	eoreq	r0, r5, r0, lsl #8
    1c50:	009b0000 	addseq	r0, fp, r0
    1c54:	9b050000 	blls	141c5c <__bss_end__+0x1381dc>
    1c58:	00000000 	andeq	r0, r0, r0
    1c5c:	00a80407 	adceq	r0, r8, r7, lsl #8
    1c60:	01030000 	mrseq	r0, (UNDEF: 3)
    1c64:	00004f08 	andeq	r4, r0, r8, lsl #30
    1c68:	00a10800 	adceq	r0, r1, r0, lsl #16
    1c6c:	e0060000 	and	r0, r6, r0
    1c70:	02000003 	andeq	r0, r0, #3, 0
    1c74:	00b90e21 	adcseq	r0, r9, r1, lsr #28
    1c78:	04070000 	streq	r0, [r7], #-0
    1c7c:	0000008c 	andeq	r0, r0, ip, lsl #1
    1c80:	00044709 	andeq	r4, r4, r9, lsl #14
    1c84:	06040100 	streq	r0, [r4], -r0, lsl #2
    1c88:	00008ef4 	strdeq	r8, [r0], -r4
    1c8c:	0000002c 	andeq	r0, r0, ip, lsr #32
    1c90:	010e9c01 	tsteq	lr, r1, lsl #24
    1c94:	080a0000 	stmdaeq	sl, {}	; <UNPREDICTABLE>
    1c98:	e800008f 	stmda	r0, {r0, r1, r2, r3, r7}
    1c9c:	0b000000 	bleq	1ca4 <__code_start__-0x635c>
    1ca0:	03055001 	movweq	r5, #20481	; 0x5001
    1ca4:	00009668 	andeq	r9, r0, r8, ror #12
    1ca8:	8f0c0c00 	svchi	0x000c0c00
    1cac:	010e0000 	mrseq	r0, (UNDEF: 14)
    1cb0:	140d0000 	strne	r0, [sp], #-0
    1cb4:	1a00008f 	bne	1ef8 <__code_start__-0x6108>
    1cb8:	04000001 	streq	r0, [r0], #-1
    1cbc:	0b000001 	bleq	1cc8 <__code_start__-0x6338>
    1cc0:	3a015001 	bcc	55ccc <__bss_end__+0x4c24c>
    1cc4:	8f180c00 	svchi	0x00180c00
    1cc8:	01260000 			; <UNDEFINED> instruction: 0x01260000
    1ccc:	0e000000 	cdpeq	0, 0, cr0, cr0, cr0, {0}
    1cd0:	00000559 	andeq	r0, r0, r9, asr r5
    1cd4:	00000559 	andeq	r0, r0, r9, asr r5
    1cd8:	0e064d02 	cdpeq	13, 0, cr4, cr6, cr2, {0}
    1cdc:	00000054 	andeq	r0, r0, r4, asr r0
    1ce0:	00000054 	andeq	r0, r0, r4, asr r0
    1ce4:	0e065802 	cdpeq	8, 0, cr5, cr6, cr2, {0}
    1ce8:	00000533 	andeq	r0, r0, r3, lsr r5
    1cec:	00000533 	andeq	r0, r0, r3, lsr r5
    1cf0:	00066b02 	andeq	r6, r6, r2, lsl #22
    1cf4:	00000190 	muleq	r0, r0, r1
    1cf8:	09fd0004 	ldmibeq	sp!, {r2}^
    1cfc:	01040000 	mrseq	r0, (UNDEF: 4)
    1d00:	00000093 	muleq	r0, r3, r0
    1d04:	00058f0c 	andeq	r8, r5, ip, lsl #30
    1d08:	00033c00 	andeq	r3, r3, r0, lsl #24
    1d0c:	008f2000 	addeq	r2, pc, r0
    1d10:	0000f800 	andeq	pc, r0, r0, lsl #16
    1d14:	0014a600 	andseq	sl, r4, r0, lsl #12
    1d18:	05040200 	streq	r0, [r4, #-512]	; 0xfffffe00
    1d1c:	00746e69 	rsbseq	r6, r4, r9, ror #28
    1d20:	39070403 	stmdbcc	r7, {r0, r1, sl}
    1d24:	03000000 	movweq	r0, #0
    1d28:	00480601 	subeq	r0, r8, r1, lsl #12
    1d2c:	02030000 	andeq	r0, r3, #0, 0
    1d30:	00016c05 	andeq	r6, r1, r5, lsl #24
    1d34:	05040300 	streq	r0, [r4, #-768]	; 0xfffffd00
    1d38:	00000157 	andeq	r0, r0, r7, asr r1
    1d3c:	52050803 	andpl	r0, r5, #196608	; 0x30000
    1d40:	03000001 	movweq	r0, #1
    1d44:	00460801 	subeq	r0, r6, r1, lsl #16
    1d48:	02030000 	andeq	r0, r3, #0, 0
    1d4c:	00005d07 	andeq	r5, r0, r7, lsl #26
    1d50:	07040300 	streq	r0, [r4, -r0, lsl #6]
    1d54:	00000034 	andeq	r0, r0, r4, lsr r0
    1d58:	2f070803 	svccs	0x00070803
    1d5c:	04000000 	streq	r0, [r0], #-0
    1d60:	00000025 	andeq	r0, r0, r5, lsr #32
    1d64:	0000007a 	andeq	r0, r0, sl, ror r0
    1d68:	00002505 	andeq	r2, r0, r5, lsl #10
    1d6c:	60060000 	andvs	r0, r6, r0
    1d70:	02000001 	andeq	r0, r0, #1, 0
    1d74:	00860e1c 	addeq	r0, r6, ip, lsl lr
    1d78:	04070000 	streq	r0, [r7], #-0
    1d7c:	0000006b 	andeq	r0, r0, fp, rrx
    1d80:	00002504 	andeq	r2, r0, r4, lsl #10
    1d84:	00009b00 	andeq	r9, r0, r0, lsl #22
    1d88:	009b0500 	addseq	r0, fp, r0, lsl #10
    1d8c:	07000000 	streq	r0, [r0, -r0]
    1d90:	0000a804 	andeq	sl, r0, r4, lsl #16
    1d94:	08010300 	stmdaeq	r1, {r8, r9}
    1d98:	0000004f 	andeq	r0, r0, pc, asr #32
    1d9c:	0000a108 	andeq	sl, r0, r8, lsl #2
    1da0:	03e00600 	mvneq	r0, #0, 12
    1da4:	21020000 	mrscs	r0, (UNDEF: 2)
    1da8:	0000b90e 	andeq	fp, r0, lr, lsl #18
    1dac:	8c040700 	stchi	7, cr0, [r4], {-0}
    1db0:	09000000 	stmdbeq	r0, {}	; <UNPREDICTABLE>
    1db4:	00000567 	andeq	r0, r0, r7, ror #10
    1db8:	20060401 	andcs	r0, r6, r1, lsl #8
    1dbc:	f800008f 			; <UNDEFINED> instruction: 0xf800008f
    1dc0:	01000000 	mrseq	r0, (UNDEF: 0)
    1dc4:	00015b9c 	muleq	r1, ip, fp
    1dc8:	04260600 	strteq	r0, [r6], #-1536	; 0xfffffa00
    1dcc:	05010000 	streq	r0, [r1, #-0]
    1dd0:	00002510 	andeq	r2, r0, r0, lsl r5
    1dd4:	04690600 	strbteq	r0, [r9], #-1536	; 0xfffffa00
    1dd8:	05010000 	streq	r0, [r1, #-0]
    1ddc:	0000251f 	andeq	r2, r0, pc, lsl r5
    1de0:	00270a00 	eoreq	r0, r7, r0, lsl #20
    1de4:	06010000 	streq	r0, [r1], -r0
    1de8:	73620b07 	cmnvc	r2, #7168	; 0x1c00
    1dec:	0a010073 	beq	41fc0 <__bss_end__+0x38540>
    1df0:	00015b0a 	andeq	r5, r1, sl, lsl #22
    1df4:	001f6000 	andseq	r6, pc, r0
    1df8:	001f4800 	andseq	r4, pc, r0, lsl #16
    1dfc:	056f0c00 	strbeq	r0, [pc, #-3072]!	; 1204 <__code_start__-0x6dfc>
    1e00:	0b010000 	bleq	41e08 <__bss_end__+0x38388>
    1e04:	00015b0a 	andeq	r5, r1, sl, lsl #22
    1e08:	8ff80d00 	svchi	0x00f80d00
    1e0c:	00080000 	andeq	r0, r8, r0
    1e10:	01360000 	teqeq	r6, r0
    1e14:	690b0000 	stmdbvs	fp, {}	; <UNPREDICTABLE>
    1e18:	1401006e 	strne	r0, [r1], #-110	; 0xffffff92
    1e1c:	00002c05 	andeq	r2, r0, r5, lsl #24
    1e20:	001ffa00 	andseq	pc, pc, r0, lsl #20
    1e24:	001ff800 	andseq	pc, pc, r0, lsl #16
    1e28:	280e0000 	stmdacs	lr, {}	; <UNPREDICTABLE>
    1e2c:	6100008f 	smlabbvs	r0, pc, r0, r0	; <UNPREDICTABLE>
    1e30:	0e000001 	cdpeq	0, 0, cr0, cr0, cr1, {0}
    1e34:	00008ff8 	strdeq	r8, [r0], -r8	; <UNPREDICTABLE>
    1e38:	0000016e 	andeq	r0, r0, lr, ror #2
    1e3c:	0090040e 	addseq	r0, r0, lr, lsl #8
    1e40:	00017a00 	andeq	r7, r1, r0, lsl #20
    1e44:	90080e00 	andls	r0, r8, r0, lsl #28
    1e48:	01870000 	orreq	r0, r7, r0
    1e4c:	07000000 	streq	r0, [r0, -r0]
    1e50:	00002504 	andeq	r2, r0, r4, lsl #10
    1e54:	05810f00 	streq	r0, [r1, #3840]	; 0xf00
    1e58:	05810000 	streq	r0, [r1]
    1e5c:	31020000 	mrscc	r0, (UNDEF: 2)
    1e60:	77100601 	ldrvc	r0, [r0, -r1, lsl #12]
    1e64:	77000005 	strvc	r0, [r0, -r5]
    1e68:	02000005 	andeq	r0, r0, #5, 0
    1e6c:	270f063b 	smladxcs	pc, fp, r6, r0	; <UNPREDICTABLE>
    1e70:	27000000 	strcs	r0, [r0, -r0]
    1e74:	02000000 	andeq	r0, r0, #0, 0
    1e78:	10060105 	andne	r0, r6, r5, lsl #2
    1e7c:	00000447 	andeq	r0, r0, r7, asr #8
    1e80:	00000447 	andeq	r0, r0, r7, asr #8
    1e84:	00066e02 	andeq	r6, r6, r2, lsl #28
    1e88:	000000ce 	andeq	r0, r0, lr, asr #1
    1e8c:	0ae80004 	beq	ffa01ea4 <__bss_end__+0xff9f8424>
    1e90:	01040000 	mrseq	r0, (UNDEF: 4)
    1e94:	00000093 	muleq	r0, r3, r0
    1e98:	0005a40c 	andeq	sl, r5, ip, lsl #8
    1e9c:	00033c00 	andeq	r3, r3, r0, lsl #24
    1ea0:	00901800 	addseq	r1, r0, r0, lsl #16
    1ea4:	00000400 	andeq	r0, r0, r0, lsl #8
    1ea8:	0015bc00 	andseq	fp, r5, r0, lsl #24
    1eac:	05040200 	streq	r0, [r4, #-512]	; 0xfffffe00
    1eb0:	00746e69 	rsbseq	r6, r4, r9, ror #28
    1eb4:	39070403 	stmdbcc	r7, {r0, r1, sl}
    1eb8:	03000000 	movweq	r0, #0
    1ebc:	00480601 	subeq	r0, r8, r1, lsl #12
    1ec0:	02030000 	andeq	r0, r3, #0, 0
    1ec4:	00016c05 	andeq	r6, r1, r5, lsl #24
    1ec8:	05040300 	streq	r0, [r4, #-768]	; 0xfffffd00
    1ecc:	00000157 	andeq	r0, r0, r7, asr r1
    1ed0:	52050803 	andpl	r0, r5, #196608	; 0x30000
    1ed4:	03000001 	movweq	r0, #1
    1ed8:	00460801 	subeq	r0, r6, r1, lsl #16
    1edc:	02030000 	andeq	r0, r3, #0, 0
    1ee0:	00005d07 	andeq	r5, r0, r7, lsl #26
    1ee4:	07040300 	streq	r0, [r4, -r0, lsl #6]
    1ee8:	00000034 	andeq	r0, r0, r4, lsr r0
    1eec:	2f070803 	svccs	0x00070803
    1ef0:	04000000 	streq	r0, [r0], #-0
    1ef4:	00000025 	andeq	r0, r0, r5, lsr #32
    1ef8:	0000007a 	andeq	r0, r0, sl, ror r0
    1efc:	00002505 	andeq	r2, r0, r5, lsl #10
    1f00:	60060000 	andvs	r0, r6, r0
    1f04:	02000001 	andeq	r0, r0, #1, 0
    1f08:	00860e1c 	addeq	r0, r6, ip, lsl lr
    1f0c:	04070000 	streq	r0, [r7], #-0
    1f10:	0000006b 	andeq	r0, r0, fp, rrx
    1f14:	00002504 	andeq	r2, r0, r4, lsl #10
    1f18:	00009b00 	andeq	r9, r0, r0, lsl #22
    1f1c:	009b0500 	addseq	r0, fp, r0, lsl #10
    1f20:	07000000 	streq	r0, [r0, -r0]
    1f24:	0000a804 	andeq	sl, r0, r4, lsl #16
    1f28:	08010300 	stmdaeq	r1, {r8, r9}
    1f2c:	0000004f 	andeq	r0, r0, pc, asr #32
    1f30:	0000a108 	andeq	sl, r0, r8, lsl #2
    1f34:	03e00600 	mvneq	r0, #0, 12
    1f38:	21020000 	mrscs	r0, (UNDEF: 2)
    1f3c:	0000b90e 	andeq	fp, r0, lr, lsl #18
    1f40:	8c040700 	stchi	7, cr0, [r4], {-0}
    1f44:	09000000 	stmdbeq	r0, {}	; <UNPREDICTABLE>
    1f48:	00000581 	andeq	r0, r0, r1, lsl #11
    1f4c:	18060401 	stmdane	r6, {r0, sl}
    1f50:	04000090 	streq	r0, [r0], #-144	; 0xffffff70
    1f54:	01000000 	mrseq	r0, (UNDEF: 0)
    1f58:	027d009c 	rsbseq	r0, sp, #156, 0	; 0x9c
    1f5c:	00040000 	andeq	r0, r4, r0
    1f60:	00000b61 	andeq	r0, r0, r1, ror #22
    1f64:	00930104 	addseq	r0, r3, r4, lsl #2
    1f68:	e60c0000 	str	r0, [ip], -r0
    1f6c:	3c000005 	stccc	0, cr0, [r0], {5}
    1f70:	a0000003 	andge	r0, r0, r3
    1f74:	00000004 	andeq	r0, r0, r4
    1f78:	3d000000 	stccc	0, cr0, [r0, #-0]
    1f7c:	02000016 	andeq	r0, r0, #22, 0
    1f80:	6e690504 	cdpvs	5, 6, cr0, cr9, cr4, {0}
    1f84:	25030074 	strcs	r0, [r3, #-116]	; 0xffffff8c
    1f88:	04000000 	streq	r0, [r0], #-0
    1f8c:	00390704 	eorseq	r0, r9, r4, lsl #14
    1f90:	01040000 	mrseq	r0, (UNDEF: 4)
    1f94:	00004806 	andeq	r4, r0, r6, lsl #16
    1f98:	05020400 	streq	r0, [r2, #-1024]	; 0xfffffc00
    1f9c:	0000016c 	andeq	r0, r0, ip, ror #2
    1fa0:	57050404 	strpl	r0, [r5, -r4, lsl #8]
    1fa4:	04000001 	streq	r0, [r0], #-1
    1fa8:	01520508 	cmpeq	r2, r8, lsl #10
    1fac:	01040000 	mrseq	r0, (UNDEF: 4)
    1fb0:	00004608 	andeq	r4, r0, r8, lsl #12
    1fb4:	07020400 	streq	r0, [r2, -r0, lsl #8]
    1fb8:	0000005d 	andeq	r0, r0, sp, asr r0
    1fbc:	34070404 	strcc	r0, [r7], #-1028	; 0xfffffbfc
    1fc0:	04000000 	streq	r0, [r0], #-0
    1fc4:	002f0708 	eoreq	r0, pc, r8, lsl #14
    1fc8:	25050000 	strcs	r0, [r5, #-0]
    1fcc:	7f000000 	svcvc	0x00000000
    1fd0:	06000000 	streq	r0, [r0], -r0
    1fd4:	00000025 	andeq	r0, r0, r5, lsr #32
    1fd8:	01600700 	cmneq	r0, r0, lsl #14
    1fdc:	1c020000 	stcne	0, cr0, [r2], {-0}
    1fe0:	00008b0e 	andeq	r8, r0, lr, lsl #22
    1fe4:	70040800 	andvc	r0, r4, r0, lsl #16
    1fe8:	05000000 	streq	r0, [r0, #-0]
    1fec:	00000025 	andeq	r0, r0, r5, lsr #32
    1ff0:	000000a0 	andeq	r0, r0, r0, lsr #1
    1ff4:	0000a006 	andeq	sl, r0, r6
    1ff8:	04080000 	streq	r0, [r8], #-0
    1ffc:	000000ad 	andeq	r0, r0, sp, lsr #1
    2000:	4f080104 	svcmi	0x00080104
    2004:	03000000 	movweq	r0, #0
    2008:	000000a6 	andeq	r0, r0, r6, lsr #1
    200c:	0003e007 	andeq	lr, r3, r7
    2010:	0e210200 	cdpeq	2, 2, cr0, cr1, cr0, {0}
    2014:	000000be 	strheq	r0, [r0], -lr
    2018:	00910408 	addseq	r0, r1, r8, lsl #8
    201c:	0a090000 	beq	242024 <__bss_end__+0x2385a4>
    2020:	01000006 	tsteq	r0, r6
    2024:	0031110d 	eorseq	r1, r1, sp, lsl #2
    2028:	330a0000 	movwcc	r0, #40960	; 0xa000
    202c:	01000005 	tsteq	r0, r5
    2030:	9048061f 	subls	r0, r8, pc, lsl r6
    2034:	00600000 	rsbeq	r0, r0, r0
    2038:	9c010000 	stcls	0, cr0, [r1], {-0}
    203c:	000001d5 	ldrdeq	r0, [r0], -r5
    2040:	00062e0b 	andeq	r2, r6, fp, lsl #28
    2044:	0f2c0100 	svceq	0x002c0100
    2048:	0000002c 	andeq	r0, r0, ip, lsr #32
    204c:	2010001c 	andscs	r0, r0, ip, lsl r0
    2050:	0005cf0b 	andeq	ip, r5, fp, lsl #30
    2054:	0f2d0100 	svceq	0x002d0100
    2058:	0000002c 	andeq	r0, r0, ip, lsr #32
    205c:	20100024 	andscs	r0, r0, r4, lsr #32
    2060:	0005fb0b 	andeq	pc, r5, fp, lsl #22
    2064:	0f2e0100 	svceq	0x002e0100
    2068:	0000002c 	andeq	r0, r0, ip, lsr #32
    206c:	5a000000 	bpl	2074 <__code_start__-0x5f8c>
    2070:	0006150c 	andeq	r1, r6, ip, lsl #10
    2074:	0f2f0100 	svceq	0x002f0100
    2078:	0000002c 	andeq	r0, r0, ip, lsr #32
    207c:	01ef0d20 	mvneq	r0, r0, lsr #26
    2080:	90480000 	subls	r0, r8, r0
    2084:	88020000 	stmdahi	r2, {}	; <UNPREDICTABLE>
    2088:	01000004 	tsteq	r0, r4
    208c:	014c0820 	cmpeq	ip, r0, lsr #16
    2090:	880e0000 	stmdahi	lr, {}	; <UNPREDICTABLE>
    2094:	0f000004 	svceq	0x00000004
    2098:	00000200 	andeq	r0, r0, r0, lsl #4
    209c:	00002012 	andeq	r2, r0, r2, lsl r0
    20a0:	0000200e 	andeq	r2, r0, lr
    20a4:	d5100000 	ldrle	r0, [r0, #-0]
    20a8:	5c000001 	stcpl	0, cr0, [r0], {1}
    20ac:	01000090 	swpeq	r0, r0, [r0]	; <UNPREDICTABLE>
    20b0:	0000905c 	andeq	r9, r0, ip, asr r0
    20b4:	00000010 	andeq	r0, r0, r0, lsl r0
    20b8:	73092101 	movwvc	r2, #37121	; 0x9101
    20bc:	0f000001 	svceq	0x00000001
    20c0:	000001e2 	andeq	r0, r0, r2, ror #3
    20c4:	00002039 	andeq	r2, r0, r9, lsr r0
    20c8:	00002031 	andeq	r2, r0, r1, lsr r0
    20cc:	90701100 	rsbsls	r1, r0, r0, lsl #2
    20d0:	024f0000 	subeq	r0, pc, #0, 0
    20d4:	74110000 	ldrvc	r0, [r1], #-0
    20d8:	5c000090 	stcpl	0, cr0, [r0], {144}	; 0x90
    20dc:	12000002 	andne	r0, r0, #2, 0
    20e0:	0000907c 	andeq	r9, r0, ip, ror r0
    20e4:	00000268 	andeq	r0, r0, r8, ror #4
    20e8:	00000198 	muleq	r0, r8, r1
    20ec:	01500113 	cmpeq	r0, r3, lsl r1
    20f0:	8812003a 	ldmdahi	r2, {r1, r3, r4, r5}
    20f4:	74000090 	strvc	r0, [r0], #-144	; 0xffffff70
    20f8:	b8000002 	stmdalt	r0, {r1}
    20fc:	13000001 	movwne	r0, #1
    2100:	0c055001 	stceq	0, cr5, [r5], {1}
    2104:	20100024 	andscs	r0, r0, r4, lsr #32
    2108:	05510113 	ldrbeq	r0, [r1, #-275]	; 0xfffffeed
    210c:	0000010c 	andeq	r0, r0, ip, lsl #2
    2110:	9414005a 	ldrls	r0, [r4], #-90	; 0xffffffa6
    2114:	74000090 	strvc	r0, [r0], #-144	; 0xffffff70
    2118:	13000002 	movwne	r0, #2
    211c:	0c055001 	stceq	0, cr5, [r5], {1}
    2120:	2010001c 	andscs	r0, r0, ip, lsl r0
    2124:	05510113 	ldrbeq	r0, [r1, #-275]	; 0xfffffeed
    2128:	0000200c 	andeq	r2, r0, ip
    212c:	1500005a 	strne	r0, [r0, #-90]	; 0xffffffa6
    2130:	000005d7 	ldrdeq	r0, [r0], -r7
    2134:	01061701 	tsteq	r6, r1, lsl #14
    2138:	000001ef 	andeq	r0, r0, pc, ror #3
    213c:	00063609 	andeq	r3, r6, r9, lsl #12
    2140:	0e180100 	mufeqe	f0, f0, f0
    2144:	00000031 	andeq	r0, r0, r1, lsr r0
    2148:	06071600 	streq	r1, [r7], -r0, lsl #12
    214c:	0e010000 	cdpeq	0, 0, cr0, cr1, cr0, {0}
    2150:	00002505 	andeq	r2, r0, r5, lsl #10
    2154:	020d0100 	andeq	r0, sp, #0
    2158:	36090000 	strcc	r0, [r9], -r0
    215c:	01000006 	tsteq	r0, r6
    2160:	00310e0f 	eorseq	r0, r1, pc, lsl #28
    2164:	17000000 	strne	r0, [r0, -r0]
    2168:	000001ef 	andeq	r0, r0, pc, ror #3
    216c:	0000901c 	andeq	r9, r0, ip, lsl r0
    2170:	00000018 	andeq	r0, r0, r8, lsl r0
    2174:	022e9c01 	eoreq	r9, lr, #256	; 0x100
    2178:	000f0000 	andeq	r0, pc, r0
    217c:	76000002 	strvc	r0, [r0], -r2
    2180:	72000020 	andvc	r0, r0, #32, 0
    2184:	00000020 	andeq	r0, r0, r0, lsr #32
    2188:	0001d517 	andeq	sp, r1, r7, lsl r5
    218c:	00903400 	addseq	r3, r0, r0, lsl #8
    2190:	00001400 	andeq	r1, r0, r0, lsl #8
    2194:	4f9c0100 	svcmi	0x009c0100
    2198:	0f000002 	svceq	0x00000002
    219c:	000001e2 	andeq	r0, r0, r2, ror #3
    21a0:	0000209d 	muleq	r0, sp, r0
    21a4:	00002095 	muleq	r0, r5, r0
    21a8:	05c01800 	strbeq	r1, [r0, #2048]	; 0x800
    21ac:	05c00000 	strbeq	r0, [r0]
    21b0:	36020000 	strcc	r0, [r2], -r0
    21b4:	59190601 	ldmdbpl	r9, {r0, r9, sl}
    21b8:	59000005 	stmdbpl	r0, {r0, r2}
    21bc:	02000005 	andeq	r0, r0, #5, 0
    21c0:	5419064d 	ldrpl	r0, [r9], #-1613	; 0xfffff9b3
    21c4:	54000000 	strpl	r0, [r0], #-0
    21c8:	02000000 	andeq	r0, r0, #0, 0
    21cc:	88190658 	ldmdahi	r9, {r3, r4, r6, r9, sl}
    21d0:	88000002 	stmdahi	r0, {r1}
    21d4:	02000002 	andeq	r0, r0, #2, 0
    21d8:	3f0006ad 	svccc	0x000006ad
    21dc:	04000005 	streq	r0, [r0], #-5
    21e0:	000ce400 	andeq	lr, ip, r0, lsl #8
    21e4:	93010400 	movwls	r0, #5120	; 0x1400
    21e8:	0c000000 	stceq	0, cr0, [r0], {-0}
    21ec:	00000651 	andeq	r0, r0, r1, asr r6
    21f0:	0000033c 	andeq	r0, r0, ip, lsr r3
    21f4:	000090a8 	andeq	r9, r0, r8, lsr #1
    21f8:	0000011c 	andeq	r0, r0, ip, lsl r1
    21fc:	00001755 	andeq	r1, r0, r5, asr r7
    2200:	69050402 	stmdbvs	r5, {r1, sl}
    2204:	0300746e 	movweq	r7, #1134	; 0x46e
    2208:	00390704 	eorseq	r0, r9, r4, lsl #14
    220c:	01030000 	mrseq	r0, (UNDEF: 3)
    2210:	00004806 	andeq	r4, r0, r6, lsl #16
    2214:	05020300 	streq	r0, [r2, #-768]	; 0xfffffd00
    2218:	0000016c 	andeq	r0, r0, ip, ror #2
    221c:	57050403 	strpl	r0, [r5, -r3, lsl #8]
    2220:	03000001 	movweq	r0, #1
    2224:	01520508 	cmpeq	r2, r8, lsl #10
    2228:	01030000 	mrseq	r0, (UNDEF: 3)
    222c:	00004608 	andeq	r4, r0, r8, lsl #12
    2230:	07020300 	streq	r0, [r2, -r0, lsl #6]
    2234:	0000005d 	andeq	r0, r0, sp, asr r0
    2238:	34070403 	strcc	r0, [r7], #-1027	; 0xfffffbfd
    223c:	03000000 	movweq	r0, #0
    2240:	002f0708 	eoreq	r0, pc, r8, lsl #14
    2244:	25040000 	strcs	r0, [r4, #-0]
    2248:	7a000000 	bvc	2250 <__code_start__-0x5db0>
    224c:	05000000 	streq	r0, [r0, #-0]
    2250:	00000025 	andeq	r0, r0, r5, lsr #32
    2254:	01600600 	cmneq	r0, r0, lsl #12
    2258:	1c020000 	stcne	0, cr0, [r2], {-0}
    225c:	0000860e 	andeq	r8, r0, lr, lsl #12
    2260:	6b040700 	blvs	103e68 <__bss_end__+0xfa3e8>
    2264:	04000000 	streq	r0, [r0], #-0
    2268:	00000025 	andeq	r0, r0, r5, lsr #32
    226c:	0000009b 	muleq	r0, fp, r0
    2270:	00009b05 	andeq	r9, r0, r5, lsl #22
    2274:	04070000 	streq	r0, [r7], #-0
    2278:	000000a8 	andeq	r0, r0, r8, lsr #1
    227c:	4f080103 	svcmi	0x00080103
    2280:	08000000 	stmdaeq	r0, {}	; <UNPREDICTABLE>
    2284:	000000a1 	andeq	r0, r0, r1, lsr #1
    2288:	0003e006 	andeq	lr, r3, r6
    228c:	0e210200 	cdpeq	2, 2, cr0, cr1, cr0, {0}
    2290:	000000b9 	strheq	r0, [r0], -r9
    2294:	008c0407 	addeq	r0, ip, r7, lsl #8
    2298:	47090000 	strmi	r0, [r9, -r0]
    229c:	01000006 	tsteq	r0, r6
    22a0:	9170061e 	cmnls	r0, lr, lsl r6
    22a4:	00540000 	subseq	r0, r4, r0
    22a8:	9c010000 	stcls	0, cr0, [r1], {-0}
    22ac:	0000020b 	andeq	r0, r0, fp, lsl #4
    22b0:	6365730a 	cmnvs	r5, #671088640	; 0x28000000
    22b4:	191e0100 	ldmdbne	lr, {r8}
    22b8:	0000002c 	andeq	r0, r0, ip, lsr #32
    22bc:	000020da 	ldrdeq	r2, [r0], -sl
    22c0:	000020d6 	ldrdeq	r2, [r0], -r6
    22c4:	00020b0b 	andeq	r0, r2, fp, lsl #22
    22c8:	00917000 	addseq	r7, r1, r0
    22cc:	05680200 	strbeq	r0, [r8, #-512]!	; 0xfffffe00
    22d0:	1f010000 	svcne	0x00010000
    22d4:	02180c05 	andseq	r0, r8, #1280	; 0x500
    22d8:	20ff0000 	rscscs	r0, pc, r0
    22dc:	20fb0000 	rscscs	r0, fp, r0
    22e0:	240d0000 	strcs	r0, [sp], #-0
    22e4:	84000002 	strhi	r0, [r0], #-2
    22e8:	00000091 	muleq	r0, r1, r0
    22ec:	00009184 	andeq	r9, r0, r4, lsl #3
    22f0:	00000040 	andeq	r0, r0, r0, asr #32
    22f4:	0c051c01 	stceq	12, cr1, [r5], {1}
    22f8:	00000231 	andeq	r0, r0, r1, lsr r2
    22fc:	0000212c 	andeq	r2, r0, ip, lsr #2
    2300:	0000212a 	andeq	r2, r0, sl, lsr #2
    2304:	00023c0e 	andeq	r3, r2, lr, lsl #24
    2308:	00214100 	eoreq	r4, r1, r0, lsl #2
    230c:	00213f00 	eoreq	r3, r1, r0, lsl #30
    2310:	02550f00 	subseq	r0, r5, #0, 30
    2314:	91840000 	orrls	r0, r4, r0
    2318:	84020000 	strhi	r0, [r2], #-0
    231c:	14000091 	strne	r0, [r0], #-145	; 0xffffff6f
    2320:	01000000 	mrseq	r0, (UNDEF: 0)
    2324:	019c1313 	orrseq	r1, ip, r3, lsl r3
    2328:	660e0000 	strvs	r0, [lr], -r0
    232c:	58000002 	stmdapl	r0, {r1}
    2330:	54000021 	strpl	r0, [r0], #-33	; 0xffffffdf
    2334:	0f000021 	svceq	0x00000021
    2338:	00000271 	andeq	r0, r0, r1, ror r2
    233c:	00009188 	andeq	r9, r0, r8, lsl #3
    2340:	00918801 	addseq	r8, r1, r1, lsl #16
    2344:	00000c00 	andeq	r0, r0, r0, lsl #24
    2348:	120d0100 	andne	r0, sp, #0
    234c:	00000189 	andeq	r0, r0, r9, lsl #3
    2350:	00919010 	addseq	r9, r1, r0, lsl r0
    2354:	00052a00 	andeq	r2, r5, r0, lsl #20
    2358:	50011100 	andpl	r1, r1, r0, lsl #2
    235c:	30040c05 	andcc	r0, r4, r5, lsl #24
    2360:	00002000 	andeq	r2, r0, r0
    2364:	00918812 	addseq	r8, r1, r2, lsl r8
    2368:	00053600 	andeq	r3, r5, r0, lsl #12
    236c:	91981200 	orrsls	r1, r8, r0, lsl #4
    2370:	05360000 	ldreq	r0, [r6, #-0]!
    2374:	13000000 	movwne	r0, #0
    2378:	00000247 	andeq	r0, r0, r7, asr #4
    237c:	00000580 	andeq	r0, r0, r0, lsl #11
    2380:	00024814 	andeq	r4, r2, r4, lsl r8
    2384:	02550b00 	subseq	r0, r5, #0, 22
    2388:	919c0000 	orrsls	r0, ip, r0
    238c:	98020000 	stmdals	r2, {}	; <UNPREDICTABLE>
    2390:	01000005 	tsteq	r0, r5
    2394:	98151715 	ldmdals	r5, {r0, r2, r4, r8, r9, sl, ip}
    2398:	0e000005 	cdpeq	0, 0, cr0, cr0, cr5, {0}
    239c:	00000266 	andeq	r0, r0, r6, ror #4
    23a0:	00002178 	andeq	r2, r0, r8, ror r1
    23a4:	00002176 	andeq	r2, r0, r6, ror r1
    23a8:	00027116 	andeq	r7, r2, r6, lsl r1
    23ac:	0091a000 	addseq	sl, r1, r0
    23b0:	05b80100 	ldreq	r0, [r8, #256]!	; 0x100
    23b4:	0d010000 	stceq	0, cr0, [r1, #-0]
    23b8:	0001f312 	andeq	pc, r1, r2, lsl r3	; <UNPREDICTABLE>
    23bc:	91a81000 			; <UNDEFINED> instruction: 0x91a81000
    23c0:	052a0000 	streq	r0, [sl, #-0]!
    23c4:	01110000 	tsteq	r1, r0
    23c8:	00770250 	rsbseq	r0, r7, r0, asr r2
    23cc:	a0120000 	andsge	r0, r2, r0
    23d0:	36000091 			; <UNDEFINED> instruction: 0x36000091
    23d4:	12000005 	andne	r0, r0, #5, 0
    23d8:	000091b4 			; <UNDEFINED> instruction: 0x000091b4
    23dc:	00000536 	andeq	r0, r0, r6, lsr r5
    23e0:	00000000 	andeq	r0, r0, r0
    23e4:	54170000 	ldrpl	r0, [r7], #-0
    23e8:	01000000 	mrseq	r0, (UNDEF: 0)
    23ec:	2401061b 	strcs	r0, [r1], #-1563	; 0xfffff9e5
    23f0:	18000002 	stmdane	r0, {r1}
    23f4:	0100736d 	tsteq	r0, sp, ror #6
    23f8:	002c181b 	eoreq	r1, ip, fp, lsl r8
    23fc:	17000000 	strne	r0, [r0, -r0]
    2400:	00000674 	andeq	r0, r0, r4, ror r6
    2404:	01061201 	tsteq	r6, r1, lsl #4
    2408:	00000255 	andeq	r0, r0, r5, asr r2
    240c:	00737518 	rsbseq	r7, r3, r8, lsl r5
    2410:	2c181201 	lfmcs	f1, 4, [r8], {1}
    2414:	19000000 	stmdbne	r0, {}	; <UNPREDICTABLE>
    2418:	01006272 	tsteq	r0, r2, ror r2
    241c:	002c0e13 	eoreq	r0, ip, r3, lsl lr
    2420:	191a0000 	ldmdbne	sl, {}	; <UNPREDICTABLE>
    2424:	01006172 	tsteq	r0, r2, ror r1
    2428:	002c1215 	eoreq	r1, ip, r5, lsl r2
    242c:	00000000 	andeq	r0, r0, r0
    2430:	0006651b 	andeq	r6, r6, fp, lsl r5
    2434:	0a090100 	beq	24283c <__bss_end__+0x238dbc>
    2438:	0000002c 	andeq	r0, r0, ip, lsr #32
    243c:	00027101 	andeq	r7, r2, r1, lsl #2
    2440:	00751900 	rsbseq	r1, r5, r0, lsl #18
    2444:	2c0e0d01 	stccs	13, cr0, [lr], {1}
    2448:	00000000 	andeq	r0, r0, r0
    244c:	00067d1c 	andeq	r7, r6, ip, lsl sp
    2450:	0a040100 	beq	102858 <__bss_end__+0xf8dd8>
    2454:	0000002c 	andeq	r0, r0, ip, lsr #32
    2458:	02711d01 	rsbseq	r1, r1, #64	; 0x40
    245c:	90a80000 	adcls	r0, r8, r0
    2460:	000c0000 	andeq	r0, ip, r0
    2464:	9c010000 	stcls	0, cr0, [r1], {-0}
    2468:	000002a5 	andeq	r0, r0, r5, lsr #5
    246c:	0090b01e 	addseq	fp, r0, lr, lsl r0
    2470:	00052a00 	andeq	r2, r5, r0, lsl #20
    2474:	50011100 	andpl	r1, r1, r0, lsl #2
    2478:	30040c05 	andcc	r0, r4, r5, lsl #24
    247c:	00002000 	andeq	r2, r0, r0
    2480:	0002551d 	andeq	r5, r2, sp, lsl r5
    2484:	0090b400 	addseq	fp, r0, r0, lsl #8
    2488:	00002400 	andeq	r2, r0, r0, lsl #8
    248c:	059c0100 	ldreq	r0, [ip, #256]	; 0x100
    2490:	0e000003 	cdpeq	0, 0, cr0, cr0, cr3, {0}
    2494:	00000266 	andeq	r0, r0, r6, ror #4
    2498:	0000218f 	andeq	r2, r0, pc, lsl #3
    249c:	0000218b 	andeq	r2, r0, fp, lsl #3
    24a0:	0002710f 	andeq	r7, r2, pc, lsl #2
    24a4:	0090bc00 	addseq	fp, r0, r0, lsl #24
    24a8:	90bc0100 	adcsls	r0, ip, r0, lsl #2
    24ac:	000c0000 	andeq	r0, ip, r0
    24b0:	0d010000 	stceq	0, cr0, [r1, #-0]
    24b4:	0002f212 	andeq	pc, r2, r2, lsl r2	; <UNPREDICTABLE>
    24b8:	90c41000 	sbcls	r1, r4, r0
    24bc:	052a0000 	streq	r0, [sl, #-0]!
    24c0:	01110000 	tsteq	r1, r0
    24c4:	040c0550 	streq	r0, [ip], #-1360	; 0xfffffab0
    24c8:	00200030 	eoreq	r0, r0, r0, lsr r0
    24cc:	90bc1200 	adcsls	r1, ip, r0, lsl #4
    24d0:	05360000 	ldreq	r0, [r6, #-0]!
    24d4:	cc120000 	ldcgt	0, cr0, [r2], {-0}
    24d8:	36000090 			; <UNDEFINED> instruction: 0x36000090
    24dc:	00000005 	andeq	r0, r0, r5
    24e0:	0002241d 	andeq	r2, r2, sp, lsl r4
    24e4:	0090d800 	addseq	sp, r0, r0, lsl #16
    24e8:	00004800 	andeq	r4, r0, r0, lsl #16
    24ec:	079c0100 	ldreq	r0, [ip, r0, lsl #2]
    24f0:	0c000004 	stceq	0, cr0, [r0], {4}
    24f4:	00000231 	andeq	r0, r0, r1, lsr r2
    24f8:	000021b1 			; <UNDEFINED> instruction: 0x000021b1
    24fc:	000021ad 	andeq	r2, r0, sp, lsr #3
    2500:	00023c0e 	andeq	r3, r2, lr, lsl #24
    2504:	0021d100 	eoreq	sp, r1, r0, lsl #2
    2508:	0021cf00 	eoreq	ip, r1, r0, lsl #30
    250c:	02551600 	subseq	r1, r5, #0, 12
    2510:	90d80000 	sbcsls	r0, r8, r0
    2514:	b0020000 	andlt	r0, r2, r0
    2518:	01000004 	tsteq	r0, r4
    251c:	039a1313 	orrseq	r1, sl, #1275068416	; 0x4c000000
    2520:	b0150000 	andslt	r0, r5, r0
    2524:	0e000004 	cdpeq	0, 0, cr0, cr0, cr4, {0}
    2528:	00000266 	andeq	r0, r0, r6, ror #4
    252c:	000021e8 	andeq	r2, r0, r8, ror #3
    2530:	000021e4 	andeq	r2, r0, r4, ror #3
    2534:	0002710f 	andeq	r7, r2, pc, lsl #2
    2538:	0090e400 	addseq	lr, r0, r0, lsl #8
    253c:	90e40100 	rscls	r0, r4, r0, lsl #2
    2540:	000c0000 	andeq	r0, ip, r0
    2544:	0d010000 	stceq	0, cr0, [r1, #-0]
    2548:	00038612 	andeq	r8, r3, r2, lsl r6
    254c:	90ec1000 	rscls	r1, ip, r0
    2550:	052a0000 	streq	r0, [sl, #-0]!
    2554:	01110000 	tsteq	r1, r0
    2558:	040c0550 	streq	r0, [ip], #-1360	; 0xfffffab0
    255c:	00200030 	eoreq	r0, r0, r0, lsr r0
    2560:	90e41200 	rscls	r1, r4, r0, lsl #4
    2564:	05360000 	ldreq	r0, [r6, #-0]!
    2568:	f4120000 			; <UNDEFINED> instruction: 0xf4120000
    256c:	36000090 			; <UNDEFINED> instruction: 0x36000090
    2570:	00000005 	andeq	r0, r0, r5
    2574:	02471300 	subeq	r1, r7, #0, 6
    2578:	04c80000 	strbeq	r0, [r8], #0
    257c:	48140000 	ldmdami	r4, {}	; <UNPREDICTABLE>
    2580:	0b000002 	bleq	2590 <__code_start__-0x5a70>
    2584:	00000255 	andeq	r0, r0, r5, asr r2
    2588:	000090f8 	strdeq	r9, [r0], -r8
    258c:	0004e002 	andeq	lr, r4, r2
    2590:	17150100 	ldrne	r0, [r5, -r0, lsl #2]
    2594:	0004e015 	andeq	lr, r4, r5, lsl r0
    2598:	02660e00 	rsbeq	r0, r6, #0, 28
    259c:	22080000 	andcs	r0, r8, #0, 0
    25a0:	22060000 	andcs	r0, r6, #0, 0
    25a4:	71160000 	tstvc	r6, r0
    25a8:	fc000002 	stc2	0, cr0, [r0], {2}
    25ac:	01000090 	swpeq	r0, r0, [r0]	; <UNPREDICTABLE>
    25b0:	00000500 	andeq	r0, r0, r0, lsl #10
    25b4:	f1120d01 			; <UNDEFINED> instruction: 0xf1120d01
    25b8:	10000003 	andne	r0, r0, r3
    25bc:	00009104 	andeq	r9, r0, r4, lsl #2
    25c0:	0000052a 	andeq	r0, r0, sl, lsr #10
    25c4:	02500111 	subseq	r0, r0, #1073741828	; 0x40000004
    25c8:	00000077 	andeq	r0, r0, r7, ror r0
    25cc:	0090fc12 	addseq	pc, r0, r2, lsl ip	; <UNPREDICTABLE>
    25d0:	00053600 	andeq	r3, r5, r0, lsl #12
    25d4:	91101200 	tstls	r0, r0, lsl #4
    25d8:	05360000 	ldreq	r0, [r6, #-0]!
    25dc:	00000000 	andeq	r0, r0, r0
    25e0:	0b1d0000 	bleq	7425e8 <__bss_end__+0x738b68>
    25e4:	20000002 	andcs	r0, r0, r2
    25e8:	50000091 	mulpl	r0, r1, r0
    25ec:	01000000 	mrseq	r0, (UNDEF: 0)
    25f0:	00052a9c 	muleq	r5, ip, sl
    25f4:	02180c00 	andseq	r0, r8, #0, 24
    25f8:	221f0000 	andscs	r0, pc, #0, 0
    25fc:	221b0000 	andscs	r0, fp, #0, 0
    2600:	240d0000 	strcs	r0, [sp], #-0
    2604:	30000002 	andcc	r0, r0, r2
    2608:	00000091 	muleq	r0, r1, r0
    260c:	00009130 	andeq	r9, r0, r0, lsr r1
    2610:	00000040 	andeq	r0, r0, r0, asr #32
    2614:	0c051c01 	stceq	12, cr1, [r5], {1}
    2618:	00000231 	andeq	r0, r0, r1, lsr r2
    261c:	00002242 	andeq	r2, r0, r2, asr #4
    2620:	00002240 	andeq	r2, r0, r0, asr #4
    2624:	00023c0e 	andeq	r3, r2, lr, lsl #24
    2628:	00225700 	eoreq	r5, r2, r0, lsl #14
    262c:	00225500 	eoreq	r5, r2, r0, lsl #10
    2630:	02550f00 	subseq	r0, r5, #0, 30
    2634:	91300000 	teqls	r0, r0
    2638:	30020000 	andcc	r0, r2, r0
    263c:	14000091 	strne	r0, [r0], #-145	; 0xffffff6f
    2640:	01000000 	mrseq	r0, (UNDEF: 0)
    2644:	04bc1313 	ldrteq	r1, [ip], #787	; 0x313
    2648:	660e0000 	strvs	r0, [lr], -r0
    264c:	6e000002 	cdpvs	0, 0, cr0, cr0, cr2, {0}
    2650:	6a000022 	bvs	26e0 <__code_start__-0x5920>
    2654:	0f000022 	svceq	0x00000022
    2658:	00000271 	andeq	r0, r0, r1, ror r2
    265c:	00009134 	andeq	r9, r0, r4, lsr r1
    2660:	00913401 	addseq	r3, r1, r1, lsl #8
    2664:	00000c00 	andeq	r0, r0, r0, lsl #24
    2668:	120d0100 	andne	r0, sp, #0
    266c:	000004a9 	andeq	r0, r0, r9, lsr #9
    2670:	00913c10 	addseq	r3, r1, r0, lsl ip
    2674:	00052a00 	andeq	r2, r5, r0, lsl #20
    2678:	50011100 	andpl	r1, r1, r0, lsl #2
    267c:	30040c05 	andcc	r0, r4, r5, lsl #24
    2680:	00002000 	andeq	r2, r0, r0
    2684:	00913412 	addseq	r3, r1, r2, lsl r4
    2688:	00053600 	andeq	r3, r5, r0, lsl #12
    268c:	91441200 	mrsls	r1, (UNDEF: 100)
    2690:	05360000 	ldreq	r0, [r6, #-0]!
    2694:	13000000 	movwne	r0, #0
    2698:	00000247 	andeq	r0, r0, r7, asr #4
    269c:	00000518 	andeq	r0, r0, r8, lsl r5
    26a0:	00024814 	andeq	r4, r2, r4, lsl r8
    26a4:	02550b00 	subseq	r0, r5, #0, 22
    26a8:	91480000 	mrsls	r0, (UNDEF: 72)
    26ac:	30020000 	andcc	r0, r2, r0
    26b0:	01000005 	tsteq	r0, r5
    26b4:	30151715 	andscc	r1, r5, r5, lsl r7
    26b8:	0e000005 	cdpeq	0, 0, cr0, cr0, cr5, {0}
    26bc:	00000266 	andeq	r0, r0, r6, ror #4
    26c0:	0000228e 	andeq	r2, r0, lr, lsl #5
    26c4:	0000228c 	andeq	r2, r0, ip, lsl #5
    26c8:	00027116 	andeq	r7, r2, r6, lsl r1
    26cc:	00914c00 	addseq	r4, r1, r0, lsl #24
    26d0:	05500100 	ldrbeq	r0, [r0, #-256]	; 0xffffff00
    26d4:	0d010000 	stceq	0, cr0, [r1, #-0]
    26d8:	00051312 	andeq	r1, r5, r2, lsl r3
    26dc:	91541000 	cmpls	r4, r0
    26e0:	052a0000 	streq	r0, [sl, #-0]!
    26e4:	01110000 	tsteq	r1, r0
    26e8:	00770250 	rsbseq	r0, r7, r0, asr r2
    26ec:	4c120000 	ldcmi	0, cr0, [r2], {-0}
    26f0:	36000091 			; <UNDEFINED> instruction: 0x36000091
    26f4:	12000005 	andne	r0, r0, #5, 0
    26f8:	00009160 	andeq	r9, r0, r0, ror #2
    26fc:	00000536 	andeq	r0, r0, r6, lsr r5
    2700:	00000000 	andeq	r0, r0, r0
    2704:	02981f00 	addseq	r1, r8, #0, 30
    2708:	02980000 	addseq	r0, r8, #0, 0
    270c:	c2020000 	andgt	r0, r2, #0, 0
    2710:	063b1f0a 	ldrteq	r1, [fp], -sl, lsl #30
    2714:	063b0000 	ldrteq	r0, [fp], -r0
    2718:	9c020000 	stcls	0, cr0, [r2], {-0}
    271c:	05cd0006 	strbeq	r0, [sp, #6]
    2720:	00040000 	andeq	r0, r4, r0
    2724:	00000eb3 			; <UNDEFINED> instruction: 0x00000eb3
    2728:	06fd0104 	ldrbteq	r0, [sp], r4, lsl #2
    272c:	ac0c0000 	stcge	0, cr0, [ip], {-0}
    2730:	cc000006 	stcgt	0, cr0, [r0], {6}
    2734:	c4000007 	strgt	r0, [r0], #-7
    2738:	f0000091 			; <UNDEFINED> instruction: 0xf0000091
    273c:	53000001 	movwpl	r0, #1
    2740:	02000019 	andeq	r0, r0, #25, 0
    2744:	6e690504 	cdpvs	5, 6, cr0, cr9, cr4, {0}
    2748:	04030074 	streq	r0, [r3], #-116	; 0xffffff8c
    274c:	00003907 	andeq	r3, r0, r7, lsl #18
    2750:	002c0400 	eoreq	r0, ip, r0, lsl #8
    2754:	01030000 	mrseq	r0, (UNDEF: 3)
    2758:	00004806 	andeq	r4, r0, r6, lsl #16
    275c:	05020300 	streq	r0, [r2, #-768]	; 0xfffffd00
    2760:	0000016c 	andeq	r0, r0, ip, ror #2
    2764:	57050403 	strpl	r0, [r5, -r3, lsl #8]
    2768:	03000001 	movweq	r0, #1
    276c:	01520508 	cmpeq	r2, r8, lsl #10
    2770:	01030000 	mrseq	r0, (UNDEF: 3)
    2774:	00004608 	andeq	r4, r0, r8, lsl #12
    2778:	07020300 	streq	r0, [r2, -r0, lsl #6]
    277c:	0000005d 	andeq	r0, r0, sp, asr r0
    2780:	00036305 	andeq	r6, r3, r5, lsl #6
    2784:	19340500 	ldmdbne	r4!, {r8, sl}
    2788:	0000006e 	andeq	r0, r0, lr, rrx
    278c:	34070403 	strcc	r0, [r7], #-1027	; 0xfffffbfd
    2790:	03000000 	movweq	r0, #0
    2794:	002f0708 	eoreq	r0, pc, r8, lsl #14
    2798:	01030000 	mrseq	r0, (UNDEF: 3)
    279c:	00004f08 	andeq	r4, r0, r8, lsl #30
    27a0:	01070600 	tsteq	r7, r0, lsl #12
    27a4:	00000054 	andeq	r0, r0, r4, asr r0
    27a8:	c20e0c04 	andgt	r0, lr, #4, 24	; 0x400
    27ac:	07000000 	streq	r0, [r0, -r0]
    27b0:	0000036c 	andeq	r0, r0, ip, ror #6
    27b4:	01e10700 	mvneq	r0, r0, lsl #14
    27b8:	07010000 	streq	r0, [r1, -r0]
    27bc:	0000029e 	muleq	r0, lr, r2
    27c0:	02ad0704 	adceq	r0, sp, #4, 14	; 0x100000
    27c4:	07050000 	streq	r0, [r5, -r0]
    27c8:	000002bc 			; <UNDEFINED> instruction: 0x000002bc
    27cc:	02cb0706 	sbceq	r0, fp, #1572864	; 0x180000
    27d0:	07070000 	streq	r0, [r7, -r0]
    27d4:	0000032d 	andeq	r0, r0, sp, lsr #6
    27d8:	02da0703 	sbcseq	r0, sl, #786432	; 0xc0000
    27dc:	00020000 	andeq	r0, r2, r0
    27e0:	0007c008 	andeq	ip, r7, r8
    27e4:	06022c00 	streq	r2, [r2], -r0, lsl #24
    27e8:	00015e08 	andeq	r5, r1, r8, lsl #28
    27ec:	6f690900 	svcvs	0x00690900
    27f0:	09090200 	stmdbeq	r9, {r9}
    27f4:	00000033 	andeq	r0, r0, r3, lsr r0
    27f8:	65690900 	strbvs	r0, [r9, #-2304]!	; 0xfffff700
    27fc:	0a020072 	beq	829cc <__bss_end__+0x78f4c>
    2800:	00003309 	andeq	r3, r0, r9, lsl #6
    2804:	69090400 	stmdbvs	r9, {sl}
    2808:	02007269 	andeq	r7, r0, #-1879048186	; 0x90000006
    280c:	00330911 	eorseq	r0, r3, r1, lsl r9
    2810:	09080000 	stmdbeq	r8, {}	; <UNPREDICTABLE>
    2814:	0072636c 	rsbseq	r6, r2, ip, ror #6
    2818:	33091302 	movwcc	r1, #37634	; 0x9302
    281c:	0c000000 	stceq	0, cr0, [r0], {-0}
    2820:	72636d09 	rsbvc	r6, r3, #576	; 0x240
    2824:	09140200 	ldmdbeq	r4, {r9}
    2828:	00000033 	andeq	r0, r0, r3, lsr r0
    282c:	736c0910 	cmnvc	ip, #16, 18	; 0x40000
    2830:	15020072 	strne	r0, [r2, #-114]	; 0xffffff8e
    2834:	00003309 	andeq	r3, r0, r9, lsl #6
    2838:	6d091400 	cfstrsvs	mvf1, [r9, #-0]
    283c:	02007273 	andeq	r7, r0, #805306375	; 0x30000007
    2840:	00330916 	eorseq	r0, r3, r6, lsl r9
    2844:	0a180000 	beq	60284c <__bss_end__+0x5f8dcc>
    2848:	000007b8 			; <UNDEFINED> instruction: 0x000007b8
    284c:	33091702 	movwcc	r1, #38658	; 0x9702
    2850:	1c000000 	stcne	0, cr0, [r0], {-0}
    2854:	0007900a 	andeq	r9, r7, sl
    2858:	091b0200 	ldmdbeq	fp, {r9}
    285c:	00000033 	andeq	r0, r0, r3, lsr r0
    2860:	06990a20 	ldreq	r0, [r9], r0, lsr #20
    2864:	1d020000 	stcne	0, cr0, [r2, #-0]
    2868:	00003309 	andeq	r3, r0, r9, lsl #6
    286c:	e20a2400 	and	r2, sl, #0, 8
    2870:	02000006 	andeq	r0, r0, #6, 0
    2874:	0033091e 	eorseq	r0, r3, lr, lsl r9
    2878:	00280000 	eoreq	r0, r8, r0
    287c:	0006e70b 	andeq	lr, r6, fp, lsl #14
    2880:	09080100 	stmdbeq	r8, {r8}
    2884:	00000174 	andeq	r0, r0, r4, ror r1
    2888:	20215004 	eorcs	r5, r1, r4
    288c:	0033040c 	eorseq	r0, r3, ip, lsl #8
    2890:	6e0d0000 	cdpvs	0, 0, cr0, cr13, cr0, {0}
    2894:	0b000001 	bleq	28a0 <__code_start__-0x5760>
    2898:	000006c1 	andeq	r0, r0, r1, asr #13
    289c:	8f232901 	svchi	0x00232901
    28a0:	40000001 	andmi	r0, r0, r1
    28a4:	0c202150 	stfeqs	f2, [r0], #-320	; 0xfffffec0
    28a8:	0000c204 	andeq	ip, r0, r4, lsl #4
    28ac:	01890d00 	orreq	r0, r9, r0, lsl #26
    28b0:	590e0000 	stmdbpl	lr, {}	; <UNPREDICTABLE>
    28b4:	01000005 	tsteq	r0, r5
    28b8:	937c06cc 	cmnls	ip, #204, 12	; 0xcc00000
    28bc:	00140000 	andseq	r0, r4, r0
    28c0:	9c010000 	stcls	0, cr0, [r1], {-0}
    28c4:	000001b4 			; <UNDEFINED> instruction: 0x000001b4
    28c8:	0093840f 	addseq	r8, r3, pc, lsl #8
    28cc:	0001b400 	andeq	fp, r1, r0, lsl #8
    28d0:	cb100000 	blgt	4028d8 <__bss_end__+0x3f8e58>
    28d4:	01000006 	tsteq	r0, r6
    28d8:	002505b6 	strhteq	r0, [r5], -r6
    28dc:	935c0000 	cmpls	ip, #0, 0
    28e0:	00200000 	eoreq	r0, r0, r0
    28e4:	9c010000 	stcls	0, cr0, [r1], {-0}
    28e8:	000001eb 	andeq	r0, r0, fp, ror #3
    28ec:	0093640f 	addseq	r6, r3, pc, lsl #8
    28f0:	0005a000 	andeq	sl, r5, r0
    28f4:	936c1100 	cmnls	ip, #0
    28f8:	05ac0000 	streq	r0, [ip, #0]!
    28fc:	01120000 	tsteq	r2, r0
    2900:	640c0550 	strvs	r0, [ip], #-1360	; 0xfffffab0
    2904:	00202150 	eoreq	r2, r0, r0, asr r1
    2908:	07a21000 	streq	r1, [r2, r0]!
    290c:	b3010000 	movwlt	r0, #4096	; 0x1000
    2910:	00002505 	andeq	r2, r0, r5, lsl #10
    2914:	00934c00 	addseq	r4, r3, r0, lsl #24
    2918:	00001000 	andeq	r1, r0, r0
    291c:	189c0100 	ldmne	ip, {r8}
    2920:	0f000002 	svceq	0x00000002
    2924:	00009354 	andeq	r9, r0, r4, asr r3
    2928:	000005a0 	andeq	r0, r0, r0, lsr #11
    292c:	0093580f 	addseq	r5, r3, pc, lsl #16
    2930:	00030900 	andeq	r0, r3, r0, lsl #18
    2934:	090e0000 	stmdbeq	lr, {}	; <UNPREDICTABLE>
    2938:	01000008 	tsteq	r0, r8
    293c:	931c06ab 	tstls	ip, #179306496	; 0xab00000
    2940:	00300000 	eorseq	r0, r0, r0
    2944:	9c010000 	stcls	0, cr0, [r1], {-0}
    2948:	0000027c 	andeq	r0, r0, ip, ror r2
    294c:	01006313 	tsteq	r0, r3, lsl r3
    2950:	002c19ab 	eoreq	r1, ip, fp, lsr #19
    2954:	22a50000 	adccs	r0, r5, #0, 0
    2958:	22a10000 	adccs	r0, r1, #0, 0
    295c:	280f0000 	stmdacs	pc, {}	; <UNPREDICTABLE>
    2960:	a0000093 	mulge	r0, r3, r0
    2964:	0f000005 	svceq	0x00000005
    2968:	0000932c 	andeq	r9, r0, ip, lsr #6
    296c:	000002db 	ldrdeq	r0, [r0], -fp
    2970:	00934014 	addseq	r4, r3, r4, lsl r0
    2974:	0005b800 	andeq	fp, r5, r0, lsl #16
    2978:	00027200 	andeq	r7, r2, r0, lsl #4
    297c:	50011200 	andpl	r1, r1, r0, lsl #4
    2980:	50400c05 	subpl	r0, r0, r5, lsl #24
    2984:	01122021 	tsteq	r2, r1, lsr #32
    2988:	00740551 	rsbseq	r0, r4, r1, asr r5
    298c:	001aff08 	andseq	pc, sl, r8, lsl #30
    2990:	0093440f 	addseq	r4, r3, pc, lsl #8
    2994:	0005a000 	andeq	sl, r5, r0
    2998:	f3100000 	vhadd.u16	d0, d0, d0
    299c:	01000006 	tsteq	r0, r6
    29a0:	002505a3 	eoreq	r0, r5, r3, lsr #11
    29a4:	92ec0000 	rscls	r0, ip, #0, 0
    29a8:	00300000 	eorseq	r0, r0, r0
    29ac:	9c010000 	stcls	0, cr0, [r1], {-0}
    29b0:	000002db 	ldrdeq	r0, [r0], -fp
    29b4:	01006315 	tsteq	r0, r5, lsl r3
    29b8:	002509a7 	eoreq	r0, r5, r7, lsr #19
    29bc:	22c50000 	sbccs	r0, r5, #0, 0
    29c0:	22c30000 	sbccs	r0, r3, #0, 0
    29c4:	f40f0000 	vst4.8	{d0-d3}, [pc], r0
    29c8:	a0000092 	mulge	r0, r2, r0
    29cc:	0f000005 	svceq	0x00000005
    29d0:	000092f8 	strdeq	r9, [r0], -r8
    29d4:	00000309 	andeq	r0, r0, r9, lsl #6
    29d8:	00930814 	addseq	r0, r3, r4, lsl r8
    29dc:	0005ac00 	andeq	sl, r5, r0, lsl #24
    29e0:	0002d100 	andeq	sp, r2, r0, lsl #2
    29e4:	50011200 	andpl	r1, r1, r0, lsl #4
    29e8:	50400c05 	subpl	r0, r0, r5, lsl #24
    29ec:	0f002021 	svceq	0x00002021
    29f0:	00009310 	andeq	r9, r0, r0, lsl r3
    29f4:	000005a0 	andeq	r0, r0, r0, lsr #11
    29f8:	06b31000 	ldrteq	r1, [r3], r0
    29fc:	94010000 	strls	r0, [r1], #-0
    2a00:	00002505 	andeq	r2, r0, r5, lsl #10
    2a04:	0092cc00 	addseq	ip, r2, r0, lsl #24
    2a08:	00002000 	andeq	r2, r0, r0
    2a0c:	099c0100 	ldmibeq	ip, {r8}
    2a10:	11000003 	tstne	r0, r3
    2a14:	000092d8 	ldrdeq	r9, [r0], -r8
    2a18:	000005ac 	andeq	r0, r0, ip, lsr #11
    2a1c:	05500112 	ldrbeq	r0, [r0, #-274]	; 0xfffffeee
    2a20:	2150640c 	cmpcs	r0, ip, lsl #8
    2a24:	10000020 	andne	r0, r0, r0, lsr #32
    2a28:	0000069e 	muleq	r0, lr, r6
    2a2c:	25058b01 	strcs	r8, [r5, #-2817]	; 0xfffff4ff
    2a30:	b4000000 	strlt	r0, [r0], #-0
    2a34:	18000092 	stmdane	r0, {r1, r4, r7}
    2a38:	01000000 	mrseq	r0, (UNDEF: 0)
    2a3c:	0003379c 	muleq	r3, ip, r7
    2a40:	92c01100 	sbcls	r1, r0, #0
    2a44:	05ac0000 	streq	r0, [ip, #0]!
    2a48:	01120000 	tsteq	r2, r0
    2a4c:	640c0550 	strvs	r0, [ip], #-1360	; 0xfffffab0
    2a50:	00202150 	eoreq	r2, r0, r0, asr r1
    2a54:	05770e00 	ldrbeq	r0, [r7, #-3584]!	; 0xfffff200
    2a58:	45010000 	strmi	r0, [r1, #-0]
    2a5c:	00920406 	addseq	r0, r2, r6, lsl #8
    2a60:	0000b000 	andeq	fp, r0, r0
    2a64:	849c0100 	ldrhi	r0, [ip], #256	; 0x100
    2a68:	16000004 	strne	r0, [r0], -r4
    2a6c:	00000690 	muleq	r0, r0, r6
    2a70:	620e7e01 	andvs	r7, lr, #1, 28
    2a74:	0e000000 	cdpeq	0, 0, cr0, cr0, cr0, {0}
    2a78:	92141401 	andsls	r1, r4, #16777216	; 0x1000000
    2a7c:	05c40000 	strbeq	r0, [r4]
    2a80:	03730000 	cmneq	r3, #0, 0
    2a84:	01120000 	tsteq	r2, r0
    2a88:	123e0150 	eorsne	r0, lr, #20
    2a8c:	32015101 	andcc	r5, r1, #1073741824	; 0x40000000
    2a90:	92201400 	eorls	r1, r0, #0, 8
    2a94:	05c40000 	strbeq	r0, [r4]
    2a98:	038b0000 	orreq	r0, fp, #0, 0
    2a9c:	01120000 	tsteq	r2, r0
    2aa0:	123f0150 	eorsne	r0, pc, #20
    2aa4:	32015101 	andcc	r5, r1, #1073741824	; 0x40000000
    2aa8:	92240f00 	eorls	r0, r4, #0, 30
    2aac:	05a00000 	streq	r0, [r0, #0]!
    2ab0:	30140000 	andscc	r0, r4, r0
    2ab4:	3d000092 	stccc	0, cr0, [r0, #-584]	; 0xfffffdb8
    2ab8:	b0000005 	andlt	r0, r0, r5
    2abc:	12000003 	andne	r0, r0, #3, 0
    2ac0:	0c055001 	stceq	0, cr5, [r5], {1}
    2ac4:	20215004 	eorcs	r5, r1, r4
    2ac8:	01510112 	cmpeq	r1, r2, lsl r1
    2acc:	340f0031 	strcc	r0, [pc], #-49	; 2ad4 <__code_start__-0x552c>
    2ad0:	a0000092 	mulge	r0, r2, r0
    2ad4:	14000005 	strne	r0, [r0], #-5
    2ad8:	00009244 	andeq	r9, r0, r4, asr #4
    2adc:	000005b8 			; <UNDEFINED> instruction: 0x000005b8
    2ae0:	000003d2 	ldrdeq	r0, [r0], -r2
    2ae4:	02500112 	subseq	r0, r0, #-2147483644	; 0x80000004
    2ae8:	01120074 	tsteq	r2, r4, ror r0
    2aec:	00300151 	eorseq	r0, r0, r1, asr r1
    2af0:	00925014 	addseq	r5, r2, r4, lsl r0
    2af4:	0005b800 	andeq	fp, r5, r0, lsl #16
    2af8:	0003ee00 	andeq	lr, r3, r0, lsl #28
    2afc:	50011200 	andpl	r1, r1, r0, lsl #4
    2b00:	50440c05 	subpl	r0, r4, r5, lsl #24
    2b04:	01122021 	tsteq	r2, r1, lsr #32
    2b08:	00300151 	eorseq	r0, r0, r1, asr r1
    2b0c:	00925c14 	addseq	r5, r2, r4, lsl ip
    2b10:	0005b800 	andeq	fp, r5, r0, lsl #16
    2b14:	00040a00 	andeq	r0, r4, r0, lsl #20
    2b18:	50011200 	andpl	r1, r1, r0, lsl #4
    2b1c:	504c0c05 	subpl	r0, ip, r5, lsl #24
    2b20:	01122021 	tsteq	r2, r1, lsr #32
    2b24:	00330151 	eorseq	r0, r3, r1, asr r1
    2b28:	00926814 	addseq	r6, r2, r4, lsl r8
    2b2c:	0005b800 	andeq	fp, r5, r0, lsl #16
    2b30:	00042600 	andeq	r2, r4, r0, lsl #12
    2b34:	50011200 	andpl	r1, r1, r0, lsl #4
    2b38:	50500c05 	subspl	r0, r0, r5, lsl #24
    2b3c:	01122021 	tsteq	r2, r1, lsr #32
    2b40:	00300151 	eorseq	r0, r0, r1, asr r1
    2b44:	00927414 	addseq	r7, r2, r4, lsl r4
    2b48:	0005b800 	andeq	fp, r5, r0, lsl #16
    2b4c:	00044300 	andeq	r4, r4, r0, lsl #6
    2b50:	50011200 	andpl	r1, r1, r0, lsl #4
    2b54:	50480c05 	subpl	r0, r8, r5, lsl #24
    2b58:	01122021 	tsteq	r2, r1, lsr #32
    2b5c:	c7080251 	smlsdgt	r8, r1, r2, r0
    2b60:	92801400 	addls	r1, r0, #0, 8
    2b64:	05b80000 	ldreq	r0, [r8, #0]!
    2b68:	04610000 	strbteq	r0, [r1], #-0
    2b6c:	01120000 	tsteq	r2, r0
    2b70:	680c0550 	stmdavs	ip, {r4, r6, r8, sl}
    2b74:	12202150 	eorne	r2, r0, #20
    2b78:	0a035101 	beq	d6f84 <__bss_end__+0xcd504>
    2b7c:	1400010e 	strne	r0, [r0], #-270	; 0xfffffef2
    2b80:	0000928c 	andeq	r9, r0, ip, lsl #5
    2b84:	000005b8 			; <UNDEFINED> instruction: 0x000005b8
    2b88:	0000047a 	andeq	r0, r0, sl, ror r4
    2b8c:	02500112 	subseq	r0, r0, #-2147483644	; 0x80000004
    2b90:	01120074 	tsteq	r2, r4, ror r0
    2b94:	00330151 	eorseq	r0, r3, r1, asr r1
    2b98:	0092900f 	addseq	r9, r2, pc
    2b9c:	0005a000 	andeq	sl, r5, r0
    2ba0:	950e0000 	strls	r0, [lr, #-0]
    2ba4:	01000007 	tsteq	r0, r7
    2ba8:	93900635 	orrsls	r0, r0, #55574528	; 0x3500000
    2bac:	00240000 	eoreq	r0, r4, r0
    2bb0:	9c010000 	stcls	0, cr0, [r1], {-0}
    2bb4:	000004d3 	ldrdeq	r0, [r0], -r3
    2bb8:	0093980f 	addseq	r9, r3, pc, lsl #16
    2bbc:	00019400 	andeq	r9, r1, r0, lsl #8
    2bc0:	939c0f00 	orrsls	r0, ip, #0, 30
    2bc4:	05a00000 	streq	r0, [r0, #0]!
    2bc8:	a8140000 	ldmdage	r4, {}	; <UNPREDICTABLE>
    2bcc:	d3000093 	movwle	r0, #147	; 0x93
    2bd0:	c9000004 	stmdbgt	r0, {r2}
    2bd4:	12000004 	andne	r0, r0, #4, 0
    2bd8:	0c055001 	stceq	0, cr5, [r5], {1}
    2bdc:	20215004 	eorcs	r5, r1, r4
    2be0:	02510112 	subseq	r0, r1, #-2147483644	; 0x80000004
    2be4:	0f00fe09 	svceq	0x0000fe09
    2be8:	000093ac 	andeq	r9, r0, ip, lsr #7
    2bec:	000005a0 	andeq	r0, r0, r0, lsr #11
    2bf0:	08001700 	stmdaeq	r0, {r8, r9, sl, ip}
    2bf4:	31010000 	mrscc	r0, (UNDEF: 1)
    2bf8:	0091c40d 	addseq	ip, r1, sp, lsl #8
    2bfc:	00002000 	andeq	r2, r0, r0
    2c00:	369c0100 	ldrcc	r0, [ip], r0, lsl #2
    2c04:	18000005 	stmdane	r0, {r0, r2}
    2c08:	000006c6 	andeq	r0, r0, r6, asr #13
    2c0c:	36253101 	strtcc	r3, [r5], -r1, lsl #2
    2c10:	dc000005 	stcle	0, cr0, [r0], {5}
    2c14:	d8000022 	stmdale	r0, {r1, r5}
    2c18:	13000022 	movwne	r0, #34	; 0x22
    2c1c:	006c6176 	rsbeq	r6, ip, r6, ror r1
    2c20:	2c343101 	ldfcss	f3, [r4], #-4
    2c24:	fe000000 	cdp2	0, 0, cr0, cr0, cr0, {0}
    2c28:	fa000022 	blx	2cb8 <__code_start__-0x5348>
    2c2c:	14000022 	strne	r0, [r0], #-34	; 0xffffffde
    2c30:	000091d4 	ldrdeq	r9, [r0], -r4
    2c34:	000005ac 	andeq	r0, r0, ip, lsr #11
    2c38:	00000525 	andeq	r0, r0, r5, lsr #10
    2c3c:	02500112 	subseq	r0, r0, #-2147483644	; 0x80000004
    2c40:	11000074 	tstne	r0, r4, ror r0
    2c44:	000091e0 	andeq	r9, r0, r0, ror #3
    2c48:	000005b8 			; <UNDEFINED> instruction: 0x000005b8
    2c4c:	02500112 	subseq	r0, r0, #-2147483644	; 0x80000004
    2c50:	00000074 	andeq	r0, r0, r4, ror r0
    2c54:	053c040c 	ldreq	r0, [ip, #-1036]!	; 0xfffffbf4
    2c58:	17190000 	ldrne	r0, [r9, -r0]
    2c5c:	000007b0 			; <UNDEFINED> instruction: 0x000007b0
    2c60:	e40d2e01 	str	r2, [sp], #-3585	; 0xfffff1ff
    2c64:	20000091 	mulcs	r0, r1, r0
    2c68:	01000000 	mrseq	r0, (UNDEF: 0)
    2c6c:	0005a09c 	muleq	r5, ip, r0
    2c70:	06c61800 	strbeq	r1, [r6], r0, lsl #16
    2c74:	2e010000 	cdpcs	0, 0, cr0, cr1, cr0, {0}
    2c78:	00053624 	andeq	r3, r5, r4, lsr #12
    2c7c:	00232000 	eoreq	r2, r3, r0
    2c80:	00231c00 	eoreq	r1, r3, r0, lsl #24
    2c84:	61761300 	cmnvs	r6, r0, lsl #6
    2c88:	2e01006c 	cdpcs	0, 0, cr0, cr1, cr12, {3}
    2c8c:	00002c33 	andeq	r2, r0, r3, lsr ip
    2c90:	00234200 	eoreq	r4, r3, r0, lsl #4
    2c94:	00233e00 	eoreq	r3, r3, r0, lsl #28
    2c98:	91f41400 	mvnsls	r1, r0, lsl #8
    2c9c:	05ac0000 	streq	r0, [ip, #0]!
    2ca0:	058f0000 	streq	r0, [pc]	; 2ca8 <__code_start__-0x5358>
    2ca4:	01120000 	tsteq	r2, r0
    2ca8:	00740250 	rsbseq	r0, r4, r0, asr r2
    2cac:	92001100 	andls	r1, r0, #0
    2cb0:	05b80000 	ldreq	r0, [r8, #0]!
    2cb4:	01120000 	tsteq	r2, r0
    2cb8:	00740250 	rsbseq	r0, r4, r0, asr r2
    2cbc:	3b1a0000 	blcc	682cc4 <__bss_end__+0x679244>
    2cc0:	3b000006 	blcc	2ce0 <__code_start__-0x5320>
    2cc4:	03000006 	movweq	r0, #6
    2cc8:	131a069c 	tstne	sl, #156, 12	; 0x9c00000
    2ccc:	13000008 	movwne	r0, #8
    2cd0:	03000008 	movweq	r0, #8
    2cd4:	dc1a0bc3 			; <UNDEFINED> instruction: 0xdc1a0bc3
    2cd8:	dc000006 	stcle	0, cr0, [r0], {6}
    2cdc:	03000006 	movweq	r0, #6
    2ce0:	7c1a06ae 	ldcvc	6, cr0, [sl], {174}	; 0xae
    2ce4:	7c000003 	stcvc	0, cr0, [r0], {3}
    2ce8:	04000003 	streq	r0, [r0], #-3
    2cec:	49000619 	stmdbmi	r0, {r0, r3, r4, r9, sl}
    2cf0:	04000001 	streq	r0, [r0], #-1
    2cf4:	00104b00 	andseq	r4, r0, r0, lsl #22
    2cf8:	93010400 	movwls	r0, #5120	; 0x1400
    2cfc:	0c000000 	stceq	0, cr0, [r0], {-0}
    2d00:	00000837 	andeq	r0, r0, r7, lsr r8
    2d04:	0000033c 	andeq	r0, r0, ip, lsr r3
    2d08:	000093b4 			; <UNDEFINED> instruction: 0x000093b4
    2d0c:	0000003c 	andeq	r0, r0, ip, lsr r0
    2d10:	00001b5b 	andeq	r1, r0, fp, asr fp
    2d14:	69050402 	stmdbvs	r5, {r1, sl}
    2d18:	0300746e 	movweq	r7, #1134	; 0x46e
    2d1c:	00390704 	eorseq	r0, r9, r4, lsl #14
    2d20:	01030000 	mrseq	r0, (UNDEF: 3)
    2d24:	00004806 	andeq	r4, r0, r6, lsl #16
    2d28:	05020300 	streq	r0, [r2, #-768]	; 0xfffffd00
    2d2c:	0000016c 	andeq	r0, r0, ip, ror #2
    2d30:	57050403 	strpl	r0, [r5, -r3, lsl #8]
    2d34:	03000001 	movweq	r0, #1
    2d38:	01520508 	cmpeq	r2, r8, lsl #10
    2d3c:	01030000 	mrseq	r0, (UNDEF: 3)
    2d40:	00004608 	andeq	r4, r0, r8, lsl #12
    2d44:	07020300 	streq	r0, [r2, -r0, lsl #6]
    2d48:	0000005d 	andeq	r0, r0, sp, asr r0
    2d4c:	34070403 	strcc	r0, [r7], #-1027	; 0xfffffbfd
    2d50:	03000000 	movweq	r0, #0
    2d54:	002f0708 	eoreq	r0, pc, r8, lsl #14
    2d58:	25040000 	strcs	r0, [r4, #-0]
    2d5c:	7a000000 	bvc	2d64 <__code_start__-0x529c>
    2d60:	05000000 	streq	r0, [r0, #-0]
    2d64:	00000025 	andeq	r0, r0, r5, lsr #32
    2d68:	01600600 	cmneq	r0, r0, lsl #12
    2d6c:	1c020000 	stcne	0, cr0, [r2], {-0}
    2d70:	0000860e 	andeq	r8, r0, lr, lsl #12
    2d74:	6b040700 	blvs	10497c <__bss_end__+0xfaefc>
    2d78:	04000000 	streq	r0, [r0], #-0
    2d7c:	00000025 	andeq	r0, r0, r5, lsr #32
    2d80:	0000009b 	muleq	r0, fp, r0
    2d84:	00009b05 	andeq	r9, r0, r5, lsl #22
    2d88:	04070000 	streq	r0, [r7], #-0
    2d8c:	000000a8 	andeq	r0, r0, r8, lsr #1
    2d90:	4f080103 	svcmi	0x00080103
    2d94:	08000000 	stmdaeq	r0, {}	; <UNPREDICTABLE>
    2d98:	000000a1 	andeq	r0, r0, r1, lsr #1
    2d9c:	0003e006 	andeq	lr, r3, r6
    2da0:	0e210200 	cdpeq	2, 2, cr0, cr1, cr0, {0}
    2da4:	000000b9 	strheq	r0, [r0], -r9
    2da8:	008c0407 	addeq	r0, ip, r7, lsl #8
    2dac:	7a090000 	bvc	242db4 <__bss_end__+0x239334>
    2db0:	01000000 	mrseq	r0, (UNDEF: 0)
    2db4:	03050706 	movweq	r0, #22278	; 0x5706
    2db8:	00009678 	andeq	r9, r0, r8, ror r6
    2dbc:	00082a0a 	andeq	r2, r8, sl, lsl #20
    2dc0:	060b0100 	streq	r0, [fp], -r0, lsl #2
    2dc4:	000093e0 	andeq	r9, r0, r0, ror #7
    2dc8:	00000010 	andeq	r0, r0, r0, lsl r0
    2dcc:	00f19c01 	rscseq	r9, r1, r1, lsl #24
    2dd0:	660b0000 	strvs	r0, [fp], -r0
    2dd4:	0b010070 	bleq	42f9c <__bss_end__+0x3951c>
    2dd8:	00008619 	andeq	r8, r0, r9, lsl r6
    2ddc:	00500100 	subseq	r0, r0, r0, lsl #2
    2de0:	0008480c 	andeq	r4, r8, ip, lsl #16
    2de4:	06080100 	streq	r0, [r8], -r0, lsl #2
    2de8:	000093c8 	andeq	r9, r0, r8, asr #7
    2dec:	00000018 	andeq	r0, r0, r8, lsl r0
    2df0:	190d9c01 	stmdbne	sp, {r0, sl, fp, ip, pc}
    2df4:	01000008 	tsteq	r0, r8
    2df8:	00250c03 	eoreq	r0, r5, r3, lsl #24
    2dfc:	93b40000 			; <UNDEFINED> instruction: 0x93b40000
    2e00:	00140000 	andseq	r0, r4, r0
    2e04:	9c010000 	stcls	0, cr0, [r1], {-0}
    2e08:	00000140 	andeq	r0, r0, r0, asr #2
    2e0c:	0100630e 	tsteq	r0, lr, lsl #6
    2e10:	00252103 	eoreq	r2, r5, r3, lsl #2
    2e14:	23640000 	cmncs	r4, #0, 0
    2e18:	23600000 	cmncs	r0, #0, 0
    2e1c:	c00f0000 	andgt	r0, pc, r0
    2e20:	40000093 	mulmi	r0, r3, r0
    2e24:	10000001 	andne	r0, r0, r1
    2e28:	74025001 	strvc	r5, [r2], #-1
    2e2c:	11000000 	mrsne	r0, (UNDEF: 0)
    2e30:	00000809 	andeq	r0, r0, r9, lsl #16
    2e34:	00000809 	andeq	r0, r0, r9, lsl #16
    2e38:	00064202 	andeq	r4, r6, r2, lsl #4
    2e3c:	00000137 	andeq	r0, r0, r7, lsr r1
    2e40:	115a0004 	cmpne	sl, r4
    2e44:	01040000 	mrseq	r0, (UNDEF: 4)
    2e48:	00000093 	muleq	r0, r3, r0
    2e4c:	0008570c 	andeq	r5, r8, ip, lsl #14
    2e50:	00033c00 	andeq	r3, r3, r0, lsl #24
    2e54:	0093f000 	addseq	pc, r3, r0
    2e58:	00002c00 	andeq	r2, r0, r0, lsl #24
    2e5c:	001bfd00 	andseq	pc, fp, r0, lsl #26
    2e60:	05040200 	streq	r0, [r4, #-512]	; 0xfffffe00
    2e64:	00746e69 	rsbseq	r6, r4, r9, ror #28
    2e68:	39070403 	stmdbcc	r7, {r0, r1, sl}
    2e6c:	03000000 	movweq	r0, #0
    2e70:	00480601 	subeq	r0, r8, r1, lsl #12
    2e74:	02030000 	andeq	r0, r3, #0, 0
    2e78:	00016c05 	andeq	r6, r1, r5, lsl #24
    2e7c:	05040300 	streq	r0, [r4, #-768]	; 0xfffffd00
    2e80:	00000157 	andeq	r0, r0, r7, asr r1
    2e84:	52050803 	andpl	r0, r5, #196608	; 0x30000
    2e88:	03000001 	movweq	r0, #1
    2e8c:	00460801 	subeq	r0, r6, r1, lsl #16
    2e90:	02030000 	andeq	r0, r3, #0, 0
    2e94:	00005d07 	andeq	r5, r0, r7, lsl #26
    2e98:	07040300 	streq	r0, [r4, -r0, lsl #6]
    2e9c:	00000034 	andeq	r0, r0, r4, lsr r0
    2ea0:	2f070803 	svccs	0x00070803
    2ea4:	04000000 	streq	r0, [r0], #-0
    2ea8:	00000025 	andeq	r0, r0, r5, lsr #32
    2eac:	0000007a 	andeq	r0, r0, sl, ror r0
    2eb0:	00002505 	andeq	r2, r0, r5, lsl #10
    2eb4:	60060000 	andvs	r0, r6, r0
    2eb8:	02000001 	andeq	r0, r0, #1, 0
    2ebc:	00860e1c 	addeq	r0, r6, ip, lsl lr
    2ec0:	04070000 	streq	r0, [r7], #-0
    2ec4:	0000006b 	andeq	r0, r0, fp, rrx
    2ec8:	00002504 	andeq	r2, r0, r4, lsl #10
    2ecc:	00009b00 	andeq	r9, r0, r0, lsl #22
    2ed0:	009b0500 	addseq	r0, fp, r0, lsl #10
    2ed4:	07000000 	streq	r0, [r0, -r0]
    2ed8:	0000a804 	andeq	sl, r0, r4, lsl #16
    2edc:	08010300 	stmdaeq	r1, {r8, r9}
    2ee0:	0000004f 	andeq	r0, r0, pc, asr #32
    2ee4:	0000a108 	andeq	sl, r0, r8, lsl #2
    2ee8:	03e00600 	mvneq	r0, #0, 12
    2eec:	21020000 	mrscs	r0, (UNDEF: 2)
    2ef0:	0000b90e 	andeq	fp, r0, lr, lsl #18
    2ef4:	8c040700 	stchi	7, cr0, [r4], {-0}
    2ef8:	09000000 	stmdbeq	r0, {}	; <UNPREDICTABLE>
    2efc:	0000049d 	muleq	r0, sp, r4
    2f00:	34070401 	strcc	r0, [r7], #-1025	; 0xfffffbff
    2f04:	f0000001 			; <UNDEFINED> instruction: 0xf0000001
    2f08:	2c000093 	stccs	0, cr0, [r0], {147}	; 0x93
    2f0c:	01000000 	mrseq	r0, (UNDEF: 0)
    2f10:	0001349c 	muleq	r1, ip, r4
    2f14:	08670a00 	stmdaeq	r7!, {r9, fp}^
    2f18:	04010000 	streq	r0, [r1], #-0
    2f1c:	00013415 	andeq	r3, r1, r5, lsl r4
    2f20:	0b500100 	bleq	1403328 <__bss_end__+0x13f98a8>
    2f24:	00637273 	rsbeq	r7, r3, r3, ror r2
    2f28:	9b270401 	blls	9c3f34 <__bss_end__+0x9ba4b4>
    2f2c:	86000000 	strhi	r0, [r0], -r0
    2f30:	82000023 	andhi	r0, r0, #35, 0	; 0x23
    2f34:	0c000023 	stceq	0, cr0, [r0], {35}	; 0x23
    2f38:	01003173 	tsteq	r0, r3, ror r1
    2f3c:	01340b05 	teqeq	r4, r5, lsl #22
    2f40:	23b50000 			; <UNDEFINED> instruction: 0x23b50000
    2f44:	23a70000 			; <UNDEFINED> instruction: 0x23a70000
    2f48:	730c0000 	movwvc	r0, #49152	; 0xc000
    2f4c:	06010032 			; <UNDEFINED> instruction: 0x06010032
    2f50:	00009b11 	andeq	r9, r0, r1, lsl fp
    2f54:	00241400 	eoreq	r1, r4, r0, lsl #8
    2f58:	00240e00 	eoreq	r0, r4, r0, lsl #28
    2f5c:	00630c00 	rsbeq	r0, r3, r0, lsl #24
    2f60:	a10a0701 	tstge	sl, r1, lsl #14
    2f64:	45000000 	strmi	r0, [r0, #-0]
    2f68:	3f000024 	svccc	0x00000024
    2f6c:	00000024 	andeq	r0, r0, r4, lsr #32
    2f70:	00a10407 	adceq	r0, r1, r7, lsl #8
    2f74:	f7000000 			; <UNDEFINED> instruction: 0xf7000000
    2f78:	04000000 	streq	r0, [r0], #-0
    2f7c:	00121000 	andseq	r1, r2, r0
    2f80:	93010400 	movwls	r0, #5120	; 0x1400
    2f84:	0c000000 	stceq	0, cr0, [r0], {-0}
    2f88:	0000086c 	andeq	r0, r0, ip, ror #16
    2f8c:	0000033c 	andeq	r0, r0, ip, lsr r3
    2f90:	0000941c 	andeq	r9, r0, ip, lsl r4
    2f94:	00000044 	andeq	r0, r0, r4, asr #32
    2f98:	00001ce3 	andeq	r1, r0, r3, ror #25
    2f9c:	69050402 	stmdbvs	r5, {r1, sl}
    2fa0:	0300746e 	movweq	r7, #1134	; 0x46e
    2fa4:	00390704 	eorseq	r0, r9, r4, lsl #14
    2fa8:	01030000 	mrseq	r0, (UNDEF: 3)
    2fac:	00004806 	andeq	r4, r0, r6, lsl #16
    2fb0:	05020300 	streq	r0, [r2, #-768]	; 0xfffffd00
    2fb4:	0000016c 	andeq	r0, r0, ip, ror #2
    2fb8:	57050403 	strpl	r0, [r5, -r3, lsl #8]
    2fbc:	03000001 	movweq	r0, #1
    2fc0:	01520508 	cmpeq	r2, r8, lsl #10
    2fc4:	01030000 	mrseq	r0, (UNDEF: 3)
    2fc8:	00004608 	andeq	r4, r0, r8, lsl #12
    2fcc:	07020300 	streq	r0, [r2, -r0, lsl #6]
    2fd0:	0000005d 	andeq	r0, r0, sp, asr r0
    2fd4:	34070403 	strcc	r0, [r7], #-1027	; 0xfffffbfd
    2fd8:	03000000 	movweq	r0, #0
    2fdc:	002f0708 	eoreq	r0, pc, r8, lsl #14
    2fe0:	25040000 	strcs	r0, [r4, #-0]
    2fe4:	7a000000 	bvc	2fec <__code_start__-0x5014>
    2fe8:	05000000 	streq	r0, [r0, #-0]
    2fec:	00000025 	andeq	r0, r0, r5, lsr #32
    2ff0:	01600600 	cmneq	r0, r0, lsl #12
    2ff4:	1c020000 	stcne	0, cr0, [r2], {-0}
    2ff8:	0000860e 	andeq	r8, r0, lr, lsl #12
    2ffc:	6b040700 	blvs	104c04 <__bss_end__+0xfb184>
    3000:	04000000 	streq	r0, [r0], #-0
    3004:	00000025 	andeq	r0, r0, r5, lsr #32
    3008:	0000009b 	muleq	r0, fp, r0
    300c:	00009b05 	andeq	r9, r0, r5, lsl #22
    3010:	04070000 	streq	r0, [r7], #-0
    3014:	000000a8 	andeq	r0, r0, r8, lsr #1
    3018:	4f080103 	svcmi	0x00080103
    301c:	08000000 	stmdaeq	r0, {}	; <UNPREDICTABLE>
    3020:	000000a1 	andeq	r0, r0, r1, lsr #1
    3024:	0003e006 	andeq	lr, r3, r6
    3028:	0e210200 	cdpeq	2, 2, cr0, cr1, cr0, {0}
    302c:	000000b9 	strheq	r0, [r0], -r9
    3030:	008c0407 	addeq	r0, ip, r7, lsl #8
    3034:	cb090000 	blgt	24303c <__bss_end__+0x2395bc>
    3038:	01000004 	tsteq	r0, r4
    303c:	00250503 	eoreq	r0, r5, r3, lsl #10
    3040:	941c0000 	ldrls	r0, [ip], #-0
    3044:	00440000 	subeq	r0, r4, r0
    3048:	9c010000 	stcls	0, cr0, [r1], {-0}
    304c:	0100610a 	tsteq	r0, sl, lsl #2
    3050:	009b1803 	addseq	r1, fp, r3, lsl #16
    3054:	247c0000 	ldrbtcs	r0, [ip], #-0
    3058:	24700000 	ldrbtcs	r0, [r0], #-0
    305c:	620a0000 	andvs	r0, sl, #0, 0
    3060:	27030100 	strcs	r0, [r3, -r0, lsl #2]
    3064:	0000009b 	muleq	r0, fp, r0
    3068:	000024d0 	ldrdeq	r2, [r0], -r0
    306c:	000024ca 	andeq	r2, r0, sl, asr #9
    3070:	010f0000 	mrseq	r0, CPSR
    3074:	00040000 	andeq	r0, r4, r0
    3078:	0000129f 	muleq	r0, pc, r2	; <UNPREDICTABLE>
    307c:	00930104 	addseq	r0, r3, r4, lsl #2
    3080:	7c0c0000 	stcvc	0, cr0, [ip], {-0}
    3084:	3c000008 	stccc	0, cr0, [r0], {8}
    3088:	60000003 	andvs	r0, r0, r3
    308c:	18000094 	stmdane	r0, {r2, r4, r7}
    3090:	99000000 	stmdbls	r0, {}	; <UNPREDICTABLE>
    3094:	0200001d 	andeq	r0, r0, #29, 0
    3098:	6e690504 	cdpvs	5, 6, cr0, cr9, cr4, {0}
    309c:	04030074 	streq	r0, [r3], #-116	; 0xffffff8c
    30a0:	00003907 	andeq	r3, r0, r7, lsl #18
    30a4:	06010300 	streq	r0, [r1], -r0, lsl #6
    30a8:	00000048 	andeq	r0, r0, r8, asr #32
    30ac:	6c050203 	sfmvs	f0, 4, [r5], {3}
    30b0:	03000001 	movweq	r0, #1
    30b4:	01570504 	cmpeq	r7, r4, lsl #10
    30b8:	08030000 	stmdaeq	r3, {}	; <UNPREDICTABLE>
    30bc:	00015205 	andeq	r5, r1, r5, lsl #4
    30c0:	08010300 	stmdaeq	r1, {r8, r9}
    30c4:	00000046 	andeq	r0, r0, r6, asr #32
    30c8:	5d070203 	sfmpl	f0, 4, [r7, #-12]
    30cc:	03000000 	movweq	r0, #0
    30d0:	00340704 	eorseq	r0, r4, r4, lsl #14
    30d4:	08030000 	stmdaeq	r3, {}	; <UNPREDICTABLE>
    30d8:	00002f07 	andeq	r2, r0, r7, lsl #30
    30dc:	00250400 	eoreq	r0, r5, r0, lsl #8
    30e0:	007a0000 	rsbseq	r0, sl, r0
    30e4:	25050000 	strcs	r0, [r5, #-0]
    30e8:	00000000 	andeq	r0, r0, r0
    30ec:	00016006 	andeq	r6, r1, r6
    30f0:	0e1c0200 	cdpeq	2, 1, cr0, cr12, cr0, {0}
    30f4:	00000086 	andeq	r0, r0, r6, lsl #1
    30f8:	006b0407 	rsbeq	r0, fp, r7, lsl #8
    30fc:	25040000 	strcs	r0, [r4, #-0]
    3100:	9b000000 	blls	3108 <__code_start__-0x4ef8>
    3104:	05000000 	streq	r0, [r0, #-0]
    3108:	0000009b 	muleq	r0, fp, r0
    310c:	a8040700 	stmdage	r4, {r8, r9, sl}
    3110:	03000000 	movweq	r0, #0
    3114:	004f0801 	subeq	r0, pc, r1, lsl #16
    3118:	a1080000 	mrsge	r0, (UNDEF: 8)
    311c:	06000000 	streq	r0, [r0], -r0
    3120:	000003e0 	andeq	r0, r0, r0, ror #7
    3124:	b90e2102 	stmdblt	lr, {r1, r8, sp}
    3128:	07000000 	streq	r0, [r0, -r0]
    312c:	00008c04 	andeq	r8, r0, r4, lsl #24
    3130:	04a40900 	strteq	r0, [r4], #2304	; 0x900
    3134:	03010000 	movweq	r0, #4096	; 0x1000
    3138:	00010c07 	andeq	r0, r1, r7, lsl #24
    313c:	00946000 	addseq	r6, r4, r0
    3140:	00001800 	andeq	r1, r0, r0, lsl #16
    3144:	0c9c0100 	ldfeqs	f0, [ip], {0}
    3148:	0a000001 	beq	3154 <__code_start__-0x4eac>
    314c:	01003173 	tsteq	r0, r3, ror r1
    3150:	010c1503 	tsteq	ip, r3, lsl #10
    3154:	50010000 	andpl	r0, r1, r0
    3158:	0032730b 	eorseq	r7, r2, fp, lsl #6
    315c:	9b260301 	blls	983d68 <__bss_end__+0x97a2e8>
    3160:	ff000000 			; <UNDEFINED> instruction: 0xff000000
    3164:	f9000024 			; <UNDEFINED> instruction: 0xf9000024
    3168:	0c000024 	stceq	0, cr0, [r0], {36}	; 0x24
    316c:	04010073 	streq	r0, [r1], #-115	; 0xffffff8d
    3170:	00010c14 	andeq	r0, r1, r4, lsl ip
    3174:	00252c00 	eoreq	r2, r5, r0, lsl #24
    3178:	00252a00 	eoreq	r2, r5, r0, lsl #20
    317c:	04070000 	streq	r0, [r7], #-0
    3180:	000000a1 	andeq	r0, r0, r1, lsr #1
    3184:	00014e00 	andeq	r4, r1, r0, lsl #28
    3188:	55000400 	strpl	r0, [r0, #-1024]	; 0xfffffc00
    318c:	04000013 	streq	r0, [r0], #-19	; 0xffffffed
    3190:	00009301 	andeq	r9, r0, r1, lsl #6
    3194:	08930c00 	ldmeq	r3, {sl, fp}
    3198:	033c0000 	teqeq	ip, #0, 0
    319c:	94780000 	ldrbtls	r0, [r8], #-0
    31a0:	00300000 	eorseq	r0, r0, r0
    31a4:	1e3a0000 	cdpne	0, 3, cr0, cr10, cr0, {0}
    31a8:	04020000 	streq	r0, [r2], #-0
    31ac:	746e6905 	strbtvc	r6, [lr], #-2309	; 0xfffff6fb
    31b0:	088c0300 	stmeq	ip, {r8, r9}
    31b4:	d1030000 	mrsle	r0, (UNDEF: 3)
    31b8:	00003817 	andeq	r3, r0, r7, lsl r8
    31bc:	07040400 	streq	r0, [r4, -r0, lsl #8]
    31c0:	00000039 	andeq	r0, r0, r9, lsr r0
    31c4:	48060104 	stmdami	r6, {r2, r8}
    31c8:	04000000 	streq	r0, [r0], #-0
    31cc:	016c0502 	cmneq	ip, r2, lsl #10
    31d0:	04040000 	streq	r0, [r4], #-0
    31d4:	00015705 	andeq	r5, r1, r5, lsl #14
    31d8:	05080400 	streq	r0, [r8, #-1024]	; 0xfffffc00
    31dc:	00000152 	andeq	r0, r0, r2, asr r1
    31e0:	46080104 	strmi	r0, [r8], -r4, lsl #2
    31e4:	05000000 	streq	r0, [r0, #-0]
    31e8:	0000005b 	andeq	r0, r0, fp, asr r0
    31ec:	5d070204 	sfmpl	f0, 4, [r7, #-16]
    31f0:	04000000 	streq	r0, [r0], #-0
    31f4:	00340704 	eorseq	r0, r4, r4, lsl #14
    31f8:	08040000 	stmdaeq	r4, {}	; <UNPREDICTABLE>
    31fc:	00002f07 	andeq	r2, r0, r7, lsl #30
    3200:	00250600 	eoreq	r0, r5, r0, lsl #12
    3204:	008b0000 	addeq	r0, fp, r0
    3208:	25070000 	strcs	r0, [r7, #-0]
    320c:	00000000 	andeq	r0, r0, r0
    3210:	00016008 	andeq	r6, r1, r8
    3214:	0e1c0200 	cdpeq	2, 1, cr0, cr12, cr0, {0}
    3218:	00000097 	muleq	r0, r7, r0
    321c:	007c0409 	rsbseq	r0, ip, r9, lsl #8
    3220:	25060000 	strcs	r0, [r6, #-0]
    3224:	ac000000 	stcge	0, cr0, [r0], {-0}
    3228:	07000000 	streq	r0, [r0, -r0]
    322c:	000000ac 	andeq	r0, r0, ip, lsr #1
    3230:	b9040900 	stmdblt	r4, {r8, fp}
    3234:	04000000 	streq	r0, [r0], #-0
    3238:	004f0801 	subeq	r0, pc, r1, lsl #16
    323c:	b2050000 	andlt	r0, r5, #0, 0
    3240:	08000000 	stmdaeq	r0, {}	; <UNPREDICTABLE>
    3244:	000003e0 	andeq	r0, r0, r0, ror #7
    3248:	ca0e2102 	bgt	38b658 <__bss_end__+0x381bd8>
    324c:	09000000 	stmdbeq	r0, {}	; <UNPREDICTABLE>
    3250:	00009d04 	andeq	r9, r0, r4, lsl #26
    3254:	04fb0a00 	ldrbteq	r0, [fp], #2560	; 0xa00
    3258:	04010000 	streq	r0, [r1], #-0
    325c:	00002505 	andeq	r2, r0, r5, lsl #10
    3260:	00947800 	addseq	r7, r4, r0, lsl #16
    3264:	00003000 	andeq	r3, r0, r0
    3268:	4b9c0100 	blmi	fe703670 <__bss_end__+0xfe6f9bf0>
    326c:	0b000001 	bleq	3278 <__code_start__-0x4d88>
    3270:	0031735f 	eorseq	r7, r1, pc, asr r3
    3274:	ac190401 	cfldrsge	mvf0, [r9], {1}
    3278:	43000000 	movwmi	r0, #0
    327c:	3f000025 	svccc	0x00000025
    3280:	0b000025 	bleq	331c <__code_start__-0x4ce4>
    3284:	0032735f 	eorseq	r7, r2, pc, asr r3
    3288:	ac2a0401 	cfstrsge	mvf0, [sl], #-4
    328c:	68000000 	stmdavs	r0, {}	; <UNPREDICTABLE>
    3290:	64000025 	strvs	r0, [r0], #-37	; 0xffffffdb
    3294:	0b000025 	bleq	3330 <__code_start__-0x4cd0>
    3298:	0401006e 	streq	r0, [r1], #-110	; 0xffffff92
    329c:	00002c36 	andeq	r2, r0, r6, lsr ip
    32a0:	00259300 	eoreq	r9, r5, r0, lsl #6
    32a4:	00258900 	eoreq	r8, r5, r0, lsl #18
    32a8:	31730c00 	cmncc	r3, r0, lsl #24
    32ac:	1a050100 	bne	1436b4 <__bss_end__+0x139c34>
    32b0:	0000014b 	andeq	r0, r0, fp, asr #2
    32b4:	000025ea 	andeq	r2, r0, sl, ror #11
    32b8:	000025e2 	andeq	r2, r0, r2, ror #11
    32bc:	0032730c 	eorseq	r7, r2, ip, lsl #6
    32c0:	4b2c0501 	blmi	b046cc <__bss_end__+0xafac4c>
    32c4:	28000001 	stmdacs	r0, {r0}
    32c8:	22000026 	andcs	r0, r0, #38, 0	; 0x26
    32cc:	00000026 	andeq	r0, r0, r6, lsr #32
    32d0:	00620409 	rsbeq	r0, r2, r9, lsl #8
    32d4:	ce000000 	cdpgt	0, 0, cr0, cr0, cr0, {0}
    32d8:	04000000 	streq	r0, [r0], #-0
    32dc:	00140900 	andseq	r0, r4, r0, lsl #18
    32e0:	93010400 	movwls	r0, #5120	; 0x1400
    32e4:	0c000000 	stceq	0, cr0, [r0], {-0}
    32e8:	000008a4 	andeq	r0, r0, r4, lsr #17
    32ec:	0000033c 	andeq	r0, r0, ip, lsr r3
    32f0:	000094a8 	andeq	r9, r0, r8, lsr #9
    32f4:	00000004 	andeq	r0, r0, r4
    32f8:	00001f3b 	andeq	r1, r0, fp, lsr pc
    32fc:	69050402 	stmdbvs	r5, {r1, sl}
    3300:	0300746e 	movweq	r7, #1134	; 0x46e
    3304:	00390704 	eorseq	r0, r9, r4, lsl #14
    3308:	01030000 	mrseq	r0, (UNDEF: 3)
    330c:	00004806 	andeq	r4, r0, r6, lsl #16
    3310:	05020300 	streq	r0, [r2, #-768]	; 0xfffffd00
    3314:	0000016c 	andeq	r0, r0, ip, ror #2
    3318:	57050403 	strpl	r0, [r5, -r3, lsl #8]
    331c:	03000001 	movweq	r0, #1
    3320:	01520508 	cmpeq	r2, r8, lsl #10
    3324:	01030000 	mrseq	r0, (UNDEF: 3)
    3328:	00004608 	andeq	r4, r0, r8, lsl #12
    332c:	07020300 	streq	r0, [r2, -r0, lsl #6]
    3330:	0000005d 	andeq	r0, r0, sp, asr r0
    3334:	34070403 	strcc	r0, [r7], #-1027	; 0xfffffbfd
    3338:	03000000 	movweq	r0, #0
    333c:	002f0708 	eoreq	r0, pc, r8, lsl #14
    3340:	25040000 	strcs	r0, [r4, #-0]
    3344:	7a000000 	bvc	334c <__code_start__-0x4cb4>
    3348:	05000000 	streq	r0, [r0, #-0]
    334c:	00000025 	andeq	r0, r0, r5, lsr #32
    3350:	01600600 	cmneq	r0, r0, lsl #12
    3354:	1c020000 	stcne	0, cr0, [r2], {-0}
    3358:	0000860e 	andeq	r8, r0, lr, lsl #12
    335c:	6b040700 	blvs	104f64 <__bss_end__+0xfb4e4>
    3360:	04000000 	streq	r0, [r0], #-0
    3364:	00000025 	andeq	r0, r0, r5, lsr #32
    3368:	0000009b 	muleq	r0, fp, r0
    336c:	00009b05 	andeq	r9, r0, r5, lsl #22
    3370:	04070000 	streq	r0, [r7], #-0
    3374:	000000a8 	andeq	r0, r0, r8, lsr #1
    3378:	4f080103 	svcmi	0x00080103
    337c:	08000000 	stmdaeq	r0, {}	; <UNPREDICTABLE>
    3380:	000000a1 	andeq	r0, r0, r1, lsr #1
    3384:	0003e006 	andeq	lr, r3, r6
    3388:	0e210200 	cdpeq	2, 2, cr0, cr1, cr0, {0}
    338c:	000000b9 	strheq	r0, [r0], -r9
    3390:	008c0407 	addeq	r0, ip, r7, lsl #8
    3394:	c0090000 	andgt	r0, r9, r0
    3398:	01000005 	tsteq	r0, r5
    339c:	94a80603 	strtls	r0, [r8], #1539	; 0x603
    33a0:	00040000 	andeq	r0, r4, r0
    33a4:	9c010000 	stcls	0, cr0, [r1], {-0}
	...

Disassembly of section .debug_abbrev:

00000000 <.debug_abbrev>:
       0:	25011101 	strcs	r1, [r1, #-257]	; 0xfffffeff
       4:	030b130e 	movweq	r1, #45838	; 0xb30e
       8:	110e1b0e 	tstne	lr, lr, lsl #22
       c:	10061201 	andne	r1, r6, r1, lsl #4
      10:	02000017 	andeq	r0, r0, #23, 0
      14:	0b0b0024 	bleq	2c00ac <__bss_end__+0x2b662c>
      18:	08030b3e 	stmdaeq	r3, {r1, r2, r3, r4, r5, r8, r9, fp}
      1c:	24030000 	strcs	r0, [r3], #-0
      20:	3e0b0b00 	vmlacc.f64	d0, d11, d0
      24:	000e030b 	andeq	r0, lr, fp, lsl #6
      28:	00350400 	eorseq	r0, r5, r0, lsl #8
      2c:	00001349 	andeq	r1, r0, r9, asr #6
      30:	27011505 	strcs	r1, [r1, -r5, lsl #10]
      34:	01134919 	tsteq	r3, r9, lsl r9
      38:	06000013 			; <UNDEFINED> instruction: 0x06000013
      3c:	13490005 	movtne	r0, #36869	; 0x9005
      40:	34070000 	strcc	r0, [r7], #-0
      44:	3a0e0300 	bcc	380c4c <__bss_end__+0x3771cc>
      48:	390b3b0b 	stmdbcc	fp, {r0, r1, r3, r8, r9, fp, ip, sp}
      4c:	3f13490b 	svccc	0x0013490b
      50:	00193c19 	andseq	r3, r9, r9, lsl ip
      54:	000f0800 	andeq	r0, pc, r0, lsl #16
      58:	13490b0b 	movtne	r0, #39691	; 0x9b0b
      5c:	26090000 	strcs	r0, [r9], -r0
      60:	00134900 	andseq	r4, r3, r0, lsl #18
      64:	00340a00 	eorseq	r0, r4, r0, lsl #20
      68:	0b3a0e03 	bleq	e8387c <__bss_end__+0xe79dfc>
      6c:	0b390b3b 	bleq	e42d60 <__bss_end__+0xe392e0>
      70:	00001349 	andeq	r1, r0, r9, asr #6
      74:	3f012e0b 	svccc	0x00012e0b
      78:	3a0e0319 	bcc	380ce4 <__bss_end__+0x377264>
      7c:	390b3b0b 	stmdbcc	fp, {r0, r1, r3, r8, r9, fp, ip, sp}
      80:	1119270b 	tstne	r9, fp, lsl #14
      84:	40061201 	andmi	r1, r6, r1, lsl #4
      88:	19429718 	stmdbne	r2, {r3, r4, r8, r9, sl, ip, pc}^
      8c:	00001301 	andeq	r1, r0, r1, lsl #6
      90:	0300340c 	movweq	r3, #1036	; 0x40c
      94:	3b0b3a08 	blcc	2ce8bc <__bss_end__+0x2c4e3c>
      98:	490b390b 	stmdbmi	fp, {r0, r1, r3, r8, fp, ip, sp}
      9c:	000b1c13 	andeq	r1, fp, r3, lsl ip
      a0:	010b0d00 	tsteq	fp, r0, lsl #26
      a4:	06120111 			; <UNDEFINED> instruction: 0x06120111
      a8:	00001301 	andeq	r1, r0, r1, lsl #6
      ac:	31011d0e 	tstcc	r1, lr, lsl #26
      b0:	b8015213 	stmdalt	r1, {r0, r1, r4, r9, ip, lr}
      b4:	17550b42 	ldrbne	r0, [r5, -r2, asr #22]
      b8:	0b590b58 	bleq	1642e20 <__bss_end__+0x16393a0>
      bc:	13010b57 	movwne	r0, #6999	; 0x1b57
      c0:	050f0000 	streq	r0, [pc, #-0]	; c8 <__code_start__-0x7f38>
      c4:	02133100 	andseq	r3, r3, #0
      c8:	1742b717 	smlaldne	fp, r2, r7, r7
      cc:	0b100000 	bleq	4000d4 <__bss_end__+0x3f6654>
      d0:	00175501 	andseq	r5, r7, r1, lsl #10
      d4:	00341100 	eorseq	r1, r4, r0, lsl #2
      d8:	17021331 	smladxne	r2, r1, r3, r1
      dc:	001742b7 			; <UNDEFINED> instruction: 0x001742b7
      e0:	00341200 	eorseq	r1, r4, r0, lsl #4
      e4:	0b1c1331 	bleq	704db0 <__bss_end__+0x6fb330>
      e8:	0b130000 	bleq	4c00f0 <__bss_end__+0x4b6670>
      ec:	55133101 	ldrpl	r3, [r3, #-257]	; 0xfffffeff
      f0:	00130117 	andseq	r0, r3, r7, lsl r1
      f4:	010b1400 	tsteq	fp, r0, lsl #8
      f8:	17551331 	smmlarne	r5, r1, r3, r1
      fc:	1d150000 	ldcne	0, cr0, [r5, #-0]
     100:	52133101 	andspl	r3, r3, #1073741824	; 0x40000000
     104:	0b42b801 	bleq	10ae110 <__bss_end__+0x10a4690>
     108:	0b581755 	bleq	1605e64 <__bss_end__+0x15fc3e4>
     10c:	0b570b59 	bleq	15c2e78 <__bss_end__+0x15b93f8>
     110:	0b160000 	bleq	580118 <__bss_end__+0x576698>
     114:	11133101 	tstne	r3, r1, lsl #2
     118:	01061201 	tsteq	r6, r1, lsl #4
     11c:	17000013 	smladne	r0, r3, r0, r0
     120:	01018289 	smlabbeq	r1, r9, r2, r8
     124:	13310111 	teqne	r1, #1073741828	; 0x40000004
     128:	8a180000 	bhi	600130 <__bss_end__+0x5f66b0>
     12c:	02000182 	andeq	r0, r0, #-2147483616	; 0x80000020
     130:	18429118 	stmdane	r2, {r3, r4, r8, ip, pc}^
     134:	89190000 	ldmdbhi	r9, {}	; <UNPREDICTABLE>
     138:	11000182 	smlabbne	r0, r2, r1, r0
     13c:	00133101 	andseq	r3, r3, r1, lsl #2
     140:	82891a00 	addhi	r1, r9, #0, 20
     144:	01110101 	tsteq	r1, r1, lsl #2
     148:	13011331 	movwne	r1, #4913	; 0x1331
     14c:	2e1b0000 	cdpcs	0, 1, cr0, cr11, cr0, {0}
     150:	03193f01 	tsteq	r9, #1, 30
     154:	3b0b3a0e 	blcc	2ce994 <__bss_end__+0x2c4f14>
     158:	270b390b 	strcs	r3, [fp, -fp, lsl #18]
     15c:	010b2019 	tsteq	fp, r9, lsl r0
     160:	1c000013 	stcne	0, cr0, [r0], {19}
     164:	08030005 	stmdaeq	r3, {r0, r2}
     168:	0b3b0b3a 	bleq	ec2e58 <__bss_end__+0xeb93d8>
     16c:	13490b39 	movtne	r0, #39737	; 0x9b39
     170:	051d0000 	ldreq	r0, [sp, #-0]
     174:	3a0e0300 	bcc	380d7c <__bss_end__+0x3772fc>
     178:	390b3b0b 	stmdbcc	fp, {r0, r1, r3, r8, r9, fp, ip, sp}
     17c:	0013490b 	andseq	r4, r3, fp, lsl #18
     180:	00341e00 	eorseq	r1, r4, r0, lsl #28
     184:	0b3a0803 	bleq	e82198 <__bss_end__+0xe78718>
     188:	0b390b3b 	bleq	e42e7c <__bss_end__+0xe393fc>
     18c:	00001349 	andeq	r1, r0, r9, asr #6
     190:	01010b1f 	tsteq	r1, pc, lsl fp
     194:	20000013 	andcs	r0, r0, r3, lsl r0
     198:	0000010b 	andeq	r0, r0, fp, lsl #2
     19c:	03012e21 	movweq	r2, #7713	; 0x1e21
     1a0:	3b0b3a0e 	blcc	2ce9e0 <__bss_end__+0x2c4f60>
     1a4:	270b390b 	strcs	r3, [fp, -fp, lsl #18]
     1a8:	20134919 	andscs	r4, r3, r9, lsl r9
     1ac:	0013010b 	andseq	r0, r3, fp, lsl #2
     1b0:	012e2200 			; <UNDEFINED> instruction: 0x012e2200
     1b4:	01111331 	tsteq	r1, r1, lsr r3
     1b8:	18400612 	stmdane	r0, {r1, r4, r9, sl}^
     1bc:	01194297 			; <UNDEFINED> instruction: 0x01194297
     1c0:	23000013 	movwcs	r0, #19
     1c4:	01018289 	smlabbeq	r1, r9, r2, r8
     1c8:	42950111 	addsmi	r0, r5, #1073741828	; 0x40000004
     1cc:	00133119 	andseq	r3, r3, r9, lsl r1
     1d0:	002e2400 	eoreq	r2, lr, r0, lsl #8
     1d4:	193c193f 	ldmdbne	ip!, {r0, r1, r2, r3, r4, r5, r8, fp, ip}
     1d8:	0e030e6e 	cdpeq	14, 0, cr0, cr3, cr14, {3}
     1dc:	0b3b0b3a 	bleq	ec2ecc <__bss_end__+0xeb944c>
     1e0:	00000b39 	andeq	r0, r0, r9, lsr fp
     1e4:	00490100 	subeq	r0, r9, r0, lsl #2
     1e8:	187e1802 	ldmdane	lr!, {r1, fp, ip}^
     1ec:	05020000 	streq	r0, [r2, #-0]
     1f0:	02133100 	andseq	r3, r3, #0
     1f4:	1742b717 	smlaldne	fp, r2, r7, r7
     1f8:	24030000 	strcs	r0, [r3], #-0
     1fc:	3e0b0b00 	vmlacc.f64	d0, d11, d0
     200:	000e030b 	andeq	r0, lr, fp, lsl #6
     204:	00340400 	eorseq	r0, r4, r0, lsl #8
     208:	00001331 	andeq	r1, r0, r1, lsr r3
     20c:	31003405 	tstcc	r0, r5, lsl #8
     210:	b7170213 			; <UNDEFINED> instruction: 0xb7170213
     214:	00001742 	andeq	r1, r0, r2, asr #14
     218:	03002806 	movweq	r2, #2054	; 0x806
     21c:	000b1c0e 	andeq	r1, fp, lr, lsl #24
     220:	01480700 	cmpeq	r8, r0, lsl #14
     224:	0182017d 	orreq	r0, r2, sp, ror r1
     228:	00137f19 	andseq	r7, r3, r9, lsl pc
     22c:	00050800 	andeq	r0, r5, r0, lsl #16
     230:	213a0803 	teqcs	sl, r3, lsl #16
     234:	390b3b01 	stmdbcc	fp, {r0, r8, r9, fp, ip, sp}
     238:	0213490b 	andseq	r4, r3, #180224	; 0x2c000
     23c:	1742b717 	smlaldne	fp, r2, r7, r7
     240:	1d090000 	stcne	0, cr0, [r9, #-0]
     244:	52133101 	andspl	r3, r3, #1073741824	; 0x40000000
     248:	0b42b801 	bleq	10ae254 <__bss_end__+0x10a47d4>
     24c:	21581755 	cmpcs	r8, r5, asr r7
     250:	570b5901 	strpl	r5, [fp, -r1, lsl #18]
     254:	0a00000b 	beq	288 <__code_start__-0x7d78>
     258:	1755010b 	ldrbne	r0, [r5, -fp, lsl #2]
     25c:	050b0000 	streq	r0, [fp, #-0]
     260:	1c133100 	ldfnes	f3, [r3], {-0}
     264:	0c00000b 	stceq	0, cr0, [r0], {11}
     268:	08030005 	stmdaeq	r3, {r0, r2}
     26c:	0b3b0b3a 	bleq	ec2f5c <__bss_end__+0xeb94dc>
     270:	13490b39 	movtne	r0, #39737	; 0x9b39
     274:	340d0000 	strcc	r0, [sp], #-0
     278:	3a0e0300 	bcc	380e80 <__bss_end__+0x377400>
     27c:	0b3b0121 	bleq	ec0708 <__bss_end__+0xeb6c88>
     280:	49172139 	ldmdbmi	r7, {r0, r3, r4, r5, r8, sp}
     284:	00061c13 	andeq	r1, r6, r3, lsl ip
     288:	00050e00 	andeq	r0, r5, r0, lsl #28
     28c:	00001349 	andeq	r1, r0, r9, asr #6
     290:	3f012e0f 	svccc	0x00012e0f
     294:	3a0e0319 	bcc	380f00 <__bss_end__+0x377480>
     298:	0b3b0121 	bleq	ec0724 <__bss_end__+0xeb6ca4>
     29c:	27062139 	smladxcs	r6, r9, r1, r2
     2a0:	12011119 	andne	r1, r1, #1073741830	; 0x40000006
     2a4:	7a184006 	bvc	6102c4 <__bss_end__+0x606844>
     2a8:	00130119 	andseq	r0, r3, r9, lsl r1
     2ac:	01481000 	mrseq	r1, (UNDEF: 72)
     2b0:	137f017d 	cmnne	pc, #1073741855	; 0x4000001f
     2b4:	00001301 	andeq	r1, r0, r1, lsl #6
     2b8:	3f012e11 	svccc	0x00012e11
     2bc:	3a0e0319 	bcc	380f28 <__bss_end__+0x3774a8>
     2c0:	0b3b0121 	bleq	ec074c <__bss_end__+0xeb6ccc>
     2c4:	19270b39 	stmdbne	r7!, {r0, r3, r4, r5, r8, r9, fp}
     2c8:	13010b20 	movwne	r0, #6944	; 0x1b20
     2cc:	34120000 	ldrcc	r0, [r2], #-0
     2d0:	3a080300 	bcc	200ed8 <__bss_end__+0x1f7458>
     2d4:	0b3b0121 	bleq	ec0760 <__bss_end__+0xeb6ce0>
     2d8:	490e2139 	stmdbmi	lr, {r0, r3, r4, r5, r8, sp}
     2dc:	13000013 	movwne	r0, #19
     2e0:	0e030016 	mcreq	0, 0, r0, cr3, cr6, {0}
     2e4:	0b3b0b3a 	bleq	ec2fd4 <__bss_end__+0xeb9554>
     2e8:	13490b39 	movtne	r0, #39737	; 0x9b39
     2ec:	2e140000 	cdpcs	0, 1, cr0, cr4, cr0, {0}
     2f0:	11133101 	tstne	r3, r1, lsl #2
     2f4:	40061201 	andmi	r1, r6, r1, lsl #4
     2f8:	01197a18 	tsteq	r9, r8, lsl sl
     2fc:	15000013 	strne	r0, [r0, #-19]	; 0xffffffed
     300:	0e250111 	mcreq	1, 1, r0, cr5, cr1, {0}
     304:	0e030b13 	vmoveq.32	d3[0], r0
     308:	01110e1b 	tsteq	r1, fp, lsl lr
     30c:	17100612 			; <UNDEFINED> instruction: 0x17100612
     310:	24160000 	ldrcs	r0, [r6], #-0
     314:	3e0b0b00 	vmlacc.f64	d0, d11, d0
     318:	0008030b 	andeq	r0, r8, fp, lsl #6
     31c:	00261700 	eoreq	r1, r6, r0, lsl #14
     320:	00001349 	andeq	r1, r0, r9, asr #6
     324:	3e010418 	cfmvdlrcc	mvd1, r0
     328:	490b0b0b 	stmdbmi	fp, {r0, r1, r3, r8, r9, fp}
     32c:	3b0b3a13 	blcc	2ceb80 <__bss_end__+0x2c5100>
     330:	010b390b 	tsteq	fp, fp, lsl #18
     334:	19000013 	stmdbne	r0, {r0, r1, r4}
     338:	193f012e 	ldmdbne	pc!, {r1, r2, r3, r5, r8}	; <UNPREDICTABLE>
     33c:	0b3a0e03 	bleq	e83b50 <__bss_end__+0xe7a0d0>
     340:	0b390b3b 	bleq	e43034 <__bss_end__+0xe395b4>
     344:	193c1927 	ldmdbne	ip!, {r0, r1, r2, r5, r8, fp, ip}
     348:	00001301 	andeq	r1, r0, r1, lsl #6
     34c:	3f012e1a 	svccc	0x00012e1a
     350:	3a0e0319 	bcc	380fbc <__bss_end__+0x37753c>
     354:	390b3b0b 	stmdbcc	fp, {r0, r1, r3, r8, r9, fp, ip, sp}
     358:	4919270b 	ldmdbmi	r9, {r0, r1, r3, r8, r9, sl, sp}
     35c:	01193c13 	tsteq	r9, r3, lsl ip
     360:	1b000013 	blne	3b4 <__code_start__-0x7c4c>
     364:	193f012e 	ldmdbne	pc!, {r1, r2, r3, r5, r8}	; <UNPREDICTABLE>
     368:	0b3a0e03 	bleq	e83b7c <__bss_end__+0xe7a0fc>
     36c:	0b390b3b 	bleq	e43060 <__bss_end__+0xe395e0>
     370:	13491927 	movtne	r1, #39207	; 0x9927
     374:	06120111 			; <UNDEFINED> instruction: 0x06120111
     378:	197a1840 	ldmdbne	sl!, {r6, fp, ip}^
     37c:	00001301 	andeq	r1, r0, r1, lsl #6
     380:	0300341c 	movweq	r3, #1052	; 0x41c
     384:	3b0b3a0e 	blcc	2cebc4 <__bss_end__+0x2c5144>
     388:	490b390b 	stmdbmi	fp, {r0, r1, r3, r8, fp, ip, sp}
     38c:	b7170213 			; <UNDEFINED> instruction: 0xb7170213
     390:	00001742 	andeq	r1, r0, r2, asr #14
     394:	0300341d 	movweq	r3, #1053	; 0x41d
     398:	3b0b3a08 	blcc	2cebc0 <__bss_end__+0x2c5140>
     39c:	490b390b 	stmdbmi	fp, {r0, r1, r3, r8, fp, ip, sp}
     3a0:	b7170213 			; <UNDEFINED> instruction: 0xb7170213
     3a4:	00001742 	andeq	r1, r0, r2, asr #14
     3a8:	7d01481e 	stcvc	8, cr4, [r1, #-120]	; 0xffffff88
     3ac:	00137f01 	andseq	r7, r3, r1, lsl #30
     3b0:	011d1f00 	tsteq	sp, r0, lsl #30
     3b4:	01521331 	cmpeq	r2, r1, lsr r3
     3b8:	550b42b8 	strpl	r4, [fp, #-696]	; 0xfffffd48
     3bc:	590b5817 	stmdbpl	fp, {r0, r1, r2, r4, fp, ip, lr}
     3c0:	010b570b 	tsteq	fp, fp, lsl #14
     3c4:	20000013 	andcs	r0, r0, r3, lsl r0
     3c8:	1331011d 	teqne	r1, #1073741831	; 0x40000007
     3cc:	42b80152 	adcsmi	r0, r8, #-2147483628	; 0x80000014
     3d0:	1201110b 	andne	r1, r1, #-1073741822	; 0xc0000002
     3d4:	590b5806 	stmdbpl	fp, {r1, r2, fp, ip, lr}
     3d8:	000b570b 	andeq	r5, fp, fp, lsl #14
     3dc:	00052100 	andeq	r2, r5, r0, lsl #2
     3e0:	0b3a0e03 	bleq	e83bf4 <__bss_end__+0xe7a174>
     3e4:	0b390b3b 	bleq	e430d8 <__bss_end__+0xe39658>
     3e8:	00001349 	andeq	r1, r0, r9, asr #6
     3ec:	03012e22 	movweq	r2, #7714	; 0x1e22
     3f0:	3b0b3a0e 	blcc	2cec30 <__bss_end__+0x2c51b0>
     3f4:	270b390b 	strcs	r3, [fp, -fp, lsl #18]
     3f8:	20134919 	andscs	r4, r3, r9, lsl r9
     3fc:	0013010b 	andseq	r0, r3, fp, lsl #2
     400:	012e2300 			; <UNDEFINED> instruction: 0x012e2300
     404:	01111331 	tsteq	r1, r1, lsr r3
     408:	18400612 	stmdane	r0, {r1, r4, r9, sl}^
     40c:	0000197a 	andeq	r1, r0, sl, ror r9
     410:	01110100 	tsteq	r1, r0, lsl #2
     414:	0b130e25 	bleq	4c3cb0 <__bss_end__+0x4ba230>
     418:	0e1b0e03 	cdpeq	14, 1, cr0, cr11, cr3, {0}
     41c:	06120111 			; <UNDEFINED> instruction: 0x06120111
     420:	00001710 	andeq	r1, r0, r0, lsl r7
     424:	03001602 	movweq	r1, #1538	; 0x602
     428:	3b0b3a0e 	blcc	2cec68 <__bss_end__+0x2c51e8>
     42c:	490b390b 	stmdbmi	fp, {r0, r1, r3, r8, fp, ip, sp}
     430:	03000013 	movweq	r0, #19
     434:	0e030113 	mcreq	1, 0, r0, cr3, cr3, {0}
     438:	0b3a0b0b 	bleq	e8306c <__bss_end__+0xe795ec>
     43c:	13010b3b 	movwne	r0, #6971	; 0x1b3b
     440:	0d040000 	stceq	0, cr0, [r4, #-0]
     444:	490e0300 	stmdbmi	lr, {r8, r9}
     448:	340b3813 	strcc	r3, [fp], #-2067	; 0xfffff7ed
     44c:	05000019 	streq	r0, [r0, #-25]	; 0xffffffe7
     450:	0b0b000f 	bleq	2c0494 <__bss_end__+0x2b6a14>
     454:	24060000 	strcs	r0, [r6], #-0
     458:	3e0b0b00 	vmlacc.f64	d0, d11, d0
     45c:	0008030b 	andeq	r0, r8, fp, lsl #6
     460:	00240700 	eoreq	r0, r4, r0, lsl #14
     464:	0b3e0b0b 	bleq	f83098 <__bss_end__+0xf79618>
     468:	00000e03 	andeq	r0, r0, r3, lsl #28
     46c:	27011508 	strcs	r1, [r1, -r8, lsl #10]
     470:	01134919 	tsteq	r3, r9, lsl r9
     474:	09000013 	stmdbeq	r0, {r0, r1, r4}
     478:	13490005 	movtne	r0, #36869	; 0x9005
     47c:	340a0000 	strcc	r0, [sl], #-0
     480:	3a0e0300 	bcc	381088 <__bss_end__+0x377608>
     484:	390b3b0b 	stmdbcc	fp, {r0, r1, r3, r8, r9, fp, ip, sp}
     488:	3f13490b 	svccc	0x0013490b
     48c:	00193c19 	andseq	r3, r9, r9, lsl ip
     490:	000f0b00 	andeq	r0, pc, r0, lsl #22
     494:	13490b0b 	movtne	r0, #39691	; 0x9b0b
     498:	260c0000 	strcs	r0, [ip], -r0
     49c:	00134900 	andseq	r4, r3, r0, lsl #18
     4a0:	012e0d00 			; <UNDEFINED> instruction: 0x012e0d00
     4a4:	0e03193f 			; <UNDEFINED> instruction: 0x0e03193f
     4a8:	0b3b0b3a 	bleq	ec3198 <__bss_end__+0xeb9718>
     4ac:	19270b39 	stmdbne	r7!, {r0, r3, r4, r5, r8, r9, fp}
     4b0:	01111349 	tsteq	r1, r9, asr #6
     4b4:	18400612 	stmdane	r0, {r1, r4, r9, sl}^
     4b8:	01194297 			; <UNDEFINED> instruction: 0x01194297
     4bc:	0e000013 	mcreq	0, 0, r0, cr0, cr3, {0}
     4c0:	08030005 	stmdaeq	r3, {r0, r2}
     4c4:	0b3b0b3a 	bleq	ec31b4 <__bss_end__+0xeb9734>
     4c8:	13490b39 	movtne	r0, #39737	; 0x9b39
     4cc:	00001802 	andeq	r1, r0, r2, lsl #16
     4d0:	0000180f 	andeq	r1, r0, pc, lsl #16
     4d4:	00341000 	eorseq	r1, r4, r0
     4d8:	0b3a0803 	bleq	e824ec <__bss_end__+0xe78a6c>
     4dc:	0b390b3b 	bleq	e431d0 <__bss_end__+0xe39750>
     4e0:	18021349 	stmdane	r2, {r0, r3, r6, r8, r9, ip}
     4e4:	34110000 	ldrcc	r0, [r1], #-0
     4e8:	3a0e0300 	bcc	3810f0 <__bss_end__+0x377670>
     4ec:	390b3b0b 	stmdbcc	fp, {r0, r1, r3, r8, r9, fp, ip, sp}
     4f0:	0213490b 	andseq	r4, r3, #180224	; 0x2c000
     4f4:	12000018 	andne	r0, r0, #24, 0
     4f8:	08030034 	stmdaeq	r3, {r2, r4, r5}
     4fc:	0b3b0b3a 	bleq	ec31ec <__bss_end__+0xeb976c>
     500:	13490b39 	movtne	r0, #39737	; 0x9b39
     504:	42b71702 	adcsmi	r1, r7, #524288	; 0x80000
     508:	13000017 	movwne	r0, #23
     50c:	01018289 	smlabbeq	r1, r9, r2, r8
     510:	13310111 	teqne	r1, #1073741828	; 0x40000004
     514:	00001301 	andeq	r1, r0, r1, lsl #6
     518:	01828a14 	orreq	r8, r2, r4, lsl sl
     51c:	91180200 	tstls	r8, r0, lsl #4
     520:	00001842 	andeq	r1, r0, r2, asr #16
     524:	01828915 	orreq	r8, r2, r5, lsl r9
     528:	00011101 	andeq	r1, r1, r1, lsl #2
     52c:	01011600 	tsteq	r1, r0, lsl #12
     530:	13011349 	movwne	r1, #4937	; 0x1349
     534:	21170000 	tstcs	r7, r0
     538:	2f134900 	svccs	0x00134900
     53c:	18000005 	stmdane	r0, {r0, r2}
     540:	193f002e 	ldmdbne	pc!, {r1, r2, r3, r5}	; <UNPREDICTABLE>
     544:	0e6e193c 			; <UNDEFINED> instruction: 0x0e6e193c
     548:	0b3a0e03 	bleq	e83d5c <__bss_end__+0xe7a2dc>
     54c:	0b390b3b 	bleq	e43240 <__bss_end__+0xe397c0>
     550:	01000000 	mrseq	r0, (UNDEF: 0)
     554:	0e250111 	mcreq	1, 1, r0, cr5, cr1, {0}
     558:	0e030b13 	vmoveq.32	d3[0], r0
     55c:	01110e1b 	tsteq	r1, fp, lsl lr
     560:	17100612 			; <UNDEFINED> instruction: 0x17100612
     564:	24020000 	strcs	r0, [r2], #-0
     568:	3e0b0b00 	vmlacc.f64	d0, d11, d0
     56c:	0008030b 	andeq	r0, r8, fp, lsl #6
     570:	00240300 	eoreq	r0, r4, r0, lsl #6
     574:	0b3e0b0b 	bleq	f831a8 <__bss_end__+0xf79728>
     578:	00000e03 	andeq	r0, r0, r3, lsl #28
     57c:	27011504 	strcs	r1, [r1, -r4, lsl #10]
     580:	01134919 	tsteq	r3, r9, lsl r9
     584:	05000013 	streq	r0, [r0, #-19]	; 0xffffffed
     588:	13490005 	movtne	r0, #36869	; 0x9005
     58c:	34060000 	strcc	r0, [r6], #-0
     590:	3a0e0300 	bcc	381198 <__bss_end__+0x377718>
     594:	390b3b0b 	stmdbcc	fp, {r0, r1, r3, r8, r9, fp, ip, sp}
     598:	3f13490b 	svccc	0x0013490b
     59c:	00193c19 	andseq	r3, r9, r9, lsl ip
     5a0:	000f0700 	andeq	r0, pc, r0, lsl #14
     5a4:	13490b0b 	movtne	r0, #39691	; 0x9b0b
     5a8:	26080000 	strcs	r0, [r8], -r0
     5ac:	00134900 	andseq	r4, r3, r0, lsl #18
     5b0:	00340900 	eorseq	r0, r4, r0, lsl #18
     5b4:	0b3a1347 	bleq	e852d8 <__bss_end__+0xe7b858>
     5b8:	0b390b3b 	bleq	e432ac <__bss_end__+0xe3982c>
     5bc:	00001802 	andeq	r1, r0, r2, lsl #16
     5c0:	3f012e0a 	svccc	0x00012e0a
     5c4:	3a0e0319 	bcc	381230 <__bss_end__+0x3777b0>
     5c8:	390b3b0b 	stmdbcc	fp, {r0, r1, r3, r8, r9, fp, ip, sp}
     5cc:	4919270b 	ldmdbmi	r9, {r0, r1, r3, r8, r9, sl, sp}
     5d0:	12011113 	andne	r1, r1, #-1073741820	; 0xc0000004
     5d4:	96184006 	ldrls	r4, [r8], -r6
     5d8:	00001942 	andeq	r1, r0, r2, asr #18
     5dc:	0300050b 	movweq	r0, #1291	; 0x50b
     5e0:	3b0b3a08 	blcc	2cee08 <__bss_end__+0x2c5388>
     5e4:	490b390b 	stmdbmi	fp, {r0, r1, r3, r8, fp, ip, sp}
     5e8:	b7170213 			; <UNDEFINED> instruction: 0xb7170213
     5ec:	00001742 	andeq	r1, r0, r2, asr #14
     5f0:	01110100 	tsteq	r1, r0, lsl #2
     5f4:	0b130e25 	bleq	4c3e90 <__bss_end__+0x4ba410>
     5f8:	0e1b0e03 	cdpeq	14, 1, cr0, cr11, cr3, {0}
     5fc:	06120111 			; <UNDEFINED> instruction: 0x06120111
     600:	00001710 	andeq	r1, r0, r0, lsl r7
     604:	0b002402 	bleq	9614 <__code_end__+0x150>
     608:	030b3e0b 	movweq	r3, #48651	; 0xbe0b
     60c:	0300000e 	movweq	r0, #14
     610:	0b0b0024 	bleq	2c06a8 <__bss_end__+0x2b6c28>
     614:	08030b3e 	stmdaeq	r3, {r1, r2, r3, r4, r5, r8, r9, fp}
     618:	16040000 	strne	r0, [r4], -r0
     61c:	3a0e0300 	bcc	381224 <__bss_end__+0x3777a4>
     620:	390b3b0b 	stmdbcc	fp, {r0, r1, r3, r8, r9, fp, ip, sp}
     624:	0013490b 	andseq	r4, r3, fp, lsl #18
     628:	01150500 	tsteq	r5, r0, lsl #10
     62c:	13491927 	movtne	r1, #39207	; 0x9927
     630:	00001301 	andeq	r1, r0, r1, lsl #6
     634:	49000506 	stmdbmi	r0, {r1, r2, r8, sl}
     638:	07000013 	smladeq	r0, r3, r0, r0
     63c:	0e030034 	mcreq	0, 0, r0, cr3, cr4, {1}
     640:	0b3b0b3a 	bleq	ec3330 <__bss_end__+0xeb98b0>
     644:	13490b39 	movtne	r0, #39737	; 0x9b39
     648:	193c193f 	ldmdbne	ip!, {r0, r1, r2, r3, r4, r5, r8, fp, ip}
     64c:	0f080000 	svceq	0x00080000
     650:	490b0b00 	stmdbmi	fp, {r8, r9, fp}
     654:	09000013 	stmdbeq	r0, {r0, r1, r4}
     658:	13490026 	movtne	r0, #36902	; 0x9026
     65c:	130a0000 	movwne	r0, #40960	; 0xa000
     660:	0b0e0301 	bleq	38126c <__bss_end__+0x3777ec>
     664:	3b0b3a0b 	blcc	2cee98 <__bss_end__+0x2c5418>
     668:	0013010b 	andseq	r0, r3, fp, lsl #2
     66c:	000d0b00 	andeq	r0, sp, r0, lsl #22
     670:	13490e03 	movtne	r0, #40451	; 0x9e03
     674:	19340b38 	ldmdbne	r4!, {r3, r4, r5, r8, r9, fp}
     678:	0f0c0000 	svceq	0x000c0000
     67c:	000b0b00 	andeq	r0, fp, r0, lsl #22
     680:	012e0d00 			; <UNDEFINED> instruction: 0x012e0d00
     684:	0e03193f 			; <UNDEFINED> instruction: 0x0e03193f
     688:	0b3b0b3a 	bleq	ec3378 <__bss_end__+0xeb98f8>
     68c:	19270b39 	stmdbne	r7!, {r0, r3, r4, r5, r8, r9, fp}
     690:	01111349 	tsteq	r1, r9, asr #6
     694:	18400612 	stmdane	r0, {r1, r4, r9, sl}^
     698:	01194297 			; <UNDEFINED> instruction: 0x01194297
     69c:	0e000013 	mcreq	0, 0, r0, cr0, cr3, {0}
     6a0:	08030005 	stmdaeq	r3, {r0, r2}
     6a4:	0b3b0b3a 	bleq	ec3394 <__bss_end__+0xeb9914>
     6a8:	13490b39 	movtne	r0, #39737	; 0x9b39
     6ac:	42b71702 	adcsmi	r1, r7, #524288	; 0x80000
     6b0:	0f000017 	svceq	0x00000017
     6b4:	0e030005 	cdpeq	0, 0, cr0, cr3, cr5, {0}
     6b8:	0b3b0b3a 	bleq	ec33a8 <__bss_end__+0xeb9928>
     6bc:	13490b39 	movtne	r0, #39737	; 0x9b39
     6c0:	42b71702 	adcsmi	r1, r7, #524288	; 0x80000
     6c4:	10000017 	andne	r0, r0, r7, lsl r0
     6c8:	08030034 	stmdaeq	r3, {r2, r4, r5}
     6cc:	0b3b0b3a 	bleq	ec33bc <__bss_end__+0xeb993c>
     6d0:	13490b39 	movtne	r0, #39737	; 0x9b39
     6d4:	42b71702 	adcsmi	r1, r7, #524288	; 0x80000
     6d8:	11000017 	tstne	r0, r7, lsl r0
     6dc:	0e030034 	mcreq	0, 0, r0, cr3, cr4, {1}
     6e0:	0b3b0b3a 	bleq	ec33d0 <__bss_end__+0xeb9950>
     6e4:	13490b39 	movtne	r0, #39737	; 0x9b39
     6e8:	42b71702 	adcsmi	r1, r7, #524288	; 0x80000
     6ec:	12000017 	andne	r0, r0, #23, 0
     6f0:	0e030034 	mcreq	0, 0, r0, cr3, cr4, {1}
     6f4:	19341349 	ldmdbne	r4!, {r0, r3, r6, r8, r9, ip}
     6f8:	00001802 	andeq	r1, r0, r2, lsl #16
     6fc:	55010b13 	strpl	r0, [r1, #-2835]	; 0xfffff4ed
     700:	14000017 	strne	r0, [r0], #-23	; 0xffffffe9
     704:	08030034 	stmdaeq	r3, {r2, r4, r5}
     708:	0b3b0b3a 	bleq	ec33f8 <__bss_end__+0xeb9978>
     70c:	13490b39 	movtne	r0, #39737	; 0x9b39
     710:	00001802 	andeq	r1, r0, r2, lsl #16
     714:	03003415 	movweq	r3, #1045	; 0x415
     718:	3b0b3a0e 	blcc	2cef58 <__bss_end__+0x2c54d8>
     71c:	490b390b 	stmdbmi	fp, {r0, r1, r3, r8, fp, ip, sp}
     720:	00180213 	andseq	r0, r8, r3, lsl r2
     724:	010b1600 	tsteq	fp, r0, lsl #12
     728:	13011755 	movwne	r1, #5973	; 0x1755
     72c:	89170000 	ldmdbhi	r7, {}	; <UNPREDICTABLE>
     730:	11010182 	smlabbne	r1, r2, r1, r0
     734:	01133101 	tsteq	r3, r1, lsl #2
     738:	18000013 	stmdane	r0, {r0, r1, r4}
     73c:	0001828a 	andeq	r8, r1, sl, lsl #5
     740:	42911802 	addsmi	r1, r1, #131072	; 0x20000
     744:	19000018 	stmdbne	r0, {r3, r4}
     748:	00018289 	andeq	r8, r1, r9, lsl #5
     74c:	13310111 	teqne	r1, #1073741828	; 0x40000004
     750:	1d1a0000 	ldcne	0, cr0, [sl, #-0]
     754:	52133101 	andspl	r3, r3, #1073741824	; 0x40000000
     758:	0542b801 	strbeq	fp, [r2, #-2049]	; 0xfffff7ff
     75c:	0b581755 	bleq	16064b8 <__bss_end__+0x15fca38>
     760:	0b570b59 	bleq	15c34cc <__bss_end__+0x15b9a4c>
     764:	00001301 	andeq	r1, r0, r1, lsl #6
     768:	3100051b 	tstcc	r0, fp, lsl r5
     76c:	b7170213 			; <UNDEFINED> instruction: 0xb7170213
     770:	00001742 	andeq	r1, r0, r2, asr #14
     774:	3100051c 	tstcc	r0, ip, lsl r5
     778:	1d000013 	stcne	0, cr0, [r0, #-76]	; 0xffffffb4
     77c:	13310034 	teqne	r1, #52, 0	; 0x34
     780:	00001802 	andeq	r1, r0, r2, lsl #16
     784:	3100341e 	tstcc	r0, lr, lsl r4
     788:	b7170213 			; <UNDEFINED> instruction: 0xb7170213
     78c:	00001742 	andeq	r1, r0, r2, asr #14
     790:	3100341f 	tstcc	r0, pc, lsl r4
     794:	20000013 	andcs	r0, r0, r3, lsl r0
     798:	1331011d 	teqne	r1, #1073741831	; 0x40000007
     79c:	42b80152 	adcsmi	r0, r8, #-2147483628	; 0x80000014
     7a0:	58175505 	ldmdapl	r7, {r0, r2, r8, sl, ip, lr}
     7a4:	570b590b 	strpl	r5, [fp, -fp, lsl #18]
     7a8:	2100000b 	tstcs	r0, fp
     7ac:	01018289 	smlabbeq	r1, r9, r2, r8
     7b0:	13010111 	movwne	r0, #4369	; 0x1111
     7b4:	01220000 			; <UNDEFINED> instruction: 0x01220000
     7b8:	01134901 	tsteq	r3, r1, lsl #18
     7bc:	23000013 	movwcs	r0, #19
     7c0:	13490021 	movtne	r0, #36897	; 0x9021
     7c4:	00000b2f 	andeq	r0, r0, pc, lsr #22
     7c8:	03012e24 	movweq	r2, #7716	; 0x1e24
     7cc:	3b0b3a0e 	blcc	2cf00c <__bss_end__+0x2c558c>
     7d0:	270b390b 	strcs	r3, [fp, -fp, lsl #18]
     7d4:	20134919 	andscs	r4, r3, r9, lsl r9
     7d8:	0013010b 	andseq	r0, r3, fp, lsl #2
     7dc:	00052500 	andeq	r2, r5, r0, lsl #10
     7e0:	0b3a0e03 	bleq	e83ff4 <__bss_end__+0xe7a574>
     7e4:	0b390b3b 	bleq	e434d8 <__bss_end__+0xe39a58>
     7e8:	00001349 	andeq	r1, r0, r9, asr #6
     7ec:	03000526 	movweq	r0, #1318	; 0x526
     7f0:	3b0b3a08 	blcc	2cf018 <__bss_end__+0x2c5598>
     7f4:	490b390b 	stmdbmi	fp, {r0, r1, r3, r8, fp, ip, sp}
     7f8:	27000013 	smladcs	r0, r3, r0, r0
     7fc:	08030034 	stmdaeq	r3, {r2, r4, r5}
     800:	0b3b0b3a 	bleq	ec34f0 <__bss_end__+0xeb9a70>
     804:	13490b39 	movtne	r0, #39737	; 0x9b39
     808:	0b280000 	bleq	a00810 <__bss_end__+0x9f6d90>
     80c:	29000001 	stmdbcs	r0, {r0}
     810:	0e030034 	mcreq	0, 0, r0, cr3, cr4, {1}
     814:	0b3b0b3a 	bleq	ec3504 <__bss_end__+0xeb9a84>
     818:	13490b39 	movtne	r0, #39737	; 0x9b39
     81c:	2e2a0000 	cdpcs	0, 2, cr0, cr10, cr0, {0}
     820:	3a080301 	bcc	20142c <__bss_end__+0x1f79ac>
     824:	390b3b0b 	stmdbcc	fp, {r0, r1, r3, r8, r9, fp, ip, sp}
     828:	4919270b 	ldmdbmi	r9, {r0, r1, r3, r8, r9, sl, sp}
     82c:	010b2013 	tsteq	fp, r3, lsl r0
     830:	2b000013 	blcs	884 <__code_start__-0x777c>
     834:	193f012e 	ldmdbne	pc!, {r1, r2, r3, r5, r8}	; <UNPREDICTABLE>
     838:	0b3a0e03 	bleq	e8404c <__bss_end__+0xe7a5cc>
     83c:	0b390b3b 	bleq	e43530 <__bss_end__+0xe39ab0>
     840:	01111927 	tsteq	r1, r7, lsr #18
     844:	18400612 	stmdane	r0, {r1, r4, r9, sl}^
     848:	01194297 			; <UNDEFINED> instruction: 0x01194297
     84c:	2c000013 	stccs	0, cr0, [r0], {19}
     850:	1331012e 	teqne	r1, #-2147483637	; 0x8000000b
     854:	06120111 			; <UNDEFINED> instruction: 0x06120111
     858:	42971840 	addsmi	r1, r7, #64, 16	; 0x400000
     85c:	00130119 	andseq	r0, r3, r9, lsl r1
     860:	00052d00 	andeq	r2, r5, r0, lsl #26
     864:	18021331 	stmdane	r2, {r0, r4, r5, r8, r9, ip}
     868:	052e0000 	streq	r0, [lr, #-0]!
     86c:	1c133100 	ldfnes	f3, [r3], {-0}
     870:	2f00000b 	svccs	0x0000000b
     874:	1331010b 	teqne	r1, #-1073741822	; 0xc0000002
     878:	06120111 			; <UNDEFINED> instruction: 0x06120111
     87c:	00001301 	andeq	r1, r0, r1, lsl #6
     880:	3f002e30 	svccc	0x00002e30
     884:	6e193c19 	mrcvs	12, 0, r3, cr9, cr9, {0}
     888:	3a0e030e 	bcc	3814c8 <__bss_end__+0x377a48>
     88c:	390b3b0b 	stmdbcc	fp, {r0, r1, r3, r8, r9, fp, ip, sp}
     890:	0000000b 	andeq	r0, r0, fp
     894:	25011101 	strcs	r1, [r1, #-257]	; 0xfffffeff
     898:	030b130e 	movweq	r1, #45838	; 0xb30e
     89c:	550e1b0e 	strpl	r1, [lr, #-2830]	; 0xfffff4f2
     8a0:	10011117 	andne	r1, r1, r7, lsl r1
     8a4:	02000017 	andeq	r0, r0, #23, 0
     8a8:	0b0b0024 	bleq	2c0940 <__bss_end__+0x2b6ec0>
     8ac:	08030b3e 	stmdaeq	r3, {r1, r2, r3, r4, r5, r8, r9, fp}
     8b0:	24030000 	strcs	r0, [r3], #-0
     8b4:	3e0b0b00 	vmlacc.f64	d0, d11, d0
     8b8:	000e030b 	andeq	r0, lr, fp, lsl #6
     8bc:	01150400 	tsteq	r5, r0, lsl #8
     8c0:	13491927 	movtne	r1, #39207	; 0x9927
     8c4:	00001301 	andeq	r1, r0, r1, lsl #6
     8c8:	49000505 	stmdbmi	r0, {r0, r2, r8, sl}
     8cc:	06000013 			; <UNDEFINED> instruction: 0x06000013
     8d0:	0e030034 	mcreq	0, 0, r0, cr3, cr4, {1}
     8d4:	0b3b0b3a 	bleq	ec35c4 <__bss_end__+0xeb9b44>
     8d8:	13490b39 	movtne	r0, #39737	; 0x9b39
     8dc:	193c193f 	ldmdbne	ip!, {r0, r1, r2, r3, r4, r5, r8, fp, ip}
     8e0:	0f070000 	svceq	0x00070000
     8e4:	490b0b00 	stmdbmi	fp, {r8, r9, fp}
     8e8:	08000013 	stmdaeq	r0, {r0, r1, r4}
     8ec:	13490026 	movtne	r0, #36902	; 0x9026
     8f0:	2e090000 	cdpcs	0, 0, cr0, cr9, cr0, {0}
     8f4:	03193f01 	tsteq	r9, #1, 30
     8f8:	3b0b3a0e 	blcc	2cf138 <__bss_end__+0x2c56b8>
     8fc:	270b390b 	strcs	r3, [fp, -fp, lsl #18]
     900:	12011119 	andne	r1, r1, #1073741830	; 0x40000006
     904:	97184006 	ldrls	r4, [r8, -r6]
     908:	13011942 	movwne	r1, #6466	; 0x1942
     90c:	340a0000 	strcc	r0, [sl], #-0
     910:	3a080300 	bcc	201518 <__bss_end__+0x1f7a98>
     914:	390b3b0b 	stmdbcc	fp, {r0, r1, r3, r8, r9, fp, ip, sp}
     918:	0213490b 	andseq	r4, r3, #180224	; 0x2c000
     91c:	1742b717 	smlaldne	fp, r2, r7, r7
     920:	2e0b0000 	cdpcs	0, 0, cr0, cr11, cr0, {0}
     924:	03193f01 	tsteq	r9, #1, 30
     928:	3b0b3a0e 	blcc	2cf168 <__bss_end__+0x2c56e8>
     92c:	270b390b 	strcs	r3, [fp, -fp, lsl #18]
     930:	12011119 	andne	r1, r1, #1073741830	; 0x40000006
     934:	97184006 	ldrls	r4, [r8, -r6]
     938:	00001942 	andeq	r1, r0, r2, asr #18
     93c:	01110100 	tsteq	r1, r0, lsl #2
     940:	0b130e25 	bleq	4c41dc <__bss_end__+0x4ba75c>
     944:	0e1b0e03 	cdpeq	14, 1, cr0, cr11, cr3, {0}
     948:	06120111 			; <UNDEFINED> instruction: 0x06120111
     94c:	00001710 	andeq	r1, r0, r0, lsl r7
     950:	0b002402 	bleq	9960 <__data_end__+0x2e4>
     954:	030b3e0b 	movweq	r3, #48651	; 0xbe0b
     958:	03000008 	movweq	r0, #8
     95c:	0b0b0024 	bleq	2c09f4 <__bss_end__+0x2b6f74>
     960:	0e030b3e 	vmoveq.16	d3[0], r0
     964:	15040000 	strne	r0, [r4, #-0]
     968:	49192701 	ldmdbmi	r9, {r0, r8, r9, sl, sp}
     96c:	00130113 	andseq	r0, r3, r3, lsl r1
     970:	00050500 	andeq	r0, r5, r0, lsl #10
     974:	00001349 	andeq	r1, r0, r9, asr #6
     978:	03003406 	movweq	r3, #1030	; 0x406
     97c:	3b0b3a0e 	blcc	2cf1bc <__bss_end__+0x2c573c>
     980:	490b390b 	stmdbmi	fp, {r0, r1, r3, r8, fp, ip, sp}
     984:	3c193f13 	ldccc	15, cr3, [r9], {19}
     988:	07000019 	smladeq	r0, r9, r0, r0
     98c:	0b0b000f 	bleq	2c09d0 <__bss_end__+0x2b6f50>
     990:	00001349 	andeq	r1, r0, r9, asr #6
     994:	49002608 	stmdbmi	r0, {r3, r9, sl, sp}
     998:	09000013 	stmdbeq	r0, {r0, r1, r4}
     99c:	193f012e 	ldmdbne	pc!, {r1, r2, r3, r5, r8}	; <UNPREDICTABLE>
     9a0:	0b3a0e03 	bleq	e841b4 <__bss_end__+0xe7a734>
     9a4:	0b390b3b 	bleq	e43698 <__bss_end__+0xe39c18>
     9a8:	01871927 	orreq	r1, r7, r7, lsr #18
     9ac:	12011119 	andne	r1, r1, #1073741830	; 0x40000006
     9b0:	97184006 	ldrls	r4, [r8, -r6]
     9b4:	13011942 	movwne	r1, #6466	; 0x1942
     9b8:	890a0000 	stmdbhi	sl, {}	; <UNPREDICTABLE>
     9bc:	11010182 	smlabbne	r1, r2, r1, r0
     9c0:	00130101 	andseq	r0, r3, r1, lsl #2
     9c4:	828a0b00 	addhi	r0, sl, #0, 22
     9c8:	18020001 	stmdane	r2, {r0}
     9cc:	00184291 	mulseq	r8, r1, r2
     9d0:	82890c00 	addhi	r0, r9, #0, 24
     9d4:	01110001 	tsteq	r1, r1
     9d8:	00001331 	andeq	r1, r0, r1, lsr r3
     9dc:	0182890d 	orreq	r8, r2, sp, lsl #18
     9e0:	31011101 	tstcc	r1, r1, lsl #2
     9e4:	00130113 	andseq	r0, r3, r3, lsl r1
     9e8:	002e0e00 	eoreq	r0, lr, r0, lsl #28
     9ec:	193c193f 	ldmdbne	ip!, {r0, r1, r2, r3, r4, r5, r8, fp, ip}
     9f0:	0e030e6e 	cdpeq	14, 0, cr0, cr3, cr14, {3}
     9f4:	0b3b0b3a 	bleq	ec36e4 <__bss_end__+0xeb9c64>
     9f8:	00000b39 	andeq	r0, r0, r9, lsr fp
     9fc:	01110100 	tsteq	r1, r0, lsl #2
     a00:	0b130e25 	bleq	4c429c <__bss_end__+0x4ba81c>
     a04:	0e1b0e03 	cdpeq	14, 1, cr0, cr11, cr3, {0}
     a08:	06120111 			; <UNDEFINED> instruction: 0x06120111
     a0c:	00001710 	andeq	r1, r0, r0, lsl r7
     a10:	0b002402 	bleq	9a20 <__data_end__+0x3a4>
     a14:	030b3e0b 	movweq	r3, #48651	; 0xbe0b
     a18:	03000008 	movweq	r0, #8
     a1c:	0b0b0024 	bleq	2c0ab4 <__bss_end__+0x2b7034>
     a20:	0e030b3e 	vmoveq.16	d3[0], r0
     a24:	15040000 	strne	r0, [r4, #-0]
     a28:	49192701 	ldmdbmi	r9, {r0, r8, r9, sl, sp}
     a2c:	00130113 	andseq	r0, r3, r3, lsl r1
     a30:	00050500 	andeq	r0, r5, r0, lsl #10
     a34:	00001349 	andeq	r1, r0, r9, asr #6
     a38:	03003406 	movweq	r3, #1030	; 0x406
     a3c:	3b0b3a0e 	blcc	2cf27c <__bss_end__+0x2c57fc>
     a40:	490b390b 	stmdbmi	fp, {r0, r1, r3, r8, fp, ip, sp}
     a44:	3c193f13 	ldccc	15, cr3, [r9], {19}
     a48:	07000019 	smladeq	r0, r9, r0, r0
     a4c:	0b0b000f 	bleq	2c0a90 <__bss_end__+0x2b7010>
     a50:	00001349 	andeq	r1, r0, r9, asr #6
     a54:	49002608 	stmdbmi	r0, {r3, r9, sl, sp}
     a58:	09000013 	stmdbeq	r0, {r0, r1, r4}
     a5c:	193f012e 	ldmdbne	pc!, {r1, r2, r3, r5, r8}	; <UNPREDICTABLE>
     a60:	0b3a0e03 	bleq	e84274 <__bss_end__+0xe7a7f4>
     a64:	0b390b3b 	bleq	e43758 <__bss_end__+0xe39cd8>
     a68:	06120111 			; <UNDEFINED> instruction: 0x06120111
     a6c:	42971840 	addsmi	r1, r7, #64, 16	; 0x400000
     a70:	00130119 	andseq	r0, r3, r9, lsl r1
     a74:	002e0a00 	eoreq	r0, lr, r0, lsl #20
     a78:	0e03193f 			; <UNDEFINED> instruction: 0x0e03193f
     a7c:	0b3b0b3a 	bleq	ec376c <__bss_end__+0xeb9cec>
     a80:	19270b39 	stmdbne	r7!, {r0, r3, r4, r5, r8, r9, fp}
     a84:	0000193c 	andeq	r1, r0, ip, lsr r9
     a88:	0300340b 	movweq	r3, #1035	; 0x40b
     a8c:	3b0b3a08 	blcc	2cf2b4 <__bss_end__+0x2c5834>
     a90:	490b390b 	stmdbmi	fp, {r0, r1, r3, r8, fp, ip, sp}
     a94:	b7170213 			; <UNDEFINED> instruction: 0xb7170213
     a98:	00001742 	andeq	r1, r0, r2, asr #14
     a9c:	0300340c 	movweq	r3, #1036	; 0x40c
     aa0:	3b0b3a0e 	blcc	2cf2e0 <__bss_end__+0x2c5860>
     aa4:	490b390b 	stmdbmi	fp, {r0, r1, r3, r8, fp, ip, sp}
     aa8:	0d000013 	stceq	0, cr0, [r0, #-76]	; 0xffffffb4
     aac:	0111010b 	tsteq	r1, fp, lsl #2
     ab0:	13010612 	movwne	r0, #5650	; 0x1612
     ab4:	890e0000 	stmdbhi	lr, {}	; <UNPREDICTABLE>
     ab8:	11000182 	smlabbne	r0, r2, r1, r0
     abc:	00133101 	andseq	r3, r3, r1, lsl #2
     ac0:	002e0f00 	eoreq	r0, lr, r0, lsl #30
     ac4:	193c193f 	ldmdbne	ip!, {r0, r1, r2, r3, r4, r5, r8, fp, ip}
     ac8:	0e030e6e 	cdpeq	14, 0, cr0, cr3, cr14, {3}
     acc:	053b0b3a 	ldreq	r0, [fp, #-2874]!	; 0xfffff4c6
     ad0:	00000b39 	andeq	r0, r0, r9, lsr fp
     ad4:	3f002e10 	svccc	0x00002e10
     ad8:	6e193c19 	mrcvs	12, 0, r3, cr9, cr9, {0}
     adc:	3a0e030e 	bcc	38171c <__bss_end__+0x377c9c>
     ae0:	390b3b0b 	stmdbcc	fp, {r0, r1, r3, r8, r9, fp, ip, sp}
     ae4:	0000000b 	andeq	r0, r0, fp
     ae8:	25011101 	strcs	r1, [r1, #-257]	; 0xfffffeff
     aec:	030b130e 	movweq	r1, #45838	; 0xb30e
     af0:	110e1b0e 	tstne	lr, lr, lsl #22
     af4:	10061201 	andne	r1, r6, r1, lsl #4
     af8:	02000017 	andeq	r0, r0, #23, 0
     afc:	0b0b0024 	bleq	2c0b94 <__bss_end__+0x2b7114>
     b00:	08030b3e 	stmdaeq	r3, {r1, r2, r3, r4, r5, r8, r9, fp}
     b04:	24030000 	strcs	r0, [r3], #-0
     b08:	3e0b0b00 	vmlacc.f64	d0, d11, d0
     b0c:	000e030b 	andeq	r0, lr, fp, lsl #6
     b10:	01150400 	tsteq	r5, r0, lsl #8
     b14:	13491927 	movtne	r1, #39207	; 0x9927
     b18:	00001301 	andeq	r1, r0, r1, lsl #6
     b1c:	49000505 	stmdbmi	r0, {r0, r2, r8, sl}
     b20:	06000013 			; <UNDEFINED> instruction: 0x06000013
     b24:	0e030034 	mcreq	0, 0, r0, cr3, cr4, {1}
     b28:	0b3b0b3a 	bleq	ec3818 <__bss_end__+0xeb9d98>
     b2c:	13490b39 	movtne	r0, #39737	; 0x9b39
     b30:	193c193f 	ldmdbne	ip!, {r0, r1, r2, r3, r4, r5, r8, fp, ip}
     b34:	0f070000 	svceq	0x00070000
     b38:	490b0b00 	stmdbmi	fp, {r8, r9, fp}
     b3c:	08000013 	stmdaeq	r0, {r0, r1, r4}
     b40:	13490026 	movtne	r0, #36902	; 0x9026
     b44:	2e090000 	cdpcs	0, 0, cr0, cr9, cr0, {0}
     b48:	03193f00 	tsteq	r9, #0, 30
     b4c:	3b0b3a0e 	blcc	2cf38c <__bss_end__+0x2c590c>
     b50:	270b390b 	strcs	r3, [fp, -fp, lsl #18]
     b54:	12011119 	andne	r1, r1, #1073741830	; 0x40000006
     b58:	97184006 	ldrls	r4, [r8, -r6]
     b5c:	00001942 	andeq	r1, r0, r2, asr #18
     b60:	01110100 	tsteq	r1, r0, lsl #2
     b64:	0b130e25 	bleq	4c4400 <__bss_end__+0x4ba980>
     b68:	0e1b0e03 	cdpeq	14, 1, cr0, cr11, cr3, {0}
     b6c:	01111755 	tsteq	r1, r5, asr r7
     b70:	00001710 	andeq	r1, r0, r0, lsl r7
     b74:	0b002402 	bleq	9b84 <__bss_end__+0x104>
     b78:	030b3e0b 	movweq	r3, #48651	; 0xbe0b
     b7c:	03000008 	movweq	r0, #8
     b80:	13490026 	movtne	r0, #36902	; 0x9026
     b84:	24040000 	strcs	r0, [r4], #-0
     b88:	3e0b0b00 	vmlacc.f64	d0, d11, d0
     b8c:	000e030b 	andeq	r0, lr, fp, lsl #6
     b90:	01150500 	tsteq	r5, r0, lsl #10
     b94:	13491927 	movtne	r1, #39207	; 0x9927
     b98:	00001301 	andeq	r1, r0, r1, lsl #6
     b9c:	49000506 	stmdbmi	r0, {r1, r2, r8, sl}
     ba0:	07000013 	smladeq	r0, r3, r0, r0
     ba4:	0e030034 	mcreq	0, 0, r0, cr3, cr4, {1}
     ba8:	0b3b0b3a 	bleq	ec3898 <__bss_end__+0xeb9e18>
     bac:	13490b39 	movtne	r0, #39737	; 0x9b39
     bb0:	193c193f 	ldmdbne	ip!, {r0, r1, r2, r3, r4, r5, r8, fp, ip}
     bb4:	0f080000 	svceq	0x00080000
     bb8:	490b0b00 	stmdbmi	fp, {r8, r9, fp}
     bbc:	09000013 	stmdbeq	r0, {r0, r1, r4}
     bc0:	0e030034 	mcreq	0, 0, r0, cr3, cr4, {1}
     bc4:	0b3b0b3a 	bleq	ec38b4 <__bss_end__+0xeb9e34>
     bc8:	13490b39 	movtne	r0, #39737	; 0x9b39
     bcc:	2e0a0000 	cdpcs	0, 0, cr0, cr10, cr0, {0}
     bd0:	03193f01 	tsteq	r9, #1, 30
     bd4:	3b0b3a0e 	blcc	2cf414 <__bss_end__+0x2c5994>
     bd8:	270b390b 	strcs	r3, [fp, -fp, lsl #18]
     bdc:	19018719 	stmdbne	r1, {r0, r3, r4, r8, r9, sl, pc}
     be0:	06120111 			; <UNDEFINED> instruction: 0x06120111
     be4:	42971840 	addsmi	r1, r7, #64, 16	; 0x400000
     be8:	00130119 	andseq	r0, r3, r9, lsl r1
     bec:	00340b00 	eorseq	r0, r4, r0, lsl #22
     bf0:	0b3a0e03 	bleq	e84404 <__bss_end__+0xe7a984>
     bf4:	0b390b3b 	bleq	e438e8 <__bss_end__+0xe39e68>
     bf8:	061c1349 	ldreq	r1, [ip], -r9, asr #6
     bfc:	340c0000 	strcc	r0, [ip], #-0
     c00:	3a0e0300 	bcc	381808 <__bss_end__+0x377d88>
     c04:	390b3b0b 	stmdbcc	fp, {r0, r1, r3, r8, r9, fp, ip, sp}
     c08:	1c13490b 			; <UNDEFINED> instruction: 0x1c13490b
     c0c:	0d00000b 	stceq	0, cr0, [r0, #-44]	; 0xffffffd4
     c10:	1331011d 	teqne	r1, #1073741831	; 0x40000007
     c14:	42b80152 	adcsmi	r0, r8, #-2147483628	; 0x80000014
     c18:	5817550b 	ldmdapl	r7, {r0, r1, r3, r8, sl, ip, lr}
     c1c:	570b590b 	strpl	r5, [fp, -fp, lsl #18]
     c20:	0013010b 	andseq	r0, r3, fp, lsl #2
     c24:	010b0e00 	tsteq	fp, r0, lsl #28
     c28:	00001755 	andeq	r1, r0, r5, asr r7
     c2c:	3100340f 	tstcc	r0, pc, lsl #8
     c30:	b7170213 			; <UNDEFINED> instruction: 0xb7170213
     c34:	00001742 	andeq	r1, r0, r2, asr #14
     c38:	31011d10 	tstcc	r1, r0, lsl sp
     c3c:	b8015213 	stmdalt	r1, {r0, r1, r4, r9, ip, lr}
     c40:	01110b42 	tsteq	r1, r2, asr #22
     c44:	0b580612 	bleq	1602494 <__bss_end__+0x15f8a14>
     c48:	0b570b59 	bleq	15c39b4 <__bss_end__+0x15b9f34>
     c4c:	00001301 	andeq	r1, r0, r1, lsl #6
     c50:	01828911 	orreq	r8, r2, r1, lsl r9
     c54:	31011100 	mrscc	r1, (UNDEF: 17)
     c58:	12000013 	andne	r0, r0, #19, 0
     c5c:	01018289 	smlabbeq	r1, r9, r2, r8
     c60:	13310111 	teqne	r1, #1073741828	; 0x40000004
     c64:	00001301 	andeq	r1, r0, r1, lsl #6
     c68:	01828a13 	orreq	r8, r2, r3, lsl sl
     c6c:	91180200 	tstls	r8, r0, lsl #4
     c70:	00001842 	andeq	r1, r0, r2, asr #16
     c74:	01828914 	orreq	r8, r2, r4, lsl r9
     c78:	31011101 	tstcc	r1, r1, lsl #2
     c7c:	15000013 	strne	r0, [r0, #-19]	; 0xffffffed
     c80:	193f012e 	ldmdbne	pc!, {r1, r2, r3, r5, r8}	; <UNPREDICTABLE>
     c84:	0b3a0e03 	bleq	e84498 <__bss_end__+0xe7aa18>
     c88:	0b390b3b 	bleq	e4397c <__bss_end__+0xe39efc>
     c8c:	0b201927 	bleq	807130 <__bss_end__+0x7fd6b0>
     c90:	00001301 	andeq	r1, r0, r1, lsl #6
     c94:	3f012e16 	svccc	0x00012e16
     c98:	3a0e0319 	bcc	381904 <__bss_end__+0x377e84>
     c9c:	390b3b0b 	stmdbcc	fp, {r0, r1, r3, r8, r9, fp, ip, sp}
     ca0:	4919270b 	ldmdbmi	r9, {r0, r1, r3, r8, r9, sl, sp}
     ca4:	010b2013 	tsteq	fp, r3, lsl r0
     ca8:	17000013 	smladne	r0, r3, r0, r0
     cac:	1331012e 	teqne	r1, #-2147483637	; 0x8000000b
     cb0:	06120111 			; <UNDEFINED> instruction: 0x06120111
     cb4:	42971840 	addsmi	r1, r7, #64, 16	; 0x400000
     cb8:	00130119 	andseq	r0, r3, r9, lsl r1
     cbc:	002e1800 	eoreq	r1, lr, r0, lsl #16
     cc0:	193c193f 	ldmdbne	ip!, {r0, r1, r2, r3, r4, r5, r8, fp, ip}
     cc4:	0e030e6e 	cdpeq	14, 0, cr0, cr3, cr14, {3}
     cc8:	053b0b3a 	ldreq	r0, [fp, #-2874]!	; 0xfffff4c6
     ccc:	00000b39 	andeq	r0, r0, r9, lsr fp
     cd0:	3f002e19 	svccc	0x00002e19
     cd4:	6e193c19 	mrcvs	12, 0, r3, cr9, cr9, {0}
     cd8:	3a0e030e 	bcc	381918 <__bss_end__+0x377e98>
     cdc:	390b3b0b 	stmdbcc	fp, {r0, r1, r3, r8, r9, fp, ip, sp}
     ce0:	0000000b 	andeq	r0, r0, fp
     ce4:	25011101 	strcs	r1, [r1, #-257]	; 0xfffffeff
     ce8:	030b130e 	movweq	r1, #45838	; 0xb30e
     cec:	110e1b0e 	tstne	lr, lr, lsl #22
     cf0:	10061201 	andne	r1, r6, r1, lsl #4
     cf4:	02000017 	andeq	r0, r0, #23, 0
     cf8:	0b0b0024 	bleq	2c0d90 <__bss_end__+0x2b7310>
     cfc:	08030b3e 	stmdaeq	r3, {r1, r2, r3, r4, r5, r8, r9, fp}
     d00:	24030000 	strcs	r0, [r3], #-0
     d04:	3e0b0b00 	vmlacc.f64	d0, d11, d0
     d08:	000e030b 	andeq	r0, lr, fp, lsl #6
     d0c:	01150400 	tsteq	r5, r0, lsl #8
     d10:	13491927 	movtne	r1, #39207	; 0x9927
     d14:	00001301 	andeq	r1, r0, r1, lsl #6
     d18:	49000505 	stmdbmi	r0, {r0, r2, r8, sl}
     d1c:	06000013 			; <UNDEFINED> instruction: 0x06000013
     d20:	0e030034 	mcreq	0, 0, r0, cr3, cr4, {1}
     d24:	0b3b0b3a 	bleq	ec3a14 <__bss_end__+0xeb9f94>
     d28:	13490b39 	movtne	r0, #39737	; 0x9b39
     d2c:	193c193f 	ldmdbne	ip!, {r0, r1, r2, r3, r4, r5, r8, fp, ip}
     d30:	0f070000 	svceq	0x00070000
     d34:	490b0b00 	stmdbmi	fp, {r8, r9, fp}
     d38:	08000013 	stmdaeq	r0, {r0, r1, r4}
     d3c:	13490026 	movtne	r0, #36902	; 0x9026
     d40:	2e090000 	cdpcs	0, 0, cr0, cr9, cr0, {0}
     d44:	03193f01 	tsteq	r9, #1, 30
     d48:	3b0b3a0e 	blcc	2cf588 <__bss_end__+0x2c5b08>
     d4c:	270b390b 	strcs	r3, [fp, -fp, lsl #18]
     d50:	12011119 	andne	r1, r1, #1073741830	; 0x40000006
     d54:	97184006 	ldrls	r4, [r8, -r6]
     d58:	13011942 	movwne	r1, #6466	; 0x1942
     d5c:	050a0000 	streq	r0, [sl, #-0]
     d60:	3a080300 	bcc	201968 <__bss_end__+0x1f7ee8>
     d64:	390b3b0b 	stmdbcc	fp, {r0, r1, r3, r8, r9, fp, ip, sp}
     d68:	0213490b 	andseq	r4, r3, #180224	; 0x2c000
     d6c:	1742b717 	smlaldne	fp, r2, r7, r7
     d70:	1d0b0000 	stcne	0, cr0, [fp, #-0]
     d74:	52133101 	andspl	r3, r3, #1073741824	; 0x40000000
     d78:	0b42b801 	bleq	10aed84 <__bss_end__+0x10a5304>
     d7c:	0b581755 	bleq	1606ad8 <__bss_end__+0x15fd058>
     d80:	0b570b59 	bleq	15c3aec <__bss_end__+0x15ba06c>
     d84:	050c0000 	streq	r0, [ip, #-0]
     d88:	02133100 	andseq	r3, r3, #0
     d8c:	1742b717 	smlaldne	fp, r2, r7, r7
     d90:	1d0d0000 	stcne	0, cr0, [sp, #-0]
     d94:	52133101 	andspl	r3, r3, #1073741824	; 0x40000000
     d98:	0b42b801 	bleq	10aeda4 <__bss_end__+0x10a5324>
     d9c:	06120111 			; <UNDEFINED> instruction: 0x06120111
     da0:	0b590b58 	bleq	1643b08 <__bss_end__+0x163a088>
     da4:	00000b57 	andeq	r0, r0, r7, asr fp
     da8:	3100340e 	tstcc	r0, lr, lsl #8
     dac:	b7170213 			; <UNDEFINED> instruction: 0xb7170213
     db0:	00001742 	andeq	r1, r0, r2, asr #14
     db4:	31011d0f 	tstcc	r1, pc, lsl #26
     db8:	b8015213 	stmdalt	r1, {r0, r1, r4, r9, ip, lr}
     dbc:	01110b42 	tsteq	r1, r2, asr #22
     dc0:	0b580612 	bleq	1602610 <__bss_end__+0x15f8b90>
     dc4:	0b570b59 	bleq	15c3b30 <__bss_end__+0x15ba0b0>
     dc8:	00001301 	andeq	r1, r0, r1, lsl #6
     dcc:	01828910 	orreq	r8, r2, r0, lsl r9
     dd0:	31011101 	tstcc	r1, r1, lsl #2
     dd4:	11000013 	tstne	r0, r3, lsl r0
     dd8:	0001828a 	andeq	r8, r1, sl, lsl #5
     ddc:	42911802 	addsmi	r1, r1, #131072	; 0x20000
     de0:	12000018 	andne	r0, r0, #24, 0
     de4:	00018289 	andeq	r8, r1, r9, lsl #5
     de8:	13310111 	teqne	r1, #1073741828	; 0x40000004
     dec:	0b130000 	bleq	4c0df4 <__bss_end__+0x4b7374>
     df0:	55133101 	ldrpl	r3, [r3, #-257]	; 0xfffffeff
     df4:	14000017 	strne	r0, [r0], #-23	; 0xffffffe9
     df8:	13310034 	teqne	r1, #52, 0	; 0x34
     dfc:	0b150000 	bleq	540e04 <__bss_end__+0x537384>
     e00:	00175501 	andseq	r5, r7, r1, lsl #10
     e04:	011d1600 	tsteq	sp, r0, lsl #12
     e08:	01521331 	cmpeq	r2, r1, lsr r3
     e0c:	550b42b8 	strpl	r4, [fp, #-696]	; 0xfffffd48
     e10:	590b5817 	stmdbpl	fp, {r0, r1, r2, r4, fp, ip, lr}
     e14:	010b570b 	tsteq	fp, fp, lsl #14
     e18:	17000013 	smladne	r0, r3, r0, r0
     e1c:	193f012e 	ldmdbne	pc!, {r1, r2, r3, r5, r8}	; <UNPREDICTABLE>
     e20:	0b3a0e03 	bleq	e84634 <__bss_end__+0xe7abb4>
     e24:	0b390b3b 	bleq	e43b18 <__bss_end__+0xe3a098>
     e28:	0b201927 	bleq	8072cc <__bss_end__+0x7fd84c>
     e2c:	00001301 	andeq	r1, r0, r1, lsl #6
     e30:	03000518 	movweq	r0, #1304	; 0x518
     e34:	3b0b3a08 	blcc	2cf65c <__bss_end__+0x2c5bdc>
     e38:	490b390b 	stmdbmi	fp, {r0, r1, r3, r8, fp, ip, sp}
     e3c:	19000013 	stmdbne	r0, {r0, r1, r4}
     e40:	08030034 	stmdaeq	r3, {r2, r4, r5}
     e44:	0b3b0b3a 	bleq	ec3b34 <__bss_end__+0xeba0b4>
     e48:	13490b39 	movtne	r0, #39737	; 0x9b39
     e4c:	0b1a0000 	bleq	680e54 <__bss_end__+0x6773d4>
     e50:	1b000001 	blne	e5c <__code_start__-0x71a4>
     e54:	193f012e 	ldmdbne	pc!, {r1, r2, r3, r5, r8}	; <UNPREDICTABLE>
     e58:	0b3a0e03 	bleq	e8466c <__bss_end__+0xe7abec>
     e5c:	0b390b3b 	bleq	e43b50 <__bss_end__+0xe3a0d0>
     e60:	13491927 	movtne	r1, #39207	; 0x9927
     e64:	13010b20 	movwne	r0, #6944	; 0x1b20
     e68:	2e1c0000 	cdpcs	0, 1, cr0, cr12, cr0, {0}
     e6c:	03193f00 	tsteq	r9, #0, 30
     e70:	3b0b3a0e 	blcc	2cf6b0 <__bss_end__+0x2c5c30>
     e74:	270b390b 	strcs	r3, [fp, -fp, lsl #18]
     e78:	20134919 	andscs	r4, r3, r9, lsl r9
     e7c:	1d00000b 	stcne	0, cr0, [r0, #-44]	; 0xffffffd4
     e80:	1331012e 	teqne	r1, #-2147483637	; 0x8000000b
     e84:	06120111 			; <UNDEFINED> instruction: 0x06120111
     e88:	42971840 	addsmi	r1, r7, #64, 16	; 0x400000
     e8c:	00130119 	andseq	r0, r3, r9, lsl r1
     e90:	82891e00 	addhi	r1, r9, #0, 28
     e94:	01110101 	tsteq	r1, r1, lsl #2
     e98:	31194295 			; <UNDEFINED> instruction: 0x31194295
     e9c:	1f000013 	svcne	0x00000013
     ea0:	193f002e 	ldmdbne	pc!, {r1, r2, r3, r5}	; <UNPREDICTABLE>
     ea4:	0e6e193c 			; <UNDEFINED> instruction: 0x0e6e193c
     ea8:	0b3a0e03 	bleq	e846bc <__bss_end__+0xe7ac3c>
     eac:	0b390b3b 	bleq	e43ba0 <__bss_end__+0xe3a120>
     eb0:	01000000 	mrseq	r0, (UNDEF: 0)
     eb4:	0e250111 	mcreq	1, 1, r0, cr5, cr1, {0}
     eb8:	0e030b13 	vmoveq.32	d3[0], r0
     ebc:	01110e1b 	tsteq	r1, fp, lsl lr
     ec0:	17100612 			; <UNDEFINED> instruction: 0x17100612
     ec4:	24020000 	strcs	r0, [r2], #-0
     ec8:	3e0b0b00 	vmlacc.f64	d0, d11, d0
     ecc:	0008030b 	andeq	r0, r8, fp, lsl #6
     ed0:	00240300 	eoreq	r0, r4, r0, lsl #6
     ed4:	0b3e0b0b 	bleq	f83b08 <__bss_end__+0xf7a088>
     ed8:	00000e03 	andeq	r0, r0, r3, lsl #28
     edc:	49003504 	stmdbmi	r0, {r2, r8, sl, ip, sp}
     ee0:	05000013 	streq	r0, [r0, #-19]	; 0xffffffed
     ee4:	0e030016 	mcreq	0, 0, r0, cr3, cr6, {0}
     ee8:	0b3b0b3a 	bleq	ec3bd8 <__bss_end__+0xeba158>
     eec:	13490b39 	movtne	r0, #39737	; 0x9b39
     ef0:	04060000 	streq	r0, [r6], #-0
     ef4:	0b0b3e01 	bleq	2d0700 <__bss_end__+0x2c6c80>
     ef8:	3a13490b 	bcc	4d332c <__bss_end__+0x4c98ac>
     efc:	390b3b0b 	stmdbcc	fp, {r0, r1, r3, r8, r9, fp, ip, sp}
     f00:	0013010b 	andseq	r0, r3, fp, lsl #2
     f04:	00280700 	eoreq	r0, r8, r0, lsl #14
     f08:	0b1c0e03 	bleq	70471c <__bss_end__+0x6fac9c>
     f0c:	13080000 	movwne	r0, #32768	; 0x8000
     f10:	0b0e0301 	bleq	381b1c <__bss_end__+0x37809c>
     f14:	3b0b3a0b 	blcc	2cf748 <__bss_end__+0x2c5cc8>
     f18:	010b390b 	tsteq	fp, fp, lsl #18
     f1c:	09000013 	stmdbeq	r0, {r0, r1, r4}
     f20:	0803000d 	stmdaeq	r3, {r0, r2, r3}
     f24:	0b3b0b3a 	bleq	ec3c14 <__bss_end__+0xeba194>
     f28:	13490b39 	movtne	r0, #39737	; 0x9b39
     f2c:	00000b38 	andeq	r0, r0, r8, lsr fp
     f30:	03000d0a 	movweq	r0, #3338	; 0xd0a
     f34:	3b0b3a0e 	blcc	2cf774 <__bss_end__+0x2c5cf4>
     f38:	490b390b 	stmdbmi	fp, {r0, r1, r3, r8, fp, ip, sp}
     f3c:	000b3813 	andeq	r3, fp, r3, lsl r8
     f40:	00340b00 	eorseq	r0, r4, r0, lsl #22
     f44:	0b3a0e03 	bleq	e84758 <__bss_end__+0xe7acd8>
     f48:	0b390b3b 	bleq	e43c3c <__bss_end__+0xe3a1bc>
     f4c:	061c1349 	ldreq	r1, [ip], -r9, asr #6
     f50:	0f0c0000 	svceq	0x000c0000
     f54:	490b0b00 	stmdbmi	fp, {r8, r9, fp}
     f58:	0d000013 	stceq	0, cr0, [r0, #-76]	; 0xffffffb4
     f5c:	13490026 	movtne	r0, #36902	; 0x9026
     f60:	2e0e0000 	cdpcs	0, 0, cr0, cr14, cr0, {0}
     f64:	03193f01 	tsteq	r9, #1, 30
     f68:	3b0b3a0e 	blcc	2cf7a8 <__bss_end__+0x2c5d28>
     f6c:	270b390b 	strcs	r3, [fp, -fp, lsl #18]
     f70:	12011119 	andne	r1, r1, #1073741830	; 0x40000006
     f74:	97184006 	ldrls	r4, [r8, -r6]
     f78:	13011942 	movwne	r1, #6466	; 0x1942
     f7c:	890f0000 	stmdbhi	pc, {}	; <UNPREDICTABLE>
     f80:	11000182 	smlabbne	r0, r2, r1, r0
     f84:	00133101 	andseq	r3, r3, r1, lsl #2
     f88:	012e1000 			; <UNDEFINED> instruction: 0x012e1000
     f8c:	0e03193f 			; <UNDEFINED> instruction: 0x0e03193f
     f90:	0b3b0b3a 	bleq	ec3c80 <__bss_end__+0xeba200>
     f94:	19270b39 	stmdbne	r7!, {r0, r3, r4, r5, r8, r9, fp}
     f98:	01111349 	tsteq	r1, r9, asr #6
     f9c:	18400612 	stmdane	r0, {r1, r4, r9, sl}^
     fa0:	01194297 			; <UNDEFINED> instruction: 0x01194297
     fa4:	11000013 	tstne	r0, r3, lsl r0
     fa8:	01018289 	smlabbeq	r1, r9, r2, r8
     fac:	13310111 	teqne	r1, #1073741828	; 0x40000004
     fb0:	8a120000 	bhi	480fb8 <__bss_end__+0x477538>
     fb4:	02000182 	andeq	r0, r0, #-2147483616	; 0x80000020
     fb8:	18429118 	stmdane	r2, {r3, r4, r8, ip, pc}^
     fbc:	05130000 	ldreq	r0, [r3, #-0]
     fc0:	3a080300 	bcc	201bc8 <__bss_end__+0x1f8148>
     fc4:	390b3b0b 	stmdbcc	fp, {r0, r1, r3, r8, r9, fp, ip, sp}
     fc8:	0213490b 	andseq	r4, r3, #180224	; 0x2c000
     fcc:	1742b717 	smlaldne	fp, r2, r7, r7
     fd0:	89140000 	ldmdbhi	r4, {}	; <UNPREDICTABLE>
     fd4:	11010182 	smlabbne	r1, r2, r1, r0
     fd8:	01133101 	tsteq	r3, r1, lsl #2
     fdc:	15000013 	strne	r0, [r0, #-19]	; 0xffffffed
     fe0:	08030034 	stmdaeq	r3, {r2, r4, r5}
     fe4:	0b3b0b3a 	bleq	ec3cd4 <__bss_end__+0xeba254>
     fe8:	13490b39 	movtne	r0, #39737	; 0x9b39
     fec:	42b71702 	adcsmi	r1, r7, #524288	; 0x80000
     ff0:	16000017 			; <UNDEFINED> instruction: 0x16000017
     ff4:	0e030034 	mcreq	0, 0, r0, cr3, cr4, {1}
     ff8:	0b3b0b3a 	bleq	ec3ce8 <__bss_end__+0xeba268>
     ffc:	13490b39 	movtne	r0, #39737	; 0x9b39
    1000:	0000051c 	andeq	r0, r0, ip, lsl r5
    1004:	03012e17 	movweq	r2, #7703	; 0x1e17
    1008:	3b0b3a0e 	blcc	2cf848 <__bss_end__+0x2c5dc8>
    100c:	270b390b 	strcs	r3, [fp, -fp, lsl #18]
    1010:	12011119 	andne	r1, r1, #1073741830	; 0x40000006
    1014:	97184006 	ldrls	r4, [r8, -r6]
    1018:	13011942 	movwne	r1, #6466	; 0x1942
    101c:	05180000 	ldreq	r0, [r8, #-0]
    1020:	3a0e0300 	bcc	381c28 <__bss_end__+0x3781a8>
    1024:	390b3b0b 	stmdbcc	fp, {r0, r1, r3, r8, r9, fp, ip, sp}
    1028:	0213490b 	andseq	r4, r3, #180224	; 0x2c000
    102c:	1742b717 	smlaldne	fp, r2, r7, r7
    1030:	35190000 	ldrcc	r0, [r9, #-0]
    1034:	1a000000 	bne	103c <__code_start__-0x6fc4>
    1038:	193f002e 	ldmdbne	pc!, {r1, r2, r3, r5}	; <UNPREDICTABLE>
    103c:	0e6e193c 			; <UNDEFINED> instruction: 0x0e6e193c
    1040:	0b3a0e03 	bleq	e84854 <__bss_end__+0xe7add4>
    1044:	0b390b3b 	bleq	e43d38 <__bss_end__+0xe3a2b8>
    1048:	01000000 	mrseq	r0, (UNDEF: 0)
    104c:	0e250111 	mcreq	1, 1, r0, cr5, cr1, {0}
    1050:	0e030b13 	vmoveq.32	d3[0], r0
    1054:	01110e1b 	tsteq	r1, fp, lsl lr
    1058:	17100612 			; <UNDEFINED> instruction: 0x17100612
    105c:	24020000 	strcs	r0, [r2], #-0
    1060:	3e0b0b00 	vmlacc.f64	d0, d11, d0
    1064:	0008030b 	andeq	r0, r8, fp, lsl #6
    1068:	00240300 	eoreq	r0, r4, r0, lsl #6
    106c:	0b3e0b0b 	bleq	f83ca0 <__bss_end__+0xf7a220>
    1070:	00000e03 	andeq	r0, r0, r3, lsl #28
    1074:	27011504 	strcs	r1, [r1, -r4, lsl #10]
    1078:	01134919 	tsteq	r3, r9, lsl r9
    107c:	05000013 	streq	r0, [r0, #-19]	; 0xffffffed
    1080:	13490005 	movtne	r0, #36869	; 0x9005
    1084:	34060000 	strcc	r0, [r6], #-0
    1088:	3a0e0300 	bcc	381c90 <__bss_end__+0x378210>
    108c:	390b3b0b 	stmdbcc	fp, {r0, r1, r3, r8, r9, fp, ip, sp}
    1090:	3f13490b 	svccc	0x0013490b
    1094:	00193c19 	andseq	r3, r9, r9, lsl ip
    1098:	000f0700 	andeq	r0, pc, r0, lsl #14
    109c:	13490b0b 	movtne	r0, #39691	; 0x9b0b
    10a0:	26080000 	strcs	r0, [r8], -r0
    10a4:	00134900 	andseq	r4, r3, r0, lsl #18
    10a8:	00340900 	eorseq	r0, r4, r0, lsl #18
    10ac:	0b3a1347 	bleq	e85dd0 <__bss_end__+0xe7c350>
    10b0:	0b390b3b 	bleq	e43da4 <__bss_end__+0xe3a324>
    10b4:	00001802 	andeq	r1, r0, r2, lsl #16
    10b8:	3f012e0a 	svccc	0x00012e0a
    10bc:	3a0e0319 	bcc	381d28 <__bss_end__+0x3782a8>
    10c0:	390b3b0b 	stmdbcc	fp, {r0, r1, r3, r8, r9, fp, ip, sp}
    10c4:	1119270b 	tstne	r9, fp, lsl #14
    10c8:	40061201 	andmi	r1, r6, r1, lsl #4
    10cc:	19429718 	stmdbne	r2, {r3, r4, r8, r9, sl, ip, pc}^
    10d0:	00001301 	andeq	r1, r0, r1, lsl #6
    10d4:	0300050b 	movweq	r0, #1291	; 0x50b
    10d8:	3b0b3a08 	blcc	2cf900 <__bss_end__+0x2c5e80>
    10dc:	490b390b 	stmdbmi	fp, {r0, r1, r3, r8, fp, ip, sp}
    10e0:	00180213 	andseq	r0, r8, r3, lsl r2
    10e4:	002e0c00 	eoreq	r0, lr, r0, lsl #24
    10e8:	0e03193f 			; <UNDEFINED> instruction: 0x0e03193f
    10ec:	0b3b0b3a 	bleq	ec3ddc <__bss_end__+0xeba35c>
    10f0:	19270b39 	stmdbne	r7!, {r0, r3, r4, r5, r8, r9, fp}
    10f4:	06120111 			; <UNDEFINED> instruction: 0x06120111
    10f8:	42971840 	addsmi	r1, r7, #64, 16	; 0x400000
    10fc:	0d000019 	stceq	0, cr0, [r0, #-100]	; 0xffffff9c
    1100:	0e03012e 	adfeqsp	f0, f3, #0.5
    1104:	0b3b0b3a 	bleq	ec3df4 <__bss_end__+0xeba374>
    1108:	19270b39 	stmdbne	r7!, {r0, r3, r4, r5, r8, r9, fp}
    110c:	01111349 	tsteq	r1, r9, asr #6
    1110:	18400612 	stmdane	r0, {r1, r4, r9, sl}^
    1114:	01194297 			; <UNDEFINED> instruction: 0x01194297
    1118:	0e000013 	mcreq	0, 0, r0, cr0, cr3, {0}
    111c:	08030005 	stmdaeq	r3, {r0, r2}
    1120:	0b3b0b3a 	bleq	ec3e10 <__bss_end__+0xeba390>
    1124:	13490b39 	movtne	r0, #39737	; 0x9b39
    1128:	42b71702 	adcsmi	r1, r7, #524288	; 0x80000
    112c:	0f000017 	svceq	0x00000017
    1130:	01018289 	smlabbeq	r1, r9, r2, r8
    1134:	13310111 	teqne	r1, #1073741828	; 0x40000004
    1138:	8a100000 	bhi	401140 <__bss_end__+0x3f76c0>
    113c:	02000182 	andeq	r0, r0, #-2147483616	; 0x80000020
    1140:	18429118 	stmdane	r2, {r3, r4, r8, ip, pc}^
    1144:	2e110000 	cdpcs	0, 1, cr0, cr1, cr0, {0}
    1148:	3c193f00 	ldccc	15, cr3, [r9], {-0}
    114c:	030e6e19 	movweq	r6, #60953	; 0xee19
    1150:	3b0b3a0e 	blcc	2cf990 <__bss_end__+0x2c5f10>
    1154:	000b390b 	andeq	r3, fp, fp, lsl #18
    1158:	11010000 	mrsne	r0, (UNDEF: 1)
    115c:	130e2501 	movwne	r2, #58625	; 0xe501
    1160:	1b0e030b 	blne	381d94 <__bss_end__+0x378314>
    1164:	1201110e 	andne	r1, r1, #-2147483645	; 0x80000003
    1168:	00171006 	andseq	r1, r7, r6
    116c:	00240200 	eoreq	r0, r4, r0, lsl #4
    1170:	0b3e0b0b 	bleq	f83da4 <__bss_end__+0xf7a324>
    1174:	00000803 	andeq	r0, r0, r3, lsl #16
    1178:	0b002403 	bleq	a18c <__bss_end__+0x70c>
    117c:	030b3e0b 	movweq	r3, #48651	; 0xbe0b
    1180:	0400000e 	streq	r0, [r0], #-14
    1184:	19270115 	stmdbne	r7!, {r0, r2, r4, r8}
    1188:	13011349 	movwne	r1, #4937	; 0x1349
    118c:	05050000 	streq	r0, [r5, #-0]
    1190:	00134900 	andseq	r4, r3, r0, lsl #18
    1194:	00340600 	eorseq	r0, r4, r0, lsl #12
    1198:	0b3a0e03 	bleq	e849ac <__bss_end__+0xe7af2c>
    119c:	0b390b3b 	bleq	e43e90 <__bss_end__+0xe3a410>
    11a0:	193f1349 	ldmdbne	pc!, {r0, r3, r6, r8, r9, ip}	; <UNPREDICTABLE>
    11a4:	0000193c 	andeq	r1, r0, ip, lsr r9
    11a8:	0b000f07 	bleq	4dcc <__code_start__-0x3234>
    11ac:	0013490b 	andseq	r4, r3, fp, lsl #18
    11b0:	00260800 	eoreq	r0, r6, r0, lsl #16
    11b4:	00001349 	andeq	r1, r0, r9, asr #6
    11b8:	3f012e09 	svccc	0x00012e09
    11bc:	3a0e0319 	bcc	381e28 <__bss_end__+0x3783a8>
    11c0:	390b3b0b 	stmdbcc	fp, {r0, r1, r3, r8, r9, fp, ip, sp}
    11c4:	4919270b 	ldmdbmi	r9, {r0, r1, r3, r8, r9, sl, sp}
    11c8:	12011113 	andne	r1, r1, #-1073741820	; 0xc0000004
    11cc:	97184006 	ldrls	r4, [r8, -r6]
    11d0:	13011942 	movwne	r1, #6466	; 0x1942
    11d4:	050a0000 	streq	r0, [sl, #-0]
    11d8:	3a0e0300 	bcc	381de0 <__bss_end__+0x378360>
    11dc:	390b3b0b 	stmdbcc	fp, {r0, r1, r3, r8, r9, fp, ip, sp}
    11e0:	0213490b 	andseq	r4, r3, #180224	; 0x2c000
    11e4:	0b000018 	bleq	124c <__code_start__-0x6db4>
    11e8:	08030005 	stmdaeq	r3, {r0, r2}
    11ec:	0b3b0b3a 	bleq	ec3edc <__bss_end__+0xeba45c>
    11f0:	13490b39 	movtne	r0, #39737	; 0x9b39
    11f4:	42b71702 	adcsmi	r1, r7, #524288	; 0x80000
    11f8:	0c000017 	stceq	0, cr0, [r0], {23}
    11fc:	08030034 	stmdaeq	r3, {r2, r4, r5}
    1200:	0b3b0b3a 	bleq	ec3ef0 <__bss_end__+0xeba470>
    1204:	13490b39 	movtne	r0, #39737	; 0x9b39
    1208:	42b71702 	adcsmi	r1, r7, #524288	; 0x80000
    120c:	00000017 	andeq	r0, r0, r7, lsl r0
    1210:	25011101 	strcs	r1, [r1, #-257]	; 0xfffffeff
    1214:	030b130e 	movweq	r1, #45838	; 0xb30e
    1218:	110e1b0e 	tstne	lr, lr, lsl #22
    121c:	10061201 	andne	r1, r6, r1, lsl #4
    1220:	02000017 	andeq	r0, r0, #23, 0
    1224:	0b0b0024 	bleq	2c12bc <__bss_end__+0x2b783c>
    1228:	08030b3e 	stmdaeq	r3, {r1, r2, r3, r4, r5, r8, r9, fp}
    122c:	24030000 	strcs	r0, [r3], #-0
    1230:	3e0b0b00 	vmlacc.f64	d0, d11, d0
    1234:	000e030b 	andeq	r0, lr, fp, lsl #6
    1238:	01150400 	tsteq	r5, r0, lsl #8
    123c:	13491927 	movtne	r1, #39207	; 0x9927
    1240:	00001301 	andeq	r1, r0, r1, lsl #6
    1244:	49000505 	stmdbmi	r0, {r0, r2, r8, sl}
    1248:	06000013 			; <UNDEFINED> instruction: 0x06000013
    124c:	0e030034 	mcreq	0, 0, r0, cr3, cr4, {1}
    1250:	0b3b0b3a 	bleq	ec3f40 <__bss_end__+0xeba4c0>
    1254:	13490b39 	movtne	r0, #39737	; 0x9b39
    1258:	193c193f 	ldmdbne	ip!, {r0, r1, r2, r3, r4, r5, r8, fp, ip}
    125c:	0f070000 	svceq	0x00070000
    1260:	490b0b00 	stmdbmi	fp, {r8, r9, fp}
    1264:	08000013 	stmdaeq	r0, {r0, r1, r4}
    1268:	13490026 	movtne	r0, #36902	; 0x9026
    126c:	2e090000 	cdpcs	0, 0, cr0, cr9, cr0, {0}
    1270:	03193f01 	tsteq	r9, #1, 30
    1274:	3b0b3a0e 	blcc	2cfab4 <__bss_end__+0x2c6034>
    1278:	270b390b 	strcs	r3, [fp, -fp, lsl #18]
    127c:	11134919 	tstne	r3, r9, lsl r9
    1280:	40061201 	andmi	r1, r6, r1, lsl #4
    1284:	19429718 	stmdbne	r2, {r3, r4, r8, r9, sl, ip, pc}^
    1288:	050a0000 	streq	r0, [sl, #-0]
    128c:	3a080300 	bcc	201e94 <__bss_end__+0x1f8414>
    1290:	390b3b0b 	stmdbcc	fp, {r0, r1, r3, r8, r9, fp, ip, sp}
    1294:	0213490b 	andseq	r4, r3, #180224	; 0x2c000
    1298:	1742b717 	smlaldne	fp, r2, r7, r7
    129c:	01000000 	mrseq	r0, (UNDEF: 0)
    12a0:	0e250111 	mcreq	1, 1, r0, cr5, cr1, {0}
    12a4:	0e030b13 	vmoveq.32	d3[0], r0
    12a8:	01110e1b 	tsteq	r1, fp, lsl lr
    12ac:	17100612 			; <UNDEFINED> instruction: 0x17100612
    12b0:	24020000 	strcs	r0, [r2], #-0
    12b4:	3e0b0b00 	vmlacc.f64	d0, d11, d0
    12b8:	0008030b 	andeq	r0, r8, fp, lsl #6
    12bc:	00240300 	eoreq	r0, r4, r0, lsl #6
    12c0:	0b3e0b0b 	bleq	f83ef4 <__bss_end__+0xf7a474>
    12c4:	00000e03 	andeq	r0, r0, r3, lsl #28
    12c8:	27011504 	strcs	r1, [r1, -r4, lsl #10]
    12cc:	01134919 	tsteq	r3, r9, lsl r9
    12d0:	05000013 	streq	r0, [r0, #-19]	; 0xffffffed
    12d4:	13490005 	movtne	r0, #36869	; 0x9005
    12d8:	34060000 	strcc	r0, [r6], #-0
    12dc:	3a0e0300 	bcc	381ee4 <__bss_end__+0x378464>
    12e0:	390b3b0b 	stmdbcc	fp, {r0, r1, r3, r8, r9, fp, ip, sp}
    12e4:	3f13490b 	svccc	0x0013490b
    12e8:	00193c19 	andseq	r3, r9, r9, lsl ip
    12ec:	000f0700 	andeq	r0, pc, r0, lsl #14
    12f0:	13490b0b 	movtne	r0, #39691	; 0x9b0b
    12f4:	26080000 	strcs	r0, [r8], -r0
    12f8:	00134900 	andseq	r4, r3, r0, lsl #18
    12fc:	012e0900 			; <UNDEFINED> instruction: 0x012e0900
    1300:	0e03193f 			; <UNDEFINED> instruction: 0x0e03193f
    1304:	0b3b0b3a 	bleq	ec3ff4 <__bss_end__+0xeba574>
    1308:	19270b39 	stmdbne	r7!, {r0, r3, r4, r5, r8, r9, fp}
    130c:	01111349 	tsteq	r1, r9, asr #6
    1310:	18400612 	stmdane	r0, {r1, r4, r9, sl}^
    1314:	01194297 			; <UNDEFINED> instruction: 0x01194297
    1318:	0a000013 	beq	136c <__code_start__-0x6c94>
    131c:	08030005 	stmdaeq	r3, {r0, r2}
    1320:	0b3b0b3a 	bleq	ec4010 <__bss_end__+0xeba590>
    1324:	13490b39 	movtne	r0, #39737	; 0x9b39
    1328:	00001802 	andeq	r1, r0, r2, lsl #16
    132c:	0300050b 	movweq	r0, #1291	; 0x50b
    1330:	3b0b3a08 	blcc	2cfb58 <__bss_end__+0x2c60d8>
    1334:	490b390b 	stmdbmi	fp, {r0, r1, r3, r8, fp, ip, sp}
    1338:	b7170213 			; <UNDEFINED> instruction: 0xb7170213
    133c:	00001742 	andeq	r1, r0, r2, asr #14
    1340:	0300340c 	movweq	r3, #1036	; 0x40c
    1344:	3b0b3a08 	blcc	2cfb6c <__bss_end__+0x2c60ec>
    1348:	490b390b 	stmdbmi	fp, {r0, r1, r3, r8, fp, ip, sp}
    134c:	b7170213 			; <UNDEFINED> instruction: 0xb7170213
    1350:	00001742 	andeq	r1, r0, r2, asr #14
    1354:	01110100 	tsteq	r1, r0, lsl #2
    1358:	0b130e25 	bleq	4c4bf4 <__bss_end__+0x4bb174>
    135c:	0e1b0e03 	cdpeq	14, 1, cr0, cr11, cr3, {0}
    1360:	06120111 			; <UNDEFINED> instruction: 0x06120111
    1364:	00001710 	andeq	r1, r0, r0, lsl r7
    1368:	0b002402 	bleq	a378 <__bss_end__+0x8f8>
    136c:	030b3e0b 	movweq	r3, #48651	; 0xbe0b
    1370:	03000008 	movweq	r0, #8
    1374:	0e030016 	mcreq	0, 0, r0, cr3, cr6, {0}
    1378:	0b3b0b3a 	bleq	ec4068 <__bss_end__+0xeba5e8>
    137c:	13490b39 	movtne	r0, #39737	; 0x9b39
    1380:	24040000 	strcs	r0, [r4], #-0
    1384:	3e0b0b00 	vmlacc.f64	d0, d11, d0
    1388:	000e030b 	andeq	r0, lr, fp, lsl #6
    138c:	00260500 	eoreq	r0, r6, r0, lsl #10
    1390:	00001349 	andeq	r1, r0, r9, asr #6
    1394:	27011506 	strcs	r1, [r1, -r6, lsl #10]
    1398:	01134919 	tsteq	r3, r9, lsl r9
    139c:	07000013 	smladeq	r0, r3, r0, r0
    13a0:	13490005 	movtne	r0, #36869	; 0x9005
    13a4:	34080000 	strcc	r0, [r8], #-0
    13a8:	3a0e0300 	bcc	381fb0 <__bss_end__+0x378530>
    13ac:	390b3b0b 	stmdbcc	fp, {r0, r1, r3, r8, r9, fp, ip, sp}
    13b0:	3f13490b 	svccc	0x0013490b
    13b4:	00193c19 	andseq	r3, r9, r9, lsl ip
    13b8:	000f0900 	andeq	r0, pc, r0, lsl #18
    13bc:	13490b0b 	movtne	r0, #39691	; 0x9b0b
    13c0:	2e0a0000 	cdpcs	0, 0, cr0, cr10, cr0, {0}
    13c4:	03193f01 	tsteq	r9, #1, 30
    13c8:	3b0b3a0e 	blcc	2cfc08 <__bss_end__+0x2c6188>
    13cc:	270b390b 	strcs	r3, [fp, -fp, lsl #18]
    13d0:	11134919 	tstne	r3, r9, lsl r9
    13d4:	40061201 	andmi	r1, r6, r1, lsl #4
    13d8:	19429718 	stmdbne	r2, {r3, r4, r8, r9, sl, ip, pc}^
    13dc:	00001301 	andeq	r1, r0, r1, lsl #6
    13e0:	0300050b 	movweq	r0, #1291	; 0x50b
    13e4:	3b0b3a08 	blcc	2cfc0c <__bss_end__+0x2c618c>
    13e8:	490b390b 	stmdbmi	fp, {r0, r1, r3, r8, fp, ip, sp}
    13ec:	b7170213 			; <UNDEFINED> instruction: 0xb7170213
    13f0:	00001742 	andeq	r1, r0, r2, asr #14
    13f4:	0300340c 	movweq	r3, #1036	; 0x40c
    13f8:	3b0b3a08 	blcc	2cfc20 <__bss_end__+0x2c61a0>
    13fc:	490b390b 	stmdbmi	fp, {r0, r1, r3, r8, fp, ip, sp}
    1400:	b7170213 			; <UNDEFINED> instruction: 0xb7170213
    1404:	00001742 	andeq	r1, r0, r2, asr #14
    1408:	01110100 	tsteq	r1, r0, lsl #2
    140c:	0b130e25 	bleq	4c4ca8 <__bss_end__+0x4bb228>
    1410:	0e1b0e03 	cdpeq	14, 1, cr0, cr11, cr3, {0}
    1414:	06120111 			; <UNDEFINED> instruction: 0x06120111
    1418:	00001710 	andeq	r1, r0, r0, lsl r7
    141c:	0b002402 	bleq	a42c <__bss_end__+0x9ac>
    1420:	030b3e0b 	movweq	r3, #48651	; 0xbe0b
    1424:	03000008 	movweq	r0, #8
    1428:	0b0b0024 	bleq	2c14c0 <__bss_end__+0x2b7a40>
    142c:	0e030b3e 	vmoveq.16	d3[0], r0
    1430:	15040000 	strne	r0, [r4, #-0]
    1434:	49192701 	ldmdbmi	r9, {r0, r8, r9, sl, sp}
    1438:	00130113 	andseq	r0, r3, r3, lsl r1
    143c:	00050500 	andeq	r0, r5, r0, lsl #10
    1440:	00001349 	andeq	r1, r0, r9, asr #6
    1444:	03003406 	movweq	r3, #1030	; 0x406
    1448:	3b0b3a0e 	blcc	2cfc88 <__bss_end__+0x2c6208>
    144c:	490b390b 	stmdbmi	fp, {r0, r1, r3, r8, fp, ip, sp}
    1450:	3c193f13 	ldccc	15, cr3, [r9], {19}
    1454:	07000019 	smladeq	r0, r9, r0, r0
    1458:	0b0b000f 	bleq	2c149c <__bss_end__+0x2b7a1c>
    145c:	00001349 	andeq	r1, r0, r9, asr #6
    1460:	49002608 	stmdbmi	r0, {r3, r9, sl, sp}
    1464:	09000013 	stmdbeq	r0, {r0, r1, r4}
    1468:	193f002e 	ldmdbne	pc!, {r1, r2, r3, r5}	; <UNPREDICTABLE>
    146c:	0b3a0e03 	bleq	e84c80 <__bss_end__+0xe7b200>
    1470:	0b390b3b 	bleq	e44164 <__bss_end__+0xe3a6e4>
    1474:	01111927 	tsteq	r1, r7, lsr #18
    1478:	18400612 	stmdane	r0, {r1, r4, r9, sl}^
    147c:	00194297 	mulseq	r9, r7, r2
	...

Disassembly of section .debug_loc:

00000000 <.debug_loc>:
       0:	01700004 	cmneq	r0, r4
       4:	02780000 	rsbseq	r0, r8, #0, 0
       8:	00020000 	andeq	r0, r2, r0
       c:	00009f45 	andeq	r9, r0, r5, asr #30
      10:	00000000 	andeq	r0, r0, r0
      14:	00040000 	andeq	r0, r4, r0
      18:	00000170 	andeq	r0, r0, r0, ror r1
      1c:	00000278 	andeq	r0, r0, r8, ror r2
      20:	700a0004 	andvc	r0, sl, r4
      24:	00009f17 	andeq	r9, r0, r7, lsl pc
      28:	00000000 	andeq	r0, r0, r0
      2c:	01050000 	mrseq	r0, (UNDEF: 5)
      30:	01010101 	tsteq	r1, r1, lsl #2
      34:	01010101 	tsteq	r1, r1, lsl #2
      38:	01010101 	tsteq	r1, r1, lsl #2
      3c:	01010101 	tsteq	r1, r1, lsl #2
      40:	00010101 	andeq	r0, r1, r1, lsl #2
      44:	00000170 	andeq	r0, r0, r0, ror r1
      48:	00000178 	andeq	r0, r0, r8, ror r1
      4c:	9f300002 	svcls	0x00300002
      50:	00000178 	andeq	r0, r0, r8, ror r1
      54:	00000190 	muleq	r0, r0, r1
      58:	700a0004 	andvc	r0, sl, r4
      5c:	01909f17 	orrseq	r9, r0, r7, lsl pc
      60:	01a80000 			; <UNDEFINED> instruction: 0x01a80000
      64:	00040000 	andeq	r0, r4, r0
      68:	9f2ee00a 	svcls	0x002ee00a
      6c:	000001a8 	andeq	r0, r0, r8, lsr #3
      70:	000001c0 	andeq	r0, r0, r0, asr #3
      74:	500a0004 	andpl	r0, sl, r4
      78:	01c09f46 	biceq	r9, r0, r6, asr #30
      7c:	01d80000 	bicseq	r0, r8, r0
      80:	00040000 	andeq	r0, r4, r0
      84:	9f5dc00a 	svcls	0x005dc00a
      88:	000001d8 	ldrdeq	r0, [r0], -r8
      8c:	000001f0 	strdeq	r0, [r0], -r0	; <UNPREDICTABLE>
      90:	300a0004 	andcc	r0, sl, r4
      94:	01f09f75 	mvnseq	r9, r5, ror pc
      98:	02080000 	andeq	r0, r8, #0, 0
      9c:	00040000 	andeq	r0, r4, r0
      a0:	9f8ca00a 	svcls	0x008ca00a
      a4:	00000208 	andeq	r0, r0, r8, lsl #4
      a8:	00000220 	andeq	r0, r0, r0, lsr #4
      ac:	100a0004 	andne	r0, sl, r4
      b0:	02209fa4 	eoreq	r9, r0, #164, 30	; 0x290
      b4:	02380000 	eorseq	r0, r8, #0, 0
      b8:	00040000 	andeq	r0, r4, r0
      bc:	9fbb800a 	svcls	0x00bb800a
      c0:	00000238 	andeq	r0, r0, r8, lsr r2
      c4:	00000250 	andeq	r0, r0, r0, asr r2
      c8:	f00a0004 			; <UNDEFINED> instruction: 0xf00a0004
      cc:	02509fd2 	subseq	r9, r0, #840	; 0x348
      d0:	02780000 	rsbseq	r0, r8, #0, 0
      d4:	00040000 	andeq	r0, r4, r0
      d8:	9fea600a 	svcls	0x00ea600a
	...
      e4:	01740001 	cmneq	r4, r1
      e8:	026c0000 	rsbeq	r0, ip, #0, 0
      ec:	00010000 	andeq	r0, r1, r0
      f0:	00000052 	andeq	r0, r0, r2, asr r0
      f4:	00000000 	andeq	r0, r0, r0
      f8:	74000400 	strvc	r0, [r0], #-1024	; 0xfffffc00
      fc:	78000001 	stmdavc	r0, {r0}
     100:	04000002 	streq	r0, [r0], #-2
     104:	24414000 	strbcs	r4, [r1], #-0
     108:	0000009f 	muleq	r0, pc, r0	; <UNPREDICTABLE>
     10c:	00000000 	andeq	r0, r0, r0
     110:	64000100 	strvs	r0, [r0], #-256	; 0xffffff00
     114:	74000002 	strvc	r0, [r0], #-2
     118:	01000002 	tsteq	r0, r2
     11c:	00005100 	andeq	r5, r0, r0, lsl #2
     120:	00000000 	andeq	r0, r0, r0
     124:	03050000 	movweq	r0, #20480	; 0x5000
     128:	03030303 	movweq	r0, #13059	; 0x3303
     12c:	03030303 	movweq	r0, #13059	; 0x3303
     130:	01740003 	cmneq	r4, r3
     134:	01a00000 	moveq	r0, r0
     138:	00020000 	andeq	r0, r2, r0
     13c:	01a09f30 	lsreq	r9, r0, pc
     140:	01d00000 	bicseq	r0, r0, r0
     144:	00020000 	andeq	r0, r2, r0
     148:	01d09f31 	bicseq	r9, r0, r1, lsr pc
     14c:	02000000 	andeq	r0, r0, #0, 0
     150:	00020000 	andeq	r0, r2, r0
     154:	02009f32 	andeq	r9, r0, #200	; 0xc8
     158:	02300000 	eorseq	r0, r0, #0, 0
     15c:	00020000 	andeq	r0, r2, r0
     160:	02309f33 	eorseq	r9, r0, #204	; 0xcc
     164:	02600000 	rsbeq	r0, r0, #0, 0
     168:	00020000 	andeq	r0, r2, r0
     16c:	02609f34 	rsbeq	r9, r0, #52, 30	; 0xd0
     170:	02780000 	rsbseq	r0, r8, #0, 0
     174:	00020000 	andeq	r0, r2, r0
     178:	00009f35 	andeq	r9, r0, r5, lsr pc
     17c:	00000000 	andeq	r0, r0, r0
     180:	01020000 	mrseq	r0, (UNDEF: 2)
     184:	01020102 	tsteq	r2, r2, lsl #2
     188:	01020102 	tsteq	r2, r2, lsl #2
     18c:	00000178 	andeq	r0, r0, r8, ror r1
     190:	00000188 	andeq	r0, r0, r8, lsl #3
     194:	700a0004 	andvc	r0, sl, r4
     198:	01a89f17 			; <UNDEFINED> instruction: 0x01a89f17
     19c:	01b80000 			; <UNDEFINED> instruction: 0x01b80000
     1a0:	00040000 	andeq	r0, r4, r0
     1a4:	9f46500a 	svcls	0x0046500a
     1a8:	000001d8 	ldrdeq	r0, [r0], -r8
     1ac:	000001e8 	andeq	r0, r0, r8, ror #3
     1b0:	300a0004 	andcc	r0, sl, r4
     1b4:	02089f75 	andeq	r9, r8, #468	; 0x1d4
     1b8:	02180000 	andseq	r0, r8, #0, 0
     1bc:	00040000 	andeq	r0, r4, r0
     1c0:	9fa4100a 	svcls	0x00a4100a
     1c4:	00000238 	andeq	r0, r0, r8, lsr r2
     1c8:	00000248 	andeq	r0, r0, r8, asr #4
     1cc:	f00a0004 			; <UNDEFINED> instruction: 0xf00a0004
     1d0:	00009fd2 	ldrdeq	r9, [r0], -r2
     1d4:	00000000 	andeq	r0, r0, r0
     1d8:	01020000 	mrseq	r0, (UNDEF: 2)
     1dc:	01020102 	tsteq	r2, r2, lsl #2
     1e0:	01020102 	tsteq	r2, r2, lsl #2
     1e4:	00000178 	andeq	r0, r0, r8, ror r1
     1e8:	00000188 	andeq	r0, r0, r8, lsl #3
     1ec:	a8520001 	ldmdage	r2, {r0}^
     1f0:	b8000001 	stmdalt	r0, {r0}
     1f4:	01000001 	tsteq	r0, r1
     1f8:	01d85200 	bicseq	r5, r8, r0, lsl #4
     1fc:	01e80000 	mvneq	r0, r0
     200:	00010000 	andeq	r0, r1, r0
     204:	00020852 	andeq	r0, r2, r2, asr r8
     208:	00021800 	andeq	r1, r2, r0, lsl #16
     20c:	52000100 	andpl	r0, r0, #0
     210:	00000238 	andeq	r0, r0, r8, lsr r2
     214:	00000248 	andeq	r0, r0, r8, asr #4
     218:	00520001 	subseq	r0, r2, r1
     21c:	00000000 	andeq	r0, r0, r0
     220:	01000000 	mrseq	r0, (UNDEF: 0)
     224:	01000100 	mrseq	r0, (UNDEF: 16)
     228:	01000100 	mrseq	r0, (UNDEF: 16)
     22c:	00017c00 	andeq	r7, r1, r0, lsl #24
     230:	00018000 	andeq	r8, r1, r0
     234:	53000100 	movwpl	r0, #256	; 0x100
     238:	000001ac 	andeq	r0, r0, ip, lsr #3
     23c:	000001b0 			; <UNDEFINED> instruction: 0x000001b0
     240:	dc530001 	mrrcle	0, 0, r0, r3, cr1
     244:	e0000001 	and	r0, r0, r1
     248:	01000001 	tsteq	r0, r1
     24c:	020c5300 	andeq	r5, ip, #0, 6
     250:	02100000 	andseq	r0, r0, #0, 0
     254:	00010000 	andeq	r0, r1, r0
     258:	00023c53 	andeq	r3, r2, r3, asr ip
     25c:	00024000 	andeq	r4, r2, r0
     260:	53000100 	movwpl	r0, #256	; 0x100
	...
     274:	017c0000 	cmneq	ip, r0
     278:	01800000 	orreq	r0, r0, r0
     27c:	00010000 	andeq	r0, r1, r0
     280:	0001ac53 	andeq	sl, r1, r3, asr ip
     284:	0001b000 	andeq	fp, r1, r0
     288:	53000100 	movwpl	r0, #256	; 0x100
     28c:	000001dc 	ldrdeq	r0, [r0], -ip
     290:	000001e0 	andeq	r0, r0, r0, ror #3
     294:	0c530001 	mrrceq	0, 0, r0, r3, cr1
     298:	10000002 	andne	r0, r0, r2
     29c:	01000002 	tsteq	r0, r2
     2a0:	023c5300 	eorseq	r5, ip, #0, 6
     2a4:	02400000 	subeq	r0, r0, #0, 0
     2a8:	00010000 	andeq	r0, r1, r0
     2ac:	00000053 	andeq	r0, r0, r3, asr r0
     2b0:	00000000 	andeq	r0, r0, r0
     2b4:	02010200 	andeq	r0, r1, #0, 4
     2b8:	02010201 	andeq	r0, r1, #268435456	; 0x10000000
     2bc:	90010201 	andls	r0, r1, r1, lsl #4
     2c0:	a0000001 	andge	r0, r0, r1
     2c4:	04000001 	streq	r0, [r0], #-1
     2c8:	2ee00a00 	vfmacs.f32	s1, s0, s0
     2cc:	0001c09f 	muleq	r1, pc, r0	; <UNPREDICTABLE>
     2d0:	0001d000 	andeq	sp, r1, r0
     2d4:	0a000400 	beq	12dc <__code_start__-0x6d24>
     2d8:	f09f5dc0 			; <UNDEFINED> instruction: 0xf09f5dc0
     2dc:	00000001 	andeq	r0, r0, r1
     2e0:	04000002 	streq	r0, [r0], #-2
     2e4:	8ca00a00 	vstmiahi	r0!, {s0-s-1}
     2e8:	0002209f 	muleq	r2, pc, r0	; <UNPREDICTABLE>
     2ec:	00023000 	andeq	r3, r2, r0
     2f0:	0a000400 	beq	12f8 <__code_start__-0x6d08>
     2f4:	509fbb80 	addspl	fp, pc, r0, lsl #23
     2f8:	60000002 	andvs	r0, r0, r2
     2fc:	04000002 	streq	r0, [r0], #-2
     300:	ea600a00 	b	1802b08 <__bss_end__+0x17f9088>
     304:	0000009f 	muleq	r0, pc, r0	; <UNPREDICTABLE>
     308:	00000000 	andeq	r0, r0, r0
     30c:	02010200 	andeq	r0, r1, #0, 4
     310:	02010201 	andeq	r0, r1, #268435456	; 0x10000000
     314:	90010201 	andls	r0, r1, r1, lsl #4
     318:	a0000001 	andge	r0, r0, r1
     31c:	01000001 	tsteq	r0, r1
     320:	01c05200 	biceq	r5, r0, r0, lsl #4
     324:	01d00000 	bicseq	r0, r0, r0
     328:	00010000 	andeq	r0, r1, r0
     32c:	0001f052 	andeq	pc, r1, r2, asr r0	; <UNPREDICTABLE>
     330:	00020000 	andeq	r0, r2, r0
     334:	52000100 	andpl	r0, r0, #0
     338:	00000220 	andeq	r0, r0, r0, lsr #4
     33c:	00000230 	andeq	r0, r0, r0, lsr r2
     340:	50520001 	subspl	r0, r2, r1
     344:	60000002 	andvs	r0, r0, r2
     348:	01000002 	tsteq	r0, r2
     34c:	00005200 	andeq	r5, r0, r0, lsl #4
     350:	00000000 	andeq	r0, r0, r0
     354:	00010000 	andeq	r0, r1, r0
     358:	00010001 	andeq	r0, r1, r1
     35c:	00010001 	andeq	r0, r1, r1
     360:	00000194 	muleq	r0, r4, r1
     364:	00000198 	muleq	r0, r8, r1
     368:	c4530001 	ldrbgt	r0, [r3], #-1
     36c:	c8000001 	stmdagt	r0, {r0}
     370:	01000001 	tsteq	r0, r1
     374:	01f45300 	mvnseq	r5, r0, lsl #6
     378:	01f80000 	mvnseq	r0, r0
     37c:	00010000 	andeq	r0, r1, r0
     380:	00022453 	andeq	r2, r2, r3, asr r4
     384:	00022800 	andeq	r2, r2, r0, lsl #16
     388:	53000100 	movwpl	r0, #256	; 0x100
     38c:	00000254 	andeq	r0, r0, r4, asr r2
     390:	00000258 	andeq	r0, r0, r8, asr r2
     394:	00530001 	subseq	r0, r3, r1
	...
     3a8:	00019400 	andeq	r9, r1, r0, lsl #8
     3ac:	00019800 	andeq	r9, r1, r0, lsl #16
     3b0:	53000100 	movwpl	r0, #256	; 0x100
     3b4:	000001c4 	andeq	r0, r0, r4, asr #3
     3b8:	000001c8 	andeq	r0, r0, r8, asr #3
     3bc:	f4530001 			; <UNDEFINED> instruction: 0xf4530001
     3c0:	f8000001 			; <UNDEFINED> instruction: 0xf8000001
     3c4:	01000001 	tsteq	r0, r1
     3c8:	02245300 	eoreq	r5, r4, #0, 6
     3cc:	02280000 	eoreq	r0, r8, #0, 0
     3d0:	00010000 	andeq	r0, r1, r0
     3d4:	00025453 	andeq	r5, r2, r3, asr r4
     3d8:	00025800 	andeq	r5, r2, r0, lsl #16
     3dc:	53000100 	movwpl	r0, #256	; 0x100
	...
     3e8:	01740000 	cmneq	r4, r0
     3ec:	026c0000 	rsbeq	r0, ip, #0, 0
     3f0:	00010000 	andeq	r0, r1, r0
     3f4:	00000052 	andeq	r0, r0, r2, asr r0
     3f8:	00000000 	andeq	r0, r0, r0
     3fc:	64000000 	strvs	r0, [r0], #-0
     400:	74000002 	strvc	r0, [r0], #-2
     404:	01000002 	tsteq	r0, r2
     408:	00005100 	andeq	r5, r0, r0, lsl #2
	...
     418:	00280000 	eoreq	r0, r8, r0
     41c:	00010000 	andeq	r0, r1, r0
     420:	00002850 	andeq	r2, r0, r0, asr r8
     424:	00014400 	andeq	r4, r1, r0, lsl #8
     428:	f3000400 	vshl.u8	d0, d0, d0
     42c:	009f5001 	addseq	r5, pc, r1
	...
     43c:	28000000 	stmdacs	r0, {}	; <UNPREDICTABLE>
     440:	01000001 	tsteq	r0, r1
     444:	01285100 			; <UNDEFINED> instruction: 0x01285100
     448:	01440000 	mrseq	r0, (UNDEF: 68)
     44c:	00040000 	andeq	r0, r4, r0
     450:	9f5101f3 	svcls	0x005101f3
	...
     45c:	01010102 	tsteq	r1, r2, lsl #2
     460:	01000001 	tsteq	r0, r1
     464:	01000001 	tsteq	r0, r1
     468:	01000001 	tsteq	r0, r1
     46c:	01000001 	tsteq	r0, r1
     470:	01000001 	tsteq	r0, r1
     474:	01000001 	tsteq	r0, r1
     478:	01000001 	tsteq	r0, r1
     47c:	01000001 	tsteq	r0, r1
     480:	00000001 	andeq	r0, r0, r1
     484:	00000000 	andeq	r0, r0, r0
     488:	00000014 	andeq	r0, r0, r4, lsl r0
     48c:	9f300002 	svcls	0x00300002
     490:	00000014 	andeq	r0, r0, r4, lsl r0
     494:	00000030 	andeq	r0, r0, r0, lsr r0
     498:	30510001 	subscc	r0, r1, r1
     49c:	48000000 	stmdami	r0, {}	; <UNPREDICTABLE>
     4a0:	01000000 	mrseq	r0, (UNDEF: 0)
     4a4:	00485300 	subeq	r5, r8, r0, lsl #6
     4a8:	004c0000 	subeq	r0, ip, r0
     4ac:	00050000 	andeq	r0, r5, r0
     4b0:	24310071 	ldrtcs	r0, [r1], #-113	; 0xffffff8f
     4b4:	00004c9f 	muleq	r0, pc, ip	; <UNPREDICTABLE>
     4b8:	00006400 	andeq	r6, r0, r0, lsl #8
     4bc:	53000100 	movwpl	r0, #256	; 0x100
     4c0:	00000064 	andeq	r0, r0, r4, rrx
     4c4:	00000068 	andeq	r0, r0, r8, rrx
     4c8:	00710008 	rsbseq	r0, r1, r8
     4cc:	00712431 	rsbseq	r2, r1, r1, lsr r4
     4d0:	00689f22 	rsbeq	r9, r8, r2, lsr #30
     4d4:	00800000 	addeq	r0, r0, r0
     4d8:	00010000 	andeq	r0, r1, r0
     4dc:	00008053 	andeq	r8, r0, r3, asr r0
     4e0:	00008400 	andeq	r8, r0, r0, lsl #8
     4e4:	71000500 	tstvc	r0, r0, lsl #10
     4e8:	9f243200 	svcls	0x00243200
     4ec:	00000084 	andeq	r0, r0, r4, lsl #1
     4f0:	0000009c 	muleq	r0, ip, r0
     4f4:	9c530001 	mrrcls	0, 0, r0, r3, cr1
     4f8:	a0000000 	andge	r0, r0, r0
     4fc:	08000000 	stmdaeq	r0, {}	; <UNPREDICTABLE>
     500:	32007100 	andcc	r7, r0, #0
     504:	22007124 	andcs	r7, r0, #9
     508:	0000a09f 	muleq	r0, pc, r0	; <UNPREDICTABLE>
     50c:	0000b800 	andeq	fp, r0, r0, lsl #16
     510:	53000100 	movwpl	r0, #256	; 0x100
     514:	000000b8 	strheq	r0, [r0], -r8
     518:	000000bc 	strheq	r0, [r0], -ip
     51c:	0071000a 	rsbseq	r0, r1, sl
     520:	00712432 	rsbseq	r2, r1, r2, lsr r4
     524:	9f222431 	svcls	0x00222431
     528:	000000bc 	strheq	r0, [r0], -ip
     52c:	000000d4 	ldrdeq	r0, [r0], -r4
     530:	d4530001 	ldrble	r0, [r3], #-1
     534:	d8000000 	stmdale	r0, {}	; <UNPREDICTABLE>
     538:	0d000000 	stceq	0, cr0, [r0, #-0]
     53c:	32007100 	andcc	r7, r0, #0
     540:	31007124 	tstcc	r0, r4, lsr #2
     544:	00712224 	rsbseq	r2, r1, r4, lsr #4
     548:	00d89f22 	sbcseq	r9, r8, r2, lsr #30
     54c:	00f00000 	rscseq	r0, r0, r0
     550:	00010000 	andeq	r0, r1, r0
     554:	0000f053 	andeq	pc, r0, r3, asr r0	; <UNPREDICTABLE>
     558:	0000f400 	andeq	pc, r0, r0, lsl #8
     55c:	71000500 	tstvc	r0, r0, lsl #10
     560:	9f243300 	svcls	0x00243300
     564:	000000f4 	strdeq	r0, [r0], -r4
     568:	0000010c 	andeq	r0, r0, ip, lsl #2
     56c:	0c530001 	mrrceq	0, 0, r0, r3, cr1
     570:	10000001 	andne	r0, r0, r1
     574:	08000001 	stmdaeq	r0, {r0}
     578:	33007100 	movwcc	r7, #256	; 0x100
     57c:	22007124 	andcs	r7, r0, #9
     580:	0001109f 	muleq	r1, pc, r0	; <UNPREDICTABLE>
     584:	00012800 	andeq	r2, r1, r0, lsl #16
     588:	71000a00 	tstvc	r0, r0, lsl #20
     58c:	71243300 			; <UNDEFINED> instruction: 0x71243300
     590:	22243100 	eorcs	r3, r4, #0
     594:	0001289f 	muleq	r1, pc, r8	; <UNPREDICTABLE>
     598:	00014400 	andeq	r4, r1, r0, lsl #8
     59c:	f3000c00 			; <UNDEFINED> instruction: 0xf3000c00
     5a0:	24335101 	ldrtcs	r5, [r3], #-257	; 0xfffffeff
     5a4:	315101f3 	ldrshcc	r0, [r1, #-19]	; 0xffffffed
     5a8:	009f2224 	addseq	r2, pc, r4, lsr #4
     5ac:	00000000 	andeq	r0, r0, r0
     5b0:	01000000 	mrseq	r0, (UNDEF: 0)
     5b4:	00000400 	andeq	r0, r0, r0, lsl #8
     5b8:	00012c00 	andeq	r2, r1, r0, lsl #24
     5bc:	52000100 	andpl	r0, r0, #0
	...
     5cc:	00000010 	andeq	r0, r0, r0, lsl r0
     5d0:	0000013b 	andeq	r0, r0, fp, lsr r1
     5d4:	3b5c0001 	blcc	17005e0 <__bss_end__+0x16f6b60>
     5d8:	44000001 	strmi	r0, [r0], #-1
     5dc:	06000001 	streq	r0, [r0], -r1
     5e0:	01f33100 	mvnseq	r3, r0, lsl #2
     5e4:	009f2450 	addseq	r2, pc, r0, asr r4	; <UNPREDICTABLE>
     5e8:	00000000 	andeq	r0, r0, r0
     5ec:	01000000 	mrseq	r0, (UNDEF: 0)
     5f0:	00012400 	andeq	r2, r1, r0, lsl #8
     5f4:	00013400 	andeq	r3, r1, r0, lsl #8
     5f8:	53000100 	movwpl	r0, #256	; 0x100
	...
     604:	00040000 	andeq	r0, r4, r0
     608:	012c0000 			; <UNDEFINED> instruction: 0x012c0000
     60c:	00010000 	andeq	r0, r1, r0
     610:	00000052 	andeq	r0, r0, r2, asr r0
     614:	00000000 	andeq	r0, r0, r0
     618:	03030100 	movweq	r0, #12544	; 0x3100
     61c:	03030303 	movweq	r0, #13059	; 0x3303
     620:	03030303 	movweq	r0, #13059	; 0x3303
     624:	00001000 	andeq	r1, r0, r0
     628:	00004000 	andeq	r4, r0, r0
     62c:	30000200 	andcc	r0, r0, r0, lsl #4
     630:	0000409f 	muleq	r0, pc, r0	; <UNPREDICTABLE>
     634:	00007800 	andeq	r7, r0, r0, lsl #16
     638:	31000200 	mrscc	r0, R8_usr
     63c:	0000789f 	muleq	r0, pc, r8	; <UNPREDICTABLE>
     640:	0000b000 	andeq	fp, r0, r0
     644:	32000200 	andcc	r0, r0, #0, 4
     648:	0000b09f 	muleq	r0, pc, r0	; <UNPREDICTABLE>
     64c:	0000e800 	andeq	lr, r0, r0, lsl #16
     650:	33000200 	movwcc	r0, #512	; 0x200
     654:	0000e89f 	muleq	r0, pc, r8	; <UNPREDICTABLE>
     658:	00012000 	andeq	r2, r1, r0
     65c:	34000200 	strcc	r0, [r0], #-512	; 0xfffffe00
     660:	0001209f 	muleq	r1, pc, r0	; <UNPREDICTABLE>
     664:	00014400 	andeq	r4, r1, r0, lsl #8
     668:	35000200 	strcc	r0, [r0, #-512]	; 0xfffffe00
     66c:	0000009f 	muleq	r0, pc, r0	; <UNPREDICTABLE>
     670:	00000000 	andeq	r0, r0, r0
     674:	02010200 	andeq	r0, r1, #0, 4
     678:	02010201 	andeq	r0, r1, #268435456	; 0x10000000
     67c:	14010201 	strne	r0, [r1], #-513	; 0xfffffdff
     680:	24000000 	strcs	r0, [r0], #-0
     684:	01000000 	mrseq	r0, (UNDEF: 0)
     688:	004c5100 	subeq	r5, ip, r0, lsl #2
     68c:	005c0000 	subseq	r0, ip, r0
     690:	00010000 	andeq	r0, r1, r0
     694:	00008453 	andeq	r8, r0, r3, asr r4
     698:	00009400 	andeq	r9, r0, r0, lsl #8
     69c:	53000100 	movwpl	r0, #256	; 0x100
     6a0:	000000bc 	strheq	r0, [r0], -ip
     6a4:	000000cc 	andeq	r0, r0, ip, asr #1
     6a8:	f4530001 			; <UNDEFINED> instruction: 0xf4530001
     6ac:	04000000 	streq	r0, [r0], #-0
     6b0:	01000001 	tsteq	r0, r1
     6b4:	00005300 	andeq	r5, r0, r0, lsl #6
     6b8:	00000000 	andeq	r0, r0, r0
     6bc:	01020000 	mrseq	r0, (UNDEF: 2)
     6c0:	01020102 	tsteq	r2, r2, lsl #2
     6c4:	01020102 	tsteq	r2, r2, lsl #2
     6c8:	00000014 	andeq	r0, r0, r4, lsl r0
     6cc:	00000024 	andeq	r0, r0, r4, lsr #32
     6d0:	4c520001 	mrrcmi	0, 0, r0, r2, cr1
     6d4:	5c000000 	stcpl	0, cr0, [r0], {-0}
     6d8:	01000000 	mrseq	r0, (UNDEF: 0)
     6dc:	00845200 	addeq	r5, r4, r0, lsl #4
     6e0:	00940000 	addseq	r0, r4, r0
     6e4:	00010000 	andeq	r0, r1, r0
     6e8:	0000bc52 	andeq	fp, r0, r2, asr ip
     6ec:	0000cc00 	andeq	ip, r0, r0, lsl #24
     6f0:	52000100 	andpl	r0, r0, #0
     6f4:	000000f4 	strdeq	r0, [r0], -r4
     6f8:	00000104 	andeq	r0, r0, r4, lsl #2
     6fc:	00520001 	subseq	r0, r2, r1
     700:	00000000 	andeq	r0, r0, r0
     704:	01000000 	mrseq	r0, (UNDEF: 0)
     708:	01000100 	mrseq	r0, (UNDEF: 16)
     70c:	01000100 	mrseq	r0, (UNDEF: 16)
     710:	00001800 	andeq	r1, r0, r0, lsl #16
     714:	00001c00 	andeq	r1, r0, r0, lsl #24
     718:	53000100 	movwpl	r0, #256	; 0x100
     71c:	00000050 	andeq	r0, r0, r0, asr r0
     720:	00000054 	andeq	r0, r0, r4, asr r0
     724:	88500001 	ldmdahi	r0, {r0}^
     728:	8c000000 	stchi	0, cr0, [r0], {-0}
     72c:	01000000 	mrseq	r0, (UNDEF: 0)
     730:	00c05000 	sbceq	r5, r0, r0
     734:	00c40000 	sbceq	r0, r4, r0
     738:	00010000 	andeq	r0, r1, r0
     73c:	0000f850 	andeq	pc, r0, r0, asr r8	; <UNPREDICTABLE>
     740:	0000fc00 	andeq	pc, r0, r0, lsl #24
     744:	50000100 	andpl	r0, r0, r0, lsl #2
	...
     758:	00180000 	andseq	r0, r8, r0
     75c:	001c0000 	andseq	r0, ip, r0
     760:	00010000 	andeq	r0, r1, r0
     764:	00005053 	andeq	r5, r0, r3, asr r0
     768:	00005400 	andeq	r5, r0, r0, lsl #8
     76c:	50000100 	andpl	r0, r0, r0, lsl #2
     770:	00000088 	andeq	r0, r0, r8, lsl #1
     774:	0000008c 	andeq	r0, r0, ip, lsl #1
     778:	c0500001 	subsgt	r0, r0, r1
     77c:	c4000000 	strgt	r0, [r0], #-0
     780:	01000000 	mrseq	r0, (UNDEF: 0)
     784:	00f85000 	rscseq	r5, r8, r0
     788:	00fc0000 	rscseq	r0, ip, r0
     78c:	00010000 	andeq	r0, r1, r0
     790:	00000050 	andeq	r0, r0, r0, asr r0
     794:	00000000 	andeq	r0, r0, r0
     798:	02010200 	andeq	r0, r1, #0, 4
     79c:	02010201 	andeq	r0, r1, #268435456	; 0x10000000
     7a0:	30010201 	andcc	r0, r1, r1, lsl #4
     7a4:	40000000 	andmi	r0, r0, r0
     7a8:	01000000 	mrseq	r0, (UNDEF: 0)
     7ac:	00685300 	rsbeq	r5, r8, r0, lsl #6
     7b0:	00780000 	rsbseq	r0, r8, r0
     7b4:	00010000 	andeq	r0, r1, r0
     7b8:	0000a053 	andeq	sl, r0, r3, asr r0
     7bc:	0000b000 	andeq	fp, r0, r0
     7c0:	53000100 	movwpl	r0, #256	; 0x100
     7c4:	000000d8 	ldrdeq	r0, [r0], -r8
     7c8:	000000e8 	andeq	r0, r0, r8, ror #1
     7cc:	10530001 	subsne	r0, r3, r1
     7d0:	20000001 	andcs	r0, r0, r1
     7d4:	0a000001 	beq	7e0 <__code_start__-0x7820>
     7d8:	33007100 	movwcc	r7, #256	; 0x100
     7dc:	31007124 	tstcc	r0, r4, lsr #2
     7e0:	009f2224 	addseq	r2, pc, r4, lsr #4
     7e4:	00000000 	andeq	r0, r0, r0
     7e8:	02000000 	andeq	r0, r0, #0, 0
     7ec:	02010201 	andeq	r0, r1, #268435456	; 0x10000000
     7f0:	02010201 	andeq	r0, r1, #268435456	; 0x10000000
     7f4:	00003001 	andeq	r3, r0, r1
     7f8:	00004000 	andeq	r4, r0, r0
     7fc:	52000100 	andpl	r0, r0, #0
     800:	00000068 	andeq	r0, r0, r8, rrx
     804:	00000078 	andeq	r0, r0, r8, ror r0
     808:	a0520001 	subsge	r0, r2, r1
     80c:	b0000000 	andlt	r0, r0, r0
     810:	01000000 	mrseq	r0, (UNDEF: 0)
     814:	00d85200 	sbcseq	r5, r8, r0, lsl #4
     818:	00e80000 	rsceq	r0, r8, r0
     81c:	00010000 	andeq	r0, r1, r0
     820:	00011052 	andeq	r1, r1, r2, asr r0
     824:	00012000 	andeq	r2, r1, r0
     828:	52000100 	andpl	r0, r0, #0
	...
     834:	00010001 	andeq	r0, r1, r1
     838:	00010001 	andeq	r0, r1, r1
     83c:	00340001 	eorseq	r0, r4, r1
     840:	00380000 	eorseq	r0, r8, r0
     844:	00010000 	andeq	r0, r1, r0
     848:	00006c50 	andeq	r6, r0, r0, asr ip
     84c:	00007000 	andeq	r7, r0, r0
     850:	50000100 	andpl	r0, r0, r0, lsl #2
     854:	000000a4 	andeq	r0, r0, r4, lsr #1
     858:	000000a8 	andeq	r0, r0, r8, lsr #1
     85c:	dc500001 	mrrcle	0, 0, r0, r0, cr1	; <UNPREDICTABLE>
     860:	e0000000 	and	r0, r0, r0
     864:	01000000 	mrseq	r0, (UNDEF: 0)
     868:	01145000 	tsteq	r4, r0
     86c:	01180000 	tsteq	r8, r0
     870:	00010000 	andeq	r0, r1, r0
     874:	00000050 	andeq	r0, r0, r0, asr r0
	...
     884:	34000000 	strcc	r0, [r0], #-0
     888:	38000000 	stmdacc	r0, {}	; <UNPREDICTABLE>
     88c:	01000000 	mrseq	r0, (UNDEF: 0)
     890:	006c5000 	rsbeq	r5, ip, r0
     894:	00700000 	rsbseq	r0, r0, r0
     898:	00010000 	andeq	r0, r1, r0
     89c:	0000a450 	andeq	sl, r0, r0, asr r4
     8a0:	0000a800 	andeq	sl, r0, r0, lsl #16
     8a4:	50000100 	andpl	r0, r0, r0, lsl #2
     8a8:	000000dc 	ldrdeq	r0, [r0], -ip
     8ac:	000000e0 	andeq	r0, r0, r0, ror #1
     8b0:	14500001 	ldrbne	r0, [r0], #-1
     8b4:	18000001 	stmdane	r0, {r0}
     8b8:	01000001 	tsteq	r0, r1
     8bc:	00005000 	andeq	r5, r0, r0
	...
     8c8:	00000124 	andeq	r0, r0, r4, lsr #2
     8cc:	00000134 	andeq	r0, r0, r4, lsr r1
     8d0:	00530001 	subseq	r0, r3, r1
	...
     8e0:	00002c00 	andeq	r2, r0, r0, lsl #24
     8e4:	00003400 	andeq	r3, r0, r0, lsl #8
     8e8:	50000100 	andpl	r0, r0, r0, lsl #2
     8ec:	00000034 	andeq	r0, r0, r4, lsr r0
     8f0:	00000048 	andeq	r0, r0, r8, asr #32
     8f4:	48540001 	ldmdami	r4, {r0}^
     8f8:	58000000 	stmdapl	r0, {}	; <UNPREDICTABLE>
     8fc:	01000000 	mrseq	r0, (UNDEF: 0)
     900:	00005000 	andeq	r5, r0, r0
	...
     90c:	00010100 	andeq	r0, r1, r0, lsl #2
     910:	00000000 	andeq	r0, r0, r0
     914:	000c0000 	andeq	r0, ip, r0
     918:	00010000 	andeq	r0, r1, r0
     91c:	00000c50 	andeq	r0, r0, r0, asr ip
     920:	00002000 	andeq	r2, r0, r0
     924:	54000100 	strpl	r0, [r0], #-256	; 0xffffff00
     928:	00000020 	andeq	r0, r0, r0, lsr #32
     92c:	00000024 	andeq	r0, r0, r4, lsr #32
     930:	01740003 	cmneq	r4, r3
     934:	0000249f 	muleq	r0, pc, r4	; <UNPREDICTABLE>
     938:	00003800 	andeq	r3, r0, r0, lsl #16
     93c:	54000100 	strpl	r0, [r0], #-256	; 0xffffff00
	...
     950:	03880000 	orreq	r0, r8, #0, 0
     954:	03940000 	orrseq	r0, r4, #0, 0
     958:	00010000 	andeq	r0, r1, r0
     95c:	00039450 	andeq	r9, r3, r0, asr r4
     960:	0003d000 	andeq	sp, r3, r0
     964:	5b000100 	blpl	d6c <__code_start__-0x7294>
     968:	000003d0 	ldrdeq	r0, [r0], -r0	; <UNPREDICTABLE>
     96c:	00000920 	andeq	r0, r0, r0, lsr #18
     970:	01f30004 	mvnseq	r0, r4
     974:	09209f50 	stmdbeq	r0!, {r4, r6, r8, r9, sl, fp, ip, pc}
     978:	09280000 	stmdbeq	r8!, {}	; <UNPREDICTABLE>
     97c:	00010000 	andeq	r0, r1, r0
     980:	0009285b 	andeq	r2, r9, fp, asr r8
     984:	0009b400 	andeq	fp, r9, r0, lsl #8
     988:	f3000400 	vshl.u8	d0, d0, d0
     98c:	009f5001 	addseq	r5, pc, r1
	...
     99c:	88000000 	stmdahi	r0, {}	; <UNPREDICTABLE>
     9a0:	d0000003 	andle	r0, r0, r3
     9a4:	01000003 	tsteq	r0, r3
     9a8:	03d05100 	bicseq	r5, r0, #0
     9ac:	09200000 	stmdbeq	r0!, {}	; <UNPREDICTABLE>
     9b0:	00040000 	andeq	r0, r4, r0
     9b4:	9f5101f3 	svcls	0x005101f3
     9b8:	00000920 	andeq	r0, r0, r0, lsr #18
     9bc:	00000928 	andeq	r0, r0, r8, lsr #18
     9c0:	28510001 	ldmdacs	r1, {r0}^
     9c4:	b4000009 	strlt	r0, [r0], #-9
     9c8:	04000009 	streq	r0, [r0], #-9
     9cc:	5101f300 	mrspl	pc, SP_irq	; <UNPREDICTABLE>
     9d0:	0000009f 	muleq	r0, pc, r0	; <UNPREDICTABLE>
	...
     9e0:	01000001 	tsteq	r0, r1
	...
     9f0:	00038800 	andeq	r8, r3, r0, lsl #16
     9f4:	0003d000 	andeq	sp, r3, r0
     9f8:	52000100 	andpl	r0, r0, #0
     9fc:	000003d0 	ldrdeq	r0, [r0], -r0	; <UNPREDICTABLE>
     a00:	00000400 	andeq	r0, r0, r0, lsl #8
     a04:	14560001 	ldrbne	r0, [r6], #-1
     a08:	24000004 	strcs	r0, [r0], #-4
     a0c:	01000004 	tsteq	r0, r4
     a10:	04245600 	strteq	r5, [r4], #-1536	; 0xfffffa00
     a14:	04280000 	strteq	r0, [r8], #-0
     a18:	00030000 	andeq	r0, r3, r0
     a1c:	a89f7f76 	ldmge	pc, {r1, r2, r4, r5, r6, r8, r9, sl, fp, ip, sp, lr}	; <UNPREDICTABLE>
     a20:	ac000004 	stcge	0, cr0, [r0], {4}
     a24:	01000004 	tsteq	r0, r4
     a28:	04e05600 	strbteq	r5, [r0], #1536	; 0x600
     a2c:	05040000 	streq	r0, [r4, #-0]
     a30:	00010000 	andeq	r0, r1, r0
     a34:	00057c56 	andeq	r7, r5, r6, asr ip
     a38:	00058800 	andeq	r8, r5, r0, lsl #16
     a3c:	53000100 	movwpl	r0, #256	; 0x100
     a40:	00000588 	andeq	r0, r0, r8, lsl #11
     a44:	000005d0 	ldrdeq	r0, [r0], -r0	; <UNPREDICTABLE>
     a48:	cc910003 	ldcgt	0, cr0, [r1], {3}
     a4c:	0008007d 	andeq	r0, r8, sp, ror r0
     a50:	00080f00 	andeq	r0, r8, r0, lsl #30
     a54:	53000100 	movwpl	r0, #256	; 0x100
     a58:	0000080f 	andeq	r0, r0, pc, lsl #16
     a5c:	00000888 	andeq	r0, r0, r8, lsl #17
     a60:	cc910003 	ldcgt	0, cr0, [r1], {3}
     a64:	0009207d 	andeq	r2, r9, sp, ror r0
     a68:	00092800 	andeq	r2, r9, r0, lsl #16
     a6c:	52000100 	andpl	r0, r0, #0
     a70:	00000948 	andeq	r0, r0, r8, asr #18
     a74:	00000964 	andeq	r0, r0, r4, ror #18
     a78:	cc910003 	ldcgt	0, cr0, [r1], {3}
     a7c:	0000007d 	andeq	r0, r0, sp, ror r0
	...
     a90:	00000101 	andeq	r0, r0, r1, lsl #2
     a94:	00000101 	andeq	r0, r0, r1, lsl #2
     a98:	02020000 	andeq	r0, r2, #0, 0
     a9c:	02020000 	andeq	r0, r2, #0, 0
     aa0:	01010000 	mrseq	r0, (UNDEF: 1)
     aa4:	02020000 	andeq	r0, r2, #0, 0
     aa8:	01010000 	mrseq	r0, (UNDEF: 1)
	...
     ab4:	00038800 	andeq	r8, r3, r0, lsl #16
     ab8:	0003ac00 	andeq	sl, r3, r0, lsl #24
     abc:	53000100 	movwpl	r0, #256	; 0x100
     ac0:	000003ac 	andeq	r0, r0, ip, lsr #7
     ac4:	000003c0 	andeq	r0, r0, r0, asr #7
     ac8:	93530003 	cmpls	r3, #3, 0
     acc:	0003d004 	andeq	sp, r3, r4
     ad0:	0003e800 	andeq	lr, r3, r0, lsl #16
     ad4:	58000300 	stmdapl	r0, {r8, r9}
     ad8:	03e80493 	mvneq	r0, #-1828716544	; 0x93000000
     adc:	04ac0000 	strteq	r0, [ip], #0
     ae0:	00030000 	andeq	r0, r3, r0
     ae4:	ac049358 	stcge	3, cr9, [r4], {88}	; 0x58
     ae8:	b0000004 	andlt	r0, r0, r4
     aec:	01000004 	tsteq	r0, r4
     af0:	04c05300 	strbeq	r5, [r0], #768	; 0x300
     af4:	04c00000 	strbeq	r0, [r0], #0
     af8:	00030000 	andeq	r0, r3, r0
     afc:	c0049358 	andgt	r9, r4, r8, asr r3
     b00:	cc000004 	stcgt	0, cr0, [r0], {4}
     b04:	05000004 	streq	r0, [r0, #-4]
     b08:	9f047800 	svcls	0x00047800
     b0c:	04cc0493 	strbeq	r0, [ip], #1171	; 0x493
     b10:	04e00000 	strbteq	r0, [r0], #0
     b14:	00030000 	andeq	r0, r3, r0
     b18:	e0049358 	and	r9, r4, r8, asr r3
     b1c:	38000004 	stmdacc	r0, {r2}
     b20:	03000005 	movweq	r0, #5
     b24:	04935800 	ldreq	r5, [r3], #2048	; 0x800
     b28:	00000538 	andeq	r0, r0, r8, lsr r5
     b2c:	0000053c 	andeq	r0, r0, ip, lsr r5
     b30:	79780005 	ldmdbvc	r8!, {r0, r2}^
     b34:	d004939f 	mulle	r4, pc, r3	; <UNPREDICTABLE>
     b38:	d0000005 	andle	r0, r0, r5
     b3c:	03000005 	movweq	r0, #5
     b40:	04935800 	ldreq	r5, [r3], #2048	; 0x800
     b44:	000005d0 	ldrdeq	r0, [r0], -r0	; <UNPREDICTABLE>
     b48:	000005d4 	ldrdeq	r0, [r0], -r4
     b4c:	04780005 	ldrbteq	r0, [r8], #-5
     b50:	f404939f 	vst2.32	{d9-d12}, [r4 :64]
     b54:	f4000005 	vst4.8	{d0-d3}, [r0], r5
     b58:	03000005 	movweq	r0, #5
     b5c:	04935800 	ldreq	r5, [r3], #2048	; 0x800
     b60:	000005f4 	strdeq	r0, [r0], -r4
     b64:	000005fc 	strdeq	r0, [r0], -ip
     b68:	04780005 	ldrbteq	r0, [r8], #-5
     b6c:	fc04939f 	stc2	3, cr9, [r4], {159}	; 0x9f
     b70:	fc000005 	stc2	0, cr0, [r0], {5}
     b74:	03000005 	movweq	r0, #5
     b78:	04935800 	ldreq	r5, [r3], #2048	; 0x800
     b7c:	000005fc 	strdeq	r0, [r0], -ip
     b80:	00000600 	andeq	r0, r0, r0, lsl #12
     b84:	04780005 	ldrbteq	r0, [r8], #-5
     b88:	0004939f 	muleq	r4, pc, r3	; <UNPREDICTABLE>
     b8c:	00000006 	andeq	r0, r0, r6
     b90:	03000007 	movweq	r0, #7
     b94:	04935800 	ldreq	r5, [r3], #2048	; 0x800
     b98:	00000700 	andeq	r0, r0, r0, lsl #14
     b9c:	0000070c 	andeq	r0, r0, ip, lsl #14
     ba0:	04780005 	ldrbteq	r0, [r8], #-5
     ba4:	0c04939f 	stceq	3, cr9, [r4], {159}	; 0x9f
     ba8:	f8000007 			; <UNDEFINED> instruction: 0xf8000007
     bac:	03000007 	movweq	r0, #7
     bb0:	04935800 	ldreq	r5, [r3], #2048	; 0x800
     bb4:	000007f8 	strdeq	r0, [r0], -r8
     bb8:	000007fc 	strdeq	r0, [r0], -ip
     bbc:	04780005 	ldrbteq	r0, [r8], #-5
     bc0:	fc04939f 	stc2	3, cr9, [r4], {159}	; 0x9f
     bc4:	00000007 	andeq	r0, r0, r7
     bc8:	03000008 	movweq	r0, #8
     bcc:	04935800 	ldreq	r5, [r3], #2048	; 0x800
     bd0:	00000888 	andeq	r0, r0, r8, lsl #17
     bd4:	00000920 	andeq	r0, r0, r0, lsr #18
     bd8:	93580003 	cmpls	r8, #3, 0
     bdc:	00092004 	andeq	r2, r9, r4
     be0:	00092800 	andeq	r2, r9, r0, lsl #16
     be4:	53000100 	movwpl	r0, #256	; 0x100
     be8:	00000964 	andeq	r0, r0, r4, ror #18
     bec:	000009b4 			; <UNDEFINED> instruction: 0x000009b4
     bf0:	93580003 	cmpls	r8, #3, 0
     bf4:	00000004 	andeq	r0, r0, r4
     bf8:	00000000 	andeq	r0, r0, r0
     bfc:	00000100 	andeq	r0, r0, r0, lsl #2
     c00:	00000000 	andeq	r0, r0, r0
     c04:	02020000 	andeq	r0, r2, #0, 0
     c08:	01000000 	mrseq	r0, (UNDEF: 0)
     c0c:	00000101 	andeq	r0, r0, r1, lsl #2
     c10:	ac000000 	stcge	0, cr0, [r0], {-0}
     c14:	d0000003 	andle	r0, r0, r3
     c18:	01000003 	tsteq	r0, r3
     c1c:	03d05b00 	bicseq	r5, r0, #0, 22
     c20:	03d40000 	bicseq	r0, r4, #0, 0
     c24:	00010000 	andeq	r0, r1, r0
     c28:	0003d454 	andeq	sp, r3, r4, asr r4
     c2c:	0003d800 	andeq	sp, r3, r0, lsl #16
     c30:	74000300 	strvc	r0, [r0], #-768	; 0xfffffd00
     c34:	03d89f7f 	bicseq	r9, r8, #508	; 0x1fc
     c38:	03fc0000 	mvnseq	r0, #0, 0
     c3c:	00010000 	andeq	r0, r1, r0
     c40:	0004a854 	andeq	sl, r4, r4, asr r8
     c44:	0004ac00 	andeq	sl, r4, r0, lsl #24
     c48:	54000100 	strpl	r0, [r0], #-256	; 0xffffff00
     c4c:	000004ac 	andeq	r0, r0, ip, lsr #9
     c50:	000004b4 			; <UNDEFINED> instruction: 0x000004b4
     c54:	01740003 	cmneq	r4, r3
     c58:	0004b49f 	muleq	r4, pc, r4	; <UNPREDICTABLE>
     c5c:	0004c000 	andeq	ip, r4, r0
     c60:	54000100 	strpl	r0, [r0], #-256	; 0xffffff00
     c64:	000004e4 	andeq	r0, r0, r4, ror #9
     c68:	000004f4 	strdeq	r0, [r0], -r4
     c6c:	f4540001 			; <UNDEFINED> instruction: 0xf4540001
     c70:	f8000004 			; <UNDEFINED> instruction: 0xf8000004
     c74:	03000004 	movweq	r0, #4
     c78:	9f017400 	svcls	0x00017400
     c7c:	000004f8 	strdeq	r0, [r0], -r8
     c80:	00000504 	andeq	r0, r0, r4, lsl #10
     c84:	20540001 	subscs	r0, r4, r1
     c88:	28000009 	stmdacs	r0, {r0, r3}
     c8c:	01000009 	tsteq	r0, r9
     c90:	00005b00 	andeq	r5, r0, r0, lsl #22
     c94:	00000000 	andeq	r0, r0, r0
     c98:	00010000 	andeq	r0, r1, r0
     c9c:	000003ac 	andeq	r0, r0, ip, lsr #7
     ca0:	000009b4 			; <UNDEFINED> instruction: 0x000009b4
     ca4:	00570001 	subseq	r0, r7, r1
     ca8:	00000000 	andeq	r0, r0, r0
     cac:	02000000 	andeq	r0, r0, #0, 0
     cb0:	00000000 	andeq	r0, r0, r0
     cb4:	00057c00 	andeq	r7, r5, r0, lsl #24
     cb8:	0005d000 	andeq	sp, r5, r0
     cbc:	5b000100 	blpl	10c4 <__code_start__-0x6f3c>
     cc0:	00000800 	andeq	r0, r0, r0, lsl #16
     cc4:	00000888 	andeq	r0, r0, r8, lsl #17
     cc8:	485b0001 	ldmdami	fp, {r0}^
     ccc:	64000009 	strvs	r0, [r0], #-9
     cd0:	01000009 	tsteq	r0, r9
     cd4:	00005b00 	andeq	r5, r0, r0, lsl #22
     cd8:	00000000 	andeq	r0, r0, r0
     cdc:	00030000 	andeq	r0, r3, r0
     ce0:	00000000 	andeq	r0, r0, r0
     ce4:	0000057c 	andeq	r0, r0, ip, ror r5
     ce8:	000005d0 	ldrdeq	r0, [r0], -r0	; <UNPREDICTABLE>
     cec:	00590001 	subseq	r0, r9, r1
     cf0:	88000008 	stmdahi	r0, {r3}
     cf4:	01000008 	tsteq	r0, r8
     cf8:	09485900 	stmdbeq	r8, {r8, fp, ip, lr}^
     cfc:	09640000 	stmdbeq	r4!, {}^	; <UNPREDICTABLE>
     d00:	00010000 	andeq	r0, r1, r0
     d04:	00000059 	andeq	r0, r0, r9, asr r0
     d08:	00000000 	andeq	r0, r0, r0
     d0c:	00000400 	andeq	r0, r0, r0, lsl #8
     d10:	00000000 	andeq	r0, r0, r0
     d14:	0003ac00 	andeq	sl, r3, r0, lsl #24
     d18:	0003d000 	andeq	sp, r3, r0
     d1c:	52000100 	andpl	r0, r0, #0
     d20:	000003d0 	ldrdeq	r0, [r0], -r0	; <UNPREDICTABLE>
     d24:	00000920 	andeq	r0, r0, r0, lsr #18
     d28:	01f30004 	mvnseq	r0, r4
     d2c:	09209f52 	stmdbeq	r0!, {r1, r4, r6, r8, r9, sl, fp, ip, pc}
     d30:	09280000 	stmdbeq	r8!, {}	; <UNPREDICTABLE>
     d34:	00010000 	andeq	r0, r1, r0
     d38:	00092852 	andeq	r2, r9, r2, asr r8
     d3c:	0009b400 	andeq	fp, r9, r0, lsl #8
     d40:	f3000400 	vshl.u8	d0, d0, d0
     d44:	009f5201 	addseq	r5, pc, r1, lsl #4
	...
     d50:	00000101 	andeq	r0, r0, r1, lsl #2
     d54:	01000000 	mrseq	r0, (UNDEF: 0)
     d58:	e0000000 	and	r0, r0, r0
     d5c:	e0000004 	and	r0, r0, r4
     d60:	01000004 	tsteq	r0, r4
     d64:	04e05000 	strbteq	r5, [r0], #0
     d68:	04e80000 	strbteq	r0, [r8], #0
     d6c:	00010000 	andeq	r0, r1, r0
     d70:	0005b855 	andeq	fp, r5, r5, asr r8
     d74:	0005d000 	andeq	sp, r5, r0
     d78:	55000100 	strpl	r0, [r0, #-256]	; 0xffffff00
     d7c:	000005f0 	strdeq	r0, [r0], -r0	; <UNPREDICTABLE>
     d80:	000005f4 	strdeq	r0, [r0], -r4
     d84:	f4500001 			; <UNDEFINED> instruction: 0xf4500001
     d88:	f8000007 			; <UNDEFINED> instruction: 0xf8000007
     d8c:	01000007 	tsteq	r0, r7
     d90:	08505500 	ldmdaeq	r0, {r8, sl, ip, lr}^
     d94:	08880000 	stmeq	r8, {}	; <UNPREDICTABLE>
     d98:	00010000 	andeq	r0, r1, r0
     d9c:	00000055 	andeq	r0, r0, r5, asr r0
     da0:	00000000 	andeq	r0, r0, r0
     da4:	00000200 	andeq	r0, r0, r0, lsl #4
     da8:	00000000 	andeq	r0, r0, r0
     dac:	00041400 	andeq	r1, r4, r0, lsl #8
     db0:	00041800 	andeq	r1, r4, r0, lsl #16
     db4:	30000200 	andcc	r0, r0, r0, lsl #4
     db8:	0004189f 	muleq	r4, pc, r8	; <UNPREDICTABLE>
     dbc:	00041c00 	andeq	r1, r4, r0, lsl #24
     dc0:	55000100 	strpl	r0, [r0, #-256]	; 0xffffff00
     dc4:	00000428 	andeq	r0, r0, r8, lsr #8
     dc8:	0000043c 	andeq	r0, r0, ip, lsr r4
     dcc:	28550001 	ldmdacs	r5, {r0}^
     dd0:	30000009 	andcc	r0, r0, r9
     dd4:	01000009 	tsteq	r0, r9
     dd8:	00005500 	andeq	r5, r0, r0, lsl #10
     ddc:	00000000 	andeq	r0, r0, r0
     de0:	00010000 	andeq	r0, r1, r0
	...
     dec:	05040000 	streq	r0, [r4, #-0]
     df0:	05840000 	streq	r0, [r4]
     df4:	00010000 	andeq	r0, r1, r0
     df8:	00058456 	andeq	r8, r5, r6, asr r4
     dfc:	00058800 	andeq	r8, r5, r0, lsl #16
     e00:	73000300 	movwvc	r0, #768	; 0x300
     e04:	05889f7e 	streq	r9, [r8, #3966]	; 0xf7e
     e08:	05d00000 	ldrbeq	r0, [r0]
     e0c:	00070000 	andeq	r0, r7, r0
     e10:	067dcc91 			; <UNDEFINED> instruction: 0x067dcc91
     e14:	009f1c32 	addseq	r1, pc, r2, lsr ip	; <UNPREDICTABLE>
     e18:	1c000008 	stcne	0, cr0, [r0], {8}
     e1c:	01000008 	tsteq	r0, r8
     e20:	081c5600 	ldmdaeq	ip, {r9, sl, ip, lr}
     e24:	08880000 	stmeq	r8, {}	; <UNPREDICTABLE>
     e28:	00070000 	andeq	r0, r7, r0
     e2c:	067dcc91 			; <UNDEFINED> instruction: 0x067dcc91
     e30:	489f1c32 	ldmmi	pc, {r1, r4, r5, sl, fp, ip}	; <UNPREDICTABLE>
     e34:	b4000009 	strlt	r0, [r0], #-9
     e38:	01000009 	tsteq	r0, r9
     e3c:	00005600 	andeq	r5, r0, r0, lsl #12
     e40:	00000000 	andeq	r0, r0, r0
     e44:	06040000 	streq	r0, [r4], -r0
     e48:	04140402 	ldreq	r0, [r4], #-1026	; 0xfffffbfe
     e4c:	04140000 	ldreq	r0, [r4], #-0
     e50:	00060000 	andeq	r0, r6, r0
     e54:	ff080072 			; <UNDEFINED> instruction: 0xff080072
     e58:	04289f1a 	strteq	r9, [r8], #-3866	; 0xfffff0e6
     e5c:	04280000 	strteq	r0, [r8], #-0
     e60:	00060000 	andeq	r0, r6, r0
     e64:	ff080072 			; <UNDEFINED> instruction: 0xff080072
     e68:	00009f1a 	andeq	r9, r0, sl, lsl pc
     e6c:	00000000 	andeq	r0, r0, r0
     e70:	00020000 	andeq	r0, r2, r0
     e74:	00000000 	andeq	r0, r0, r0
     e78:	000005fc 	strdeq	r0, [r0], -ip
     e7c:	00000700 	andeq	r0, r0, r0, lsl #14
     e80:	80080003 	andhi	r0, r8, r3
     e84:	0008a89f 	muleq	r8, pc, r8	; <UNPREDICTABLE>
     e88:	0008bc00 	andeq	fp, r8, r0, lsl #24
     e8c:	08000300 	stmdaeq	r0, {r8, r9}
     e90:	09109f80 	ldmdbeq	r0, {r7, r8, r9, sl, fp, ip, pc}
     e94:	09200000 	stmdbeq	r0!, {}	; <UNPREDICTABLE>
     e98:	00030000 	andeq	r0, r3, r0
     e9c:	009f8008 	addseq	r8, pc, r8
     ea0:	00000000 	andeq	r0, r0, r0
     ea4:	01000000 	mrseq	r0, (UNDEF: 0)
     ea8:	00000000 	andeq	r0, r0, r0
     eac:	0005fc00 	andeq	pc, r5, r0, lsl #24
     eb0:	00070000 	andeq	r0, r7, r0
     eb4:	30000200 	andcc	r0, r0, r0, lsl #4
     eb8:	0008a89f 	muleq	r8, pc, r8	; <UNPREDICTABLE>
     ebc:	0008bc00 	andeq	fp, r8, r0, lsl #24
     ec0:	30000200 	andcc	r0, r0, r0, lsl #4
     ec4:	0009109f 	muleq	r9, pc, r0	; <UNPREDICTABLE>
     ec8:	00092000 	andeq	r2, r9, r0
     ecc:	30000200 	andcc	r0, r0, r0, lsl #4
     ed0:	0000009f 	muleq	r0, pc, r0	; <UNPREDICTABLE>
     ed4:	00000000 	andeq	r0, r0, r0
     ed8:	00000100 	andeq	r0, r0, r0, lsl #2
     edc:	fc000000 	stc2	0, cr0, [r0], {-0}
     ee0:	e0000005 	and	r0, r0, r5
     ee4:	01000006 	tsteq	r0, r6
     ee8:	08a85500 	stmiaeq	r8!, {r8, sl, ip, lr}
     eec:	08bc0000 	ldmeq	ip!, {}	; <UNPREDICTABLE>
     ef0:	00010000 	andeq	r0, r1, r0
     ef4:	00091055 	andeq	r1, r9, r5, asr r0
     ef8:	00092000 	andeq	r2, r9, r0
     efc:	55000100 	strpl	r0, [r0, #-256]	; 0xffffff00
	...
     f08:	00000001 	andeq	r0, r0, r1
     f0c:	00000000 	andeq	r0, r0, r0
     f10:	000005fc 	strdeq	r0, [r0], -ip
     f14:	000006e0 	andeq	r0, r0, r0, ror #13
     f18:	d0910004 	addsle	r0, r1, r4
     f1c:	06e09f7d 			; <UNDEFINED> instruction: 0x06e09f7d
     f20:	07000000 	streq	r0, [r0, -r0]
     f24:	00010000 	andeq	r0, r1, r0
     f28:	0008a855 	andeq	sl, r8, r5, asr r8
     f2c:	0008bc00 	andeq	fp, r8, r0, lsl #24
     f30:	91000400 	tstls	r0, r0, lsl #8
     f34:	109f7dd0 			; <UNDEFINED> instruction: 0x109f7dd0
     f38:	20000009 	andcs	r0, r0, r9
     f3c:	04000009 	streq	r0, [r0], #-9
     f40:	7dd09100 	ldfvcp	f1, [r0]
     f44:	0000009f 	muleq	r0, pc, r0	; <UNPREDICTABLE>
     f48:	00000000 	andeq	r0, r0, r0
     f4c:	00000100 	andeq	r0, r0, r0, lsl #2
     f50:	fc000000 	stc2	0, cr0, [r0], {-0}
     f54:	00000005 	andeq	r0, r0, r5
     f58:	02000007 	andeq	r0, r0, #7, 0
     f5c:	a89f3800 	ldmge	pc, {fp, ip, sp}	; <UNPREDICTABLE>
     f60:	bc000008 	stclt	0, cr0, [r0], {8}
     f64:	02000008 	andeq	r0, r0, #8, 0
     f68:	109f3800 	addsne	r3, pc, r0, lsl #16
     f6c:	20000009 	andcs	r0, r0, r9
     f70:	02000009 	andeq	r0, r0, #9, 0
     f74:	009f3800 	addseq	r3, pc, r0, lsl #16
     f78:	00000000 	andeq	r0, r0, r0
     f7c:	04000000 	streq	r0, [r0], #-0
     f80:	00000707 	andeq	r0, r0, r7, lsl #14
	...
     f8c:	0005fc00 	andeq	pc, r5, r0, lsl #24
     f90:	0005fc00 	andeq	pc, r5, r0, lsl #24
     f94:	91000400 	tstls	r0, r0, lsl #8
     f98:	fc9f7ed0 	ldc2	14, cr7, [pc], {208}	; 0xd0
     f9c:	78000005 	stmdavc	r0, {r0, r2}
     fa0:	04000006 	streq	r0, [r0], #-6
     fa4:	7ed19100 	atnvcs	f1, f0
     fa8:	0006789f 	muleq	r6, pc, r8	; <UNPREDICTABLE>
     fac:	0006d400 	andeq	sp, r6, r0, lsl #8
     fb0:	5c000100 	stfpls	f0, [r0], {-0}
     fb4:	000006d4 	ldrdeq	r0, [r0], -r4
     fb8:	00000700 	andeq	r0, r0, r0, lsl #14
     fbc:	d1910004 	orrsle	r0, r1, r4
     fc0:	08a89f7e 	stmiaeq	r8!, {r1, r2, r3, r4, r5, r6, r8, r9, sl, fp, ip, pc}
     fc4:	08bc0000 	ldmeq	ip!, {}	; <UNPREDICTABLE>
     fc8:	00040000 	andeq	r0, r4, r0
     fcc:	9f7ed191 	svcls	0x007ed191
     fd0:	00000910 	andeq	r0, r0, r0, lsl r9
     fd4:	00000914 	andeq	r0, r0, r4, lsl r9
     fd8:	d1910004 	orrsle	r0, r1, r4
     fdc:	09149f7e 	ldmdbeq	r4, {r1, r2, r3, r4, r5, r6, r8, r9, sl, fp, ip, pc}
     fe0:	09200000 	stmdbeq	r0!, {}	; <UNPREDICTABLE>
     fe4:	00010000 	andeq	r0, r1, r0
     fe8:	0000005c 	andeq	r0, r0, ip, asr r0
     fec:	00000000 	andeq	r0, r0, r0
     ff0:	00010400 	andeq	r0, r1, r0, lsl #8
     ff4:	08000001 	stmdaeq	r0, {r0}
     ff8:	d0000006 	andle	r0, r0, r6
     ffc:	01000006 	tsteq	r0, r6
    1000:	08a85500 	stmiaeq	r8!, {r8, sl, ip, lr}
    1004:	08b80000 	ldmeq	r8!, {}	; <UNPREDICTABLE>
    1008:	00010000 	andeq	r0, r1, r0
    100c:	00091055 	andeq	r1, r9, r5, asr r0
    1010:	00092000 	andeq	r2, r9, r0
    1014:	55000100 	strpl	r0, [r0, #-256]	; 0xffffff00
	...
    1020:	00000004 	andeq	r0, r0, r4
    1024:	00000100 	andeq	r0, r0, r0, lsl #2
    1028:	00000100 	andeq	r0, r0, r0, lsl #2
    102c:	00000608 	andeq	r0, r0, r8, lsl #12
    1030:	000006b0 			; <UNDEFINED> instruction: 0x000006b0
    1034:	d0910004 	addsle	r0, r1, r4
    1038:	06b09f7e 			; <UNDEFINED> instruction: 0x06b09f7e
    103c:	06c80000 	strbeq	r0, [r8], r0
    1040:	00010000 	andeq	r0, r1, r0
    1044:	0006c850 	andeq	ip, r6, r0, asr r8
    1048:	0006d000 	andeq	sp, r6, r0
    104c:	91000400 	tstls	r0, r0, lsl #8
    1050:	a89f7ed0 	ldmge	pc, {r4, r6, r7, r9, sl, fp, ip, sp, lr}	; <UNPREDICTABLE>
    1054:	b0000008 	andlt	r0, r0, r8
    1058:	04000008 	streq	r0, [r0], #-8
    105c:	7ed09100 	atnvcs	f1, f0
    1060:	0008b09f 	muleq	r8, pc, r0	; <UNPREDICTABLE>
    1064:	0008b800 	andeq	fp, r8, r0, lsl #16
    1068:	53000100 	movwpl	r0, #256	; 0x100
    106c:	00000910 	andeq	r0, r0, r0, lsl r9
    1070:	00000920 	andeq	r0, r0, r0, lsr #18
    1074:	d0910004 	addsle	r0, r1, r4
    1078:	00009f7e 	andeq	r9, r0, lr, ror pc
    107c:	00000000 	andeq	r0, r0, r0
    1080:	00040000 	andeq	r0, r4, r0
    1084:	01010100 	mrseq	r0, (UNDEF: 17)
    1088:	02030301 	andeq	r0, r3, #67108864	; 0x4000000
    108c:	00000100 	andeq	r0, r0, r0, lsl #2
    1090:	06080000 	streq	r0, [r8], -r0
    1094:	06240000 	strteq	r0, [r4], -r0
    1098:	00040000 	andeq	r0, r4, r0
    109c:	9f7ed191 	svcls	0x007ed191
    10a0:	00000684 	andeq	r0, r0, r4, lsl #13
    10a4:	00000684 	andeq	r0, r0, r4, lsl #13
    10a8:	84500001 	ldrbhi	r0, [r0], #-1
    10ac:	98000006 	stmdals	r0, {r1, r2}
    10b0:	03000006 	movweq	r0, #6
    10b4:	9f017000 	svcls	0x00017000
    10b8:	00000698 	muleq	r0, r8, r6
    10bc:	000006a4 	andeq	r0, r0, r4, lsr #13
    10c0:	02700003 	rsbseq	r0, r0, #3, 0
    10c4:	0006a49f 	muleq	r6, pc, r4	; <UNPREDICTABLE>
    10c8:	0006a800 	andeq	sl, r6, r0, lsl #16
    10cc:	70000300 	andvc	r0, r0, r0, lsl #6
    10d0:	08a89f03 	stmiaeq	r8!, {r0, r1, r8, r9, sl, fp, ip, pc}
    10d4:	08b80000 	ldmeq	r8!, {}	; <UNPREDICTABLE>
    10d8:	00040000 	andeq	r0, r4, r0
    10dc:	9f7ed191 	svcls	0x007ed191
    10e0:	00000910 	andeq	r0, r0, r0, lsl r9
    10e4:	00000914 	andeq	r0, r0, r4, lsl r9
    10e8:	d1910004 	orrsle	r0, r1, r4
    10ec:	09149f7e 	ldmdbeq	r4, {r1, r2, r3, r4, r5, r6, r8, r9, sl, fp, ip, pc}
    10f0:	09200000 	stmdbeq	r0!, {}	; <UNPREDICTABLE>
    10f4:	00010000 	andeq	r0, r1, r0
    10f8:	0000005c 	andeq	r0, r0, ip, asr r0
    10fc:	00000000 	andeq	r0, r0, r0
    1100:	00000600 	andeq	r0, r0, r0, lsl #12
    1104:	01010101 	tsteq	r1, r1, lsl #2
    1108:	00020101 	andeq	r0, r2, r1, lsl #2
    110c:	08000001 	stmdaeq	r0, {r0}
    1110:	24000006 	strcs	r0, [r0], #-6
    1114:	02000006 	andeq	r0, r0, #6, 0
    1118:	849f3100 	ldrhi	r3, [pc], #256	; 1120 <__code_start__-0x6ee0>
    111c:	94000006 	strls	r0, [r0], #-6
    1120:	01000006 	tsteq	r0, r6
    1124:	06945200 	ldreq	r5, [r4], r0, lsl #4
    1128:	06a40000 	strteq	r0, [r4], r0
    112c:	00010000 	andeq	r0, r1, r0
    1130:	0006a459 	andeq	sl, r6, r9, asr r4
    1134:	0006a800 	andeq	sl, r6, r0, lsl #16
    1138:	52000100 	andpl	r0, r0, #0
    113c:	000006a8 	andeq	r0, r0, r8, lsr #13
    1140:	000006a8 	andeq	r0, r0, r8, lsr #13
    1144:	01720003 	cmneq	r2, r3
    1148:	0008a89f 	muleq	r8, pc, r8	; <UNPREDICTABLE>
    114c:	0008b800 	andeq	fp, r8, r0, lsl #16
    1150:	31000200 	mrscc	r0, R8_usr
    1154:	0009109f 	muleq	r9, pc, r0	; <UNPREDICTABLE>
    1158:	00092000 	andeq	r2, r9, r0
    115c:	31000200 	mrscc	r0, R8_usr
    1160:	0000009f 	muleq	r0, pc, r0	; <UNPREDICTABLE>
    1164:	00000000 	andeq	r0, r0, r0
    1168:	06060100 	streq	r0, [r6], -r0, lsl #2
    116c:	d0000100 	andle	r0, r0, r0, lsl #2
    1170:	d0000006 	andle	r0, r0, r6
    1174:	04000006 	streq	r0, [r0], #-6
    1178:	7ed09100 	atnvcs	f1, f0
    117c:	0006d09f 	muleq	r6, pc, r0	; <UNPREDICTABLE>
    1180:	00070000 	andeq	r0, r7, r0
    1184:	50000100 	andpl	r0, r0, r0, lsl #2
    1188:	000008b8 			; <UNDEFINED> instruction: 0x000008b8
    118c:	000008bc 			; <UNDEFINED> instruction: 0x000008bc
    1190:	00530001 	subseq	r0, r3, r1
    1194:	00000000 	andeq	r0, r0, r0
    1198:	01000000 	mrseq	r0, (UNDEF: 0)
    119c:	00000008 	andeq	r0, r0, r8
    11a0:	01000101 	tsteq	r0, r1, lsl #2
    11a4:	0006d007 	andeq	sp, r6, r7
    11a8:	0006d000 	andeq	sp, r6, r0
    11ac:	7c000600 	stcvc	6, cr0, [r0], {-0}
    11b0:	22007100 	andcs	r7, r0, #0
    11b4:	0006e49f 	muleq	r6, pc, r4	; <UNPREDICTABLE>
    11b8:	0006e800 	andeq	lr, r6, r0, lsl #16
    11bc:	73000300 	movwvc	r0, #768	; 0x300
    11c0:	06e89f7f 			; <UNDEFINED> instruction: 0x06e89f7f
    11c4:	06f00000 	ldrbteq	r0, [r0], r0
    11c8:	00010000 	andeq	r0, r1, r0
    11cc:	0006f053 	andeq	pc, r6, r3, asr r0	; <UNPREDICTABLE>
    11d0:	0006f800 	andeq	pc, r6, r0, lsl #16
    11d4:	73000300 	movwvc	r0, #768	; 0x300
    11d8:	08b89f7f 	ldmeq	r8!, {r0, r1, r2, r3, r4, r5, r6, r8, r9, sl, fp, ip, pc}
    11dc:	08b80000 	ldmeq	r8!, {}	; <UNPREDICTABLE>
    11e0:	00040000 	andeq	r0, r4, r0
    11e4:	9f7ed191 	svcls	0x007ed191
	...
    11f0:	00010001 	andeq	r0, r1, r1
    11f4:	000006d0 	ldrdeq	r0, [r0], -r0	; <UNPREDICTABLE>
    11f8:	00000700 	andeq	r0, r0, r0, lsl #14
    11fc:	80080003 	andhi	r0, r8, r3
    1200:	0008b89f 	muleq	r8, pc, r8	; <UNPREDICTABLE>
    1204:	0008bc00 	andeq	fp, r8, r0, lsl #24
    1208:	08000300 	stmdaeq	r0, {r8, r9}
    120c:	00009f80 	andeq	r9, r0, r0, lsl #31
    1210:	00000000 	andeq	r0, r0, r0
    1214:	00010000 	andeq	r0, r1, r0
    1218:	01000000 	mrseq	r0, (UNDEF: 0)
    121c:	00000001 	andeq	r0, r0, r1
    1220:	00010102 	andeq	r0, r1, r2, lsl #2
    1224:	000006d0 	ldrdeq	r0, [r0], -r0	; <UNPREDICTABLE>
    1228:	000006e0 	andeq	r0, r0, r0, ror #13
    122c:	d0910004 	addsle	r0, r1, r4
    1230:	06e09f7d 			; <UNDEFINED> instruction: 0x06e09f7d
    1234:	06e40000 	strbteq	r0, [r4], r0
    1238:	00010000 	andeq	r0, r1, r0
    123c:	0006e455 	andeq	lr, r6, r5, asr r4
    1240:	0006e400 	andeq	lr, r6, r0, lsl #8
    1244:	72000300 	andvc	r0, r0, #0, 6
    1248:	06e49f01 	strbteq	r9, [r4], r1, lsl #30
    124c:	06f00000 	ldrbteq	r0, [r0], r0
    1250:	00030000 	andeq	r0, r3, r0
    1254:	f09f0272 			; <UNDEFINED> instruction: 0xf09f0272
    1258:	00000006 	andeq	r0, r0, r6
    125c:	03000007 	movweq	r0, #7
    1260:	9f017200 	svcls	0x00017200
    1264:	000007ec 	andeq	r0, r0, ip, ror #15
    1268:	000007f4 	strdeq	r0, [r0], -r4
    126c:	01730003 	cmneq	r3, r3
    1270:	0008b89f 	muleq	r8, pc, r8	; <UNPREDICTABLE>
    1274:	0008bc00 	andeq	fp, r8, r0, lsl #24
    1278:	91000400 	tstls	r0, r0, lsl #8
    127c:	009f7dd0 			; <UNDEFINED> instruction: 0x009f7dd0
    1280:	00000000 	andeq	r0, r0, r0
    1284:	04000000 	streq	r0, [r0], #-0
    1288:	0008b800 	andeq	fp, r8, r0, lsl #16
    128c:	0008bc00 	andeq	fp, r8, r0, lsl #24
    1290:	32000200 	andcc	r0, r0, #0, 4
    1294:	0000009f 	muleq	r0, pc, r0	; <UNPREDICTABLE>
    1298:	00000000 	andeq	r0, r0, r0
    129c:	00000700 	andeq	r0, r0, r0, lsl #14
    12a0:	d0000600 	andle	r0, r0, r0, lsl #12
    12a4:	e0000006 	and	r0, r0, r6
    12a8:	04000006 	streq	r0, [r0], #-6
    12ac:	7dd09100 	ldfvcp	f1, [r0]
    12b0:	0006e09f 	muleq	r6, pc, r0	; <UNPREDICTABLE>
    12b4:	00070000 	andeq	r0, r7, r0
    12b8:	55000100 	strpl	r0, [r0, #-256]	; 0xffffff00
    12bc:	000008b8 			; <UNDEFINED> instruction: 0x000008b8
    12c0:	000008bc 			; <UNDEFINED> instruction: 0x000008bc
    12c4:	d0910004 	addsle	r0, r1, r4
    12c8:	00009f7d 	andeq	r9, r0, sp, ror pc
    12cc:	00000000 	andeq	r0, r0, r0
    12d0:	00010000 	andeq	r0, r1, r0
    12d4:	070c0000 	streq	r0, [ip, -r0]
    12d8:	07ec0000 	strbeq	r0, [ip, r0]!
    12dc:	00030000 	andeq	r0, r3, r0
    12e0:	949f8008 	ldrls	r8, [pc], #8	; 12e8 <__code_start__-0x6d18>
    12e4:	a8000008 	stmdage	r0, {r3}
    12e8:	03000008 	movweq	r0, #8
    12ec:	9f800800 	svcls	0x00800800
	...
    12fc:	0000070c 	andeq	r0, r0, ip, lsl #14
    1300:	000007ec 	andeq	r0, r0, ip, ror #15
    1304:	9f300002 	svcls	0x00300002
    1308:	00000894 	muleq	r0, r4, r8
    130c:	000008a8 	andeq	r0, r0, r8, lsr #17
    1310:	9f300002 	svcls	0x00300002
	...
    1320:	0000070c 	andeq	r0, r0, ip, lsl #14
    1324:	000007d0 	ldrdeq	r0, [r0], -r0	; <UNPREDICTABLE>
    1328:	94550001 	ldrbls	r0, [r5], #-1
    132c:	a8000008 	stmdage	r0, {r3}
    1330:	01000008 	tsteq	r0, r8
    1334:	00005500 	andeq	r5, r0, r0, lsl #10
	...
    1344:	0000070c 	andeq	r0, r0, ip, lsl #14
    1348:	000007d0 	ldrdeq	r0, [r0], -r0	; <UNPREDICTABLE>
    134c:	d0910004 	addsle	r0, r1, r4
    1350:	07d09f7d 			; <UNDEFINED> instruction: 0x07d09f7d
    1354:	07ec0000 	strbeq	r0, [ip, r0]!
    1358:	00010000 	andeq	r0, r1, r0
    135c:	00089455 	andeq	r9, r8, r5, asr r4
    1360:	0008a800 	andeq	sl, r8, r0, lsl #16
    1364:	91000400 	tstls	r0, r0, lsl #8
    1368:	009f7dd0 			; <UNDEFINED> instruction: 0x009f7dd0
	...
    1374:	0c000000 	stceq	0, cr0, [r0], {-0}
    1378:	ec000007 	stc	0, cr0, [r0], {7}
    137c:	02000007 	andeq	r0, r0, #7, 0
    1380:	949f3200 	ldrls	r3, [pc], #512	; 1388 <__code_start__-0x6c78>
    1384:	a8000008 	stmdage	r0, {r3}
    1388:	02000008 	andeq	r0, r0, #8, 0
    138c:	009f3200 	addseq	r3, pc, r0, lsl #4
    1390:	00000000 	andeq	r0, r0, r0
    1394:	03000000 	movweq	r0, #0
    1398:	00000505 	andeq	r0, r0, r5, lsl #10
    139c:	00000000 	andeq	r0, r0, r0
    13a0:	00070c00 	andeq	r0, r7, r0, lsl #24
    13a4:	00070c00 	andeq	r0, r7, r0, lsl #24
    13a8:	51000100 	mrspl	r0, (UNDEF: 16)
    13ac:	0000070c 	andeq	r0, r0, ip, lsl #14
    13b0:	0000071c 	andeq	r0, r0, ip, lsl r7
    13b4:	1c530001 	mrrcne	0, 0, r0, r3, cr1
    13b8:	24000007 	strcs	r0, [r0], #-7
    13bc:	03000007 	movweq	r0, #7
    13c0:	9f017200 	svcls	0x00017200
    13c4:	00000724 	andeq	r0, r0, r4, lsr #14
    13c8:	000007cc 	andeq	r0, r0, ip, asr #15
    13cc:	94530001 	ldrbls	r0, [r3], #-1
    13d0:	a8000008 	stmdage	r0, {r3}
    13d4:	01000008 	tsteq	r0, r8
    13d8:	00005300 	andeq	r5, r0, r0, lsl #6
    13dc:	00000000 	andeq	r0, r0, r0
    13e0:	00050000 	andeq	r0, r5, r0
    13e4:	070c0001 	streq	r0, [ip, -r1]
    13e8:	07200000 	streq	r0, [r0, -r0]!
    13ec:	00010000 	andeq	r0, r1, r0
    13f0:	00072450 	andeq	r2, r7, r0, asr r4
    13f4:	00072c00 	andeq	r2, r7, r0, lsl #24
    13f8:	50000100 	andpl	r0, r0, r0, lsl #2
	...
    1404:	01000103 	tsteq	r0, r3, lsl #2
    1408:	00000728 	andeq	r0, r0, r8, lsr #14
    140c:	000007b0 			; <UNDEFINED> instruction: 0x000007b0
    1410:	94550001 	ldrbls	r0, [r5], #-1
    1414:	a0000008 	andge	r0, r0, r8
    1418:	01000008 	tsteq	r0, r8
    141c:	00005500 	andeq	r5, r0, r0, lsl #10
    1420:	00000000 	andeq	r0, r0, r0
    1424:	01030000 	mrseq	r0, (UNDEF: 3)
    1428:	07280100 	streq	r0, [r8, -r0, lsl #2]!
    142c:	07b00000 	ldreq	r0, [r0, r0]!
    1430:	00010000 	andeq	r0, r1, r0
    1434:	00089451 	andeq	r9, r8, r1, asr r4
    1438:	0008a000 	andeq	sl, r8, r0
    143c:	51000100 	mrspl	r0, (UNDEF: 16)
	...
    1448:	01000003 	tsteq	r0, r3
    144c:	03010101 	movweq	r0, #4353	; 0x1101
    1450:	01000203 	tsteq	r0, r3, lsl #4
    1454:	00000728 	andeq	r0, r0, r8, lsr #14
    1458:	00000750 	andeq	r0, r0, r0, asr r7
    145c:	74530001 	ldrbvc	r0, [r3], #-1
    1460:	74000007 	strvc	r0, [r0], #-7
    1464:	01000007 	tsteq	r0, r7
    1468:	07745e00 	ldrbeq	r5, [r4, -r0, lsl #28]!
    146c:	07880000 	streq	r0, [r8, r0]
    1470:	00030000 	andeq	r0, r3, r0
    1474:	889f017e 	ldmhi	pc, {r1, r2, r3, r4, r5, r6, r8}	; <UNPREDICTABLE>
    1478:	94000007 	strls	r0, [r0], #-7
    147c:	03000007 	movweq	r0, #7
    1480:	9f027e00 	svcls	0x00027e00
    1484:	00000794 	muleq	r0, r4, r7
    1488:	00000798 	muleq	r0, r8, r7
    148c:	037e0003 	cmneq	lr, #3, 0
    1490:	0008949f 	muleq	r8, pc, r4	; <UNPREDICTABLE>
    1494:	0008a000 	andeq	sl, r8, r0
    1498:	53000100 	movwpl	r0, #256	; 0x100
	...
    14a4:	01000000 	mrseq	r0, (UNDEF: 0)
    14a8:	01010101 	tsteq	r1, r1, lsl #2
    14ac:	01000201 	tsteq	r0, r1, lsl #4
    14b0:	0000072c 	andeq	r0, r0, ip, lsr #14
    14b4:	00000750 	andeq	r0, r0, r0, asr r7
    14b8:	74500001 	ldrbvc	r0, [r0], #-1
    14bc:	84000007 	strhi	r0, [r0], #-7
    14c0:	01000007 	tsteq	r0, r7
    14c4:	07845000 	streq	r5, [r4, r0]
    14c8:	07940000 	ldreq	r0, [r4, r0]
    14cc:	00010000 	andeq	r0, r1, r0
    14d0:	0007945b 	andeq	r9, r7, fp, asr r4
    14d4:	00079800 	andeq	r9, r7, r0, lsl #16
    14d8:	50000100 	andpl	r0, r0, r0, lsl #2
    14dc:	00000798 	muleq	r0, r8, r7
    14e0:	00000798 	muleq	r0, r8, r7
    14e4:	01700003 	cmneq	r0, r3
    14e8:	0008949f 	muleq	r8, pc, r4	; <UNPREDICTABLE>
    14ec:	0008a000 	andeq	sl, r8, r0
    14f0:	50000100 	andpl	r0, r0, r0, lsl #2
	...
    14fc:	00010001 	andeq	r0, r1, r1
    1500:	000007b0 			; <UNDEFINED> instruction: 0x000007b0
    1504:	000007ec 	andeq	r0, r0, ip, ror #15
    1508:	a0510001 	subsge	r0, r1, r1
    150c:	a8000008 	stmdage	r0, {r3}
    1510:	01000008 	tsteq	r0, r8
    1514:	00005100 	andeq	r5, r0, r0, lsl #2
    1518:	00000000 	andeq	r0, r0, r0
    151c:	00010000 	andeq	r0, r1, r0
    1520:	01000000 	mrseq	r0, (UNDEF: 0)
    1524:	00010001 	andeq	r0, r1, r1
    1528:	000007b0 			; <UNDEFINED> instruction: 0x000007b0
    152c:	000007b4 			; <UNDEFINED> instruction: 0x000007b4
    1530:	00730006 	rsbseq	r0, r3, r6
    1534:	9f22007c 	svcls	0x0022007c
    1538:	000007d4 	ldrdeq	r0, [r0], -r4
    153c:	000007d8 	ldrdeq	r0, [r0], -r8
    1540:	7f730003 	svcvc	0x00730003
    1544:	0007d89f 	muleq	r7, pc, r8	; <UNPREDICTABLE>
    1548:	0007e000 	andeq	lr, r7, r0
    154c:	53000100 	movwpl	r0, #256	; 0x100
    1550:	000007e0 	andeq	r0, r0, r0, ror #15
    1554:	000007e8 	andeq	r0, r0, r8, ror #15
    1558:	7f730003 	svcvc	0x00730003
    155c:	0008a09f 	muleq	r8, pc, r0	; <UNPREDICTABLE>
    1560:	0008a800 	andeq	sl, r8, r0, lsl #16
    1564:	53000100 	movwpl	r0, #256	; 0x100
	...
    1570:	00010001 	andeq	r0, r1, r1
    1574:	000007b0 			; <UNDEFINED> instruction: 0x000007b0
    1578:	000007ec 	andeq	r0, r0, ip, ror #15
    157c:	80080003 	andhi	r0, r8, r3
    1580:	0008a09f 	muleq	r8, pc, r0	; <UNPREDICTABLE>
    1584:	0008a800 	andeq	sl, r8, r0, lsl #16
    1588:	08000300 	stmdaeq	r0, {r8, r9}
    158c:	00009f80 	andeq	r9, r0, r0, lsl #31
    1590:	00000000 	andeq	r0, r0, r0
    1594:	00010000 	andeq	r0, r1, r0
    1598:	01000000 	mrseq	r0, (UNDEF: 0)
    159c:	00000001 	andeq	r0, r0, r1
    15a0:	07b00001 	ldreq	r0, [r0, r1]!
    15a4:	07d00000 	ldrbeq	r0, [r0, r0]
    15a8:	00040000 	andeq	r0, r4, r0
    15ac:	9f7dd091 	svcls	0x007dd091
    15b0:	000007d0 	ldrdeq	r0, [r0], -r0	; <UNPREDICTABLE>
    15b4:	000007d4 	ldrdeq	r0, [r0], -r4
    15b8:	d4550001 	ldrble	r0, [r5], #-1
    15bc:	d4000007 	strle	r0, [r0], #-7
    15c0:	03000007 	movweq	r0, #7
    15c4:	9f017c00 	svcls	0x00017c00
    15c8:	000007d4 	ldrdeq	r0, [r0], -r4
    15cc:	000007e0 	andeq	r0, r0, r0, ror #15
    15d0:	027c0003 	rsbseq	r0, ip, #3, 0
    15d4:	0007e09f 	muleq	r7, pc, r0	; <UNPREDICTABLE>
    15d8:	0007ec00 	andeq	lr, r7, r0, lsl #24
    15dc:	7c000300 	stcvc	3, cr0, [r0], {-0}
    15e0:	08a09f01 	stmiaeq	r0!, {r0, r8, r9, sl, fp, ip, pc}
    15e4:	08a80000 	stmiaeq	r8!, {}	; <UNPREDICTABLE>
    15e8:	00040000 	andeq	r0, r4, r0
    15ec:	9f7dd091 	svcls	0x007dd091
	...
    15f8:	00040004 	andeq	r0, r4, r4
    15fc:	000007b0 			; <UNDEFINED> instruction: 0x000007b0
    1600:	000007b4 			; <UNDEFINED> instruction: 0x000007b4
    1604:	01700003 	cmneq	r0, r3
    1608:	0008a09f 	muleq	r8, pc, r0	; <UNPREDICTABLE>
    160c:	0008a800 	andeq	sl, r8, r0, lsl #16
    1610:	70000300 	andvc	r0, r0, r0, lsl #6
    1614:	00009f01 	andeq	r9, r0, r1, lsl #30
    1618:	00000000 	andeq	r0, r0, r0
    161c:	00010000 	andeq	r0, r1, r0
    1620:	07bc0000 	ldreq	r0, [ip, r0]!
    1624:	07d00000 	ldrbeq	r0, [r0, r0]
    1628:	00040000 	andeq	r0, r4, r0
    162c:	9f7dd091 	svcls	0x007dd091
    1630:	000007d0 	ldrdeq	r0, [r0], -r0	; <UNPREDICTABLE>
    1634:	000007ec 	andeq	r0, r0, ip, ror #15
    1638:	00550001 	subseq	r0, r5, r1
	...
    1644:	28000000 	stmdacs	r0, {}	; <UNPREDICTABLE>
    1648:	64000003 	strvs	r0, [r0], #-3
    164c:	01000003 	tsteq	r0, r3
    1650:	03645000 	cmneq	r4, #0, 0
    1654:	03880000 	orreq	r0, r8, #0, 0
    1658:	00040000 	andeq	r0, r4, r0
    165c:	9f5001f3 	svcls	0x005001f3
	...
    166c:	00000328 	andeq	r0, r0, r8, lsr #6
    1670:	0000035c 	andeq	r0, r0, ip, asr r3
    1674:	5c510001 	mrrcpl	0, 0, r0, r1, cr1
    1678:	88000003 	stmdahi	r0, {r0, r1}
    167c:	04000003 	streq	r0, [r0], #-3
    1680:	5101f300 	mrspl	pc, SP_irq	; <UNPREDICTABLE>
    1684:	0000009f 	muleq	r0, pc, r0	; <UNPREDICTABLE>
	...
    16a8:	00001400 	andeq	r1, r0, r0, lsl #8
    16ac:	50000100 	andpl	r0, r0, r0, lsl #2
    16b0:	00000014 	andeq	r0, r0, r4, lsl r0
    16b4:	00000020 	andeq	r0, r0, r0, lsr #32
    16b8:	205c0001 	subscs	r0, ip, r1
    16bc:	68000000 	stmdavs	r0, {}	; <UNPREDICTABLE>
    16c0:	03000000 	movweq	r0, #0
    16c4:	9f027100 	svcls	0x00027100
    16c8:	00000068 	andeq	r0, r0, r8, rrx
    16cc:	0000006c 	andeq	r0, r0, ip, rrx
    16d0:	02730003 	rsbseq	r0, r3, #3, 0
    16d4:	00006c9f 	muleq	r0, pc, ip	; <UNPREDICTABLE>
    16d8:	00019400 	andeq	r9, r1, r0, lsl #8
    16dc:	f3000400 	vshl.u8	d0, d0, d0
    16e0:	949f5001 	ldrls	r5, [pc], #1	; 16e8 <__code_start__-0x6918>
    16e4:	98000001 	stmdals	r0, {r0}
    16e8:	03000001 	movweq	r0, #1
    16ec:	9f027300 	svcls	0x00027300
    16f0:	00000198 	muleq	r0, r8, r1
    16f4:	000001c0 	andeq	r0, r0, r0, asr #3
    16f8:	01f30004 	mvnseq	r0, r4
    16fc:	01c09f50 	biceq	r9, r0, r0, asr pc
    1700:	01c80000 	biceq	r0, r8, r0
    1704:	00010000 	andeq	r0, r1, r0
    1708:	0001c85c 	andeq	ip, r1, ip, asr r8
    170c:	00021400 	andeq	r1, r2, r0, lsl #8
    1710:	73000300 	movwvc	r0, #768	; 0x300
    1714:	02149f02 	andseq	r9, r4, #2, 30
    1718:	02ec0000 	rsceq	r0, ip, #0, 0
    171c:	00040000 	andeq	r0, r4, r0
    1720:	9f5001f3 	svcls	0x005001f3
    1724:	000002ec 	andeq	r0, r0, ip, ror #5
    1728:	000002f4 	strdeq	r0, [r0], -r4
    172c:	02730003 	rsbseq	r0, r3, #3, 0
    1730:	0002f49f 	muleq	r2, pc, r4	; <UNPREDICTABLE>
    1734:	00032800 	andeq	r2, r3, r0, lsl #16
    1738:	f3000400 	vshl.u8	d0, d0, d0
    173c:	009f5001 	addseq	r5, pc, r1
	...
    1750:	1c000000 	stcne	0, cr0, [r0], {-0}
    1754:	01000000 	mrseq	r0, (UNDEF: 0)
    1758:	001c5100 	andseq	r5, ip, r0, lsl #2
    175c:	02e00000 	rsceq	r0, r0, #0, 0
    1760:	00010000 	andeq	r0, r1, r0
    1764:	0002e050 	andeq	lr, r2, r0, asr r0
    1768:	0002ec00 	andeq	lr, r2, r0, lsl #24
    176c:	f3000400 	vshl.u8	d0, d0, d0
    1770:	ec9f5101 	ldfs	f5, [pc], {1}
    1774:	28000002 	stmdacs	r0, {r1}
    1778:	01000003 	tsteq	r0, r3
    177c:	00005000 	andeq	r5, r0, r0
	...
    1788:	01000000 	mrseq	r0, (UNDEF: 0)
    178c:	00000000 	andeq	r0, r0, r0
    1790:	02000000 	andeq	r0, r0, #0, 0
    1794:	00000002 	andeq	r0, r0, r2
	...
    17a8:	00700000 	rsbseq	r0, r0, r0
    17ac:	00010000 	andeq	r0, r1, r0
    17b0:	00007052 	andeq	r7, r0, r2, asr r0
    17b4:	00007800 	andeq	r7, r0, r0, lsl #16
    17b8:	5c000100 	stfpls	f0, [r0], {-0}
    17bc:	00000078 	andeq	r0, r0, r8, ror r0
    17c0:	000000a4 	andeq	r0, r0, r4, lsr #1
    17c4:	01f30004 	mvnseq	r0, r4
    17c8:	01949f52 	orrseq	r9, r4, r2, asr pc
    17cc:	019c0000 	orrseq	r0, ip, r0
    17d0:	00010000 	andeq	r0, r1, r0
    17d4:	00019c52 	andeq	r9, r1, r2, asr ip
    17d8:	0001a400 	andeq	sl, r1, r0, lsl #8
    17dc:	5c000100 	stfpls	f0, [r0], {-0}
    17e0:	000001a4 	andeq	r0, r0, r4, lsr #3
    17e4:	000001c0 	andeq	r0, r0, r0, asr #3
    17e8:	01f30004 	mvnseq	r0, r4
    17ec:	01c09f52 	biceq	r9, r0, r2, asr pc
    17f0:	02200000 	eoreq	r0, r0, #0, 0
    17f4:	00010000 	andeq	r0, r1, r0
    17f8:	00022052 	andeq	r2, r2, r2, asr r0
    17fc:	00022800 	andeq	r2, r2, r0, lsl #16
    1800:	72000400 	andvc	r0, r0, #0, 8
    1804:	289f1f00 	ldmcs	pc, {r8, r9, sl, fp, ip}	; <UNPREDICTABLE>
    1808:	74000002 	strvc	r0, [r0], #-2
    180c:	05000002 	streq	r0, [r0, #-2]
    1810:	5201f300 	andpl	pc, r1, #0, 6
    1814:	02749f1f 	rsbseq	r9, r4, #124	; 0x7c
    1818:	02880000 	addeq	r0, r8, #0, 0
    181c:	00010000 	andeq	r0, r1, r0
    1820:	00028852 	andeq	r8, r2, r2, asr r8
    1824:	0002a000 	andeq	sl, r2, r0
    1828:	5c000100 	stfpls	f0, [r0], {-0}
    182c:	000002cc 	andeq	r0, r0, ip, asr #5
    1830:	000002d0 	ldrdeq	r0, [r0], -r0	; <UNPREDICTABLE>
    1834:	d0520001 	subsle	r0, r2, r1
    1838:	e7000002 	str	r0, [r0, -r2]
    183c:	01000002 	tsteq	r0, r2
    1840:	02e75c00 	rsceq	r5, r7, #0, 24
    1844:	02ec0000 	rsceq	r0, ip, #0, 0
    1848:	00040000 	andeq	r0, r4, r0
    184c:	9f5201f3 	svcls	0x005201f3
    1850:	000002ec 	andeq	r0, r0, ip, ror #5
    1854:	00000300 	andeq	r0, r0, r0, lsl #6
    1858:	00520001 	subseq	r0, r2, r1
    185c:	28000003 	stmdacs	r0, {r0, r1}
    1860:	01000003 	tsteq	r0, r3
    1864:	00005c00 	andeq	r5, r0, r0, lsl #24
	...
    1880:	00000068 	andeq	r0, r0, r8, rrx
    1884:	68530001 	ldmdavs	r3, {r0}^
    1888:	6c000000 	stcvs	0, cr0, [r0], {-0}
    188c:	03000000 	movweq	r0, #0
    1890:	9f7f0800 	svcls	0x007f0800
    1894:	00000194 	muleq	r0, r4, r1
    1898:	00000198 	muleq	r0, r8, r1
    189c:	7f080003 	svcvc	0x00080003
    18a0:	0001c09f 	muleq	r1, pc, r0	; <UNPREDICTABLE>
    18a4:	00021400 	andeq	r1, r2, r0, lsl #8
    18a8:	08000300 	stmdaeq	r0, {r8, r9}
    18ac:	02749f7f 	rsbseq	r9, r4, #508	; 0x1fc
    18b0:	02900000 	addseq	r0, r0, #0, 0
    18b4:	00010000 	andeq	r0, r1, r0
    18b8:	00029053 	andeq	r9, r2, r3, asr r0
    18bc:	0002a000 	andeq	sl, r2, r0
    18c0:	f3000400 	vshl.u8	d0, d0, d0
    18c4:	ec9f5301 	ldc	3, cr5, [pc], {1}
    18c8:	28000002 	stmdacs	r0, {r1}
    18cc:	03000003 	movweq	r0, #3
    18d0:	9f7f0800 	svcls	0x007f0800
	...
    18dc:	00000001 	andeq	r0, r0, r1
    18e0:	00020200 	andeq	r0, r2, r0, lsl #4
    18e4:	00010100 	andeq	r0, r1, r0, lsl #2
    18e8:	00000000 	andeq	r0, r0, r0
    18ec:	02000000 	andeq	r0, r0, #0, 0
    18f0:	00000002 	andeq	r0, r0, r2
    18f4:	00000001 	andeq	r0, r0, r1
    18f8:	00000000 	andeq	r0, r0, r0
    18fc:	00010100 	andeq	r0, r1, r0, lsl #2
    1900:	02000000 	andeq	r0, r0, #0, 0
    1904:	00000002 	andeq	r0, r0, r2
    1908:	01000000 	mrseq	r0, (UNDEF: 0)
    190c:	00000001 	andeq	r0, r0, r1
    1910:	00000018 	andeq	r0, r0, r8, lsl r0
    1914:	00000070 	andeq	r0, r0, r0, ror r0
    1918:	a0910004 	addsge	r0, r1, r4
    191c:	00709f7f 	rsbseq	r9, r0, pc, ror pc
    1920:	00780000 	rsbseq	r0, r8, r0
    1924:	00010000 	andeq	r0, r1, r0
    1928:	00007852 	andeq	r7, r0, r2, asr r8
    192c:	00007800 	andeq	r7, r0, r0, lsl #16
    1930:	54000100 	strpl	r0, [r0], #-256	; 0xffffff00
    1934:	00000078 	andeq	r0, r0, r8, ror r0
    1938:	00000088 	andeq	r0, r0, r8, lsl #1
    193c:	01740003 	cmneq	r4, r3
    1940:	0000889f 	muleq	r0, pc, r8	; <UNPREDICTABLE>
    1944:	00009000 	andeq	r9, r0, r0
    1948:	54000100 	strpl	r0, [r0], #-256	; 0xffffff00
    194c:	00000090 	muleq	r0, r0, r0
    1950:	000000a0 	andeq	r0, r0, r0, lsr #1
    1954:	02740003 	rsbseq	r0, r4, #3, 0
    1958:	0000a09f 	muleq	r0, pc, r0	; <UNPREDICTABLE>
    195c:	0000b000 	andeq	fp, r0, r0
    1960:	5e000100 	adfpls	f0, f0, f0
    1964:	00000194 	muleq	r0, r4, r1
    1968:	0000019c 	muleq	r0, ip, r1
    196c:	a0910004 	addsge	r0, r1, r4
    1970:	019c9f7f 	orrseq	r9, ip, pc, ror pc
    1974:	01a40000 			; <UNDEFINED> instruction: 0x01a40000
    1978:	00010000 	andeq	r0, r1, r0
    197c:	0001a452 	andeq	sl, r1, r2, asr r4
    1980:	0001a400 	andeq	sl, r1, r0, lsl #8
    1984:	5e000100 	adfpls	f0, f0, f0
    1988:	000001a4 	andeq	r0, r0, r4, lsr #3
    198c:	000001b4 			; <UNDEFINED> instruction: 0x000001b4
    1990:	017e0003 	cmneq	lr, r3
    1994:	0001b49f 	muleq	r1, pc, r4	; <UNPREDICTABLE>
    1998:	0001c000 	andeq	ip, r1, r0
    199c:	5e000100 	adfpls	f0, f0, f0
    19a0:	000001c0 	andeq	r0, r0, r0, asr #3
    19a4:	00000228 	andeq	r0, r0, r8, lsr #4
    19a8:	a0910004 	addsge	r0, r1, r4
    19ac:	02289f7f 	eoreq	r9, r8, #508	; 0x1fc
    19b0:	02340000 	eorseq	r0, r4, #0, 0
    19b4:	00010000 	andeq	r0, r1, r0
    19b8:	00023452 	andeq	r3, r2, r2, asr r4
    19bc:	00025800 	andeq	r5, r2, r0, lsl #16
    19c0:	5e000100 	adfpls	f0, f0, f0
    19c4:	00000258 	andeq	r0, r0, r8, asr r2
    19c8:	0000025c 	andeq	r0, r0, ip, asr r2
    19cc:	017e0003 	cmneq	lr, r3
    19d0:	00025c9f 	muleq	r2, pc, ip	; <UNPREDICTABLE>
    19d4:	00026400 	andeq	r6, r2, r0, lsl #8
    19d8:	5e000100 	adfpls	f0, f0, f0
    19dc:	00000264 	andeq	r0, r0, r4, ror #4
    19e0:	00000270 	andeq	r0, r0, r0, ror r2
    19e4:	02710003 	rsbseq	r0, r1, #3, 0
    19e8:	0002709f 	muleq	r2, pc, r0	; <UNPREDICTABLE>
    19ec:	00027400 	andeq	r7, r2, r0, lsl #8
    19f0:	5e000100 	adfpls	f0, f0, f0
    19f4:	00000274 	andeq	r0, r0, r4, ror r2
    19f8:	00000274 	andeq	r0, r0, r4, ror r2
    19fc:	a0910004 	addsge	r0, r1, r4
    1a00:	02749f7f 	rsbseq	r9, r4, #508	; 0x1fc
    1a04:	02a00000 	adceq	r0, r0, #0, 0
    1a08:	00040000 	andeq	r0, r4, r0
    1a0c:	9f7fa191 	svcls	0x007fa191
    1a10:	000002c0 	andeq	r0, r0, r0, asr #5
    1a14:	000002c8 	andeq	r0, r0, r8, asr #5
    1a18:	c85e0001 	ldmdagt	lr, {r0}^
    1a1c:	cc000002 	stcgt	0, cr0, [r0], {2}
    1a20:	01000002 	tsteq	r0, r2
    1a24:	02cc5600 	sbceq	r5, ip, #0, 12
    1a28:	02ec0000 	rsceq	r0, ip, #0, 0
    1a2c:	00040000 	andeq	r0, r4, r0
    1a30:	9f7fa091 	svcls	0x007fa091
    1a34:	000002ec 	andeq	r0, r0, ip, ror #5
    1a38:	000002fc 	strdeq	r0, [r0], -ip
    1a3c:	a1910004 	orrsge	r0, r1, r4
    1a40:	02fc9f7f 	rscseq	r9, ip, #508	; 0x1fc
    1a44:	03280000 			; <UNDEFINED> instruction: 0x03280000
    1a48:	00010000 	andeq	r0, r1, r0
    1a4c:	0000005e 	andeq	r0, r0, lr, asr r0
	...
    1a64:	00000101 	andeq	r0, r0, r1, lsl #2
	...
    1a74:	20000000 	andcs	r0, r0, r0
    1a78:	70000000 	andvc	r0, r0, r0
    1a7c:	01000000 	mrseq	r0, (UNDEF: 0)
    1a80:	00705200 	rsbseq	r5, r0, r0, lsl #4
    1a84:	00940000 	addseq	r0, r4, r0
    1a88:	00010000 	andeq	r0, r1, r0
    1a8c:	0001945c 	andeq	r9, r1, ip, asr r4
    1a90:	00019c00 	andeq	r9, r1, r0, lsl #24
    1a94:	52000100 	andpl	r0, r0, #0
    1a98:	0000019c 	muleq	r0, ip, r1
    1a9c:	000001c0 	andeq	r0, r0, r0, asr #3
    1aa0:	c85c0001 	ldmdagt	ip, {r0}^
    1aa4:	10000001 	andne	r0, r0, r1
    1aa8:	01000002 	tsteq	r0, r2
    1aac:	02105c00 	andseq	r5, r0, #0, 24
    1ab0:	02240000 	eoreq	r0, r4, #0, 0
    1ab4:	00010000 	andeq	r0, r1, r0
    1ab8:	00022452 	andeq	r2, r2, r2, asr r4
    1abc:	00024800 	andeq	r4, r2, r0, lsl #16
    1ac0:	5c000100 	stfpls	f0, [r0], {-0}
    1ac4:	00000248 	andeq	r0, r0, r8, asr #4
    1ac8:	0000025c 	andeq	r0, r0, ip, asr r2
    1acc:	5c550001 	mrrcpl	0, 0, r0, r5, cr1
    1ad0:	68000002 	stmdavs	r0, {r1}
    1ad4:	01000002 	tsteq	r0, r2
    1ad8:	02685c00 	rsbeq	r5, r8, #0, 24
    1adc:	02740000 	rsbseq	r0, r4, #0, 0
    1ae0:	00190000 	andseq	r0, r9, r0
    1ae4:	2cf70075 	ldclcs	0, cr0, [r7], #468	; 0x1d4
    1ae8:	007625f7 	ldrshteq	r2, [r6], #-87	; 0xffffffa9
    1aec:	25f72cf7 	ldrbcs	r2, [r7, #3319]!	; 0xcf7
    1af0:	f720081e 			; <UNDEFINED> instruction: 0xf720081e
    1af4:	2cf72525 	cfldr64cs	mvdx2, [r7], #148	; 0x94
    1af8:	253300f7 	ldrcs	r0, [r3, #-247]!	; 0xffffff09
    1afc:	0002749f 	muleq	r2, pc, r4	; <UNPREDICTABLE>
    1b00:	00028800 	andeq	r8, r2, r0, lsl #16
    1b04:	52000100 	andpl	r0, r0, #0
    1b08:	00000288 	andeq	r0, r0, r8, lsl #5
    1b0c:	000002a0 	andeq	r0, r0, r0, lsr #5
    1b10:	cc5c0001 	mrrcgt	0, 0, r0, ip, cr1
    1b14:	d0000002 	andle	r0, r0, r2
    1b18:	01000002 	tsteq	r0, r2
    1b1c:	02d05200 	sbcseq	r5, r0, #0, 4
    1b20:	02e70000 	rsceq	r0, r7, #0, 0
    1b24:	00010000 	andeq	r0, r1, r0
    1b28:	0002e75c 	andeq	lr, r2, ip, asr r7
    1b2c:	0002ec00 	andeq	lr, r2, r0, lsl #24
    1b30:	f3000400 	vshl.u8	d0, d0, d0
    1b34:	ec9f5201 	lfm	f5, 4, [pc], {1}
    1b38:	00000002 	andeq	r0, r0, r2
    1b3c:	01000003 	tsteq	r0, r3
    1b40:	03005200 	movweq	r5, #512	; 0x200
    1b44:	03280000 			; <UNDEFINED> instruction: 0x03280000
    1b48:	00010000 	andeq	r0, r1, r0
    1b4c:	0000005c 	andeq	r0, r0, ip, asr r0
    1b50:	00000000 	andeq	r0, r0, r0
    1b54:	04000400 	streq	r0, [r0], #-1024	; 0xfffffc00
    1b58:	00010000 	andeq	r0, r1, r0
    1b5c:	a4000400 	strge	r0, [r0], #-1024	; 0xfffffc00
    1b60:	b0000000 	andlt	r0, r0, r0
    1b64:	01000000 	mrseq	r0, (UNDEF: 0)
    1b68:	027c5300 	rsbseq	r5, ip, #0, 6
    1b6c:	02900000 	addseq	r0, r0, #0, 0
    1b70:	00010000 	andeq	r0, r1, r0
    1b74:	00029053 	andeq	r9, r2, r3, asr r0
    1b78:	00029c00 	andeq	r9, r2, r0, lsl #24
    1b7c:	f3000400 	vshl.u8	d0, d0, d0
    1b80:	c09f5301 	addsgt	r5, pc, r1, lsl #6
    1b84:	cc000002 	stcgt	0, cr0, [r0], {2}
    1b88:	01000002 	tsteq	r0, r2
    1b8c:	02f05300 	rscseq	r5, r0, #0, 6
    1b90:	03280000 			; <UNDEFINED> instruction: 0x03280000
    1b94:	00030000 	andeq	r0, r3, r0
    1b98:	009f7f08 	addseq	r7, pc, r8, lsl #30
    1b9c:	00000000 	andeq	r0, r0, r0
    1ba0:	04000000 	streq	r0, [r0], #-0
    1ba4:	04010000 	streq	r0, [r1], #-0
    1ba8:	00010000 	andeq	r0, r1, r0
    1bac:	04000000 	streq	r0, [r0], #-0
    1bb0:	a4000000 	strge	r0, [r0], #-0
    1bb4:	b0000000 	andlt	r0, r0, r0
    1bb8:	01000000 	mrseq	r0, (UNDEF: 0)
    1bbc:	00b05200 	adcseq	r5, r0, r0, lsl #4
    1bc0:	015c0000 	cmpeq	ip, r0
    1bc4:	00040000 	andeq	r0, r4, r0
    1bc8:	9f7fa091 	svcls	0x007fa091
    1bcc:	0000027c 	andeq	r0, r0, ip, ror r2
    1bd0:	00000294 	muleq	r0, r4, r2
    1bd4:	a0910004 	addsge	r0, r1, r4
    1bd8:	02949f7f 	addseq	r9, r4, #508	; 0x1fc
    1bdc:	029c0000 	addseq	r0, ip, #0, 0
    1be0:	00010000 	andeq	r0, r1, r0
    1be4:	0002b45e 	andeq	fp, r2, lr, asr r4
    1be8:	0002c000 	andeq	ip, r2, r0
    1bec:	91000400 	tstls	r0, r0, lsl #8
    1bf0:	c09f7fa0 	addsgt	r7, pc, r0, lsr #31
    1bf4:	cc000002 	stcgt	0, cr0, [r0], {2}
    1bf8:	01000002 	tsteq	r0, r2
    1bfc:	02f05200 	rscseq	r5, r0, #0, 4
    1c00:	03000000 	movweq	r0, #0
    1c04:	00040000 	andeq	r0, r4, r0
    1c08:	9f7fa091 	svcls	0x007fa091
    1c0c:	00000300 	andeq	r0, r0, r0, lsl #6
    1c10:	00000328 	andeq	r0, r0, r8, lsr #6
    1c14:	00520001 	subseq	r0, r2, r1
    1c18:	00000000 	andeq	r0, r0, r0
    1c1c:	04000000 	streq	r0, [r0], #-0
    1c20:	01010000 	mrseq	r0, (UNDEF: 1)
    1c24:	03030101 	movweq	r0, #12545	; 0x3101
    1c28:	00010402 	andeq	r0, r1, r2, lsl #8
    1c2c:	04000000 	streq	r0, [r0], #-0
    1c30:	a4000000 	strge	r0, [r0], #-0
    1c34:	b0000000 	andlt	r0, r0, r0
    1c38:	01000000 	mrseq	r0, (UNDEF: 0)
    1c3c:	010c5e00 	tsteq	ip, r0, lsl #28
    1c40:	010c0000 	mrseq	r0, (UNDEF: 12)
    1c44:	00010000 	andeq	r0, r1, r0
    1c48:	00010c55 	andeq	r0, r1, r5, asr ip
    1c4c:	00012000 	andeq	r2, r1, r0
    1c50:	75000300 	strvc	r0, [r0, #-768]	; 0xfffffd00
    1c54:	01209f01 			; <UNDEFINED> instruction: 0x01209f01
    1c58:	012c0000 			; <UNDEFINED> instruction: 0x012c0000
    1c5c:	00030000 	andeq	r0, r3, r0
    1c60:	2c9f0275 	lfmcs	f0, 4, [pc], {117}	; 0x75
    1c64:	30000001 	andcc	r0, r0, r1
    1c68:	03000001 	movweq	r0, #1
    1c6c:	9f037500 	svcls	0x00037500
    1c70:	0000027c 	andeq	r0, r0, ip, ror r2
    1c74:	0000029c 	muleq	r0, ip, r2
    1c78:	a1910004 	orrsge	r0, r1, r4
    1c7c:	02c09f7f 	sbceq	r9, r0, #508	; 0x1fc
    1c80:	02c80000 	sbceq	r0, r8, #0, 0
    1c84:	00010000 	andeq	r0, r1, r0
    1c88:	0002c85e 	andeq	ip, r2, lr, asr r8
    1c8c:	0002cc00 	andeq	ip, r2, r0, lsl #24
    1c90:	56000100 	strpl	r0, [r0], -r0, lsl #2
    1c94:	000002f0 	strdeq	r0, [r0], -r0	; <UNPREDICTABLE>
    1c98:	000002fc 	strdeq	r0, [r0], -ip
    1c9c:	a1910004 	orrsge	r0, r1, r4
    1ca0:	02fc9f7f 	rscseq	r9, ip, #508	; 0x1fc
    1ca4:	03280000 			; <UNDEFINED> instruction: 0x03280000
    1ca8:	00010000 	andeq	r0, r1, r0
    1cac:	0000005e 	andeq	r0, r0, lr, asr r0
	...
    1cb8:	01010101 	tsteq	r1, r1, lsl #2
    1cbc:	06020101 	streq	r0, [r2], -r1, lsl #2
    1cc0:	06000001 	streq	r0, [r0], -r1
    1cc4:	0000a800 	andeq	sl, r0, r0, lsl #16
    1cc8:	0000b000 	andeq	fp, r0, r0
    1ccc:	51000100 	mrspl	r0, (UNDEF: 16)
    1cd0:	0000010c 	andeq	r0, r0, ip, lsl #2
    1cd4:	0000011c 	andeq	r0, r0, ip, lsl r1
    1cd8:	1c5c0001 	mrrcne	0, 0, r0, ip, cr1
    1cdc:	2c000001 	stccs	0, cr0, [r0], {1}
    1ce0:	01000001 	tsteq	r0, r1
    1ce4:	012c5800 			; <UNDEFINED> instruction: 0x012c5800
    1ce8:	01300000 	teqeq	r0, r0
    1cec:	00010000 	andeq	r0, r1, r0
    1cf0:	0001305c 	andeq	r3, r1, ip, asr r0
    1cf4:	00013000 	andeq	r3, r1, r0
    1cf8:	7c000300 	stcvc	3, cr0, [r0], {-0}
    1cfc:	027c9f01 	rsbseq	r9, ip, #1, 30
    1d00:	029c0000 	addseq	r0, ip, #0, 0
    1d04:	00020000 	andeq	r0, r2, r0
    1d08:	02c09f31 	sbceq	r9, r0, #196	; 0xc4
    1d0c:	02cc0000 	sbceq	r0, ip, #0, 0
    1d10:	00010000 	andeq	r0, r1, r0
    1d14:	0002f051 	andeq	pc, r2, r1, asr r0	; <UNPREDICTABLE>
    1d18:	00032800 	andeq	r2, r3, r0, lsl #16
    1d1c:	31000200 	mrscc	r0, R8_usr
    1d20:	0000009f 	muleq	r0, pc, r0	; <UNPREDICTABLE>
    1d24:	00000000 	andeq	r0, r0, r0
    1d28:	06060100 	streq	r0, [r6], -r0, lsl #2
    1d2c:	00000101 	andeq	r0, r0, r1, lsl #2
    1d30:	00015c01 	andeq	r5, r1, r1, lsl #24
    1d34:	00015c00 	andeq	r5, r1, r0, lsl #24
    1d38:	91000400 	tstls	r0, r0, lsl #8
    1d3c:	5c9f7fa0 	ldcpl	15, cr7, [pc], {160}	; 0xa0
    1d40:	8c000001 	stchi	0, cr0, [r0], {1}
    1d44:	01000001 	tsteq	r0, r1
    1d48:	029c5200 	addseq	r5, ip, #0, 4
    1d4c:	02a00000 	adceq	r0, r0, #0, 0
    1d50:	00010000 	andeq	r0, r1, r0
    1d54:	0002a05e 	andeq	sl, r2, lr, asr r0
    1d58:	0002ac00 	andeq	sl, r2, r0, lsl #24
    1d5c:	52000100 	andpl	r0, r0, #0
	...
    1d68:	01000000 	mrseq	r0, (UNDEF: 0)
    1d6c:	07010001 	streq	r0, [r1, -r1]
    1d70:	0000016c 	andeq	r0, r0, ip, ror #2
    1d74:	00000170 	andeq	r0, r0, r0, ror r1
    1d78:	7f730003 	svcvc	0x00730003
    1d7c:	0001709f 	muleq	r1, pc, r0	; <UNPREDICTABLE>
    1d80:	00017800 	andeq	r7, r1, r0, lsl #16
    1d84:	53000100 	movwpl	r0, #256	; 0x100
    1d88:	00000178 	andeq	r0, r0, r8, ror r1
    1d8c:	00000184 	andeq	r0, r0, r4, lsl #3
    1d90:	7f730003 	svcvc	0x00730003
    1d94:	00029c9f 	muleq	r2, pc, ip	; <UNPREDICTABLE>
    1d98:	00029c00 	andeq	r9, r2, r0, lsl #24
    1d9c:	91000400 	tstls	r0, r0, lsl #8
    1da0:	009f7fa1 	addseq	r7, pc, r1, lsr #31
    1da4:	00000000 	andeq	r0, r0, r0
    1da8:	01000000 	mrseq	r0, (UNDEF: 0)
    1dac:	5c010101 	stfpls	f0, [r1], {1}
    1db0:	8c000001 	stchi	0, cr0, [r0], {1}
    1db4:	03000001 	movweq	r0, #1
    1db8:	9f800800 	svcls	0x00800800
    1dbc:	0000029c 	muleq	r0, ip, r2
    1dc0:	000002ac 	andeq	r0, r0, ip, lsr #5
    1dc4:	80080003 	andhi	r0, r8, r3
    1dc8:	0000009f 	muleq	r0, pc, r0	; <UNPREDICTABLE>
    1dcc:	00000000 	andeq	r0, r0, r0
    1dd0:	00000100 	andeq	r0, r0, r0, lsl #2
    1dd4:	00000101 	andeq	r0, r0, r1, lsl #2
    1dd8:	01010101 	tsteq	r1, r1, lsl #2
    1ddc:	5c010101 	stfpls	f0, [r1], {1}
    1de0:	6c000001 	stcvs	0, cr0, [r0], {1}
    1de4:	01000001 	tsteq	r0, r1
    1de8:	016c5000 	cmneq	ip, r0
    1dec:	016c0000 	cmneq	ip, r0
    1df0:	00030000 	andeq	r0, r3, r0
    1df4:	6c9f017c 	ldfvss	f0, [pc], {124}	; 0x7c
    1df8:	78000001 	stmdavc	r0, {r0}
    1dfc:	03000001 	movweq	r0, #1
    1e00:	9f027c00 	svcls	0x00027c00
    1e04:	00000178 	andeq	r0, r0, r8, ror r1
    1e08:	00000188 	andeq	r0, r0, r8, lsl #3
    1e0c:	017c0003 	cmneq	ip, r3
    1e10:	0001889f 	muleq	r1, pc, r8	; <UNPREDICTABLE>
    1e14:	00018c00 	andeq	r8, r1, r0, lsl #24
    1e18:	7e000300 	cdpvc	3, 0, cr0, cr0, cr0, {0}
    1e1c:	029c9f01 	addseq	r9, ip, #1, 30
    1e20:	02a40000 	adceq	r0, r4, #0, 0
    1e24:	00010000 	andeq	r0, r1, r0
    1e28:	0002a450 	andeq	sl, r2, r0, asr r4
    1e2c:	0002ac00 	andeq	sl, r2, r0, lsl #24
    1e30:	7e000300 	cdpvc	3, 0, cr0, cr0, cr0, {0}
    1e34:	00009f01 	andeq	r9, r0, r1, lsl #30
    1e38:	00000000 	andeq	r0, r0, r0
    1e3c:	00040000 	andeq	r0, r4, r0
    1e40:	01000004 	tsteq	r0, r4
    1e44:	0000015c 	andeq	r0, r0, ip, asr r1
    1e48:	00000160 	andeq	r0, r0, r0, ror #2
    1e4c:	01710003 	cmneq	r1, r3
    1e50:	00029c9f 	muleq	r2, pc, ip	; <UNPREDICTABLE>
    1e54:	0002a000 	andeq	sl, r2, r0
    1e58:	32000200 	andcc	r0, r0, #0, 4
    1e5c:	0002a09f 	muleq	r2, pc, r0	; <UNPREDICTABLE>
    1e60:	0002ac00 	andeq	sl, r2, r0, lsl #24
    1e64:	71000300 	mrsvc	r0, LR_irq
    1e68:	00009f01 	andeq	r9, r0, r1, lsl #30
    1e6c:	00000000 	andeq	r0, r0, r0
    1e70:	00070000 	andeq	r0, r7, r0
    1e74:	015c0006 	cmpeq	ip, r6
    1e78:	01940000 	orrseq	r0, r4, r0
    1e7c:	00010000 	andeq	r0, r1, r0
    1e80:	00029c50 	andeq	r9, r2, r0, asr ip
    1e84:	0002b400 	andeq	fp, r2, r0, lsl #8
    1e88:	50000100 	andpl	r0, r0, r0, lsl #2
	...
    1e94:	00010101 	andeq	r0, r1, r1, lsl #2
    1e98:	00000214 	andeq	r0, r0, r4, lsl r2
    1e9c:	00000220 	andeq	r0, r0, r0, lsr #4
    1ea0:	9f300002 	svcls	0x00300002
    1ea4:	00000220 	andeq	r0, r0, r0, lsr #4
    1ea8:	00000234 	andeq	r0, r0, r4, lsr r2
    1eac:	9f310002 	svcls	0x00310002
	...
    1eb8:	02010100 	andeq	r0, r1, #0
    1ebc:	00000002 	andeq	r0, r0, r2
    1ec0:	00008ee8 	andeq	r8, r0, r8, ror #29
    1ec4:	00008ee8 	andeq	r8, r0, r8, ror #29
    1ec8:	e8530001 	ldmda	r3, {r0}^
    1ecc:	e800008e 	stmda	r0, {r1, r2, r3, r7}
    1ed0:	0700008e 	streq	r0, [r0, -lr, lsl #1]
    1ed4:	0b007300 	bleq	1eadc <__bss_end__+0x1505c>
    1ed8:	9f1aefff 	svcls	0x001aefff
    1edc:	00008ee8 	andeq	r8, r0, r8, ror #29
    1ee0:	00008eec 	andeq	r8, r0, ip, ror #29
    1ee4:	00730007 	rsbseq	r0, r3, r7
    1ee8:	1ae7ff0b 	bne	ffa01b1c <__bss_end__+0xff9f809c>
    1eec:	008eec9f 	umulleq	lr, lr, pc, ip	; <UNPREDICTABLE>
    1ef0:	008ef400 	addeq	pc, lr, r0, lsl #8
    1ef4:	53000100 	movwpl	r0, #256	; 0x100
	...
    1f00:	02010100 	andeq	r0, r1, #0
    1f04:	00000002 	andeq	r0, r0, r2
    1f08:	00008ed8 	ldrdeq	r8, [r0], -r8	; <UNPREDICTABLE>
    1f0c:	00008ed8 	ldrdeq	r8, [r0], -r8	; <UNPREDICTABLE>
    1f10:	d8530001 	ldmdale	r3, {r0}^
    1f14:	d800008e 	stmdale	r0, {r1, r2, r3, r7}
    1f18:	0700008e 	streq	r0, [r0, -lr, lsl #1]
    1f1c:	0a007300 	beq	1eb24 <__bss_end__+0x150a4>
    1f20:	9f211000 	svcls	0x00211000
    1f24:	00008ed8 	ldrdeq	r8, [r0], -r8	; <UNPREDICTABLE>
    1f28:	00008edc 	ldrdeq	r8, [r0], -ip
    1f2c:	00730007 	rsbseq	r0, r3, r7
    1f30:	2118000a 	tstcs	r8, sl
    1f34:	008edc9f 	umulleq	sp, lr, pc, ip	; <UNPREDICTABLE>
    1f38:	008ee400 	addeq	lr, lr, r0, lsl #8
    1f3c:	53000100 	movwpl	r0, #256	; 0x100
	...
    1f48:	00010100 	andeq	r0, r1, r0, lsl #2
    1f4c:	00010100 	andeq	r0, r1, r0, lsl #2
    1f50:	00010100 	andeq	r0, r1, r0, lsl #2
    1f54:	00010100 	andeq	r0, r1, r0, lsl #2
    1f58:	00010100 	andeq	r0, r1, r0, lsl #2
    1f5c:	01020200 	mrseq	r0, R10_usr
    1f60:	00000080 	andeq	r0, r0, r0, lsl #1
    1f64:	00000080 	andeq	r0, r0, r0, lsl #1
    1f68:	80530001 	subshi	r0, r3, r1
    1f6c:	8c000000 	stchi	0, cr0, [r0], {-0}
    1f70:	03000000 	movweq	r0, #0
    1f74:	9f047300 	svcls	0x00047300
    1f78:	0000008c 	andeq	r0, r0, ip, lsl #1
    1f7c:	00000094 	muleq	r0, r4, r0
    1f80:	94510001 	ldrbls	r0, [r1], #-1
    1f84:	98000000 	stmdals	r0, {}	; <UNPREDICTABLE>
    1f88:	03000000 	movweq	r0, #0
    1f8c:	9f087300 	svcls	0x00087300
    1f90:	00000098 	muleq	r0, r8, r0
    1f94:	000000a4 	andeq	r0, r0, r4, lsr #1
    1f98:	a4510001 	ldrbge	r0, [r1], #-1
    1f9c:	a8000000 	stmdage	r0, {}	; <UNPREDICTABLE>
    1fa0:	03000000 	movweq	r0, #0
    1fa4:	9f0c7300 	svcls	0x000c7300
    1fa8:	000000a8 	andeq	r0, r0, r8, lsr #1
    1fac:	000000b4 	strheq	r0, [r0], -r4
    1fb0:	b4510001 	ldrblt	r0, [r1], #-1
    1fb4:	b8000000 	stmdalt	r0, {}	; <UNPREDICTABLE>
    1fb8:	03000000 	movweq	r0, #0
    1fbc:	9f107300 	svcls	0x00107300
    1fc0:	000000b8 	strheq	r0, [r0], -r8
    1fc4:	000000c4 	andeq	r0, r0, r4, asr #1
    1fc8:	c4510001 	ldrbgt	r0, [r1], #-1
    1fcc:	c8000000 	stmdagt	r0, {}	; <UNPREDICTABLE>
    1fd0:	03000000 	movweq	r0, #0
    1fd4:	9f147300 	svcls	0x00147300
    1fd8:	000000c8 	andeq	r0, r0, r8, asr #1
    1fdc:	000000d0 	ldrdeq	r0, [r0], -r0	; <UNPREDICTABLE>
    1fe0:	d0510001 	subsle	r0, r1, r1
    1fe4:	d4000000 	strle	r0, [r0], #-0
    1fe8:	03000000 	movweq	r0, #0
    1fec:	9f047100 	svcls	0x00047100
	...
    1ff8:	00d80002 	sbcseq	r0, r8, r2
    1ffc:	00e80000 	rsceq	r0, r8, r0
    2000:	00020000 	andeq	r0, r2, r0
    2004:	00009f31 	andeq	r9, r0, r1, lsr pc
    2008:	00000000 	andeq	r0, r0, r0
    200c:	00040000 	andeq	r0, r4, r0
    2010:	90480100 	subls	r0, r8, r0, lsl #2
    2014:	90500000 	subsls	r0, r0, r0
    2018:	00020000 	andeq	r0, r2, r0
    201c:	90509f30 	subsls	r9, r0, r0, lsr pc
    2020:	90500000 	subsls	r0, r0, r0
    2024:	00010000 	andeq	r0, r1, r0
    2028:	00000053 	andeq	r0, r0, r3, asr r0
    202c:	00000000 	andeq	r0, r0, r0
    2030:	00000300 	andeq	r0, r0, r0, lsl #6
    2034:	00000000 	andeq	r0, r0, r0
    2038:	00905c00 	addseq	r5, r0, r0, lsl #24
    203c:	00906000 	addseq	r6, r0, r0
    2040:	30000200 	andcc	r0, r0, r0, lsl #4
    2044:	0090609f 	umullseq	r6, r0, pc, r0	; <UNPREDICTABLE>
    2048:	00906400 	addseq	r6, r0, r0, lsl #8
    204c:	53000100 	movwpl	r0, #256	; 0x100
    2050:	00009064 	andeq	r9, r0, r4, rrx
    2054:	00009068 	andeq	r9, r0, r8, rrx
    2058:	00730005 	rsbseq	r0, r3, r5
    205c:	689f2140 	ldmvs	pc, {r6, r8, sp}	; <UNPREDICTABLE>
    2060:	6c000090 	stcvs	0, cr0, [r0], {144}	; 0x90
    2064:	01000090 	swpeq	r0, r0, [r0]	; <UNPREDICTABLE>
    2068:	00005300 	andeq	r5, r0, r0, lsl #6
    206c:	00000000 	andeq	r0, r0, r0
    2070:	00020000 	andeq	r0, r2, r0
    2074:	901c0000 	andsls	r0, ip, r0
    2078:	90200000 	eorls	r0, r0, r0
    207c:	00020000 	andeq	r0, r2, r0
    2080:	90209f30 	eorls	r9, r0, r0, lsr pc
    2084:	90240000 	eorls	r0, r4, r0
    2088:	00010000 	andeq	r0, r1, r0
    208c:	00000050 	andeq	r0, r0, r0, asr r0
    2090:	00000000 	andeq	r0, r0, r0
    2094:	00000200 	andeq	r0, r0, r0, lsl #4
    2098:	00000000 	andeq	r0, r0, r0
    209c:	00903400 	addseq	r3, r0, r0, lsl #8
    20a0:	00903800 	addseq	r3, r0, r0, lsl #16
    20a4:	30000200 	andcc	r0, r0, r0, lsl #4
    20a8:	0090389f 	umullseq	r3, r0, pc, r8	; <UNPREDICTABLE>
    20ac:	00903c00 	addseq	r3, r0, r0, lsl #24
    20b0:	53000100 	movwpl	r0, #256	; 0x100
    20b4:	0000903c 	andeq	r9, r0, ip, lsr r0
    20b8:	00009040 	andeq	r9, r0, r0, asr #32
    20bc:	00730005 	rsbseq	r0, r3, r5
    20c0:	409f2140 	addsmi	r2, pc, r0, asr #2
    20c4:	48000090 	stmdami	r0, {r4, r7}
    20c8:	01000090 	swpeq	r0, r0, [r0]	; <UNPREDICTABLE>
    20cc:	00005300 	andeq	r5, r0, r0, lsl #6
	...
    20d8:	00c80000 	sbceq	r0, r8, r0
    20dc:	00d80000 	sbcseq	r0, r8, r0
    20e0:	00010000 	andeq	r0, r1, r0
    20e4:	0000d850 	andeq	sp, r0, r0, asr r8
    20e8:	00011c00 	andeq	r1, r1, r0, lsl #24
    20ec:	f3000400 	vshl.u8	d0, d0, d0
    20f0:	009f5001 	addseq	r5, pc, r1
    20f4:	00000000 	andeq	r0, r0, r0
    20f8:	02000000 	andeq	r0, r0, #0, 0
    20fc:	c8000000 	stmdagt	r0, {}	; <UNPREDICTABLE>
    2100:	d8000000 	stmdale	r0, {}	; <UNPREDICTABLE>
    2104:	07000000 	streq	r0, [r0, -r0]
    2108:	0a007000 	beq	1e110 <__bss_end__+0x14690>
    210c:	9f1e03e8 	svcls	0x001e03e8
    2110:	000000d8 	ldrdeq	r0, [r0], -r8
    2114:	0000011c 	andeq	r0, r0, ip, lsl r1
    2118:	01f30008 	mvnseq	r0, r8
    211c:	03e80a50 	mvneq	r0, #80, 20	; 0x50000
    2120:	00009f1e 	andeq	r9, r0, lr, lsl pc
	...
    212c:	000000dc 	ldrdeq	r0, [r0], -ip
    2130:	0000011c 	andeq	r0, r0, ip, lsl r1
    2134:	00540001 	subseq	r0, r4, r1
    2138:	00000000 	andeq	r0, r0, r0
    213c:	01000000 	mrseq	r0, (UNDEF: 0)
    2140:	0000f000 	andeq	pc, r0, r0
    2144:	00011c00 	andeq	r1, r1, r0, lsl #24
    2148:	56000100 	strpl	r0, [r0], -r0, lsl #2
	...
    2158:	000000ec 	andeq	r0, r0, ip, ror #1
    215c:	000000ef 	andeq	r0, r0, pc, ror #1
    2160:	ef500001 	svc	0x00500001
    2164:	1c000000 	stcne	0, cr0, [r0], {-0}
    2168:	01000001 	tsteq	r0, r1
    216c:	00005600 	andeq	r5, r0, r0, lsl #12
	...
    2178:	00000104 	andeq	r0, r0, r4, lsl #2
    217c:	0000010b 	andeq	r0, r0, fp, lsl #2
    2180:	00500001 	subseq	r0, r0, r1
	...
    218c:	20000000 	andcs	r0, r0, r0
    2190:	23000000 	movwcs	r0, #0
    2194:	01000000 	mrseq	r0, (UNDEF: 0)
    2198:	00235000 	eoreq	r5, r3, r0
    219c:	00300000 	eorseq	r0, r0, r0
    21a0:	00010000 	andeq	r0, r1, r0
    21a4:	00000054 	andeq	r0, r0, r4, asr r0
	...
    21b0:	00003000 	andeq	r3, r0, r0
    21b4:	00003b00 	andeq	r3, r0, r0, lsl #22
    21b8:	50000100 	andpl	r0, r0, r0, lsl #2
    21bc:	0000003b 	andeq	r0, r0, fp, lsr r0
    21c0:	00000078 	andeq	r0, r0, r8, ror r0
    21c4:	00560001 	subseq	r0, r6, r1
    21c8:	00000000 	andeq	r0, r0, r0
    21cc:	01000000 	mrseq	r0, (UNDEF: 0)
    21d0:	00004c00 	andeq	r4, r0, r0, lsl #24
    21d4:	00007800 	andeq	r7, r0, r0, lsl #16
    21d8:	55000100 	strpl	r0, [r0, #-256]	; 0xffffff00
	...
    21e8:	00000048 	andeq	r0, r0, r8, asr #32
    21ec:	0000004b 	andeq	r0, r0, fp, asr #32
    21f0:	4b500001 	blmi	14021fc <__bss_end__+0x13f877c>
    21f4:	78000000 	stmdavc	r0, {}	; <UNPREDICTABLE>
    21f8:	01000000 	mrseq	r0, (UNDEF: 0)
    21fc:	00005500 	andeq	r5, r0, r0, lsl #10
	...
    2208:	00000060 	andeq	r0, r0, r0, rrx
    220c:	00000067 	andeq	r0, r0, r7, rrx
    2210:	00500001 	subseq	r0, r0, r1
	...
    221c:	78000000 	stmdavc	r0, {}	; <UNPREDICTABLE>
    2220:	84000000 	strhi	r0, [r0], #-0
    2224:	01000000 	mrseq	r0, (UNDEF: 0)
    2228:	00845000 	addeq	r5, r4, r0
    222c:	00c80000 	sbceq	r0, r8, r0
    2230:	00040000 	andeq	r0, r4, r0
    2234:	9f5001f3 	svcls	0x005001f3
	...
    2240:	00880000 	addeq	r0, r8, r0
    2244:	00c80000 	sbceq	r0, r8, r0
    2248:	00010000 	andeq	r0, r1, r0
    224c:	00000054 	andeq	r0, r0, r4, asr r0
    2250:	00000000 	andeq	r0, r0, r0
    2254:	9c000100 	stflss	f0, [r0], {-0}
    2258:	c8000000 	stmdagt	r0, {}	; <UNPREDICTABLE>
    225c:	01000000 	mrseq	r0, (UNDEF: 0)
    2260:	00005600 	andeq	r5, r0, r0, lsl #12
	...
    226c:	00980000 	addseq	r0, r8, r0
    2270:	009b0000 	addseq	r0, fp, r0
    2274:	00010000 	andeq	r0, r1, r0
    2278:	00009b50 	andeq	r9, r0, r0, asr fp
    227c:	0000c800 	andeq	ip, r0, r0, lsl #16
    2280:	56000100 	strpl	r0, [r0], -r0, lsl #2
	...
    228c:	00b00000 	adcseq	r0, r0, r0
    2290:	00b70000 	adcseq	r0, r7, r0
    2294:	00010000 	andeq	r0, r1, r0
    2298:	00000050 	andeq	r0, r0, r0, asr r0
	...
    22a4:	00015800 	andeq	r5, r1, r0, lsl #16
    22a8:	00016300 	andeq	r6, r1, r0, lsl #6
    22ac:	50000100 	andpl	r0, r0, r0, lsl #2
    22b0:	00000163 	andeq	r0, r0, r3, ror #2
    22b4:	00000188 	andeq	r0, r0, r8, lsl #3
    22b8:	00540001 	subseq	r0, r4, r1
	...
    22c4:	00014800 	andeq	r4, r1, r0, lsl #16
    22c8:	00015800 	andeq	r5, r1, r0, lsl #16
    22cc:	54000100 	strpl	r0, [r0], #-256	; 0xffffff00
	...
    22e0:	0000000f 	andeq	r0, r0, pc
    22e4:	0f500001 	svceq	0x00500001
    22e8:	20000000 	andcs	r0, r0, r0
    22ec:	01000000 	mrseq	r0, (UNDEF: 0)
    22f0:	00005400 	andeq	r5, r0, r0, lsl #8
	...
    2300:	000f0000 	andeq	r0, pc, r0
    2304:	00010000 	andeq	r0, r1, r0
    2308:	00000f51 	andeq	r0, r0, r1, asr pc
    230c:	00002000 	andeq	r2, r0, r0
    2310:	55000100 	strpl	r0, [r0, #-256]	; 0xffffff00
	...
    2320:	00000020 	andeq	r0, r0, r0, lsr #32
    2324:	0000002f 	andeq	r0, r0, pc, lsr #32
    2328:	2f500001 	svccs	0x00500001
    232c:	40000000 	andmi	r0, r0, r0
    2330:	01000000 	mrseq	r0, (UNDEF: 0)
    2334:	00005400 	andeq	r5, r0, r0, lsl #8
	...
    2340:	00200000 	eoreq	r0, r0, r0
    2344:	002f0000 	eoreq	r0, pc, r0
    2348:	00010000 	andeq	r0, r1, r0
    234c:	00002f51 	andeq	r2, r0, r1, asr pc
    2350:	00004000 	andeq	r4, r0, r0
    2354:	55000100 	strpl	r0, [r0, #-256]	; 0xffffff00
	...
    2368:	0000000b 	andeq	r0, r0, fp
    236c:	0b500001 	bleq	1402378 <__bss_end__+0x13f88f8>
    2370:	14000000 	strne	r0, [r0], #-0
    2374:	01000000 	mrseq	r0, (UNDEF: 0)
    2378:	00005400 	andeq	r5, r0, r0, lsl #8
	...
    2388:	00180000 	andseq	r0, r8, r0
    238c:	00010000 	andeq	r0, r1, r0
    2390:	00001851 	andeq	r1, r0, r1, asr r8
    2394:	00002c00 	andeq	r2, r0, r0, lsl #24
    2398:	f3000400 	vshl.u8	d0, d0, d0
    239c:	009f5101 	addseq	r5, pc, r1, lsl #2
    23a0:	00000000 	andeq	r0, r0, r0
    23a4:	02000000 	andeq	r0, r0, #0, 0
	...
    23b0:	00000101 	andeq	r0, r0, r1, lsl #2
    23b4:	00000000 	andeq	r0, r0, r0
    23b8:	00000400 	andeq	r0, r0, r0, lsl #8
    23bc:	50000100 	andpl	r0, r0, r0, lsl #2
    23c0:	00000004 	andeq	r0, r0, r4
    23c4:	00000008 	andeq	r0, r0, r8
    23c8:	08520001 	ldmdaeq	r2, {r0}^
    23cc:	0c000000 	stceq	0, cr0, [r0], {-0}
    23d0:	03000000 	movweq	r0, #0
    23d4:	9f017200 	svcls	0x00017200
    23d8:	0000000c 	andeq	r0, r0, ip
    23dc:	00000018 	andeq	r0, r0, r8, lsl r0
    23e0:	18520001 	ldmdane	r2, {r0}^
    23e4:	1c000000 	stcne	0, cr0, [r0], {-0}
    23e8:	01000000 	mrseq	r0, (UNDEF: 0)
    23ec:	001c5300 	andseq	r5, ip, r0, lsl #6
    23f0:	00240000 	eoreq	r0, r4, r0
    23f4:	00030000 	andeq	r0, r3, r0
    23f8:	249f0173 	ldrcs	r0, [pc], #371	; 2400 <__code_start__-0x5c00>
    23fc:	2c000000 	stccs	0, cr0, [r0], {-0}
    2400:	01000000 	mrseq	r0, (UNDEF: 0)
    2404:	00005300 	andeq	r5, r0, r0, lsl #6
    2408:	00000000 	andeq	r0, r0, r0
    240c:	02030000 	andeq	r0, r3, #0, 0
    2410:	00000002 	andeq	r0, r0, r2
    2414:	00000000 	andeq	r0, r0, r0
    2418:	00000018 	andeq	r0, r0, r8, lsl r0
    241c:	18510001 	ldmdane	r1, {r0}^
    2420:	1c000000 	stcne	0, cr0, [r0], {-0}
    2424:	03000000 	movweq	r0, #0
    2428:	9f017100 	svcls	0x00017100
    242c:	0000001c 	andeq	r0, r0, ip, lsl r0
    2430:	0000002c 	andeq	r0, r0, ip, lsr #32
    2434:	00510001 	subseq	r0, r1, r1
	...
    2444:	00000800 	andeq	r0, r0, r0, lsl #16
    2448:	00000c00 	andeq	r0, r0, r0, lsl #24
    244c:	72000200 	andvc	r0, r0, #0, 4
    2450:	00000c00 	andeq	r0, r0, r0, lsl #24
    2454:	00001800 	andeq	r1, r0, r0, lsl #16
    2458:	73000200 	movwvc	r0, #512	; 0x200
    245c:	00001c00 	andeq	r1, r0, r0, lsl #24
    2460:	00002c00 	andeq	r2, r0, r0, lsl #24
    2464:	52000100 	andpl	r0, r0, #0
	...
    2480:	00000014 	andeq	r0, r0, r4, lsl r0
    2484:	14500001 	ldrbne	r0, [r0], #-1
    2488:	18000000 	stmdane	r0, {}	; <UNPREDICTABLE>
    248c:	03000000 	movweq	r0, #0
    2490:	9f017000 	svcls	0x00017000
    2494:	00000018 	andeq	r0, r0, r8, lsl r0
    2498:	00000020 	andeq	r0, r0, r0, lsr #32
    249c:	24500001 	ldrbcs	r0, [r0], #-1
    24a0:	28000000 	stmdacs	r0, {}	; <UNPREDICTABLE>
    24a4:	01000000 	mrseq	r0, (UNDEF: 0)
    24a8:	00285000 	eoreq	r5, r8, r0
    24ac:	00300000 	eorseq	r0, r0, r0
    24b0:	00030000 	andeq	r0, r3, r0
    24b4:	389f0170 	ldmcc	pc, {r4, r5, r6, r8}	; <UNPREDICTABLE>
    24b8:	40000000 	andmi	r0, r0, r0
    24bc:	01000000 	mrseq	r0, (UNDEF: 0)
    24c0:	00005000 	andeq	r5, r0, r0
	...
    24d4:	00000024 	andeq	r0, r0, r4, lsr #32
    24d8:	24510001 	ldrbcs	r0, [r1], #-1
    24dc:	28000000 	stmdacs	r0, {}	; <UNPREDICTABLE>
    24e0:	01000000 	mrseq	r0, (UNDEF: 0)
    24e4:	00285c00 	eoreq	r5, r8, r0, lsl #24
    24e8:	00440000 	subeq	r0, r4, r0
    24ec:	00010000 	andeq	r0, r1, r0
    24f0:	00000051 	andeq	r0, r0, r1, asr r0
    24f4:	00000000 	andeq	r0, r0, r0
    24f8:	02020000 	andeq	r0, r2, #0, 0
    24fc:	00000000 	andeq	r0, r0, r0
    2500:	04000000 	streq	r0, [r0], #-0
    2504:	01000000 	mrseq	r0, (UNDEF: 0)
    2508:	00045100 	andeq	r5, r4, r0, lsl #2
    250c:	00080000 	andeq	r0, r8, r0
    2510:	00030000 	andeq	r0, r3, r0
    2514:	089f0171 	ldmeq	pc, {r0, r4, r5, r6, r8}	; <UNPREDICTABLE>
    2518:	18000000 	stmdane	r0, {}	; <UNPREDICTABLE>
    251c:	01000000 	mrseq	r0, (UNDEF: 0)
    2520:	00005100 	andeq	r5, r0, r0, lsl #2
    2524:	00000000 	andeq	r0, r0, r0
    2528:	00020000 	andeq	r0, r2, r0
    252c:	00000000 	andeq	r0, r0, r0
    2530:	00000004 	andeq	r0, r0, r4
    2534:	00500001 	subseq	r0, r0, r1
	...
    2544:	08000000 	stmdaeq	r0, {}	; <UNPREDICTABLE>
    2548:	01000000 	mrseq	r0, (UNDEF: 0)
    254c:	00085000 	andeq	r5, r8, r0
    2550:	00300000 	eorseq	r0, r0, r0
    2554:	00040000 	andeq	r0, r4, r0
    2558:	9f5001f3 	svcls	0x005001f3
	...
    256c:	00000008 	andeq	r0, r0, r8
    2570:	08510001 	ldmdaeq	r1, {r0}^
    2574:	30000000 	andcc	r0, r0, r0
    2578:	04000000 	streq	r0, [r0], #-0
    257c:	5101f300 	mrspl	pc, SP_irq	; <UNPREDICTABLE>
    2580:	0000009f 	muleq	r0, pc, r0	; <UNPREDICTABLE>
	...
    258c:	01000000 	mrseq	r0, (UNDEF: 0)
    2590:	00000202 	andeq	r0, r0, r2, lsl #4
    2594:	04000000 	streq	r0, [r0], #-0
    2598:	01000000 	mrseq	r0, (UNDEF: 0)
    259c:	00045200 	andeq	r5, r4, r0, lsl #4
    25a0:	00080000 	andeq	r0, r8, r0
    25a4:	00040000 	andeq	r0, r4, r0
    25a8:	9f5201f3 	svcls	0x005201f3
    25ac:	00000008 	andeq	r0, r0, r8
    25b0:	00000018 	andeq	r0, r0, r8, lsl r0
    25b4:	01f30006 	mvnseq	r0, r6
    25b8:	9f1c3152 	svcls	0x001c3152
    25bc:	00000018 	andeq	r0, r0, r8, lsl r0
    25c0:	00000018 	andeq	r0, r0, r8, lsl r0
    25c4:	01f30004 	mvnseq	r0, r4
    25c8:	00189f52 	andseq	r9, r8, r2, asr pc
    25cc:	00300000 	eorseq	r0, r0, r0
    25d0:	00060000 	andeq	r0, r6, r0
    25d4:	315201f3 	ldrshcc	r0, [r2, #-19]	; 0xffffffed
    25d8:	00009f1c 	andeq	r9, r0, ip, lsl pc
    25dc:	00000000 	andeq	r0, r0, r0
    25e0:	00020000 	andeq	r0, r2, r0
    25e4:	00010000 	andeq	r0, r1, r0
    25e8:	00000000 	andeq	r0, r0, r0
    25ec:	000c0000 	andeq	r0, ip, r0
    25f0:	00010000 	andeq	r0, r1, r0
    25f4:	00000c50 	andeq	r0, r0, r0, asr ip
    25f8:	00001800 	andeq	r1, r0, r0, lsl #16
    25fc:	70000300 	andvc	r0, r0, r0, lsl #6
    2600:	00189f7f 	andseq	r9, r8, pc, ror pc
    2604:	00240000 	eoreq	r0, r4, r0
    2608:	00010000 	andeq	r0, r1, r0
    260c:	00002850 	andeq	r2, r0, r0, asr r8
    2610:	00002c00 	andeq	r2, r0, r0, lsl #24
    2614:	70000300 	andvc	r0, r0, r0, lsl #6
    2618:	00009f7f 	andeq	r9, r0, pc, ror pc
    261c:	00000000 	andeq	r0, r0, r0
    2620:	00020000 	andeq	r0, r2, r0
	...
    262c:	0000000c 	andeq	r0, r0, ip
    2630:	0c510001 	mrrceq	0, 0, r0, r1, cr1
    2634:	10000000 	andne	r0, r0, r0
    2638:	03000000 	movweq	r0, #0
    263c:	9f017100 	svcls	0x00017100
    2640:	00000010 	andeq	r0, r0, r0, lsl r0
    2644:	00000030 	andeq	r0, r0, r0, lsr r0
    2648:	00510001 	subseq	r0, r1, r1
    264c:	00000000 	andeq	r0, r0, r0
    2650:	Address 0x0000000000002650 is out of bounds.


Disassembly of section .debug_aranges:

00000000 <.debug_aranges>:
   0:	0000001c 	andeq	r0, r0, ip, lsl r0
   4:	00000002 	andeq	r0, r0, r2
   8:	00040000 	andeq	r0, r4, r0
   c:	00000000 	andeq	r0, r0, r0
  10:	00008038 	andeq	r8, r0, r8, lsr r0
  14:	000002b8 			; <UNDEFINED> instruction: 0x000002b8
	...
  20:	0000001c 	andeq	r0, r0, ip, lsl r0
  24:	057b0002 	ldrbeq	r0, [fp, #-2]!
  28:	00040000 	andeq	r0, r4, r0
  2c:	00000000 	andeq	r0, r0, r0
  30:	000082f0 	strdeq	r8, [r0], -r0
  34:	000001a0 	andeq	r0, r0, r0, lsr #3
	...
  40:	0000001c 	andeq	r0, r0, ip, lsl r0
  44:	0b980002 	bleq	fe600054 <__bss_end__+0xfe5f65d4>
  48:	00040000 	andeq	r0, r4, r0
  4c:	00000000 	andeq	r0, r0, r0
  50:	00008490 	muleq	r0, r0, r4
  54:	00000058 	andeq	r0, r0, r8, asr r0
	...
  60:	0000001c 	andeq	r0, r0, ip, lsl r0
  64:	0d390002 	ldceq	0, cr0, [r9, #-8]!
  68:	00040000 	andeq	r0, r4, r0
  6c:	00000000 	andeq	r0, r0, r0
  70:	000084e8 	andeq	r8, r0, r8, ror #9
  74:	00000038 	andeq	r0, r0, r8, lsr r0
	...
  80:	0000001c 	andeq	r0, r0, ip, lsl r0
  84:	0e300002 	cdpeq	0, 3, cr0, cr0, cr2, {0}
  88:	00040000 	andeq	r0, r4, r0
  8c:	00000000 	andeq	r0, r0, r0
  90:	00008520 	andeq	r8, r0, r0, lsr #10
  94:	000009b4 			; <UNDEFINED> instruction: 0x000009b4
	...
  a0:	0000001c 	andeq	r0, r0, ip, lsl r0
  a4:	1ab30002 	bne	fecc00b4 <__bss_end__+0xfecb6634>
  a8:	00040000 	andeq	r0, r4, r0
  ac:	00000000 	andeq	r0, r0, r0
  b0:	00008ed4 	ldrdeq	r8, [r0], -r4
  b4:	00000020 	andeq	r0, r0, r0, lsr #32
	...
  c0:	0000001c 	andeq	r0, r0, ip, lsl r0
  c4:	1bc10002 	blne	ff0400d4 <__bss_end__+0xff036654>
  c8:	00040000 	andeq	r0, r4, r0
  cc:	00000000 	andeq	r0, r0, r0
  d0:	00008ef4 	strdeq	r8, [r0], -r4
  d4:	0000002c 	andeq	r0, r0, ip, lsr #32
	...
  e0:	0000001c 	andeq	r0, r0, ip, lsl r0
  e4:	1cf40002 	ldclne	0, cr0, [r4], #8
  e8:	00040000 	andeq	r0, r4, r0
  ec:	00000000 	andeq	r0, r0, r0
  f0:	00008f20 	andeq	r8, r0, r0, lsr #30
  f4:	000000f8 	strdeq	r0, [r0], -r8
	...
 100:	0000001c 	andeq	r0, r0, ip, lsl r0
 104:	1e880002 	cdpne	0, 8, cr0, cr8, cr2, {0}
 108:	00040000 	andeq	r0, r4, r0
 10c:	00000000 	andeq	r0, r0, r0
 110:	00009018 	andeq	r9, r0, r8, lsl r0
 114:	00000004 	andeq	r0, r0, r4
	...
 120:	0000001c 	andeq	r0, r0, ip, lsl r0
 124:	1f5a0002 	svcne	0x005a0002
 128:	00040000 	andeq	r0, r4, r0
 12c:	00000000 	andeq	r0, r0, r0
 130:	0000901c 	andeq	r9, r0, ip, lsl r0
 134:	0000008c 	andeq	r0, r0, ip, lsl #1
	...
 140:	0000001c 	andeq	r0, r0, ip, lsl r0
 144:	21db0002 	bicscs	r0, fp, r2
 148:	00040000 	andeq	r0, r4, r0
 14c:	00000000 	andeq	r0, r0, r0
 150:	000090a8 	andeq	r9, r0, r8, lsr #1
 154:	0000011c 	andeq	r0, r0, ip, lsl r1
	...
 160:	0000001c 	andeq	r0, r0, ip, lsl r0
 164:	271e0002 	ldrcs	r0, [lr, -r2]
 168:	00040000 	andeq	r0, r4, r0
 16c:	00000000 	andeq	r0, r0, r0
 170:	000091c4 	andeq	r9, r0, r4, asr #3
 174:	000001f0 	strdeq	r0, [r0], -r0	; <UNPREDICTABLE>
	...
 180:	0000001c 	andeq	r0, r0, ip, lsl r0
 184:	2cef0002 	stclcs	0, cr0, [pc], #8	; 194 <__code_start__-0x7e6c>
 188:	00040000 	andeq	r0, r4, r0
 18c:	00000000 	andeq	r0, r0, r0
 190:	000093b4 			; <UNDEFINED> instruction: 0x000093b4
 194:	0000003c 	andeq	r0, r0, ip, lsr r0
	...
 1a0:	0000001c 	andeq	r0, r0, ip, lsl r0
 1a4:	2e3c0002 	cdpcs	0, 3, cr0, cr12, cr2, {0}
 1a8:	00040000 	andeq	r0, r4, r0
 1ac:	00000000 	andeq	r0, r0, r0
 1b0:	000093f0 	strdeq	r9, [r0], -r0
 1b4:	0000002c 	andeq	r0, r0, ip, lsr #32
	...
 1c0:	0000001c 	andeq	r0, r0, ip, lsl r0
 1c4:	2f770002 	svccs	0x00770002
 1c8:	00040000 	andeq	r0, r4, r0
 1cc:	00000000 	andeq	r0, r0, r0
 1d0:	0000941c 	andeq	r9, r0, ip, lsl r4
 1d4:	00000044 	andeq	r0, r0, r4, asr #32
	...
 1e0:	0000001c 	andeq	r0, r0, ip, lsl r0
 1e4:	30720002 	rsbscc	r0, r2, r2
 1e8:	00040000 	andeq	r0, r4, r0
 1ec:	00000000 	andeq	r0, r0, r0
 1f0:	00009460 	andeq	r9, r0, r0, ror #8
 1f4:	00000018 	andeq	r0, r0, r8, lsl r0
	...
 200:	0000001c 	andeq	r0, r0, ip, lsl r0
 204:	31850002 	orrcc	r0, r5, r2
 208:	00040000 	andeq	r0, r4, r0
 20c:	00000000 	andeq	r0, r0, r0
 210:	00009478 	andeq	r9, r0, r8, ror r4
 214:	00000030 	andeq	r0, r0, r0, lsr r0
	...
 220:	0000001c 	andeq	r0, r0, ip, lsl r0
 224:	32d70002 	sbcscc	r0, r7, #2, 0
 228:	00040000 	andeq	r0, r4, r0
 22c:	00000000 	andeq	r0, r0, r0
 230:	000094a8 	andeq	r9, r0, r8, lsr #9
 234:	00000004 	andeq	r0, r0, r4
	...

Disassembly of section .debug_ranges:

00000000 <.debug_ranges>:
   0:	00000008 	andeq	r0, r0, r8
   4:	0000000c 	andeq	r0, r0, ip
   8:	00000010 	andeq	r0, r0, r0, lsl r0
   c:	00000120 	andeq	r0, r0, r0, lsr #2
	...
  18:	00000014 	andeq	r0, r0, r4, lsl r0
  1c:	00000024 	andeq	r0, r0, r4, lsr #32
  20:	0000004c 	andeq	r0, r0, ip, asr #32
  24:	0000005c 	andeq	r0, r0, ip, asr r0
  28:	00000084 	andeq	r0, r0, r4, lsl #1
  2c:	00000094 	muleq	r0, r4, r0
  30:	000000bc 	strheq	r0, [r0], -ip
  34:	000000cc 	andeq	r0, r0, ip, asr #1
  38:	000000f4 	strdeq	r0, [r0], -r4
  3c:	00000104 	andeq	r0, r0, r4, lsl #2
	...
  48:	00000014 	andeq	r0, r0, r4, lsl r0
  4c:	00000018 	andeq	r0, r0, r8, lsl r0
  50:	0000004c 	andeq	r0, r0, ip, asr #32
  54:	00000050 	andeq	r0, r0, r0, asr r0
  58:	00000084 	andeq	r0, r0, r4, lsl #1
  5c:	00000088 	andeq	r0, r0, r8, lsl #1
  60:	000000bc 	strheq	r0, [r0], -ip
  64:	000000c0 	andeq	r0, r0, r0, asr #1
  68:	000000f4 	strdeq	r0, [r0], -r4
  6c:	000000f8 	strdeq	r0, [r0], -r8
	...
  78:	00000030 	andeq	r0, r0, r0, lsr r0
  7c:	00000040 	andeq	r0, r0, r0, asr #32
  80:	00000068 	andeq	r0, r0, r8, rrx
  84:	00000078 	andeq	r0, r0, r8, ror r0
  88:	000000a0 	andeq	r0, r0, r0, lsr #1
  8c:	000000b0 	strheq	r0, [r0], -r0	; <UNPREDICTABLE>
  90:	000000d8 	ldrdeq	r0, [r0], -r8
  94:	000000e8 	andeq	r0, r0, r8, ror #1
  98:	00000110 	andeq	r0, r0, r0, lsl r1
  9c:	00000120 	andeq	r0, r0, r0, lsr #2
	...
  a8:	00000030 	andeq	r0, r0, r0, lsr r0
  ac:	00000040 	andeq	r0, r0, r0, asr #32
  b0:	00000068 	andeq	r0, r0, r8, rrx
  b4:	00000078 	andeq	r0, r0, r8, ror r0
  b8:	000000a0 	andeq	r0, r0, r0, lsr #1
  bc:	000000b0 	strheq	r0, [r0], -r0	; <UNPREDICTABLE>
  c0:	000000d8 	ldrdeq	r0, [r0], -r8
  c4:	000000e8 	andeq	r0, r0, r8, ror #1
  c8:	00000110 	andeq	r0, r0, r0, lsl r1
  cc:	00000120 	andeq	r0, r0, r0, lsr #2
	...
  d8:	00000030 	andeq	r0, r0, r0, lsr r0
  dc:	00000034 	andeq	r0, r0, r4, lsr r0
  e0:	00000068 	andeq	r0, r0, r8, rrx
  e4:	0000006c 	andeq	r0, r0, ip, rrx
  e8:	000000a0 	andeq	r0, r0, r0, lsr #1
  ec:	000000a4 	andeq	r0, r0, r4, lsr #1
  f0:	000000d8 	ldrdeq	r0, [r0], -r8
  f4:	000000dc 	ldrdeq	r0, [r0], -ip
  f8:	00000110 	andeq	r0, r0, r0, lsl r1
  fc:	00000114 	andeq	r0, r0, r4, lsl r1
	...
 108:	0000015c 	andeq	r0, r0, ip, asr r1
 10c:	00000170 	andeq	r0, r0, r0, ror r1
 110:	00000170 	andeq	r0, r0, r0, ror r1
 114:	00000278 	andeq	r0, r0, r8, ror r2
	...
 120:	0000015c 	andeq	r0, r0, ip, asr r1
 124:	0000016c 	andeq	r0, r0, ip, ror #2
 128:	00000174 	andeq	r0, r0, r4, ror r1
 12c:	00000260 	andeq	r0, r0, r0, ror #4
	...
 138:	00000168 	andeq	r0, r0, r8, ror #2
 13c:	0000016c 	andeq	r0, r0, ip, ror #2
 140:	00000178 	andeq	r0, r0, r8, ror r1
 144:	00000188 	andeq	r0, r0, r8, lsl #3
 148:	000001a0 	andeq	r0, r0, r0, lsr #3
 14c:	000001a4 	andeq	r0, r0, r4, lsr #3
 150:	000001a8 	andeq	r0, r0, r8, lsr #3
 154:	000001b8 			; <UNDEFINED> instruction: 0x000001b8
 158:	000001d0 	ldrdeq	r0, [r0], -r0	; <UNPREDICTABLE>
 15c:	000001d4 	ldrdeq	r0, [r0], -r4
 160:	000001d8 	ldrdeq	r0, [r0], -r8
 164:	000001e8 	andeq	r0, r0, r8, ror #3
 168:	00000200 	andeq	r0, r0, r0, lsl #4
 16c:	00000204 	andeq	r0, r0, r4, lsl #4
 170:	00000208 	andeq	r0, r0, r8, lsl #4
 174:	00000218 	andeq	r0, r0, r8, lsl r2
 178:	00000230 	andeq	r0, r0, r0, lsr r2
 17c:	00000234 	andeq	r0, r0, r4, lsr r2
 180:	00000238 	andeq	r0, r0, r8, lsr r2
 184:	00000248 	andeq	r0, r0, r8, asr #4
	...
 190:	00000178 	andeq	r0, r0, r8, ror r1
 194:	0000017c 	andeq	r0, r0, ip, ror r1
 198:	000001a8 	andeq	r0, r0, r8, lsr #3
 19c:	000001ac 	andeq	r0, r0, ip, lsr #3
 1a0:	000001d8 	ldrdeq	r0, [r0], -r8
 1a4:	000001dc 	ldrdeq	r0, [r0], -ip
 1a8:	00000208 	andeq	r0, r0, r8, lsl #4
 1ac:	0000020c 	andeq	r0, r0, ip, lsl #4
 1b0:	00000238 	andeq	r0, r0, r8, lsr r2
 1b4:	0000023c 	andeq	r0, r0, ip, lsr r2
	...
 1c0:	00000188 	andeq	r0, r0, r8, lsl #3
 1c4:	0000018c 	andeq	r0, r0, ip, lsl #3
 1c8:	00000190 	muleq	r0, r0, r1
 1cc:	000001a0 	andeq	r0, r0, r0, lsr #3
 1d0:	000001b8 			; <UNDEFINED> instruction: 0x000001b8
 1d4:	000001bc 			; <UNDEFINED> instruction: 0x000001bc
 1d8:	000001c0 	andeq	r0, r0, r0, asr #3
 1dc:	000001d0 	ldrdeq	r0, [r0], -r0	; <UNPREDICTABLE>
 1e0:	000001e8 	andeq	r0, r0, r8, ror #3
 1e4:	000001ec 	andeq	r0, r0, ip, ror #3
 1e8:	000001f0 	strdeq	r0, [r0], -r0	; <UNPREDICTABLE>
 1ec:	00000200 	andeq	r0, r0, r0, lsl #4
 1f0:	00000218 	andeq	r0, r0, r8, lsl r2
 1f4:	0000021c 	andeq	r0, r0, ip, lsl r2
 1f8:	00000220 	andeq	r0, r0, r0, lsr #4
 1fc:	00000230 	andeq	r0, r0, r0, lsr r2
 200:	00000248 	andeq	r0, r0, r8, asr #4
 204:	0000024c 	andeq	r0, r0, ip, asr #4
 208:	00000250 	andeq	r0, r0, r0, asr r2
 20c:	00000260 	andeq	r0, r0, r0, ror #4
	...
 218:	00000188 	andeq	r0, r0, r8, lsl #3
 21c:	0000018c 	andeq	r0, r0, ip, lsl #3
 220:	00000190 	muleq	r0, r0, r1
 224:	000001a0 	andeq	r0, r0, r0, lsr #3
 228:	000001b8 			; <UNDEFINED> instruction: 0x000001b8
 22c:	000001bc 			; <UNDEFINED> instruction: 0x000001bc
 230:	000001c0 	andeq	r0, r0, r0, asr #3
 234:	000001d0 	ldrdeq	r0, [r0], -r0	; <UNPREDICTABLE>
 238:	000001e8 	andeq	r0, r0, r8, ror #3
 23c:	000001ec 	andeq	r0, r0, ip, ror #3
 240:	000001f0 	strdeq	r0, [r0], -r0	; <UNPREDICTABLE>
 244:	00000200 	andeq	r0, r0, r0, lsl #4
 248:	00000218 	andeq	r0, r0, r8, lsl r2
 24c:	0000021c 	andeq	r0, r0, ip, lsl r2
 250:	00000220 	andeq	r0, r0, r0, lsr #4
 254:	00000230 	andeq	r0, r0, r0, lsr r2
 258:	00000248 	andeq	r0, r0, r8, asr #4
 25c:	0000024c 	andeq	r0, r0, ip, asr #4
 260:	00000250 	andeq	r0, r0, r0, asr r2
 264:	00000260 	andeq	r0, r0, r0, ror #4
	...
 270:	00000190 	muleq	r0, r0, r1
 274:	00000194 	muleq	r0, r4, r1
 278:	000001c0 	andeq	r0, r0, r0, asr #3
 27c:	000001c4 	andeq	r0, r0, r4, asr #3
 280:	000001f0 	strdeq	r0, [r0], -r0	; <UNPREDICTABLE>
 284:	000001f4 	strdeq	r0, [r0], -r4
 288:	00000220 	andeq	r0, r0, r0, lsr #4
 28c:	00000224 	andeq	r0, r0, r4, lsr #4
 290:	00000250 	andeq	r0, r0, r0, asr r2
 294:	00000254 	andeq	r0, r0, r4, asr r2
	...
 2a0:	000000a4 	andeq	r0, r0, r4, lsr #1
 2a4:	00000148 	andeq	r0, r0, r8, asr #2
 2a8:	00000158 	andeq	r0, r0, r8, asr r1
 2ac:	0000015c 	andeq	r0, r0, ip, asr r1
 2b0:	00000274 	andeq	r0, r0, r4, ror r2
 2b4:	00000278 	andeq	r0, r0, r8, ror r2
 2b8:	0000027c 	andeq	r0, r0, ip, ror r2
 2bc:	00000280 	andeq	r0, r0, r0, lsl #5
 2c0:	00000288 	andeq	r0, r0, r8, lsl #5
 2c4:	0000029c 	muleq	r0, ip, r2
 2c8:	000002c0 	andeq	r0, r0, r0, asr #5
 2cc:	000002cc 	andeq	r0, r0, ip, asr #5
 2d0:	000002f0 	strdeq	r0, [r0], -r0	; <UNPREDICTABLE>
 2d4:	000002f0 	strdeq	r0, [r0], -r0	; <UNPREDICTABLE>
 2d8:	000002f4 	strdeq	r0, [r0], -r4
 2dc:	000002f8 	strdeq	r0, [r0], -r8
	...
 2e8:	00000148 	andeq	r0, r0, r8, asr #2
 2ec:	00000158 	andeq	r0, r0, r8, asr r1
 2f0:	0000015c 	andeq	r0, r0, ip, asr r1
 2f4:	0000018c 	andeq	r0, r0, ip, lsl #3
 2f8:	0000029c 	muleq	r0, ip, r2
 2fc:	000002ac 	andeq	r0, r0, ip, lsr #5
	...
 308:	000003c8 	andeq	r0, r0, r8, asr #7
 30c:	000003d0 	ldrdeq	r0, [r0], -r0	; <UNPREDICTABLE>
 310:	00000404 	andeq	r0, r0, r4, lsl #8
 314:	000004ac 	andeq	r0, r0, ip, lsr #9
 318:	000004c0 	andeq	r0, r0, r0, asr #9
 31c:	00000920 	andeq	r0, r0, r0, lsr #18
 320:	00000928 	andeq	r0, r0, r8, lsr #18
 324:	000009b4 			; <UNDEFINED> instruction: 0x000009b4
	...
 330:	000003c8 	andeq	r0, r0, r8, asr #7
 334:	000003d0 	ldrdeq	r0, [r0], -r0	; <UNPREDICTABLE>
 338:	00000504 	andeq	r0, r0, r4, lsl #10
 33c:	000005d0 	ldrdeq	r0, [r0], -r0	; <UNPREDICTABLE>
 340:	00000800 	andeq	r0, r0, r0, lsl #16
 344:	00000888 	andeq	r0, r0, r8, lsl #17
 348:	00000930 	andeq	r0, r0, r0, lsr r9
 34c:	000009b4 			; <UNDEFINED> instruction: 0x000009b4
	...
 358:	00000404 	andeq	r0, r0, r4, lsl #8
 35c:	00000408 	andeq	r0, r0, r8, lsl #8
 360:	00000414 	andeq	r0, r0, r4, lsl r4
 364:	00000414 	andeq	r0, r0, r4, lsl r4
 368:	00000428 	andeq	r0, r0, r8, lsr #8
 36c:	0000042c 	andeq	r0, r0, ip, lsr #8
	...
 378:	000005fc 	strdeq	r0, [r0], -ip
 37c:	00000700 	andeq	r0, r0, r0, lsl #14
 380:	000007ec 	andeq	r0, r0, ip, ror #15
 384:	000007f4 	strdeq	r0, [r0], -r4
 388:	00000888 	andeq	r0, r0, r8, lsl #17
 38c:	00000894 	muleq	r0, r4, r8
 390:	000008a8 	andeq	r0, r0, r8, lsr #17
 394:	000008bc 			; <UNDEFINED> instruction: 0x000008bc
 398:	00000910 	andeq	r0, r0, r0, lsl r9
 39c:	00000920 	andeq	r0, r0, r0, lsr #18
	...
 3a8:	00000600 	andeq	r0, r0, r0, lsl #12
 3ac:	00000604 	andeq	r0, r0, r4, lsl #12
 3b0:	00000608 	andeq	r0, r0, r8, lsl #12
 3b4:	000006b4 			; <UNDEFINED> instruction: 0x000006b4
 3b8:	000006cc 	andeq	r0, r0, ip, asr #13
 3bc:	000006d0 	ldrdeq	r0, [r0], -r0	; <UNPREDICTABLE>
 3c0:	000008a8 	andeq	r0, r0, r8, lsr #17
 3c4:	000008b8 			; <UNDEFINED> instruction: 0x000008b8
 3c8:	00000910 	andeq	r0, r0, r0, lsl r9
 3cc:	00000920 	andeq	r0, r0, r0, lsr #18
	...
 3d8:	000006b4 			; <UNDEFINED> instruction: 0x000006b4
 3dc:	000006cc 	andeq	r0, r0, ip, asr #13
 3e0:	000006d0 	ldrdeq	r0, [r0], -r0	; <UNPREDICTABLE>
 3e4:	00000700 	andeq	r0, r0, r0, lsl #14
 3e8:	000007ec 	andeq	r0, r0, ip, ror #15
 3ec:	000007f4 	strdeq	r0, [r0], -r4
 3f0:	00000888 	andeq	r0, r0, r8, lsl #17
 3f4:	00000894 	muleq	r0, r4, r8
 3f8:	000008b8 			; <UNDEFINED> instruction: 0x000008b8
 3fc:	000008bc 			; <UNDEFINED> instruction: 0x000008bc
	...
 408:	00000700 	andeq	r0, r0, r0, lsl #14
 40c:	00000708 	andeq	r0, r0, r8, lsl #14
 410:	0000070c 	andeq	r0, r0, ip, lsl #14
 414:	000007ec 	andeq	r0, r0, ip, ror #15
 418:	00000894 	muleq	r0, r4, r8
 41c:	000008a8 	andeq	r0, r0, r8, lsr #17
	...
 428:	00000728 	andeq	r0, r0, r8, lsr #14
 42c:	000007a4 	andeq	r0, r0, r4, lsr #15
 430:	000007ac 	andeq	r0, r0, ip, lsr #15
 434:	000007b0 			; <UNDEFINED> instruction: 0x000007b0
 438:	00000894 	muleq	r0, r4, r8
 43c:	00000898 	muleq	r0, r8, r8
 440:	0000089c 	muleq	r0, ip, r8
 444:	000008a0 	andeq	r0, r0, r0, lsr #17
	...
 450:	000007a4 	andeq	r0, r0, r4, lsr #15
 454:	000007ac 	andeq	r0, r0, ip, lsr #15
 458:	000007b0 			; <UNDEFINED> instruction: 0x000007b0
 45c:	000007ec 	andeq	r0, r0, ip, ror #15
 460:	00000898 	muleq	r0, r8, r8
 464:	0000089c 	muleq	r0, ip, r8
 468:	000008a0 	andeq	r0, r0, r0, lsr #17
 46c:	000008a8 	andeq	r0, r0, r8, lsr #17
	...
 478:	00008ed4 	ldrdeq	r8, [r0], -r4
 47c:	00008ef4 	strdeq	r8, [r0], -r4
	...
 488:	00009048 	andeq	r9, r0, r8, asr #32
 48c:	00009048 	andeq	r9, r0, r8, asr #32
 490:	0000904c 	andeq	r9, r0, ip, asr #32
 494:	00009054 	andeq	r9, r0, r4, asr r0
	...
 4a0:	0000901c 	andeq	r9, r0, ip, lsl r0
 4a4:	000090a8 	andeq	r9, r0, r8, lsr #1
	...
 4b0:	00000030 	andeq	r0, r0, r0, lsr r0
 4b4:	00000030 	andeq	r0, r0, r0, lsr r0
 4b8:	00000038 	andeq	r0, r0, r8, lsr r0
 4bc:	0000004c 	andeq	r0, r0, ip, asr #32
	...
 4c8:	0000004c 	andeq	r0, r0, ip, asr #32
 4cc:	00000050 	andeq	r0, r0, r0, asr r0
 4d0:	00000050 	andeq	r0, r0, r0, asr r0
 4d4:	00000078 	andeq	r0, r0, r8, ror r0
	...
 4e0:	0000004c 	andeq	r0, r0, ip, asr #32
 4e4:	00000050 	andeq	r0, r0, r0, asr r0
 4e8:	00000050 	andeq	r0, r0, r0, asr r0
 4ec:	00000060 	andeq	r0, r0, r0, rrx
 4f0:	00000064 	andeq	r0, r0, r4, rrx
 4f4:	00000068 	andeq	r0, r0, r8, rrx
	...
 500:	0000004c 	andeq	r0, r0, ip, asr #32
 504:	00000050 	andeq	r0, r0, r0, asr r0
 508:	00000054 	andeq	r0, r0, r4, asr r0
 50c:	00000060 	andeq	r0, r0, r0, rrx
	...
 518:	0000009c 	muleq	r0, ip, r0
 51c:	000000a0 	andeq	r0, r0, r0, lsr #1
 520:	000000a0 	andeq	r0, r0, r0, lsr #1
 524:	000000c8 	andeq	r0, r0, r8, asr #1
	...
 530:	0000009c 	muleq	r0, ip, r0
 534:	000000a0 	andeq	r0, r0, r0, lsr #1
 538:	000000a0 	andeq	r0, r0, r0, lsr #1
 53c:	000000b0 	strheq	r0, [r0], -r0	; <UNPREDICTABLE>
 540:	000000b4 	strheq	r0, [r0], -r4
 544:	000000b8 	strheq	r0, [r0], -r8
	...
 550:	0000009c 	muleq	r0, ip, r0
 554:	000000a0 	andeq	r0, r0, r0, lsr #1
 558:	000000a4 	andeq	r0, r0, r4, lsr #1
 55c:	000000b0 	strheq	r0, [r0], -r0	; <UNPREDICTABLE>
	...
 568:	000000c8 	andeq	r0, r0, r8, asr #1
 56c:	000000c8 	andeq	r0, r0, r8, asr #1
 570:	000000cc 	andeq	r0, r0, ip, asr #1
 574:	0000011c 	andeq	r0, r0, ip, lsl r1
	...
 580:	000000f0 	strdeq	r0, [r0], -r0	; <UNPREDICTABLE>
 584:	000000f4 	strdeq	r0, [r0], -r4
 588:	000000f4 	strdeq	r0, [r0], -r4
 58c:	0000011c 	andeq	r0, r0, ip, lsl r1
	...
 598:	000000f0 	strdeq	r0, [r0], -r0	; <UNPREDICTABLE>
 59c:	000000f4 	strdeq	r0, [r0], -r4
 5a0:	000000f4 	strdeq	r0, [r0], -r4
 5a4:	00000104 	andeq	r0, r0, r4, lsl #2
 5a8:	00000108 	andeq	r0, r0, r8, lsl #2
 5ac:	0000010c 	andeq	r0, r0, ip, lsl #2
	...
 5b8:	000000f0 	strdeq	r0, [r0], -r0	; <UNPREDICTABLE>
 5bc:	000000f4 	strdeq	r0, [r0], -r4
 5c0:	000000f8 	strdeq	r0, [r0], -r8
 5c4:	00000104 	andeq	r0, r0, r4, lsl #2
	...

Disassembly of section .debug_line:

00000000 <.debug_line>:
       0:	0000064d 	andeq	r0, r0, sp, asr #12
       4:	006e0003 	rsbeq	r0, lr, r3
       8:	01020000 	mrseq	r0, (UNDEF: 2)
       c:	000d0efb 	strdeq	r0, [sp], -fp
      10:	01010101 	tsteq	r1, r1, lsl #2
      14:	01000000 	mrseq	r0, (UNDEF: 0)
      18:	2f010000 	svccs	0x00010000
      1c:	72657355 	rsbvc	r7, r5, #1409286145	; 0x54000001
      20:	696d2f73 	stmdbvs	sp!, {r0, r1, r4, r5, r6, r8, r9, sl, fp, sp}^
      24:	2f73656c 	svccs	0x0073656c
      28:	72756f53 	rsbsvc	r6, r5, #332	; 0x14c
      2c:	632f6563 			; <UNDEFINED> instruction: 0x632f6563
      30:	30343273 	eorscc	r3, r4, r3, ror r2
      34:	6c2f786c 	stcvs	8, cr7, [pc], #-432	; fffffe8c <__bss_end__+0xffff640c>
      38:	69706269 	ldmdbvs	r0!, {r0, r3, r5, r6, r9, sp, lr}^
      3c:	636e692f 	cmnvs	lr, #770048	; 0xbc000
      40:	6564756c 	strbvs	r7, [r4, #-1388]!	; 0xfffffa94
      44:	65740000 	ldrbvs	r0, [r4, #-0]!
      48:	672d7473 			; <UNDEFINED> instruction: 0x672d7473
      4c:	632e6e65 			; <UNDEFINED> instruction: 0x632e6e65
      50:	00000000 	andeq	r0, r0, r0
      54:	6c637963 			; <UNDEFINED> instruction: 0x6c637963
      58:	74752d65 	ldrbtvc	r2, [r5], #-3429	; 0xfffff29b
      5c:	682e6c69 	stmdavs	lr!, {r0, r3, r5, r6, sl, fp, sp, lr}
      60:	00000100 	andeq	r0, r0, r0, lsl #2
      64:	2e697072 	mcrcs	0, 3, r7, cr9, cr2, {3}
      68:	00010068 	andeq	r0, r1, r8, rrx
      6c:	69706700 	ldmdbvs	r0!, {r8, r9, sl, sp, lr}^
      70:	00682e6f 	rsbeq	r2, r8, pc, ror #28
      74:	00000001 	andeq	r0, r0, r1
      78:	05002e05 	streq	r2, [r0, #-3589]	; 0xfffff1fb
      7c:	00803802 	addeq	r3, r0, r2, lsl #16
      80:	01100300 	tsteq	r0, r0, lsl #6
      84:	13130505 	tstne	r3, #20971520	; 0x1400000
      88:	01011605 	tsteq	r1, r5, lsl #12
      8c:	0501062e 	streq	r0, [r1, #-1582]	; 0xfffff9d2
      90:	13140605 	tstne	r4, #5242880	; 0x500000
      94:	01061b05 	tsteq	r6, r5, lsl #22
      98:	05321405 	ldreq	r1, [r2, #-1029]!	; 0xfffffbfb
      9c:	09052a1b 	stmdbeq	r5, {r0, r1, r3, r4, r9, fp, sp}
      a0:	19053106 	stmdbne	r5, {r1, r2, r8, ip, sp}
      a4:	13090501 	movwne	r0, #38145	; 0x9501
      a8:	01061405 	tsteq	r6, r5, lsl #8
      ac:	2f060905 	svccs	0x00060905
      b0:	05020414 	streq	r0, [r2, #-1044]	; 0xfffffbec
      b4:	016c0318 	cmneq	ip, r8, lsl r3
      b8:	13150505 	tstne	r5, #20971520	; 0x1400000
      bc:	05130905 	ldreq	r0, [r3, #-2309]	; 0xfffff6fb
      c0:	1105110a 	tstne	r5, sl, lsl #2
      c4:	062e0101 	strteq	r0, [lr], -r1, lsl #2
      c8:	01230501 			; <UNDEFINED> instruction: 0x01230501
      cc:	052e0a05 	streq	r0, [lr, #-2565]!	; 0xfffff5fb
      d0:	064c0605 	strbeq	r0, [ip], -r5, lsl #12
      d4:	05010401 	streq	r0, [r1, #-1025]	; 0xfffffbff
      d8:	10030609 	andne	r0, r3, r9, lsl #12
      dc:	06140501 	ldreq	r0, [r4], -r1, lsl #10
      e0:	2f100501 	svccs	0x00100501
      e4:	052d1405 	streq	r1, [sp, #-1029]!	; 0xfffffbfb
      e8:	142f0609 	strtne	r0, [pc], #-1545	; f0 <__code_start__-0x7f10>
      ec:	18050204 	stmdane	r5, {r2, r9}
      f0:	05016703 	streq	r6, [r1, #-1795]	; 0xfffff8fd
      f4:	0a051709 	beq	145d20 <__bss_end__+0x13c2a0>
      f8:	01110511 	tsteq	r1, r1, lsl r5
      fc:	01062e01 	tsteq	r6, r1, lsl #28
     100:	05012305 	streq	r2, [r1, #-773]	; 0xfffffcfb
     104:	05052e0a 	streq	r2, [r5, #-3594]	; 0xfffff1f6
     108:	01064c06 	tsteq	r6, r6, lsl #24
     10c:	2c050104 	stfcss	f0, [r5], {4}
     110:	010a0306 	tsteq	sl, r6, lsl #6
     114:	05011905 	streq	r1, [r1, #-2309]	; 0xfffff6fb
     118:	14051309 	strne	r1, [r5], #-777	; 0xfffffcf7
     11c:	10050106 	andne	r0, r5, r6, lsl #2
     120:	2d14052f 	cfldr32cs	mvfx0, [r4, #-188]	; 0xffffff44
     124:	2f060905 	svccs	0x00060905
     128:	05020414 	streq	r0, [r2, #-1044]	; 0xfffffbec
     12c:	016c0318 	cmneq	ip, r8, lsl r3
     130:	13150505 	tstne	r5, #20971520	; 0x1400000
     134:	05130905 	ldreq	r0, [r3, #-2309]	; 0xfffff6fb
     138:	1105110a 	tstne	r5, sl, lsl #2
     13c:	062e0101 	strteq	r0, [lr], -r1, lsl #2
     140:	01230501 			; <UNDEFINED> instruction: 0x01230501
     144:	052e0a05 	streq	r0, [lr, #-2565]!	; 0xfffff5fb
     148:	064c0605 	strbeq	r0, [ip], -r5, lsl #12
     14c:	05010401 	streq	r0, [r1, #-1025]	; 0xfffffbff
     150:	10030609 	andne	r0, r3, r9, lsl #12
     154:	06140501 	ldreq	r0, [r4], -r1, lsl #10
     158:	2f100501 	svccs	0x00100501
     15c:	052d1405 	streq	r1, [sp, #-1029]!	; 0xfffffbfb
     160:	142f0609 	strtne	r0, [pc], #-1545	; 168 <__code_start__-0x7e98>
     164:	18050204 	stmdane	r5, {r2, r9}
     168:	05016703 	streq	r6, [r1, #-1795]	; 0xfffff8fd
     16c:	0a051709 	beq	145d98 <__bss_end__+0x13c318>
     170:	01110511 	tsteq	r1, r1, lsl r5
     174:	01062e01 	tsteq	r6, r1, lsl #28
     178:	05012305 	streq	r2, [r1, #-773]	; 0xfffffcfb
     17c:	05052e0a 	streq	r2, [r5, #-3594]	; 0xfffff1f6
     180:	01064c06 	tsteq	r6, r6, lsl #24
     184:	2c050104 	stfcss	f0, [r5], {4}
     188:	010a0306 	tsteq	sl, r6, lsl #6
     18c:	05011905 	streq	r1, [r1, #-2309]	; 0xfffff6fb
     190:	14051309 	strne	r1, [r5], #-777	; 0xfffffcf7
     194:	10050106 	andne	r0, r5, r6, lsl #2
     198:	2d14052f 	cfldr32cs	mvfx0, [r4, #-188]	; 0xffffff44
     19c:	2f060905 	svccs	0x00060905
     1a0:	05020414 	streq	r0, [r2, #-1044]	; 0xfffffbec
     1a4:	016c0318 	cmneq	ip, r8, lsl r3
     1a8:	13150505 	tstne	r5, #20971520	; 0x1400000
     1ac:	05130905 	ldreq	r0, [r3, #-2309]	; 0xfffff6fb
     1b0:	1105110a 	tstne	r5, sl, lsl #2
     1b4:	062e0101 	strteq	r0, [lr], -r1, lsl #2
     1b8:	01230501 			; <UNDEFINED> instruction: 0x01230501
     1bc:	052e0a05 	streq	r0, [lr, #-2565]!	; 0xfffff5fb
     1c0:	064c0605 	strbeq	r0, [ip], -r5, lsl #12
     1c4:	05010401 	streq	r0, [r1, #-1025]	; 0xfffffbff
     1c8:	10030609 	andne	r0, r3, r9, lsl #12
     1cc:	06140501 	ldreq	r0, [r4], -r1, lsl #10
     1d0:	2f100501 	svccs	0x00100501
     1d4:	052d1405 	streq	r1, [sp, #-1029]!	; 0xfffffbfb
     1d8:	142f0609 	strtne	r0, [pc], #-1545	; 1e0 <__code_start__-0x7e20>
     1dc:	18050204 	stmdane	r5, {r2, r9}
     1e0:	05016703 	streq	r6, [r1, #-1795]	; 0xfffff8fd
     1e4:	0a051709 	beq	145e10 <__bss_end__+0x13c390>
     1e8:	01110511 	tsteq	r1, r1, lsl r5
     1ec:	01062e01 	tsteq	r6, r1, lsl #28
     1f0:	05012305 	streq	r2, [r1, #-773]	; 0xfffffcfb
     1f4:	05052e0a 	streq	r2, [r5, #-3594]	; 0xfffff1f6
     1f8:	01064c06 	tsteq	r6, r6, lsl #24
     1fc:	2c050104 	stfcss	f0, [r5], {4}
     200:	010a0306 	tsteq	sl, r6, lsl #6
     204:	05011905 	streq	r1, [r1, #-2309]	; 0xfffff6fb
     208:	14051309 	strne	r1, [r5], #-777	; 0xfffffcf7
     20c:	10050106 	andne	r0, r5, r6, lsl #2
     210:	2d14052f 	cfldr32cs	mvfx0, [r4, #-188]	; 0xffffff44
     214:	2f060905 	svccs	0x00060905
     218:	05020414 	streq	r0, [r2, #-1044]	; 0xfffffbec
     21c:	016c0318 	cmneq	ip, r8, lsl r3
     220:	13150505 	tstne	r5, #20971520	; 0x1400000
     224:	05130905 	ldreq	r0, [r3, #-2309]	; 0xfffff6fb
     228:	1105110a 	tstne	r5, sl, lsl #2
     22c:	062e0101 	strteq	r0, [lr], -r1, lsl #2
     230:	01230501 			; <UNDEFINED> instruction: 0x01230501
     234:	052e0a05 	streq	r0, [lr, #-2565]!	; 0xfffff5fb
     238:	064c0605 	strbeq	r0, [ip], -r5, lsl #12
     23c:	05010401 	streq	r0, [r1, #-1025]	; 0xfffffbff
     240:	10030609 	andne	r0, r3, r9, lsl #12
     244:	06140501 	ldreq	r0, [r4], -r1, lsl #10
     248:	2f100501 	svccs	0x00100501
     24c:	052d1405 	streq	r1, [sp, #-1029]!	; 0xfffffbfb
     250:	142f0609 	strtne	r0, [pc], #-1545	; 258 <__code_start__-0x7da8>
     254:	18050204 	stmdane	r5, {r2, r9}
     258:	05016703 	streq	r6, [r1, #-1795]	; 0xfffff8fd
     25c:	0a051709 	beq	145e88 <__bss_end__+0x13c408>
     260:	01110511 	tsteq	r1, r1, lsl r5
     264:	01062e01 	tsteq	r6, r1, lsl #28
     268:	05012305 	streq	r2, [r1, #-773]	; 0xfffffcfb
     26c:	05052e0a 	streq	r2, [r5, #-3594]	; 0xfffff1f6
     270:	01064c06 	tsteq	r6, r6, lsl #24
     274:	2c050104 	stfcss	f0, [r5], {4}
     278:	010a0306 	tsteq	sl, r6, lsl #6
     27c:	05011905 	streq	r1, [r1, #-2309]	; 0xfffff6fb
     280:	14051309 	strne	r1, [r5], #-777	; 0xfffffcf7
     284:	10050106 	andne	r0, r5, r6, lsl #2
     288:	2d14052f 	cfldr32cs	mvfx0, [r4, #-188]	; 0xffffff44
     28c:	2f060905 	svccs	0x00060905
     290:	05020414 	streq	r0, [r2, #-1044]	; 0xfffffbec
     294:	016c0318 	cmneq	ip, r8, lsl r3
     298:	13150505 	tstne	r5, #20971520	; 0x1400000
     29c:	05130905 	ldreq	r0, [r3, #-2309]	; 0xfffff6fb
     2a0:	1105110a 	tstne	r5, sl, lsl #2
     2a4:	062e0101 	strteq	r0, [lr], -r1, lsl #2
     2a8:	01230501 			; <UNDEFINED> instruction: 0x01230501
     2ac:	052e0a05 	streq	r0, [lr, #-2565]!	; 0xfffff5fb
     2b0:	064c0605 	strbeq	r0, [ip], -r5, lsl #12
     2b4:	05010401 	streq	r0, [r1, #-1025]	; 0xfffffbff
     2b8:	10030609 	andne	r0, r3, r9, lsl #12
     2bc:	06140501 	ldreq	r0, [r4], -r1, lsl #10
     2c0:	2f100501 	svccs	0x00100501
     2c4:	052d1405 	streq	r1, [sp, #-1029]!	; 0xfffffbfb
     2c8:	142f0609 	strtne	r0, [pc], #-1545	; 2d0 <__code_start__-0x7d30>
     2cc:	18050204 	stmdane	r5, {r2, r9}
     2d0:	05016703 	streq	r6, [r1, #-1795]	; 0xfffff8fd
     2d4:	0a051709 	beq	145f00 <__bss_end__+0x13c480>
     2d8:	01110511 	tsteq	r1, r1, lsl r5
     2dc:	01062e01 	tsteq	r6, r1, lsl #28
     2e0:	05012305 	streq	r2, [r1, #-773]	; 0xfffffcfb
     2e4:	05052e0a 	streq	r2, [r5, #-3594]	; 0xfffff1f6
     2e8:	01064c06 	tsteq	r6, r6, lsl #24
     2ec:	2c050104 	stfcss	f0, [r5], {4}
     2f0:	010a0306 	tsteq	sl, r6, lsl #6
     2f4:	05011905 	streq	r1, [r1, #-2309]	; 0xfffff6fb
     2f8:	010b0305 	tsteq	fp, r5, lsl #6
     2fc:	01011405 	tsteq	r1, r5, lsl #8
     300:	0501062e 	streq	r0, [r1, #-1582]	; 0xfffff9d2
     304:	06130605 	ldreq	r0, [r3], -r5, lsl #12
     308:	4a4a2e2e 	bmi	128bbc8 <__bss_end__+0x1282148>
     30c:	00061405 	andeq	r1, r6, r5, lsl #8
     310:	817c0205 	cmnhi	ip, r5, lsl #4
     314:	05150000 	ldreq	r0, [r5, #-0]
     318:	14051305 	strne	r1, [r5], #-773	; 0xfffffcfb
     31c:	05051106 	streq	r1, [r5, #-262]	; 0xfffffefa
     320:	132f062f 			; <UNDEFINED> instruction: 0x132f062f
     324:	0501014b 	streq	r0, [r1, #-331]	; 0xfffffeb5
     328:	6e030614 	mcrvs	6, 0, r0, cr3, cr4, {0}
     32c:	0502044a 	streq	r0, [r2, #-1098]	; 0xfffffbb6
     330:	6673030a 	ldrbtvs	r0, [r3], -sl, lsl #6
     334:	05050104 	streq	r0, [r5, #-260]	; 0xfffffefc
     338:	002e1803 	eoreq	r1, lr, r3, lsl #16
     33c:	06010402 	streq	r0, [r1], -r2, lsl #8
     340:	04020035 	streq	r0, [r2], #-53	; 0xffffffcb
     344:	09051501 	stmdbeq	r5, {r0, r8, sl, ip}
     348:	01040200 	mrseq	r0, R12_usr
     34c:	00060513 	andeq	r0, r6, r3, lsl r5
     350:	03010402 	movweq	r0, #5122	; 0x1402
     354:	05050161 	streq	r0, [r5, #-353]	; 0xfffffe9f
     358:	01040200 	mrseq	r0, R12_usr
     35c:	04020013 	streq	r0, [r2], #-19	; 0xffffffed
     360:	16051301 	strne	r1, [r5], -r1, lsl #6
     364:	01040200 	mrseq	r0, R12_usr
     368:	04020001 	streq	r0, [r2], #-1
     36c:	02000101 	andeq	r0, r0, #1073741824	; 0x40000000
     370:	002e0104 	eoreq	r0, lr, r4, lsl #2
     374:	06010402 	streq	r0, [r1], -r2, lsl #8
     378:	00050501 	andeq	r0, r5, r1, lsl #10
     37c:	06010402 	streq	r0, [r1], -r2, lsl #8
     380:	04020014 	streq	r0, [r2], #-20	; 0xffffffec
     384:	09051301 	stmdbeq	r5, {r0, r8, r9, ip}
     388:	01040200 	mrseq	r0, R12_usr
     38c:	00190515 	andseq	r0, r9, r5, lsl r5
     390:	01010402 	tsteq	r1, r2, lsl #8
     394:	02000905 	andeq	r0, r0, #81920	; 0x14000
     398:	05130104 	ldreq	r0, [r3, #-260]	; 0xfffffefc
     39c:	04020014 	streq	r0, [r2], #-20	; 0xffffffec
     3a0:	05010601 	streq	r0, [r1, #-1537]	; 0xfffff9ff
     3a4:	04020009 	streq	r0, [r2], #-9
     3a8:	002f0601 	eoreq	r0, pc, r1, lsl #12
     3ac:	14010402 	strne	r0, [r1], #-1026	; 0xfffffbfe
     3b0:	18050204 	stmdane	r5, {r2, r9}
     3b4:	01040200 	mrseq	r0, R12_usr
     3b8:	05016c03 	streq	r6, [r1, #-3075]	; 0xfffff3fd
     3bc:	04020005 	streq	r0, [r2], #-5
     3c0:	02001501 	andeq	r1, r0, #4194304	; 0x400000
     3c4:	05130104 	ldreq	r0, [r3, #-260]	; 0xfffffefc
     3c8:	0a051309 	beq	144ff4 <__bss_end__+0x13b574>
     3cc:	01110511 	tsteq	r1, r1, lsl r5
     3d0:	01062e01 	tsteq	r6, r1, lsl #28
     3d4:	05012305 	streq	r2, [r1, #-773]	; 0xfffffcfb
     3d8:	05052e0a 	streq	r2, [r5, #-3594]	; 0xfffff1f6
     3dc:	01064c06 	tsteq	r6, r6, lsl #24
     3e0:	09050104 	stmdbeq	r5, {r2, r8}
     3e4:	01100306 	tsteq	r0, r6, lsl #6
     3e8:	0a050204 	beq	140c00 <__bss_end__+0x137180>
     3ec:	016e0306 	cmneq	lr, r6, lsl #6
     3f0:	14050104 	strne	r0, [r5], #-260	; 0xfffffefc
     3f4:	052e1203 	streq	r1, [lr, #-515]!	; 0xfffffdfd
     3f8:	142f0609 	strtne	r0, [pc], #-1545	; 400 <__code_start__-0x7c00>
     3fc:	18050204 	stmdane	r5, {r2, r9}
     400:	05016703 	streq	r6, [r1, #-1795]	; 0xfffff8fd
     404:	0a051709 	beq	146030 <__bss_end__+0x13c5b0>
     408:	01110511 	tsteq	r1, r1, lsl r5
     40c:	01062e01 	tsteq	r6, r1, lsl #28
     410:	05012305 	streq	r2, [r1, #-773]	; 0xfffffcfb
     414:	05052e0a 	streq	r2, [r5, #-3594]	; 0xfffff1f6
     418:	01064c06 	tsteq	r6, r6, lsl #24
     41c:	2c050104 	stfcss	f0, [r5], {4}
     420:	010a0306 	tsteq	sl, r6, lsl #6
     424:	05011905 	streq	r1, [r1, #-2309]	; 0xfffff6fb
     428:	02041309 	andeq	r1, r4, #603979776	; 0x24000000
     42c:	03060a05 	movweq	r0, #27141	; 0x6a05
     430:	01040173 	tsteq	r4, r3, ror r1
     434:	0d031405 	cfstrseq	mvf1, [r3, #-20]	; 0xffffffec
     438:	0609052e 	streq	r0, [r9], -lr, lsr #10
     43c:	0204142f 	andeq	r1, r4, #788529152	; 0x2f000000
     440:	6c031805 	stcvs	8, cr1, [r3], {5}
     444:	15050501 	strne	r0, [r5, #-1281]	; 0xfffffaff
     448:	13090513 	movwne	r0, #38163	; 0x9513
     44c:	05110a05 	ldreq	r0, [r1, #-2565]	; 0xfffff5fb
     450:	2e010111 	mcrcs	1, 0, r0, cr1, cr1, {0}
     454:	23050106 	movwcs	r0, #20742	; 0x5106
     458:	2e0a0501 	cfsh32cs	mvfx0, mvfx10, #1
     45c:	4c060505 	cfstr32mi	mvfx0, [r6], {5}
     460:	01040106 	tsteq	r4, r6, lsl #2
     464:	03060905 	movweq	r0, #26885	; 0x6905
     468:	02040110 	andeq	r0, r4, #4
     46c:	03060a05 	movweq	r0, #27141	; 0x6a05
     470:	0104016e 	tsteq	r4, lr, ror #2
     474:	12031405 	andne	r1, r3, #83886080	; 0x5000000
     478:	0609052e 	streq	r0, [r9], -lr, lsr #10
     47c:	0204142f 	andeq	r1, r4, #788529152	; 0x2f000000
     480:	67031805 	strvs	r1, [r3, -r5, lsl #16]
     484:	17090501 	strne	r0, [r9, -r1, lsl #10]
     488:	05110a05 	ldreq	r0, [r1, #-2565]	; 0xfffff5fb
     48c:	2e010111 	mcrcs	1, 0, r0, cr1, cr1, {0}
     490:	23050106 	movwcs	r0, #20742	; 0x5106
     494:	2e0a0501 	cfsh32cs	mvfx0, mvfx10, #1
     498:	4c060505 	cfstr32mi	mvfx0, [r6], {5}
     49c:	01040106 	tsteq	r4, r6, lsl #2
     4a0:	03062c05 	movweq	r2, #27653	; 0x6c05
     4a4:	1905010a 	stmdbne	r5, {r1, r3, r8}
     4a8:	13090501 	movwne	r0, #38145	; 0x9501
     4ac:	0a050204 	beq	140cc4 <__bss_end__+0x137244>
     4b0:	01730306 	cmneq	r3, r6, lsl #6
     4b4:	14050104 	strne	r0, [r5], #-260	; 0xfffffefc
     4b8:	052e0d03 	streq	r0, [lr, #-3331]!	; 0xfffff2fd
     4bc:	142f0609 	strtne	r0, [pc], #-1545	; 4c4 <__code_start__-0x7b3c>
     4c0:	18050204 	stmdane	r5, {r2, r9}
     4c4:	05016c03 	streq	r6, [r1, #-3075]	; 0xfffff3fd
     4c8:	05131505 	ldreq	r1, [r3, #-1285]	; 0xfffffafb
     4cc:	0a051309 	beq	1450f8 <__bss_end__+0x13b678>
     4d0:	01110511 	tsteq	r1, r1, lsl r5
     4d4:	01062e01 	tsteq	r6, r1, lsl #28
     4d8:	05012305 	streq	r2, [r1, #-773]	; 0xfffffcfb
     4dc:	05052e0a 	streq	r2, [r5, #-3594]	; 0xfffff1f6
     4e0:	01064c06 	tsteq	r6, r6, lsl #24
     4e4:	09050104 	stmdbeq	r5, {r2, r8}
     4e8:	01100306 	tsteq	r0, r6, lsl #6
     4ec:	0a050204 	beq	140d04 <__bss_end__+0x137284>
     4f0:	016e0306 	cmneq	lr, r6, lsl #6
     4f4:	14050104 	strne	r0, [r5], #-260	; 0xfffffefc
     4f8:	052e1203 	streq	r1, [lr, #-515]!	; 0xfffffdfd
     4fc:	142f0609 	strtne	r0, [pc], #-1545	; 504 <__code_start__-0x7afc>
     500:	18050204 	stmdane	r5, {r2, r9}
     504:	05016703 	streq	r6, [r1, #-1795]	; 0xfffff8fd
     508:	0a051709 	beq	146134 <__bss_end__+0x13c6b4>
     50c:	01110511 	tsteq	r1, r1, lsl r5
     510:	01062e01 	tsteq	r6, r1, lsl #28
     514:	05012305 	streq	r2, [r1, #-773]	; 0xfffffcfb
     518:	05052e0a 	streq	r2, [r5, #-3594]	; 0xfffff1f6
     51c:	01064c06 	tsteq	r6, r6, lsl #24
     520:	2c050104 	stfcss	f0, [r5], {4}
     524:	010a0306 	tsteq	sl, r6, lsl #6
     528:	05011905 	streq	r1, [r1, #-2309]	; 0xfffff6fb
     52c:	02041309 	andeq	r1, r4, #603979776	; 0x24000000
     530:	03060a05 	movweq	r0, #27141	; 0x6a05
     534:	01040173 	tsteq	r4, r3, ror r1
     538:	0d031405 	cfstrseq	mvf1, [r3, #-20]	; 0xffffffec
     53c:	0609052e 	streq	r0, [r9], -lr, lsr #10
     540:	0204142f 	andeq	r1, r4, #788529152	; 0x2f000000
     544:	6c031805 	stcvs	8, cr1, [r3], {5}
     548:	15050501 	strne	r0, [r5, #-1281]	; 0xfffffaff
     54c:	13090513 	movwne	r0, #38163	; 0x9513
     550:	05110a05 	ldreq	r0, [r1, #-2565]	; 0xfffff5fb
     554:	2e010111 	mcrcs	1, 0, r0, cr1, cr1, {0}
     558:	23050106 	movwcs	r0, #20742	; 0x5106
     55c:	2e0a0501 	cfsh32cs	mvfx0, mvfx10, #1
     560:	4c060505 	cfstr32mi	mvfx0, [r6], {5}
     564:	01040106 	tsteq	r4, r6, lsl #2
     568:	03060905 	movweq	r0, #26885	; 0x6905
     56c:	02040110 	andeq	r0, r4, #4
     570:	03060a05 	movweq	r0, #27141	; 0x6a05
     574:	0104016e 	tsteq	r4, lr, ror #2
     578:	12031405 	andne	r1, r3, #83886080	; 0x5000000
     57c:	0609052e 	streq	r0, [r9], -lr, lsr #10
     580:	0204142f 	andeq	r1, r4, #788529152	; 0x2f000000
     584:	67031805 	strvs	r1, [r3, -r5, lsl #16]
     588:	17090501 	strne	r0, [r9, -r1, lsl #10]
     58c:	05110a05 	ldreq	r0, [r1, #-2565]	; 0xfffff5fb
     590:	2e010111 	mcrcs	1, 0, r0, cr1, cr1, {0}
     594:	23050106 	movwcs	r0, #20742	; 0x5106
     598:	2e0a0501 	cfsh32cs	mvfx0, mvfx10, #1
     59c:	4c060505 	cfstr32mi	mvfx0, [r6], {5}
     5a0:	01040106 	tsteq	r4, r6, lsl #2
     5a4:	03062c05 	movweq	r2, #27653	; 0x6c05
     5a8:	1905010a 	stmdbne	r5, {r1, r3, r8}
     5ac:	13090501 	movwne	r0, #38145	; 0x9501
     5b0:	0a050204 	beq	140dc8 <__bss_end__+0x137348>
     5b4:	01730306 	cmneq	r3, r6, lsl #6
     5b8:	14050104 	strne	r0, [r5], #-260	; 0xfffffefc
     5bc:	052e0d03 	streq	r0, [lr, #-3331]!	; 0xfffff2fd
     5c0:	142f0609 	strtne	r0, [pc], #-1545	; 5c8 <__code_start__-0x7a38>
     5c4:	18050204 	stmdane	r5, {r2, r9}
     5c8:	05016c03 	streq	r6, [r1, #-3075]	; 0xfffff3fd
     5cc:	05131505 	ldreq	r1, [r3, #-1285]	; 0xfffffafb
     5d0:	0a051309 	beq	1451fc <__bss_end__+0x13b77c>
     5d4:	01110511 	tsteq	r1, r1, lsl r5
     5d8:	01062e01 	tsteq	r6, r1, lsl #28
     5dc:	05012305 	streq	r2, [r1, #-773]	; 0xfffffcfb
     5e0:	05052e0a 	streq	r2, [r5, #-3594]	; 0xfffff1f6
     5e4:	01064c06 	tsteq	r6, r6, lsl #24
     5e8:	09050104 	stmdbeq	r5, {r2, r8}
     5ec:	01100306 	tsteq	r0, r6, lsl #6
     5f0:	0a050204 	beq	140e08 <__bss_end__+0x137388>
     5f4:	016e0306 	cmneq	lr, r6, lsl #6
     5f8:	14050104 	strne	r0, [r5], #-260	; 0xfffffefc
     5fc:	052e1203 	streq	r1, [lr, #-515]!	; 0xfffffdfd
     600:	142f0609 	strtne	r0, [pc], #-1545	; 608 <__code_start__-0x79f8>
     604:	18050204 	stmdane	r5, {r2, r9}
     608:	05016703 	streq	r6, [r1, #-1795]	; 0xfffff8fd
     60c:	0a051709 	beq	146238 <__bss_end__+0x13c7b8>
     610:	01110511 	tsteq	r1, r1, lsl r5
     614:	01062e01 	tsteq	r6, r1, lsl #28
     618:	05012305 	streq	r2, [r1, #-773]	; 0xfffffcfb
     61c:	05052e0a 	streq	r2, [r5, #-3594]	; 0xfffff1f6
     620:	01064c06 	tsteq	r6, r6, lsl #24
     624:	2c050104 	stfcss	f0, [r5], {4}
     628:	010a0306 	tsteq	sl, r6, lsl #6
     62c:	05011905 	streq	r1, [r1, #-2309]	; 0xfffff6fb
     630:	010b0305 	tsteq	fp, r5, lsl #6
     634:	01011405 	tsteq	r1, r5, lsl #8
     638:	0501062e 	streq	r0, [r1, #-1582]	; 0xfffff9d2
     63c:	06130605 	ldreq	r0, [r3], -r5, lsl #12
     640:	052e4a4a 	streq	r4, [lr, #-2634]!	; 0xfffff5b6
     644:	0c030609 	stceq	6, cr0, [r3], {9}
     648:	480b0501 	stmdami	fp, {r0, r8, sl}
     64c:	01001c02 	tsteq	r0, r2, lsl #24
     650:	00025c01 	andeq	r5, r2, r1, lsl #24
     654:	a7000300 	strge	r0, [r0, -r0, lsl #6]
     658:	02000000 	andeq	r0, r0, #0, 0
     65c:	0d0efb01 	vstreq	d15, [lr, #-4]
     660:	01010100 	mrseq	r0, (UNDEF: 17)
     664:	00000001 	andeq	r0, r0, r1
     668:	01000001 	tsteq	r0, r1
     66c:	72732f2e 	rsbsvc	r2, r3, #184	; 0xb8
     670:	412f0063 			; <UNDEFINED> instruction: 0x412f0063
     674:	696c7070 	stmdbvs	ip!, {r4, r5, r6, ip, sp, lr}^
     678:	69746163 	ldmdbvs	r4!, {r0, r1, r5, r6, r8, sp, lr}^
     67c:	2f736e6f 	svccs	0x00736e6f
     680:	2f4d5241 	svccs	0x004d5241
     684:	2f62696c 	svccs	0x0062696c
     688:	2f636367 	svccs	0x00636367
     68c:	2d6d7261 	sfmcs	f7, 2, [sp, #-388]!	; 0xfffffe7c
     690:	656e6f6e 	strbvs	r6, [lr, #-3950]!	; 0xfffff092
     694:	6261652d 	rsbvs	r6, r1, #188743680	; 0xb400000
     698:	31312f69 	teqcc	r1, r9, ror #30
     69c:	312e322e 			; <UNDEFINED> instruction: 0x312e322e
     6a0:	636e692f 	cmnvs	lr, #770048	; 0xbc000
     6a4:	6564756c 	strbvs	r7, [r4, #-1388]!	; 0xfffffa94
     6a8:	73552f00 	cmpvc	r5, #0, 30
     6ac:	2f737265 	svccs	0x00737265
     6b0:	656c696d 	strbvs	r6, [ip, #-2413]!	; 0xfffff693
     6b4:	6f532f73 	svcvs	0x00532f73
     6b8:	65637275 	strbvs	r7, [r3, #-629]!	; 0xfffffd8b
     6bc:	3273632f 	rsbscc	r6, r3, #-1140850688	; 0xbc000000
     6c0:	786c3034 	stmdavc	ip!, {r2, r4, r5, ip, sp}^
     6c4:	62696c2f 	rsbvs	r6, r9, #12032	; 0x2f00
     6c8:	692f6970 	stmdbvs	pc!, {r4, r5, r6, r8, fp, sp, lr}	; <UNPREDICTABLE>
     6cc:	756c636e 	strbvc	r6, [ip, #-878]!	; 0xfffffc92
     6d0:	00006564 	andeq	r6, r0, r4, ror #10
     6d4:	6f697067 	svcvs	0x00697067
     6d8:	0100632e 	tsteq	r0, lr, lsr #6
     6dc:	74730000 	ldrbtvc	r0, [r3], #-0
     6e0:	746e6964 	strbtvc	r6, [lr], #-2404	; 0xfffff69c
     6e4:	6363672d 	cmnvs	r3, #11796480	; 0xb40000
     6e8:	0200682e 	andeq	r6, r0, #3014656	; 0x2e0000
     6ec:	70670000 	rsbvc	r0, r7, r0
     6f0:	682e6f69 	stmdavs	lr!, {r0, r3, r5, r6, r8, r9, sl, fp, sp, lr}
     6f4:	00000300 	andeq	r0, r0, r0, lsl #6
     6f8:	2e697072 	mcrcs	0, 3, r7, cr9, cr2, {3}
     6fc:	00030068 	andeq	r0, r3, r8, rrx
     700:	38050000 	stmdacc	r5, {}	; <UNPREDICTABLE>
     704:	f0020500 			; <UNDEFINED> instruction: 0xf0020500
     708:	03000082 	movweq	r0, #130	; 0x82
     70c:	05050127 	streq	r0, [r5, #-295]	; 0xfffffed9
     710:	06070513 			; <UNDEFINED> instruction: 0x06070513
     714:	06060501 	streq	r0, [r6], -r1, lsl #10
     718:	15050549 	strne	r0, [r5, #-1353]	; 0xfffffab7
     71c:	01060705 	tsteq	r6, r5, lsl #14
     720:	052b3805 	streq	r3, [fp, #-2053]!	; 0xfffff7fb
     724:	05054d07 	streq	r4, [r5, #-3335]	; 0xfffff2f9
     728:	18053006 	stmdane	r5, {r1, r2, ip, sp}
     72c:	1c050106 	stfnes	f0, [r5], {6}
     730:	4a0e0567 	bmi	381cd4 <__bss_end__+0x378254>
     734:	052d1805 	streq	r1, [sp, #-2053]!	; 0xfffff7fb
     738:	2f2e4d12 	svccs	0x002e4d12
     73c:	2b0e052d 	blcs	381bf8 <__bss_end__+0x378178>
     740:	2f060505 	svccs	0x00060505
     744:	07051314 	smladeq	r5, r4, r3, r1
     748:	05050106 	streq	r0, [r5, #-262]	; 0xfffffefa
     74c:	06132f06 	ldreq	r2, [r3], -r6, lsl #30
     750:	1301054a 	movwne	r0, #5450	; 0x154a
     754:	2e2d0505 	cfsh64cs	mvdx0, mvdx13, #5
     758:	00062405 	andeq	r2, r6, r5, lsl #8
     75c:	83540205 	cmphi	r4, #1342177280	; 0x50000000
     760:	05150000 	ldreq	r0, [r5, #-0]
     764:	06051305 	streq	r1, [r5], -r5, lsl #6
     768:	05017103 	streq	r7, [r1, #-259]	; 0xfffffefd
     76c:	07051305 	streq	r1, [r5, -r5, lsl #6]
     770:	06050106 	streq	r0, [r5], -r6, lsl #2
     774:	05054906 	streq	r4, [r5, #-2310]	; 0xfffff6fa
     778:	18051415 	stmdane	r5, {r0, r2, r4, sl, ip}
     77c:	24050106 	strcs	r0, [r5], #-262	; 0xfffffefa
     780:	052e0903 	streq	r0, [lr, #-2307]!	; 0xfffff6fd
     784:	2e770318 	mrccs	3, 3, r0, cr7, cr8, {0}
     788:	054b1c05 	strbeq	r1, [fp, #-3077]	; 0xfffff3fb
     78c:	18054a0e 	stmdane	r5, {r1, r2, r3, r9, fp, lr}
     790:	4d12052d 	cfldr32mi	mvfx0, [r2, #-180]	; 0xffffff4c
     794:	052d2f2e 	streq	r2, [sp, #-3886]!	; 0xfffff0d2
     798:	0e05300f 	cdpeq	0, 0, cr3, cr5, cr15, {0}
     79c:	06050529 	streq	r0, [r5], -r9, lsr #10
     7a0:	0513142f 	ldreq	r1, [r3, #-1071]	; 0xfffffbd1
     7a4:	05010607 	streq	r0, [r1, #-1543]	; 0xfffff9f9
     7a8:	132f0605 			; <UNDEFINED> instruction: 0x132f0605
     7ac:	01054a06 	tsteq	r5, r6, lsl #20
     7b0:	29050517 	stmdbcs	r5, {r0, r1, r2, r4, r8, sl}
     7b4:	0627052e 	strteq	r0, [r7], -lr, lsr #10
     7b8:	b0020500 	andlt	r0, r2, r0, lsl #10
     7bc:	1a000083 	bne	9d0 <__code_start__-0x7630>
     7c0:	05130505 	ldreq	r0, [r3, #-1285]	; 0xfffffafb
     7c4:	05110627 	ldreq	r0, [r1, #-1575]	; 0xfffff9d9
     7c8:	05052f18 	streq	r2, [r5, #-3864]	; 0xfffff0e8
     7cc:	054a2e2e 	strbeq	r2, [sl, #-3630]	; 0xfffff1d2
     7d0:	05000628 	streq	r0, [r0, #-1576]	; 0xfffff9d8
     7d4:	0083c802 	addeq	ip, r3, r2, lsl #16
     7d8:	05051600 	streq	r1, [r5, #-1536]	; 0xfffffa00
     7dc:	06280513 			; <UNDEFINED> instruction: 0x06280513
     7e0:	2f180511 	svccs	0x00180511
     7e4:	2e2e0505 	cfsh64cs	mvdx0, mvdx14, #5
     7e8:	0623054a 	strteq	r0, [r3], -sl, asr #10
     7ec:	e0020500 	and	r0, r2, r0, lsl #10
     7f0:	16000083 	strne	r0, [r0], -r3, lsl #1
     7f4:	05130505 	ldreq	r0, [r3, #-1285]	; 0xfffffafb
     7f8:	01620306 	cmneq	r2, r6, lsl #6
     7fc:	05130505 	ldreq	r0, [r3, #-1285]	; 0xfffffafb
     800:	05010607 	streq	r0, [r1, #-1543]	; 0xfffff9f9
     804:	05490606 	strbeq	r0, [r9, #-1542]	; 0xfffff9fa
     808:	13141505 	tstne	r4, #20971520	; 0x1400000
     80c:	03062305 	movweq	r2, #25349	; 0x6305
     810:	22050117 	andcs	r0, r5, #-1073741819	; 0xc0000005
     814:	052e6903 	streq	r6, [lr, #-2307]!	; 0xfffff6fd
     818:	052e821c 	streq	r8, [lr, #-540]!	; 0xfffffde4
     81c:	05052e0e 	streq	r2, [r5, #-3598]	; 0xfffff1f2
     820:	12053006 	andne	r3, r5, #6, 0
     824:	2d4b0106 	stfcse	f0, [fp, #-24]	; 0xffffffe8
     828:	2f060505 	svccs	0x00060505
     82c:	18051313 	stmdane	r5, {r0, r1, r4, r8, r9, ip}
     830:	017a0306 	cmneq	sl, r6, lsl #6
     834:	054a0e05 	strbeq	r0, [sl, #-3589]	; 0xfffff1fb
     838:	052e3405 	streq	r3, [lr, #-1029]!	; 0xfffffbfb
     83c:	2e140301 	cdpcs	3, 1, cr0, cr4, cr1, {0}
     840:	6c030505 	cfstr32vs	mvfx0, [r3], {5}
     844:	2b052e2e 	blcs	14c104 <__bss_end__+0x142684>
     848:	02050006 	andeq	r0, r5, #6, 0
     84c:	00008438 	andeq	r8, r0, r8, lsr r4
     850:	05011703 	streq	r1, [r1, #-1795]	; 0xfffff8fd
     854:	07051305 	streq	r1, [r5, -r5, lsl #6]
     858:	18050106 	stmdane	r5, {r1, r2, r8}
     85c:	052e7103 	streq	r7, [lr, #-259]!	; 0xfffffefd
     860:	2e0e032b 	cdpcs	3, 0, cr0, cr14, cr11, {1}
     864:	052f0705 	streq	r0, [pc, #-1797]!	; 167 <__code_start__-0x7e99>
     868:	052f0609 	streq	r0, [pc, #-1545]!	; 267 <__code_start__-0x7d99>
     86c:	016f030d 	cmneq	pc, sp, lsl #6
     870:	06130505 	ldreq	r0, [r3], -r5, lsl #10
     874:	052e2e2e 	streq	r2, [lr, #-3630]!	; 0xfffff1d2
     878:	12030609 	andne	r0, r3, #9437184	; 0x900000
     87c:	030d0501 	movweq	r0, #54529	; 0xd501
     880:	05050172 	streq	r0, [r5, #-370]	; 0xfffffe8e
     884:	2e2e0613 	mcrcs	6, 1, r0, cr14, cr3, {0}
     888:	03061d05 	movweq	r1, #27909	; 0x6d05
     88c:	05056610 	streq	r6, [r5, #-1552]	; 0xfffff9f0
     890:	060e0513 			; <UNDEFINED> instruction: 0x060e0513
     894:	2d1d0501 	cfldr32cs	mvfx0, [sp, #-4]
     898:	0605052e 	streq	r0, [r5], -lr, lsr #10
     89c:	17051330 	smladxne	r5, r0, r3, r1
     8a0:	052e0106 	streq	r0, [lr, #-262]!	; 0xfffffefa
     8a4:	23052d0e 	movwcs	r2, #23822	; 0x5d0e
     8a8:	2f01052f 	svccs	0x0001052f
     8ac:	01000602 	tsteq	r0, r2, lsl #12
     8b0:	00012001 	andeq	r2, r1, r1
     8b4:	db000300 	blle	14bc <__code_start__-0x6b44>
     8b8:	02000000 	andeq	r0, r0, #0, 0
     8bc:	0d0efb01 	vstreq	d15, [lr, #-4]
     8c0:	01010100 	mrseq	r0, (UNDEF: 17)
     8c4:	00000001 	andeq	r0, r0, r1
     8c8:	01000001 	tsteq	r0, r1
     8cc:	696c2f2e 	stmdbvs	ip!, {r1, r2, r3, r5, r8, r9, sl, fp, sp}^
     8d0:	2f006362 	svccs	0x00006362
     8d4:	2f74706f 	svccs	0x0074706f
     8d8:	656d6f68 	strbvs	r6, [sp, #-3944]!	; 0xfffff098
     8dc:	77657262 	strbvc	r7, [r5, -r2, ror #4]!
     8e0:	6c65432f 	stclvs	3, cr4, [r5], #-188	; 0xffffff44
     8e4:	2f72616c 	svccs	0x0072616c
     8e8:	2d6d7261 	sfmcs	f7, 2, [sp, #-388]!	; 0xfffffe7c
     8ec:	656e6f6e 	strbvs	r6, [lr, #-3950]!	; 0xfffff092
     8f0:	6261652d 	rsbvs	r6, r1, #188743680	; 0xb400000
     8f4:	2f392d69 	svccs	0x00392d69
     8f8:	30322d39 	eorscc	r2, r2, r9, lsr sp
     8fc:	34713931 	ldrbtcc	r3, [r1], #-2353	; 0xfffff6cf
     900:	3173632d 	cmncc	r3, sp, lsr #6
     904:	2f653730 	svccs	0x00653730
     908:	2f62696c 	svccs	0x0062696c
     90c:	2f636367 	svccs	0x00636367
     910:	2d6d7261 	sfmcs	f7, 2, [sp, #-388]!	; 0xfffffe7c
     914:	656e6f6e 	strbvs	r6, [lr, #-3950]!	; 0xfffff092
     918:	6261652d 	rsbvs	r6, r1, #188743680	; 0xb400000
     91c:	2e392f69 	cdpcs	15, 3, cr2, cr9, cr9, {3}
     920:	2f312e32 	svccs	0x00312e32
     924:	6c636e69 	stclvs	14, cr6, [r3], #-420	; 0xfffffe5c
     928:	00656475 	rsbeq	r6, r5, r5, ror r4
     92c:	6573552f 	ldrbvs	r5, [r3, #-1327]!	; 0xfffffad1
     930:	6d2f7372 	stcvs	3, cr7, [pc, #-456]!	; 770 <__code_start__-0x7890>
     934:	73656c69 	cmnvc	r5, #26880	; 0x6900
     938:	756f532f 	strbvc	r5, [pc, #-815]!	; 611 <__code_start__-0x79ef>
     93c:	2f656372 	svccs	0x00656372
     940:	34327363 	ldrtcc	r7, [r2], #-867	; 0xfffffc9d
     944:	2f786c30 	svccs	0x00786c30
     948:	7062696c 	rsbvc	r6, r2, ip, ror #18
     94c:	6e692f69 	cdpvs	15, 6, cr2, cr9, cr9, {3}
     950:	64756c63 	ldrbtvs	r6, [r5], #-3171	; 0xfffff39d
     954:	70000065 	andvc	r0, r0, r5, rrx
     958:	746e6972 	strbtvc	r6, [lr], #-2418	; 0xfffff68e
     95c:	00632e6b 	rsbeq	r2, r3, fp, ror #28
     960:	73000001 	movwvc	r0, #1
     964:	72616474 	rsbvc	r6, r1, #116, 8	; 0x74000000
     968:	00682e67 	rsbeq	r2, r8, r7, ror #28
     96c:	72000002 	andvc	r0, r0, #2, 0
     970:	682e6970 	stmdavs	lr!, {r4, r5, r6, r8, fp, sp, lr}
     974:	00000300 	andeq	r0, r0, r0, lsl #6
     978:	6975623c 	ldmdbvs	r5!, {r2, r3, r4, r5, r9, sp, lr}^
     97c:	692d746c 	pushvs	{r2, r3, r5, r6, sl, ip, sp, lr}
     980:	00003e6e 	andeq	r3, r0, lr, ror #28
     984:	61760000 	cmnvs	r6, r0
     988:	6972702d 	ldmdbvs	r2!, {r0, r2, r3, r5, ip, sp, lr}^
     98c:	2e6b746e 	cdpcs	4, 6, cr7, cr11, cr14, {3}
     990:	00010068 	andeq	r0, r1, r8, rrx
     994:	22050000 	andcs	r0, r5, #0, 0
     998:	90020500 	andls	r0, r2, r0, lsl #10
     99c:	17000084 	strne	r0, [r0, -r4, lsl #1]
     9a0:	13140505 	tstne	r4, #20971520	; 0x1400000
     9a4:	06220514 			; <UNDEFINED> instruction: 0x06220514
     9a8:	5012050d 	andspl	r0, r2, sp, lsl #10
     9ac:	7a032205 	bvc	c91c8 <__bss_end__+0xbf748>
     9b0:	3305052e 	movwcc	r0, #21806	; 0x552e
     9b4:	052f1205 	streq	r1, [pc, #-517]!	; 7b7 <__code_start__-0x7849>
     9b8:	09056505 	stmdbeq	r5, {r0, r2, r8, sl, sp, lr}
     9bc:	12052f06 	andne	r2, r5, #6, 30
     9c0:	05050106 	streq	r0, [r5, #-262]	; 0xfffffefa
     9c4:	06164b06 	ldreq	r4, [r6], -r6, lsl #22
     9c8:	0550064a 	ldrbeq	r0, [r0, #-1610]	; 0xfffff9b6
     9cc:	66130601 	ldrvs	r0, [r3], -r1, lsl #12
     9d0:	01000802 	tsteq	r0, r2, lsl #16
     9d4:	0000a001 	andeq	sl, r0, r1
     9d8:	57000300 	strpl	r0, [r0, -r0, lsl #6]
     9dc:	02000000 	andeq	r0, r0, #0, 0
     9e0:	0d0efb01 	vstreq	d15, [lr, #-4]
     9e4:	01010100 	mrseq	r0, (UNDEF: 17)
     9e8:	00000001 	andeq	r0, r0, r1
     9ec:	01000001 	tsteq	r0, r1
     9f0:	696c2f2e 	stmdbvs	ip!, {r1, r2, r3, r5, r8, r9, sl, fp, sp}^
     9f4:	2f006362 	svccs	0x00006362
     9f8:	72657355 	rsbvc	r7, r5, #1409286145	; 0x54000001
     9fc:	696d2f73 	stmdbvs	sp!, {r0, r1, r4, r5, r6, r8, r9, sl, fp, sp}^
     a00:	2f73656c 	svccs	0x0073656c
     a04:	72756f53 	rsbsvc	r6, r5, #332	; 0x14c
     a08:	632f6563 			; <UNDEFINED> instruction: 0x632f6563
     a0c:	30343273 	eorscc	r3, r4, r3, ror r2
     a10:	6c2f786c 	stcvs	8, cr7, [pc], #-432	; 868 <__code_start__-0x7798>
     a14:	69706269 	ldmdbvs	r0!, {r0, r3, r5, r6, r9, sp, lr}^
     a18:	636e692f 	cmnvs	lr, #770048	; 0xbc000
     a1c:	6564756c 	strbvs	r7, [r4, #-1388]!	; 0xfffffa94
     a20:	75700000 	ldrbvc	r0, [r0, #-0]!
     a24:	632e6b74 			; <UNDEFINED> instruction: 0x632e6b74
     a28:	00000100 	andeq	r0, r0, r0, lsl #2
     a2c:	2e697072 	mcrcs	0, 3, r7, cr9, cr2, {3}
     a30:	00020068 	andeq	r0, r2, r8, rrx
     a34:	22050000 	andcs	r0, r5, #0, 0
     a38:	e8020500 	stmda	r2, {r8, sl}
     a3c:	15000084 	strne	r0, [r0, #-132]	; 0xffffff7c
     a40:	05130505 	ldreq	r0, [r3, #-1285]	; 0xfffffafb
     a44:	2e110622 	cfmsub32cs	mvax1, mvfx0, mvfx1, mvfx2
     a48:	2f060b05 	svccs	0x00060b05
     a4c:	2e060505 	cfsh32cs	mvfx0, mvfx6, #5
     a50:	02000905 	andeq	r0, r0, #81920	; 0x14000
     a54:	67060204 	strvs	r0, [r6, -r4, lsl #4]
     a58:	02000f05 	andeq	r0, r0, #5, 30
     a5c:	05490204 	strbeq	r0, [r9, #-516]	; 0xfffffdfc
     a60:	0402000b 	streq	r0, [r2], #-11
     a64:	05050102 	streq	r0, [r5, #-258]	; 0xfffffefe
     a68:	02040200 	andeq	r0, r4, #0, 4
     a6c:	4e062e06 	cdpmi	14, 0, cr2, cr6, cr6, {0}
     a70:	13060105 	movwne	r0, #24837	; 0x6105
     a74:	01000602 	tsteq	r0, r2, lsl #12
     a78:	0008fa01 	andeq	pc, r8, r1, lsl #20
     a7c:	f1000300 			; <UNDEFINED> instruction: 0xf1000300
     a80:	02000000 	andeq	r0, r0, #0, 0
     a84:	0d0efb01 	vstreq	d15, [lr, #-4]
     a88:	01010100 	mrseq	r0, (UNDEF: 17)
     a8c:	00000001 	andeq	r0, r0, r1
     a90:	01000001 	tsteq	r0, r1
     a94:	696c2f2e 	stmdbvs	ip!, {r1, r2, r3, r5, r8, r9, sl, fp, sp}^
     a98:	2f006362 	svccs	0x00006362
     a9c:	2f74706f 	svccs	0x0074706f
     aa0:	656d6f68 	strbvs	r6, [sp, #-3944]!	; 0xfffff098
     aa4:	77657262 	strbvc	r7, [r5, -r2, ror #4]!
     aa8:	6c65432f 	stclvs	3, cr4, [r5], #-188	; 0xffffff44
     aac:	2f72616c 	svccs	0x0072616c
     ab0:	2d6d7261 	sfmcs	f7, 2, [sp, #-388]!	; 0xfffffe7c
     ab4:	656e6f6e 	strbvs	r6, [lr, #-3950]!	; 0xfffff092
     ab8:	6261652d 	rsbvs	r6, r1, #188743680	; 0xb400000
     abc:	2f392d69 	svccs	0x00392d69
     ac0:	30322d39 	eorscc	r2, r2, r9, lsr sp
     ac4:	34713931 	ldrbtcc	r3, [r1], #-2353	; 0xfffff6cf
     ac8:	3173632d 	cmncc	r3, sp, lsr #6
     acc:	2f653730 	svccs	0x00653730
     ad0:	2f62696c 	svccs	0x0062696c
     ad4:	2f636367 	svccs	0x00636367
     ad8:	2d6d7261 	sfmcs	f7, 2, [sp, #-388]!	; 0xfffffe7c
     adc:	656e6f6e 	strbvs	r6, [lr, #-3950]!	; 0xfffff092
     ae0:	6261652d 	rsbvs	r6, r1, #188743680	; 0xb400000
     ae4:	2e392f69 	cdpcs	15, 3, cr2, cr9, cr9, {3}
     ae8:	2f312e32 	svccs	0x00312e32
     aec:	6c636e69 	stclvs	14, cr6, [r3], #-420	; 0xfffffe5c
     af0:	00656475 	rsbeq	r6, r5, r5, ror r4
     af4:	6573552f 	ldrbvs	r5, [r3, #-1327]!	; 0xfffffad1
     af8:	6d2f7372 	stcvs	3, cr7, [pc, #-456]!	; 938 <__code_start__-0x76c8>
     afc:	73656c69 	cmnvc	r5, #26880	; 0x6900
     b00:	756f532f 	strbvc	r5, [pc, #-815]!	; 7d9 <__code_start__-0x7827>
     b04:	2f656372 	svccs	0x00656372
     b08:	34327363 	ldrtcc	r7, [r2], #-867	; 0xfffffc9d
     b0c:	2f786c30 	svccs	0x00786c30
     b10:	7062696c 	rsbvc	r6, r2, ip, ror #18
     b14:	6e692f69 	cdpvs	15, 6, cr2, cr9, cr9, {3}
     b18:	64756c63 	ldrbtvs	r6, [r5], #-3171	; 0xfffff39d
     b1c:	76000065 	strvc	r0, [r0], -r5, rrx
     b20:	72702d61 	rsbsvc	r2, r0, #6208	; 0x1840
     b24:	6b746e69 	blvs	1d1c4d0 <__bss_end__+0x1d12a50>
     b28:	0100632e 	tsteq	r0, lr, lsr #6
     b2c:	74730000 	ldrbtvc	r0, [r3], #-0
     b30:	746e6964 	strbtvc	r6, [lr], #-2404	; 0xfffff69c
     b34:	6363672d 	cmnvs	r3, #11796480	; 0xb40000
     b38:	0200682e 	andeq	r6, r0, #3014656	; 0x2e0000
     b3c:	70720000 	rsbsvc	r0, r2, r0
     b40:	00682e69 	rsbeq	r2, r8, r9, ror #28
     b44:	72000003 	andvc	r0, r0, #3, 0
     b48:	692d6970 	pushvs	{r4, r5, r6, r8, fp, sp, lr}
     b4c:	7265746e 	rsbvc	r7, r5, #1845493760	; 0x6e000000
     b50:	2e6c616e 	powcsez	f6, f4, #0.5
     b54:	00030068 	andeq	r0, r3, r8, rrx
     b58:	64747300 	ldrbtvs	r7, [r4], #-768	; 0xfffffd00
     b5c:	2e677261 	cdpcs	2, 6, cr7, cr7, cr1, {3}
     b60:	00020068 	andeq	r0, r2, r8, rrx
     b64:	75623c00 	strbvc	r3, [r2, #-3072]!	; 0xfffff400
     b68:	2d746c69 	ldclcs	12, cr6, [r4, #-420]!	; 0xfffffe5c
     b6c:	003e6e69 	eorseq	r6, lr, r9, ror #28
     b70:	00000000 	andeq	r0, r0, r0
     b74:	05000105 	streq	r0, [r0, #-261]	; 0xfffffefb
     b78:	00852002 	addeq	r2, r5, r2
     b7c:	00c80300 	sbceq	r0, r8, r0, lsl #6
     b80:	14020501 	strne	r0, [r2], #-1281	; 0xfffffaff
     b84:	10060105 	andne	r0, r6, r5, lsl #2
     b88:	05300405 	ldreq	r0, [r0, #-1029]!	; 0xfffffbfb
     b8c:	054a2c01 	strbeq	r2, [sl, #-3073]	; 0xfffff3ff
     b90:	02053004 	andeq	r3, r5, #4, 0
     b94:	05133106 	ldreq	r3, [r3, #-262]	; 0xfffffefa
     b98:	052e060b 	streq	r0, [lr, #-1547]!	; 0xfffff9f5
     b9c:	05300602 	ldreq	r0, [r0, #-1538]!	; 0xfffff9fe
     ba0:	24020609 	strcs	r0, [r2], #-1545	; 0xfffff9f7
     ba4:	052e2e0d 	streq	r2, [lr, #-3597]!	; 0xfffff1f3
     ba8:	1703060d 	strne	r0, [r3, -sp, lsl #12]
     bac:	1311054a 	tstne	r1, #310378496	; 0x12800000
     bb0:	01062d05 	tsteq	r6, r5, lsl #26
     bb4:	052e1605 	streq	r1, [lr, #-1541]!	; 0xfffff9fb
     bb8:	16052f0d 	strne	r2, [r5], -sp, lsl #30
     bbc:	0614052d 	ldreq	r0, [r4], -sp, lsr #10
     bc0:	0617052f 	ldreq	r0, [r7], -pc, lsr #10
     bc4:	2e0d0501 	cfsh32cs	mvfx0, mvfx13, #1
     bc8:	12052f06 	andne	r2, r5, #6, 30
     bcc:	2f2e0106 	svccs	0x002e0106
     bd0:	060d052d 	streq	r0, [sp], -sp, lsr #10
     bd4:	0612052f 	ldreq	r0, [r2], -pc, lsr #10
     bd8:	06190501 	ldreq	r0, [r9], -r1, lsl #10
     bdc:	0304052f 	movweq	r0, #17711	; 0x452f
     be0:	05010111 	streq	r0, [r1, #-273]	; 0xfffffeef
     be4:	0e051502 	cfsh32eq	mvfx1, mvfx5, #2
     be8:	017fb203 	cmneq	pc, r3, lsl #4
     bec:	05130205 	ldreq	r0, [r3, #-517]	; 0xfffffdfb
     bf0:	05010606 	streq	r0, [r1, #-1542]	; 0xfffff9fa
     bf4:	05300602 	ldreq	r0, [r0, #-1538]!	; 0xfffff9fe
     bf8:	02050108 	andeq	r0, r5, #2
     bfc:	054a0106 	strbeq	r0, [sl, #-262]	; 0xfffffefa
     c00:	05910808 	ldreq	r0, [r1, #2056]	; 0x808
     c04:	054a0603 	strbeq	r0, [sl, #-1539]	; 0xfffff9fd
     c08:	05010608 	streq	r0, [r1, #-1544]	; 0xfffff9f8
     c0c:	052d0615 	streq	r0, [sp, #-1557]!	; 0xfffff9eb
     c10:	03050108 	movweq	r0, #20744	; 0x5108
     c14:	060805d7 			; <UNDEFINED> instruction: 0x060805d7
     c18:	2d180501 	cfldr32cs	mvfx0, [r8, #-4]
     c1c:	052e0205 	streq	r0, [lr, #-517]!	; 0xfffffdfb
     c20:	15052f08 	strne	r2, [r5, #-3848]	; 0xfffff0f8
     c24:	08052d06 	stmdaeq	r5, {r1, r2, r8, sl, fp, sp}
     c28:	06020501 	streq	r0, [r2], -r1, lsl #10
     c2c:	06030501 	streq	r0, [r3], -r1, lsl #10
     c30:	0618052f 	ldreq	r0, [r8], -pc, lsr #10
     c34:	2e020511 	mcrcs	5, 0, r0, cr2, cr1, {0}
     c38:	052f0805 	streq	r0, [pc, #-2053]!	; 43b <__code_start__-0x7bc5>
     c3c:	052d0615 	streq	r0, [sp, #-1557]!	; 0xfffff9eb
     c40:	03050108 	movweq	r0, #20744	; 0x5108
     c44:	06080513 			; <UNDEFINED> instruction: 0x06080513
     c48:	06150501 	ldreq	r0, [r5], -r1, lsl #10
     c4c:	0108052d 	tsteq	r8, sp, lsr #10
     c50:	02050106 	andeq	r0, r5, #-2147483647	; 0x80000001
     c54:	0505a006 	streq	sl, [r5, #-6]
     c58:	04050106 	streq	r0, [r5], #-262	; 0xfffffefa
     c5c:	2f110536 	svccs	0x00110536
     c60:	052e0905 	streq	r0, [lr, #-2309]!	; 0xfffff6fb
     c64:	05053302 	streq	r3, [r5, #-770]	; 0xfffffcfe
     c68:	052e7203 	streq	r7, [lr, #-515]!	; 0xfffffdfd
     c6c:	062f0602 	strteq	r0, [pc], -r2, lsl #12
     c70:	060e0501 	streq	r0, [lr], -r1, lsl #10
     c74:	14020516 	strne	r0, [r2], #-1302	; 0xfffffaea
     c78:	13030513 	movwne	r0, #13587	; 0x3513
     c7c:	15140205 	ldrne	r0, [r4, #-517]	; 0xfffffdfb
     c80:	05010b05 	streq	r0, [r1, #-2821]	; 0xfffff4fb
     c84:	2e010602 	cfmadd32cs	mvax0, mvfx0, mvfx1, mvfx2
     c88:	67060305 	strvs	r0, [r6, -r5, lsl #6]
     c8c:	01060a05 	tsteq	r6, r5, lsl #20
     c90:	052d0205 	streq	r0, [sp, #-517]!	; 0xfffffdfb
     c94:	17052f0a 	strne	r2, [r5, -sl, lsl #30]
     c98:	0b052d06 	bleq	14c0b8 <__bss_end__+0x142638>
     c9c:	06020501 	streq	r0, [r2], -r1, lsl #10
     ca0:	4c090501 	cfstr32mi	mvfx0, [r9], {1}
     ca4:	0602052e 	streq	r0, [r2], -lr, lsr #10
     ca8:	0609052e 	streq	r0, [r9], -lr, lsr #10
     cac:	06020501 	streq	r0, [r2], -r1, lsl #10
     cb0:	05010630 	streq	r0, [r1, #-1584]	; 0xfffff9d0
     cb4:	01380301 	teqeq	r8, r1, lsl #6
     cb8:	4f030905 	svcmi	0x00030905
     cbc:	052e2e4a 	streq	r2, [lr, #-3658]!	; 0xfffff1b6
     cc0:	27030619 	smladcs	r3, r9, r6, r0
     cc4:	131a054a 	tstne	sl, #310378496	; 0x12800000
     cc8:	01062805 	tsteq	r6, r5, lsl #16
     ccc:	052e1f05 	streq	r1, [lr, #-3845]!	; 0xfffff0fb
     cd0:	1f052f04 	svcne	0x00052f04
     cd4:	060b052d 	streq	r0, [fp], -sp, lsr #10
     cd8:	060e052f 	streq	r0, [lr], -pc, lsr #10
     cdc:	2e040501 	cfsh32cs	mvfx0, mvfx4, #1
     ce0:	03060205 	movweq	r0, #25093	; 0x6205
     ce4:	05134a59 	ldreq	r4, [r3, #-2649]	; 0xfffff5a7
     ce8:	052e060b 	streq	r0, [lr, #-1547]!	; 0xfffff9f5
     cec:	05300602 	ldreq	r0, [r0, #-1538]!	; 0xfffff9fe
     cf0:	24020609 	strcs	r0, [r2], #-1545	; 0xfffff9f7
     cf4:	0604050d 	streq	r0, [r4], -sp, lsl #10
     cf8:	06051336 			; <UNDEFINED> instruction: 0x06051336
     cfc:	05050106 	streq	r0, [r5, #-262]	; 0xfffffefa
     d00:	13136706 	tstne	r3, #1572864	; 0x180000
     d04:	11060905 	tstne	r6, r5, lsl #18
     d08:	052b0d05 	streq	r0, [fp, #-3333]!	; 0xfffff2fb
     d0c:	0d05300b 	stceq	0, cr3, [r5, #-44]	; 0xffffffd4
     d10:	351b052c 	ldrcc	r0, [fp, #-1324]	; 0xfffffad4
     d14:	2d060405 	cfstrscs	mvf0, [r6, #-20]	; 0xffffffec
     d18:	05130505 	ldreq	r0, [r3, #-1285]	; 0xfffffafb
     d1c:	052e061b 	streq	r0, [lr, #-1563]!	; 0xfffff9e5
     d20:	0405820a 	streq	r8, [r5], #-522	; 0xfffffdf6
     d24:	2e0e052f 	cfsh32cs	mvfx0, mvfx14, #31
     d28:	05490a05 	strbeq	r0, [r9, #-2565]	; 0xfffff5fb
     d2c:	052f060b 	streq	r0, [pc, #-1547]!	; 729 <__code_start__-0x78d7>
     d30:	06010604 	streq	r0, [r1], -r4, lsl #12
     d34:	0606052f 	streq	r0, [r6], -pc, lsr #10
     d38:	06050501 	streq	r0, [r5], -r1, lsl #10
     d3c:	060a052f 	streq	r0, [sl], -pc, lsr #10
     d40:	07052e01 	streq	r2, [r5, -r1, lsl #28]
     d44:	052e2e2e 	streq	r2, [lr, #-3630]!	; 0xfffff1d2
     d48:	0d030604 	stceq	6, cr0, [r3, #-16]
     d4c:	06020501 	streq	r0, [r2], -r1, lsl #10
     d50:	05014603 	streq	r4, [r1, #-1539]	; 0xfffff9fd
     d54:	2e3a0309 	cdpcs	3, 3, cr0, cr10, cr9, {0}
     d58:	2f060405 	svccs	0x00060405
     d5c:	01010d03 	tsteq	r1, r3, lsl #26
     d60:	05150205 	ldreq	r0, [r5, #-517]	; 0xfffffdfb
     d64:	7fb2030e 	svcvc	0x00b2030e
     d68:	13020501 	movwne	r0, #9473	; 0x2501
     d6c:	01080514 	tsteq	r8, r4, lsl r5
     d70:	10060605 	andne	r0, r6, r5, lsl #12
     d74:	052e3c03 	streq	r3, [lr, #-3075]!	; 0xfffff3fd
     d78:	4a460302 	bmi	1181988 <__bss_end__+0x1177f08>
     d7c:	05053006 	streq	r3, [r5, #-6]
     d80:	2e2e0106 	sufcse	f0, f6, f6
     d84:	4b060205 	blmi	1815a0 <__bss_end__+0x177b20>
     d88:	0e050106 	adfeqs	f0, f5, f6
     d8c:	02051606 	andeq	r1, r5, #6291456	; 0x600000
     d90:	15151314 	ldrne	r1, [r5, #-788]	; 0xfffffcec
     d94:	05010b05 	streq	r0, [r1, #-2821]	; 0xfffff4fb
     d98:	062e0602 	strteq	r0, [lr], -r2, lsl #12
     d9c:	06090530 			; <UNDEFINED> instruction: 0x06090530
     da0:	06020501 	streq	r0, [r2], -r1, lsl #10
     da4:	0501064c 	streq	r0, [r1, #-1612]	; 0xfffff9b4
     da8:	01380301 	teqeq	r8, r1, lsl #6
     dac:	6e030605 	cfmadd32vs	mvax0, mvfx0, mvfx3, mvfx5
     db0:	0302054a 	movweq	r0, #9546	; 0x254a
     db4:	2e4a6646 	cdpcs	6, 4, cr6, cr10, cr6, {2}
     db8:	03060405 	movweq	r0, #25605	; 0x6405
     dbc:	010100c8 	smlabteq	r1, r8, r0, r0
     dc0:	2e060101 	adfcss	f0, f6, f1
     dc4:	034a0682 	movteq	r0, #42626	; 0xa682
     dc8:	09052e72 	stmdbeq	r5, {r1, r4, r5, r6, r9, sl, fp, sp}
     dcc:	04050106 	streq	r0, [r5], #-262	; 0xfffffefa
     dd0:	0d032f06 	stceq	15, cr2, [r3, #-24]	; 0xffffffe8
     dd4:	02050101 	andeq	r0, r5, #1073741824	; 0x40000000
     dd8:	030e0515 	movweq	r0, #58645	; 0xe515
     ddc:	05017fb2 	streq	r7, [r1, #-4018]	; 0xfffff04e
     de0:	05141302 	ldreq	r1, [r4, #-770]	; 0xfffffcfe
     de4:	09050108 	stmdbeq	r5, {r3, r8}
     de8:	011b0306 	tsteq	fp, r6, lsl #6
     dec:	63030605 	movwvs	r0, #13829	; 0x3605
     df0:	2e3c032e 	cdpcs	3, 3, cr0, cr12, cr14, {1}
     df4:	48052e2e 	stmdami	r5, {r1, r2, r3, r5, r9, sl, fp, sp}
     df8:	7fb40306 	svcvc	0x00b40306
     dfc:	05053c08 	streq	r3, [r5, #-3080]	; 0xfffff3f8
     e00:	2e060113 	mcrcs	1, 0, r0, cr6, cr3, {0}
     e04:	02040200 	andeq	r0, r4, #0, 4
     e08:	02002e06 	andeq	r2, r0, #96	; 0x60
     e0c:	00010204 	andeq	r0, r1, r4, lsl #4
     e10:	13020402 	movwne	r0, #9218	; 0x2402
     e14:	02001105 	andeq	r1, r0, #1073741825	; 0x40000001
     e18:	01060204 	tsteq	r6, r4, lsl #4
     e1c:	02000705 	andeq	r0, r0, #1310720	; 0x140000
     e20:	052f0204 	streq	r0, [pc, #-516]!	; c24 <__code_start__-0x73dc>
     e24:	04020011 	streq	r0, [r2], #-17	; 0xffffffef
     e28:	05052d02 	streq	r2, [r5, #-3330]	; 0xfffff2fe
     e2c:	02040200 	andeq	r0, r4, #0, 4
     e30:	09052f06 	stmdbeq	r5, {r1, r2, r8, r9, sl, fp, sp}
     e34:	02040200 	andeq	r0, r4, #0, 4
     e38:	000e0513 	andeq	r0, lr, r3, lsl r5
     e3c:	06020402 	streq	r0, [r2], -r2, lsl #8
     e40:	00050501 	andeq	r0, r5, r1, lsl #10
     e44:	06010402 	streq	r0, [r1], -r2, lsl #8
     e48:	04020063 	streq	r0, [r2], #-99	; 0xffffff9d
     e4c:	48050101 	stmdami	r5, {r0, r8}
     e50:	01040200 	mrseq	r0, R12_usr
     e54:	05051106 	streq	r1, [r5, #-262]	; 0xfffffefa
     e58:	01040200 	mrseq	r0, R12_usr
     e5c:	0048052f 	subeq	r0, r8, pc, lsr #10
     e60:	2d010402 	cfstrscs	mvf0, [r1, #-8]
     e64:	02000505 	andeq	r0, r0, #20971520	; 0x1400000
     e68:	002f0104 	eoreq	r0, pc, r4, lsl #2
     e6c:	4a010402 	bmi	41e7c <__bss_end__+0x383fc>
     e70:	01040200 	mrseq	r0, R12_usr
     e74:	0402004a 	streq	r0, [r2], #-74	; 0xffffffb6
     e78:	054a0601 	strbeq	r0, [sl, #-1537]	; 0xfffff9ff
     e7c:	00e10340 	rsceq	r0, r1, r0, asr #6
     e80:	050106d6 	streq	r0, [r1, #-1750]	; 0xfffff92a
     e84:	052e4e09 	streq	r4, [lr, #-3593]!	; 0xfffff1f7
     e88:	1e053008 	cdpne	0, 0, cr3, cr5, cr8, {0}
     e8c:	2e120529 	cfmul64cs	mvdx0, mvdx2, mvdx9
     e90:	05330d05 	ldreq	r0, [r3, #-3333]!	; 0xfffff2fb
     e94:	05450602 	strbeq	r0, [r5, #-1538]	; 0xfffff9fe
     e98:	02051305 	andeq	r1, r5, #335544320	; 0x14000000
     e9c:	13050514 	movwne	r0, #21780	; 0x5514
     ea0:	05130205 	ldreq	r0, [r3, #-517]	; 0xfffffdfb
     ea4:	40050108 	andmi	r0, r5, r8, lsl #2
     ea8:	017a0306 	cmneq	sl, r6, lsl #6
     eac:	340d052e 	strcc	r0, [sp], #-1326	; 0xfffffad2
     eb0:	03110566 	tsteq	r1, #427819008	; 0x19800000
     eb4:	054a4a20 	strbeq	r4, [sl, #-2592]	; 0xfffff5e0
     eb8:	62030604 	andvs	r0, r3, #4, 12	; 0x400000
     ebc:	06090501 	streq	r0, [r9], -r1, lsl #10
     ec0:	2e0f0501 	cfsh32cs	mvfx0, mvfx15, #1
     ec4:	2c060805 	stccs	8, cr0, [r6], {5}
     ec8:	2e060d05 	cdpcs	13, 0, cr0, cr6, cr5, {0}
     ecc:	67060305 	strvs	r0, [r6, -r5, lsl #6]
     ed0:	01060505 	tsteq	r6, r5, lsl #10
     ed4:	4d060805 	stcmi	8, cr0, [r6, #-20]	; 0xffffffec
     ed8:	01060e05 	tsteq	r6, r5, lsl #28
     edc:	052e0a05 	streq	r0, [lr, #-2565]!	; 0xfffff5fb
     ee0:	04052f09 	streq	r2, [r5], #-3849	; 0xfffff0f7
     ee4:	07052f06 	streq	r2, [r5, -r6, lsl #30]
     ee8:	0a050106 	beq	141308 <__bss_end__+0x137888>
     eec:	0604052c 	streq	r0, [r4], -ip, lsr #10
     ef0:	062d0532 			; <UNDEFINED> instruction: 0x062d0532
     ef4:	017f9803 	cmneq	pc, r3, lsl #16
     ef8:	ed030905 	vstr.16	s0, [r3, #-10]
     efc:	0d052e00 	stceq	14, cr2, [r5, #-0]
     f00:	2b07052c 	blcs	1c23b8 <__bss_end__+0x1b8938>
     f04:	30060405 	andcc	r0, r6, r5, lsl #8
     f08:	09051413 	stmdbeq	r5, {r0, r1, r4, sl, ip}
     f0c:	030c0501 	movweq	r0, #50433	; 0xc501
     f10:	05017f93 	streq	r7, [r1, #-3987]	; 0xfffff06d
     f14:	0106011d 	tsteq	r6, sp, lsl r1
     f18:	ed030905 	vstr.16	s0, [r3, #-10]
     f1c:	05050100 	streq	r0, [r5, #-256]	; 0xffffff00
     f20:	12052f06 	andne	r2, r5, #6, 30
     f24:	2d2e0106 	stfcss	f0, [lr, #-24]!	; 0xffffffe8
     f28:	052f0b05 	streq	r0, [pc, #-2821]!	; 42b <__code_start__-0x7bd5>
     f2c:	052f0605 	streq	r0, [pc, #-1541]!	; 92f <__code_start__-0x76d1>
     f30:	0c051009 	stceq	0, cr1, [r5], {9}
     f34:	017f9303 	cmneq	pc, r3, lsl #6
     f38:	05011d05 	streq	r1, [r1, #-3333]	; 0xfffff2fb
     f3c:	0501062d 	streq	r0, [r1, #-1581]	; 0xfffff9d3
     f40:	00ed0309 	rsceq	r0, sp, r9, lsl #6
     f44:	0604052e 	streq	r0, [r4], -lr, lsr #10
     f48:	0200014e 	andeq	r0, r0, #-2147483629	; 0x80000013
     f4c:	004a0204 	subeq	r0, sl, r4, lsl #4
     f50:	01020402 	tsteq	r2, r2, lsl #8
     f54:	02040200 	andeq	r0, r4, #0, 4
     f58:	04020015 	streq	r0, [r2], #-21	; 0xffffffeb
     f5c:	36020602 	strcc	r0, [r2], -r2, lsl #12
     f60:	04020012 	streq	r0, [r2], #-18	; 0xffffffee
     f64:	02052e02 	andeq	r2, r5, #2, 28
     f68:	00d10306 	sbcseq	r0, r1, r6, lsl #6
     f6c:	06070501 	streq	r0, [r7], -r1, lsl #10
     f70:	02052e01 	andeq	r2, r5, #1, 28
     f74:	0b052f06 	bleq	14cb94 <__bss_end__+0x143114>
     f78:	01050106 	tsteq	r5, r6, lsl #2
     f7c:	0605052f 	streq	r0, [r5], -pc, lsr #10
     f80:	054a6503 	strbeq	r6, [sl, #-1283]	; 0xfffffafd
     f84:	66010609 	strvs	r0, [r1], -r9, lsl #12
     f88:	9f060505 	svcls	0x00060505
     f8c:	11030405 	tstne	r3, r5, lsl #8
     f90:	06070501 	streq	r0, [r7], -r1, lsl #10
     f94:	06040501 	streq	r0, [r4], -r1, lsl #10
     f98:	010a0531 	tsteq	sl, r1, lsr r5
     f9c:	02001305 	andeq	r1, r0, #335544320	; 0x14000000
     fa0:	2e060104 	adfcss	f0, f6, f4
     fa4:	02001005 	andeq	r1, r0, #5, 0
     fa8:	052e0104 	streq	r0, [lr, #-260]!	; 0xfffffefc
     fac:	054b0605 	strbeq	r0, [fp, #-1541]	; 0xfffff9fb
     fb0:	0601060a 	streq	r0, [r1], -sl, lsl #12
     fb4:	0604052d 	streq	r0, [r4], -sp, lsr #10
     fb8:	06110501 	ldreq	r0, [r1], -r1, lsl #10
     fbc:	667fb603 	ldrbtvs	fp, [pc], -r3, lsl #12
     fc0:	02000113 	andeq	r0, r0, #-1073741820	; 0xc0000004
     fc4:	ba060204 	blt	1817dc <__bss_end__+0x177d5c>
     fc8:	1401ba06 	strne	fp, [r1], #-2566	; 0xfffff5fa
     fcc:	13061a05 	movwne	r1, #27141	; 0x6a05
     fd0:	11052e2e 	tstne	r5, lr, lsr #28
     fd4:	1405674e 	strne	r6, [r5], #-1870	; 0xfffff8b2
     fd8:	82130568 	andshi	r0, r3, #104, 10	; 0x1a000000
     fdc:	78031505 	stmdavc	r3, {r0, r2, r8, sl, ip}
     fe0:	0611054a 	ldreq	r0, [r1], -sl, asr #10
     fe4:	1413134b 	ldrne	r1, [r3], #-843	; 0xfffffcb5
     fe8:	13051413 	movwne	r1, #21523	; 0x5413
     fec:	09050106 	stmdbeq	r5, {r1, r2, r8}
     ff0:	0d052f06 	stceq	15, cr2, [r5, #-24]	; 0xffffffe8
     ff4:	2e2e0106 	sufcse	f0, f6, f6
     ff8:	05bb0905 	ldreq	r0, [fp, #2309]!	; 0x905
     ffc:	09059d0d 	stmdbeq	r5, {r0, r2, r3, r8, sl, fp, ip, pc}
    1000:	15052f06 	strne	r2, [r5, #-3846]	; 0xfffff0fa
    1004:	7503062f 	strvc	r0, [r3, #-1583]	; 0xfffff9d1
    1008:	2e0b034a 	cdpcs	3, 0, cr0, cr11, cr10, {2}
    100c:	0605054a 	streq	r0, [r5], -sl, asr #10
    1010:	05012303 	streq	r2, [r1, #-771]	; 0xfffffcfd
    1014:	2e010609 	cfmadd32cs	mvax0, mvfx0, mvfx1, mvfx9
    1018:	d7060505 	strle	r0, [r6, -r5, lsl #10]
    101c:	032e6e03 			; <UNDEFINED> instruction: 0x032e6e03
    1020:	0905010e 	stmdbeq	r5, {r1, r2, r3, r8}
    1024:	05050106 	streq	r0, [r5, #-262]	; 0xfffffefa
    1028:	4a100306 	bmi	401c48 <__bss_end__+0x3f81c8>
    102c:	ed030105 	stfs	f0, [r3, #-20]	; 0xffffffec
    1030:	0205017e 	andeq	r0, r5, #-2147483617	; 0x8000001f
    1034:	14131514 	ldrne	r1, [r3], #-1300	; 0xfffffaec
    1038:	1a030405 	bne	c2054 <__bss_end__+0xb85d4>
    103c:	06090501 	streq	r0, [r9], -r1, lsl #10
    1040:	03020501 	movweq	r0, #9473	; 0x2501
    1044:	09052e46 	stmdbeq	r5, {r1, r2, r6, r9, sl, fp, sp}
    1048:	052e3a03 	streq	r3, [lr, #-2563]!	; 0xfffff5fd
    104c:	032f0604 			; <UNDEFINED> instruction: 0x032f0604
    1050:	0501010d 	streq	r0, [r1, #-269]	; 0xfffffef3
    1054:	0e051502 	cfsh32eq	mvfx1, mvfx5, #2
    1058:	017fb203 	cmneq	pc, r3, lsl #4
    105c:	14130205 	ldrne	r0, [r3], #-517	; 0xfffffdfb
    1060:	05010805 	streq	r0, [r1, #-2053]	; 0xfffff7fb
    1064:	05010602 	streq	r0, [r1, #-1538]	; 0xfffff9fe
    1068:	03059f08 	movweq	r9, #24328	; 0x5f08
    106c:	01064a06 	tsteq	r6, r6, lsl #20
    1070:	052e0805 	streq	r0, [lr, #-2053]!	; 0xfffff7fb
    1074:	052d0615 	streq	r0, [sp, #-1557]!	; 0xfffff9eb
    1078:	03050108 	movweq	r0, #20744	; 0x5108
    107c:	0501062f 	streq	r0, [r1, #-1583]	; 0xfffff9d1
    1080:	15052e08 	strne	r2, [r5, #-3592]	; 0xfffff1f8
    1084:	08052d06 	stmdaeq	r5, {r1, r2, r8, sl, fp, sp}
    1088:	2f030501 	svccs	0x00030501
    108c:	08050106 	stmdaeq	r5, {r1, r2, r8}
    1090:	0615052e 	ldreq	r0, [r5], -lr, lsr #10
    1094:	0108052d 	tsteq	r8, sp, lsr #10
    1098:	062f0305 	strteq	r0, [pc], -r5, lsl #6
    109c:	2e080501 	cfsh32cs	mvfx0, mvfx8, #1
    10a0:	2d061505 	cfstr32cs	mvfx1, [r6, #-20]	; 0xffffffec
    10a4:	05010805 	streq	r0, [r1, #-2053]	; 0xfffff7fb
    10a8:	01062f03 	tsteq	r6, r3, lsl #30
    10ac:	052e0805 	streq	r0, [lr, #-2053]!	; 0xfffff7fb
    10b0:	052d0615 	streq	r0, [sp, #-1557]!	; 0xfffff9eb
    10b4:	03050108 	movweq	r0, #20744	; 0x5108
    10b8:	0501062f 	streq	r0, [r1, #-1583]	; 0xfffff9d1
    10bc:	15052e08 	strne	r2, [r5, #-3592]	; 0xfffff1f8
    10c0:	08052d06 	stmdaeq	r5, {r1, r2, r8, sl, fp, sp}
    10c4:	13030501 	movwne	r0, #13569	; 0x3501
    10c8:	01060805 	tsteq	r6, r5, lsl #16
    10cc:	2d061505 	cfstr32cs	mvfx1, [r6, #-20]	; 0xffffffec
    10d0:	06010805 	streq	r0, [r1], -r5, lsl #16
    10d4:	06030566 	streq	r0, [r3], -r6, ror #10
    10d8:	06080567 	streq	r0, [r8], -r7, ror #10
    10dc:	2d180501 	cfldr32cs	mvfx0, [r8, #-4]
    10e0:	052e0205 	streq	r0, [lr, #-517]!	; 0xfffffdfb
    10e4:	15052f08 	strne	r2, [r5, #-3848]	; 0xfffff0f8
    10e8:	08052d06 	stmdaeq	r5, {r1, r2, r8, sl, fp, sp}
    10ec:	06020501 	streq	r0, [r2], -r1, lsl #10
    10f0:	06030501 	streq	r0, [r3], -r1, lsl #10
    10f4:	0618052f 	ldreq	r0, [r8], -pc, lsr #10
    10f8:	2e020511 	mcrcs	5, 0, r0, cr2, cr1, {0}
    10fc:	052f0805 	streq	r0, [pc, #-2053]!	; 8ff <__code_start__-0x7701>
    1100:	052d0615 	streq	r0, [sp, #-1557]!	; 0xfffff9eb
    1104:	03050108 	movweq	r0, #20744	; 0x5108
    1108:	06080513 			; <UNDEFINED> instruction: 0x06080513
    110c:	06150501 	ldreq	r0, [r5], -r1, lsl #10
    1110:	0108052d 	tsteq	r8, sp, lsr #10
    1114:	14060505 	strne	r0, [r6], #-1285	; 0xfffffafb
    1118:	0602054a 	streq	r0, [r2], -sl, asr #10
    111c:	060e052e 	streq	r0, [lr], -lr, lsr #10
    1120:	2f040519 	svccs	0x00040519
    1124:	052f1105 	streq	r1, [pc, #-261]!	; 1027 <__code_start__-0x6fd9>
    1128:	02054a09 	andeq	r4, r5, #36864	; 0x9000
    112c:	03050533 	movweq	r0, #21811	; 0x5533
    1130:	02052e72 	andeq	r2, r5, #1824	; 0x720
    1134:	01062f06 	tsteq	r6, r6, lsl #30
    1138:	16060e05 	strne	r0, [r6], -r5, lsl #28
    113c:	13140205 	tstne	r4, #1342177280	; 0x50000000
    1140:	05130305 	ldreq	r0, [r3, #-773]	; 0xfffffcfb
    1144:	05151402 	ldreq	r1, [r5, #-1026]	; 0xfffffbfe
    1148:	0205010b 	andeq	r0, r5, #-1073741822	; 0xc0000002
    114c:	662e0106 	strtvs	r0, [lr], -r6, lsl #2
    1150:	2f060305 	svccs	0x00060305
    1154:	01060a05 	tsteq	r6, r5, lsl #20
    1158:	052d0205 	streq	r0, [sp, #-517]!	; 0xfffffdfb
    115c:	17052f0a 	strne	r2, [r5, -sl, lsl #30]
    1160:	0b052d06 	bleq	14c580 <__bss_end__+0x142b00>
    1164:	06020501 	streq	r0, [r2], -r1, lsl #10
    1168:	054a4a01 	strbeq	r4, [sl, #-2561]	; 0xfffff5ff
    116c:	95030605 	strls	r0, [r3, #-1541]	; 0xfffff9fb
    1170:	11050101 	tstne	r5, r1, lsl #2
    1174:	7ef80306 	cdpvc	3, 15, cr0, cr8, cr6, {0}
    1178:	031b0501 	tsteq	fp, #4194304	; 0x400000
    117c:	054a0188 	strbeq	r0, [sl, #-392]	; 0xfffffe78
    1180:	f3030601 	vmax.u8	d0, d3, d1
    1184:	02052e7e 	andeq	r2, r5, #2016	; 0x7e0
    1188:	14131514 	ldrne	r1, [r3], #-1300	; 0xfffffaec
    118c:	22031905 	andcs	r1, r3, #81920	; 0x14000
    1190:	131a0501 	tstne	sl, #4194304	; 0x400000
    1194:	01062805 	tsteq	r6, r5, lsl #16
    1198:	052e1f05 	streq	r1, [lr, #-3845]!	; 0xfffff0fb
    119c:	0e052f04 	cdpeq	15, 0, cr2, cr5, cr4, {0}
    11a0:	2d1f054a 	cfldr32cs	mvfx0, [pc, #-296]	; 1080 <__code_start__-0x6f80>
    11a4:	2f060b05 	svccs	0x00060b05
    11a8:	01060405 	tsteq	r6, r5, lsl #8
    11ac:	05013206 	streq	r3, [r1, #-518]	; 0xfffffdfa
    11b0:	0e051502 	cfsh32eq	mvfx1, mvfx5, #2
    11b4:	017fb203 	cmneq	pc, r3, lsl #4
    11b8:	05130205 	ldreq	r0, [r3, #-517]	; 0xfffffdfb
    11bc:	05010606 	streq	r0, [r1, #-1542]	; 0xfffff9fa
    11c0:	05300602 	ldreq	r0, [r0, #-1538]!	; 0xfffff9fe
    11c4:	02050108 	andeq	r0, r5, #2
    11c8:	03050106 	movweq	r0, #20742	; 0x5106
    11cc:	05210806 	streq	r0, [r1, #-2054]!	; 0xfffff7fa
    11d0:	05010608 	streq	r0, [r1, #-1544]	; 0xfffff9f8
    11d4:	05490615 	strbeq	r0, [r9, #-1557]	; 0xfffff9eb
    11d8:	03050108 	movweq	r0, #20744	; 0x5108
    11dc:	060805d7 			; <UNDEFINED> instruction: 0x060805d7
    11e0:	2d180501 	cfldr32cs	mvfx0, [r8, #-4]
    11e4:	052e0205 	streq	r0, [lr, #-517]!	; 0xfffffdfb
    11e8:	15052f08 	strne	r2, [r5, #-3848]	; 0xfffff0f8
    11ec:	08052d06 	stmdaeq	r5, {r1, r2, r8, sl, fp, sp}
    11f0:	06020501 	streq	r0, [r2], -r1, lsl #10
    11f4:	06030501 	streq	r0, [r3], -r1, lsl #10
    11f8:	0618052f 	ldreq	r0, [r8], -pc, lsr #10
    11fc:	2e020511 	mcrcs	5, 0, r0, cr2, cr1, {0}
    1200:	052f0805 	streq	r0, [pc, #-2053]!	; a03 <__code_start__-0x75fd>
    1204:	052d0615 	streq	r0, [sp, #-1557]!	; 0xfffff9eb
    1208:	03050108 	movweq	r0, #20744	; 0x5108
    120c:	06080513 			; <UNDEFINED> instruction: 0x06080513
    1210:	06150501 	ldreq	r0, [r5], -r1, lsl #10
    1214:	0108052d 	tsteq	r8, sp, lsr #10
    1218:	14060505 	strne	r0, [r6], #-1285	; 0xfffffafb
    121c:	66060205 	strvs	r0, [r6], -r5, lsl #4
    1220:	1a060405 	bne	18223c <__bss_end__+0x1787bc>
    1224:	78030505 	stmdavc	r3, {r0, r2, r8, sl}
    1228:	0602054a 	streq	r0, [r2], -sl, asr #10
    122c:	0501062f 	streq	r0, [r1, #-1583]	; 0xfffff9d1
    1230:	0516060e 	ldreq	r0, [r6, #-1550]	; 0xfffff9f2
    1234:	05131402 	ldreq	r1, [r3, #-1026]	; 0xfffffbfe
    1238:	05010604 	streq	r0, [r1, #-1540]	; 0xfffff9fc
    123c:	052f0603 	streq	r0, [pc, #-1539]!	; c41 <__code_start__-0x73bf>
    1240:	05010611 	streq	r0, [r1, #-1553]	; 0xfffff9ef
    1244:	02052e09 	andeq	r2, r5, #144	; 0x90
    1248:	05153006 	ldreq	r3, [r5, #-6]
    124c:	0205010b 	andeq	r0, r5, #-1073741822	; 0xc0000002
    1250:	4a4a0106 	bmi	1281670 <__bss_end__+0x1277bf0>
    1254:	0603052e 	streq	r0, [r3], -lr, lsr #10
    1258:	060a052f 	streq	r0, [sl], -pc, lsr #10
    125c:	2d020501 	cfstr32cs	mvfx0, [r2, #-4]
    1260:	052f0a05 	streq	r0, [pc, #-2565]!	; 863 <__code_start__-0x779d>
    1264:	052d0617 	streq	r0, [sp, #-1559]!	; 0xfffff9e9
    1268:	0205010b 	andeq	r0, r5, #-1073741822	; 0xc0000002
    126c:	2e4a0106 	dvfcse	f0, f2, f6
    1270:	09051406 	stmdbeq	r5, {r1, r2, sl, ip}
    1274:	02050106 	andeq	r0, r5, #-2147483647	; 0x80000001
    1278:	01064c06 	tsteq	r6, r6, lsl #24
    127c:	03060505 	movweq	r0, #25861	; 0x6505
    1280:	2a010198 	bcs	418e8 <__bss_end__+0x37e68>
    1284:	01060705 	tsteq	r6, r5, lsl #14
    1288:	2f060505 	svccs	0x00060505
    128c:	53031805 	movwpl	r1, #14341	; 0x3805
    1290:	061b052e 	ldreq	r0, [fp], -lr, lsr #10
    1294:	821a0501 	andshi	r0, sl, #4194304	; 0x400000
    1298:	4b060905 	blmi	1836b4 <__bss_end__+0x179c34>
    129c:	01060d05 	tsteq	r6, r5, lsl #26
    12a0:	d709052e 	strle	r0, [r9, -lr, lsr #10]
    12a4:	059d0d05 	ldreq	r0, [sp, #3333]	; 0xd05
    12a8:	052f0609 	streq	r0, [pc, #-1545]!	; ca7 <__code_start__-0x7359>
    12ac:	18053015 	stmdane	r5, {r0, r2, r4, ip, sp}
    12b0:	17050106 	strne	r0, [r5, -r6, lsl #2]
    12b4:	2f190566 	svccs	0x00190566
    12b8:	05491705 	strbeq	r1, [r9, #-1797]	; 0xfffff8fb
    12bc:	052f0619 	streq	r0, [pc, #-1561]!	; cab <__code_start__-0x7355>
    12c0:	6f030615 	svcvs	0x00030615
    12c4:	0619052e 	ldreq	r0, [r9], -lr, lsr #10
    12c8:	054a1303 	strbeq	r1, [sl, #-771]	; 0xfffffcfd
    12cc:	6d030615 	stcvs	6, cr0, [r3, #-84]	; 0xffffffac
    12d0:	02054a2e 	andeq	r4, r5, #188416	; 0x2e000
    12d4:	017fa003 	cmneq	pc, r3
    12d8:	72030666 	andvc	r0, r3, #106954752	; 0x6600000
    12dc:	06050501 	streq	r0, [r5], -r1, lsl #10
    12e0:	36040501 	strcc	r0, [r4], -r1, lsl #10
    12e4:	78030505 	stmdavc	r3, {r0, r2, r8, sl}
    12e8:	0602052e 	streq	r0, [r2], -lr, lsr #10
    12ec:	0501062f 	streq	r0, [r1, #-1583]	; 0xfffff9d1
    12f0:	0516060e 	ldreq	r0, [r6, #-1550]	; 0xfffff9f2
    12f4:	05131402 	ldreq	r1, [r3, #-1026]	; 0xfffffbfe
    12f8:	4a010604 	bmi	42b10 <__bss_end__+0x39090>
    12fc:	03060205 	movweq	r0, #25093	; 0x6205
    1300:	05050178 	streq	r0, [r5, #-376]	; 0xfffffe88
    1304:	054a0106 	strbeq	r0, [sl, #-262]	; 0xfffffefa
    1308:	064b0602 	strbeq	r0, [fp], -r2, lsl #12
    130c:	060e0501 	streq	r0, [lr], -r1, lsl #10
    1310:	14020516 	strne	r0, [r2], #-1302	; 0xfffffaea
    1314:	05151513 	ldreq	r1, [r5, #-1299]	; 0xfffffaed
    1318:	2e06010b 	adfcss	f0, f6, #3.0
    131c:	03061105 	movweq	r1, #24837	; 0x6105
    1320:	0501019e 	streq	r0, [r1, #-414]	; 0xfffffe62
    1324:	05010622 	streq	r0, [r1, #-1570]	; 0xfffff9de
    1328:	22052f05 	andcs	r2, r5, #5, 30
    132c:	0605052d 	streq	r0, [r5], -sp, lsr #10
    1330:	4b11052f 	blmi	4427f4 <__bss_end__+0x438d74>
    1334:	01830505 	orreq	r0, r3, r5, lsl #10
    1338:	2e5c039e 	mrccs	3, 2, r0, cr12, cr14, {4}
    133c:	02059e01 	andeq	r9, r5, #1, 28
    1340:	7ef30306 	cdpvc	3, 15, cr0, cr3, cr6, {0}
    1344:	06052e2e 	streq	r2, [r5], -lr, lsr #28
    1348:	0d054a2c 	vstreq	s8, [r5, #-176]	; 0xffffff50
    134c:	0100d803 	tsteq	r0, r3, lsl #16
    1350:	02000405 	andeq	r0, r0, #83886080	; 0x5000000
    1354:	03060104 	movweq	r0, #24836	; 0x6104
    1358:	02004a11 	andeq	r4, r0, #69632	; 0x11000
    135c:	05010104 	streq	r0, [r1, #-260]	; 0xfffffefc
    1360:	06510611 			; <UNDEFINED> instruction: 0x06510611
    1364:	0315059e 	tsteq	r5, #662700032	; 0x27800000
    1368:	ba012e17 	blt	4cbcc <__bss_end__+0x4314c>
    136c:	69031105 	stmdbvs	r3, {r0, r2, r8, ip}
    1370:	2802012e 	stmdacs	r2, {r1, r2, r3, r5, r8}
    1374:	a0010100 	andge	r0, r1, r0, lsl #2
    1378:	03000000 	movweq	r0, #0
    137c:	00005d00 	andeq	r5, r0, r0, lsl #26
    1380:	fb010200 	blx	41b8a <__bss_end__+0x3810a>
    1384:	01000d0e 	tsteq	r0, lr, lsl #26
    1388:	00010101 	andeq	r0, r1, r1, lsl #2
    138c:	00010000 	andeq	r0, r1, r0
    1390:	2f2e0100 	svccs	0x002e0100
    1394:	66617473 			; <UNDEFINED> instruction: 0x66617473
    1398:	72732d66 	rsbsvc	r2, r3, #6528	; 0x1980
    139c:	552f0063 	strpl	r0, [pc, #-99]!	; 1341 <__code_start__-0x6cbf>
    13a0:	73726573 	cmnvc	r2, #482344960	; 0x1cc00000
    13a4:	6c696d2f 	stclvs	13, cr6, [r9], #-188	; 0xffffff44
    13a8:	532f7365 			; <UNDEFINED> instruction: 0x532f7365
    13ac:	6372756f 	cmnvs	r2, #465567744	; 0x1bc00000
    13b0:	73632f65 	cmnvc	r3, #404	; 0x194
    13b4:	6c303432 	cfldrsvs	mvf3, [r0], #-200	; 0xffffff38
    13b8:	696c2f78 	stmdbvs	ip!, {r3, r4, r5, r6, r8, r9, sl, fp, sp}^
    13bc:	2f697062 	svccs	0x00697062
    13c0:	6c636e69 	stclvs	14, cr6, [r3], #-420	; 0xfffffe5c
    13c4:	00656475 	rsbeq	r6, r5, r5, ror r4
    13c8:	63616300 	cmnvs	r1, #0, 6
    13cc:	632e6568 			; <UNDEFINED> instruction: 0x632e6568
    13d0:	00000100 	andeq	r0, r0, r0, lsl #2
    13d4:	2e697072 	mcrcs	0, 3, r7, cr9, cr2, {3}
    13d8:	00020068 	andeq	r0, r2, r8, rrx
    13dc:	19050000 	stmdbne	r5, {}	; <UNPREDICTABLE>
    13e0:	d4020500 	strle	r0, [r2], #-1280	; 0xfffffb00
    13e4:	1400008e 	strne	r0, [r0], #-142	; 0xffffff72
    13e8:	13130505 	tstne	r3, #20971520	; 0x1400000
    13ec:	132f0205 			; <UNDEFINED> instruction: 0x132f0205
    13f0:	05130505 	ldreq	r0, [r3, #-1285]	; 0xfffffafb
    13f4:	05110604 	ldreq	r0, [r1, #-1540]	; 0xfffff9fc
    13f8:	01052f05 	tsteq	r5, r5, lsl #30
    13fc:	061a052f 	ldreq	r0, [sl], -pc, lsr #10
    1400:	13050531 	movwne	r0, #21809	; 0x5531
    1404:	30020513 	andcc	r0, r2, r3, lsl r5
    1408:	13050513 	movwne	r0, #21779	; 0x5513
    140c:	11060405 	tstne	r6, r5, lsl #8
    1410:	052f0505 	streq	r0, [pc, #-1285]!	; f13 <__code_start__-0x70ed>
    1414:	02022f01 	andeq	r2, r2, #1, 30
    1418:	87010100 	strhi	r0, [r1, -r0, lsl #2]
    141c:	03000000 	movweq	r0, #0
    1420:	00006400 	andeq	r6, r0, r0, lsl #8
    1424:	fb010200 	blx	41c2e <__bss_end__+0x381ae>
    1428:	01000d0e 	tsteq	r0, lr, lsl #26
    142c:	00010101 	andeq	r0, r1, r1, lsl #2
    1430:	00010000 	andeq	r0, r1, r0
    1434:	2f2e0100 	svccs	0x002e0100
    1438:	66617473 			; <UNDEFINED> instruction: 0x66617473
    143c:	72732d66 	rsbsvc	r2, r3, #6528	; 0x1980
    1440:	552f0063 	strpl	r0, [pc, #-99]!	; 13e5 <__code_start__-0x6c1b>
    1444:	73726573 	cmnvc	r2, #482344960	; 0x1cc00000
    1448:	6c696d2f 	stclvs	13, cr6, [r9], #-188	; 0xffffff44
    144c:	532f7365 			; <UNDEFINED> instruction: 0x532f7365
    1450:	6372756f 	cmnvs	r2, #465567744	; 0x1bc00000
    1454:	73632f65 	cmnvc	r3, #404	; 0x194
    1458:	6c303432 	cfldrsvs	mvf3, [r0], #-200	; 0xffffff38
    145c:	696c2f78 	stmdbvs	ip!, {r3, r4, r5, r6, r8, r9, sl, fp, sp}^
    1460:	2f697062 	svccs	0x00697062
    1464:	6c636e69 	stclvs	14, cr6, [r3], #-420	; 0xfffffe5c
    1468:	00656475 	rsbeq	r6, r5, r5, ror r4
    146c:	656c6300 	strbvs	r6, [ip, #-768]!	; 0xfffffd00
    1470:	722d6e61 	eorvc	r6, sp, #1552	; 0x610
    1474:	6f6f6265 	svcvs	0x006f6265
    1478:	00632e74 	rsbeq	r2, r3, r4, ror lr
    147c:	72000001 	andvc	r0, r0, #1, 0
    1480:	682e6970 	stmdavs	lr!, {r4, r5, r6, r8, fp, sp, lr}
    1484:	00000200 	andeq	r0, r0, r0, lsl #4
    1488:	00190500 	andseq	r0, r9, r0, lsl #10
    148c:	8ef40205 	cdphi	2, 15, cr0, cr4, cr5, {0}
    1490:	05150000 	ldreq	r0, [r5, #-0]
    1494:	19051305 	stmdbne	r5, {r0, r2, r8, r9, ip}
    1498:	05052d06 	streq	r2, [r5, #-3334]	; 0xfffff2fa
    149c:	2f67062f 	svccs	0x0067062f
    14a0:	0006024b 	andeq	r0, r6, fp, asr #4
    14a4:	01120101 	tsteq	r2, r1, lsl #2
    14a8:	00030000 	andeq	r0, r3, r0
    14ac:	0000005e 	andeq	r0, r0, lr, asr r0
    14b0:	0efb0102 	cdpeq	1, 15, cr0, cr11, cr2, {0}
    14b4:	0101000d 	tsteq	r1, sp
    14b8:	00000101 	andeq	r0, r0, r1, lsl #2
    14bc:	00000100 	andeq	r0, r0, r0, lsl #2
    14c0:	732f2e01 			; <UNDEFINED> instruction: 0x732f2e01
    14c4:	66666174 			; <UNDEFINED> instruction: 0x66666174
    14c8:	6372732d 	cmnvs	r2, #-1275068416	; 0xb4000000
    14cc:	73552f00 	cmpvc	r5, #0, 30
    14d0:	2f737265 	svccs	0x00737265
    14d4:	656c696d 	strbvs	r6, [ip, #-2413]!	; 0xfffff693
    14d8:	6f532f73 	svcvs	0x00532f73
    14dc:	65637275 	strbvs	r7, [r3, #-629]!	; 0xfffffd8b
    14e0:	3273632f 	rsbscc	r6, r3, #-1140850688	; 0xbc000000
    14e4:	786c3034 	stmdavc	ip!, {r2, r4, r5, ip, sp}^
    14e8:	62696c2f 	rsbvs	r6, r9, #12032	; 0x2f00
    14ec:	692f6970 	stmdbvs	pc!, {r4, r5, r6, r8, fp, sp, lr}	; <UNPREDICTABLE>
    14f0:	756c636e 	strbvc	r6, [ip, #-878]!	; 0xfffffc92
    14f4:	00006564 	andeq	r6, r0, r4, ror #10
    14f8:	61747363 	cmnvs	r4, r3, ror #6
    14fc:	632e7472 			; <UNDEFINED> instruction: 0x632e7472
    1500:	00000100 	andeq	r0, r0, r0, lsl #2
    1504:	2e697072 	mcrcs	0, 3, r7, cr9, cr2, {3}
    1508:	00020068 	andeq	r0, r2, r8, rrx
    150c:	10050000 	andne	r0, r5, r0
    1510:	20020500 	andcs	r0, r2, r0, lsl #10
    1514:	1500008f 	strne	r0, [r0, #-143]	; 0xffffff71
    1518:	05130505 	ldreq	r0, [r3, #-1285]	; 0xfffffafb
    151c:	05051302 	streq	r1, [r5, #-770]	; 0xfffffcfe
    1520:	06100514 			; <UNDEFINED> instruction: 0x06100514
    1524:	3205050e 	andcc	r0, r5, #58720256	; 0x3800000
    1528:	14133006 	ldrne	r3, [r3], #-6
    152c:	05010a05 	streq	r0, [r1, #-2565]	; 0xfffff5fb
    1530:	05910809 	ldreq	r0, [r1, #2057]	; 0x809
    1534:	05010610 	streq	r0, [r1, #-1552]	; 0xfffff9f0
    1538:	10059a0a 	andne	r9, r5, sl, lsl #20
    153c:	060a056a 	streq	r0, [sl], -sl, ror #10
    1540:	2f09052d 	svccs	0x0009052d
    1544:	01061005 	tsteq	r6, r5
    1548:	2d060a05 	vstrcs	s0, [r6, #-20]	; 0xffffffec
    154c:	05bb0905 	ldreq	r0, [fp, #2309]!	; 0x905
    1550:	05010610 	streq	r0, [r1, #-1552]	; 0xfffff9f0
    1554:	0565060a 	strbeq	r0, [r5, #-1546]!	; 0xfffff9f6
    1558:	0d054b09 	vstreq	d4, [r5, #-36]	; 0xffffffdc
    155c:	0a050106 	beq	14197c <__bss_end__+0x137efc>
    1560:	2f10052d 	svccs	0x0010052d
    1564:	2d060a05 	vstrcs	s0, [r6, #-20]	; 0xffffffec
    1568:	052f0905 	streq	r0, [pc, #-2309]!	; c6b <__code_start__-0x7395>
    156c:	0501060d 	streq	r0, [r1, #-1549]	; 0xfffff9f3
    1570:	10052d0a 	andne	r2, r5, sl, lsl #26
    1574:	060a052f 	streq	r0, [sl], -pc, lsr #10
    1578:	2f09052d 	svccs	0x0009052d
    157c:	01060d05 	tsteq	r6, r5, lsl #26
    1580:	052d0a05 	streq	r0, [sp, #-2565]!	; 0xfffff5fb
    1584:	0a052f10 	beq	14d1cc <__bss_end__+0x14374c>
    1588:	09052d06 	stmdbeq	r5, {r1, r2, r8, sl, fp, sp}
    158c:	060d052f 	streq	r0, [sp], -pc, lsr #10
    1590:	2d0a0501 	cfstr32cs	mvfx0, [sl, #-4]
    1594:	052f1005 	streq	r1, [pc, #-5]!	; 1597 <__code_start__-0x6a69>
    1598:	052d060a 	streq	r0, [sp, #-1546]!	; 0xfffff9f6
    159c:	10051309 	andne	r1, r5, r9, lsl #6
    15a0:	0a050106 	beq	1419c0 <__bss_end__+0x137f40>
    15a4:	05052d06 	streq	r2, [r5, #-3334]	; 0xfffff2fa
    15a8:	01013215 	tsteq	r1, r5, lsl r2
    15ac:	0205144a 	andeq	r1, r5, #1241513984	; 0x4a000000
    15b0:	060a052f 	streq	r0, [sl], -pc, lsr #10
    15b4:	022e7303 	eoreq	r7, lr, #201326592	; 0xc000000
    15b8:	01010008 	tsteq	r1, r8
    15bc:	0000007d 	andeq	r0, r0, sp, ror r0
    15c0:	00650003 	rsbeq	r0, r5, r3
    15c4:	01020000 	mrseq	r0, (UNDEF: 2)
    15c8:	000d0efb 	strdeq	r0, [sp], -fp
    15cc:	01010101 	tsteq	r1, r1, lsl #2
    15d0:	01000000 	mrseq	r0, (UNDEF: 0)
    15d4:	2e010000 	cdpcs	0, 0, cr0, cr1, cr0, {0}
    15d8:	6174732f 	cmnvs	r4, pc, lsr #6
    15dc:	732d6666 			; <UNDEFINED> instruction: 0x732d6666
    15e0:	2f006372 	svccs	0x00006372
    15e4:	72657355 	rsbvc	r7, r5, #1409286145	; 0x54000001
    15e8:	696d2f73 	stmdbvs	sp!, {r0, r1, r4, r5, r6, r8, r9, sl, fp, sp}^
    15ec:	2f73656c 	svccs	0x0073656c
    15f0:	72756f53 	rsbsvc	r6, r5, #332	; 0x14c
    15f4:	632f6563 			; <UNDEFINED> instruction: 0x632f6563
    15f8:	30343273 	eorscc	r3, r4, r3, ror r2
    15fc:	6c2f786c 	stcvs	8, cr7, [pc], #-432	; 1454 <__code_start__-0x6bac>
    1600:	69706269 	ldmdbvs	r0!, {r0, r3, r5, r6, r9, sp, lr}^
    1604:	636e692f 	cmnvs	lr, #770048	; 0xbc000
    1608:	6564756c 	strbvs	r7, [r4, #-1388]!	; 0xfffffa94
    160c:	75630000 	strbvc	r0, [r3, #-0]!
    1610:	6d6f7473 	cfstrdvs	mvd7, [pc, #-460]!	; 144c <__code_start__-0x6bb4>
    1614:	616f6c2d 	cmnvs	pc, sp, lsr #24
    1618:	2e726564 	cdpcs	5, 7, cr6, cr2, cr4, {3}
    161c:	00010063 	andeq	r0, r1, r3, rrx
    1620:	69707200 	ldmdbvs	r0!, {r9, ip, sp, lr}^
    1624:	0200682e 	andeq	r6, r0, #3014656	; 0x2e0000
    1628:	05000000 	streq	r0, [r0, #-0]
    162c:	0205001a 	andeq	r0, r5, #26, 0
    1630:	00009018 	andeq	r9, r0, r8, lsl r0
    1634:	14010515 	strne	r0, [r1], #-1301	; 0xfffffaeb
    1638:	01000202 	tsteq	r0, r2, lsl #4
    163c:	00011401 	andeq	r1, r1, r1, lsl #8
    1640:	5e000300 	cdppl	3, 0, cr0, cr0, cr0, {0}
    1644:	02000000 	andeq	r0, r0, #0, 0
    1648:	0d0efb01 	vstreq	d15, [lr, #-4]
    164c:	01010100 	mrseq	r0, (UNDEF: 17)
    1650:	00000001 	andeq	r0, r0, r1
    1654:	01000001 	tsteq	r0, r1
    1658:	74732f2e 	ldrbtvc	r2, [r3], #-3886	; 0xfffff0d2
    165c:	2d666661 	stclcs	6, cr6, [r6, #-388]!	; 0xfffffe7c
    1660:	00637273 	rsbeq	r7, r3, r3, ror r2
    1664:	6573552f 	ldrbvs	r5, [r3, #-1327]!	; 0xfffffad1
    1668:	6d2f7372 	stcvs	3, cr7, [pc, #-456]!	; 14a8 <__code_start__-0x6b58>
    166c:	73656c69 	cmnvc	r5, #26880	; 0x6900
    1670:	756f532f 	strbvc	r5, [pc, #-815]!	; 1349 <__code_start__-0x6cb7>
    1674:	2f656372 	svccs	0x00656372
    1678:	34327363 	ldrtcc	r7, [r2], #-867	; 0xfffffc9d
    167c:	2f786c30 	svccs	0x00786c30
    1680:	7062696c 	rsbvc	r6, r2, ip, ror #18
    1684:	6e692f69 	cdpvs	15, 6, cr2, cr9, cr9, {3}
    1688:	64756c63 	ldrbtvs	r6, [r5], #-3171	; 0xfffff39d
    168c:	72000065 	andvc	r0, r0, #101, 0	; 0x65
    1690:	6f6f6265 	svcvs	0x006f6265
    1694:	00632e74 	rsbeq	r2, r3, r4, ror lr
    1698:	72000001 	andvc	r0, r0, #1, 0
    169c:	682e6970 	stmdavs	lr!, {r4, r5, r6, r8, fp, sp, lr}
    16a0:	00000200 	andeq	r0, r0, r0, lsl #4
    16a4:	00190500 	andseq	r0, r9, r0, lsl #10
    16a8:	901c0205 	andsls	r0, ip, r5, lsl #4
    16ac:	0d030000 	stceq	0, cr0, [r3, #-0]
    16b0:	13050501 	movwne	r0, #21761	; 0x5501
    16b4:	13053113 	movwne	r3, #20755	; 0x5113
    16b8:	01050106 	tsteq	r5, r6, lsl #2
    16bc:	061b052f 	ldreq	r0, [fp], -pc, lsr #10
    16c0:	13050585 	movwne	r0, #21893	; 0x5585
    16c4:	2f090514 	svccs	0x00090514
    16c8:	01061605 	tsteq	r6, r5, lsl #12
    16cc:	2f060505 	svccs	0x00060505
    16d0:	11060e05 	tstne	r6, r5, lsl #28
    16d4:	052f0505 	streq	r0, [pc, #-1285]!	; 11d7 <__code_start__-0x6e29>
    16d8:	17052f01 	strne	r2, [r5, -r1, lsl #30]
    16dc:	05053006 	streq	r3, [r5, #-6]
    16e0:	016e0313 	cmneq	lr, r3, lsl r3
    16e4:	17051313 	smladne	r5, r3, r3, r1
    16e8:	010f0306 	tsteq	pc, r6, lsl #6
    16ec:	71030505 	tstvc	r3, r5, lsl #10
    16f0:	0531062e 	ldreq	r0, [r1, #-1582]!	; 0xfffff9d2
    16f4:	05010613 	streq	r0, [r1, #-1555]	; 0xfffff9ed
    16f8:	2e0d0307 	cdpcs	3, 0, cr0, cr13, cr7, {0}
    16fc:	4b060905 	blmi	183b18 <__bss_end__+0x17a098>
    1700:	76030605 	strvc	r0, [r3], -r5, lsl #12
    1704:	13050501 	movwne	r0, #21761	; 0x5501
    1708:	2f090514 	svccs	0x00090514
    170c:	01061605 	tsteq	r6, r5, lsl #12
    1710:	2f060505 	svccs	0x00060505
    1714:	11060e05 	tstne	r6, r5, lsl #28
    1718:	2e2f0505 	cfsh64cs	mvdx0, mvdx15, #5
    171c:	010a0306 	tsteq	sl, r6, lsl #6
    1720:	134d2f30 	movtne	r2, #57136	; 0xdf30
    1724:	67151313 			; <UNDEFINED> instruction: 0x67151313
    1728:	01040200 	mrseq	r0, R12_usr
    172c:	000d0567 	andeq	r0, sp, r7, ror #10
    1730:	01010402 	tsteq	r1, r2, lsl #8
    1734:	02000a05 	andeq	r0, r0, #20480	; 0x5000
    1738:	05010104 	streq	r0, [r1, #-260]	; 0xfffffefc
    173c:	04020005 	streq	r0, [r2], #-5
    1740:	0d050101 	stfeqs	f0, [r5, #-4]
    1744:	01040200 	mrseq	r0, R12_usr
    1748:	000a0501 	andeq	r0, sl, r1, lsl #10
    174c:	01010402 	tsteq	r1, r2, lsl #8
    1750:	01000a02 	tsteq	r0, r2, lsl #20
    1754:	0001fa01 	andeq	pc, r1, r1, lsl #20
    1758:	5d000300 	stcpl	3, cr0, [r0, #-0]
    175c:	02000000 	andeq	r0, r0, #0, 0
    1760:	0d0efb01 	vstreq	d15, [lr, #-4]
    1764:	01010100 	mrseq	r0, (UNDEF: 17)
    1768:	00000001 	andeq	r0, r0, r1
    176c:	01000001 	tsteq	r0, r1
    1770:	74732f2e 	ldrbtvc	r2, [r3], #-3886	; 0xfffff0d2
    1774:	2d666661 	stclcs	6, cr6, [r6, #-388]!	; 0xfffffe7c
    1778:	00637273 	rsbeq	r7, r3, r3, ror r2
    177c:	6573552f 	ldrbvs	r5, [r3, #-1327]!	; 0xfffffad1
    1780:	6d2f7372 	stcvs	3, cr7, [pc, #-456]!	; 15c0 <__code_start__-0x6a40>
    1784:	73656c69 	cmnvc	r5, #26880	; 0x6900
    1788:	756f532f 	strbvc	r5, [pc, #-815]!	; 1461 <__code_start__-0x6b9f>
    178c:	2f656372 	svccs	0x00656372
    1790:	34327363 	ldrtcc	r7, [r2], #-867	; 0xfffffc9d
    1794:	2f786c30 	svccs	0x00786c30
    1798:	7062696c 	rsbvc	r6, r2, ip, ror #18
    179c:	6e692f69 	cdpvs	15, 6, cr2, cr9, cr9, {3}
    17a0:	64756c63 	ldrbtvs	r6, [r5], #-3171	; 0xfffff39d
    17a4:	74000065 	strvc	r0, [r0], #-101	; 0xffffff9b
    17a8:	72656d69 	rsbvc	r6, r5, #6720	; 0x1a40
    17ac:	0100632e 	tsteq	r0, lr, lsr #6
    17b0:	70720000 	rsbsvc	r0, r2, r0
    17b4:	00682e69 	rsbeq	r2, r8, r9, ror #28
    17b8:	00000002 	andeq	r0, r0, r2
    17bc:	05002305 	streq	r2, [r0, #-773]	; 0xfffffcfb
    17c0:	0090a802 	addseq	sl, r0, r2, lsl #16
    17c4:	05051500 	streq	r1, [r5, #-1280]	; 0xfffffb00
    17c8:	060c0513 			; <UNDEFINED> instruction: 0x060c0513
    17cc:	061f0501 	ldreq	r0, [pc], -r1, lsl #10
    17d0:	1505056a 	strne	r0, [r5, #-1386]	; 0xfffffa96
    17d4:	0f061f05 	svceq	0x00061f05
    17d8:	06310505 	ldrteq	r0, [r1], -r5, lsl #10
    17dc:	030a052f 	movweq	r0, #42287	; 0xa52f
    17e0:	05050177 	streq	r0, [r5, #-375]	; 0xfffffe89
    17e4:	060c0513 			; <UNDEFINED> instruction: 0x060c0513
    17e8:	05056601 	streq	r6, [r5, #-1537]	; 0xfffff9ff
    17ec:	01090306 	tsteq	r9, r6, lsl #6
    17f0:	0601052f 	streq	r0, [r1], -pc, lsr #10
    17f4:	061c0513 			; <UNDEFINED> instruction: 0x061c0513
    17f8:	13050568 	movwne	r0, #21864	; 0x5568
    17fc:	76030a05 	strvc	r0, [r3], -r5, lsl #20
    1800:	15050501 	strne	r0, [r5, #-1281]	; 0xfffffaff
    1804:	18061c05 	stmdane	r6, {r0, r2, sl, fp, ip}
    1808:	0305052e 	movweq	r0, #21806	; 0x552e
    180c:	2f062e7a 	svccs	0x00062e7a
    1810:	77030a05 	strvc	r0, [r3, -r5, lsl #20]
    1814:	13050501 	movwne	r0, #21761	; 0x5501
    1818:	01060c05 	tsteq	r6, r5, lsl #24
    181c:	06050566 	streq	r0, [r5], -r6, ror #10
    1820:	2f010903 	svccs	0x00010903
    1824:	0c050106 	stfeqs	f0, [r5], {6}
    1828:	05017603 	streq	r7, [r1, #-1539]	; 0xfffff9fd
    182c:	0f030605 	svceq	0x00030605
    1830:	1309052e 	movwne	r0, #38190	; 0x952e
    1834:	74030a05 	strvc	r0, [r3], #-2565	; 0xfffff5fb
    1838:	15050501 	strne	r0, [r5, #-1281]	; 0xfffffaff
    183c:	030a052f 	movweq	r0, #42287	; 0xa52f
    1840:	05050177 	streq	r0, [r5, #-375]	; 0xfffffe89
    1844:	060c0513 			; <UNDEFINED> instruction: 0x060c0513
    1848:	05056601 	streq	r6, [r5, #-1537]	; 0xfffff9ff
    184c:	01090306 	tsteq	r9, r6, lsl #6
    1850:	1a061105 	bne	185c6c <__bss_end__+0x17c1ec>
    1854:	78030505 	stmdavc	r3, {r0, r2, r8, sl}
    1858:	052f062e 	streq	r0, [pc, #-1582]!	; 1232 <__code_start__-0x6dce>
    185c:	0c051909 			; <UNDEFINED> instruction: 0x0c051909
    1860:	1c050106 	stfnes	f0, [r5], {6}
    1864:	05058706 	streq	r8, [r5, #-1798]	; 0xfffff8fa
    1868:	061c0513 			; <UNDEFINED> instruction: 0x061c0513
    186c:	2f050511 	svccs	0x00050511
    1870:	0606054a 	streq	r0, [r6], -sl, asr #10
    1874:	052e7603 	streq	r7, [lr, #-1539]!	; 0xfffff9fd
    1878:	0a051305 	beq	146494 <__bss_end__+0x13ca14>
    187c:	05017603 	streq	r7, [r1, #-1539]	; 0xfffff9fd
    1880:	052f1505 	streq	r1, [pc, #-1285]!	; 1383 <__code_start__-0x6c7d>
    1884:	0177030a 	cmneq	r7, sl, lsl #6
    1888:	05130505 	ldreq	r0, [r3, #-1285]	; 0xfffffafb
    188c:	6601060c 	strvs	r0, [r1], -ip, lsl #12
    1890:	03060505 	movweq	r0, #25861	; 0x6505
    1894:	062f0109 	strteq	r0, [pc], -r9, lsl #2
    1898:	030c0501 	movweq	r0, #50433	; 0xc501
    189c:	05050176 	streq	r0, [r5, #-374]	; 0xfffffe8a
    18a0:	2e0f0306 	cdpcs	3, 0, cr0, cr15, cr6, {0}
    18a4:	05130905 	ldreq	r0, [r3, #-2309]	; 0xfffff6fb
    18a8:	0174030a 	cmneq	r4, sl, lsl #6
    18ac:	2f150505 	svccs	0x00150505
    18b0:	77030a05 	strvc	r0, [r3, -r5, lsl #20]
    18b4:	13050501 	movwne	r0, #21761	; 0x5501
    18b8:	01060c05 	tsteq	r6, r5, lsl #24
    18bc:	06050566 	streq	r0, [r5], -r6, ror #10
    18c0:	05010903 	streq	r0, [r1, #-2307]	; 0xfffff6fd
    18c4:	051a0611 	ldreq	r0, [sl, #-1553]	; 0xfffff9ef
    18c8:	2e780305 	cdpcs	3, 7, cr0, cr8, cr5, {0}
    18cc:	09052f06 	stmdbeq	r5, {r1, r2, r8, r9, sl, fp, sp}
    18d0:	060c0519 			; <UNDEFINED> instruction: 0x060c0519
    18d4:	061e0501 	ldreq	r0, [lr], -r1, lsl #10
    18d8:	1305058a 	movwne	r0, #21898	; 0x558a
    18dc:	050e0605 	streq	r0, [lr, #-1541]	; 0xfffff9fb
    18e0:	1e051305 	cdpne	3, 0, cr1, cr5, cr5, {0}
    18e4:	05051406 	streq	r1, [r5, #-1030]	; 0xfffffbfa
    18e8:	0605662c 	streq	r6, [r5], -ip, lsr #12
    18ec:	2e760306 	cdpcs	3, 7, cr0, cr6, cr6, {0}
    18f0:	05130505 	ldreq	r0, [r3, #-1285]	; 0xfffffafb
    18f4:	0176030a 	cmneq	r6, sl, lsl #6
    18f8:	2f150505 	svccs	0x00150505
    18fc:	77030a05 	strvc	r0, [r3, -r5, lsl #20]
    1900:	13050501 	movwne	r0, #21761	; 0x5501
    1904:	01060c05 	tsteq	r6, r5, lsl #24
    1908:	06050566 	streq	r0, [r5], -r6, ror #10
    190c:	2f010903 	svccs	0x00010903
    1910:	0c050106 	stfeqs	f0, [r5], {6}
    1914:	05017603 	streq	r7, [r1, #-1539]	; 0xfffff9fd
    1918:	0f030605 	svceq	0x00030605
    191c:	1309052e 	movwne	r0, #38190	; 0x952e
    1920:	74030a05 	strvc	r0, [r3], #-2565	; 0xfffff5fb
    1924:	15050501 	strne	r0, [r5, #-1281]	; 0xfffffaff
    1928:	030a052f 	movweq	r0, #42287	; 0xa52f
    192c:	05050177 	streq	r0, [r5, #-375]	; 0xfffffe89
    1930:	060c0513 			; <UNDEFINED> instruction: 0x060c0513
    1934:	05056601 	streq	r6, [r5, #-1537]	; 0xfffff9ff
    1938:	01090306 	tsteq	r9, r6, lsl #6
    193c:	1a061105 	bne	185d58 <__bss_end__+0x17c2d8>
    1940:	78030505 	stmdavc	r3, {r0, r2, r8, sl}
    1944:	052f062e 	streq	r0, [pc, #-1582]!	; 131e <__code_start__-0x6ce2>
    1948:	0c051909 			; <UNDEFINED> instruction: 0x0c051909
    194c:	08020106 	stmdaeq	r2, {r1, r2, r8}
    1950:	04010100 	streq	r0, [r1], #-256	; 0xffffff00
    1954:	03000002 	movweq	r0, #2
    1958:	0000c800 	andeq	ip, r0, r0, lsl #16
    195c:	fb010200 	blx	42166 <__bss_end__+0x386e6>
    1960:	01000d0e 	tsteq	r0, lr, lsl #26
    1964:	00010101 	andeq	r0, r1, r1, lsl #2
    1968:	00010000 	andeq	r0, r1, r0
    196c:	682f0100 	stmdavs	pc!, {r8}	; <UNPREDICTABLE>
    1970:	2f656d6f 	svccs	0x00656d6f
    1974:	6c676e65 	stclvs	14, cr6, [r7], #-404	; 0xfffffe6c
    1978:	632f7265 			; <UNDEFINED> instruction: 0x632f7265
    197c:	7373616c 	cmnvc	r3, #27
    1980:	3173632f 	cmncc	r3, pc, lsr #6
    1984:	2d653034 	stclcs	0, cr3, [r5, #-208]!	; 0xffffff30
    1988:	69773232 	ldmdbvs	r7!, {r1, r4, r5, r9, ip, sp}^
    198c:	6c2f2f6e 	stcvs	15, cr2, [pc], #-440	; 17dc <__code_start__-0x6824>
    1990:	69706269 	ldmdbvs	r0!, {r0, r3, r5, r6, r9, sp, lr}^
    1994:	636e692f 	cmnvs	lr, #770048	; 0xbc000
    1998:	6564756c 	strbvs	r7, [r4, #-1388]!	; 0xfffffa94
    199c:	73752f00 	cmnvc	r5, #0, 30
    19a0:	68732f72 	ldmdavs	r3!, {r1, r4, r5, r6, r8, r9, sl, fp, sp}^
    19a4:	2f657261 	svccs	0x00657261
    19a8:	2d636367 	stclcs	3, cr6, [r3, #-412]!	; 0xfffffe64
    19ac:	2d6d7261 	sfmcs	f7, 2, [sp, #-388]!	; 0xfffffe7c
    19b0:	656e6f6e 	strbvs	r6, [lr, #-3950]!	; 0xfffff092
    19b4:	6261652d 	rsbvs	r6, r1, #188743680	; 0xb400000
    19b8:	30312d69 	eorscc	r2, r1, r9, ror #26
    19bc:	322d332e 	eorcc	r3, sp, #-1207959552	; 0xb8000000
    19c0:	2e313230 	mrccs	2, 1, r3, cr1, cr0, {1}
    19c4:	6c2f3031 	stcvs	0, cr3, [pc], #-196	; 1908 <__code_start__-0x66f8>
    19c8:	672f6269 	strvs	r6, [pc, -r9, ror #4]!
    19cc:	612f6363 			; <UNDEFINED> instruction: 0x612f6363
    19d0:	6e2d6d72 	mcrvs	13, 1, r6, cr13, cr2, {3}
    19d4:	2d656e6f 	stclcs	14, cr6, [r5, #-444]!	; 0xfffffe44
    19d8:	69626165 	stmdbvs	r2!, {r0, r2, r5, r6, r8, sp, lr}^
    19dc:	2e30312f 	rsfcssp	f3, f0, #10.0
    19e0:	2f312e33 	svccs	0x00312e33
    19e4:	6c636e69 	stclvs	14, cr6, [r3], #-420	; 0xfffffe5c
    19e8:	00656475 	rsbeq	r6, r5, r5, ror r4
    19ec:	72617500 	rsbvc	r7, r1, #0, 10
    19f0:	00632e74 	rsbeq	r2, r3, r4, ror lr
    19f4:	75000000 	strvc	r0, [r0, #-0]
    19f8:	2e747261 	cdpcs	2, 7, cr7, cr4, cr1, {3}
    19fc:	00010068 	andeq	r0, r1, r8, rrx
    1a00:	69707200 	ldmdbvs	r0!, {r9, ip, sp, lr}^
    1a04:	0100682e 	tsteq	r0, lr, lsr #16
    1a08:	70670000 	rsbvc	r0, r7, r0
    1a0c:	682e6f69 	stmdavs	lr!, {r0, r3, r5, r6, r8, r9, sl, fp, sp, lr}
    1a10:	00000100 	andeq	r0, r0, r0, lsl #2
    1a14:	69647473 	stmdbvs	r4!, {r0, r1, r4, r5, r6, sl, ip, sp, lr}^
    1a18:	672d746e 	strvs	r7, [sp, -lr, ror #8]!
    1a1c:	682e6363 	stmdavs	lr!, {r0, r1, r5, r6, r8, r9, sp, lr}
    1a20:	00000200 	andeq	r0, r0, r0, lsl #4
    1a24:	00390500 	eorseq	r0, r9, r0, lsl #10
    1a28:	91c40205 	bicls	r0, r4, r5, lsl #4
    1a2c:	30030000 	andcc	r0, r3, r0
    1a30:	05010601 	streq	r0, [r1, #-1537]	; 0xfffff9ff
    1a34:	05670605 	strbeq	r0, [r7, #-1541]!	; 0xfffff9fb
    1a38:	05010611 	streq	r0, [r1, #-1553]	; 0xfffff9ef
    1a3c:	01052e05 	tsteq	r5, r5, lsl #28
    1a40:	06380567 	ldrteq	r0, [r8], -r7, ror #10
    1a44:	05010629 	streq	r0, [r1, #-1577]	; 0xfffff9d7
    1a48:	05670605 	strbeq	r0, [r7, #-1541]!	; 0xfffff9fb
    1a4c:	05010611 	streq	r0, [r1, #-1553]	; 0xfffff9ef
    1a50:	01052e05 	tsteq	r5, r5, lsl #28
    1a54:	06160567 	ldreq	r0, [r6], -r7, ror #10
    1a58:	052e1503 	streq	r1, [lr, #-1283]!	; 0xfffffafd
    1a5c:	68673505 	stmdavs	r7!, {r0, r2, r8, sl, ip, sp}^
    1a60:	0c036835 	stceq	8, cr6, [r3], {53}	; 0x35
    1a64:	696b852e 	stmdbvs	fp!, {r1, r2, r3, r5, r8, sl, pc}^
    1a68:	660c0369 	strvs	r0, [ip], -r9, ror #6
    1a6c:	05676b13 	strbeq	r6, [r7, #-2835]!	; 0xfffff4ed
    1a70:	052f0601 	streq	r0, [pc, #-1537]!	; 1477 <__code_start__-0x6b89>
    1a74:	25080619 	strcs	r0, [r8, #-1561]	; 0xfffff9e7
    1a78:	05340505 	ldreq	r0, [r4, #-1285]!	; 0xfffffafb
    1a7c:	0501060d 	streq	r0, [r1, #-1549]	; 0xfffff9f3
    1a80:	19054c01 	stmdbne	r5, {r0, sl, fp, lr}
    1a84:	05056706 	streq	r6, [r5, #-1798]	; 0xfffff8fa
    1a88:	060d0536 			; <UNDEFINED> instruction: 0x060d0536
    1a8c:	4a280501 	bmi	a02e98 <__bss_end__+0x9f9418>
    1a90:	05300105 	ldreq	r0, [r0, #-261]!	; 0xfffffefb
    1a94:	05870615 	streq	r0, [r7, #1557]	; 0x615
    1a98:	052f2f05 	streq	r2, [pc, #-3845]!	; b9b <__code_start__-0x7465>
    1a9c:	04020009 	streq	r0, [r2], #-9
    1aa0:	0a051301 	beq	1466ac <__bss_end__+0x13cc2c>
    1aa4:	01040200 	mrseq	r0, R12_usr
    1aa8:	000c0511 	andeq	r0, ip, r1, lsl r5
    1aac:	06010402 	streq	r0, [r1], -r2, lsl #8
    1ab0:	000a0501 	andeq	r0, sl, r1, lsl #10
    1ab4:	2e010402 	cdpcs	4, 0, cr0, cr1, cr2, {0}
    1ab8:	4c060505 	cfstr32mi	mvfx0, [r6], {5}
    1abc:	01060e05 	tsteq	r6, r5, lsl #28
    1ac0:	054a0905 	strbeq	r0, [sl, #-2309]	; 0xfffff6fb
    1ac4:	2f2f0605 	svccs	0x002f0605
    1ac8:	13060105 	movwne	r0, #24837	; 0x6105
    1acc:	67061c05 	strvs	r1, [r6, -r5, lsl #24]
    1ad0:	05050106 	streq	r0, [r5, #-262]	; 0xfffffefa
    1ad4:	052f4b06 	streq	r4, [pc, #-2822]!	; fd6 <__code_start__-0x702a>
    1ad8:	04020009 	streq	r0, [r2], #-9
    1adc:	0a051301 	beq	1466e8 <__bss_end__+0x13cc68>
    1ae0:	01040200 	mrseq	r0, R12_usr
    1ae4:	000c0511 	andeq	r0, ip, r1, lsl r5
    1ae8:	06010402 	streq	r0, [r1], -r2, lsl #8
    1aec:	000a0501 	andeq	r0, sl, r1, lsl #10
    1af0:	2e010402 	cdpcs	4, 0, cr0, cr1, cr2, {0}
    1af4:	4c060505 	cfstr32mi	mvfx0, [r6], {5}
    1af8:	06010567 	streq	r0, [r1], -r7, ror #10
    1afc:	0619052f 	ldreq	r0, [r9], -pc, lsr #10
    1b00:	2e1b054c 	cfmac32cs	mvfx0, mvfx11, mvfx12
    1b04:	052e2a05 	streq	r2, [lr, #-2565]!	; 0xfffff5fb
    1b08:	05010631 	streq	r0, [r1, #-1585]	; 0xfffff9cf
    1b0c:	1c052e42 	stcne	14, cr2, [r5], {66}	; 0x42
    1b10:	05053106 	streq	r3, [r5, #-262]	; 0xfffffefa
    1b14:	2e09032f 	cdpcs	3, 0, cr0, cr9, cr15, {1}
    1b18:	01060e05 	tsteq	r6, r5, lsl #28
    1b1c:	054a2105 	strbeq	r2, [sl, #-261]	; 0xfffffefb
    1b20:	2e0a0301 	cdpcs	3, 0, cr0, cr10, cr1, {0}
    1b24:	68061a05 	stmdavs	r6, {r0, r2, r9, fp, ip}
    1b28:	02000905 	andeq	r0, r0, #81920	; 0x14000
    1b2c:	05300104 	ldreq	r0, [r0, #-260]!	; 0xfffffefc
    1b30:	0402000a 	streq	r0, [r2], #-10
    1b34:	0c051101 	stfeqs	f1, [r5], {1}
    1b38:	01040200 	mrseq	r0, R12_usr
    1b3c:	0a050106 	beq	141f5c <__bss_end__+0x1384dc>
    1b40:	01040200 	mrseq	r0, R12_usr
    1b44:	0619052e 	ldreq	r0, [r9], -lr, lsr #10
    1b48:	667ee803 	ldrbtvs	lr, [lr], -r3, lsl #16
    1b4c:	2f2f0505 	svccs	0x002f0505
    1b50:	0105672f 	tsteq	r5, pc, lsr #14
    1b54:	04022f06 	streq	r2, [r2], #-3846	; 0xfffff0fa
    1b58:	9e010100 	adflss	f0, f1, f0
    1b5c:	03000000 	movweq	r0, #0
    1b60:	00005a00 	andeq	r5, r0, r0, lsl #20
    1b64:	fb010200 	blx	4236e <__bss_end__+0x388ee>
    1b68:	01000d0e 	tsteq	r0, lr, lsl #26
    1b6c:	00010101 	andeq	r0, r1, r1, lsl #2
    1b70:	00010000 	andeq	r0, r1, r0
    1b74:	2f2e0100 	svccs	0x002e0100
    1b78:	6362696c 	cmnvs	r2, #108, 18	; 0x1b0000
    1b7c:	73552f00 	cmpvc	r5, #0, 30
    1b80:	2f737265 	svccs	0x00737265
    1b84:	656c696d 	strbvs	r6, [ip, #-2413]!	; 0xfffff693
    1b88:	6f532f73 	svcvs	0x00532f73
    1b8c:	65637275 	strbvs	r7, [r3, #-629]!	; 0xfffffd8b
    1b90:	3273632f 	rsbscc	r6, r3, #-1140850688	; 0xbc000000
    1b94:	786c3034 	stmdavc	ip!, {r2, r4, r5, ip, sp}^
    1b98:	62696c2f 	rsbvs	r6, r9, #12032	; 0x2f00
    1b9c:	692f6970 	stmdbvs	pc!, {r4, r5, r6, r8, fp, sp, lr}	; <UNPREDICTABLE>
    1ba0:	756c636e 	strbvc	r6, [ip, #-878]!	; 0xfffffc92
    1ba4:	00006564 	andeq	r6, r0, r4, ror #10
    1ba8:	63747570 	cmnvs	r4, #112, 10	; 0x1c000000
    1bac:	2e726168 	rpwcssz	f6, f2, #0.0
    1bb0:	00010063 	andeq	r0, r1, r3, rrx
    1bb4:	69707200 	ldmdbvs	r0!, {r9, ip, sp, lr}^
    1bb8:	0200682e 	andeq	r6, r0, #3014656	; 0x2e0000
    1bbc:	05000000 	streq	r0, [r0, #-0]
    1bc0:	02050024 	andeq	r0, r5, #36, 0	; 0x24
    1bc4:	000093b4 			; <UNDEFINED> instruction: 0x000093b4
    1bc8:	01260514 			; <UNDEFINED> instruction: 0x01260514
    1bcc:	01062405 	tsteq	r6, r5, lsl #8
    1bd0:	2e26052e 	cfsh64cs	mvdx0, mvdx6, #30
    1bd4:	2e063405 	cdpcs	4, 0, cr3, cr6, cr5, {0}
    1bd8:	01060105 	tsteq	r6, r5, lsl #2
    1bdc:	4f061b05 	svcmi	0x00061b05
    1be0:	05130505 	ldreq	r0, [r3, #-1285]	; 0xfffffafb
    1be4:	05010611 	streq	r0, [r1, #-1553]	; 0xfffff9ef
    1be8:	23056701 	movwcs	r6, #22273	; 0x5701
    1bec:	05056706 	streq	r6, [r5, #-1798]	; 0xfffff8fa
    1bf0:	06110513 			; <UNDEFINED> instruction: 0x06110513
    1bf4:	4b010501 	blmi	43000 <__bss_end__+0x39580>
    1bf8:	01000402 	tsteq	r0, r2, lsl #8
    1bfc:	0000e201 	andeq	lr, r0, r1, lsl #4
    1c00:	59000300 	stmdbpl	r0, {r8, r9}
    1c04:	02000000 	andeq	r0, r0, #0, 0
    1c08:	0d0efb01 	vstreq	d15, [lr, #-4]
    1c0c:	01010100 	mrseq	r0, (UNDEF: 17)
    1c10:	00000001 	andeq	r0, r0, r1
    1c14:	01000001 	tsteq	r0, r1
    1c18:	696c2f2e 	stmdbvs	ip!, {r1, r2, r3, r5, r8, r9, sl, fp, sp}^
    1c1c:	2f006362 	svccs	0x00006362
    1c20:	72657355 	rsbvc	r7, r5, #1409286145	; 0x54000001
    1c24:	696d2f73 	stmdbvs	sp!, {r0, r1, r4, r5, r6, r8, r9, sl, fp, sp}^
    1c28:	2f73656c 	svccs	0x0073656c
    1c2c:	72756f53 	rsbsvc	r6, r5, #332	; 0x14c
    1c30:	632f6563 			; <UNDEFINED> instruction: 0x632f6563
    1c34:	30343273 	eorscc	r3, r4, r3, ror r2
    1c38:	6c2f786c 	stcvs	8, cr7, [pc], #-432	; 1a90 <__code_start__-0x6570>
    1c3c:	69706269 	ldmdbvs	r0!, {r0, r3, r5, r6, r9, sp, lr}^
    1c40:	636e692f 	cmnvs	lr, #770048	; 0xbc000
    1c44:	6564756c 	strbvs	r7, [r4, #-1388]!	; 0xfffffa94
    1c48:	74730000 	ldrbtvc	r0, [r3], #-0
    1c4c:	74616372 	strbtvc	r6, [r1], #-882	; 0xfffffc8e
    1c50:	0100632e 	tsteq	r0, lr, lsr #6
    1c54:	70720000 	rsbsvc	r0, r2, r0
    1c58:	00682e69 	rsbeq	r2, r8, r9, ror #28
    1c5c:	00000002 	andeq	r0, r0, r2
    1c60:	05002c05 	streq	r2, [r0, #-3077]	; 0xfffff3fb
    1c64:	0093f002 	addseq	pc, r3, r2
    1c68:	05051500 	streq	r1, [r5, #-1280]	; 0xfffffb00
    1c6c:	0b051313 	bleq	1468c0 <__bss_end__+0x13ce40>
    1c70:	05051106 	streq	r1, [r5, #-262]	; 0xfffffefa
    1c74:	01040200 	mrseq	r0, R12_usr
    1c78:	02003006 	andeq	r3, r0, #6, 0
    1c7c:	05150104 	ldreq	r0, [r5, #-260]	; 0xfffffefc
    1c80:	04020009 	streq	r0, [r2], #-9
    1c84:	0b051301 	bleq	146890 <__bss_end__+0x13ce10>
    1c88:	01040200 	mrseq	r0, R12_usr
    1c8c:	0005052f 	andeq	r0, r5, pc, lsr #10
    1c90:	06010402 	streq	r0, [r1], -r2, lsl #8
    1c94:	04020001 	streq	r0, [r2], #-1
    1c98:	4e062e01 	cdpmi	14, 0, cr2, cr6, cr1, {0}
    1c9c:	01060805 	tsteq	r6, r5, lsl #16
    1ca0:	02000505 	andeq	r0, r0, #20971520	; 0x1400000
    1ca4:	2f060104 	svccs	0x00060104
    1ca8:	02000905 	andeq	r0, r0, #81920	; 0x14000
    1cac:	05130104 	ldreq	r0, [r3, #-260]	; 0xfffffefc
    1cb0:	0402000b 	streq	r0, [r2], #-11
    1cb4:	05010601 	streq	r0, [r1, #-1537]	; 0xfffff9ff
    1cb8:	04020009 	streq	r0, [r2], #-9
    1cbc:	052f0601 	streq	r0, [pc, #-1537]!	; 16c3 <__code_start__-0x693d>
    1cc0:	04020005 	streq	r0, [r2], #-5
    1cc4:	05130601 	ldreq	r0, [r3, #-1537]	; 0xfffff9ff
    1cc8:	0402000f 	streq	r0, [r2], #-15
    1ccc:	0d052d01 	stceq	13, cr2, [r5, #-4]
    1cd0:	01040200 	mrseq	r0, R12_usr
    1cd4:	05052f06 	streq	r2, [r5, #-3846]	; 0xfffff0fa
    1cd8:	01040200 	mrseq	r0, R12_usr
    1cdc:	04020106 	streq	r0, [r2], #-262	; 0xfffffefa
    1ce0:	b2010100 	andlt	r0, r1, #0
    1ce4:	03000000 	movweq	r0, #0
    1ce8:	00005900 	andeq	r5, r0, r0, lsl #18
    1cec:	fb010200 	blx	424f6 <__bss_end__+0x38a76>
    1cf0:	01000d0e 	tsteq	r0, lr, lsl #26
    1cf4:	00010101 	andeq	r0, r1, r1, lsl #2
    1cf8:	00010000 	andeq	r0, r1, r0
    1cfc:	2f2e0100 	svccs	0x002e0100
    1d00:	6362696c 	cmnvs	r2, #108, 18	; 0x1b0000
    1d04:	73552f00 	cmpvc	r5, #0, 30
    1d08:	2f737265 	svccs	0x00737265
    1d0c:	656c696d 	strbvs	r6, [ip, #-2413]!	; 0xfffff693
    1d10:	6f532f73 	svcvs	0x00532f73
    1d14:	65637275 	strbvs	r7, [r3, #-629]!	; 0xfffffd8b
    1d18:	3273632f 	rsbscc	r6, r3, #-1140850688	; 0xbc000000
    1d1c:	786c3034 	stmdavc	ip!, {r2, r4, r5, ip, sp}^
    1d20:	62696c2f 	rsbvs	r6, r9, #12032	; 0x2f00
    1d24:	692f6970 	stmdbvs	pc!, {r4, r5, r6, r8, fp, sp, lr}	; <UNPREDICTABLE>
    1d28:	756c636e 	strbvc	r6, [ip, #-878]!	; 0xfffffc92
    1d2c:	00006564 	andeq	r6, r0, r4, ror #10
    1d30:	63727473 	cmnvs	r2, #1929379840	; 0x73000000
    1d34:	632e706d 			; <UNDEFINED> instruction: 0x632e706d
    1d38:	00000100 	andeq	r0, r0, r0, lsl #2
    1d3c:	2e697072 	mcrcs	0, 3, r7, cr9, cr2, {3}
    1d40:	00020068 	andeq	r0, r2, r8, rrx
    1d44:	2a050000 	bcs	141d4c <__bss_end__+0x1382cc>
    1d48:	1c020500 	cfstr32ne	mvfx0, [r2], {-0}
    1d4c:	14000094 	strne	r0, [r0], #-148	; 0xffffff6c
    1d50:	05130905 	ldreq	r0, [r3, #-2309]	; 0xfffff6fb
    1d54:	05010610 	streq	r0, [r1, #-1552]	; 0xfffff9f0
    1d58:	052e060f 	streq	r0, [lr, #-1551]!	; 0xfffff9f1
    1d5c:	05820610 	streq	r0, [r2, #1552]	; 0x610
    1d60:	11052e0f 	tstne	r5, pc, lsl #28
    1d64:	01040200 	mrseq	r0, R12_usr
    1d68:	1c054b06 			; <UNDEFINED> instruction: 0x1c054b06
    1d6c:	01040200 	mrseq	r0, R12_usr
    1d70:	0f052d06 	svceq	0x00052d06
    1d74:	01040200 	mrseq	r0, R12_usr
    1d78:	13052e06 	movwne	r2, #24070	; 0x5e06
    1d7c:	01040200 	mrseq	r0, R12_usr
    1d80:	09050106 	stmdbeq	r5, {r1, r2, r8}
    1d84:	01054c06 	tsteq	r5, r6, lsl #24
    1d88:	054a1306 	strbeq	r1, [sl, #-774]	; 0xfffffcfa
    1d8c:	052d0609 	streq	r0, [sp, #-1545]!	; 0xfffff9f7
    1d90:	2e130601 	cfmsub32cs	mvax0, mvfx0, mvfx3, mvfx1
    1d94:	01000202 	tsteq	r0, r2, lsl #4
    1d98:	00009d01 	andeq	r9, r0, r1, lsl #26
    1d9c:	59000300 	stmdbpl	r0, {r8, r9}
    1da0:	02000000 	andeq	r0, r0, #0, 0
    1da4:	0d0efb01 	vstreq	d15, [lr, #-4]
    1da8:	01010100 	mrseq	r0, (UNDEF: 17)
    1dac:	00000001 	andeq	r0, r0, r1
    1db0:	01000001 	tsteq	r0, r1
    1db4:	696c2f2e 	stmdbvs	ip!, {r1, r2, r3, r5, r8, r9, sl, fp, sp}^
    1db8:	2f006362 	svccs	0x00006362
    1dbc:	72657355 	rsbvc	r7, r5, #1409286145	; 0x54000001
    1dc0:	696d2f73 	stmdbvs	sp!, {r0, r1, r4, r5, r6, r8, r9, sl, fp, sp}^
    1dc4:	2f73656c 	svccs	0x0073656c
    1dc8:	72756f53 	rsbsvc	r6, r5, #332	; 0x14c
    1dcc:	632f6563 			; <UNDEFINED> instruction: 0x632f6563
    1dd0:	30343273 	eorscc	r3, r4, r3, ror r2
    1dd4:	6c2f786c 	stcvs	8, cr7, [pc], #-432	; 1c2c <__code_start__-0x63d4>
    1dd8:	69706269 	ldmdbvs	r0!, {r0, r3, r5, r6, r9, sp, lr}^
    1ddc:	636e692f 	cmnvs	lr, #770048	; 0xbc000
    1de0:	6564756c 	strbvs	r7, [r4, #-1388]!	; 0xfffffa94
    1de4:	74730000 	ldrbtvc	r0, [r3], #-0
    1de8:	79706372 	ldmdbvc	r0!, {r1, r4, r5, r6, r8, r9, sp, lr}^
    1dec:	0100632e 	tsteq	r0, lr, lsr #6
    1df0:	70720000 	rsbsvc	r0, r2, r0
    1df4:	00682e69 	rsbeq	r2, r8, r9, ror #28
    1df8:	00000002 	andeq	r0, r0, r2
    1dfc:	05002a05 	streq	r2, [r0, #-2565]	; 0xfffff5fb
    1e00:	00946002 	addseq	r6, r4, r2
    1e04:	05051400 	streq	r1, [r5, #-1024]	; 0xfffffc00
    1e08:	22051313 	andcs	r1, r5, #1275068416	; 0x4c000000
    1e0c:	01040200 	mrseq	r0, R12_usr
    1e10:	000b052e 	andeq	r0, fp, lr, lsr #10
    1e14:	01010402 	tsteq	r1, r2, lsl #8
    1e18:	02001505 	andeq	r1, r0, #20971520	; 0x1400000
    1e1c:	01060104 	tsteq	r6, r4, lsl #2
    1e20:	02000b05 	andeq	r0, r0, #5120	; 0x1400
    1e24:	052e0104 	streq	r0, [lr, #-260]!	; 0xfffffefc
    1e28:	04020013 	streq	r0, [r2], #-19	; 0xffffffed
    1e2c:	0b052e01 	bleq	14d638 <__bss_end__+0x143bb8>
    1e30:	01040200 	mrseq	r0, R12_usr
    1e34:	0004022e 	andeq	r0, r4, lr, lsr #4
    1e38:	00fd0101 	rscseq	r0, sp, r1, lsl #2
    1e3c:	00030000 	andeq	r0, r3, r0
    1e40:	000000bf 	strheq	r0, [r0], -pc	; <UNPREDICTABLE>
    1e44:	0efb0102 	cdpeq	1, 15, cr0, cr11, cr2, {0}
    1e48:	0101000d 	tsteq	r1, sp
    1e4c:	00000101 	andeq	r0, r0, r1, lsl #2
    1e50:	00000100 	andeq	r0, r0, r0, lsl #2
    1e54:	6c2f2e01 	stcvs	14, cr2, [pc], #-4	; 1e58 <__code_start__-0x61a8>
    1e58:	00636269 	rsbeq	r6, r3, r9, ror #4
    1e5c:	6573552f 	ldrbvs	r5, [r3, #-1327]!	; 0xfffffad1
    1e60:	6d2f7372 	stcvs	3, cr7, [pc, #-456]!	; 1ca0 <__code_start__-0x6360>
    1e64:	73656c69 	cmnvc	r5, #26880	; 0x6900
    1e68:	756f532f 	strbvc	r5, [pc, #-815]!	; 1b41 <__code_start__-0x64bf>
    1e6c:	2f656372 	svccs	0x00656372
    1e70:	34327363 	ldrtcc	r7, [r2], #-867	; 0xfffffc9d
    1e74:	2f786c30 	svccs	0x00786c30
    1e78:	7062696c 	rsbvc	r6, r2, ip, ror #18
    1e7c:	6e692f69 	cdpvs	15, 6, cr2, cr9, cr9, {3}
    1e80:	64756c63 	ldrbtvs	r6, [r5], #-3171	; 0xfffff39d
    1e84:	6f2f0065 	svcvs	0x002f0065
    1e88:	682f7470 	stmdavs	pc!, {r4, r5, r6, sl, ip, sp, lr}	; <UNPREDICTABLE>
    1e8c:	62656d6f 	rsbvs	r6, r5, #7104	; 0x1bc0
    1e90:	2f776572 	svccs	0x00776572
    1e94:	6c6c6543 	cfstr64vs	mvdx6, [ip], #-268	; 0xfffffef4
    1e98:	612f7261 			; <UNDEFINED> instruction: 0x612f7261
    1e9c:	6e2d6d72 	mcrvs	13, 1, r6, cr13, cr2, {3}
    1ea0:	2d656e6f 	stclcs	14, cr6, [r5, #-444]!	; 0xfffffe44
    1ea4:	69626165 	stmdbvs	r2!, {r0, r2, r5, r6, r8, sp, lr}^
    1ea8:	392f392d 	stmdbcc	pc!, {r0, r2, r3, r5, r8, fp, ip, sp}	; <UNPREDICTABLE>
    1eac:	3130322d 	teqcc	r0, sp, lsr #4
    1eb0:	2d347139 	ldfcss	f7, [r4, #-228]!	; 0xffffff1c
    1eb4:	30317363 	eorscc	r7, r1, r3, ror #6
    1eb8:	6c2f6537 	cfstr32vs	mvfx6, [pc], #-220	; 1de4 <__code_start__-0x621c>
    1ebc:	672f6269 	strvs	r6, [pc, -r9, ror #4]!
    1ec0:	612f6363 			; <UNDEFINED> instruction: 0x612f6363
    1ec4:	6e2d6d72 	mcrvs	13, 1, r6, cr13, cr2, {3}
    1ec8:	2d656e6f 	stclcs	14, cr6, [r5, #-444]!	; 0xfffffe44
    1ecc:	69626165 	stmdbvs	r2!, {r0, r2, r5, r6, r8, sp, lr}^
    1ed0:	322e392f 	eorcc	r3, lr, #770048	; 0xbc000
    1ed4:	692f312e 	stmdbvs	pc!, {r1, r2, r3, r5, r8, ip, sp}	; <UNPREDICTABLE>
    1ed8:	756c636e 	strbvc	r6, [ip, #-878]!	; 0xfffffc92
    1edc:	00006564 	andeq	r6, r0, r4, ror #10
    1ee0:	6e727473 	mrcvs	4, 3, r7, cr2, cr3, {3}
    1ee4:	2e706d63 	cdpcs	13, 7, cr6, cr0, cr3, {3}
    1ee8:	00010063 	andeq	r0, r1, r3, rrx
    1eec:	69707200 	ldmdbvs	r0!, {r9, ip, sp, lr}^
    1ef0:	0200682e 	andeq	r6, r0, #3014656	; 0x2e0000
    1ef4:	74730000 	ldrbtvc	r0, [r3], #-0
    1ef8:	66656464 	strbtvs	r6, [r5], -r4, ror #8
    1efc:	0300682e 	movweq	r6, #2094	; 0x82e
    1f00:	05000000 	streq	r0, [r0, #-0]
    1f04:	02050039 	andeq	r0, r5, #57, 0	; 0x39
    1f08:	00009478 	andeq	r9, r0, r8, ror r4
    1f0c:	13050515 	movwne	r0, #21781	; 0x5515
    1f10:	060a0513 			; <UNDEFINED> instruction: 0x060a0513
    1f14:	2f0c052e 	svccs	0x000c052e
    1f18:	052e1305 	streq	r1, [lr, #-773]!	; 0xfffffcfb
    1f1c:	09052e0b 	stmdbeq	r5, {r0, r1, r3, r9, sl, fp, sp}
    1f20:	0a054a06 	beq	154740 <__bss_end__+0x14acc0>
    1f24:	05010611 	streq	r0, [r1, #-1553]	; 0xfffff9ef
    1f28:	01054e0c 	tsteq	r5, ip, lsl #28
    1f2c:	060d052f 	streq	r0, [sp], -pc, lsr #10
    1f30:	061b052b 	ldreq	r0, [fp], -fp, lsr #10
    1f34:	02022e01 	andeq	r2, r2, #1, 28
    1f38:	8a010100 	bhi	42340 <__bss_end__+0x388c0>
    1f3c:	03000000 	movweq	r0, #0
    1f40:	00006e00 	andeq	r6, r0, r0, lsl #28
    1f44:	fb010200 	blx	4274e <__bss_end__+0x38cce>
    1f48:	01000d0e 	tsteq	r0, lr, lsl #26
    1f4c:	00010101 	andeq	r0, r1, r1, lsl #2
    1f50:	00010000 	andeq	r0, r1, r0
    1f54:	2f2e0100 	svccs	0x002e0100
    1f58:	66617473 			; <UNDEFINED> instruction: 0x66617473
    1f5c:	72732d66 	rsbsvc	r2, r3, #6528	; 0x1980
    1f60:	552f0063 	strpl	r0, [pc, #-99]!	; 1f05 <__code_start__-0x60fb>
    1f64:	73726573 	cmnvc	r2, #482344960	; 0x1cc00000
    1f68:	6c696d2f 	stclvs	13, cr6, [r9], #-188	; 0xffffff44
    1f6c:	532f7365 			; <UNDEFINED> instruction: 0x532f7365
    1f70:	6372756f 	cmnvs	r2, #465567744	; 0x1bc00000
    1f74:	73632f65 	cmnvc	r3, #404	; 0x194
    1f78:	6c303432 	cfldrsvs	mvf3, [r0], #-200	; 0xffffff38
    1f7c:	696c2f78 	stmdbvs	ip!, {r3, r4, r5, r6, r8, r9, sl, fp, sp}^
    1f80:	2f697062 	svccs	0x00697062
    1f84:	6c636e69 	stclvs	14, cr6, [r3], #-420	; 0xfffffe5c
    1f88:	00656475 	rsbeq	r6, r5, r5, ror r4
    1f8c:	66656400 	strbtvs	r6, [r5], -r0, lsl #8
    1f90:	746c7561 	strbtvc	r7, [ip], #-1377	; 0xfffffa9f
    1f94:	6265722d 	rsbvs	r7, r5, #-805306366	; 0xd0000002
    1f98:	2d746f6f 	ldclcs	15, cr6, [r4, #-444]!	; 0xfffffe44
    1f9c:	6c6c6163 	stfvse	f6, [ip], #-396	; 0xfffffe74
    1fa0:	2e74756f 	cdpcs	5, 7, cr7, cr4, cr15, {3}
    1fa4:	00010063 	andeq	r0, r1, r3, rrx
    1fa8:	69707200 	ldmdbvs	r0!, {r9, ip, sp, lr}^
    1fac:	0200682e 	andeq	r6, r0, #3014656	; 0x2e0000
    1fb0:	05000000 	streq	r0, [r0, #-0]
    1fb4:	0205001b 	andeq	r0, r5, #27, 0
    1fb8:	000094a8 	andeq	r9, r0, r8, lsr #9
    1fbc:	011c0514 	tsteq	ip, r4, lsl r5
    1fc0:	01060105 	tsteq	r6, r5, lsl #2
    1fc4:	01000202 	tsteq	r0, r2, lsl #4
    1fc8:	Address 0x0000000000001fc8 is out of bounds.


Disassembly of section .debug_str:

00000000 <.debug_str>:
   0:	6f697067 	svcvs	0x00697067
   4:	726c635f 	rsbvc	r6, ip, #2080374785	; 0x7c000001
   8:	65740030 	ldrbvs	r0, [r4, #-48]!	; 0xffffffd0
   c:	672d7473 			; <UNDEFINED> instruction: 0x672d7473
  10:	632e6e65 			; <UNDEFINED> instruction: 0x632e6e65
  14:	5f6f7400 	svcpl	0x006f7400
  18:	74697277 	strbtvc	r7, [r9], #-631	; 0xfffffd89
  1c:	65740065 	ldrbvs	r0, [r4, #-101]!	; 0xffffff9b
  20:	675f7473 			; <UNDEFINED> instruction: 0x675f7473
  24:	6e006e65 	cdpvs	14, 0, cr6, cr0, cr5, {3}
  28:	616d746f 	cmnvs	sp, pc, ror #8
  2c:	6c006e69 	stcvs	14, cr6, [r0], {105}	; 0x69
  30:	20676e6f 	rsbcs	r6, r7, pc, ror #28
  34:	676e6f6c 	strbvs	r6, [lr, -ip, ror #30]!
  38:	736e7520 	cmnvc	lr, #32, 10	; 0x8000000
  3c:	656e6769 	strbvs	r6, [lr, #-1897]!	; 0xfffff897
  40:	6e692064 	cdpvs	0, 6, cr2, cr9, cr4, {3}
  44:	6e750074 	mrcvs	0, 3, r0, cr5, cr4, {3}
  48:	6e676973 			; <UNDEFINED> instruction: 0x6e676973
  4c:	63206465 			; <UNDEFINED> instruction: 0x63206465
  50:	00726168 	rsbseq	r6, r2, r8, ror #2
  54:	616c6564 	cmnvs	ip, r4, ror #10
  58:	736d5f79 	cmnvc	sp, #484	; 0x1e4
  5c:	6f687300 	svcvs	0x00687300
  60:	75207472 	strvc	r7, [r0, #-1138]!	; 0xfffffb8e
  64:	6769736e 	strbvs	r7, [r9, -lr, ror #6]!
  68:	2064656e 	rsbcs	r6, r4, lr, ror #10
  6c:	00746e69 	rsbseq	r6, r4, r9, ror #28
  70:	6f697067 	svcvs	0x00697067
  74:	7465735f 	strbtvc	r7, [r5], #-863	; 0xfffffca1
  78:	74756f5f 	ldrbtvc	r6, [r5], #-3935	; 0xfffff0a1
  7c:	00747570 	rsbseq	r7, r4, r0, ror r5
  80:	616c6564 	cmnvs	ip, r4, ror #10
  84:	636e5f79 	cmnvs	lr, #484	; 0x1e4
  88:	656c6379 	strbvs	r6, [ip, #-889]!	; 0xfffffc87
  8c:	6f5f0073 	svcvs	0x005f0073
  90:	47007475 	smlsdxmi	r0, r5, r4, r7
  94:	4320554e 			; <UNDEFINED> instruction: 0x4320554e
  98:	39203939 	stmdbcc	r0!, {r0, r3, r4, r5, r8, fp, ip, sp}
  9c:	312e322e 			; <UNDEFINED> instruction: 0x312e322e
  a0:	31303220 	teqcc	r0, r0, lsr #4
  a4:	32303139 	eorscc	r3, r0, #1073741838	; 0x4000000e
  a8:	72282035 	eorvc	r2, r8, #53, 0	; 0x35
  ac:	61656c65 	cmnvs	r5, r5, ror #24
  b0:	20296573 	eorcs	r6, r9, r3, ror r5
  b4:	4d52415b 	ldfmie	f4, [r2, #-364]	; 0xfffffe94
  b8:	6d72612f 	ldfvse	f6, [r2, #-188]!	; 0xffffff44
  bc:	622d392d 	eorvs	r3, sp, #737280	; 0xb4000
  c0:	636e6172 	cmnvs	lr, #-2147483620	; 0x8000001c
  c4:	65722068 	ldrbvs	r2, [r2, #-104]!	; 0xffffff98
  c8:	69736976 	ldmdbvs	r3!, {r1, r2, r4, r5, r6, r8, fp, sp, lr}^
  cc:	32206e6f 	eorcc	r6, r0, #1776	; 0x6f0
  d0:	39353737 	ldmdbcc	r5!, {r0, r1, r2, r4, r5, r8, r9, sl, ip, sp}
  d4:	2d205d39 	stccs	13, cr5, [r0, #-228]!	; 0xffffff1c
  d8:	7570636d 	ldrbvc	r6, [r0, #-877]!	; 0xfffffc93
  dc:	6d72613d 	ldfvse	f6, [r2, #-244]!	; 0xffffff0c
  e0:	36373131 			; <UNDEFINED> instruction: 0x36373131
  e4:	2d667a6a 	vstmdbcs	r6!, {s15-s120}
  e8:	6d2d2073 	stcvs	0, cr2, [sp, #-460]!	; 0xfffffe34
  ec:	656e7574 	strbvs	r7, [lr, #-1396]!	; 0xfffffa8c
  f0:	6d72613d 	ldfvse	f6, [r2, #-244]!	; 0xffffff0c
  f4:	36373131 			; <UNDEFINED> instruction: 0x36373131
  f8:	2d667a6a 	vstmdbcs	r6!, {s15-s120}
  fc:	6d2d2073 	stcvs	0, cr2, [sp, #-460]!	; 0xfffffe34
 100:	616f6c66 	cmnvs	pc, r6, ror #24
 104:	62612d74 	rsbvs	r2, r1, #116, 26	; 0x1d00
 108:	6f733d69 	svcvs	0x00733d69
 10c:	2d207466 	cfstrscs	mvf7, [r0, #-408]!	; 0xfffffe68
 110:	6d72616d 	ldfvse	f6, [r2, #-436]!	; 0xfffffe4c
 114:	616d2d20 	cmnvs	sp, r0, lsr #26
 118:	3d686372 	stclcc	3, cr6, [r8, #-456]!	; 0xfffffe38
 11c:	766d7261 	strbtvc	r7, [sp], -r1, ror #4
 120:	207a6b36 	rsbscs	r6, sl, r6, lsr fp
 124:	6467672d 	strbtvs	r6, [r7], #-1837	; 0xfffff8d3
 128:	4f2d2062 	svcmi	0x002d2062
 12c:	74736166 	ldrbtvc	r6, [r3], #-358	; 0xfffffe9a
 130:	74732d20 	ldrbtvc	r2, [r3], #-3360	; 0xfffff2e0
 134:	6e673d64 	cdpvs	13, 6, cr3, cr7, cr4, {3}
 138:	20393975 	eorscs	r3, r9, r5, ror r9
 13c:	7266662d 	rsbvc	r6, r6, #47185920	; 0x2d00000
 140:	74736565 	ldrbtvc	r6, [r3], #-1381	; 0xfffffa9b
 144:	69646e61 	stmdbvs	r4!, {r0, r5, r6, r9, sl, fp, sp, lr}^
 148:	6e00676e 	cdpvs	7, 0, cr6, cr0, cr14, {3}
 14c:	616c6564 	cmnvs	ip, r4, ror #10
 150:	6f6c0079 	svcvs	0x006c0079
 154:	6c20676e 	stcvs	7, cr6, [r0], #-440	; 0xfffffe48
 158:	20676e6f 	rsbcs	r6, r7, pc, ror #28
 15c:	00746e69 	rsbseq	r6, r4, r9, ror #28
 160:	5f697072 	svcpl	0x00697072
 164:	63747570 	cmnvs	r4, #112, 10	; 0x1c000000
 168:	00726168 	rsbseq	r6, r2, r8, ror #2
 16c:	726f6873 	rsbvc	r6, pc, #7536640	; 0x730000
 170:	6e692074 	mcrvs	0, 3, r2, cr9, cr4, {3}
 174:	6e650074 	mcrvs	0, 3, r0, cr5, cr4, {3}
 178:	656c6261 	strbvs	r6, [ip, #-609]!	; 0xfffffd9f
 17c:	6361635f 	cmnvs	r1, #2080374785	; 0x7c000001
 180:	2f006568 	svccs	0x00006568
 184:	72657355 	rsbvc	r7, r5, #1409286145	; 0x54000001
 188:	696d2f73 	stmdbvs	sp!, {r0, r1, r4, r5, r6, r8, r9, sl, fp, sp}^
 18c:	2f73656c 	svccs	0x0073656c
 190:	72756f53 	rsbsvc	r6, r5, #332	; 0x14c
 194:	632f6563 			; <UNDEFINED> instruction: 0x632f6563
 198:	30343273 	eorscc	r3, r4, r3, ror r2
 19c:	6c2f786c 	stcvs	8, cr7, [pc], #-432	; fffffff4 <__bss_end__+0xffff6574>
 1a0:	2f736261 	svccs	0x00736261
 1a4:	69642d33 	stmdbvs	r4!, {r0, r1, r4, r5, r8, sl, fp, sp}^
 1a8:	61746967 	cmnvs	r4, r7, ror #18
 1ac:	6e612d6c 	cdpvs	13, 6, cr2, cr1, cr12, {3}
 1b0:	7a796c61 	bvc	1e5b33c <__bss_end__+0x1e518bc>
 1b4:	632f7265 			; <UNDEFINED> instruction: 0x632f7265
 1b8:	2f65646f 	svccs	0x0065646f
 1bc:	74736574 	ldrbtvc	r6, [r3], #-1396	; 0xfffffa8c
 1c0:	6e65672d 	cdpvs	7, 6, cr6, cr5, cr13, {1}
 1c4:	79636e00 	stmdbvc	r3!, {r9, sl, fp, sp, lr}^
 1c8:	00656c63 	rsbeq	r6, r5, r3, ror #24
 1cc:	6f697067 	svcvs	0x00697067
 1d0:	7465735f 	strbtvc	r7, [r5], #-863	; 0xfffffca1
 1d4:	70670030 	rsbvc	r0, r7, r0, lsr r0
 1d8:	775f6f69 	ldrbvc	r6, [pc, -r9, ror #30]
 1dc:	65746972 	ldrbvs	r6, [r4, #-2418]!	; 0xfffff68e
 1e0:	49504700 	ldmdbmi	r0, {r8, r9, sl, lr}^
 1e4:	55465f4f 	strbpl	r5, [r6, #-3919]	; 0xfffff0b1
 1e8:	4f5f434e 	svcmi	0x005f434e
 1ec:	55505455 	ldrbpl	r5, [r0, #-1109]	; 0xfffffbab
 1f0:	45440054 	strbmi	r0, [r4, #-84]	; 0xffffffac
 1f4:	41565f56 	cmpmi	r6, r6, asr pc
 1f8:	0032334c 	eorseq	r3, r2, ip, asr #6
 1fc:	20554e47 	subscs	r4, r5, r7, asr #28
 200:	20393943 	eorscs	r3, r9, r3, asr #18
 204:	322e3131 	eorcc	r3, lr, #1073741836	; 0x4000000c
 208:	3220312e 	eorcc	r3, r0, #-2147483637	; 0x8000000b
 20c:	30323230 	eorscc	r3, r2, r0, lsr r2
 210:	20313131 	eorscs	r3, r1, r1, lsr r1
 214:	70636d2d 	rsbvc	r6, r3, sp, lsr #26
 218:	72613d75 	rsbvc	r3, r1, #7488	; 0x1d40
 21c:	3731316d 	ldrcc	r3, [r1, -sp, ror #2]!
 220:	667a6a36 			; <UNDEFINED> instruction: 0x667a6a36
 224:	2d20732d 	stccs	3, cr7, [r0, #-180]!	; 0xffffff4c
 228:	6e75746d 	cdpvs	4, 7, cr7, cr5, cr13, {3}
 22c:	72613d65 	rsbvc	r3, r1, #6464	; 0x1940
 230:	3731316d 	ldrcc	r3, [r1, -sp, ror #2]!
 234:	667a6a36 			; <UNDEFINED> instruction: 0x667a6a36
 238:	2d20732d 	stccs	3, cr7, [r0, #-180]!	; 0xffffff4c
 23c:	6f6c666d 	svcvs	0x006c666d
 240:	612d7461 			; <UNDEFINED> instruction: 0x612d7461
 244:	733d6962 	teqvc	sp, #1605632	; 0x188000
 248:	2074666f 	rsbscs	r6, r4, pc, ror #12
 24c:	72616d2d 	rsbvc	r6, r1, #2880	; 0xb40
 250:	6d2d206d 	stcvs	0, cr2, [sp, #-436]!	; 0xfffffe4c
 254:	68637261 	stmdavs	r3!, {r0, r5, r6, r9, ip, sp, lr}^
 258:	6d72613d 	ldfvse	f6, [r2, #-244]!	; 0xffffff0c
 25c:	7a6b3676 	bvc	1acdc3c <__bss_end__+0x1ac41bc>
 260:	67672d20 	strbvs	r2, [r7, -r0, lsr #26]!
 264:	2d206264 	sfmcs	f6, 4, [r0, #-400]!	; 0xfffffe70
 268:	7361664f 	cmnvc	r1, #82837504	; 0x4f00000
 26c:	732d2074 			; <UNDEFINED> instruction: 0x732d2074
 270:	673d6474 			; <UNDEFINED> instruction: 0x673d6474
 274:	3939756e 	ldmdbcc	r9!, {r1, r2, r3, r5, r6, r8, sl, ip, sp, lr}
 278:	66662d20 	strbtvs	r2, [r6], -r0, lsr #26
 27c:	73656572 	cmnvc	r5, #478150656	; 0x1c800000
 280:	646e6174 	strbtvs	r6, [lr], #-372	; 0xfffffe8c
 284:	00676e69 	rsbeq	r6, r7, r9, ror #28
 288:	33545550 	cmpcc	r4, #80, 10	; 0x14000000
 28c:	70670032 	rsbvc	r0, r7, r2, lsr r0
 290:	725f6f69 	subsvc	r6, pc, #420	; 0x1a4
 294:	00646165 	rsbeq	r6, r4, r5, ror #2
 298:	33544547 	cmpcc	r4, #297795584	; 0x11c00000
 29c:	50470032 	subpl	r0, r7, r2, lsr r0
 2a0:	465f4f49 	ldrbmi	r4, [pc], -r9, asr #30
 2a4:	5f434e55 	svcpl	0x00434e55
 2a8:	30544c41 	subscc	r4, r4, r1, asr #24
 2ac:	49504700 	ldmdbmi	r0, {r8, r9, sl, lr}^
 2b0:	55465f4f 	strbpl	r5, [r6, #-3919]	; 0xfffff0b1
 2b4:	415f434e 	cmpmi	pc, lr, asr #6
 2b8:	0031544c 	eorseq	r5, r1, ip, asr #8
 2bc:	4f495047 	svcmi	0x00495047
 2c0:	4e55465f 	mrcmi	6, 2, r4, cr5, cr15, {2}
 2c4:	4c415f43 	mcrrmi	15, 4, r5, r1, cr3
 2c8:	47003254 	smlsdmi	r0, r4, r2, r3
 2cc:	5f4f4950 	svcpl	0x004f4950
 2d0:	434e5546 	movtmi	r5, #58694	; 0xe546
 2d4:	544c415f 	strbpl	r4, [ip], #-351	; 0xfffffea1
 2d8:	50470033 	subpl	r0, r7, r3, lsr r0
 2dc:	465f4f49 	ldrbmi	r4, [pc], -r9, asr #30
 2e0:	5f434e55 	svcpl	0x00434e55
 2e4:	35544c41 	ldrbcc	r4, [r4, #-3137]	; 0xfffff3bf
 2e8:	732f2e00 			; <UNDEFINED> instruction: 0x732f2e00
 2ec:	672f6372 			; <UNDEFINED> instruction: 0x672f6372
 2f0:	2e6f6970 			; <UNDEFINED> instruction: 0x2e6f6970
 2f4:	70670063 	rsbvc	r0, r7, r3, rrx
 2f8:	735f6f69 	cmpvc	pc, #420	; 0x1a4
 2fc:	695f7465 	ldmdbvs	pc, {r0, r2, r5, r6, sl, ip, sp, lr}^	; <UNPREDICTABLE>
 300:	7475706e 	ldrbtvc	r7, [r5], #-110	; 0xffffff92
 304:	69706700 	ldmdbvs	r0!, {r8, r9, sl, sp, lr}^
 308:	65735f6f 	ldrbvs	r5, [r3, #-3951]!	; 0xfffff091
 30c:	666f5f74 	uqsub16vs	r5, pc, r4	; <UNPREDICTABLE>
 310:	75660066 	strbvc	r0, [r6, #-102]!	; 0xffffff9a
 314:	6700636e 	strvs	r6, [r0, -lr, ror #6]
 318:	5f6f6970 	svcpl	0x006f6970
 31c:	636e7566 	cmnvs	lr, #427819008	; 0x19800000
 320:	6700745f 	smlsdvs	r0, pc, r4, r7	; <UNPREDICTABLE>
 324:	5f6f6970 	svcpl	0x006f6970
 328:	3076656c 	rsbscc	r6, r6, ip, ror #10
 32c:	49504700 	ldmdbmi	r0, {r8, r9, sl, lr}^
 330:	55465f4f 	strbpl	r5, [r6, #-3919]	; 0xfffff0b1
 334:	415f434e 	cmpmi	pc, lr, asr #6
 338:	0034544c 	eorseq	r5, r4, ip, asr #8
 33c:	6573552f 	ldrbvs	r5, [r3, #-1327]!	; 0xfffffad1
 340:	6d2f7372 	stcvs	3, cr7, [pc, #-456]!	; 180 <__code_start__-0x7e80>
 344:	73656c69 	cmnvc	r5, #26880	; 0x6900
 348:	756f532f 	strbvc	r5, [pc, #-815]!	; 21 <__code_start__-0x7fdf>
 34c:	2f656372 	svccs	0x00656372
 350:	34327363 	ldrtcc	r7, [r2], #-867	; 0xfffffc9d
 354:	2f786c30 	svccs	0x00786c30
 358:	7062696c 	rsbvc	r6, r2, ip, ror #18
 35c:	61620069 	cmnvs	r2, r9, rrx
 360:	75006b6e 	strvc	r6, [r0, #-2926]	; 0xfffff492
 364:	33746e69 	cmncc	r4, #1680	; 0x690
 368:	00745f32 	rsbseq	r5, r4, r2, lsr pc
 36c:	4f495047 	svcmi	0x00495047
 370:	4e55465f 	mrcmi	6, 2, r4, cr5, cr15, {2}
 374:	4e495f43 	cdpmi	15, 4, cr5, cr9, cr3, {2}
 378:	00545550 	subseq	r5, r4, r0, asr r5
 37c:	6f697067 	svcvs	0x00697067
 380:	7465735f 	strbtvc	r7, [r5], #-863	; 0xfffffca1
 384:	6e75665f 	mrcvs	6, 3, r6, cr5, cr15, {2}
 388:	6f697463 	svcvs	0x00697463
 38c:	7067006e 	rsbvc	r0, r7, lr, rrx
 390:	735f6f69 	cmpvc	pc, #420	; 0x1a4
 394:	6f5f7465 	svcvs	0x005f7465
 398:	7261006e 	rsbvc	r0, r1, #110, 0	; 0x6e
 39c:	76007367 	strvc	r7, [r0], -r7, ror #6
 3a0:	72705f61 	rsbsvc	r5, r0, #388	; 0x184
 3a4:	6b746e69 	blvs	1d1bd50 <__bss_end__+0x1d122d0>
 3a8:	675f5f00 	ldrbvs	r5, [pc, -r0, lsl #30]
 3ac:	5f63756e 	svcpl	0x0063756e
 3b0:	6c5f6176 	ldfvse	f6, [pc], {118}	; 0x76
 3b4:	00747369 	rsbseq	r7, r4, r9, ror #6
 3b8:	70615f5f 	rsbvc	r5, r1, pc, asr pc
 3bc:	6c2f2e00 	stcvs	14, cr2, [pc], #-0	; 3c4 <__code_start__-0x7c3c>
 3c0:	2f636269 	svccs	0x00636269
 3c4:	6e697270 	mcrvs	2, 3, r7, cr9, cr0, {3}
 3c8:	632e6b74 			; <UNDEFINED> instruction: 0x632e6b74
 3cc:	765f5f00 	ldrbvc	r5, [pc], -r0, lsl #30
 3d0:	696c5f61 	stmdbvs	ip!, {r0, r5, r6, r8, r9, sl, fp, ip, lr}^
 3d4:	69007473 	stmdbvs	r0, {r0, r1, r4, r5, r6, sl, ip, sp, lr}
 3d8:	7265746e 	rsbvc	r7, r5, #1845493760	; 0x6e000000
 3dc:	5f6c616e 	svcpl	0x006c616e
 3e0:	6b747570 	blvs	1d1d9a8 <__bss_end__+0x1d13f28>
 3e4:	6c2f2e00 	stcvs	14, cr2, [pc], #-0	; 3ec <__code_start__-0x7c14>
 3e8:	2f636269 	svccs	0x00636269
 3ec:	6b747570 	blvs	1d1d9b4 <__bss_end__+0x1d13f34>
 3f0:	6900632e 	stmdbvs	r0, {r1, r2, r3, r5, r8, r9, sp, lr}
 3f4:	67696473 			; <UNDEFINED> instruction: 0x67696473
 3f8:	75007469 	strvc	r7, [r0, #-1129]	; 0xfffffb97
 3fc:	36746e69 	ldrbtcc	r6, [r4], -r9, ror #28
 400:	00745f34 	rsbseq	r5, r4, r4, lsr pc
 404:	696c2f2e 	stmdbvs	ip!, {r1, r2, r3, r5, r8, r9, sl, fp, sp}^
 408:	762f6362 	strtvc	r6, [pc], -r2, ror #6
 40c:	72702d61 	rsbsvc	r2, r0, #6208	; 0x1840
 410:	6b746e69 	blvs	1d1bdbc <__bss_end__+0x1d1233c>
 414:	5f00632e 	svcpl	0x0000632e
 418:	646f635f 	strbtvs	r6, [pc], #-863	; 420 <__code_start__-0x7be0>
 41c:	74735f65 	ldrbtvc	r5, [r3], #-3941	; 0xfffff09b
 420:	5f747261 	svcpl	0x00747261
 424:	5f5f005f 	svcpl	0x005f005f
 428:	5f737362 	svcpl	0x00737362
 42c:	72617473 	rsbvc	r7, r1, #1929379840	; 0x73000000
 430:	005f5f74 	subseq	r5, pc, r4, ror pc	; <UNPREDICTABLE>
 434:	74646977 	strbtvc	r6, [r4], #-2423	; 0xfffff689
 438:	5f5f0068 	svcpl	0x005f0068
 43c:	434e5546 	movtmi	r5, #58694	; 0xe546
 440:	4e4f4954 			; <UNDEFINED> instruction: 0x4e4f4954
 444:	63005f5f 	movwvs	r5, #3935	; 0xf5f
 448:	6e61656c 	cdpvs	5, 6, cr6, cr1, cr12, {3}
 44c:	6265725f 	rsbvs	r7, r5, #-268435451	; 0xf0000005
 450:	00746f6f 	rsbseq	r6, r4, pc, ror #30
 454:	61645f5f 	cmnvs	r4, pc, asr pc
 458:	655f6174 	ldrbvs	r6, [pc, #-372]	; 2ec <__code_start__-0x7d14>
 45c:	5f5f646e 	svcpl	0x005f646e
 460:	74757000 	ldrbtvc	r7, [r5], #-0
 464:	70665f63 	rsbvc	r5, r6, r3, ror #30
 468:	625f5f00 	subsvs	r5, pc, #0, 30
 46c:	655f7373 	ldrbvs	r7, [pc, #-883]	; 101 <__code_start__-0x7eff>
 470:	5f5f646e 	svcpl	0x005f646e
 474:	685f5f00 	ldmdavs	pc, {r8, r9, sl, fp, ip, lr}^	; <UNPREDICTABLE>
 478:	5f706165 	svcpl	0x00706165
 47c:	72617473 	rsbvc	r7, r1, #1929379840	; 0x73000000
 480:	005f5f74 	subseq	r5, pc, r4, ror pc	; <UNPREDICTABLE>
 484:	5f697072 	svcpl	0x00697072
 488:	5f746573 	svcpl	0x00746573
 48c:	7074756f 	rsbsvc	r7, r4, pc, ror #10
 490:	66007475 			; <UNDEFINED> instruction: 0x66007475
 494:	735f746d 	cmpvc	pc, #1828716544	; 0x6d000000
 498:	74726174 	ldrbtvc	r6, [r2], #-372	; 0xfffffe8c
 49c:	72747300 	rsbsvc	r7, r4, #0, 6
 4a0:	00746163 	rsbseq	r6, r4, r3, ror #2
 4a4:	63727473 	cmnvs	r2, #1929379840	; 0x73000000
 4a8:	6e007970 			; <UNDEFINED> instruction: 0x6e007970
 4ac:	705f6765 	subsvc	r6, pc, r5, ror #14
 4b0:	635f5f00 	cmpvs	pc, #0, 30
 4b4:	5f65646f 	svcpl	0x0065646f
 4b8:	5f646e65 	svcpl	0x00646e65
 4bc:	6d65005f 	stclvs	0, cr0, [r5, #-380]!	; 0xfffffe84
 4c0:	72007469 	andvc	r7, r0, #1761607680	; 0x69000000
 4c4:	72657665 	rsbvc	r7, r5, #105906176	; 0x6500000
 4c8:	73006573 	movwvc	r6, #1395	; 0x573
 4cc:	6d637274 	sfmvs	f7, 2, [r3, #-464]!	; 0xfffffe30
 4d0:	75700070 	ldrbvc	r0, [r0, #-112]!	; 0xffffff90
 4d4:	665f7374 			; <UNDEFINED> instruction: 0x665f7374
 4d8:	5f5f0070 	svcpl	0x005f0070
 4dc:	61746164 	cmnvs	r4, r4, ror #2
 4e0:	6174735f 	cmnvs	r4, pc, asr r3
 4e4:	5f5f7472 	svcpl	0x005f7472
 4e8:	705f5f00 	subsvc	r5, pc, r0, lsl #30
 4ec:	5f676f72 	svcpl	0x00676f72
 4f0:	5f646e65 	svcpl	0x00646e65
 4f4:	756e005f 	strbvc	r0, [lr, #-95]!	; 0xffffffa1
 4f8:	7300316d 	movwvc	r3, #365	; 0x16d
 4fc:	636e7274 	cmnvs	lr, #116, 4	; 0x40000007
 500:	6200706d 	andvs	r7, r0, #109, 0	; 0x6d
 504:	00657361 	rsbeq	r7, r5, r1, ror #6
 508:	6e676973 			; <UNDEFINED> instruction: 0x6e676973
 50c:	705f6465 	subsvc	r6, pc, r5, ror #8
 510:	73696400 	cmnvc	r9, #0, 8
 514:	656c6261 	strbvs	r6, [ip, #-609]!	; 0xfffffd9f
 518:	6361635f 	cmnvs	r1, #2080374785	; 0x7c000001
 51c:	2e006568 	cfsh32cs	mvfx6, mvfx0, #56
 520:	6174732f 	cmnvs	r4, pc, lsr #6
 524:	732d6666 			; <UNDEFINED> instruction: 0x732d6666
 528:	632f6372 			; <UNDEFINED> instruction: 0x632f6372
 52c:	65686361 	strbvs	r6, [r8, #-865]!	; 0xfffffc9f
 530:	7200632e 	andvc	r6, r0, #-1207959552	; 0xb8000000
 534:	725f6970 	subsvc	r6, pc, #112, 18	; 0x1c0000
 538:	6f6f6265 	svcvs	0x006f6265
 53c:	2f2e0074 	svccs	0x002e0074
 540:	66617473 			; <UNDEFINED> instruction: 0x66617473
 544:	72732d66 	rsbsvc	r2, r3, #6528	; 0x1980
 548:	6c632f63 	stclvs	15, cr2, [r3], #-396	; 0xfffffe74
 54c:	2d6e6165 	stfcse	f6, [lr, #-404]!	; 0xfffffe6c
 550:	6f626572 	svcvs	0x00626572
 554:	632e746f 			; <UNDEFINED> instruction: 0x632e746f
 558:	72617500 	rsbvc	r7, r1, #0, 10
 55c:	6c665f74 	stclvs	15, cr5, [r6], #-464	; 0xfffffe30
 560:	5f687375 	svcpl	0x00687375
 564:	5f007874 	svcpl	0x00007874
 568:	61747363 	cmnvs	r4, r3, ror #6
 56c:	62007472 	andvs	r7, r0, #1912602624	; 0x72000000
 570:	655f7373 	ldrbvs	r7, [pc, #-883]	; 205 <__code_start__-0x7dfb>
 574:	7500646e 	strvc	r6, [r0, #-1134]	; 0xfffffb92
 578:	5f747261 	svcpl	0x00747261
 57c:	74696e69 	strbtvc	r6, [r9], #-3689	; 0xfffff197
 580:	73756300 	cmnvc	r5, #0, 6
 584:	5f6d6f74 	svcpl	0x006d6f74
 588:	64616f6c 	strbtvs	r6, [r1], #-3948	; 0xfffff094
 58c:	2e007265 	cdpcs	2, 0, cr7, cr0, cr5, {3}
 590:	6174732f 	cmnvs	r4, pc, lsr #6
 594:	732d6666 			; <UNDEFINED> instruction: 0x732d6666
 598:	632f6372 			; <UNDEFINED> instruction: 0x632f6372
 59c:	72617473 	rsbvc	r7, r1, #1929379840	; 0x73000000
 5a0:	00632e74 	rsbeq	r2, r3, r4, ror lr
 5a4:	74732f2e 	ldrbtvc	r2, [r3], #-3886	; 0xfffff0d2
 5a8:	2d666661 	stclcs	6, cr6, [r6, #-388]!	; 0xfffffe7c
 5ac:	2f637273 	svccs	0x00637273
 5b0:	74737563 	ldrbtvc	r7, [r3], #-1379	; 0xfffffa9d
 5b4:	6c2d6d6f 	stcvs	13, cr6, [sp], #-444	; 0xfffffe44
 5b8:	6564616f 	strbvs	r6, [r4, #-367]!	; 0xfffffe91
 5bc:	00632e72 	rsbeq	r2, r3, r2, ror lr
 5c0:	6f626572 	svcvs	0x00626572
 5c4:	635f746f 	cmpvs	pc, #1862270976	; 0x6f000000
 5c8:	6f6c6c61 	svcvs	0x006c6c61
 5cc:	50007475 	andpl	r7, r0, r5, ror r4
 5d0:	44575f4d 	ldrbmi	r5, [r7], #-3917	; 0xfffff0b3
 5d4:	7300474f 	movwvc	r4, #1871	; 0x74f
 5d8:	755f7465 	ldrbvc	r7, [pc, #-1125]	; 17b <__code_start__-0x7e85>
 5dc:	5f726573 	svcpl	0x00726573
 5e0:	6576656c 	ldrbvs	r6, [r6, #-1388]!	; 0xfffffa94
 5e4:	2f2e006c 	svccs	0x002e006c
 5e8:	66617473 			; <UNDEFINED> instruction: 0x66617473
 5ec:	72732d66 	rsbsvc	r2, r3, #6528	; 0x1980
 5f0:	65722f63 	ldrbvs	r2, [r2, #-3939]!	; 0xfffff09d
 5f4:	746f6f62 	strbtvc	r6, [pc], #-3938	; 5fc <__code_start__-0x7a04>
 5f8:	5000632e 	andpl	r6, r0, lr, lsr #6
 5fc:	41505f4d 	cmpmi	r0, sp, asr #30
 600:	4f575353 	svcmi	0x00575353
 604:	61004452 	tstvs	r0, r2, asr r4
 608:	73755f74 	cmnvc	r5, #116, 30	; 0x1d0
 60c:	6c5f7265 	lfmvs	f7, 2, [pc], {101}	; 0x65
 610:	6c657665 	stclvs	6, cr7, [r5], #-404	; 0xfffffe6c
 614:	5f4d5000 	svcpl	0x004d5000
 618:	43545352 	cmpmi	r4, #1207959553	; 0x48000001
 61c:	4352575f 	cmpmi	r2, #24903680	; 0x17c0000
 620:	465f4746 	ldrbmi	r4, [pc], -r6, asr #14
 624:	5f4c4c55 	svcpl	0x004c4c55
 628:	45534552 	ldrbmi	r4, [r3, #-1362]	; 0xfffffaae
 62c:	4d500054 	ldclmi	0, cr0, [r0, #-336]	; 0xfffffeb0
 630:	5453525f 	ldrbpl	r5, [r3], #-607	; 0xfffffda1
 634:	70630043 	rsbvc	r0, r3, r3, asr #32
 638:	64007273 	strvs	r7, [r0], #-627	; 0xfffffd8d
 63c:	625f7665 	subsvs	r7, pc, #105906176	; 0x6500000
 640:	69727261 	ldmdbvs	r2!, {r0, r5, r6, r9, ip, sp, lr}^
 644:	64007265 	strvs	r7, [r0], #-613	; 0xfffffd9b
 648:	79616c65 	stmdbvc	r1!, {r0, r2, r5, r6, sl, fp, sp, lr}^
 64c:	6365735f 	cmnvs	r5, #2080374785	; 0x7c000001
 650:	732f2e00 			; <UNDEFINED> instruction: 0x732f2e00
 654:	66666174 			; <UNDEFINED> instruction: 0x66666174
 658:	6372732d 	cmnvs	r2, #-1275068416	; 0xb4000000
 65c:	6d69742f 	cfstrdvs	mvd7, [r9, #-188]!	; 0xffffff44
 660:	632e7265 			; <UNDEFINED> instruction: 0x632e7265
 664:	6d697400 	cfstrdvs	mvd7, [r9, #-0]
 668:	675f7265 	ldrbvs	r7, [pc, -r5, ror #4]
 66c:	755f7465 	ldrbvc	r7, [pc, #-1125]	; 20f <__code_start__-0x7df1>
 670:	00636573 	rsbeq	r6, r3, r3, ror r5
 674:	616c6564 	cmnvs	ip, r4, ror #10
 678:	73755f79 	cmnvc	r5, #484	; 0x1e4
 67c:	6d697400 	cfstrdvs	mvd7, [r9, #-0]
 680:	675f7265 	ldrbvs	r7, [pc, -r5, ror #4]
 684:	755f7465 	ldrbvc	r7, [pc, #-1125]	; 227 <__code_start__-0x7dd9>
 688:	5f636573 	svcpl	0x00636573
 68c:	00776172 	rsbseq	r6, r7, r2, ror r1
 690:	64756162 	ldrbtvs	r6, [r5], #-354	; 0xfffffe9e
 694:	6c61765f 	stclvs	6, cr7, [r1], #-380	; 0xfffffe84
 698:	61747300 	cmnvs	r4, r0, lsl #6
 69c:	61750074 	cmnvs	r5, r4, ror r0
 6a0:	635f7472 	cmpvs	pc, #1912602624	; 0x72000000
 6a4:	675f6e61 	ldrbvs	r6, [pc, -r1, ror #28]
 6a8:	00637465 	rsbeq	r7, r3, r5, ror #8
 6ac:	74726175 	ldrbtvc	r6, [r2], #-373	; 0xfffffe8b
 6b0:	7500632e 	strvc	r6, [r0, #-814]	; 0xfffffcd2
 6b4:	5f747261 	svcpl	0x00747261
 6b8:	5f6e6163 	svcpl	0x006e6163
 6bc:	63747570 	cmnvs	r4, #112, 10	; 0x1c000000
 6c0:	72617500 	rsbvc	r7, r1, #0, 10
 6c4:	64610074 	strbtvs	r0, [r1], #-116	; 0xffffff8c
 6c8:	75007264 	strvc	r7, [r0, #-612]	; 0xfffffd9c
 6cc:	5f747261 	svcpl	0x00747261
 6d0:	695f7874 	ldmdbvs	pc, {r2, r4, r5, r6, fp, ip, sp, lr}^	; <UNPREDICTABLE>
 6d4:	6d655f73 	stclvs	15, cr5, [r5, #-460]!	; 0xfffffe34
 6d8:	00797470 	rsbseq	r7, r9, r0, ror r4
 6dc:	33747570 	cmncc	r4, #112, 10	; 0x1c000000
 6e0:	61620032 	cmnvs	r2, r2, lsr r0
 6e4:	61006475 	tstvs	r0, r5, ror r4
 6e8:	655f7875 	ldrbvs	r7, [pc, #-2165]	; fffffe7b <__bss_end__+0xffff63fb>
 6ec:	6c62616e 	stfvse	f6, [r2], #-440	; 0xfffffe48
 6f0:	75007365 	strvc	r7, [r0, #-869]	; 0xfffffc9b
 6f4:	5f747261 	svcpl	0x00747261
 6f8:	63746567 	cmnvs	r4, #432013312	; 0x19c00000
 6fc:	554e4700 	strbpl	r4, [lr, #-1792]	; 0xfffff900
 700:	39394320 	ldmdbcc	r9!, {r5, r8, r9, lr}
 704:	2e303120 	rsfcssp	f3, f0, f0
 708:	20312e33 	eorscs	r2, r1, r3, lsr lr
 70c:	31323032 	teqcc	r2, r2, lsr r0
 710:	34323830 	ldrtcc	r3, [r2], #-2096	; 0xfffff7d0
 714:	65722820 	ldrbvs	r2, [r2, #-2080]!	; 0xfffff7e0
 718:	7361656c 	cmnvc	r1, #108, 10	; 0x1b000000
 71c:	2d202965 			; <UNDEFINED> instruction: 0x2d202965
 720:	7570636d 	ldrbvc	r6, [r0, #-877]!	; 0xfffffc93
 724:	6d72613d 	ldfvse	f6, [r2, #-244]!	; 0xffffff0c
 728:	36373131 			; <UNDEFINED> instruction: 0x36373131
 72c:	2d667a6a 	vstmdbcs	r6!, {s15-s120}
 730:	6d2d2073 	stcvs	0, cr2, [sp, #-460]!	; 0xfffffe34
 734:	656e7574 	strbvs	r7, [lr, #-1396]!	; 0xfffffa8c
 738:	6d72613d 	ldfvse	f6, [r2, #-244]!	; 0xffffff0c
 73c:	36373131 			; <UNDEFINED> instruction: 0x36373131
 740:	2d667a6a 	vstmdbcs	r6!, {s15-s120}
 744:	6d2d2073 	stcvs	0, cr2, [sp, #-460]!	; 0xfffffe34
 748:	616f6c66 	cmnvs	pc, r6, ror #24
 74c:	62612d74 	rsbvs	r2, r1, #116, 26	; 0x1d00
 750:	6f733d69 	svcvs	0x00733d69
 754:	2d207466 	cfstrscs	mvf7, [r0, #-408]!	; 0xfffffe68
 758:	6d72616d 	ldfvse	f6, [r2, #-436]!	; 0xfffffe4c
 75c:	616d2d20 	cmnvs	sp, r0, lsr #26
 760:	3d686372 	stclcc	3, cr6, [r8, #-456]!	; 0xfffffe38
 764:	766d7261 	strbtvc	r7, [sp], -r1, ror #4
 768:	207a6b36 	rsbscs	r6, sl, r6, lsr fp
 76c:	6467672d 	strbtvs	r6, [r7], #-1837	; 0xfffff8d3
 770:	4f2d2062 	svcmi	0x002d2062
 774:	732d2067 			; <UNDEFINED> instruction: 0x732d2067
 778:	673d6474 			; <UNDEFINED> instruction: 0x673d6474
 77c:	3939756e 	ldmdbcc	r9!, {r1, r2, r3, r5, r6, r8, sl, ip, sp, lr}
 780:	66662d20 	strbtvs	r2, [r6], -r0, lsr #26
 784:	73656572 	cmnvc	r5, #478150656	; 0x1c800000
 788:	646e6174 	strbtvs	r6, [lr], #-372	; 0xfffffe8c
 78c:	00676e69 	rsbeq	r6, r7, r9, ror #28
 790:	6c746e63 	ldclvs	14, cr6, [r4], #-396	; 0xfffffe74
 794:	72617500 	rsbvc	r7, r1, #0, 10
 798:	69645f74 	stmdbvs	r4!, {r2, r4, r5, r6, r8, r9, sl, fp, ip, lr}^
 79c:	6c626173 	stfvse	f6, [r2], #-460	; 0xfffffe34
 7a0:	61750065 	cmnvs	r5, r5, rrx
 7a4:	685f7472 	ldmdavs	pc, {r1, r4, r5, r6, sl, ip, sp, lr}^	; <UNPREDICTABLE>
 7a8:	645f7361 	ldrbvs	r7, [pc], #-865	; 7b0 <__code_start__-0x7850>
 7ac:	00617461 	rsbeq	r7, r1, r1, ror #8
 7b0:	695f726f 	ldmdbvs	pc, {r0, r1, r2, r3, r5, r6, r9, ip, sp, lr}^	; <UNPREDICTABLE>
 7b4:	0032336e 	eorseq	r3, r2, lr, ror #6
 7b8:	61726373 	cmnvs	r2, r3, ror r3
 7bc:	00686374 	rsbeq	r6, r8, r4, ror r3
 7c0:	5f787561 	svcpl	0x00787561
 7c4:	69726570 	ldmdbvs	r2!, {r4, r5, r6, r8, sl, sp, lr}^
 7c8:	00736870 	rsbseq	r6, r3, r0, ror r8
 7cc:	6d6f682f 	stclvs	8, cr6, [pc, #-188]!	; 718 <__code_start__-0x78e8>
 7d0:	6e652f65 	cdpvs	15, 6, cr2, cr5, cr5, {3}
 7d4:	72656c67 	rsbvc	r6, r5, #26368	; 0x6700
 7d8:	616c632f 	cmnvs	ip, pc, lsr #6
 7dc:	632f7373 			; <UNDEFINED> instruction: 0x632f7373
 7e0:	30343173 	eorscc	r3, r4, r3, ror r1
 7e4:	32322d65 	eorscc	r2, r2, #6464	; 0x1940
 7e8:	2f6e6977 	svccs	0x006e6977
 7ec:	7062696c 	rsbvc	r6, r2, ip, ror #18
 7f0:	74732f69 	ldrbtvc	r2, [r3], #-3945	; 0xfffff097
 7f4:	2d666661 	stclcs	6, cr6, [r6, #-388]!	; 0xfffffe7c
 7f8:	76697270 			; <UNDEFINED> instruction: 0x76697270
 7fc:	00657461 	rsbeq	r7, r5, r1, ror #8
 800:	5f646e61 	svcpl	0x00646e61
 804:	32336e69 	eorscc	r6, r3, #1680	; 0x690
 808:	72617500 	rsbvc	r7, r1, #0, 10
 80c:	75705f74 	ldrbvc	r5, [r0, #-3956]!	; 0xfffff08c
 810:	67006374 	smlsdxvs	r0, r4, r3, r6
 814:	32337465 	eorscc	r7, r3, #1694498816	; 0x65000000
 818:	746e6900 	strbtvc	r6, [lr], #-2304	; 0xfffff700
 81c:	616e7265 	cmnvs	lr, r5, ror #4
 820:	75705f6c 	ldrbvc	r5, [r0, #-3948]!	; 0xfffff094
 824:	61686374 	smcvs	34356	; 0x8634
 828:	70720072 	rsbsvc	r0, r2, r2, ror r0
 82c:	65735f69 	ldrbvs	r5, [r3, #-3945]!	; 0xfffff097
 830:	75705f74 	ldrbvc	r5, [r0, #-3956]!	; 0xfffff08c
 834:	2e006374 	mcrcs	3, 0, r6, cr0, cr4, {3}
 838:	62696c2f 	rsbvs	r6, r9, #12032	; 0x2f00
 83c:	75702f63 	ldrbvc	r2, [r0, #-3939]!	; 0xfffff09d
 840:	61686374 	smcvs	34356	; 0x8634
 844:	00632e72 	rsbeq	r2, r3, r2, ror lr
 848:	5f697072 	svcpl	0x00697072
 84c:	65736572 	ldrbvs	r6, [r3, #-1394]!	; 0xfffffa8e
 850:	75705f74 	ldrbvc	r5, [r0, #-3956]!	; 0xfffff08c
 854:	2e006374 	mcrcs	3, 0, r6, cr0, cr4, {3}
 858:	62696c2f 	rsbvs	r6, r9, #12032	; 0x2f00
 85c:	74732f63 	ldrbtvc	r2, [r3], #-3939	; 0xfffff09d
 860:	74616372 	strbtvc	r6, [r1], #-882	; 0xfffffc8e
 864:	6400632e 	strvs	r6, [r0], #-814	; 0xfffffcd2
 868:	00747365 	rsbseq	r7, r4, r5, ror #6
 86c:	696c2f2e 	stmdbvs	ip!, {r1, r2, r3, r5, r8, r9, sl, fp, sp}^
 870:	732f6362 			; <UNDEFINED> instruction: 0x732f6362
 874:	6d637274 	sfmvs	f7, 2, [r3, #-464]!	; 0xfffffe30
 878:	00632e70 	rsbeq	r2, r3, r0, ror lr
 87c:	696c2f2e 	stmdbvs	ip!, {r1, r2, r3, r5, r8, r9, sl, fp, sp}^
 880:	732f6362 			; <UNDEFINED> instruction: 0x732f6362
 884:	70637274 	rsbvc	r7, r3, r4, ror r2
 888:	00632e79 	rsbeq	r2, r3, r9, ror lr
 88c:	657a6973 	ldrbvs	r6, [sl, #-2419]!	; 0xfffff68d
 890:	2e00745f 	cfmvsrcs	mvf0, r7
 894:	62696c2f 	rsbvs	r6, r9, #12032	; 0x2f00
 898:	74732f63 	ldrbtvc	r2, [r3], #-3939	; 0xfffff09d
 89c:	6d636e72 	stclvs	14, cr6, [r3, #-456]!	; 0xfffffe38
 8a0:	00632e70 	rsbeq	r2, r3, r0, ror lr
 8a4:	74732f2e 	ldrbtvc	r2, [r3], #-3886	; 0xfffff0d2
 8a8:	2d666661 	stclcs	6, cr6, [r6, #-388]!	; 0xfffffe7c
 8ac:	2f637273 	svccs	0x00637273
 8b0:	61666564 	cmnvs	r6, r4, ror #10
 8b4:	2d746c75 	ldclcs	12, cr6, [r4, #-468]!	; 0xfffffe2c
 8b8:	6f626572 	svcvs	0x00626572
 8bc:	632d746f 			; <UNDEFINED> instruction: 0x632d746f
 8c0:	6f6c6c61 	svcvs	0x006c6c61
 8c4:	632e7475 			; <UNDEFINED> instruction: 0x632e7475
	...

Disassembly of section .debug_frame:

00000000 <.debug_frame>:
   0:	0000000c 	andeq	r0, r0, ip
   4:	ffffffff 			; <UNDEFINED> instruction: 0xffffffff
   8:	7c020001 	stcvc	0, cr0, [r2], {1}
   c:	000d0c0e 	andeq	r0, sp, lr, lsl #24
  10:	0000000c 	andeq	r0, r0, ip
  14:	00000000 	andeq	r0, r0, r0
  18:	00008038 	andeq	r8, r0, r8, lsr r0
  1c:	00000144 	andeq	r0, r0, r4, asr #2
  20:	0000001c 	andeq	r0, r0, ip, lsl r0
  24:	00000000 	andeq	r0, r0, r0
  28:	0000817c 	andeq	r8, r0, ip, ror r1
  2c:	00000174 	andeq	r0, r0, r4, ror r1
  30:	84180e42 	ldrhi	r0, [r8], #-3650	; 0xfffff1be
  34:	86058506 	strhi	r8, [r5], -r6, lsl #10
  38:	88038704 	stmdahi	r3, {r2, r8, r9, sl, pc}
  3c:	00018e02 	andeq	r8, r1, r2, lsl #28
  40:	0000000c 	andeq	r0, r0, ip
  44:	ffffffff 			; <UNDEFINED> instruction: 0xffffffff
  48:	7c020001 	stcvc	0, cr0, [r2], {1}
  4c:	000d0c0e 	andeq	r0, sp, lr, lsl #24
  50:	00000020 	andeq	r0, r0, r0, lsr #32
  54:	00000040 	andeq	r0, r0, r0, asr #32
  58:	000082f0 	strdeq	r8, [r0], -r0
  5c:	00000064 	andeq	r0, r0, r4, rrx
  60:	84100e48 	ldrhi	r0, [r0], #-3656	; 0xfffff1b8
  64:	86038504 	strhi	r8, [r3], -r4, lsl #10
  68:	66018e02 	strvs	r8, [r1], -r2, lsl #28
  6c:	c4c5c6ce 	strbgt	ip, [r5], #1742	; 0x6ce
  70:	0000000e 	andeq	r0, r0, lr
  74:	00000020 	andeq	r0, r0, r0, lsr #32
  78:	00000040 	andeq	r0, r0, r0, asr #32
  7c:	00008354 	andeq	r8, r0, r4, asr r3
  80:	0000005c 	andeq	r0, r0, ip, asr r0
  84:	84100e48 	ldrhi	r0, [r0], #-3656	; 0xfffff1b8
  88:	86038504 	strhi	r8, [r3], -r4, lsl #10
  8c:	62018e02 	andvs	r8, r1, #2, 28
  90:	c4c5c6ce 	strbgt	ip, [r5], #1742	; 0x6ce
  94:	0000000e 	andeq	r0, r0, lr
  98:	0000000c 	andeq	r0, r0, ip
  9c:	00000040 	andeq	r0, r0, r0, asr #32
  a0:	000083b0 			; <UNDEFINED> instruction: 0x000083b0
  a4:	00000018 	andeq	r0, r0, r8, lsl r0
  a8:	0000000c 	andeq	r0, r0, ip
  ac:	00000040 	andeq	r0, r0, r0, asr #32
  b0:	000083c8 	andeq	r8, r0, r8, asr #7
  b4:	00000018 	andeq	r0, r0, r8, lsl r0
  b8:	00000020 	andeq	r0, r0, r0, lsr #32
  bc:	00000040 	andeq	r0, r0, r0, asr #32
  c0:	000083e0 	andeq	r8, r0, r0, ror #7
  c4:	00000058 	andeq	r0, r0, r8, asr r0
  c8:	84100e46 	ldrhi	r0, [r0], #-3654	; 0xfffff1ba
  cc:	86038504 	strhi	r8, [r3], -r4, lsl #10
  d0:	62018e02 	andvs	r8, r1, #2, 28
  d4:	c4c5c6ce 	strbgt	ip, [r5], #1742	; 0x6ce
  d8:	0000000e 	andeq	r0, r0, lr
  dc:	0000000c 	andeq	r0, r0, ip
  e0:	00000040 	andeq	r0, r0, r0, asr #32
  e4:	00008438 	andeq	r8, r0, r8, lsr r4
  e8:	00000030 	andeq	r0, r0, r0, lsr r0
  ec:	00000014 	andeq	r0, r0, r4, lsl r0
  f0:	00000040 	andeq	r0, r0, r0, asr #32
  f4:	00008468 	andeq	r8, r0, r8, ror #8
  f8:	00000028 	andeq	r0, r0, r8, lsr #32
  fc:	84080e44 	strhi	r0, [r8], #-3652	; 0xfffff1bc
 100:	00018e02 	andeq	r8, r1, r2, lsl #28
 104:	0000000c 	andeq	r0, r0, ip
 108:	ffffffff 			; <UNDEFINED> instruction: 0xffffffff
 10c:	7c020001 	stcvc	0, cr0, [r2], {1}
 110:	000d0c0e 	andeq	r0, sp, lr, lsl #24
 114:	00000034 	andeq	r0, r0, r4, lsr r0
 118:	00000104 	andeq	r0, r0, r4, lsl #2
 11c:	00008490 	muleq	r0, r0, r4
 120:	00000058 	andeq	r0, r0, r8, asr r0
 124:	80100e42 	andshi	r0, r0, r2, asr #28
 128:	82038104 	andhi	r8, r3, #1
 12c:	42018302 	andmi	r8, r1, #134217728	; 0x8000000
 130:	07841c0e 	streq	r1, [r4, lr, lsl #24]
 134:	058e0685 	streq	r0, [lr, #1669]	; 0x685
 138:	5a280e44 	bpl	a03a50 <__bss_end__+0x9f9fd0>
 13c:	ce421c0e 	cdpgt	12, 4, cr1, cr2, cr14, {0}
 140:	100ec4c5 	andne	ip, lr, r5, asr #9
 144:	c1c2c342 	bicgt	ip, r2, r2, asr #6
 148:	00000ec0 	andeq	r0, r0, r0, asr #29
 14c:	0000000c 	andeq	r0, r0, ip
 150:	ffffffff 			; <UNDEFINED> instruction: 0xffffffff
 154:	7c020001 	stcvc	0, cr0, [r2], {1}
 158:	000d0c0e 	andeq	r0, sp, lr, lsl #24
 15c:	00000018 	andeq	r0, r0, r8, lsl r0
 160:	0000014c 	andeq	r0, r0, ip, asr #2
 164:	000084e8 	andeq	r8, r0, r8, ror #9
 168:	00000038 	andeq	r0, r0, r8, lsr r0
 16c:	84100e42 	ldrhi	r0, [r0], #-3650	; 0xfffff1be
 170:	86038504 	strhi	r8, [r3], -r4, lsl #10
 174:	00018e02 	andeq	r8, r1, r2, lsl #28
 178:	0000000c 	andeq	r0, r0, ip
 17c:	ffffffff 			; <UNDEFINED> instruction: 0xffffffff
 180:	7c020001 	stcvc	0, cr0, [r2], {1}
 184:	000d0c0e 	andeq	r0, sp, lr, lsl #24
 188:	0000002c 	andeq	r0, r0, ip, lsr #32
 18c:	00000178 	andeq	r0, r0, r8, ror r1
 190:	00008520 	andeq	r8, r0, r0, lsr #10
 194:	00000328 	andeq	r0, r0, r8, lsr #6
 198:	84180e42 	ldrhi	r0, [r8], #-3650	; 0xfffff1be
 19c:	86058506 	strhi	r8, [r5], -r6, lsl #10
 1a0:	88038704 	stmdahi	r3, {r2, r8, r9, sl, pc}
 1a4:	46018e02 	strmi	r8, [r1], -r2, lsl #28
 1a8:	c002600e 	andgt	r6, r2, lr
 1ac:	42180e0a 	andsmi	r0, r8, #160	; 0xa0
 1b0:	0a8e020b 	beq	fe3809e4 <__bss_end__+0xfe376f64>
 1b4:	0b42180e 	bleq	10861f4 <__bss_end__+0x107c774>
 1b8:	00000014 	andeq	r0, r0, r4, lsl r0
 1bc:	00000178 	andeq	r0, r0, r8, ror r1
 1c0:	00008848 	andeq	r8, r0, r8, asr #16
 1c4:	00000060 	andeq	r0, r0, r0, rrx
 1c8:	8e040e52 	mcrhi	14, 0, r0, cr4, cr2, {2}
 1cc:	100e4401 	andne	r4, lr, r1, lsl #8
 1d0:	0000002c 	andeq	r0, r0, ip, lsr #32
 1d4:	00000178 	andeq	r0, r0, r8, ror r1
 1d8:	000088a8 	andeq	r8, r0, r8, lsr #17
 1dc:	0000062c 	andeq	r0, r0, ip, lsr #12
 1e0:	84240e42 	strthi	r0, [r4], #-3650	; 0xfffff1be
 1e4:	86088509 	strhi	r8, [r8], -r9, lsl #10
 1e8:	88068707 	stmdahi	r6, {r0, r1, r2, r8, r9, sl, pc}
 1ec:	8a048905 	bhi	122608 <__bss_end__+0x118b88>
 1f0:	8e028b03 	vmlahi.f64	d8, d2, d3
 1f4:	c00e5201 	andgt	r5, lr, r1, lsl #4
 1f8:	0a860202 	beq	fe180a08 <__bss_end__+0xfe176f88>
 1fc:	0b42240e 	bleq	108923c <__bss_end__+0x107f7bc>
 200:	0000000c 	andeq	r0, r0, ip
 204:	ffffffff 			; <UNDEFINED> instruction: 0xffffffff
 208:	7c020001 	stcvc	0, cr0, [r2], {1}
 20c:	000d0c0e 	andeq	r0, sp, lr, lsl #24
 210:	0000000c 	andeq	r0, r0, ip
 214:	00000200 	andeq	r0, r0, r0, lsl #4
 218:	00008ed4 	ldrdeq	r8, [r0], -r4
 21c:	00000010 	andeq	r0, r0, r0, lsl r0
 220:	0000000c 	andeq	r0, r0, ip
 224:	00000200 	andeq	r0, r0, r0, lsl #4
 228:	00008ee4 	andeq	r8, r0, r4, ror #29
 22c:	00000010 	andeq	r0, r0, r0, lsl r0
 230:	0000000c 	andeq	r0, r0, ip
 234:	ffffffff 			; <UNDEFINED> instruction: 0xffffffff
 238:	7c020001 	stcvc	0, cr0, [r2], {1}
 23c:	000d0c0e 	andeq	r0, sp, lr, lsl #24
 240:	00000014 	andeq	r0, r0, r4, lsl r0
 244:	00000230 	andeq	r0, r0, r0, lsr r2
 248:	00008ef4 	strdeq	r8, [r0], -r4
 24c:	0000002c 	andeq	r0, r0, ip, lsr #32
 250:	84080e44 	strhi	r0, [r8], #-3652	; 0xfffff1bc
 254:	00018e02 	andeq	r8, r1, r2, lsl #28
 258:	0000000c 	andeq	r0, r0, ip
 25c:	ffffffff 			; <UNDEFINED> instruction: 0xffffffff
 260:	7c020001 	stcvc	0, cr0, [r2], {1}
 264:	000d0c0e 	andeq	r0, sp, lr, lsl #24
 268:	00000018 	andeq	r0, r0, r8, lsl r0
 26c:	00000258 	andeq	r0, r0, r8, asr r2
 270:	00008f20 	andeq	r8, r0, r0, lsr #30
 274:	000000f8 	strdeq	r0, [r0], -r8
 278:	84100e42 	ldrhi	r0, [r0], #-3650	; 0xfffff1be
 27c:	86038504 	strhi	r8, [r3], -r4, lsl #10
 280:	00018e02 	andeq	r8, r1, r2, lsl #28
 284:	0000000c 	andeq	r0, r0, ip
 288:	ffffffff 			; <UNDEFINED> instruction: 0xffffffff
 28c:	7c020001 	stcvc	0, cr0, [r2], {1}
 290:	000d0c0e 	andeq	r0, sp, lr, lsl #24
 294:	0000000c 	andeq	r0, r0, ip
 298:	00000284 	andeq	r0, r0, r4, lsl #5
 29c:	00009018 	andeq	r9, r0, r8, lsl r0
 2a0:	00000004 	andeq	r0, r0, r4
 2a4:	0000000c 	andeq	r0, r0, ip
 2a8:	ffffffff 			; <UNDEFINED> instruction: 0xffffffff
 2ac:	7c020001 	stcvc	0, cr0, [r2], {1}
 2b0:	000d0c0e 	andeq	r0, sp, lr, lsl #24
 2b4:	0000000c 	andeq	r0, r0, ip
 2b8:	000002a4 	andeq	r0, r0, r4, lsr #5
 2bc:	0000901c 	andeq	r9, r0, ip, lsl r0
 2c0:	00000018 	andeq	r0, r0, r8, lsl r0
 2c4:	0000000c 	andeq	r0, r0, ip
 2c8:	000002a4 	andeq	r0, r0, r4, lsr #5
 2cc:	00009034 	andeq	r9, r0, r4, lsr r0
 2d0:	00000014 	andeq	r0, r0, r4, lsl r0
 2d4:	00000014 	andeq	r0, r0, r4, lsl r0
 2d8:	000002a4 	andeq	r0, r0, r4, lsr #5
 2dc:	00009048 	andeq	r9, r0, r8, asr #32
 2e0:	00000060 	andeq	r0, r0, r0, rrx
 2e4:	84080e42 	strhi	r0, [r8], #-3650	; 0xfffff1be
 2e8:	00018e02 	andeq	r8, r1, r2, lsl #28
 2ec:	0000000c 	andeq	r0, r0, ip
 2f0:	ffffffff 			; <UNDEFINED> instruction: 0xffffffff
 2f4:	7c020001 	stcvc	0, cr0, [r2], {1}
 2f8:	000d0c0e 	andeq	r0, sp, lr, lsl #24
 2fc:	0000000c 	andeq	r0, r0, ip
 300:	000002ec 	andeq	r0, r0, ip, ror #5
 304:	000090a8 	andeq	r9, r0, r8, lsr #1
 308:	0000000c 	andeq	r0, r0, ip
 30c:	00000014 	andeq	r0, r0, r4, lsl r0
 310:	000002ec 	andeq	r0, r0, ip, ror #5
 314:	000090b4 	strheq	r9, [r0], -r4
 318:	00000024 	andeq	r0, r0, r4, lsr #32
 31c:	84080e42 	strhi	r0, [r8], #-3650	; 0xfffff1be
 320:	00018e02 	andeq	r8, r1, r2, lsl #28
 324:	0000001c 	andeq	r0, r0, ip, lsl r0
 328:	000002ec 	andeq	r0, r0, ip, ror #5
 32c:	000090d8 	ldrdeq	r9, [r0], -r8
 330:	00000048 	andeq	r0, r0, r8, asr #32
 334:	84180e42 	ldrhi	r0, [r8], #-3650	; 0xfffff1be
 338:	86058506 	strhi	r8, [r5], -r6, lsl #10
 33c:	88038704 	stmdahi	r3, {r2, r8, r9, sl, pc}
 340:	00018e02 	andeq	r8, r1, r2, lsl #28
 344:	0000001c 	andeq	r0, r0, ip, lsl r0
 348:	000002ec 	andeq	r0, r0, ip, ror #5
 34c:	00009120 	andeq	r9, r0, r0, lsr #2
 350:	00000050 	andeq	r0, r0, r0, asr r0
 354:	84180e42 	ldrhi	r0, [r8], #-3650	; 0xfffff1be
 358:	86058506 	strhi	r8, [r5], -r6, lsl #10
 35c:	88038704 	stmdahi	r3, {r2, r8, r9, sl, pc}
 360:	00018e02 	andeq	r8, r1, r2, lsl #28
 364:	0000001c 	andeq	r0, r0, ip, lsl r0
 368:	000002ec 	andeq	r0, r0, ip, ror #5
 36c:	00009170 	andeq	r9, r0, r0, ror r1
 370:	00000054 	andeq	r0, r0, r4, asr r0
 374:	84180e42 	ldrhi	r0, [r8], #-3650	; 0xfffff1be
 378:	86058506 	strhi	r8, [r5], -r6, lsl #10
 37c:	88038704 	stmdahi	r3, {r2, r8, r9, sl, pc}
 380:	00018e02 	andeq	r8, r1, r2, lsl #28
 384:	0000000c 	andeq	r0, r0, ip
 388:	ffffffff 			; <UNDEFINED> instruction: 0xffffffff
 38c:	7c020001 	stcvc	0, cr0, [r2], {1}
 390:	000d0c0e 	andeq	r0, sp, lr, lsl #24
 394:	00000018 	andeq	r0, r0, r8, lsl r0
 398:	00000384 	andeq	r0, r0, r4, lsl #7
 39c:	000091c4 	andeq	r9, r0, r4, asr #3
 3a0:	00000020 	andeq	r0, r0, r0, lsr #32
 3a4:	84100e42 	ldrhi	r0, [r0], #-3650	; 0xfffff1be
 3a8:	86038504 	strhi	r8, [r3], -r4, lsl #10
 3ac:	00018e02 	andeq	r8, r1, r2, lsl #28
 3b0:	00000018 	andeq	r0, r0, r8, lsl r0
 3b4:	00000384 	andeq	r0, r0, r4, lsl #7
 3b8:	000091e4 	andeq	r9, r0, r4, ror #3
 3bc:	00000020 	andeq	r0, r0, r0, lsr #32
 3c0:	84100e42 	ldrhi	r0, [r0], #-3650	; 0xfffff1be
 3c4:	86038504 	strhi	r8, [r3], -r4, lsl #10
 3c8:	00018e02 	andeq	r8, r1, r2, lsl #28
 3cc:	00000014 	andeq	r0, r0, r4, lsl r0
 3d0:	00000384 	andeq	r0, r0, r4, lsl #7
 3d4:	00009204 	andeq	r9, r0, r4, lsl #4
 3d8:	000000b0 	strheq	r0, [r0], -r0	; <UNPREDICTABLE>
 3dc:	84080e42 	strhi	r0, [r8], #-3650	; 0xfffff1be
 3e0:	00018e02 	andeq	r8, r1, r2, lsl #28
 3e4:	00000014 	andeq	r0, r0, r4, lsl r0
 3e8:	00000384 	andeq	r0, r0, r4, lsl #7
 3ec:	000092b4 			; <UNDEFINED> instruction: 0x000092b4
 3f0:	00000018 	andeq	r0, r0, r8, lsl r0
 3f4:	84080e42 	strhi	r0, [r8], #-3650	; 0xfffff1be
 3f8:	00018e02 	andeq	r8, r1, r2, lsl #28
 3fc:	00000014 	andeq	r0, r0, r4, lsl r0
 400:	00000384 	andeq	r0, r0, r4, lsl #7
 404:	000092cc 	andeq	r9, r0, ip, asr #5
 408:	00000020 	andeq	r0, r0, r0, lsr #32
 40c:	84080e42 	strhi	r0, [r8], #-3650	; 0xfffff1be
 410:	00018e02 	andeq	r8, r1, r2, lsl #28
 414:	00000014 	andeq	r0, r0, r4, lsl r0
 418:	00000384 	andeq	r0, r0, r4, lsl #7
 41c:	000092ec 	andeq	r9, r0, ip, ror #5
 420:	00000030 	andeq	r0, r0, r0, lsr r0
 424:	84080e42 	strhi	r0, [r8], #-3650	; 0xfffff1be
 428:	00018e02 	andeq	r8, r1, r2, lsl #28
 42c:	00000014 	andeq	r0, r0, r4, lsl r0
 430:	00000384 	andeq	r0, r0, r4, lsl #7
 434:	0000931c 	andeq	r9, r0, ip, lsl r3
 438:	00000030 	andeq	r0, r0, r0, lsr r0
 43c:	84080e42 	strhi	r0, [r8], #-3650	; 0xfffff1be
 440:	00018e02 	andeq	r8, r1, r2, lsl #28
 444:	00000014 	andeq	r0, r0, r4, lsl r0
 448:	00000384 	andeq	r0, r0, r4, lsl #7
 44c:	0000934c 	andeq	r9, r0, ip, asr #6
 450:	00000010 	andeq	r0, r0, r0, lsl r0
 454:	84080e42 	strhi	r0, [r8], #-3650	; 0xfffff1be
 458:	00018e02 	andeq	r8, r1, r2, lsl #28
 45c:	00000014 	andeq	r0, r0, r4, lsl r0
 460:	00000384 	andeq	r0, r0, r4, lsl #7
 464:	0000935c 	andeq	r9, r0, ip, asr r3
 468:	00000020 	andeq	r0, r0, r0, lsr #32
 46c:	84080e42 	strhi	r0, [r8], #-3650	; 0xfffff1be
 470:	00018e02 	andeq	r8, r1, r2, lsl #28
 474:	00000014 	andeq	r0, r0, r4, lsl r0
 478:	00000384 	andeq	r0, r0, r4, lsl #7
 47c:	0000937c 	andeq	r9, r0, ip, ror r3
 480:	00000014 	andeq	r0, r0, r4, lsl r0
 484:	84080e42 	strhi	r0, [r8], #-3650	; 0xfffff1be
 488:	00018e02 	andeq	r8, r1, r2, lsl #28
 48c:	00000014 	andeq	r0, r0, r4, lsl r0
 490:	00000384 	andeq	r0, r0, r4, lsl #7
 494:	00009390 	muleq	r0, r0, r3
 498:	00000024 	andeq	r0, r0, r4, lsr #32
 49c:	84080e42 	strhi	r0, [r8], #-3650	; 0xfffff1be
 4a0:	00018e02 	andeq	r8, r1, r2, lsl #28
 4a4:	0000000c 	andeq	r0, r0, ip
 4a8:	ffffffff 			; <UNDEFINED> instruction: 0xffffffff
 4ac:	7c020001 	stcvc	0, cr0, [r2], {1}
 4b0:	000d0c0e 	andeq	r0, sp, lr, lsl #24
 4b4:	00000014 	andeq	r0, r0, r4, lsl r0
 4b8:	000004a4 	andeq	r0, r0, r4, lsr #9
 4bc:	000093b4 			; <UNDEFINED> instruction: 0x000093b4
 4c0:	00000014 	andeq	r0, r0, r4, lsl r0
 4c4:	84080e42 	strhi	r0, [r8], #-3650	; 0xfffff1be
 4c8:	00018e02 	andeq	r8, r1, r2, lsl #28
 4cc:	0000000c 	andeq	r0, r0, ip
 4d0:	000004a4 	andeq	r0, r0, r4, lsr #9
 4d4:	000093c8 	andeq	r9, r0, r8, asr #7
 4d8:	00000018 	andeq	r0, r0, r8, lsl r0
 4dc:	0000000c 	andeq	r0, r0, ip
 4e0:	000004a4 	andeq	r0, r0, r4, lsr #9
 4e4:	000093e0 	andeq	r9, r0, r0, ror #7
 4e8:	00000010 	andeq	r0, r0, r0, lsl r0
 4ec:	0000000c 	andeq	r0, r0, ip
 4f0:	ffffffff 			; <UNDEFINED> instruction: 0xffffffff
 4f4:	7c020001 	stcvc	0, cr0, [r2], {1}
 4f8:	000d0c0e 	andeq	r0, sp, lr, lsl #24
 4fc:	0000000c 	andeq	r0, r0, ip
 500:	000004ec 	andeq	r0, r0, ip, ror #9
 504:	000093f0 	strdeq	r9, [r0], -r0
 508:	0000002c 	andeq	r0, r0, ip, lsr #32
 50c:	0000000c 	andeq	r0, r0, ip
 510:	ffffffff 			; <UNDEFINED> instruction: 0xffffffff
 514:	7c020001 	stcvc	0, cr0, [r2], {1}
 518:	000d0c0e 	andeq	r0, sp, lr, lsl #24
 51c:	0000000c 	andeq	r0, r0, ip
 520:	0000050c 	andeq	r0, r0, ip, lsl #10
 524:	0000941c 	andeq	r9, r0, ip, lsl r4
 528:	00000044 	andeq	r0, r0, r4, asr #32
 52c:	0000000c 	andeq	r0, r0, ip
 530:	ffffffff 			; <UNDEFINED> instruction: 0xffffffff
 534:	7c020001 	stcvc	0, cr0, [r2], {1}
 538:	000d0c0e 	andeq	r0, sp, lr, lsl #24
 53c:	0000000c 	andeq	r0, r0, ip
 540:	0000052c 	andeq	r0, r0, ip, lsr #10
 544:	00009460 	andeq	r9, r0, r0, ror #8
 548:	00000018 	andeq	r0, r0, r8, lsl r0
 54c:	0000000c 	andeq	r0, r0, ip
 550:	ffffffff 			; <UNDEFINED> instruction: 0xffffffff
 554:	7c020001 	stcvc	0, cr0, [r2], {1}
 558:	000d0c0e 	andeq	r0, sp, lr, lsl #24
 55c:	0000000c 	andeq	r0, r0, ip
 560:	0000054c 	andeq	r0, r0, ip, asr #10
 564:	00009478 	andeq	r9, r0, r8, ror r4
 568:	00000030 	andeq	r0, r0, r0, lsr r0
 56c:	0000000c 	andeq	r0, r0, ip
 570:	ffffffff 			; <UNDEFINED> instruction: 0xffffffff
 574:	7c020001 	stcvc	0, cr0, [r2], {1}
 578:	000d0c0e 	andeq	r0, sp, lr, lsl #24
 57c:	0000000c 	andeq	r0, r0, ip
 580:	0000056c 	andeq	r0, r0, ip, ror #10
 584:	000094a8 	andeq	r9, r0, r8, lsr #9
 588:	00000004 	andeq	r0, r0, r4

Disassembly of section .debug_loclists:

00000000 <.debug_loclists>:
   0:	00000438 	andeq	r0, r0, r8, lsr r4
   4:	00040005 	andeq	r0, r4, r5
	...
  10:	f8040000 			; <UNDEFINED> instruction: 0xf8040000
  14:	01038802 	tsteq	r3, r2, lsl #16
  18:	03880450 	orreq	r0, r8, #80, 8	; 0x50000000
  1c:	54010390 	strpl	r0, [r1], #-912	; 0xfffffc70
  20:	a0039004 	andge	r9, r3, r4
  24:	01a30403 			; <UNDEFINED> instruction: 0x01a30403
  28:	00009f50 	andeq	r9, r0, r0, asr pc
  2c:	00000000 	andeq	r0, r0, r0
  30:	04000000 	streq	r0, [r0], #-0
  34:	03880384 	orreq	r0, r8, #132, 6	; 0x10000002
  38:	3500700b 	strcc	r7, [r0, #-11]
  3c:	80b42325 	adcshi	r2, r4, r5, lsr #6
  40:	9f028180 	svcls	0x00028180
  44:	8b038804 	blhi	e205c <__bss_end__+0xd85dc>
  48:	04500103 	ldrbeq	r0, [r0], #-259	; 0xfffffefd
  4c:	0390038b 	orrseq	r0, r0, #738197506	; 0x2c000002
  50:	3500740b 	strcc	r7, [r0, #-1035]	; 0xfffffbf5
  54:	80b42325 	adcshi	r2, r4, r5, lsr #6
  58:	9f028180 	svcls	0x00028180
  5c:	a0039004 	andge	r9, r3, r4
  60:	01a30c03 			; <UNDEFINED> instruction: 0x01a30c03
  64:	23253550 			; <UNDEFINED> instruction: 0x23253550
  68:	818080b4 	strhhi	r8, [r0, r4]
  6c:	01009f02 	tsteq	r0, r2, lsl #30
  70:	00000000 	andeq	r0, r0, r0
  74:	03840400 	orreq	r0, r4, #0, 8
  78:	70050388 	andvc	r0, r5, r8, lsl #7
  7c:	9f1a4f00 	svcls	0x001a4f00
  80:	90038804 	andls	r8, r3, r4, lsl #16
  84:	00740503 	rsbseq	r0, r4, r3, lsl #10
  88:	049f1a4f 	ldreq	r1, [pc], #2639	; 90 <__code_start__-0x7f70>
  8c:	03a00390 	moveq	r0, #144, 6	; 0x40000002
  90:	00005401 	andeq	r5, r0, r1, lsl #8
	...
  9c:	04000000 	streq	r0, [r0], #-0
  a0:	02dc02c8 	sbcseq	r0, ip, #200, 4	; 0x8000000c
  a4:	dc045001 	stcle	0, cr5, [r4], {1}
  a8:	0102e002 	tsteq	r2, r2
  ac:	02e00451 	rsceq	r0, r0, #1358954496	; 0x51000000
  b0:	a30402e4 	movwge	r0, #17124	; 0x42e4
  b4:	049f5001 	ldreq	r5, [pc], #1	; bc <__code_start__-0x7f44>
  b8:	02e802e4 	rsceq	r0, r8, #228, 4	; 0x4000000e
  bc:	e8045001 	stmda	r4, {r0, ip, lr}
  c0:	0102ec02 	tsteq	r2, r2, lsl #24
  c4:	02ec0451 	rsceq	r0, ip, #1358954496	; 0x51000000
  c8:	a30402f8 	movwge	r0, #17144	; 0x42f8
  cc:	009f5001 	addseq	r5, pc, r1
  d0:	00000000 	andeq	r0, r0, r0
  d4:	d402c804 	strle	ip, [r2], #-2052	; 0xfffff7fc
  d8:	04510102 	ldrbeq	r0, [r1], #-258	; 0xfffffefe
  dc:	02f802d4 	rscseq	r0, r8, #212, 4	; 0x4000000d
  e0:	5101a304 	tstpl	r1, r4, lsl #6
  e4:	0001009f 	muleq	r1, pc, r0	; <UNPREDICTABLE>
  e8:	00000000 	andeq	r0, r0, r0
  ec:	dc02d804 	stcle	8, cr13, [r2], {4}
  f0:	04500102 	ldrbeq	r0, [r0], #-258	; 0xfffffefe
  f4:	02e002dc 	rsceq	r0, r0, #220, 4	; 0xc000000d
  f8:	e0045101 	and	r5, r4, r1, lsl #2
  fc:	0402e402 	streq	lr, [r2], #-1026	; 0xfffffbfe
 100:	9f5001a3 	svcls	0x005001a3
 104:	00000200 	andeq	r0, r0, r0, lsl #4
 108:	04000000 	streq	r0, [r0], #-0
 10c:	02e802e4 	rsceq	r0, r8, #228, 4	; 0x4000000e
 110:	e8045001 	stmda	r4, {r0, ip, lr}
 114:	0102ec02 	tsteq	r2, r2, lsl #24
 118:	02ec0451 	rsceq	r0, ip, #1358954496	; 0x51000000
 11c:	a30402f8 	movwge	r0, #17144	; 0x42f8
 120:	009f5001 	addseq	r5, pc, r1
 124:	00000000 	andeq	r0, r0, r0
 128:	f0040000 			; <UNDEFINED> instruction: 0xf0040000
 12c:	01029001 	tsteq	r2, r1
 130:	02900450 	addseq	r0, r0, #80, 8	; 0x50000000
 134:	540102b0 	strpl	r0, [r1], #-688	; 0xfffffd50
 138:	c802b004 	stmdagt	r2, {r2, ip, sp, pc}
 13c:	01a30402 			; <UNDEFINED> instruction: 0x01a30402
 140:	02009f50 	andeq	r9, r0, #80, 30	; 0x140
 144:	00000000 	andeq	r0, r0, r0
 148:	01f00400 	mvnseq	r0, r0, lsl #8
 14c:	50010290 	mulpl	r1, r0, r2
 150:	b0029004 	andlt	r9, r2, r4
 154:	04540102 	ldrbeq	r0, [r4], #-258	; 0xfffffefe
 158:	02c802b0 	sbceq	r0, r8, #176, 4
 15c:	5001a304 	andpl	sl, r1, r4, lsl #6
 160:	0000009f 	muleq	r0, pc, r0	; <UNPREDICTABLE>
 164:	00000000 	andeq	r0, r0, r0
 168:	9001f804 	andls	pc, r1, r4, lsl #16
 16c:	04500102 	ldrbeq	r0, [r0], #-258	; 0xfffffefe
 170:	02b00290 	adcseq	r0, r0, #144, 4
 174:	b0045401 	andlt	r5, r4, r1, lsl #8
 178:	0402c802 	streq	ip, [r2], #-2050	; 0xfffff7fe
 17c:	9f5001a3 	svcls	0x005001a3
 180:	00000300 	andeq	r0, r0, r0, lsl #6
 184:	04000000 	streq	r0, [r0], #-0
 188:	029001f8 	addseq	r0, r0, #62	; 0x3e
 18c:	3a007007 	bcc	1c1b0 <__bss_end__+0x12730>
 190:	9f1e331d 	svcls	0x001e331d
 194:	b0029004 	andlt	r9, r2, r4
 198:	00740702 	rsbseq	r0, r4, r2, lsl #14
 19c:	1e331d3a 	mrcne	13, 1, r1, cr3, cr10, {1}
 1a0:	02b0049f 	adcseq	r0, r0, #-1627389952	; 0x9f000000
 1a4:	a30802c8 	movwge	r0, #33480	; 0x82c8
 1a8:	1d3a5001 	ldcne	0, cr5, [sl, #-4]!
 1ac:	009f1e33 	addseq	r1, pc, r3, lsr lr	; <UNPREDICTABLE>
 1b0:	00000000 	andeq	r0, r0, r0
 1b4:	98040000 	stmdals	r4, {}	; <UNPREDICTABLE>
 1b8:	0102c002 	tsteq	r2, r2
 1bc:	02c00456 	sbceq	r0, r0, #1442840576	; 0x56000000
 1c0:	500102c3 	andpl	r0, r1, r3, asr #5
 1c4:	c802c304 	stmdagt	r2, {r2, r8, r9, lr, pc}
 1c8:	01a32602 			; <UNDEFINED> instruction: 0x01a32602
 1cc:	a82da850 	stmdage	sp!, {r4, r6, fp, sp, pc}
 1d0:	0826a426 	stmdaeq	r6!, {r1, r2, r5, sl, sp, pc}
 1d4:	cccccccd 	stclgt	12, cr12, [ip], {205}	; 0xcd
 1d8:	00000000 	andeq	r0, r0, r0
 1dc:	a820081e 	stmdage	r0!, {r1, r2, r3, r4, fp}
 1e0:	2da82526 	cfstr32cs	mvfx2, [r8, #152]!	; 0x98
 1e4:	253300a8 	ldrcs	r0, [r3, #-168]!	; 0xffffff58
 1e8:	a0808023 	addge	r8, r0, r3, lsr #32
 1ec:	9f243240 	svcls	0x00243240
 1f0:	01010000 	mrseq	r0, (UNDEF: 1)
 1f4:	00000000 	andeq	r0, r0, r0
 1f8:	02a80400 	adceq	r0, r8, #0, 8
 1fc:	500102a8 	andpl	r0, r1, r8, lsr #5
 200:	b002a804 	andlt	sl, r2, r4, lsl #16
 204:	74370d02 	ldrtvc	r0, [r7], #-3330	; 0xfffff2fe
 208:	331d3a00 	tstcc	sp, #0, 20
 20c:	7020241e 	eorvc	r2, r0, lr, lsl r4
 210:	049f1a00 	ldreq	r1, [pc], #2560	; 218 <__code_start__-0x7de8>
 214:	02b802b0 	adcseq	r0, r8, #176, 4
 218:	01a3370e 			; <UNDEFINED> instruction: 0x01a3370e
 21c:	331d3a50 	tstcc	sp, #80, 20	; 0x50000
 220:	7020241e 	eorvc	r2, r0, lr, lsl r4
 224:	049f1a00 	ldreq	r1, [pc], #2560	; 22c <__code_start__-0x7dd4>
 228:	02c302b8 	sbceq	r0, r3, #184, 4	; 0x8000000b
 22c:	01a3370e 			; <UNDEFINED> instruction: 0x01a3370e
 230:	331d3a50 	tstcc	sp, #80, 20	; 0x50000
 234:	7320241e 			; <UNDEFINED> instruction: 0x7320241e
 238:	009f1a00 	addseq	r1, pc, r0, lsl #20
 23c:	00000000 	andeq	r0, r0, r0
 240:	01946404 	orrseq	r6, r4, r4, lsl #8
 244:	94045001 	strls	r5, [r4], #-1
 248:	0401c001 	streq	ip, [r1], #-1
 24c:	9f5001a3 	svcls	0x005001a3
 250:	00000200 	andeq	r0, r0, r0, lsl #4
 254:	94640400 	strbtls	r0, [r4], #-1024	; 0xfffffc00
 258:	04500101 	ldrbeq	r0, [r0], #-257	; 0xfffffeff
 25c:	01c00194 			; <UNDEFINED> instruction: 0x01c00194
 260:	5001a304 	andpl	sl, r1, r4, lsl #6
 264:	0000009f 	muleq	r0, pc, r0	; <UNPREDICTABLE>
 268:	6c040000 	stcvs	0, cr0, [r4], {-0}
 26c:	50010194 	mulpl	r1, r4, r1
 270:	c0019404 	andgt	r9, r1, r4, lsl #8
 274:	01a30401 			; <UNDEFINED> instruction: 0x01a30401
 278:	00009f50 	andeq	r9, r0, r0, asr pc
 27c:	04000000 	streq	r0, [r0], #-0
 280:	01b801a8 			; <UNDEFINED> instruction: 0x01b801a8
 284:	b8045401 	stmdalt	r4, {r0, sl, ip, lr}
 288:	2901c001 	stmdbcs	r1, {r0, lr, pc}
 28c:	a35001a3 	cmpge	r0, #-1073741784	; 0xc0000028
 290:	2da85001 	stccs	0, cr5, [r8, #4]!
 294:	26a426a8 	strtcs	r2, [r4], r8, lsr #13
 298:	cccccd08 	stclgt	13, cr12, [ip], {8}
 29c:	000000cc 	andeq	r0, r0, ip, asr #1
 2a0:	20081e00 	andcs	r1, r8, r0, lsl #28
 2a4:	a82526a8 	stmdage	r5!, {r3, r5, r7, r9, sl, sp}
 2a8:	3300a82d 	movwcc	sl, #2093	; 0x82d
 2ac:	311e3525 	tstcc	lr, r5, lsr #10
 2b0:	1e331c24 	cdpne	12, 3, cr1, cr3, cr4, {1}
 2b4:	0001009f 	muleq	r1, pc, r0	; <UNPREDICTABLE>
 2b8:	00000000 	andeq	r0, r0, r0
 2bc:	b801a804 	stmdalt	r1, {r2, fp, sp, pc}
 2c0:	04550101 	ldrbeq	r0, [r5], #-257	; 0xfffffeff
 2c4:	01bb01b8 			; <UNDEFINED> instruction: 0x01bb01b8
 2c8:	bb045001 	bllt	1142d4 <__bss_end__+0x10a854>
 2cc:	2601c001 	strcs	ip, [r1], -r1
 2d0:	a85001a3 	ldmdage	r0, {r0, r1, r5, r7, r8}^
 2d4:	a426a82d 	strtge	sl, [r6], #-2093	; 0xfffff7d3
 2d8:	cccd0826 	stclgt	8, cr0, [sp], {38}	; 0x26
 2dc:	0000cccc 	andeq	ip, r0, ip, asr #25
 2e0:	081e0000 	ldmdaeq	lr, {}	; <UNPREDICTABLE>
 2e4:	2526a820 	strcs	sl, [r6, #-2080]!	; 0xfffff7e0
 2e8:	00a82da8 	adceq	r2, r8, r8, lsr #27
 2ec:	80232533 	eorhi	r2, r3, r3, lsr r5
 2f0:	3240a080 	subcc	sl, r0, #128, 0	; 0x80
 2f4:	02009f24 	andeq	r9, r0, #36, 30	; 0x90
 2f8:	01010000 	mrseq	r0, (UNDEF: 1)
 2fc:	04000000 	streq	r0, [r0], #-0
 300:	01ac01a8 			; <UNDEFINED> instruction: 0x01ac01a8
 304:	ac045001 	stcge	0, cr5, [r4], {1}
 308:	0101ac01 	tsteq	r1, r1, lsl #24
 30c:	01ac0453 			; <UNDEFINED> instruction: 0x01ac0453
 310:	310801b4 			; <UNDEFINED> instruction: 0x310801b4
 314:	73240074 			; <UNDEFINED> instruction: 0x73240074
 318:	049f2100 	ldreq	r2, [pc], #256	; 320 <__code_start__-0x7ce0>
 31c:	01bb01b4 			; <UNDEFINED> instruction: 0x01bb01b4
 320:	00005101 	andeq	r5, r0, r1, lsl #2
 324:	04000000 	streq	r0, [r0], #-0
 328:	50013c00 	andpl	r3, r1, r0, lsl #24
 32c:	04643c04 	strbteq	r3, [r4], #-3076	; 0xfffff3fc
 330:	9f5001a3 	svcls	0x005001a3
 334:	00000000 	andeq	r0, r0, r0
 338:	3f000400 	svccc	0x00000400
 33c:	3f045101 	svccc	0x00045101
 340:	01a30464 			; <UNDEFINED> instruction: 0x01a30464
 344:	00009f51 	andeq	r9, r0, r1, asr pc
 348:	04000000 	streq	r0, [r0], #-0
 34c:	51013f08 	tstpl	r1, r8, lsl #30
 350:	04643f04 	strbteq	r3, [r4], #-3844	; 0xfffff0fc
 354:	9f5101a3 	svcls	0x005101a3
 358:	00000000 	andeq	r0, r0, r0
 35c:	3c080400 	cfstrscc	mvf0, [r8], {-0}
 360:	3c045001 	stccc	0, cr5, [r4], {1}
 364:	01a30464 			; <UNDEFINED> instruction: 0x01a30464
 368:	00009f50 	andeq	r9, r0, r0, asr pc
 36c:	04000000 	streq	r0, [r0], #-0
 370:	54015c4c 	strpl	r5, [r1], #-3148	; 0xfffff3b4
 374:	29645c04 	stmdbcs	r4!, {r2, sl, fp, ip, lr}^
 378:	a35001a3 	cmpge	r0, #-1073741784	; 0xc0000028
 37c:	2da85001 	stccs	0, cr5, [r8, #4]!
 380:	26a426a8 	strtcs	r2, [r4], r8, lsr #13
 384:	cccccd08 	stclgt	13, cr12, [ip], {8}
 388:	000000cc 	andeq	r0, r0, ip, asr #1
 38c:	20081e00 	andcs	r1, r8, r0, lsl #28
 390:	a82526a8 	stmdage	r5!, {r3, r5, r7, r9, sl, sp}
 394:	3300a82d 	movwcc	sl, #2093	; 0x82d
 398:	311e3525 	tstcc	lr, r5, lsr #10
 39c:	1e331c24 	cdpne	12, 3, cr1, cr3, cr4, {1}
 3a0:	0001009f 	muleq	r1, pc, r0	; <UNPREDICTABLE>
 3a4:	00000000 	andeq	r0, r0, r0
 3a8:	015c4c04 	cmpeq	ip, r4, lsl #24
 3ac:	5f5c0456 	svcpl	0x005c0456
 3b0:	5f045001 	svcpl	0x00045001
 3b4:	01a32664 			; <UNDEFINED> instruction: 0x01a32664
 3b8:	a82da850 	stmdage	sp!, {r4, r6, fp, sp, pc}
 3bc:	0826a426 	stmdaeq	r6!, {r1, r2, r5, sl, sp, pc}
 3c0:	cccccccd 	stclgt	12, cr12, [ip], {205}	; 0xcd
 3c4:	00000000 	andeq	r0, r0, r0
 3c8:	a820081e 	stmdage	r0!, {r1, r2, r3, r4, fp}
 3cc:	2da82526 	cfstr32cs	mvfx2, [r8, #152]!	; 0x98
 3d0:	253300a8 	ldrcs	r0, [r3, #-168]!	; 0xffffff58
 3d4:	a0808023 	addge	r8, r0, r3, lsr #32
 3d8:	9f243240 	svcls	0x00243240
 3dc:	00000200 	andeq	r0, r0, r0, lsl #4
 3e0:	04000101 	streq	r0, [r0], #-257	; 0xfffffeff
 3e4:	5001504c 	andpl	r5, r1, ip, asr #32
 3e8:	01505004 	cmpeq	r0, r4
 3ec:	58500451 	ldmdapl	r0, {r0, r4, r6, sl}^
 3f0:	0800750c 	stmdaeq	r0, {r2, r3, r8, sl, ip, sp, lr}
 3f4:	00741aff 	ldrshteq	r1, [r4], #-175	; 0xffffff51
 3f8:	21007124 	tstcs	r0, r4, lsr #2
 3fc:	0000009f 	muleq	r0, pc, r0	; <UNPREDICTABLE>
 400:	00000000 	andeq	r0, r0, r0
 404:	cc01c004 	stcgt	0, cr12, [r1], {4}
 408:	04500101 	ldrbeq	r0, [r0], #-257	; 0xfffffeff
 40c:	01d301cc 	bicseq	r0, r3, ip, asr #3
 410:	d3045301 	movwle	r5, #17153	; 0x4301
 414:	0401d801 	streq	sp, [r1], #-2049	; 0xfffff7ff
 418:	9f5001a3 	svcls	0x005001a3
 41c:	00000000 	andeq	r0, r0, r0
 420:	04000000 	streq	r0, [r0], #-0
 424:	01e401d8 	ldrdeq	r0, [r4, #24]!
 428:	e4045001 	str	r5, [r4], #-1
 42c:	0101eb01 	tsteq	r1, r1, lsl #22
 430:	01eb0453 	mvneq	r0, r3, asr r4
 434:	a30401f0 	movwge	r0, #16880	; 0x41f0
 438:	009f5001 	addseq	r5, pc, r1

Disassembly of section .debug_rnglists:

00000000 <.debug_rnglists>:
   0:	00000057 	andeq	r0, r0, r7, asr r0
   4:	00040005 	andeq	r0, r4, r5
   8:	00000000 	andeq	r0, r0, r0
   c:	040c0804 	streq	r0, [ip], #-2052	; 0xfffff7fc
  10:	5c045814 	stcpl	8, cr5, [r4], {20}
  14:	64040064 	strvs	r0, [r4], #-100	; 0xffffff9c
  18:	b4740470 	ldrbtlt	r0, [r4], #-1136	; 0xfffffb90
  1c:	01b80401 			; <UNDEFINED> instruction: 0x01b80401
  20:	040001c0 	streq	r0, [r0], #-448	; 0xfffffe40
  24:	7404706c 	strvc	r7, [r4], #-108	; 0xffffff94
  28:	b80401b4 	stmdalt	r4, {r2, r4, r5, r7, r8}
  2c:	0001c001 	andeq	ip, r1, r1
  30:	f801f004 			; <UNDEFINED> instruction: 0xf801f004
  34:	01fc0401 	mvnseq	r0, r1, lsl #8
  38:	c00402bc 			; <UNDEFINED> instruction: 0xc00402bc
  3c:	0002c802 	andeq	ip, r2, r2, lsl #16
  40:	f801f804 			; <UNDEFINED> instruction: 0xf801f804
  44:	01fc0401 	mvnseq	r0, r1, lsl #8
  48:	c00402bc 			; <UNDEFINED> instruction: 0xc00402bc
  4c:	0002c802 	andeq	ip, r2, r2, lsl #16
  50:	d002cc04 	andle	ip, r2, r4, lsl #24
  54:	02d80402 	sbcseq	r0, r8, #33554432	; 0x2000000
  58:	Address 0x0000000000000058 is out of bounds.

